ARM GAS  C:\Users\salaz\AppData\Local\Temp\ccFFISlC.s 			page 1


   1              		.syntax unified
   2              		.cpu cortex-m0plus
   3              		.fpu softvfp
   4              		.eabi_attribute 20, 1
   5              		.eabi_attribute 21, 1
   6              		.eabi_attribute 23, 3
   7              		.eabi_attribute 24, 1
   8              		.eabi_attribute 25, 1
   9              		.eabi_attribute 26, 1
  10              		.eabi_attribute 30, 6
  11              		.eabi_attribute 34, 0
  12              		.eabi_attribute 18, 4
  13              		.thumb
  14              		.syntax unified
  15              		.file	"cy_ipc_sema.c"
  16              		.text
  17              	.Ltext0:
  18              		.cfi_sections	.debug_frame
  19              		.section	.rodata
  20              		.align	2
  21              	.LC0:
  22 0000 47656E65 		.ascii	"Generated_Source\\PSoC6\\pdl\\drivers/peripheral/ip"
  22      72617465 
  22      645F536F 
  22      75726365 
  22      5C50536F 
  23 0030 632F6379 		.ascii	"c/cy_ipc_drv.h\000"
  23      5F697063 
  23      5F647276 
  23      2E6800
  24              		.section	.text.Cy_IPC_Drv_GetIpcBaseAddress,"ax",%progbits
  25              		.align	2
  26              		.code	16
  27              		.thumb_func
  28              		.type	Cy_IPC_Drv_GetIpcBaseAddress, %function
  29              	Cy_IPC_Drv_GetIpcBaseAddress:
  30              	.LFB36:
  31              		.file 1 "Generated_Source\\PSoC6\\pdl\\drivers/peripheral/ipc/cy_ipc_drv.h"
   1:Generated_Source\PSoC6\pdl\drivers/peripheral/ipc/cy_ipc_drv.h **** /***************************************************************************//**
   2:Generated_Source\PSoC6\pdl\drivers/peripheral/ipc/cy_ipc_drv.h **** * \file cy_ipc_drv.h
   3:Generated_Source\PSoC6\pdl\drivers/peripheral/ipc/cy_ipc_drv.h **** * \version 1.20
   4:Generated_Source\PSoC6\pdl\drivers/peripheral/ipc/cy_ipc_drv.h **** *
   5:Generated_Source\PSoC6\pdl\drivers/peripheral/ipc/cy_ipc_drv.h **** * Provides an API declaration of the IPC driver.
   6:Generated_Source\PSoC6\pdl\drivers/peripheral/ipc/cy_ipc_drv.h **** *
   7:Generated_Source\PSoC6\pdl\drivers/peripheral/ipc/cy_ipc_drv.h **** ********************************************************************************
   8:Generated_Source\PSoC6\pdl\drivers/peripheral/ipc/cy_ipc_drv.h **** * \copyright
   9:Generated_Source\PSoC6\pdl\drivers/peripheral/ipc/cy_ipc_drv.h **** * Copyright 2016-2018, Cypress Semiconductor Corporation. All rights reserved.
  10:Generated_Source\PSoC6\pdl\drivers/peripheral/ipc/cy_ipc_drv.h **** * You may use this file only in accordance with the license, terms, conditions,
  11:Generated_Source\PSoC6\pdl\drivers/peripheral/ipc/cy_ipc_drv.h **** * disclaimers, and limitations in the end user license agreement accompanying
  12:Generated_Source\PSoC6\pdl\drivers/peripheral/ipc/cy_ipc_drv.h **** * the software package with which this file was provided.
  13:Generated_Source\PSoC6\pdl\drivers/peripheral/ipc/cy_ipc_drv.h **** *******************************************************************************/
  14:Generated_Source\PSoC6\pdl\drivers/peripheral/ipc/cy_ipc_drv.h **** 
  15:Generated_Source\PSoC6\pdl\drivers/peripheral/ipc/cy_ipc_drv.h **** #ifndef CY_IPC_DRV_H
  16:Generated_Source\PSoC6\pdl\drivers/peripheral/ipc/cy_ipc_drv.h **** #define CY_IPC_DRV_H
  17:Generated_Source\PSoC6\pdl\drivers/peripheral/ipc/cy_ipc_drv.h **** 
  18:Generated_Source\PSoC6\pdl\drivers/peripheral/ipc/cy_ipc_drv.h **** 
  19:Generated_Source\PSoC6\pdl\drivers/peripheral/ipc/cy_ipc_drv.h **** /**
ARM GAS  C:\Users\salaz\AppData\Local\Temp\ccFFISlC.s 			page 2


  20:Generated_Source\PSoC6\pdl\drivers/peripheral/ipc/cy_ipc_drv.h **** * \defgroup group_ipc Inter Process Communication (IPC)
  21:Generated_Source\PSoC6\pdl\drivers/peripheral/ipc/cy_ipc_drv.h **** * \{
  22:Generated_Source\PSoC6\pdl\drivers/peripheral/ipc/cy_ipc_drv.h **** * The inter-processor communication (IPC) driver provides a safe and reliable
  23:Generated_Source\PSoC6\pdl\drivers/peripheral/ipc/cy_ipc_drv.h **** * method to transfer data between CPUs. Hardware locking ensures that only one
  24:Generated_Source\PSoC6\pdl\drivers/peripheral/ipc/cy_ipc_drv.h **** * device can acquire and transfer data at a time so no data is lost or
  25:Generated_Source\PSoC6\pdl\drivers/peripheral/ipc/cy_ipc_drv.h **** * overwritten by asynchronous processes or CPUs.
  26:Generated_Source\PSoC6\pdl\drivers/peripheral/ipc/cy_ipc_drv.h **** *
  27:Generated_Source\PSoC6\pdl\drivers/peripheral/ipc/cy_ipc_drv.h **** * There are three parts to the API:
  28:Generated_Source\PSoC6\pdl\drivers/peripheral/ipc/cy_ipc_drv.h **** *     - Driver-level (DRV) API - used internally by Semaphore and Pipe levels
  29:Generated_Source\PSoC6\pdl\drivers/peripheral/ipc/cy_ipc_drv.h **** *     - Pipe-level (PIPE) API - establishes a communication channel between
  30:Generated_Source\PSoC6\pdl\drivers/peripheral/ipc/cy_ipc_drv.h **** *       processors
  31:Generated_Source\PSoC6\pdl\drivers/peripheral/ipc/cy_ipc_drv.h **** *     - Semaphore-level (SEMA) API - enables users to set and clear flags to
  32:Generated_Source\PSoC6\pdl\drivers/peripheral/ipc/cy_ipc_drv.h **** *       synchronize operations.
  33:Generated_Source\PSoC6\pdl\drivers/peripheral/ipc/cy_ipc_drv.h **** *
  34:Generated_Source\PSoC6\pdl\drivers/peripheral/ipc/cy_ipc_drv.h **** * Firmware does not need to use the DRV API. It can implement IPC functionality
  35:Generated_Source\PSoC6\pdl\drivers/peripheral/ipc/cy_ipc_drv.h **** * entirely with the PIPE and SEMA APIs.
  36:Generated_Source\PSoC6\pdl\drivers/peripheral/ipc/cy_ipc_drv.h **** *
  37:Generated_Source\PSoC6\pdl\drivers/peripheral/ipc/cy_ipc_drv.h **** * \section group_ipc_background Background
  38:Generated_Source\PSoC6\pdl\drivers/peripheral/ipc/cy_ipc_drv.h **** *
  39:Generated_Source\PSoC6\pdl\drivers/peripheral/ipc/cy_ipc_drv.h **** * IPC is implemented in hardware as a collection of individual communication
  40:Generated_Source\PSoC6\pdl\drivers/peripheral/ipc/cy_ipc_drv.h **** * channels, each with a set of 32-bit registers. The IPC design implements a set
  41:Generated_Source\PSoC6\pdl\drivers/peripheral/ipc/cy_ipc_drv.h **** * of interrupts that enable each processor to notify the other that data is
  42:Generated_Source\PSoC6\pdl\drivers/peripheral/ipc/cy_ipc_drv.h **** * available, or has been processed. There is also a locking mechanism that
  43:Generated_Source\PSoC6\pdl\drivers/peripheral/ipc/cy_ipc_drv.h **** * allows only one CPU to gain access at a time.
  44:Generated_Source\PSoC6\pdl\drivers/peripheral/ipc/cy_ipc_drv.h **** *
  45:Generated_Source\PSoC6\pdl\drivers/peripheral/ipc/cy_ipc_drv.h **** * The Driver-level API manages each channel's registers to implement IPC
  46:Generated_Source\PSoC6\pdl\drivers/peripheral/ipc/cy_ipc_drv.h **** * functionality. For information on the IPC registers, see the IPC chapter of
  47:Generated_Source\PSoC6\pdl\drivers/peripheral/ipc/cy_ipc_drv.h **** * the Technical Reference Manual (TRM).
  48:Generated_Source\PSoC6\pdl\drivers/peripheral/ipc/cy_ipc_drv.h **** *
  49:Generated_Source\PSoC6\pdl\drivers/peripheral/ipc/cy_ipc_drv.h **** * At the hardware level, communication is a five-step process.
  50:Generated_Source\PSoC6\pdl\drivers/peripheral/ipc/cy_ipc_drv.h **** *     -#  The sending processor acquires a channel
  51:Generated_Source\PSoC6\pdl\drivers/peripheral/ipc/cy_ipc_drv.h **** *     -#  It puts data into the channel
  52:Generated_Source\PSoC6\pdl\drivers/peripheral/ipc/cy_ipc_drv.h **** *     -#  The sender generates a notify event (interrupt)
  53:Generated_Source\PSoC6\pdl\drivers/peripheral/ipc/cy_ipc_drv.h **** *     -#  The receiving processor identifies the sender and retrieves the data
  54:Generated_Source\PSoC6\pdl\drivers/peripheral/ipc/cy_ipc_drv.h **** *     -#  The receiving processor generates a release event (interrupt)
  55:Generated_Source\PSoC6\pdl\drivers/peripheral/ipc/cy_ipc_drv.h **** *
  56:Generated_Source\PSoC6\pdl\drivers/peripheral/ipc/cy_ipc_drv.h **** * \image html ipc_driver.png
  57:Generated_Source\PSoC6\pdl\drivers/peripheral/ipc/cy_ipc_drv.h **** *
  58:Generated_Source\PSoC6\pdl\drivers/peripheral/ipc/cy_ipc_drv.h **** * These transactions are handled transparently by the DRV-level API. Use the
  59:Generated_Source\PSoC6\pdl\drivers/peripheral/ipc/cy_ipc_drv.h **** * PIPE and SEMA layers of the API to implement communication in your application.
  60:Generated_Source\PSoC6\pdl\drivers/peripheral/ipc/cy_ipc_drv.h **** * The data transferred is limited to a single 32-bit value. As implemented by
  61:Generated_Source\PSoC6\pdl\drivers/peripheral/ipc/cy_ipc_drv.h **** * the PIPE API, that value is a pointer to a data structure of arbitrary size
  62:Generated_Source\PSoC6\pdl\drivers/peripheral/ipc/cy_ipc_drv.h **** * and complexity.
  63:Generated_Source\PSoC6\pdl\drivers/peripheral/ipc/cy_ipc_drv.h **** *
  64:Generated_Source\PSoC6\pdl\drivers/peripheral/ipc/cy_ipc_drv.h **** * \section group_ipc_overview Overview
  65:Generated_Source\PSoC6\pdl\drivers/peripheral/ipc/cy_ipc_drv.h **** *
  66:Generated_Source\PSoC6\pdl\drivers/peripheral/ipc/cy_ipc_drv.h **** * The Pipe is the key element in the PDL design. A pipe is typically a
  67:Generated_Source\PSoC6\pdl\drivers/peripheral/ipc/cy_ipc_drv.h **** * full-duplex communication channel between CPU cores. A pipe allows a single
  68:Generated_Source\PSoC6\pdl\drivers/peripheral/ipc/cy_ipc_drv.h **** * conduit to transfer messages or data to and from multiple processes or CPUs.
  69:Generated_Source\PSoC6\pdl\drivers/peripheral/ipc/cy_ipc_drv.h **** *
  70:Generated_Source\PSoC6\pdl\drivers/peripheral/ipc/cy_ipc_drv.h **** * A pipe has two endpoints, one on each core. Each endpoint contains a dedicated
  71:Generated_Source\PSoC6\pdl\drivers/peripheral/ipc/cy_ipc_drv.h **** * IPC channel and an interrupt. IPC channels 0-7 and IPC interrupts 0-7 are
  72:Generated_Source\PSoC6\pdl\drivers/peripheral/ipc/cy_ipc_drv.h **** * reserved for system use.
  73:Generated_Source\PSoC6\pdl\drivers/peripheral/ipc/cy_ipc_drv.h **** *
  74:Generated_Source\PSoC6\pdl\drivers/peripheral/ipc/cy_ipc_drv.h **** * The pipe also contains the number of clients it supports, and for each client
  75:Generated_Source\PSoC6\pdl\drivers/peripheral/ipc/cy_ipc_drv.h **** * a callback function. So the pipe can service a number of clients, each with a
  76:Generated_Source\PSoC6\pdl\drivers/peripheral/ipc/cy_ipc_drv.h **** * separate callback function, on either endpoint. The number of clients a pipe
ARM GAS  C:\Users\salaz\AppData\Local\Temp\ccFFISlC.s 			page 3


  77:Generated_Source\PSoC6\pdl\drivers/peripheral/ipc/cy_ipc_drv.h **** * supports is the sum of each endpoint's clients.
  78:Generated_Source\PSoC6\pdl\drivers/peripheral/ipc/cy_ipc_drv.h **** *
  79:Generated_Source\PSoC6\pdl\drivers/peripheral/ipc/cy_ipc_drv.h **** * This design enables any number of processes on the sending core to put
  80:Generated_Source\PSoC6\pdl\drivers/peripheral/ipc/cy_ipc_drv.h **** * arbitrary data into a single pipe. The first element of that data is the
  81:Generated_Source\PSoC6\pdl\drivers/peripheral/ipc/cy_ipc_drv.h **** * client ID of the client that should handle the data.
  82:Generated_Source\PSoC6\pdl\drivers/peripheral/ipc/cy_ipc_drv.h **** *
  83:Generated_Source\PSoC6\pdl\drivers/peripheral/ipc/cy_ipc_drv.h **** * An interrupt notifies the receiving core that data is available. The receiving
  84:Generated_Source\PSoC6\pdl\drivers/peripheral/ipc/cy_ipc_drv.h **** * core parses the data to identify the client, and then dispatches the event to
  85:Generated_Source\PSoC6\pdl\drivers/peripheral/ipc/cy_ipc_drv.h **** * the appropriate client via the client callback function. An interrupt notifies
  86:Generated_Source\PSoC6\pdl\drivers/peripheral/ipc/cy_ipc_drv.h **** * the sending core that the receiver is finished. In this way a single pipe can
  87:Generated_Source\PSoC6\pdl\drivers/peripheral/ipc/cy_ipc_drv.h **** * manage arbitrary data transfers between cores with data flowing in either
  88:Generated_Source\PSoC6\pdl\drivers/peripheral/ipc/cy_ipc_drv.h **** * direction.
  89:Generated_Source\PSoC6\pdl\drivers/peripheral/ipc/cy_ipc_drv.h **** *
  90:Generated_Source\PSoC6\pdl\drivers/peripheral/ipc/cy_ipc_drv.h **** * \image html ipc_ints.png
  91:Generated_Source\PSoC6\pdl\drivers/peripheral/ipc/cy_ipc_drv.h **** *
  92:Generated_Source\PSoC6\pdl\drivers/peripheral/ipc/cy_ipc_drv.h **** * The application can use semaphores to control access to shared resources, as
  93:Generated_Source\PSoC6\pdl\drivers/peripheral/ipc/cy_ipc_drv.h **** * required by the application's logic.
  94:Generated_Source\PSoC6\pdl\drivers/peripheral/ipc/cy_ipc_drv.h **** *
  95:Generated_Source\PSoC6\pdl\drivers/peripheral/ipc/cy_ipc_drv.h **** * The PDL provides two specific files that set up default IPC functionality.
  96:Generated_Source\PSoC6\pdl\drivers/peripheral/ipc/cy_ipc_drv.h **** * They are cy_ipc_config.h and cy_ipc_config.c. You can modify these files based
  97:Generated_Source\PSoC6\pdl\drivers/peripheral/ipc/cy_ipc_drv.h **** * on the requirements of your design. If you use PSoC Creator as a development
  98:Generated_Source\PSoC6\pdl\drivers/peripheral/ipc/cy_ipc_drv.h **** * environment, it will not overwrite your changes when you generate the
  99:Generated_Source\PSoC6\pdl\drivers/peripheral/ipc/cy_ipc_drv.h **** * application or build your code.
 100:Generated_Source\PSoC6\pdl\drivers/peripheral/ipc/cy_ipc_drv.h **** *
 101:Generated_Source\PSoC6\pdl\drivers/peripheral/ipc/cy_ipc_drv.h **** * \section group_ipc_pipe_layer PIPE layer
 102:Generated_Source\PSoC6\pdl\drivers/peripheral/ipc/cy_ipc_drv.h **** *
 103:Generated_Source\PSoC6\pdl\drivers/peripheral/ipc/cy_ipc_drv.h **** * A pipe is a communication channel between two endpoints. PSoC 6 devices support
 104:Generated_Source\PSoC6\pdl\drivers/peripheral/ipc/cy_ipc_drv.h **** * 16 IPC channels, and 16 IPC interrupts, each numbered 0-15. IPC Channels 0-7
 105:Generated_Source\PSoC6\pdl\drivers/peripheral/ipc/cy_ipc_drv.h **** * and IPC interrupts 0-7 are reserved for system use. Channels 8-15 and
 106:Generated_Source\PSoC6\pdl\drivers/peripheral/ipc/cy_ipc_drv.h **** * interrupts 8-15 are available for application use.
 107:Generated_Source\PSoC6\pdl\drivers/peripheral/ipc/cy_ipc_drv.h **** *
 108:Generated_Source\PSoC6\pdl\drivers/peripheral/ipc/cy_ipc_drv.h **** * A full duplex pipe uses two IPC channels, one per endpoint. Each endpoint
 109:Generated_Source\PSoC6\pdl\drivers/peripheral/ipc/cy_ipc_drv.h **** * specifies all the information required to process a message (either sent or
 110:Generated_Source\PSoC6\pdl\drivers/peripheral/ipc/cy_ipc_drv.h **** * received). Each endpoint is configured to use an IPC channel, and an IPC
 111:Generated_Source\PSoC6\pdl\drivers/peripheral/ipc/cy_ipc_drv.h **** * interrupt. Common practice is to use the interrupt with the same number as
 112:Generated_Source\PSoC6\pdl\drivers/peripheral/ipc/cy_ipc_drv.h **** * the IPC channel. However, IPC Interrupts are not directly associated with the
 113:Generated_Source\PSoC6\pdl\drivers/peripheral/ipc/cy_ipc_drv.h **** * IPC channels, so any channel can use any interrupt.  Any IPC channel can
 114:Generated_Source\PSoC6\pdl\drivers/peripheral/ipc/cy_ipc_drv.h **** * trigger 0, 1 or all the IPC interrupts at once, depending on the Notify or
 115:Generated_Source\PSoC6\pdl\drivers/peripheral/ipc/cy_ipc_drv.h **** * Release masks used.
 116:Generated_Source\PSoC6\pdl\drivers/peripheral/ipc/cy_ipc_drv.h **** *
 117:Generated_Source\PSoC6\pdl\drivers/peripheral/ipc/cy_ipc_drv.h **** * It is also possible to set up a one-directional pipe, using a single IPC
 118:Generated_Source\PSoC6\pdl\drivers/peripheral/ipc/cy_ipc_drv.h **** * channel. In this design one processor is always the sender, and the other is
 119:Generated_Source\PSoC6\pdl\drivers/peripheral/ipc/cy_ipc_drv.h **** * always the receiver. However, there are still two endpoints.
 120:Generated_Source\PSoC6\pdl\drivers/peripheral/ipc/cy_ipc_drv.h **** *
 121:Generated_Source\PSoC6\pdl\drivers/peripheral/ipc/cy_ipc_drv.h **** * A pipe supports an arbitrary number of clients with an array of callback
 122:Generated_Source\PSoC6\pdl\drivers/peripheral/ipc/cy_ipc_drv.h **** * functions, one per client. The client ID is the index number into the array
 123:Generated_Source\PSoC6\pdl\drivers/peripheral/ipc/cy_ipc_drv.h **** * for the client. After a pipe is configured and initialized, the application
 124:Generated_Source\PSoC6\pdl\drivers/peripheral/ipc/cy_ipc_drv.h **** * calls Cy_IPC_Pipe_RegisterCallback() once per client to register each client's
 125:Generated_Source\PSoC6\pdl\drivers/peripheral/ipc/cy_ipc_drv.h **** * callback function. Multiple clients can use the same callback function. The
 126:Generated_Source\PSoC6\pdl\drivers/peripheral/ipc/cy_ipc_drv.h **** * endpoints in a pipe share the callback array.
 127:Generated_Source\PSoC6\pdl\drivers/peripheral/ipc/cy_ipc_drv.h **** *
 128:Generated_Source\PSoC6\pdl\drivers/peripheral/ipc/cy_ipc_drv.h **** * Use Cy_IPC_Pipe_SendMessage() to send data. You specify both the "to" and
 129:Generated_Source\PSoC6\pdl\drivers/peripheral/ipc/cy_ipc_drv.h **** * "from" endpoints, and a callback function to be used when the data transfer is
 130:Generated_Source\PSoC6\pdl\drivers/peripheral/ipc/cy_ipc_drv.h **** * complete. The data is a 32-bit void pointer. The data pointed to is arbitrary,
 131:Generated_Source\PSoC6\pdl\drivers/peripheral/ipc/cy_ipc_drv.h **** * and can be an array, a structure, or a location in memory. The only limitation
 132:Generated_Source\PSoC6\pdl\drivers/peripheral/ipc/cy_ipc_drv.h **** * is that the first element of the data must be a 32-bit unsigned word containing
 133:Generated_Source\PSoC6\pdl\drivers/peripheral/ipc/cy_ipc_drv.h **** * a client ID number. The ID number is the index into the callback array.
ARM GAS  C:\Users\salaz\AppData\Local\Temp\ccFFISlC.s 			page 4


 134:Generated_Source\PSoC6\pdl\drivers/peripheral/ipc/cy_ipc_drv.h **** *
 135:Generated_Source\PSoC6\pdl\drivers/peripheral/ipc/cy_ipc_drv.h **** * When a message is sent, the receiving endpoint's interrupt handler is called.
 136:Generated_Source\PSoC6\pdl\drivers/peripheral/ipc/cy_ipc_drv.h **** * The ISR can perform any task required by the design. However, as part of its
 137:Generated_Source\PSoC6\pdl\drivers/peripheral/ipc/cy_ipc_drv.h **** * function it calls \ref Cy_IPC_Pipe_ExecCallback. This function retrieves the
 138:Generated_Source\PSoC6\pdl\drivers/peripheral/ipc/cy_ipc_drv.h **** * client ID from the data and calls the associated callback function.
 139:Generated_Source\PSoC6\pdl\drivers/peripheral/ipc/cy_ipc_drv.h **** * The user-supplied callback function handles the data in whatever way is
 140:Generated_Source\PSoC6\pdl\drivers/peripheral/ipc/cy_ipc_drv.h **** * appropriate based on the application logic.
 141:Generated_Source\PSoC6\pdl\drivers/peripheral/ipc/cy_ipc_drv.h **** *
 142:Generated_Source\PSoC6\pdl\drivers/peripheral/ipc/cy_ipc_drv.h **** * After the callback function is returned by the receiver, it invokes the release
 143:Generated_Source\PSoC6\pdl\drivers/peripheral/ipc/cy_ipc_drv.h **** * callback function defined by the sender of the message.
 144:Generated_Source\PSoC6\pdl\drivers/peripheral/ipc/cy_ipc_drv.h **** *
 145:Generated_Source\PSoC6\pdl\drivers/peripheral/ipc/cy_ipc_drv.h **** * \section group_ipc_sema_layer SEMA Layer
 146:Generated_Source\PSoC6\pdl\drivers/peripheral/ipc/cy_ipc_drv.h **** *
 147:Generated_Source\PSoC6\pdl\drivers/peripheral/ipc/cy_ipc_drv.h **** * A semaphore is a flag the application uses to control access to a shared
 148:Generated_Source\PSoC6\pdl\drivers/peripheral/ipc/cy_ipc_drv.h **** * resource. The SEMA-level API uses an IPC channel to implement
 149:Generated_Source\PSoC6\pdl\drivers/peripheral/ipc/cy_ipc_drv.h **** * semaphores. Startup code sets up a default semaphore system. The
 150:Generated_Source\PSoC6\pdl\drivers/peripheral/ipc/cy_ipc_drv.h **** * default system creates an array of 128 semaphores (four 32-bit values).
 151:Generated_Source\PSoC6\pdl\drivers/peripheral/ipc/cy_ipc_drv.h **** * Semaphores 0-15 are reserved for system use. See
 152:Generated_Source\PSoC6\pdl\drivers/peripheral/ipc/cy_ipc_drv.h **** * Configuration Considerations - SEMA.
 153:Generated_Source\PSoC6\pdl\drivers/peripheral/ipc/cy_ipc_drv.h **** *
 154:Generated_Source\PSoC6\pdl\drivers/peripheral/ipc/cy_ipc_drv.h **** * Functions are available to initialize the semaphore system, to set or
 155:Generated_Source\PSoC6\pdl\drivers/peripheral/ipc/cy_ipc_drv.h **** * clear a semaphore, or to get the semaphore's current status. Application
 156:Generated_Source\PSoC6\pdl\drivers/peripheral/ipc/cy_ipc_drv.h **** * logic uses SEMA functions to relate a particular semaphore to a particular
 157:Generated_Source\PSoC6\pdl\drivers/peripheral/ipc/cy_ipc_drv.h **** * shared resource, and set, clear, or check the flag when accessing the
 158:Generated_Source\PSoC6\pdl\drivers/peripheral/ipc/cy_ipc_drv.h **** * shared resource.
 159:Generated_Source\PSoC6\pdl\drivers/peripheral/ipc/cy_ipc_drv.h **** *
 160:Generated_Source\PSoC6\pdl\drivers/peripheral/ipc/cy_ipc_drv.h **** * \section group_ipc_configuration_cypipe Configuration Considerations - CYPIPE
 161:Generated_Source\PSoC6\pdl\drivers/peripheral/ipc/cy_ipc_drv.h **** *
 162:Generated_Source\PSoC6\pdl\drivers/peripheral/ipc/cy_ipc_drv.h **** * There are none. The cy_ipc_config files set up the required CYPIPE for system
 163:Generated_Source\PSoC6\pdl\drivers/peripheral/ipc/cy_ipc_drv.h **** * use. Do not modify the CYPIPE. It uses IPC channels 5 and 6 to implement full
 164:Generated_Source\PSoC6\pdl\drivers/peripheral/ipc/cy_ipc_drv.h **** * duplex communication between cores. On the CM0+ the notify interrupt is
 165:Generated_Source\PSoC6\pdl\drivers/peripheral/ipc/cy_ipc_drv.h **** * assigned to NVIC IRQn 27. See System Interrupt (SysInt) for background.
 166:Generated_Source\PSoC6\pdl\drivers/peripheral/ipc/cy_ipc_drv.h **** *
 167:Generated_Source\PSoC6\pdl\drivers/peripheral/ipc/cy_ipc_drv.h **** * To create your own pipe (<b>USRPIPE</b>) you should edit cy_ipc_config files
 168:Generated_Source\PSoC6\pdl\drivers/peripheral/ipc/cy_ipc_drv.h **** * and take 4 steps:
 169:Generated_Source\PSoC6\pdl\drivers/peripheral/ipc/cy_ipc_drv.h **** *   -# Define a pipe callbacks processing interrupt handler
 170:Generated_Source\PSoC6\pdl\drivers/peripheral/ipc/cy_ipc_drv.h **** *      (similar to <b>Cy_IPC_SystemPipeIsr</b>)
 171:Generated_Source\PSoC6\pdl\drivers/peripheral/ipc/cy_ipc_drv.h **** *   -# Define a callbacks array (similar to <b>cy_ipc_pipe_sysCbArray</b>)
 172:Generated_Source\PSoC6\pdl\drivers/peripheral/ipc/cy_ipc_drv.h **** *   -# Define your pipe configuration with a cy_stc_ipc_pipe_config_t type structure
 173:Generated_Source\PSoC6\pdl\drivers/peripheral/ipc/cy_ipc_drv.h **** *      (similar to <b>systemPipeConfig</b> and <b>CY_CYPIPE_DEFAULT_CONFIG</b>)
 174:Generated_Source\PSoC6\pdl\drivers/peripheral/ipc/cy_ipc_drv.h **** *   -# Call Cy_IPC_Pipe_Init() from each core to initialize your pipe (similar
 175:Generated_Source\PSoC6\pdl\drivers/peripheral/ipc/cy_ipc_drv.h **** *      to call in the <b>Cy_IPC_SystemPipeInit</b>)
 176:Generated_Source\PSoC6\pdl\drivers/peripheral/ipc/cy_ipc_drv.h **** *
 177:Generated_Source\PSoC6\pdl\drivers/peripheral/ipc/cy_ipc_drv.h **** * \section group_ipc_configuration_sema Configuration Considerations - SEMA
 178:Generated_Source\PSoC6\pdl\drivers/peripheral/ipc/cy_ipc_drv.h **** *
 179:Generated_Source\PSoC6\pdl\drivers/peripheral/ipc/cy_ipc_drv.h **** * Startup code calls Cy_IPC_SystemSemaInit() (in cy_ipc_config.c) to set up
 180:Generated_Source\PSoC6\pdl\drivers/peripheral/ipc/cy_ipc_drv.h **** * semaphore functionality. This function calls the PDL init function
 181:Generated_Source\PSoC6\pdl\drivers/peripheral/ipc/cy_ipc_drv.h **** * Cy_IPC_Sema_Init() with default values. By default the semaphore system
 182:Generated_Source\PSoC6\pdl\drivers/peripheral/ipc/cy_ipc_drv.h **** * uses IPC channel 4, and creates 128 semaphores. Do <b>not</b> change the IPC
 183:Generated_Source\PSoC6\pdl\drivers/peripheral/ipc/cy_ipc_drv.h **** * channel. You can change the number of semaphores.
 184:Generated_Source\PSoC6\pdl\drivers/peripheral/ipc/cy_ipc_drv.h **** *
 185:Generated_Source\PSoC6\pdl\drivers/peripheral/ipc/cy_ipc_drv.h **** * To change the number of semaphores, modify this line of code in cy_ipc_config.h.
 186:Generated_Source\PSoC6\pdl\drivers/peripheral/ipc/cy_ipc_drv.h **** *
 187:Generated_Source\PSoC6\pdl\drivers/peripheral/ipc/cy_ipc_drv.h **** * \code
 188:Generated_Source\PSoC6\pdl\drivers/peripheral/ipc/cy_ipc_drv.h **** * #define CY_IPC_SEMA_COUNT               (uint32_t)(128u)
 189:Generated_Source\PSoC6\pdl\drivers/peripheral/ipc/cy_ipc_drv.h **** * \endcode
 190:Generated_Source\PSoC6\pdl\drivers/peripheral/ipc/cy_ipc_drv.h **** *
ARM GAS  C:\Users\salaz\AppData\Local\Temp\ccFFISlC.s 			page 5


 191:Generated_Source\PSoC6\pdl\drivers/peripheral/ipc/cy_ipc_drv.h **** * The file cy_ipc_config.c declares array ipcSemaArray to hold the semaphore
 192:Generated_Source\PSoC6\pdl\drivers/peripheral/ipc/cy_ipc_drv.h **** * flags based on the size defined for this symbol. Use increments of 32. You
 193:Generated_Source\PSoC6\pdl\drivers/peripheral/ipc/cy_ipc_drv.h **** * must have at least 32 semaphores. Semaphores 0-15 are reserved for
 194:Generated_Source\PSoC6\pdl\drivers/peripheral/ipc/cy_ipc_drv.h **** * system use. Your application can use semaphores greater than 15.
 195:Generated_Source\PSoC6\pdl\drivers/peripheral/ipc/cy_ipc_drv.h **** *
 196:Generated_Source\PSoC6\pdl\drivers/peripheral/ipc/cy_ipc_drv.h **** * \section group_ipc_more_information More Information
 197:Generated_Source\PSoC6\pdl\drivers/peripheral/ipc/cy_ipc_drv.h **** *
 198:Generated_Source\PSoC6\pdl\drivers/peripheral/ipc/cy_ipc_drv.h **** * Cy_IPC_SystemSemaInit() and Cy_IPC_SystemPipeInit() functions are called in the
 199:Generated_Source\PSoC6\pdl\drivers/peripheral/ipc/cy_ipc_drv.h **** * SystemInit function. If the default startup file is not used, or SystemInit is
 200:Generated_Source\PSoC6\pdl\drivers/peripheral/ipc/cy_ipc_drv.h **** * not called in your project, call the following three functions prior to
 201:Generated_Source\PSoC6\pdl\drivers/peripheral/ipc/cy_ipc_drv.h **** * executing any flash or EmEEPROM write or erase operation. For example:
 202:Generated_Source\PSoC6\pdl\drivers/peripheral/ipc/cy_ipc_drv.h **** *  -# Cy_IPC_SystemSemaInit()
 203:Generated_Source\PSoC6\pdl\drivers/peripheral/ipc/cy_ipc_drv.h **** *  -# Cy_IPC_SystemPipeInit()
 204:Generated_Source\PSoC6\pdl\drivers/peripheral/ipc/cy_ipc_drv.h **** *  -# Cy_Flash_Init()
 205:Generated_Source\PSoC6\pdl\drivers/peripheral/ipc/cy_ipc_drv.h **** *
 206:Generated_Source\PSoC6\pdl\drivers/peripheral/ipc/cy_ipc_drv.h **** * Also Cy_IPC_SystemPipeInit function is called to support BLE host/controller
 207:Generated_Source\PSoC6\pdl\drivers/peripheral/ipc/cy_ipc_drv.h **** * communication.
 208:Generated_Source\PSoC6\pdl\drivers/peripheral/ipc/cy_ipc_drv.h **** *
 209:Generated_Source\PSoC6\pdl\drivers/peripheral/ipc/cy_ipc_drv.h **** * See the technical reference manual(TRM) for more information on the IPC.
 210:Generated_Source\PSoC6\pdl\drivers/peripheral/ipc/cy_ipc_drv.h **** *
 211:Generated_Source\PSoC6\pdl\drivers/peripheral/ipc/cy_ipc_drv.h **** * \section group_ipc_MISRA MISRA-C Compliance
 212:Generated_Source\PSoC6\pdl\drivers/peripheral/ipc/cy_ipc_drv.h **** *
 213:Generated_Source\PSoC6\pdl\drivers/peripheral/ipc/cy_ipc_drv.h **** * <table class="doxtable">
 214:Generated_Source\PSoC6\pdl\drivers/peripheral/ipc/cy_ipc_drv.h **** *   <tr>
 215:Generated_Source\PSoC6\pdl\drivers/peripheral/ipc/cy_ipc_drv.h **** *     <th>MISRA Rule</th>
 216:Generated_Source\PSoC6\pdl\drivers/peripheral/ipc/cy_ipc_drv.h **** *     <th>Rule Class (Required/Advisory)</th>
 217:Generated_Source\PSoC6\pdl\drivers/peripheral/ipc/cy_ipc_drv.h **** *     <th>Rule Description</th>
 218:Generated_Source\PSoC6\pdl\drivers/peripheral/ipc/cy_ipc_drv.h **** *     <th style="width: 50%;">Description of Deviation(s)</th>
 219:Generated_Source\PSoC6\pdl\drivers/peripheral/ipc/cy_ipc_drv.h **** *   </tr>
 220:Generated_Source\PSoC6\pdl\drivers/peripheral/ipc/cy_ipc_drv.h **** *   <tr>
 221:Generated_Source\PSoC6\pdl\drivers/peripheral/ipc/cy_ipc_drv.h **** *     <td>10.3</td>
 222:Generated_Source\PSoC6\pdl\drivers/peripheral/ipc/cy_ipc_drv.h **** *     <td>R</td>
 223:Generated_Source\PSoC6\pdl\drivers/peripheral/ipc/cy_ipc_drv.h **** *     <td>The value of a complex expression of integer type shall be cast
 224:Generated_Source\PSoC6\pdl\drivers/peripheral/ipc/cy_ipc_drv.h **** *         only to a type of the same signedness that is no wider than the underlying
 225:Generated_Source\PSoC6\pdl\drivers/peripheral/ipc/cy_ipc_drv.h **** *         type of the expression.</td>
 226:Generated_Source\PSoC6\pdl\drivers/peripheral/ipc/cy_ipc_drv.h **** *     <td>The cast from integer to enumeration value is used to calculate
 227:Generated_Source\PSoC6\pdl\drivers/peripheral/ipc/cy_ipc_drv.h **** *         the interrupt vector source from the integer number of the IPC interrupt
 228:Generated_Source\PSoC6\pdl\drivers/peripheral/ipc/cy_ipc_drv.h **** *         structure, so there is no way to avoid this cast.</td>
 229:Generated_Source\PSoC6\pdl\drivers/peripheral/ipc/cy_ipc_drv.h **** *   </tr>
 230:Generated_Source\PSoC6\pdl\drivers/peripheral/ipc/cy_ipc_drv.h **** *   <tr>
 231:Generated_Source\PSoC6\pdl\drivers/peripheral/ipc/cy_ipc_drv.h **** *     <td>11.4</td>
 232:Generated_Source\PSoC6\pdl\drivers/peripheral/ipc/cy_ipc_drv.h **** *     <td>A</td>
 233:Generated_Source\PSoC6\pdl\drivers/peripheral/ipc/cy_ipc_drv.h **** *     <td>A cast should not be performed between a pointer to the void to a
 234:Generated_Source\PSoC6\pdl\drivers/peripheral/ipc/cy_ipc_drv.h **** *         pointer to the object type.</td>
 235:Generated_Source\PSoC6\pdl\drivers/peripheral/ipc/cy_ipc_drv.h **** *     <td>The cast from the void to pointer and vice versa is used to transmit
 236:Generated_Source\PSoC6\pdl\drivers/peripheral/ipc/cy_ipc_drv.h **** *         data via the \ref group_ipc channel by exchanging the pointer. We
 237:Generated_Source\PSoC6\pdl\drivers/peripheral/ipc/cy_ipc_drv.h **** *         exchange only one pointer, so there is no way to avoid this cast.</td>
 238:Generated_Source\PSoC6\pdl\drivers/peripheral/ipc/cy_ipc_drv.h **** *   </tr>
 239:Generated_Source\PSoC6\pdl\drivers/peripheral/ipc/cy_ipc_drv.h **** * </table>
 240:Generated_Source\PSoC6\pdl\drivers/peripheral/ipc/cy_ipc_drv.h **** *
 241:Generated_Source\PSoC6\pdl\drivers/peripheral/ipc/cy_ipc_drv.h **** * \section group_ipc_changelog Changelog
 242:Generated_Source\PSoC6\pdl\drivers/peripheral/ipc/cy_ipc_drv.h **** *
 243:Generated_Source\PSoC6\pdl\drivers/peripheral/ipc/cy_ipc_drv.h **** * <table class="doxtable">
 244:Generated_Source\PSoC6\pdl\drivers/peripheral/ipc/cy_ipc_drv.h **** *   <tr><th>Version</th><th>Changes</th><th>Reason for Change</th></tr>
 245:Generated_Source\PSoC6\pdl\drivers/peripheral/ipc/cy_ipc_drv.h **** *   <tr>
 246:Generated_Source\PSoC6\pdl\drivers/peripheral/ipc/cy_ipc_drv.h **** *     <td>1.20</td>
 247:Generated_Source\PSoC6\pdl\drivers/peripheral/ipc/cy_ipc_drv.h **** *     <td>Added \ref Cy_IPC_Pipe_ExecuteCallback function.
ARM GAS  C:\Users\salaz\AppData\Local\Temp\ccFFISlC.s 			page 6


 248:Generated_Source\PSoC6\pdl\drivers/peripheral/ipc/cy_ipc_drv.h **** *         Updated documentation about user pipe initialization.
 249:Generated_Source\PSoC6\pdl\drivers/peripheral/ipc/cy_ipc_drv.h **** *     </td>
 250:Generated_Source\PSoC6\pdl\drivers/peripheral/ipc/cy_ipc_drv.h **** *     <td>Interface improvement, documentation update</td>
 251:Generated_Source\PSoC6\pdl\drivers/peripheral/ipc/cy_ipc_drv.h **** *   </tr>
 252:Generated_Source\PSoC6\pdl\drivers/peripheral/ipc/cy_ipc_drv.h **** *   <tr>
 253:Generated_Source\PSoC6\pdl\drivers/peripheral/ipc/cy_ipc_drv.h **** *     <td>1.10.1</td>
 254:Generated_Source\PSoC6\pdl\drivers/peripheral/ipc/cy_ipc_drv.h **** *     <td>Updated description of the \ref Cy_IPC_Pipe_Init,
 255:Generated_Source\PSoC6\pdl\drivers/peripheral/ipc/cy_ipc_drv.h **** *         \ref Cy_IPC_Pipe_EndpointInit, \ref Cy_IPC_Sema_Set functions.
 256:Generated_Source\PSoC6\pdl\drivers/peripheral/ipc/cy_ipc_drv.h **** *         Added / updated code snippets.
 257:Generated_Source\PSoC6\pdl\drivers/peripheral/ipc/cy_ipc_drv.h **** *     </td>
 258:Generated_Source\PSoC6\pdl\drivers/peripheral/ipc/cy_ipc_drv.h **** *     <td>Documentation update and clarification</td>
 259:Generated_Source\PSoC6\pdl\drivers/peripheral/ipc/cy_ipc_drv.h **** *   </tr>
 260:Generated_Source\PSoC6\pdl\drivers/peripheral/ipc/cy_ipc_drv.h **** *   <tr>
 261:Generated_Source\PSoC6\pdl\drivers/peripheral/ipc/cy_ipc_drv.h **** *     <td>1.10</td>
 262:Generated_Source\PSoC6\pdl\drivers/peripheral/ipc/cy_ipc_drv.h **** *     <td>Added support for more IPC structures</td>
 263:Generated_Source\PSoC6\pdl\drivers/peripheral/ipc/cy_ipc_drv.h **** *     <td>New device support</td>
 264:Generated_Source\PSoC6\pdl\drivers/peripheral/ipc/cy_ipc_drv.h **** *   </tr>
 265:Generated_Source\PSoC6\pdl\drivers/peripheral/ipc/cy_ipc_drv.h **** *   <tr>
 266:Generated_Source\PSoC6\pdl\drivers/peripheral/ipc/cy_ipc_drv.h **** *     <td>1.0</td>
 267:Generated_Source\PSoC6\pdl\drivers/peripheral/ipc/cy_ipc_drv.h **** *     <td>Initial version</td>
 268:Generated_Source\PSoC6\pdl\drivers/peripheral/ipc/cy_ipc_drv.h **** *     <td></td>
 269:Generated_Source\PSoC6\pdl\drivers/peripheral/ipc/cy_ipc_drv.h **** *   </tr>
 270:Generated_Source\PSoC6\pdl\drivers/peripheral/ipc/cy_ipc_drv.h **** * </table>
 271:Generated_Source\PSoC6\pdl\drivers/peripheral/ipc/cy_ipc_drv.h **** *
 272:Generated_Source\PSoC6\pdl\drivers/peripheral/ipc/cy_ipc_drv.h **** * \defgroup group_ipc_drv IPC driver layer (IPC_DRV)
 273:Generated_Source\PSoC6\pdl\drivers/peripheral/ipc/cy_ipc_drv.h **** * \{
 274:Generated_Source\PSoC6\pdl\drivers/peripheral/ipc/cy_ipc_drv.h **** *   The functions of this layer are used in the higher IPC levels
 275:Generated_Source\PSoC6\pdl\drivers/peripheral/ipc/cy_ipc_drv.h **** *   (Semaphores and Pipes).
 276:Generated_Source\PSoC6\pdl\drivers/peripheral/ipc/cy_ipc_drv.h **** *   Users should not call any of these IPC functions directly.
 277:Generated_Source\PSoC6\pdl\drivers/peripheral/ipc/cy_ipc_drv.h **** *
 278:Generated_Source\PSoC6\pdl\drivers/peripheral/ipc/cy_ipc_drv.h **** *   \defgroup group_ipc_macros Macros
 279:Generated_Source\PSoC6\pdl\drivers/peripheral/ipc/cy_ipc_drv.h **** *       Macro definitions are used in the driver
 280:Generated_Source\PSoC6\pdl\drivers/peripheral/ipc/cy_ipc_drv.h **** *
 281:Generated_Source\PSoC6\pdl\drivers/peripheral/ipc/cy_ipc_drv.h **** *   \defgroup group_ipc_functions Functions
 282:Generated_Source\PSoC6\pdl\drivers/peripheral/ipc/cy_ipc_drv.h **** *       Functions are used in the driver
 283:Generated_Source\PSoC6\pdl\drivers/peripheral/ipc/cy_ipc_drv.h **** *
 284:Generated_Source\PSoC6\pdl\drivers/peripheral/ipc/cy_ipc_drv.h **** *   \defgroup group_ipc_data_structures Data Structures
 285:Generated_Source\PSoC6\pdl\drivers/peripheral/ipc/cy_ipc_drv.h **** *       Data structures are used in the driver
 286:Generated_Source\PSoC6\pdl\drivers/peripheral/ipc/cy_ipc_drv.h **** *
 287:Generated_Source\PSoC6\pdl\drivers/peripheral/ipc/cy_ipc_drv.h **** *   \defgroup group_ipc_enums Enumerated Types
 288:Generated_Source\PSoC6\pdl\drivers/peripheral/ipc/cy_ipc_drv.h **** *       Enumerations are used in the driver
 289:Generated_Source\PSoC6\pdl\drivers/peripheral/ipc/cy_ipc_drv.h **** * \}
 290:Generated_Source\PSoC6\pdl\drivers/peripheral/ipc/cy_ipc_drv.h **** *
 291:Generated_Source\PSoC6\pdl\drivers/peripheral/ipc/cy_ipc_drv.h **** * \defgroup group_ipc_sema IPC semaphores layer (IPC_SEMA)
 292:Generated_Source\PSoC6\pdl\drivers/peripheral/ipc/cy_ipc_drv.h **** * \defgroup group_ipc_pipe IPC pipes layer (IPC_PIPE)
 293:Generated_Source\PSoC6\pdl\drivers/peripheral/ipc/cy_ipc_drv.h **** *
 294:Generated_Source\PSoC6\pdl\drivers/peripheral/ipc/cy_ipc_drv.h **** */
 295:Generated_Source\PSoC6\pdl\drivers/peripheral/ipc/cy_ipc_drv.h **** 
 296:Generated_Source\PSoC6\pdl\drivers/peripheral/ipc/cy_ipc_drv.h **** /******************************************************************************/
 297:Generated_Source\PSoC6\pdl\drivers/peripheral/ipc/cy_ipc_drv.h **** /* Include files                                                              */
 298:Generated_Source\PSoC6\pdl\drivers/peripheral/ipc/cy_ipc_drv.h **** /******************************************************************************/
 299:Generated_Source\PSoC6\pdl\drivers/peripheral/ipc/cy_ipc_drv.h **** #include "syslib/cy_syslib.h"
 300:Generated_Source\PSoC6\pdl\drivers/peripheral/ipc/cy_ipc_drv.h **** #include "cy_device_headers.h"
 301:Generated_Source\PSoC6\pdl\drivers/peripheral/ipc/cy_ipc_drv.h **** #include "cy_ipc_config.h"
 302:Generated_Source\PSoC6\pdl\drivers/peripheral/ipc/cy_ipc_drv.h **** #include <stddef.h>
 303:Generated_Source\PSoC6\pdl\drivers/peripheral/ipc/cy_ipc_drv.h **** 
 304:Generated_Source\PSoC6\pdl\drivers/peripheral/ipc/cy_ipc_drv.h **** /**
ARM GAS  C:\Users\salaz\AppData\Local\Temp\ccFFISlC.s 			page 7


 305:Generated_Source\PSoC6\pdl\drivers/peripheral/ipc/cy_ipc_drv.h **** * \addtogroup group_ipc_macros
 306:Generated_Source\PSoC6\pdl\drivers/peripheral/ipc/cy_ipc_drv.h **** * \{
 307:Generated_Source\PSoC6\pdl\drivers/peripheral/ipc/cy_ipc_drv.h **** */
 308:Generated_Source\PSoC6\pdl\drivers/peripheral/ipc/cy_ipc_drv.h **** 
 309:Generated_Source\PSoC6\pdl\drivers/peripheral/ipc/cy_ipc_drv.h **** /** Driver major version */
 310:Generated_Source\PSoC6\pdl\drivers/peripheral/ipc/cy_ipc_drv.h **** #define CY_IPC_DRV_VERSION_MAJOR       1
 311:Generated_Source\PSoC6\pdl\drivers/peripheral/ipc/cy_ipc_drv.h **** 
 312:Generated_Source\PSoC6\pdl\drivers/peripheral/ipc/cy_ipc_drv.h **** /** Driver minor version */
 313:Generated_Source\PSoC6\pdl\drivers/peripheral/ipc/cy_ipc_drv.h **** #define CY_IPC_DRV_VERSION_MINOR       20
 314:Generated_Source\PSoC6\pdl\drivers/peripheral/ipc/cy_ipc_drv.h **** 
 315:Generated_Source\PSoC6\pdl\drivers/peripheral/ipc/cy_ipc_drv.h **** /** Defines a value to indicate that no notification events are needed */
 316:Generated_Source\PSoC6\pdl\drivers/peripheral/ipc/cy_ipc_drv.h **** #define CY_IPC_NO_NOTIFICATION         (uint32_t)(0x00000000ul)
 317:Generated_Source\PSoC6\pdl\drivers/peripheral/ipc/cy_ipc_drv.h **** 
 318:Generated_Source\PSoC6\pdl\drivers/peripheral/ipc/cy_ipc_drv.h **** /* Error Code constants */
 319:Generated_Source\PSoC6\pdl\drivers/peripheral/ipc/cy_ipc_drv.h **** #define CY_IPC_ID CY_PDL_DRV_ID(0x22u)  /**< Software PDL driver ID for IPC */
 320:Generated_Source\PSoC6\pdl\drivers/peripheral/ipc/cy_ipc_drv.h **** 
 321:Generated_Source\PSoC6\pdl\drivers/peripheral/ipc/cy_ipc_drv.h **** /** Return prefix for IPC driver function status codes */
 322:Generated_Source\PSoC6\pdl\drivers/peripheral/ipc/cy_ipc_drv.h **** #define CY_IPC_ID_INFO    (uint32_t)( CY_IPC_ID | CY_PDL_STATUS_INFO )
 323:Generated_Source\PSoC6\pdl\drivers/peripheral/ipc/cy_ipc_drv.h **** /** Return prefix for IPC driver function warning return values */
 324:Generated_Source\PSoC6\pdl\drivers/peripheral/ipc/cy_ipc_drv.h **** #define CY_IPC_ID_WARNING (uint32_t)( CY_IPC_ID | CY_PDL_STATUS_WARNING)
 325:Generated_Source\PSoC6\pdl\drivers/peripheral/ipc/cy_ipc_drv.h **** /** Return prefix for IPC driver function error return values */
 326:Generated_Source\PSoC6\pdl\drivers/peripheral/ipc/cy_ipc_drv.h **** #define CY_IPC_ID_ERROR   (uint32_t)( CY_IPC_ID | CY_PDL_STATUS_ERROR)
 327:Generated_Source\PSoC6\pdl\drivers/peripheral/ipc/cy_ipc_drv.h **** 
 328:Generated_Source\PSoC6\pdl\drivers/peripheral/ipc/cy_ipc_drv.h **** /** Converts the IPC interrupt channel number to interrupt vector */
 329:Generated_Source\PSoC6\pdl\drivers/peripheral/ipc/cy_ipc_drv.h **** #define CY_IPC_INTR_NUM_TO_VECT(x)         ((int32_t)cpuss_interrupts_ipc_0_IRQn + (x))
 330:Generated_Source\PSoC6\pdl\drivers/peripheral/ipc/cy_ipc_drv.h **** 
 331:Generated_Source\PSoC6\pdl\drivers/peripheral/ipc/cy_ipc_drv.h **** /** \} group_ipc_macros */
 332:Generated_Source\PSoC6\pdl\drivers/peripheral/ipc/cy_ipc_drv.h **** 
 333:Generated_Source\PSoC6\pdl\drivers/peripheral/ipc/cy_ipc_drv.h **** /* end of definition in device.h */
 334:Generated_Source\PSoC6\pdl\drivers/peripheral/ipc/cy_ipc_drv.h **** 
 335:Generated_Source\PSoC6\pdl\drivers/peripheral/ipc/cy_ipc_drv.h **** 
 336:Generated_Source\PSoC6\pdl\drivers/peripheral/ipc/cy_ipc_drv.h **** /**
 337:Generated_Source\PSoC6\pdl\drivers/peripheral/ipc/cy_ipc_drv.h **** * \addtogroup group_ipc_enums
 338:Generated_Source\PSoC6\pdl\drivers/peripheral/ipc/cy_ipc_drv.h **** * \{
 339:Generated_Source\PSoC6\pdl\drivers/peripheral/ipc/cy_ipc_drv.h **** */
 340:Generated_Source\PSoC6\pdl\drivers/peripheral/ipc/cy_ipc_drv.h **** 
 341:Generated_Source\PSoC6\pdl\drivers/peripheral/ipc/cy_ipc_drv.h **** /**
 342:Generated_Source\PSoC6\pdl\drivers/peripheral/ipc/cy_ipc_drv.h **** * This is a list of ENUMs used for function return status.
 343:Generated_Source\PSoC6\pdl\drivers/peripheral/ipc/cy_ipc_drv.h **** */
 344:Generated_Source\PSoC6\pdl\drivers/peripheral/ipc/cy_ipc_drv.h **** typedef enum
 345:Generated_Source\PSoC6\pdl\drivers/peripheral/ipc/cy_ipc_drv.h **** {
 346:Generated_Source\PSoC6\pdl\drivers/peripheral/ipc/cy_ipc_drv.h ****     /** Function was successfully executed */
 347:Generated_Source\PSoC6\pdl\drivers/peripheral/ipc/cy_ipc_drv.h ****     CY_IPC_DRV_SUCCESS      = (0x00u),
 348:Generated_Source\PSoC6\pdl\drivers/peripheral/ipc/cy_ipc_drv.h ****     /** Function was not executed due to an error.
 349:Generated_Source\PSoC6\pdl\drivers/peripheral/ipc/cy_ipc_drv.h ****         Typical conditions for the error explained
 350:Generated_Source\PSoC6\pdl\drivers/peripheral/ipc/cy_ipc_drv.h ****         in the function description */
 351:Generated_Source\PSoC6\pdl\drivers/peripheral/ipc/cy_ipc_drv.h ****     CY_IPC_DRV_ERROR        = ( CY_IPC_ID_ERROR + 1ul),
 352:Generated_Source\PSoC6\pdl\drivers/peripheral/ipc/cy_ipc_drv.h **** } cy_en_ipcdrv_status_t;
 353:Generated_Source\PSoC6\pdl\drivers/peripheral/ipc/cy_ipc_drv.h **** 
 354:Generated_Source\PSoC6\pdl\drivers/peripheral/ipc/cy_ipc_drv.h **** /** \} group_ipc_enums */
 355:Generated_Source\PSoC6\pdl\drivers/peripheral/ipc/cy_ipc_drv.h **** 
 356:Generated_Source\PSoC6\pdl\drivers/peripheral/ipc/cy_ipc_drv.h **** 
 357:Generated_Source\PSoC6\pdl\drivers/peripheral/ipc/cy_ipc_drv.h **** #ifdef __cplusplus
 358:Generated_Source\PSoC6\pdl\drivers/peripheral/ipc/cy_ipc_drv.h **** extern "C" {
 359:Generated_Source\PSoC6\pdl\drivers/peripheral/ipc/cy_ipc_drv.h **** #endif
 360:Generated_Source\PSoC6\pdl\drivers/peripheral/ipc/cy_ipc_drv.h **** 
 361:Generated_Source\PSoC6\pdl\drivers/peripheral/ipc/cy_ipc_drv.h **** /** \cond INTERNAL */
ARM GAS  C:\Users\salaz\AppData\Local\Temp\ccFFISlC.s 			page 8


 362:Generated_Source\PSoC6\pdl\drivers/peripheral/ipc/cy_ipc_drv.h **** 
 363:Generated_Source\PSoC6\pdl\drivers/peripheral/ipc/cy_ipc_drv.h **** __STATIC_INLINE void     Cy_IPC_Drv_WriteDataValue (IPC_STRUCT_Type* base, uint32_t dataValue);
 364:Generated_Source\PSoC6\pdl\drivers/peripheral/ipc/cy_ipc_drv.h **** __STATIC_INLINE uint32_t Cy_IPC_Drv_ReadDataValue (IPC_STRUCT_Type const * base);
 365:Generated_Source\PSoC6\pdl\drivers/peripheral/ipc/cy_ipc_drv.h **** 
 366:Generated_Source\PSoC6\pdl\drivers/peripheral/ipc/cy_ipc_drv.h **** __STATIC_INLINE uint32_t Cy_IPC_Drv_ExtractAcquireMask (uint32_t intMask);
 367:Generated_Source\PSoC6\pdl\drivers/peripheral/ipc/cy_ipc_drv.h **** __STATIC_INLINE uint32_t Cy_IPC_Drv_ExtractReleaseMask (uint32_t intMask);
 368:Generated_Source\PSoC6\pdl\drivers/peripheral/ipc/cy_ipc_drv.h **** 
 369:Generated_Source\PSoC6\pdl\drivers/peripheral/ipc/cy_ipc_drv.h **** /** \endcond */
 370:Generated_Source\PSoC6\pdl\drivers/peripheral/ipc/cy_ipc_drv.h **** 
 371:Generated_Source\PSoC6\pdl\drivers/peripheral/ipc/cy_ipc_drv.h **** /**
 372:Generated_Source\PSoC6\pdl\drivers/peripheral/ipc/cy_ipc_drv.h **** * \addtogroup group_ipc_functions
 373:Generated_Source\PSoC6\pdl\drivers/peripheral/ipc/cy_ipc_drv.h **** * \{
 374:Generated_Source\PSoC6\pdl\drivers/peripheral/ipc/cy_ipc_drv.h **** */
 375:Generated_Source\PSoC6\pdl\drivers/peripheral/ipc/cy_ipc_drv.h **** 
 376:Generated_Source\PSoC6\pdl\drivers/peripheral/ipc/cy_ipc_drv.h **** __STATIC_INLINE IPC_STRUCT_Type*       Cy_IPC_Drv_GetIpcBaseAddress (uint32_t ipcIndex);
 377:Generated_Source\PSoC6\pdl\drivers/peripheral/ipc/cy_ipc_drv.h **** __STATIC_INLINE IPC_INTR_STRUCT_Type*  Cy_IPC_Drv_GetIntrBaseAddr (uint32_t ipcIntrIndex);
 378:Generated_Source\PSoC6\pdl\drivers/peripheral/ipc/cy_ipc_drv.h **** 
 379:Generated_Source\PSoC6\pdl\drivers/peripheral/ipc/cy_ipc_drv.h **** __STATIC_INLINE void     Cy_IPC_Drv_AcquireNotify (IPC_STRUCT_Type * base, uint32_t notifyEventIntr
 380:Generated_Source\PSoC6\pdl\drivers/peripheral/ipc/cy_ipc_drv.h **** __STATIC_INLINE void     Cy_IPC_Drv_ReleaseNotify (IPC_STRUCT_Type * base, uint32_t notifyEventIntr
 381:Generated_Source\PSoC6\pdl\drivers/peripheral/ipc/cy_ipc_drv.h **** 
 382:Generated_Source\PSoC6\pdl\drivers/peripheral/ipc/cy_ipc_drv.h **** __STATIC_INLINE  cy_en_ipcdrv_status_t Cy_IPC_Drv_LockAcquire (IPC_STRUCT_Type const * base);
 383:Generated_Source\PSoC6\pdl\drivers/peripheral/ipc/cy_ipc_drv.h **** cy_en_ipcdrv_status_t    Cy_IPC_Drv_LockRelease (IPC_STRUCT_Type * base, uint32_t releaseEventIntr)
 384:Generated_Source\PSoC6\pdl\drivers/peripheral/ipc/cy_ipc_drv.h **** __STATIC_INLINE bool     Cy_IPC_Drv_IsLockAcquired (IPC_STRUCT_Type const * base);
 385:Generated_Source\PSoC6\pdl\drivers/peripheral/ipc/cy_ipc_drv.h **** __STATIC_INLINE uint32_t Cy_IPC_Drv_GetLockStatus (IPC_STRUCT_Type const * base);
 386:Generated_Source\PSoC6\pdl\drivers/peripheral/ipc/cy_ipc_drv.h **** 
 387:Generated_Source\PSoC6\pdl\drivers/peripheral/ipc/cy_ipc_drv.h **** cy_en_ipcdrv_status_t    Cy_IPC_Drv_SendMsgWord (IPC_STRUCT_Type * base, uint32_t notifyEventIntr, 
 388:Generated_Source\PSoC6\pdl\drivers/peripheral/ipc/cy_ipc_drv.h **** cy_en_ipcdrv_status_t    Cy_IPC_Drv_ReadMsgWord (IPC_STRUCT_Type const * base, uint32_t * message);
 389:Generated_Source\PSoC6\pdl\drivers/peripheral/ipc/cy_ipc_drv.h **** __STATIC_INLINE cy_en_ipcdrv_status_t Cy_IPC_Drv_SendMsgPtr (IPC_STRUCT_Type* base, uint32_t notify
 390:Generated_Source\PSoC6\pdl\drivers/peripheral/ipc/cy_ipc_drv.h **** __STATIC_INLINE cy_en_ipcdrv_status_t Cy_IPC_Drv_ReadMsgPtr (IPC_STRUCT_Type const * base, void ** 
 391:Generated_Source\PSoC6\pdl\drivers/peripheral/ipc/cy_ipc_drv.h **** 
 392:Generated_Source\PSoC6\pdl\drivers/peripheral/ipc/cy_ipc_drv.h **** __STATIC_INLINE void     Cy_IPC_Drv_SetInterruptMask (IPC_INTR_STRUCT_Type * base,
 393:Generated_Source\PSoC6\pdl\drivers/peripheral/ipc/cy_ipc_drv.h ****                                                       uint32_t ipcReleaseMask, uint32_t ipcAcquireM
 394:Generated_Source\PSoC6\pdl\drivers/peripheral/ipc/cy_ipc_drv.h **** __STATIC_INLINE uint32_t Cy_IPC_Drv_GetInterruptMask (IPC_INTR_STRUCT_Type const * base);
 395:Generated_Source\PSoC6\pdl\drivers/peripheral/ipc/cy_ipc_drv.h **** __STATIC_INLINE uint32_t Cy_IPC_Drv_GetInterruptStatusMasked (IPC_INTR_STRUCT_Type const * base);
 396:Generated_Source\PSoC6\pdl\drivers/peripheral/ipc/cy_ipc_drv.h **** __STATIC_INLINE uint32_t Cy_IPC_Drv_GetInterruptStatus (IPC_INTR_STRUCT_Type const * base);
 397:Generated_Source\PSoC6\pdl\drivers/peripheral/ipc/cy_ipc_drv.h **** __STATIC_INLINE void     Cy_IPC_Drv_SetInterrupt (IPC_INTR_STRUCT_Type * base,
 398:Generated_Source\PSoC6\pdl\drivers/peripheral/ipc/cy_ipc_drv.h ****                                                       uint32_t ipcReleaseMask, uint32_t ipcAcquireM
 399:Generated_Source\PSoC6\pdl\drivers/peripheral/ipc/cy_ipc_drv.h **** __STATIC_INLINE void     Cy_IPC_Drv_ClearInterrupt (IPC_INTR_STRUCT_Type * base,
 400:Generated_Source\PSoC6\pdl\drivers/peripheral/ipc/cy_ipc_drv.h ****                                                       uint32_t ipcReleaseMask, uint32_t ipcAcquireM
 401:Generated_Source\PSoC6\pdl\drivers/peripheral/ipc/cy_ipc_drv.h **** 
 402:Generated_Source\PSoC6\pdl\drivers/peripheral/ipc/cy_ipc_drv.h **** /*******************************************************************************
 403:Generated_Source\PSoC6\pdl\drivers/peripheral/ipc/cy_ipc_drv.h **** * Function Name: Cy_IPC_Drv_GetIpcBaseAddress
 404:Generated_Source\PSoC6\pdl\drivers/peripheral/ipc/cy_ipc_drv.h **** ****************************************************************************//**
 405:Generated_Source\PSoC6\pdl\drivers/peripheral/ipc/cy_ipc_drv.h **** *
 406:Generated_Source\PSoC6\pdl\drivers/peripheral/ipc/cy_ipc_drv.h **** * This function takes an IPC channel index as a parameter and returns the base
 407:Generated_Source\PSoC6\pdl\drivers/peripheral/ipc/cy_ipc_drv.h **** * address the IPC registers corresponding to the IPC channel.
 408:Generated_Source\PSoC6\pdl\drivers/peripheral/ipc/cy_ipc_drv.h **** *
 409:Generated_Source\PSoC6\pdl\drivers/peripheral/ipc/cy_ipc_drv.h **** * \note The user is responsible for ensuring that ipcIndex does not exceed the
 410:Generated_Source\PSoC6\pdl\drivers/peripheral/ipc/cy_ipc_drv.h **** * limits.
 411:Generated_Source\PSoC6\pdl\drivers/peripheral/ipc/cy_ipc_drv.h **** *
 412:Generated_Source\PSoC6\pdl\drivers/peripheral/ipc/cy_ipc_drv.h **** * \param ipcIndex
 413:Generated_Source\PSoC6\pdl\drivers/peripheral/ipc/cy_ipc_drv.h **** * Represents the number of IPC structure. This is converted to the base address of
 414:Generated_Source\PSoC6\pdl\drivers/peripheral/ipc/cy_ipc_drv.h **** * the IPC channel registers.
 415:Generated_Source\PSoC6\pdl\drivers/peripheral/ipc/cy_ipc_drv.h **** *
 416:Generated_Source\PSoC6\pdl\drivers/peripheral/ipc/cy_ipc_drv.h **** * \return
 417:Generated_Source\PSoC6\pdl\drivers/peripheral/ipc/cy_ipc_drv.h **** * Returns a pointer to the base of the IPC registers.
 418:Generated_Source\PSoC6\pdl\drivers/peripheral/ipc/cy_ipc_drv.h **** *
ARM GAS  C:\Users\salaz\AppData\Local\Temp\ccFFISlC.s 			page 9


 419:Generated_Source\PSoC6\pdl\drivers/peripheral/ipc/cy_ipc_drv.h **** * \funcusage
 420:Generated_Source\PSoC6\pdl\drivers/peripheral/ipc/cy_ipc_drv.h **** * \snippet IPC_sut_01.cydsn/main_cm4.c snippet_Cy_IPC_Drv_SendMsgWord
 421:Generated_Source\PSoC6\pdl\drivers/peripheral/ipc/cy_ipc_drv.h **** *
 422:Generated_Source\PSoC6\pdl\drivers/peripheral/ipc/cy_ipc_drv.h **** *******************************************************************************/
 423:Generated_Source\PSoC6\pdl\drivers/peripheral/ipc/cy_ipc_drv.h **** __STATIC_INLINE IPC_STRUCT_Type* Cy_IPC_Drv_GetIpcBaseAddress (uint32_t ipcIndex)
 424:Generated_Source\PSoC6\pdl\drivers/peripheral/ipc/cy_ipc_drv.h **** {
  32              		.loc 1 424 0
  33              		.cfi_startproc
  34              		@ args = 0, pretend = 0, frame = 8
  35              		@ frame_needed = 1, uses_anonymous_args = 0
  36 0000 80B5     		push	{r7, lr}
  37              		.cfi_def_cfa_offset 8
  38              		.cfi_offset 7, -8
  39              		.cfi_offset 14, -4
  40 0002 82B0     		sub	sp, sp, #8
  41              		.cfi_def_cfa_offset 16
  42 0004 00AF     		add	r7, sp, #0
  43              		.cfi_def_cfa_register 7
  44 0006 7860     		str	r0, [r7, #4]
 425:Generated_Source\PSoC6\pdl\drivers/peripheral/ipc/cy_ipc_drv.h ****     CY_ASSERT_L1((uint32_t)CY_IPC_CHANNELS > ipcIndex);
  45              		.loc 1 425 0
  46 0008 7B68     		ldr	r3, [r7, #4]
  47 000a 0F2B     		cmp	r3, #15
  48 000c 07D9     		bls	.L2
  49              		.loc 1 425 0 is_stmt 0 discriminator 1
  50 000e AA23     		movs	r3, #170
  51 0010 FF33     		adds	r3, r3, #255
  52 0012 1A00     		movs	r2, r3
  53 0014 064B     		ldr	r3, .L4
  54 0016 1100     		movs	r1, r2
  55 0018 1800     		movs	r0, r3
  56 001a FFF7FEFF 		bl	Cy_SysLib_AssertFailed
  57              	.L2:
 426:Generated_Source\PSoC6\pdl\drivers/peripheral/ipc/cy_ipc_drv.h ****     return ( (IPC_STRUCT_Type*) ( &IPC->STRUCT[ipcIndex] ) );
  58              		.loc 1 426 0 is_stmt 1
  59 001e 7B68     		ldr	r3, [r7, #4]
  60 0020 5B01     		lsls	r3, r3, #5
  61 0022 044A     		ldr	r2, .L4+4
  62 0024 9446     		mov	ip, r2
  63 0026 6344     		add	r3, r3, ip
 427:Generated_Source\PSoC6\pdl\drivers/peripheral/ipc/cy_ipc_drv.h **** }
  64              		.loc 1 427 0
  65 0028 1800     		movs	r0, r3
  66 002a BD46     		mov	sp, r7
  67 002c 02B0     		add	sp, sp, #8
  68              		@ sp needed
  69 002e 80BD     		pop	{r7, pc}
  70              	.L5:
  71              		.align	2
  72              	.L4:
  73 0030 00000000 		.word	.LC0
  74 0034 00002340 		.word	1076035584
  75              		.cfi_endproc
  76              	.LFE36:
  77              		.size	Cy_IPC_Drv_GetIpcBaseAddress, .-Cy_IPC_Drv_GetIpcBaseAddress
  78              		.section	.text.Cy_IPC_Drv_ReadDataValue,"ax",%progbits
  79              		.align	2
ARM GAS  C:\Users\salaz\AppData\Local\Temp\ccFFISlC.s 			page 10


  80              		.code	16
  81              		.thumb_func
  82              		.type	Cy_IPC_Drv_ReadDataValue, %function
  83              	Cy_IPC_Drv_ReadDataValue:
  84              	.LFB47:
 428:Generated_Source\PSoC6\pdl\drivers/peripheral/ipc/cy_ipc_drv.h **** 
 429:Generated_Source\PSoC6\pdl\drivers/peripheral/ipc/cy_ipc_drv.h **** /*******************************************************************************
 430:Generated_Source\PSoC6\pdl\drivers/peripheral/ipc/cy_ipc_drv.h **** * Function Name: Cy_IPC_Drv_GetIntrBaseAddr
 431:Generated_Source\PSoC6\pdl\drivers/peripheral/ipc/cy_ipc_drv.h **** ****************************************************************************//**
 432:Generated_Source\PSoC6\pdl\drivers/peripheral/ipc/cy_ipc_drv.h **** *
 433:Generated_Source\PSoC6\pdl\drivers/peripheral/ipc/cy_ipc_drv.h **** * This function takes an IPC interrupt structure index and returns the base
 434:Generated_Source\PSoC6\pdl\drivers/peripheral/ipc/cy_ipc_drv.h **** * address of the IPC interrupt registers corresponding to the IPC Interrupt.
 435:Generated_Source\PSoC6\pdl\drivers/peripheral/ipc/cy_ipc_drv.h **** *
 436:Generated_Source\PSoC6\pdl\drivers/peripheral/ipc/cy_ipc_drv.h **** * \note The user is responsible for ensuring that ipcIntrIndex does not exceed the
 437:Generated_Source\PSoC6\pdl\drivers/peripheral/ipc/cy_ipc_drv.h **** * limits.
 438:Generated_Source\PSoC6\pdl\drivers/peripheral/ipc/cy_ipc_drv.h **** *
 439:Generated_Source\PSoC6\pdl\drivers/peripheral/ipc/cy_ipc_drv.h **** * \param ipcIntrIndex
 440:Generated_Source\PSoC6\pdl\drivers/peripheral/ipc/cy_ipc_drv.h **** * Represents the number of IPC interrupt structure. This is converted to the
 441:Generated_Source\PSoC6\pdl\drivers/peripheral/ipc/cy_ipc_drv.h **** * base address of the IPC interrupt registers.
 442:Generated_Source\PSoC6\pdl\drivers/peripheral/ipc/cy_ipc_drv.h **** *
 443:Generated_Source\PSoC6\pdl\drivers/peripheral/ipc/cy_ipc_drv.h **** * \return
 444:Generated_Source\PSoC6\pdl\drivers/peripheral/ipc/cy_ipc_drv.h **** * Returns a pointer to the base of the IPC interrupt registers.
 445:Generated_Source\PSoC6\pdl\drivers/peripheral/ipc/cy_ipc_drv.h **** *
 446:Generated_Source\PSoC6\pdl\drivers/peripheral/ipc/cy_ipc_drv.h **** * \funcusage
 447:Generated_Source\PSoC6\pdl\drivers/peripheral/ipc/cy_ipc_drv.h **** * \snippet IPC_sut_01.cydsn/main_cm4.c snippet_Cy_IPC_Drv_GetInterruptStatus
 448:Generated_Source\PSoC6\pdl\drivers/peripheral/ipc/cy_ipc_drv.h **** *
 449:Generated_Source\PSoC6\pdl\drivers/peripheral/ipc/cy_ipc_drv.h **** *******************************************************************************/
 450:Generated_Source\PSoC6\pdl\drivers/peripheral/ipc/cy_ipc_drv.h **** __STATIC_INLINE IPC_INTR_STRUCT_Type* Cy_IPC_Drv_GetIntrBaseAddr (uint32_t ipcIntrIndex)
 451:Generated_Source\PSoC6\pdl\drivers/peripheral/ipc/cy_ipc_drv.h **** {
 452:Generated_Source\PSoC6\pdl\drivers/peripheral/ipc/cy_ipc_drv.h ****     CY_ASSERT_L1((uint32_t)CY_IPC_INTERRUPTS > ipcIntrIndex);
 453:Generated_Source\PSoC6\pdl\drivers/peripheral/ipc/cy_ipc_drv.h ****     return ( (IPC_INTR_STRUCT_Type*) ( &IPC->INTR_STRUCT[ipcIntrIndex] ) );
 454:Generated_Source\PSoC6\pdl\drivers/peripheral/ipc/cy_ipc_drv.h **** }
 455:Generated_Source\PSoC6\pdl\drivers/peripheral/ipc/cy_ipc_drv.h **** 
 456:Generated_Source\PSoC6\pdl\drivers/peripheral/ipc/cy_ipc_drv.h **** /*******************************************************************************
 457:Generated_Source\PSoC6\pdl\drivers/peripheral/ipc/cy_ipc_drv.h **** * Function Name: Cy_IPC_Drv_SetInterruptMask
 458:Generated_Source\PSoC6\pdl\drivers/peripheral/ipc/cy_ipc_drv.h **** ****************************************************************************//**
 459:Generated_Source\PSoC6\pdl\drivers/peripheral/ipc/cy_ipc_drv.h **** *
 460:Generated_Source\PSoC6\pdl\drivers/peripheral/ipc/cy_ipc_drv.h **** * This function is used to set the interrupt mask for an IPC Interrupt.
 461:Generated_Source\PSoC6\pdl\drivers/peripheral/ipc/cy_ipc_drv.h **** * The mask sets release or acquire notification events for all IPC channels.
 462:Generated_Source\PSoC6\pdl\drivers/peripheral/ipc/cy_ipc_drv.h **** *
 463:Generated_Source\PSoC6\pdl\drivers/peripheral/ipc/cy_ipc_drv.h **** * \param base
 464:Generated_Source\PSoC6\pdl\drivers/peripheral/ipc/cy_ipc_drv.h **** * This is a handle to the IPC interrupt. This handle can be calculated from the
 465:Generated_Source\PSoC6\pdl\drivers/peripheral/ipc/cy_ipc_drv.h **** * IPC interrupt number using \ref Cy_IPC_Drv_GetIntrBaseAddr.
 466:Generated_Source\PSoC6\pdl\drivers/peripheral/ipc/cy_ipc_drv.h **** *
 467:Generated_Source\PSoC6\pdl\drivers/peripheral/ipc/cy_ipc_drv.h **** * \param ipcReleaseMask
 468:Generated_Source\PSoC6\pdl\drivers/peripheral/ipc/cy_ipc_drv.h **** * An encoded list of all IPC channels that can trigger the interrupt on a
 469:Generated_Source\PSoC6\pdl\drivers/peripheral/ipc/cy_ipc_drv.h **** * release event.
 470:Generated_Source\PSoC6\pdl\drivers/peripheral/ipc/cy_ipc_drv.h **** *
 471:Generated_Source\PSoC6\pdl\drivers/peripheral/ipc/cy_ipc_drv.h **** * \param ipcAcquireMask
 472:Generated_Source\PSoC6\pdl\drivers/peripheral/ipc/cy_ipc_drv.h **** * An encoded list of all IPC channels that can trigger the interrupt on a
 473:Generated_Source\PSoC6\pdl\drivers/peripheral/ipc/cy_ipc_drv.h **** * notify event.
 474:Generated_Source\PSoC6\pdl\drivers/peripheral/ipc/cy_ipc_drv.h **** *
 475:Generated_Source\PSoC6\pdl\drivers/peripheral/ipc/cy_ipc_drv.h **** * \funcusage
 476:Generated_Source\PSoC6\pdl\drivers/peripheral/ipc/cy_ipc_drv.h **** * \snippet IPC_sut_01.cydsn/main_cm4.c snippet_Cy_IPC_Drv_GetInterruptStatusMasked
 477:Generated_Source\PSoC6\pdl\drivers/peripheral/ipc/cy_ipc_drv.h **** *
 478:Generated_Source\PSoC6\pdl\drivers/peripheral/ipc/cy_ipc_drv.h **** *******************************************************************************/
 479:Generated_Source\PSoC6\pdl\drivers/peripheral/ipc/cy_ipc_drv.h **** __STATIC_INLINE void  Cy_IPC_Drv_SetInterruptMask (IPC_INTR_STRUCT_Type* base,
ARM GAS  C:\Users\salaz\AppData\Local\Temp\ccFFISlC.s 			page 11


 480:Generated_Source\PSoC6\pdl\drivers/peripheral/ipc/cy_ipc_drv.h ****                                               uint32_t ipcReleaseMask, uint32_t ipcAcquireMask)
 481:Generated_Source\PSoC6\pdl\drivers/peripheral/ipc/cy_ipc_drv.h **** {
 482:Generated_Source\PSoC6\pdl\drivers/peripheral/ipc/cy_ipc_drv.h ****     CY_ASSERT_L1(0ul == (ipcAcquireMask  & ~(uint32_t)(IPC_STRUCT_NOTIFY_INTR_NOTIFY_Msk)));
 483:Generated_Source\PSoC6\pdl\drivers/peripheral/ipc/cy_ipc_drv.h ****     CY_ASSERT_L1(0ul == (ipcReleaseMask & ~(uint32_t)(IPC_STRUCT_RELEASE_INTR_RELEASE_Msk)));
 484:Generated_Source\PSoC6\pdl\drivers/peripheral/ipc/cy_ipc_drv.h ****     base->INTR_MASK = _VAL2FLD( IPC_INTR_STRUCT_INTR_MASK_NOTIFY,  ipcAcquireMask) |
 485:Generated_Source\PSoC6\pdl\drivers/peripheral/ipc/cy_ipc_drv.h ****                       _VAL2FLD( IPC_INTR_STRUCT_INTR_MASK_RELEASE, ipcReleaseMask);
 486:Generated_Source\PSoC6\pdl\drivers/peripheral/ipc/cy_ipc_drv.h **** }
 487:Generated_Source\PSoC6\pdl\drivers/peripheral/ipc/cy_ipc_drv.h **** 
 488:Generated_Source\PSoC6\pdl\drivers/peripheral/ipc/cy_ipc_drv.h **** 
 489:Generated_Source\PSoC6\pdl\drivers/peripheral/ipc/cy_ipc_drv.h **** /*******************************************************************************
 490:Generated_Source\PSoC6\pdl\drivers/peripheral/ipc/cy_ipc_drv.h **** * Function Name: Cy_IPC_Drv_GetInterruptMask
 491:Generated_Source\PSoC6\pdl\drivers/peripheral/ipc/cy_ipc_drv.h **** ****************************************************************************//**
 492:Generated_Source\PSoC6\pdl\drivers/peripheral/ipc/cy_ipc_drv.h **** *
 493:Generated_Source\PSoC6\pdl\drivers/peripheral/ipc/cy_ipc_drv.h **** * This function is used to read the interrupt mask.
 494:Generated_Source\PSoC6\pdl\drivers/peripheral/ipc/cy_ipc_drv.h **** *
 495:Generated_Source\PSoC6\pdl\drivers/peripheral/ipc/cy_ipc_drv.h **** * \param base
 496:Generated_Source\PSoC6\pdl\drivers/peripheral/ipc/cy_ipc_drv.h **** * This is a handle to the IPC interrupt. This handle can be calculated from
 497:Generated_Source\PSoC6\pdl\drivers/peripheral/ipc/cy_ipc_drv.h **** * the IPC interrupt number using \ref Cy_IPC_Drv_GetIntrBaseAddr.
 498:Generated_Source\PSoC6\pdl\drivers/peripheral/ipc/cy_ipc_drv.h **** *
 499:Generated_Source\PSoC6\pdl\drivers/peripheral/ipc/cy_ipc_drv.h **** * \return
 500:Generated_Source\PSoC6\pdl\drivers/peripheral/ipc/cy_ipc_drv.h **** *   The return value is encoded as follows
 501:Generated_Source\PSoC6\pdl\drivers/peripheral/ipc/cy_ipc_drv.h **** *   <table>
 502:Generated_Source\PSoC6\pdl\drivers/peripheral/ipc/cy_ipc_drv.h **** *   <tr><th>Interrupt sources   <th>Value
 503:Generated_Source\PSoC6\pdl\drivers/peripheral/ipc/cy_ipc_drv.h **** *   <tr><td>Ipc_PORTX_RELEASE   <td>Xth bit set
 504:Generated_Source\PSoC6\pdl\drivers/peripheral/ipc/cy_ipc_drv.h **** *   <tr><td>Ipc_PORTX_NOTIFY    <td>X+16th bit set
 505:Generated_Source\PSoC6\pdl\drivers/peripheral/ipc/cy_ipc_drv.h **** *   </table>
 506:Generated_Source\PSoC6\pdl\drivers/peripheral/ipc/cy_ipc_drv.h **** *
 507:Generated_Source\PSoC6\pdl\drivers/peripheral/ipc/cy_ipc_drv.h **** * \funcusage
 508:Generated_Source\PSoC6\pdl\drivers/peripheral/ipc/cy_ipc_drv.h **** * \snippet IPC_sut_01.cydsn/main_cm4.c snippet_Cy_IPC_Drv_GetInterruptStatusMasked
 509:Generated_Source\PSoC6\pdl\drivers/peripheral/ipc/cy_ipc_drv.h **** *
 510:Generated_Source\PSoC6\pdl\drivers/peripheral/ipc/cy_ipc_drv.h **** *******************************************************************************/
 511:Generated_Source\PSoC6\pdl\drivers/peripheral/ipc/cy_ipc_drv.h **** __STATIC_INLINE uint32_t Cy_IPC_Drv_GetInterruptMask(IPC_INTR_STRUCT_Type const * base)
 512:Generated_Source\PSoC6\pdl\drivers/peripheral/ipc/cy_ipc_drv.h **** {
 513:Generated_Source\PSoC6\pdl\drivers/peripheral/ipc/cy_ipc_drv.h ****     return (base->INTR_MASK);
 514:Generated_Source\PSoC6\pdl\drivers/peripheral/ipc/cy_ipc_drv.h **** }
 515:Generated_Source\PSoC6\pdl\drivers/peripheral/ipc/cy_ipc_drv.h **** 
 516:Generated_Source\PSoC6\pdl\drivers/peripheral/ipc/cy_ipc_drv.h **** /*******************************************************************************
 517:Generated_Source\PSoC6\pdl\drivers/peripheral/ipc/cy_ipc_drv.h **** * Function Name: Cy_IPC_Drv_GetInterruptStatusMasked
 518:Generated_Source\PSoC6\pdl\drivers/peripheral/ipc/cy_ipc_drv.h **** ****************************************************************************//**
 519:Generated_Source\PSoC6\pdl\drivers/peripheral/ipc/cy_ipc_drv.h **** *
 520:Generated_Source\PSoC6\pdl\drivers/peripheral/ipc/cy_ipc_drv.h **** * This function is used to read the active unmasked interrupt. This function
 521:Generated_Source\PSoC6\pdl\drivers/peripheral/ipc/cy_ipc_drv.h **** * can be used in the interrupt service routine to find which source triggered
 522:Generated_Source\PSoC6\pdl\drivers/peripheral/ipc/cy_ipc_drv.h **** * the interrupt.
 523:Generated_Source\PSoC6\pdl\drivers/peripheral/ipc/cy_ipc_drv.h **** *
 524:Generated_Source\PSoC6\pdl\drivers/peripheral/ipc/cy_ipc_drv.h **** * \param base
 525:Generated_Source\PSoC6\pdl\drivers/peripheral/ipc/cy_ipc_drv.h **** * This is a handle to the IPC interrupt. This handle can be calculated from the
 526:Generated_Source\PSoC6\pdl\drivers/peripheral/ipc/cy_ipc_drv.h **** * IPC interrupt number using \ref Cy_IPC_Drv_GetIntrBaseAddr.
 527:Generated_Source\PSoC6\pdl\drivers/peripheral/ipc/cy_ipc_drv.h **** *
 528:Generated_Source\PSoC6\pdl\drivers/peripheral/ipc/cy_ipc_drv.h **** * \return
 529:Generated_Source\PSoC6\pdl\drivers/peripheral/ipc/cy_ipc_drv.h **** *   The return value is encoded as follows
 530:Generated_Source\PSoC6\pdl\drivers/peripheral/ipc/cy_ipc_drv.h **** *   <table>
 531:Generated_Source\PSoC6\pdl\drivers/peripheral/ipc/cy_ipc_drv.h **** *   <tr><th>Interrupt sources   <th>Value
 532:Generated_Source\PSoC6\pdl\drivers/peripheral/ipc/cy_ipc_drv.h **** *   <tr><td>Ipc_PORTX_RELEASE   <td>Xth bit set
 533:Generated_Source\PSoC6\pdl\drivers/peripheral/ipc/cy_ipc_drv.h **** *   <tr><td>Ipc_PORTX_NOTIFY    <td>X+16th bit set
 534:Generated_Source\PSoC6\pdl\drivers/peripheral/ipc/cy_ipc_drv.h **** *   </table>
 535:Generated_Source\PSoC6\pdl\drivers/peripheral/ipc/cy_ipc_drv.h **** *
 536:Generated_Source\PSoC6\pdl\drivers/peripheral/ipc/cy_ipc_drv.h **** * \funcusage
ARM GAS  C:\Users\salaz\AppData\Local\Temp\ccFFISlC.s 			page 12


 537:Generated_Source\PSoC6\pdl\drivers/peripheral/ipc/cy_ipc_drv.h **** * \snippet IPC_sut_01.cydsn/main_cm4.c snippet_Cy_IPC_Drv_GetInterruptStatusMasked
 538:Generated_Source\PSoC6\pdl\drivers/peripheral/ipc/cy_ipc_drv.h **** *
 539:Generated_Source\PSoC6\pdl\drivers/peripheral/ipc/cy_ipc_drv.h **** *******************************************************************************/
 540:Generated_Source\PSoC6\pdl\drivers/peripheral/ipc/cy_ipc_drv.h **** __STATIC_INLINE uint32_t Cy_IPC_Drv_GetInterruptStatusMasked (IPC_INTR_STRUCT_Type const * base)
 541:Generated_Source\PSoC6\pdl\drivers/peripheral/ipc/cy_ipc_drv.h **** {
 542:Generated_Source\PSoC6\pdl\drivers/peripheral/ipc/cy_ipc_drv.h ****     return (base->INTR_MASKED);
 543:Generated_Source\PSoC6\pdl\drivers/peripheral/ipc/cy_ipc_drv.h **** }
 544:Generated_Source\PSoC6\pdl\drivers/peripheral/ipc/cy_ipc_drv.h **** 
 545:Generated_Source\PSoC6\pdl\drivers/peripheral/ipc/cy_ipc_drv.h **** /*******************************************************************************
 546:Generated_Source\PSoC6\pdl\drivers/peripheral/ipc/cy_ipc_drv.h **** * Function Name: Cy_IPC_Drv_GetInterruptStatus
 547:Generated_Source\PSoC6\pdl\drivers/peripheral/ipc/cy_ipc_drv.h **** ****************************************************************************//**
 548:Generated_Source\PSoC6\pdl\drivers/peripheral/ipc/cy_ipc_drv.h **** *
 549:Generated_Source\PSoC6\pdl\drivers/peripheral/ipc/cy_ipc_drv.h **** * This function is used to read the pending interrupts. Note that this read is
 550:Generated_Source\PSoC6\pdl\drivers/peripheral/ipc/cy_ipc_drv.h **** * an unmasked read of the interrupt status. Interrupt sources read as active by
 551:Generated_Source\PSoC6\pdl\drivers/peripheral/ipc/cy_ipc_drv.h **** * this function would generate interrupts only if they were not masked.
 552:Generated_Source\PSoC6\pdl\drivers/peripheral/ipc/cy_ipc_drv.h **** *
 553:Generated_Source\PSoC6\pdl\drivers/peripheral/ipc/cy_ipc_drv.h **** * \param base
 554:Generated_Source\PSoC6\pdl\drivers/peripheral/ipc/cy_ipc_drv.h **** * This is a handle to the IPC interrupt. This handle can be calculated from the
 555:Generated_Source\PSoC6\pdl\drivers/peripheral/ipc/cy_ipc_drv.h **** * IPC interrupt number using \ref Cy_IPC_Drv_GetIntrBaseAddr.
 556:Generated_Source\PSoC6\pdl\drivers/peripheral/ipc/cy_ipc_drv.h **** *
 557:Generated_Source\PSoC6\pdl\drivers/peripheral/ipc/cy_ipc_drv.h **** * \return
 558:Generated_Source\PSoC6\pdl\drivers/peripheral/ipc/cy_ipc_drv.h **** *   The return value is encoded as follows
 559:Generated_Source\PSoC6\pdl\drivers/peripheral/ipc/cy_ipc_drv.h **** *   <table>
 560:Generated_Source\PSoC6\pdl\drivers/peripheral/ipc/cy_ipc_drv.h **** *   <tr><th>Interrupt sources   <th>Value
 561:Generated_Source\PSoC6\pdl\drivers/peripheral/ipc/cy_ipc_drv.h **** *   <tr><td>Ipc_PORTX_RELEASE   <td>Xth bit set
 562:Generated_Source\PSoC6\pdl\drivers/peripheral/ipc/cy_ipc_drv.h **** *   <tr><td>Ipc_PORTX_NOTIFY    <td>X+16th bit set
 563:Generated_Source\PSoC6\pdl\drivers/peripheral/ipc/cy_ipc_drv.h **** *   </table>
 564:Generated_Source\PSoC6\pdl\drivers/peripheral/ipc/cy_ipc_drv.h **** *
 565:Generated_Source\PSoC6\pdl\drivers/peripheral/ipc/cy_ipc_drv.h **** * \funcusage
 566:Generated_Source\PSoC6\pdl\drivers/peripheral/ipc/cy_ipc_drv.h **** * \snippet IPC_sut_01.cydsn/main_cm4.c snippet_Cy_IPC_Drv_GetInterruptStatus
 567:Generated_Source\PSoC6\pdl\drivers/peripheral/ipc/cy_ipc_drv.h **** *
 568:Generated_Source\PSoC6\pdl\drivers/peripheral/ipc/cy_ipc_drv.h **** *******************************************************************************/
 569:Generated_Source\PSoC6\pdl\drivers/peripheral/ipc/cy_ipc_drv.h **** __STATIC_INLINE uint32_t Cy_IPC_Drv_GetInterruptStatus(IPC_INTR_STRUCT_Type const * base)
 570:Generated_Source\PSoC6\pdl\drivers/peripheral/ipc/cy_ipc_drv.h **** {
 571:Generated_Source\PSoC6\pdl\drivers/peripheral/ipc/cy_ipc_drv.h ****     return (base->INTR);
 572:Generated_Source\PSoC6\pdl\drivers/peripheral/ipc/cy_ipc_drv.h **** }
 573:Generated_Source\PSoC6\pdl\drivers/peripheral/ipc/cy_ipc_drv.h **** 
 574:Generated_Source\PSoC6\pdl\drivers/peripheral/ipc/cy_ipc_drv.h **** /*******************************************************************************
 575:Generated_Source\PSoC6\pdl\drivers/peripheral/ipc/cy_ipc_drv.h **** * Function Name: Cy_IPC_Drv_SetInterrupt
 576:Generated_Source\PSoC6\pdl\drivers/peripheral/ipc/cy_ipc_drv.h **** ****************************************************************************//**
 577:Generated_Source\PSoC6\pdl\drivers/peripheral/ipc/cy_ipc_drv.h **** *
 578:Generated_Source\PSoC6\pdl\drivers/peripheral/ipc/cy_ipc_drv.h **** * This function is used to set the interrupt source. This function can be used
 579:Generated_Source\PSoC6\pdl\drivers/peripheral/ipc/cy_ipc_drv.h **** * to activate interrupts through software.
 580:Generated_Source\PSoC6\pdl\drivers/peripheral/ipc/cy_ipc_drv.h **** * \note That interrupt sources set using this interrupt would generate interrupts
 581:Generated_Source\PSoC6\pdl\drivers/peripheral/ipc/cy_ipc_drv.h **** * only if they are not masked.
 582:Generated_Source\PSoC6\pdl\drivers/peripheral/ipc/cy_ipc_drv.h **** *
 583:Generated_Source\PSoC6\pdl\drivers/peripheral/ipc/cy_ipc_drv.h **** * \param base
 584:Generated_Source\PSoC6\pdl\drivers/peripheral/ipc/cy_ipc_drv.h **** * This is a handle to the IPC interrupt. This handle can be calculated from the
 585:Generated_Source\PSoC6\pdl\drivers/peripheral/ipc/cy_ipc_drv.h **** * IPC interrupt number using \ref Cy_IPC_Drv_GetIntrBaseAddr.
 586:Generated_Source\PSoC6\pdl\drivers/peripheral/ipc/cy_ipc_drv.h **** *
 587:Generated_Source\PSoC6\pdl\drivers/peripheral/ipc/cy_ipc_drv.h **** * \param ipcReleaseMask
 588:Generated_Source\PSoC6\pdl\drivers/peripheral/ipc/cy_ipc_drv.h **** * An encoded list of all IPC channels that can trigger the interrupt on a
 589:Generated_Source\PSoC6\pdl\drivers/peripheral/ipc/cy_ipc_drv.h **** * release event.
 590:Generated_Source\PSoC6\pdl\drivers/peripheral/ipc/cy_ipc_drv.h **** *
 591:Generated_Source\PSoC6\pdl\drivers/peripheral/ipc/cy_ipc_drv.h **** * \param ipcAcquireMask
 592:Generated_Source\PSoC6\pdl\drivers/peripheral/ipc/cy_ipc_drv.h **** * An encoded list of all IPC channels that can trigger the interrupt on a
 593:Generated_Source\PSoC6\pdl\drivers/peripheral/ipc/cy_ipc_drv.h **** * notify event.
ARM GAS  C:\Users\salaz\AppData\Local\Temp\ccFFISlC.s 			page 13


 594:Generated_Source\PSoC6\pdl\drivers/peripheral/ipc/cy_ipc_drv.h **** *
 595:Generated_Source\PSoC6\pdl\drivers/peripheral/ipc/cy_ipc_drv.h **** * \funcusage
 596:Generated_Source\PSoC6\pdl\drivers/peripheral/ipc/cy_ipc_drv.h **** * \snippet IPC_sut_01.cydsn/main_cm4.c snippet_Cy_IPC_Drv_SetInterrupt
 597:Generated_Source\PSoC6\pdl\drivers/peripheral/ipc/cy_ipc_drv.h **** *
 598:Generated_Source\PSoC6\pdl\drivers/peripheral/ipc/cy_ipc_drv.h **** *******************************************************************************/
 599:Generated_Source\PSoC6\pdl\drivers/peripheral/ipc/cy_ipc_drv.h **** __STATIC_INLINE void  Cy_IPC_Drv_SetInterrupt(IPC_INTR_STRUCT_Type* base, uint32_t ipcReleaseMask, 
 600:Generated_Source\PSoC6\pdl\drivers/peripheral/ipc/cy_ipc_drv.h **** {
 601:Generated_Source\PSoC6\pdl\drivers/peripheral/ipc/cy_ipc_drv.h ****     CY_ASSERT_L1(0ul == (ipcAcquireMask  & ~(uint32_t)(IPC_STRUCT_NOTIFY_INTR_NOTIFY_Msk)));
 602:Generated_Source\PSoC6\pdl\drivers/peripheral/ipc/cy_ipc_drv.h ****     CY_ASSERT_L1(0ul == (ipcReleaseMask & ~(uint32_t)(IPC_STRUCT_RELEASE_INTR_RELEASE_Msk)));
 603:Generated_Source\PSoC6\pdl\drivers/peripheral/ipc/cy_ipc_drv.h ****     base->INTR_SET =  _VAL2FLD( IPC_INTR_STRUCT_INTR_NOTIFY,  ipcAcquireMask )  |
 604:Generated_Source\PSoC6\pdl\drivers/peripheral/ipc/cy_ipc_drv.h ****                       _VAL2FLD( IPC_INTR_STRUCT_INTR_RELEASE, ipcReleaseMask );
 605:Generated_Source\PSoC6\pdl\drivers/peripheral/ipc/cy_ipc_drv.h **** }
 606:Generated_Source\PSoC6\pdl\drivers/peripheral/ipc/cy_ipc_drv.h **** 
 607:Generated_Source\PSoC6\pdl\drivers/peripheral/ipc/cy_ipc_drv.h **** /*******************************************************************************
 608:Generated_Source\PSoC6\pdl\drivers/peripheral/ipc/cy_ipc_drv.h **** * Function Name: Cy_IPC_Drv_ClearInterrupt
 609:Generated_Source\PSoC6\pdl\drivers/peripheral/ipc/cy_ipc_drv.h **** ****************************************************************************//**
 610:Generated_Source\PSoC6\pdl\drivers/peripheral/ipc/cy_ipc_drv.h **** *
 611:Generated_Source\PSoC6\pdl\drivers/peripheral/ipc/cy_ipc_drv.h **** * This function is used to clear the interrupt source. Use this function to clear
 612:Generated_Source\PSoC6\pdl\drivers/peripheral/ipc/cy_ipc_drv.h **** * a pending interrupt source in the interrupt status.
 613:Generated_Source\PSoC6\pdl\drivers/peripheral/ipc/cy_ipc_drv.h **** *
 614:Generated_Source\PSoC6\pdl\drivers/peripheral/ipc/cy_ipc_drv.h **** * \param base
 615:Generated_Source\PSoC6\pdl\drivers/peripheral/ipc/cy_ipc_drv.h **** * This is a handle to the IPC interrupt. This handle can be calculated from the
 616:Generated_Source\PSoC6\pdl\drivers/peripheral/ipc/cy_ipc_drv.h **** * IPC interrupt number using \ref Cy_IPC_Drv_GetIntrBaseAddr.
 617:Generated_Source\PSoC6\pdl\drivers/peripheral/ipc/cy_ipc_drv.h **** *
 618:Generated_Source\PSoC6\pdl\drivers/peripheral/ipc/cy_ipc_drv.h **** * \param ipcReleaseMask
 619:Generated_Source\PSoC6\pdl\drivers/peripheral/ipc/cy_ipc_drv.h **** * An encoded list of all IPC channels that can trigger the interrupt on a
 620:Generated_Source\PSoC6\pdl\drivers/peripheral/ipc/cy_ipc_drv.h **** * release event.
 621:Generated_Source\PSoC6\pdl\drivers/peripheral/ipc/cy_ipc_drv.h **** *
 622:Generated_Source\PSoC6\pdl\drivers/peripheral/ipc/cy_ipc_drv.h **** * \param ipcAcquireMask
 623:Generated_Source\PSoC6\pdl\drivers/peripheral/ipc/cy_ipc_drv.h **** * An encoded list of all IPC channels that can trigger the interrupt on a
 624:Generated_Source\PSoC6\pdl\drivers/peripheral/ipc/cy_ipc_drv.h **** * notify event.
 625:Generated_Source\PSoC6\pdl\drivers/peripheral/ipc/cy_ipc_drv.h **** *
 626:Generated_Source\PSoC6\pdl\drivers/peripheral/ipc/cy_ipc_drv.h **** * \funcusage
 627:Generated_Source\PSoC6\pdl\drivers/peripheral/ipc/cy_ipc_drv.h **** * \snippet IPC_sut_01.cydsn/main_cm4.c snippet_Cy_IPC_Drv_GetInterruptStatusMasked
 628:Generated_Source\PSoC6\pdl\drivers/peripheral/ipc/cy_ipc_drv.h **** *
 629:Generated_Source\PSoC6\pdl\drivers/peripheral/ipc/cy_ipc_drv.h **** *******************************************************************************/
 630:Generated_Source\PSoC6\pdl\drivers/peripheral/ipc/cy_ipc_drv.h **** __STATIC_INLINE void  Cy_IPC_Drv_ClearInterrupt(IPC_INTR_STRUCT_Type* base, uint32_t ipcReleaseMask
 631:Generated_Source\PSoC6\pdl\drivers/peripheral/ipc/cy_ipc_drv.h **** {
 632:Generated_Source\PSoC6\pdl\drivers/peripheral/ipc/cy_ipc_drv.h ****     CY_ASSERT_L1(0ul == (ipcAcquireMask  & ~(uint32_t)(IPC_STRUCT_NOTIFY_INTR_NOTIFY_Msk)));
 633:Generated_Source\PSoC6\pdl\drivers/peripheral/ipc/cy_ipc_drv.h ****     CY_ASSERT_L1(0ul == (ipcReleaseMask & ~(uint32_t)(IPC_STRUCT_RELEASE_INTR_RELEASE_Msk)));
 634:Generated_Source\PSoC6\pdl\drivers/peripheral/ipc/cy_ipc_drv.h ****     base->INTR =  _VAL2FLD(IPC_INTR_STRUCT_INTR_NOTIFY,  ipcAcquireMask) |
 635:Generated_Source\PSoC6\pdl\drivers/peripheral/ipc/cy_ipc_drv.h ****                   _VAL2FLD(IPC_INTR_STRUCT_INTR_RELEASE, ipcReleaseMask);
 636:Generated_Source\PSoC6\pdl\drivers/peripheral/ipc/cy_ipc_drv.h ****     (void)base->INTR;  /* Read the register to flush the cache */
 637:Generated_Source\PSoC6\pdl\drivers/peripheral/ipc/cy_ipc_drv.h **** }
 638:Generated_Source\PSoC6\pdl\drivers/peripheral/ipc/cy_ipc_drv.h **** 
 639:Generated_Source\PSoC6\pdl\drivers/peripheral/ipc/cy_ipc_drv.h **** /** \} group_ipc_functions */
 640:Generated_Source\PSoC6\pdl\drivers/peripheral/ipc/cy_ipc_drv.h **** 
 641:Generated_Source\PSoC6\pdl\drivers/peripheral/ipc/cy_ipc_drv.h **** /** \} group_ipc */
 642:Generated_Source\PSoC6\pdl\drivers/peripheral/ipc/cy_ipc_drv.h **** 
 643:Generated_Source\PSoC6\pdl\drivers/peripheral/ipc/cy_ipc_drv.h **** /*******************************************************************************
 644:Generated_Source\PSoC6\pdl\drivers/peripheral/ipc/cy_ipc_drv.h **** * Function Name: Cy_IPC_Drv_AcquireNotify
 645:Generated_Source\PSoC6\pdl\drivers/peripheral/ipc/cy_ipc_drv.h **** ****************************************************************************//**
 646:Generated_Source\PSoC6\pdl\drivers/peripheral/ipc/cy_ipc_drv.h **** *
 647:Generated_Source\PSoC6\pdl\drivers/peripheral/ipc/cy_ipc_drv.h **** * The function generates a aquire notification event by IPC interrupt structure.
 648:Generated_Source\PSoC6\pdl\drivers/peripheral/ipc/cy_ipc_drv.h **** *
 649:Generated_Source\PSoC6\pdl\drivers/peripheral/ipc/cy_ipc_drv.h **** * \param base
 650:Generated_Source\PSoC6\pdl\drivers/peripheral/ipc/cy_ipc_drv.h **** * This parameter is a handle that represents the base address of the registers
ARM GAS  C:\Users\salaz\AppData\Local\Temp\ccFFISlC.s 			page 14


 651:Generated_Source\PSoC6\pdl\drivers/peripheral/ipc/cy_ipc_drv.h **** * of the IPC channel.
 652:Generated_Source\PSoC6\pdl\drivers/peripheral/ipc/cy_ipc_drv.h **** * The parameter is generally returned from a call to the \ref
 653:Generated_Source\PSoC6\pdl\drivers/peripheral/ipc/cy_ipc_drv.h **** * Cy_IPC_Drv_GetIpcBaseAddress.
 654:Generated_Source\PSoC6\pdl\drivers/peripheral/ipc/cy_ipc_drv.h **** *
 655:Generated_Source\PSoC6\pdl\drivers/peripheral/ipc/cy_ipc_drv.h **** * \param notifyEventIntr
 656:Generated_Source\PSoC6\pdl\drivers/peripheral/ipc/cy_ipc_drv.h **** * Bit encoded list of IPC interrupt structures that are triggered
 657:Generated_Source\PSoC6\pdl\drivers/peripheral/ipc/cy_ipc_drv.h **** * by a notification. Bit number correspond to number of the IPC interrupt
 658:Generated_Source\PSoC6\pdl\drivers/peripheral/ipc/cy_ipc_drv.h **** * structure.
 659:Generated_Source\PSoC6\pdl\drivers/peripheral/ipc/cy_ipc_drv.h **** *
 660:Generated_Source\PSoC6\pdl\drivers/peripheral/ipc/cy_ipc_drv.h **** * \funcusage
 661:Generated_Source\PSoC6\pdl\drivers/peripheral/ipc/cy_ipc_drv.h **** * \snippet IPC_sut_01.cydsn/main_cm4.c snippet_Cy_IPC_Drv_LockAcquire
 662:Generated_Source\PSoC6\pdl\drivers/peripheral/ipc/cy_ipc_drv.h **** *
 663:Generated_Source\PSoC6\pdl\drivers/peripheral/ipc/cy_ipc_drv.h **** *******************************************************************************/
 664:Generated_Source\PSoC6\pdl\drivers/peripheral/ipc/cy_ipc_drv.h **** __STATIC_INLINE void  Cy_IPC_Drv_AcquireNotify (IPC_STRUCT_Type* base, uint32_t notifyEventIntr)
 665:Generated_Source\PSoC6\pdl\drivers/peripheral/ipc/cy_ipc_drv.h **** {
 666:Generated_Source\PSoC6\pdl\drivers/peripheral/ipc/cy_ipc_drv.h ****     CY_ASSERT_L1(0ul == (notifyEventIntr  & ~(uint32_t)(IPC_STRUCT_NOTIFY_INTR_NOTIFY_Msk)));
 667:Generated_Source\PSoC6\pdl\drivers/peripheral/ipc/cy_ipc_drv.h ****     base->NOTIFY = _VAL2FLD(IPC_STRUCT_NOTIFY_INTR_NOTIFY, notifyEventIntr);
 668:Generated_Source\PSoC6\pdl\drivers/peripheral/ipc/cy_ipc_drv.h **** }
 669:Generated_Source\PSoC6\pdl\drivers/peripheral/ipc/cy_ipc_drv.h **** 
 670:Generated_Source\PSoC6\pdl\drivers/peripheral/ipc/cy_ipc_drv.h **** /*******************************************************************************
 671:Generated_Source\PSoC6\pdl\drivers/peripheral/ipc/cy_ipc_drv.h **** * Function Name: Cy_IPC_Drv_ReleaseNotify
 672:Generated_Source\PSoC6\pdl\drivers/peripheral/ipc/cy_ipc_drv.h **** ****************************************************************************//**
 673:Generated_Source\PSoC6\pdl\drivers/peripheral/ipc/cy_ipc_drv.h **** *
 674:Generated_Source\PSoC6\pdl\drivers/peripheral/ipc/cy_ipc_drv.h **** * The function generates a release notification event by IPC interrupt structure.
 675:Generated_Source\PSoC6\pdl\drivers/peripheral/ipc/cy_ipc_drv.h **** *
 676:Generated_Source\PSoC6\pdl\drivers/peripheral/ipc/cy_ipc_drv.h **** * \param base
 677:Generated_Source\PSoC6\pdl\drivers/peripheral/ipc/cy_ipc_drv.h **** * This parameter is a handle that represents the base address of the registers
 678:Generated_Source\PSoC6\pdl\drivers/peripheral/ipc/cy_ipc_drv.h **** * of the IPC channel.
 679:Generated_Source\PSoC6\pdl\drivers/peripheral/ipc/cy_ipc_drv.h **** * The parameter is generally returned from a call to the \ref
 680:Generated_Source\PSoC6\pdl\drivers/peripheral/ipc/cy_ipc_drv.h **** * Cy_IPC_Drv_GetIpcBaseAddress.
 681:Generated_Source\PSoC6\pdl\drivers/peripheral/ipc/cy_ipc_drv.h **** *
 682:Generated_Source\PSoC6\pdl\drivers/peripheral/ipc/cy_ipc_drv.h **** * \param notifyEventIntr
 683:Generated_Source\PSoC6\pdl\drivers/peripheral/ipc/cy_ipc_drv.h **** * Bit encoded list of IPC interrupt lines that are triggered by a notification.
 684:Generated_Source\PSoC6\pdl\drivers/peripheral/ipc/cy_ipc_drv.h **** *
 685:Generated_Source\PSoC6\pdl\drivers/peripheral/ipc/cy_ipc_drv.h **** * \funcusage
 686:Generated_Source\PSoC6\pdl\drivers/peripheral/ipc/cy_ipc_drv.h **** * \snippet IPC_sut_01.cydsn/main_cm4.c snippet_Cy_IPC_Drv_ReadMsgWord
 687:Generated_Source\PSoC6\pdl\drivers/peripheral/ipc/cy_ipc_drv.h **** *
 688:Generated_Source\PSoC6\pdl\drivers/peripheral/ipc/cy_ipc_drv.h **** *******************************************************************************/
 689:Generated_Source\PSoC6\pdl\drivers/peripheral/ipc/cy_ipc_drv.h **** __STATIC_INLINE void  Cy_IPC_Drv_ReleaseNotify (IPC_STRUCT_Type* base, uint32_t notifyEventIntr)
 690:Generated_Source\PSoC6\pdl\drivers/peripheral/ipc/cy_ipc_drv.h **** {
 691:Generated_Source\PSoC6\pdl\drivers/peripheral/ipc/cy_ipc_drv.h ****     CY_ASSERT_L1(0ul == (notifyEventIntr  & ~(uint32_t)(IPC_INTR_STRUCT_INTR_RELEASE_Msk)));
 692:Generated_Source\PSoC6\pdl\drivers/peripheral/ipc/cy_ipc_drv.h ****     base->RELEASE = _VAL2FLD(IPC_INTR_STRUCT_INTR_RELEASE, notifyEventIntr);
 693:Generated_Source\PSoC6\pdl\drivers/peripheral/ipc/cy_ipc_drv.h **** }
 694:Generated_Source\PSoC6\pdl\drivers/peripheral/ipc/cy_ipc_drv.h **** 
 695:Generated_Source\PSoC6\pdl\drivers/peripheral/ipc/cy_ipc_drv.h **** /*******************************************************************************
 696:Generated_Source\PSoC6\pdl\drivers/peripheral/ipc/cy_ipc_drv.h **** * Function Name: Cy_IPC_Drv_WriteDataValue
 697:Generated_Source\PSoC6\pdl\drivers/peripheral/ipc/cy_ipc_drv.h **** ****************************************************************************//**
 698:Generated_Source\PSoC6\pdl\drivers/peripheral/ipc/cy_ipc_drv.h **** *
 699:Generated_Source\PSoC6\pdl\drivers/peripheral/ipc/cy_ipc_drv.h **** * The function writes a value to the DATA register of the IPC channel.
 700:Generated_Source\PSoC6\pdl\drivers/peripheral/ipc/cy_ipc_drv.h **** *
 701:Generated_Source\PSoC6\pdl\drivers/peripheral/ipc/cy_ipc_drv.h **** * This function is internal and should not be called directly by user
 702:Generated_Source\PSoC6\pdl\drivers/peripheral/ipc/cy_ipc_drv.h **** * software.
 703:Generated_Source\PSoC6\pdl\drivers/peripheral/ipc/cy_ipc_drv.h **** *
 704:Generated_Source\PSoC6\pdl\drivers/peripheral/ipc/cy_ipc_drv.h **** * \param base
 705:Generated_Source\PSoC6\pdl\drivers/peripheral/ipc/cy_ipc_drv.h **** * This parameter is a handle that represents the base address of the registers
 706:Generated_Source\PSoC6\pdl\drivers/peripheral/ipc/cy_ipc_drv.h **** * of the IPC channel.
 707:Generated_Source\PSoC6\pdl\drivers/peripheral/ipc/cy_ipc_drv.h **** * The parameter is generally returned from a call to the \ref
ARM GAS  C:\Users\salaz\AppData\Local\Temp\ccFFISlC.s 			page 15


 708:Generated_Source\PSoC6\pdl\drivers/peripheral/ipc/cy_ipc_drv.h **** * Cy_IPC_Drv_GetIpcBaseAddress.
 709:Generated_Source\PSoC6\pdl\drivers/peripheral/ipc/cy_ipc_drv.h **** *
 710:Generated_Source\PSoC6\pdl\drivers/peripheral/ipc/cy_ipc_drv.h **** * \param dataValue
 711:Generated_Source\PSoC6\pdl\drivers/peripheral/ipc/cy_ipc_drv.h **** * Value to be written.
 712:Generated_Source\PSoC6\pdl\drivers/peripheral/ipc/cy_ipc_drv.h **** *
 713:Generated_Source\PSoC6\pdl\drivers/peripheral/ipc/cy_ipc_drv.h **** *******************************************************************************/
 714:Generated_Source\PSoC6\pdl\drivers/peripheral/ipc/cy_ipc_drv.h **** __STATIC_INLINE void     Cy_IPC_Drv_WriteDataValue (IPC_STRUCT_Type* base, uint32_t dataValue)
 715:Generated_Source\PSoC6\pdl\drivers/peripheral/ipc/cy_ipc_drv.h **** {
 716:Generated_Source\PSoC6\pdl\drivers/peripheral/ipc/cy_ipc_drv.h ****       base->DATA = dataValue;
 717:Generated_Source\PSoC6\pdl\drivers/peripheral/ipc/cy_ipc_drv.h **** }
 718:Generated_Source\PSoC6\pdl\drivers/peripheral/ipc/cy_ipc_drv.h **** 
 719:Generated_Source\PSoC6\pdl\drivers/peripheral/ipc/cy_ipc_drv.h **** /*******************************************************************************
 720:Generated_Source\PSoC6\pdl\drivers/peripheral/ipc/cy_ipc_drv.h **** * Function Name: Cy_IPC_Drv_ReadDataValue
 721:Generated_Source\PSoC6\pdl\drivers/peripheral/ipc/cy_ipc_drv.h **** ****************************************************************************//**
 722:Generated_Source\PSoC6\pdl\drivers/peripheral/ipc/cy_ipc_drv.h **** *
 723:Generated_Source\PSoC6\pdl\drivers/peripheral/ipc/cy_ipc_drv.h **** * The function reads a value from the DATA register of the IPC channel.
 724:Generated_Source\PSoC6\pdl\drivers/peripheral/ipc/cy_ipc_drv.h **** *
 725:Generated_Source\PSoC6\pdl\drivers/peripheral/ipc/cy_ipc_drv.h **** * This function is internal and should not be called directly by user
 726:Generated_Source\PSoC6\pdl\drivers/peripheral/ipc/cy_ipc_drv.h **** * software.
 727:Generated_Source\PSoC6\pdl\drivers/peripheral/ipc/cy_ipc_drv.h **** *
 728:Generated_Source\PSoC6\pdl\drivers/peripheral/ipc/cy_ipc_drv.h **** * \param base
 729:Generated_Source\PSoC6\pdl\drivers/peripheral/ipc/cy_ipc_drv.h **** * This parameter is a handle that represents the base address of the registers
 730:Generated_Source\PSoC6\pdl\drivers/peripheral/ipc/cy_ipc_drv.h **** * of the IPC channel.
 731:Generated_Source\PSoC6\pdl\drivers/peripheral/ipc/cy_ipc_drv.h **** * The parameter is generally returned from a call to the \ref
 732:Generated_Source\PSoC6\pdl\drivers/peripheral/ipc/cy_ipc_drv.h **** * Cy_IPC_Drv_GetIpcBaseAddress.
 733:Generated_Source\PSoC6\pdl\drivers/peripheral/ipc/cy_ipc_drv.h **** *
 734:Generated_Source\PSoC6\pdl\drivers/peripheral/ipc/cy_ipc_drv.h **** * \return
 735:Generated_Source\PSoC6\pdl\drivers/peripheral/ipc/cy_ipc_drv.h **** * Value from DATA register.
 736:Generated_Source\PSoC6\pdl\drivers/peripheral/ipc/cy_ipc_drv.h **** *
 737:Generated_Source\PSoC6\pdl\drivers/peripheral/ipc/cy_ipc_drv.h **** *******************************************************************************/
 738:Generated_Source\PSoC6\pdl\drivers/peripheral/ipc/cy_ipc_drv.h **** __STATIC_INLINE uint32_t Cy_IPC_Drv_ReadDataValue (IPC_STRUCT_Type const * base)
 739:Generated_Source\PSoC6\pdl\drivers/peripheral/ipc/cy_ipc_drv.h **** {
  85              		.loc 1 739 0
  86              		.cfi_startproc
  87              		@ args = 0, pretend = 0, frame = 8
  88              		@ frame_needed = 1, uses_anonymous_args = 0
  89 0000 80B5     		push	{r7, lr}
  90              		.cfi_def_cfa_offset 8
  91              		.cfi_offset 7, -8
  92              		.cfi_offset 14, -4
  93 0002 82B0     		sub	sp, sp, #8
  94              		.cfi_def_cfa_offset 16
  95 0004 00AF     		add	r7, sp, #0
  96              		.cfi_def_cfa_register 7
  97 0006 7860     		str	r0, [r7, #4]
 740:Generated_Source\PSoC6\pdl\drivers/peripheral/ipc/cy_ipc_drv.h ****     return (base->DATA);
  98              		.loc 1 740 0
  99 0008 7B68     		ldr	r3, [r7, #4]
 100 000a DB68     		ldr	r3, [r3, #12]
 741:Generated_Source\PSoC6\pdl\drivers/peripheral/ipc/cy_ipc_drv.h **** }
 101              		.loc 1 741 0
 102 000c 1800     		movs	r0, r3
 103 000e BD46     		mov	sp, r7
 104 0010 02B0     		add	sp, sp, #8
 105              		@ sp needed
 106 0012 80BD     		pop	{r7, pc}
 107              		.cfi_endproc
ARM GAS  C:\Users\salaz\AppData\Local\Temp\ccFFISlC.s 			page 16


 108              	.LFE47:
 109              		.size	Cy_IPC_Drv_ReadDataValue, .-Cy_IPC_Drv_ReadDataValue
 110              		.section	.text.Cy_IPC_Drv_SendMsgPtr,"ax",%progbits
 111              		.align	2
 112              		.code	16
 113              		.thumb_func
 114              		.type	Cy_IPC_Drv_SendMsgPtr, %function
 115              	Cy_IPC_Drv_SendMsgPtr:
 116              	.LFB52:
 742:Generated_Source\PSoC6\pdl\drivers/peripheral/ipc/cy_ipc_drv.h **** 
 743:Generated_Source\PSoC6\pdl\drivers/peripheral/ipc/cy_ipc_drv.h **** /*******************************************************************************
 744:Generated_Source\PSoC6\pdl\drivers/peripheral/ipc/cy_ipc_drv.h **** * Function Name: Cy_IPC_Drv_IsLockAcquired
 745:Generated_Source\PSoC6\pdl\drivers/peripheral/ipc/cy_ipc_drv.h **** ****************************************************************************//**
 746:Generated_Source\PSoC6\pdl\drivers/peripheral/ipc/cy_ipc_drv.h **** *
 747:Generated_Source\PSoC6\pdl\drivers/peripheral/ipc/cy_ipc_drv.h **** * The function is used to test the status of an IPC channel. The function
 748:Generated_Source\PSoC6\pdl\drivers/peripheral/ipc/cy_ipc_drv.h **** * tells the reader if the IPC channel was in the locked or released state.
 749:Generated_Source\PSoC6\pdl\drivers/peripheral/ipc/cy_ipc_drv.h **** *
 750:Generated_Source\PSoC6\pdl\drivers/peripheral/ipc/cy_ipc_drv.h **** * \param base
 751:Generated_Source\PSoC6\pdl\drivers/peripheral/ipc/cy_ipc_drv.h **** * This parameter is a handle that represents the base address of the registers
 752:Generated_Source\PSoC6\pdl\drivers/peripheral/ipc/cy_ipc_drv.h **** * of the IPC channel.
 753:Generated_Source\PSoC6\pdl\drivers/peripheral/ipc/cy_ipc_drv.h **** * The parameter is generally returned from a call to the \ref
 754:Generated_Source\PSoC6\pdl\drivers/peripheral/ipc/cy_ipc_drv.h **** * Cy_IPC_Drv_GetIpcBaseAddress.
 755:Generated_Source\PSoC6\pdl\drivers/peripheral/ipc/cy_ipc_drv.h **** *
 756:Generated_Source\PSoC6\pdl\drivers/peripheral/ipc/cy_ipc_drv.h **** * \return
 757:Generated_Source\PSoC6\pdl\drivers/peripheral/ipc/cy_ipc_drv.h **** *   Status for the function:
 758:Generated_Source\PSoC6\pdl\drivers/peripheral/ipc/cy_ipc_drv.h **** *   true:  The IPC channel is in the Locked state.
 759:Generated_Source\PSoC6\pdl\drivers/peripheral/ipc/cy_ipc_drv.h **** *   false: The IPC channel is in the Released state.
 760:Generated_Source\PSoC6\pdl\drivers/peripheral/ipc/cy_ipc_drv.h **** *
 761:Generated_Source\PSoC6\pdl\drivers/peripheral/ipc/cy_ipc_drv.h **** * \funcusage
 762:Generated_Source\PSoC6\pdl\drivers/peripheral/ipc/cy_ipc_drv.h **** * \snippet IPC_sut_01.cydsn/main_cm4.c snippet_Cy_IPC_Drv_LockAcquire
 763:Generated_Source\PSoC6\pdl\drivers/peripheral/ipc/cy_ipc_drv.h **** *
 764:Generated_Source\PSoC6\pdl\drivers/peripheral/ipc/cy_ipc_drv.h **** *******************************************************************************/
 765:Generated_Source\PSoC6\pdl\drivers/peripheral/ipc/cy_ipc_drv.h **** __STATIC_INLINE bool Cy_IPC_Drv_IsLockAcquired (IPC_STRUCT_Type const * base)
 766:Generated_Source\PSoC6\pdl\drivers/peripheral/ipc/cy_ipc_drv.h **** {
 767:Generated_Source\PSoC6\pdl\drivers/peripheral/ipc/cy_ipc_drv.h ****     return ( 0u != _FLD2VAL(IPC_STRUCT_ACQUIRE_SUCCESS, base->LOCK_STATUS) );
 768:Generated_Source\PSoC6\pdl\drivers/peripheral/ipc/cy_ipc_drv.h **** }
 769:Generated_Source\PSoC6\pdl\drivers/peripheral/ipc/cy_ipc_drv.h **** 
 770:Generated_Source\PSoC6\pdl\drivers/peripheral/ipc/cy_ipc_drv.h **** /*******************************************************************************
 771:Generated_Source\PSoC6\pdl\drivers/peripheral/ipc/cy_ipc_drv.h **** * Function Name: Cy_IPC_Drv_GetLockStatus
 772:Generated_Source\PSoC6\pdl\drivers/peripheral/ipc/cy_ipc_drv.h **** ****************************************************************************//**
 773:Generated_Source\PSoC6\pdl\drivers/peripheral/ipc/cy_ipc_drv.h **** *
 774:Generated_Source\PSoC6\pdl\drivers/peripheral/ipc/cy_ipc_drv.h **** * The function is used to get the status of an IPC channel.
 775:Generated_Source\PSoC6\pdl\drivers/peripheral/ipc/cy_ipc_drv.h **** *
 776:Generated_Source\PSoC6\pdl\drivers/peripheral/ipc/cy_ipc_drv.h **** * \param base
 777:Generated_Source\PSoC6\pdl\drivers/peripheral/ipc/cy_ipc_drv.h **** * This parameter is a handle that represents the base address of the registers
 778:Generated_Source\PSoC6\pdl\drivers/peripheral/ipc/cy_ipc_drv.h **** * of the IPC channel.
 779:Generated_Source\PSoC6\pdl\drivers/peripheral/ipc/cy_ipc_drv.h **** * The parameter is generally returned from a call to the \ref
 780:Generated_Source\PSoC6\pdl\drivers/peripheral/ipc/cy_ipc_drv.h **** * Cy_IPC_Drv_GetIpcBaseAddress.
 781:Generated_Source\PSoC6\pdl\drivers/peripheral/ipc/cy_ipc_drv.h **** *
 782:Generated_Source\PSoC6\pdl\drivers/peripheral/ipc/cy_ipc_drv.h **** * \return
 783:Generated_Source\PSoC6\pdl\drivers/peripheral/ipc/cy_ipc_drv.h **** * Value from LOCK_STATUS register.
 784:Generated_Source\PSoC6\pdl\drivers/peripheral/ipc/cy_ipc_drv.h **** *
 785:Generated_Source\PSoC6\pdl\drivers/peripheral/ipc/cy_ipc_drv.h **** * \funcusage
 786:Generated_Source\PSoC6\pdl\drivers/peripheral/ipc/cy_ipc_drv.h **** * \snippet IPC_sut_01.cydsn/main_cm4.c snippet_Cy_IPC_Drv_GetLockStatus
 787:Generated_Source\PSoC6\pdl\drivers/peripheral/ipc/cy_ipc_drv.h **** *
 788:Generated_Source\PSoC6\pdl\drivers/peripheral/ipc/cy_ipc_drv.h **** *******************************************************************************/
 789:Generated_Source\PSoC6\pdl\drivers/peripheral/ipc/cy_ipc_drv.h **** __STATIC_INLINE uint32_t Cy_IPC_Drv_GetLockStatus (IPC_STRUCT_Type const * base)
ARM GAS  C:\Users\salaz\AppData\Local\Temp\ccFFISlC.s 			page 17


 790:Generated_Source\PSoC6\pdl\drivers/peripheral/ipc/cy_ipc_drv.h **** {
 791:Generated_Source\PSoC6\pdl\drivers/peripheral/ipc/cy_ipc_drv.h ****     return (base->LOCK_STATUS);
 792:Generated_Source\PSoC6\pdl\drivers/peripheral/ipc/cy_ipc_drv.h **** }
 793:Generated_Source\PSoC6\pdl\drivers/peripheral/ipc/cy_ipc_drv.h **** 
 794:Generated_Source\PSoC6\pdl\drivers/peripheral/ipc/cy_ipc_drv.h **** /*******************************************************************************
 795:Generated_Source\PSoC6\pdl\drivers/peripheral/ipc/cy_ipc_drv.h **** * Function Name: Cy_IPC_Drv_ExtractAcquireMask
 796:Generated_Source\PSoC6\pdl\drivers/peripheral/ipc/cy_ipc_drv.h **** ****************************************************************************//**
 797:Generated_Source\PSoC6\pdl\drivers/peripheral/ipc/cy_ipc_drv.h **** *
 798:Generated_Source\PSoC6\pdl\drivers/peripheral/ipc/cy_ipc_drv.h **** * The function extracts an Acquire mask part from full interrupt mask value.
 799:Generated_Source\PSoC6\pdl\drivers/peripheral/ipc/cy_ipc_drv.h **** *
 800:Generated_Source\PSoC6\pdl\drivers/peripheral/ipc/cy_ipc_drv.h **** * This function is internal and should not be called directly by user
 801:Generated_Source\PSoC6\pdl\drivers/peripheral/ipc/cy_ipc_drv.h **** * software.
 802:Generated_Source\PSoC6\pdl\drivers/peripheral/ipc/cy_ipc_drv.h **** *
 803:Generated_Source\PSoC6\pdl\drivers/peripheral/ipc/cy_ipc_drv.h **** * \param intMask
 804:Generated_Source\PSoC6\pdl\drivers/peripheral/ipc/cy_ipc_drv.h **** * Interrupt mask value to be processed.
 805:Generated_Source\PSoC6\pdl\drivers/peripheral/ipc/cy_ipc_drv.h **** *
 806:Generated_Source\PSoC6\pdl\drivers/peripheral/ipc/cy_ipc_drv.h **** * \return
 807:Generated_Source\PSoC6\pdl\drivers/peripheral/ipc/cy_ipc_drv.h **** * Acquire mask value.
 808:Generated_Source\PSoC6\pdl\drivers/peripheral/ipc/cy_ipc_drv.h **** *
 809:Generated_Source\PSoC6\pdl\drivers/peripheral/ipc/cy_ipc_drv.h **** *******************************************************************************/
 810:Generated_Source\PSoC6\pdl\drivers/peripheral/ipc/cy_ipc_drv.h **** __STATIC_INLINE uint32_t Cy_IPC_Drv_ExtractAcquireMask (uint32_t intMask)
 811:Generated_Source\PSoC6\pdl\drivers/peripheral/ipc/cy_ipc_drv.h **** {
 812:Generated_Source\PSoC6\pdl\drivers/peripheral/ipc/cy_ipc_drv.h ****     return _FLD2VAL(IPC_INTR_STRUCT_INTR_MASK_NOTIFY, intMask);
 813:Generated_Source\PSoC6\pdl\drivers/peripheral/ipc/cy_ipc_drv.h **** }
 814:Generated_Source\PSoC6\pdl\drivers/peripheral/ipc/cy_ipc_drv.h **** 
 815:Generated_Source\PSoC6\pdl\drivers/peripheral/ipc/cy_ipc_drv.h **** /*******************************************************************************
 816:Generated_Source\PSoC6\pdl\drivers/peripheral/ipc/cy_ipc_drv.h **** * Function Name: Cy_IPC_Drv_ExtractReleaseMask
 817:Generated_Source\PSoC6\pdl\drivers/peripheral/ipc/cy_ipc_drv.h **** ****************************************************************************//**
 818:Generated_Source\PSoC6\pdl\drivers/peripheral/ipc/cy_ipc_drv.h **** *
 819:Generated_Source\PSoC6\pdl\drivers/peripheral/ipc/cy_ipc_drv.h **** * The function extracts a Release mask part from full interrupt mask value.
 820:Generated_Source\PSoC6\pdl\drivers/peripheral/ipc/cy_ipc_drv.h **** *
 821:Generated_Source\PSoC6\pdl\drivers/peripheral/ipc/cy_ipc_drv.h **** * This function is internal and should not be called directly by user
 822:Generated_Source\PSoC6\pdl\drivers/peripheral/ipc/cy_ipc_drv.h **** * software.
 823:Generated_Source\PSoC6\pdl\drivers/peripheral/ipc/cy_ipc_drv.h **** *
 824:Generated_Source\PSoC6\pdl\drivers/peripheral/ipc/cy_ipc_drv.h **** * \param intMask
 825:Generated_Source\PSoC6\pdl\drivers/peripheral/ipc/cy_ipc_drv.h **** * Interrupt mask value to be processed.
 826:Generated_Source\PSoC6\pdl\drivers/peripheral/ipc/cy_ipc_drv.h **** *
 827:Generated_Source\PSoC6\pdl\drivers/peripheral/ipc/cy_ipc_drv.h **** * \return
 828:Generated_Source\PSoC6\pdl\drivers/peripheral/ipc/cy_ipc_drv.h **** * Release mask value.
 829:Generated_Source\PSoC6\pdl\drivers/peripheral/ipc/cy_ipc_drv.h **** *
 830:Generated_Source\PSoC6\pdl\drivers/peripheral/ipc/cy_ipc_drv.h **** *******************************************************************************/
 831:Generated_Source\PSoC6\pdl\drivers/peripheral/ipc/cy_ipc_drv.h **** __STATIC_INLINE uint32_t Cy_IPC_Drv_ExtractReleaseMask (uint32_t intMask)
 832:Generated_Source\PSoC6\pdl\drivers/peripheral/ipc/cy_ipc_drv.h **** {
 833:Generated_Source\PSoC6\pdl\drivers/peripheral/ipc/cy_ipc_drv.h ****     return _FLD2VAL(IPC_INTR_STRUCT_INTR_MASK_RELEASE, intMask);
 834:Generated_Source\PSoC6\pdl\drivers/peripheral/ipc/cy_ipc_drv.h **** }
 835:Generated_Source\PSoC6\pdl\drivers/peripheral/ipc/cy_ipc_drv.h **** 
 836:Generated_Source\PSoC6\pdl\drivers/peripheral/ipc/cy_ipc_drv.h **** /*******************************************************************************
 837:Generated_Source\PSoC6\pdl\drivers/peripheral/ipc/cy_ipc_drv.h **** * Function Name: Cy_IPC_Drv_SendMsgPtr
 838:Generated_Source\PSoC6\pdl\drivers/peripheral/ipc/cy_ipc_drv.h **** ****************************************************************************//**
 839:Generated_Source\PSoC6\pdl\drivers/peripheral/ipc/cy_ipc_drv.h **** *
 840:Generated_Source\PSoC6\pdl\drivers/peripheral/ipc/cy_ipc_drv.h **** * This function is used to send a message pointer through an IPC channel.
 841:Generated_Source\PSoC6\pdl\drivers/peripheral/ipc/cy_ipc_drv.h **** * The message structure may hold a generic pointer that may contain the address
 842:Generated_Source\PSoC6\pdl\drivers/peripheral/ipc/cy_ipc_drv.h **** * of any user data type or structure. This parameter could be a pointer to a 32-bit
 843:Generated_Source\PSoC6\pdl\drivers/peripheral/ipc/cy_ipc_drv.h **** * integer, an array, or even a data structure defined in the user code. This
 844:Generated_Source\PSoC6\pdl\drivers/peripheral/ipc/cy_ipc_drv.h **** * function acts as a transfer engine for sending the pointer. Any memory
 845:Generated_Source\PSoC6\pdl\drivers/peripheral/ipc/cy_ipc_drv.h **** * management of the pointer allocation and deallocation is up to the application
 846:Generated_Source\PSoC6\pdl\drivers/peripheral/ipc/cy_ipc_drv.h **** * code.
ARM GAS  C:\Users\salaz\AppData\Local\Temp\ccFFISlC.s 			page 18


 847:Generated_Source\PSoC6\pdl\drivers/peripheral/ipc/cy_ipc_drv.h **** * The function also has an associated notification field that will let the
 848:Generated_Source\PSoC6\pdl\drivers/peripheral/ipc/cy_ipc_drv.h **** * message notify one or multiple interrupts.
 849:Generated_Source\PSoC6\pdl\drivers/peripheral/ipc/cy_ipc_drv.h **** *
 850:Generated_Source\PSoC6\pdl\drivers/peripheral/ipc/cy_ipc_drv.h **** * \param base
 851:Generated_Source\PSoC6\pdl\drivers/peripheral/ipc/cy_ipc_drv.h **** * This parameter is a handle that represents the base address of the registers
 852:Generated_Source\PSoC6\pdl\drivers/peripheral/ipc/cy_ipc_drv.h **** * of the IPC channel.
 853:Generated_Source\PSoC6\pdl\drivers/peripheral/ipc/cy_ipc_drv.h **** * The parameter is generally returned from a call to the \ref
 854:Generated_Source\PSoC6\pdl\drivers/peripheral/ipc/cy_ipc_drv.h **** * Cy_IPC_Drv_GetIpcBaseAddress.
 855:Generated_Source\PSoC6\pdl\drivers/peripheral/ipc/cy_ipc_drv.h **** *
 856:Generated_Source\PSoC6\pdl\drivers/peripheral/ipc/cy_ipc_drv.h **** * \param notifyEventIntr
 857:Generated_Source\PSoC6\pdl\drivers/peripheral/ipc/cy_ipc_drv.h **** * Bit encoded list of IPC interrupt lines that are triggered during the release
 858:Generated_Source\PSoC6\pdl\drivers/peripheral/ipc/cy_ipc_drv.h **** * action.
 859:Generated_Source\PSoC6\pdl\drivers/peripheral/ipc/cy_ipc_drv.h **** *
 860:Generated_Source\PSoC6\pdl\drivers/peripheral/ipc/cy_ipc_drv.h **** * \param msgPtr
 861:Generated_Source\PSoC6\pdl\drivers/peripheral/ipc/cy_ipc_drv.h **** * The message pointer that is being sent over the IPC channel.
 862:Generated_Source\PSoC6\pdl\drivers/peripheral/ipc/cy_ipc_drv.h **** *
 863:Generated_Source\PSoC6\pdl\drivers/peripheral/ipc/cy_ipc_drv.h **** * \return   Status of the operation:
 864:Generated_Source\PSoC6\pdl\drivers/peripheral/ipc/cy_ipc_drv.h **** *   \retval CY_IPC_DRV_SUCCESS: The send operation was successful.
 865:Generated_Source\PSoC6\pdl\drivers/peripheral/ipc/cy_ipc_drv.h **** *   \retval CY_IPC_DRV_ERROR:   The IPC channel is unavailable because
 866:Generated_Source\PSoC6\pdl\drivers/peripheral/ipc/cy_ipc_drv.h **** *                               it is already locked.
 867:Generated_Source\PSoC6\pdl\drivers/peripheral/ipc/cy_ipc_drv.h **** *
 868:Generated_Source\PSoC6\pdl\drivers/peripheral/ipc/cy_ipc_drv.h **** * \funcusage
 869:Generated_Source\PSoC6\pdl\drivers/peripheral/ipc/cy_ipc_drv.h **** * \snippet IPC_sut_01.cydsn/main_cm4.c snippet_Cy_IPC_Drv_SendMsgPtr
 870:Generated_Source\PSoC6\pdl\drivers/peripheral/ipc/cy_ipc_drv.h **** *
 871:Generated_Source\PSoC6\pdl\drivers/peripheral/ipc/cy_ipc_drv.h **** *******************************************************************************/
 872:Generated_Source\PSoC6\pdl\drivers/peripheral/ipc/cy_ipc_drv.h **** __STATIC_INLINE cy_en_ipcdrv_status_t  Cy_IPC_Drv_SendMsgPtr(IPC_STRUCT_Type* base, uint32_t notify
 873:Generated_Source\PSoC6\pdl\drivers/peripheral/ipc/cy_ipc_drv.h **** {
 117              		.loc 1 873 0
 118              		.cfi_startproc
 119              		@ args = 0, pretend = 0, frame = 16
 120              		@ frame_needed = 1, uses_anonymous_args = 0
 121 0000 80B5     		push	{r7, lr}
 122              		.cfi_def_cfa_offset 8
 123              		.cfi_offset 7, -8
 124              		.cfi_offset 14, -4
 125 0002 84B0     		sub	sp, sp, #16
 126              		.cfi_def_cfa_offset 24
 127 0004 00AF     		add	r7, sp, #0
 128              		.cfi_def_cfa_register 7
 129 0006 F860     		str	r0, [r7, #12]
 130 0008 B960     		str	r1, [r7, #8]
 131 000a 7A60     		str	r2, [r7, #4]
 874:Generated_Source\PSoC6\pdl\drivers/peripheral/ipc/cy_ipc_drv.h ****     CY_ASSERT_L1(NULL != msgPtr);
 132              		.loc 1 874 0
 133 000c 7B68     		ldr	r3, [r7, #4]
 134 000e 002B     		cmp	r3, #0
 135 0010 05D1     		bne	.L9
 136              		.loc 1 874 0 is_stmt 0 discriminator 1
 137 0012 084A     		ldr	r2, .L11
 138 0014 084B     		ldr	r3, .L11+4
 139 0016 1100     		movs	r1, r2
 140 0018 1800     		movs	r0, r3
 141 001a FFF7FEFF 		bl	Cy_SysLib_AssertFailed
 142              	.L9:
 875:Generated_Source\PSoC6\pdl\drivers/peripheral/ipc/cy_ipc_drv.h ****     return Cy_IPC_Drv_SendMsgWord(base, notifyEventIntr, (uint32_t)msgPtr);
 143              		.loc 1 875 0 is_stmt 1
 144 001e 7A68     		ldr	r2, [r7, #4]
ARM GAS  C:\Users\salaz\AppData\Local\Temp\ccFFISlC.s 			page 19


 145 0020 B968     		ldr	r1, [r7, #8]
 146 0022 FB68     		ldr	r3, [r7, #12]
 147 0024 1800     		movs	r0, r3
 148 0026 FFF7FEFF 		bl	Cy_IPC_Drv_SendMsgWord
 149 002a 0300     		movs	r3, r0
 876:Generated_Source\PSoC6\pdl\drivers/peripheral/ipc/cy_ipc_drv.h **** }
 150              		.loc 1 876 0
 151 002c 1800     		movs	r0, r3
 152 002e BD46     		mov	sp, r7
 153 0030 04B0     		add	sp, sp, #16
 154              		@ sp needed
 155 0032 80BD     		pop	{r7, pc}
 156              	.L12:
 157              		.align	2
 158              	.L11:
 159 0034 6A030000 		.word	874
 160 0038 00000000 		.word	.LC0
 161              		.cfi_endproc
 162              	.LFE52:
 163              		.size	Cy_IPC_Drv_SendMsgPtr, .-Cy_IPC_Drv_SendMsgPtr
 164              		.section	.text.Cy_IPC_Drv_LockAcquire,"ax",%progbits
 165              		.align	2
 166              		.code	16
 167              		.thumb_func
 168              		.type	Cy_IPC_Drv_LockAcquire, %function
 169              	Cy_IPC_Drv_LockAcquire:
 170              	.LFB54:
 877:Generated_Source\PSoC6\pdl\drivers/peripheral/ipc/cy_ipc_drv.h **** 
 878:Generated_Source\PSoC6\pdl\drivers/peripheral/ipc/cy_ipc_drv.h **** /*******************************************************************************
 879:Generated_Source\PSoC6\pdl\drivers/peripheral/ipc/cy_ipc_drv.h **** * Function Name: Cy_IPC_Drv_ReadMsgPtr
 880:Generated_Source\PSoC6\pdl\drivers/peripheral/ipc/cy_ipc_drv.h **** ****************************************************************************//**
 881:Generated_Source\PSoC6\pdl\drivers/peripheral/ipc/cy_ipc_drv.h **** *
 882:Generated_Source\PSoC6\pdl\drivers/peripheral/ipc/cy_ipc_drv.h **** * This function is used to read a 32-bit pointer message through an IPC channel.
 883:Generated_Source\PSoC6\pdl\drivers/peripheral/ipc/cy_ipc_drv.h **** *
 884:Generated_Source\PSoC6\pdl\drivers/peripheral/ipc/cy_ipc_drv.h **** * \param base
 885:Generated_Source\PSoC6\pdl\drivers/peripheral/ipc/cy_ipc_drv.h **** * This parameter is a handle that represents the base address of the registers
 886:Generated_Source\PSoC6\pdl\drivers/peripheral/ipc/cy_ipc_drv.h **** * of the IPC channel.
 887:Generated_Source\PSoC6\pdl\drivers/peripheral/ipc/cy_ipc_drv.h **** * The parameter is generally returned from a call to the \ref
 888:Generated_Source\PSoC6\pdl\drivers/peripheral/ipc/cy_ipc_drv.h **** * Cy_IPC_Drv_GetIpcBaseAddress.
 889:Generated_Source\PSoC6\pdl\drivers/peripheral/ipc/cy_ipc_drv.h **** *
 890:Generated_Source\PSoC6\pdl\drivers/peripheral/ipc/cy_ipc_drv.h **** * \param msgPtr
 891:Generated_Source\PSoC6\pdl\drivers/peripheral/ipc/cy_ipc_drv.h **** * Pointer variable to hold the data pointer that is being read from the IPC
 892:Generated_Source\PSoC6\pdl\drivers/peripheral/ipc/cy_ipc_drv.h **** * channel.
 893:Generated_Source\PSoC6\pdl\drivers/peripheral/ipc/cy_ipc_drv.h **** *
 894:Generated_Source\PSoC6\pdl\drivers/peripheral/ipc/cy_ipc_drv.h **** *
 895:Generated_Source\PSoC6\pdl\drivers/peripheral/ipc/cy_ipc_drv.h **** * \return Status of the operation
 896:Generated_Source\PSoC6\pdl\drivers/peripheral/ipc/cy_ipc_drv.h **** *   \retval CY_IPC_DRV_SUCCESS: The function executed successfully and the IPC
 897:Generated_Source\PSoC6\pdl\drivers/peripheral/ipc/cy_ipc_drv.h **** *                       was acquired.
 898:Generated_Source\PSoC6\pdl\drivers/peripheral/ipc/cy_ipc_drv.h **** *   \retval CY_IPC_DRV_ERROR:   The function encountered an error because the IPC
 899:Generated_Source\PSoC6\pdl\drivers/peripheral/ipc/cy_ipc_drv.h **** *                       channel was already in a released state meaning the data
 900:Generated_Source\PSoC6\pdl\drivers/peripheral/ipc/cy_ipc_drv.h **** *                       in it is invalid.
 901:Generated_Source\PSoC6\pdl\drivers/peripheral/ipc/cy_ipc_drv.h **** *
 902:Generated_Source\PSoC6\pdl\drivers/peripheral/ipc/cy_ipc_drv.h **** * \funcusage
 903:Generated_Source\PSoC6\pdl\drivers/peripheral/ipc/cy_ipc_drv.h **** * \snippet IPC_sut_01.cydsn/main_cm4.c snippet_Cy_IPC_Drv_ReadMsgPtr
 904:Generated_Source\PSoC6\pdl\drivers/peripheral/ipc/cy_ipc_drv.h **** *
 905:Generated_Source\PSoC6\pdl\drivers/peripheral/ipc/cy_ipc_drv.h **** *******************************************************************************/
 906:Generated_Source\PSoC6\pdl\drivers/peripheral/ipc/cy_ipc_drv.h **** __STATIC_INLINE  cy_en_ipcdrv_status_t  Cy_IPC_Drv_ReadMsgPtr (IPC_STRUCT_Type const * base, void *
ARM GAS  C:\Users\salaz\AppData\Local\Temp\ccFFISlC.s 			page 20


 907:Generated_Source\PSoC6\pdl\drivers/peripheral/ipc/cy_ipc_drv.h **** {
 908:Generated_Source\PSoC6\pdl\drivers/peripheral/ipc/cy_ipc_drv.h ****     CY_ASSERT_L1(NULL != msgPtr);
 909:Generated_Source\PSoC6\pdl\drivers/peripheral/ipc/cy_ipc_drv.h ****     return Cy_IPC_Drv_ReadMsgWord(base, (uint32_t *)msgPtr);
 910:Generated_Source\PSoC6\pdl\drivers/peripheral/ipc/cy_ipc_drv.h **** }
 911:Generated_Source\PSoC6\pdl\drivers/peripheral/ipc/cy_ipc_drv.h **** 
 912:Generated_Source\PSoC6\pdl\drivers/peripheral/ipc/cy_ipc_drv.h **** /*******************************************************************************
 913:Generated_Source\PSoC6\pdl\drivers/peripheral/ipc/cy_ipc_drv.h **** * Function Name: Cy_IPC_Drv_LockAcquire
 914:Generated_Source\PSoC6\pdl\drivers/peripheral/ipc/cy_ipc_drv.h **** ****************************************************************************//**
 915:Generated_Source\PSoC6\pdl\drivers/peripheral/ipc/cy_ipc_drv.h **** *
 916:Generated_Source\PSoC6\pdl\drivers/peripheral/ipc/cy_ipc_drv.h **** * This function is used to acquire the IPC channel.
 917:Generated_Source\PSoC6\pdl\drivers/peripheral/ipc/cy_ipc_drv.h **** *
 918:Generated_Source\PSoC6\pdl\drivers/peripheral/ipc/cy_ipc_drv.h **** * \param base
 919:Generated_Source\PSoC6\pdl\drivers/peripheral/ipc/cy_ipc_drv.h **** * This parameter is a handle that represents the base address of the registers
 920:Generated_Source\PSoC6\pdl\drivers/peripheral/ipc/cy_ipc_drv.h **** * of the IPC channel.
 921:Generated_Source\PSoC6\pdl\drivers/peripheral/ipc/cy_ipc_drv.h **** * The parameter is generally returned from a call to the \ref
 922:Generated_Source\PSoC6\pdl\drivers/peripheral/ipc/cy_ipc_drv.h **** * Cy_IPC_Drv_GetIpcBaseAddress
 923:Generated_Source\PSoC6\pdl\drivers/peripheral/ipc/cy_ipc_drv.h **** *
 924:Generated_Source\PSoC6\pdl\drivers/peripheral/ipc/cy_ipc_drv.h **** * \return   Status of the operation
 925:Generated_Source\PSoC6\pdl\drivers/peripheral/ipc/cy_ipc_drv.h **** *   \retval CY_IPC_DRV_SUCCESS: The IPC was successfully acquired
 926:Generated_Source\PSoC6\pdl\drivers/peripheral/ipc/cy_ipc_drv.h **** *   \retval CY_IPC_DRV_ERROR:   The IPC was not acquired because it was already acquired
 927:Generated_Source\PSoC6\pdl\drivers/peripheral/ipc/cy_ipc_drv.h **** *                       by another master
 928:Generated_Source\PSoC6\pdl\drivers/peripheral/ipc/cy_ipc_drv.h **** *
 929:Generated_Source\PSoC6\pdl\drivers/peripheral/ipc/cy_ipc_drv.h **** * \funcusage
 930:Generated_Source\PSoC6\pdl\drivers/peripheral/ipc/cy_ipc_drv.h **** * \snippet IPC_sut_01.cydsn/main_cm4.c snippet_Cy_IPC_Drv_LockAcquire
 931:Generated_Source\PSoC6\pdl\drivers/peripheral/ipc/cy_ipc_drv.h **** *
 932:Generated_Source\PSoC6\pdl\drivers/peripheral/ipc/cy_ipc_drv.h **** *******************************************************************************/
 933:Generated_Source\PSoC6\pdl\drivers/peripheral/ipc/cy_ipc_drv.h **** __STATIC_INLINE cy_en_ipcdrv_status_t Cy_IPC_Drv_LockAcquire (IPC_STRUCT_Type const * base)
 934:Generated_Source\PSoC6\pdl\drivers/peripheral/ipc/cy_ipc_drv.h **** {
 171              		.loc 1 934 0
 172              		.cfi_startproc
 173              		@ args = 0, pretend = 0, frame = 8
 174              		@ frame_needed = 1, uses_anonymous_args = 0
 175 0000 80B5     		push	{r7, lr}
 176              		.cfi_def_cfa_offset 8
 177              		.cfi_offset 7, -8
 178              		.cfi_offset 14, -4
 179 0002 82B0     		sub	sp, sp, #8
 180              		.cfi_def_cfa_offset 16
 181 0004 00AF     		add	r7, sp, #0
 182              		.cfi_def_cfa_register 7
 183 0006 7860     		str	r0, [r7, #4]
 935:Generated_Source\PSoC6\pdl\drivers/peripheral/ipc/cy_ipc_drv.h ****     return ( 0ul != _FLD2VAL(IPC_STRUCT_ACQUIRE_SUCCESS, base->ACQUIRE)) ? CY_IPC_DRV_SUCCESS : CY_
 184              		.loc 1 935 0
 185 0008 7B68     		ldr	r3, [r7, #4]
 186 000a 1B68     		ldr	r3, [r3]
 187 000c DB0F     		lsrs	r3, r3, #31
 188 000e DB07     		lsls	r3, r3, #31
 189 0010 01D5     		bpl	.L14
 190              		.loc 1 935 0 is_stmt 0 discriminator 1
 191 0012 0023     		movs	r3, #0
 192 0014 00E0     		b	.L16
 193              	.L14:
 194              		.loc 1 935 0 discriminator 2
 195 0016 024B     		ldr	r3, .L17
 196              	.L16:
 936:Generated_Source\PSoC6\pdl\drivers/peripheral/ipc/cy_ipc_drv.h **** }
 197              		.loc 1 936 0 is_stmt 1 discriminator 5
ARM GAS  C:\Users\salaz\AppData\Local\Temp\ccFFISlC.s 			page 21


 198 0018 1800     		movs	r0, r3
 199 001a BD46     		mov	sp, r7
 200 001c 02B0     		add	sp, sp, #8
 201              		@ sp needed
 202 001e 80BD     		pop	{r7, pc}
 203              	.L18:
 204              		.align	2
 205              	.L17:
 206 0020 01008A00 		.word	9043969
 207              		.cfi_endproc
 208              	.LFE54:
 209              		.size	Cy_IPC_Drv_LockAcquire, .-Cy_IPC_Drv_LockAcquire
 210              		.bss
 211              		.align	2
 212              	cy_semaIpcStruct:
 213 0000 00000000 		.space	4
 214              		.section	.text.Cy_IPC_Sema_Init,"ax",%progbits
 215              		.align	2
 216              		.global	Cy_IPC_Sema_Init
 217              		.code	16
 218              		.thumb_func
 219              		.type	Cy_IPC_Sema_Init, %function
 220              	Cy_IPC_Sema_Init:
 221              	.LFB55:
 222              		.file 2 "Generated_Source\\PSoC6\\pdl\\drivers\\peripheral\\ipc\\cy_ipc_sema.c"
   1:Generated_Source\PSoC6\pdl\drivers/peripheral/ipc/cy_ipc_sema.c **** /***************************************************************************//**
   2:Generated_Source\PSoC6\pdl\drivers/peripheral/ipc/cy_ipc_sema.c **** * \file cy_ipc_sema.c
   3:Generated_Source\PSoC6\pdl\drivers/peripheral/ipc/cy_ipc_sema.c **** * \version 1.20
   4:Generated_Source\PSoC6\pdl\drivers/peripheral/ipc/cy_ipc_sema.c **** *
   5:Generated_Source\PSoC6\pdl\drivers/peripheral/ipc/cy_ipc_sema.c **** *  Description:
   6:Generated_Source\PSoC6\pdl\drivers/peripheral/ipc/cy_ipc_sema.c **** *   IPC Semaphore Driver - This source file contains the source code for the
   7:Generated_Source\PSoC6\pdl\drivers/peripheral/ipc/cy_ipc_sema.c **** *   semaphore level APIs for the IPC interface.
   8:Generated_Source\PSoC6\pdl\drivers/peripheral/ipc/cy_ipc_sema.c **** *
   9:Generated_Source\PSoC6\pdl\drivers/peripheral/ipc/cy_ipc_sema.c **** ********************************************************************************
  10:Generated_Source\PSoC6\pdl\drivers/peripheral/ipc/cy_ipc_sema.c **** * Copyright 2016-2018, Cypress Semiconductor Corporation.  All rights reserved.
  11:Generated_Source\PSoC6\pdl\drivers/peripheral/ipc/cy_ipc_sema.c **** * You may use this file only in accordance with the license, terms, conditions,
  12:Generated_Source\PSoC6\pdl\drivers/peripheral/ipc/cy_ipc_sema.c **** * disclaimers, and limitations in the end user license agreement accompanying
  13:Generated_Source\PSoC6\pdl\drivers/peripheral/ipc/cy_ipc_sema.c **** * the software package with which this file was provided.
  14:Generated_Source\PSoC6\pdl\drivers/peripheral/ipc/cy_ipc_sema.c **** *******************************************************************************/
  15:Generated_Source\PSoC6\pdl\drivers/peripheral/ipc/cy_ipc_sema.c **** 
  16:Generated_Source\PSoC6\pdl\drivers/peripheral/ipc/cy_ipc_sema.c **** #include "ipc/cy_ipc_drv.h"
  17:Generated_Source\PSoC6\pdl\drivers/peripheral/ipc/cy_ipc_sema.c **** #include "ipc/cy_ipc_sema.h"
  18:Generated_Source\PSoC6\pdl\drivers/peripheral/ipc/cy_ipc_sema.c **** #include "syslib/cy_syslib.h"
  19:Generated_Source\PSoC6\pdl\drivers/peripheral/ipc/cy_ipc_sema.c **** #include <string.h> /* The memset() definition */
  20:Generated_Source\PSoC6\pdl\drivers/peripheral/ipc/cy_ipc_sema.c **** 
  21:Generated_Source\PSoC6\pdl\drivers/peripheral/ipc/cy_ipc_sema.c **** /* Defines a mask to Check if semaphore count is a multiple of 32 */
  22:Generated_Source\PSoC6\pdl\drivers/peripheral/ipc/cy_ipc_sema.c **** #define CY_IPC_SEMA_PER_WORD_MASK    (CY_IPC_SEMA_PER_WORD - 1ul)
  23:Generated_Source\PSoC6\pdl\drivers/peripheral/ipc/cy_ipc_sema.c **** 
  24:Generated_Source\PSoC6\pdl\drivers/peripheral/ipc/cy_ipc_sema.c **** /* Pointer to IPC structure used for semaphores */
  25:Generated_Source\PSoC6\pdl\drivers/peripheral/ipc/cy_ipc_sema.c **** static IPC_STRUCT_Type* cy_semaIpcStruct;
  26:Generated_Source\PSoC6\pdl\drivers/peripheral/ipc/cy_ipc_sema.c **** 
  27:Generated_Source\PSoC6\pdl\drivers/peripheral/ipc/cy_ipc_sema.c **** /*
  28:Generated_Source\PSoC6\pdl\drivers/peripheral/ipc/cy_ipc_sema.c **** * Internal IPC semaphore control data structure.
  29:Generated_Source\PSoC6\pdl\drivers/peripheral/ipc/cy_ipc_sema.c **** */
  30:Generated_Source\PSoC6\pdl\drivers/peripheral/ipc/cy_ipc_sema.c **** typedef struct
  31:Generated_Source\PSoC6\pdl\drivers/peripheral/ipc/cy_ipc_sema.c **** {
  32:Generated_Source\PSoC6\pdl\drivers/peripheral/ipc/cy_ipc_sema.c ****     uint32_t maxSema;      /* Maximum semaphores in system */
ARM GAS  C:\Users\salaz\AppData\Local\Temp\ccFFISlC.s 			page 22


  33:Generated_Source\PSoC6\pdl\drivers/peripheral/ipc/cy_ipc_sema.c ****     uint32_t *arrayPtr;    /* Pointer to semaphores array  */
  34:Generated_Source\PSoC6\pdl\drivers/peripheral/ipc/cy_ipc_sema.c **** } cy_stc_ipc_sema_t;
  35:Generated_Source\PSoC6\pdl\drivers/peripheral/ipc/cy_ipc_sema.c **** 
  36:Generated_Source\PSoC6\pdl\drivers/peripheral/ipc/cy_ipc_sema.c **** /*******************************************************************************
  37:Generated_Source\PSoC6\pdl\drivers/peripheral/ipc/cy_ipc_sema.c **** * Function Name: Cy_IPC_Sema_Init
  38:Generated_Source\PSoC6\pdl\drivers/peripheral/ipc/cy_ipc_sema.c **** ****************************************************************************//**
  39:Generated_Source\PSoC6\pdl\drivers/peripheral/ipc/cy_ipc_sema.c **** *
  40:Generated_Source\PSoC6\pdl\drivers/peripheral/ipc/cy_ipc_sema.c **** * This function initializes the semaphores subsystem. The user must create an
  41:Generated_Source\PSoC6\pdl\drivers/peripheral/ipc/cy_ipc_sema.c **** * array of unsigned 32-bit words to hold the semaphore bits. The number
  42:Generated_Source\PSoC6\pdl\drivers/peripheral/ipc/cy_ipc_sema.c **** * of semaphores will be the size of the array * 32. The total semaphores count
  43:Generated_Source\PSoC6\pdl\drivers/peripheral/ipc/cy_ipc_sema.c **** * will always be a multiple of 32.
  44:Generated_Source\PSoC6\pdl\drivers/peripheral/ipc/cy_ipc_sema.c **** *
  45:Generated_Source\PSoC6\pdl\drivers/peripheral/ipc/cy_ipc_sema.c **** * \note In a multi-CPU system this init function should be called with all
  46:Generated_Source\PSoC6\pdl\drivers/peripheral/ipc/cy_ipc_sema.c **** * initialized parameters on one CPU only to provide a pointer to SRAM that can
  47:Generated_Source\PSoC6\pdl\drivers/peripheral/ipc/cy_ipc_sema.c **** * be shared between all the CPUs in the system that will use semaphores.
  48:Generated_Source\PSoC6\pdl\drivers/peripheral/ipc/cy_ipc_sema.c **** * On other CPUs user must specify the IPC semaphores channel and pass 0 / NULL
  49:Generated_Source\PSoC6\pdl\drivers/peripheral/ipc/cy_ipc_sema.c **** * to count and memPtr parameters correspondingly.
  50:Generated_Source\PSoC6\pdl\drivers/peripheral/ipc/cy_ipc_sema.c **** *
  51:Generated_Source\PSoC6\pdl\drivers/peripheral/ipc/cy_ipc_sema.c **** * \param ipcChannel
  52:Generated_Source\PSoC6\pdl\drivers/peripheral/ipc/cy_ipc_sema.c **** * The IPC channel number used for semaphores
  53:Generated_Source\PSoC6\pdl\drivers/peripheral/ipc/cy_ipc_sema.c **** *
  54:Generated_Source\PSoC6\pdl\drivers/peripheral/ipc/cy_ipc_sema.c **** * \param count
  55:Generated_Source\PSoC6\pdl\drivers/peripheral/ipc/cy_ipc_sema.c **** *  The maximum number of semaphores to be supported (multiple of 32).
  56:Generated_Source\PSoC6\pdl\drivers/peripheral/ipc/cy_ipc_sema.c **** *
  57:Generated_Source\PSoC6\pdl\drivers/peripheral/ipc/cy_ipc_sema.c **** * \param memPtr
  58:Generated_Source\PSoC6\pdl\drivers/peripheral/ipc/cy_ipc_sema.c **** *  This points to the array of (count/32) words that contain the semaphore data.
  59:Generated_Source\PSoC6\pdl\drivers/peripheral/ipc/cy_ipc_sema.c **** *
  60:Generated_Source\PSoC6\pdl\drivers/peripheral/ipc/cy_ipc_sema.c **** * \return Status of the operation
  61:Generated_Source\PSoC6\pdl\drivers/peripheral/ipc/cy_ipc_sema.c **** *    \retval CY_IPC_SEMA_SUCCESS: Successfully initialized
  62:Generated_Source\PSoC6\pdl\drivers/peripheral/ipc/cy_ipc_sema.c **** *    \retval CY_IPC_SEMA_BAD_PARAM:     Memory pointer is NULL and count is not zero,
  63:Generated_Source\PSoC6\pdl\drivers/peripheral/ipc/cy_ipc_sema.c **** *                             or count not multiple of 32
  64:Generated_Source\PSoC6\pdl\drivers/peripheral/ipc/cy_ipc_sema.c **** *    \retval CY_IPC_SEMA_ERROR_LOCKED:  Could not acquire semaphores IPC channel
  65:Generated_Source\PSoC6\pdl\drivers/peripheral/ipc/cy_ipc_sema.c **** *
  66:Generated_Source\PSoC6\pdl\drivers/peripheral/ipc/cy_ipc_sema.c **** * \funcusage
  67:Generated_Source\PSoC6\pdl\drivers/peripheral/ipc/cy_ipc_sema.c **** * \snippet IPC_sut_01.cydsn/main_cm4.c snippet_Cy_IPC_Sema_Init
  68:Generated_Source\PSoC6\pdl\drivers/peripheral/ipc/cy_ipc_sema.c **** *
  69:Generated_Source\PSoC6\pdl\drivers/peripheral/ipc/cy_ipc_sema.c **** *******************************************************************************/
  70:Generated_Source\PSoC6\pdl\drivers/peripheral/ipc/cy_ipc_sema.c **** cy_en_ipcsema_status_t Cy_IPC_Sema_Init(uint32_t ipcChannel,
  71:Generated_Source\PSoC6\pdl\drivers/peripheral/ipc/cy_ipc_sema.c ****                                         uint32_t count, uint32_t memPtr[])
  72:Generated_Source\PSoC6\pdl\drivers/peripheral/ipc/cy_ipc_sema.c **** {
 223              		.loc 2 72 0
 224              		.cfi_startproc
 225              		@ args = 0, pretend = 0, frame = 24
 226              		@ frame_needed = 1, uses_anonymous_args = 0
 227 0000 80B5     		push	{r7, lr}
 228              		.cfi_def_cfa_offset 8
 229              		.cfi_offset 7, -8
 230              		.cfi_offset 14, -4
 231 0002 86B0     		sub	sp, sp, #24
 232              		.cfi_def_cfa_offset 32
 233 0004 00AF     		add	r7, sp, #0
 234              		.cfi_def_cfa_register 7
 235 0006 F860     		str	r0, [r7, #12]
 236 0008 B960     		str	r1, [r7, #8]
 237 000a 7A60     		str	r2, [r7, #4]
  73:Generated_Source\PSoC6\pdl\drivers/peripheral/ipc/cy_ipc_sema.c ****     /* Structure containing semaphores control data */
  74:Generated_Source\PSoC6\pdl\drivers/peripheral/ipc/cy_ipc_sema.c ****     static cy_stc_ipc_sema_t       cy_semaData;
ARM GAS  C:\Users\salaz\AppData\Local\Temp\ccFFISlC.s 			page 23


  75:Generated_Source\PSoC6\pdl\drivers/peripheral/ipc/cy_ipc_sema.c **** 
  76:Generated_Source\PSoC6\pdl\drivers/peripheral/ipc/cy_ipc_sema.c ****     cy_en_ipcsema_status_t retStatus = CY_IPC_SEMA_BAD_PARAM;
 238              		.loc 2 76 0
 239 000c 304B     		ldr	r3, .L31
 240 000e 7B61     		str	r3, [r7, #20]
  77:Generated_Source\PSoC6\pdl\drivers/peripheral/ipc/cy_ipc_sema.c **** 
  78:Generated_Source\PSoC6\pdl\drivers/peripheral/ipc/cy_ipc_sema.c ****     if (ipcChannel >= CY_IPC_CHANNELS)
 241              		.loc 2 78 0
 242 0010 FB68     		ldr	r3, [r7, #12]
 243 0012 0F2B     		cmp	r3, #15
 244 0014 02D9     		bls	.L20
  79:Generated_Source\PSoC6\pdl\drivers/peripheral/ipc/cy_ipc_sema.c ****     {
  80:Generated_Source\PSoC6\pdl\drivers/peripheral/ipc/cy_ipc_sema.c ****         retStatus = CY_IPC_SEMA_BAD_PARAM;
 245              		.loc 2 80 0
 246 0016 2E4B     		ldr	r3, .L31
 247 0018 7B61     		str	r3, [r7, #20]
 248 001a 53E0     		b	.L21
 249              	.L20:
  81:Generated_Source\PSoC6\pdl\drivers/peripheral/ipc/cy_ipc_sema.c ****     }
  82:Generated_Source\PSoC6\pdl\drivers/peripheral/ipc/cy_ipc_sema.c ****     else
  83:Generated_Source\PSoC6\pdl\drivers/peripheral/ipc/cy_ipc_sema.c ****     {
  84:Generated_Source\PSoC6\pdl\drivers/peripheral/ipc/cy_ipc_sema.c ****         if( (NULL == memPtr) && (0u == count))
 250              		.loc 2 84 0
 251 001c 7B68     		ldr	r3, [r7, #4]
 252 001e 002B     		cmp	r3, #0
 253 0020 0CD1     		bne	.L22
 254              		.loc 2 84 0 is_stmt 0 discriminator 1
 255 0022 BB68     		ldr	r3, [r7, #8]
 256 0024 002B     		cmp	r3, #0
 257 0026 09D1     		bne	.L22
  85:Generated_Source\PSoC6\pdl\drivers/peripheral/ipc/cy_ipc_sema.c ****         {
  86:Generated_Source\PSoC6\pdl\drivers/peripheral/ipc/cy_ipc_sema.c ****             cy_semaIpcStruct = Cy_IPC_Drv_GetIpcBaseAddress(ipcChannel);
 258              		.loc 2 86 0 is_stmt 1
 259 0028 FB68     		ldr	r3, [r7, #12]
 260 002a 1800     		movs	r0, r3
 261 002c FFF7FEFF 		bl	Cy_IPC_Drv_GetIpcBaseAddress
 262 0030 0200     		movs	r2, r0
 263 0032 284B     		ldr	r3, .L31+4
 264 0034 1A60     		str	r2, [r3]
  87:Generated_Source\PSoC6\pdl\drivers/peripheral/ipc/cy_ipc_sema.c **** 
  88:Generated_Source\PSoC6\pdl\drivers/peripheral/ipc/cy_ipc_sema.c ****             retStatus = CY_IPC_SEMA_SUCCESS;
 265              		.loc 2 88 0
 266 0036 0023     		movs	r3, #0
 267 0038 7B61     		str	r3, [r7, #20]
 268 003a 43E0     		b	.L21
 269              	.L22:
  89:Generated_Source\PSoC6\pdl\drivers/peripheral/ipc/cy_ipc_sema.c ****         }
  90:Generated_Source\PSoC6\pdl\drivers/peripheral/ipc/cy_ipc_sema.c **** 
  91:Generated_Source\PSoC6\pdl\drivers/peripheral/ipc/cy_ipc_sema.c ****         /* Check for non Null pointers and count value */
  92:Generated_Source\PSoC6\pdl\drivers/peripheral/ipc/cy_ipc_sema.c ****         else if ((NULL != memPtr) && (0u != count))
 270              		.loc 2 92 0
 271 003c 7B68     		ldr	r3, [r7, #4]
 272 003e 002B     		cmp	r3, #0
 273 0040 3ED0     		beq	.L23
 274              		.loc 2 92 0 is_stmt 0 discriminator 1
 275 0042 BB68     		ldr	r3, [r7, #8]
 276 0044 002B     		cmp	r3, #0
ARM GAS  C:\Users\salaz\AppData\Local\Temp\ccFFISlC.s 			page 24


 277 0046 3BD0     		beq	.L23
  93:Generated_Source\PSoC6\pdl\drivers/peripheral/ipc/cy_ipc_sema.c ****         {
  94:Generated_Source\PSoC6\pdl\drivers/peripheral/ipc/cy_ipc_sema.c ****             /* Check if semaphore count is a multiple of 32 */
  95:Generated_Source\PSoC6\pdl\drivers/peripheral/ipc/cy_ipc_sema.c ****             if( 0ul == (count & CY_IPC_SEMA_PER_WORD_MASK))
 278              		.loc 2 95 0 is_stmt 1
 279 0048 BB68     		ldr	r3, [r7, #8]
 280 004a 1F22     		movs	r2, #31
 281 004c 1340     		ands	r3, r2
 282 004e 34D1     		bne	.L24
  96:Generated_Source\PSoC6\pdl\drivers/peripheral/ipc/cy_ipc_sema.c ****             {
  97:Generated_Source\PSoC6\pdl\drivers/peripheral/ipc/cy_ipc_sema.c ****                 cy_semaIpcStruct = Cy_IPC_Drv_GetIpcBaseAddress(ipcChannel);
 283              		.loc 2 97 0
 284 0050 FB68     		ldr	r3, [r7, #12]
 285 0052 1800     		movs	r0, r3
 286 0054 FFF7FEFF 		bl	Cy_IPC_Drv_GetIpcBaseAddress
 287 0058 0200     		movs	r2, r0
 288 005a 1E4B     		ldr	r3, .L31+4
 289 005c 1A60     		str	r2, [r3]
  98:Generated_Source\PSoC6\pdl\drivers/peripheral/ipc/cy_ipc_sema.c **** 
  99:Generated_Source\PSoC6\pdl\drivers/peripheral/ipc/cy_ipc_sema.c ****                 cy_semaData.maxSema  = count;
 290              		.loc 2 99 0
 291 005e 1E4B     		ldr	r3, .L31+8
 292 0060 BA68     		ldr	r2, [r7, #8]
 293 0062 1A60     		str	r2, [r3]
 100:Generated_Source\PSoC6\pdl\drivers/peripheral/ipc/cy_ipc_sema.c ****                 cy_semaData.arrayPtr = memPtr;
 294              		.loc 2 100 0
 295 0064 1C4B     		ldr	r3, .L31+8
 296 0066 7A68     		ldr	r2, [r7, #4]
 297 0068 5A60     		str	r2, [r3, #4]
 101:Generated_Source\PSoC6\pdl\drivers/peripheral/ipc/cy_ipc_sema.c **** 
 102:Generated_Source\PSoC6\pdl\drivers/peripheral/ipc/cy_ipc_sema.c ****                 /* Initialize all semaphores to released */
 103:Generated_Source\PSoC6\pdl\drivers/peripheral/ipc/cy_ipc_sema.c ****                 (void)memset(cy_semaData.arrayPtr, 0, (count /8u));
 298              		.loc 2 103 0
 299 006a 1B4B     		ldr	r3, .L31+8
 300 006c 5868     		ldr	r0, [r3, #4]
 301 006e BB68     		ldr	r3, [r7, #8]
 302 0070 DB08     		lsrs	r3, r3, #3
 303 0072 1A00     		movs	r2, r3
 304 0074 0021     		movs	r1, #0
 305 0076 FFF7FEFF 		bl	memset
 104:Generated_Source\PSoC6\pdl\drivers/peripheral/ipc/cy_ipc_sema.c **** 
 105:Generated_Source\PSoC6\pdl\drivers/peripheral/ipc/cy_ipc_sema.c ****                 /* Make sure semaphores start out released.  */
 106:Generated_Source\PSoC6\pdl\drivers/peripheral/ipc/cy_ipc_sema.c ****                 /* Ignore the return value since it is OK if it was already released. */
 107:Generated_Source\PSoC6\pdl\drivers/peripheral/ipc/cy_ipc_sema.c ****                 (void) Cy_IPC_Drv_LockRelease (cy_semaIpcStruct, CY_IPC_NO_NOTIFICATION);
 306              		.loc 2 107 0
 307 007a 164B     		ldr	r3, .L31+4
 308 007c 1B68     		ldr	r3, [r3]
 309 007e 0021     		movs	r1, #0
 310 0080 1800     		movs	r0, r3
 311 0082 FFF7FEFF 		bl	Cy_IPC_Drv_LockRelease
 108:Generated_Source\PSoC6\pdl\drivers/peripheral/ipc/cy_ipc_sema.c **** 
 109:Generated_Source\PSoC6\pdl\drivers/peripheral/ipc/cy_ipc_sema.c ****                  /* Set the IPC Data with the pointer to the array. */
 110:Generated_Source\PSoC6\pdl\drivers/peripheral/ipc/cy_ipc_sema.c ****                 if( CY_IPC_DRV_SUCCESS == Cy_IPC_Drv_SendMsgPtr (cy_semaIpcStruct, CY_IPC_NO_NOTIFI
 312              		.loc 2 110 0
 313 0086 134B     		ldr	r3, .L31+4
 314 0088 1B68     		ldr	r3, [r3]
 315 008a 134A     		ldr	r2, .L31+8
ARM GAS  C:\Users\salaz\AppData\Local\Temp\ccFFISlC.s 			page 25


 316 008c 0021     		movs	r1, #0
 317 008e 1800     		movs	r0, r3
 318 0090 FFF7FEFF 		bl	Cy_IPC_Drv_SendMsgPtr
 319 0094 031E     		subs	r3, r0, #0
 320 0096 0DD1     		bne	.L25
 111:Generated_Source\PSoC6\pdl\drivers/peripheral/ipc/cy_ipc_sema.c ****                 {
 112:Generated_Source\PSoC6\pdl\drivers/peripheral/ipc/cy_ipc_sema.c ****                     if(CY_IPC_DRV_SUCCESS == Cy_IPC_Drv_LockRelease (cy_semaIpcStruct, CY_IPC_NO_NO
 321              		.loc 2 112 0
 322 0098 0E4B     		ldr	r3, .L31+4
 323 009a 1B68     		ldr	r3, [r3]
 324 009c 0021     		movs	r1, #0
 325 009e 1800     		movs	r0, r3
 326 00a0 FFF7FEFF 		bl	Cy_IPC_Drv_LockRelease
 327 00a4 031E     		subs	r3, r0, #0
 328 00a6 02D1     		bne	.L26
 113:Generated_Source\PSoC6\pdl\drivers/peripheral/ipc/cy_ipc_sema.c ****                     {
 114:Generated_Source\PSoC6\pdl\drivers/peripheral/ipc/cy_ipc_sema.c ****                         retStatus = CY_IPC_SEMA_SUCCESS;
 329              		.loc 2 114 0
 330 00a8 0023     		movs	r3, #0
 331 00aa 7B61     		str	r3, [r7, #20]
  95:Generated_Source\PSoC6\pdl\drivers/peripheral/ipc/cy_ipc_sema.c ****             {
 332              		.loc 2 95 0
 333 00ac 0AE0     		b	.L21
 334              	.L26:
 115:Generated_Source\PSoC6\pdl\drivers/peripheral/ipc/cy_ipc_sema.c ****                     }
 116:Generated_Source\PSoC6\pdl\drivers/peripheral/ipc/cy_ipc_sema.c ****                     else
 117:Generated_Source\PSoC6\pdl\drivers/peripheral/ipc/cy_ipc_sema.c ****                     {
 118:Generated_Source\PSoC6\pdl\drivers/peripheral/ipc/cy_ipc_sema.c ****                         /* IPC channel not released, still semaphored */
 119:Generated_Source\PSoC6\pdl\drivers/peripheral/ipc/cy_ipc_sema.c ****                         retStatus = CY_IPC_SEMA_ERROR_LOCKED;
 335              		.loc 2 119 0
 336 00ae 0B4B     		ldr	r3, .L31+12
 337 00b0 7B61     		str	r3, [r7, #20]
  95:Generated_Source\PSoC6\pdl\drivers/peripheral/ipc/cy_ipc_sema.c ****             {
 338              		.loc 2 95 0
 339 00b2 07E0     		b	.L21
 340              	.L25:
 120:Generated_Source\PSoC6\pdl\drivers/peripheral/ipc/cy_ipc_sema.c ****                     }
 121:Generated_Source\PSoC6\pdl\drivers/peripheral/ipc/cy_ipc_sema.c ****                 }
 122:Generated_Source\PSoC6\pdl\drivers/peripheral/ipc/cy_ipc_sema.c ****                 else
 123:Generated_Source\PSoC6\pdl\drivers/peripheral/ipc/cy_ipc_sema.c ****                 {
 124:Generated_Source\PSoC6\pdl\drivers/peripheral/ipc/cy_ipc_sema.c ****                     /* Could not acquire semaphore channel */
 125:Generated_Source\PSoC6\pdl\drivers/peripheral/ipc/cy_ipc_sema.c ****                     retStatus = CY_IPC_SEMA_ERROR_LOCKED;
 341              		.loc 2 125 0
 342 00b4 094B     		ldr	r3, .L31+12
 343 00b6 7B61     		str	r3, [r7, #20]
  95:Generated_Source\PSoC6\pdl\drivers/peripheral/ipc/cy_ipc_sema.c ****             {
 344              		.loc 2 95 0
 345 00b8 04E0     		b	.L21
 346              	.L24:
 126:Generated_Source\PSoC6\pdl\drivers/peripheral/ipc/cy_ipc_sema.c ****                 }
 127:Generated_Source\PSoC6\pdl\drivers/peripheral/ipc/cy_ipc_sema.c ****             }
 128:Generated_Source\PSoC6\pdl\drivers/peripheral/ipc/cy_ipc_sema.c ****             else
 129:Generated_Source\PSoC6\pdl\drivers/peripheral/ipc/cy_ipc_sema.c ****             {
 130:Generated_Source\PSoC6\pdl\drivers/peripheral/ipc/cy_ipc_sema.c ****                 retStatus = CY_IPC_SEMA_BAD_PARAM;
 347              		.loc 2 130 0
 348 00ba 054B     		ldr	r3, .L31
 349 00bc 7B61     		str	r3, [r7, #20]
ARM GAS  C:\Users\salaz\AppData\Local\Temp\ccFFISlC.s 			page 26


  95:Generated_Source\PSoC6\pdl\drivers/peripheral/ipc/cy_ipc_sema.c ****             {
 350              		.loc 2 95 0
 351 00be 01E0     		b	.L21
 352              	.L23:
 131:Generated_Source\PSoC6\pdl\drivers/peripheral/ipc/cy_ipc_sema.c ****             }
 132:Generated_Source\PSoC6\pdl\drivers/peripheral/ipc/cy_ipc_sema.c ****         }
 133:Generated_Source\PSoC6\pdl\drivers/peripheral/ipc/cy_ipc_sema.c ****         else
 134:Generated_Source\PSoC6\pdl\drivers/peripheral/ipc/cy_ipc_sema.c ****         {
 135:Generated_Source\PSoC6\pdl\drivers/peripheral/ipc/cy_ipc_sema.c ****             retStatus = CY_IPC_SEMA_BAD_PARAM;
 353              		.loc 2 135 0
 354 00c0 034B     		ldr	r3, .L31
 355 00c2 7B61     		str	r3, [r7, #20]
 356              	.L21:
 136:Generated_Source\PSoC6\pdl\drivers/peripheral/ipc/cy_ipc_sema.c ****         }
 137:Generated_Source\PSoC6\pdl\drivers/peripheral/ipc/cy_ipc_sema.c ****     }
 138:Generated_Source\PSoC6\pdl\drivers/peripheral/ipc/cy_ipc_sema.c **** 
 139:Generated_Source\PSoC6\pdl\drivers/peripheral/ipc/cy_ipc_sema.c ****     return(retStatus);
 357              		.loc 2 139 0
 358 00c4 7B69     		ldr	r3, [r7, #20]
 140:Generated_Source\PSoC6\pdl\drivers/peripheral/ipc/cy_ipc_sema.c **** }
 359              		.loc 2 140 0
 360 00c6 1800     		movs	r0, r3
 361 00c8 BD46     		mov	sp, r7
 362 00ca 06B0     		add	sp, sp, #24
 363              		@ sp needed
 364 00cc 80BD     		pop	{r7, pc}
 365              	.L32:
 366 00ce C046     		.align	2
 367              	.L31:
 368 00d0 03018A00 		.word	9044227
 369 00d4 00000000 		.word	cy_semaIpcStruct
 370 00d8 04000000 		.word	cy_semaData.9586
 371 00dc 01018A00 		.word	9044225
 372              		.cfi_endproc
 373              	.LFE55:
 374              		.size	Cy_IPC_Sema_Init, .-Cy_IPC_Sema_Init
 375              		.section	.text.Cy_IPC_Sema_Set,"ax",%progbits
 376              		.align	2
 377              		.global	Cy_IPC_Sema_Set
 378              		.code	16
 379              		.thumb_func
 380              		.type	Cy_IPC_Sema_Set, %function
 381              	Cy_IPC_Sema_Set:
 382              	.LFB56:
 141:Generated_Source\PSoC6\pdl\drivers/peripheral/ipc/cy_ipc_sema.c **** 
 142:Generated_Source\PSoC6\pdl\drivers/peripheral/ipc/cy_ipc_sema.c **** /*******************************************************************************
 143:Generated_Source\PSoC6\pdl\drivers/peripheral/ipc/cy_ipc_sema.c **** * Function Name: Cy_IPC_Sema_Set
 144:Generated_Source\PSoC6\pdl\drivers/peripheral/ipc/cy_ipc_sema.c **** ****************************************************************************//**
 145:Generated_Source\PSoC6\pdl\drivers/peripheral/ipc/cy_ipc_sema.c **** *
 146:Generated_Source\PSoC6\pdl\drivers/peripheral/ipc/cy_ipc_sema.c **** * This function tries to acquire a semaphore. If the
 147:Generated_Source\PSoC6\pdl\drivers/peripheral/ipc/cy_ipc_sema.c **** * semaphore is not available, this function returns immediately with
 148:Generated_Source\PSoC6\pdl\drivers/peripheral/ipc/cy_ipc_sema.c **** * CY_IPC_SEMA_LOCKED.
 149:Generated_Source\PSoC6\pdl\drivers/peripheral/ipc/cy_ipc_sema.c **** *
 150:Generated_Source\PSoC6\pdl\drivers/peripheral/ipc/cy_ipc_sema.c **** * It first acquires the IPC channel that is used for all the semaphores, sets
 151:Generated_Source\PSoC6\pdl\drivers/peripheral/ipc/cy_ipc_sema.c **** * the semaphore if it is cleared, then releases the IPC channel used for the
 152:Generated_Source\PSoC6\pdl\drivers/peripheral/ipc/cy_ipc_sema.c **** * semaphore.
 153:Generated_Source\PSoC6\pdl\drivers/peripheral/ipc/cy_ipc_sema.c **** *
ARM GAS  C:\Users\salaz\AppData\Local\Temp\ccFFISlC.s 			page 27


 154:Generated_Source\PSoC6\pdl\drivers/peripheral/ipc/cy_ipc_sema.c **** * \param semaNumber
 155:Generated_Source\PSoC6\pdl\drivers/peripheral/ipc/cy_ipc_sema.c **** *  The semaphore number to acquire.
 156:Generated_Source\PSoC6\pdl\drivers/peripheral/ipc/cy_ipc_sema.c **** *
 157:Generated_Source\PSoC6\pdl\drivers/peripheral/ipc/cy_ipc_sema.c **** * \param preemptable
 158:Generated_Source\PSoC6\pdl\drivers/peripheral/ipc/cy_ipc_sema.c **** *  When this parameter is enabled the function can be preempted by another
 159:Generated_Source\PSoC6\pdl\drivers/peripheral/ipc/cy_ipc_sema.c **** *  task or other forms of context switching in an RTOS environment.
 160:Generated_Source\PSoC6\pdl\drivers/peripheral/ipc/cy_ipc_sema.c **** *
 161:Generated_Source\PSoC6\pdl\drivers/peripheral/ipc/cy_ipc_sema.c **** * \note
 162:Generated_Source\PSoC6\pdl\drivers/peripheral/ipc/cy_ipc_sema.c **** *  If <b>preemptable</b> is enabled (true), the user must ensure that there are
 163:Generated_Source\PSoC6\pdl\drivers/peripheral/ipc/cy_ipc_sema.c **** *  no deadlocks in the system, which can be caused by an interrupt that occurs
 164:Generated_Source\PSoC6\pdl\drivers/peripheral/ipc/cy_ipc_sema.c **** *  after the IPC channel is locked. Unless the user is ready to handle IPC
 165:Generated_Source\PSoC6\pdl\drivers/peripheral/ipc/cy_ipc_sema.c **** *  channel locks correctly at the application level, set <b>premptable</b> to
 166:Generated_Source\PSoC6\pdl\drivers/peripheral/ipc/cy_ipc_sema.c **** *  false.
 167:Generated_Source\PSoC6\pdl\drivers/peripheral/ipc/cy_ipc_sema.c **** *
 168:Generated_Source\PSoC6\pdl\drivers/peripheral/ipc/cy_ipc_sema.c **** * \return Status of the operation
 169:Generated_Source\PSoC6\pdl\drivers/peripheral/ipc/cy_ipc_sema.c **** *    \retval CY_IPC_SEMA_SUCCESS:      The semaphore was set successfully
 170:Generated_Source\PSoC6\pdl\drivers/peripheral/ipc/cy_ipc_sema.c **** *    \retval CY_IPC_SEMA_LOCKED:       The semaphore channel is busy or locked
 171:Generated_Source\PSoC6\pdl\drivers/peripheral/ipc/cy_ipc_sema.c **** *                              by another process
 172:Generated_Source\PSoC6\pdl\drivers/peripheral/ipc/cy_ipc_sema.c **** *    \retval CY_IPC_SEMA_NOT_ACQUIRED: Semaphore was already set
 173:Generated_Source\PSoC6\pdl\drivers/peripheral/ipc/cy_ipc_sema.c **** *    \retval CY_IPC_SEMA_OUT_OF_RANGE: The semaphore number is not valid
 174:Generated_Source\PSoC6\pdl\drivers/peripheral/ipc/cy_ipc_sema.c **** *
 175:Generated_Source\PSoC6\pdl\drivers/peripheral/ipc/cy_ipc_sema.c **** * \funcusage
 176:Generated_Source\PSoC6\pdl\drivers/peripheral/ipc/cy_ipc_sema.c **** * \snippet IPC_sut_01.cydsn/main_cm4.c snippet_Cy_IPC_Sema_Set
 177:Generated_Source\PSoC6\pdl\drivers/peripheral/ipc/cy_ipc_sema.c **** *
 178:Generated_Source\PSoC6\pdl\drivers/peripheral/ipc/cy_ipc_sema.c **** *******************************************************************************/
 179:Generated_Source\PSoC6\pdl\drivers/peripheral/ipc/cy_ipc_sema.c **** cy_en_ipcsema_status_t Cy_IPC_Sema_Set(uint32_t semaNumber, bool preemptable)
 180:Generated_Source\PSoC6\pdl\drivers/peripheral/ipc/cy_ipc_sema.c **** {
 383              		.loc 2 180 0
 384              		.cfi_startproc
 385              		@ args = 0, pretend = 0, frame = 32
 386              		@ frame_needed = 1, uses_anonymous_args = 0
 387 0000 80B5     		push	{r7, lr}
 388              		.cfi_def_cfa_offset 8
 389              		.cfi_offset 7, -8
 390              		.cfi_offset 14, -4
 391 0002 88B0     		sub	sp, sp, #32
 392              		.cfi_def_cfa_offset 40
 393 0004 00AF     		add	r7, sp, #0
 394              		.cfi_def_cfa_register 7
 395 0006 7860     		str	r0, [r7, #4]
 396 0008 0A00     		movs	r2, r1
 397 000a FB1C     		adds	r3, r7, #3
 398 000c 1A70     		strb	r2, [r3]
 181:Generated_Source\PSoC6\pdl\drivers/peripheral/ipc/cy_ipc_sema.c ****     uint32_t semaIndex;
 182:Generated_Source\PSoC6\pdl\drivers/peripheral/ipc/cy_ipc_sema.c ****     uint32_t semaMask;
 183:Generated_Source\PSoC6\pdl\drivers/peripheral/ipc/cy_ipc_sema.c ****     uint32_t interruptState = 0ul;
 399              		.loc 2 183 0
 400 000e 0023     		movs	r3, #0
 401 0010 FB61     		str	r3, [r7, #28]
 184:Generated_Source\PSoC6\pdl\drivers/peripheral/ipc/cy_ipc_sema.c **** 
 185:Generated_Source\PSoC6\pdl\drivers/peripheral/ipc/cy_ipc_sema.c ****     cy_stc_ipc_sema_t      *semaStruct;
 186:Generated_Source\PSoC6\pdl\drivers/peripheral/ipc/cy_ipc_sema.c ****     cy_en_ipcsema_status_t  retStatus = CY_IPC_SEMA_LOCKED;
 402              		.loc 2 186 0
 403 0012 304B     		ldr	r3, .L42
 404 0014 BB61     		str	r3, [r7, #24]
 187:Generated_Source\PSoC6\pdl\drivers/peripheral/ipc/cy_ipc_sema.c **** 
 188:Generated_Source\PSoC6\pdl\drivers/peripheral/ipc/cy_ipc_sema.c ****     /* Get pointer to structure */
ARM GAS  C:\Users\salaz\AppData\Local\Temp\ccFFISlC.s 			page 28


 189:Generated_Source\PSoC6\pdl\drivers/peripheral/ipc/cy_ipc_sema.c ****     semaStruct = (cy_stc_ipc_sema_t *)Cy_IPC_Drv_ReadDataValue(cy_semaIpcStruct);
 405              		.loc 2 189 0
 406 0016 304B     		ldr	r3, .L42+4
 407 0018 1B68     		ldr	r3, [r3]
 408 001a 1800     		movs	r0, r3
 409 001c FFF7FEFF 		bl	Cy_IPC_Drv_ReadDataValue
 410 0020 0300     		movs	r3, r0
 411 0022 7B61     		str	r3, [r7, #20]
 190:Generated_Source\PSoC6\pdl\drivers/peripheral/ipc/cy_ipc_sema.c **** 
 191:Generated_Source\PSoC6\pdl\drivers/peripheral/ipc/cy_ipc_sema.c ****     if (semaNumber < semaStruct->maxSema)
 412              		.loc 2 191 0
 413 0024 7B69     		ldr	r3, [r7, #20]
 414 0026 1A68     		ldr	r2, [r3]
 415 0028 7B68     		ldr	r3, [r7, #4]
 416 002a 9A42     		cmp	r2, r3
 417 002c 4AD9     		bls	.L34
 192:Generated_Source\PSoC6\pdl\drivers/peripheral/ipc/cy_ipc_sema.c ****     {
 193:Generated_Source\PSoC6\pdl\drivers/peripheral/ipc/cy_ipc_sema.c ****         semaIndex = semaNumber / CY_IPC_SEMA_PER_WORD;
 418              		.loc 2 193 0
 419 002e 7B68     		ldr	r3, [r7, #4]
 420 0030 5B09     		lsrs	r3, r3, #5
 421 0032 3B61     		str	r3, [r7, #16]
 194:Generated_Source\PSoC6\pdl\drivers/peripheral/ipc/cy_ipc_sema.c ****         semaMask = (uint32_t)(1ul << (semaNumber - (semaIndex * CY_IPC_SEMA_PER_WORD) ));
 422              		.loc 2 194 0
 423 0034 3B69     		ldr	r3, [r7, #16]
 424 0036 5B01     		lsls	r3, r3, #5
 425 0038 7A68     		ldr	r2, [r7, #4]
 426 003a D31A     		subs	r3, r2, r3
 427 003c 0122     		movs	r2, #1
 428 003e 9A40     		lsls	r2, r2, r3
 429 0040 1300     		movs	r3, r2
 430 0042 FB60     		str	r3, [r7, #12]
 195:Generated_Source\PSoC6\pdl\drivers/peripheral/ipc/cy_ipc_sema.c **** 
 196:Generated_Source\PSoC6\pdl\drivers/peripheral/ipc/cy_ipc_sema.c ****         if (!preemptable)
 431              		.loc 2 196 0
 432 0044 FB1C     		adds	r3, r7, #3
 433 0046 1B78     		ldrb	r3, [r3]
 434 0048 0122     		movs	r2, #1
 435 004a 5340     		eors	r3, r2
 436 004c DBB2     		uxtb	r3, r3
 437 004e 002B     		cmp	r3, #0
 438 0050 03D0     		beq	.L35
 197:Generated_Source\PSoC6\pdl\drivers/peripheral/ipc/cy_ipc_sema.c ****         {
 198:Generated_Source\PSoC6\pdl\drivers/peripheral/ipc/cy_ipc_sema.c ****             interruptState = Cy_SysLib_EnterCriticalSection();
 439              		.loc 2 198 0
 440 0052 FFF7FEFF 		bl	Cy_SysLib_EnterCriticalSection
 441 0056 0300     		movs	r3, r0
 442 0058 FB61     		str	r3, [r7, #28]
 443              	.L35:
 199:Generated_Source\PSoC6\pdl\drivers/peripheral/ipc/cy_ipc_sema.c ****         }
 200:Generated_Source\PSoC6\pdl\drivers/peripheral/ipc/cy_ipc_sema.c **** 
 201:Generated_Source\PSoC6\pdl\drivers/peripheral/ipc/cy_ipc_sema.c ****         /* Check to make sure the IPC channel is released
 202:Generated_Source\PSoC6\pdl\drivers/peripheral/ipc/cy_ipc_sema.c ****            If so, check if specific channel can be locked. */
 203:Generated_Source\PSoC6\pdl\drivers/peripheral/ipc/cy_ipc_sema.c ****         if(CY_IPC_DRV_SUCCESS == Cy_IPC_Drv_LockAcquire (cy_semaIpcStruct))
 444              		.loc 2 203 0
 445 005a 1F4B     		ldr	r3, .L42+4
 446 005c 1B68     		ldr	r3, [r3]
ARM GAS  C:\Users\salaz\AppData\Local\Temp\ccFFISlC.s 			page 29


 447 005e 1800     		movs	r0, r3
 448 0060 FFF7FEFF 		bl	Cy_IPC_Drv_LockAcquire
 449 0064 031E     		subs	r3, r0, #0
 450 0066 21D1     		bne	.L36
 204:Generated_Source\PSoC6\pdl\drivers/peripheral/ipc/cy_ipc_sema.c ****         {
 205:Generated_Source\PSoC6\pdl\drivers/peripheral/ipc/cy_ipc_sema.c ****             if((semaStruct->arrayPtr[semaIndex] & semaMask) == 0ul)
 451              		.loc 2 205 0
 452 0068 7B69     		ldr	r3, [r7, #20]
 453 006a 5A68     		ldr	r2, [r3, #4]
 454 006c 3B69     		ldr	r3, [r7, #16]
 455 006e 9B00     		lsls	r3, r3, #2
 456 0070 D318     		adds	r3, r2, r3
 457 0072 1B68     		ldr	r3, [r3]
 458 0074 FA68     		ldr	r2, [r7, #12]
 459 0076 1340     		ands	r3, r2
 460 0078 10D1     		bne	.L37
 206:Generated_Source\PSoC6\pdl\drivers/peripheral/ipc/cy_ipc_sema.c ****             {
 207:Generated_Source\PSoC6\pdl\drivers/peripheral/ipc/cy_ipc_sema.c ****                 semaStruct->arrayPtr[semaIndex] |= semaMask;
 461              		.loc 2 207 0
 462 007a 7B69     		ldr	r3, [r7, #20]
 463 007c 5A68     		ldr	r2, [r3, #4]
 464 007e 3B69     		ldr	r3, [r7, #16]
 465 0080 9B00     		lsls	r3, r3, #2
 466 0082 D318     		adds	r3, r2, r3
 467 0084 7A69     		ldr	r2, [r7, #20]
 468 0086 5168     		ldr	r1, [r2, #4]
 469 0088 3A69     		ldr	r2, [r7, #16]
 470 008a 9200     		lsls	r2, r2, #2
 471 008c 8A18     		adds	r2, r1, r2
 472 008e 1168     		ldr	r1, [r2]
 473 0090 FA68     		ldr	r2, [r7, #12]
 474 0092 0A43     		orrs	r2, r1
 475 0094 1A60     		str	r2, [r3]
 208:Generated_Source\PSoC6\pdl\drivers/peripheral/ipc/cy_ipc_sema.c ****                 retStatus = CY_IPC_SEMA_SUCCESS;
 476              		.loc 2 208 0
 477 0096 0023     		movs	r3, #0
 478 0098 BB61     		str	r3, [r7, #24]
 479 009a 01E0     		b	.L38
 480              	.L37:
 209:Generated_Source\PSoC6\pdl\drivers/peripheral/ipc/cy_ipc_sema.c ****             }
 210:Generated_Source\PSoC6\pdl\drivers/peripheral/ipc/cy_ipc_sema.c ****             else
 211:Generated_Source\PSoC6\pdl\drivers/peripheral/ipc/cy_ipc_sema.c ****             {
 212:Generated_Source\PSoC6\pdl\drivers/peripheral/ipc/cy_ipc_sema.c ****                 retStatus = CY_IPC_SEMA_NOT_ACQUIRED;
 481              		.loc 2 212 0
 482 009c 0F4B     		ldr	r3, .L42+8
 483 009e BB61     		str	r3, [r7, #24]
 484              	.L38:
 213:Generated_Source\PSoC6\pdl\drivers/peripheral/ipc/cy_ipc_sema.c ****             }
 214:Generated_Source\PSoC6\pdl\drivers/peripheral/ipc/cy_ipc_sema.c **** 
 215:Generated_Source\PSoC6\pdl\drivers/peripheral/ipc/cy_ipc_sema.c ****             /* Release, but do not trigger a release event */
 216:Generated_Source\PSoC6\pdl\drivers/peripheral/ipc/cy_ipc_sema.c ****             (void) Cy_IPC_Drv_LockRelease (cy_semaIpcStruct, CY_IPC_NO_NOTIFICATION);
 485              		.loc 2 216 0
 486 00a0 0D4B     		ldr	r3, .L42+4
 487 00a2 1B68     		ldr	r3, [r3]
 488 00a4 0021     		movs	r1, #0
 489 00a6 1800     		movs	r0, r3
 490 00a8 FFF7FEFF 		bl	Cy_IPC_Drv_LockRelease
ARM GAS  C:\Users\salaz\AppData\Local\Temp\ccFFISlC.s 			page 30


 491              	.L36:
 217:Generated_Source\PSoC6\pdl\drivers/peripheral/ipc/cy_ipc_sema.c ****         }
 218:Generated_Source\PSoC6\pdl\drivers/peripheral/ipc/cy_ipc_sema.c **** 
 219:Generated_Source\PSoC6\pdl\drivers/peripheral/ipc/cy_ipc_sema.c ****         if (!preemptable)
 492              		.loc 2 219 0
 493 00ac FB1C     		adds	r3, r7, #3
 494 00ae 1B78     		ldrb	r3, [r3]
 495 00b0 0122     		movs	r2, #1
 496 00b2 5340     		eors	r3, r2
 497 00b4 DBB2     		uxtb	r3, r3
 498 00b6 002B     		cmp	r3, #0
 499 00b8 06D0     		beq	.L40
 220:Generated_Source\PSoC6\pdl\drivers/peripheral/ipc/cy_ipc_sema.c ****         {
 221:Generated_Source\PSoC6\pdl\drivers/peripheral/ipc/cy_ipc_sema.c ****             Cy_SysLib_ExitCriticalSection(interruptState);
 500              		.loc 2 221 0
 501 00ba FB69     		ldr	r3, [r7, #28]
 502 00bc 1800     		movs	r0, r3
 503 00be FFF7FEFF 		bl	Cy_SysLib_ExitCriticalSection
 504 00c2 01E0     		b	.L40
 505              	.L34:
 222:Generated_Source\PSoC6\pdl\drivers/peripheral/ipc/cy_ipc_sema.c ****         }
 223:Generated_Source\PSoC6\pdl\drivers/peripheral/ipc/cy_ipc_sema.c ****     }
 224:Generated_Source\PSoC6\pdl\drivers/peripheral/ipc/cy_ipc_sema.c ****     else
 225:Generated_Source\PSoC6\pdl\drivers/peripheral/ipc/cy_ipc_sema.c ****     {
 226:Generated_Source\PSoC6\pdl\drivers/peripheral/ipc/cy_ipc_sema.c ****         retStatus = CY_IPC_SEMA_OUT_OF_RANGE;
 506              		.loc 2 226 0
 507 00c4 064B     		ldr	r3, .L42+12
 508 00c6 BB61     		str	r3, [r7, #24]
 509              	.L40:
 227:Generated_Source\PSoC6\pdl\drivers/peripheral/ipc/cy_ipc_sema.c ****     }
 228:Generated_Source\PSoC6\pdl\drivers/peripheral/ipc/cy_ipc_sema.c **** 
 229:Generated_Source\PSoC6\pdl\drivers/peripheral/ipc/cy_ipc_sema.c ****     return(retStatus);
 510              		.loc 2 229 0
 511 00c8 BB69     		ldr	r3, [r7, #24]
 230:Generated_Source\PSoC6\pdl\drivers/peripheral/ipc/cy_ipc_sema.c **** }
 512              		.loc 2 230 0
 513 00ca 1800     		movs	r0, r3
 514 00cc BD46     		mov	sp, r7
 515 00ce 08B0     		add	sp, sp, #32
 516              		@ sp needed
 517 00d0 80BD     		pop	{r7, pc}
 518              	.L43:
 519 00d2 C046     		.align	2
 520              	.L42:
 521 00d4 03018800 		.word	8913155
 522 00d8 00000000 		.word	cy_semaIpcStruct
 523 00dc 02018800 		.word	8913154
 524 00e0 04018A00 		.word	9044228
 525              		.cfi_endproc
 526              	.LFE56:
 527              		.size	Cy_IPC_Sema_Set, .-Cy_IPC_Sema_Set
 528              		.section	.text.Cy_IPC_Sema_Clear,"ax",%progbits
 529              		.align	2
 530              		.global	Cy_IPC_Sema_Clear
 531              		.code	16
 532              		.thumb_func
 533              		.type	Cy_IPC_Sema_Clear, %function
ARM GAS  C:\Users\salaz\AppData\Local\Temp\ccFFISlC.s 			page 31


 534              	Cy_IPC_Sema_Clear:
 535              	.LFB57:
 231:Generated_Source\PSoC6\pdl\drivers/peripheral/ipc/cy_ipc_sema.c **** 
 232:Generated_Source\PSoC6\pdl\drivers/peripheral/ipc/cy_ipc_sema.c **** 
 233:Generated_Source\PSoC6\pdl\drivers/peripheral/ipc/cy_ipc_sema.c **** /*******************************************************************************
 234:Generated_Source\PSoC6\pdl\drivers/peripheral/ipc/cy_ipc_sema.c **** * Function Name: Cy_IPC_Sema_Clear
 235:Generated_Source\PSoC6\pdl\drivers/peripheral/ipc/cy_ipc_sema.c **** ****************************************************************************//**
 236:Generated_Source\PSoC6\pdl\drivers/peripheral/ipc/cy_ipc_sema.c **** *
 237:Generated_Source\PSoC6\pdl\drivers/peripheral/ipc/cy_ipc_sema.c **** * This functions tries to releases a semaphore.
 238:Generated_Source\PSoC6\pdl\drivers/peripheral/ipc/cy_ipc_sema.c **** *
 239:Generated_Source\PSoC6\pdl\drivers/peripheral/ipc/cy_ipc_sema.c **** * It first acquires the IPC channel that is used for all the semaphores, clears
 240:Generated_Source\PSoC6\pdl\drivers/peripheral/ipc/cy_ipc_sema.c **** * the semaphore if it is set, then releases the IPC channel used for the
 241:Generated_Source\PSoC6\pdl\drivers/peripheral/ipc/cy_ipc_sema.c **** * semaphores.
 242:Generated_Source\PSoC6\pdl\drivers/peripheral/ipc/cy_ipc_sema.c **** *
 243:Generated_Source\PSoC6\pdl\drivers/peripheral/ipc/cy_ipc_sema.c **** * \param semaNumber
 244:Generated_Source\PSoC6\pdl\drivers/peripheral/ipc/cy_ipc_sema.c **** *  The index of the semaphore to release.
 245:Generated_Source\PSoC6\pdl\drivers/peripheral/ipc/cy_ipc_sema.c **** *
 246:Generated_Source\PSoC6\pdl\drivers/peripheral/ipc/cy_ipc_sema.c **** * \param preemptable
 247:Generated_Source\PSoC6\pdl\drivers/peripheral/ipc/cy_ipc_sema.c **** *  When this parameter is enabled the function can be preempted by another
 248:Generated_Source\PSoC6\pdl\drivers/peripheral/ipc/cy_ipc_sema.c **** *  task or other forms of context switching in an RTOS environment.
 249:Generated_Source\PSoC6\pdl\drivers/peripheral/ipc/cy_ipc_sema.c **** *
 250:Generated_Source\PSoC6\pdl\drivers/peripheral/ipc/cy_ipc_sema.c **** * \note
 251:Generated_Source\PSoC6\pdl\drivers/peripheral/ipc/cy_ipc_sema.c **** *  If <b>preemptable</b> is enabled (true), the user must ensure that there are
 252:Generated_Source\PSoC6\pdl\drivers/peripheral/ipc/cy_ipc_sema.c **** *  no deadlocks in the system, which can be caused by an interrupt that occurs
 253:Generated_Source\PSoC6\pdl\drivers/peripheral/ipc/cy_ipc_sema.c **** *  after the IPC channel is locked. Unless the user is ready to handle IPC
 254:Generated_Source\PSoC6\pdl\drivers/peripheral/ipc/cy_ipc_sema.c **** *  channel locks correctly at the application level, set <b>premptable</b> to
 255:Generated_Source\PSoC6\pdl\drivers/peripheral/ipc/cy_ipc_sema.c **** *  false.
 256:Generated_Source\PSoC6\pdl\drivers/peripheral/ipc/cy_ipc_sema.c **** *
 257:Generated_Source\PSoC6\pdl\drivers/peripheral/ipc/cy_ipc_sema.c **** * \return Status of the operation
 258:Generated_Source\PSoC6\pdl\drivers/peripheral/ipc/cy_ipc_sema.c **** *    \retval CY_IPC_SEMA_SUCCESS:         The semaphore was cleared successfully
 259:Generated_Source\PSoC6\pdl\drivers/peripheral/ipc/cy_ipc_sema.c **** *    \retval CY_IPC_SEMA_NOT_ACQUIRED:    The semaphore was already cleared
 260:Generated_Source\PSoC6\pdl\drivers/peripheral/ipc/cy_ipc_sema.c **** *    \retval CY_IPC_SEMA_LOCKED:          The semaphore channel was semaphored or busy
 261:Generated_Source\PSoC6\pdl\drivers/peripheral/ipc/cy_ipc_sema.c **** *    \retval CY_IPC_SEMA_OUT_OF_RANGE:    The semaphore number is not valid
 262:Generated_Source\PSoC6\pdl\drivers/peripheral/ipc/cy_ipc_sema.c **** *
 263:Generated_Source\PSoC6\pdl\drivers/peripheral/ipc/cy_ipc_sema.c **** * \funcusage
 264:Generated_Source\PSoC6\pdl\drivers/peripheral/ipc/cy_ipc_sema.c **** * \snippet IPC_sut_01.cydsn/main_cm4.c snippet_Cy_IPC_Sema_Clear
 265:Generated_Source\PSoC6\pdl\drivers/peripheral/ipc/cy_ipc_sema.c **** *
 266:Generated_Source\PSoC6\pdl\drivers/peripheral/ipc/cy_ipc_sema.c **** *******************************************************************************/
 267:Generated_Source\PSoC6\pdl\drivers/peripheral/ipc/cy_ipc_sema.c **** cy_en_ipcsema_status_t Cy_IPC_Sema_Clear(uint32_t semaNumber, bool preemptable)
 268:Generated_Source\PSoC6\pdl\drivers/peripheral/ipc/cy_ipc_sema.c **** {
 536              		.loc 2 268 0
 537              		.cfi_startproc
 538              		@ args = 0, pretend = 0, frame = 32
 539              		@ frame_needed = 1, uses_anonymous_args = 0
 540 0000 80B5     		push	{r7, lr}
 541              		.cfi_def_cfa_offset 8
 542              		.cfi_offset 7, -8
 543              		.cfi_offset 14, -4
 544 0002 88B0     		sub	sp, sp, #32
 545              		.cfi_def_cfa_offset 40
 546 0004 00AF     		add	r7, sp, #0
 547              		.cfi_def_cfa_register 7
 548 0006 7860     		str	r0, [r7, #4]
 549 0008 0A00     		movs	r2, r1
 550 000a FB1C     		adds	r3, r7, #3
 551 000c 1A70     		strb	r2, [r3]
 269:Generated_Source\PSoC6\pdl\drivers/peripheral/ipc/cy_ipc_sema.c ****     uint32_t semaIndex;
ARM GAS  C:\Users\salaz\AppData\Local\Temp\ccFFISlC.s 			page 32


 270:Generated_Source\PSoC6\pdl\drivers/peripheral/ipc/cy_ipc_sema.c ****     uint32_t semaMask;
 271:Generated_Source\PSoC6\pdl\drivers/peripheral/ipc/cy_ipc_sema.c ****     uint32_t interruptState = 0ul;
 552              		.loc 2 271 0
 553 000e 0023     		movs	r3, #0
 554 0010 FB61     		str	r3, [r7, #28]
 272:Generated_Source\PSoC6\pdl\drivers/peripheral/ipc/cy_ipc_sema.c **** 
 273:Generated_Source\PSoC6\pdl\drivers/peripheral/ipc/cy_ipc_sema.c ****     cy_stc_ipc_sema_t      *semaStruct;
 274:Generated_Source\PSoC6\pdl\drivers/peripheral/ipc/cy_ipc_sema.c ****     cy_en_ipcsema_status_t  retStatus = CY_IPC_SEMA_LOCKED;
 555              		.loc 2 274 0
 556 0012 304B     		ldr	r3, .L53
 557 0014 BB61     		str	r3, [r7, #24]
 275:Generated_Source\PSoC6\pdl\drivers/peripheral/ipc/cy_ipc_sema.c **** 
 276:Generated_Source\PSoC6\pdl\drivers/peripheral/ipc/cy_ipc_sema.c ****     /* Get pointer to structure */
 277:Generated_Source\PSoC6\pdl\drivers/peripheral/ipc/cy_ipc_sema.c ****     semaStruct = (cy_stc_ipc_sema_t *)Cy_IPC_Drv_ReadDataValue(cy_semaIpcStruct);
 558              		.loc 2 277 0
 559 0016 304B     		ldr	r3, .L53+4
 560 0018 1B68     		ldr	r3, [r3]
 561 001a 1800     		movs	r0, r3
 562 001c FFF7FEFF 		bl	Cy_IPC_Drv_ReadDataValue
 563 0020 0300     		movs	r3, r0
 564 0022 7B61     		str	r3, [r7, #20]
 278:Generated_Source\PSoC6\pdl\drivers/peripheral/ipc/cy_ipc_sema.c **** 
 279:Generated_Source\PSoC6\pdl\drivers/peripheral/ipc/cy_ipc_sema.c ****     if (semaNumber < semaStruct->maxSema)
 565              		.loc 2 279 0
 566 0024 7B69     		ldr	r3, [r7, #20]
 567 0026 1A68     		ldr	r2, [r3]
 568 0028 7B68     		ldr	r3, [r7, #4]
 569 002a 9A42     		cmp	r2, r3
 570 002c 4BD9     		bls	.L45
 280:Generated_Source\PSoC6\pdl\drivers/peripheral/ipc/cy_ipc_sema.c ****     {
 281:Generated_Source\PSoC6\pdl\drivers/peripheral/ipc/cy_ipc_sema.c ****         semaIndex = semaNumber / CY_IPC_SEMA_PER_WORD;
 571              		.loc 2 281 0
 572 002e 7B68     		ldr	r3, [r7, #4]
 573 0030 5B09     		lsrs	r3, r3, #5
 574 0032 3B61     		str	r3, [r7, #16]
 282:Generated_Source\PSoC6\pdl\drivers/peripheral/ipc/cy_ipc_sema.c ****         semaMask = (uint32_t)(1ul << (semaNumber - (semaIndex * CY_IPC_SEMA_PER_WORD) ));
 575              		.loc 2 282 0
 576 0034 3B69     		ldr	r3, [r7, #16]
 577 0036 5B01     		lsls	r3, r3, #5
 578 0038 7A68     		ldr	r2, [r7, #4]
 579 003a D31A     		subs	r3, r2, r3
 580 003c 0122     		movs	r2, #1
 581 003e 9A40     		lsls	r2, r2, r3
 582 0040 1300     		movs	r3, r2
 583 0042 FB60     		str	r3, [r7, #12]
 283:Generated_Source\PSoC6\pdl\drivers/peripheral/ipc/cy_ipc_sema.c **** 
 284:Generated_Source\PSoC6\pdl\drivers/peripheral/ipc/cy_ipc_sema.c ****         if (!preemptable)
 584              		.loc 2 284 0
 585 0044 FB1C     		adds	r3, r7, #3
 586 0046 1B78     		ldrb	r3, [r3]
 587 0048 0122     		movs	r2, #1
 588 004a 5340     		eors	r3, r2
 589 004c DBB2     		uxtb	r3, r3
 590 004e 002B     		cmp	r3, #0
 591 0050 03D0     		beq	.L46
 285:Generated_Source\PSoC6\pdl\drivers/peripheral/ipc/cy_ipc_sema.c ****         {
 286:Generated_Source\PSoC6\pdl\drivers/peripheral/ipc/cy_ipc_sema.c ****             interruptState = Cy_SysLib_EnterCriticalSection();
ARM GAS  C:\Users\salaz\AppData\Local\Temp\ccFFISlC.s 			page 33


 592              		.loc 2 286 0
 593 0052 FFF7FEFF 		bl	Cy_SysLib_EnterCriticalSection
 594 0056 0300     		movs	r3, r0
 595 0058 FB61     		str	r3, [r7, #28]
 596              	.L46:
 287:Generated_Source\PSoC6\pdl\drivers/peripheral/ipc/cy_ipc_sema.c ****         }
 288:Generated_Source\PSoC6\pdl\drivers/peripheral/ipc/cy_ipc_sema.c **** 
 289:Generated_Source\PSoC6\pdl\drivers/peripheral/ipc/cy_ipc_sema.c ****         /* Check to make sure the IPC channel is released
 290:Generated_Source\PSoC6\pdl\drivers/peripheral/ipc/cy_ipc_sema.c ****            If so, check if specific channel can be locked. */
 291:Generated_Source\PSoC6\pdl\drivers/peripheral/ipc/cy_ipc_sema.c ****         if(CY_IPC_DRV_SUCCESS == Cy_IPC_Drv_LockAcquire (cy_semaIpcStruct))
 597              		.loc 2 291 0
 598 005a 1F4B     		ldr	r3, .L53+4
 599 005c 1B68     		ldr	r3, [r3]
 600 005e 1800     		movs	r0, r3
 601 0060 FFF7FEFF 		bl	Cy_IPC_Drv_LockAcquire
 602 0064 031E     		subs	r3, r0, #0
 603 0066 22D1     		bne	.L47
 292:Generated_Source\PSoC6\pdl\drivers/peripheral/ipc/cy_ipc_sema.c ****         {
 293:Generated_Source\PSoC6\pdl\drivers/peripheral/ipc/cy_ipc_sema.c ****             if((semaStruct->arrayPtr[semaIndex] & semaMask) != 0ul)
 604              		.loc 2 293 0
 605 0068 7B69     		ldr	r3, [r7, #20]
 606 006a 5A68     		ldr	r2, [r3, #4]
 607 006c 3B69     		ldr	r3, [r7, #16]
 608 006e 9B00     		lsls	r3, r3, #2
 609 0070 D318     		adds	r3, r2, r3
 610 0072 1B68     		ldr	r3, [r3]
 611 0074 FA68     		ldr	r2, [r7, #12]
 612 0076 1340     		ands	r3, r2
 613 0078 11D0     		beq	.L48
 294:Generated_Source\PSoC6\pdl\drivers/peripheral/ipc/cy_ipc_sema.c ****             {
 295:Generated_Source\PSoC6\pdl\drivers/peripheral/ipc/cy_ipc_sema.c ****                 semaStruct->arrayPtr[semaIndex] &= ~semaMask;
 614              		.loc 2 295 0
 615 007a 7B69     		ldr	r3, [r7, #20]
 616 007c 5A68     		ldr	r2, [r3, #4]
 617 007e 3B69     		ldr	r3, [r7, #16]
 618 0080 9B00     		lsls	r3, r3, #2
 619 0082 D318     		adds	r3, r2, r3
 620 0084 7A69     		ldr	r2, [r7, #20]
 621 0086 5168     		ldr	r1, [r2, #4]
 622 0088 3A69     		ldr	r2, [r7, #16]
 623 008a 9200     		lsls	r2, r2, #2
 624 008c 8A18     		adds	r2, r1, r2
 625 008e 1268     		ldr	r2, [r2]
 626 0090 F968     		ldr	r1, [r7, #12]
 627 0092 C943     		mvns	r1, r1
 628 0094 0A40     		ands	r2, r1
 629 0096 1A60     		str	r2, [r3]
 296:Generated_Source\PSoC6\pdl\drivers/peripheral/ipc/cy_ipc_sema.c ****                 retStatus = CY_IPC_SEMA_SUCCESS;
 630              		.loc 2 296 0
 631 0098 0023     		movs	r3, #0
 632 009a BB61     		str	r3, [r7, #24]
 633 009c 01E0     		b	.L49
 634              	.L48:
 297:Generated_Source\PSoC6\pdl\drivers/peripheral/ipc/cy_ipc_sema.c ****             }
 298:Generated_Source\PSoC6\pdl\drivers/peripheral/ipc/cy_ipc_sema.c ****             else
 299:Generated_Source\PSoC6\pdl\drivers/peripheral/ipc/cy_ipc_sema.c ****             {
 300:Generated_Source\PSoC6\pdl\drivers/peripheral/ipc/cy_ipc_sema.c ****                 retStatus = CY_IPC_SEMA_NOT_ACQUIRED;
ARM GAS  C:\Users\salaz\AppData\Local\Temp\ccFFISlC.s 			page 34


 635              		.loc 2 300 0
 636 009e 0F4B     		ldr	r3, .L53+8
 637 00a0 BB61     		str	r3, [r7, #24]
 638              	.L49:
 301:Generated_Source\PSoC6\pdl\drivers/peripheral/ipc/cy_ipc_sema.c ****             }
 302:Generated_Source\PSoC6\pdl\drivers/peripheral/ipc/cy_ipc_sema.c **** 
 303:Generated_Source\PSoC6\pdl\drivers/peripheral/ipc/cy_ipc_sema.c ****             /* Release, but do not trigger a release event */
 304:Generated_Source\PSoC6\pdl\drivers/peripheral/ipc/cy_ipc_sema.c ****             (void) Cy_IPC_Drv_LockRelease (cy_semaIpcStruct, CY_IPC_NO_NOTIFICATION);
 639              		.loc 2 304 0
 640 00a2 0D4B     		ldr	r3, .L53+4
 641 00a4 1B68     		ldr	r3, [r3]
 642 00a6 0021     		movs	r1, #0
 643 00a8 1800     		movs	r0, r3
 644 00aa FFF7FEFF 		bl	Cy_IPC_Drv_LockRelease
 645              	.L47:
 305:Generated_Source\PSoC6\pdl\drivers/peripheral/ipc/cy_ipc_sema.c ****         }
 306:Generated_Source\PSoC6\pdl\drivers/peripheral/ipc/cy_ipc_sema.c **** 
 307:Generated_Source\PSoC6\pdl\drivers/peripheral/ipc/cy_ipc_sema.c ****         if (!preemptable)
 646              		.loc 2 307 0
 647 00ae FB1C     		adds	r3, r7, #3
 648 00b0 1B78     		ldrb	r3, [r3]
 649 00b2 0122     		movs	r2, #1
 650 00b4 5340     		eors	r3, r2
 651 00b6 DBB2     		uxtb	r3, r3
 652 00b8 002B     		cmp	r3, #0
 653 00ba 06D0     		beq	.L51
 308:Generated_Source\PSoC6\pdl\drivers/peripheral/ipc/cy_ipc_sema.c ****         {
 309:Generated_Source\PSoC6\pdl\drivers/peripheral/ipc/cy_ipc_sema.c ****             Cy_SysLib_ExitCriticalSection(interruptState);
 654              		.loc 2 309 0
 655 00bc FB69     		ldr	r3, [r7, #28]
 656 00be 1800     		movs	r0, r3
 657 00c0 FFF7FEFF 		bl	Cy_SysLib_ExitCriticalSection
 658 00c4 01E0     		b	.L51
 659              	.L45:
 310:Generated_Source\PSoC6\pdl\drivers/peripheral/ipc/cy_ipc_sema.c ****         }
 311:Generated_Source\PSoC6\pdl\drivers/peripheral/ipc/cy_ipc_sema.c ****     }
 312:Generated_Source\PSoC6\pdl\drivers/peripheral/ipc/cy_ipc_sema.c ****     else
 313:Generated_Source\PSoC6\pdl\drivers/peripheral/ipc/cy_ipc_sema.c ****     {
 314:Generated_Source\PSoC6\pdl\drivers/peripheral/ipc/cy_ipc_sema.c ****         retStatus = CY_IPC_SEMA_OUT_OF_RANGE;
 660              		.loc 2 314 0
 661 00c6 064B     		ldr	r3, .L53+12
 662 00c8 BB61     		str	r3, [r7, #24]
 663              	.L51:
 315:Generated_Source\PSoC6\pdl\drivers/peripheral/ipc/cy_ipc_sema.c ****     }
 316:Generated_Source\PSoC6\pdl\drivers/peripheral/ipc/cy_ipc_sema.c ****     return(retStatus);
 664              		.loc 2 316 0
 665 00ca BB69     		ldr	r3, [r7, #24]
 317:Generated_Source\PSoC6\pdl\drivers/peripheral/ipc/cy_ipc_sema.c **** }
 666              		.loc 2 317 0
 667 00cc 1800     		movs	r0, r3
 668 00ce BD46     		mov	sp, r7
 669 00d0 08B0     		add	sp, sp, #32
 670              		@ sp needed
 671 00d2 80BD     		pop	{r7, pc}
 672              	.L54:
 673              		.align	2
 674              	.L53:
ARM GAS  C:\Users\salaz\AppData\Local\Temp\ccFFISlC.s 			page 35


 675 00d4 03018800 		.word	8913155
 676 00d8 00000000 		.word	cy_semaIpcStruct
 677 00dc 02018800 		.word	8913154
 678 00e0 04018A00 		.word	9044228
 679              		.cfi_endproc
 680              	.LFE57:
 681              		.size	Cy_IPC_Sema_Clear, .-Cy_IPC_Sema_Clear
 682              		.section	.text.Cy_IPC_Sema_Status,"ax",%progbits
 683              		.align	2
 684              		.global	Cy_IPC_Sema_Status
 685              		.code	16
 686              		.thumb_func
 687              		.type	Cy_IPC_Sema_Status, %function
 688              	Cy_IPC_Sema_Status:
 689              	.LFB58:
 318:Generated_Source\PSoC6\pdl\drivers/peripheral/ipc/cy_ipc_sema.c **** 
 319:Generated_Source\PSoC6\pdl\drivers/peripheral/ipc/cy_ipc_sema.c **** /*******************************************************************************
 320:Generated_Source\PSoC6\pdl\drivers/peripheral/ipc/cy_ipc_sema.c **** * Function Name: Cy_IPC_Sema_Status
 321:Generated_Source\PSoC6\pdl\drivers/peripheral/ipc/cy_ipc_sema.c **** ****************************************************************************//**
 322:Generated_Source\PSoC6\pdl\drivers/peripheral/ipc/cy_ipc_sema.c **** *
 323:Generated_Source\PSoC6\pdl\drivers/peripheral/ipc/cy_ipc_sema.c **** * This function returns the status of the semaphore.
 324:Generated_Source\PSoC6\pdl\drivers/peripheral/ipc/cy_ipc_sema.c **** *
 325:Generated_Source\PSoC6\pdl\drivers/peripheral/ipc/cy_ipc_sema.c **** * \param semaNumber
 326:Generated_Source\PSoC6\pdl\drivers/peripheral/ipc/cy_ipc_sema.c **** *  The index of the semaphore to return status.
 327:Generated_Source\PSoC6\pdl\drivers/peripheral/ipc/cy_ipc_sema.c **** *
 328:Generated_Source\PSoC6\pdl\drivers/peripheral/ipc/cy_ipc_sema.c **** * \return Status of the operation
 329:Generated_Source\PSoC6\pdl\drivers/peripheral/ipc/cy_ipc_sema.c **** *     \retval CY_IPC_SEMA_STATUS_LOCKED:    The semaphore is in the set state.
 330:Generated_Source\PSoC6\pdl\drivers/peripheral/ipc/cy_ipc_sema.c **** *     \retval CY_IPC_SEMA_STATUS_UNLOCKED:  The semaphore is in the cleared state.
 331:Generated_Source\PSoC6\pdl\drivers/peripheral/ipc/cy_ipc_sema.c **** *     \retval CY_IPC_SEMA_OUT_OF_RANGE:     The semaphore number is not valid
 332:Generated_Source\PSoC6\pdl\drivers/peripheral/ipc/cy_ipc_sema.c **** *
 333:Generated_Source\PSoC6\pdl\drivers/peripheral/ipc/cy_ipc_sema.c **** * \funcusage
 334:Generated_Source\PSoC6\pdl\drivers/peripheral/ipc/cy_ipc_sema.c **** * \snippet IPC_sut_01.cydsn/main_cm4.c snippet_Cy_IPC_Sema_Status
 335:Generated_Source\PSoC6\pdl\drivers/peripheral/ipc/cy_ipc_sema.c **** *
 336:Generated_Source\PSoC6\pdl\drivers/peripheral/ipc/cy_ipc_sema.c **** *******************************************************************************/
 337:Generated_Source\PSoC6\pdl\drivers/peripheral/ipc/cy_ipc_sema.c **** cy_en_ipcsema_status_t Cy_IPC_Sema_Status(uint32_t semaNumber)
 338:Generated_Source\PSoC6\pdl\drivers/peripheral/ipc/cy_ipc_sema.c **** {
 690              		.loc 2 338 0
 691              		.cfi_startproc
 692              		@ args = 0, pretend = 0, frame = 24
 693              		@ frame_needed = 1, uses_anonymous_args = 0
 694 0000 80B5     		push	{r7, lr}
 695              		.cfi_def_cfa_offset 8
 696              		.cfi_offset 7, -8
 697              		.cfi_offset 14, -4
 698 0002 86B0     		sub	sp, sp, #24
 699              		.cfi_def_cfa_offset 32
 700 0004 00AF     		add	r7, sp, #0
 701              		.cfi_def_cfa_register 7
 702 0006 7860     		str	r0, [r7, #4]
 339:Generated_Source\PSoC6\pdl\drivers/peripheral/ipc/cy_ipc_sema.c ****     cy_en_ipcsema_status_t   retStatus;
 340:Generated_Source\PSoC6\pdl\drivers/peripheral/ipc/cy_ipc_sema.c ****     uint32_t semaIndex;
 341:Generated_Source\PSoC6\pdl\drivers/peripheral/ipc/cy_ipc_sema.c ****     uint32_t semaMask;
 342:Generated_Source\PSoC6\pdl\drivers/peripheral/ipc/cy_ipc_sema.c ****     cy_stc_ipc_sema_t      *semaStruct;
 343:Generated_Source\PSoC6\pdl\drivers/peripheral/ipc/cy_ipc_sema.c **** 
 344:Generated_Source\PSoC6\pdl\drivers/peripheral/ipc/cy_ipc_sema.c ****     /* Get pointer to structure */
 345:Generated_Source\PSoC6\pdl\drivers/peripheral/ipc/cy_ipc_sema.c ****     semaStruct = (cy_stc_ipc_sema_t *)Cy_IPC_Drv_ReadDataValue(cy_semaIpcStruct);
 703              		.loc 2 345 0
ARM GAS  C:\Users\salaz\AppData\Local\Temp\ccFFISlC.s 			page 36


 704 0008 164B     		ldr	r3, .L61
 705 000a 1B68     		ldr	r3, [r3]
 706 000c 1800     		movs	r0, r3
 707 000e FFF7FEFF 		bl	Cy_IPC_Drv_ReadDataValue
 708 0012 0300     		movs	r3, r0
 709 0014 3B61     		str	r3, [r7, #16]
 346:Generated_Source\PSoC6\pdl\drivers/peripheral/ipc/cy_ipc_sema.c **** 
 347:Generated_Source\PSoC6\pdl\drivers/peripheral/ipc/cy_ipc_sema.c ****     if (semaNumber < semaStruct->maxSema)
 710              		.loc 2 347 0
 711 0016 3B69     		ldr	r3, [r7, #16]
 712 0018 1A68     		ldr	r2, [r3]
 713 001a 7B68     		ldr	r3, [r7, #4]
 714 001c 9A42     		cmp	r2, r3
 715 001e 19D9     		bls	.L56
 348:Generated_Source\PSoC6\pdl\drivers/peripheral/ipc/cy_ipc_sema.c ****     {
 349:Generated_Source\PSoC6\pdl\drivers/peripheral/ipc/cy_ipc_sema.c ****         /* Get the index into the semaphore array and calculate the mask */
 350:Generated_Source\PSoC6\pdl\drivers/peripheral/ipc/cy_ipc_sema.c ****         semaIndex = semaNumber / CY_IPC_SEMA_PER_WORD;
 716              		.loc 2 350 0
 717 0020 7B68     		ldr	r3, [r7, #4]
 718 0022 5B09     		lsrs	r3, r3, #5
 719 0024 FB60     		str	r3, [r7, #12]
 351:Generated_Source\PSoC6\pdl\drivers/peripheral/ipc/cy_ipc_sema.c ****         semaMask = (uint32_t)(1ul << (semaNumber - (semaIndex * CY_IPC_SEMA_PER_WORD) ));
 720              		.loc 2 351 0
 721 0026 FB68     		ldr	r3, [r7, #12]
 722 0028 5B01     		lsls	r3, r3, #5
 723 002a 7A68     		ldr	r2, [r7, #4]
 724 002c D31A     		subs	r3, r2, r3
 725 002e 0122     		movs	r2, #1
 726 0030 9A40     		lsls	r2, r2, r3
 727 0032 1300     		movs	r3, r2
 728 0034 BB60     		str	r3, [r7, #8]
 352:Generated_Source\PSoC6\pdl\drivers/peripheral/ipc/cy_ipc_sema.c **** 
 353:Generated_Source\PSoC6\pdl\drivers/peripheral/ipc/cy_ipc_sema.c ****         if((semaStruct->arrayPtr[semaIndex] & semaMask) != 0ul)
 729              		.loc 2 353 0
 730 0036 3B69     		ldr	r3, [r7, #16]
 731 0038 5A68     		ldr	r2, [r3, #4]
 732 003a FB68     		ldr	r3, [r7, #12]
 733 003c 9B00     		lsls	r3, r3, #2
 734 003e D318     		adds	r3, r2, r3
 735 0040 1B68     		ldr	r3, [r3]
 736 0042 BA68     		ldr	r2, [r7, #8]
 737 0044 1340     		ands	r3, r2
 738 0046 02D0     		beq	.L57
 354:Generated_Source\PSoC6\pdl\drivers/peripheral/ipc/cy_ipc_sema.c ****         {
 355:Generated_Source\PSoC6\pdl\drivers/peripheral/ipc/cy_ipc_sema.c ****             retStatus =  CY_IPC_SEMA_STATUS_LOCKED;
 739              		.loc 2 355 0
 740 0048 074B     		ldr	r3, .L61+4
 741 004a 7B61     		str	r3, [r7, #20]
 742 004c 04E0     		b	.L59
 743              	.L57:
 356:Generated_Source\PSoC6\pdl\drivers/peripheral/ipc/cy_ipc_sema.c ****         }
 357:Generated_Source\PSoC6\pdl\drivers/peripheral/ipc/cy_ipc_sema.c ****         else
 358:Generated_Source\PSoC6\pdl\drivers/peripheral/ipc/cy_ipc_sema.c ****         {
 359:Generated_Source\PSoC6\pdl\drivers/peripheral/ipc/cy_ipc_sema.c ****             retStatus =  CY_IPC_SEMA_STATUS_UNLOCKED;
 744              		.loc 2 359 0
 745 004e 074B     		ldr	r3, .L61+8
 746 0050 7B61     		str	r3, [r7, #20]
ARM GAS  C:\Users\salaz\AppData\Local\Temp\ccFFISlC.s 			page 37


 747 0052 01E0     		b	.L59
 748              	.L56:
 360:Generated_Source\PSoC6\pdl\drivers/peripheral/ipc/cy_ipc_sema.c ****         }
 361:Generated_Source\PSoC6\pdl\drivers/peripheral/ipc/cy_ipc_sema.c ****     }
 362:Generated_Source\PSoC6\pdl\drivers/peripheral/ipc/cy_ipc_sema.c ****     else
 363:Generated_Source\PSoC6\pdl\drivers/peripheral/ipc/cy_ipc_sema.c ****     {
 364:Generated_Source\PSoC6\pdl\drivers/peripheral/ipc/cy_ipc_sema.c ****         retStatus = CY_IPC_SEMA_OUT_OF_RANGE;
 749              		.loc 2 364 0
 750 0054 064B     		ldr	r3, .L61+12
 751 0056 7B61     		str	r3, [r7, #20]
 752              	.L59:
 365:Generated_Source\PSoC6\pdl\drivers/peripheral/ipc/cy_ipc_sema.c ****     }
 366:Generated_Source\PSoC6\pdl\drivers/peripheral/ipc/cy_ipc_sema.c ****     return(retStatus);
 753              		.loc 2 366 0
 754 0058 7B69     		ldr	r3, [r7, #20]
 367:Generated_Source\PSoC6\pdl\drivers/peripheral/ipc/cy_ipc_sema.c **** }
 755              		.loc 2 367 0
 756 005a 1800     		movs	r0, r3
 757 005c BD46     		mov	sp, r7
 758 005e 06B0     		add	sp, sp, #24
 759              		@ sp needed
 760 0060 80BD     		pop	{r7, pc}
 761              	.L62:
 762 0062 C046     		.align	2
 763              	.L61:
 764 0064 00000000 		.word	cy_semaIpcStruct
 765 0068 01018800 		.word	8913153
 766 006c 00018800 		.word	8913152
 767 0070 04018A00 		.word	9044228
 768              		.cfi_endproc
 769              	.LFE58:
 770              		.size	Cy_IPC_Sema_Status, .-Cy_IPC_Sema_Status
 771              		.section	.text.Cy_IPC_Sema_GetMaxSems,"ax",%progbits
 772              		.align	2
 773              		.global	Cy_IPC_Sema_GetMaxSems
 774              		.code	16
 775              		.thumb_func
 776              		.type	Cy_IPC_Sema_GetMaxSems, %function
 777              	Cy_IPC_Sema_GetMaxSems:
 778              	.LFB59:
 368:Generated_Source\PSoC6\pdl\drivers/peripheral/ipc/cy_ipc_sema.c **** 
 369:Generated_Source\PSoC6\pdl\drivers/peripheral/ipc/cy_ipc_sema.c **** 
 370:Generated_Source\PSoC6\pdl\drivers/peripheral/ipc/cy_ipc_sema.c **** /*******************************************************************************
 371:Generated_Source\PSoC6\pdl\drivers/peripheral/ipc/cy_ipc_sema.c **** * Function Name: Cy_IPC_Sema_GetMaxSems
 372:Generated_Source\PSoC6\pdl\drivers/peripheral/ipc/cy_ipc_sema.c **** ****************************************************************************//**
 373:Generated_Source\PSoC6\pdl\drivers/peripheral/ipc/cy_ipc_sema.c **** *
 374:Generated_Source\PSoC6\pdl\drivers/peripheral/ipc/cy_ipc_sema.c **** * This function returns the number of semaphores in the semaphores subsystem.
 375:Generated_Source\PSoC6\pdl\drivers/peripheral/ipc/cy_ipc_sema.c **** *
 376:Generated_Source\PSoC6\pdl\drivers/peripheral/ipc/cy_ipc_sema.c **** * \return
 377:Generated_Source\PSoC6\pdl\drivers/peripheral/ipc/cy_ipc_sema.c **** *     Returns the semaphores quantity.
 378:Generated_Source\PSoC6\pdl\drivers/peripheral/ipc/cy_ipc_sema.c **** *
 379:Generated_Source\PSoC6\pdl\drivers/peripheral/ipc/cy_ipc_sema.c **** * \funcusage
 380:Generated_Source\PSoC6\pdl\drivers/peripheral/ipc/cy_ipc_sema.c **** * \snippet IPC_sut_01.cydsn/main_cm4.c snippet_Cy_IPC_Sema_GetMaxSems
 381:Generated_Source\PSoC6\pdl\drivers/peripheral/ipc/cy_ipc_sema.c **** *
 382:Generated_Source\PSoC6\pdl\drivers/peripheral/ipc/cy_ipc_sema.c **** *******************************************************************************/
 383:Generated_Source\PSoC6\pdl\drivers/peripheral/ipc/cy_ipc_sema.c **** uint32_t Cy_IPC_Sema_GetMaxSems(void)
 384:Generated_Source\PSoC6\pdl\drivers/peripheral/ipc/cy_ipc_sema.c **** {
ARM GAS  C:\Users\salaz\AppData\Local\Temp\ccFFISlC.s 			page 38


 779              		.loc 2 384 0
 780              		.cfi_startproc
 781              		@ args = 0, pretend = 0, frame = 8
 782              		@ frame_needed = 1, uses_anonymous_args = 0
 783 0000 80B5     		push	{r7, lr}
 784              		.cfi_def_cfa_offset 8
 785              		.cfi_offset 7, -8
 786              		.cfi_offset 14, -4
 787 0002 82B0     		sub	sp, sp, #8
 788              		.cfi_def_cfa_offset 16
 789 0004 00AF     		add	r7, sp, #0
 790              		.cfi_def_cfa_register 7
 385:Generated_Source\PSoC6\pdl\drivers/peripheral/ipc/cy_ipc_sema.c ****     cy_stc_ipc_sema_t      *semaStruct;
 386:Generated_Source\PSoC6\pdl\drivers/peripheral/ipc/cy_ipc_sema.c **** 
 387:Generated_Source\PSoC6\pdl\drivers/peripheral/ipc/cy_ipc_sema.c ****     /* Get pointer to structure */
 388:Generated_Source\PSoC6\pdl\drivers/peripheral/ipc/cy_ipc_sema.c ****     semaStruct = (cy_stc_ipc_sema_t *)Cy_IPC_Drv_ReadDataValue(cy_semaIpcStruct);
 791              		.loc 2 388 0
 792 0006 064B     		ldr	r3, .L65
 793 0008 1B68     		ldr	r3, [r3]
 794 000a 1800     		movs	r0, r3
 795 000c FFF7FEFF 		bl	Cy_IPC_Drv_ReadDataValue
 796 0010 0300     		movs	r3, r0
 797 0012 7B60     		str	r3, [r7, #4]
 389:Generated_Source\PSoC6\pdl\drivers/peripheral/ipc/cy_ipc_sema.c **** 
 390:Generated_Source\PSoC6\pdl\drivers/peripheral/ipc/cy_ipc_sema.c ****     return (semaStruct->maxSema);
 798              		.loc 2 390 0
 799 0014 7B68     		ldr	r3, [r7, #4]
 800 0016 1B68     		ldr	r3, [r3]
 391:Generated_Source\PSoC6\pdl\drivers/peripheral/ipc/cy_ipc_sema.c **** }
 801              		.loc 2 391 0
 802 0018 1800     		movs	r0, r3
 803 001a BD46     		mov	sp, r7
 804 001c 02B0     		add	sp, sp, #8
 805              		@ sp needed
 806 001e 80BD     		pop	{r7, pc}
 807              	.L66:
 808              		.align	2
 809              	.L65:
 810 0020 00000000 		.word	cy_semaIpcStruct
 811              		.cfi_endproc
 812              	.LFE59:
 813              		.size	Cy_IPC_Sema_GetMaxSems, .-Cy_IPC_Sema_GetMaxSems
 814              		.bss
 815              		.align	2
 816              	cy_semaData.9586:
 817 0004 00000000 		.space	8
 817      00000000 
 818              		.text
 819              	.Letext0:
 820              		.file 3 "c:\\program files (x86)\\cypress\\psoc creator\\4.2\\psoc creator\\import\\gnu\\arm\\5.4.
 821              		.file 4 "c:\\program files (x86)\\cypress\\psoc creator\\4.2\\psoc creator\\import\\gnu\\arm\\5.4.
 822              		.file 5 "Generated_Source\\PSoC6\\pdl\\devices/psoc6/ip/cyip_ipc.h"
 823              		.file 6 "Generated_Source\\PSoC6\\pdl\\drivers/peripheral/syslib/cy_syslib.h"
 824              		.file 7 "Generated_Source\\PSoC6\\pdl\\drivers/peripheral/ipc/cy_ipc_sema.h"