ARM GAS  C:\Users\salaz\AppData\Local\Temp\ccTAmJlP.s 			page 1


   1              		.syntax unified
   2              		.cpu cortex-m0plus
   3              		.fpu softvfp
   4              		.eabi_attribute 20, 1
   5              		.eabi_attribute 21, 1
   6              		.eabi_attribute 23, 3
   7              		.eabi_attribute 24, 1
   8              		.eabi_attribute 25, 1
   9              		.eabi_attribute 26, 1
  10              		.eabi_attribute 30, 6
  11              		.eabi_attribute 34, 0
  12              		.eabi_attribute 18, 4
  13              		.thumb
  14              		.syntax unified
  15              		.file	"cy_ipc_pipe.c"
  16              		.text
  17              	.Ltext0:
  18              		.cfi_sections	.debug_frame
  19              		.section	.text.__NVIC_EnableIRQ,"ax",%progbits
  20              		.align	2
  21              		.code	16
  22              		.thumb_func
  23              		.type	__NVIC_EnableIRQ, %function
  24              	__NVIC_EnableIRQ:
  25              	.LFB21:
  26              		.file 1 "Generated_Source\\PSoC6\\pdl\\cmsis/include/core_cm0plus.h"
   1:Generated_Source\PSoC6\pdl\cmsis/include/core_cm0plus.h **** /**************************************************************************//**
   2:Generated_Source\PSoC6\pdl\cmsis/include/core_cm0plus.h ****  * @file     core_cm0plus.h
   3:Generated_Source\PSoC6\pdl\cmsis/include/core_cm0plus.h ****  * @brief    CMSIS Cortex-M0+ Core Peripheral Access Layer Header File
   4:Generated_Source\PSoC6\pdl\cmsis/include/core_cm0plus.h ****  * @version  V5.0.1
   5:Generated_Source\PSoC6\pdl\cmsis/include/core_cm0plus.h ****  * @date     25. November 2016
   6:Generated_Source\PSoC6\pdl\cmsis/include/core_cm0plus.h ****  ******************************************************************************/
   7:Generated_Source\PSoC6\pdl\cmsis/include/core_cm0plus.h **** /*
   8:Generated_Source\PSoC6\pdl\cmsis/include/core_cm0plus.h ****  * Copyright (c) 2009-2016 ARM Limited. All rights reserved.
   9:Generated_Source\PSoC6\pdl\cmsis/include/core_cm0plus.h ****  *
  10:Generated_Source\PSoC6\pdl\cmsis/include/core_cm0plus.h ****  * SPDX-License-Identifier: Apache-2.0
  11:Generated_Source\PSoC6\pdl\cmsis/include/core_cm0plus.h ****  *
  12:Generated_Source\PSoC6\pdl\cmsis/include/core_cm0plus.h ****  * Licensed under the Apache License, Version 2.0 (the License); you may
  13:Generated_Source\PSoC6\pdl\cmsis/include/core_cm0plus.h ****  * not use this file except in compliance with the License.
  14:Generated_Source\PSoC6\pdl\cmsis/include/core_cm0plus.h ****  * You may obtain a copy of the License at
  15:Generated_Source\PSoC6\pdl\cmsis/include/core_cm0plus.h ****  *
  16:Generated_Source\PSoC6\pdl\cmsis/include/core_cm0plus.h ****  * www.apache.org/licenses/LICENSE-2.0
  17:Generated_Source\PSoC6\pdl\cmsis/include/core_cm0plus.h ****  *
  18:Generated_Source\PSoC6\pdl\cmsis/include/core_cm0plus.h ****  * Unless required by applicable law or agreed to in writing, software
  19:Generated_Source\PSoC6\pdl\cmsis/include/core_cm0plus.h ****  * distributed under the License is distributed on an AS IS BASIS, WITHOUT
  20:Generated_Source\PSoC6\pdl\cmsis/include/core_cm0plus.h ****  * WARRANTIES OR CONDITIONS OF ANY KIND, either express or implied.
  21:Generated_Source\PSoC6\pdl\cmsis/include/core_cm0plus.h ****  * See the License for the specific language governing permissions and
  22:Generated_Source\PSoC6\pdl\cmsis/include/core_cm0plus.h ****  * limitations under the License.
  23:Generated_Source\PSoC6\pdl\cmsis/include/core_cm0plus.h ****  */
  24:Generated_Source\PSoC6\pdl\cmsis/include/core_cm0plus.h **** 
  25:Generated_Source\PSoC6\pdl\cmsis/include/core_cm0plus.h **** #if   defined ( __ICCARM__ )
  26:Generated_Source\PSoC6\pdl\cmsis/include/core_cm0plus.h ****  #pragma system_include         /* treat file as system include file for MISRA check */
  27:Generated_Source\PSoC6\pdl\cmsis/include/core_cm0plus.h **** #elif defined (__ARMCC_VERSION) && (__ARMCC_VERSION >= 6010050)
  28:Generated_Source\PSoC6\pdl\cmsis/include/core_cm0plus.h ****   #pragma clang system_header   /* treat file as system include file */
  29:Generated_Source\PSoC6\pdl\cmsis/include/core_cm0plus.h **** #endif
  30:Generated_Source\PSoC6\pdl\cmsis/include/core_cm0plus.h **** 
  31:Generated_Source\PSoC6\pdl\cmsis/include/core_cm0plus.h **** #ifndef __CORE_CM0PLUS_H_GENERIC
ARM GAS  C:\Users\salaz\AppData\Local\Temp\ccTAmJlP.s 			page 2


  32:Generated_Source\PSoC6\pdl\cmsis/include/core_cm0plus.h **** #define __CORE_CM0PLUS_H_GENERIC
  33:Generated_Source\PSoC6\pdl\cmsis/include/core_cm0plus.h **** 
  34:Generated_Source\PSoC6\pdl\cmsis/include/core_cm0plus.h **** #include <stdint.h>
  35:Generated_Source\PSoC6\pdl\cmsis/include/core_cm0plus.h **** 
  36:Generated_Source\PSoC6\pdl\cmsis/include/core_cm0plus.h **** #ifdef __cplusplus
  37:Generated_Source\PSoC6\pdl\cmsis/include/core_cm0plus.h ****  extern "C" {
  38:Generated_Source\PSoC6\pdl\cmsis/include/core_cm0plus.h **** #endif
  39:Generated_Source\PSoC6\pdl\cmsis/include/core_cm0plus.h **** 
  40:Generated_Source\PSoC6\pdl\cmsis/include/core_cm0plus.h **** /**
  41:Generated_Source\PSoC6\pdl\cmsis/include/core_cm0plus.h ****   \page CMSIS_MISRA_Exceptions  MISRA-C:2004 Compliance Exceptions
  42:Generated_Source\PSoC6\pdl\cmsis/include/core_cm0plus.h ****   CMSIS violates the following MISRA-C:2004 rules:
  43:Generated_Source\PSoC6\pdl\cmsis/include/core_cm0plus.h **** 
  44:Generated_Source\PSoC6\pdl\cmsis/include/core_cm0plus.h ****    \li Required Rule 8.5, object/function definition in header file.<br>
  45:Generated_Source\PSoC6\pdl\cmsis/include/core_cm0plus.h ****      Function definitions in header files are used to allow 'inlining'.
  46:Generated_Source\PSoC6\pdl\cmsis/include/core_cm0plus.h **** 
  47:Generated_Source\PSoC6\pdl\cmsis/include/core_cm0plus.h ****    \li Required Rule 18.4, declaration of union type or object of union type: '{...}'.<br>
  48:Generated_Source\PSoC6\pdl\cmsis/include/core_cm0plus.h ****      Unions are used for effective representation of core registers.
  49:Generated_Source\PSoC6\pdl\cmsis/include/core_cm0plus.h **** 
  50:Generated_Source\PSoC6\pdl\cmsis/include/core_cm0plus.h ****    \li Advisory Rule 19.7, Function-like macro defined.<br>
  51:Generated_Source\PSoC6\pdl\cmsis/include/core_cm0plus.h ****      Function-like macros are used to allow more efficient code.
  52:Generated_Source\PSoC6\pdl\cmsis/include/core_cm0plus.h ****  */
  53:Generated_Source\PSoC6\pdl\cmsis/include/core_cm0plus.h **** 
  54:Generated_Source\PSoC6\pdl\cmsis/include/core_cm0plus.h **** 
  55:Generated_Source\PSoC6\pdl\cmsis/include/core_cm0plus.h **** /*******************************************************************************
  56:Generated_Source\PSoC6\pdl\cmsis/include/core_cm0plus.h ****  *                 CMSIS definitions
  57:Generated_Source\PSoC6\pdl\cmsis/include/core_cm0plus.h ****  ******************************************************************************/
  58:Generated_Source\PSoC6\pdl\cmsis/include/core_cm0plus.h **** /**
  59:Generated_Source\PSoC6\pdl\cmsis/include/core_cm0plus.h ****   \ingroup Cortex-M0+
  60:Generated_Source\PSoC6\pdl\cmsis/include/core_cm0plus.h ****   @{
  61:Generated_Source\PSoC6\pdl\cmsis/include/core_cm0plus.h ****  */
  62:Generated_Source\PSoC6\pdl\cmsis/include/core_cm0plus.h **** 
  63:Generated_Source\PSoC6\pdl\cmsis/include/core_cm0plus.h **** /*  CMSIS CM0+ definitions */
  64:Generated_Source\PSoC6\pdl\cmsis/include/core_cm0plus.h **** #define __CM0PLUS_CMSIS_VERSION_MAIN ( 5U)                                      /*!< [31:16] CMSIS 
  65:Generated_Source\PSoC6\pdl\cmsis/include/core_cm0plus.h **** #define __CM0PLUS_CMSIS_VERSION_SUB  ( 0U)                                      /*!< [15:0]  CMSIS 
  66:Generated_Source\PSoC6\pdl\cmsis/include/core_cm0plus.h **** #define __CM0PLUS_CMSIS_VERSION      ((__CM0PLUS_CMSIS_VERSION_MAIN << 16U) | \
  67:Generated_Source\PSoC6\pdl\cmsis/include/core_cm0plus.h ****                                        __CM0PLUS_CMSIS_VERSION_SUB           )  /*!< CMSIS HAL vers
  68:Generated_Source\PSoC6\pdl\cmsis/include/core_cm0plus.h **** 
  69:Generated_Source\PSoC6\pdl\cmsis/include/core_cm0plus.h **** #define __CORTEX_M                   (0U)                                       /*!< Cortex-M Core 
  70:Generated_Source\PSoC6\pdl\cmsis/include/core_cm0plus.h **** 
  71:Generated_Source\PSoC6\pdl\cmsis/include/core_cm0plus.h **** /** __FPU_USED indicates whether an FPU is used or not.
  72:Generated_Source\PSoC6\pdl\cmsis/include/core_cm0plus.h ****     This core does not support an FPU at all
  73:Generated_Source\PSoC6\pdl\cmsis/include/core_cm0plus.h **** */
  74:Generated_Source\PSoC6\pdl\cmsis/include/core_cm0plus.h **** #define __FPU_USED       0U
  75:Generated_Source\PSoC6\pdl\cmsis/include/core_cm0plus.h **** 
  76:Generated_Source\PSoC6\pdl\cmsis/include/core_cm0plus.h **** #if defined ( __CC_ARM )
  77:Generated_Source\PSoC6\pdl\cmsis/include/core_cm0plus.h ****   #if defined __TARGET_FPU_VFP
  78:Generated_Source\PSoC6\pdl\cmsis/include/core_cm0plus.h ****     #error "Compiler generates FPU instructions for a device without an FPU (check __FPU_PRESENT)"
  79:Generated_Source\PSoC6\pdl\cmsis/include/core_cm0plus.h ****   #endif
  80:Generated_Source\PSoC6\pdl\cmsis/include/core_cm0plus.h **** 
  81:Generated_Source\PSoC6\pdl\cmsis/include/core_cm0plus.h **** #elif defined (__ARMCC_VERSION) && (__ARMCC_VERSION >= 6010050)
  82:Generated_Source\PSoC6\pdl\cmsis/include/core_cm0plus.h ****   #if defined __ARM_PCS_VFP
  83:Generated_Source\PSoC6\pdl\cmsis/include/core_cm0plus.h ****     #error "Compiler generates FPU instructions for a device without an FPU (check __FPU_PRESENT)"
  84:Generated_Source\PSoC6\pdl\cmsis/include/core_cm0plus.h ****   #endif
  85:Generated_Source\PSoC6\pdl\cmsis/include/core_cm0plus.h **** 
  86:Generated_Source\PSoC6\pdl\cmsis/include/core_cm0plus.h **** #elif defined ( __GNUC__ )
  87:Generated_Source\PSoC6\pdl\cmsis/include/core_cm0plus.h ****   #if defined (__VFP_FP__) && !defined(__SOFTFP__)
  88:Generated_Source\PSoC6\pdl\cmsis/include/core_cm0plus.h ****     #error "Compiler generates FPU instructions for a device without an FPU (check __FPU_PRESENT)"
ARM GAS  C:\Users\salaz\AppData\Local\Temp\ccTAmJlP.s 			page 3


  89:Generated_Source\PSoC6\pdl\cmsis/include/core_cm0plus.h ****   #endif
  90:Generated_Source\PSoC6\pdl\cmsis/include/core_cm0plus.h **** 
  91:Generated_Source\PSoC6\pdl\cmsis/include/core_cm0plus.h **** #elif defined ( __ICCARM__ )
  92:Generated_Source\PSoC6\pdl\cmsis/include/core_cm0plus.h ****   #if defined __ARMVFP__
  93:Generated_Source\PSoC6\pdl\cmsis/include/core_cm0plus.h ****     #error "Compiler generates FPU instructions for a device without an FPU (check __FPU_PRESENT)"
  94:Generated_Source\PSoC6\pdl\cmsis/include/core_cm0plus.h ****   #endif
  95:Generated_Source\PSoC6\pdl\cmsis/include/core_cm0plus.h **** 
  96:Generated_Source\PSoC6\pdl\cmsis/include/core_cm0plus.h **** #elif defined ( __TI_ARM__ )
  97:Generated_Source\PSoC6\pdl\cmsis/include/core_cm0plus.h ****   #if defined __TI_VFP_SUPPORT__
  98:Generated_Source\PSoC6\pdl\cmsis/include/core_cm0plus.h ****     #error "Compiler generates FPU instructions for a device without an FPU (check __FPU_PRESENT)"
  99:Generated_Source\PSoC6\pdl\cmsis/include/core_cm0plus.h ****   #endif
 100:Generated_Source\PSoC6\pdl\cmsis/include/core_cm0plus.h **** 
 101:Generated_Source\PSoC6\pdl\cmsis/include/core_cm0plus.h **** #elif defined ( __TASKING__ )
 102:Generated_Source\PSoC6\pdl\cmsis/include/core_cm0plus.h ****   #if defined __FPU_VFP__
 103:Generated_Source\PSoC6\pdl\cmsis/include/core_cm0plus.h ****     #error "Compiler generates FPU instructions for a device without an FPU (check __FPU_PRESENT)"
 104:Generated_Source\PSoC6\pdl\cmsis/include/core_cm0plus.h ****   #endif
 105:Generated_Source\PSoC6\pdl\cmsis/include/core_cm0plus.h **** 
 106:Generated_Source\PSoC6\pdl\cmsis/include/core_cm0plus.h **** #elif defined ( __CSMC__ )
 107:Generated_Source\PSoC6\pdl\cmsis/include/core_cm0plus.h ****   #if ( __CSMC__ & 0x400U)
 108:Generated_Source\PSoC6\pdl\cmsis/include/core_cm0plus.h ****     #error "Compiler generates FPU instructions for a device without an FPU (check __FPU_PRESENT)"
 109:Generated_Source\PSoC6\pdl\cmsis/include/core_cm0plus.h ****   #endif
 110:Generated_Source\PSoC6\pdl\cmsis/include/core_cm0plus.h **** 
 111:Generated_Source\PSoC6\pdl\cmsis/include/core_cm0plus.h **** #endif
 112:Generated_Source\PSoC6\pdl\cmsis/include/core_cm0plus.h **** 
 113:Generated_Source\PSoC6\pdl\cmsis/include/core_cm0plus.h **** #include "cmsis_compiler.h"               /* CMSIS compiler specific defines */
 114:Generated_Source\PSoC6\pdl\cmsis/include/core_cm0plus.h **** 
 115:Generated_Source\PSoC6\pdl\cmsis/include/core_cm0plus.h **** 
 116:Generated_Source\PSoC6\pdl\cmsis/include/core_cm0plus.h **** #ifdef __cplusplus
 117:Generated_Source\PSoC6\pdl\cmsis/include/core_cm0plus.h **** }
 118:Generated_Source\PSoC6\pdl\cmsis/include/core_cm0plus.h **** #endif
 119:Generated_Source\PSoC6\pdl\cmsis/include/core_cm0plus.h **** 
 120:Generated_Source\PSoC6\pdl\cmsis/include/core_cm0plus.h **** #endif /* __CORE_CM0PLUS_H_GENERIC */
 121:Generated_Source\PSoC6\pdl\cmsis/include/core_cm0plus.h **** 
 122:Generated_Source\PSoC6\pdl\cmsis/include/core_cm0plus.h **** #ifndef __CMSIS_GENERIC
 123:Generated_Source\PSoC6\pdl\cmsis/include/core_cm0plus.h **** 
 124:Generated_Source\PSoC6\pdl\cmsis/include/core_cm0plus.h **** #ifndef __CORE_CM0PLUS_H_DEPENDANT
 125:Generated_Source\PSoC6\pdl\cmsis/include/core_cm0plus.h **** #define __CORE_CM0PLUS_H_DEPENDANT
 126:Generated_Source\PSoC6\pdl\cmsis/include/core_cm0plus.h **** 
 127:Generated_Source\PSoC6\pdl\cmsis/include/core_cm0plus.h **** #ifdef __cplusplus
 128:Generated_Source\PSoC6\pdl\cmsis/include/core_cm0plus.h ****  extern "C" {
 129:Generated_Source\PSoC6\pdl\cmsis/include/core_cm0plus.h **** #endif
 130:Generated_Source\PSoC6\pdl\cmsis/include/core_cm0plus.h **** 
 131:Generated_Source\PSoC6\pdl\cmsis/include/core_cm0plus.h **** /* check device defines and use defaults */
 132:Generated_Source\PSoC6\pdl\cmsis/include/core_cm0plus.h **** #if defined __CHECK_DEVICE_DEFINES
 133:Generated_Source\PSoC6\pdl\cmsis/include/core_cm0plus.h ****   #ifndef __CM0PLUS_REV
 134:Generated_Source\PSoC6\pdl\cmsis/include/core_cm0plus.h ****     #define __CM0PLUS_REV             0x0000U
 135:Generated_Source\PSoC6\pdl\cmsis/include/core_cm0plus.h ****     #warning "__CM0PLUS_REV not defined in device header file; using default!"
 136:Generated_Source\PSoC6\pdl\cmsis/include/core_cm0plus.h ****   #endif
 137:Generated_Source\PSoC6\pdl\cmsis/include/core_cm0plus.h **** 
 138:Generated_Source\PSoC6\pdl\cmsis/include/core_cm0plus.h ****   #ifndef __MPU_PRESENT
 139:Generated_Source\PSoC6\pdl\cmsis/include/core_cm0plus.h ****     #define __MPU_PRESENT             0U
 140:Generated_Source\PSoC6\pdl\cmsis/include/core_cm0plus.h ****     #warning "__MPU_PRESENT not defined in device header file; using default!"
 141:Generated_Source\PSoC6\pdl\cmsis/include/core_cm0plus.h ****   #endif
 142:Generated_Source\PSoC6\pdl\cmsis/include/core_cm0plus.h **** 
 143:Generated_Source\PSoC6\pdl\cmsis/include/core_cm0plus.h ****   #ifndef __VTOR_PRESENT
 144:Generated_Source\PSoC6\pdl\cmsis/include/core_cm0plus.h ****     #define __VTOR_PRESENT            0U
 145:Generated_Source\PSoC6\pdl\cmsis/include/core_cm0plus.h ****     #warning "__VTOR_PRESENT not defined in device header file; using default!"
ARM GAS  C:\Users\salaz\AppData\Local\Temp\ccTAmJlP.s 			page 4


 146:Generated_Source\PSoC6\pdl\cmsis/include/core_cm0plus.h ****   #endif
 147:Generated_Source\PSoC6\pdl\cmsis/include/core_cm0plus.h **** 
 148:Generated_Source\PSoC6\pdl\cmsis/include/core_cm0plus.h ****   #ifndef __NVIC_PRIO_BITS
 149:Generated_Source\PSoC6\pdl\cmsis/include/core_cm0plus.h ****     #define __NVIC_PRIO_BITS          2U
 150:Generated_Source\PSoC6\pdl\cmsis/include/core_cm0plus.h ****     #warning "__NVIC_PRIO_BITS not defined in device header file; using default!"
 151:Generated_Source\PSoC6\pdl\cmsis/include/core_cm0plus.h ****   #endif
 152:Generated_Source\PSoC6\pdl\cmsis/include/core_cm0plus.h **** 
 153:Generated_Source\PSoC6\pdl\cmsis/include/core_cm0plus.h ****   #ifndef __Vendor_SysTickConfig
 154:Generated_Source\PSoC6\pdl\cmsis/include/core_cm0plus.h ****     #define __Vendor_SysTickConfig    0U
 155:Generated_Source\PSoC6\pdl\cmsis/include/core_cm0plus.h ****     #warning "__Vendor_SysTickConfig not defined in device header file; using default!"
 156:Generated_Source\PSoC6\pdl\cmsis/include/core_cm0plus.h ****   #endif
 157:Generated_Source\PSoC6\pdl\cmsis/include/core_cm0plus.h **** #endif
 158:Generated_Source\PSoC6\pdl\cmsis/include/core_cm0plus.h **** 
 159:Generated_Source\PSoC6\pdl\cmsis/include/core_cm0plus.h **** /* IO definitions (access restrictions to peripheral registers) */
 160:Generated_Source\PSoC6\pdl\cmsis/include/core_cm0plus.h **** /**
 161:Generated_Source\PSoC6\pdl\cmsis/include/core_cm0plus.h ****     \defgroup CMSIS_glob_defs CMSIS Global Defines
 162:Generated_Source\PSoC6\pdl\cmsis/include/core_cm0plus.h **** 
 163:Generated_Source\PSoC6\pdl\cmsis/include/core_cm0plus.h ****     <strong>IO Type Qualifiers</strong> are used
 164:Generated_Source\PSoC6\pdl\cmsis/include/core_cm0plus.h ****     \li to specify the access to peripheral variables.
 165:Generated_Source\PSoC6\pdl\cmsis/include/core_cm0plus.h ****     \li for automatic generation of peripheral register debug information.
 166:Generated_Source\PSoC6\pdl\cmsis/include/core_cm0plus.h **** */
 167:Generated_Source\PSoC6\pdl\cmsis/include/core_cm0plus.h **** #ifdef __cplusplus
 168:Generated_Source\PSoC6\pdl\cmsis/include/core_cm0plus.h ****   #define   __I     volatile             /*!< Defines 'read only' permissions */
 169:Generated_Source\PSoC6\pdl\cmsis/include/core_cm0plus.h **** #else
 170:Generated_Source\PSoC6\pdl\cmsis/include/core_cm0plus.h ****   #define   __I     volatile const       /*!< Defines 'read only' permissions */
 171:Generated_Source\PSoC6\pdl\cmsis/include/core_cm0plus.h **** #endif
 172:Generated_Source\PSoC6\pdl\cmsis/include/core_cm0plus.h **** #define     __O     volatile             /*!< Defines 'write only' permissions */
 173:Generated_Source\PSoC6\pdl\cmsis/include/core_cm0plus.h **** #define     __IO    volatile             /*!< Defines 'read / write' permissions */
 174:Generated_Source\PSoC6\pdl\cmsis/include/core_cm0plus.h **** 
 175:Generated_Source\PSoC6\pdl\cmsis/include/core_cm0plus.h **** /* following defines should be used for structure members */
 176:Generated_Source\PSoC6\pdl\cmsis/include/core_cm0plus.h **** #define     __IM     volatile const      /*! Defines 'read only' structure member permissions */
 177:Generated_Source\PSoC6\pdl\cmsis/include/core_cm0plus.h **** #define     __OM     volatile            /*! Defines 'write only' structure member permissions */
 178:Generated_Source\PSoC6\pdl\cmsis/include/core_cm0plus.h **** #define     __IOM    volatile            /*! Defines 'read / write' structure member permissions */
 179:Generated_Source\PSoC6\pdl\cmsis/include/core_cm0plus.h **** 
 180:Generated_Source\PSoC6\pdl\cmsis/include/core_cm0plus.h **** /*@} end of group Cortex-M0+ */
 181:Generated_Source\PSoC6\pdl\cmsis/include/core_cm0plus.h **** 
 182:Generated_Source\PSoC6\pdl\cmsis/include/core_cm0plus.h **** 
 183:Generated_Source\PSoC6\pdl\cmsis/include/core_cm0plus.h **** 
 184:Generated_Source\PSoC6\pdl\cmsis/include/core_cm0plus.h **** /*******************************************************************************
 185:Generated_Source\PSoC6\pdl\cmsis/include/core_cm0plus.h ****  *                 Register Abstraction
 186:Generated_Source\PSoC6\pdl\cmsis/include/core_cm0plus.h ****   Core Register contain:
 187:Generated_Source\PSoC6\pdl\cmsis/include/core_cm0plus.h ****   - Core Register
 188:Generated_Source\PSoC6\pdl\cmsis/include/core_cm0plus.h ****   - Core NVIC Register
 189:Generated_Source\PSoC6\pdl\cmsis/include/core_cm0plus.h ****   - Core SCB Register
 190:Generated_Source\PSoC6\pdl\cmsis/include/core_cm0plus.h ****   - Core SysTick Register
 191:Generated_Source\PSoC6\pdl\cmsis/include/core_cm0plus.h ****   - Core MPU Register
 192:Generated_Source\PSoC6\pdl\cmsis/include/core_cm0plus.h ****  ******************************************************************************/
 193:Generated_Source\PSoC6\pdl\cmsis/include/core_cm0plus.h **** /**
 194:Generated_Source\PSoC6\pdl\cmsis/include/core_cm0plus.h ****   \defgroup CMSIS_core_register Defines and Type Definitions
 195:Generated_Source\PSoC6\pdl\cmsis/include/core_cm0plus.h ****   \brief Type definitions and defines for Cortex-M processor based devices.
 196:Generated_Source\PSoC6\pdl\cmsis/include/core_cm0plus.h **** */
 197:Generated_Source\PSoC6\pdl\cmsis/include/core_cm0plus.h **** 
 198:Generated_Source\PSoC6\pdl\cmsis/include/core_cm0plus.h **** /**
 199:Generated_Source\PSoC6\pdl\cmsis/include/core_cm0plus.h ****   \ingroup    CMSIS_core_register
 200:Generated_Source\PSoC6\pdl\cmsis/include/core_cm0plus.h ****   \defgroup   CMSIS_CORE  Status and Control Registers
 201:Generated_Source\PSoC6\pdl\cmsis/include/core_cm0plus.h ****   \brief      Core Register type definitions.
 202:Generated_Source\PSoC6\pdl\cmsis/include/core_cm0plus.h ****   @{
ARM GAS  C:\Users\salaz\AppData\Local\Temp\ccTAmJlP.s 			page 5


 203:Generated_Source\PSoC6\pdl\cmsis/include/core_cm0plus.h ****  */
 204:Generated_Source\PSoC6\pdl\cmsis/include/core_cm0plus.h **** 
 205:Generated_Source\PSoC6\pdl\cmsis/include/core_cm0plus.h **** /**
 206:Generated_Source\PSoC6\pdl\cmsis/include/core_cm0plus.h ****   \brief  Union type to access the Application Program Status Register (APSR).
 207:Generated_Source\PSoC6\pdl\cmsis/include/core_cm0plus.h ****  */
 208:Generated_Source\PSoC6\pdl\cmsis/include/core_cm0plus.h **** typedef union
 209:Generated_Source\PSoC6\pdl\cmsis/include/core_cm0plus.h **** {
 210:Generated_Source\PSoC6\pdl\cmsis/include/core_cm0plus.h ****   struct
 211:Generated_Source\PSoC6\pdl\cmsis/include/core_cm0plus.h ****   {
 212:Generated_Source\PSoC6\pdl\cmsis/include/core_cm0plus.h ****     uint32_t _reserved0:28;              /*!< bit:  0..27  Reserved */
 213:Generated_Source\PSoC6\pdl\cmsis/include/core_cm0plus.h ****     uint32_t V:1;                        /*!< bit:     28  Overflow condition code flag */
 214:Generated_Source\PSoC6\pdl\cmsis/include/core_cm0plus.h ****     uint32_t C:1;                        /*!< bit:     29  Carry condition code flag */
 215:Generated_Source\PSoC6\pdl\cmsis/include/core_cm0plus.h ****     uint32_t Z:1;                        /*!< bit:     30  Zero condition code flag */
 216:Generated_Source\PSoC6\pdl\cmsis/include/core_cm0plus.h ****     uint32_t N:1;                        /*!< bit:     31  Negative condition code flag */
 217:Generated_Source\PSoC6\pdl\cmsis/include/core_cm0plus.h ****   } b;                                   /*!< Structure used for bit  access */
 218:Generated_Source\PSoC6\pdl\cmsis/include/core_cm0plus.h ****   uint32_t w;                            /*!< Type      used for word access */
 219:Generated_Source\PSoC6\pdl\cmsis/include/core_cm0plus.h **** } APSR_Type;
 220:Generated_Source\PSoC6\pdl\cmsis/include/core_cm0plus.h **** 
 221:Generated_Source\PSoC6\pdl\cmsis/include/core_cm0plus.h **** /* APSR Register Definitions */
 222:Generated_Source\PSoC6\pdl\cmsis/include/core_cm0plus.h **** #define APSR_N_Pos                         31U                                            /*!< APSR
 223:Generated_Source\PSoC6\pdl\cmsis/include/core_cm0plus.h **** #define APSR_N_Msk                         (1UL << APSR_N_Pos)                            /*!< APSR
 224:Generated_Source\PSoC6\pdl\cmsis/include/core_cm0plus.h **** 
 225:Generated_Source\PSoC6\pdl\cmsis/include/core_cm0plus.h **** #define APSR_Z_Pos                         30U                                            /*!< APSR
 226:Generated_Source\PSoC6\pdl\cmsis/include/core_cm0plus.h **** #define APSR_Z_Msk                         (1UL << APSR_Z_Pos)                            /*!< APSR
 227:Generated_Source\PSoC6\pdl\cmsis/include/core_cm0plus.h **** 
 228:Generated_Source\PSoC6\pdl\cmsis/include/core_cm0plus.h **** #define APSR_C_Pos                         29U                                            /*!< APSR
 229:Generated_Source\PSoC6\pdl\cmsis/include/core_cm0plus.h **** #define APSR_C_Msk                         (1UL << APSR_C_Pos)                            /*!< APSR
 230:Generated_Source\PSoC6\pdl\cmsis/include/core_cm0plus.h **** 
 231:Generated_Source\PSoC6\pdl\cmsis/include/core_cm0plus.h **** #define APSR_V_Pos                         28U                                            /*!< APSR
 232:Generated_Source\PSoC6\pdl\cmsis/include/core_cm0plus.h **** #define APSR_V_Msk                         (1UL << APSR_V_Pos)                            /*!< APSR
 233:Generated_Source\PSoC6\pdl\cmsis/include/core_cm0plus.h **** 
 234:Generated_Source\PSoC6\pdl\cmsis/include/core_cm0plus.h **** 
 235:Generated_Source\PSoC6\pdl\cmsis/include/core_cm0plus.h **** /**
 236:Generated_Source\PSoC6\pdl\cmsis/include/core_cm0plus.h ****   \brief  Union type to access the Interrupt Program Status Register (IPSR).
 237:Generated_Source\PSoC6\pdl\cmsis/include/core_cm0plus.h ****  */
 238:Generated_Source\PSoC6\pdl\cmsis/include/core_cm0plus.h **** typedef union
 239:Generated_Source\PSoC6\pdl\cmsis/include/core_cm0plus.h **** {
 240:Generated_Source\PSoC6\pdl\cmsis/include/core_cm0plus.h ****   struct
 241:Generated_Source\PSoC6\pdl\cmsis/include/core_cm0plus.h ****   {
 242:Generated_Source\PSoC6\pdl\cmsis/include/core_cm0plus.h ****     uint32_t ISR:9;                      /*!< bit:  0.. 8  Exception number */
 243:Generated_Source\PSoC6\pdl\cmsis/include/core_cm0plus.h ****     uint32_t _reserved0:23;              /*!< bit:  9..31  Reserved */
 244:Generated_Source\PSoC6\pdl\cmsis/include/core_cm0plus.h ****   } b;                                   /*!< Structure used for bit  access */
 245:Generated_Source\PSoC6\pdl\cmsis/include/core_cm0plus.h ****   uint32_t w;                            /*!< Type      used for word access */
 246:Generated_Source\PSoC6\pdl\cmsis/include/core_cm0plus.h **** } IPSR_Type;
 247:Generated_Source\PSoC6\pdl\cmsis/include/core_cm0plus.h **** 
 248:Generated_Source\PSoC6\pdl\cmsis/include/core_cm0plus.h **** /* IPSR Register Definitions */
 249:Generated_Source\PSoC6\pdl\cmsis/include/core_cm0plus.h **** #define IPSR_ISR_Pos                        0U                                            /*!< IPSR
 250:Generated_Source\PSoC6\pdl\cmsis/include/core_cm0plus.h **** #define IPSR_ISR_Msk                       (0x1FFUL /*<< IPSR_ISR_Pos*/)                  /*!< IPSR
 251:Generated_Source\PSoC6\pdl\cmsis/include/core_cm0plus.h **** 
 252:Generated_Source\PSoC6\pdl\cmsis/include/core_cm0plus.h **** 
 253:Generated_Source\PSoC6\pdl\cmsis/include/core_cm0plus.h **** /**
 254:Generated_Source\PSoC6\pdl\cmsis/include/core_cm0plus.h ****   \brief  Union type to access the Special-Purpose Program Status Registers (xPSR).
 255:Generated_Source\PSoC6\pdl\cmsis/include/core_cm0plus.h ****  */
 256:Generated_Source\PSoC6\pdl\cmsis/include/core_cm0plus.h **** typedef union
 257:Generated_Source\PSoC6\pdl\cmsis/include/core_cm0plus.h **** {
 258:Generated_Source\PSoC6\pdl\cmsis/include/core_cm0plus.h ****   struct
 259:Generated_Source\PSoC6\pdl\cmsis/include/core_cm0plus.h ****   {
ARM GAS  C:\Users\salaz\AppData\Local\Temp\ccTAmJlP.s 			page 6


 260:Generated_Source\PSoC6\pdl\cmsis/include/core_cm0plus.h ****     uint32_t ISR:9;                      /*!< bit:  0.. 8  Exception number */
 261:Generated_Source\PSoC6\pdl\cmsis/include/core_cm0plus.h ****     uint32_t _reserved0:15;              /*!< bit:  9..23  Reserved */
 262:Generated_Source\PSoC6\pdl\cmsis/include/core_cm0plus.h ****     uint32_t T:1;                        /*!< bit:     24  Thumb bit        (read 0) */
 263:Generated_Source\PSoC6\pdl\cmsis/include/core_cm0plus.h ****     uint32_t _reserved1:3;               /*!< bit: 25..27  Reserved */
 264:Generated_Source\PSoC6\pdl\cmsis/include/core_cm0plus.h ****     uint32_t V:1;                        /*!< bit:     28  Overflow condition code flag */
 265:Generated_Source\PSoC6\pdl\cmsis/include/core_cm0plus.h ****     uint32_t C:1;                        /*!< bit:     29  Carry condition code flag */
 266:Generated_Source\PSoC6\pdl\cmsis/include/core_cm0plus.h ****     uint32_t Z:1;                        /*!< bit:     30  Zero condition code flag */
 267:Generated_Source\PSoC6\pdl\cmsis/include/core_cm0plus.h ****     uint32_t N:1;                        /*!< bit:     31  Negative condition code flag */
 268:Generated_Source\PSoC6\pdl\cmsis/include/core_cm0plus.h ****   } b;                                   /*!< Structure used for bit  access */
 269:Generated_Source\PSoC6\pdl\cmsis/include/core_cm0plus.h ****   uint32_t w;                            /*!< Type      used for word access */
 270:Generated_Source\PSoC6\pdl\cmsis/include/core_cm0plus.h **** } xPSR_Type;
 271:Generated_Source\PSoC6\pdl\cmsis/include/core_cm0plus.h **** 
 272:Generated_Source\PSoC6\pdl\cmsis/include/core_cm0plus.h **** /* xPSR Register Definitions */
 273:Generated_Source\PSoC6\pdl\cmsis/include/core_cm0plus.h **** #define xPSR_N_Pos                         31U                                            /*!< xPSR
 274:Generated_Source\PSoC6\pdl\cmsis/include/core_cm0plus.h **** #define xPSR_N_Msk                         (1UL << xPSR_N_Pos)                            /*!< xPSR
 275:Generated_Source\PSoC6\pdl\cmsis/include/core_cm0plus.h **** 
 276:Generated_Source\PSoC6\pdl\cmsis/include/core_cm0plus.h **** #define xPSR_Z_Pos                         30U                                            /*!< xPSR
 277:Generated_Source\PSoC6\pdl\cmsis/include/core_cm0plus.h **** #define xPSR_Z_Msk                         (1UL << xPSR_Z_Pos)                            /*!< xPSR
 278:Generated_Source\PSoC6\pdl\cmsis/include/core_cm0plus.h **** 
 279:Generated_Source\PSoC6\pdl\cmsis/include/core_cm0plus.h **** #define xPSR_C_Pos                         29U                                            /*!< xPSR
 280:Generated_Source\PSoC6\pdl\cmsis/include/core_cm0plus.h **** #define xPSR_C_Msk                         (1UL << xPSR_C_Pos)                            /*!< xPSR
 281:Generated_Source\PSoC6\pdl\cmsis/include/core_cm0plus.h **** 
 282:Generated_Source\PSoC6\pdl\cmsis/include/core_cm0plus.h **** #define xPSR_V_Pos                         28U                                            /*!< xPSR
 283:Generated_Source\PSoC6\pdl\cmsis/include/core_cm0plus.h **** #define xPSR_V_Msk                         (1UL << xPSR_V_Pos)                            /*!< xPSR
 284:Generated_Source\PSoC6\pdl\cmsis/include/core_cm0plus.h **** 
 285:Generated_Source\PSoC6\pdl\cmsis/include/core_cm0plus.h **** #define xPSR_T_Pos                         24U                                            /*!< xPSR
 286:Generated_Source\PSoC6\pdl\cmsis/include/core_cm0plus.h **** #define xPSR_T_Msk                         (1UL << xPSR_T_Pos)                            /*!< xPSR
 287:Generated_Source\PSoC6\pdl\cmsis/include/core_cm0plus.h **** 
 288:Generated_Source\PSoC6\pdl\cmsis/include/core_cm0plus.h **** #define xPSR_ISR_Pos                        0U                                            /*!< xPSR
 289:Generated_Source\PSoC6\pdl\cmsis/include/core_cm0plus.h **** #define xPSR_ISR_Msk                       (0x1FFUL /*<< xPSR_ISR_Pos*/)                  /*!< xPSR
 290:Generated_Source\PSoC6\pdl\cmsis/include/core_cm0plus.h **** 
 291:Generated_Source\PSoC6\pdl\cmsis/include/core_cm0plus.h **** 
 292:Generated_Source\PSoC6\pdl\cmsis/include/core_cm0plus.h **** /**
 293:Generated_Source\PSoC6\pdl\cmsis/include/core_cm0plus.h ****   \brief  Union type to access the Control Registers (CONTROL).
 294:Generated_Source\PSoC6\pdl\cmsis/include/core_cm0plus.h ****  */
 295:Generated_Source\PSoC6\pdl\cmsis/include/core_cm0plus.h **** typedef union
 296:Generated_Source\PSoC6\pdl\cmsis/include/core_cm0plus.h **** {
 297:Generated_Source\PSoC6\pdl\cmsis/include/core_cm0plus.h ****   struct
 298:Generated_Source\PSoC6\pdl\cmsis/include/core_cm0plus.h ****   {
 299:Generated_Source\PSoC6\pdl\cmsis/include/core_cm0plus.h ****     uint32_t nPRIV:1;                    /*!< bit:      0  Execution privilege in Thread mode */
 300:Generated_Source\PSoC6\pdl\cmsis/include/core_cm0plus.h ****     uint32_t SPSEL:1;                    /*!< bit:      1  Stack to be used */
 301:Generated_Source\PSoC6\pdl\cmsis/include/core_cm0plus.h ****     uint32_t _reserved1:30;              /*!< bit:  2..31  Reserved */
 302:Generated_Source\PSoC6\pdl\cmsis/include/core_cm0plus.h ****   } b;                                   /*!< Structure used for bit  access */
 303:Generated_Source\PSoC6\pdl\cmsis/include/core_cm0plus.h ****   uint32_t w;                            /*!< Type      used for word access */
 304:Generated_Source\PSoC6\pdl\cmsis/include/core_cm0plus.h **** } CONTROL_Type;
 305:Generated_Source\PSoC6\pdl\cmsis/include/core_cm0plus.h **** 
 306:Generated_Source\PSoC6\pdl\cmsis/include/core_cm0plus.h **** /* CONTROL Register Definitions */
 307:Generated_Source\PSoC6\pdl\cmsis/include/core_cm0plus.h **** #define CONTROL_SPSEL_Pos                   1U                                            /*!< CONT
 308:Generated_Source\PSoC6\pdl\cmsis/include/core_cm0plus.h **** #define CONTROL_SPSEL_Msk                  (1UL << CONTROL_SPSEL_Pos)                     /*!< CONT
 309:Generated_Source\PSoC6\pdl\cmsis/include/core_cm0plus.h **** 
 310:Generated_Source\PSoC6\pdl\cmsis/include/core_cm0plus.h **** #define CONTROL_nPRIV_Pos                   0U                                            /*!< CONT
 311:Generated_Source\PSoC6\pdl\cmsis/include/core_cm0plus.h **** #define CONTROL_nPRIV_Msk                  (1UL /*<< CONTROL_nPRIV_Pos*/)                 /*!< CONT
 312:Generated_Source\PSoC6\pdl\cmsis/include/core_cm0plus.h **** 
 313:Generated_Source\PSoC6\pdl\cmsis/include/core_cm0plus.h **** /*@} end of group CMSIS_CORE */
 314:Generated_Source\PSoC6\pdl\cmsis/include/core_cm0plus.h **** 
 315:Generated_Source\PSoC6\pdl\cmsis/include/core_cm0plus.h **** 
 316:Generated_Source\PSoC6\pdl\cmsis/include/core_cm0plus.h **** /**
ARM GAS  C:\Users\salaz\AppData\Local\Temp\ccTAmJlP.s 			page 7


 317:Generated_Source\PSoC6\pdl\cmsis/include/core_cm0plus.h ****   \ingroup    CMSIS_core_register
 318:Generated_Source\PSoC6\pdl\cmsis/include/core_cm0plus.h ****   \defgroup   CMSIS_NVIC  Nested Vectored Interrupt Controller (NVIC)
 319:Generated_Source\PSoC6\pdl\cmsis/include/core_cm0plus.h ****   \brief      Type definitions for the NVIC Registers
 320:Generated_Source\PSoC6\pdl\cmsis/include/core_cm0plus.h ****   @{
 321:Generated_Source\PSoC6\pdl\cmsis/include/core_cm0plus.h ****  */
 322:Generated_Source\PSoC6\pdl\cmsis/include/core_cm0plus.h **** 
 323:Generated_Source\PSoC6\pdl\cmsis/include/core_cm0plus.h **** /**
 324:Generated_Source\PSoC6\pdl\cmsis/include/core_cm0plus.h ****   \brief  Structure type to access the Nested Vectored Interrupt Controller (NVIC).
 325:Generated_Source\PSoC6\pdl\cmsis/include/core_cm0plus.h ****  */
 326:Generated_Source\PSoC6\pdl\cmsis/include/core_cm0plus.h **** typedef struct
 327:Generated_Source\PSoC6\pdl\cmsis/include/core_cm0plus.h **** {
 328:Generated_Source\PSoC6\pdl\cmsis/include/core_cm0plus.h ****   __IOM uint32_t ISER[1U];               /*!< Offset: 0x000 (R/W)  Interrupt Set Enable Register */
 329:Generated_Source\PSoC6\pdl\cmsis/include/core_cm0plus.h ****         uint32_t RESERVED0[31U];
 330:Generated_Source\PSoC6\pdl\cmsis/include/core_cm0plus.h ****   __IOM uint32_t ICER[1U];               /*!< Offset: 0x080 (R/W)  Interrupt Clear Enable Register 
 331:Generated_Source\PSoC6\pdl\cmsis/include/core_cm0plus.h ****         uint32_t RSERVED1[31U];
 332:Generated_Source\PSoC6\pdl\cmsis/include/core_cm0plus.h ****   __IOM uint32_t ISPR[1U];               /*!< Offset: 0x100 (R/W)  Interrupt Set Pending Register *
 333:Generated_Source\PSoC6\pdl\cmsis/include/core_cm0plus.h ****         uint32_t RESERVED2[31U];
 334:Generated_Source\PSoC6\pdl\cmsis/include/core_cm0plus.h ****   __IOM uint32_t ICPR[1U];               /*!< Offset: 0x180 (R/W)  Interrupt Clear Pending Register
 335:Generated_Source\PSoC6\pdl\cmsis/include/core_cm0plus.h ****         uint32_t RESERVED3[31U];
 336:Generated_Source\PSoC6\pdl\cmsis/include/core_cm0plus.h ****         uint32_t RESERVED4[64U];
 337:Generated_Source\PSoC6\pdl\cmsis/include/core_cm0plus.h ****   __IOM uint32_t IP[8U];                 /*!< Offset: 0x300 (R/W)  Interrupt Priority Register */
 338:Generated_Source\PSoC6\pdl\cmsis/include/core_cm0plus.h **** }  NVIC_Type;
 339:Generated_Source\PSoC6\pdl\cmsis/include/core_cm0plus.h **** 
 340:Generated_Source\PSoC6\pdl\cmsis/include/core_cm0plus.h **** /*@} end of group CMSIS_NVIC */
 341:Generated_Source\PSoC6\pdl\cmsis/include/core_cm0plus.h **** 
 342:Generated_Source\PSoC6\pdl\cmsis/include/core_cm0plus.h **** 
 343:Generated_Source\PSoC6\pdl\cmsis/include/core_cm0plus.h **** /**
 344:Generated_Source\PSoC6\pdl\cmsis/include/core_cm0plus.h ****   \ingroup  CMSIS_core_register
 345:Generated_Source\PSoC6\pdl\cmsis/include/core_cm0plus.h ****   \defgroup CMSIS_SCB     System Control Block (SCB)
 346:Generated_Source\PSoC6\pdl\cmsis/include/core_cm0plus.h ****   \brief    Type definitions for the System Control Block Registers
 347:Generated_Source\PSoC6\pdl\cmsis/include/core_cm0plus.h ****   @{
 348:Generated_Source\PSoC6\pdl\cmsis/include/core_cm0plus.h ****  */
 349:Generated_Source\PSoC6\pdl\cmsis/include/core_cm0plus.h **** 
 350:Generated_Source\PSoC6\pdl\cmsis/include/core_cm0plus.h **** /**
 351:Generated_Source\PSoC6\pdl\cmsis/include/core_cm0plus.h ****   \brief  Structure type to access the System Control Block (SCB).
 352:Generated_Source\PSoC6\pdl\cmsis/include/core_cm0plus.h ****  */
 353:Generated_Source\PSoC6\pdl\cmsis/include/core_cm0plus.h **** typedef struct
 354:Generated_Source\PSoC6\pdl\cmsis/include/core_cm0plus.h **** {
 355:Generated_Source\PSoC6\pdl\cmsis/include/core_cm0plus.h ****   __IM  uint32_t CPUID;                  /*!< Offset: 0x000 (R/ )  CPUID Base Register */
 356:Generated_Source\PSoC6\pdl\cmsis/include/core_cm0plus.h ****   __IOM uint32_t ICSR;                   /*!< Offset: 0x004 (R/W)  Interrupt Control and State Regi
 357:Generated_Source\PSoC6\pdl\cmsis/include/core_cm0plus.h **** #if defined (__VTOR_PRESENT) && (__VTOR_PRESENT == 1U)
 358:Generated_Source\PSoC6\pdl\cmsis/include/core_cm0plus.h ****   __IOM uint32_t VTOR;                   /*!< Offset: 0x008 (R/W)  Vector Table Offset Register */
 359:Generated_Source\PSoC6\pdl\cmsis/include/core_cm0plus.h **** #else
 360:Generated_Source\PSoC6\pdl\cmsis/include/core_cm0plus.h ****         uint32_t RESERVED0;
 361:Generated_Source\PSoC6\pdl\cmsis/include/core_cm0plus.h **** #endif
 362:Generated_Source\PSoC6\pdl\cmsis/include/core_cm0plus.h ****   __IOM uint32_t AIRCR;                  /*!< Offset: 0x00C (R/W)  Application Interrupt and Reset 
 363:Generated_Source\PSoC6\pdl\cmsis/include/core_cm0plus.h ****   __IOM uint32_t SCR;                    /*!< Offset: 0x010 (R/W)  System Control Register */
 364:Generated_Source\PSoC6\pdl\cmsis/include/core_cm0plus.h ****   __IOM uint32_t CCR;                    /*!< Offset: 0x014 (R/W)  Configuration Control Register *
 365:Generated_Source\PSoC6\pdl\cmsis/include/core_cm0plus.h ****         uint32_t RESERVED1;
 366:Generated_Source\PSoC6\pdl\cmsis/include/core_cm0plus.h ****   __IOM uint32_t SHP[2U];                /*!< Offset: 0x01C (R/W)  System Handlers Priority Registe
 367:Generated_Source\PSoC6\pdl\cmsis/include/core_cm0plus.h ****   __IOM uint32_t SHCSR;                  /*!< Offset: 0x024 (R/W)  System Handler Control and State
 368:Generated_Source\PSoC6\pdl\cmsis/include/core_cm0plus.h **** } SCB_Type;
 369:Generated_Source\PSoC6\pdl\cmsis/include/core_cm0plus.h **** 
 370:Generated_Source\PSoC6\pdl\cmsis/include/core_cm0plus.h **** /* SCB CPUID Register Definitions */
 371:Generated_Source\PSoC6\pdl\cmsis/include/core_cm0plus.h **** #define SCB_CPUID_IMPLEMENTER_Pos          24U                                            /*!< SCB 
 372:Generated_Source\PSoC6\pdl\cmsis/include/core_cm0plus.h **** #define SCB_CPUID_IMPLEMENTER_Msk          (0xFFUL << SCB_CPUID_IMPLEMENTER_Pos)          /*!< SCB 
 373:Generated_Source\PSoC6\pdl\cmsis/include/core_cm0plus.h **** 
ARM GAS  C:\Users\salaz\AppData\Local\Temp\ccTAmJlP.s 			page 8


 374:Generated_Source\PSoC6\pdl\cmsis/include/core_cm0plus.h **** #define SCB_CPUID_VARIANT_Pos              20U                                            /*!< SCB 
 375:Generated_Source\PSoC6\pdl\cmsis/include/core_cm0plus.h **** #define SCB_CPUID_VARIANT_Msk              (0xFUL << SCB_CPUID_VARIANT_Pos)               /*!< SCB 
 376:Generated_Source\PSoC6\pdl\cmsis/include/core_cm0plus.h **** 
 377:Generated_Source\PSoC6\pdl\cmsis/include/core_cm0plus.h **** #define SCB_CPUID_ARCHITECTURE_Pos         16U                                            /*!< SCB 
 378:Generated_Source\PSoC6\pdl\cmsis/include/core_cm0plus.h **** #define SCB_CPUID_ARCHITECTURE_Msk         (0xFUL << SCB_CPUID_ARCHITECTURE_Pos)          /*!< SCB 
 379:Generated_Source\PSoC6\pdl\cmsis/include/core_cm0plus.h **** 
 380:Generated_Source\PSoC6\pdl\cmsis/include/core_cm0plus.h **** #define SCB_CPUID_PARTNO_Pos                4U                                            /*!< SCB 
 381:Generated_Source\PSoC6\pdl\cmsis/include/core_cm0plus.h **** #define SCB_CPUID_PARTNO_Msk               (0xFFFUL << SCB_CPUID_PARTNO_Pos)              /*!< SCB 
 382:Generated_Source\PSoC6\pdl\cmsis/include/core_cm0plus.h **** 
 383:Generated_Source\PSoC6\pdl\cmsis/include/core_cm0plus.h **** #define SCB_CPUID_REVISION_Pos              0U                                            /*!< SCB 
 384:Generated_Source\PSoC6\pdl\cmsis/include/core_cm0plus.h **** #define SCB_CPUID_REVISION_Msk             (0xFUL /*<< SCB_CPUID_REVISION_Pos*/)          /*!< SCB 
 385:Generated_Source\PSoC6\pdl\cmsis/include/core_cm0plus.h **** 
 386:Generated_Source\PSoC6\pdl\cmsis/include/core_cm0plus.h **** /* SCB Interrupt Control State Register Definitions */
 387:Generated_Source\PSoC6\pdl\cmsis/include/core_cm0plus.h **** #define SCB_ICSR_NMIPENDSET_Pos            31U                                            /*!< SCB 
 388:Generated_Source\PSoC6\pdl\cmsis/include/core_cm0plus.h **** #define SCB_ICSR_NMIPENDSET_Msk            (1UL << SCB_ICSR_NMIPENDSET_Pos)               /*!< SCB 
 389:Generated_Source\PSoC6\pdl\cmsis/include/core_cm0plus.h **** 
 390:Generated_Source\PSoC6\pdl\cmsis/include/core_cm0plus.h **** #define SCB_ICSR_PENDSVSET_Pos             28U                                            /*!< SCB 
 391:Generated_Source\PSoC6\pdl\cmsis/include/core_cm0plus.h **** #define SCB_ICSR_PENDSVSET_Msk             (1UL << SCB_ICSR_PENDSVSET_Pos)                /*!< SCB 
 392:Generated_Source\PSoC6\pdl\cmsis/include/core_cm0plus.h **** 
 393:Generated_Source\PSoC6\pdl\cmsis/include/core_cm0plus.h **** #define SCB_ICSR_PENDSVCLR_Pos             27U                                            /*!< SCB 
 394:Generated_Source\PSoC6\pdl\cmsis/include/core_cm0plus.h **** #define SCB_ICSR_PENDSVCLR_Msk             (1UL << SCB_ICSR_PENDSVCLR_Pos)                /*!< SCB 
 395:Generated_Source\PSoC6\pdl\cmsis/include/core_cm0plus.h **** 
 396:Generated_Source\PSoC6\pdl\cmsis/include/core_cm0plus.h **** #define SCB_ICSR_PENDSTSET_Pos             26U                                            /*!< SCB 
 397:Generated_Source\PSoC6\pdl\cmsis/include/core_cm0plus.h **** #define SCB_ICSR_PENDSTSET_Msk             (1UL << SCB_ICSR_PENDSTSET_Pos)                /*!< SCB 
 398:Generated_Source\PSoC6\pdl\cmsis/include/core_cm0plus.h **** 
 399:Generated_Source\PSoC6\pdl\cmsis/include/core_cm0plus.h **** #define SCB_ICSR_PENDSTCLR_Pos             25U                                            /*!< SCB 
 400:Generated_Source\PSoC6\pdl\cmsis/include/core_cm0plus.h **** #define SCB_ICSR_PENDSTCLR_Msk             (1UL << SCB_ICSR_PENDSTCLR_Pos)                /*!< SCB 
 401:Generated_Source\PSoC6\pdl\cmsis/include/core_cm0plus.h **** 
 402:Generated_Source\PSoC6\pdl\cmsis/include/core_cm0plus.h **** #define SCB_ICSR_ISRPREEMPT_Pos            23U                                            /*!< SCB 
 403:Generated_Source\PSoC6\pdl\cmsis/include/core_cm0plus.h **** #define SCB_ICSR_ISRPREEMPT_Msk            (1UL << SCB_ICSR_ISRPREEMPT_Pos)               /*!< SCB 
 404:Generated_Source\PSoC6\pdl\cmsis/include/core_cm0plus.h **** 
 405:Generated_Source\PSoC6\pdl\cmsis/include/core_cm0plus.h **** #define SCB_ICSR_ISRPENDING_Pos            22U                                            /*!< SCB 
 406:Generated_Source\PSoC6\pdl\cmsis/include/core_cm0plus.h **** #define SCB_ICSR_ISRPENDING_Msk            (1UL << SCB_ICSR_ISRPENDING_Pos)               /*!< SCB 
 407:Generated_Source\PSoC6\pdl\cmsis/include/core_cm0plus.h **** 
 408:Generated_Source\PSoC6\pdl\cmsis/include/core_cm0plus.h **** #define SCB_ICSR_VECTPENDING_Pos           12U                                            /*!< SCB 
 409:Generated_Source\PSoC6\pdl\cmsis/include/core_cm0plus.h **** #define SCB_ICSR_VECTPENDING_Msk           (0x1FFUL << SCB_ICSR_VECTPENDING_Pos)          /*!< SCB 
 410:Generated_Source\PSoC6\pdl\cmsis/include/core_cm0plus.h **** 
 411:Generated_Source\PSoC6\pdl\cmsis/include/core_cm0plus.h **** #define SCB_ICSR_VECTACTIVE_Pos             0U                                            /*!< SCB 
 412:Generated_Source\PSoC6\pdl\cmsis/include/core_cm0plus.h **** #define SCB_ICSR_VECTACTIVE_Msk            (0x1FFUL /*<< SCB_ICSR_VECTACTIVE_Pos*/)       /*!< SCB 
 413:Generated_Source\PSoC6\pdl\cmsis/include/core_cm0plus.h **** 
 414:Generated_Source\PSoC6\pdl\cmsis/include/core_cm0plus.h **** #if defined (__VTOR_PRESENT) && (__VTOR_PRESENT == 1U)
 415:Generated_Source\PSoC6\pdl\cmsis/include/core_cm0plus.h **** /* SCB Interrupt Control State Register Definitions */
 416:Generated_Source\PSoC6\pdl\cmsis/include/core_cm0plus.h **** #define SCB_VTOR_TBLOFF_Pos                 8U                                            /*!< SCB 
 417:Generated_Source\PSoC6\pdl\cmsis/include/core_cm0plus.h **** #define SCB_VTOR_TBLOFF_Msk                (0xFFFFFFUL << SCB_VTOR_TBLOFF_Pos)            /*!< SCB 
 418:Generated_Source\PSoC6\pdl\cmsis/include/core_cm0plus.h **** #endif
 419:Generated_Source\PSoC6\pdl\cmsis/include/core_cm0plus.h **** 
 420:Generated_Source\PSoC6\pdl\cmsis/include/core_cm0plus.h **** /* SCB Application Interrupt and Reset Control Register Definitions */
 421:Generated_Source\PSoC6\pdl\cmsis/include/core_cm0plus.h **** #define SCB_AIRCR_VECTKEY_Pos              16U                                            /*!< SCB 
 422:Generated_Source\PSoC6\pdl\cmsis/include/core_cm0plus.h **** #define SCB_AIRCR_VECTKEY_Msk              (0xFFFFUL << SCB_AIRCR_VECTKEY_Pos)            /*!< SCB 
 423:Generated_Source\PSoC6\pdl\cmsis/include/core_cm0plus.h **** 
 424:Generated_Source\PSoC6\pdl\cmsis/include/core_cm0plus.h **** #define SCB_AIRCR_VECTKEYSTAT_Pos          16U                                            /*!< SCB 
 425:Generated_Source\PSoC6\pdl\cmsis/include/core_cm0plus.h **** #define SCB_AIRCR_VECTKEYSTAT_Msk          (0xFFFFUL << SCB_AIRCR_VECTKEYSTAT_Pos)        /*!< SCB 
 426:Generated_Source\PSoC6\pdl\cmsis/include/core_cm0plus.h **** 
 427:Generated_Source\PSoC6\pdl\cmsis/include/core_cm0plus.h **** #define SCB_AIRCR_ENDIANESS_Pos            15U                                            /*!< SCB 
 428:Generated_Source\PSoC6\pdl\cmsis/include/core_cm0plus.h **** #define SCB_AIRCR_ENDIANESS_Msk            (1UL << SCB_AIRCR_ENDIANESS_Pos)               /*!< SCB 
 429:Generated_Source\PSoC6\pdl\cmsis/include/core_cm0plus.h **** 
 430:Generated_Source\PSoC6\pdl\cmsis/include/core_cm0plus.h **** #define SCB_AIRCR_SYSRESETREQ_Pos           2U                                            /*!< SCB 
ARM GAS  C:\Users\salaz\AppData\Local\Temp\ccTAmJlP.s 			page 9


 431:Generated_Source\PSoC6\pdl\cmsis/include/core_cm0plus.h **** #define SCB_AIRCR_SYSRESETREQ_Msk          (1UL << SCB_AIRCR_SYSRESETREQ_Pos)             /*!< SCB 
 432:Generated_Source\PSoC6\pdl\cmsis/include/core_cm0plus.h **** 
 433:Generated_Source\PSoC6\pdl\cmsis/include/core_cm0plus.h **** #define SCB_AIRCR_VECTCLRACTIVE_Pos         1U                                            /*!< SCB 
 434:Generated_Source\PSoC6\pdl\cmsis/include/core_cm0plus.h **** #define SCB_AIRCR_VECTCLRACTIVE_Msk        (1UL << SCB_AIRCR_VECTCLRACTIVE_Pos)           /*!< SCB 
 435:Generated_Source\PSoC6\pdl\cmsis/include/core_cm0plus.h **** 
 436:Generated_Source\PSoC6\pdl\cmsis/include/core_cm0plus.h **** /* SCB System Control Register Definitions */
 437:Generated_Source\PSoC6\pdl\cmsis/include/core_cm0plus.h **** #define SCB_SCR_SEVONPEND_Pos               4U                                            /*!< SCB 
 438:Generated_Source\PSoC6\pdl\cmsis/include/core_cm0plus.h **** #define SCB_SCR_SEVONPEND_Msk              (1UL << SCB_SCR_SEVONPEND_Pos)                 /*!< SCB 
 439:Generated_Source\PSoC6\pdl\cmsis/include/core_cm0plus.h **** 
 440:Generated_Source\PSoC6\pdl\cmsis/include/core_cm0plus.h **** #define SCB_SCR_SLEEPDEEP_Pos               2U                                            /*!< SCB 
 441:Generated_Source\PSoC6\pdl\cmsis/include/core_cm0plus.h **** #define SCB_SCR_SLEEPDEEP_Msk              (1UL << SCB_SCR_SLEEPDEEP_Pos)                 /*!< SCB 
 442:Generated_Source\PSoC6\pdl\cmsis/include/core_cm0plus.h **** 
 443:Generated_Source\PSoC6\pdl\cmsis/include/core_cm0plus.h **** #define SCB_SCR_SLEEPONEXIT_Pos             1U                                            /*!< SCB 
 444:Generated_Source\PSoC6\pdl\cmsis/include/core_cm0plus.h **** #define SCB_SCR_SLEEPONEXIT_Msk            (1UL << SCB_SCR_SLEEPONEXIT_Pos)               /*!< SCB 
 445:Generated_Source\PSoC6\pdl\cmsis/include/core_cm0plus.h **** 
 446:Generated_Source\PSoC6\pdl\cmsis/include/core_cm0plus.h **** /* SCB Configuration Control Register Definitions */
 447:Generated_Source\PSoC6\pdl\cmsis/include/core_cm0plus.h **** #define SCB_CCR_STKALIGN_Pos                9U                                            /*!< SCB 
 448:Generated_Source\PSoC6\pdl\cmsis/include/core_cm0plus.h **** #define SCB_CCR_STKALIGN_Msk               (1UL << SCB_CCR_STKALIGN_Pos)                  /*!< SCB 
 449:Generated_Source\PSoC6\pdl\cmsis/include/core_cm0plus.h **** 
 450:Generated_Source\PSoC6\pdl\cmsis/include/core_cm0plus.h **** #define SCB_CCR_UNALIGN_TRP_Pos             3U                                            /*!< SCB 
 451:Generated_Source\PSoC6\pdl\cmsis/include/core_cm0plus.h **** #define SCB_CCR_UNALIGN_TRP_Msk            (1UL << SCB_CCR_UNALIGN_TRP_Pos)               /*!< SCB 
 452:Generated_Source\PSoC6\pdl\cmsis/include/core_cm0plus.h **** 
 453:Generated_Source\PSoC6\pdl\cmsis/include/core_cm0plus.h **** /* SCB System Handler Control and State Register Definitions */
 454:Generated_Source\PSoC6\pdl\cmsis/include/core_cm0plus.h **** #define SCB_SHCSR_SVCALLPENDED_Pos         15U                                            /*!< SCB 
 455:Generated_Source\PSoC6\pdl\cmsis/include/core_cm0plus.h **** #define SCB_SHCSR_SVCALLPENDED_Msk         (1UL << SCB_SHCSR_SVCALLPENDED_Pos)            /*!< SCB 
 456:Generated_Source\PSoC6\pdl\cmsis/include/core_cm0plus.h **** 
 457:Generated_Source\PSoC6\pdl\cmsis/include/core_cm0plus.h **** /*@} end of group CMSIS_SCB */
 458:Generated_Source\PSoC6\pdl\cmsis/include/core_cm0plus.h **** 
 459:Generated_Source\PSoC6\pdl\cmsis/include/core_cm0plus.h **** 
 460:Generated_Source\PSoC6\pdl\cmsis/include/core_cm0plus.h **** /**
 461:Generated_Source\PSoC6\pdl\cmsis/include/core_cm0plus.h ****   \ingroup  CMSIS_core_register
 462:Generated_Source\PSoC6\pdl\cmsis/include/core_cm0plus.h ****   \defgroup CMSIS_SysTick     System Tick Timer (SysTick)
 463:Generated_Source\PSoC6\pdl\cmsis/include/core_cm0plus.h ****   \brief    Type definitions for the System Timer Registers.
 464:Generated_Source\PSoC6\pdl\cmsis/include/core_cm0plus.h ****   @{
 465:Generated_Source\PSoC6\pdl\cmsis/include/core_cm0plus.h ****  */
 466:Generated_Source\PSoC6\pdl\cmsis/include/core_cm0plus.h **** 
 467:Generated_Source\PSoC6\pdl\cmsis/include/core_cm0plus.h **** /**
 468:Generated_Source\PSoC6\pdl\cmsis/include/core_cm0plus.h ****   \brief  Structure type to access the System Timer (SysTick).
 469:Generated_Source\PSoC6\pdl\cmsis/include/core_cm0plus.h ****  */
 470:Generated_Source\PSoC6\pdl\cmsis/include/core_cm0plus.h **** typedef struct
 471:Generated_Source\PSoC6\pdl\cmsis/include/core_cm0plus.h **** {
 472:Generated_Source\PSoC6\pdl\cmsis/include/core_cm0plus.h ****   __IOM uint32_t CTRL;                   /*!< Offset: 0x000 (R/W)  SysTick Control and Status Regis
 473:Generated_Source\PSoC6\pdl\cmsis/include/core_cm0plus.h ****   __IOM uint32_t LOAD;                   /*!< Offset: 0x004 (R/W)  SysTick Reload Value Register */
 474:Generated_Source\PSoC6\pdl\cmsis/include/core_cm0plus.h ****   __IOM uint32_t VAL;                    /*!< Offset: 0x008 (R/W)  SysTick Current Value Register *
 475:Generated_Source\PSoC6\pdl\cmsis/include/core_cm0plus.h ****   __IM  uint32_t CALIB;                  /*!< Offset: 0x00C (R/ )  SysTick Calibration Register */
 476:Generated_Source\PSoC6\pdl\cmsis/include/core_cm0plus.h **** } SysTick_Type;
 477:Generated_Source\PSoC6\pdl\cmsis/include/core_cm0plus.h **** 
 478:Generated_Source\PSoC6\pdl\cmsis/include/core_cm0plus.h **** /* SysTick Control / Status Register Definitions */
 479:Generated_Source\PSoC6\pdl\cmsis/include/core_cm0plus.h **** #define SysTick_CTRL_COUNTFLAG_Pos         16U                                            /*!< SysT
 480:Generated_Source\PSoC6\pdl\cmsis/include/core_cm0plus.h **** #define SysTick_CTRL_COUNTFLAG_Msk         (1UL << SysTick_CTRL_COUNTFLAG_Pos)            /*!< SysT
 481:Generated_Source\PSoC6\pdl\cmsis/include/core_cm0plus.h **** 
 482:Generated_Source\PSoC6\pdl\cmsis/include/core_cm0plus.h **** #define SysTick_CTRL_CLKSOURCE_Pos          2U                                            /*!< SysT
 483:Generated_Source\PSoC6\pdl\cmsis/include/core_cm0plus.h **** #define SysTick_CTRL_CLKSOURCE_Msk         (1UL << SysTick_CTRL_CLKSOURCE_Pos)            /*!< SysT
 484:Generated_Source\PSoC6\pdl\cmsis/include/core_cm0plus.h **** 
 485:Generated_Source\PSoC6\pdl\cmsis/include/core_cm0plus.h **** #define SysTick_CTRL_TICKINT_Pos            1U                                            /*!< SysT
 486:Generated_Source\PSoC6\pdl\cmsis/include/core_cm0plus.h **** #define SysTick_CTRL_TICKINT_Msk           (1UL << SysTick_CTRL_TICKINT_Pos)              /*!< SysT
 487:Generated_Source\PSoC6\pdl\cmsis/include/core_cm0plus.h **** 
ARM GAS  C:\Users\salaz\AppData\Local\Temp\ccTAmJlP.s 			page 10


 488:Generated_Source\PSoC6\pdl\cmsis/include/core_cm0plus.h **** #define SysTick_CTRL_ENABLE_Pos             0U                                            /*!< SysT
 489:Generated_Source\PSoC6\pdl\cmsis/include/core_cm0plus.h **** #define SysTick_CTRL_ENABLE_Msk            (1UL /*<< SysTick_CTRL_ENABLE_Pos*/)           /*!< SysT
 490:Generated_Source\PSoC6\pdl\cmsis/include/core_cm0plus.h **** 
 491:Generated_Source\PSoC6\pdl\cmsis/include/core_cm0plus.h **** /* SysTick Reload Register Definitions */
 492:Generated_Source\PSoC6\pdl\cmsis/include/core_cm0plus.h **** #define SysTick_LOAD_RELOAD_Pos             0U                                            /*!< SysT
 493:Generated_Source\PSoC6\pdl\cmsis/include/core_cm0plus.h **** #define SysTick_LOAD_RELOAD_Msk            (0xFFFFFFUL /*<< SysTick_LOAD_RELOAD_Pos*/)    /*!< SysT
 494:Generated_Source\PSoC6\pdl\cmsis/include/core_cm0plus.h **** 
 495:Generated_Source\PSoC6\pdl\cmsis/include/core_cm0plus.h **** /* SysTick Current Register Definitions */
 496:Generated_Source\PSoC6\pdl\cmsis/include/core_cm0plus.h **** #define SysTick_VAL_CURRENT_Pos             0U                                            /*!< SysT
 497:Generated_Source\PSoC6\pdl\cmsis/include/core_cm0plus.h **** #define SysTick_VAL_CURRENT_Msk            (0xFFFFFFUL /*<< SysTick_VAL_CURRENT_Pos*/)    /*!< SysT
 498:Generated_Source\PSoC6\pdl\cmsis/include/core_cm0plus.h **** 
 499:Generated_Source\PSoC6\pdl\cmsis/include/core_cm0plus.h **** /* SysTick Calibration Register Definitions */
 500:Generated_Source\PSoC6\pdl\cmsis/include/core_cm0plus.h **** #define SysTick_CALIB_NOREF_Pos            31U                                            /*!< SysT
 501:Generated_Source\PSoC6\pdl\cmsis/include/core_cm0plus.h **** #define SysTick_CALIB_NOREF_Msk            (1UL << SysTick_CALIB_NOREF_Pos)               /*!< SysT
 502:Generated_Source\PSoC6\pdl\cmsis/include/core_cm0plus.h **** 
 503:Generated_Source\PSoC6\pdl\cmsis/include/core_cm0plus.h **** #define SysTick_CALIB_SKEW_Pos             30U                                            /*!< SysT
 504:Generated_Source\PSoC6\pdl\cmsis/include/core_cm0plus.h **** #define SysTick_CALIB_SKEW_Msk             (1UL << SysTick_CALIB_SKEW_Pos)                /*!< SysT
 505:Generated_Source\PSoC6\pdl\cmsis/include/core_cm0plus.h **** 
 506:Generated_Source\PSoC6\pdl\cmsis/include/core_cm0plus.h **** #define SysTick_CALIB_TENMS_Pos             0U                                            /*!< SysT
 507:Generated_Source\PSoC6\pdl\cmsis/include/core_cm0plus.h **** #define SysTick_CALIB_TENMS_Msk            (0xFFFFFFUL /*<< SysTick_CALIB_TENMS_Pos*/)    /*!< SysT
 508:Generated_Source\PSoC6\pdl\cmsis/include/core_cm0plus.h **** 
 509:Generated_Source\PSoC6\pdl\cmsis/include/core_cm0plus.h **** /*@} end of group CMSIS_SysTick */
 510:Generated_Source\PSoC6\pdl\cmsis/include/core_cm0plus.h **** 
 511:Generated_Source\PSoC6\pdl\cmsis/include/core_cm0plus.h **** #if defined (__MPU_PRESENT) && (__MPU_PRESENT == 1U)
 512:Generated_Source\PSoC6\pdl\cmsis/include/core_cm0plus.h **** /**
 513:Generated_Source\PSoC6\pdl\cmsis/include/core_cm0plus.h ****   \ingroup  CMSIS_core_register
 514:Generated_Source\PSoC6\pdl\cmsis/include/core_cm0plus.h ****   \defgroup CMSIS_MPU     Memory Protection Unit (MPU)
 515:Generated_Source\PSoC6\pdl\cmsis/include/core_cm0plus.h ****   \brief    Type definitions for the Memory Protection Unit (MPU)
 516:Generated_Source\PSoC6\pdl\cmsis/include/core_cm0plus.h ****   @{
 517:Generated_Source\PSoC6\pdl\cmsis/include/core_cm0plus.h ****  */
 518:Generated_Source\PSoC6\pdl\cmsis/include/core_cm0plus.h **** 
 519:Generated_Source\PSoC6\pdl\cmsis/include/core_cm0plus.h **** /**
 520:Generated_Source\PSoC6\pdl\cmsis/include/core_cm0plus.h ****   \brief  Structure type to access the Memory Protection Unit (MPU).
 521:Generated_Source\PSoC6\pdl\cmsis/include/core_cm0plus.h ****  */
 522:Generated_Source\PSoC6\pdl\cmsis/include/core_cm0plus.h **** typedef struct
 523:Generated_Source\PSoC6\pdl\cmsis/include/core_cm0plus.h **** {
 524:Generated_Source\PSoC6\pdl\cmsis/include/core_cm0plus.h ****   __IM  uint32_t TYPE;                   /*!< Offset: 0x000 (R/ )  MPU Type Register */
 525:Generated_Source\PSoC6\pdl\cmsis/include/core_cm0plus.h ****   __IOM uint32_t CTRL;                   /*!< Offset: 0x004 (R/W)  MPU Control Register */
 526:Generated_Source\PSoC6\pdl\cmsis/include/core_cm0plus.h ****   __IOM uint32_t RNR;                    /*!< Offset: 0x008 (R/W)  MPU Region RNRber Register */
 527:Generated_Source\PSoC6\pdl\cmsis/include/core_cm0plus.h ****   __IOM uint32_t RBAR;                   /*!< Offset: 0x00C (R/W)  MPU Region Base Address Register
 528:Generated_Source\PSoC6\pdl\cmsis/include/core_cm0plus.h ****   __IOM uint32_t RASR;                   /*!< Offset: 0x010 (R/W)  MPU Region Attribute and Size Re
 529:Generated_Source\PSoC6\pdl\cmsis/include/core_cm0plus.h **** } MPU_Type;
 530:Generated_Source\PSoC6\pdl\cmsis/include/core_cm0plus.h **** 
 531:Generated_Source\PSoC6\pdl\cmsis/include/core_cm0plus.h **** /* MPU Type Register Definitions */
 532:Generated_Source\PSoC6\pdl\cmsis/include/core_cm0plus.h **** #define MPU_TYPE_IREGION_Pos               16U                                            /*!< MPU 
 533:Generated_Source\PSoC6\pdl\cmsis/include/core_cm0plus.h **** #define MPU_TYPE_IREGION_Msk               (0xFFUL << MPU_TYPE_IREGION_Pos)               /*!< MPU 
 534:Generated_Source\PSoC6\pdl\cmsis/include/core_cm0plus.h **** 
 535:Generated_Source\PSoC6\pdl\cmsis/include/core_cm0plus.h **** #define MPU_TYPE_DREGION_Pos                8U                                            /*!< MPU 
 536:Generated_Source\PSoC6\pdl\cmsis/include/core_cm0plus.h **** #define MPU_TYPE_DREGION_Msk               (0xFFUL << MPU_TYPE_DREGION_Pos)               /*!< MPU 
 537:Generated_Source\PSoC6\pdl\cmsis/include/core_cm0plus.h **** 
 538:Generated_Source\PSoC6\pdl\cmsis/include/core_cm0plus.h **** #define MPU_TYPE_SEPARATE_Pos               0U                                            /*!< MPU 
 539:Generated_Source\PSoC6\pdl\cmsis/include/core_cm0plus.h **** #define MPU_TYPE_SEPARATE_Msk              (1UL /*<< MPU_TYPE_SEPARATE_Pos*/)             /*!< MPU 
 540:Generated_Source\PSoC6\pdl\cmsis/include/core_cm0plus.h **** 
 541:Generated_Source\PSoC6\pdl\cmsis/include/core_cm0plus.h **** /* MPU Control Register Definitions */
 542:Generated_Source\PSoC6\pdl\cmsis/include/core_cm0plus.h **** #define MPU_CTRL_PRIVDEFENA_Pos             2U                                            /*!< MPU 
 543:Generated_Source\PSoC6\pdl\cmsis/include/core_cm0plus.h **** #define MPU_CTRL_PRIVDEFENA_Msk            (1UL << MPU_CTRL_PRIVDEFENA_Pos)               /*!< MPU 
 544:Generated_Source\PSoC6\pdl\cmsis/include/core_cm0plus.h **** 
ARM GAS  C:\Users\salaz\AppData\Local\Temp\ccTAmJlP.s 			page 11


 545:Generated_Source\PSoC6\pdl\cmsis/include/core_cm0plus.h **** #define MPU_CTRL_HFNMIENA_Pos               1U                                            /*!< MPU 
 546:Generated_Source\PSoC6\pdl\cmsis/include/core_cm0plus.h **** #define MPU_CTRL_HFNMIENA_Msk              (1UL << MPU_CTRL_HFNMIENA_Pos)                 /*!< MPU 
 547:Generated_Source\PSoC6\pdl\cmsis/include/core_cm0plus.h **** 
 548:Generated_Source\PSoC6\pdl\cmsis/include/core_cm0plus.h **** #define MPU_CTRL_ENABLE_Pos                 0U                                            /*!< MPU 
 549:Generated_Source\PSoC6\pdl\cmsis/include/core_cm0plus.h **** #define MPU_CTRL_ENABLE_Msk                (1UL /*<< MPU_CTRL_ENABLE_Pos*/)               /*!< MPU 
 550:Generated_Source\PSoC6\pdl\cmsis/include/core_cm0plus.h **** 
 551:Generated_Source\PSoC6\pdl\cmsis/include/core_cm0plus.h **** /* MPU Region Number Register Definitions */
 552:Generated_Source\PSoC6\pdl\cmsis/include/core_cm0plus.h **** #define MPU_RNR_REGION_Pos                  0U                                            /*!< MPU 
 553:Generated_Source\PSoC6\pdl\cmsis/include/core_cm0plus.h **** #define MPU_RNR_REGION_Msk                 (0xFFUL /*<< MPU_RNR_REGION_Pos*/)             /*!< MPU 
 554:Generated_Source\PSoC6\pdl\cmsis/include/core_cm0plus.h **** 
 555:Generated_Source\PSoC6\pdl\cmsis/include/core_cm0plus.h **** /* MPU Region Base Address Register Definitions */
 556:Generated_Source\PSoC6\pdl\cmsis/include/core_cm0plus.h **** #define MPU_RBAR_ADDR_Pos                   8U                                            /*!< MPU 
 557:Generated_Source\PSoC6\pdl\cmsis/include/core_cm0plus.h **** #define MPU_RBAR_ADDR_Msk                  (0xFFFFFFUL << MPU_RBAR_ADDR_Pos)              /*!< MPU 
 558:Generated_Source\PSoC6\pdl\cmsis/include/core_cm0plus.h **** 
 559:Generated_Source\PSoC6\pdl\cmsis/include/core_cm0plus.h **** #define MPU_RBAR_VALID_Pos                  4U                                            /*!< MPU 
 560:Generated_Source\PSoC6\pdl\cmsis/include/core_cm0plus.h **** #define MPU_RBAR_VALID_Msk                 (1UL << MPU_RBAR_VALID_Pos)                    /*!< MPU 
 561:Generated_Source\PSoC6\pdl\cmsis/include/core_cm0plus.h **** 
 562:Generated_Source\PSoC6\pdl\cmsis/include/core_cm0plus.h **** #define MPU_RBAR_REGION_Pos                 0U                                            /*!< MPU 
 563:Generated_Source\PSoC6\pdl\cmsis/include/core_cm0plus.h **** #define MPU_RBAR_REGION_Msk                (0xFUL /*<< MPU_RBAR_REGION_Pos*/)             /*!< MPU 
 564:Generated_Source\PSoC6\pdl\cmsis/include/core_cm0plus.h **** 
 565:Generated_Source\PSoC6\pdl\cmsis/include/core_cm0plus.h **** /* MPU Region Attribute and Size Register Definitions */
 566:Generated_Source\PSoC6\pdl\cmsis/include/core_cm0plus.h **** #define MPU_RASR_ATTRS_Pos                 16U                                            /*!< MPU 
 567:Generated_Source\PSoC6\pdl\cmsis/include/core_cm0plus.h **** #define MPU_RASR_ATTRS_Msk                 (0xFFFFUL << MPU_RASR_ATTRS_Pos)               /*!< MPU 
 568:Generated_Source\PSoC6\pdl\cmsis/include/core_cm0plus.h **** 
 569:Generated_Source\PSoC6\pdl\cmsis/include/core_cm0plus.h **** #define MPU_RASR_XN_Pos                    28U                                            /*!< MPU 
 570:Generated_Source\PSoC6\pdl\cmsis/include/core_cm0plus.h **** #define MPU_RASR_XN_Msk                    (1UL << MPU_RASR_XN_Pos)                       /*!< MPU 
 571:Generated_Source\PSoC6\pdl\cmsis/include/core_cm0plus.h **** 
 572:Generated_Source\PSoC6\pdl\cmsis/include/core_cm0plus.h **** #define MPU_RASR_AP_Pos                    24U                                            /*!< MPU 
 573:Generated_Source\PSoC6\pdl\cmsis/include/core_cm0plus.h **** #define MPU_RASR_AP_Msk                    (0x7UL << MPU_RASR_AP_Pos)                     /*!< MPU 
 574:Generated_Source\PSoC6\pdl\cmsis/include/core_cm0plus.h **** 
 575:Generated_Source\PSoC6\pdl\cmsis/include/core_cm0plus.h **** #define MPU_RASR_TEX_Pos                   19U                                            /*!< MPU 
 576:Generated_Source\PSoC6\pdl\cmsis/include/core_cm0plus.h **** #define MPU_RASR_TEX_Msk                   (0x7UL << MPU_RASR_TEX_Pos)                    /*!< MPU 
 577:Generated_Source\PSoC6\pdl\cmsis/include/core_cm0plus.h **** 
 578:Generated_Source\PSoC6\pdl\cmsis/include/core_cm0plus.h **** #define MPU_RASR_S_Pos                     18U                                            /*!< MPU 
 579:Generated_Source\PSoC6\pdl\cmsis/include/core_cm0plus.h **** #define MPU_RASR_S_Msk                     (1UL << MPU_RASR_S_Pos)                        /*!< MPU 
 580:Generated_Source\PSoC6\pdl\cmsis/include/core_cm0plus.h **** 
 581:Generated_Source\PSoC6\pdl\cmsis/include/core_cm0plus.h **** #define MPU_RASR_C_Pos                     17U                                            /*!< MPU 
 582:Generated_Source\PSoC6\pdl\cmsis/include/core_cm0plus.h **** #define MPU_RASR_C_Msk                     (1UL << MPU_RASR_C_Pos)                        /*!< MPU 
 583:Generated_Source\PSoC6\pdl\cmsis/include/core_cm0plus.h **** 
 584:Generated_Source\PSoC6\pdl\cmsis/include/core_cm0plus.h **** #define MPU_RASR_B_Pos                     16U                                            /*!< MPU 
 585:Generated_Source\PSoC6\pdl\cmsis/include/core_cm0plus.h **** #define MPU_RASR_B_Msk                     (1UL << MPU_RASR_B_Pos)                        /*!< MPU 
 586:Generated_Source\PSoC6\pdl\cmsis/include/core_cm0plus.h **** 
 587:Generated_Source\PSoC6\pdl\cmsis/include/core_cm0plus.h **** #define MPU_RASR_SRD_Pos                    8U                                            /*!< MPU 
 588:Generated_Source\PSoC6\pdl\cmsis/include/core_cm0plus.h **** #define MPU_RASR_SRD_Msk                   (0xFFUL << MPU_RASR_SRD_Pos)                   /*!< MPU 
 589:Generated_Source\PSoC6\pdl\cmsis/include/core_cm0plus.h **** 
 590:Generated_Source\PSoC6\pdl\cmsis/include/core_cm0plus.h **** #define MPU_RASR_SIZE_Pos                   1U                                            /*!< MPU 
 591:Generated_Source\PSoC6\pdl\cmsis/include/core_cm0plus.h **** #define MPU_RASR_SIZE_Msk                  (0x1FUL << MPU_RASR_SIZE_Pos)                  /*!< MPU 
 592:Generated_Source\PSoC6\pdl\cmsis/include/core_cm0plus.h **** 
 593:Generated_Source\PSoC6\pdl\cmsis/include/core_cm0plus.h **** #define MPU_RASR_ENABLE_Pos                 0U                                            /*!< MPU 
 594:Generated_Source\PSoC6\pdl\cmsis/include/core_cm0plus.h **** #define MPU_RASR_ENABLE_Msk                (1UL /*<< MPU_RASR_ENABLE_Pos*/)               /*!< MPU 
 595:Generated_Source\PSoC6\pdl\cmsis/include/core_cm0plus.h **** 
 596:Generated_Source\PSoC6\pdl\cmsis/include/core_cm0plus.h **** /*@} end of group CMSIS_MPU */
 597:Generated_Source\PSoC6\pdl\cmsis/include/core_cm0plus.h **** #endif
 598:Generated_Source\PSoC6\pdl\cmsis/include/core_cm0plus.h **** 
 599:Generated_Source\PSoC6\pdl\cmsis/include/core_cm0plus.h **** 
 600:Generated_Source\PSoC6\pdl\cmsis/include/core_cm0plus.h **** /**
 601:Generated_Source\PSoC6\pdl\cmsis/include/core_cm0plus.h ****   \ingroup  CMSIS_core_register
ARM GAS  C:\Users\salaz\AppData\Local\Temp\ccTAmJlP.s 			page 12


 602:Generated_Source\PSoC6\pdl\cmsis/include/core_cm0plus.h ****   \defgroup CMSIS_CoreDebug       Core Debug Registers (CoreDebug)
 603:Generated_Source\PSoC6\pdl\cmsis/include/core_cm0plus.h ****   \brief    Cortex-M0+ Core Debug Registers (DCB registers, SHCSR, and DFSR) are only accessible ov
 604:Generated_Source\PSoC6\pdl\cmsis/include/core_cm0plus.h ****             Therefore they are not covered by the Cortex-M0+ header file.
 605:Generated_Source\PSoC6\pdl\cmsis/include/core_cm0plus.h ****   @{
 606:Generated_Source\PSoC6\pdl\cmsis/include/core_cm0plus.h ****  */
 607:Generated_Source\PSoC6\pdl\cmsis/include/core_cm0plus.h **** /*@} end of group CMSIS_CoreDebug */
 608:Generated_Source\PSoC6\pdl\cmsis/include/core_cm0plus.h **** 
 609:Generated_Source\PSoC6\pdl\cmsis/include/core_cm0plus.h **** 
 610:Generated_Source\PSoC6\pdl\cmsis/include/core_cm0plus.h **** /**
 611:Generated_Source\PSoC6\pdl\cmsis/include/core_cm0plus.h ****   \ingroup    CMSIS_core_register
 612:Generated_Source\PSoC6\pdl\cmsis/include/core_cm0plus.h ****   \defgroup   CMSIS_core_bitfield     Core register bit field macros
 613:Generated_Source\PSoC6\pdl\cmsis/include/core_cm0plus.h ****   \brief      Macros for use with bit field definitions (xxx_Pos, xxx_Msk).
 614:Generated_Source\PSoC6\pdl\cmsis/include/core_cm0plus.h ****   @{
 615:Generated_Source\PSoC6\pdl\cmsis/include/core_cm0plus.h ****  */
 616:Generated_Source\PSoC6\pdl\cmsis/include/core_cm0plus.h **** 
 617:Generated_Source\PSoC6\pdl\cmsis/include/core_cm0plus.h **** /**
 618:Generated_Source\PSoC6\pdl\cmsis/include/core_cm0plus.h ****   \brief   Mask and shift a bit field value for use in a register bit range.
 619:Generated_Source\PSoC6\pdl\cmsis/include/core_cm0plus.h ****   \param[in] field  Name of the register bit field.
 620:Generated_Source\PSoC6\pdl\cmsis/include/core_cm0plus.h ****   \param[in] value  Value of the bit field. This parameter is interpreted as an uint32_t type.
 621:Generated_Source\PSoC6\pdl\cmsis/include/core_cm0plus.h ****   \return           Masked and shifted value.
 622:Generated_Source\PSoC6\pdl\cmsis/include/core_cm0plus.h **** */
 623:Generated_Source\PSoC6\pdl\cmsis/include/core_cm0plus.h **** #define _VAL2FLD(field, value)    (((uint32_t)(value) << field ## _Pos) & field ## _Msk)
 624:Generated_Source\PSoC6\pdl\cmsis/include/core_cm0plus.h **** 
 625:Generated_Source\PSoC6\pdl\cmsis/include/core_cm0plus.h **** /**
 626:Generated_Source\PSoC6\pdl\cmsis/include/core_cm0plus.h ****   \brief     Mask and shift a register value to extract a bit filed value.
 627:Generated_Source\PSoC6\pdl\cmsis/include/core_cm0plus.h ****   \param[in] field  Name of the register bit field.
 628:Generated_Source\PSoC6\pdl\cmsis/include/core_cm0plus.h ****   \param[in] value  Value of register. This parameter is interpreted as an uint32_t type.
 629:Generated_Source\PSoC6\pdl\cmsis/include/core_cm0plus.h ****   \return           Masked and shifted bit field value.
 630:Generated_Source\PSoC6\pdl\cmsis/include/core_cm0plus.h **** */
 631:Generated_Source\PSoC6\pdl\cmsis/include/core_cm0plus.h **** #define _FLD2VAL(field, value)    (((uint32_t)(value) & field ## _Msk) >> field ## _Pos)
 632:Generated_Source\PSoC6\pdl\cmsis/include/core_cm0plus.h **** 
 633:Generated_Source\PSoC6\pdl\cmsis/include/core_cm0plus.h **** /*@} end of group CMSIS_core_bitfield */
 634:Generated_Source\PSoC6\pdl\cmsis/include/core_cm0plus.h **** 
 635:Generated_Source\PSoC6\pdl\cmsis/include/core_cm0plus.h **** 
 636:Generated_Source\PSoC6\pdl\cmsis/include/core_cm0plus.h **** /**
 637:Generated_Source\PSoC6\pdl\cmsis/include/core_cm0plus.h ****   \ingroup    CMSIS_core_register
 638:Generated_Source\PSoC6\pdl\cmsis/include/core_cm0plus.h ****   \defgroup   CMSIS_core_base     Core Definitions
 639:Generated_Source\PSoC6\pdl\cmsis/include/core_cm0plus.h ****   \brief      Definitions for base addresses, unions, and structures.
 640:Generated_Source\PSoC6\pdl\cmsis/include/core_cm0plus.h ****   @{
 641:Generated_Source\PSoC6\pdl\cmsis/include/core_cm0plus.h ****  */
 642:Generated_Source\PSoC6\pdl\cmsis/include/core_cm0plus.h **** 
 643:Generated_Source\PSoC6\pdl\cmsis/include/core_cm0plus.h **** /* Memory mapping of Core Hardware */
 644:Generated_Source\PSoC6\pdl\cmsis/include/core_cm0plus.h **** #define SCS_BASE            (0xE000E000UL)                            /*!< System Control Space Bas
 645:Generated_Source\PSoC6\pdl\cmsis/include/core_cm0plus.h **** #define SysTick_BASE        (SCS_BASE +  0x0010UL)                    /*!< SysTick Base Address */
 646:Generated_Source\PSoC6\pdl\cmsis/include/core_cm0plus.h **** #define NVIC_BASE           (SCS_BASE +  0x0100UL)                    /*!< NVIC Base Address */
 647:Generated_Source\PSoC6\pdl\cmsis/include/core_cm0plus.h **** #define SCB_BASE            (SCS_BASE +  0x0D00UL)                    /*!< System Control Block Bas
 648:Generated_Source\PSoC6\pdl\cmsis/include/core_cm0plus.h **** 
 649:Generated_Source\PSoC6\pdl\cmsis/include/core_cm0plus.h **** #define SCB                 ((SCB_Type       *)     SCB_BASE      )   /*!< SCB configuration struct
 650:Generated_Source\PSoC6\pdl\cmsis/include/core_cm0plus.h **** #define SysTick             ((SysTick_Type   *)     SysTick_BASE  )   /*!< SysTick configuration st
 651:Generated_Source\PSoC6\pdl\cmsis/include/core_cm0plus.h **** #define NVIC                ((NVIC_Type      *)     NVIC_BASE     )   /*!< NVIC configuration struc
 652:Generated_Source\PSoC6\pdl\cmsis/include/core_cm0plus.h **** 
 653:Generated_Source\PSoC6\pdl\cmsis/include/core_cm0plus.h **** #if defined (__MPU_PRESENT) && (__MPU_PRESENT == 1U)
 654:Generated_Source\PSoC6\pdl\cmsis/include/core_cm0plus.h ****   #define MPU_BASE          (SCS_BASE +  0x0D90UL)                    /*!< Memory Protection Unit *
 655:Generated_Source\PSoC6\pdl\cmsis/include/core_cm0plus.h ****   #define MPU               ((MPU_Type       *)     MPU_BASE      )   /*!< Memory Protection Unit *
 656:Generated_Source\PSoC6\pdl\cmsis/include/core_cm0plus.h **** #endif
 657:Generated_Source\PSoC6\pdl\cmsis/include/core_cm0plus.h **** 
 658:Generated_Source\PSoC6\pdl\cmsis/include/core_cm0plus.h **** /*@} */
ARM GAS  C:\Users\salaz\AppData\Local\Temp\ccTAmJlP.s 			page 13


 659:Generated_Source\PSoC6\pdl\cmsis/include/core_cm0plus.h **** 
 660:Generated_Source\PSoC6\pdl\cmsis/include/core_cm0plus.h **** 
 661:Generated_Source\PSoC6\pdl\cmsis/include/core_cm0plus.h **** 
 662:Generated_Source\PSoC6\pdl\cmsis/include/core_cm0plus.h **** /*******************************************************************************
 663:Generated_Source\PSoC6\pdl\cmsis/include/core_cm0plus.h ****  *                Hardware Abstraction Layer
 664:Generated_Source\PSoC6\pdl\cmsis/include/core_cm0plus.h ****   Core Function Interface contains:
 665:Generated_Source\PSoC6\pdl\cmsis/include/core_cm0plus.h ****   - Core NVIC Functions
 666:Generated_Source\PSoC6\pdl\cmsis/include/core_cm0plus.h ****   - Core SysTick Functions
 667:Generated_Source\PSoC6\pdl\cmsis/include/core_cm0plus.h ****   - Core Register Access Functions
 668:Generated_Source\PSoC6\pdl\cmsis/include/core_cm0plus.h ****  ******************************************************************************/
 669:Generated_Source\PSoC6\pdl\cmsis/include/core_cm0plus.h **** /**
 670:Generated_Source\PSoC6\pdl\cmsis/include/core_cm0plus.h ****   \defgroup CMSIS_Core_FunctionInterface Functions and Instructions Reference
 671:Generated_Source\PSoC6\pdl\cmsis/include/core_cm0plus.h **** */
 672:Generated_Source\PSoC6\pdl\cmsis/include/core_cm0plus.h **** 
 673:Generated_Source\PSoC6\pdl\cmsis/include/core_cm0plus.h **** 
 674:Generated_Source\PSoC6\pdl\cmsis/include/core_cm0plus.h **** 
 675:Generated_Source\PSoC6\pdl\cmsis/include/core_cm0plus.h **** /* ##########################   NVIC functions  #################################### */
 676:Generated_Source\PSoC6\pdl\cmsis/include/core_cm0plus.h **** /**
 677:Generated_Source\PSoC6\pdl\cmsis/include/core_cm0plus.h ****   \ingroup  CMSIS_Core_FunctionInterface
 678:Generated_Source\PSoC6\pdl\cmsis/include/core_cm0plus.h ****   \defgroup CMSIS_Core_NVICFunctions NVIC Functions
 679:Generated_Source\PSoC6\pdl\cmsis/include/core_cm0plus.h ****   \brief    Functions that manage interrupts and exceptions via the NVIC.
 680:Generated_Source\PSoC6\pdl\cmsis/include/core_cm0plus.h ****   @{
 681:Generated_Source\PSoC6\pdl\cmsis/include/core_cm0plus.h ****  */
 682:Generated_Source\PSoC6\pdl\cmsis/include/core_cm0plus.h **** 
 683:Generated_Source\PSoC6\pdl\cmsis/include/core_cm0plus.h **** #ifndef CMSIS_NVIC_VIRTUAL
 684:Generated_Source\PSoC6\pdl\cmsis/include/core_cm0plus.h **** /*#define NVIC_SetPriorityGrouping    __NVIC_SetPriorityGrouping   not available for Cortex-M0+ */
 685:Generated_Source\PSoC6\pdl\cmsis/include/core_cm0plus.h **** /*#define NVIC_GetPriorityGrouping    __NVIC_GetPriorityGrouping   not available for Cortex-M0+ */
 686:Generated_Source\PSoC6\pdl\cmsis/include/core_cm0plus.h ****   #define NVIC_EnableIRQ              __NVIC_EnableIRQ
 687:Generated_Source\PSoC6\pdl\cmsis/include/core_cm0plus.h ****   #define NVIC_GetEnableIRQ           __NVIC_GetEnableIRQ
 688:Generated_Source\PSoC6\pdl\cmsis/include/core_cm0plus.h ****   #define NVIC_DisableIRQ             __NVIC_DisableIRQ
 689:Generated_Source\PSoC6\pdl\cmsis/include/core_cm0plus.h ****   #define NVIC_GetPendingIRQ          __NVIC_GetPendingIRQ
 690:Generated_Source\PSoC6\pdl\cmsis/include/core_cm0plus.h ****   #define NVIC_SetPendingIRQ          __NVIC_SetPendingIRQ
 691:Generated_Source\PSoC6\pdl\cmsis/include/core_cm0plus.h ****   #define NVIC_ClearPendingIRQ        __NVIC_ClearPendingIRQ
 692:Generated_Source\PSoC6\pdl\cmsis/include/core_cm0plus.h **** /*#define NVIC_GetActive              __NVIC_GetActive             not available for Cortex-M0+ */
 693:Generated_Source\PSoC6\pdl\cmsis/include/core_cm0plus.h ****   #define NVIC_SetPriority            __NVIC_SetPriority
 694:Generated_Source\PSoC6\pdl\cmsis/include/core_cm0plus.h ****   #define NVIC_GetPriority            __NVIC_GetPriority
 695:Generated_Source\PSoC6\pdl\cmsis/include/core_cm0plus.h **** #endif /* CMSIS_NVIC_VIRTUAL */
 696:Generated_Source\PSoC6\pdl\cmsis/include/core_cm0plus.h **** 
 697:Generated_Source\PSoC6\pdl\cmsis/include/core_cm0plus.h **** #ifndef CMSIS_VECTAB_VIRTUAL
 698:Generated_Source\PSoC6\pdl\cmsis/include/core_cm0plus.h ****   #define NVIC_SetVector              __NVIC_SetVector
 699:Generated_Source\PSoC6\pdl\cmsis/include/core_cm0plus.h ****   #define NVIC_GetVector              __NVIC_GetVector
 700:Generated_Source\PSoC6\pdl\cmsis/include/core_cm0plus.h **** #endif  /* (CMSIS_VECTAB_VIRTUAL) */
 701:Generated_Source\PSoC6\pdl\cmsis/include/core_cm0plus.h **** 
 702:Generated_Source\PSoC6\pdl\cmsis/include/core_cm0plus.h **** #define NVIC_USER_IRQ_OFFSET          16
 703:Generated_Source\PSoC6\pdl\cmsis/include/core_cm0plus.h **** 
 704:Generated_Source\PSoC6\pdl\cmsis/include/core_cm0plus.h **** 
 705:Generated_Source\PSoC6\pdl\cmsis/include/core_cm0plus.h **** /* Interrupt Priorities are WORD accessible only under ARMv6M                   */
 706:Generated_Source\PSoC6\pdl\cmsis/include/core_cm0plus.h **** /* The following MACROS handle generation of the register offset and byte masks */
 707:Generated_Source\PSoC6\pdl\cmsis/include/core_cm0plus.h **** #define _BIT_SHIFT(IRQn)         (  ((((uint32_t)(int32_t)(IRQn))         )      &  0x03UL) * 8UL)
 708:Generated_Source\PSoC6\pdl\cmsis/include/core_cm0plus.h **** #define _SHP_IDX(IRQn)           ( (((((uint32_t)(int32_t)(IRQn)) & 0x0FUL)-8UL) >>    2UL)      )
 709:Generated_Source\PSoC6\pdl\cmsis/include/core_cm0plus.h **** #define _IP_IDX(IRQn)            (   (((uint32_t)(int32_t)(IRQn))                >>    2UL)      )
 710:Generated_Source\PSoC6\pdl\cmsis/include/core_cm0plus.h **** 
 711:Generated_Source\PSoC6\pdl\cmsis/include/core_cm0plus.h **** 
 712:Generated_Source\PSoC6\pdl\cmsis/include/core_cm0plus.h **** /**
 713:Generated_Source\PSoC6\pdl\cmsis/include/core_cm0plus.h ****   \brief   Enable Interrupt
 714:Generated_Source\PSoC6\pdl\cmsis/include/core_cm0plus.h ****   \details Enables a device specific interrupt in the NVIC interrupt controller.
 715:Generated_Source\PSoC6\pdl\cmsis/include/core_cm0plus.h ****   \param [in]      IRQn  Device specific interrupt number.
ARM GAS  C:\Users\salaz\AppData\Local\Temp\ccTAmJlP.s 			page 14


 716:Generated_Source\PSoC6\pdl\cmsis/include/core_cm0plus.h ****   \note    IRQn must not be negative.
 717:Generated_Source\PSoC6\pdl\cmsis/include/core_cm0plus.h ****  */
 718:Generated_Source\PSoC6\pdl\cmsis/include/core_cm0plus.h **** __STATIC_INLINE void __NVIC_EnableIRQ(IRQn_Type IRQn)
 719:Generated_Source\PSoC6\pdl\cmsis/include/core_cm0plus.h **** {
  27              		.loc 1 719 0
  28              		.cfi_startproc
  29              		@ args = 0, pretend = 0, frame = 8
  30              		@ frame_needed = 1, uses_anonymous_args = 0
  31 0000 80B5     		push	{r7, lr}
  32              		.cfi_def_cfa_offset 8
  33              		.cfi_offset 7, -8
  34              		.cfi_offset 14, -4
  35 0002 82B0     		sub	sp, sp, #8
  36              		.cfi_def_cfa_offset 16
  37 0004 00AF     		add	r7, sp, #0
  38              		.cfi_def_cfa_register 7
  39 0006 0200     		movs	r2, r0
  40 0008 BB1D     		adds	r3, r7, #6
  41 000a 1A80     		strh	r2, [r3]
 720:Generated_Source\PSoC6\pdl\cmsis/include/core_cm0plus.h ****   if ((int32_t)(IRQn) >= 0)
  42              		.loc 1 720 0
  43 000c BB1D     		adds	r3, r7, #6
  44 000e 0022     		movs	r2, #0
  45 0010 9B5E     		ldrsh	r3, [r3, r2]
  46 0012 002B     		cmp	r3, #0
  47 0014 09DB     		blt	.L3
 721:Generated_Source\PSoC6\pdl\cmsis/include/core_cm0plus.h ****   {
 722:Generated_Source\PSoC6\pdl\cmsis/include/core_cm0plus.h ****     NVIC->ISER[0U] = (uint32_t)(1UL << (((uint32_t)(int32_t)IRQn) & 0x1FUL));
  48              		.loc 1 722 0
  49 0016 074B     		ldr	r3, .L4
  50 0018 BA1D     		adds	r2, r7, #6
  51 001a 1288     		ldrh	r2, [r2]
  52 001c 1100     		movs	r1, r2
  53 001e 1F22     		movs	r2, #31
  54 0020 0A40     		ands	r2, r1
  55 0022 0121     		movs	r1, #1
  56 0024 9140     		lsls	r1, r1, r2
  57 0026 0A00     		movs	r2, r1
  58 0028 1A60     		str	r2, [r3]
  59              	.L3:
 723:Generated_Source\PSoC6\pdl\cmsis/include/core_cm0plus.h ****   }
 724:Generated_Source\PSoC6\pdl\cmsis/include/core_cm0plus.h **** }
  60              		.loc 1 724 0
  61 002a C046     		nop
  62 002c BD46     		mov	sp, r7
  63 002e 02B0     		add	sp, sp, #8
  64              		@ sp needed
  65 0030 80BD     		pop	{r7, pc}
  66              	.L5:
  67 0032 C046     		.align	2
  68              	.L4:
  69 0034 00E100E0 		.word	-536813312
  70              		.cfi_endproc
  71              	.LFE21:
  72              		.size	__NVIC_EnableIRQ, .-__NVIC_EnableIRQ
  73              		.section	.text.__NVIC_DisableIRQ,"ax",%progbits
  74              		.align	2
ARM GAS  C:\Users\salaz\AppData\Local\Temp\ccTAmJlP.s 			page 15


  75              		.code	16
  76              		.thumb_func
  77              		.type	__NVIC_DisableIRQ, %function
  78              	__NVIC_DisableIRQ:
  79              	.LFB23:
 725:Generated_Source\PSoC6\pdl\cmsis/include/core_cm0plus.h **** 
 726:Generated_Source\PSoC6\pdl\cmsis/include/core_cm0plus.h **** 
 727:Generated_Source\PSoC6\pdl\cmsis/include/core_cm0plus.h **** /**
 728:Generated_Source\PSoC6\pdl\cmsis/include/core_cm0plus.h ****   \brief   Get Interrupt Enable status
 729:Generated_Source\PSoC6\pdl\cmsis/include/core_cm0plus.h ****   \details Returns a device specific interrupt enable status from the NVIC interrupt controller.
 730:Generated_Source\PSoC6\pdl\cmsis/include/core_cm0plus.h ****   \param [in]      IRQn  Device specific interrupt number.
 731:Generated_Source\PSoC6\pdl\cmsis/include/core_cm0plus.h ****   \return             0  Interrupt is not enabled.
 732:Generated_Source\PSoC6\pdl\cmsis/include/core_cm0plus.h ****   \return             1  Interrupt is enabled.
 733:Generated_Source\PSoC6\pdl\cmsis/include/core_cm0plus.h ****   \note    IRQn must not be negative.
 734:Generated_Source\PSoC6\pdl\cmsis/include/core_cm0plus.h ****  */
 735:Generated_Source\PSoC6\pdl\cmsis/include/core_cm0plus.h **** __STATIC_INLINE uint32_t __NVIC_GetEnableIRQ(IRQn_Type IRQn)
 736:Generated_Source\PSoC6\pdl\cmsis/include/core_cm0plus.h **** {
 737:Generated_Source\PSoC6\pdl\cmsis/include/core_cm0plus.h ****   if ((int32_t)(IRQn) >= 0)
 738:Generated_Source\PSoC6\pdl\cmsis/include/core_cm0plus.h ****   {
 739:Generated_Source\PSoC6\pdl\cmsis/include/core_cm0plus.h ****     return((uint32_t)(((NVIC->ISER[0U] & (1UL << (((uint32_t)(int32_t)IRQn) & 0x1FUL))) != 0UL) ? 1
 740:Generated_Source\PSoC6\pdl\cmsis/include/core_cm0plus.h ****   }
 741:Generated_Source\PSoC6\pdl\cmsis/include/core_cm0plus.h ****   else
 742:Generated_Source\PSoC6\pdl\cmsis/include/core_cm0plus.h ****   {
 743:Generated_Source\PSoC6\pdl\cmsis/include/core_cm0plus.h ****     return(0U);
 744:Generated_Source\PSoC6\pdl\cmsis/include/core_cm0plus.h ****   }
 745:Generated_Source\PSoC6\pdl\cmsis/include/core_cm0plus.h **** }
 746:Generated_Source\PSoC6\pdl\cmsis/include/core_cm0plus.h **** 
 747:Generated_Source\PSoC6\pdl\cmsis/include/core_cm0plus.h **** 
 748:Generated_Source\PSoC6\pdl\cmsis/include/core_cm0plus.h **** /**
 749:Generated_Source\PSoC6\pdl\cmsis/include/core_cm0plus.h ****   \brief   Disable Interrupt
 750:Generated_Source\PSoC6\pdl\cmsis/include/core_cm0plus.h ****   \details Disables a device specific interrupt in the NVIC interrupt controller.
 751:Generated_Source\PSoC6\pdl\cmsis/include/core_cm0plus.h ****   \param [in]      IRQn  Device specific interrupt number.
 752:Generated_Source\PSoC6\pdl\cmsis/include/core_cm0plus.h ****   \note    IRQn must not be negative.
 753:Generated_Source\PSoC6\pdl\cmsis/include/core_cm0plus.h ****  */
 754:Generated_Source\PSoC6\pdl\cmsis/include/core_cm0plus.h **** __STATIC_INLINE void __NVIC_DisableIRQ(IRQn_Type IRQn)
 755:Generated_Source\PSoC6\pdl\cmsis/include/core_cm0plus.h **** {
  80              		.loc 1 755 0
  81              		.cfi_startproc
  82              		@ args = 0, pretend = 0, frame = 8
  83              		@ frame_needed = 1, uses_anonymous_args = 0
  84 0000 80B5     		push	{r7, lr}
  85              		.cfi_def_cfa_offset 8
  86              		.cfi_offset 7, -8
  87              		.cfi_offset 14, -4
  88 0002 82B0     		sub	sp, sp, #8
  89              		.cfi_def_cfa_offset 16
  90 0004 00AF     		add	r7, sp, #0
  91              		.cfi_def_cfa_register 7
  92 0006 0200     		movs	r2, r0
  93 0008 BB1D     		adds	r3, r7, #6
  94 000a 1A80     		strh	r2, [r3]
 756:Generated_Source\PSoC6\pdl\cmsis/include/core_cm0plus.h ****   if ((int32_t)(IRQn) >= 0)
  95              		.loc 1 756 0
  96 000c BB1D     		adds	r3, r7, #6
  97 000e 0022     		movs	r2, #0
  98 0010 9B5E     		ldrsh	r3, [r3, r2]
  99 0012 002B     		cmp	r3, #0
ARM GAS  C:\Users\salaz\AppData\Local\Temp\ccTAmJlP.s 			page 16


 100 0014 0EDB     		blt	.L8
 757:Generated_Source\PSoC6\pdl\cmsis/include/core_cm0plus.h ****   {
 758:Generated_Source\PSoC6\pdl\cmsis/include/core_cm0plus.h ****     NVIC->ICER[0U] = (uint32_t)(1UL << (((uint32_t)(int32_t)IRQn) & 0x1FUL));
 101              		.loc 1 758 0
 102 0016 0949     		ldr	r1, .L9
 103 0018 BB1D     		adds	r3, r7, #6
 104 001a 1B88     		ldrh	r3, [r3]
 105 001c 1A00     		movs	r2, r3
 106 001e 1F23     		movs	r3, #31
 107 0020 1340     		ands	r3, r2
 108 0022 0122     		movs	r2, #1
 109 0024 9A40     		lsls	r2, r2, r3
 110 0026 1300     		movs	r3, r2
 111 0028 8022     		movs	r2, #128
 112 002a 8B50     		str	r3, [r1, r2]
 113              	.LBB6:
 114              	.LBB7:
 115              		.file 2 "Generated_Source\\PSoC6\\pdl\\cmsis/include/cmsis_gcc.h"
   1:Generated_Source\PSoC6\pdl\cmsis/include/cmsis_gcc.h **** /**************************************************************************//**
   2:Generated_Source\PSoC6\pdl\cmsis/include/cmsis_gcc.h ****  * @file     cmsis_gcc.h
   3:Generated_Source\PSoC6\pdl\cmsis/include/cmsis_gcc.h ****  * @brief    CMSIS compiler GCC header file
   4:Generated_Source\PSoC6\pdl\cmsis/include/cmsis_gcc.h ****  * @version  V5.0.1
   5:Generated_Source\PSoC6\pdl\cmsis/include/cmsis_gcc.h ****  * @date     02. February 2017
   6:Generated_Source\PSoC6\pdl\cmsis/include/cmsis_gcc.h ****  ******************************************************************************/
   7:Generated_Source\PSoC6\pdl\cmsis/include/cmsis_gcc.h **** /*
   8:Generated_Source\PSoC6\pdl\cmsis/include/cmsis_gcc.h ****  * Copyright (c) 2009-2017 ARM Limited. All rights reserved.
   9:Generated_Source\PSoC6\pdl\cmsis/include/cmsis_gcc.h ****  *
  10:Generated_Source\PSoC6\pdl\cmsis/include/cmsis_gcc.h ****  * SPDX-License-Identifier: Apache-2.0
  11:Generated_Source\PSoC6\pdl\cmsis/include/cmsis_gcc.h ****  *
  12:Generated_Source\PSoC6\pdl\cmsis/include/cmsis_gcc.h ****  * Licensed under the Apache License, Version 2.0 (the License); you may
  13:Generated_Source\PSoC6\pdl\cmsis/include/cmsis_gcc.h ****  * not use this file except in compliance with the License.
  14:Generated_Source\PSoC6\pdl\cmsis/include/cmsis_gcc.h ****  * You may obtain a copy of the License at
  15:Generated_Source\PSoC6\pdl\cmsis/include/cmsis_gcc.h ****  *
  16:Generated_Source\PSoC6\pdl\cmsis/include/cmsis_gcc.h ****  * www.apache.org/licenses/LICENSE-2.0
  17:Generated_Source\PSoC6\pdl\cmsis/include/cmsis_gcc.h ****  *
  18:Generated_Source\PSoC6\pdl\cmsis/include/cmsis_gcc.h ****  * Unless required by applicable law or agreed to in writing, software
  19:Generated_Source\PSoC6\pdl\cmsis/include/cmsis_gcc.h ****  * distributed under the License is distributed on an AS IS BASIS, WITHOUT
  20:Generated_Source\PSoC6\pdl\cmsis/include/cmsis_gcc.h ****  * WARRANTIES OR CONDITIONS OF ANY KIND, either express or implied.
  21:Generated_Source\PSoC6\pdl\cmsis/include/cmsis_gcc.h ****  * See the License for the specific language governing permissions and
  22:Generated_Source\PSoC6\pdl\cmsis/include/cmsis_gcc.h ****  * limitations under the License.
  23:Generated_Source\PSoC6\pdl\cmsis/include/cmsis_gcc.h ****  */
  24:Generated_Source\PSoC6\pdl\cmsis/include/cmsis_gcc.h **** 
  25:Generated_Source\PSoC6\pdl\cmsis/include/cmsis_gcc.h **** #ifndef __CMSIS_GCC_H
  26:Generated_Source\PSoC6\pdl\cmsis/include/cmsis_gcc.h **** #define __CMSIS_GCC_H
  27:Generated_Source\PSoC6\pdl\cmsis/include/cmsis_gcc.h **** 
  28:Generated_Source\PSoC6\pdl\cmsis/include/cmsis_gcc.h **** /* ignore some GCC warnings */
  29:Generated_Source\PSoC6\pdl\cmsis/include/cmsis_gcc.h **** #pragma GCC diagnostic push
  30:Generated_Source\PSoC6\pdl\cmsis/include/cmsis_gcc.h **** #pragma GCC diagnostic ignored "-Wsign-conversion"
  31:Generated_Source\PSoC6\pdl\cmsis/include/cmsis_gcc.h **** #pragma GCC diagnostic ignored "-Wconversion"
  32:Generated_Source\PSoC6\pdl\cmsis/include/cmsis_gcc.h **** #pragma GCC diagnostic ignored "-Wunused-parameter"
  33:Generated_Source\PSoC6\pdl\cmsis/include/cmsis_gcc.h **** 
  34:Generated_Source\PSoC6\pdl\cmsis/include/cmsis_gcc.h **** /* CMSIS compiler specific defines */
  35:Generated_Source\PSoC6\pdl\cmsis/include/cmsis_gcc.h **** #ifndef   __ASM
  36:Generated_Source\PSoC6\pdl\cmsis/include/cmsis_gcc.h ****   #define __ASM                     __asm
  37:Generated_Source\PSoC6\pdl\cmsis/include/cmsis_gcc.h **** #endif
  38:Generated_Source\PSoC6\pdl\cmsis/include/cmsis_gcc.h **** #ifndef   __INLINE
  39:Generated_Source\PSoC6\pdl\cmsis/include/cmsis_gcc.h ****   #define __INLINE                  inline
ARM GAS  C:\Users\salaz\AppData\Local\Temp\ccTAmJlP.s 			page 17


  40:Generated_Source\PSoC6\pdl\cmsis/include/cmsis_gcc.h **** #endif
  41:Generated_Source\PSoC6\pdl\cmsis/include/cmsis_gcc.h **** #ifndef   __STATIC_INLINE
  42:Generated_Source\PSoC6\pdl\cmsis/include/cmsis_gcc.h ****   #define __STATIC_INLINE           static inline
  43:Generated_Source\PSoC6\pdl\cmsis/include/cmsis_gcc.h **** #endif
  44:Generated_Source\PSoC6\pdl\cmsis/include/cmsis_gcc.h **** #ifndef   __NO_RETURN
  45:Generated_Source\PSoC6\pdl\cmsis/include/cmsis_gcc.h ****   #define __NO_RETURN               __attribute__((noreturn))
  46:Generated_Source\PSoC6\pdl\cmsis/include/cmsis_gcc.h **** #endif
  47:Generated_Source\PSoC6\pdl\cmsis/include/cmsis_gcc.h **** #ifndef   __USED
  48:Generated_Source\PSoC6\pdl\cmsis/include/cmsis_gcc.h ****   #define __USED                    __attribute__((used))
  49:Generated_Source\PSoC6\pdl\cmsis/include/cmsis_gcc.h **** #endif
  50:Generated_Source\PSoC6\pdl\cmsis/include/cmsis_gcc.h **** #ifndef   __WEAK
  51:Generated_Source\PSoC6\pdl\cmsis/include/cmsis_gcc.h ****   #define __WEAK                    __attribute__((weak))
  52:Generated_Source\PSoC6\pdl\cmsis/include/cmsis_gcc.h **** #endif
  53:Generated_Source\PSoC6\pdl\cmsis/include/cmsis_gcc.h **** #ifndef   __UNALIGNED_UINT32
  54:Generated_Source\PSoC6\pdl\cmsis/include/cmsis_gcc.h **** #pragma GCC diagnostic push
  55:Generated_Source\PSoC6\pdl\cmsis/include/cmsis_gcc.h **** #pragma GCC diagnostic ignored "-Wpacked"
  56:Generated_Source\PSoC6\pdl\cmsis/include/cmsis_gcc.h **** #pragma GCC diagnostic ignored "-Wattributes"
  57:Generated_Source\PSoC6\pdl\cmsis/include/cmsis_gcc.h ****   struct __attribute__((packed)) T_UINT32 { uint32_t v; };
  58:Generated_Source\PSoC6\pdl\cmsis/include/cmsis_gcc.h **** #pragma GCC diagnostic pop
  59:Generated_Source\PSoC6\pdl\cmsis/include/cmsis_gcc.h ****   #define __UNALIGNED_UINT32(x)     (((struct T_UINT32 *)(x))->v)
  60:Generated_Source\PSoC6\pdl\cmsis/include/cmsis_gcc.h **** #endif
  61:Generated_Source\PSoC6\pdl\cmsis/include/cmsis_gcc.h **** #ifndef   __ALIGNED
  62:Generated_Source\PSoC6\pdl\cmsis/include/cmsis_gcc.h ****   #define __ALIGNED(x)              __attribute__((aligned(x)))
  63:Generated_Source\PSoC6\pdl\cmsis/include/cmsis_gcc.h **** #endif
  64:Generated_Source\PSoC6\pdl\cmsis/include/cmsis_gcc.h **** #ifndef   __PACKED
  65:Generated_Source\PSoC6\pdl\cmsis/include/cmsis_gcc.h ****   #define __PACKED                  __attribute__((packed, aligned(1)))
  66:Generated_Source\PSoC6\pdl\cmsis/include/cmsis_gcc.h **** #endif
  67:Generated_Source\PSoC6\pdl\cmsis/include/cmsis_gcc.h **** #ifndef   __PACKED_STRUCT
  68:Generated_Source\PSoC6\pdl\cmsis/include/cmsis_gcc.h ****   #define __PACKED_STRUCT           struct __attribute__((packed, aligned(1)))
  69:Generated_Source\PSoC6\pdl\cmsis/include/cmsis_gcc.h **** #endif
  70:Generated_Source\PSoC6\pdl\cmsis/include/cmsis_gcc.h **** 
  71:Generated_Source\PSoC6\pdl\cmsis/include/cmsis_gcc.h **** 
  72:Generated_Source\PSoC6\pdl\cmsis/include/cmsis_gcc.h **** /* ###########################  Core Function Access  ########################### */
  73:Generated_Source\PSoC6\pdl\cmsis/include/cmsis_gcc.h **** /** \ingroup  CMSIS_Core_FunctionInterface
  74:Generated_Source\PSoC6\pdl\cmsis/include/cmsis_gcc.h ****     \defgroup CMSIS_Core_RegAccFunctions CMSIS Core Register Access Functions
  75:Generated_Source\PSoC6\pdl\cmsis/include/cmsis_gcc.h ****   @{
  76:Generated_Source\PSoC6\pdl\cmsis/include/cmsis_gcc.h ****  */
  77:Generated_Source\PSoC6\pdl\cmsis/include/cmsis_gcc.h **** 
  78:Generated_Source\PSoC6\pdl\cmsis/include/cmsis_gcc.h **** /**
  79:Generated_Source\PSoC6\pdl\cmsis/include/cmsis_gcc.h ****   \brief   Enable IRQ Interrupts
  80:Generated_Source\PSoC6\pdl\cmsis/include/cmsis_gcc.h ****   \details Enables IRQ interrupts by clearing the I-bit in the CPSR.
  81:Generated_Source\PSoC6\pdl\cmsis/include/cmsis_gcc.h ****            Can only be executed in Privileged modes.
  82:Generated_Source\PSoC6\pdl\cmsis/include/cmsis_gcc.h ****  */
  83:Generated_Source\PSoC6\pdl\cmsis/include/cmsis_gcc.h **** __attribute__((always_inline)) __STATIC_INLINE void __enable_irq(void)
  84:Generated_Source\PSoC6\pdl\cmsis/include/cmsis_gcc.h **** {
  85:Generated_Source\PSoC6\pdl\cmsis/include/cmsis_gcc.h ****   __ASM volatile ("cpsie i" : : : "memory");
  86:Generated_Source\PSoC6\pdl\cmsis/include/cmsis_gcc.h **** }
  87:Generated_Source\PSoC6\pdl\cmsis/include/cmsis_gcc.h **** 
  88:Generated_Source\PSoC6\pdl\cmsis/include/cmsis_gcc.h **** 
  89:Generated_Source\PSoC6\pdl\cmsis/include/cmsis_gcc.h **** /**
  90:Generated_Source\PSoC6\pdl\cmsis/include/cmsis_gcc.h ****   \brief   Disable IRQ Interrupts
  91:Generated_Source\PSoC6\pdl\cmsis/include/cmsis_gcc.h ****   \details Disables IRQ interrupts by setting the I-bit in the CPSR.
  92:Generated_Source\PSoC6\pdl\cmsis/include/cmsis_gcc.h ****            Can only be executed in Privileged modes.
  93:Generated_Source\PSoC6\pdl\cmsis/include/cmsis_gcc.h ****  */
  94:Generated_Source\PSoC6\pdl\cmsis/include/cmsis_gcc.h **** __attribute__((always_inline)) __STATIC_INLINE void __disable_irq(void)
  95:Generated_Source\PSoC6\pdl\cmsis/include/cmsis_gcc.h **** {
  96:Generated_Source\PSoC6\pdl\cmsis/include/cmsis_gcc.h ****   __ASM volatile ("cpsid i" : : : "memory");
ARM GAS  C:\Users\salaz\AppData\Local\Temp\ccTAmJlP.s 			page 18


  97:Generated_Source\PSoC6\pdl\cmsis/include/cmsis_gcc.h **** }
  98:Generated_Source\PSoC6\pdl\cmsis/include/cmsis_gcc.h **** 
  99:Generated_Source\PSoC6\pdl\cmsis/include/cmsis_gcc.h **** 
 100:Generated_Source\PSoC6\pdl\cmsis/include/cmsis_gcc.h **** /**
 101:Generated_Source\PSoC6\pdl\cmsis/include/cmsis_gcc.h ****   \brief   Get Control Register
 102:Generated_Source\PSoC6\pdl\cmsis/include/cmsis_gcc.h ****   \details Returns the content of the Control Register.
 103:Generated_Source\PSoC6\pdl\cmsis/include/cmsis_gcc.h ****   \return               Control Register value
 104:Generated_Source\PSoC6\pdl\cmsis/include/cmsis_gcc.h ****  */
 105:Generated_Source\PSoC6\pdl\cmsis/include/cmsis_gcc.h **** __attribute__((always_inline)) __STATIC_INLINE uint32_t __get_CONTROL(void)
 106:Generated_Source\PSoC6\pdl\cmsis/include/cmsis_gcc.h **** {
 107:Generated_Source\PSoC6\pdl\cmsis/include/cmsis_gcc.h ****   uint32_t result;
 108:Generated_Source\PSoC6\pdl\cmsis/include/cmsis_gcc.h **** 
 109:Generated_Source\PSoC6\pdl\cmsis/include/cmsis_gcc.h ****   __ASM volatile ("MRS %0, control" : "=r" (result) );
 110:Generated_Source\PSoC6\pdl\cmsis/include/cmsis_gcc.h ****   return(result);
 111:Generated_Source\PSoC6\pdl\cmsis/include/cmsis_gcc.h **** }
 112:Generated_Source\PSoC6\pdl\cmsis/include/cmsis_gcc.h **** 
 113:Generated_Source\PSoC6\pdl\cmsis/include/cmsis_gcc.h **** 
 114:Generated_Source\PSoC6\pdl\cmsis/include/cmsis_gcc.h **** #if (defined (__ARM_FEATURE_CMSE ) && (__ARM_FEATURE_CMSE == 3))
 115:Generated_Source\PSoC6\pdl\cmsis/include/cmsis_gcc.h **** /**
 116:Generated_Source\PSoC6\pdl\cmsis/include/cmsis_gcc.h ****   \brief   Get Control Register (non-secure)
 117:Generated_Source\PSoC6\pdl\cmsis/include/cmsis_gcc.h ****   \details Returns the content of the non-secure Control Register when in secure mode.
 118:Generated_Source\PSoC6\pdl\cmsis/include/cmsis_gcc.h ****   \return               non-secure Control Register value
 119:Generated_Source\PSoC6\pdl\cmsis/include/cmsis_gcc.h ****  */
 120:Generated_Source\PSoC6\pdl\cmsis/include/cmsis_gcc.h **** __attribute__((always_inline)) __STATIC_INLINE uint32_t __TZ_get_CONTROL_NS(void)
 121:Generated_Source\PSoC6\pdl\cmsis/include/cmsis_gcc.h **** {
 122:Generated_Source\PSoC6\pdl\cmsis/include/cmsis_gcc.h ****   uint32_t result;
 123:Generated_Source\PSoC6\pdl\cmsis/include/cmsis_gcc.h **** 
 124:Generated_Source\PSoC6\pdl\cmsis/include/cmsis_gcc.h ****   __ASM volatile ("MRS %0, control_ns" : "=r" (result) );
 125:Generated_Source\PSoC6\pdl\cmsis/include/cmsis_gcc.h ****   return(result);
 126:Generated_Source\PSoC6\pdl\cmsis/include/cmsis_gcc.h **** }
 127:Generated_Source\PSoC6\pdl\cmsis/include/cmsis_gcc.h **** #endif
 128:Generated_Source\PSoC6\pdl\cmsis/include/cmsis_gcc.h **** 
 129:Generated_Source\PSoC6\pdl\cmsis/include/cmsis_gcc.h **** 
 130:Generated_Source\PSoC6\pdl\cmsis/include/cmsis_gcc.h **** /**
 131:Generated_Source\PSoC6\pdl\cmsis/include/cmsis_gcc.h ****   \brief   Set Control Register
 132:Generated_Source\PSoC6\pdl\cmsis/include/cmsis_gcc.h ****   \details Writes the given value to the Control Register.
 133:Generated_Source\PSoC6\pdl\cmsis/include/cmsis_gcc.h ****   \param [in]    control  Control Register value to set
 134:Generated_Source\PSoC6\pdl\cmsis/include/cmsis_gcc.h ****  */
 135:Generated_Source\PSoC6\pdl\cmsis/include/cmsis_gcc.h **** __attribute__((always_inline)) __STATIC_INLINE void __set_CONTROL(uint32_t control)
 136:Generated_Source\PSoC6\pdl\cmsis/include/cmsis_gcc.h **** {
 137:Generated_Source\PSoC6\pdl\cmsis/include/cmsis_gcc.h ****   __ASM volatile ("MSR control, %0" : : "r" (control) : "memory");
 138:Generated_Source\PSoC6\pdl\cmsis/include/cmsis_gcc.h **** }
 139:Generated_Source\PSoC6\pdl\cmsis/include/cmsis_gcc.h **** 
 140:Generated_Source\PSoC6\pdl\cmsis/include/cmsis_gcc.h **** 
 141:Generated_Source\PSoC6\pdl\cmsis/include/cmsis_gcc.h **** #if (defined (__ARM_FEATURE_CMSE ) && (__ARM_FEATURE_CMSE == 3))
 142:Generated_Source\PSoC6\pdl\cmsis/include/cmsis_gcc.h **** /**
 143:Generated_Source\PSoC6\pdl\cmsis/include/cmsis_gcc.h ****   \brief   Set Control Register (non-secure)
 144:Generated_Source\PSoC6\pdl\cmsis/include/cmsis_gcc.h ****   \details Writes the given value to the non-secure Control Register when in secure state.
 145:Generated_Source\PSoC6\pdl\cmsis/include/cmsis_gcc.h ****   \param [in]    control  Control Register value to set
 146:Generated_Source\PSoC6\pdl\cmsis/include/cmsis_gcc.h ****  */
 147:Generated_Source\PSoC6\pdl\cmsis/include/cmsis_gcc.h **** __attribute__((always_inline)) __STATIC_INLINE void __TZ_set_CONTROL_NS(uint32_t control)
 148:Generated_Source\PSoC6\pdl\cmsis/include/cmsis_gcc.h **** {
 149:Generated_Source\PSoC6\pdl\cmsis/include/cmsis_gcc.h ****   __ASM volatile ("MSR control_ns, %0" : : "r" (control) : "memory");
 150:Generated_Source\PSoC6\pdl\cmsis/include/cmsis_gcc.h **** }
 151:Generated_Source\PSoC6\pdl\cmsis/include/cmsis_gcc.h **** #endif
 152:Generated_Source\PSoC6\pdl\cmsis/include/cmsis_gcc.h **** 
 153:Generated_Source\PSoC6\pdl\cmsis/include/cmsis_gcc.h **** 
ARM GAS  C:\Users\salaz\AppData\Local\Temp\ccTAmJlP.s 			page 19


 154:Generated_Source\PSoC6\pdl\cmsis/include/cmsis_gcc.h **** /**
 155:Generated_Source\PSoC6\pdl\cmsis/include/cmsis_gcc.h ****   \brief   Get IPSR Register
 156:Generated_Source\PSoC6\pdl\cmsis/include/cmsis_gcc.h ****   \details Returns the content of the IPSR Register.
 157:Generated_Source\PSoC6\pdl\cmsis/include/cmsis_gcc.h ****   \return               IPSR Register value
 158:Generated_Source\PSoC6\pdl\cmsis/include/cmsis_gcc.h ****  */
 159:Generated_Source\PSoC6\pdl\cmsis/include/cmsis_gcc.h **** __attribute__((always_inline)) __STATIC_INLINE uint32_t __get_IPSR(void)
 160:Generated_Source\PSoC6\pdl\cmsis/include/cmsis_gcc.h **** {
 161:Generated_Source\PSoC6\pdl\cmsis/include/cmsis_gcc.h ****   uint32_t result;
 162:Generated_Source\PSoC6\pdl\cmsis/include/cmsis_gcc.h **** 
 163:Generated_Source\PSoC6\pdl\cmsis/include/cmsis_gcc.h ****   __ASM volatile ("MRS %0, ipsr" : "=r" (result) );
 164:Generated_Source\PSoC6\pdl\cmsis/include/cmsis_gcc.h ****   return(result);
 165:Generated_Source\PSoC6\pdl\cmsis/include/cmsis_gcc.h **** }
 166:Generated_Source\PSoC6\pdl\cmsis/include/cmsis_gcc.h **** 
 167:Generated_Source\PSoC6\pdl\cmsis/include/cmsis_gcc.h **** 
 168:Generated_Source\PSoC6\pdl\cmsis/include/cmsis_gcc.h **** /**
 169:Generated_Source\PSoC6\pdl\cmsis/include/cmsis_gcc.h ****   \brief   Get APSR Register
 170:Generated_Source\PSoC6\pdl\cmsis/include/cmsis_gcc.h ****   \details Returns the content of the APSR Register.
 171:Generated_Source\PSoC6\pdl\cmsis/include/cmsis_gcc.h ****   \return               APSR Register value
 172:Generated_Source\PSoC6\pdl\cmsis/include/cmsis_gcc.h ****  */
 173:Generated_Source\PSoC6\pdl\cmsis/include/cmsis_gcc.h **** __attribute__((always_inline)) __STATIC_INLINE uint32_t __get_APSR(void)
 174:Generated_Source\PSoC6\pdl\cmsis/include/cmsis_gcc.h **** {
 175:Generated_Source\PSoC6\pdl\cmsis/include/cmsis_gcc.h ****   uint32_t result;
 176:Generated_Source\PSoC6\pdl\cmsis/include/cmsis_gcc.h **** 
 177:Generated_Source\PSoC6\pdl\cmsis/include/cmsis_gcc.h ****   __ASM volatile ("MRS %0, apsr" : "=r" (result) );
 178:Generated_Source\PSoC6\pdl\cmsis/include/cmsis_gcc.h ****   return(result);
 179:Generated_Source\PSoC6\pdl\cmsis/include/cmsis_gcc.h **** }
 180:Generated_Source\PSoC6\pdl\cmsis/include/cmsis_gcc.h **** 
 181:Generated_Source\PSoC6\pdl\cmsis/include/cmsis_gcc.h **** 
 182:Generated_Source\PSoC6\pdl\cmsis/include/cmsis_gcc.h **** /**
 183:Generated_Source\PSoC6\pdl\cmsis/include/cmsis_gcc.h ****   \brief   Get xPSR Register
 184:Generated_Source\PSoC6\pdl\cmsis/include/cmsis_gcc.h ****   \details Returns the content of the xPSR Register.
 185:Generated_Source\PSoC6\pdl\cmsis/include/cmsis_gcc.h ****   \return               xPSR Register value
 186:Generated_Source\PSoC6\pdl\cmsis/include/cmsis_gcc.h ****  */
 187:Generated_Source\PSoC6\pdl\cmsis/include/cmsis_gcc.h **** __attribute__((always_inline)) __STATIC_INLINE uint32_t __get_xPSR(void)
 188:Generated_Source\PSoC6\pdl\cmsis/include/cmsis_gcc.h **** {
 189:Generated_Source\PSoC6\pdl\cmsis/include/cmsis_gcc.h ****   uint32_t result;
 190:Generated_Source\PSoC6\pdl\cmsis/include/cmsis_gcc.h **** 
 191:Generated_Source\PSoC6\pdl\cmsis/include/cmsis_gcc.h ****   __ASM volatile ("MRS %0, xpsr" : "=r" (result) );
 192:Generated_Source\PSoC6\pdl\cmsis/include/cmsis_gcc.h ****   return(result);
 193:Generated_Source\PSoC6\pdl\cmsis/include/cmsis_gcc.h **** }
 194:Generated_Source\PSoC6\pdl\cmsis/include/cmsis_gcc.h **** 
 195:Generated_Source\PSoC6\pdl\cmsis/include/cmsis_gcc.h **** 
 196:Generated_Source\PSoC6\pdl\cmsis/include/cmsis_gcc.h **** /**
 197:Generated_Source\PSoC6\pdl\cmsis/include/cmsis_gcc.h ****   \brief   Get Process Stack Pointer
 198:Generated_Source\PSoC6\pdl\cmsis/include/cmsis_gcc.h ****   \details Returns the current value of the Process Stack Pointer (PSP).
 199:Generated_Source\PSoC6\pdl\cmsis/include/cmsis_gcc.h ****   \return               PSP Register value
 200:Generated_Source\PSoC6\pdl\cmsis/include/cmsis_gcc.h ****  */
 201:Generated_Source\PSoC6\pdl\cmsis/include/cmsis_gcc.h **** __attribute__((always_inline)) __STATIC_INLINE uint32_t __get_PSP(void)
 202:Generated_Source\PSoC6\pdl\cmsis/include/cmsis_gcc.h **** {
 203:Generated_Source\PSoC6\pdl\cmsis/include/cmsis_gcc.h ****   register uint32_t result;
 204:Generated_Source\PSoC6\pdl\cmsis/include/cmsis_gcc.h **** 
 205:Generated_Source\PSoC6\pdl\cmsis/include/cmsis_gcc.h ****   __ASM volatile ("MRS %0, psp"  : "=r" (result) );
 206:Generated_Source\PSoC6\pdl\cmsis/include/cmsis_gcc.h ****   return(result);
 207:Generated_Source\PSoC6\pdl\cmsis/include/cmsis_gcc.h **** }
 208:Generated_Source\PSoC6\pdl\cmsis/include/cmsis_gcc.h **** 
 209:Generated_Source\PSoC6\pdl\cmsis/include/cmsis_gcc.h **** 
 210:Generated_Source\PSoC6\pdl\cmsis/include/cmsis_gcc.h **** #if (defined (__ARM_FEATURE_CMSE ) && (__ARM_FEATURE_CMSE == 3))
ARM GAS  C:\Users\salaz\AppData\Local\Temp\ccTAmJlP.s 			page 20


 211:Generated_Source\PSoC6\pdl\cmsis/include/cmsis_gcc.h **** /**
 212:Generated_Source\PSoC6\pdl\cmsis/include/cmsis_gcc.h ****   \brief   Get Process Stack Pointer (non-secure)
 213:Generated_Source\PSoC6\pdl\cmsis/include/cmsis_gcc.h ****   \details Returns the current value of the non-secure Process Stack Pointer (PSP) when in secure s
 214:Generated_Source\PSoC6\pdl\cmsis/include/cmsis_gcc.h ****   \return               PSP Register value
 215:Generated_Source\PSoC6\pdl\cmsis/include/cmsis_gcc.h ****  */
 216:Generated_Source\PSoC6\pdl\cmsis/include/cmsis_gcc.h **** __attribute__((always_inline)) __STATIC_INLINE uint32_t __TZ_get_PSP_NS(void)
 217:Generated_Source\PSoC6\pdl\cmsis/include/cmsis_gcc.h **** {
 218:Generated_Source\PSoC6\pdl\cmsis/include/cmsis_gcc.h ****   register uint32_t result;
 219:Generated_Source\PSoC6\pdl\cmsis/include/cmsis_gcc.h **** 
 220:Generated_Source\PSoC6\pdl\cmsis/include/cmsis_gcc.h ****   __ASM volatile ("MRS %0, psp_ns"  : "=r" (result) );
 221:Generated_Source\PSoC6\pdl\cmsis/include/cmsis_gcc.h ****   return(result);
 222:Generated_Source\PSoC6\pdl\cmsis/include/cmsis_gcc.h **** }
 223:Generated_Source\PSoC6\pdl\cmsis/include/cmsis_gcc.h **** #endif
 224:Generated_Source\PSoC6\pdl\cmsis/include/cmsis_gcc.h **** 
 225:Generated_Source\PSoC6\pdl\cmsis/include/cmsis_gcc.h **** 
 226:Generated_Source\PSoC6\pdl\cmsis/include/cmsis_gcc.h **** /**
 227:Generated_Source\PSoC6\pdl\cmsis/include/cmsis_gcc.h ****   \brief   Set Process Stack Pointer
 228:Generated_Source\PSoC6\pdl\cmsis/include/cmsis_gcc.h ****   \details Assigns the given value to the Process Stack Pointer (PSP).
 229:Generated_Source\PSoC6\pdl\cmsis/include/cmsis_gcc.h ****   \param [in]    topOfProcStack  Process Stack Pointer value to set
 230:Generated_Source\PSoC6\pdl\cmsis/include/cmsis_gcc.h ****  */
 231:Generated_Source\PSoC6\pdl\cmsis/include/cmsis_gcc.h **** __attribute__((always_inline)) __STATIC_INLINE void __set_PSP(uint32_t topOfProcStack)
 232:Generated_Source\PSoC6\pdl\cmsis/include/cmsis_gcc.h **** {
 233:Generated_Source\PSoC6\pdl\cmsis/include/cmsis_gcc.h ****   __ASM volatile ("MSR psp, %0" : : "r" (topOfProcStack) : );
 234:Generated_Source\PSoC6\pdl\cmsis/include/cmsis_gcc.h **** }
 235:Generated_Source\PSoC6\pdl\cmsis/include/cmsis_gcc.h **** 
 236:Generated_Source\PSoC6\pdl\cmsis/include/cmsis_gcc.h **** 
 237:Generated_Source\PSoC6\pdl\cmsis/include/cmsis_gcc.h **** #if (defined (__ARM_FEATURE_CMSE ) && (__ARM_FEATURE_CMSE == 3))
 238:Generated_Source\PSoC6\pdl\cmsis/include/cmsis_gcc.h **** /**
 239:Generated_Source\PSoC6\pdl\cmsis/include/cmsis_gcc.h ****   \brief   Set Process Stack Pointer (non-secure)
 240:Generated_Source\PSoC6\pdl\cmsis/include/cmsis_gcc.h ****   \details Assigns the given value to the non-secure Process Stack Pointer (PSP) when in secure sta
 241:Generated_Source\PSoC6\pdl\cmsis/include/cmsis_gcc.h ****   \param [in]    topOfProcStack  Process Stack Pointer value to set
 242:Generated_Source\PSoC6\pdl\cmsis/include/cmsis_gcc.h ****  */
 243:Generated_Source\PSoC6\pdl\cmsis/include/cmsis_gcc.h **** __attribute__((always_inline)) __STATIC_INLINE void __TZ_set_PSP_NS(uint32_t topOfProcStack)
 244:Generated_Source\PSoC6\pdl\cmsis/include/cmsis_gcc.h **** {
 245:Generated_Source\PSoC6\pdl\cmsis/include/cmsis_gcc.h ****   __ASM volatile ("MSR psp_ns, %0" : : "r" (topOfProcStack) : );
 246:Generated_Source\PSoC6\pdl\cmsis/include/cmsis_gcc.h **** }
 247:Generated_Source\PSoC6\pdl\cmsis/include/cmsis_gcc.h **** #endif
 248:Generated_Source\PSoC6\pdl\cmsis/include/cmsis_gcc.h **** 
 249:Generated_Source\PSoC6\pdl\cmsis/include/cmsis_gcc.h **** 
 250:Generated_Source\PSoC6\pdl\cmsis/include/cmsis_gcc.h **** /**
 251:Generated_Source\PSoC6\pdl\cmsis/include/cmsis_gcc.h ****   \brief   Get Main Stack Pointer
 252:Generated_Source\PSoC6\pdl\cmsis/include/cmsis_gcc.h ****   \details Returns the current value of the Main Stack Pointer (MSP).
 253:Generated_Source\PSoC6\pdl\cmsis/include/cmsis_gcc.h ****   \return               MSP Register value
 254:Generated_Source\PSoC6\pdl\cmsis/include/cmsis_gcc.h ****  */
 255:Generated_Source\PSoC6\pdl\cmsis/include/cmsis_gcc.h **** __attribute__((always_inline)) __STATIC_INLINE uint32_t __get_MSP(void)
 256:Generated_Source\PSoC6\pdl\cmsis/include/cmsis_gcc.h **** {
 257:Generated_Source\PSoC6\pdl\cmsis/include/cmsis_gcc.h ****   register uint32_t result;
 258:Generated_Source\PSoC6\pdl\cmsis/include/cmsis_gcc.h **** 
 259:Generated_Source\PSoC6\pdl\cmsis/include/cmsis_gcc.h ****   __ASM volatile ("MRS %0, msp" : "=r" (result) );
 260:Generated_Source\PSoC6\pdl\cmsis/include/cmsis_gcc.h ****   return(result);
 261:Generated_Source\PSoC6\pdl\cmsis/include/cmsis_gcc.h **** }
 262:Generated_Source\PSoC6\pdl\cmsis/include/cmsis_gcc.h **** 
 263:Generated_Source\PSoC6\pdl\cmsis/include/cmsis_gcc.h **** 
 264:Generated_Source\PSoC6\pdl\cmsis/include/cmsis_gcc.h **** #if (defined (__ARM_FEATURE_CMSE ) && (__ARM_FEATURE_CMSE == 3))
 265:Generated_Source\PSoC6\pdl\cmsis/include/cmsis_gcc.h **** /**
 266:Generated_Source\PSoC6\pdl\cmsis/include/cmsis_gcc.h ****   \brief   Get Main Stack Pointer (non-secure)
 267:Generated_Source\PSoC6\pdl\cmsis/include/cmsis_gcc.h ****   \details Returns the current value of the non-secure Main Stack Pointer (MSP) when in secure stat
ARM GAS  C:\Users\salaz\AppData\Local\Temp\ccTAmJlP.s 			page 21


 268:Generated_Source\PSoC6\pdl\cmsis/include/cmsis_gcc.h ****   \return               MSP Register value
 269:Generated_Source\PSoC6\pdl\cmsis/include/cmsis_gcc.h ****  */
 270:Generated_Source\PSoC6\pdl\cmsis/include/cmsis_gcc.h **** __attribute__((always_inline)) __STATIC_INLINE uint32_t __TZ_get_MSP_NS(void)
 271:Generated_Source\PSoC6\pdl\cmsis/include/cmsis_gcc.h **** {
 272:Generated_Source\PSoC6\pdl\cmsis/include/cmsis_gcc.h ****   register uint32_t result;
 273:Generated_Source\PSoC6\pdl\cmsis/include/cmsis_gcc.h **** 
 274:Generated_Source\PSoC6\pdl\cmsis/include/cmsis_gcc.h ****   __ASM volatile ("MRS %0, msp_ns" : "=r" (result) );
 275:Generated_Source\PSoC6\pdl\cmsis/include/cmsis_gcc.h ****   return(result);
 276:Generated_Source\PSoC6\pdl\cmsis/include/cmsis_gcc.h **** }
 277:Generated_Source\PSoC6\pdl\cmsis/include/cmsis_gcc.h **** #endif
 278:Generated_Source\PSoC6\pdl\cmsis/include/cmsis_gcc.h **** 
 279:Generated_Source\PSoC6\pdl\cmsis/include/cmsis_gcc.h **** 
 280:Generated_Source\PSoC6\pdl\cmsis/include/cmsis_gcc.h **** /**
 281:Generated_Source\PSoC6\pdl\cmsis/include/cmsis_gcc.h ****   \brief   Set Main Stack Pointer
 282:Generated_Source\PSoC6\pdl\cmsis/include/cmsis_gcc.h ****   \details Assigns the given value to the Main Stack Pointer (MSP).
 283:Generated_Source\PSoC6\pdl\cmsis/include/cmsis_gcc.h ****   \param [in]    topOfMainStack  Main Stack Pointer value to set
 284:Generated_Source\PSoC6\pdl\cmsis/include/cmsis_gcc.h ****  */
 285:Generated_Source\PSoC6\pdl\cmsis/include/cmsis_gcc.h **** __attribute__((always_inline)) __STATIC_INLINE void __set_MSP(uint32_t topOfMainStack)
 286:Generated_Source\PSoC6\pdl\cmsis/include/cmsis_gcc.h **** {
 287:Generated_Source\PSoC6\pdl\cmsis/include/cmsis_gcc.h ****   __ASM volatile ("MSR msp, %0" : : "r" (topOfMainStack) : );
 288:Generated_Source\PSoC6\pdl\cmsis/include/cmsis_gcc.h **** }
 289:Generated_Source\PSoC6\pdl\cmsis/include/cmsis_gcc.h **** 
 290:Generated_Source\PSoC6\pdl\cmsis/include/cmsis_gcc.h **** 
 291:Generated_Source\PSoC6\pdl\cmsis/include/cmsis_gcc.h **** #if (defined (__ARM_FEATURE_CMSE ) && (__ARM_FEATURE_CMSE == 3))
 292:Generated_Source\PSoC6\pdl\cmsis/include/cmsis_gcc.h **** /**
 293:Generated_Source\PSoC6\pdl\cmsis/include/cmsis_gcc.h ****   \brief   Set Main Stack Pointer (non-secure)
 294:Generated_Source\PSoC6\pdl\cmsis/include/cmsis_gcc.h ****   \details Assigns the given value to the non-secure Main Stack Pointer (MSP) when in secure state.
 295:Generated_Source\PSoC6\pdl\cmsis/include/cmsis_gcc.h ****   \param [in]    topOfMainStack  Main Stack Pointer value to set
 296:Generated_Source\PSoC6\pdl\cmsis/include/cmsis_gcc.h ****  */
 297:Generated_Source\PSoC6\pdl\cmsis/include/cmsis_gcc.h **** __attribute__((always_inline)) __STATIC_INLINE void __TZ_set_MSP_NS(uint32_t topOfMainStack)
 298:Generated_Source\PSoC6\pdl\cmsis/include/cmsis_gcc.h **** {
 299:Generated_Source\PSoC6\pdl\cmsis/include/cmsis_gcc.h ****   __ASM volatile ("MSR msp_ns, %0" : : "r" (topOfMainStack) : );
 300:Generated_Source\PSoC6\pdl\cmsis/include/cmsis_gcc.h **** }
 301:Generated_Source\PSoC6\pdl\cmsis/include/cmsis_gcc.h **** #endif
 302:Generated_Source\PSoC6\pdl\cmsis/include/cmsis_gcc.h **** 
 303:Generated_Source\PSoC6\pdl\cmsis/include/cmsis_gcc.h **** 
 304:Generated_Source\PSoC6\pdl\cmsis/include/cmsis_gcc.h **** /**
 305:Generated_Source\PSoC6\pdl\cmsis/include/cmsis_gcc.h ****   \brief   Get Priority Mask
 306:Generated_Source\PSoC6\pdl\cmsis/include/cmsis_gcc.h ****   \details Returns the current state of the priority mask bit from the Priority Mask Register.
 307:Generated_Source\PSoC6\pdl\cmsis/include/cmsis_gcc.h ****   \return               Priority Mask value
 308:Generated_Source\PSoC6\pdl\cmsis/include/cmsis_gcc.h ****  */
 309:Generated_Source\PSoC6\pdl\cmsis/include/cmsis_gcc.h **** __attribute__((always_inline)) __STATIC_INLINE uint32_t __get_PRIMASK(void)
 310:Generated_Source\PSoC6\pdl\cmsis/include/cmsis_gcc.h **** {
 311:Generated_Source\PSoC6\pdl\cmsis/include/cmsis_gcc.h ****   uint32_t result;
 312:Generated_Source\PSoC6\pdl\cmsis/include/cmsis_gcc.h **** 
 313:Generated_Source\PSoC6\pdl\cmsis/include/cmsis_gcc.h ****   __ASM volatile ("MRS %0, primask" : "=r" (result) );
 314:Generated_Source\PSoC6\pdl\cmsis/include/cmsis_gcc.h ****   return(result);
 315:Generated_Source\PSoC6\pdl\cmsis/include/cmsis_gcc.h **** }
 316:Generated_Source\PSoC6\pdl\cmsis/include/cmsis_gcc.h **** 
 317:Generated_Source\PSoC6\pdl\cmsis/include/cmsis_gcc.h **** 
 318:Generated_Source\PSoC6\pdl\cmsis/include/cmsis_gcc.h **** #if (defined (__ARM_FEATURE_CMSE ) && (__ARM_FEATURE_CMSE == 3))
 319:Generated_Source\PSoC6\pdl\cmsis/include/cmsis_gcc.h **** /**
 320:Generated_Source\PSoC6\pdl\cmsis/include/cmsis_gcc.h ****   \brief   Get Priority Mask (non-secure)
 321:Generated_Source\PSoC6\pdl\cmsis/include/cmsis_gcc.h ****   \details Returns the current state of the non-secure priority mask bit from the Priority Mask Reg
 322:Generated_Source\PSoC6\pdl\cmsis/include/cmsis_gcc.h ****   \return               Priority Mask value
 323:Generated_Source\PSoC6\pdl\cmsis/include/cmsis_gcc.h ****  */
 324:Generated_Source\PSoC6\pdl\cmsis/include/cmsis_gcc.h **** __attribute__((always_inline)) __STATIC_INLINE uint32_t __TZ_get_PRIMASK_NS(void)
ARM GAS  C:\Users\salaz\AppData\Local\Temp\ccTAmJlP.s 			page 22


 325:Generated_Source\PSoC6\pdl\cmsis/include/cmsis_gcc.h **** {
 326:Generated_Source\PSoC6\pdl\cmsis/include/cmsis_gcc.h ****   uint32_t result;
 327:Generated_Source\PSoC6\pdl\cmsis/include/cmsis_gcc.h **** 
 328:Generated_Source\PSoC6\pdl\cmsis/include/cmsis_gcc.h ****   __ASM volatile ("MRS %0, primask_ns" : "=r" (result) );
 329:Generated_Source\PSoC6\pdl\cmsis/include/cmsis_gcc.h ****   return(result);
 330:Generated_Source\PSoC6\pdl\cmsis/include/cmsis_gcc.h **** }
 331:Generated_Source\PSoC6\pdl\cmsis/include/cmsis_gcc.h **** #endif
 332:Generated_Source\PSoC6\pdl\cmsis/include/cmsis_gcc.h **** 
 333:Generated_Source\PSoC6\pdl\cmsis/include/cmsis_gcc.h **** 
 334:Generated_Source\PSoC6\pdl\cmsis/include/cmsis_gcc.h **** /**
 335:Generated_Source\PSoC6\pdl\cmsis/include/cmsis_gcc.h ****   \brief   Set Priority Mask
 336:Generated_Source\PSoC6\pdl\cmsis/include/cmsis_gcc.h ****   \details Assigns the given value to the Priority Mask Register.
 337:Generated_Source\PSoC6\pdl\cmsis/include/cmsis_gcc.h ****   \param [in]    priMask  Priority Mask
 338:Generated_Source\PSoC6\pdl\cmsis/include/cmsis_gcc.h ****  */
 339:Generated_Source\PSoC6\pdl\cmsis/include/cmsis_gcc.h **** __attribute__((always_inline)) __STATIC_INLINE void __set_PRIMASK(uint32_t priMask)
 340:Generated_Source\PSoC6\pdl\cmsis/include/cmsis_gcc.h **** {
 341:Generated_Source\PSoC6\pdl\cmsis/include/cmsis_gcc.h ****   __ASM volatile ("MSR primask, %0" : : "r" (priMask) : "memory");
 342:Generated_Source\PSoC6\pdl\cmsis/include/cmsis_gcc.h **** }
 343:Generated_Source\PSoC6\pdl\cmsis/include/cmsis_gcc.h **** 
 344:Generated_Source\PSoC6\pdl\cmsis/include/cmsis_gcc.h **** 
 345:Generated_Source\PSoC6\pdl\cmsis/include/cmsis_gcc.h **** #if (defined (__ARM_FEATURE_CMSE ) && (__ARM_FEATURE_CMSE == 3))
 346:Generated_Source\PSoC6\pdl\cmsis/include/cmsis_gcc.h **** /**
 347:Generated_Source\PSoC6\pdl\cmsis/include/cmsis_gcc.h ****   \brief   Set Priority Mask (non-secure)
 348:Generated_Source\PSoC6\pdl\cmsis/include/cmsis_gcc.h ****   \details Assigns the given value to the non-secure Priority Mask Register when in secure state.
 349:Generated_Source\PSoC6\pdl\cmsis/include/cmsis_gcc.h ****   \param [in]    priMask  Priority Mask
 350:Generated_Source\PSoC6\pdl\cmsis/include/cmsis_gcc.h ****  */
 351:Generated_Source\PSoC6\pdl\cmsis/include/cmsis_gcc.h **** __attribute__((always_inline)) __STATIC_INLINE void __TZ_set_PRIMASK_NS(uint32_t priMask)
 352:Generated_Source\PSoC6\pdl\cmsis/include/cmsis_gcc.h **** {
 353:Generated_Source\PSoC6\pdl\cmsis/include/cmsis_gcc.h ****   __ASM volatile ("MSR primask_ns, %0" : : "r" (priMask) : "memory");
 354:Generated_Source\PSoC6\pdl\cmsis/include/cmsis_gcc.h **** }
 355:Generated_Source\PSoC6\pdl\cmsis/include/cmsis_gcc.h **** #endif
 356:Generated_Source\PSoC6\pdl\cmsis/include/cmsis_gcc.h **** 
 357:Generated_Source\PSoC6\pdl\cmsis/include/cmsis_gcc.h **** 
 358:Generated_Source\PSoC6\pdl\cmsis/include/cmsis_gcc.h **** #if ((defined (__ARM_ARCH_7M__      ) && (__ARM_ARCH_7M__      == 1)) || \
 359:Generated_Source\PSoC6\pdl\cmsis/include/cmsis_gcc.h ****      (defined (__ARM_ARCH_7EM__     ) && (__ARM_ARCH_7EM__     == 1)) || \
 360:Generated_Source\PSoC6\pdl\cmsis/include/cmsis_gcc.h ****      (defined (__ARM_ARCH_8M_MAIN__ ) && (__ARM_ARCH_8M_MAIN__ == 1))    )
 361:Generated_Source\PSoC6\pdl\cmsis/include/cmsis_gcc.h **** /**
 362:Generated_Source\PSoC6\pdl\cmsis/include/cmsis_gcc.h ****   \brief   Enable FIQ
 363:Generated_Source\PSoC6\pdl\cmsis/include/cmsis_gcc.h ****   \details Enables FIQ interrupts by clearing the F-bit in the CPSR.
 364:Generated_Source\PSoC6\pdl\cmsis/include/cmsis_gcc.h ****            Can only be executed in Privileged modes.
 365:Generated_Source\PSoC6\pdl\cmsis/include/cmsis_gcc.h ****  */
 366:Generated_Source\PSoC6\pdl\cmsis/include/cmsis_gcc.h **** __attribute__((always_inline)) __STATIC_INLINE void __enable_fault_irq(void)
 367:Generated_Source\PSoC6\pdl\cmsis/include/cmsis_gcc.h **** {
 368:Generated_Source\PSoC6\pdl\cmsis/include/cmsis_gcc.h ****   __ASM volatile ("cpsie f" : : : "memory");
 369:Generated_Source\PSoC6\pdl\cmsis/include/cmsis_gcc.h **** }
 370:Generated_Source\PSoC6\pdl\cmsis/include/cmsis_gcc.h **** 
 371:Generated_Source\PSoC6\pdl\cmsis/include/cmsis_gcc.h **** 
 372:Generated_Source\PSoC6\pdl\cmsis/include/cmsis_gcc.h **** /**
 373:Generated_Source\PSoC6\pdl\cmsis/include/cmsis_gcc.h ****   \brief   Disable FIQ
 374:Generated_Source\PSoC6\pdl\cmsis/include/cmsis_gcc.h ****   \details Disables FIQ interrupts by setting the F-bit in the CPSR.
 375:Generated_Source\PSoC6\pdl\cmsis/include/cmsis_gcc.h ****            Can only be executed in Privileged modes.
 376:Generated_Source\PSoC6\pdl\cmsis/include/cmsis_gcc.h ****  */
 377:Generated_Source\PSoC6\pdl\cmsis/include/cmsis_gcc.h **** __attribute__((always_inline)) __STATIC_INLINE void __disable_fault_irq(void)
 378:Generated_Source\PSoC6\pdl\cmsis/include/cmsis_gcc.h **** {
 379:Generated_Source\PSoC6\pdl\cmsis/include/cmsis_gcc.h ****   __ASM volatile ("cpsid f" : : : "memory");
 380:Generated_Source\PSoC6\pdl\cmsis/include/cmsis_gcc.h **** }
 381:Generated_Source\PSoC6\pdl\cmsis/include/cmsis_gcc.h **** 
ARM GAS  C:\Users\salaz\AppData\Local\Temp\ccTAmJlP.s 			page 23


 382:Generated_Source\PSoC6\pdl\cmsis/include/cmsis_gcc.h **** 
 383:Generated_Source\PSoC6\pdl\cmsis/include/cmsis_gcc.h **** /**
 384:Generated_Source\PSoC6\pdl\cmsis/include/cmsis_gcc.h ****   \brief   Get Base Priority
 385:Generated_Source\PSoC6\pdl\cmsis/include/cmsis_gcc.h ****   \details Returns the current value of the Base Priority register.
 386:Generated_Source\PSoC6\pdl\cmsis/include/cmsis_gcc.h ****   \return               Base Priority register value
 387:Generated_Source\PSoC6\pdl\cmsis/include/cmsis_gcc.h ****  */
 388:Generated_Source\PSoC6\pdl\cmsis/include/cmsis_gcc.h **** __attribute__((always_inline)) __STATIC_INLINE uint32_t __get_BASEPRI(void)
 389:Generated_Source\PSoC6\pdl\cmsis/include/cmsis_gcc.h **** {
 390:Generated_Source\PSoC6\pdl\cmsis/include/cmsis_gcc.h ****   uint32_t result;
 391:Generated_Source\PSoC6\pdl\cmsis/include/cmsis_gcc.h **** 
 392:Generated_Source\PSoC6\pdl\cmsis/include/cmsis_gcc.h ****   __ASM volatile ("MRS %0, basepri" : "=r" (result) );
 393:Generated_Source\PSoC6\pdl\cmsis/include/cmsis_gcc.h ****   return(result);
 394:Generated_Source\PSoC6\pdl\cmsis/include/cmsis_gcc.h **** }
 395:Generated_Source\PSoC6\pdl\cmsis/include/cmsis_gcc.h **** 
 396:Generated_Source\PSoC6\pdl\cmsis/include/cmsis_gcc.h **** 
 397:Generated_Source\PSoC6\pdl\cmsis/include/cmsis_gcc.h **** #if (defined (__ARM_FEATURE_CMSE ) && (__ARM_FEATURE_CMSE == 3))
 398:Generated_Source\PSoC6\pdl\cmsis/include/cmsis_gcc.h **** /**
 399:Generated_Source\PSoC6\pdl\cmsis/include/cmsis_gcc.h ****   \brief   Get Base Priority (non-secure)
 400:Generated_Source\PSoC6\pdl\cmsis/include/cmsis_gcc.h ****   \details Returns the current value of the non-secure Base Priority register when in secure state.
 401:Generated_Source\PSoC6\pdl\cmsis/include/cmsis_gcc.h ****   \return               Base Priority register value
 402:Generated_Source\PSoC6\pdl\cmsis/include/cmsis_gcc.h ****  */
 403:Generated_Source\PSoC6\pdl\cmsis/include/cmsis_gcc.h **** __attribute__((always_inline)) __STATIC_INLINE uint32_t __TZ_get_BASEPRI_NS(void)
 404:Generated_Source\PSoC6\pdl\cmsis/include/cmsis_gcc.h **** {
 405:Generated_Source\PSoC6\pdl\cmsis/include/cmsis_gcc.h ****   uint32_t result;
 406:Generated_Source\PSoC6\pdl\cmsis/include/cmsis_gcc.h **** 
 407:Generated_Source\PSoC6\pdl\cmsis/include/cmsis_gcc.h ****   __ASM volatile ("MRS %0, basepri_ns" : "=r" (result) );
 408:Generated_Source\PSoC6\pdl\cmsis/include/cmsis_gcc.h ****   return(result);
 409:Generated_Source\PSoC6\pdl\cmsis/include/cmsis_gcc.h **** }
 410:Generated_Source\PSoC6\pdl\cmsis/include/cmsis_gcc.h **** #endif
 411:Generated_Source\PSoC6\pdl\cmsis/include/cmsis_gcc.h **** 
 412:Generated_Source\PSoC6\pdl\cmsis/include/cmsis_gcc.h **** 
 413:Generated_Source\PSoC6\pdl\cmsis/include/cmsis_gcc.h **** /**
 414:Generated_Source\PSoC6\pdl\cmsis/include/cmsis_gcc.h ****   \brief   Set Base Priority
 415:Generated_Source\PSoC6\pdl\cmsis/include/cmsis_gcc.h ****   \details Assigns the given value to the Base Priority register.
 416:Generated_Source\PSoC6\pdl\cmsis/include/cmsis_gcc.h ****   \param [in]    basePri  Base Priority value to set
 417:Generated_Source\PSoC6\pdl\cmsis/include/cmsis_gcc.h ****  */
 418:Generated_Source\PSoC6\pdl\cmsis/include/cmsis_gcc.h **** __attribute__((always_inline)) __STATIC_INLINE void __set_BASEPRI(uint32_t basePri)
 419:Generated_Source\PSoC6\pdl\cmsis/include/cmsis_gcc.h **** {
 420:Generated_Source\PSoC6\pdl\cmsis/include/cmsis_gcc.h ****   __ASM volatile ("MSR basepri, %0" : : "r" (basePri) : "memory");
 421:Generated_Source\PSoC6\pdl\cmsis/include/cmsis_gcc.h **** }
 422:Generated_Source\PSoC6\pdl\cmsis/include/cmsis_gcc.h **** 
 423:Generated_Source\PSoC6\pdl\cmsis/include/cmsis_gcc.h **** 
 424:Generated_Source\PSoC6\pdl\cmsis/include/cmsis_gcc.h **** #if (defined (__ARM_FEATURE_CMSE ) && (__ARM_FEATURE_CMSE == 3))
 425:Generated_Source\PSoC6\pdl\cmsis/include/cmsis_gcc.h **** /**
 426:Generated_Source\PSoC6\pdl\cmsis/include/cmsis_gcc.h ****   \brief   Set Base Priority (non-secure)
 427:Generated_Source\PSoC6\pdl\cmsis/include/cmsis_gcc.h ****   \details Assigns the given value to the non-secure Base Priority register when in secure state.
 428:Generated_Source\PSoC6\pdl\cmsis/include/cmsis_gcc.h ****   \param [in]    basePri  Base Priority value to set
 429:Generated_Source\PSoC6\pdl\cmsis/include/cmsis_gcc.h ****  */
 430:Generated_Source\PSoC6\pdl\cmsis/include/cmsis_gcc.h **** __attribute__((always_inline)) __STATIC_INLINE void __TZ_set_BASEPRI_NS(uint32_t basePri)
 431:Generated_Source\PSoC6\pdl\cmsis/include/cmsis_gcc.h **** {
 432:Generated_Source\PSoC6\pdl\cmsis/include/cmsis_gcc.h ****   __ASM volatile ("MSR basepri_ns, %0" : : "r" (basePri) : "memory");
 433:Generated_Source\PSoC6\pdl\cmsis/include/cmsis_gcc.h **** }
 434:Generated_Source\PSoC6\pdl\cmsis/include/cmsis_gcc.h **** #endif
 435:Generated_Source\PSoC6\pdl\cmsis/include/cmsis_gcc.h **** 
 436:Generated_Source\PSoC6\pdl\cmsis/include/cmsis_gcc.h **** 
 437:Generated_Source\PSoC6\pdl\cmsis/include/cmsis_gcc.h **** /**
 438:Generated_Source\PSoC6\pdl\cmsis/include/cmsis_gcc.h ****   \brief   Set Base Priority with condition
ARM GAS  C:\Users\salaz\AppData\Local\Temp\ccTAmJlP.s 			page 24


 439:Generated_Source\PSoC6\pdl\cmsis/include/cmsis_gcc.h ****   \details Assigns the given value to the Base Priority register only if BASEPRI masking is disable
 440:Generated_Source\PSoC6\pdl\cmsis/include/cmsis_gcc.h ****            or the new value increases the BASEPRI priority level.
 441:Generated_Source\PSoC6\pdl\cmsis/include/cmsis_gcc.h ****   \param [in]    basePri  Base Priority value to set
 442:Generated_Source\PSoC6\pdl\cmsis/include/cmsis_gcc.h ****  */
 443:Generated_Source\PSoC6\pdl\cmsis/include/cmsis_gcc.h **** __attribute__((always_inline)) __STATIC_INLINE void __set_BASEPRI_MAX(uint32_t basePri)
 444:Generated_Source\PSoC6\pdl\cmsis/include/cmsis_gcc.h **** {
 445:Generated_Source\PSoC6\pdl\cmsis/include/cmsis_gcc.h ****   __ASM volatile ("MSR basepri_max, %0" : : "r" (basePri) : "memory");
 446:Generated_Source\PSoC6\pdl\cmsis/include/cmsis_gcc.h **** }
 447:Generated_Source\PSoC6\pdl\cmsis/include/cmsis_gcc.h **** 
 448:Generated_Source\PSoC6\pdl\cmsis/include/cmsis_gcc.h **** 
 449:Generated_Source\PSoC6\pdl\cmsis/include/cmsis_gcc.h **** /**
 450:Generated_Source\PSoC6\pdl\cmsis/include/cmsis_gcc.h ****   \brief   Get Fault Mask
 451:Generated_Source\PSoC6\pdl\cmsis/include/cmsis_gcc.h ****   \details Returns the current value of the Fault Mask register.
 452:Generated_Source\PSoC6\pdl\cmsis/include/cmsis_gcc.h ****   \return               Fault Mask register value
 453:Generated_Source\PSoC6\pdl\cmsis/include/cmsis_gcc.h ****  */
 454:Generated_Source\PSoC6\pdl\cmsis/include/cmsis_gcc.h **** __attribute__((always_inline)) __STATIC_INLINE uint32_t __get_FAULTMASK(void)
 455:Generated_Source\PSoC6\pdl\cmsis/include/cmsis_gcc.h **** {
 456:Generated_Source\PSoC6\pdl\cmsis/include/cmsis_gcc.h ****   uint32_t result;
 457:Generated_Source\PSoC6\pdl\cmsis/include/cmsis_gcc.h **** 
 458:Generated_Source\PSoC6\pdl\cmsis/include/cmsis_gcc.h ****   __ASM volatile ("MRS %0, faultmask" : "=r" (result) );
 459:Generated_Source\PSoC6\pdl\cmsis/include/cmsis_gcc.h ****   return(result);
 460:Generated_Source\PSoC6\pdl\cmsis/include/cmsis_gcc.h **** }
 461:Generated_Source\PSoC6\pdl\cmsis/include/cmsis_gcc.h **** 
 462:Generated_Source\PSoC6\pdl\cmsis/include/cmsis_gcc.h **** 
 463:Generated_Source\PSoC6\pdl\cmsis/include/cmsis_gcc.h **** #if (defined (__ARM_FEATURE_CMSE ) && (__ARM_FEATURE_CMSE == 3))
 464:Generated_Source\PSoC6\pdl\cmsis/include/cmsis_gcc.h **** /**
 465:Generated_Source\PSoC6\pdl\cmsis/include/cmsis_gcc.h ****   \brief   Get Fault Mask (non-secure)
 466:Generated_Source\PSoC6\pdl\cmsis/include/cmsis_gcc.h ****   \details Returns the current value of the non-secure Fault Mask register when in secure state.
 467:Generated_Source\PSoC6\pdl\cmsis/include/cmsis_gcc.h ****   \return               Fault Mask register value
 468:Generated_Source\PSoC6\pdl\cmsis/include/cmsis_gcc.h ****  */
 469:Generated_Source\PSoC6\pdl\cmsis/include/cmsis_gcc.h **** __attribute__((always_inline)) __STATIC_INLINE uint32_t __TZ_get_FAULTMASK_NS(void)
 470:Generated_Source\PSoC6\pdl\cmsis/include/cmsis_gcc.h **** {
 471:Generated_Source\PSoC6\pdl\cmsis/include/cmsis_gcc.h ****   uint32_t result;
 472:Generated_Source\PSoC6\pdl\cmsis/include/cmsis_gcc.h **** 
 473:Generated_Source\PSoC6\pdl\cmsis/include/cmsis_gcc.h ****   __ASM volatile ("MRS %0, faultmask_ns" : "=r" (result) );
 474:Generated_Source\PSoC6\pdl\cmsis/include/cmsis_gcc.h ****   return(result);
 475:Generated_Source\PSoC6\pdl\cmsis/include/cmsis_gcc.h **** }
 476:Generated_Source\PSoC6\pdl\cmsis/include/cmsis_gcc.h **** #endif
 477:Generated_Source\PSoC6\pdl\cmsis/include/cmsis_gcc.h **** 
 478:Generated_Source\PSoC6\pdl\cmsis/include/cmsis_gcc.h **** 
 479:Generated_Source\PSoC6\pdl\cmsis/include/cmsis_gcc.h **** /**
 480:Generated_Source\PSoC6\pdl\cmsis/include/cmsis_gcc.h ****   \brief   Set Fault Mask
 481:Generated_Source\PSoC6\pdl\cmsis/include/cmsis_gcc.h ****   \details Assigns the given value to the Fault Mask register.
 482:Generated_Source\PSoC6\pdl\cmsis/include/cmsis_gcc.h ****   \param [in]    faultMask  Fault Mask value to set
 483:Generated_Source\PSoC6\pdl\cmsis/include/cmsis_gcc.h ****  */
 484:Generated_Source\PSoC6\pdl\cmsis/include/cmsis_gcc.h **** __attribute__((always_inline)) __STATIC_INLINE void __set_FAULTMASK(uint32_t faultMask)
 485:Generated_Source\PSoC6\pdl\cmsis/include/cmsis_gcc.h **** {
 486:Generated_Source\PSoC6\pdl\cmsis/include/cmsis_gcc.h ****   __ASM volatile ("MSR faultmask, %0" : : "r" (faultMask) : "memory");
 487:Generated_Source\PSoC6\pdl\cmsis/include/cmsis_gcc.h **** }
 488:Generated_Source\PSoC6\pdl\cmsis/include/cmsis_gcc.h **** 
 489:Generated_Source\PSoC6\pdl\cmsis/include/cmsis_gcc.h **** 
 490:Generated_Source\PSoC6\pdl\cmsis/include/cmsis_gcc.h **** #if (defined (__ARM_FEATURE_CMSE ) && (__ARM_FEATURE_CMSE == 3))
 491:Generated_Source\PSoC6\pdl\cmsis/include/cmsis_gcc.h **** /**
 492:Generated_Source\PSoC6\pdl\cmsis/include/cmsis_gcc.h ****   \brief   Set Fault Mask (non-secure)
 493:Generated_Source\PSoC6\pdl\cmsis/include/cmsis_gcc.h ****   \details Assigns the given value to the non-secure Fault Mask register when in secure state.
 494:Generated_Source\PSoC6\pdl\cmsis/include/cmsis_gcc.h ****   \param [in]    faultMask  Fault Mask value to set
 495:Generated_Source\PSoC6\pdl\cmsis/include/cmsis_gcc.h ****  */
ARM GAS  C:\Users\salaz\AppData\Local\Temp\ccTAmJlP.s 			page 25


 496:Generated_Source\PSoC6\pdl\cmsis/include/cmsis_gcc.h **** __attribute__((always_inline)) __STATIC_INLINE void __TZ_set_FAULTMASK_NS(uint32_t faultMask)
 497:Generated_Source\PSoC6\pdl\cmsis/include/cmsis_gcc.h **** {
 498:Generated_Source\PSoC6\pdl\cmsis/include/cmsis_gcc.h ****   __ASM volatile ("MSR faultmask_ns, %0" : : "r" (faultMask) : "memory");
 499:Generated_Source\PSoC6\pdl\cmsis/include/cmsis_gcc.h **** }
 500:Generated_Source\PSoC6\pdl\cmsis/include/cmsis_gcc.h **** #endif
 501:Generated_Source\PSoC6\pdl\cmsis/include/cmsis_gcc.h **** 
 502:Generated_Source\PSoC6\pdl\cmsis/include/cmsis_gcc.h **** #endif /* ((defined (__ARM_ARCH_7M__      ) && (__ARM_ARCH_7M__      == 1)) || \
 503:Generated_Source\PSoC6\pdl\cmsis/include/cmsis_gcc.h ****            (defined (__ARM_ARCH_7EM__     ) && (__ARM_ARCH_7EM__     == 1)) || \
 504:Generated_Source\PSoC6\pdl\cmsis/include/cmsis_gcc.h ****            (defined (__ARM_ARCH_8M_MAIN__ ) && (__ARM_ARCH_8M_MAIN__ == 1))    ) */
 505:Generated_Source\PSoC6\pdl\cmsis/include/cmsis_gcc.h **** 
 506:Generated_Source\PSoC6\pdl\cmsis/include/cmsis_gcc.h **** 
 507:Generated_Source\PSoC6\pdl\cmsis/include/cmsis_gcc.h **** #if ((defined (__ARM_ARCH_8M_MAIN__ ) && (__ARM_ARCH_8M_MAIN__ == 1)) || \
 508:Generated_Source\PSoC6\pdl\cmsis/include/cmsis_gcc.h ****      (defined (__ARM_ARCH_8M_BASE__ ) && (__ARM_ARCH_8M_BASE__ == 1))    )
 509:Generated_Source\PSoC6\pdl\cmsis/include/cmsis_gcc.h **** 
 510:Generated_Source\PSoC6\pdl\cmsis/include/cmsis_gcc.h **** /**
 511:Generated_Source\PSoC6\pdl\cmsis/include/cmsis_gcc.h ****   \brief   Get Process Stack Pointer Limit
 512:Generated_Source\PSoC6\pdl\cmsis/include/cmsis_gcc.h ****   \details Returns the current value of the Process Stack Pointer Limit (PSPLIM).
 513:Generated_Source\PSoC6\pdl\cmsis/include/cmsis_gcc.h ****   \return               PSPLIM Register value
 514:Generated_Source\PSoC6\pdl\cmsis/include/cmsis_gcc.h ****  */
 515:Generated_Source\PSoC6\pdl\cmsis/include/cmsis_gcc.h **** __attribute__((always_inline)) __STATIC_INLINE uint32_t __get_PSPLIM(void)
 516:Generated_Source\PSoC6\pdl\cmsis/include/cmsis_gcc.h **** {
 517:Generated_Source\PSoC6\pdl\cmsis/include/cmsis_gcc.h ****   register uint32_t result;
 518:Generated_Source\PSoC6\pdl\cmsis/include/cmsis_gcc.h **** 
 519:Generated_Source\PSoC6\pdl\cmsis/include/cmsis_gcc.h ****   __ASM volatile ("MRS %0, psplim"  : "=r" (result) );
 520:Generated_Source\PSoC6\pdl\cmsis/include/cmsis_gcc.h ****   return(result);
 521:Generated_Source\PSoC6\pdl\cmsis/include/cmsis_gcc.h **** }
 522:Generated_Source\PSoC6\pdl\cmsis/include/cmsis_gcc.h **** 
 523:Generated_Source\PSoC6\pdl\cmsis/include/cmsis_gcc.h **** 
 524:Generated_Source\PSoC6\pdl\cmsis/include/cmsis_gcc.h **** #if ((defined (__ARM_FEATURE_CMSE  ) && (__ARM_FEATURE_CMSE   == 3)) && \
 525:Generated_Source\PSoC6\pdl\cmsis/include/cmsis_gcc.h ****      (defined (__ARM_ARCH_8M_MAIN__) && (__ARM_ARCH_8M_MAIN__ == 1))    )
 526:Generated_Source\PSoC6\pdl\cmsis/include/cmsis_gcc.h **** /**
 527:Generated_Source\PSoC6\pdl\cmsis/include/cmsis_gcc.h ****   \brief   Get Process Stack Pointer Limit (non-secure)
 528:Generated_Source\PSoC6\pdl\cmsis/include/cmsis_gcc.h ****   \details Returns the current value of the non-secure Process Stack Pointer Limit (PSPLIM) when in
 529:Generated_Source\PSoC6\pdl\cmsis/include/cmsis_gcc.h ****   \return               PSPLIM Register value
 530:Generated_Source\PSoC6\pdl\cmsis/include/cmsis_gcc.h ****  */
 531:Generated_Source\PSoC6\pdl\cmsis/include/cmsis_gcc.h **** __attribute__((always_inline)) __STATIC_INLINE uint32_t __TZ_get_PSPLIM_NS(void)
 532:Generated_Source\PSoC6\pdl\cmsis/include/cmsis_gcc.h **** {
 533:Generated_Source\PSoC6\pdl\cmsis/include/cmsis_gcc.h ****   register uint32_t result;
 534:Generated_Source\PSoC6\pdl\cmsis/include/cmsis_gcc.h **** 
 535:Generated_Source\PSoC6\pdl\cmsis/include/cmsis_gcc.h ****   __ASM volatile ("MRS %0, psplim_ns"  : "=r" (result) );
 536:Generated_Source\PSoC6\pdl\cmsis/include/cmsis_gcc.h ****   return(result);
 537:Generated_Source\PSoC6\pdl\cmsis/include/cmsis_gcc.h **** }
 538:Generated_Source\PSoC6\pdl\cmsis/include/cmsis_gcc.h **** #endif
 539:Generated_Source\PSoC6\pdl\cmsis/include/cmsis_gcc.h **** 
 540:Generated_Source\PSoC6\pdl\cmsis/include/cmsis_gcc.h **** 
 541:Generated_Source\PSoC6\pdl\cmsis/include/cmsis_gcc.h **** /**
 542:Generated_Source\PSoC6\pdl\cmsis/include/cmsis_gcc.h ****   \brief   Set Process Stack Pointer Limit
 543:Generated_Source\PSoC6\pdl\cmsis/include/cmsis_gcc.h ****   \details Assigns the given value to the Process Stack Pointer Limit (PSPLIM).
 544:Generated_Source\PSoC6\pdl\cmsis/include/cmsis_gcc.h ****   \param [in]    ProcStackPtrLimit  Process Stack Pointer Limit value to set
 545:Generated_Source\PSoC6\pdl\cmsis/include/cmsis_gcc.h ****  */
 546:Generated_Source\PSoC6\pdl\cmsis/include/cmsis_gcc.h **** __attribute__((always_inline)) __STATIC_INLINE void __set_PSPLIM(uint32_t ProcStackPtrLimit)
 547:Generated_Source\PSoC6\pdl\cmsis/include/cmsis_gcc.h **** {
 548:Generated_Source\PSoC6\pdl\cmsis/include/cmsis_gcc.h ****   __ASM volatile ("MSR psplim, %0" : : "r" (ProcStackPtrLimit));
 549:Generated_Source\PSoC6\pdl\cmsis/include/cmsis_gcc.h **** }
 550:Generated_Source\PSoC6\pdl\cmsis/include/cmsis_gcc.h **** 
 551:Generated_Source\PSoC6\pdl\cmsis/include/cmsis_gcc.h **** 
 552:Generated_Source\PSoC6\pdl\cmsis/include/cmsis_gcc.h **** #if ((defined (__ARM_FEATURE_CMSE  ) && (__ARM_FEATURE_CMSE   == 3)) && \
ARM GAS  C:\Users\salaz\AppData\Local\Temp\ccTAmJlP.s 			page 26


 553:Generated_Source\PSoC6\pdl\cmsis/include/cmsis_gcc.h ****      (defined (__ARM_ARCH_8M_MAIN__) && (__ARM_ARCH_8M_MAIN__ == 1))    )
 554:Generated_Source\PSoC6\pdl\cmsis/include/cmsis_gcc.h **** /**
 555:Generated_Source\PSoC6\pdl\cmsis/include/cmsis_gcc.h ****   \brief   Set Process Stack Pointer (non-secure)
 556:Generated_Source\PSoC6\pdl\cmsis/include/cmsis_gcc.h ****   \details Assigns the given value to the non-secure Process Stack Pointer Limit (PSPLIM) when in s
 557:Generated_Source\PSoC6\pdl\cmsis/include/cmsis_gcc.h ****   \param [in]    ProcStackPtrLimit  Process Stack Pointer Limit value to set
 558:Generated_Source\PSoC6\pdl\cmsis/include/cmsis_gcc.h ****  */
 559:Generated_Source\PSoC6\pdl\cmsis/include/cmsis_gcc.h **** __attribute__((always_inline)) __STATIC_INLINE void __TZ_set_PSPLIM_NS(uint32_t ProcStackPtrLimit)
 560:Generated_Source\PSoC6\pdl\cmsis/include/cmsis_gcc.h **** {
 561:Generated_Source\PSoC6\pdl\cmsis/include/cmsis_gcc.h ****   __ASM volatile ("MSR psplim_ns, %0\n" : : "r" (ProcStackPtrLimit));
 562:Generated_Source\PSoC6\pdl\cmsis/include/cmsis_gcc.h **** }
 563:Generated_Source\PSoC6\pdl\cmsis/include/cmsis_gcc.h **** #endif
 564:Generated_Source\PSoC6\pdl\cmsis/include/cmsis_gcc.h **** 
 565:Generated_Source\PSoC6\pdl\cmsis/include/cmsis_gcc.h **** 
 566:Generated_Source\PSoC6\pdl\cmsis/include/cmsis_gcc.h **** /**
 567:Generated_Source\PSoC6\pdl\cmsis/include/cmsis_gcc.h ****   \brief   Get Main Stack Pointer Limit
 568:Generated_Source\PSoC6\pdl\cmsis/include/cmsis_gcc.h ****   \details Returns the current value of the Main Stack Pointer Limit (MSPLIM).
 569:Generated_Source\PSoC6\pdl\cmsis/include/cmsis_gcc.h ****   \return               MSPLIM Register value
 570:Generated_Source\PSoC6\pdl\cmsis/include/cmsis_gcc.h ****  */
 571:Generated_Source\PSoC6\pdl\cmsis/include/cmsis_gcc.h **** __attribute__((always_inline)) __STATIC_INLINE uint32_t __get_MSPLIM(void)
 572:Generated_Source\PSoC6\pdl\cmsis/include/cmsis_gcc.h **** {
 573:Generated_Source\PSoC6\pdl\cmsis/include/cmsis_gcc.h ****   register uint32_t result;
 574:Generated_Source\PSoC6\pdl\cmsis/include/cmsis_gcc.h **** 
 575:Generated_Source\PSoC6\pdl\cmsis/include/cmsis_gcc.h ****   __ASM volatile ("MRS %0, msplim" : "=r" (result) );
 576:Generated_Source\PSoC6\pdl\cmsis/include/cmsis_gcc.h **** 
 577:Generated_Source\PSoC6\pdl\cmsis/include/cmsis_gcc.h ****   return(result);
 578:Generated_Source\PSoC6\pdl\cmsis/include/cmsis_gcc.h **** }
 579:Generated_Source\PSoC6\pdl\cmsis/include/cmsis_gcc.h **** 
 580:Generated_Source\PSoC6\pdl\cmsis/include/cmsis_gcc.h **** 
 581:Generated_Source\PSoC6\pdl\cmsis/include/cmsis_gcc.h **** #if ((defined (__ARM_FEATURE_CMSE  ) && (__ARM_FEATURE_CMSE   == 3)) && \
 582:Generated_Source\PSoC6\pdl\cmsis/include/cmsis_gcc.h ****      (defined (__ARM_ARCH_8M_MAIN__) && (__ARM_ARCH_8M_MAIN__ == 1))    )
 583:Generated_Source\PSoC6\pdl\cmsis/include/cmsis_gcc.h **** /**
 584:Generated_Source\PSoC6\pdl\cmsis/include/cmsis_gcc.h ****   \brief   Get Main Stack Pointer Limit (non-secure)
 585:Generated_Source\PSoC6\pdl\cmsis/include/cmsis_gcc.h ****   \details Returns the current value of the non-secure Main Stack Pointer Limit(MSPLIM) when in sec
 586:Generated_Source\PSoC6\pdl\cmsis/include/cmsis_gcc.h ****   \return               MSPLIM Register value
 587:Generated_Source\PSoC6\pdl\cmsis/include/cmsis_gcc.h ****  */
 588:Generated_Source\PSoC6\pdl\cmsis/include/cmsis_gcc.h **** __attribute__((always_inline)) __STATIC_INLINE uint32_t __TZ_get_MSPLIM_NS(void)
 589:Generated_Source\PSoC6\pdl\cmsis/include/cmsis_gcc.h **** {
 590:Generated_Source\PSoC6\pdl\cmsis/include/cmsis_gcc.h ****   register uint32_t result;
 591:Generated_Source\PSoC6\pdl\cmsis/include/cmsis_gcc.h **** 
 592:Generated_Source\PSoC6\pdl\cmsis/include/cmsis_gcc.h ****   __ASM volatile ("MRS %0, msplim_ns" : "=r" (result) );
 593:Generated_Source\PSoC6\pdl\cmsis/include/cmsis_gcc.h ****   return(result);
 594:Generated_Source\PSoC6\pdl\cmsis/include/cmsis_gcc.h **** }
 595:Generated_Source\PSoC6\pdl\cmsis/include/cmsis_gcc.h **** #endif
 596:Generated_Source\PSoC6\pdl\cmsis/include/cmsis_gcc.h **** 
 597:Generated_Source\PSoC6\pdl\cmsis/include/cmsis_gcc.h **** 
 598:Generated_Source\PSoC6\pdl\cmsis/include/cmsis_gcc.h **** /**
 599:Generated_Source\PSoC6\pdl\cmsis/include/cmsis_gcc.h ****   \brief   Set Main Stack Pointer Limit
 600:Generated_Source\PSoC6\pdl\cmsis/include/cmsis_gcc.h ****   \details Assigns the given value to the Main Stack Pointer Limit (MSPLIM).
 601:Generated_Source\PSoC6\pdl\cmsis/include/cmsis_gcc.h ****   \param [in]    MainStackPtrLimit  Main Stack Pointer Limit value to set
 602:Generated_Source\PSoC6\pdl\cmsis/include/cmsis_gcc.h ****  */
 603:Generated_Source\PSoC6\pdl\cmsis/include/cmsis_gcc.h **** __attribute__((always_inline)) __STATIC_INLINE void __set_MSPLIM(uint32_t MainStackPtrLimit)
 604:Generated_Source\PSoC6\pdl\cmsis/include/cmsis_gcc.h **** {
 605:Generated_Source\PSoC6\pdl\cmsis/include/cmsis_gcc.h ****   __ASM volatile ("MSR msplim, %0" : : "r" (MainStackPtrLimit));
 606:Generated_Source\PSoC6\pdl\cmsis/include/cmsis_gcc.h **** }
 607:Generated_Source\PSoC6\pdl\cmsis/include/cmsis_gcc.h **** 
 608:Generated_Source\PSoC6\pdl\cmsis/include/cmsis_gcc.h **** 
 609:Generated_Source\PSoC6\pdl\cmsis/include/cmsis_gcc.h **** #if ((defined (__ARM_FEATURE_CMSE  ) && (__ARM_FEATURE_CMSE   == 3)) && \
ARM GAS  C:\Users\salaz\AppData\Local\Temp\ccTAmJlP.s 			page 27


 610:Generated_Source\PSoC6\pdl\cmsis/include/cmsis_gcc.h ****      (defined (__ARM_ARCH_8M_MAIN__) && (__ARM_ARCH_8M_MAIN__ == 1))    )
 611:Generated_Source\PSoC6\pdl\cmsis/include/cmsis_gcc.h **** /**
 612:Generated_Source\PSoC6\pdl\cmsis/include/cmsis_gcc.h ****   \brief   Set Main Stack Pointer Limit (non-secure)
 613:Generated_Source\PSoC6\pdl\cmsis/include/cmsis_gcc.h ****   \details Assigns the given value to the non-secure Main Stack Pointer Limit (MSPLIM) when in secu
 614:Generated_Source\PSoC6\pdl\cmsis/include/cmsis_gcc.h ****   \param [in]    MainStackPtrLimit  Main Stack Pointer value to set
 615:Generated_Source\PSoC6\pdl\cmsis/include/cmsis_gcc.h ****  */
 616:Generated_Source\PSoC6\pdl\cmsis/include/cmsis_gcc.h **** __attribute__((always_inline)) __STATIC_INLINE void __TZ_set_MSPLIM_NS(uint32_t MainStackPtrLimit)
 617:Generated_Source\PSoC6\pdl\cmsis/include/cmsis_gcc.h **** {
 618:Generated_Source\PSoC6\pdl\cmsis/include/cmsis_gcc.h ****   __ASM volatile ("MSR msplim_ns, %0" : : "r" (MainStackPtrLimit));
 619:Generated_Source\PSoC6\pdl\cmsis/include/cmsis_gcc.h **** }
 620:Generated_Source\PSoC6\pdl\cmsis/include/cmsis_gcc.h **** #endif
 621:Generated_Source\PSoC6\pdl\cmsis/include/cmsis_gcc.h **** 
 622:Generated_Source\PSoC6\pdl\cmsis/include/cmsis_gcc.h **** #endif /* ((defined (__ARM_ARCH_8M_MAIN__ ) && (__ARM_ARCH_8M_MAIN__ == 1)) || \
 623:Generated_Source\PSoC6\pdl\cmsis/include/cmsis_gcc.h ****            (defined (__ARM_ARCH_8M_BASE__ ) && (__ARM_ARCH_8M_BASE__ == 1))    ) */
 624:Generated_Source\PSoC6\pdl\cmsis/include/cmsis_gcc.h **** 
 625:Generated_Source\PSoC6\pdl\cmsis/include/cmsis_gcc.h **** 
 626:Generated_Source\PSoC6\pdl\cmsis/include/cmsis_gcc.h **** #if ((defined (__ARM_ARCH_7EM__     ) && (__ARM_ARCH_7EM__     == 1)) || \
 627:Generated_Source\PSoC6\pdl\cmsis/include/cmsis_gcc.h ****      (defined (__ARM_ARCH_8M_MAIN__ ) && (__ARM_ARCH_8M_MAIN__ == 1))    )
 628:Generated_Source\PSoC6\pdl\cmsis/include/cmsis_gcc.h **** 
 629:Generated_Source\PSoC6\pdl\cmsis/include/cmsis_gcc.h **** /**
 630:Generated_Source\PSoC6\pdl\cmsis/include/cmsis_gcc.h ****   \brief   Get FPSCR
 631:Generated_Source\PSoC6\pdl\cmsis/include/cmsis_gcc.h ****   \details Returns the current value of the Floating Point Status/Control register.
 632:Generated_Source\PSoC6\pdl\cmsis/include/cmsis_gcc.h ****   \return               Floating Point Status/Control register value
 633:Generated_Source\PSoC6\pdl\cmsis/include/cmsis_gcc.h ****  */
 634:Generated_Source\PSoC6\pdl\cmsis/include/cmsis_gcc.h **** __attribute__((always_inline)) __STATIC_INLINE uint32_t __get_FPSCR(void)
 635:Generated_Source\PSoC6\pdl\cmsis/include/cmsis_gcc.h **** {
 636:Generated_Source\PSoC6\pdl\cmsis/include/cmsis_gcc.h **** #if ((defined (__FPU_PRESENT) && (__FPU_PRESENT == 1U)) && \
 637:Generated_Source\PSoC6\pdl\cmsis/include/cmsis_gcc.h ****      (defined (__FPU_USED   ) && (__FPU_USED    == 1U))     )
 638:Generated_Source\PSoC6\pdl\cmsis/include/cmsis_gcc.h ****   uint32_t result;
 639:Generated_Source\PSoC6\pdl\cmsis/include/cmsis_gcc.h **** 
 640:Generated_Source\PSoC6\pdl\cmsis/include/cmsis_gcc.h ****   __ASM volatile ("VMRS %0, fpscr" : "=r" (result) );
 641:Generated_Source\PSoC6\pdl\cmsis/include/cmsis_gcc.h ****   return(result);
 642:Generated_Source\PSoC6\pdl\cmsis/include/cmsis_gcc.h **** #else
 643:Generated_Source\PSoC6\pdl\cmsis/include/cmsis_gcc.h ****    return(0U);
 644:Generated_Source\PSoC6\pdl\cmsis/include/cmsis_gcc.h **** #endif
 645:Generated_Source\PSoC6\pdl\cmsis/include/cmsis_gcc.h **** }
 646:Generated_Source\PSoC6\pdl\cmsis/include/cmsis_gcc.h **** 
 647:Generated_Source\PSoC6\pdl\cmsis/include/cmsis_gcc.h **** 
 648:Generated_Source\PSoC6\pdl\cmsis/include/cmsis_gcc.h **** /**
 649:Generated_Source\PSoC6\pdl\cmsis/include/cmsis_gcc.h ****   \brief   Set FPSCR
 650:Generated_Source\PSoC6\pdl\cmsis/include/cmsis_gcc.h ****   \details Assigns the given value to the Floating Point Status/Control register.
 651:Generated_Source\PSoC6\pdl\cmsis/include/cmsis_gcc.h ****   \param [in]    fpscr  Floating Point Status/Control value to set
 652:Generated_Source\PSoC6\pdl\cmsis/include/cmsis_gcc.h ****  */
 653:Generated_Source\PSoC6\pdl\cmsis/include/cmsis_gcc.h **** __attribute__((always_inline)) __STATIC_INLINE void __set_FPSCR(uint32_t fpscr)
 654:Generated_Source\PSoC6\pdl\cmsis/include/cmsis_gcc.h **** {
 655:Generated_Source\PSoC6\pdl\cmsis/include/cmsis_gcc.h **** #if ((defined (__FPU_PRESENT) && (__FPU_PRESENT == 1U)) && \
 656:Generated_Source\PSoC6\pdl\cmsis/include/cmsis_gcc.h ****      (defined (__FPU_USED   ) && (__FPU_USED    == 1U))     )
 657:Generated_Source\PSoC6\pdl\cmsis/include/cmsis_gcc.h ****   __ASM volatile ("VMSR fpscr, %0" : : "r" (fpscr) : "vfpcc", "memory");
 658:Generated_Source\PSoC6\pdl\cmsis/include/cmsis_gcc.h **** #else
 659:Generated_Source\PSoC6\pdl\cmsis/include/cmsis_gcc.h ****   (void)fpscr;
 660:Generated_Source\PSoC6\pdl\cmsis/include/cmsis_gcc.h **** #endif
 661:Generated_Source\PSoC6\pdl\cmsis/include/cmsis_gcc.h **** }
 662:Generated_Source\PSoC6\pdl\cmsis/include/cmsis_gcc.h **** 
 663:Generated_Source\PSoC6\pdl\cmsis/include/cmsis_gcc.h **** #endif /* ((defined (__ARM_ARCH_7EM__     ) && (__ARM_ARCH_7EM__     == 1)) || \
 664:Generated_Source\PSoC6\pdl\cmsis/include/cmsis_gcc.h ****            (defined (__ARM_ARCH_8M_MAIN__ ) && (__ARM_ARCH_8M_MAIN__ == 1))    ) */
 665:Generated_Source\PSoC6\pdl\cmsis/include/cmsis_gcc.h **** 
 666:Generated_Source\PSoC6\pdl\cmsis/include/cmsis_gcc.h **** 
ARM GAS  C:\Users\salaz\AppData\Local\Temp\ccTAmJlP.s 			page 28


 667:Generated_Source\PSoC6\pdl\cmsis/include/cmsis_gcc.h **** 
 668:Generated_Source\PSoC6\pdl\cmsis/include/cmsis_gcc.h **** /*@} end of CMSIS_Core_RegAccFunctions */
 669:Generated_Source\PSoC6\pdl\cmsis/include/cmsis_gcc.h **** 
 670:Generated_Source\PSoC6\pdl\cmsis/include/cmsis_gcc.h **** 
 671:Generated_Source\PSoC6\pdl\cmsis/include/cmsis_gcc.h **** /* ##########################  Core Instruction Access  ######################### */
 672:Generated_Source\PSoC6\pdl\cmsis/include/cmsis_gcc.h **** /** \defgroup CMSIS_Core_InstructionInterface CMSIS Core Instruction Interface
 673:Generated_Source\PSoC6\pdl\cmsis/include/cmsis_gcc.h ****   Access to dedicated instructions
 674:Generated_Source\PSoC6\pdl\cmsis/include/cmsis_gcc.h ****   @{
 675:Generated_Source\PSoC6\pdl\cmsis/include/cmsis_gcc.h **** */
 676:Generated_Source\PSoC6\pdl\cmsis/include/cmsis_gcc.h **** 
 677:Generated_Source\PSoC6\pdl\cmsis/include/cmsis_gcc.h **** /* Define macros for porting to both thumb1 and thumb2.
 678:Generated_Source\PSoC6\pdl\cmsis/include/cmsis_gcc.h ****  * For thumb1, use low register (r0-r7), specified by constraint "l"
 679:Generated_Source\PSoC6\pdl\cmsis/include/cmsis_gcc.h ****  * Otherwise, use general registers, specified by constraint "r" */
 680:Generated_Source\PSoC6\pdl\cmsis/include/cmsis_gcc.h **** #if defined (__thumb__) && !defined (__thumb2__)
 681:Generated_Source\PSoC6\pdl\cmsis/include/cmsis_gcc.h **** #define __CMSIS_GCC_OUT_REG(r) "=l" (r)
 682:Generated_Source\PSoC6\pdl\cmsis/include/cmsis_gcc.h **** #define __CMSIS_GCC_RW_REG(r) "+l" (r)
 683:Generated_Source\PSoC6\pdl\cmsis/include/cmsis_gcc.h **** #define __CMSIS_GCC_USE_REG(r) "l" (r)
 684:Generated_Source\PSoC6\pdl\cmsis/include/cmsis_gcc.h **** #else
 685:Generated_Source\PSoC6\pdl\cmsis/include/cmsis_gcc.h **** #define __CMSIS_GCC_OUT_REG(r) "=r" (r)
 686:Generated_Source\PSoC6\pdl\cmsis/include/cmsis_gcc.h **** #define __CMSIS_GCC_RW_REG(r) "+r" (r)
 687:Generated_Source\PSoC6\pdl\cmsis/include/cmsis_gcc.h **** #define __CMSIS_GCC_USE_REG(r) "r" (r)
 688:Generated_Source\PSoC6\pdl\cmsis/include/cmsis_gcc.h **** #endif
 689:Generated_Source\PSoC6\pdl\cmsis/include/cmsis_gcc.h **** 
 690:Generated_Source\PSoC6\pdl\cmsis/include/cmsis_gcc.h **** /**
 691:Generated_Source\PSoC6\pdl\cmsis/include/cmsis_gcc.h ****   \brief   No Operation
 692:Generated_Source\PSoC6\pdl\cmsis/include/cmsis_gcc.h ****   \details No Operation does nothing. This instruction can be used for code alignment purposes.
 693:Generated_Source\PSoC6\pdl\cmsis/include/cmsis_gcc.h ****  */
 694:Generated_Source\PSoC6\pdl\cmsis/include/cmsis_gcc.h **** //__attribute__((always_inline)) __STATIC_INLINE void __NOP(void)
 695:Generated_Source\PSoC6\pdl\cmsis/include/cmsis_gcc.h **** //{
 696:Generated_Source\PSoC6\pdl\cmsis/include/cmsis_gcc.h **** //  __ASM volatile ("nop");
 697:Generated_Source\PSoC6\pdl\cmsis/include/cmsis_gcc.h **** //}
 698:Generated_Source\PSoC6\pdl\cmsis/include/cmsis_gcc.h **** #define __NOP()                             __ASM volatile ("nop")       /* This implementation gen
 699:Generated_Source\PSoC6\pdl\cmsis/include/cmsis_gcc.h **** 
 700:Generated_Source\PSoC6\pdl\cmsis/include/cmsis_gcc.h **** /**
 701:Generated_Source\PSoC6\pdl\cmsis/include/cmsis_gcc.h ****   \brief   Wait For Interrupt
 702:Generated_Source\PSoC6\pdl\cmsis/include/cmsis_gcc.h ****   \details Wait For Interrupt is a hint instruction that suspends execution until one of a number o
 703:Generated_Source\PSoC6\pdl\cmsis/include/cmsis_gcc.h ****  */
 704:Generated_Source\PSoC6\pdl\cmsis/include/cmsis_gcc.h **** //__attribute__((always_inline)) __STATIC_INLINE void __WFI(void)
 705:Generated_Source\PSoC6\pdl\cmsis/include/cmsis_gcc.h **** //{
 706:Generated_Source\PSoC6\pdl\cmsis/include/cmsis_gcc.h **** //  __ASM volatile ("wfi");
 707:Generated_Source\PSoC6\pdl\cmsis/include/cmsis_gcc.h **** //}
 708:Generated_Source\PSoC6\pdl\cmsis/include/cmsis_gcc.h **** #define __WFI()                             __ASM volatile ("wfi")       /* This implementation gen
 709:Generated_Source\PSoC6\pdl\cmsis/include/cmsis_gcc.h **** 
 710:Generated_Source\PSoC6\pdl\cmsis/include/cmsis_gcc.h **** 
 711:Generated_Source\PSoC6\pdl\cmsis/include/cmsis_gcc.h **** /**
 712:Generated_Source\PSoC6\pdl\cmsis/include/cmsis_gcc.h ****   \brief   Wait For Event
 713:Generated_Source\PSoC6\pdl\cmsis/include/cmsis_gcc.h ****   \details Wait For Event is a hint instruction that permits the processor to enter
 714:Generated_Source\PSoC6\pdl\cmsis/include/cmsis_gcc.h ****            a low-power state until one of a number of events occurs.
 715:Generated_Source\PSoC6\pdl\cmsis/include/cmsis_gcc.h ****  */
 716:Generated_Source\PSoC6\pdl\cmsis/include/cmsis_gcc.h **** //__attribute__((always_inline)) __STATIC_INLINE void __WFE(void)
 717:Generated_Source\PSoC6\pdl\cmsis/include/cmsis_gcc.h **** //{
 718:Generated_Source\PSoC6\pdl\cmsis/include/cmsis_gcc.h **** //  __ASM volatile ("wfe");
 719:Generated_Source\PSoC6\pdl\cmsis/include/cmsis_gcc.h **** //}
 720:Generated_Source\PSoC6\pdl\cmsis/include/cmsis_gcc.h **** #define __WFE()                             __ASM volatile ("wfe")       /* This implementation gen
 721:Generated_Source\PSoC6\pdl\cmsis/include/cmsis_gcc.h **** 
 722:Generated_Source\PSoC6\pdl\cmsis/include/cmsis_gcc.h **** 
 723:Generated_Source\PSoC6\pdl\cmsis/include/cmsis_gcc.h **** /**
ARM GAS  C:\Users\salaz\AppData\Local\Temp\ccTAmJlP.s 			page 29


 724:Generated_Source\PSoC6\pdl\cmsis/include/cmsis_gcc.h ****   \brief   Send Event
 725:Generated_Source\PSoC6\pdl\cmsis/include/cmsis_gcc.h ****   \details Send Event is a hint instruction. It causes an event to be signaled to the CPU.
 726:Generated_Source\PSoC6\pdl\cmsis/include/cmsis_gcc.h ****  */
 727:Generated_Source\PSoC6\pdl\cmsis/include/cmsis_gcc.h **** //__attribute__((always_inline)) __STATIC_INLINE void __SEV(void)
 728:Generated_Source\PSoC6\pdl\cmsis/include/cmsis_gcc.h **** //{
 729:Generated_Source\PSoC6\pdl\cmsis/include/cmsis_gcc.h **** //  __ASM volatile ("sev");
 730:Generated_Source\PSoC6\pdl\cmsis/include/cmsis_gcc.h **** //}
 731:Generated_Source\PSoC6\pdl\cmsis/include/cmsis_gcc.h **** #define __SEV()                             __ASM volatile ("sev")       /* This implementation gen
 732:Generated_Source\PSoC6\pdl\cmsis/include/cmsis_gcc.h **** 
 733:Generated_Source\PSoC6\pdl\cmsis/include/cmsis_gcc.h **** 
 734:Generated_Source\PSoC6\pdl\cmsis/include/cmsis_gcc.h **** /**
 735:Generated_Source\PSoC6\pdl\cmsis/include/cmsis_gcc.h ****   \brief   Instruction Synchronization Barrier
 736:Generated_Source\PSoC6\pdl\cmsis/include/cmsis_gcc.h ****   \details Instruction Synchronization Barrier flushes the pipeline in the processor,
 737:Generated_Source\PSoC6\pdl\cmsis/include/cmsis_gcc.h ****            so that all instructions following the ISB are fetched from cache or memory,
 738:Generated_Source\PSoC6\pdl\cmsis/include/cmsis_gcc.h ****            after the instruction has been completed.
 739:Generated_Source\PSoC6\pdl\cmsis/include/cmsis_gcc.h ****  */
 740:Generated_Source\PSoC6\pdl\cmsis/include/cmsis_gcc.h **** __attribute__((always_inline)) __STATIC_INLINE void __ISB(void)
 741:Generated_Source\PSoC6\pdl\cmsis/include/cmsis_gcc.h **** {
 742:Generated_Source\PSoC6\pdl\cmsis/include/cmsis_gcc.h ****   __ASM volatile ("isb 0xF":::"memory");
 743:Generated_Source\PSoC6\pdl\cmsis/include/cmsis_gcc.h **** }
 744:Generated_Source\PSoC6\pdl\cmsis/include/cmsis_gcc.h **** 
 745:Generated_Source\PSoC6\pdl\cmsis/include/cmsis_gcc.h **** 
 746:Generated_Source\PSoC6\pdl\cmsis/include/cmsis_gcc.h **** /**
 747:Generated_Source\PSoC6\pdl\cmsis/include/cmsis_gcc.h ****   \brief   Data Synchronization Barrier
 748:Generated_Source\PSoC6\pdl\cmsis/include/cmsis_gcc.h ****   \details Acts as a special kind of Data Memory Barrier.
 749:Generated_Source\PSoC6\pdl\cmsis/include/cmsis_gcc.h ****            It completes when all explicit memory accesses before this instruction complete.
 750:Generated_Source\PSoC6\pdl\cmsis/include/cmsis_gcc.h ****  */
 751:Generated_Source\PSoC6\pdl\cmsis/include/cmsis_gcc.h **** __attribute__((always_inline)) __STATIC_INLINE void __DSB(void)
 752:Generated_Source\PSoC6\pdl\cmsis/include/cmsis_gcc.h **** {
 753:Generated_Source\PSoC6\pdl\cmsis/include/cmsis_gcc.h ****   __ASM volatile ("dsb 0xF":::"memory");
 116              		.loc 2 753 0
 117              		.syntax divided
 118              	@ 753 "Generated_Source\PSoC6\pdl\cmsis/include/cmsis_gcc.h" 1
 119 002c BFF34F8F 		dsb 0xF
 120              	@ 0 "" 2
 121              		.thumb
 122              		.syntax unified
 123              	.LBE7:
 124              	.LBE6:
 125              	.LBB8:
 126              	.LBB9:
 742:Generated_Source\PSoC6\pdl\cmsis/include/cmsis_gcc.h **** }
 127              		.loc 2 742 0
 128              		.syntax divided
 129              	@ 742 "Generated_Source\PSoC6\pdl\cmsis/include/cmsis_gcc.h" 1
 130 0030 BFF36F8F 		isb 0xF
 131              	@ 0 "" 2
 132              		.thumb
 133              		.syntax unified
 134              	.L8:
 135              	.LBE9:
 136              	.LBE8:
 759:Generated_Source\PSoC6\pdl\cmsis/include/core_cm0plus.h ****     __DSB();
 760:Generated_Source\PSoC6\pdl\cmsis/include/core_cm0plus.h ****     __ISB();
 761:Generated_Source\PSoC6\pdl\cmsis/include/core_cm0plus.h ****   }
 762:Generated_Source\PSoC6\pdl\cmsis/include/core_cm0plus.h **** }
 137              		.loc 1 762 0
ARM GAS  C:\Users\salaz\AppData\Local\Temp\ccTAmJlP.s 			page 30


 138 0034 C046     		nop
 139 0036 BD46     		mov	sp, r7
 140 0038 02B0     		add	sp, sp, #8
 141              		@ sp needed
 142 003a 80BD     		pop	{r7, pc}
 143              	.L10:
 144              		.align	2
 145              	.L9:
 146 003c 00E100E0 		.word	-536813312
 147              		.cfi_endproc
 148              	.LFE23:
 149              		.size	__NVIC_DisableIRQ, .-__NVIC_DisableIRQ
 150              		.section	.rodata
 151              		.align	2
 152              	.LC0:
 153 0000 47656E65 		.ascii	"Generated_Source\\PSoC6\\pdl\\drivers/peripheral/ip"
 153      72617465 
 153      645F536F 
 153      75726365 
 153      5C50536F 
 154 0030 632F6379 		.ascii	"c/cy_ipc_drv.h\000"
 154      5F697063 
 154      5F647276 
 154      2E6800
 155              		.section	.text.Cy_IPC_Drv_GetIpcBaseAddress,"ax",%progbits
 156              		.align	2
 157              		.code	16
 158              		.thumb_func
 159              		.type	Cy_IPC_Drv_GetIpcBaseAddress, %function
 160              	Cy_IPC_Drv_GetIpcBaseAddress:
 161              	.LFB36:
 162              		.file 3 "Generated_Source\\PSoC6\\pdl\\drivers/peripheral/ipc/cy_ipc_drv.h"
   1:Generated_Source\PSoC6\pdl\drivers/peripheral/ipc/cy_ipc_drv.h **** /***************************************************************************//**
   2:Generated_Source\PSoC6\pdl\drivers/peripheral/ipc/cy_ipc_drv.h **** * \file cy_ipc_drv.h
   3:Generated_Source\PSoC6\pdl\drivers/peripheral/ipc/cy_ipc_drv.h **** * \version 1.20
   4:Generated_Source\PSoC6\pdl\drivers/peripheral/ipc/cy_ipc_drv.h **** *
   5:Generated_Source\PSoC6\pdl\drivers/peripheral/ipc/cy_ipc_drv.h **** * Provides an API declaration of the IPC driver.
   6:Generated_Source\PSoC6\pdl\drivers/peripheral/ipc/cy_ipc_drv.h **** *
   7:Generated_Source\PSoC6\pdl\drivers/peripheral/ipc/cy_ipc_drv.h **** ********************************************************************************
   8:Generated_Source\PSoC6\pdl\drivers/peripheral/ipc/cy_ipc_drv.h **** * \copyright
   9:Generated_Source\PSoC6\pdl\drivers/peripheral/ipc/cy_ipc_drv.h **** * Copyright 2016-2018, Cypress Semiconductor Corporation. All rights reserved.
  10:Generated_Source\PSoC6\pdl\drivers/peripheral/ipc/cy_ipc_drv.h **** * You may use this file only in accordance with the license, terms, conditions,
  11:Generated_Source\PSoC6\pdl\drivers/peripheral/ipc/cy_ipc_drv.h **** * disclaimers, and limitations in the end user license agreement accompanying
  12:Generated_Source\PSoC6\pdl\drivers/peripheral/ipc/cy_ipc_drv.h **** * the software package with which this file was provided.
  13:Generated_Source\PSoC6\pdl\drivers/peripheral/ipc/cy_ipc_drv.h **** *******************************************************************************/
  14:Generated_Source\PSoC6\pdl\drivers/peripheral/ipc/cy_ipc_drv.h **** 
  15:Generated_Source\PSoC6\pdl\drivers/peripheral/ipc/cy_ipc_drv.h **** #ifndef CY_IPC_DRV_H
  16:Generated_Source\PSoC6\pdl\drivers/peripheral/ipc/cy_ipc_drv.h **** #define CY_IPC_DRV_H
  17:Generated_Source\PSoC6\pdl\drivers/peripheral/ipc/cy_ipc_drv.h **** 
  18:Generated_Source\PSoC6\pdl\drivers/peripheral/ipc/cy_ipc_drv.h **** 
  19:Generated_Source\PSoC6\pdl\drivers/peripheral/ipc/cy_ipc_drv.h **** /**
  20:Generated_Source\PSoC6\pdl\drivers/peripheral/ipc/cy_ipc_drv.h **** * \defgroup group_ipc Inter Process Communication (IPC)
  21:Generated_Source\PSoC6\pdl\drivers/peripheral/ipc/cy_ipc_drv.h **** * \{
  22:Generated_Source\PSoC6\pdl\drivers/peripheral/ipc/cy_ipc_drv.h **** * The inter-processor communication (IPC) driver provides a safe and reliable
  23:Generated_Source\PSoC6\pdl\drivers/peripheral/ipc/cy_ipc_drv.h **** * method to transfer data between CPUs. Hardware locking ensures that only one
  24:Generated_Source\PSoC6\pdl\drivers/peripheral/ipc/cy_ipc_drv.h **** * device can acquire and transfer data at a time so no data is lost or
  25:Generated_Source\PSoC6\pdl\drivers/peripheral/ipc/cy_ipc_drv.h **** * overwritten by asynchronous processes or CPUs.
ARM GAS  C:\Users\salaz\AppData\Local\Temp\ccTAmJlP.s 			page 31


  26:Generated_Source\PSoC6\pdl\drivers/peripheral/ipc/cy_ipc_drv.h **** *
  27:Generated_Source\PSoC6\pdl\drivers/peripheral/ipc/cy_ipc_drv.h **** * There are three parts to the API:
  28:Generated_Source\PSoC6\pdl\drivers/peripheral/ipc/cy_ipc_drv.h **** *     - Driver-level (DRV) API - used internally by Semaphore and Pipe levels
  29:Generated_Source\PSoC6\pdl\drivers/peripheral/ipc/cy_ipc_drv.h **** *     - Pipe-level (PIPE) API - establishes a communication channel between
  30:Generated_Source\PSoC6\pdl\drivers/peripheral/ipc/cy_ipc_drv.h **** *       processors
  31:Generated_Source\PSoC6\pdl\drivers/peripheral/ipc/cy_ipc_drv.h **** *     - Semaphore-level (SEMA) API - enables users to set and clear flags to
  32:Generated_Source\PSoC6\pdl\drivers/peripheral/ipc/cy_ipc_drv.h **** *       synchronize operations.
  33:Generated_Source\PSoC6\pdl\drivers/peripheral/ipc/cy_ipc_drv.h **** *
  34:Generated_Source\PSoC6\pdl\drivers/peripheral/ipc/cy_ipc_drv.h **** * Firmware does not need to use the DRV API. It can implement IPC functionality
  35:Generated_Source\PSoC6\pdl\drivers/peripheral/ipc/cy_ipc_drv.h **** * entirely with the PIPE and SEMA APIs.
  36:Generated_Source\PSoC6\pdl\drivers/peripheral/ipc/cy_ipc_drv.h **** *
  37:Generated_Source\PSoC6\pdl\drivers/peripheral/ipc/cy_ipc_drv.h **** * \section group_ipc_background Background
  38:Generated_Source\PSoC6\pdl\drivers/peripheral/ipc/cy_ipc_drv.h **** *
  39:Generated_Source\PSoC6\pdl\drivers/peripheral/ipc/cy_ipc_drv.h **** * IPC is implemented in hardware as a collection of individual communication
  40:Generated_Source\PSoC6\pdl\drivers/peripheral/ipc/cy_ipc_drv.h **** * channels, each with a set of 32-bit registers. The IPC design implements a set
  41:Generated_Source\PSoC6\pdl\drivers/peripheral/ipc/cy_ipc_drv.h **** * of interrupts that enable each processor to notify the other that data is
  42:Generated_Source\PSoC6\pdl\drivers/peripheral/ipc/cy_ipc_drv.h **** * available, or has been processed. There is also a locking mechanism that
  43:Generated_Source\PSoC6\pdl\drivers/peripheral/ipc/cy_ipc_drv.h **** * allows only one CPU to gain access at a time.
  44:Generated_Source\PSoC6\pdl\drivers/peripheral/ipc/cy_ipc_drv.h **** *
  45:Generated_Source\PSoC6\pdl\drivers/peripheral/ipc/cy_ipc_drv.h **** * The Driver-level API manages each channel's registers to implement IPC
  46:Generated_Source\PSoC6\pdl\drivers/peripheral/ipc/cy_ipc_drv.h **** * functionality. For information on the IPC registers, see the IPC chapter of
  47:Generated_Source\PSoC6\pdl\drivers/peripheral/ipc/cy_ipc_drv.h **** * the Technical Reference Manual (TRM).
  48:Generated_Source\PSoC6\pdl\drivers/peripheral/ipc/cy_ipc_drv.h **** *
  49:Generated_Source\PSoC6\pdl\drivers/peripheral/ipc/cy_ipc_drv.h **** * At the hardware level, communication is a five-step process.
  50:Generated_Source\PSoC6\pdl\drivers/peripheral/ipc/cy_ipc_drv.h **** *     -#  The sending processor acquires a channel
  51:Generated_Source\PSoC6\pdl\drivers/peripheral/ipc/cy_ipc_drv.h **** *     -#  It puts data into the channel
  52:Generated_Source\PSoC6\pdl\drivers/peripheral/ipc/cy_ipc_drv.h **** *     -#  The sender generates a notify event (interrupt)
  53:Generated_Source\PSoC6\pdl\drivers/peripheral/ipc/cy_ipc_drv.h **** *     -#  The receiving processor identifies the sender and retrieves the data
  54:Generated_Source\PSoC6\pdl\drivers/peripheral/ipc/cy_ipc_drv.h **** *     -#  The receiving processor generates a release event (interrupt)
  55:Generated_Source\PSoC6\pdl\drivers/peripheral/ipc/cy_ipc_drv.h **** *
  56:Generated_Source\PSoC6\pdl\drivers/peripheral/ipc/cy_ipc_drv.h **** * \image html ipc_driver.png
  57:Generated_Source\PSoC6\pdl\drivers/peripheral/ipc/cy_ipc_drv.h **** *
  58:Generated_Source\PSoC6\pdl\drivers/peripheral/ipc/cy_ipc_drv.h **** * These transactions are handled transparently by the DRV-level API. Use the
  59:Generated_Source\PSoC6\pdl\drivers/peripheral/ipc/cy_ipc_drv.h **** * PIPE and SEMA layers of the API to implement communication in your application.
  60:Generated_Source\PSoC6\pdl\drivers/peripheral/ipc/cy_ipc_drv.h **** * The data transferred is limited to a single 32-bit value. As implemented by
  61:Generated_Source\PSoC6\pdl\drivers/peripheral/ipc/cy_ipc_drv.h **** * the PIPE API, that value is a pointer to a data structure of arbitrary size
  62:Generated_Source\PSoC6\pdl\drivers/peripheral/ipc/cy_ipc_drv.h **** * and complexity.
  63:Generated_Source\PSoC6\pdl\drivers/peripheral/ipc/cy_ipc_drv.h **** *
  64:Generated_Source\PSoC6\pdl\drivers/peripheral/ipc/cy_ipc_drv.h **** * \section group_ipc_overview Overview
  65:Generated_Source\PSoC6\pdl\drivers/peripheral/ipc/cy_ipc_drv.h **** *
  66:Generated_Source\PSoC6\pdl\drivers/peripheral/ipc/cy_ipc_drv.h **** * The Pipe is the key element in the PDL design. A pipe is typically a
  67:Generated_Source\PSoC6\pdl\drivers/peripheral/ipc/cy_ipc_drv.h **** * full-duplex communication channel between CPU cores. A pipe allows a single
  68:Generated_Source\PSoC6\pdl\drivers/peripheral/ipc/cy_ipc_drv.h **** * conduit to transfer messages or data to and from multiple processes or CPUs.
  69:Generated_Source\PSoC6\pdl\drivers/peripheral/ipc/cy_ipc_drv.h **** *
  70:Generated_Source\PSoC6\pdl\drivers/peripheral/ipc/cy_ipc_drv.h **** * A pipe has two endpoints, one on each core. Each endpoint contains a dedicated
  71:Generated_Source\PSoC6\pdl\drivers/peripheral/ipc/cy_ipc_drv.h **** * IPC channel and an interrupt. IPC channels 0-7 and IPC interrupts 0-7 are
  72:Generated_Source\PSoC6\pdl\drivers/peripheral/ipc/cy_ipc_drv.h **** * reserved for system use.
  73:Generated_Source\PSoC6\pdl\drivers/peripheral/ipc/cy_ipc_drv.h **** *
  74:Generated_Source\PSoC6\pdl\drivers/peripheral/ipc/cy_ipc_drv.h **** * The pipe also contains the number of clients it supports, and for each client
  75:Generated_Source\PSoC6\pdl\drivers/peripheral/ipc/cy_ipc_drv.h **** * a callback function. So the pipe can service a number of clients, each with a
  76:Generated_Source\PSoC6\pdl\drivers/peripheral/ipc/cy_ipc_drv.h **** * separate callback function, on either endpoint. The number of clients a pipe
  77:Generated_Source\PSoC6\pdl\drivers/peripheral/ipc/cy_ipc_drv.h **** * supports is the sum of each endpoint's clients.
  78:Generated_Source\PSoC6\pdl\drivers/peripheral/ipc/cy_ipc_drv.h **** *
  79:Generated_Source\PSoC6\pdl\drivers/peripheral/ipc/cy_ipc_drv.h **** * This design enables any number of processes on the sending core to put
  80:Generated_Source\PSoC6\pdl\drivers/peripheral/ipc/cy_ipc_drv.h **** * arbitrary data into a single pipe. The first element of that data is the
  81:Generated_Source\PSoC6\pdl\drivers/peripheral/ipc/cy_ipc_drv.h **** * client ID of the client that should handle the data.
  82:Generated_Source\PSoC6\pdl\drivers/peripheral/ipc/cy_ipc_drv.h **** *
ARM GAS  C:\Users\salaz\AppData\Local\Temp\ccTAmJlP.s 			page 32


  83:Generated_Source\PSoC6\pdl\drivers/peripheral/ipc/cy_ipc_drv.h **** * An interrupt notifies the receiving core that data is available. The receiving
  84:Generated_Source\PSoC6\pdl\drivers/peripheral/ipc/cy_ipc_drv.h **** * core parses the data to identify the client, and then dispatches the event to
  85:Generated_Source\PSoC6\pdl\drivers/peripheral/ipc/cy_ipc_drv.h **** * the appropriate client via the client callback function. An interrupt notifies
  86:Generated_Source\PSoC6\pdl\drivers/peripheral/ipc/cy_ipc_drv.h **** * the sending core that the receiver is finished. In this way a single pipe can
  87:Generated_Source\PSoC6\pdl\drivers/peripheral/ipc/cy_ipc_drv.h **** * manage arbitrary data transfers between cores with data flowing in either
  88:Generated_Source\PSoC6\pdl\drivers/peripheral/ipc/cy_ipc_drv.h **** * direction.
  89:Generated_Source\PSoC6\pdl\drivers/peripheral/ipc/cy_ipc_drv.h **** *
  90:Generated_Source\PSoC6\pdl\drivers/peripheral/ipc/cy_ipc_drv.h **** * \image html ipc_ints.png
  91:Generated_Source\PSoC6\pdl\drivers/peripheral/ipc/cy_ipc_drv.h **** *
  92:Generated_Source\PSoC6\pdl\drivers/peripheral/ipc/cy_ipc_drv.h **** * The application can use semaphores to control access to shared resources, as
  93:Generated_Source\PSoC6\pdl\drivers/peripheral/ipc/cy_ipc_drv.h **** * required by the application's logic.
  94:Generated_Source\PSoC6\pdl\drivers/peripheral/ipc/cy_ipc_drv.h **** *
  95:Generated_Source\PSoC6\pdl\drivers/peripheral/ipc/cy_ipc_drv.h **** * The PDL provides two specific files that set up default IPC functionality.
  96:Generated_Source\PSoC6\pdl\drivers/peripheral/ipc/cy_ipc_drv.h **** * They are cy_ipc_config.h and cy_ipc_config.c. You can modify these files based
  97:Generated_Source\PSoC6\pdl\drivers/peripheral/ipc/cy_ipc_drv.h **** * on the requirements of your design. If you use PSoC Creator as a development
  98:Generated_Source\PSoC6\pdl\drivers/peripheral/ipc/cy_ipc_drv.h **** * environment, it will not overwrite your changes when you generate the
  99:Generated_Source\PSoC6\pdl\drivers/peripheral/ipc/cy_ipc_drv.h **** * application or build your code.
 100:Generated_Source\PSoC6\pdl\drivers/peripheral/ipc/cy_ipc_drv.h **** *
 101:Generated_Source\PSoC6\pdl\drivers/peripheral/ipc/cy_ipc_drv.h **** * \section group_ipc_pipe_layer PIPE layer
 102:Generated_Source\PSoC6\pdl\drivers/peripheral/ipc/cy_ipc_drv.h **** *
 103:Generated_Source\PSoC6\pdl\drivers/peripheral/ipc/cy_ipc_drv.h **** * A pipe is a communication channel between two endpoints. PSoC 6 devices support
 104:Generated_Source\PSoC6\pdl\drivers/peripheral/ipc/cy_ipc_drv.h **** * 16 IPC channels, and 16 IPC interrupts, each numbered 0-15. IPC Channels 0-7
 105:Generated_Source\PSoC6\pdl\drivers/peripheral/ipc/cy_ipc_drv.h **** * and IPC interrupts 0-7 are reserved for system use. Channels 8-15 and
 106:Generated_Source\PSoC6\pdl\drivers/peripheral/ipc/cy_ipc_drv.h **** * interrupts 8-15 are available for application use.
 107:Generated_Source\PSoC6\pdl\drivers/peripheral/ipc/cy_ipc_drv.h **** *
 108:Generated_Source\PSoC6\pdl\drivers/peripheral/ipc/cy_ipc_drv.h **** * A full duplex pipe uses two IPC channels, one per endpoint. Each endpoint
 109:Generated_Source\PSoC6\pdl\drivers/peripheral/ipc/cy_ipc_drv.h **** * specifies all the information required to process a message (either sent or
 110:Generated_Source\PSoC6\pdl\drivers/peripheral/ipc/cy_ipc_drv.h **** * received). Each endpoint is configured to use an IPC channel, and an IPC
 111:Generated_Source\PSoC6\pdl\drivers/peripheral/ipc/cy_ipc_drv.h **** * interrupt. Common practice is to use the interrupt with the same number as
 112:Generated_Source\PSoC6\pdl\drivers/peripheral/ipc/cy_ipc_drv.h **** * the IPC channel. However, IPC Interrupts are not directly associated with the
 113:Generated_Source\PSoC6\pdl\drivers/peripheral/ipc/cy_ipc_drv.h **** * IPC channels, so any channel can use any interrupt.  Any IPC channel can
 114:Generated_Source\PSoC6\pdl\drivers/peripheral/ipc/cy_ipc_drv.h **** * trigger 0, 1 or all the IPC interrupts at once, depending on the Notify or
 115:Generated_Source\PSoC6\pdl\drivers/peripheral/ipc/cy_ipc_drv.h **** * Release masks used.
 116:Generated_Source\PSoC6\pdl\drivers/peripheral/ipc/cy_ipc_drv.h **** *
 117:Generated_Source\PSoC6\pdl\drivers/peripheral/ipc/cy_ipc_drv.h **** * It is also possible to set up a one-directional pipe, using a single IPC
 118:Generated_Source\PSoC6\pdl\drivers/peripheral/ipc/cy_ipc_drv.h **** * channel. In this design one processor is always the sender, and the other is
 119:Generated_Source\PSoC6\pdl\drivers/peripheral/ipc/cy_ipc_drv.h **** * always the receiver. However, there are still two endpoints.
 120:Generated_Source\PSoC6\pdl\drivers/peripheral/ipc/cy_ipc_drv.h **** *
 121:Generated_Source\PSoC6\pdl\drivers/peripheral/ipc/cy_ipc_drv.h **** * A pipe supports an arbitrary number of clients with an array of callback
 122:Generated_Source\PSoC6\pdl\drivers/peripheral/ipc/cy_ipc_drv.h **** * functions, one per client. The client ID is the index number into the array
 123:Generated_Source\PSoC6\pdl\drivers/peripheral/ipc/cy_ipc_drv.h **** * for the client. After a pipe is configured and initialized, the application
 124:Generated_Source\PSoC6\pdl\drivers/peripheral/ipc/cy_ipc_drv.h **** * calls Cy_IPC_Pipe_RegisterCallback() once per client to register each client's
 125:Generated_Source\PSoC6\pdl\drivers/peripheral/ipc/cy_ipc_drv.h **** * callback function. Multiple clients can use the same callback function. The
 126:Generated_Source\PSoC6\pdl\drivers/peripheral/ipc/cy_ipc_drv.h **** * endpoints in a pipe share the callback array.
 127:Generated_Source\PSoC6\pdl\drivers/peripheral/ipc/cy_ipc_drv.h **** *
 128:Generated_Source\PSoC6\pdl\drivers/peripheral/ipc/cy_ipc_drv.h **** * Use Cy_IPC_Pipe_SendMessage() to send data. You specify both the "to" and
 129:Generated_Source\PSoC6\pdl\drivers/peripheral/ipc/cy_ipc_drv.h **** * "from" endpoints, and a callback function to be used when the data transfer is
 130:Generated_Source\PSoC6\pdl\drivers/peripheral/ipc/cy_ipc_drv.h **** * complete. The data is a 32-bit void pointer. The data pointed to is arbitrary,
 131:Generated_Source\PSoC6\pdl\drivers/peripheral/ipc/cy_ipc_drv.h **** * and can be an array, a structure, or a location in memory. The only limitation
 132:Generated_Source\PSoC6\pdl\drivers/peripheral/ipc/cy_ipc_drv.h **** * is that the first element of the data must be a 32-bit unsigned word containing
 133:Generated_Source\PSoC6\pdl\drivers/peripheral/ipc/cy_ipc_drv.h **** * a client ID number. The ID number is the index into the callback array.
 134:Generated_Source\PSoC6\pdl\drivers/peripheral/ipc/cy_ipc_drv.h **** *
 135:Generated_Source\PSoC6\pdl\drivers/peripheral/ipc/cy_ipc_drv.h **** * When a message is sent, the receiving endpoint's interrupt handler is called.
 136:Generated_Source\PSoC6\pdl\drivers/peripheral/ipc/cy_ipc_drv.h **** * The ISR can perform any task required by the design. However, as part of its
 137:Generated_Source\PSoC6\pdl\drivers/peripheral/ipc/cy_ipc_drv.h **** * function it calls \ref Cy_IPC_Pipe_ExecCallback. This function retrieves the
 138:Generated_Source\PSoC6\pdl\drivers/peripheral/ipc/cy_ipc_drv.h **** * client ID from the data and calls the associated callback function.
 139:Generated_Source\PSoC6\pdl\drivers/peripheral/ipc/cy_ipc_drv.h **** * The user-supplied callback function handles the data in whatever way is
ARM GAS  C:\Users\salaz\AppData\Local\Temp\ccTAmJlP.s 			page 33


 140:Generated_Source\PSoC6\pdl\drivers/peripheral/ipc/cy_ipc_drv.h **** * appropriate based on the application logic.
 141:Generated_Source\PSoC6\pdl\drivers/peripheral/ipc/cy_ipc_drv.h **** *
 142:Generated_Source\PSoC6\pdl\drivers/peripheral/ipc/cy_ipc_drv.h **** * After the callback function is returned by the receiver, it invokes the release
 143:Generated_Source\PSoC6\pdl\drivers/peripheral/ipc/cy_ipc_drv.h **** * callback function defined by the sender of the message.
 144:Generated_Source\PSoC6\pdl\drivers/peripheral/ipc/cy_ipc_drv.h **** *
 145:Generated_Source\PSoC6\pdl\drivers/peripheral/ipc/cy_ipc_drv.h **** * \section group_ipc_sema_layer SEMA Layer
 146:Generated_Source\PSoC6\pdl\drivers/peripheral/ipc/cy_ipc_drv.h **** *
 147:Generated_Source\PSoC6\pdl\drivers/peripheral/ipc/cy_ipc_drv.h **** * A semaphore is a flag the application uses to control access to a shared
 148:Generated_Source\PSoC6\pdl\drivers/peripheral/ipc/cy_ipc_drv.h **** * resource. The SEMA-level API uses an IPC channel to implement
 149:Generated_Source\PSoC6\pdl\drivers/peripheral/ipc/cy_ipc_drv.h **** * semaphores. Startup code sets up a default semaphore system. The
 150:Generated_Source\PSoC6\pdl\drivers/peripheral/ipc/cy_ipc_drv.h **** * default system creates an array of 128 semaphores (four 32-bit values).
 151:Generated_Source\PSoC6\pdl\drivers/peripheral/ipc/cy_ipc_drv.h **** * Semaphores 0-15 are reserved for system use. See
 152:Generated_Source\PSoC6\pdl\drivers/peripheral/ipc/cy_ipc_drv.h **** * Configuration Considerations - SEMA.
 153:Generated_Source\PSoC6\pdl\drivers/peripheral/ipc/cy_ipc_drv.h **** *
 154:Generated_Source\PSoC6\pdl\drivers/peripheral/ipc/cy_ipc_drv.h **** * Functions are available to initialize the semaphore system, to set or
 155:Generated_Source\PSoC6\pdl\drivers/peripheral/ipc/cy_ipc_drv.h **** * clear a semaphore, or to get the semaphore's current status. Application
 156:Generated_Source\PSoC6\pdl\drivers/peripheral/ipc/cy_ipc_drv.h **** * logic uses SEMA functions to relate a particular semaphore to a particular
 157:Generated_Source\PSoC6\pdl\drivers/peripheral/ipc/cy_ipc_drv.h **** * shared resource, and set, clear, or check the flag when accessing the
 158:Generated_Source\PSoC6\pdl\drivers/peripheral/ipc/cy_ipc_drv.h **** * shared resource.
 159:Generated_Source\PSoC6\pdl\drivers/peripheral/ipc/cy_ipc_drv.h **** *
 160:Generated_Source\PSoC6\pdl\drivers/peripheral/ipc/cy_ipc_drv.h **** * \section group_ipc_configuration_cypipe Configuration Considerations - CYPIPE
 161:Generated_Source\PSoC6\pdl\drivers/peripheral/ipc/cy_ipc_drv.h **** *
 162:Generated_Source\PSoC6\pdl\drivers/peripheral/ipc/cy_ipc_drv.h **** * There are none. The cy_ipc_config files set up the required CYPIPE for system
 163:Generated_Source\PSoC6\pdl\drivers/peripheral/ipc/cy_ipc_drv.h **** * use. Do not modify the CYPIPE. It uses IPC channels 5 and 6 to implement full
 164:Generated_Source\PSoC6\pdl\drivers/peripheral/ipc/cy_ipc_drv.h **** * duplex communication between cores. On the CM0+ the notify interrupt is
 165:Generated_Source\PSoC6\pdl\drivers/peripheral/ipc/cy_ipc_drv.h **** * assigned to NVIC IRQn 27. See System Interrupt (SysInt) for background.
 166:Generated_Source\PSoC6\pdl\drivers/peripheral/ipc/cy_ipc_drv.h **** *
 167:Generated_Source\PSoC6\pdl\drivers/peripheral/ipc/cy_ipc_drv.h **** * To create your own pipe (<b>USRPIPE</b>) you should edit cy_ipc_config files
 168:Generated_Source\PSoC6\pdl\drivers/peripheral/ipc/cy_ipc_drv.h **** * and take 4 steps:
 169:Generated_Source\PSoC6\pdl\drivers/peripheral/ipc/cy_ipc_drv.h **** *   -# Define a pipe callbacks processing interrupt handler
 170:Generated_Source\PSoC6\pdl\drivers/peripheral/ipc/cy_ipc_drv.h **** *      (similar to <b>Cy_IPC_SystemPipeIsr</b>)
 171:Generated_Source\PSoC6\pdl\drivers/peripheral/ipc/cy_ipc_drv.h **** *   -# Define a callbacks array (similar to <b>cy_ipc_pipe_sysCbArray</b>)
 172:Generated_Source\PSoC6\pdl\drivers/peripheral/ipc/cy_ipc_drv.h **** *   -# Define your pipe configuration with a cy_stc_ipc_pipe_config_t type structure
 173:Generated_Source\PSoC6\pdl\drivers/peripheral/ipc/cy_ipc_drv.h **** *      (similar to <b>systemPipeConfig</b> and <b>CY_CYPIPE_DEFAULT_CONFIG</b>)
 174:Generated_Source\PSoC6\pdl\drivers/peripheral/ipc/cy_ipc_drv.h **** *   -# Call Cy_IPC_Pipe_Init() from each core to initialize your pipe (similar
 175:Generated_Source\PSoC6\pdl\drivers/peripheral/ipc/cy_ipc_drv.h **** *      to call in the <b>Cy_IPC_SystemPipeInit</b>)
 176:Generated_Source\PSoC6\pdl\drivers/peripheral/ipc/cy_ipc_drv.h **** *
 177:Generated_Source\PSoC6\pdl\drivers/peripheral/ipc/cy_ipc_drv.h **** * \section group_ipc_configuration_sema Configuration Considerations - SEMA
 178:Generated_Source\PSoC6\pdl\drivers/peripheral/ipc/cy_ipc_drv.h **** *
 179:Generated_Source\PSoC6\pdl\drivers/peripheral/ipc/cy_ipc_drv.h **** * Startup code calls Cy_IPC_SystemSemaInit() (in cy_ipc_config.c) to set up
 180:Generated_Source\PSoC6\pdl\drivers/peripheral/ipc/cy_ipc_drv.h **** * semaphore functionality. This function calls the PDL init function
 181:Generated_Source\PSoC6\pdl\drivers/peripheral/ipc/cy_ipc_drv.h **** * Cy_IPC_Sema_Init() with default values. By default the semaphore system
 182:Generated_Source\PSoC6\pdl\drivers/peripheral/ipc/cy_ipc_drv.h **** * uses IPC channel 4, and creates 128 semaphores. Do <b>not</b> change the IPC
 183:Generated_Source\PSoC6\pdl\drivers/peripheral/ipc/cy_ipc_drv.h **** * channel. You can change the number of semaphores.
 184:Generated_Source\PSoC6\pdl\drivers/peripheral/ipc/cy_ipc_drv.h **** *
 185:Generated_Source\PSoC6\pdl\drivers/peripheral/ipc/cy_ipc_drv.h **** * To change the number of semaphores, modify this line of code in cy_ipc_config.h.
 186:Generated_Source\PSoC6\pdl\drivers/peripheral/ipc/cy_ipc_drv.h **** *
 187:Generated_Source\PSoC6\pdl\drivers/peripheral/ipc/cy_ipc_drv.h **** * \code
 188:Generated_Source\PSoC6\pdl\drivers/peripheral/ipc/cy_ipc_drv.h **** * #define CY_IPC_SEMA_COUNT               (uint32_t)(128u)
 189:Generated_Source\PSoC6\pdl\drivers/peripheral/ipc/cy_ipc_drv.h **** * \endcode
 190:Generated_Source\PSoC6\pdl\drivers/peripheral/ipc/cy_ipc_drv.h **** *
 191:Generated_Source\PSoC6\pdl\drivers/peripheral/ipc/cy_ipc_drv.h **** * The file cy_ipc_config.c declares array ipcSemaArray to hold the semaphore
 192:Generated_Source\PSoC6\pdl\drivers/peripheral/ipc/cy_ipc_drv.h **** * flags based on the size defined for this symbol. Use increments of 32. You
 193:Generated_Source\PSoC6\pdl\drivers/peripheral/ipc/cy_ipc_drv.h **** * must have at least 32 semaphores. Semaphores 0-15 are reserved for
 194:Generated_Source\PSoC6\pdl\drivers/peripheral/ipc/cy_ipc_drv.h **** * system use. Your application can use semaphores greater than 15.
 195:Generated_Source\PSoC6\pdl\drivers/peripheral/ipc/cy_ipc_drv.h **** *
 196:Generated_Source\PSoC6\pdl\drivers/peripheral/ipc/cy_ipc_drv.h **** * \section group_ipc_more_information More Information
ARM GAS  C:\Users\salaz\AppData\Local\Temp\ccTAmJlP.s 			page 34


 197:Generated_Source\PSoC6\pdl\drivers/peripheral/ipc/cy_ipc_drv.h **** *
 198:Generated_Source\PSoC6\pdl\drivers/peripheral/ipc/cy_ipc_drv.h **** * Cy_IPC_SystemSemaInit() and Cy_IPC_SystemPipeInit() functions are called in the
 199:Generated_Source\PSoC6\pdl\drivers/peripheral/ipc/cy_ipc_drv.h **** * SystemInit function. If the default startup file is not used, or SystemInit is
 200:Generated_Source\PSoC6\pdl\drivers/peripheral/ipc/cy_ipc_drv.h **** * not called in your project, call the following three functions prior to
 201:Generated_Source\PSoC6\pdl\drivers/peripheral/ipc/cy_ipc_drv.h **** * executing any flash or EmEEPROM write or erase operation. For example:
 202:Generated_Source\PSoC6\pdl\drivers/peripheral/ipc/cy_ipc_drv.h **** *  -# Cy_IPC_SystemSemaInit()
 203:Generated_Source\PSoC6\pdl\drivers/peripheral/ipc/cy_ipc_drv.h **** *  -# Cy_IPC_SystemPipeInit()
 204:Generated_Source\PSoC6\pdl\drivers/peripheral/ipc/cy_ipc_drv.h **** *  -# Cy_Flash_Init()
 205:Generated_Source\PSoC6\pdl\drivers/peripheral/ipc/cy_ipc_drv.h **** *
 206:Generated_Source\PSoC6\pdl\drivers/peripheral/ipc/cy_ipc_drv.h **** * Also Cy_IPC_SystemPipeInit function is called to support BLE host/controller
 207:Generated_Source\PSoC6\pdl\drivers/peripheral/ipc/cy_ipc_drv.h **** * communication.
 208:Generated_Source\PSoC6\pdl\drivers/peripheral/ipc/cy_ipc_drv.h **** *
 209:Generated_Source\PSoC6\pdl\drivers/peripheral/ipc/cy_ipc_drv.h **** * See the technical reference manual(TRM) for more information on the IPC.
 210:Generated_Source\PSoC6\pdl\drivers/peripheral/ipc/cy_ipc_drv.h **** *
 211:Generated_Source\PSoC6\pdl\drivers/peripheral/ipc/cy_ipc_drv.h **** * \section group_ipc_MISRA MISRA-C Compliance
 212:Generated_Source\PSoC6\pdl\drivers/peripheral/ipc/cy_ipc_drv.h **** *
 213:Generated_Source\PSoC6\pdl\drivers/peripheral/ipc/cy_ipc_drv.h **** * <table class="doxtable">
 214:Generated_Source\PSoC6\pdl\drivers/peripheral/ipc/cy_ipc_drv.h **** *   <tr>
 215:Generated_Source\PSoC6\pdl\drivers/peripheral/ipc/cy_ipc_drv.h **** *     <th>MISRA Rule</th>
 216:Generated_Source\PSoC6\pdl\drivers/peripheral/ipc/cy_ipc_drv.h **** *     <th>Rule Class (Required/Advisory)</th>
 217:Generated_Source\PSoC6\pdl\drivers/peripheral/ipc/cy_ipc_drv.h **** *     <th>Rule Description</th>
 218:Generated_Source\PSoC6\pdl\drivers/peripheral/ipc/cy_ipc_drv.h **** *     <th style="width: 50%;">Description of Deviation(s)</th>
 219:Generated_Source\PSoC6\pdl\drivers/peripheral/ipc/cy_ipc_drv.h **** *   </tr>
 220:Generated_Source\PSoC6\pdl\drivers/peripheral/ipc/cy_ipc_drv.h **** *   <tr>
 221:Generated_Source\PSoC6\pdl\drivers/peripheral/ipc/cy_ipc_drv.h **** *     <td>10.3</td>
 222:Generated_Source\PSoC6\pdl\drivers/peripheral/ipc/cy_ipc_drv.h **** *     <td>R</td>
 223:Generated_Source\PSoC6\pdl\drivers/peripheral/ipc/cy_ipc_drv.h **** *     <td>The value of a complex expression of integer type shall be cast
 224:Generated_Source\PSoC6\pdl\drivers/peripheral/ipc/cy_ipc_drv.h **** *         only to a type of the same signedness that is no wider than the underlying
 225:Generated_Source\PSoC6\pdl\drivers/peripheral/ipc/cy_ipc_drv.h **** *         type of the expression.</td>
 226:Generated_Source\PSoC6\pdl\drivers/peripheral/ipc/cy_ipc_drv.h **** *     <td>The cast from integer to enumeration value is used to calculate
 227:Generated_Source\PSoC6\pdl\drivers/peripheral/ipc/cy_ipc_drv.h **** *         the interrupt vector source from the integer number of the IPC interrupt
 228:Generated_Source\PSoC6\pdl\drivers/peripheral/ipc/cy_ipc_drv.h **** *         structure, so there is no way to avoid this cast.</td>
 229:Generated_Source\PSoC6\pdl\drivers/peripheral/ipc/cy_ipc_drv.h **** *   </tr>
 230:Generated_Source\PSoC6\pdl\drivers/peripheral/ipc/cy_ipc_drv.h **** *   <tr>
 231:Generated_Source\PSoC6\pdl\drivers/peripheral/ipc/cy_ipc_drv.h **** *     <td>11.4</td>
 232:Generated_Source\PSoC6\pdl\drivers/peripheral/ipc/cy_ipc_drv.h **** *     <td>A</td>
 233:Generated_Source\PSoC6\pdl\drivers/peripheral/ipc/cy_ipc_drv.h **** *     <td>A cast should not be performed between a pointer to the void to a
 234:Generated_Source\PSoC6\pdl\drivers/peripheral/ipc/cy_ipc_drv.h **** *         pointer to the object type.</td>
 235:Generated_Source\PSoC6\pdl\drivers/peripheral/ipc/cy_ipc_drv.h **** *     <td>The cast from the void to pointer and vice versa is used to transmit
 236:Generated_Source\PSoC6\pdl\drivers/peripheral/ipc/cy_ipc_drv.h **** *         data via the \ref group_ipc channel by exchanging the pointer. We
 237:Generated_Source\PSoC6\pdl\drivers/peripheral/ipc/cy_ipc_drv.h **** *         exchange only one pointer, so there is no way to avoid this cast.</td>
 238:Generated_Source\PSoC6\pdl\drivers/peripheral/ipc/cy_ipc_drv.h **** *   </tr>
 239:Generated_Source\PSoC6\pdl\drivers/peripheral/ipc/cy_ipc_drv.h **** * </table>
 240:Generated_Source\PSoC6\pdl\drivers/peripheral/ipc/cy_ipc_drv.h **** *
 241:Generated_Source\PSoC6\pdl\drivers/peripheral/ipc/cy_ipc_drv.h **** * \section group_ipc_changelog Changelog
 242:Generated_Source\PSoC6\pdl\drivers/peripheral/ipc/cy_ipc_drv.h **** *
 243:Generated_Source\PSoC6\pdl\drivers/peripheral/ipc/cy_ipc_drv.h **** * <table class="doxtable">
 244:Generated_Source\PSoC6\pdl\drivers/peripheral/ipc/cy_ipc_drv.h **** *   <tr><th>Version</th><th>Changes</th><th>Reason for Change</th></tr>
 245:Generated_Source\PSoC6\pdl\drivers/peripheral/ipc/cy_ipc_drv.h **** *   <tr>
 246:Generated_Source\PSoC6\pdl\drivers/peripheral/ipc/cy_ipc_drv.h **** *     <td>1.20</td>
 247:Generated_Source\PSoC6\pdl\drivers/peripheral/ipc/cy_ipc_drv.h **** *     <td>Added \ref Cy_IPC_Pipe_ExecuteCallback function.
 248:Generated_Source\PSoC6\pdl\drivers/peripheral/ipc/cy_ipc_drv.h **** *         Updated documentation about user pipe initialization.
 249:Generated_Source\PSoC6\pdl\drivers/peripheral/ipc/cy_ipc_drv.h **** *     </td>
 250:Generated_Source\PSoC6\pdl\drivers/peripheral/ipc/cy_ipc_drv.h **** *     <td>Interface improvement, documentation update</td>
 251:Generated_Source\PSoC6\pdl\drivers/peripheral/ipc/cy_ipc_drv.h **** *   </tr>
 252:Generated_Source\PSoC6\pdl\drivers/peripheral/ipc/cy_ipc_drv.h **** *   <tr>
 253:Generated_Source\PSoC6\pdl\drivers/peripheral/ipc/cy_ipc_drv.h **** *     <td>1.10.1</td>
ARM GAS  C:\Users\salaz\AppData\Local\Temp\ccTAmJlP.s 			page 35


 254:Generated_Source\PSoC6\pdl\drivers/peripheral/ipc/cy_ipc_drv.h **** *     <td>Updated description of the \ref Cy_IPC_Pipe_Init,
 255:Generated_Source\PSoC6\pdl\drivers/peripheral/ipc/cy_ipc_drv.h **** *         \ref Cy_IPC_Pipe_EndpointInit, \ref Cy_IPC_Sema_Set functions.
 256:Generated_Source\PSoC6\pdl\drivers/peripheral/ipc/cy_ipc_drv.h **** *         Added / updated code snippets.
 257:Generated_Source\PSoC6\pdl\drivers/peripheral/ipc/cy_ipc_drv.h **** *     </td>
 258:Generated_Source\PSoC6\pdl\drivers/peripheral/ipc/cy_ipc_drv.h **** *     <td>Documentation update and clarification</td>
 259:Generated_Source\PSoC6\pdl\drivers/peripheral/ipc/cy_ipc_drv.h **** *   </tr>
 260:Generated_Source\PSoC6\pdl\drivers/peripheral/ipc/cy_ipc_drv.h **** *   <tr>
 261:Generated_Source\PSoC6\pdl\drivers/peripheral/ipc/cy_ipc_drv.h **** *     <td>1.10</td>
 262:Generated_Source\PSoC6\pdl\drivers/peripheral/ipc/cy_ipc_drv.h **** *     <td>Added support for more IPC structures</td>
 263:Generated_Source\PSoC6\pdl\drivers/peripheral/ipc/cy_ipc_drv.h **** *     <td>New device support</td>
 264:Generated_Source\PSoC6\pdl\drivers/peripheral/ipc/cy_ipc_drv.h **** *   </tr>
 265:Generated_Source\PSoC6\pdl\drivers/peripheral/ipc/cy_ipc_drv.h **** *   <tr>
 266:Generated_Source\PSoC6\pdl\drivers/peripheral/ipc/cy_ipc_drv.h **** *     <td>1.0</td>
 267:Generated_Source\PSoC6\pdl\drivers/peripheral/ipc/cy_ipc_drv.h **** *     <td>Initial version</td>
 268:Generated_Source\PSoC6\pdl\drivers/peripheral/ipc/cy_ipc_drv.h **** *     <td></td>
 269:Generated_Source\PSoC6\pdl\drivers/peripheral/ipc/cy_ipc_drv.h **** *   </tr>
 270:Generated_Source\PSoC6\pdl\drivers/peripheral/ipc/cy_ipc_drv.h **** * </table>
 271:Generated_Source\PSoC6\pdl\drivers/peripheral/ipc/cy_ipc_drv.h **** *
 272:Generated_Source\PSoC6\pdl\drivers/peripheral/ipc/cy_ipc_drv.h **** * \defgroup group_ipc_drv IPC driver layer (IPC_DRV)
 273:Generated_Source\PSoC6\pdl\drivers/peripheral/ipc/cy_ipc_drv.h **** * \{
 274:Generated_Source\PSoC6\pdl\drivers/peripheral/ipc/cy_ipc_drv.h **** *   The functions of this layer are used in the higher IPC levels
 275:Generated_Source\PSoC6\pdl\drivers/peripheral/ipc/cy_ipc_drv.h **** *   (Semaphores and Pipes).
 276:Generated_Source\PSoC6\pdl\drivers/peripheral/ipc/cy_ipc_drv.h **** *   Users should not call any of these IPC functions directly.
 277:Generated_Source\PSoC6\pdl\drivers/peripheral/ipc/cy_ipc_drv.h **** *
 278:Generated_Source\PSoC6\pdl\drivers/peripheral/ipc/cy_ipc_drv.h **** *   \defgroup group_ipc_macros Macros
 279:Generated_Source\PSoC6\pdl\drivers/peripheral/ipc/cy_ipc_drv.h **** *       Macro definitions are used in the driver
 280:Generated_Source\PSoC6\pdl\drivers/peripheral/ipc/cy_ipc_drv.h **** *
 281:Generated_Source\PSoC6\pdl\drivers/peripheral/ipc/cy_ipc_drv.h **** *   \defgroup group_ipc_functions Functions
 282:Generated_Source\PSoC6\pdl\drivers/peripheral/ipc/cy_ipc_drv.h **** *       Functions are used in the driver
 283:Generated_Source\PSoC6\pdl\drivers/peripheral/ipc/cy_ipc_drv.h **** *
 284:Generated_Source\PSoC6\pdl\drivers/peripheral/ipc/cy_ipc_drv.h **** *   \defgroup group_ipc_data_structures Data Structures
 285:Generated_Source\PSoC6\pdl\drivers/peripheral/ipc/cy_ipc_drv.h **** *       Data structures are used in the driver
 286:Generated_Source\PSoC6\pdl\drivers/peripheral/ipc/cy_ipc_drv.h **** *
 287:Generated_Source\PSoC6\pdl\drivers/peripheral/ipc/cy_ipc_drv.h **** *   \defgroup group_ipc_enums Enumerated Types
 288:Generated_Source\PSoC6\pdl\drivers/peripheral/ipc/cy_ipc_drv.h **** *       Enumerations are used in the driver
 289:Generated_Source\PSoC6\pdl\drivers/peripheral/ipc/cy_ipc_drv.h **** * \}
 290:Generated_Source\PSoC6\pdl\drivers/peripheral/ipc/cy_ipc_drv.h **** *
 291:Generated_Source\PSoC6\pdl\drivers/peripheral/ipc/cy_ipc_drv.h **** * \defgroup group_ipc_sema IPC semaphores layer (IPC_SEMA)
 292:Generated_Source\PSoC6\pdl\drivers/peripheral/ipc/cy_ipc_drv.h **** * \defgroup group_ipc_pipe IPC pipes layer (IPC_PIPE)
 293:Generated_Source\PSoC6\pdl\drivers/peripheral/ipc/cy_ipc_drv.h **** *
 294:Generated_Source\PSoC6\pdl\drivers/peripheral/ipc/cy_ipc_drv.h **** */
 295:Generated_Source\PSoC6\pdl\drivers/peripheral/ipc/cy_ipc_drv.h **** 
 296:Generated_Source\PSoC6\pdl\drivers/peripheral/ipc/cy_ipc_drv.h **** /******************************************************************************/
 297:Generated_Source\PSoC6\pdl\drivers/peripheral/ipc/cy_ipc_drv.h **** /* Include files                                                              */
 298:Generated_Source\PSoC6\pdl\drivers/peripheral/ipc/cy_ipc_drv.h **** /******************************************************************************/
 299:Generated_Source\PSoC6\pdl\drivers/peripheral/ipc/cy_ipc_drv.h **** #include "syslib/cy_syslib.h"
 300:Generated_Source\PSoC6\pdl\drivers/peripheral/ipc/cy_ipc_drv.h **** #include "cy_device_headers.h"
 301:Generated_Source\PSoC6\pdl\drivers/peripheral/ipc/cy_ipc_drv.h **** #include "cy_ipc_config.h"
 302:Generated_Source\PSoC6\pdl\drivers/peripheral/ipc/cy_ipc_drv.h **** #include <stddef.h>
 303:Generated_Source\PSoC6\pdl\drivers/peripheral/ipc/cy_ipc_drv.h **** 
 304:Generated_Source\PSoC6\pdl\drivers/peripheral/ipc/cy_ipc_drv.h **** /**
 305:Generated_Source\PSoC6\pdl\drivers/peripheral/ipc/cy_ipc_drv.h **** * \addtogroup group_ipc_macros
 306:Generated_Source\PSoC6\pdl\drivers/peripheral/ipc/cy_ipc_drv.h **** * \{
 307:Generated_Source\PSoC6\pdl\drivers/peripheral/ipc/cy_ipc_drv.h **** */
 308:Generated_Source\PSoC6\pdl\drivers/peripheral/ipc/cy_ipc_drv.h **** 
 309:Generated_Source\PSoC6\pdl\drivers/peripheral/ipc/cy_ipc_drv.h **** /** Driver major version */
 310:Generated_Source\PSoC6\pdl\drivers/peripheral/ipc/cy_ipc_drv.h **** #define CY_IPC_DRV_VERSION_MAJOR       1
ARM GAS  C:\Users\salaz\AppData\Local\Temp\ccTAmJlP.s 			page 36


 311:Generated_Source\PSoC6\pdl\drivers/peripheral/ipc/cy_ipc_drv.h **** 
 312:Generated_Source\PSoC6\pdl\drivers/peripheral/ipc/cy_ipc_drv.h **** /** Driver minor version */
 313:Generated_Source\PSoC6\pdl\drivers/peripheral/ipc/cy_ipc_drv.h **** #define CY_IPC_DRV_VERSION_MINOR       20
 314:Generated_Source\PSoC6\pdl\drivers/peripheral/ipc/cy_ipc_drv.h **** 
 315:Generated_Source\PSoC6\pdl\drivers/peripheral/ipc/cy_ipc_drv.h **** /** Defines a value to indicate that no notification events are needed */
 316:Generated_Source\PSoC6\pdl\drivers/peripheral/ipc/cy_ipc_drv.h **** #define CY_IPC_NO_NOTIFICATION         (uint32_t)(0x00000000ul)
 317:Generated_Source\PSoC6\pdl\drivers/peripheral/ipc/cy_ipc_drv.h **** 
 318:Generated_Source\PSoC6\pdl\drivers/peripheral/ipc/cy_ipc_drv.h **** /* Error Code constants */
 319:Generated_Source\PSoC6\pdl\drivers/peripheral/ipc/cy_ipc_drv.h **** #define CY_IPC_ID CY_PDL_DRV_ID(0x22u)  /**< Software PDL driver ID for IPC */
 320:Generated_Source\PSoC6\pdl\drivers/peripheral/ipc/cy_ipc_drv.h **** 
 321:Generated_Source\PSoC6\pdl\drivers/peripheral/ipc/cy_ipc_drv.h **** /** Return prefix for IPC driver function status codes */
 322:Generated_Source\PSoC6\pdl\drivers/peripheral/ipc/cy_ipc_drv.h **** #define CY_IPC_ID_INFO    (uint32_t)( CY_IPC_ID | CY_PDL_STATUS_INFO )
 323:Generated_Source\PSoC6\pdl\drivers/peripheral/ipc/cy_ipc_drv.h **** /** Return prefix for IPC driver function warning return values */
 324:Generated_Source\PSoC6\pdl\drivers/peripheral/ipc/cy_ipc_drv.h **** #define CY_IPC_ID_WARNING (uint32_t)( CY_IPC_ID | CY_PDL_STATUS_WARNING)
 325:Generated_Source\PSoC6\pdl\drivers/peripheral/ipc/cy_ipc_drv.h **** /** Return prefix for IPC driver function error return values */
 326:Generated_Source\PSoC6\pdl\drivers/peripheral/ipc/cy_ipc_drv.h **** #define CY_IPC_ID_ERROR   (uint32_t)( CY_IPC_ID | CY_PDL_STATUS_ERROR)
 327:Generated_Source\PSoC6\pdl\drivers/peripheral/ipc/cy_ipc_drv.h **** 
 328:Generated_Source\PSoC6\pdl\drivers/peripheral/ipc/cy_ipc_drv.h **** /** Converts the IPC interrupt channel number to interrupt vector */
 329:Generated_Source\PSoC6\pdl\drivers/peripheral/ipc/cy_ipc_drv.h **** #define CY_IPC_INTR_NUM_TO_VECT(x)         ((int32_t)cpuss_interrupts_ipc_0_IRQn + (x))
 330:Generated_Source\PSoC6\pdl\drivers/peripheral/ipc/cy_ipc_drv.h **** 
 331:Generated_Source\PSoC6\pdl\drivers/peripheral/ipc/cy_ipc_drv.h **** /** \} group_ipc_macros */
 332:Generated_Source\PSoC6\pdl\drivers/peripheral/ipc/cy_ipc_drv.h **** 
 333:Generated_Source\PSoC6\pdl\drivers/peripheral/ipc/cy_ipc_drv.h **** /* end of definition in device.h */
 334:Generated_Source\PSoC6\pdl\drivers/peripheral/ipc/cy_ipc_drv.h **** 
 335:Generated_Source\PSoC6\pdl\drivers/peripheral/ipc/cy_ipc_drv.h **** 
 336:Generated_Source\PSoC6\pdl\drivers/peripheral/ipc/cy_ipc_drv.h **** /**
 337:Generated_Source\PSoC6\pdl\drivers/peripheral/ipc/cy_ipc_drv.h **** * \addtogroup group_ipc_enums
 338:Generated_Source\PSoC6\pdl\drivers/peripheral/ipc/cy_ipc_drv.h **** * \{
 339:Generated_Source\PSoC6\pdl\drivers/peripheral/ipc/cy_ipc_drv.h **** */
 340:Generated_Source\PSoC6\pdl\drivers/peripheral/ipc/cy_ipc_drv.h **** 
 341:Generated_Source\PSoC6\pdl\drivers/peripheral/ipc/cy_ipc_drv.h **** /**
 342:Generated_Source\PSoC6\pdl\drivers/peripheral/ipc/cy_ipc_drv.h **** * This is a list of ENUMs used for function return status.
 343:Generated_Source\PSoC6\pdl\drivers/peripheral/ipc/cy_ipc_drv.h **** */
 344:Generated_Source\PSoC6\pdl\drivers/peripheral/ipc/cy_ipc_drv.h **** typedef enum
 345:Generated_Source\PSoC6\pdl\drivers/peripheral/ipc/cy_ipc_drv.h **** {
 346:Generated_Source\PSoC6\pdl\drivers/peripheral/ipc/cy_ipc_drv.h ****     /** Function was successfully executed */
 347:Generated_Source\PSoC6\pdl\drivers/peripheral/ipc/cy_ipc_drv.h ****     CY_IPC_DRV_SUCCESS      = (0x00u),
 348:Generated_Source\PSoC6\pdl\drivers/peripheral/ipc/cy_ipc_drv.h ****     /** Function was not executed due to an error.
 349:Generated_Source\PSoC6\pdl\drivers/peripheral/ipc/cy_ipc_drv.h ****         Typical conditions for the error explained
 350:Generated_Source\PSoC6\pdl\drivers/peripheral/ipc/cy_ipc_drv.h ****         in the function description */
 351:Generated_Source\PSoC6\pdl\drivers/peripheral/ipc/cy_ipc_drv.h ****     CY_IPC_DRV_ERROR        = ( CY_IPC_ID_ERROR + 1ul),
 352:Generated_Source\PSoC6\pdl\drivers/peripheral/ipc/cy_ipc_drv.h **** } cy_en_ipcdrv_status_t;
 353:Generated_Source\PSoC6\pdl\drivers/peripheral/ipc/cy_ipc_drv.h **** 
 354:Generated_Source\PSoC6\pdl\drivers/peripheral/ipc/cy_ipc_drv.h **** /** \} group_ipc_enums */
 355:Generated_Source\PSoC6\pdl\drivers/peripheral/ipc/cy_ipc_drv.h **** 
 356:Generated_Source\PSoC6\pdl\drivers/peripheral/ipc/cy_ipc_drv.h **** 
 357:Generated_Source\PSoC6\pdl\drivers/peripheral/ipc/cy_ipc_drv.h **** #ifdef __cplusplus
 358:Generated_Source\PSoC6\pdl\drivers/peripheral/ipc/cy_ipc_drv.h **** extern "C" {
 359:Generated_Source\PSoC6\pdl\drivers/peripheral/ipc/cy_ipc_drv.h **** #endif
 360:Generated_Source\PSoC6\pdl\drivers/peripheral/ipc/cy_ipc_drv.h **** 
 361:Generated_Source\PSoC6\pdl\drivers/peripheral/ipc/cy_ipc_drv.h **** /** \cond INTERNAL */
 362:Generated_Source\PSoC6\pdl\drivers/peripheral/ipc/cy_ipc_drv.h **** 
 363:Generated_Source\PSoC6\pdl\drivers/peripheral/ipc/cy_ipc_drv.h **** __STATIC_INLINE void     Cy_IPC_Drv_WriteDataValue (IPC_STRUCT_Type* base, uint32_t dataValue);
 364:Generated_Source\PSoC6\pdl\drivers/peripheral/ipc/cy_ipc_drv.h **** __STATIC_INLINE uint32_t Cy_IPC_Drv_ReadDataValue (IPC_STRUCT_Type const * base);
 365:Generated_Source\PSoC6\pdl\drivers/peripheral/ipc/cy_ipc_drv.h **** 
 366:Generated_Source\PSoC6\pdl\drivers/peripheral/ipc/cy_ipc_drv.h **** __STATIC_INLINE uint32_t Cy_IPC_Drv_ExtractAcquireMask (uint32_t intMask);
 367:Generated_Source\PSoC6\pdl\drivers/peripheral/ipc/cy_ipc_drv.h **** __STATIC_INLINE uint32_t Cy_IPC_Drv_ExtractReleaseMask (uint32_t intMask);
ARM GAS  C:\Users\salaz\AppData\Local\Temp\ccTAmJlP.s 			page 37


 368:Generated_Source\PSoC6\pdl\drivers/peripheral/ipc/cy_ipc_drv.h **** 
 369:Generated_Source\PSoC6\pdl\drivers/peripheral/ipc/cy_ipc_drv.h **** /** \endcond */
 370:Generated_Source\PSoC6\pdl\drivers/peripheral/ipc/cy_ipc_drv.h **** 
 371:Generated_Source\PSoC6\pdl\drivers/peripheral/ipc/cy_ipc_drv.h **** /**
 372:Generated_Source\PSoC6\pdl\drivers/peripheral/ipc/cy_ipc_drv.h **** * \addtogroup group_ipc_functions
 373:Generated_Source\PSoC6\pdl\drivers/peripheral/ipc/cy_ipc_drv.h **** * \{
 374:Generated_Source\PSoC6\pdl\drivers/peripheral/ipc/cy_ipc_drv.h **** */
 375:Generated_Source\PSoC6\pdl\drivers/peripheral/ipc/cy_ipc_drv.h **** 
 376:Generated_Source\PSoC6\pdl\drivers/peripheral/ipc/cy_ipc_drv.h **** __STATIC_INLINE IPC_STRUCT_Type*       Cy_IPC_Drv_GetIpcBaseAddress (uint32_t ipcIndex);
 377:Generated_Source\PSoC6\pdl\drivers/peripheral/ipc/cy_ipc_drv.h **** __STATIC_INLINE IPC_INTR_STRUCT_Type*  Cy_IPC_Drv_GetIntrBaseAddr (uint32_t ipcIntrIndex);
 378:Generated_Source\PSoC6\pdl\drivers/peripheral/ipc/cy_ipc_drv.h **** 
 379:Generated_Source\PSoC6\pdl\drivers/peripheral/ipc/cy_ipc_drv.h **** __STATIC_INLINE void     Cy_IPC_Drv_AcquireNotify (IPC_STRUCT_Type * base, uint32_t notifyEventIntr
 380:Generated_Source\PSoC6\pdl\drivers/peripheral/ipc/cy_ipc_drv.h **** __STATIC_INLINE void     Cy_IPC_Drv_ReleaseNotify (IPC_STRUCT_Type * base, uint32_t notifyEventIntr
 381:Generated_Source\PSoC6\pdl\drivers/peripheral/ipc/cy_ipc_drv.h **** 
 382:Generated_Source\PSoC6\pdl\drivers/peripheral/ipc/cy_ipc_drv.h **** __STATIC_INLINE  cy_en_ipcdrv_status_t Cy_IPC_Drv_LockAcquire (IPC_STRUCT_Type const * base);
 383:Generated_Source\PSoC6\pdl\drivers/peripheral/ipc/cy_ipc_drv.h **** cy_en_ipcdrv_status_t    Cy_IPC_Drv_LockRelease (IPC_STRUCT_Type * base, uint32_t releaseEventIntr)
 384:Generated_Source\PSoC6\pdl\drivers/peripheral/ipc/cy_ipc_drv.h **** __STATIC_INLINE bool     Cy_IPC_Drv_IsLockAcquired (IPC_STRUCT_Type const * base);
 385:Generated_Source\PSoC6\pdl\drivers/peripheral/ipc/cy_ipc_drv.h **** __STATIC_INLINE uint32_t Cy_IPC_Drv_GetLockStatus (IPC_STRUCT_Type const * base);
 386:Generated_Source\PSoC6\pdl\drivers/peripheral/ipc/cy_ipc_drv.h **** 
 387:Generated_Source\PSoC6\pdl\drivers/peripheral/ipc/cy_ipc_drv.h **** cy_en_ipcdrv_status_t    Cy_IPC_Drv_SendMsgWord (IPC_STRUCT_Type * base, uint32_t notifyEventIntr, 
 388:Generated_Source\PSoC6\pdl\drivers/peripheral/ipc/cy_ipc_drv.h **** cy_en_ipcdrv_status_t    Cy_IPC_Drv_ReadMsgWord (IPC_STRUCT_Type const * base, uint32_t * message);
 389:Generated_Source\PSoC6\pdl\drivers/peripheral/ipc/cy_ipc_drv.h **** __STATIC_INLINE cy_en_ipcdrv_status_t Cy_IPC_Drv_SendMsgPtr (IPC_STRUCT_Type* base, uint32_t notify
 390:Generated_Source\PSoC6\pdl\drivers/peripheral/ipc/cy_ipc_drv.h **** __STATIC_INLINE cy_en_ipcdrv_status_t Cy_IPC_Drv_ReadMsgPtr (IPC_STRUCT_Type const * base, void ** 
 391:Generated_Source\PSoC6\pdl\drivers/peripheral/ipc/cy_ipc_drv.h **** 
 392:Generated_Source\PSoC6\pdl\drivers/peripheral/ipc/cy_ipc_drv.h **** __STATIC_INLINE void     Cy_IPC_Drv_SetInterruptMask (IPC_INTR_STRUCT_Type * base,
 393:Generated_Source\PSoC6\pdl\drivers/peripheral/ipc/cy_ipc_drv.h ****                                                       uint32_t ipcReleaseMask, uint32_t ipcAcquireM
 394:Generated_Source\PSoC6\pdl\drivers/peripheral/ipc/cy_ipc_drv.h **** __STATIC_INLINE uint32_t Cy_IPC_Drv_GetInterruptMask (IPC_INTR_STRUCT_Type const * base);
 395:Generated_Source\PSoC6\pdl\drivers/peripheral/ipc/cy_ipc_drv.h **** __STATIC_INLINE uint32_t Cy_IPC_Drv_GetInterruptStatusMasked (IPC_INTR_STRUCT_Type const * base);
 396:Generated_Source\PSoC6\pdl\drivers/peripheral/ipc/cy_ipc_drv.h **** __STATIC_INLINE uint32_t Cy_IPC_Drv_GetInterruptStatus (IPC_INTR_STRUCT_Type const * base);
 397:Generated_Source\PSoC6\pdl\drivers/peripheral/ipc/cy_ipc_drv.h **** __STATIC_INLINE void     Cy_IPC_Drv_SetInterrupt (IPC_INTR_STRUCT_Type * base,
 398:Generated_Source\PSoC6\pdl\drivers/peripheral/ipc/cy_ipc_drv.h ****                                                       uint32_t ipcReleaseMask, uint32_t ipcAcquireM
 399:Generated_Source\PSoC6\pdl\drivers/peripheral/ipc/cy_ipc_drv.h **** __STATIC_INLINE void     Cy_IPC_Drv_ClearInterrupt (IPC_INTR_STRUCT_Type * base,
 400:Generated_Source\PSoC6\pdl\drivers/peripheral/ipc/cy_ipc_drv.h ****                                                       uint32_t ipcReleaseMask, uint32_t ipcAcquireM
 401:Generated_Source\PSoC6\pdl\drivers/peripheral/ipc/cy_ipc_drv.h **** 
 402:Generated_Source\PSoC6\pdl\drivers/peripheral/ipc/cy_ipc_drv.h **** /*******************************************************************************
 403:Generated_Source\PSoC6\pdl\drivers/peripheral/ipc/cy_ipc_drv.h **** * Function Name: Cy_IPC_Drv_GetIpcBaseAddress
 404:Generated_Source\PSoC6\pdl\drivers/peripheral/ipc/cy_ipc_drv.h **** ****************************************************************************//**
 405:Generated_Source\PSoC6\pdl\drivers/peripheral/ipc/cy_ipc_drv.h **** *
 406:Generated_Source\PSoC6\pdl\drivers/peripheral/ipc/cy_ipc_drv.h **** * This function takes an IPC channel index as a parameter and returns the base
 407:Generated_Source\PSoC6\pdl\drivers/peripheral/ipc/cy_ipc_drv.h **** * address the IPC registers corresponding to the IPC channel.
 408:Generated_Source\PSoC6\pdl\drivers/peripheral/ipc/cy_ipc_drv.h **** *
 409:Generated_Source\PSoC6\pdl\drivers/peripheral/ipc/cy_ipc_drv.h **** * \note The user is responsible for ensuring that ipcIndex does not exceed the
 410:Generated_Source\PSoC6\pdl\drivers/peripheral/ipc/cy_ipc_drv.h **** * limits.
 411:Generated_Source\PSoC6\pdl\drivers/peripheral/ipc/cy_ipc_drv.h **** *
 412:Generated_Source\PSoC6\pdl\drivers/peripheral/ipc/cy_ipc_drv.h **** * \param ipcIndex
 413:Generated_Source\PSoC6\pdl\drivers/peripheral/ipc/cy_ipc_drv.h **** * Represents the number of IPC structure. This is converted to the base address of
 414:Generated_Source\PSoC6\pdl\drivers/peripheral/ipc/cy_ipc_drv.h **** * the IPC channel registers.
 415:Generated_Source\PSoC6\pdl\drivers/peripheral/ipc/cy_ipc_drv.h **** *
 416:Generated_Source\PSoC6\pdl\drivers/peripheral/ipc/cy_ipc_drv.h **** * \return
 417:Generated_Source\PSoC6\pdl\drivers/peripheral/ipc/cy_ipc_drv.h **** * Returns a pointer to the base of the IPC registers.
 418:Generated_Source\PSoC6\pdl\drivers/peripheral/ipc/cy_ipc_drv.h **** *
 419:Generated_Source\PSoC6\pdl\drivers/peripheral/ipc/cy_ipc_drv.h **** * \funcusage
 420:Generated_Source\PSoC6\pdl\drivers/peripheral/ipc/cy_ipc_drv.h **** * \snippet IPC_sut_01.cydsn/main_cm4.c snippet_Cy_IPC_Drv_SendMsgWord
 421:Generated_Source\PSoC6\pdl\drivers/peripheral/ipc/cy_ipc_drv.h **** *
 422:Generated_Source\PSoC6\pdl\drivers/peripheral/ipc/cy_ipc_drv.h **** *******************************************************************************/
 423:Generated_Source\PSoC6\pdl\drivers/peripheral/ipc/cy_ipc_drv.h **** __STATIC_INLINE IPC_STRUCT_Type* Cy_IPC_Drv_GetIpcBaseAddress (uint32_t ipcIndex)
 424:Generated_Source\PSoC6\pdl\drivers/peripheral/ipc/cy_ipc_drv.h **** {
ARM GAS  C:\Users\salaz\AppData\Local\Temp\ccTAmJlP.s 			page 38


 163              		.loc 3 424 0
 164              		.cfi_startproc
 165              		@ args = 0, pretend = 0, frame = 8
 166              		@ frame_needed = 1, uses_anonymous_args = 0
 167 0000 80B5     		push	{r7, lr}
 168              		.cfi_def_cfa_offset 8
 169              		.cfi_offset 7, -8
 170              		.cfi_offset 14, -4
 171 0002 82B0     		sub	sp, sp, #8
 172              		.cfi_def_cfa_offset 16
 173 0004 00AF     		add	r7, sp, #0
 174              		.cfi_def_cfa_register 7
 175 0006 7860     		str	r0, [r7, #4]
 425:Generated_Source\PSoC6\pdl\drivers/peripheral/ipc/cy_ipc_drv.h ****     CY_ASSERT_L1((uint32_t)CY_IPC_CHANNELS > ipcIndex);
 176              		.loc 3 425 0
 177 0008 7B68     		ldr	r3, [r7, #4]
 178 000a 0F2B     		cmp	r3, #15
 179 000c 07D9     		bls	.L12
 180              		.loc 3 425 0 is_stmt 0 discriminator 1
 181 000e AA23     		movs	r3, #170
 182 0010 FF33     		adds	r3, r3, #255
 183 0012 1A00     		movs	r2, r3
 184 0014 064B     		ldr	r3, .L14
 185 0016 1100     		movs	r1, r2
 186 0018 1800     		movs	r0, r3
 187 001a FFF7FEFF 		bl	Cy_SysLib_AssertFailed
 188              	.L12:
 426:Generated_Source\PSoC6\pdl\drivers/peripheral/ipc/cy_ipc_drv.h ****     return ( (IPC_STRUCT_Type*) ( &IPC->STRUCT[ipcIndex] ) );
 189              		.loc 3 426 0 is_stmt 1
 190 001e 7B68     		ldr	r3, [r7, #4]
 191 0020 5B01     		lsls	r3, r3, #5
 192 0022 044A     		ldr	r2, .L14+4
 193 0024 9446     		mov	ip, r2
 194 0026 6344     		add	r3, r3, ip
 427:Generated_Source\PSoC6\pdl\drivers/peripheral/ipc/cy_ipc_drv.h **** }
 195              		.loc 3 427 0
 196 0028 1800     		movs	r0, r3
 197 002a BD46     		mov	sp, r7
 198 002c 02B0     		add	sp, sp, #8
 199              		@ sp needed
 200 002e 80BD     		pop	{r7, pc}
 201              	.L15:
 202              		.align	2
 203              	.L14:
 204 0030 00000000 		.word	.LC0
 205 0034 00002340 		.word	1076035584
 206              		.cfi_endproc
 207              	.LFE36:
 208              		.size	Cy_IPC_Drv_GetIpcBaseAddress, .-Cy_IPC_Drv_GetIpcBaseAddress
 209              		.section	.text.Cy_IPC_Drv_GetIntrBaseAddr,"ax",%progbits
 210              		.align	2
 211              		.code	16
 212              		.thumb_func
 213              		.type	Cy_IPC_Drv_GetIntrBaseAddr, %function
 214              	Cy_IPC_Drv_GetIntrBaseAddr:
 215              	.LFB37:
 428:Generated_Source\PSoC6\pdl\drivers/peripheral/ipc/cy_ipc_drv.h **** 
ARM GAS  C:\Users\salaz\AppData\Local\Temp\ccTAmJlP.s 			page 39


 429:Generated_Source\PSoC6\pdl\drivers/peripheral/ipc/cy_ipc_drv.h **** /*******************************************************************************
 430:Generated_Source\PSoC6\pdl\drivers/peripheral/ipc/cy_ipc_drv.h **** * Function Name: Cy_IPC_Drv_GetIntrBaseAddr
 431:Generated_Source\PSoC6\pdl\drivers/peripheral/ipc/cy_ipc_drv.h **** ****************************************************************************//**
 432:Generated_Source\PSoC6\pdl\drivers/peripheral/ipc/cy_ipc_drv.h **** *
 433:Generated_Source\PSoC6\pdl\drivers/peripheral/ipc/cy_ipc_drv.h **** * This function takes an IPC interrupt structure index and returns the base
 434:Generated_Source\PSoC6\pdl\drivers/peripheral/ipc/cy_ipc_drv.h **** * address of the IPC interrupt registers corresponding to the IPC Interrupt.
 435:Generated_Source\PSoC6\pdl\drivers/peripheral/ipc/cy_ipc_drv.h **** *
 436:Generated_Source\PSoC6\pdl\drivers/peripheral/ipc/cy_ipc_drv.h **** * \note The user is responsible for ensuring that ipcIntrIndex does not exceed the
 437:Generated_Source\PSoC6\pdl\drivers/peripheral/ipc/cy_ipc_drv.h **** * limits.
 438:Generated_Source\PSoC6\pdl\drivers/peripheral/ipc/cy_ipc_drv.h **** *
 439:Generated_Source\PSoC6\pdl\drivers/peripheral/ipc/cy_ipc_drv.h **** * \param ipcIntrIndex
 440:Generated_Source\PSoC6\pdl\drivers/peripheral/ipc/cy_ipc_drv.h **** * Represents the number of IPC interrupt structure. This is converted to the
 441:Generated_Source\PSoC6\pdl\drivers/peripheral/ipc/cy_ipc_drv.h **** * base address of the IPC interrupt registers.
 442:Generated_Source\PSoC6\pdl\drivers/peripheral/ipc/cy_ipc_drv.h **** *
 443:Generated_Source\PSoC6\pdl\drivers/peripheral/ipc/cy_ipc_drv.h **** * \return
 444:Generated_Source\PSoC6\pdl\drivers/peripheral/ipc/cy_ipc_drv.h **** * Returns a pointer to the base of the IPC interrupt registers.
 445:Generated_Source\PSoC6\pdl\drivers/peripheral/ipc/cy_ipc_drv.h **** *
 446:Generated_Source\PSoC6\pdl\drivers/peripheral/ipc/cy_ipc_drv.h **** * \funcusage
 447:Generated_Source\PSoC6\pdl\drivers/peripheral/ipc/cy_ipc_drv.h **** * \snippet IPC_sut_01.cydsn/main_cm4.c snippet_Cy_IPC_Drv_GetInterruptStatus
 448:Generated_Source\PSoC6\pdl\drivers/peripheral/ipc/cy_ipc_drv.h **** *
 449:Generated_Source\PSoC6\pdl\drivers/peripheral/ipc/cy_ipc_drv.h **** *******************************************************************************/
 450:Generated_Source\PSoC6\pdl\drivers/peripheral/ipc/cy_ipc_drv.h **** __STATIC_INLINE IPC_INTR_STRUCT_Type* Cy_IPC_Drv_GetIntrBaseAddr (uint32_t ipcIntrIndex)
 451:Generated_Source\PSoC6\pdl\drivers/peripheral/ipc/cy_ipc_drv.h **** {
 216              		.loc 3 451 0
 217              		.cfi_startproc
 218              		@ args = 0, pretend = 0, frame = 8
 219              		@ frame_needed = 1, uses_anonymous_args = 0
 220 0000 80B5     		push	{r7, lr}
 221              		.cfi_def_cfa_offset 8
 222              		.cfi_offset 7, -8
 223              		.cfi_offset 14, -4
 224 0002 82B0     		sub	sp, sp, #8
 225              		.cfi_def_cfa_offset 16
 226 0004 00AF     		add	r7, sp, #0
 227              		.cfi_def_cfa_register 7
 228 0006 7860     		str	r0, [r7, #4]
 452:Generated_Source\PSoC6\pdl\drivers/peripheral/ipc/cy_ipc_drv.h ****     CY_ASSERT_L1((uint32_t)CY_IPC_INTERRUPTS > ipcIntrIndex);
 229              		.loc 3 452 0
 230 0008 7B68     		ldr	r3, [r7, #4]
 231 000a 0F2B     		cmp	r3, #15
 232 000c 06D9     		bls	.L17
 233              		.loc 3 452 0 is_stmt 0 discriminator 1
 234 000e E223     		movs	r3, #226
 235 0010 5A00     		lsls	r2, r3, #1
 236 0012 074B     		ldr	r3, .L19
 237 0014 1100     		movs	r1, r2
 238 0016 1800     		movs	r0, r3
 239 0018 FFF7FEFF 		bl	Cy_SysLib_AssertFailed
 240              	.L17:
 453:Generated_Source\PSoC6\pdl\drivers/peripheral/ipc/cy_ipc_drv.h ****     return ( (IPC_INTR_STRUCT_Type*) ( &IPC->INTR_STRUCT[ipcIntrIndex] ) );
 241              		.loc 3 453 0 is_stmt 1
 242 001c 7B68     		ldr	r3, [r7, #4]
 243 001e 5B01     		lsls	r3, r3, #5
 244 0020 044A     		ldr	r2, .L19+4
 245 0022 9446     		mov	ip, r2
 246 0024 6344     		add	r3, r3, ip
 454:Generated_Source\PSoC6\pdl\drivers/peripheral/ipc/cy_ipc_drv.h **** }
ARM GAS  C:\Users\salaz\AppData\Local\Temp\ccTAmJlP.s 			page 40


 247              		.loc 3 454 0
 248 0026 1800     		movs	r0, r3
 249 0028 BD46     		mov	sp, r7
 250 002a 02B0     		add	sp, sp, #8
 251              		@ sp needed
 252 002c 80BD     		pop	{r7, pc}
 253              	.L20:
 254 002e C046     		.align	2
 255              	.L19:
 256 0030 00000000 		.word	.LC0
 257 0034 00102340 		.word	1076039680
 258              		.cfi_endproc
 259              	.LFE37:
 260              		.size	Cy_IPC_Drv_GetIntrBaseAddr, .-Cy_IPC_Drv_GetIntrBaseAddr
 261              		.section	.text.Cy_IPC_Drv_SetInterruptMask,"ax",%progbits
 262              		.align	2
 263              		.code	16
 264              		.thumb_func
 265              		.type	Cy_IPC_Drv_SetInterruptMask, %function
 266              	Cy_IPC_Drv_SetInterruptMask:
 267              	.LFB38:
 455:Generated_Source\PSoC6\pdl\drivers/peripheral/ipc/cy_ipc_drv.h **** 
 456:Generated_Source\PSoC6\pdl\drivers/peripheral/ipc/cy_ipc_drv.h **** /*******************************************************************************
 457:Generated_Source\PSoC6\pdl\drivers/peripheral/ipc/cy_ipc_drv.h **** * Function Name: Cy_IPC_Drv_SetInterruptMask
 458:Generated_Source\PSoC6\pdl\drivers/peripheral/ipc/cy_ipc_drv.h **** ****************************************************************************//**
 459:Generated_Source\PSoC6\pdl\drivers/peripheral/ipc/cy_ipc_drv.h **** *
 460:Generated_Source\PSoC6\pdl\drivers/peripheral/ipc/cy_ipc_drv.h **** * This function is used to set the interrupt mask for an IPC Interrupt.
 461:Generated_Source\PSoC6\pdl\drivers/peripheral/ipc/cy_ipc_drv.h **** * The mask sets release or acquire notification events for all IPC channels.
 462:Generated_Source\PSoC6\pdl\drivers/peripheral/ipc/cy_ipc_drv.h **** *
 463:Generated_Source\PSoC6\pdl\drivers/peripheral/ipc/cy_ipc_drv.h **** * \param base
 464:Generated_Source\PSoC6\pdl\drivers/peripheral/ipc/cy_ipc_drv.h **** * This is a handle to the IPC interrupt. This handle can be calculated from the
 465:Generated_Source\PSoC6\pdl\drivers/peripheral/ipc/cy_ipc_drv.h **** * IPC interrupt number using \ref Cy_IPC_Drv_GetIntrBaseAddr.
 466:Generated_Source\PSoC6\pdl\drivers/peripheral/ipc/cy_ipc_drv.h **** *
 467:Generated_Source\PSoC6\pdl\drivers/peripheral/ipc/cy_ipc_drv.h **** * \param ipcReleaseMask
 468:Generated_Source\PSoC6\pdl\drivers/peripheral/ipc/cy_ipc_drv.h **** * An encoded list of all IPC channels that can trigger the interrupt on a
 469:Generated_Source\PSoC6\pdl\drivers/peripheral/ipc/cy_ipc_drv.h **** * release event.
 470:Generated_Source\PSoC6\pdl\drivers/peripheral/ipc/cy_ipc_drv.h **** *
 471:Generated_Source\PSoC6\pdl\drivers/peripheral/ipc/cy_ipc_drv.h **** * \param ipcAcquireMask
 472:Generated_Source\PSoC6\pdl\drivers/peripheral/ipc/cy_ipc_drv.h **** * An encoded list of all IPC channels that can trigger the interrupt on a
 473:Generated_Source\PSoC6\pdl\drivers/peripheral/ipc/cy_ipc_drv.h **** * notify event.
 474:Generated_Source\PSoC6\pdl\drivers/peripheral/ipc/cy_ipc_drv.h **** *
 475:Generated_Source\PSoC6\pdl\drivers/peripheral/ipc/cy_ipc_drv.h **** * \funcusage
 476:Generated_Source\PSoC6\pdl\drivers/peripheral/ipc/cy_ipc_drv.h **** * \snippet IPC_sut_01.cydsn/main_cm4.c snippet_Cy_IPC_Drv_GetInterruptStatusMasked
 477:Generated_Source\PSoC6\pdl\drivers/peripheral/ipc/cy_ipc_drv.h **** *
 478:Generated_Source\PSoC6\pdl\drivers/peripheral/ipc/cy_ipc_drv.h **** *******************************************************************************/
 479:Generated_Source\PSoC6\pdl\drivers/peripheral/ipc/cy_ipc_drv.h **** __STATIC_INLINE void  Cy_IPC_Drv_SetInterruptMask (IPC_INTR_STRUCT_Type* base,
 480:Generated_Source\PSoC6\pdl\drivers/peripheral/ipc/cy_ipc_drv.h ****                                               uint32_t ipcReleaseMask, uint32_t ipcAcquireMask)
 481:Generated_Source\PSoC6\pdl\drivers/peripheral/ipc/cy_ipc_drv.h **** {
 268              		.loc 3 481 0
 269              		.cfi_startproc
 270              		@ args = 0, pretend = 0, frame = 16
 271              		@ frame_needed = 1, uses_anonymous_args = 0
 272 0000 80B5     		push	{r7, lr}
 273              		.cfi_def_cfa_offset 8
 274              		.cfi_offset 7, -8
 275              		.cfi_offset 14, -4
 276 0002 84B0     		sub	sp, sp, #16
ARM GAS  C:\Users\salaz\AppData\Local\Temp\ccTAmJlP.s 			page 41


 277              		.cfi_def_cfa_offset 24
 278 0004 00AF     		add	r7, sp, #0
 279              		.cfi_def_cfa_register 7
 280 0006 F860     		str	r0, [r7, #12]
 281 0008 B960     		str	r1, [r7, #8]
 282 000a 7A60     		str	r2, [r7, #4]
 482:Generated_Source\PSoC6\pdl\drivers/peripheral/ipc/cy_ipc_drv.h ****     CY_ASSERT_L1(0ul == (ipcAcquireMask  & ~(uint32_t)(IPC_STRUCT_NOTIFY_INTR_NOTIFY_Msk)));
 283              		.loc 3 482 0
 284 000c 7B68     		ldr	r3, [r7, #4]
 285 000e 1B0C     		lsrs	r3, r3, #16
 286 0010 1B04     		lsls	r3, r3, #16
 287 0012 06D0     		beq	.L22
 288              		.loc 3 482 0 is_stmt 0 discriminator 1
 289 0014 F123     		movs	r3, #241
 290 0016 5A00     		lsls	r2, r3, #1
 291 0018 0E4B     		ldr	r3, .L24
 292 001a 1100     		movs	r1, r2
 293 001c 1800     		movs	r0, r3
 294 001e FFF7FEFF 		bl	Cy_SysLib_AssertFailed
 295              	.L22:
 483:Generated_Source\PSoC6\pdl\drivers/peripheral/ipc/cy_ipc_drv.h ****     CY_ASSERT_L1(0ul == (ipcReleaseMask & ~(uint32_t)(IPC_STRUCT_RELEASE_INTR_RELEASE_Msk)));
 296              		.loc 3 483 0 is_stmt 1
 297 0022 BB68     		ldr	r3, [r7, #8]
 298 0024 1B0C     		lsrs	r3, r3, #16
 299 0026 1B04     		lsls	r3, r3, #16
 300 0028 07D0     		beq	.L23
 301              		.loc 3 483 0 is_stmt 0 discriminator 1
 302 002a E423     		movs	r3, #228
 303 002c FF33     		adds	r3, r3, #255
 304 002e 1A00     		movs	r2, r3
 305 0030 084B     		ldr	r3, .L24
 306 0032 1100     		movs	r1, r2
 307 0034 1800     		movs	r0, r3
 308 0036 FFF7FEFF 		bl	Cy_SysLib_AssertFailed
 309              	.L23:
 484:Generated_Source\PSoC6\pdl\drivers/peripheral/ipc/cy_ipc_drv.h ****     base->INTR_MASK = _VAL2FLD( IPC_INTR_STRUCT_INTR_MASK_NOTIFY,  ipcAcquireMask) |
 310              		.loc 3 484 0 is_stmt 1
 311 003a 7B68     		ldr	r3, [r7, #4]
 312 003c 1A04     		lsls	r2, r3, #16
 485:Generated_Source\PSoC6\pdl\drivers/peripheral/ipc/cy_ipc_drv.h ****                       _VAL2FLD( IPC_INTR_STRUCT_INTR_MASK_RELEASE, ipcReleaseMask);
 313              		.loc 3 485 0
 314 003e BB68     		ldr	r3, [r7, #8]
 315 0040 1B04     		lsls	r3, r3, #16
 316 0042 1B0C     		lsrs	r3, r3, #16
 484:Generated_Source\PSoC6\pdl\drivers/peripheral/ipc/cy_ipc_drv.h ****     base->INTR_MASK = _VAL2FLD( IPC_INTR_STRUCT_INTR_MASK_NOTIFY,  ipcAcquireMask) |
 317              		.loc 3 484 0
 318 0044 1A43     		orrs	r2, r3
 319 0046 FB68     		ldr	r3, [r7, #12]
 320 0048 9A60     		str	r2, [r3, #8]
 486:Generated_Source\PSoC6\pdl\drivers/peripheral/ipc/cy_ipc_drv.h **** }
 321              		.loc 3 486 0
 322 004a C046     		nop
 323 004c BD46     		mov	sp, r7
 324 004e 04B0     		add	sp, sp, #16
 325              		@ sp needed
 326 0050 80BD     		pop	{r7, pc}
 327              	.L25:
ARM GAS  C:\Users\salaz\AppData\Local\Temp\ccTAmJlP.s 			page 42


 328 0052 C046     		.align	2
 329              	.L24:
 330 0054 00000000 		.word	.LC0
 331              		.cfi_endproc
 332              	.LFE38:
 333              		.size	Cy_IPC_Drv_SetInterruptMask, .-Cy_IPC_Drv_SetInterruptMask
 334              		.section	.text.Cy_IPC_Drv_GetInterruptStatusMasked,"ax",%progbits
 335              		.align	2
 336              		.code	16
 337              		.thumb_func
 338              		.type	Cy_IPC_Drv_GetInterruptStatusMasked, %function
 339              	Cy_IPC_Drv_GetInterruptStatusMasked:
 340              	.LFB40:
 487:Generated_Source\PSoC6\pdl\drivers/peripheral/ipc/cy_ipc_drv.h **** 
 488:Generated_Source\PSoC6\pdl\drivers/peripheral/ipc/cy_ipc_drv.h **** 
 489:Generated_Source\PSoC6\pdl\drivers/peripheral/ipc/cy_ipc_drv.h **** /*******************************************************************************
 490:Generated_Source\PSoC6\pdl\drivers/peripheral/ipc/cy_ipc_drv.h **** * Function Name: Cy_IPC_Drv_GetInterruptMask
 491:Generated_Source\PSoC6\pdl\drivers/peripheral/ipc/cy_ipc_drv.h **** ****************************************************************************//**
 492:Generated_Source\PSoC6\pdl\drivers/peripheral/ipc/cy_ipc_drv.h **** *
 493:Generated_Source\PSoC6\pdl\drivers/peripheral/ipc/cy_ipc_drv.h **** * This function is used to read the interrupt mask.
 494:Generated_Source\PSoC6\pdl\drivers/peripheral/ipc/cy_ipc_drv.h **** *
 495:Generated_Source\PSoC6\pdl\drivers/peripheral/ipc/cy_ipc_drv.h **** * \param base
 496:Generated_Source\PSoC6\pdl\drivers/peripheral/ipc/cy_ipc_drv.h **** * This is a handle to the IPC interrupt. This handle can be calculated from
 497:Generated_Source\PSoC6\pdl\drivers/peripheral/ipc/cy_ipc_drv.h **** * the IPC interrupt number using \ref Cy_IPC_Drv_GetIntrBaseAddr.
 498:Generated_Source\PSoC6\pdl\drivers/peripheral/ipc/cy_ipc_drv.h **** *
 499:Generated_Source\PSoC6\pdl\drivers/peripheral/ipc/cy_ipc_drv.h **** * \return
 500:Generated_Source\PSoC6\pdl\drivers/peripheral/ipc/cy_ipc_drv.h **** *   The return value is encoded as follows
 501:Generated_Source\PSoC6\pdl\drivers/peripheral/ipc/cy_ipc_drv.h **** *   <table>
 502:Generated_Source\PSoC6\pdl\drivers/peripheral/ipc/cy_ipc_drv.h **** *   <tr><th>Interrupt sources   <th>Value
 503:Generated_Source\PSoC6\pdl\drivers/peripheral/ipc/cy_ipc_drv.h **** *   <tr><td>Ipc_PORTX_RELEASE   <td>Xth bit set
 504:Generated_Source\PSoC6\pdl\drivers/peripheral/ipc/cy_ipc_drv.h **** *   <tr><td>Ipc_PORTX_NOTIFY    <td>X+16th bit set
 505:Generated_Source\PSoC6\pdl\drivers/peripheral/ipc/cy_ipc_drv.h **** *   </table>
 506:Generated_Source\PSoC6\pdl\drivers/peripheral/ipc/cy_ipc_drv.h **** *
 507:Generated_Source\PSoC6\pdl\drivers/peripheral/ipc/cy_ipc_drv.h **** * \funcusage
 508:Generated_Source\PSoC6\pdl\drivers/peripheral/ipc/cy_ipc_drv.h **** * \snippet IPC_sut_01.cydsn/main_cm4.c snippet_Cy_IPC_Drv_GetInterruptStatusMasked
 509:Generated_Source\PSoC6\pdl\drivers/peripheral/ipc/cy_ipc_drv.h **** *
 510:Generated_Source\PSoC6\pdl\drivers/peripheral/ipc/cy_ipc_drv.h **** *******************************************************************************/
 511:Generated_Source\PSoC6\pdl\drivers/peripheral/ipc/cy_ipc_drv.h **** __STATIC_INLINE uint32_t Cy_IPC_Drv_GetInterruptMask(IPC_INTR_STRUCT_Type const * base)
 512:Generated_Source\PSoC6\pdl\drivers/peripheral/ipc/cy_ipc_drv.h **** {
 513:Generated_Source\PSoC6\pdl\drivers/peripheral/ipc/cy_ipc_drv.h ****     return (base->INTR_MASK);
 514:Generated_Source\PSoC6\pdl\drivers/peripheral/ipc/cy_ipc_drv.h **** }
 515:Generated_Source\PSoC6\pdl\drivers/peripheral/ipc/cy_ipc_drv.h **** 
 516:Generated_Source\PSoC6\pdl\drivers/peripheral/ipc/cy_ipc_drv.h **** /*******************************************************************************
 517:Generated_Source\PSoC6\pdl\drivers/peripheral/ipc/cy_ipc_drv.h **** * Function Name: Cy_IPC_Drv_GetInterruptStatusMasked
 518:Generated_Source\PSoC6\pdl\drivers/peripheral/ipc/cy_ipc_drv.h **** ****************************************************************************//**
 519:Generated_Source\PSoC6\pdl\drivers/peripheral/ipc/cy_ipc_drv.h **** *
 520:Generated_Source\PSoC6\pdl\drivers/peripheral/ipc/cy_ipc_drv.h **** * This function is used to read the active unmasked interrupt. This function
 521:Generated_Source\PSoC6\pdl\drivers/peripheral/ipc/cy_ipc_drv.h **** * can be used in the interrupt service routine to find which source triggered
 522:Generated_Source\PSoC6\pdl\drivers/peripheral/ipc/cy_ipc_drv.h **** * the interrupt.
 523:Generated_Source\PSoC6\pdl\drivers/peripheral/ipc/cy_ipc_drv.h **** *
 524:Generated_Source\PSoC6\pdl\drivers/peripheral/ipc/cy_ipc_drv.h **** * \param base
 525:Generated_Source\PSoC6\pdl\drivers/peripheral/ipc/cy_ipc_drv.h **** * This is a handle to the IPC interrupt. This handle can be calculated from the
 526:Generated_Source\PSoC6\pdl\drivers/peripheral/ipc/cy_ipc_drv.h **** * IPC interrupt number using \ref Cy_IPC_Drv_GetIntrBaseAddr.
 527:Generated_Source\PSoC6\pdl\drivers/peripheral/ipc/cy_ipc_drv.h **** *
 528:Generated_Source\PSoC6\pdl\drivers/peripheral/ipc/cy_ipc_drv.h **** * \return
 529:Generated_Source\PSoC6\pdl\drivers/peripheral/ipc/cy_ipc_drv.h **** *   The return value is encoded as follows
 530:Generated_Source\PSoC6\pdl\drivers/peripheral/ipc/cy_ipc_drv.h **** *   <table>
ARM GAS  C:\Users\salaz\AppData\Local\Temp\ccTAmJlP.s 			page 43


 531:Generated_Source\PSoC6\pdl\drivers/peripheral/ipc/cy_ipc_drv.h **** *   <tr><th>Interrupt sources   <th>Value
 532:Generated_Source\PSoC6\pdl\drivers/peripheral/ipc/cy_ipc_drv.h **** *   <tr><td>Ipc_PORTX_RELEASE   <td>Xth bit set
 533:Generated_Source\PSoC6\pdl\drivers/peripheral/ipc/cy_ipc_drv.h **** *   <tr><td>Ipc_PORTX_NOTIFY    <td>X+16th bit set
 534:Generated_Source\PSoC6\pdl\drivers/peripheral/ipc/cy_ipc_drv.h **** *   </table>
 535:Generated_Source\PSoC6\pdl\drivers/peripheral/ipc/cy_ipc_drv.h **** *
 536:Generated_Source\PSoC6\pdl\drivers/peripheral/ipc/cy_ipc_drv.h **** * \funcusage
 537:Generated_Source\PSoC6\pdl\drivers/peripheral/ipc/cy_ipc_drv.h **** * \snippet IPC_sut_01.cydsn/main_cm4.c snippet_Cy_IPC_Drv_GetInterruptStatusMasked
 538:Generated_Source\PSoC6\pdl\drivers/peripheral/ipc/cy_ipc_drv.h **** *
 539:Generated_Source\PSoC6\pdl\drivers/peripheral/ipc/cy_ipc_drv.h **** *******************************************************************************/
 540:Generated_Source\PSoC6\pdl\drivers/peripheral/ipc/cy_ipc_drv.h **** __STATIC_INLINE uint32_t Cy_IPC_Drv_GetInterruptStatusMasked (IPC_INTR_STRUCT_Type const * base)
 541:Generated_Source\PSoC6\pdl\drivers/peripheral/ipc/cy_ipc_drv.h **** {
 341              		.loc 3 541 0
 342              		.cfi_startproc
 343              		@ args = 0, pretend = 0, frame = 8
 344              		@ frame_needed = 1, uses_anonymous_args = 0
 345 0000 80B5     		push	{r7, lr}
 346              		.cfi_def_cfa_offset 8
 347              		.cfi_offset 7, -8
 348              		.cfi_offset 14, -4
 349 0002 82B0     		sub	sp, sp, #8
 350              		.cfi_def_cfa_offset 16
 351 0004 00AF     		add	r7, sp, #0
 352              		.cfi_def_cfa_register 7
 353 0006 7860     		str	r0, [r7, #4]
 542:Generated_Source\PSoC6\pdl\drivers/peripheral/ipc/cy_ipc_drv.h ****     return (base->INTR_MASKED);
 354              		.loc 3 542 0
 355 0008 7B68     		ldr	r3, [r7, #4]
 356 000a DB68     		ldr	r3, [r3, #12]
 543:Generated_Source\PSoC6\pdl\drivers/peripheral/ipc/cy_ipc_drv.h **** }
 357              		.loc 3 543 0
 358 000c 1800     		movs	r0, r3
 359 000e BD46     		mov	sp, r7
 360 0010 02B0     		add	sp, sp, #8
 361              		@ sp needed
 362 0012 80BD     		pop	{r7, pc}
 363              		.cfi_endproc
 364              	.LFE40:
 365              		.size	Cy_IPC_Drv_GetInterruptStatusMasked, .-Cy_IPC_Drv_GetInterruptStatusMasked
 366              		.section	.text.Cy_IPC_Drv_GetInterruptStatus,"ax",%progbits
 367              		.align	2
 368              		.code	16
 369              		.thumb_func
 370              		.type	Cy_IPC_Drv_GetInterruptStatus, %function
 371              	Cy_IPC_Drv_GetInterruptStatus:
 372              	.LFB41:
 544:Generated_Source\PSoC6\pdl\drivers/peripheral/ipc/cy_ipc_drv.h **** 
 545:Generated_Source\PSoC6\pdl\drivers/peripheral/ipc/cy_ipc_drv.h **** /*******************************************************************************
 546:Generated_Source\PSoC6\pdl\drivers/peripheral/ipc/cy_ipc_drv.h **** * Function Name: Cy_IPC_Drv_GetInterruptStatus
 547:Generated_Source\PSoC6\pdl\drivers/peripheral/ipc/cy_ipc_drv.h **** ****************************************************************************//**
 548:Generated_Source\PSoC6\pdl\drivers/peripheral/ipc/cy_ipc_drv.h **** *
 549:Generated_Source\PSoC6\pdl\drivers/peripheral/ipc/cy_ipc_drv.h **** * This function is used to read the pending interrupts. Note that this read is
 550:Generated_Source\PSoC6\pdl\drivers/peripheral/ipc/cy_ipc_drv.h **** * an unmasked read of the interrupt status. Interrupt sources read as active by
 551:Generated_Source\PSoC6\pdl\drivers/peripheral/ipc/cy_ipc_drv.h **** * this function would generate interrupts only if they were not masked.
 552:Generated_Source\PSoC6\pdl\drivers/peripheral/ipc/cy_ipc_drv.h **** *
 553:Generated_Source\PSoC6\pdl\drivers/peripheral/ipc/cy_ipc_drv.h **** * \param base
 554:Generated_Source\PSoC6\pdl\drivers/peripheral/ipc/cy_ipc_drv.h **** * This is a handle to the IPC interrupt. This handle can be calculated from the
 555:Generated_Source\PSoC6\pdl\drivers/peripheral/ipc/cy_ipc_drv.h **** * IPC interrupt number using \ref Cy_IPC_Drv_GetIntrBaseAddr.
ARM GAS  C:\Users\salaz\AppData\Local\Temp\ccTAmJlP.s 			page 44


 556:Generated_Source\PSoC6\pdl\drivers/peripheral/ipc/cy_ipc_drv.h **** *
 557:Generated_Source\PSoC6\pdl\drivers/peripheral/ipc/cy_ipc_drv.h **** * \return
 558:Generated_Source\PSoC6\pdl\drivers/peripheral/ipc/cy_ipc_drv.h **** *   The return value is encoded as follows
 559:Generated_Source\PSoC6\pdl\drivers/peripheral/ipc/cy_ipc_drv.h **** *   <table>
 560:Generated_Source\PSoC6\pdl\drivers/peripheral/ipc/cy_ipc_drv.h **** *   <tr><th>Interrupt sources   <th>Value
 561:Generated_Source\PSoC6\pdl\drivers/peripheral/ipc/cy_ipc_drv.h **** *   <tr><td>Ipc_PORTX_RELEASE   <td>Xth bit set
 562:Generated_Source\PSoC6\pdl\drivers/peripheral/ipc/cy_ipc_drv.h **** *   <tr><td>Ipc_PORTX_NOTIFY    <td>X+16th bit set
 563:Generated_Source\PSoC6\pdl\drivers/peripheral/ipc/cy_ipc_drv.h **** *   </table>
 564:Generated_Source\PSoC6\pdl\drivers/peripheral/ipc/cy_ipc_drv.h **** *
 565:Generated_Source\PSoC6\pdl\drivers/peripheral/ipc/cy_ipc_drv.h **** * \funcusage
 566:Generated_Source\PSoC6\pdl\drivers/peripheral/ipc/cy_ipc_drv.h **** * \snippet IPC_sut_01.cydsn/main_cm4.c snippet_Cy_IPC_Drv_GetInterruptStatus
 567:Generated_Source\PSoC6\pdl\drivers/peripheral/ipc/cy_ipc_drv.h **** *
 568:Generated_Source\PSoC6\pdl\drivers/peripheral/ipc/cy_ipc_drv.h **** *******************************************************************************/
 569:Generated_Source\PSoC6\pdl\drivers/peripheral/ipc/cy_ipc_drv.h **** __STATIC_INLINE uint32_t Cy_IPC_Drv_GetInterruptStatus(IPC_INTR_STRUCT_Type const * base)
 570:Generated_Source\PSoC6\pdl\drivers/peripheral/ipc/cy_ipc_drv.h **** {
 373              		.loc 3 570 0
 374              		.cfi_startproc
 375              		@ args = 0, pretend = 0, frame = 8
 376              		@ frame_needed = 1, uses_anonymous_args = 0
 377 0000 80B5     		push	{r7, lr}
 378              		.cfi_def_cfa_offset 8
 379              		.cfi_offset 7, -8
 380              		.cfi_offset 14, -4
 381 0002 82B0     		sub	sp, sp, #8
 382              		.cfi_def_cfa_offset 16
 383 0004 00AF     		add	r7, sp, #0
 384              		.cfi_def_cfa_register 7
 385 0006 7860     		str	r0, [r7, #4]
 571:Generated_Source\PSoC6\pdl\drivers/peripheral/ipc/cy_ipc_drv.h ****     return (base->INTR);
 386              		.loc 3 571 0
 387 0008 7B68     		ldr	r3, [r7, #4]
 388 000a 1B68     		ldr	r3, [r3]
 572:Generated_Source\PSoC6\pdl\drivers/peripheral/ipc/cy_ipc_drv.h **** }
 389              		.loc 3 572 0
 390 000c 1800     		movs	r0, r3
 391 000e BD46     		mov	sp, r7
 392 0010 02B0     		add	sp, sp, #8
 393              		@ sp needed
 394 0012 80BD     		pop	{r7, pc}
 395              		.cfi_endproc
 396              	.LFE41:
 397              		.size	Cy_IPC_Drv_GetInterruptStatus, .-Cy_IPC_Drv_GetInterruptStatus
 398              		.section	.text.Cy_IPC_Drv_ClearInterrupt,"ax",%progbits
 399              		.align	2
 400              		.code	16
 401              		.thumb_func
 402              		.type	Cy_IPC_Drv_ClearInterrupt, %function
 403              	Cy_IPC_Drv_ClearInterrupt:
 404              	.LFB43:
 573:Generated_Source\PSoC6\pdl\drivers/peripheral/ipc/cy_ipc_drv.h **** 
 574:Generated_Source\PSoC6\pdl\drivers/peripheral/ipc/cy_ipc_drv.h **** /*******************************************************************************
 575:Generated_Source\PSoC6\pdl\drivers/peripheral/ipc/cy_ipc_drv.h **** * Function Name: Cy_IPC_Drv_SetInterrupt
 576:Generated_Source\PSoC6\pdl\drivers/peripheral/ipc/cy_ipc_drv.h **** ****************************************************************************//**
 577:Generated_Source\PSoC6\pdl\drivers/peripheral/ipc/cy_ipc_drv.h **** *
 578:Generated_Source\PSoC6\pdl\drivers/peripheral/ipc/cy_ipc_drv.h **** * This function is used to set the interrupt source. This function can be used
 579:Generated_Source\PSoC6\pdl\drivers/peripheral/ipc/cy_ipc_drv.h **** * to activate interrupts through software.
 580:Generated_Source\PSoC6\pdl\drivers/peripheral/ipc/cy_ipc_drv.h **** * \note That interrupt sources set using this interrupt would generate interrupts
ARM GAS  C:\Users\salaz\AppData\Local\Temp\ccTAmJlP.s 			page 45


 581:Generated_Source\PSoC6\pdl\drivers/peripheral/ipc/cy_ipc_drv.h **** * only if they are not masked.
 582:Generated_Source\PSoC6\pdl\drivers/peripheral/ipc/cy_ipc_drv.h **** *
 583:Generated_Source\PSoC6\pdl\drivers/peripheral/ipc/cy_ipc_drv.h **** * \param base
 584:Generated_Source\PSoC6\pdl\drivers/peripheral/ipc/cy_ipc_drv.h **** * This is a handle to the IPC interrupt. This handle can be calculated from the
 585:Generated_Source\PSoC6\pdl\drivers/peripheral/ipc/cy_ipc_drv.h **** * IPC interrupt number using \ref Cy_IPC_Drv_GetIntrBaseAddr.
 586:Generated_Source\PSoC6\pdl\drivers/peripheral/ipc/cy_ipc_drv.h **** *
 587:Generated_Source\PSoC6\pdl\drivers/peripheral/ipc/cy_ipc_drv.h **** * \param ipcReleaseMask
 588:Generated_Source\PSoC6\pdl\drivers/peripheral/ipc/cy_ipc_drv.h **** * An encoded list of all IPC channels that can trigger the interrupt on a
 589:Generated_Source\PSoC6\pdl\drivers/peripheral/ipc/cy_ipc_drv.h **** * release event.
 590:Generated_Source\PSoC6\pdl\drivers/peripheral/ipc/cy_ipc_drv.h **** *
 591:Generated_Source\PSoC6\pdl\drivers/peripheral/ipc/cy_ipc_drv.h **** * \param ipcAcquireMask
 592:Generated_Source\PSoC6\pdl\drivers/peripheral/ipc/cy_ipc_drv.h **** * An encoded list of all IPC channels that can trigger the interrupt on a
 593:Generated_Source\PSoC6\pdl\drivers/peripheral/ipc/cy_ipc_drv.h **** * notify event.
 594:Generated_Source\PSoC6\pdl\drivers/peripheral/ipc/cy_ipc_drv.h **** *
 595:Generated_Source\PSoC6\pdl\drivers/peripheral/ipc/cy_ipc_drv.h **** * \funcusage
 596:Generated_Source\PSoC6\pdl\drivers/peripheral/ipc/cy_ipc_drv.h **** * \snippet IPC_sut_01.cydsn/main_cm4.c snippet_Cy_IPC_Drv_SetInterrupt
 597:Generated_Source\PSoC6\pdl\drivers/peripheral/ipc/cy_ipc_drv.h **** *
 598:Generated_Source\PSoC6\pdl\drivers/peripheral/ipc/cy_ipc_drv.h **** *******************************************************************************/
 599:Generated_Source\PSoC6\pdl\drivers/peripheral/ipc/cy_ipc_drv.h **** __STATIC_INLINE void  Cy_IPC_Drv_SetInterrupt(IPC_INTR_STRUCT_Type* base, uint32_t ipcReleaseMask, 
 600:Generated_Source\PSoC6\pdl\drivers/peripheral/ipc/cy_ipc_drv.h **** {
 601:Generated_Source\PSoC6\pdl\drivers/peripheral/ipc/cy_ipc_drv.h ****     CY_ASSERT_L1(0ul == (ipcAcquireMask  & ~(uint32_t)(IPC_STRUCT_NOTIFY_INTR_NOTIFY_Msk)));
 602:Generated_Source\PSoC6\pdl\drivers/peripheral/ipc/cy_ipc_drv.h ****     CY_ASSERT_L1(0ul == (ipcReleaseMask & ~(uint32_t)(IPC_STRUCT_RELEASE_INTR_RELEASE_Msk)));
 603:Generated_Source\PSoC6\pdl\drivers/peripheral/ipc/cy_ipc_drv.h ****     base->INTR_SET =  _VAL2FLD( IPC_INTR_STRUCT_INTR_NOTIFY,  ipcAcquireMask )  |
 604:Generated_Source\PSoC6\pdl\drivers/peripheral/ipc/cy_ipc_drv.h ****                       _VAL2FLD( IPC_INTR_STRUCT_INTR_RELEASE, ipcReleaseMask );
 605:Generated_Source\PSoC6\pdl\drivers/peripheral/ipc/cy_ipc_drv.h **** }
 606:Generated_Source\PSoC6\pdl\drivers/peripheral/ipc/cy_ipc_drv.h **** 
 607:Generated_Source\PSoC6\pdl\drivers/peripheral/ipc/cy_ipc_drv.h **** /*******************************************************************************
 608:Generated_Source\PSoC6\pdl\drivers/peripheral/ipc/cy_ipc_drv.h **** * Function Name: Cy_IPC_Drv_ClearInterrupt
 609:Generated_Source\PSoC6\pdl\drivers/peripheral/ipc/cy_ipc_drv.h **** ****************************************************************************//**
 610:Generated_Source\PSoC6\pdl\drivers/peripheral/ipc/cy_ipc_drv.h **** *
 611:Generated_Source\PSoC6\pdl\drivers/peripheral/ipc/cy_ipc_drv.h **** * This function is used to clear the interrupt source. Use this function to clear
 612:Generated_Source\PSoC6\pdl\drivers/peripheral/ipc/cy_ipc_drv.h **** * a pending interrupt source in the interrupt status.
 613:Generated_Source\PSoC6\pdl\drivers/peripheral/ipc/cy_ipc_drv.h **** *
 614:Generated_Source\PSoC6\pdl\drivers/peripheral/ipc/cy_ipc_drv.h **** * \param base
 615:Generated_Source\PSoC6\pdl\drivers/peripheral/ipc/cy_ipc_drv.h **** * This is a handle to the IPC interrupt. This handle can be calculated from the
 616:Generated_Source\PSoC6\pdl\drivers/peripheral/ipc/cy_ipc_drv.h **** * IPC interrupt number using \ref Cy_IPC_Drv_GetIntrBaseAddr.
 617:Generated_Source\PSoC6\pdl\drivers/peripheral/ipc/cy_ipc_drv.h **** *
 618:Generated_Source\PSoC6\pdl\drivers/peripheral/ipc/cy_ipc_drv.h **** * \param ipcReleaseMask
 619:Generated_Source\PSoC6\pdl\drivers/peripheral/ipc/cy_ipc_drv.h **** * An encoded list of all IPC channels that can trigger the interrupt on a
 620:Generated_Source\PSoC6\pdl\drivers/peripheral/ipc/cy_ipc_drv.h **** * release event.
 621:Generated_Source\PSoC6\pdl\drivers/peripheral/ipc/cy_ipc_drv.h **** *
 622:Generated_Source\PSoC6\pdl\drivers/peripheral/ipc/cy_ipc_drv.h **** * \param ipcAcquireMask
 623:Generated_Source\PSoC6\pdl\drivers/peripheral/ipc/cy_ipc_drv.h **** * An encoded list of all IPC channels that can trigger the interrupt on a
 624:Generated_Source\PSoC6\pdl\drivers/peripheral/ipc/cy_ipc_drv.h **** * notify event.
 625:Generated_Source\PSoC6\pdl\drivers/peripheral/ipc/cy_ipc_drv.h **** *
 626:Generated_Source\PSoC6\pdl\drivers/peripheral/ipc/cy_ipc_drv.h **** * \funcusage
 627:Generated_Source\PSoC6\pdl\drivers/peripheral/ipc/cy_ipc_drv.h **** * \snippet IPC_sut_01.cydsn/main_cm4.c snippet_Cy_IPC_Drv_GetInterruptStatusMasked
 628:Generated_Source\PSoC6\pdl\drivers/peripheral/ipc/cy_ipc_drv.h **** *
 629:Generated_Source\PSoC6\pdl\drivers/peripheral/ipc/cy_ipc_drv.h **** *******************************************************************************/
 630:Generated_Source\PSoC6\pdl\drivers/peripheral/ipc/cy_ipc_drv.h **** __STATIC_INLINE void  Cy_IPC_Drv_ClearInterrupt(IPC_INTR_STRUCT_Type* base, uint32_t ipcReleaseMask
 631:Generated_Source\PSoC6\pdl\drivers/peripheral/ipc/cy_ipc_drv.h **** {
 405              		.loc 3 631 0
 406              		.cfi_startproc
 407              		@ args = 0, pretend = 0, frame = 16
 408              		@ frame_needed = 1, uses_anonymous_args = 0
 409 0000 80B5     		push	{r7, lr}
 410              		.cfi_def_cfa_offset 8
ARM GAS  C:\Users\salaz\AppData\Local\Temp\ccTAmJlP.s 			page 46


 411              		.cfi_offset 7, -8
 412              		.cfi_offset 14, -4
 413 0002 84B0     		sub	sp, sp, #16
 414              		.cfi_def_cfa_offset 24
 415 0004 00AF     		add	r7, sp, #0
 416              		.cfi_def_cfa_register 7
 417 0006 F860     		str	r0, [r7, #12]
 418 0008 B960     		str	r1, [r7, #8]
 419 000a 7A60     		str	r2, [r7, #4]
 632:Generated_Source\PSoC6\pdl\drivers/peripheral/ipc/cy_ipc_drv.h ****     CY_ASSERT_L1(0ul == (ipcAcquireMask  & ~(uint32_t)(IPC_STRUCT_NOTIFY_INTR_NOTIFY_Msk)));
