ARM GAS  C:\Users\salaz\AppData\Local\Temp\ccFFISlC.s 			page 1


   1              		.syntax unified
   2              		.cpu cortex-m0plus
   3              		.fpu softvfp
   4              		.eabi_attribute 20, 1
   5              		.eabi_attribute 21, 1
   6              		.eabi_attribute 23, 3
   7              		.eabi_attribute 24, 1
   8              		.eabi_attribute 25, 1
   9              		.eabi_attribute 26, 1
  10              		.eabi_attribute 30, 6
  11              		.eabi_attribute 34, 0
  12              		.eabi_attribute 18, 4
  13              		.thumb
  14              		.syntax unified
  15              		.file	"cy_ipc_sema.c"
  16              		.text
  17              	.Ltext0:
  18              		.cfi_sections	.debug_frame
  19              		.section	.rodata
  20              		.align	2
  21              	.LC0:
  22 0000 47656E65 		.ascii	"Generated_Source\\PSoC6\\pdl\\drivers/peripheral/ip"
  22      72617465 
  22      645F536F 
  22      75726365 
  22      5C50536F 
  23 0030 632F6379 		.ascii	"c/cy_ipc_drv.h\000"
  23      5F697063 
  23      5F647276 
  23      2E6800
  24              		.section	.text.Cy_IPC_Drv_GetIpcBaseAddress,"ax",%progbits
  25              		.align	2
  26              		.code	16
  27              		.thumb_func
  28              		.type	Cy_IPC_Drv_GetIpcBaseAddress, %function
  29              	Cy_IPC_Drv_GetIpcBaseAddress:
  30              	.LFB36:
  31              		.file 1 "Generated_Source\\PSoC6\\pdl\\drivers/peripheral/ipc/cy_ipc_drv.h"
   1:Generated_Source\PSoC6\pdl\drivers/peripheral/ipc/cy_ipc_drv.h **** /***************************************************************************//**
   2:Generated_Source\PSoC6\pdl\drivers/peripheral/ipc/cy_ipc_drv.h **** * \file cy_ipc_drv.h
   3:Generated_Source\PSoC6\pdl\drivers/peripheral/ipc/cy_ipc_drv.h **** * \version 1.20
   4:Generated_Source\PSoC6\pdl\drivers/peripheral/ipc/cy_ipc_drv.h **** *
   5:Generated_Source\PSoC6\pdl\drivers/peripheral/ipc/cy_ipc_drv.h **** * Provides an API declaration of the IPC driver.
   6:Generated_Source\PSoC6\pdl\drivers/peripheral/ipc/cy_ipc_drv.h **** *
   7:Generated_Source\PSoC6\pdl\drivers/peripheral/ipc/cy_ipc_drv.h **** ********************************************************************************
   8:Generated_Source\PSoC6\pdl\drivers/peripheral/ipc/cy_ipc_drv.h **** * \copyright
   9:Generated_Source\PSoC6\pdl\drivers/peripheral/ipc/cy_ipc_drv.h **** * Copyright 2016-2018, Cypress Semiconductor Corporation. All rights reserved.
  10:Generated_Source\PSoC6\pdl\drivers/peripheral/ipc/cy_ipc_drv.h **** * You may use this file only in accordance with the license, terms, conditions,
  11:Generated_Source\PSoC6\pdl\drivers/peripheral/ipc/cy_ipc_drv.h **** * disclaimers, and limitations in the end user license agreement accompanying
  12:Generated_Source\PSoC6\pdl\drivers/peripheral/ipc/cy_ipc_drv.h **** * the software package with which this file was provided.
  13:Generated_Source\PSoC6\pdl\drivers/peripheral/ipc/cy_ipc_drv.h **** *******************************************************************************/
  14:Generated_Source\PSoC6\pdl\drivers/peripheral/ipc/cy_ipc_drv.h **** 
  15:Generated_Source\PSoC6\pdl\drivers/peripheral/ipc/cy_ipc_drv.h **** #ifndef CY_IPC_DRV_H
  16:Generated_Source\PSoC6\pdl\drivers/peripheral/ipc/cy_ipc_drv.h **** #define CY_IPC_DRV_H
  17:Generated_Source\PSoC6\pdl\drivers/peripheral/ipc/cy_ipc_drv.h **** 
  18:Generated_Source\PSoC6\pdl\drivers/peripheral/ipc/cy_ipc_drv.h **** 
  19:Generated_Source\PSoC6\pdl\drivers/peripheral/ipc/cy_ipc_drv.h **** /**
ARM GAS  C:\Users\salaz\AppData\Local\Temp\ccFFISlC.s 			page 2


  20:Generated_Source\PSoC6\pdl\drivers/peripheral/ipc/cy_ipc_drv.h **** * \defgroup group_ipc Inter Process Communication (IPC)
  21:Generated_Source\PSoC6\pdl\drivers/peripheral/ipc/cy_ipc_drv.h **** * \{
  22:Generated_Source\PSoC6\pdl\drivers/peripheral/ipc/cy_ipc_drv.h **** * The inter-processor communication (IPC) driver provides a safe and reliable
  23:Generated_Source\PSoC6\pdl\drivers/peripheral/ipc/cy_ipc_drv.h **** * method to transfer data between CPUs. Hardware locking ensures that only one
  24:Generated_Source\PSoC6\pdl\drivers/peripheral/ipc/cy_ipc_drv.h **** * device can acquire and transfer data at a time so no data is lost or
  25:Generated_Source\PSoC6\pdl\drivers/peripheral/ipc/cy_ipc_drv.h **** * overwritten by asynchronous processes or CPUs.
  26:Generated_Source\PSoC6\pdl\drivers/peripheral/ipc/cy_ipc_drv.h **** *
  27:Generated_Source\PSoC6\pdl\drivers/peripheral/ipc/cy_ipc_drv.h **** * There are three parts to the API:
  28:Generated_Source\PSoC6\pdl\drivers/peripheral/ipc/cy_ipc_drv.h **** *     - Driver-level (DRV) API - used internally by Semaphore and Pipe levels
  29:Generated_Source\PSoC6\pdl\drivers/peripheral/ipc/cy_ipc_drv.h **** *     - Pipe-level (PIPE) API - establishes a communication channel between
  30:Generated_Source\PSoC6\pdl\drivers/peripheral/ipc/cy_ipc_drv.h **** *       processors
  31:Generated_Source\PSoC6\pdl\drivers/peripheral/ipc/cy_ipc_drv.h **** *     - Semaphore-level (SEMA) API - enables users to set and clear flags to
  32:Generated_Source\PSoC6\pdl\drivers/peripheral/ipc/cy_ipc_drv.h **** *       synchronize operations.
  33:Generated_Source\PSoC6\pdl\drivers/peripheral/ipc/cy_ipc_drv.h **** *
  34:Generated_Source\PSoC6\pdl\drivers/peripheral/ipc/cy_ipc_drv.h **** * Firmware does not need to use the DRV API. It can implement IPC functionality
  35:Generated_Source\PSoC6\pdl\drivers/peripheral/ipc/cy_ipc_drv.h **** * entirely with the PIPE and SEMA APIs.
  36:Generated_Source\PSoC6\pdl\drivers/peripheral/ipc/cy_ipc_drv.h **** *
  37:Generated_Source\PSoC6\pdl\drivers/peripheral/ipc/cy_ipc_drv.h **** * \section group_ipc_background Background
  38:Generated_Source\PSoC6\pdl\drivers/peripheral/ipc/cy_ipc_drv.h **** *
  39:Generated_Source\PSoC6\pdl\drivers/peripheral/ipc/cy_ipc_drv.h **** * IPC is implemented in hardware as a collection of individual communication
  40:Generated_Source\PSoC6\pdl\drivers/peripheral/ipc/cy_ipc_drv.h **** * channels, each with a set of 32-bit registers. The IPC design implements a set
  41:Generated_Source\PSoC6\pdl\drivers/peripheral/ipc/cy_ipc_drv.h **** * of interrupts that enable each processor to notify the other that data is
  42:Generated_Source\PSoC6\pdl\drivers/peripheral/ipc/cy_ipc_drv.h **** * available, or has been processed. There is also a locking mechanism that
  43:Generated_Source\PSoC6\pdl\drivers/peripheral/ipc/cy_ipc_drv.h **** * allows only one CPU to gain access at a time.
  44:Generated_Source\PSoC6\pdl\drivers/peripheral/ipc/cy_ipc_drv.h **** *
  45:Generated_Source\PSoC6\pdl\drivers/peripheral/ipc/cy_ipc_drv.h **** * The Driver-level API manages each channel's registers to implement IPC
  46:Generated_Source\PSoC6\pdl\drivers/peripheral/ipc/cy_ipc_drv.h **** * functionality. For information on the IPC registers, see the IPC chapter of
  47:Generated_Source\PSoC6\pdl\drivers/peripheral/ipc/cy_ipc_drv.h **** * the Technical Reference Manual (TRM).
  48:Generated_Source\PSoC6\pdl\drivers/peripheral/ipc/cy_ipc_drv.h **** *
  49:Generated_Source\PSoC6\pdl\drivers/peripheral/ipc/cy_ipc_drv.h **** * At the hardware level, communication is a five-step process.
  50:Generated_Source\PSoC6\pdl\drivers/peripheral/ipc/cy_ipc_drv.h **** *     -#  The sending processor acquires a channel
  51:Generated_Source\PSoC6\pdl\drivers/peripheral/ipc/cy_ipc_drv.h **** *     -#  It puts data into the channel
  52:Generated_Source\PSoC6\pdl\drivers/peripheral/ipc/cy_ipc_drv.h **** *     -#  The sender generates a notify event (interrupt)
  53:Generated_Source\PSoC6\pdl\drivers/peripheral/ipc/cy_ipc_drv.h **** *     -#  The receiving processor identifies the sender and retrieves the data
  54:Generated_Source\PSoC6\pdl\drivers/peripheral/ipc/cy_ipc_drv.h **** *     -#  The receiving processor generates a release event (interrupt)
  55:Generated_Source\PSoC6\pdl\drivers/peripheral/ipc/cy_ipc_drv.h **** *
  56:Generated_Source\PSoC6\pdl\drivers/peripheral/ipc/cy_ipc_drv.h **** * \image html ipc_driver.png
  57:Generated_Source\PSoC6\pdl\drivers/peripheral/ipc/cy_ipc_drv.h **** *
  58:Generated_Source\PSoC6\pdl\drivers/peripheral/ipc/cy_ipc_drv.h **** * These transactions are handled transparently by the DRV-level API. Use the
  59:Generated_Source\PSoC6\pdl\drivers/peripheral/ipc/cy_ipc_drv.h **** * PIPE and SEMA layers of the API to implement communication in your application.
  60:Generated_Source\PSoC6\pdl\drivers/peripheral/ipc/cy_ipc_drv.h **** * The data transferred is limited to a single 32-bit value. As implemented by
  61:Generated_Source\PSoC6\pdl\drivers/peripheral/ipc/cy_ipc_drv.h **** * the PIPE API, that value is a pointer to a data structure of arbitrary size
  62:Generated_Source\PSoC6\pdl\drivers/peripheral/ipc/cy_ipc_drv.h **** * and complexity.
  63:Generated_Source\PSoC6\pdl\drivers/peripheral/ipc/cy_ipc_drv.h **** *
  64:Generated_Source\PSoC6\pdl\drivers/peripheral/ipc/cy_ipc_drv.h **** * \section group_ipc_overview Overview
  65:Generated_Source\PSoC6\pdl\drivers/peripheral/ipc/cy_ipc_drv.h **** *
  66:Generated_Source\PSoC6\pdl\drivers/peripheral/ipc/cy_ipc_drv.h **** * The Pipe is the key element in the PDL design. A pipe is typically a
  67:Generated_Source\PSoC6\pdl\drivers/peripheral/ipc/cy_ipc_drv.h **** * full-duplex communication channel between CPU cores. A pipe allows a single
  68:Generated_Source\PSoC6\pdl\drivers/peripheral/ipc/cy_ipc_drv.h **** * conduit to transfer messages or data to and from multiple processes or CPUs.
  69:Generated_Source\PSoC6\pdl\drivers/peripheral/ipc/cy_ipc_drv.h **** *
  70:Generated_Source\PSoC6\pdl\drivers/peripheral/ipc/cy_ipc_drv.h **** * A pipe has two endpoints, one on each core. Each endpoint contains a dedicated
  71:Generated_Source\PSoC6\pdl\drivers/peripheral/ipc/cy_ipc_drv.h **** * IPC channel and an interrupt. IPC channels 0-7 and IPC interrupts 0-7 are
  72:Generated_Source\PSoC6\pdl\drivers/peripheral/ipc/cy_ipc_drv.h **** * reserved for system use.
  73:Generated_Source\PSoC6\pdl\drivers/peripheral/ipc/cy_ipc_drv.h **** *
  74:Generated_Source\PSoC6\pdl\drivers/peripheral/ipc/cy_ipc_drv.h **** * The pipe also contains the number of clients it supports, and for each client
  75:Generated_Source\PSoC6\pdl\drivers/peripheral/ipc/cy_ipc_drv.h **** * a callback function. So the pipe can service a number of clients, each with a
  76:Generated_Source\PSoC6\pdl\drivers/peripheral/ipc/cy_ipc_drv.h **** * separate callback function, on either endpoint. The number of clients a pipe
ARM GAS  C:\Users\salaz\AppData\Local\Temp\ccFFISlC.s 			page 3


  77:Generated_Source\PSoC6\pdl\drivers/peripheral/ipc/cy_ipc_drv.h **** * supports is the sum of each endpoint's clients.
  78:Generated_Source\PSoC6\pdl\drivers/peripheral/ipc/cy_ipc_drv.h **** *
  79:Generated_Source\PSoC6\pdl\drivers/peripheral/ipc/cy_ipc_drv.h **** * This design enables any number of processes on the sending core to put
  80:Generated_Source\PSoC6\pdl\drivers/peripheral/ipc/cy_ipc_drv.h **** * arbitrary data into a single pipe. The first element of that data is the
  81:Generated_Source\PSoC6\pdl\drivers/peripheral/ipc/cy_ipc_drv.h **** * client ID of the client that should handle the data.
  82:Generated_Source\PSoC6\pdl\drivers/peripheral/ipc/cy_ipc_drv.h **** *
  83:Generated_Source\PSoC6\pdl\drivers/peripheral/ipc/cy_ipc_drv.h **** * An interrupt notifies the receiving core that data is available. The receiving
  84:Generated_Source\PSoC6\pdl\drivers/peripheral/ipc/cy_ipc_drv.h **** * core parses the data to identify the client, and then dispatches the event to
  85:Generated_Source\PSoC6\pdl\drivers/peripheral/ipc/cy_ipc_drv.h **** * the appropriate client via the client callback function. An interrupt notifies
  86:Generated_Source\PSoC6\pdl\drivers/peripheral/ipc/cy_ipc_drv.h **** * the sending core that the receiver is finished. In this way a single pipe can
  87:Generated_Source\PSoC6\pdl\drivers/peripheral/ipc/cy_ipc_drv.h **** * manage arbitrary data transfers between cores with data flowing in either
  88:Generated_Source\PSoC6\pdl\drivers/peripheral/ipc/cy_ipc_drv.h **** * direction.
  89:Generated_Source\PSoC6\pdl\drivers/peripheral/ipc/cy_ipc_drv.h **** *
  90:Generated_Source\PSoC6\pdl\drivers/peripheral/ipc/cy_ipc_drv.h **** * \image html ipc_ints.png
  91:Generated_Source\PSoC6\pdl\drivers/peripheral/ipc/cy_ipc_drv.h **** *
  92:Generated_Source\PSoC6\pdl\drivers/peripheral/ipc/cy_ipc_drv.h **** * The application can use semaphores to control access to shared resources, as
  93:Generated_Source\PSoC6\pdl\drivers/peripheral/ipc/cy_ipc_drv.h **** * required by the application's logic.
  94:Generated_Source\PSoC6\pdl\drivers/peripheral/ipc/cy_ipc_drv.h **** *
  95:Generated_Source\PSoC6\pdl\drivers/peripheral/ipc/cy_ipc_drv.h **** * The PDL provides two specific files that set up default IPC functionality.
  96:Generated_Source\PSoC6\pdl\drivers/peripheral/ipc/cy_ipc_drv.h **** * They are cy_ipc_config.h and cy_ipc_config.c. You can modify these files based
  97:Generated_Source\PSoC6\pdl\drivers/peripheral/ipc/cy_ipc_drv.h **** * on the requirements of your design. If you use PSoC Creator as a development
  98:Generated_Source\PSoC6\pdl\drivers/peripheral/ipc/cy_ipc_drv.h **** * environment, it will not overwrite your changes when you generate the
  99:Generated_Source\PSoC6\pdl\drivers/peripheral/ipc/cy_ipc_drv.h **** * application or build your code.
 100:Generated_Source\PSoC6\pdl\drivers/peripheral/ipc/cy_ipc_drv.h **** *
 101:Generated_Source\PSoC6\pdl\drivers/peripheral/ipc/cy_ipc_drv.h **** * \section group_ipc_pipe_layer PIPE layer
 102:Generated_Source\PSoC6\pdl\drivers/peripheral/ipc/cy_ipc_drv.h **** *
 103:Generated_Source\PSoC6\pdl\drivers/peripheral/ipc/cy_ipc_drv.h **** * A pipe is a communication channel between two endpoints. PSoC 6 devices support
 104:Generated_Source\PSoC6\pdl\drivers/peripheral/ipc/cy_ipc_drv.h **** * 16 IPC channels, and 16 IPC interrupts, each numbered 0-15. IPC Channels 0-7
 105:Generated_Source\PSoC6\pdl\drivers/peripheral/ipc/cy_ipc_drv.h **** * and IPC interrupts 0-7 are reserved for system use. Channels 8-15 and
 106:Generated_Source\PSoC6\pdl\drivers/peripheral/ipc/cy_ipc_drv.h **** * interrupts 8-15 are available for application use.
 107:Generated_Source\PSoC6\pdl\drivers/peripheral/ipc/cy_ipc_drv.h **** *
 108:Generated_Source\PSoC6\pdl\drivers/peripheral/ipc/cy_ipc_drv.h **** * A full duplex pipe uses two IPC channels, one per endpoint. Each endpoint
 109:Generated_Source\PSoC6\pdl\drivers/peripheral/ipc/cy_ipc_drv.h **** * specifies all the information required to process a message (either sent or
 110:Generated_Source\PSoC6\pdl\drivers/peripheral/ipc/cy_ipc_drv.h **** * received). Each endpoint is configured to use an IPC channel, and an IPC
 111:Generated_Source\PSoC6\pdl\drivers/peripheral/ipc/cy_ipc_drv.h **** * interrupt. Common practice is to use the interrupt with the same number as
 112:Generated_Source\PSoC6\pdl\drivers/peripheral/ipc/cy_ipc_drv.h **** * the IPC channel. However, IPC Interrupts are not directly associated with the
 113:Generated_Source\PSoC6\pdl\drivers/peripheral/ipc/cy_ipc_drv.h **** * IPC channels, so any channel can use any interrupt.  Any IPC channel can
 114:Generated_Source\PSoC6\pdl\drivers/peripheral/ipc/cy_ipc_drv.h **** * trigger 0, 1 or all the IPC interrupts at once, depending on the Notify or
 115:Generated_Source\PSoC6\pdl\drivers/peripheral/ipc/cy_ipc_drv.h **** * Release masks used.
 116:Generated_Source\PSoC6\pdl\drivers/peripheral/ipc/cy_ipc_drv.h **** *
 117:Generated_Source\PSoC6\pdl\drivers/peripheral/ipc/cy_ipc_drv.h **** * It is also possible to set up a one-directional pipe, using a single IPC
 118:Generated_Source\PSoC6\pdl\drivers/peripheral/ipc/cy_ipc_drv.h **** * channel. In this design one processor is always the sender, and the other is
 119:Generated_Source\PSoC6\pdl\drivers/peripheral/ipc/cy_ipc_drv.h **** * always the receiver. However, there are still two endpoints.
 120:Generated_Source\PSoC6\pdl\drivers/peripheral/ipc/cy_ipc_drv.h **** *
 121:Generated_Source\PSoC6\pdl\drivers/peripheral/ipc/cy_ipc_drv.h **** * A pipe supports an arbitrary number of clients with an array of callback
 122:Generated_Source\PSoC6\pdl\drivers/peripheral/ipc/cy_ipc_drv.h **** * functions, one per client. The client ID is the index number into the array
 123:Generated_Source\PSoC6\pdl\drivers/peripheral/ipc/cy_ipc_drv.h **** * for the client. After a pipe is configured and initialized, the application
 124:Generated_Source\PSoC6\pdl\drivers/peripheral/ipc/cy_ipc_drv.h **** * calls Cy_IPC_Pipe_RegisterCallback() once per client to register each client's
 125:Generated_Source\PSoC6\pdl\drivers/peripheral/ipc/cy_ipc_drv.h **** * callback function. Multiple clients can use the same callback function. The
 126:Generated_Source\PSoC6\pdl\drivers/peripheral/ipc/cy_ipc_drv.h **** * endpoints in a pipe share the callback array.
 127:Generated_Source\PSoC6\pdl\drivers/peripheral/ipc/cy_ipc_drv.h **** *
 128:Generated_Source\PSoC6\pdl\drivers/peripheral/ipc/cy_ipc_drv.h **** * Use Cy_IPC_Pipe_SendMessage() to send data. You specify both the "to" and
 129:Generated_Source\PSoC6\pdl\drivers/peripheral/ipc/cy_ipc_drv.h **** * "from" endpoints, and a callback function to be used when the data transfer is
 130:Generated_Source\PSoC6\pdl\drivers/peripheral/ipc/cy_ipc_drv.h **** * complete. The data is a 32-bit void pointer. The data pointed to is arbitrary,
 131:Generated_Source\PSoC6\pdl\drivers/peripheral/ipc/cy_ipc_drv.h **** * and can be an array, a structure, or a location in memory. The only limitation
 132:Generated_Source\PSoC6\pdl\drivers/peripheral/ipc/cy_ipc_drv.h **** * is that the first element of the data must be a 32-bit unsigned word containing
 133:Generated_Source\PSoC6\pdl\drivers/peripheral/ipc/cy_ipc_drv.h **** * a client ID number. The ID number is the index into the callback array.
ARM GAS  C:\Users\salaz\AppData\Local\Temp\ccFFISlC.s 			page 4


 134:Generated_Source\PSoC6\pdl\drivers/peripheral/ipc/cy_ipc_drv.h **** *
 135:Generated_Source\PSoC6\pdl\drivers/peripheral/ipc/cy_ipc_drv.h **** * When a message is sent, the receiving endpoint's interrupt handler is called.
 136:Generated_Source\PSoC6\pdl\drivers/peripheral/ipc/cy_ipc_drv.h **** * The ISR can perform any task required by the design. However, as part of its
 137:Generated_Source\PSoC6\pdl\drivers/peripheral/ipc/cy_ipc_drv.h **** * function it calls \ref Cy_IPC_Pipe_ExecCallback. This function retrieves the
 138:Generated_Source\PSoC6\pdl\drivers/peripheral/ipc/cy_ipc_drv.h **** * client ID from the data and calls the associated callback function.
 139:Generated_Source\PSoC6\pdl\drivers/peripheral/ipc/cy_ipc_drv.h **** * The user-supplied callback function handles the data in whatever way is
 140:Generated_Source\PSoC6\pdl\drivers/peripheral/ipc/cy_ipc_drv.h **** * appropriate based on the application logic.
 141:Generated_Source\PSoC6\pdl\drivers/peripheral/ipc/cy_ipc_drv.h **** *
 142:Generated_Source\PSoC6\pdl\drivers/peripheral/ipc/cy_ipc_drv.h **** * After the callback function is returned by the receiver, it invokes the release
 143:Generated_Source\PSoC6\pdl\drivers/peripheral/ipc/cy_ipc_drv.h **** * callback function defined by the sender of the message.
 144:Generated_Source\PSoC6\pdl\drivers/peripheral/ipc/cy_ipc_drv.h **** *
 145:Generated_Source\PSoC6\pdl\drivers/peripheral/ipc/cy_ipc_drv.h **** * \section group_ipc_sema_layer SEMA Layer
 146:Generated_Source\PSoC6\pdl\drivers/peripheral/ipc/cy_ipc_drv.h **** *
 147:Generated_Source\PSoC6\pdl\drivers/peripheral/ipc/cy_ipc_drv.h **** * A semaphore is a flag the application uses to control access to a shared
 148:Generated_Source\PSoC6\pdl\drivers/peripheral/ipc/cy_ipc_drv.h **** * resource. The SEMA-level API uses an IPC channel to implement
 149:Generated_Source\PSoC6\pdl\drivers/peripheral/ipc/cy_ipc_drv.h **** * semaphores. Startup code sets up a default semaphore system. The
 150:Generated_Source\PSoC6\pdl\drivers/peripheral/ipc/cy_ipc_drv.h **** * default system creates an array of 128 semaphores (four 32-bit values).
 151:Generated_Source\PSoC6\pdl\drivers/peripheral/ipc/cy_ipc_drv.h **** * Semaphores 0-15 are reserved for system use. See
 152:Generated_Source\PSoC6\pdl\drivers/peripheral/ipc/cy_ipc_drv.h **** * Configuration Considerations - SEMA.
 153:Generated_Source\PSoC6\pdl\drivers/peripheral/ipc/cy_ipc_drv.h **** *
 154:Generated_Source\PSoC6\pdl\drivers/peripheral/ipc/cy_ipc_drv.h **** * Functions are available to initialize the semaphore system, to set or
 155:Generated_Source\PSoC6\pdl\drivers/peripheral/ipc/cy_ipc_drv.h **** * clear a semaphore, or to get the semaphore's current status. Application
 156:Generated_Source\PSoC6\pdl\drivers/peripheral/ipc/cy_ipc_drv.h **** * logic uses SEMA functions to relate a particular semaphore to a particular
 157:Generated_Source\PSoC6\pdl\drivers/peripheral/ipc/cy_ipc_drv.h **** * shared resource, and set, clear, or check the flag when accessing the
 158:Generated_Source\PSoC6\pdl\drivers/peripheral/ipc/cy_ipc_drv.h **** * shared resource.
 159:Generated_Source\PSoC6\pdl\drivers/peripheral/ipc/cy_ipc_drv.h **** *
 160:Generated_Source\PSoC6\pdl\drivers/peripheral/ipc/cy_ipc_drv.h **** * \section group_ipc_configuration_cypipe Configuration Considerations - CYPIPE
 161:Generated_Source\PSoC6\pdl\drivers/peripheral/ipc/cy_ipc_drv.h **** *
 162:Generated_Source\PSoC6\pdl\drivers/peripheral/ipc/cy_ipc_drv.h **** * There are none. The cy_ipc_config files set up the required CYPIPE for system
 163:Generated_Source\PSoC6\pdl\drivers/peripheral/ipc/cy_ipc_drv.h **** * use. Do not modify the CYPIPE. It uses IPC channels 5 and 6 to implement full
 164:Generated_Source\PSoC6\pdl\drivers/peripheral/ipc/cy_ipc_drv.h **** * duplex communication between cores. On the CM0+ the notify interrupt is
 165:Generated_Source\PSoC6\pdl\drivers/peripheral/ipc/cy_ipc_drv.h **** * assigned to NVIC IRQn 27. See System Interrupt (SysInt) for background.
 166:Generated_Source\PSoC6\pdl\drivers/peripheral/ipc/cy_ipc_drv.h **** *
 167:Generated_Source\PSoC6\pdl\drivers/peripheral/ipc/cy_ipc_drv.h **** * To create your own pipe (<b>USRPIPE</b>) you should edit cy_ipc_config files
 168:Generated_Source\PSoC6\pdl\drivers/peripheral/ipc/cy_ipc_drv.h **** * and take 4 steps:
 169:Generated_Source\PSoC6\pdl\drivers/peripheral/ipc/cy_ipc_drv.h **** *   -# Define a pipe callbacks processing interrupt handler
 170:Generated_Source\PSoC6\pdl\drivers/peripheral/ipc/cy_ipc_drv.h **** *      (similar to <b>Cy_IPC_SystemPipeIsr</b>)
 171:Generated_Source\PSoC6\pdl\drivers/peripheral/ipc/cy_ipc_drv.h **** *   -# Define a callbacks array (similar to <b>cy_ipc_pipe_sysCbArray</b>)
 172:Generated_Source\PSoC6\pdl\drivers/peripheral/ipc/cy_ipc_drv.h **** *   -# Define your pipe configuration with a cy_stc_ipc_pipe_config_t type structure
 173:Generated_Source\PSoC6\pdl\drivers/peripheral/ipc/cy_ipc_drv.h **** *      (similar to <b>systemPipeConfig</b> and <b>CY_CYPIPE_DEFAULT_CONFIG</b>)
 174:Generated_Source\PSoC6\pdl\drivers/peripheral/ipc/cy_ipc_drv.h **** *   -# Call Cy_IPC_Pipe_Init() from each core to initialize your pipe (similar
 175:Generated_Source\PSoC6\pdl\drivers/peripheral/ipc/cy_ipc_drv.h **** *      to call in the <b>Cy_IPC_SystemPipeInit</b>)
 176:Generated_Source\PSoC6\pdl\drivers/peripheral/ipc/cy_ipc_drv.h **** *
 177:Generated_Source\PSoC6\pdl\drivers/peripheral/ipc/cy_ipc_drv.h **** * \section group_ipc_configuration_sema Configuration Considerations - SEMA
 178:Generated_Source\PSoC6\pdl\drivers/peripheral/ipc/cy_ipc_drv.h **** *
 179:Generated_Source\PSoC6\pdl\drivers/peripheral/ipc/cy_ipc_drv.h **** * Startup code calls Cy_IPC_SystemSemaInit() (in cy_ipc_config.c) to set up
 180:Generated_Source\PSoC6\pdl\drivers/peripheral/ipc/cy_ipc_drv.h **** * semaphore functionality. This function calls the PDL init function
 181:Generated_Source\PSoC6\pdl\drivers/peripheral/ipc/cy_ipc_drv.h **** * Cy_IPC_Sema_Init() with default values. By default the semaphore system
 182:Generated_Source\PSoC6\pdl\drivers/peripheral/ipc/cy_ipc_drv.h **** * uses IPC channel 4, and creates 128 semaphores. Do <b>not</b> change the IPC
 183:Generated_Source\PSoC6\pdl\drivers/peripheral/ipc/cy_ipc_drv.h **** * channel. You can change the number of semaphores.
 184:Generated_Source\PSoC6\pdl\drivers/peripheral/ipc/cy_ipc_drv.h **** *
 185:Generated_Source\PSoC6\pdl\drivers/peripheral/ipc/cy_ipc_drv.h **** * To change the number of semaphores, modify this line of code in cy_ipc_config.h.
 186:Generated_Source\PSoC6\pdl\drivers/peripheral/ipc/cy_ipc_drv.h **** *
 187:Generated_Source\PSoC6\pdl\drivers/peripheral/ipc/cy_ipc_drv.h **** * \code
 188:Generated_Source\PSoC6\pdl\drivers/peripheral/ipc/cy_ipc_drv.h **** * #define CY_IPC_SEMA_COUNT               (uint32_t)(128u)
 189:Generated_Source\PSoC6\pdl\drivers/peripheral/ipc/cy_ipc_drv.h **** * \endcode
 190:Generated_Source\PSoC6\pdl\drivers/peripheral/ipc/cy_ipc_drv.h **** *
ARM GAS  C:\Users\salaz\AppData\Local\Temp\ccFFISlC.s 			page 5


 191:Generated_Source\PSoC6\pdl\drivers/peripheral/ipc/cy_ipc_drv.h **** * The file cy_ipc_config.c declares array ipcSemaArray to hold the semaphore
 192:Generated_Source\PSoC6\pdl\drivers/peripheral/ipc/cy_ipc_drv.h **** * flags based on the size defined for this symbol. Use increments of 32. You
 193:Generated_Source\PSoC6\pdl\drivers/peripheral/ipc/cy_ipc_drv.h **** * must have at least 32 semaphores. Semaphores 0-15 are reserved for
 194:Generated_Source\PSoC6\pdl\drivers/peripheral/ipc/cy_ipc_drv.h **** * system use. Your application can use semaphores greater than 15.
 195:Generated_Source\PSoC6\pdl\drivers/peripheral/ipc/cy_ipc_drv.h **** *
 196:Generated_Source\PSoC6\pdl\drivers/peripheral/ipc/cy_ipc_drv.h **** * \section group_ipc_more_information More Information
 197:Generated_Source\PSoC6\pdl\drivers/peripheral/ipc/cy_ipc_drv.h **** *
 198:Generated_Source\PSoC6\pdl\drivers/peripheral/ipc/cy_ipc_drv.h **** * Cy_IPC_SystemSemaInit() and Cy_IPC_SystemPipeInit() functions are called in the
 199:Generated_Source\PSoC6\pdl\drivers/peripheral/ipc/cy_ipc_drv.h **** * SystemInit function. If the default startup file is not used, or SystemInit is
 200:Generated_Source\PSoC6\pdl\drivers/peripheral/ipc/cy_ipc_drv.h **** * not called in your project, call the following three functions prior to
 201:Generated_Source\PSoC6\pdl\drivers/peripheral/ipc/cy_ipc_drv.h **** * executing any flash or EmEEPROM write or erase operation. For example:
 202:Generated_Source\PSoC6\pdl\drivers/peripheral/ipc/cy_ipc_drv.h **** *  -# Cy_IPC_SystemSemaInit()
 203:Generated_Source\PSoC6\pdl\drivers/peripheral/ipc/cy_ipc_drv.h **** *  -# Cy_IPC_SystemPipeInit()
 204:Generated_Source\PSoC6\pdl\drivers/peripheral/ipc/cy_ipc_drv.h **** *  -# Cy_Flash_Init()
 205:Generated_Source\PSoC6\pdl\drivers/peripheral/ipc/cy_ipc_drv.h **** *
 206:Generated_Source\PSoC6\pdl\drivers/peripheral/ipc/cy_ipc_drv.h **** * Also Cy_IPC_SystemPipeInit function is called to support BLE host/controller
 207:Generated_Source\PSoC6\pdl\drivers/peripheral/ipc/cy_ipc_drv.h **** * communication.
 208:Generated_Source\PSoC6\pdl\drivers/peripheral/ipc/cy_ipc_drv.h **** *
 209:Generated_Source\PSoC6\pdl\drivers/peripheral/ipc/cy_ipc_drv.h **** * See the technical reference manual(TRM) for more information on the IPC.
 210:Generated_Source\PSoC6\pdl\drivers/peripheral/ipc/cy_ipc_drv.h **** *
 211:Generated_Source\PSoC6\pdl\drivers/peripheral/ipc/cy_ipc_drv.h **** * \section group_ipc_MISRA MISRA-C Compliance
 212:Generated_Source\PSoC6\pdl\drivers/peripheral/ipc/cy_ipc_drv.h **** *
 213:Generated_Source\PSoC6\pdl\drivers/peripheral/ipc/cy_ipc_drv.h **** * <table class="doxtable">
 214:Generated_Source\PSoC6\pdl\drivers/peripheral/ipc/cy_ipc_drv.h **** *   <tr>
 215:Generated_Source\PSoC6\pdl\drivers/peripheral/ipc/cy_ipc_drv.h **** *     <th>MISRA Rule</th>
 216:Generated_Source\PSoC6\pdl\drivers/peripheral/ipc/cy_ipc_drv.h **** *     <th>Rule Class (Required/Advisory)</th>
 217:Generated_Source\PSoC6\pdl\drivers/peripheral/ipc/cy_ipc_drv.h **** *     <th>Rule Description</th>
 218:Generated_Source\PSoC6\pdl\drivers/peripheral/ipc/cy_ipc_drv.h **** *     <th style="width: 50%;">Description of Deviation(s)</th>
 219:Generated_Source\PSoC6\pdl\drivers/peripheral/ipc/cy_ipc_drv.h **** *   </tr>
 220:Generated_Source\PSoC6\pdl\drivers/peripheral/ipc/cy_ipc_drv.h **** *   <tr>
 221:Generated_Source\PSoC6\pdl\drivers/peripheral/ipc/cy_ipc_drv.h **** *     <td>10.3</td>
 222:Generated_Source\PSoC6\pdl\drivers/peripheral/ipc/cy_ipc_drv.h **** *     <td>R</td>
 223:Generated_Source\PSoC6\pdl\drivers/peripheral/ipc/cy_ipc_drv.h **** *     <td>The value of a complex expression of integer type shall be cast
 224:Generated_Source\PSoC6\pdl\drivers/peripheral/ipc/cy_ipc_drv.h **** *         only to a type of the same signedness that is no wider than the underlying
 225:Generated_Source\PSoC6\pdl\drivers/peripheral/ipc/cy_ipc_drv.h **** *         type of the expression.</td>
 226:Generated_Source\PSoC6\pdl\drivers/peripheral/ipc/cy_ipc_drv.h **** *     <td>The cast from integer to enumeration value is used to calculate
 227:Generated_Source\PSoC6\pdl\drivers/peripheral/ipc/cy_ipc_drv.h **** *         the interrupt vector source from the integer number of the IPC interrupt
 228:Generated_Source\PSoC6\pdl\drivers/peripheral/ipc/cy_ipc_drv.h **** *         structure, so there is no way to avoid this cast.</td>
 229:Generated_Source\PSoC6\pdl\drivers/peripheral/ipc/cy_ipc_drv.h **** *   </tr>
 230:Generated_Source\PSoC6\pdl\drivers/peripheral/ipc/cy_ipc_drv.h **** *   <tr>
 231:Generated_Source\PSoC6\pdl\drivers/peripheral/ipc/cy_ipc_drv.h **** *     <td>11.4</td>
 232:Generated_Source\PSoC6\pdl\drivers/peripheral/ipc/cy_ipc_drv.h **** *     <td>A</td>
 233:Generated_Source\PSoC6\pdl\drivers/peripheral/ipc/cy_ipc_drv.h **** *     <td>A cast should not be performed between a pointer to the void to a
 234:Generated_Source\PSoC6\pdl\drivers/peripheral/ipc/cy_ipc_drv.h **** *         pointer to the object type.</td>
 235:Generated_Source\PSoC6\pdl\drivers/peripheral/ipc/cy_ipc_drv.h **** *     <td>The cast from the void to pointer and vice versa is used to transmit
 236:Generated_Source\PSoC6\pdl\drivers/peripheral/ipc/cy_ipc_drv.h **** *         data via the \ref group_ipc channel by exchanging the pointer. We
 237:Generated_Source\PSoC6\pdl\drivers/peripheral/ipc/cy_ipc_drv.h **** *         exchange only one pointer, so there is no way to avoid this cast.</td>
 238:Generated_Source\PSoC6\pdl\drivers/peripheral/ipc/cy_ipc_drv.h **** *   </tr>
 239:Generated_Source\PSoC6\pdl\drivers/peripheral/ipc/cy_ipc_drv.h **** * </table>
 240:Generated_Source\PSoC6\pdl\drivers/peripheral/ipc/cy_ipc_drv.h **** *
 241:Generated_Source\PSoC6\pdl\drivers/peripheral/ipc/cy_ipc_drv.h **** * \section group_ipc_changelog Changelog
 242:Generated_Source\PSoC6\pdl\drivers/peripheral/ipc/cy_ipc_drv.h **** *
 243:Generated_Source\PSoC6\pdl\drivers/peripheral/ipc/cy_ipc_drv.h **** * <table class="doxtable">
 244:Generated_Source\PSoC6\pdl\drivers/peripheral/ipc/cy_ipc_drv.h **** *   <tr><th>Version</th><th>Changes</th><th>Reason for Change</th></tr>
 245:Generated_Source\PSoC6\pdl\drivers/peripheral/ipc/cy_ipc_drv.h **** *   <tr>
 246:Generated_Source\PSoC6\pdl\drivers/peripheral/ipc/cy_ipc_drv.h **** *     <td>1.20</td>
 247:Generated_Source\PSoC6\pdl\drivers/peripheral/ipc/cy_ipc_drv.h **** *     <td>Added \ref Cy_IPC_Pipe_ExecuteCallback function.
ARM GAS  C:\Users\salaz\AppData\Local\Temp\ccFFISlC.s 			page 6


 248:Generated_Source\PSoC6\pdl\drivers/peripheral/ipc/cy_ipc_drv.h **** *         Updated documentation about user pipe initialization.
 249:Generated_Source\PSoC6\pdl\drivers/peripheral/ipc/cy_ipc_drv.h **** *     </td>
 250:Generated_Source\PSoC6\pdl\drivers/peripheral/ipc/cy_ipc_drv.h **** *     <td>Interface improvement, documentation update</td>
 251:Generated_Source\PSoC6\pdl\drivers/peripheral/ipc/cy_ipc_drv.h **** *   </tr>
 252:Generated_Source\PSoC6\pdl\drivers/peripheral/ipc/cy_ipc_drv.h **** *   <tr>
 253:Generated_Source\PSoC6\pdl\drivers/peripheral/ipc/cy_ipc_drv.h **** *     <td>1.10.1</td>
 254:Generated_Source\PSoC6\pdl\drivers/peripheral/ipc/cy_ipc_drv.h **** *     <td>Updated description of the \ref Cy_IPC_Pipe_Init,
 255:Generated_Source\PSoC6\pdl\drivers/peripheral/ipc/cy_ipc_drv.h **** *         \ref Cy_IPC_Pipe_EndpointInit, \ref Cy_IPC_Sema_Set functions.
 256:Generated_Source\PSoC6\pdl\drivers/peripheral/ipc/cy_ipc_drv.h **** *         Added / updated code snippets.
 257:Generated_Source\PSoC6\pdl\drivers/peripheral/ipc/cy_ipc_drv.h **** *     </td>
 258:Generated_Source\PSoC6\pdl\drivers/peripheral/ipc/cy_ipc_drv.h **** *     <td>Documentation update and clarification</td>
 259:Generated_Source\PSoC6\pdl\drivers/peripheral/ipc/cy_ipc_drv.h **** *   </tr>
 260:Generated_Source\PSoC6\pdl\drivers/peripheral/ipc/cy_ipc_drv.h **** *   <tr>
 261:Generated_Source\PSoC6\pdl\drivers/peripheral/ipc/cy_ipc_drv.h **** *     <td>1.10</td>
 262:Generated_Source\PSoC6\pdl\drivers/peripheral/ipc/cy_ipc_drv.h **** *     <td>Added support for more IPC structures</td>
 263:Generated_Source\PSoC6\pdl\drivers/peripheral/ipc/cy_ipc_drv.h **** *     <td>New device support</td>
 264:Generated_Source\PSoC6\pdl\drivers/peripheral/ipc/cy_ipc_drv.h **** *   </tr>
 265:Generated_Source\PSoC6\pdl\drivers/peripheral/ipc/cy_ipc_drv.h **** *   <tr>
 266:Generated_Source\PSoC6\pdl\drivers/peripheral/ipc/cy_ipc_drv.h **** *     <td>1.0</td>
 267:Generated_Source\PSoC6\pdl\drivers/peripheral/ipc/cy_ipc_drv.h **** *     <td>Initial version</td>
 268:Generated_Source\PSoC6\pdl\drivers/peripheral/ipc/cy_ipc_drv.h **** *     <td></td>
 269:Generated_Source\PSoC6\pdl\drivers/peripheral/ipc/cy_ipc_drv.h **** *   </tr>
 270:Generated_Source\PSoC6\pdl\drivers/peripheral/ipc/cy_ipc_drv.h **** * </table>
 271:Generated_Source\PSoC6\pdl\drivers/peripheral/ipc/cy_ipc_drv.h **** *
 272:Generated_Source\PSoC6\pdl\drivers/peripheral/ipc/cy_ipc_drv.h **** * \defgroup group_ipc_drv IPC driver layer (IPC_DRV)
 273:Generated_Source\PSoC6\pdl\drivers/peripheral/ipc/cy_ipc_drv.h **** * \{
 274:Generated_Source\PSoC6\pdl\drivers/peripheral/ipc/cy_ipc_drv.h **** *   The functions of this layer are used in the higher IPC levels
 275:Generated_Source\PSoC6\pdl\drivers/peripheral/ipc/cy_ipc_drv.h **** *   (Semaphores and Pipes).
 276:Generated_Source\PSoC6\pdl\drivers/peripheral/ipc/cy_ipc_drv.h **** *   Users should not call any of these IPC functions directly.
 277:Generated_Source\PSoC6\pdl\drivers/peripheral/ipc/cy_ipc_drv.h **** *
 278:Generated_Source\PSoC6\pdl\drivers/peripheral/ipc/cy_ipc_drv.h **** *   \defgroup group_ipc_macros Macros
 279:Generated_Source\PSoC6\pdl\drivers/peripheral/ipc/cy_ipc_drv.h **** *       Macro definitions are used in the driver
 280:Generated_Source\PSoC6\pdl\drivers/peripheral/ipc/cy_ipc_drv.h **** *
 281:Generated_Source\PSoC6\pdl\drivers/peripheral/ipc/cy_ipc_drv.h **** *   \defgroup group_ipc_functions Functions
 282:Generated_Source\PSoC6\pdl\drivers/peripheral/ipc/cy_ipc_drv.h **** *       Functions are used in the driver
 283:Generated_Source\PSoC6\pdl\drivers/peripheral/ipc/cy_ipc_drv.h **** *
 284:Generated_Source\PSoC6\pdl\drivers/peripheral/ipc/cy_ipc_drv.h **** *   \defgroup group_ipc_data_structures Data Structures
 285:Generated_Source\PSoC6\pdl\drivers/peripheral/ipc/cy_ipc_drv.h **** *       Data structures are used in the driver
 286:Generated_Source\PSoC6\pdl\drivers/peripheral/ipc/cy_ipc_drv.h **** *
 287:Generated_Source\PSoC6\pdl\drivers/peripheral/ipc/cy_ipc_drv.h **** *   \defgroup group_ipc_enums Enumerated Types
 288:Generated_Source\PSoC6\pdl\drivers/peripheral/ipc/cy_ipc_drv.h **** *       Enumerations are used in the driver
 289:Generated_Source\PSoC6\pdl\drivers/peripheral/ipc/cy_ipc_drv.h **** * \}
 290:Generated_Source\PSoC6\pdl\drivers/peripheral/ipc/cy_ipc_drv.h **** *
 291:Generated_Source\PSoC6\pdl\drivers/peripheral/ipc/cy_ipc_drv.h **** * \defgroup group_ipc_sema IPC semaphores layer (IPC_SEMA)
 292:Generated_Source\PSoC6\pdl\drivers/peripheral/ipc/cy_ipc_drv.h **** * \defgroup group_ipc_pipe IPC pipes layer (IPC_PIPE)
 293:Generated_Source\PSoC6\pdl\drivers/peripheral/ipc/cy_ipc_drv.h **** *
 294:Generated_Source\PSoC6\pdl\drivers/peripheral/ipc/cy_ipc_drv.h **** */
 295:Generated_Source\PSoC6\pdl\drivers/peripheral/ipc/cy_ipc_drv.h **** 
 296:Generated_Source\PSoC6\pdl\drivers/peripheral/ipc/cy_ipc_drv.h **** /******************************************************************************/
 297:Generated_Source\PSoC6\pdl\drivers/peripheral/ipc/cy_ipc_drv.h **** /* Include files                                                              */
 298:Generated_Source\PSoC6\pdl\drivers/peripheral/ipc/cy_ipc_drv.h **** /******************************************************************************/
 299:Generated_Source\PSoC6\pdl\drivers/peripheral/ipc/cy_ipc_drv.h **** #include "syslib/cy_syslib.h"
 300:Generated_Source\PSoC6\pdl\drivers/peripheral/ipc/cy_ipc_drv.h **** #include "cy_device_headers.h"
 301:Generated_Source\PSoC6\pdl\drivers/peripheral/ipc/cy_ipc_drv.h **** #include "cy_ipc_config.h"
 302:Generated_Source\PSoC6\pdl\drivers/peripheral/ipc/cy_ipc_drv.h **** #include <stddef.h>
 303:Generated_Source\PSoC6\pdl\drivers/peripheral/ipc/cy_ipc_drv.h **** 
 304:Generated_Source\PSoC6\pdl\drivers/peripheral/ipc/cy_ipc_drv.h **** /**
ARM GAS  C:\Users\salaz\AppData\Local\Temp\ccFFISlC.s 			page 7


 305:Generated_Source\PSoC6\pdl\drivers/peripheral/ipc/cy_ipc_drv.h **** * \addtogroup group_ipc_macros
 306:Generated_Source\PSoC6\pdl\drivers/peripheral/ipc/cy_ipc_drv.h **** * \{
 307:Generated_Source\PSoC6\pdl\drivers/peripheral/ipc/cy_ipc_drv.h **** */
 308:Generated_Source\PSoC6\pdl\drivers/peripheral/ipc/cy_ipc_drv.h **** 
 309:Generated_Source\PSoC6\pdl\drivers/peripheral/ipc/cy_ipc_drv.h **** /** Driver major version */
 310:Generated_Source\PSoC6\pdl\drivers/peripheral/ipc/cy_ipc_drv.h **** #define CY_IPC_DRV_VERSION_MAJOR       1
 311:Generated_Source\PSoC6\pdl\drivers/peripheral/ipc/cy_ipc_drv.h **** 
 312:Generated_Source\PSoC6\pdl\drivers/peripheral/ipc/cy_ipc_drv.h **** /** Driver minor version */
 313:Generated_Source\PSoC6\pdl\drivers/peripheral/ipc/cy_ipc_drv.h **** #define CY_IPC_DRV_VERSION_MINOR       20
 314:Generated_Source\PSoC6\pdl\drivers/peripheral/ipc/cy_ipc_drv.h **** 
 315:Generated_Source\PSoC6\pdl\drivers/peripheral/ipc/cy_ipc_drv.h **** /** Defines a value to indicate that no notification events are needed */
 316:Generated_Source\PSoC6\pdl\drivers/peripheral/ipc/cy_ipc_drv.h **** #define CY_IPC_NO_NOTIFICATION         (uint32_t)(0x00000000ul)
 317:Generated_Source\PSoC6\pdl\drivers/peripheral/ipc/cy_ipc_drv.h **** 
 318:Generated_Source\PSoC6\pdl\drivers/peripheral/ipc/cy_ipc_drv.h **** /* Error Code constants */
 319:Generated_Source\PSoC6\pdl\drivers/peripheral/ipc/cy_ipc_drv.h **** #define CY_IPC_ID CY_PDL_DRV_ID(0x22u)  /**< Software PDL driver ID for IPC */
 320:Generated_Source\PSoC6\pdl\drivers/peripheral/ipc/cy_ipc_drv.h **** 
 321:Generated_Source\PSoC6\pdl\drivers/peripheral/ipc/cy_ipc_drv.h **** /** Return prefix for IPC driver function status codes */
 322:Generated_Source\PSoC6\pdl\drivers/peripheral/ipc/cy_ipc_drv.h **** #define CY_IPC_ID_INFO    (uint32_t)( CY_IPC_ID | CY_PDL_STATUS_INFO )
 323:Generated_Source\PSoC6\pdl\drivers/peripheral/ipc/cy_ipc_drv.h **** /** Return prefix for IPC driver function warning return values */
 324:Generated_Source\PSoC6\pdl\drivers/peripheral/ipc/cy_ipc_drv.h **** #define CY_IPC_ID_WARNING (uint32_t)( CY_IPC_ID | CY_PDL_STATUS_WARNING)
 325:Generated_Source\PSoC6\pdl\drivers/peripheral/ipc/cy_ipc_drv.h **** /** Return prefix for IPC driver function error return values */
 326:Generated_Source\PSoC6\pdl\drivers/peripheral/ipc/cy_ipc_drv.h **** #define CY_IPC_ID_ERROR   (uint32_t)( CY_IPC_ID | CY_PDL_STATUS_ERROR)
 327:Generated_Source\PSoC6\pdl\drivers/peripheral/ipc/cy_ipc_drv.h **** 
 328:Generated_Source\PSoC6\pdl\drivers/peripheral/ipc/cy_ipc_drv.h **** /** Converts the IPC interrupt channel number to interrupt vector */
 329:Generated_Source\PSoC6\pdl\drivers/peripheral/ipc/cy_ipc_drv.h **** #define CY_IPC_INTR_NUM_TO_VECT(x)         ((int32_t)cpuss_interrupts_ipc_0_IRQn + (x))
 330:Generated_Source\PSoC6\pdl\drivers/peripheral/ipc/cy_ipc_drv.h **** 
 331:Generated_Source\PSoC6\pdl\drivers/peripheral/ipc/cy_ipc_drv.h **** /** \} group_ipc_macros */
 332:Generated_Source\PSoC6\pdl\drivers/peripheral/ipc/cy_ipc_drv.h **** 
 333:Generated_Source\PSoC6\pdl\drivers/peripheral/ipc/cy_ipc_drv.h **** /* end of definition in device.h */
 334:Generated_Source\PSoC6\pdl\drivers/peripheral/ipc/cy_ipc_drv.h **** 
 335:Generated_Source\PSoC6\pdl\drivers/peripheral/ipc/cy_ipc_drv.h **** 
 336:Generated_Source\PSoC6\pdl\drivers/peripheral/ipc/cy_ipc_drv.h **** /**
 337:Generated_Source\PSoC6\pdl\drivers/peripheral/ipc/cy_ipc_drv.h **** * \addtogroup group_ipc_enums
 338:Generated_Source\PSoC6\pdl\drivers/peripheral/ipc/cy_ipc_drv.h **** * \{
 339:Generated_Source\PSoC6\pdl\drivers/peripheral/ipc/cy_ipc_drv.h **** */
 340:Generated_Source\PSoC6\pdl\drivers/peripheral/ipc/cy_ipc_drv.h **** 
 341:Generated_Source\PSoC6\pdl\drivers/peripheral/ipc/cy_ipc_drv.h **** /**
 342:Generated_Source\PSoC6\pdl\drivers/peripheral/ipc/cy_ipc_drv.h **** * This is a list of ENUMs used for function return status.
 343:Generated_Source\PSoC6\pdl\drivers/peripheral/ipc/cy_ipc_drv.h **** */
 344:Generated_Source\PSoC6\pdl\drivers/peripheral/ipc/cy_ipc_drv.h **** typedef enum
 345:Generated_Source\PSoC6\pdl\drivers/peripheral/ipc/cy_ipc_drv.h **** {
 346:Generated_Source\PSoC6\pdl\drivers/peripheral/ipc/cy_ipc_drv.h ****     /** Function was successfully executed */
 347:Generated_Source\PSoC6\pdl\drivers/peripheral/ipc/cy_ipc_drv.h ****     CY_IPC_DRV_SUCCESS      = (0x00u),
 348:Generated_Source\PSoC6\pdl\drivers/peripheral/ipc/cy_ipc_drv.h ****     /** Function was not executed due to an error.
 349:Generated_Source\PSoC6\pdl\drivers/peripheral/ipc/cy_ipc_drv.h ****         Typical conditions for the error explained
 350:Generated_Source\PSoC6\pdl\drivers/peripheral/ipc/cy_ipc_drv.h ****         in the function description */
 351:Generated_Source\PSoC6\pdl\drivers/peripheral/ipc/cy_ipc_drv.h ****     CY_IPC_DRV_ERROR        = ( CY_IPC_ID_ERROR + 1ul),
 352:Generated_Source\PSoC6\pdl\drivers/peripheral/ipc/cy_ipc_drv.h **** } cy_en_ipcdrv_status_t;
 353:Generated_Source\PSoC6\pdl\drivers/peripheral/ipc/cy_ipc_drv.h **** 
 354:Generated_Source\PSoC6\pdl\drivers/peripheral/ipc/cy_ipc_drv.h **** /** \} group_ipc_enums */
 355:Generated_Source\PSoC6\pdl\drivers/peripheral/ipc/cy_ipc_drv.h **** 
 356:Generated_Source\PSoC6\pdl\drivers/peripheral/ipc/cy_ipc_drv.h **** 
 357:Generated_Source\PSoC6\pdl\drivers/peripheral/ipc/cy_ipc_drv.h **** #ifdef __cplusplus
 358:Generated_Source\PSoC6\pdl\drivers/peripheral/ipc/cy_ipc_drv.h **** extern "C" {
 359:Generated_Source\PSoC6\pdl\drivers/peripheral/ipc/cy_ipc_drv.h **** #endif
 360:Generated_Source\PSoC6\pdl\drivers/peripheral/ipc/cy_ipc_drv.h **** 
 361:Generated_Source\PSoC6\pdl\drivers/peripheral/ipc/cy_ipc_drv.h **** /** \cond INTERNAL */
ARM GAS  C:\Users\salaz\AppData\Local\Temp\ccFFISlC.s 			page 8


 362:Generated_Source\PSoC6\pdl\drivers/peripheral/ipc/cy_ipc_drv.h **** 
 363:Generated_Source\PSoC6\pdl\drivers/peripheral/ipc/cy_ipc_drv.h **** __STATIC_INLINE void     Cy_IPC_Drv_WriteDataValue (IPC_STRUCT_Type* base, uint32_t dataValue);
 364:Generated_Source\PSoC6\pdl\drivers/peripheral/ipc/cy_ipc_drv.h **** __STATIC_INLINE uint32_t Cy_IPC_Drv_ReadDataValue (IPC_STRUCT_Type const * base);
 365:Generated_Source\PSoC6\pdl\drivers/peripheral/ipc/cy_ipc_drv.h **** 
 366:Generated_Source\PSoC6\pdl\drivers/peripheral/ipc/cy_ipc_drv.h **** __STATIC_INLINE uint32_t Cy_IPC_Drv_ExtractAcquireMask (uint32_t intMask);
 367:Generated_Source\PSoC6\pdl\drivers/peripheral/ipc/cy_ipc_drv.h **** __STATIC_INLINE uint32_t Cy_IPC_Drv_ExtractReleaseMask (uint32_t intMask);
 368:Generated_Source\PSoC6\pdl\drivers/peripheral/ipc/cy_ipc_drv.h **** 
 369:Generated_Source\PSoC6\pdl\drivers/peripheral/ipc/cy_ipc_drv.h **** /** \endcond */
 370:Generated_Source\PSoC6\pdl\drivers/peripheral/ipc/cy_ipc_drv.h **** 
 371:Generated_Source\PSoC6\pdl\drivers/peripheral/ipc/cy_ipc_drv.h **** /**
 372:Generated_Source\PSoC6\pdl\drivers/peripheral/ipc/cy_ipc_drv.h **** * \addtogroup group_ipc_functions
 373:Generated_Source\PSoC6\pdl\drivers/peripheral/ipc/cy_ipc_drv.h **** * \{
 374:Generated_Source\PSoC6\pdl\drivers/peripheral/ipc/cy_ipc_drv.h **** */
 375:Generated_Source\PSoC6\pdl\drivers/peripheral/ipc/cy_ipc_drv.h **** 
 376:Generated_Source\PSoC6\pdl\drivers/peripheral/ipc/cy_ipc_drv.h **** __STATIC_INLINE IPC_STRUCT_Type*       Cy_IPC_Drv_GetIpcBaseAddress (uint32_t ipcIndex);
 377:Generated_Source\PSoC6\pdl\drivers/peripheral/ipc/cy_ipc_drv.h **** __STATIC_INLINE IPC_INTR_STRUCT_Type*  Cy_IPC_Drv_GetIntrBaseAddr (uint32_t ipcIntrIndex);
 378:Generated_Source\PSoC6\pdl\drivers/peripheral/ipc/cy_ipc_drv.h **** 
 379:Generated_Source\PSoC6\pdl\drivers/peripheral/ipc/cy_ipc_drv.h **** __STATIC_INLINE void     Cy_IPC_Drv_AcquireNotify (IPC_STRUCT_Type * base, uint32_t notifyEventIntr
 380:Generated_Source\PSoC6\pdl\drivers/peripheral/ipc/cy_ipc_drv.h **** __STATIC_INLINE void     Cy_IPC_Drv_ReleaseNotify (IPC_STRUCT_Type * base, uint32_t notifyEventIntr
 381:Generated_Source\PSoC6\pdl\drivers/peripheral/ipc/cy_ipc_drv.h **** 
 382:Generated_Source\PSoC6\pdl\drivers/peripheral/ipc/cy_ipc_drv.h **** __STATIC_INLINE  cy_en_ipcdrv_status_t Cy_IPC_Drv_LockAcquire (IPC_STRUCT_Type const * base);
 383:Generated_Source\PSoC6\pdl\drivers/peripheral/ipc/cy_ipc_drv.h **** cy_en_ipcdrv_status_t    Cy_IPC_Drv_LockRelease (IPC_STRUCT_Type * base, uint32_t releaseEventIntr)
 384:Generated_Source\PSoC6\pdl\drivers/peripheral/ipc/cy_ipc_drv.h **** __STATIC_INLINE bool     Cy_IPC_Drv_IsLockAcquired (IPC_STRUCT_Type const * base);
 385:Generated_Source\PSoC6\pdl\drivers/peripheral/ipc/cy_ipc_drv.h **** __STATIC_INLINE uint32_t Cy_IPC_Drv_GetLockStatus (IPC_STRUCT_Type const * base);
 386:Generated_Source\PSoC6\pdl\drivers/peripheral/ipc/cy_ipc_drv.h **** 
 387:Generated_Source\PSoC6\pdl\drivers/peripheral/ipc/cy_ipc_drv.h **** cy_en_ipcdrv_status_t    Cy_IPC_Drv_SendMsgWord (IPC_STRUCT_Type * base, uint32_t notifyEventIntr, 
 388:Generated_Source\PSoC6\pdl\drivers/peripheral/ipc/cy_ipc_drv.h **** cy_en_ipcdrv_status_t    Cy_IPC_Drv_ReadMsgWord (IPC_STRUCT_Type const * base, uint32_t * message);
 389:Generated_Source\PSoC6\pdl\drivers/peripheral/ipc/cy_ipc_drv.h **** __STATIC_INLINE cy_en_ipcdrv_status_t Cy_IPC_Drv_SendMsgPtr (IPC_STRUCT_Type* base, uint32_t notify
 390:Generated_Source\PSoC6\pdl\drivers/peripheral/ipc/cy_ipc_drv.h **** __STATIC_INLINE cy_en_ipcdrv_status_t Cy_IPC_Drv_ReadMsgPtr (IPC_STRUCT_Type const * base, void ** 
 391:Generated_Source\PSoC6\pdl\drivers/peripheral/ipc/cy_ipc_drv.h **** 
 392:Generated_Source\PSoC6\pdl\drivers/peripheral/ipc/cy_ipc_drv.h **** __STATIC_INLINE void     Cy_IPC_Drv_SetInterruptMask (IPC_INTR_STRUCT_Type * base,
 393:Generated_Source\PSoC6\pdl\drivers/peripheral/ipc/cy_ipc_drv.h ****                                                       uint32_t ipcReleaseMask, uint32_t ipcAcquireM
 394:Generated_Source\PSoC6\pdl\drivers/peripheral/ipc/cy_ipc_drv.h **** __STATIC_INLINE uint32_t Cy_IPC_Drv_GetInterruptMask (IPC_INTR_STRUCT_Type const * base);
 395:Generated_Source\PSoC6\pdl\drivers/peripheral/ipc/cy_ipc_drv.h **** __STATIC_INLINE uint32_t Cy_IPC_Drv_GetInterruptStatusMasked (IPC_INTR_STRUCT_Type const * base);
 396:Generated_Source\PSoC6\pdl\drivers/peripheral/ipc/cy_ipc_drv.h **** __STATIC_INLINE uint32_t Cy_IPC_Drv_GetInterruptStatus (IPC_INTR_STRUCT_Type const * base);
 397:Generated_Source\PSoC6\pdl\drivers/peripheral/ipc/cy_ipc_drv.h **** __STATIC_INLINE void     Cy_IPC_Drv_SetInterrupt (IPC_INTR_STRUCT_Type * base,
 398:Generated_Source\PSoC6\pdl\drivers/peripheral/ipc/cy_ipc_drv.h ****                                                       uint32_t ipcReleaseMask, uint32_t ipcAcquireM
 399:Generated_Source\PSoC6\pdl\drivers/peripheral/ipc/cy_ipc_drv.h **** __STATIC_INLINE void     Cy_IPC_Drv_ClearInterrupt (IPC_INTR_STRUCT_Type * base,
 400:Generated_Source\PSoC6\pdl\drivers/peripheral/ipc/cy_ipc_drv.h ****                                                       uint32_t ipcReleaseMask, uint32_t ipcAcquireM
 401:Generated_Source\PSoC6\pdl\drivers/peripheral/ipc/cy_ipc_drv.h **** 
 402:Generated_Source\PSoC6\pdl\drivers/peripheral/ipc/cy_ipc_drv.h **** /*******************************************************************************
 403:Generated_Source\PSoC6\pdl\drivers/peripheral/ipc/cy_ipc_drv.h **** * Function Name: Cy_IPC_Drv_GetIpcBaseAddress
 404:Generated_Source\PSoC6\pdl\drivers/peripheral/ipc/cy_ipc_drv.h **** ****************************************************************************//**
 405:Generated_Source\PSoC6\pdl\drivers/peripheral/ipc/cy_ipc_drv.h **** *
 406:Generated_Source\PSoC6\pdl\drivers/peripheral/ipc/cy_ipc_drv.h **** * This function takes an IPC channel index as a parameter and returns the base
 407:Generated_Source\PSoC6\pdl\drivers/peripheral/ipc/cy_ipc_drv.h **** * address the IPC registers corresponding to the IPC channel.
 408:Generated_Source\PSoC6\pdl\drivers/peripheral/ipc/cy_ipc_drv.h **** *
 409:Generated_Source\PSoC6\pdl\drivers/peripheral/ipc/cy_ipc_drv.h **** * \note The user is responsible for ensuring that ipcIndex does not exceed the
 410:Generated_Source\PSoC6\pdl\drivers/peripheral/ipc/cy_ipc_drv.h **** * limits.
 411:Generated_Source\PSoC6\pdl\drivers/peripheral/ipc/cy_ipc_drv.h **** *
 412:Generated_Source\PSoC6\pdl\drivers/peripheral/ipc/cy_ipc_drv.h **** * \param ipcIndex
 413:Generated_Source\PSoC6\pdl\drivers/peripheral/ipc/cy_ipc_drv.h **** * Represents the number of IPC structure. This is converted to the base address of
 414:Generated_Source\PSoC6\pdl\drivers/peripheral/ipc/cy_ipc_drv.h **** * the IPC channel registers.
 415:Generated_Source\PSoC6\pdl\drivers/peripheral/ipc/cy_ipc_drv.h **** *
 416:Generated_Source\PSoC6\pdl\drivers/peripheral/ipc/cy_ipc_drv.h **** * \return
 417:Generated_Source\PSoC6\pdl\drivers/peripheral/ipc/cy_ipc_drv.h **** * Returns a pointer to the base of the IPC registers.
 418:Generated_Source\PSoC6\pdl\drivers/peripheral/ipc/cy_ipc_drv.h **** *
ARM GAS  C:\Users\salaz\AppData\Local\Temp\ccFFISlC.s 			page 9


 419:Generated_Source\PSoC6\pdl\drivers/peripheral/ipc/cy_ipc_drv.h **** * \funcusage
 420:Generated_Source\PSoC6\pdl\drivers/peripheral/ipc/cy_ipc_drv.h **** * \snippet IPC_sut_01.cydsn/main_cm4.c snippet_Cy_IPC_Drv_SendMsgWord
 421:Generated_Source\PSoC6\pdl\drivers/peripheral/ipc/cy_ipc_drv.h **** *
 422:Generated_Source\PSoC6\pdl\drivers/peripheral/ipc/cy_ipc_drv.h **** *******************************************************************************/
 423:Generated_Source\PSoC6\pdl\drivers/peripheral/ipc/cy_ipc_drv.h **** __STATIC_INLINE IPC_STRUCT_Type* Cy_IPC_Drv_GetIpcBaseAddress (uint32_t ipcIndex)
 424:Generated_Source\PSoC6\pdl\drivers/peripheral/ipc/cy_ipc_drv.h **** {
  32              		.loc 1 424 0
  33              		.cfi_startproc
  34              		@ args = 0, pretend = 0, frame = 8
  35              		@ frame_needed = 1, uses_anonymous_args = 0
  36 0000 80B5     		push	{r7, lr}
  37              		.cfi_def_cfa_offset 8
  38              		.cfi_offset 7, -8
  39              		.cfi_offset 14, -4
  40 0002 82B0     		sub	sp, sp, #8
  41              		.cfi_def_cfa_offset 16
  42 0004 00AF     		add	r7, sp, #0
  43              		.cfi_def_cfa_register 7
  44 0006 7860     		str	r0, [r7, #4]
 425:Generated_Source\PSoC6\pdl\drivers/peripheral/ipc/cy_ipc_drv.h ****     CY_ASSERT_L1((uint32_t)CY_IPC_CHANNELS > ipcIndex);
  45              		.loc 1 425 0
  46 0008 7B68     		ldr	r3, [r7, #4]
  47 000a 0F2B     		cmp	r3, #15
  48 000c 07D9     		bls	.L2
  49              		.loc 1 425 0 is_stmt 0 discriminator 1
  50 000e AA23     		movs	r3, #170
  51 0010 FF33     		adds	r3, r3, #255
  52 0012 1A00     		movs	r2, r3
  53 0014 064B     		ldr	r3, .L4
  54 0016 1100     		movs	r1, r2
  55 0018 1800     		movs	r0, r3
  56 001a FFF7FEFF 		bl	Cy_SysLib_AssertFailed
  57              	.L2:
 426:Generated_Source\PSoC6\pdl\drivers/peripheral/ipc/cy_ipc_drv.h ****     return ( (IPC_STRUCT_Type*) ( &IPC->STRUCT[ipcIndex] ) );
  58              		.loc 1 426 0 is_stmt 1
  59 001e 7B68     		ldr	r3, [r7, #4]
  60 0020 5B01     		lsls	r3, r3, #5
  61 0022 044A     		ldr	r2, .L4+4
  62 0024 9446     		mov	ip, r2
  63 0026 6344     		add	r3, r3, ip
 427:Generated_Source\PSoC6\pdl\drivers/peripheral/ipc/cy_ipc_drv.h **** }
  64              		.loc 1 427 0
  65 0028 1800     		movs	r0, r3
  66 002a BD46     		mov	sp, r7
  67 002c 02B0     		add	sp, sp, #8
  68              		@ sp needed
  69 002e 80BD     		pop	{r7, pc}
  70              	.L5:
  71              		.align	2
  72              	.L4:
  73 0030 00000000 		.word	.LC0
  74 0034 00002340 		.word	1076035584
  75              		.cfi_endproc
  76              	.LFE36:
  77              		.size	Cy_IPC_Drv_GetIpcBaseAddress, .-Cy_IPC_Drv_GetIpcBaseAddress
  78              		.section	.text.Cy_IPC_Drv_ReadDataValue,"ax",%progbits
  79              		.align	2
ARM GAS  C:\Users\salaz\AppData\Local\Temp\ccFFISlC.s 			page 10


  80              		.code	16
  81              		.thumb_func
  82              		.type	Cy_IPC_Drv_ReadDataValue, %function
  83              	Cy_IPC_Drv_ReadDataValue:
  84              	.LFB47:
 428:Generated_Source\PSoC6\pdl\drivers/peripheral/ipc/cy_ipc_drv.h **** 
 429:Generated_Source\PSoC6\pdl\drivers/peripheral/ipc/cy_ipc_drv.h **** /*******************************************************************************
 430:Generated_Source\PSoC6\pdl\drivers/peripheral/ipc/cy_ipc_drv.h **** * Function Name: Cy_IPC_Drv_GetIntrBaseAddr
 431:Generated_Source\PSoC6\pdl\drivers/peripheral/ipc/cy_ipc_drv.h **** ****************************************************************************//**
 432:Generated_Source\PSoC6\pdl\drivers/peripheral/ipc/cy_ipc_drv.h **** *
 433:Generated_Source\PSoC6\pdl\drivers/peripheral/ipc/cy_ipc_drv.h **** * This function takes an IPC interrupt structure index and returns the base
 434:Generated_Source\PSoC6\pdl\drivers/peripheral/ipc/cy_ipc_drv.h **** * address of the IPC interrupt registers corresponding to the IPC Interrupt.
 435:Generated_Source\PSoC6\pdl\drivers/peripheral/ipc/cy_ipc_drv.h **** *
 436:Generated_Source\PSoC6\pdl\drivers/peripheral/ipc/cy_ipc_drv.h **** * \note The user is responsible for ensuring that ipcIntrIndex does not exceed the
 437:Generated_Source\PSoC6\pdl\drivers/peripheral/ipc/cy_ipc_drv.h **** * limits.
 438:Generated_Source\PSoC6\pdl\drivers/peripheral/ipc/cy_ipc_drv.h **** *
 439:Generated_Source\PSoC6\pdl\drivers/peripheral/ipc/cy_ipc_drv.h **** * \param ipcIntrIndex
 440:Generated_Source\PSoC6\pdl\drivers/peripheral/ipc/cy_ipc_drv.h **** * Represents the number of IPC interrupt structure. This is converted to the
 441:Generated_Source\PSoC6\pdl\drivers/peripheral/ipc/cy_ipc_drv.h **** * base address of the IPC interrupt registers.
 442:Generated_Source\PSoC6\pdl\drivers/peripheral/ipc/cy_ipc_drv.h **** *
 443:Generated_Source\PSoC6\pdl\drivers/peripheral/ipc/cy_ipc_drv.h **** * \return
 444:Generated_Source\PSoC6\pdl\drivers/peripheral/ipc/cy_ipc_drv.h **** * Returns a pointer to the base of the IPC interrupt registers.
 445:Generated_Source\PSoC6\pdl\drivers/peripheral/ipc/cy_ipc_drv.h **** *
 446:Generated_Source\PSoC6\pdl\drivers/peripheral/ipc/cy_ipc_drv.h **** * \funcusage
 447:Generated_Source\PSoC6\pdl\drivers/peripheral/ipc/cy_ipc_drv.h **** * \snippet IPC_sut_01.cydsn/main_cm4.c snippet_Cy_IPC_Drv_GetInterruptStatus
 448:Generated_Source\PSoC6\pdl\drivers/peripheral/ipc/cy_ipc_drv.h **** *
 449:Generated_Source\PSoC6\pdl\drivers/peripheral/ipc/cy_ipc_drv.h **** *******************************************************************************/
 450:Generated_Source\PSoC6\pdl\drivers/peripheral/ipc/cy_ipc_drv.h **** __STATIC_INLINE IPC_INTR_STRUCT_Type* Cy_IPC_Drv_GetIntrBaseAddr (uint32_t ipcIntrIndex)
 451:Generated_Source\PSoC6\pdl\drivers/peripheral/ipc/cy_ipc_drv.h **** {
 452:Generated_Source\PSoC6\pdl\drivers/peripheral/ipc/cy_ipc_drv.h ****     CY_ASSERT_L1((uint32_t)CY_IPC_INTERRUPTS > ipcIntrIndex);
 453:Generated_Source\PSoC6\pdl\drivers/peripheral/ipc/cy_ipc_drv.h ****     return ( (IPC_INTR_STRUCT_Type*) ( &IPC->INTR_STRUCT[ipcIntrIndex] ) );
 454:Generated_Source\PSoC6\pdl\drivers/peripheral/ipc/cy_ipc_drv.h **** }
 455:Generated_Source\PSoC6\pdl\drivers/peripheral/ipc/cy_ipc_drv.h **** 
 456:Generated_Source\PSoC6\pdl\drivers/peripheral/ipc/cy_ipc_drv.h **** /*******************************************************************************
 457:Generated_Source\PSoC6\pdl\drivers/peripheral/ipc/cy_ipc_drv.h **** * Function Name: Cy_IPC_Drv_SetInterruptMask
 458:Generated_Source\PSoC6\pdl\drivers/peripheral/ipc/cy_ipc_drv.h **** ****************************************************************************//**
 459:Generated_Source\PSoC6\pdl\drivers/peripheral/ipc/cy_ipc_drv.h **** *
 460:Generated_Source\PSoC6\pdl\drivers/peripheral/ipc/cy_ipc_drv.h **** * This function is used to set the interrupt mask for an IPC Interrupt.
 461:Generated_Source\PSoC6\pdl\drivers/peripheral/ipc/cy_ipc_drv.h **** * The mask sets release or acquire notification events for all IPC channels.
 462:Generated_Source\PSoC6\pdl\drivers/peripheral/ipc/cy_ipc_drv.h **** *
 463:Generated_Source\PSoC6\pdl\drivers/peripheral/ipc/cy_ipc_drv.h **** * \param base
 464:Generated_Source\PSoC6\pdl\drivers/peripheral/ipc/cy_ipc_drv.h **** * This is a handle to the IPC interrupt. This handle can be calculated from the
 465:Generated_Source\PSoC6\pdl\drivers/peripheral/ipc/cy_ipc_drv.h **** * IPC interrupt number using \ref Cy_IPC_Drv_GetIntrBaseAddr.
 466:Generated_Source\PSoC6\pdl\drivers/peripheral/ipc/cy_ipc_drv.h **** *
 467:Generated_Source\PSoC6\pdl\drivers/peripheral/ipc/cy_ipc_drv.h **** * \param ipcReleaseMask
 468:Generated_Source\PSoC6\pdl\drivers/peripheral/ipc/cy_ipc_drv.h **** * An encoded list of all IPC channels that can trigger the interrupt on a
 469:Generated_Source\PSoC6\pdl\drivers/peripheral/ipc/cy_ipc_drv.h **** * release event.
 470:Generated_Source\PSoC6\pdl\drivers/peripheral/ipc/cy_ipc_drv.h **** *
 471:Generated_Source\PSoC6\pdl\drivers/peripheral/ipc/cy_ipc_drv.h **** * \param ipcAcquireMask
 472:Generated_Source\PSoC6\pdl\drivers/peripheral/ipc/cy_ipc_drv.h **** * An encoded list of all IPC channels that can trigger the interrupt on a
 473:Generated_Source\PSoC6\pdl\drivers/peripheral/ipc/cy_ipc_drv.h **** * notify event.
 474:Generated_Source\PSoC6\pdl\drivers/peripheral/ipc/cy_ipc_drv.h **** *
 475:Generated_Source\PSoC6\pdl\drivers/peripheral/ipc/cy_ipc_drv.h **** * \funcusage
 476:Generated_Source\PSoC6\pdl\drivers/peripheral/ipc/cy_ipc_drv.h **** * \snippet IPC_sut_01.cydsn/main_cm4.c snippet_Cy_IPC_Drv_GetInterruptStatusMasked
 477:Generated_Source\PSoC6\pdl\drivers/peripheral/ipc/cy_ipc_drv.h **** *
 478:Generated_Source\PSoC6\pdl\drivers/peripheral/ipc/cy_ipc_drv.h **** *******************************************************************************/
 479:Generated_Source\PSoC6\pdl\drivers/peripheral/ipc/cy_ipc_drv.h **** __STATIC_INLINE void  Cy_IPC_Drv_SetInterruptMask (IPC_INTR_STRUCT_Type* base,
ARM GAS  C:\Users\salaz\AppData\Local\Temp\ccFFISlC.s 			page 11


 480:Generated_Source\PSoC6\pdl\drivers/peripheral/ipc/cy_ipc_drv.h ****                                               uint32_t ipcReleaseMask, uint32_t ipcAcquireMask)
 481:Generated_Source\PSoC6\pdl\drivers/peripheral/ipc/cy_ipc_drv.h **** {
 482:Generated_Source\PSoC6\pdl\drivers/peripheral/ipc/cy_ipc_drv.h ****     CY_ASSERT_L1(0ul == (ipcAcquireMask  & ~(uint32_t)(IPC_STRUCT_NOTIFY_INTR_NOTIFY_Msk)));
 483:Generated_Source\PSoC6\pdl\drivers/peripheral/ipc/cy_ipc_drv.h ****     CY_ASSERT_L1(0ul == (ipcReleaseMask & ~(uint32_t)(IPC_STRUCT_RELEASE_INTR_RELEASE_Msk)));
 484:Generated_Source\PSoC6\pdl\drivers/peripheral/ipc/cy_ipc_drv.h ****     base->INTR_MASK = _VAL2FLD( IPC_INTR_STRUCT_INTR_MASK_NOTIFY,  ipcAcquireMask) |
 485:Generated_Source\PSoC6\pdl\drivers/peripheral/ipc/cy_ipc_drv.h ****                       _VAL2FLD( IPC_INTR_STRUCT_INTR_MASK_RELEASE, ipcReleaseMask);
 486:Generated_Source\PSoC6\pdl\drivers/peripheral/ipc/cy_ipc_drv.h **** }
 487:Generated_Source\PSoC6\pdl\drivers/peripheral/ipc/cy_ipc_drv.h **** 
 488:Generated_Source\PSoC6\pdl\drivers/peripheral/ipc/cy_ipc_drv.h **** 
 489:Generated_Source\PSoC6\pdl\drivers/peripheral/ipc/cy_ipc_drv.h **** /*******************************************************************************
 490:Generated_Source\PSoC6\pdl\drivers/peripheral/ipc/cy_ipc_drv.h **** * Function Name: Cy_IPC_Drv_GetInterruptMask
 491:Generated_Source\PSoC6\pdl\drivers/peripheral/ipc/cy_ipc_drv.h **** ****************************************************************************//**
 492:Generated_Source\PSoC6\pdl\drivers/peripheral/ipc/cy_ipc_drv.h **** *
 493:Generated_Source\PSoC6\pdl\drivers/peripheral/ipc/cy_ipc_drv.h **** * This function is used to read the interrupt mask.
 494:Generated_Source\PSoC6\pdl\drivers/peripheral/ipc/cy_ipc_drv.h **** *
 495:Generated_Source\PSoC6\pdl\drivers/peripheral/ipc/cy_ipc_drv.h **** * \param base
 496:Generated_Source\PSoC6\pdl\drivers/peripheral/ipc/cy_ipc_drv.h **** * This is a handle to the IPC interrupt. This handle can be calculated from
 497:Generated_Source\PSoC6\pdl\drivers/peripheral/ipc/cy_ipc_drv.h **** * the IPC interrupt number using \ref Cy_IPC_Drv_GetIntrBaseAddr.
 498:Generated_Source\PSoC6\pdl\drivers/peripheral/ipc/cy_ipc_drv.h **** *
 499:Generated_Source\PSoC6\pdl\drivers/peripheral/ipc/cy_ipc_drv.h **** * \return
 500:Generated_Source\PSoC6\pdl\drivers/peripheral/ipc/cy_ipc_drv.h **** *   The return value is encoded as follows
 501:Generated_Source\PSoC6\pdl\drivers/peripheral/ipc/cy_ipc_drv.h **** *   <table>
 502:Generated_Source\PSoC6\pdl\drivers/peripheral/ipc/cy_ipc_drv.h **** *   <tr><th>Interrupt sources   <th>Value
 503:Generated_Source\PSoC6\pdl\drivers/peripheral/ipc/cy_ipc_drv.h **** *   <tr><td>Ipc_PORTX_RELEASE   <td>Xth bit set
 504:Generated_Source\PSoC6\pdl\drivers/peripheral/ipc/cy_ipc_drv.h **** *   <tr><td>Ipc_PORTX_NOTIFY    <td>X+16th bit set
 505:Generated_Source\PSoC6\pdl\drivers/peripheral/ipc/cy_ipc_drv.h **** *   </table>
 506:Generated_Source\PSoC6\pdl\drivers/peripheral/ipc/cy_ipc_drv.h **** *
 507:Generated_Source\PSoC6\pdl\drivers/peripheral/ipc/cy_ipc_drv.h **** * \funcusage
 508:Generated_Source\PSoC6\pdl\drivers/peripheral/ipc/cy_ipc_drv.h **** * \snippet IPC_sut_01.cydsn/main_cm4.c snippet_Cy_IPC_Drv_GetInterruptStatusMasked
 509:Generated_Source\PSoC6\pdl\drivers/peripheral/ipc/cy_ipc_drv.h **** *
 510:Generated_Source\PSoC6\pdl\drivers/peripheral/ipc/cy_ipc_drv.h **** *******************************************************************************/
 511:Generated_Source\PSoC6\pdl\drivers/peripheral/ipc/cy_ipc_drv.h **** __STATIC_INLINE uint32_t Cy_IPC_Drv_GetInterruptMask(IPC_INTR_STRUCT_Type const * base)
 512:Generated_Source\PSoC6\pdl\drivers/peripheral/ipc/cy_ipc_drv.h **** {
 513:Generated_Source\PSoC6\pdl\drivers/peripheral/ipc/cy_ipc_drv.h ****     return (base->INTR_MASK);
 514:Generated_Source\PSoC6\pdl\drivers/peripheral/ipc/cy_ipc_drv.h **** }
 515:Generated_Source\PSoC6\pdl\drivers/peripheral/ipc/cy_ipc_drv.h **** 
 516:Generated_Source\PSoC6\pdl\drivers/peripheral/ipc/cy_ipc_drv.h **** /*******************************************************************************
 517:Generated_Source\PSoC6\pdl\drivers/peripheral/ipc/cy_ipc_drv.h **** * Function Name: Cy_IPC_Drv_GetInterruptStatusMasked
 518:Generated_Source\PSoC6\pdl\drivers/peripheral/ipc/cy_ipc_drv.h **** ****************************************************************************//**
 519:Generated_Source\PSoC6\pdl\drivers/peripheral/ipc/cy_ipc_drv.h **** *
 520:Generated_Source\PSoC6\pdl\drivers/peripheral/ipc/cy_ipc_drv.h **** * This function is used to read the active unmasked interrupt. This function
 521:Generated_Source\PSoC6\pdl\drivers/peripheral/ipc/cy_ipc_drv.h **** * can be used in the interrupt service routine to find which source triggered
 522:Generated_Source\PSoC6\pdl\drivers/peripheral/ipc/cy_ipc_drv.h **** * the interrupt.
 523:Generated_Source\PSoC6\pdl\drivers/peripheral/ipc/cy_ipc_drv.h **** *
 524:Generated_Source\PSoC6\pdl\drivers/peripheral/ipc/cy_ipc_drv.h **** * \param base
 525:Generated_Source\PSoC6\pdl\drivers/peripheral/ipc/cy_ipc_drv.h **** * This is a handle to the IPC interrupt. This handle can be calculated from the
 526:Generated_Source\PSoC6\pdl\drivers/peripheral/ipc/cy_ipc_drv.h **** * IPC interrupt number using \ref Cy_IPC_Drv_GetIntrBaseAddr.
 527:Generated_Source\PSoC6\pdl\drivers/peripheral/ipc/cy_ipc_drv.h **** *
 528:Generated_Source\PSoC6\pdl\drivers/peripheral/ipc/cy_ipc_drv.h **** * \return
 529:Generated_Source\PSoC6\pdl\drivers/peripheral/ipc/cy_ipc_drv.h **** *   The return value is encoded as follows
 530:Generated_Source\PSoC6\pdl\drivers/peripheral/ipc/cy_ipc_drv.h **** *   <table>
 531:Generated_Source\PSoC6\pdl\drivers/peripheral/ipc/cy_ipc_drv.h **** *   <tr><th>Interrupt sources   <th>Value
 532:Generated_Source\PSoC6\pdl\drivers/peripheral/ipc/cy_ipc_drv.h **** *   <tr><td>Ipc_PORTX_RELEASE   <td>Xth bit set
 533:Generated_Source\PSoC6\pdl\drivers/peripheral/ipc/cy_ipc_drv.h **** *   <tr><td>Ipc_PORTX_NOTIFY    <td>X+16th bit set
 534:Generated_Source\PSoC6\pdl\drivers/peripheral/ipc/cy_ipc_drv.h **** *   </table>
 535:Generated_Source\PSoC6\pdl\drivers/peripheral/ipc/cy_ipc_drv.h **** *
 536:Generated_Source\PSoC6\pdl\drivers/peripheral/ipc/cy_ipc_drv.h **** * \funcusage
ARM GAS  C:\Users\salaz\AppData\Local\Temp\ccFFISlC.s 			page 12


 537:Generated_Source\PSoC6\pdl\drivers/peripheral/ipc/cy_ipc_drv.h **** * \snippet IPC_sut_01.cydsn/main_cm4.c snippet_Cy_IPC_Drv_GetInterruptStatusMasked
 538:Generated_Source\PSoC6\pdl\drivers/peripheral/ipc/cy_ipc_drv.h **** *
 539:Generated_Source\PSoC6\pdl\drivers/peripheral/ipc/cy_ipc_drv.h **** *******************************************************************************/
 540:Generated_Source\PSoC6\pdl\drivers/peripheral/ipc/cy_ipc_drv.h **** __STATIC_INLINE uint32_t Cy_IPC_Drv_GetInterruptStatusMasked (IPC_INTR_STRUCT_Type const * base)
 541:Generated_Source\PSoC6\pdl\drivers/peripheral/ipc/cy_ipc_drv.h **** {
 542:Generated_Source\PSoC6\pdl\drivers/peripheral/ipc/cy_ipc_drv.h ****     return (base->INTR_MASKED);
 543:Generated_Source\PSoC6\pdl\drivers/peripheral/ipc/cy_ipc_drv.h **** }
 544:Generated_Source\PSoC6\pdl\drivers/peripheral/ipc/cy_ipc_drv.h **** 
 545:Generated_Source\PSoC6\pdl\drivers/peripheral/ipc/cy_ipc_drv.h **** /*******************************************************************************
 546:Generated_Source\PSoC6\pdl\drivers/peripheral/ipc/cy_ipc_drv.h **** * Function Name: Cy_IPC_Drv_GetInterruptStatus
 547:Generated_Source\PSoC6\pdl\drivers/peripheral/ipc/cy_ipc_drv.h **** ****************************************************************************//**
 548:Generated_Source\PSoC6\pdl\drivers/peripheral/ipc/cy_ipc_drv.h **** *
 549:Generated_Source\PSoC6\pdl\drivers/peripheral/ipc/cy_ipc_drv.h **** * This function is used to read the pending interrupts. Note that this read is
 550:Generated_Source\PSoC6\pdl\drivers/peripheral/ipc/cy_ipc_drv.h **** * an unmasked read of the interrupt status. Interrupt sources read as active by
 551:Generated_Source\PSoC6\pdl\drivers/peripheral/ipc/cy_ipc_drv.h **** * this function would generate interrupts only if they were not masked.
 552:Generated_Source\PSoC6\pdl\drivers/peripheral/ipc/cy_ipc_drv.h **** *
 553:Generated_Source\PSoC6\pdl\drivers/peripheral/ipc/cy_ipc_drv.h **** * \param base
 554:Generated_Source\PSoC6\pdl\drivers/peripheral/ipc/cy_ipc_drv.h **** * This is a handle to the IPC interrupt. This handle can be calculated from the
 555:Generated_Source\PSoC6\pdl\drivers/peripheral/ipc/cy_ipc_drv.h **** * IPC interrupt number using \ref Cy_IPC_Drv_GetIntrBaseAddr.
 556:Generated_Source\PSoC6\pdl\drivers/peripheral/ipc/cy_ipc_drv.h **** *
 557:Generated_Source\PSoC6\pdl\drivers/peripheral/ipc/cy_ipc_drv.h **** * \return
 558:Generated_Source\PSoC6\pdl\drivers/peripheral/ipc/cy_ipc_drv.h **** *   The return value is encoded as follows
 559:Generated_Source\PSoC6\pdl\drivers/peripheral/ipc/cy_ipc_drv.h **** *   <table>
 560:Generated_Source\PSoC6\pdl\drivers/peripheral/ipc/cy_ipc_drv.h **** *   <tr><th>Interrupt sources   <th>Value
 561:Generated_Source\PSoC6\pdl\drivers/peripheral/ipc/cy_ipc_drv.h **** *   <tr><td>Ipc_PORTX_RELEASE   <td>Xth bit set
 562:Generated_Source\PSoC6\pdl\drivers/peripheral/ipc/cy_ipc_drv.h **** *   <tr><td>Ipc_PORTX_NOTIFY    <td>X+16th bit set
 563:Generated_Source\PSoC6\pdl\drivers/peripheral/ipc/cy_ipc_drv.h **** *   </table>
 564:Generated_Source\PSoC6\pdl\drivers/peripheral/ipc/cy_ipc_drv.h **** *
 565:Generated_Source\PSoC6\pdl\drivers/peripheral/ipc/cy_ipc_drv.h **** * \funcusage
 566:Generated_Source\PSoC6\pdl\drivers/peripheral/ipc/cy_ipc_drv.h **** * \snippet IPC_sut_01.cydsn/main_cm4.c snippet_Cy_IPC_Drv_GetInterruptStatus
 567:Generated_Source\PSoC6\pdl\drivers/peripheral/ipc/cy_ipc_drv.h **** *
 568:Generated_Source\PSoC6\pdl\drivers/peripheral/ipc/cy_ipc_drv.h **** *******************************************************************************/
 569:Generated_Source\PSoC6\pdl\drivers/peripheral/ipc/cy_ipc_drv.h **** __STATIC_INLINE uint32_t Cy_IPC_Drv_GetInterruptStatus(IPC_INTR_STRUCT_Type const * base)
 570:Generated_Source\PSoC6\pdl\drivers/peripheral/ipc/cy_ipc_drv.h **** {
 571:Generated_Source\PSoC6\pdl\drivers/peripheral/ipc/cy_ipc_drv.h ****     return (base->INTR);
 572:Generated_Source\PSoC6\pdl\drivers/peripheral/ipc/cy_ipc_drv.h **** }
 573:Generated_Source\PSoC6\pdl\drivers/peripheral/ipc/cy_ipc_drv.h **** 
 574:Generated_Source\PSoC6\pdl\drivers/peripheral/ipc/cy_ipc_drv.h **** /*******************************************************************************
 575:Generated_Source\PSoC6\pdl\drivers/peripheral/ipc/cy_ipc_drv.h **** * Function Name: Cy_IPC_Drv_SetInterrupt
 576:Generated_Source\PSoC6\pdl\drivers/peripheral/ipc/cy_ipc_drv.h **** ****************************************************************************//**
 577:Generated_Source\PSoC6\pdl\drivers/peripheral/ipc/cy_ipc_drv.h **** *
 578:Generated_Source\PSoC6\pdl\drivers/peripheral/ipc/cy_ipc_drv.h **** * This function is used to set the interrupt source. This function can be used
 579:Generated_Source\PSoC6\pdl\drivers/peripheral/ipc/cy_ipc_drv.h **** * to activate interrupts through software.
 580:Generated_Source\PSoC6\pdl\drivers/peripheral/ipc/cy_ipc_drv.h **** * \note That interrupt sources set using this interrupt would generate interrupts
 581:Generated_Source\PSoC6\pdl\drivers/peripheral/ipc/cy_ipc_drv.h **** * only if they are not masked.
 582:Generated_Source\PSoC6\pdl\drivers/peripheral/ipc/cy_ipc_drv.h **** *
 583:Generated_Source\PSoC6\pdl\drivers/peripheral/ipc/cy_ipc_drv.h **** * \param base
 584:Generated_Source\PSoC6\pdl\drivers/peripheral/ipc/cy_ipc_drv.h **** * This is a handle to the IPC interrupt. This handle can be calculated from the
 585:Generated_Source\PSoC6\pdl\drivers/peripheral/ipc/cy_ipc_drv.h **** * IPC interrupt number using \ref Cy_IPC_Drv_GetIntrBaseAddr.
 586:Generated_Source\PSoC6\pdl\drivers/peripheral/ipc/cy_ipc_drv.h **** *
 587:Generated_Source\PSoC6\pdl\drivers/peripheral/ipc/cy_ipc_drv.h **** * \param ipcReleaseMask
 588:Generated_Source\PSoC6\pdl\drivers/peripheral/ipc/cy_ipc_drv.h **** * An encoded list of all IPC channels that can trigger the interrupt on a
 589:Generated_Source\PSoC6\pdl\drivers/peripheral/ipc/cy_ipc_drv.h **** * release event.
 590:Generated_Source\PSoC6\pdl\drivers/peripheral/ipc/cy_ipc_drv.h **** *
 591:Generated_Source\PSoC6\pdl\drivers/peripheral/ipc/cy_ipc_drv.h **** * \param ipcAcquireMask
 592:Generated_Source\PSoC6\pdl\drivers/peripheral/ipc/cy_ipc_drv.h **** * An encoded list of all IPC channels that can trigger the interrupt on a
 593:Generated_Source\PSoC6\pdl\drivers/peripheral/ipc/cy_ipc_drv.h **** * notify event.
ARM GAS  C:\Users\salaz\AppData\Local\Temp\ccFFISlC.s 			page 13


 594:Generated_Source\PSoC6\pdl\drivers/peripheral/ipc/cy_ipc_drv.h **** *
 595:Generated_Source\PSoC6\pdl\drivers/peripheral/ipc/cy_ipc_drv.h **** * \funcusage
 596:Generated_Source\PSoC6\pdl\drivers/peripheral/ipc/cy_ipc_drv.h **** * \snippet IPC_sut_01.cydsn/main_cm4.c snippet_Cy_IPC_Drv_SetInterrupt
 597:Generated_Source\PSoC6\pdl\drivers/peripheral/ipc/cy_ipc_drv.h **** *
 598:Generated_Source\PSoC6\pdl\drivers/peripheral/ipc/cy_ipc_drv.h **** *******************************************************************************/
 599:Generated_Source\PSoC6\pdl\drivers/peripheral/ipc/cy_ipc_drv.h **** __STATIC_INLINE void  Cy_IPC_Drv_SetInterrupt(IPC_INTR_STRUCT_Type* base, uint32_t ipcReleaseMask, 
 600:Generated_Source\PSoC6\pdl\drivers/peripheral/ipc/cy_ipc_drv.h **** {
 601:Generated_Source\PSoC6\pdl\drivers/peripheral/ipc/cy_ipc_drv.h ****     CY_ASSERT_L1(0ul == (ipcAcquireMask  & ~(uint32_t)(IPC_STRUCT_NOTIFY_INTR_NOTIFY_Msk)));
 602:Generated_Source\PSoC6\pdl\drivers/peripheral/ipc/cy_ipc_drv.h ****     CY_ASSERT_L1(0ul == (ipcReleaseMask & ~(uint32_t)(IPC_STRUCT_RELEASE_INTR_RELEASE_Msk)));
 603:Generated_Source\PSoC6\pdl\drivers/peripheral/ipc/cy_ipc_drv.h ****     base->INTR_SET =  _VAL2FLD( IPC_INTR_STRUCT_INTR_NOTIFY,  ipcAcquireMask )  |
 604:Generated_Source\PSoC6\pdl\drivers/peripheral/ipc/cy_ipc_drv.h ****                       _VAL2FLD( IPC_INTR_STRUCT_INTR_RELEASE, ipcReleaseMask );
 605:Generated_Source\PSoC6\pdl\drivers/peripheral/ipc/cy_ipc_drv.h **** }
 606:Generated_Source\PSoC6\pdl\drivers/peripheral/ipc/cy_ipc_drv.h **** 
 607:Generated_Source\PSoC6\pdl\drivers/peripheral/ipc/cy_ipc_drv.h **** /*******************************************************************************
 608:Generated_Source\PSoC6\pdl\drivers/peripheral/ipc/cy_ipc_drv.h **** * Function Name: Cy_IPC_Drv_ClearInterrupt
 609:Generated_Source\PSoC6\pdl\drivers/peripheral/ipc/cy_ipc_drv.h **** ****************************************************************************//**
 610:Generated_Source\PSoC6\pdl\drivers/peripheral/ipc/cy_ipc_drv.h **** *
 611:Generated_Source\PSoC6\pdl\drivers/peripheral/ipc/cy_ipc_drv.h **** * This function is used to clear the interrupt source. Use this function to clear
 612:Generated_Source\PSoC6\pdl\drivers/peripheral/ipc/cy_ipc_drv.h **** * a pending interrupt source in the interrupt status.
 613:Generated_Source\PSoC6\pdl\drivers/peripheral/ipc/cy_ipc_drv.h **** *
 614:Generated_Source\PSoC6\pdl\drivers/peripheral/ipc/cy_ipc_drv.h **** * \param base
 615:Generated_Source\PSoC6\pdl\drivers/peripheral/ipc/cy_ipc_drv.h **** * This is a handle to the IPC interrupt. This handle can be calculated from the
 616:Generated_Source\PSoC6\pdl\drivers/peripheral/ipc/cy_ipc_drv.h **** * IPC interrupt number using \ref Cy_IPC_Drv_GetIntrBaseAddr.
 617:Generated_Source\PSoC6\pdl\drivers/peripheral/ipc/cy_ipc_drv.h **** *
 618:Generated_Source\PSoC6\pdl\drivers/peripheral/ipc/cy_ipc_drv.h **** * \param ipcReleaseMask
 619:Generated_Source\PSoC6\pdl\drivers/peripheral/ipc/cy_ipc_drv.h **** * An encoded list of all IPC channels that can trigger the interrupt on a
 620:Generated_Source\PSoC6\pdl\drivers/peripheral/ipc/cy_ipc_drv.h **** * release event.
 621:Generated_Source\PSoC6\pdl\drivers/peripheral/ipc/cy_ipc_drv.h **** *
 622:Generated_Source\PSoC6\pdl\drivers/peripheral/ipc/cy_ipc_drv.h **** * \param ipcAcquireMask
 623:Generated_Source\PSoC6\pdl\drivers/peripheral/ipc/cy_ipc_drv.h **** * An encoded list of all IPC channels that can trigger the interrupt on a
 624:Generated_Source\PSoC6\pdl\drivers/peripheral/ipc/cy_ipc_drv.h **** * notify event.
 625:Generated_Source\PSoC6\pdl\drivers/peripheral/ipc/cy_ipc_drv.h **** *
 626:Generated_Source\PSoC6\pdl\drivers/peripheral/ipc/cy_ipc_drv.h **** * \funcusage
 627:Generated_Source\PSoC6\pdl\drivers/peripheral/ipc/cy_ipc_drv.h **** * \snippet IPC_sut_01.cydsn/main_cm4.c snippet_Cy_IPC_Drv_GetInterruptStatusMasked
 628:Generated_Source\PSoC6\pdl\drivers/peripheral/ipc/cy_ipc_drv.h **** *
 629:Generated_Source\PSoC6\pdl\drivers/peripheral/ipc/cy_ipc_drv.h **** *******************************************************************************/
 630:Generated_Source\PSoC6\pdl\drivers/peripheral/ipc/cy_ipc_drv.h **** __STATIC_INLINE void  Cy_IPC_Drv_ClearInterrupt(IPC_INTR_STRUCT_Type* base, uint32_t ipcReleaseMask
 631:Generated_Source\PSoC6\pdl\drivers/peripheral/ipc/cy_ipc_drv.h **** {
 632:Generated_Source\PSoC6\pdl\drivers/peripheral/ipc/cy_ipc_drv.h ****     CY_ASSERT_L1(0ul == (ipcAcquireMask  & ~(uint32_t)(IPC_STRUCT_NOTIFY_INTR_NOTIFY_Msk)));
 633:Generated_Source\PSoC6\pdl\drivers/peripheral/ipc/cy_ipc_drv.h ****     CY_ASSERT_L1(0ul == (ipcReleaseMask & ~(uint32_t)(IPC_STRUCT_RELEASE_INTR_RELEASE_Msk)));
 634:Generated_Source\PSoC6\pdl\drivers/peripheral/ipc/cy_ipc_drv.h ****     base->INTR =  _VAL2FLD(IPC_INTR_STRUCT_INTR_NOTIFY,  ipcAcquireMask) |
 635:Generated_Source\PSoC6\pdl\drivers/peripheral/ipc/cy_ipc_drv.h ****                   _VAL2FLD(IPC_INTR_STRUCT_INTR_RELEASE, ipcReleaseMask);
 636:Generated_Source\PSoC6\pdl\drivers/peripheral/ipc/cy_ipc_drv.h ****     (void)base->INTR;  /* Read the register to flush the cache */
 637:Generated_Source\PSoC6\pdl\drivers/peripheral/ipc/cy_ipc_drv.h **** }
 638:Generated_Source\PSoC6\pdl\drivers/peripheral/ipc/cy_ipc_drv.h **** 
 639:Generated_Source\PSoC6\pdl\drivers/peripheral/ipc/cy_ipc_drv.h **** /** \} group_ipc_functions */
 640:Generated_Source\PSoC6\pdl\drivers/peripheral/ipc/cy_ipc_drv.h **** 
 641:Generated_Source\PSoC6\pdl\drivers/peripheral/ipc/cy_ipc_drv.h **** /** \} group_ipc */
 642:Generated_Source\PSoC6\pdl\drivers/peripheral/ipc/cy_ipc_drv.h **** 
 643:Generated_Source\PSoC6\pdl\drivers/peripheral/ipc/cy_ipc_drv.h **** /*******************************************************************************
 644:Generated_Source\PSoC6\pdl\drivers/peripheral/ipc/cy_ipc_drv.h **** * Function Name: Cy_IPC_Drv_AcquireNotify
 645:Generated_Source\PSoC6\pdl\drivers/peripheral/ipc/cy_ipc_drv.h **** ****************************************************************************//**
 646:Generated_Source\PSoC6\pdl\drivers/peripheral/ipc/cy_ipc_drv.h **** *
 647:Generated_Source\PSoC6\pdl\drivers/peripheral/ipc/cy_ipc_drv.h **** * The function generates a aquire notification event by IPC interrupt structure.
 648:Generated_Source\PSoC6\pdl\drivers/peripheral/ipc/cy_ipc_drv.h **** *
 649:Generated_Source\PSoC6\pdl\drivers/peripheral/ipc/cy_ipc_drv.h **** * \param base
 650:Generated_Source\PSoC6\pdl\drivers/peripheral/ipc/cy_ipc_drv.h **** * This parameter is a handle that represents the base address of the registers
ARM GAS  C:\Users\salaz\AppData\Local\Temp\ccFFISlC.s 			page 14


 651:Generated_Source\PSoC6\pdl\drivers/peripheral/ipc/cy_ipc_drv.h **** * of the IPC channel.
 652:Generated_Source\PSoC6\pdl\drivers/peripheral/ipc/cy_ipc_drv.h **** * The parameter is generally returned from a call to the \ref
 653:Generated_Source\PSoC6\pdl\drivers/peripheral/ipc/cy_ipc_drv.h **** * Cy_IPC_Drv_GetIpcBaseAddress.
 654:Generated_Source\PSoC6\pdl\drivers/peripheral/ipc/cy_ipc_drv.h **** *
 655:Generated_Source\PSoC6\pdl\drivers/peripheral/ipc/cy_ipc_drv.h **** * \param notifyEventIntr
 656:Generated_Source\PSoC6\pdl\drivers/peripheral/ipc/cy_ipc_drv.h **** * Bit encoded list of IPC interrupt structures that are triggered
 657:Generated_Source\PSoC6\pdl\drivers/peripheral/ipc/cy_ipc_drv.h **** * by a notification. Bit number correspond to number of the IPC interrupt
 658:Generated_Source\PSoC6\pdl\drivers/peripheral/ipc/cy_ipc_drv.h **** * structure.
 659:Generated_Source\PSoC6\pdl\drivers/peripheral/ipc/cy_ipc_drv.h **** *
 660:Generated_Source\PSoC6\pdl\drivers/peripheral/ipc/cy_ipc_drv.h **** * \funcusage
 661:Generated_Source\PSoC6\pdl\drivers/peripheral/ipc/cy_ipc_drv.h **** * \snippet IPC_sut_01.cydsn/main_cm4.c snippet_Cy_IPC_Drv_LockAcquire
 662:Generated_Source\PSoC6\pdl\drivers/peripheral/ipc/cy_ipc_drv.h **** *
 663:Generated_Source\PSoC6\pdl\drivers/peripheral/ipc/cy_ipc_drv.h **** *******************************************************************************/
 664:Generated_Source\PSoC6\pdl\drivers/peripheral/ipc/cy_ipc_drv.h **** __STATIC_INLINE void  Cy_IPC_Drv_AcquireNotify (IPC_STRUCT_Type* base, uint32_t notifyEventIntr)
 665:Generated_Source\PSoC6\pdl\drivers/peripheral/ipc/cy_ipc_drv.h **** {
 666:Generated_Source\PSoC6\pdl\drivers/peripheral/ipc/cy_ipc_drv.h ****     CY_ASSERT_L1(0ul == (notifyEventIntr  & ~(uint32_t)(IPC_STRUCT_NOTIFY_INTR_NOTIFY_Msk)));
 667:Generated_Source\PSoC6\pdl\drivers/peripheral/ipc/cy_ipc_drv.h ****     base->NOTIFY = _VAL2FLD(IPC_STRUCT_NOTIFY_INTR_NOTIFY, notifyEventIntr);
 668:Generated_Source\PSoC6\pdl\drivers/peripheral/ipc/cy_ipc_drv.h **** }
 669:Generated_Source\PSoC6\pdl\drivers/peripheral/ipc/cy_ipc_drv.h **** 
 670:Generated_Source\PSoC6\pdl\drivers/peripheral/ipc/cy_ipc_drv.h **** /*******************************************************************************
 671:Generated_Source\PSoC6\pdl\drivers/peripheral/ipc/cy_ipc_drv.h **** * Function Name: Cy_IPC_Drv_ReleaseNotify
 672:Generated_Source\PSoC6\pdl\drivers/peripheral/ipc/cy_ipc_drv.h **** ****************************************************************************//**
 673:Generated_Source\PSoC6\pdl\drivers/peripheral/ipc/cy_ipc_drv.h **** *
 674:Generated_Source\PSoC6\pdl\drivers/peripheral/ipc/cy_ipc_drv.h **** * The function generates a release notification event by IPC interrupt structure.
 675:Generated_Source\PSoC6\pdl\drivers/peripheral/ipc/cy_ipc_drv.h **** *
 676:Generated_Source\PSoC6\pdl\drivers/peripheral/ipc/cy_ipc_drv.h **** * \param base
 677:Generated_Source\PSoC6\pdl\drivers/peripheral/ipc/cy_ipc_drv.h **** * This parameter is a handle that represents the base address of the registers
 678:Generated_Source\PSoC6\pdl\drivers/peripheral/ipc/cy_ipc_drv.h **** * of the IPC channel.
 679:Generated_Source\PSoC6\pdl\drivers/peripheral/ipc/cy_ipc_drv.h **** * The parameter is generally returned from a call to the \ref
 680:Generated_Source\PSoC6\pdl\drivers/peripheral/ipc/cy_ipc_drv.h **** * Cy_IPC_Drv_GetIpcBaseAddress.
 681:Generated_Source\PSoC6\pdl\drivers/peripheral/ipc/cy_ipc_drv.h **** *
 682:Generated_Source\PSoC6\pdl\drivers/peripheral/ipc/cy_ipc_drv.h **** * \param notifyEventIntr
 683:Generated_Source\PSoC6\pdl\drivers/peripheral/ipc/cy_ipc_drv.h **** * Bit encoded list of IPC interrupt lines that are triggered by a notification.
 684:Generated_Source\PSoC6\pdl\drivers/peripheral/ipc/cy_ipc_drv.h **** *
 685:Generated_Source\PSoC6\pdl\drivers/peripheral/ipc/cy_ipc_drv.h **** * \funcusage
 686:Generated_Source\PSoC6\pdl\drivers/peripheral/ipc/cy_ipc_drv.h **** * \snippet IPC_sut_01.cydsn/main_cm4.c snippet_Cy_IPC_Drv_ReadMsgWord
 687:Generated_Source\PSoC6\pdl\drivers/peripheral/ipc/cy_ipc_drv.h **** *
 688:Generated_Source\PSoC6\pdl\drivers/peripheral/ipc/cy_ipc_drv.h **** *******************************************************************************/
 689:Generated_Source\PSoC6\pdl\drivers/peripheral/ipc/cy_ipc_drv.h **** __STATIC_INLINE void  Cy_IPC_Drv_ReleaseNotify (IPC_STRUCT_Type* base, uint32_t notifyEventIntr)
 690:Generated_Source\PSoC6\pdl\drivers/peripheral/ipc/cy_ipc_drv.h **** {
 691:Generated_Source\PSoC6\pdl\drivers/peripheral/ipc/cy_ipc_drv.h ****     CY_ASSERT_L1(0ul == (notifyEventIntr  & ~(uint32_t)(IPC_INTR_STRUCT_INTR_RELEASE_Msk)));
 692:Generated_Source\PSoC6\pdl\drivers/peripheral/ipc/cy_ipc_drv.h ****     base->RELEASE = _VAL2FLD(IPC_INTR_STRUCT_INTR_RELEASE, notifyEventIntr);
 693:Generated_Source\PSoC6\pdl\drivers/peripheral/ipc/cy_ipc_drv.h **** }
 694:Generated_Source\PSoC6\pdl\drivers/peripheral/ipc/cy_ipc_drv.h **** 
 695:Generated_Source\PSoC6\pdl\drivers/peripheral/ipc/cy_ipc_drv.h **** /*******************************************************************************
 696:Generated_Source\PSoC6\pdl\drivers/peripheral/ipc/cy_ipc_drv.h **** * Function Name: Cy_IPC_Drv_WriteDataValue
 697:Generated_Source\PSoC6\pdl\drivers/peripheral/ipc/cy_ipc_drv.h **** ****************************************************************************//**
 698:Generated_Source\PSoC6\pdl\drivers/peripheral/ipc/cy_ipc_drv.h **** *
 699:Generated_Source\PSoC6\pdl\drivers/peripheral/ipc/cy_ipc_drv.h **** * The function writes a value to the DATA register of the IPC channel.
 700:Generated_Source\PSoC6\pdl\drivers/peripheral/ipc/cy_ipc_drv.h **** *
 701:Generated_Source\PSoC6\pdl\drivers/peripheral/ipc/cy_ipc_drv.h **** * This function is internal and should not be called directly by user
 702:Generated_Source\PSoC6\pdl\drivers/peripheral/ipc/cy_ipc_drv.h **** * software.
 703:Generated_Source\PSoC6\pdl\drivers/peripheral/ipc/cy_ipc_drv.h **** *
 704:Generated_Source\PSoC6\pdl\drivers/peripheral/ipc/cy_ipc_drv.h **** * \param base
 705:Generated_Source\PSoC6\pdl\drivers/peripheral/ipc/cy_ipc_drv.h **** * This parameter is a handle that represents the base address of the registers
 706:Generated_Source\PSoC6\pdl\drivers/peripheral/ipc/cy_ipc_drv.h **** * of the IPC channel.
 707:Generated_Source\PSoC6\pdl\drivers/peripheral/ipc/cy_ipc_drv.h **** * The parameter is generally returned from a call to the \ref
ARM GAS  C:\Users\salaz\AppData\Local\Temp\ccFFISlC.s 			page 15


 708:Generated_Source\PSoC6\pdl\drivers/peripheral/ipc/cy_ipc_drv.h **** * Cy_IPC_Drv_GetIpcBaseAddress.
 709:Generated_Source\PSoC6\pdl\drivers/peripheral/ipc/cy_ipc_drv.h **** *
 710:Generated_Source\PSoC6\pdl\drivers/peripheral/ipc/cy_ipc_drv.h **** * \param dataValue
 711:Generated_Source\PSoC6\pdl\drivers/peripheral/ipc/cy_ipc_drv.h **** * Value to be written.
 712:Generated_Source\PSoC6\pdl\drivers/peripheral/ipc/cy_ipc_drv.h **** *
 713:Generated_Source\PSoC6\pdl\drivers/peripheral/ipc/cy_ipc_drv.h **** *******************************************************************************/
 714:Generated_Source\PSoC6\pdl\drivers/peripheral/ipc/cy_ipc_drv.h **** __STATIC_INLINE void     Cy_IPC_Drv_WriteDataValue (IPC_STRUCT_Type* base, uint32_t dataValue)
 715:Generated_Source\PSoC6\pdl\drivers/peripheral/ipc/cy_ipc_drv.h **** {
 716:Generated_Source\PSoC6\pdl\drivers/peripheral/ipc/cy_ipc_drv.h ****       base->DATA = dataValue;
 717:Generated_Source\PSoC6\pdl\drivers/peripheral/ipc/cy_ipc_drv.h **** }
 718:Generated_Source\PSoC6\pdl\drivers/peripheral/ipc/cy_ipc_drv.h **** 
 719:Generated_Source\PSoC6\pdl\drivers/peripheral/ipc/cy_ipc_drv.h **** /*******************************************************************************
 720:Generated_Source\PSoC6\pdl\drivers/peripheral/ipc/cy_ipc_drv.h **** * Function Name: Cy_IPC_Drv_ReadDataValue
 721:Generated_Source\PSoC6\pdl\drivers/peripheral/ipc/cy_ipc_drv.h **** ****************************************************************************//**
 722:Generated_Source\PSoC6\pdl\drivers/peripheral/ipc/cy_ipc_drv.h **** *
 723:Generated_Source\PSoC6\pdl\drivers/peripheral/ipc/cy_ipc_drv.h **** * The function reads a value from the DATA register of the IPC channel.
 724:Generated_Source\PSoC6\pdl\drivers/peripheral/ipc/cy_ipc_drv.h **** *
 725:Generated_Source\PSoC6\pdl\drivers/peripheral/ipc/cy_ipc_drv.h **** * This function is internal and should not be called directly by user
 726:Generated_Source\PSoC6\pdl\drivers/peripheral/ipc/cy_ipc_drv.h **** * software.
 727:Generated_Source\PSoC6\pdl\drivers/peripheral/ipc/cy_ipc_drv.h **** *
 728:Generated_Source\PSoC6\pdl\drivers/peripheral/ipc/cy_ipc_drv.h **** * \param base
 729:Generated_Source\PSoC6\pdl\drivers/peripheral/ipc/cy_ipc_drv.h **** * This parameter is a handle that represents the base address of the registers
 730:Generated_Source\PSoC6\pdl\drivers/peripheral/ipc/cy_ipc_drv.h **** * of the IPC channel.
 731:Generated_Source\PSoC6\pdl\drivers/peripheral/ipc/cy_ipc_drv.h **** * The parameter is generally returned from a call to the \ref
 732:Generated_Source\PSoC6\pdl\drivers/peripheral/ipc/cy_ipc_drv.h **** * Cy_IPC_Drv_GetIpcBaseAddress.
 733:Generated_Source\PSoC6\pdl\drivers/peripheral/ipc/cy_ipc_drv.h **** *
 734:Generated_Source\PSoC6\pdl\drivers/peripheral/ipc/cy_ipc_drv.h **** * \return
 735:Generated_Source\PSoC6\pdl\drivers/peripheral/ipc/cy_ipc_drv.h **** * Value from DATA register.
 736:Generated_Source\PSoC6\pdl\drivers/peripheral/ipc/cy_ipc_drv.h **** *
 737:Generated_Source\PSoC6\pdl\drivers/peripheral/ipc/cy_ipc_drv.h **** *******************************************************************************/
 738:Generated_Source\PSoC6\pdl\drivers/peripheral/ipc/cy_ipc_drv.h **** __STATIC_INLINE uint32_t Cy_IPC_Drv_ReadDataValue (IPC_STRUCT_Type const * base)
 739:Generated_Source\PSoC6\pdl\drivers/peripheral/ipc/cy_ipc_drv.h **** {
  85              		.loc 1 739 0
  86              		.cfi_startproc
  87              		@ args = 0, pretend = 0, frame = 8
  88              		@ frame_needed = 1, uses_anonymous_args = 0
  89 0000 80B5     		push	{r7, lr}
  90              		.cfi_def_cfa_offset 8
  91              		.cfi_offset 7, -8
  92              		.cfi_offset 14, -4
  93 0002 82B0     		sub	sp, sp, #8
  94              		.cfi_def_cfa_offset 16
  95 0004 00AF     		add	r7, sp, #0
  96              		.cfi_def_cfa_register 7
  97 0006 7860     		str	r0, [r7, #4]
 740:Generated_Source\PSoC6\pdl\drivers/peripheral/ipc/cy_ipc_drv.h ****     return (base->DATA);
  98              		.loc 1 740 0
  99 0008 7B68     		ldr	r3, [r7, #4]
 100 000a DB68     		ldr	r3, [r3, #12]
 741:Generated_Source\PSoC6\pdl\drivers/peripheral/ipc/cy_ipc_drv.h **** }
 101              		.loc 1 741 0
 102 000c 1800     		movs	r0, r3
 103 000e BD46     		mov	sp, r7
 104 0010 02B0     		add	sp, sp, #8
 105              		@ sp needed
 106 0012 80BD     		pop	{r7, pc}
 107              		.cfi_endproc
ARM GAS  C:\Users\salaz\AppData\Local\Temp\ccFFISlC.s 			page 16


 108              	.LFE47:
 109              		.size	Cy_IPC_Drv_ReadDataValue, .-Cy_IPC_Drv_ReadDataValue
 110              		.section	.text.Cy_IPC_Drv_SendMsgPtr,"ax",%progbits
 111              		.align	2
 112              		.code	16
 113              		.thumb_func
 114              		.type	Cy_IPC_Drv_SendMsgPtr, %function
 115              	Cy_IPC_Drv_SendMsgPtr:
 116              	.LFB52:
 742:Generated_Source\PSoC6\pdl\drivers/peripheral/ipc/cy_ipc_drv.h **** 
 743:Generated_Source\PSoC6\pdl\drivers/peripheral/ipc/cy_ipc_drv.h **** /*******************************************************************************
 744:Generated_Source\PSoC6\pdl\drivers/peripheral/ipc/cy_ipc_drv.h **** * Function Name: Cy_IPC_Drv_IsLockAcquired
 745:Generated_Source\PSoC6\pdl\drivers/peripheral/ipc/cy_ipc_drv.h **** ****************************************************************************//**
 746:Generated_Source\PSoC6\pdl\drivers/peripheral/ipc/cy_ipc_drv.h **** *
 747:Generated_Source\PSoC6\pdl\drivers/peripheral/ipc/cy_ipc_drv.h **** * The function is used to test the status of an IPC channel. The function
 748:Generated_Source\PSoC6\pdl\drivers/peripheral/ipc/cy_ipc_drv.h **** * tells the reader if the IPC channel was in the locked or released state.
 749:Generated_Source\PSoC6\pdl\drivers/peripheral/ipc/cy_ipc_drv.h **** *
 750:Generated_Source\PSoC6\pdl\drivers/peripheral/ipc/cy_ipc_drv.h **** * \param base
 751:Generated_Source\PSoC6\pdl\drivers/peripheral/ipc/cy_ipc_drv.h **** * This parameter is a handle that represents the base address of the registers
 752:Generated_Source\PSoC6\pdl\drivers/peripheral/ipc/cy_ipc_drv.h **** * of the IPC channel.
 753:Generated_Source\PSoC6\pdl\drivers/peripheral/ipc/cy_ipc_drv.h **** * The parameter is generally returned from a call to the \ref
 754:Generated_Source\PSoC6\pdl\drivers/peripheral/ipc/cy_ipc_drv.h **** * Cy_IPC_Drv_GetIpcBaseAddress.
 755:Generated_Source\PSoC6\pdl\drivers/peripheral/ipc/cy_ipc_drv.h **** *
 756:Generated_Source\PSoC6\pdl\drivers/peripheral/ipc/cy_ipc_drv.h **** * \return
 757:Generated_Source\PSoC6\pdl\drivers/peripheral/ipc/cy_ipc_drv.h **** *   Status for the function:
 758:Generated_Source\PSoC6\pdl\drivers/peripheral/ipc/cy_ipc_drv.h **** *   true:  The IPC channel is in the Locked state.
 759:Generated_Source\PSoC6\pdl\drivers/peripheral/ipc/cy_ipc_drv.h **** *   false: The IPC channel is in the Released state.
 760:Generated_Source\PSoC6\pdl\drivers/peripheral/ipc/cy_ipc_drv.h **** *
 761:Generated_Source\PSoC6\pdl\drivers/peripheral/ipc/cy_ipc_drv.h **** * \funcusage
 762:Generated_Source\PSoC6\pdl\drivers/peripheral/ipc/cy_ipc_drv.h **** * \snippet IPC_sut_01.cydsn/main_cm4.c snippet_Cy_IPC_Drv_LockAcquire
 763:Generated_Source\PSoC6\pdl\drivers/peripheral/ipc/cy_ipc_drv.h **** *
 764:Generated_Source\PSoC6\pdl\drivers/peripheral/ipc/cy_ipc_drv.h **** *******************************************************************************/
 765:Generated_Source\PSoC6\pdl\drivers/peripheral/ipc/cy_ipc_drv.h **** __STATIC_INLINE bool Cy_IPC_Drv_IsLockAcquired (IPC_STRUCT_Type const * base)
 766:Generated_Source\PSoC6\pdl\drivers/peripheral/ipc/cy_ipc_drv.h **** {
 767:Generated_Source\PSoC6\pdl\drivers/peripheral/ipc/cy_ipc_drv.h ****     return ( 0u != _FLD2VAL(IPC_STRUCT_ACQUIRE_SUCCESS, base->LOCK_STATUS) );
 768:Generated_Source\PSoC6\pdl\drivers/peripheral/ipc/cy_ipc_drv.h **** }
 769:Generated_Source\PSoC6\pdl\drivers/peripheral/ipc/cy_ipc_drv.h **** 
 770:Generated_Source\PSoC6\pdl\drivers/peripheral/ipc/cy_ipc_drv.h **** /*******************************************************************************
 771:Generated_Source\PSoC6\pdl\drivers/peripheral/ipc/cy_ipc_drv.h **** * Function Name: Cy_IPC_Drv_GetLockStatus
 772:Generated_Source\PSoC6\pdl\drivers/peripheral/ipc/cy_ipc_drv.h **** ****************************************************************************//**
 773:Generated_Source\PSoC6\pdl\drivers/peripheral/ipc/cy_ipc_drv.h **** *
 774:Generated_Source\PSoC6\pdl\drivers/peripheral/ipc/cy_ipc_drv.h **** * The function is used to get the status of an IPC channel.
 775:Generated_Source\PSoC6\pdl\drivers/peripheral/ipc/cy_ipc_drv.h **** *
 776:Generated_Source\PSoC6\pdl\drivers/peripheral/ipc/cy_ipc_drv.h **** * \param base
 777:Generated_Source\PSoC6\pdl\drivers/peripheral/ipc/cy_ipc_drv.h **** * This parameter is a handle that represents the base address of the registers
 778:Generated_Source\PSoC6\pdl\drivers/peripheral/ipc/cy_ipc_drv.h **** * of the IPC channel.
 779:Generated_Source\PSoC6\pdl\drivers/peripheral/ipc/cy_ipc_drv.h **** * The parameter is generally returned from a call to the \ref
 780:Generated_Source\PSoC6\pdl\drivers/peripheral/ipc/cy_ipc_drv.h **** * Cy_IPC_Drv_GetIpcBaseAddress.
 781:Generated_Source\PSoC6\pdl\drivers/peripheral/ipc/cy_ipc_drv.h **** *
 782:Generated_Source\PSoC6\pdl\drivers/peripheral/ipc/cy_ipc_drv.h **** * \return
 783:Generated_Source\PSoC6\pdl\drivers/peripheral/ipc/cy_ipc_drv.h **** * Value from LOCK_STATUS register.
 784:Generated_Source\PSoC6\pdl\drivers/peripheral/ipc/cy_ipc_drv.h **** *
 785:Generated_Source\PSoC6\pdl\drivers/peripheral/ipc/cy_ipc_drv.h **** * \funcusage
 786:Generated_Source\PSoC6\pdl\drivers/peripheral/ipc/cy_ipc_drv.h **** * \snippet IPC_sut_01.cydsn/main_cm4.c snippet_Cy_IPC_Drv_GetLockStatus
 787:Generated_Source\PSoC6\pdl\drivers/peripheral/ipc/cy_ipc_drv.h **** *
 788:Generated_Source\PSoC6\pdl\drivers/peripheral/ipc/cy_ipc_drv.h **** *******************************************************************************/
 789:Generated_Source\PSoC6\pdl\drivers/peripheral/ipc/cy_ipc_drv.h **** __STATIC_INLINE uint32_t Cy_IPC_Drv_GetLockStatus (IPC_STRUCT_Type const * base)
ARM GAS  C:\Users\salaz\AppData\Local\Temp\ccFFISlC.s 			page 17


 790:Generated_Source\PSoC6\pdl\drivers/peripheral/ipc/cy_ipc_drv.h **** {
 791:Generated_Source\PSoC6\pdl\drivers/peripheral/ipc/cy_ipc_drv.h ****     return (base->LOCK_STATUS);
 792:Generated_Source\PSoC6\pdl\drivers/peripheral/ipc/cy_ipc_drv.h **** }
 793:Generated_Source\PSoC6\pdl\drivers/peripheral/ipc/cy_ipc_drv.h **** 
 794:Generated_Source\PSoC6\pdl\drivers/peripheral/ipc/cy_ipc_drv.h **** /*******************************************************************************
 795:Generated_Source\PSoC6\pdl\drivers/peripheral/ipc/cy_ipc_drv.h **** * Function Name: Cy_IPC_Drv_ExtractAcquireMask
 796:Generated_Source\PSoC6\pdl\drivers/peripheral/ipc/cy_ipc_drv.h **** ****************************************************************************//**
 797:Generated_Source\PSoC6\pdl\drivers/peripheral/ipc/cy_ipc_drv.h **** *
 798:Generated_Source\PSoC6\pdl\drivers/peripheral/ipc/cy_ipc_drv.h **** * The function extracts an Acquire mask part from full interrupt mask value.
 799:Generated_Source\PSoC6\pdl\drivers/peripheral/ipc/cy_ipc_drv.h **** *
 800:Generated_Source\PSoC6\pdl\drivers/peripheral/ipc/cy_ipc_drv.h **** * This function is internal and should not be called directly by user
 801:Generated_Source\PSoC6\pdl\drivers/peripheral/ipc/cy_ipc_drv.h **** * software.
 802:Generated_Source\PSoC6\pdl\drivers/peripheral/ipc/cy_ipc_drv.h **** *
 803:Generated_Source\PSoC6\pdl\drivers/peripheral/ipc/cy_ipc_drv.h **** * \param intMask
 804:Generated_Source\PSoC6\pdl\drivers/peripheral/ipc/cy_ipc_drv.h **** * Interrupt mask value to be processed.
 805:Generated_Source\PSoC6\pdl\drivers/peripheral/ipc/cy_ipc_drv.h **** *
 806:Generated_Source\PSoC6\pdl\drivers/peripheral/ipc/cy_ipc_drv.h **** * \return
 807:Generated_Source\PSoC6\pdl\drivers/peripheral/ipc/cy_ipc_drv.h **** * Acquire mask value.
 808:Generated_Source\PSoC6\pdl\drivers/peripheral/ipc/cy_ipc_drv.h **** *
 809:Generated_Source\PSoC6\pdl\drivers/peripheral/ipc/cy_ipc_drv.h **** *******************************************************************************/
 810:Generated_Source\PSoC6\pdl\drivers/peripheral/ipc/cy_ipc_drv.h **** __STATIC_INLINE uint32_t Cy_IPC_Drv_ExtractAcquireMask (uint32_t intMask)
 811:Generated_Source\PSoC6\pdl\drivers/peripheral/ipc/cy_ipc_drv.h **** {
 812:Generated_Source\PSoC6\pdl\drivers/peripheral/ipc/cy_ipc_drv.h ****     return _FLD2VAL(IPC_INTR_STRUCT_INTR_MASK_NOTIFY, intMask);
 813:Generated_Source\PSoC6\pdl\drivers/peripheral/ipc/cy_ipc_drv.h **** }
 814:Generated_Source\PSoC6\pdl\drivers/peripheral/ipc/cy_ipc_drv.h **** 
 815:Generated_Source\PSoC6\pdl\drivers/peripheral/ipc/cy_ipc_drv.h **** /*******************************************************************************
 816:Generated_Source\PSoC6\pdl\drivers/peripheral/ipc/cy_ipc_drv.h **** * Function Name: Cy_IPC_Drv_ExtractReleaseMask
 817:Generated_Source\PSoC6\pdl\drivers/peripheral/ipc/cy_ipc_drv.h **** ****************************************************************************//**
 818:Generated_Source\PSoC6\pdl\drivers/peripheral/ipc/cy_ipc_drv.h **** *
 819:Generated_Source\PSoC6\pdl\drivers/peripheral/ipc/cy_ipc_drv.h **** * The function extracts a Release mask part from full interrupt mask value.
 820:Generated_Source\PSoC6\pdl\drivers/peripheral/ipc/cy_ipc_drv.h **** *
 821:Generated_Source\PSoC6\pdl\drivers/peripheral/ipc/cy_ipc_drv.h **** * This function is internal and should not be called directly by user
 822:Generated_Source\PSoC6\pdl\drivers/peripheral/ipc/cy_ipc_drv.h **** * software.
 823:Generated_Source\PSoC6\pdl\drivers/peripheral/ipc/cy_ipc_drv.h **** *
 824:Generated_Source\PSoC6\pdl\drivers/peripheral/ipc/cy_ipc_drv.h **** * \param intMask
 825:Generated_Source\PSoC6\pdl\drivers/peripheral/ipc/cy_ipc_drv.h **** * Interrupt mask value to be processed.
 826:Generated_Source\PSoC6\pdl\drivers/peripheral/ipc/cy_ipc_drv.h **** *
 827:Generated_Source\PSoC6\pdl\drivers/peripheral/ipc/cy_ipc_drv.h **** * \return
 828:Generated_Source\PSoC6\pdl\drivers/peripheral/ipc/cy_ipc_drv.h **** * Release mask value.
 829:Generated_Source\PSoC6\pdl\drivers/peripheral/ipc/cy_ipc_drv.h **** *
 830:Generated_Source\PSoC6\pdl\drivers/peripheral/ipc/cy_ipc_drv.h **** *******************************************************************************/
 831:Generated_Source\PSoC6\pdl\drivers/peripheral/ipc/cy_ipc_drv.h **** __STATIC_INLINE uint32_t Cy_IPC_Drv_ExtractReleaseMask (uint32_t intMask)
 832:Generated_Source\PSoC6\pdl\drivers/peripheral/ipc/cy_ipc_drv.h **** {
 833:Generated_Source\PSoC6\pdl\drivers/peripheral/ipc/cy_ipc_drv.h ****     return _FLD2VAL(IPC_INTR_STRUCT_INTR_MASK_RELEASE, intMask);
 834:Generated_Source\PSoC6\pdl\drivers/peripheral/ipc/cy_ipc_drv.h **** }
 835:Generated_Source\PSoC6\pdl\drivers/peripheral/ipc/cy_ipc_drv.h **** 
 836:Generated_Source\PSoC6\pdl\drivers/peripheral/ipc/cy_ipc_drv.h **** /*******************************************************************************
 837:Generated_Source\PSoC6\pdl\drivers/peripheral/ipc/cy_ipc_drv.h **** * Function Name: Cy_IPC_Drv_SendMsgPtr
 838:Generated_Source\PSoC6\pdl\drivers/peripheral/ipc/cy_ipc_drv.h **** ****************************************************************************//**
 839:Generated_Source\PSoC6\pdl\drivers/peripheral/ipc/cy_ipc_drv.h **** *
 840:Generated_Source\PSoC6\pdl\drivers/peripheral/ipc/cy_ipc_drv.h **** * This function is used to send a message pointer through an IPC channel.
 841:Generated_Source\PSoC6\pdl\drivers/peripheral/ipc/cy_ipc_drv.h **** * The message structure may hold a generic pointer that may contain the address
 842:Generated_Source\PSoC6\pdl\drivers/peripheral/ipc/cy_ipc_drv.h **** * of any user data type or structure. This parameter could be a pointer to a 32-bit
 843:Generated_Source\PSoC6\pdl\drivers/peripheral/ipc/cy_ipc_drv.h **** * integer, an array, or even a data structure defined in the user code. This
 844:Generated_Source\PSoC6\pdl\drivers/peripheral/ipc/cy_ipc_drv.h **** * function acts as a transfer engine for sending the pointer. Any memory
 845:Generated_Source\PSoC6\pdl\drivers/peripheral/ipc/cy_ipc_drv.h **** * management of the pointer allocation and deallocation is up to the application
 846:Generated_Source\PSoC6\pdl\drivers/peripheral/ipc/cy_ipc_drv.h **** * code.
ARM GAS  C:\Users\salaz\AppData\Local\Temp\ccFFISlC.s 			page 18


 847:Generated_Source\PSoC6\pdl\drivers/peripheral/ipc/cy_ipc_drv.h **** * The function also has an associated notification field that will let the
 848:Generated_Source\PSoC6\pdl\drivers/peripheral/ipc/cy_ipc_drv.h **** * message notify one or multiple interrupts.
 849:Generated_Source\PSoC6\pdl\drivers/peripheral/ipc/cy_ipc_drv.h **** *
 850:Generated_Source\PSoC6\pdl\drivers/peripheral/ipc/cy_ipc_drv.h **** * \param base
 851:Generated_Source\PSoC6\pdl\drivers/peripheral/ipc/cy_ipc_drv.h **** * This parameter is a handle that represents the base address of the registers
 852:Generated_Source\PSoC6\pdl\drivers/peripheral/ipc/cy_ipc_drv.h **** * of the IPC channel.
 853:Generated_Source\PSoC6\pdl\drivers/peripheral/ipc/cy_ipc_drv.h **** * The parameter is generally returned from a call to the \ref
 854:Generated_Source\PSoC6\pdl\drivers/peripheral/ipc/cy_ipc_drv.h **** * Cy_IPC_Drv_GetIpcBaseAddress.
 855:Generated_Source\PSoC6\pdl\drivers/peripheral/ipc/cy_ipc_drv.h **** *
 856:Generated_Source\PSoC6\pdl\drivers/peripheral/ipc/cy_ipc_drv.h **** * \param notifyEventIntr
 857:Generated_Source\PSoC6\pdl\drivers/peripheral/ipc/cy_ipc_drv.h **** * Bit encoded list of IPC interrupt lines that are triggered during the release
 858:Generated_Source\PSoC6\pdl\drivers/peripheral/ipc/cy_ipc_drv.h **** * action.
 859:Generated_Source\PSoC6\pdl\drivers/peripheral/ipc/cy_ipc_drv.h **** *
 860:Generated_Source\PSoC6\pdl\drivers/peripheral/ipc/cy_ipc_drv.h **** * \param msgPtr
 861:Generated_Source\PSoC6\pdl\drivers/peripheral/ipc/cy_ipc_drv.h **** * The message pointer that is being sent over the IPC channel.
 862:Generated_Source\PSoC6\pdl\drivers/peripheral/ipc/cy_ipc_drv.h **** *
 863:Generated_Source\PSoC6\pdl\drivers/peripheral/ipc/cy_ipc_drv.h **** * \return   Status of the operation:
 864:Generated_Source\PSoC6\pdl\drivers/peripheral/ipc/cy_ipc_drv.h **** *   \retval CY_IPC_DRV_SUCCESS: The send operation was successful.
 865:Generated_Source\PSoC6\pdl\drivers/peripheral/ipc/cy_ipc_drv.h **** *   \retval CY_IPC_DRV_ERROR:   The IPC channel is unavailable because
 866:Generated_Source\PSoC6\pdl\drivers/peripheral/ipc/cy_ipc_drv.h **** *                               it is already locked.
 867:Generated_Source\PSoC6\pdl\drivers/peripheral/ipc/cy_ipc_drv.h **** *
 868:Generated_Source\PSoC6\pdl\drivers/peripheral/ipc/cy_ipc_drv.h **** * \funcusage
 869:Generated_Source\PSoC6\pdl\drivers/peripheral/ipc/cy_ipc_drv.h **** * \snippet IPC_sut_01.cydsn/main_cm4.c snippet_Cy_IPC_Drv_SendMsgPtr
 870:Generated_Source\PSoC6\pdl\drivers/peripheral/ipc/cy_ipc_drv.h **** *
 871:Generated_Source\PSoC6\pdl\drivers/peripheral/ipc/cy_ipc_drv.h **** *******************************************************************************/
 872:Generated_Source\PSoC6\pdl\drivers/peripheral/ipc/cy_ipc_drv.h **** __STATIC_INLINE cy_en_ipcdrv_status_t  Cy_IPC_Drv_SendMsgPtr(IPC_STRUCT_Type* base, uint32_t notify
 873:Generated_Source\PSoC6\pdl\drivers/peripheral/ipc/cy_ipc_drv.h **** {
 117              		.loc 1 873 0
 118              		.cfi_startproc
 119              		@ args = 0, pretend = 0, frame = 16
 120              		@ frame_needed = 1, uses_anonymous_args = 0
 121 0000 80B5     		push	{r7, lr}
 122              		.cfi_def_cfa_offset 8
 123              		.cfi_offset 7, -8
 124              		.cfi_offset 14, -4
 125 0002 84B0     		sub	sp, sp, #16
 126              		.cfi_def_cfa_offset 24
 127 0004 00AF     		add	r7, sp, #0
 128              		.cfi_def_cfa_register 7
 129 0006 F860     		str	r0, [r7, #12]
 130 0008 B960     		str	r1, [r7, #8]
 131 000a 7A60     		str	r2, [r7, #4]
 874:Generated_Source\PSoC6\pdl\drivers/peripheral/ipc/cy_ipc_drv.h ****     CY_ASSERT_L1(NULL != msgPtr);
 132              		.loc 1 874 0
 133 000c 7B68     		ldr	r3, [r7, #4]
 134 000e 002B     		cmp	r3, #0
 135 0010 05D1     		bne	.L9
 136              		.loc 1 874 0 is_stmt 0 discriminator 1
 137 0012 084A     		ldr	r2, .L11
 138 0014 084B     		ldr	r3, .L11+4
 139 0016 1100     		movs	r1, r2
 140 0018 1800     		movs	r0, r3
 141 001a FFF7FEFF 		bl	Cy_SysLib_AssertFailed
 142              	.L9:
 875:Generated_Source\PSoC6\pdl\drivers/peripheral/ipc/cy_ipc_drv.h ****     return Cy_IPC_Drv_SendMsgWord(base, notifyEventIntr, (uint32_t)msgPtr);
 143              		.loc 1 875 0 is_stmt 1
 144 001e 7A68     		ldr	r2, [r7, #4]
ARM GAS  C:\Users\salaz\AppData\Local\Temp\ccFFISlC.s 			page 19


 145 0020 B968     		ldr	r1, [r7, #8]
 146 0022 FB68     		ldr	r3, [r7, #12]
 147 0024 1800     		movs	r0, r3
 148 0026 FFF7FEFF 		bl	Cy_IPC_Drv_SendMsgWord
 149 002a 0300     		movs	r3, r0
 876:Generated_Source\PSoC6\pdl\drivers/peripheral/ipc/cy_ipc_drv.h **** }
 150              		.loc 1 876 0
 151 002c 1800     		movs	r0, r3
 152 002e BD46     		mov	sp, r7
 153 0030 04B0     		add	sp, sp, #16
 154              		@ sp needed
 155 0032 80BD     		pop	{r7, pc}
 156              	.L12:
 157              		.align	2
 158              	.L11:
 159 0034 6A030000 		.word	874
 160 0038 00000000 		.word	.LC0
 161              		.cfi_endproc
 162              	.LFE52:
 163              		.size	Cy_IPC_Drv_SendMsgPtr, .-Cy_IPC_Drv_SendMsgPtr
 164              		.section	.text.Cy_IPC_Drv_LockAcquire,"ax",%progbits
 165              		.align	2
 166              		.code	16
 167              		.thumb_func
 168              		.type	Cy_IPC_Drv_LockAcquire, %function
 169              	Cy_IPC_Drv_LockAcquire:
 170              	.LFB54:
 877:Generated_Source\PSoC6\pdl\drivers/peripheral/ipc/cy_ipc_drv.h **** 
 878:Generated_Source\PSoC6\pdl\drivers/peripheral/ipc/cy_ipc_drv.h **** /*******************************************************************************
 879:Generated_Source\PSoC6\pdl\drivers/peripheral/ipc/cy_ipc_drv.h **** * Function Name: Cy_IPC_Drv_ReadMsgPtr
 880:Generated_Source\PSoC6\pdl\drivers/peripheral/ipc/cy_ipc_drv.h **** ****************************************************************************//**
 881:Generated_Source\PSoC6\pdl\drivers/peripheral/ipc/cy_ipc_drv.h **** *
 882:Generated_Source\PSoC6\pdl\drivers/peripheral/ipc/cy_ipc_drv.h **** * This function is used to read a 32-bit pointer message through an IPC channel.
 883:Generated_Source\PSoC6\pdl\drivers/peripheral/ipc/cy_ipc_drv.h **** *
 884:Generated_Source\PSoC6\pdl\drivers/peripheral/ipc/cy_ipc_drv.h **** * \param base
 885:Generated_Source\PSoC6\pdl\drivers/peripheral/ipc/cy_ipc_drv.h **** * This parameter is a handle that represents the base address of the registers
 886:Generated_Source\PSoC6\pdl\drivers/peripheral/ipc/cy_ipc_drv.h **** * of the IPC channel.
 887:Generated_Source\PSoC6\pdl\drivers/peripheral/ipc/cy_ipc_drv.h **** * The parameter is generally returned from a call to the \ref
 888:Generated_Source\PSoC6\pdl\drivers/peripheral/ipc/cy_ipc_drv.h **** * Cy_IPC_Drv_GetIpcBaseAddress.
 889:Generated_Source\PSoC6\pdl\drivers/peripheral/ipc/cy_ipc_drv.h **** *
 890:Generated_Source\PSoC6\pdl\drivers/peripheral/ipc/cy_ipc_drv.h **** * \param msgPtr
 891:Generated_Source\PSoC6\pdl\drivers/peripheral/ipc/cy_ipc_drv.h **** * Pointer variable to hold the data pointer that is being read from the IPC
 892:Generated_Source\PSoC6\pdl\drivers/peripheral/ipc/cy_ipc_drv.h **** * channel.
 893:Generated_Source\PSoC6\pdl\drivers/peripheral/ipc/cy_ipc_drv.h **** *
 894:Generated_Source\PSoC6\pdl\drivers/peripheral/ipc/cy_ipc_drv.h **** *
 895:Generated_Source\PSoC6\pdl\drivers/peripheral/ipc/cy_ipc_drv.h **** * \return Status of the operation
 896:Generated_Source\PSoC6\pdl\drivers/peripheral/ipc/cy_ipc_drv.h **** *   \retval CY_IPC_DRV_SUCCESS: The function executed successfully and the IPC
 897:Generated_Source\PSoC6\pdl\drivers/peripheral/ipc/cy_ipc_drv.h **** *                       was acquired.
 898:Generated_Source\PSoC6\pdl\drivers/peripheral/ipc/cy_ipc_drv.h **** *   \retval CY_IPC_DRV_ERROR:   The function encountered an error because the IPC
 899:Generated_Source\PSoC6\pdl\drivers/peripheral/ipc/cy_ipc_drv.h **** *                       channel was already in a released state meaning the data
 900:Generated_Source\PSoC6\pdl\drivers/peripheral/ipc/cy_ipc_drv.h **** *                       in it is invalid.
 901:Generated_Source\PSoC6\pdl\drivers/peripheral/ipc/cy_ipc_drv.h **** *
 902:Generated_Source\PSoC6\pdl\drivers/peripheral/ipc/cy_ipc_drv.h **** * \funcusage
 903:Generated_Source\PSoC6\pdl\drivers/peripheral/ipc/cy_ipc_drv.h **** * \snippet IPC_sut_01.cydsn/main_cm4.c snippet_Cy_IPC_Drv_ReadMsgPtr
 904:Generated_Source\PSoC6\pdl\drivers/peripheral/ipc/cy_ipc_drv.h **** *
 905:Generated_Source\PSoC6\pdl\drivers/peripheral/ipc/cy_ipc_drv.h **** *******************************************************************************/
 906:Generated_Source\PSoC6\pdl\drivers/peripheral/ipc/cy_ipc_drv.h **** __STATIC_INLINE  cy_en_ipcdrv_status_t  Cy_IPC_Drv_ReadMsgPtr (IPC_STRUCT_Type const * base, void *
ARM GAS  C:\Users\salaz\AppData\Local\Temp\ccFFISlC.s 			page 20


 907:Generated_Source\PSoC6\pdl\drivers/peripheral/ipc/cy_ipc_drv.h **** {
 908:Generated_Source\PSoC6\pdl\drivers/peripheral/ipc/cy_ipc_drv.h ****     CY_ASSERT_L1(NULL != msgPtr);
 909:Generated_Source\PSoC6\pdl\drivers/peripheral/ipc/cy_ipc_drv.h ****     return Cy_IPC_Drv_ReadMsgWord(base, (uint32_t *)msgPtr);
 910:Generated_Source\PSoC6\pdl\drivers/peripheral/ipc/cy_ipc_drv.h **** }
 911:Generated_Source\PSoC6\pdl\drivers/peripheral/ipc/cy_ipc_drv.h **** 
 912:Generated_Source\PSoC6\pdl\drivers/peripheral/ipc/cy_ipc_drv.h **** /*******************************************************************************
 913:Generated_Source\PSoC6\pdl\drivers/peripheral/ipc/cy_ipc_drv.h **** * Function Name: Cy_IPC_Drv_LockAcquire
 914:Generated_Source\PSoC6\pdl\drivers/peripheral/ipc/cy_ipc_drv.h **** ****************************************************************************//**
 915:Generated_Source\PSoC6\pdl\drivers/peripheral/ipc/cy_ipc_drv.h **** *
 916:Generated_Source\PSoC6\pdl\drivers/peripheral/ipc/cy_ipc_drv.h **** * This function is used to acquire the IPC channel.
 917:Generated_Source\PSoC6\pdl\drivers/peripheral/ipc/cy_ipc_drv.h **** *
 918:Generated_Source\PSoC6\pdl\drivers/peripheral/ipc/cy_ipc_drv.h **** * \param base
 919:Generated_Source\PSoC6\pdl\drivers/peripheral/ipc/cy_ipc_drv.h **** * This parameter is a handle that represents the base address of the registers
 920:Generated_Source\PSoC6\pdl\drivers/peripheral/ipc/cy_ipc_drv.h **** * of the IPC channel.
 921:Generated_Source\PSoC6\pdl\drivers/peripheral/ipc/cy_ipc_drv.h **** * The parameter is generally returned from a call to the \ref
 922:Generated_Source\PSoC6\pdl\drivers/peripheral/ipc/cy_ipc_drv.h **** * Cy_IPC_Drv_GetIpcBaseAddress
 923:Generated_Source\PSoC6\pdl\drivers/peripheral/ipc/cy_ipc_drv.h **** *
 924:Generated_Source\PSoC6\pdl\drivers/peripheral/ipc/cy_ipc_drv.h **** * \return   Status of the operation
 925:Generated_Source\PSoC6\pdl\drivers/peripheral/ipc/cy_ipc_drv.h **** *   \retval CY_IPC_DRV_SUCCESS: The IPC was successfully acquired
 926:Generated_Source\PSoC6\pdl\drivers/peripheral/ipc/cy_ipc_drv.h **** *   \retval CY_IPC_DRV_ERROR:   The IPC was not acquired because it was already acquired
 927:Generated_Source\PSoC6\pdl\drivers/peripheral/ipc/cy_ipc_drv.h **** *                       by another master
 928:Generated_Source\PSoC6\pdl\drivers/peripheral/ipc/cy_ipc_drv.h **** *
 929:Generated_Source\PSoC6\pdl\drivers/peripheral/ipc/cy_ipc_drv.h **** * \funcusage
 930:Generated_Source\PSoC6\pdl\drivers/peripheral/ipc/cy_ipc_drv.h **** * \snippet IPC_sut_01.cydsn/main_cm4.c snippet_Cy_IPC_Drv_LockAcquire
 931:Generated_Source\PSoC6\pdl\drivers/peripheral/ipc/cy_ipc_drv.h **** *
 932:Generated_Source\PSoC6\pdl\drivers/peripheral/ipc/cy_ipc_drv.h **** *******************************************************************************/
 933:Generated_Source\PSoC6\pdl\drivers/peripheral/ipc/cy_ipc_drv.h **** __STATIC_INLINE cy_en_ipcdrv_status_t Cy_IPC_Drv_LockAcquire (IPC_STRUCT_Type const * base)
 934:Generated_Source\PSoC6\pdl\drivers/peripheral/ipc/cy_ipc_drv.h **** {
 171              		.loc 1 934 0
 172              		.cfi_startproc
 173              		@ args = 0, pretend = 0, frame = 8
 174              		@ frame_needed = 1, uses_anonymous_args = 0
 175 0000 80B5     		push	{r7, lr}
 176              		.cfi_def_cfa_offset 8
 177              		.cfi_offset 7, -8
 178              		.cfi_offset 14, -4
 179 0002 82B0     		sub	sp, sp, #8
 180              		.cfi_def_cfa_offset 16
 181 0004 00AF     		add	r7, sp, #0
 182              		.cfi_def_cfa_register 7
 183 0006 7860     		str	r0, [r7, #4]
 935:Generated_Source\PSoC6\pdl\drivers/peripheral/ipc/cy_ipc_drv.h ****     return ( 0ul != _FLD2VAL(IPC_STRUCT_ACQUIRE_SUCCESS, base->ACQUIRE)) ? CY_IPC_DRV_SUCCESS : CY_
 184              		.loc 1 935 0
 185 0008 7B68     		ldr	r3, [r7, #4]
 186 000a 1B68     		ldr	r3, [r3]
 187 000c DB0F     		lsrs	r3, r3, #31
 188 000e DB07     		lsls	r3, r3, #31
 189 0010 01D5     		bpl	.L14
 190              		.loc 1 935 0 is_stmt 0 discriminator 1
 191 0012 0023     		movs	r3, #0
 192 0014 00E0     		b	.L16
 193              	.L14:
 194              		.loc 1 935 0 discriminator 2
 195 0016 024B     		ldr	r3, .L17
 196              	.L16:
 936:Generated_Source\PSoC6\pdl\drivers/peripheral/ipc/cy_ipc_drv.h **** }
 197              		.loc 1 936 0 is_stmt 1 discriminator 5
ARM GAS  C:\Users\salaz\AppData\Local\Temp\ccFFISlC.s 			page 21


 198 0018 1800     		movs	r0, r3
 199 001a BD46     		mov	sp, r7
 200 001c 02B0     		add	sp, sp, #8
 201              		@ sp needed
 202 001e 80BD     		pop	{r7, pc}
 203              	.L18:
 204              		.align	2
 205              	.L17:
 206 0020 01008A00 		.word	9043969
 207              		.cfi_endproc
 208              	.LFE54:
 209              		.size	Cy_IPC_Drv_LockAcquire, .-Cy_IPC_Drv_LockAcquire
 210              		.bss
 211              		.align	2
 212              	cy_semaIpcStruct:
 213 0000 00000000 		.space	4
 214              		.section	.text.Cy_IPC_Sema_Init,"ax",%progbits
 215              		.align	2
 216              		.global	Cy_IPC_Sema_Init
 217              		.code	16
 218              		.thumb_func
 219              		.type	Cy_IPC_Sema_Init, %function
 220              	Cy_IPC_Sema_Init:
 221              	.LFB55:
 222              		.file 2 "Generated_Source\\PSoC6\\pdl\\drivers\\peripheral\\ipc\\cy_ipc_sema.c"
   1:Generated_Source\PSoC6\pdl\drivers/peripheral/ipc/cy_ipc_sema.c **** /***************************************************************************//**
   2:Generated_Source\PSoC6\pdl\drivers/peripheral/ipc/cy_ipc_sema.c **** * \file cy_ipc_sema.c
   3:Generated_Source\PSoC6\pdl\drivers/peripheral/ipc/cy_ipc_sema.c **** * \version 1.20
   4:Generated_Source\PSoC6\pdl\drivers/peripheral/ipc/cy_ipc_sema.c **** *
   5:Generated_Source\PSoC6\pdl\drivers/peripheral/ipc/cy_ipc_sema.c **** *  Description:
   6:Generated_Source\PSoC6\pdl\drivers/peripheral/ipc/cy_ipc_sema.c **** *   IPC Semaphore Driver - This source file contains the source code for the
   7:Generated_Source\PSoC6\pdl\drivers/peripheral/ipc/cy_ipc_sema.c **** *   semaphore level APIs for the IPC interface.
   8:Generated_Source\PSoC6\pdl\drivers/peripheral/ipc/cy_ipc_sema.c **** *
   9:Generated_Source\PSoC6\pdl\drivers/peripheral/ipc/cy_ipc_sema.c **** ********************************************************************************
  10:Generated_Source\PSoC6\pdl\drivers/peripheral/ipc/cy_ipc_sema.c **** * Copyright 2016-2018, Cypress Semiconductor Corporation.  All rights reserved.
  11:Generated_Source\PSoC6\pdl\drivers/peripheral/ipc/cy_ipc_sema.c **** * You may use this file only in accordance with the license, terms, conditions,
  12:Generated_Source\PSoC6\pdl\drivers/peripheral/ipc/cy_ipc_sema.c **** * disclaimers, and limitations in the end user license agreement accompanying
  13:Generated_Source\PSoC6\pdl\drivers/peripheral/ipc/cy_ipc_sema.c **** * the software package with which this file was provided.
  14:Generated_Source\PSoC6\pdl\drivers/peripheral/ipc/cy_ipc_sema.c **** *******************************************************************************/
  15:Generated_Source\PSoC6\pdl\drivers/peripheral/ipc/cy_ipc_sema.c **** 
  16:Generated_Source\PSoC6\pdl\drivers/peripheral/ipc/cy_ipc_sema.c **** #include "ipc/cy_ipc_drv.h"
  17:Generated_Source\PSoC6\pdl\drivers/peripheral/ipc/cy_ipc_sema.c **** #include "ipc/cy_ipc_sema.h"
  18:Generated_Source\PSoC6\pdl\drivers/peripheral/ipc/cy_ipc_sema.c **** #include "syslib/cy_syslib.h"
  19:Generated_Source\PSoC6\pdl\drivers/peripheral/ipc/cy_ipc_sema.c **** #include <string.h> /* The memset() definition */
  20:Generated_Source\PSoC6\pdl\drivers/peripheral/ipc/cy_ipc_sema.c **** 
  21:Generated_Source\PSoC6\pdl\drivers/peripheral/ipc/cy_ipc_sema.c **** /* Defines a mask to Check if semaphore count is a multiple of 32 */
  22:Generated_Source\PSoC6\pdl\drivers/peripheral/ipc/cy_ipc_sema.c **** #define CY_IPC_SEMA_PER_WORD_MASK    (CY_IPC_SEMA_PER_WORD - 1ul)
  23:Generated_Source\PSoC6\pdl\drivers/peripheral/ipc/cy_ipc_sema.c **** 
  24:Generated_Source\PSoC6\pdl\drivers/peripheral/ipc/cy_ipc_sema.c **** /* Pointer to IPC structure used for semaphores */
  25:Generated_Source\PSoC6\pdl\drivers/peripheral/ipc/cy_ipc_sema.c **** static IPC_STRUCT_Type* cy_semaIpcStruct;
  26:Generated_Source\PSoC6\pdl\drivers/peripheral/ipc/cy_ipc_sema.c **** 
  27:Generated_Source\PSoC6\pdl\drivers/peripheral/ipc/cy_ipc_sema.c **** /*
  28:Generated_Source\PSoC6\pdl\drivers/peripheral/ipc/cy_ipc_sema.c **** * Internal IPC semaphore control data structure.
  29:Generated_Source\PSoC6\pdl\drivers/peripheral/ipc/cy_ipc_sema.c **** */
  30:Generated_Source\PSoC6\pdl\drivers/peripheral/ipc/cy_ipc_sema.c **** typedef struct
  31:Generated_Source\PSoC6\pdl\drivers/peripheral/ipc/cy_ipc_sema.c **** {
  32:Generated_Source\PSoC6\pdl\drivers/peripheral/ipc/cy_ipc_sema.c ****     uint32_t maxSema;      /* Maximum semaphores in system */
ARM GAS  C:\Users\salaz\AppData\Local\Temp\ccFFISlC.s 			page 22


  33:Generated_Source\PSoC6\pdl\drivers/peripheral/ipc/cy_ipc_sema.c ****     uint32_t *arrayPtr;    /* Pointer to semaphores array  */
  34:Generated_Source\PSoC6\pdl\drivers/peripheral/ipc/cy_ipc_sema.c **** } cy_stc_ipc_sema_t;
  35:Generated_Source\PSoC6\pdl\drivers/peripheral/ipc/cy_ipc_sema.c **** 
  36:Generated_Source\PSoC6\pdl\drivers/peripheral/ipc/cy_ipc_sema.c **** /*******************************************************************************
  37:Generated_Source\PSoC6\pdl\drivers/peripheral/ipc/cy_ipc_sema.c **** * Function Name: Cy_IPC_Sema_Init
  38:Generated_Source\PSoC6\pdl\drivers/peripheral/ipc/cy_ipc_sema.c **** ****************************************************************************//**
  39:Generated_Source\PSoC6\pdl\drivers/peripheral/ipc/cy_ipc_sema.c **** *
  40:Generated_Source\PSoC6\pdl\drivers/peripheral/ipc/cy_ipc_sema.c **** * This function initializes the semaphores subsystem. The user must create an
  41:Generated_Source\PSoC6\pdl\drivers/peripheral/ipc/cy_ipc_sema.c **** * array of unsigned 32-bit words to hold the semaphore bits. The number
  42:Generated_Source\PSoC6\pdl\drivers/peripheral/ipc/cy_ipc_sema.c **** * of semaphores will be the size of the array * 32. The total semaphores count
  43:Generated_Source\PSoC6\pdl\drivers/peripheral/ipc/cy_ipc_sema.c **** * will always be a multiple of 32.
  44:Generated_Source\PSoC6\pdl\drivers/peripheral/ipc/cy_ipc_sema.c **** *
  45:Generated_Source\PSoC6\pdl\drivers/peripheral/ipc/cy_ipc_sema.c **** * \note In a multi-CPU system this init function should be called with all
  46:Generated_Source\PSoC6\pdl\drivers/peripheral/ipc/cy_ipc_sema.c **** * initialized parameters on one CPU only to provide a pointer to SRAM that can
  47:Generated_Source\PSoC6\pdl\drivers/peripheral/ipc/cy_ipc_sema.c **** * be shared between all the CPUs in the system that will use semaphores.
  48:Generated_Source\PSoC6\pdl\drivers/peripheral/ipc/cy_ipc_sema.c **** * On other CPUs user must specify the IPC semaphores channel and pass 0 / NULL
  49:Generated_Source\PSoC6\pdl\drivers/peripheral/ipc/cy_ipc_sema.c **** * to count and memPtr parameters correspondingly.
  50:Generated_Source\PSoC6\pdl\drivers/peripheral/ipc/cy_ipc_sema.c **** *
  51:Generated_Source\PSoC6\pdl\drivers/peripheral/ipc/cy_ipc_sema.c **** * \param ipcChannel
  52:Generated_Source\PSoC6\pdl\drivers/peripheral/ipc/cy_ipc_sema.c **** * The IPC channel number used for semaphores
  53:Generated_Source\PSoC6\pdl\drivers/peripheral/ipc/cy_ipc_sema.c **** *
  54:Generated_Source\PSoC6\pdl\drivers/peripheral/ipc/cy_ipc_sema.c **** * \param count
  55:Generated_Source\PSoC6\pdl\drivers/peripheral/ipc/cy_ipc_sema.c **** *  The maximum number of semaphores to be supported (multiple of 32).
  56:Generated_Source\PSoC6\pdl\drivers/peripheral/ipc/cy_ipc_sema.c **** *
  57:Generated_Source\PSoC6\pdl\drivers/peripheral/ipc/cy_ipc_sema.c **** * \param memPtr
  58:Generated_Source\PSoC6\pdl\drivers/peripheral/ipc/cy_ipc_sema.c **** *  This points to the array of (count/32) words that contain the semaphore data.
  59:Generated_Source\PSoC6\pdl\drivers/peripheral/ipc/cy_ipc_sema.c **** *
  60:Generated_Source\PSoC6\pdl\drivers/peripheral/ipc/cy_ipc_sema.c **** * \return Status of the operation
  61:Generated_Source\PSoC6\pdl\drivers/peripheral/ipc/cy_ipc_sema.c **** *    \retval CY_IPC_SEMA_SUCCESS: Successfully initialized
  62:Generated_Source\PSoC6\pdl\drivers/peripheral/ipc/cy_ipc_sema.c **** *    \retval CY_IPC_SEMA_BAD_PARAM:     Memory pointer is NULL and count is not zero,
  63:Generated_Source\PSoC6\pdl\drivers/peripheral/ipc/cy_ipc_sema.c **** *                             or count not multiple of 32
  64:Generated_Source\PSoC6\pdl\drivers/peripheral/ipc/cy_ipc_sema.c **** *    \retval CY_IPC_SEMA_ERROR_LOCKED:  Could not acquire semaphores IPC channel
  65:Generated_Source\PSoC6\pdl\drivers/peripheral/ipc/cy_ipc_sema.c **** *
  66:Generated_Source\PSoC6\pdl\drivers/peripheral/ipc/cy_ipc_sema.c **** * \funcusage
  67:Generated_Source\PSoC6\pdl\drivers/peripheral/ipc/cy_ipc_sema.c **** * \snippet IPC_sut_01.cydsn/main_cm4.c snippet_Cy_IPC_Sema_Init
  68:Generated_Source\PSoC6\pdl\drivers/peripheral/ipc/cy_ipc_sema.c **** *
  69:Generated_Source\PSoC6\pdl\drivers/peripheral/ipc/cy_ipc_sema.c **** *******************************************************************************/
  70:Generated_Source\PSoC6\pdl\drivers/peripheral/ipc/cy_ipc_sema.c **** cy_en_ipcsema_status_t Cy_IPC_Sema_Init(uint32_t ipcChannel,
  71:Generated_Source\PSoC6\pdl\drivers/peripheral/ipc/cy_ipc_sema.c ****                                         uint32_t count, uint32_t memPtr[])
  72:Generated_Source\PSoC6\pdl\drivers/peripheral/ipc/cy_ipc_sema.c **** {
 223              		.loc 2 72 0
 224              		.cfi_startproc
 225              		@ args = 0, pretend = 0, frame = 24
 226              		@ frame_needed = 1, uses_anonymous_args = 0
 227 0000 80B5     		push	{r7, lr}
 228              		.cfi_def_cfa_offset 8
 229              		.cfi_offset 7, -8
 230              		.cfi_offset 14, -4
 231 0002 86B0     		sub	sp, sp, #24
 232              		.cfi_def_cfa_offset 32
 233 0004 00AF     		add	r7, sp, #0
 234              		.cfi_def_cfa_register 7
 235 0006 F860     		str	r0, [r7, #12]
 236 0008 B960     		str	r1, [r7, #8]
 237 000a 7A60     		str	r2, [r7, #4]
  73:Generated_Source\PSoC6\pdl\drivers/peripheral/ipc/cy_ipc_sema.c ****     /* Structure containing semaphores control data */
  74:Generated_Source\PSoC6\pdl\drivers/peripheral/ipc/cy_ipc_sema.c ****     static cy_stc_ipc_sema_t       cy_semaData;
ARM GAS  C:\Users\salaz\AppData\Local\Temp\ccFFISlC.s 			page 23


  75:Generated_Source\PSoC6\pdl\drivers/peripheral/ipc/cy_ipc_sema.c **** 
  76:Generated_Source\PSoC6\pdl\drivers/peripheral/ipc/cy_ipc_sema.c ****     cy_en_ipcsema_status_t retStatus = CY_IPC_SEMA_BAD_PARAM;
 238              		.loc 2 76 0
 239 000c 304B     		ldr	r3, .L31
 240 000e 7B61     		str	r3, [r7, #20]
  77:Generated_Source\PSoC6\pdl\drivers/peripheral/ipc/cy_ipc_sema.c **** 
  78:Generated_Source\PSoC6\pdl\drivers/peripheral/ipc/cy_ipc_sema.c ****     if (ipcChannel >= CY_IPC_CHANNELS)
 241              		.loc 2 78 0
 242 0010 FB68     		ldr	r3, [r7, #12]
 243 0012 0F2B     		cmp	r3, #15
 244 0014 02D9     		bls	.L20
  79:Generated_Source\PSoC6\pdl\drivers/peripheral/ipc/cy_ipc_sema.c ****     {
  80:Generated_Source\PSoC6\pdl\drivers/peripheral/ipc/cy_ipc_sema.c ****         retStatus = CY_IPC_SEMA_BAD_PARAM;
 245              		.loc 2 80 0
 246 0016 2E4B     		ldr	r3, .L31
 247 0018 7B61     		str	r3, [r7, #20]
 248 001a 53E0     		b	.L21
 249              	.L20:
  81:Generated_Source\PSoC6\pdl\drivers/peripheral/ipc/cy_ipc_sema.c ****     }
  82:Generated_Source\PSoC6\pdl\drivers/peripheral/ipc/cy_ipc_sema.c ****     else
  83:Generated_Source\PSoC6\pdl\drivers/peripheral/ipc/cy_ipc_sema.c ****     {
  84:Generated_Source\PSoC6\pdl\drivers/peripheral/ipc/cy_ipc_sema.c ****         if( (NULL == memPtr) && (0u == count))
 250              		.loc 2 84 0
 251 001c 7B68     		ldr	r3, [r7, #4]
 252 001e 002B     		cmp	r3, #0
 253 0020 0CD1     		bne	.L22
 254              		.loc 2 84 0 is_stmt 0 discriminator 1
 255 0022 BB68     		ldr	r3, [r7, #8]
 256 0024 002B     		cmp	r3, #0
 257 0026 09D1     		bne	.L22
  85:Generated_Source\PSoC6\pdl\drivers/peripheral/ipc/cy_ipc_sema.c ****         {
  86:Generated_Source\PSoC6\pdl\drivers/peripheral/ipc/cy_ipc_sema.c ****             cy_semaIpcStruct = Cy_IPC_Drv_GetIpcBaseAddress(ipcChannel);
 258              		.loc 2 86 0 is_stmt 1
 259 0028 FB68     		ldr	r3, [r7, #12]
 260 002a 1800     		movs	r0, r3
 261 002c FFF7FEFF 		bl	Cy_IPC_Drv_GetIpcBaseAddress
 262 0030 0200     		movs	r2, r0
 263 0032 284B     		ldr	r3, .L31+4
 264 0034 1A60     		str	r2, [r3]
  87:Generated_Source\PSoC6\pdl\drivers/peripheral/ipc/cy_ipc_sema.c **** 
  88:Generated_Source\PSoC6\pdl\drivers/peripheral/ipc/cy_ipc_sema.c ****             retStatus = CY_IPC_SEMA_SUCCESS;
 265              		.loc 2 88 0
 266 0036 0023     		movs	r3, #0
 267 0038 7B61     		str	r3, [r7, #20]
 268 003a 43E0     		b	.L21
 269              	.L22:
  89:Generated_Source\PSoC6\pdl\drivers/peripheral/ipc/cy_ipc_sema.c ****         }
  90:Generated_Source\PSoC6\pdl\drivers/peripheral/ipc/cy_ipc_sema.c **** 
  91:Generated_Source\PSoC6\pdl\drivers/peripheral/ipc/cy_ipc_sema.c ****         /* Check for non Null pointers and count value */
  92:Generated_Source\PSoC6\pdl\drivers/peripheral/ipc/cy_ipc_sema.c ****         else if ((NULL != memPtr) && (0u != count))
 270              		.loc 2 92 0
 271 003c 7B68     		ldr	r3, [r7, #4]
 272 003e 002B     		cmp	r3, #0
 273 0040 3ED0     		beq	.L23
 274              		.loc 2 92 0 is_stmt 0 discriminator 1
 275 0042 BB68     		ldr	r3, [r7, #8]
 276 0044 002B     		cmp	r3, #0
ARM GAS  C:\Users\salaz\AppData\Local\Temp\ccFFISlC.s 			page 24


 277 0046 3BD0     		beq	.L23
  93:Generated_Source\PSoC6\pdl\drivers/peripheral/ipc/cy_ipc_sema.c ****         {
  94:Generated_Source\PSoC6\pdl\drivers/peripheral/ipc/cy_ipc_sema.c ****             /* Check if semaphore count is a multiple of 32 */
  95:Generated_Source\PSoC6\pdl\drivers/peripheral/ipc/cy_ipc_sema.c ****             if( 0ul == (count & CY_IPC_SEMA_PER_WORD_MASK))
 278              		.loc 2 95 0 is_stmt 1
 279 0048 BB68     		ldr	r3, [r7, #8]
 280 004a 1F22     		movs	r2, #31
 281 004c 1340     		ands	r3, r2
 282 004e 34D1     		bne	.L24
  96:Generated_Source\PSoC6\pdl\drivers/peripheral/ipc/cy_ipc_sema.c ****             {
  97:Generated_Source\PSoC6\pdl\drivers/peripheral/ipc/cy_ipc_sema.c ****                 cy_semaIpcStruct = Cy_IPC_Drv_GetIpcBaseAddress(ipcChannel);
 283              		.loc 2 97 0
 284 0050 FB68     		ldr	r3, [r7, #12]
 285 0052 1800     		movs	r0, r3
 286 0054 FFF7FEFF 		bl	Cy_IPC_Drv_GetIpcBaseAddress
 287 0058 0200     		movs	r2, r0
 288 005a 1E4B     		ldr	r3, .L31+4
 289 005c 1A60     		str	r2, [r3]
  98:Generated_Source\PSoC6\pdl\drivers/peripheral/ipc/cy_ipc_sema.c **** 
  99:Generated_Source\PSoC6\pdl\drivers/peripheral/ipc/cy_ipc_sema.c ****                 cy_semaData.maxSema  = count;
 290              		.loc 2 99 0
 291 005e 1E4B     		ldr	r3, .L31+8
 292 0060 BA68     		ldr	r2, [r7, #8]
 293 0062 1A60     		str	r2, [r3]
 100:Generated_Source\PSoC6\pdl\drivers/peripheral/ipc/cy_ipc_sema.c ****                 cy_semaData.arrayPtr = memPtr;
 294              		.loc 2 100 0
 295 0064 1C4B     		ldr	r3, .L31+8
 296 0066 7A68     		ldr	r2, [r7, #4]
 297 0068 5A60     		str	r2, [r3, #4]
 101:Generated_Source\PSoC6\pdl\drivers/peripheral/ipc/cy_ipc_sema.c **** 
 102:Generated_Source\PSoC6\pdl\drivers/peripheral/ipc/cy_ipc_sema.c ****                 /* Initialize all semaphores to released */
 103:Generated_Source\PSoC6\pdl\drivers/peripheral/ipc/cy_ipc_sema.c ****                 (void)memset(cy_semaData.arrayPtr, 0, (count /8u));
 298              		.loc 2 103 0
 299 006a 1B4B     		ldr	r3, .L31+8
 300 006c 5868     		ldr	r0, [r3, #4]
 301 006e BB68     		ldr	r3, [r7, #8]
 302 0070 DB08     		lsrs	r3, r3, #3
 303 0072 1A00     		movs	r2, r3
 304 0074 0021     		movs	r1, #0
 305 0076 FFF7FEFF 		bl	memset
 104:Generated_Source\PSoC6\pdl\drivers/peripheral/ipc/cy_ipc_sema.c **** 
 105:Generated_Source\PSoC6\pdl\drivers/peripheral/ipc/cy_ipc_sema.c ****                 /* Make sure semaphores start out released.  */
 106:Generated_Source\PSoC6\pdl\drivers/peripheral/ipc/cy_ipc_sema.c ****                 /* Ignore the return value since it is OK if it was already released. */
 107:Generated_Source\PSoC6\pdl\drivers/peripheral/ipc/cy_ipc_sema.c ****                 (void) Cy_IPC_Drv_LockRelease (cy_semaIpcStruct, CY_IPC_NO_NOTIFICATION);
 306              		.loc 2 107 0
 307 007a 164B     		ldr	r3, .L31+4
 308 007c 1B68     		ldr	r3, [r3]
 309 007e 0021     		movs	r1, #0
 310 0080 1800     		movs	r0, r3
 311 0082 FFF7FEFF 		bl	Cy_IPC_Drv_LockRelease
 108:Generated_Source\PSoC6\pdl\drivers/peripheral/ipc/cy_ipc_sema.c **** 
 109:Generated_Source\PSoC6\pdl\drivers/peripheral/ipc/cy_ipc_sema.c ****                  /* Set the IPC Data with the pointer to the array. */
 110:Generated_Source\PSoC6\pdl\drivers/peripheral/ipc/cy_ipc_sema.c ****                 if( CY_IPC_DRV_SUCCESS == Cy_IPC_Drv_SendMsgPtr (cy_semaIpcStruct, CY_IPC_NO_NOTIFI
 312              		.loc 2 110 0
 313 0086 134B     		ldr	r3, .L31+4
 314 0088 1B68     		ldr	r3, [r3]
 315 008a 134A     		ldr	r2, .L31+8
ARM GAS  C:\Users\salaz\AppData\Local\Temp\ccFFISlC.s 			page 25


 316 008c 0021     		movs	r1, #0
 317 008e 1800     		movs	r0, r3
 318 0090 FFF7FEFF 		bl	Cy_IPC_Drv_SendMsgPtr
 319 0094 031E     		subs	r3, r0, #0
 320 0096 0DD1     		bne	.L25
 111:Generated_Source\PSoC6\pdl\drivers/peripheral/ipc/cy_ipc_sema.c ****                 {
 112:Generated_Source\PSoC6\pdl\drivers/peripheral/ipc/cy_ipc_sema.c ****                     if(CY_IPC_DRV_SUCCESS == Cy_IPC_Drv_LockRelease (cy_semaIpcStruct, CY_IPC_NO_NO
 321              		.loc 2 112 0
 322 0098 0E4B     		ldr	r3, .L31+4
 323 009a 1B68     		ldr	r3, [r3]
 324 009c 0021     		movs	r1, #0
 325 009e 1800     		movs	r0, r3
 326 00a0 FFF7FEFF 		bl	Cy_IPC_Drv_LockRelease
 327 00a4 031E     		subs	r3, r0, #0
 328 00a6 02D1     		bne	.L26
 113:Generated_Source\PSoC6\pdl\drivers/peripheral/ipc/cy_ipc_sema.c ****                     {
 114:Generated_Source\PSoC6\pdl\drivers/peripheral/ipc/cy_ipc_sema.c ****                         retStatus = CY_IPC_SEMA_SUCCESS;
 329              		.loc 2 114 0
 330 00a8 0023     		movs	r3, #0
 331 00aa 7B61     		str	r3, [r7, #20]
  95:Generated_Source\PSoC6\pdl\drivers/peripheral/ipc/cy_ipc_sema.c ****             {
 332              		.loc 2 95 0
 333 00ac 0AE0     		b	.L21
 334              	.L26:
 115:Generated_Source\PSoC6\pdl\drivers/peripheral/ipc/cy_ipc_sema.c ****                     }
 116:Generated_Source\PSoC6\pdl\drivers/peripheral/ipc/cy_ipc_sema.c ****                     else
 117:Generated_Source\PSoC6\pdl\drivers/peripheral/ipc/cy_ipc_sema.c ****                     {
 118:Generated_Source\PSoC6\pdl\drivers/peripheral/ipc/cy_ipc_sema.c ****                         /* IPC channel not released, still semaphored */
 119:Generated_Source\PSoC6\pdl\drivers/peripheral/ipc/cy_ipc_sema.c ****                         retStatus = CY_IPC_SEMA_ERROR_LOCKED;
 335              		.loc 2 119 0
 336 00ae 0B4B     		ldr	r3, .L31+12
 337 00b0 7B61     		str	r3, [r7, #20]
  95:Generated_Source\PSoC6\pdl\drivers/peripheral/ipc/cy_ipc_sema.c ****             {
 338              		.loc 2 95 0
 339 00b2 07E0     		b	.L21
 340              	.L25:
 120:Generated_Source\PSoC6\pdl\drivers/peripheral/ipc/cy_ipc_sema.c ****                     }
 121:Generated_Source\PSoC6\pdl\drivers/peripheral/ipc/cy_ipc_sema.c ****                 }
 122:Generated_Source\PSoC6\pdl\drivers/peripheral/ipc/cy_ipc_sema.c ****                 else
 123:Generated_Source\PSoC6\pdl\drivers/peripheral/ipc/cy_ipc_sema.c ****                 {
 124:Generated_Source\PSoC6\pdl\drivers/peripheral/ipc/cy_ipc_sema.c ****                     /* Could not acquire semaphore channel */
 125:Generated_Source\PSoC6\pdl\drivers/peripheral/ipc/cy_ipc_sema.c ****                     retStatus = CY_IPC_SEMA_ERROR_LOCKED;
 341              		.loc 2 125 0
 342 00b4 094B     		ldr	r3, .L31+12
 343 00b6 7B61     		str	r3, [r7, #20]
  95:Generated_Source\PSoC6\pdl\drivers/peripheral/ipc/cy_ipc_sema.c ****             {
 344              		.loc 2 95 0
 345 00b8 04E0     		b	.L21
 346              	.L24:
 126:Generated_Source\PSoC6\pdl\drivers/peripheral/ipc/cy_ipc_sema.c ****                 }
 127:Generated_Source\PSoC6\pdl\drivers/peripheral/ipc/cy_ipc_sema.c ****             }
 128:Generated_Source\PSoC6\pdl\drivers/peripheral/ipc/cy_ipc_sema.c ****             else
 129:Generated_Source\PSoC6\pdl\drivers/peripheral/ipc/cy_ipc_sema.c ****             {
 130:Generated_Source\PSoC6\pdl\drivers/peripheral/ipc/cy_ipc_sema.c ****                 retStatus = CY_IPC_SEMA_BAD_PARAM;
 347              		.loc 2 130 0
 348 00ba 054B     		ldr	r3, .L31
 349 00bc 7B61     		str	r3, [r7, #20]
ARM GAS  C:\Users\salaz\AppData\Local\Temp\ccFFISlC.s 			page 26


  95:Generated_Source\PSoC6\pdl\drivers/peripheral/ipc/cy_ipc_sema.c ****             {
 350              		.loc 2 95 0
 351 00be 01E0     		b	.L21
 352              	.L23:
 131:Generated_Source\PSoC6\pdl\drivers/peripheral/ipc/cy_ipc_sema.c ****             }
 132:Generated_Source\PSoC6\pdl\drivers/peripheral/ipc/cy_ipc_sema.c ****         }
 133:Generated_Source\PSoC6\pdl\drivers/peripheral/ipc/cy_ipc_sema.c ****         else
 134:Generated_Source\PSoC6\pdl\drivers/peripheral/ipc/cy_ipc_sema.c ****         {
 135:Generated_Source\PSoC6\pdl\drivers/peripheral/ipc/cy_ipc_sema.c ****             retStatus = CY_IPC_SEMA_BAD_PARAM;
 353              		.loc 2 135 0
 354 00c0 034B     		ldr	r3, .L31
 355 00c2 7B61     		str	r3, [r7, #20]
 356              	.L21:
 136:Generated_Source\PSoC6\pdl\drivers/peripheral/ipc/cy_ipc_sema.c ****         }
 137:Generated_Source\PSoC6\pdl\drivers/peripheral/ipc/cy_ipc_sema.c ****     }
 138:Generated_Source\PSoC6\pdl\drivers/peripheral/ipc/cy_ipc_sema.c **** 
 139:Generated_Source\PSoC6\pdl\drivers/peripheral/ipc/cy_ipc_sema.c ****     return(retStatus);
 357              		.loc 2 139 0
 358 00c4 7B69     		ldr	r3, [r7, #20]
 140:Generated_Source\PSoC6\pdl\drivers/peripheral/ipc/cy_ipc_sema.c **** }
 359              		.loc 2 140 0
 360 00c6 1800     		movs	r0, r3
 361 00c8 BD46     		mov	sp, r7
 362 00ca 06B0     		add	sp, sp, #24
 363              		@ sp needed
 364 00cc 80BD     		pop	{r7, pc}
 365              	.L32:
 366 00ce C046     		.align	2
 367              	.L31:
 368 00d0 03018A00 		.word	9044227
 369 00d4 00000000 		.word	cy_semaIpcStruct
 370 00d8 04000000 		.word	cy_semaData.9586
 371 00dc 01018A00 		.word	9044225
 372              		.cfi_endproc
 373              	.LFE55:
 374              		.size	Cy_IPC_Sema_Init, .-Cy_IPC_Sema_Init
 375              		.section	.text.Cy_IPC_Sema_Set,"ax",%progbits
 376              		.align	2
 377              		.global	Cy_IPC_Sema_Set
 378              		.code	16
 379              		.thumb_func
 380              		.type	Cy_IPC_Sema_Set, %function
 381              	Cy_IPC_Sema_Set:
 382              	.LFB56:
 141:Generated_Source\PSoC6\pdl\drivers/peripheral/ipc/cy_ipc_sema.c **** 
 142:Generated_Source\PSoC6\pdl\drivers/peripheral/ipc/cy_ipc_sema.c **** /*******************************************************************************
 143:Generated_Source\PSoC6\pdl\drivers/peripheral/ipc/cy_ipc_sema.c **** * Function Name: Cy_IPC_Sema_Set
 144:Generated_Source\PSoC6\pdl\drivers/peripheral/ipc/cy_ipc_sema.c **** ****************************************************************************//**
 145:Generated_Source\PSoC6\pdl\drivers/peripheral/ipc/cy_ipc_sema.c **** *
 146:Generated_Source\PSoC6\pdl\drivers/peripheral/ipc/cy_ipc_sema.c **** * This function tries to acquire a semaphore. If the
 147:Generated_Source\PSoC6\pdl\drivers/peripheral/ipc/cy_ipc_sema.c **** * semaphore is not available, this function returns immediately with
 148:Generated_Source\PSoC6\pdl\drivers/peripheral/ipc/cy_ipc_sema.c **** * CY_IPC_SEMA_LOCKED.
 149:Generated_Source\PSoC6\pdl\drivers/peripheral/ipc/cy_ipc_sema.c **** *
 150:Generated_Source\PSoC6\pdl\drivers/peripheral/ipc/cy_ipc_sema.c **** * It first acquires the IPC channel that is used for all the semaphores, sets
 151:Generated_Source\PSoC6\pdl\drivers/peripheral/ipc/cy_ipc_sema.c **** * the semaphore if it is cleared, then releases the IPC channel used for the
 152:Generated_Source\PSoC6\pdl\drivers/peripheral/ipc/cy_ipc_sema.c **** * semaphore.
 153:Generated_Source\PSoC6\pdl\drivers/peripheral/ipc/cy_ipc_sema.c **** *
ARM GAS  C:\Users\salaz\AppData\Local\Temp\ccFFISlC.s 			page 27


 154:Generated_Source\PSoC6\pdl\drivers/peripheral/ipc/cy_ipc_sema.c **** * \param semaNumber
 155:Generated_Source\PSoC6\pdl\drivers/peripheral/ipc/cy_ipc_sema.c **** *  The semaphore number to acquire.
 156:Generated_Source\PSoC6\pdl\drivers/peripheral/ipc/cy_ipc_sema.c **** *
 157:Generated_Source\PSoC6\pdl\drivers/peripheral/ipc/cy_ipc_sema.c **** * \param preemptable
 158:Generated_Source\PSoC6\pdl\drivers/peripheral/ipc/cy_ipc_sema.c **** *  When this parameter is enabled the function can be preempted by another
 159:Generated_Source\PSoC6\pdl\drivers/peripheral/ipc/cy_ipc_sema.c **** *  task or other forms of context switching in an RTOS environment.
 160:Generated_Source\PSoC6\pdl\drivers/peripheral/ipc/cy_ipc_sema.c **** *
 161:Generated_Source\PSoC6\pdl\drivers/peripheral/ipc/cy_ipc_sema.c **** * \note
 162:Generated_Source\PSoC6\pdl\drivers/peripheral/ipc/cy_ipc_sema.c **** *  If <b>preemptable</b> is enabled (true), the user must ensure that there are
 163:Generated_Source\PSoC6\pdl\drivers/peripheral/ipc/cy_ipc_sema.c **** *  no deadlocks in the system, which can be caused by an interrupt that occurs
 164:Generated_Source\PSoC6\pdl\drivers/peripheral/ipc/cy_ipc_sema.c **** *  after the IPC channel is locked. Unless the user is ready to handle IPC
 165:Generated_Source\PSoC6\pdl\drivers/peripheral/ipc/cy_ipc_sema.c **** *  channel locks correctly at the application level, set <b>premptable</b> to
 166:Generated_Source\PSoC6\pdl\drivers/peripheral/ipc/cy_ipc_sema.c **** *  false.
 167:Generated_Source\PSoC6\pdl\drivers/peripheral/ipc/cy_ipc_sema.c **** *
 168:Generated_Source\PSoC6\pdl\drivers/peripheral/ipc/cy_ipc_sema.c **** * \return Status of the operation
 169:Generated_Source\PSoC6\pdl\drivers/peripheral/ipc/cy_ipc_sema.c **** *    \retval CY_IPC_SEMA_SUCCESS:      The semaphore was set successfully
 170:Generated_Source\PSoC6\pdl\drivers/peripheral/ipc/cy_ipc_sema.c **** *    \retval CY_IPC_SEMA_LOCKED:       The semaphore channel is busy or locked
 171:Generated_Source\PSoC6\pdl\drivers/peripheral/ipc/cy_ipc_sema.c **** *                              by another process
 172:Generated_Source\PSoC6\pdl\drivers/peripheral/ipc/cy_ipc_sema.c **** *    \retval CY_IPC_SEMA_NOT_ACQUIRED: Semaphore was already set
 173:Generated_Source\PSoC6\pdl\drivers/peripheral/ipc/cy_ipc_sema.c **** *    \retval CY_IPC_SEMA_OUT_OF_RANGE: The semaphore number is not valid
 174:Generated_Source\PSoC6\pdl\drivers/peripheral/ipc/cy_ipc_sema.c **** *
 175:Generated_Source\PSoC6\pdl\drivers/peripheral/ipc/cy_ipc_sema.c **** * \funcusage
 176:Generated_Source\PSoC6\pdl\drivers/peripheral/ipc/cy_ipc_sema.c **** * \snippet IPC_sut_01.cydsn/main_cm4.c snippet_Cy_IPC_Sema_Set
 177:Generated_Source\PSoC6\pdl\drivers/peripheral/ipc/cy_ipc_sema.c **** *
 178:Generated_Source\PSoC6\pdl\drivers/peripheral/ipc/cy_ipc_sema.c **** *******************************************************************************/
 179:Generated_Source\PSoC6\pdl\drivers/peripheral/ipc/cy_ipc_sema.c **** cy_en_ipcsema_status_t Cy_IPC_Sema_Set(uint32_t semaNumber, bool preemptable)
 180:Generated_Source\PSoC6\pdl\drivers/peripheral/ipc/cy_ipc_sema.c **** {
 383              		.loc 2 180 0
 384              		.cfi_startproc
 385              		@ args = 0, pretend = 0, frame = 32
 386              		@ frame_needed = 1, uses_anonymous_args = 0
 387 0000 80B5     		push	{r7, lr}
 388              		.cfi_def_cfa_offset 8
 389              		.cfi_offset 7, -8
 390              		.cfi_offset 14, -4
 391 0002 88B0     		sub	sp, sp, #32
 392              		.cfi_def_cfa_offset 40
 393 0004 00AF     		add	r7, sp, #0
 394              		.cfi_def_cfa_register 7
 395 0006 7860     		str	r0, [r7, #4]
 396 0008 0A00     		movs	r2, r1
 397 000a FB1C     		adds	r3, r7, #3
 398 000c 1A70     		strb	r2, [r3]
 181:Generated_Source\PSoC6\pdl\drivers/peripheral/ipc/cy_ipc_sema.c ****     uint32_t semaIndex;
 182:Generated_Source\PSoC6\pdl\drivers/peripheral/ipc/cy_ipc_sema.c ****     uint32_t semaMask;
 183:Generated_Source\PSoC6\pdl\drivers/peripheral/ipc/cy_ipc_sema.c ****     uint32_t interruptState = 0ul;
 399              		.loc 2 183 0
 400 000e 0023     		movs	r3, #0
 401 0010 FB61     		str	r3, [r7, #28]
 184:Generated_Source\PSoC6\pdl\drivers/peripheral/ipc/cy_ipc_sema.c **** 
 185:Generated_Source\PSoC6\pdl\drivers/peripheral/ipc/cy_ipc_sema.c ****     cy_stc_ipc_sema_t      *semaStruct;
 186:Generated_Source\PSoC6\pdl\drivers/peripheral/ipc/cy_ipc_sema.c ****     cy_en_ipcsema_status_t  retStatus = CY_IPC_SEMA_LOCKED;
 402              		.loc 2 186 0
 403 0012 304B     		ldr	r3, .L42
 404 0014 BB61     		str	r3, [r7, #24]
 187:Generated_Source\PSoC6\pdl\drivers/peripheral/ipc/cy_ipc_sema.c **** 
 188:Generated_Source\PSoC6\pdl\drivers/peripheral/ipc/cy_ipc_sema.c ****     /* Get pointer to structure */
ARM GAS  C:\Users\salaz\AppData\Local\Temp\ccFFISlC.s 			page 28


 189:Generated_Source\PSoC6\pdl\drivers/peripheral/ipc/cy_ipc_sema.c ****     semaStruct = (cy_stc_ipc_sema_t *)Cy_IPC_Drv_ReadDataValue(cy_semaIpcStruct);
 405              		.loc 2 189 0
 406 0016 304B     		ldr	r3, .L42+4
 407 0018 1B68     		ldr	r3, [r3]
 408 001a 1800     		movs	r0, r3
 409 001c FFF7FEFF 		bl	Cy_IPC_Drv_ReadDataValue
 410 0020 0300     		movs	r3, r0
 411 0022 7B61     		str	r3, [r7, #20]
 190:Generated_Source\PSoC6\pdl\drivers/peripheral/ipc/cy_ipc_sema.c **** 
 191:Generated_Source\PSoC6\pdl\drivers/peripheral/ipc/cy_ipc_sema.c ****     if (semaNumber < semaStruct->maxSema)
 412              		.loc 2 191 0
 413 0024 7B69     		ldr	r3, [r7, #20]
 414 0026 1A68     		ldr	r2, [r3]
 415 0028 7B68     		ldr	r3, [r7, #4]
 416 002a 9A42     		cmp	r2, r3
 417 002c 4AD9     		bls	.L34
 192:Generated_Source\PSoC6\pdl\drivers/peripheral/ipc/cy_ipc_sema.c ****     {
 193:Generated_Source\PSoC6\pdl\drivers/peripheral/ipc/cy_ipc_sema.c ****         semaIndex = semaNumber / CY_IPC_SEMA_PER_WORD;
 418              		.loc 2 193 0
 419 002e 7B68     		ldr	r3, [r7, #4]
 420 0030 5B09     		lsrs	r3, r3, #5
 421 0032 3B61     		str	r3, [r7, #16]
 194:Generated_Source\PSoC6\pdl\drivers/peripheral/ipc/cy_ipc_sema.c ****         semaMask = (uint32_t)(1ul << (semaNumber - (semaIndex * CY_IPC_SEMA_PER_WORD) ));
 422              		.loc 2 194 0
 423 0034 3B69     		ldr	r3, [r7, #16]
 424 0036 5B01     		lsls	r3, r3, #5
 425 0038 7A68     		ldr	r2, [r7, #4]
 426 003a D31A     		subs	r3, r2, r3
 427 003c 0122     		movs	r2, #1
 428 003e 9A40     		lsls	r2, r2, r3
 429 0040 1300     		movs	r3, r2
 430 0042 FB60     		str	r3, [r7, #12]
 195:Generated_Source\PSoC6\pdl\drivers/peripheral/ipc/cy_ipc_sema.c **** 
 196:Generated_Source\PSoC6\pdl\drivers/peripheral/ipc/cy_ipc_sema.c ****         if (!preemptable)
 431              		.loc 2 196 0
 432 0044 FB1C     		adds	r3, r7, #3
 433 0046 1B78     		ldrb	r3, [r3]
 434 0048 0122     		movs	r2, #1
 435 004a 5340     		eors	r3, r2
 436 004c DBB2     		uxtb	r3, r3
 437 004e 002B     		cmp	r3, #0
 438 0050 03D0     		beq	.L35
 197:Generated_Source\PSoC6\pdl\drivers/peripheral/ipc/cy_ipc_sema.c ****         {
 198:Generated_Source\PSoC6\pdl\drivers/peripheral/ipc/cy_ipc_sema.c ****             interruptState = Cy_SysLib_EnterCriticalSection();
 439              		.loc 2 198 0
 440 0052 FFF7FEFF 		bl	Cy_SysLib_EnterCriticalSection
 441 0056 0300     		movs	r3, r0
 442 0058 FB61     		str	r3, [r7, #28]
 443              	.L35:
 199:Generated_Source\PSoC6\pdl\drivers/peripheral/ipc/cy_ipc_sema.c ****         }
 200:Generated_Source\PSoC6\pdl\drivers/peripheral/ipc/cy_ipc_sema.c **** 
 201:Generated_Source\PSoC6\pdl\drivers/peripheral/ipc/cy_ipc_sema.c ****         /* Check to make sure the IPC channel is released
 202:Generated_Source\PSoC6\pdl\drivers/peripheral/ipc/cy_ipc_sema.c ****            If so, check if specific channel can be locked. */
 203:Generated_Source\PSoC6\pdl\drivers/peripheral/ipc/cy_ipc_sema.c ****         if(CY_IPC_DRV_SUCCESS == Cy_IPC_Drv_LockAcquire (cy_semaIpcStruct))
 444              		.loc 2 203 0
 445 005a 1F4B     		ldr	r3, .L42+4
 446 005c 1B68     		ldr	r3, [r3]
ARM GAS  C:\Users\salaz\AppData\Local\Temp\ccFFISlC.s 			page 29


 447 005e 1800     		movs	r0, r3
 448 0060 FFF7FEFF 		bl	Cy_IPC_Drv_LockAcquire
 449 0064 031E     		subs	r3, r0, #0
 450 0066 21D1     		bne	.L36
 204:Generated_Source\PSoC6\pdl\drivers/peripheral/ipc/cy_ipc_sema.c ****         {
 205:Generated_Source\PSoC6\pdl\drivers/peripheral/ipc/cy_ipc_sema.c ****             if((semaStruct->arrayPtr[semaIndex] & semaMask) == 0ul)
 451              		.loc 2 205 0
 452 0068 7B69     		ldr	r3, [r7, #20]
 453 006a 5A68     		ldr	r2, [r3, #4]
 454 006c 3B69     		ldr	r3, [r7, #16]
 455 006e 9B00     		lsls	r3, r3, #2
 456 0070 D318     		adds	r3, r2, r3
 457 0072 1B68     		ldr	r3, [r3]
 458 0074 FA68     		ldr	r2, [r7, #12]
 459 0076 1340     		ands	r3, r2
 460 0078 10D1     		bne	.L37
 206:Generated_Source\PSoC6\pdl\drivers/peripheral/ipc/cy_ipc_sema.c ****             {
 207:Generated_Source\PSoC6\pdl\drivers/peripheral/ipc/cy_ipc_sema.c ****                 semaStruct->arrayPtr[semaIndex] |= semaMask;
 461              		.loc 2 207 0
 462 007a 7B69     		ldr	r3, [r7, #20]
 463 007c 5A68     		ldr	r2, [r3, #4]
 464 007e 3B69     		ldr	r3, [r7, #16]
 465 0080 9B00     		lsls	r3, r3, #2
 466 0082 D318     		adds	r3, r2, r3
 467 0084 7A69     		ldr	r2, [r7, #20]
 468 0086 5168     		ldr	r1, [r2, #4]
 469 0088 3A69     		ldr	r2, [r7, #16]
 470 008a 9200     		lsls	r2, r2, #2
 471 008c 8A18     		adds	r2, r1, r2
 472 008e 1168     		ldr	r1, [r2]
 473 0090 FA68     		ldr	r2, [r7, #12]
 474 0092 0A43     		orrs	r2, r1
 475 0094 1A60     		str	r2, [r3]
 208:Generated_Source\PSoC6\pdl\drivers/peripheral/ipc/cy_ipc_sema.c ****                 retStatus = CY_IPC_SEMA_SUCCESS;
 476              		.loc 2 208 0
 477 0096 0023     		movs	r3, #0
 478 0098 BB61     		str	r3, [r7, #24]
 479 009a 01E0     		b	.L38
 480              	.L37:
 209:Generated_Source\PSoC6\pdl\drivers/peripheral/ipc/cy_ipc_sema.c ****             }
 210:Generated_Source\PSoC6\pdl\drivers/peripheral/ipc/cy_ipc_sema.c ****             else
 211:Generated_Source\PSoC6\pdl\drivers/peripheral/ipc/cy_ipc_sema.c ****             {
 212:Generated_Source\PSoC6\pdl\drivers/peripheral/ipc/cy_ipc_sema.c ****                 retStatus = CY_IPC_SEMA_NOT_ACQUIRED;
 481              		.loc 2 212 0
 482 009c 0F4B     		ldr	r3, .L42+8
 483 009e BB61     		str	r3, [r7, #24]
 484              	.L38:
 213:Generated_Source\PSoC6\pdl\drivers/peripheral/ipc/cy_ipc_sema.c ****             }
 214:Generated_Source\PSoC6\pdl\drivers/peripheral/ipc/cy_ipc_sema.c **** 
 215:Generated_Source\PSoC6\pdl\drivers/peripheral/ipc/cy_ipc_sema.c ****             /* Release, but do not trigger a release event */
 216:Generated_Source\PSoC6\pdl\drivers/peripheral/ipc/cy_ipc_sema.c ****             (void) Cy_IPC_Drv_LockRelease (cy_semaIpcStruct, CY_IPC_NO_NOTIFICATION);
 485              		.loc 2 216 0
 486 00a0 0D4B     		ldr	r3, .L42+4
 487 00a2 1B68     		ldr	r3, [r3]
 488 00a4 0021     		movs	r1, #0
 489 00a6 1800     		movs	r0, r3
 490 00a8 FFF7FEFF 		bl	Cy_IPC_Drv_LockRelease
ARM GAS  C:\Users\salaz\AppData\Local\Temp\ccFFISlC.s 			page 30


 491              	.L36:
 217:Generated_Source\PSoC6\pdl\drivers/peripheral/ipc/cy_ipc_sema.c ****         }
 218:Generated_Source\PSoC6\pdl\drivers/peripheral/ipc/cy_ipc_sema.c **** 
 219:Generated_Source\PSoC6\pdl\drivers/peripheral/ipc/cy_ipc_sema.c ****         if (!preemptable)
 492              		.loc 2 219 0
 493 00ac FB1C     		adds	r3, r7, #3
 494 00ae 1B78     		ldrb	r3, [r3]
 495 00b0 0122     		movs	r2, #1
 496 00b2 5340     		eors	r3, r2
 497 00b4 DBB2     		uxtb	r3, r3
 498 00b6 002B     		cmp	r3, #0
 499 00b8 06D0     		beq	.L40
 220:Generated_Source\PSoC6\pdl\drivers/peripheral/ipc/cy_ipc_sema.c ****         {
 221:Generated_Source\PSoC6\pdl\drivers/peripheral/ipc/cy_ipc_sema.c ****             Cy_SysLib_ExitCriticalSection(interruptState);
 500              		.loc 2 221 0
 501 00ba FB69     		ldr	r3, [r7, #28]
 502 00bc 1800     		movs	r0, r3
 503 00be FFF7FEFF 		bl	Cy_SysLib_ExitCriticalSection
 504 00c2 01E0     		b	.L40
 505              	.L34:
 222:Generated_Source\PSoC6\pdl\drivers/peripheral/ipc/cy_ipc_sema.c ****         }
 223:Generated_Source\PSoC6\pdl\drivers/peripheral/ipc/cy_ipc_sema.c ****     }
 224:Generated_Source\PSoC6\pdl\drivers/peripheral/ipc/cy_ipc_sema.c ****     else
 225:Generated_Source\PSoC6\pdl\drivers/peripheral/ipc/cy_ipc_sema.c ****     {
 226:Generated_Source\PSoC6\pdl\drivers/peripheral/ipc/cy_ipc_sema.c ****         retStatus = CY_IPC_SEMA_OUT_OF_RANGE;
 506              		.loc 2 226 0
 507 00c4 064B     		ldr	r3, .L42+12
 508 00c6 BB61     		str	r3, [r7, #24]
 509              	.L40:
 227:Generated_Source\PSoC6\pdl\drivers/peripheral/ipc/cy_ipc_sema.c ****     }
 228:Generated_Source\PSoC6\pdl\drivers/peripheral/ipc/cy_ipc_sema.c **** 
 229:Generated_Source\PSoC6\pdl\drivers/peripheral/ipc/cy_ipc_sema.c ****     return(retStatus);
 510              		.loc 2 229 0
 511 00c8 BB69     		ldr	r3, [r7, #24]
 230:Generated_Source\PSoC6\pdl\drivers/peripheral/ipc/cy_ipc_sema.c **** }
 512              		.loc 2 230 0
 513 00ca 1800     		movs	r0, r3
 514 00cc BD46     		mov	sp, r7
 515 00ce 08B0     		add	sp, sp, #32
 516              		@ sp needed
 517 00d0 80BD     		pop	{r7, pc}
 518              	.L43:
 519 00d2 C046     		.align	2
 520              	.L42:
 521 00d4 03018800 		.word	8913155
 522 00d8 00000000 		.word	cy_semaIpcStruct
 523 00dc 02018800 		.word	8913154
 524 00e0 04018A00 		.word	9044228
 525              		.cfi_endproc
 526              	.LFE56:
 527              		.size	Cy_IPC_Sema_Set, .-Cy_IPC_Sema_Set
 528              		.section	.text.Cy_IPC_Sema_Clear,"ax",%progbits
 529              		.align	2
 530              		.global	Cy_IPC_Sema_Clear
 531              		.code	16
 532              		.thumb_func
 533              		.type	Cy_IPC_Sema_Clear, %function
ARM GAS  C:\Users\salaz\AppData\Local\Temp\ccFFISlC.s 			page 31


 534              	Cy_IPC_Sema_Clear:
 535              	.LFB57:
 231:Generated_Source\PSoC6\pdl\drivers/peripheral/ipc/cy_ipc_sema.c **** 
 232:Generated_Source\PSoC6\pdl\drivers/peripheral/ipc/cy_ipc_sema.c **** 
 233:Generated_Source\PSoC6\pdl\drivers/peripheral/ipc/cy_ipc_sema.c **** /*******************************************************************************
 234:Generated_Source\PSoC6\pdl\drivers/peripheral/ipc/cy_ipc_sema.c **** * Function Name: Cy_IPC_Sema_Clear
 235:Generated_Source\PSoC6\pdl\drivers/peripheral/ipc/cy_ipc_sema.c **** ****************************************************************************//**
 236:Generated_Source\PSoC6\pdl\drivers/peripheral/ipc/cy_ipc_sema.c **** *
 237:Generated_Source\PSoC6\pdl\drivers/peripheral/ipc/cy_ipc_sema.c **** * This functions tries to releases a semaphore.
 238:Generated_Source\PSoC6\pdl\drivers/peripheral/ipc/cy_ipc_sema.c **** *
 239:Generated_Source\PSoC6\pdl\drivers/peripheral/ipc/cy_ipc_sema.c **** * It first acquires the IPC channel that is used for all the semaphores, clears
 240:Generated_Source\PSoC6\pdl\drivers/peripheral/ipc/cy_ipc_sema.c **** * the semaphore if it is set, then releases the IPC channel used for the
 241:Generated_Source\PSoC6\pdl\drivers/peripheral/ipc/cy_ipc_sema.c **** * semaphores.
 242:Generated_Source\PSoC6\pdl\drivers/peripheral/ipc/cy_ipc_sema.c **** *
 243:Generated_Source\PSoC6\pdl\drivers/peripheral/ipc/cy_ipc_sema.c **** * \param semaNumber
 244:Generated_Source\PSoC6\pdl\drivers/peripheral/ipc/cy_ipc_sema.c **** *  The index of the semaphore to release.
 245:Generated_Source\PSoC6\pdl\drivers/peripheral/ipc/cy_ipc_sema.c **** *
 246:Generated_Source\PSoC6\pdl\drivers/peripheral/ipc/cy_ipc_sema.c **** * \param preemptable
 247:Generated_Source\PSoC6\pdl\drivers/peripheral/ipc/cy_ipc_sema.c **** *  When this parameter is enabled the function can be preempted by another
 248:Generated_Source\PSoC6\pdl\drivers/peripheral/ipc/cy_ipc_sema.c **** *  task or other forms of context switching in an RTOS environment.
 249:Generated_Source\PSoC6\pdl\drivers/peripheral/ipc/cy_ipc_sema.c **** *
 250:Generated_Source\PSoC6\pdl\drivers/peripheral/ipc/cy_ipc_sema.c **** * \note
 251:Generated_Source\PSoC6\pdl\drivers/peripheral/ipc/cy_ipc_sema.c **** *  If <b>preemptable</b> is enabled (true), the user must ensure that there are
 252:Generated_Source\PSoC6\pdl\drivers/peripheral/ipc/cy_ipc_sema.c **** *  no deadlocks in the system, which can be caused by an interrupt that occurs
 253:Generated_Source\PSoC6\pdl\drivers/peripheral/ipc/cy_ipc_sema.c **** *  after the IPC channel is locked. Unless the user is ready to handle IPC
 254:Generated_Source\PSoC6\pdl\drivers/peripheral/ipc/cy_ipc_sema.c **** *  channel locks correctly at the application level, set <b>premptable</b> to
 255:Generated_Source\PSoC6\pdl\drivers/peripheral/ipc/cy_ipc_sema.c **** *  false.
 256:Generated_Source\PSoC6\pdl\drivers/peripheral/ipc/cy_ipc_sema.c **** *
 257:Generated_Source\PSoC6\pdl\drivers/peripheral/ipc/cy_ipc_sema.c **** * \return Status of the operation
 258:Generated_Source\PSoC6\pdl\drivers/peripheral/ipc/cy_ipc_sema.c **** *    \retval CY_IPC_SEMA_SUCCESS:         The semaphore was cleared successfully
 259:Generated_Source\PSoC6\pdl\drivers/peripheral/ipc/cy_ipc_sema.c **** *    \retval CY_IPC_SEMA_NOT_ACQUIRED:    The semaphore was already cleared
 260:Generated_Source\PSoC6\pdl\drivers/peripheral/ipc/cy_ipc_sema.c **** *    \retval CY_IPC_SEMA_LOCKED:          The semaphore channel was semaphored or busy
 261:Generated_Source\PSoC6\pdl\drivers/peripheral/ipc/cy_ipc_sema.c **** *    \retval CY_IPC_SEMA_OUT_OF_RANGE:    The semaphore number is not valid
 262:Generated_Source\PSoC6\pdl\drivers/peripheral/ipc/cy_ipc_sema.c **** *
 263:Generated_Source\PSoC6\pdl\drivers/peripheral/ipc/cy_ipc_sema.c **** * \funcusage
 264:Generated_Source\PSoC6\pdl\drivers/peripheral/ipc/cy_ipc_sema.c **** * \snippet IPC_sut_01.cydsn/main_cm4.c snippet_Cy_IPC_Sema_Clear
 265:Generated_Source\PSoC6\pdl\drivers/peripheral/ipc/cy_ipc_sema.c **** *
 266:Generated_Source\PSoC6\pdl\drivers/peripheral/ipc/cy_ipc_sema.c **** *******************************************************************************/
 267:Generated_Source\PSoC6\pdl\drivers/peripheral/ipc/cy_ipc_sema.c **** cy_en_ipcsema_status_t Cy_IPC_Sema_Clear(uint32_t semaNumber, bool preemptable)
 268:Generated_Source\PSoC6\pdl\drivers/peripheral/ipc/cy_ipc_sema.c **** {
 536              		.loc 2 268 0
 537              		.cfi_startproc
 538              		@ args = 0, pretend = 0, frame = 32
 539              		@ frame_needed = 1, uses_anonymous_args = 0
 540 0000 80B5     		push	{r7, lr}
 541              		.cfi_def_cfa_offset 8
 542              		.cfi_offset 7, -8
 543              		.cfi_offset 14, -4
 544 0002 88B0     		sub	sp, sp, #32
 545              		.cfi_def_cfa_offset 40
 546 0004 00AF     		add	r7, sp, #0
 547              		.cfi_def_cfa_register 7
 548 0006 7860     		str	r0, [r7, #4]
 549 0008 0A00     		movs	r2, r1
 550 000a FB1C     		adds	r3, r7, #3
 551 000c 1A70     		strb	r2, [r3]
 269:Generated_Source\PSoC6\pdl\drivers/peripheral/ipc/cy_ipc_sema.c ****     uint32_t semaIndex;
ARM GAS  C:\Users\salaz\AppData\Local\Temp\ccFFISlC.s 			page 32


 270:Generated_Source\PSoC6\pdl\drivers/peripheral/ipc/cy_ipc_sema.c ****     uint32_t semaMask;
 271:Generated_Source\PSoC6\pdl\drivers/peripheral/ipc/cy_ipc_sema.c ****     uint32_t interruptState = 0ul;
 552              		.loc 2 271 0
 553 000e 0023     		movs	r3, #0
 554 0010 FB61     		str	r3, [r7, #28]
 272:Generated_Source\PSoC6\pdl\drivers/peripheral/ipc/cy_ipc_sema.c **** 
 273:Generated_Source\PSoC6\pdl\drivers/peripheral/ipc/cy_ipc_sema.c ****     cy_stc_ipc_sema_t      *semaStruct;
 274:Generated_Source\PSoC6\pdl\drivers/peripheral/ipc/cy_ipc_sema.c ****     cy_en_ipcsema_status_t  retStatus = CY_IPC_SEMA_LOCKED;
 555              		.loc 2 274 0
 556 0012 304B     		ldr	r3, .L53
 557 0014 BB61     		str	r3, [r7, #24]
 275:Generated_Source\PSoC6\pdl\drivers/peripheral/ipc/cy_ipc_sema.c **** 
 276:Generated_Source\PSoC6\pdl\drivers/peripheral/ipc/cy_ipc_sema.c ****     /* Get pointer to structure */
 277:Generated_Source\PSoC6\pdl\drivers/peripheral/ipc/cy_ipc_sema.c ****     semaStruct = (cy_stc_ipc_sema_t *)Cy_IPC_Drv_ReadDataValue(cy_semaIpcStruct);
 558              		.loc 2 277 0
 559 0016 304B     		ldr	r3, .L53+4
 560 0018 1B68     		ldr	r3, [r3]
 561 001a 1800     		movs	r0, r3
 562 001c FFF7FEFF 		bl	Cy_IPC_Drv_ReadDataValue
 563 0020 0300     		movs	r3, r0
 564 0022 7B61     		str	r3, [r7, #20]
 278:Generated_Source\PSoC6\pdl\drivers/peripheral/ipc/cy_ipc_sema.c **** 
 279:Generated_Source\PSoC6\pdl\drivers/peripheral/ipc/cy_ipc_sema.c ****     if (semaNumber < semaStruct->maxSema)
 565              		.loc 2 279 0
 566 0024 7B69     		ldr	r3, [r7, #20]
 567 0026 1A68     		ldr	r2, [r3]
 568 0028 7B68     		ldr	r3, [r7, #4]
 569 002a 9A42     		cmp	r2, r3
 570 002c 4BD9     		bls	.L45
 280:Generated_Source\PSoC6\pdl\drivers/peripheral/ipc/cy_ipc_sema.c ****     {
 281:Generated_Source\PSoC6\pdl\drivers/peripheral/ipc/cy_ipc_sema.c ****         semaIndex = semaNumber / CY_IPC_SEMA_PER_WORD;
 571              		.loc 2 281 0
 572 002e 7B68     		ldr	r3, [r7, #4]
 573 0030 5B09     		lsrs	r3, r3, #5
 574 0032 3B61     		str	r3, [r7, #16]
 282:Generated_Source\PSoC6\pdl\drivers/peripheral/ipc/cy_ipc_sema.c ****         semaMask = (uint32_t)(1ul << (semaNumber - (semaIndex * CY_IPC_SEMA_PER_WORD) ));
 575              		.loc 2 282 0
 576 0034 3B69     		ldr	r3, [r7, #16]
 577 0036 5B01     		lsls	r3, r3, #5
 578 0038 7A68     		ldr	r2, [r7, #4]
 579 003a D31A     		subs	r3, r2, r3
 580 003c 0122     		movs	r2, #1
 581 003e 9A40     		lsls	r2, r2, r3
 582 0040 1300     		movs	r3, r2
 583 0042 FB60     		str	r3, [r7, #12]
 283:Generated_Source\PSoC6\pdl\drivers/peripheral/ipc/cy_ipc_sema.c **** 
 284:Generated_Source\PSoC6\pdl\drivers/peripheral/ipc/cy_ipc_sema.c ****         if (!preemptable)
 584              		.loc 2 284 0
 585 0044 FB1C     		adds	r3, r7, #3
 586 0046 1B78     		ldrb	r3, [r3]
 587 0048 0122     		movs	r2, #1
 588 004a 5340     		eors	r3, r2
 589 004c DBB2     		uxtb	r3, r3
 590 004e 002B     		cmp	r3, #0
 591 0050 03D0     		beq	.L46
 285:Generated_Source\PSoC6\pdl\drivers/peripheral/ipc/cy_ipc_sema.c ****         {
 286:Generated_Source\PSoC6\pdl\drivers/peripheral/ipc/cy_ipc_sema.c ****             interruptState = Cy_SysLib_EnterCriticalSection();
ARM GAS  C:\Users\salaz\AppData\Local\Temp\ccFFISlC.s 			page 33


 592              		.loc 2 286 0
 593 0052 FFF7FEFF 		bl	Cy_SysLib_EnterCriticalSection
 594 0056 0300     		movs	r3, r0
 595 0058 FB61     		str	r3, [r7, #28]
 596              	.L46:
 287:Generated_Source\PSoC6\pdl\drivers/peripheral/ipc/cy_ipc_sema.c ****         }
 288:Generated_Source\PSoC6\pdl\drivers/peripheral/ipc/cy_ipc_sema.c **** 
 289:Generated_Source\PSoC6\pdl\drivers/peripheral/ipc/cy_ipc_sema.c ****         /* Check to make sure the IPC channel is released
 290:Generated_Source\PSoC6\pdl\drivers/peripheral/ipc/cy_ipc_sema.c ****            If so, check if specific channel can be locked. */
 291:Generated_Source\PSoC6\pdl\drivers/peripheral/ipc/cy_ipc_sema.c ****         if(CY_IPC_DRV_SUCCESS == Cy_IPC_Drv_LockAcquire (cy_semaIpcStruct))
 597              		.loc 2 291 0
 598 005a 1F4B     		ldr	r3, .L53+4
 599 005c 1B68     		ldr	r3, [r3]
 600 005e 1800     		movs	r0, r3
 601 0060 FFF7FEFF 		bl	Cy_IPC_Drv_LockAcquire
 602 0064 031E     		subs	r3, r0, #0
 603 0066 22D1     		bne	.L47
 292:Generated_Source\PSoC6\pdl\drivers/peripheral/ipc/cy_ipc_sema.c ****         {
 293:Generated_Source\PSoC6\pdl\drivers/peripheral/ipc/cy_ipc_sema.c ****             if((semaStruct->arrayPtr[semaIndex] & semaMask) != 0ul)
 604              		.loc 2 293 0
 605 0068 7B69     		ldr	r3, [r7, #20]
 606 006a 5A68     		ldr	r2, [r3, #4]
 607 006c 3B69     		ldr	r3, [r7, #16]
 608 006e 9B00     		lsls	r3, r3, #2
 609 0070 D318     		adds	r3, r2, r3
 610 0072 1B68     		ldr	r3, [r3]
 611 0074 FA68     		ldr	r2, [r7, #12]
 612 0076 1340     		ands	r3, r2
 613 0078 11D0     		beq	.L48
 294:Generated_Source\PSoC6\pdl\drivers/peripheral/ipc/cy_ipc_sema.c ****             {
 295:Generated_Source\PSoC6\pdl\drivers/peripheral/ipc/cy_ipc_sema.c ****                 semaStruct->arrayPtr[semaIndex] &= ~semaMask;
 614              		.loc 2 295 0
 615 007a 7B69     		ldr	r3, [r7, #20]
 616 007c 5A68     		ldr	r2, [r3, #4]
 617 007e 3B69     		ldr	r3, [r7, #16]
 618 0080 9B00     		lsls	r3, r3, #2
 619 0082 D318     		adds	r3, r2, r3
 620 0084 7A69     		ldr	r2, [r7, #20]
 621 0086 5168     		ldr	r1, [r2, #4]
 622 0088 3A69     		ldr	r2, [r7, #16]
 623 008a 9200     		lsls	r2, r2, #2
 624 008c 8A18     		adds	r2, r1, r2
 625 008e 1268     		ldr	r2, [r2]
 626 0090 F968     		ldr	r1, [r7, #12]
 627 0092 C943     		mvns	r1, r1
 628 0094 0A40     		ands	r2, r1
 629 0096 1A60     		str	r2, [r3]
 296:Generated_Source\PSoC6\pdl\drivers/peripheral/ipc/cy_ipc_sema.c ****                 retStatus = CY_IPC_SEMA_SUCCESS;
 630              		.loc 2 296 0
 631 0098 0023     		movs	r3, #0
 632 009a BB61     		str	r3, [r7, #24]
 633 009c 01E0     		b	.L49
 634              	.L48:
 297:Generated_Source\PSoC6\pdl\drivers/peripheral/ipc/cy_ipc_sema.c ****             }
 298:Generated_Source\PSoC6\pdl\drivers/peripheral/ipc/cy_ipc_sema.c ****             else
 299:Generated_Source\PSoC6\pdl\drivers/peripheral/ipc/cy_ipc_sema.c ****             {
 300:Generated_Source\PSoC6\pdl\drivers/peripheral/ipc/cy_ipc_sema.c ****                 retStatus = CY_IPC_SEMA_NOT_ACQUIRED;
ARM GAS  C:\Users\salaz\AppData\Local\Temp\ccFFISlC.s 			page 34


 635              		.loc 2 300 0
 636 009e 0F4B     		ldr	r3, .L53+8
 637 00a0 BB61     		str	r3, [r7, #24]
 638              	.L49:
 301:Generated_Source\PSoC6\pdl\drivers/peripheral/ipc/cy_ipc_sema.c ****             }
 302:Generated_Source\PSoC6\pdl\drivers/peripheral/ipc/cy_ipc_sema.c **** 
 303:Generated_Source\PSoC6\pdl\drivers/peripheral/ipc/cy_ipc_sema.c ****             /* Release, but do not trigger a release event */
 304:Generated_Source\PSoC6\pdl\drivers/peripheral/ipc/cy_ipc_sema.c ****             (void) Cy_IPC_Drv_LockRelease (cy_semaIpcStruct, CY_IPC_NO_NOTIFICATION);
 639              		.loc 2 304 0
 640 00a2 0D4B     		ldr	r3, .L53+4
 641 00a4 1B68     		ldr	r3, [r3]
 642 00a6 0021     		movs	r1, #0
 643 00a8 1800     		movs	r0, r3
 644 00aa FFF7FEFF 		bl	Cy_IPC_Drv_LockRelease
 645              	.L47:
 305:Generated_Source\PSoC6\pdl\drivers/peripheral/ipc/cy_ipc_sema.c ****         }
 306:Generated_Source\PSoC6\pdl\drivers/peripheral/ipc/cy_ipc_sema.c **** 
 307:Generated_Source\PSoC6\pdl\drivers/peripheral/ipc/cy_ipc_sema.c ****         if (!preemptable)
 646              		.loc 2 307 0
 647 00ae FB1C     		adds	r3, r7, #3
 648 00b0 1B78     		ldrb	r3, [r3]
 649 00b2 0122     		movs	r2, #1
 650 00b4 5340     		eors	r3, r2
 651 00b6 DBB2     		uxtb	r3, r3
 652 00b8 002B     		cmp	r3, #0
 653 00ba 06D0     		beq	.L51
 308:Generated_Source\PSoC6\pdl\drivers/peripheral/ipc/cy_ipc_sema.c ****         {
 309:Generated_Source\PSoC6\pdl\drivers/peripheral/ipc/cy_ipc_sema.c ****             Cy_SysLib_ExitCriticalSection(interruptState);
 654              		.loc 2 309 0
 655 00bc FB69     		ldr	r3, [r7, #28]
 656 00be 1800     		movs	r0, r3
 657 00c0 FFF7FEFF 		bl	Cy_SysLib_ExitCriticalSection
 658 00c4 01E0     		b	.L51
 659              	.L45:
 310:Generated_Source\PSoC6\pdl\drivers/peripheral/ipc/cy_ipc_sema.c ****         }
 311:Generated_Source\PSoC6\pdl\drivers/peripheral/ipc/cy_ipc_sema.c ****     }
 312:Generated_Source\PSoC6\pdl\drivers/peripheral/ipc/cy_ipc_sema.c ****     else
 313:Generated_Source\PSoC6\pdl\drivers/peripheral/ipc/cy_ipc_sema.c ****     {
 314:Generated_Source\PSoC6\pdl\drivers/peripheral/ipc/cy_ipc_sema.c ****         retStatus = CY_IPC_SEMA_OUT_OF_RANGE;
 660              		.loc 2 314 0
 661 00c6 064B     		ldr	r3, .L53+12
 662 00c8 BB61     		str	r3, [r7, #24]
 663              	.L51:
 315:Generated_Source\PSoC6\pdl\drivers/peripheral/ipc/cy_ipc_sema.c ****     }
 316:Generated_Source\PSoC6\pdl\drivers/peripheral/ipc/cy_ipc_sema.c ****     return(retStatus);
 664              		.loc 2 316 0
 665 00ca BB69     		ldr	r3, [r7, #24]
 317:Generated_Source\PSoC6\pdl\drivers/peripheral/ipc/cy_ipc_sema.c **** }
 666              		.loc 2 317 0
 667 00cc 1800     		movs	r0, r3
 668 00ce BD46     		mov	sp, r7
 669 00d0 08B0     		add	sp, sp, #32
 670              		@ sp needed
 671 00d2 80BD     		pop	{r7, pc}
 672              	.L54:
 673              		.align	2
 674              	.L53:
ARM GAS  C:\Users\salaz\AppData\Local\Temp\ccFFISlC.s 			page 35


 675 00d4 03018800 		.word	8913155
 676 00d8 00000000 		.word	cy_semaIpcStruct
 677 00dc 02018800 		.word	8913154
 678 00e0 04018A00 		.word	9044228
 679              		.cfi_endproc
 680              	.LFE57:
 681              		.size	Cy_IPC_Sema_Clear, .-Cy_IPC_Sema_Clear
 682              		.section	.text.Cy_IPC_Sema_Status,"ax",%progbits
 683              		.align	2
 684              		.global	Cy_IPC_Sema_Status
 685              		.code	16
 686              		.thumb_func
 687              		.type	Cy_IPC_Sema_Status, %function
 688              	Cy_IPC_Sema_Status:
 689              	.LFB58:
 318:Generated_Source\PSoC6\pdl\drivers/peripheral/ipc/cy_ipc_sema.c **** 
 319:Generated_Source\PSoC6\pdl\drivers/peripheral/ipc/cy_ipc_sema.c **** /*******************************************************************************
 320:Generated_Source\PSoC6\pdl\drivers/peripheral/ipc/cy_ipc_sema.c **** * Function Name: Cy_IPC_Sema_Status
 321:Generated_Source\PSoC6\pdl\drivers/peripheral/ipc/cy_ipc_sema.c **** ****************************************************************************//**
 322:Generated_Source\PSoC6\pdl\drivers/peripheral/ipc/cy_ipc_sema.c **** *
 323:Generated_Source\PSoC6\pdl\drivers/peripheral/ipc/cy_ipc_sema.c **** * This function returns the status of the semaphore.
 324:Generated_Source\PSoC6\pdl\drivers/peripheral/ipc/cy_ipc_sema.c **** *
 325:Generated_Source\PSoC6\pdl\drivers/peripheral/ipc/cy_ipc_sema.c **** * \param semaNumber
 326:Generated_Source\PSoC6\pdl\drivers/peripheral/ipc/cy_ipc_sema.c **** *  The index of the semaphore to return status.
 327:Generated_Source\PSoC6\pdl\drivers/peripheral/ipc/cy_ipc_sema.c **** *
 328:Generated_Source\PSoC6\pdl\drivers/peripheral/ipc/cy_ipc_sema.c **** * \return Status of the operation
 329:Generated_Source\PSoC6\pdl\drivers/peripheral/ipc/cy_ipc_sema.c **** *     \retval CY_IPC_SEMA_STATUS_LOCKED:    The semaphore is in the set state.
 330:Generated_Source\PSoC6\pdl\drivers/peripheral/ipc/cy_ipc_sema.c **** *     \retval CY_IPC_SEMA_STATUS_UNLOCKED:  The semaphore is in the cleared state.
 331:Generated_Source\PSoC6\pdl\drivers/peripheral/ipc/cy_ipc_sema.c **** *     \retval CY_IPC_SEMA_OUT_OF_RANGE:     The semaphore number is not valid
 332:Generated_Source\PSoC6\pdl\drivers/peripheral/ipc/cy_ipc_sema.c **** *
 333:Generated_Source\PSoC6\pdl\drivers/peripheral/ipc/cy_ipc_sema.c **** * \funcusage
 334:Generated_Source\PSoC6\pdl\drivers/peripheral/ipc/cy_ipc_sema.c **** * \snippet IPC_sut_01.cydsn/main_cm4.c snippet_Cy_IPC_Sema_Status
 335:Generated_Source\PSoC6\pdl\drivers/peripheral/ipc/cy_ipc_sema.c **** *
 336:Generated_Source\PSoC6\pdl\drivers/peripheral/ipc/cy_ipc_sema.c **** *******************************************************************************/
 337:Generated_Source\PSoC6\pdl\drivers/peripheral/ipc/cy_ipc_sema.c **** cy_en_ipcsema_status_t Cy_IPC_Sema_Status(uint32_t semaNumber)
 338:Generated_Source\PSoC6\pdl\drivers/peripheral/ipc/cy_ipc_sema.c **** {
 690              		.loc 2 338 0
 691              		.cfi_startproc
 692              		@ args = 0, pretend = 0, frame = 24
 693              		@ frame_needed = 1, uses_anonymous_args = 0
 694 0000 80B5     		push	{r7, lr}
 695              		.cfi_def_cfa_offset 8
 696              		.cfi_offset 7, -8
 697              		.cfi_offset 14, -4
 698 0002 86B0     		sub	sp, sp, #24
 699              		.cfi_def_cfa_offset 32
 700 0004 00AF     		add	r7, sp, #0
 701              		.cfi_def_cfa_register 7
 702 0006 7860     		str	r0, [r7, #4]
 339:Generated_Source\PSoC6\pdl\drivers/peripheral/ipc/cy_ipc_sema.c ****     cy_en_ipcsema_status_t   retStatus;
 340:Generated_Source\PSoC6\pdl\drivers/peripheral/ipc/cy_ipc_sema.c ****     uint32_t semaIndex;
 341:Generated_Source\PSoC6\pdl\drivers/peripheral/ipc/cy_ipc_sema.c ****     uint32_t semaMask;
 342:Generated_Source\PSoC6\pdl\drivers/peripheral/ipc/cy_ipc_sema.c ****     cy_stc_ipc_sema_t      *semaStruct;
 343:Generated_Source\PSoC6\pdl\drivers/peripheral/ipc/cy_ipc_sema.c **** 
 344:Generated_Source\PSoC6\pdl\drivers/peripheral/ipc/cy_ipc_sema.c ****     /* Get pointer to structure */
 345:Generated_Source\PSoC6\pdl\drivers/peripheral/ipc/cy_ipc_sema.c ****     semaStruct = (cy_stc_ipc_sema_t *)Cy_IPC_Drv_ReadDataValue(cy_semaIpcStruct);
 703              		.loc 2 345 0
ARM GAS  C:\Users\salaz\AppData\Local\Temp\ccFFISlC.s 			page 36


 704 0008 164B     		ldr	r3, .L61
 705 000a 1B68     		ldr	r3, [r3]
 706 000c 1800     		movs	r0, r3
 707 000e FFF7FEFF 		bl	Cy_IPC_Drv_ReadDataValue
 708 0012 0300     		movs	r3, r0
 709 0014 3B61     		str	r3, [r7, #16]
 346:Generated_Source\PSoC6\pdl\drivers/peripheral/ipc/cy_ipc_sema.c **** 
 347:Generated_Source\PSoC6\pdl\drivers/peripheral/ipc/cy_ipc_sema.c ****     if (semaNumber < semaStruct->maxSema)
 710              		.loc 2 347 0
 711 0016 3B69     		ldr	r3, [r7, #16]
 712 0018 1A68     		ldr	r2, [r3]
 713 001a 7B68     		ldr	r3, [r7, #4]
 714 001c 9A42     		cmp	r2, r3
 715 001e 19D9     		bls	.L56
 348:Generated_Source\PSoC6\pdl\drivers/peripheral/ipc/cy_ipc_sema.c ****     {
 349:Generated_Source\PSoC6\pdl\drivers/peripheral/ipc/cy_ipc_sema.c ****         /* Get the index into the semaphore array and calculate the mask */
 350:Generated_Source\PSoC6\pdl\drivers/peripheral/ipc/cy_ipc_sema.c ****         semaIndex = semaNumber / CY_IPC_SEMA_PER_WORD;
 716              		.loc 2 350 0
 717 0020 7B68     		ldr	r3, [r7, #4]
 718 0022 5B09     		lsrs	r3, r3, #5
 719 0024 FB60     		str	r3, [r7, #12]
 351:Generated_Source\PSoC6\pdl\drivers/peripheral/ipc/cy_ipc_sema.c ****         semaMask = (uint32_t)(1ul << (semaNumber - (semaIndex * CY_IPC_SEMA_PER_WORD) ));
 720              		.loc 2 351 0
 721 0026 FB68     		ldr	r3, [r7, #12]
 722 0028 5B01     		lsls	r3, r3, #5
 723 002a 7A68     		ldr	r2, [r7, #4]
 724 002c D31A     		subs	r3, r2, r3
 725 002e 0122     		movs	r2, #1
 726 0030 9A40     		lsls	r2, r2, r3
 727 0032 1300     		movs	r3, r2
 728 0034 BB60     		str	r3, [r7, #8]
 352:Generated_Source\PSoC6\pdl\drivers/peripheral/ipc/cy_ipc_sema.c **** 
 353:Generated_Source\PSoC6\pdl\drivers/peripheral/ipc/cy_ipc_sema.c ****         if((semaStruct->arrayPtr[semaIndex] & semaMask) != 0ul)
 729              		.loc 2 353 0
 730 0036 3B69     		ldr	r3, [r7, #16]
 731 0038 5A68     		ldr	r2, [r3, #4]
 732 003a FB68     		ldr	r3, [r7, #12]
 733 003c 9B00     		lsls	r3, r3, #2
 734 003e D318     		adds	r3, r2, r3
 735 0040 1B68     		ldr	r3, [r3]
 736 0042 BA68     		ldr	r2, [r7, #8]
 737 0044 1340     		ands	r3, r2
 738 0046 02D0     		beq	.L57
 354:Generated_Source\PSoC6\pdl\drivers/peripheral/ipc/cy_ipc_sema.c ****         {
 355:Generated_Source\PSoC6\pdl\drivers/peripheral/ipc/cy_ipc_sema.c ****             retStatus =  CY_IPC_SEMA_STATUS_LOCKED;
 739              		.loc 2 355 0
 740 0048 074B     		ldr	r3, .L61+4
 741 004a 7B61     		str	r3, [r7, #20]
 742 004c 04E0     		b	.L59
 743              	.L57:
 356:Generated_Source\PSoC6\pdl\drivers/peripheral/ipc/cy_ipc_sema.c ****         }
 357:Generated_Source\PSoC6\pdl\drivers/peripheral/ipc/cy_ipc_sema.c ****         else
 358:Generated_Source\PSoC6\pdl\drivers/peripheral/ipc/cy_ipc_sema.c ****         {
 359:Generated_Source\PSoC6\pdl\drivers/peripheral/ipc/cy_ipc_sema.c ****             retStatus =  CY_IPC_SEMA_STATUS_UNLOCKED;
 744              		.loc 2 359 0
 745 004e 074B     		ldr	r3, .L61+8
 746 0050 7B61     		str	r3, [r7, #20]
ARM GAS  C:\Users\salaz\AppData\Local\Temp\ccFFISlC.s 			page 37


 747 0052 01E0     		b	.L59
 748              	.L56:
 360:Generated_Source\PSoC6\pdl\drivers/peripheral/ipc/cy_ipc_sema.c ****         }
 361:Generated_Source\PSoC6\pdl\drivers/peripheral/ipc/cy_ipc_sema.c ****     }
 362:Generated_Source\PSoC6\pdl\drivers/peripheral/ipc/cy_ipc_sema.c ****     else
 363:Generated_Source\PSoC6\pdl\drivers/peripheral/ipc/cy_ipc_sema.c ****     {
 364:Generated_Source\PSoC6\pdl\drivers/peripheral/ipc/cy_ipc_sema.c ****         retStatus = CY_IPC_SEMA_OUT_OF_RANGE;
 749              		.loc 2 364 0
 750 0054 064B     		ldr	r3, .L61+12
 751 0056 7B61     		str	r3, [r7, #20]
 752              	.L59:
 365:Generated_Source\PSoC6\pdl\drivers/peripheral/ipc/cy_ipc_sema.c ****     }
 366:Generated_Source\PSoC6\pdl\drivers/peripheral/ipc/cy_ipc_sema.c ****     return(retStatus);
 753              		.loc 2 366 0
 754 0058 7B69     		ldr	r3, [r7, #20]
 367:Generated_Source\PSoC6\pdl\drivers/peripheral/ipc/cy_ipc_sema.c **** }
 755              		.loc 2 367 0
 756 005a 1800     		movs	r0, r3
 757 005c BD46     		mov	sp, r7
 758 005e 06B0     		add	sp, sp, #24
 759              		@ sp needed
 760 0060 80BD     		pop	{r7, pc}
 761              	.L62:
 762 0062 C046     		.align	2
 763              	.L61:
 764 0064 00000000 		.word	cy_semaIpcStruct
 765 0068 01018800 		.word	8913153
 766 006c 00018800 		.word	8913152
 767 0070 04018A00 		.word	9044228
 768              		.cfi_endproc
 769              	.LFE58:
 770              		.size	Cy_IPC_Sema_Status, .-Cy_IPC_Sema_Status
 771              		.section	.text.Cy_IPC_Sema_GetMaxSems,"ax",%progbits
 772              		.align	2
 773              		.global	Cy_IPC_Sema_GetMaxSems
 774              		.code	16
 775              		.thumb_func
 776              		.type	Cy_IPC_Sema_GetMaxSems, %function
 777              	Cy_IPC_Sema_GetMaxSems:
 778              	.LFB59:
 368:Generated_Source\PSoC6\pdl\drivers/peripheral/ipc/cy_ipc_sema.c **** 
 369:Generated_Source\PSoC6\pdl\drivers/peripheral/ipc/cy_ipc_sema.c **** 
 370:Generated_Source\PSoC6\pdl\drivers/peripheral/ipc/cy_ipc_sema.c **** /*******************************************************************************
 371:Generated_Source\PSoC6\pdl\drivers/peripheral/ipc/cy_ipc_sema.c **** * Function Name: Cy_IPC_Sema_GetMaxSems
 372:Generated_Source\PSoC6\pdl\drivers/peripheral/ipc/cy_ipc_sema.c **** ****************************************************************************//**
 373:Generated_Source\PSoC6\pdl\drivers/peripheral/ipc/cy_ipc_sema.c **** *
 374:Generated_Source\PSoC6\pdl\drivers/peripheral/ipc/cy_ipc_sema.c **** * This function returns the number of semaphores in the semaphores subsystem.
 375:Generated_Source\PSoC6\pdl\drivers/peripheral/ipc/cy_ipc_sema.c **** *
 376:Generated_Source\PSoC6\pdl\drivers/peripheral/ipc/cy_ipc_sema.c **** * \return
 377:Generated_Source\PSoC6\pdl\drivers/peripheral/ipc/cy_ipc_sema.c **** *     Returns the semaphores quantity.
 378:Generated_Source\PSoC6\pdl\drivers/peripheral/ipc/cy_ipc_sema.c **** *
 379:Generated_Source\PSoC6\pdl\drivers/peripheral/ipc/cy_ipc_sema.c **** * \funcusage
 380:Generated_Source\PSoC6\pdl\drivers/peripheral/ipc/cy_ipc_sema.c **** * \snippet IPC_sut_01.cydsn/main_cm4.c snippet_Cy_IPC_Sema_GetMaxSems
 381:Generated_Source\PSoC6\pdl\drivers/peripheral/ipc/cy_ipc_sema.c **** *
 382:Generated_Source\PSoC6\pdl\drivers/peripheral/ipc/cy_ipc_sema.c **** *******************************************************************************/
 383:Generated_Source\PSoC6\pdl\drivers/peripheral/ipc/cy_ipc_sema.c **** uint32_t Cy_IPC_Sema_GetMaxSems(void)
 384:Generated_Source\PSoC6\pdl\drivers/peripheral/ipc/cy_ipc_sema.c **** {
ARM GAS  C:\Users\salaz\AppData\Local\Temp\ccFFISlC.s 			page 38


 779              		.loc 2 384 0
 780              		.cfi_startproc
 781              		@ args = 0, pretend = 0, frame = 8
 782              		@ frame_needed = 1, uses_anonymous_args = 0
 783 0000 80B5     		push	{r7, lr}
 784              		.cfi_def_cfa_offset 8
 785              		.cfi_offset 7, -8
 786              		.cfi_offset 14, -4
 787 0002 82B0     		sub	sp, sp, #8
 788              		.cfi_def_cfa_offset 16
 789 0004 00AF     		add	r7, sp, #0
 790              		.cfi_def_cfa_register 7
 385:Generated_Source\PSoC6\pdl\drivers/peripheral/ipc/cy_ipc_sema.c ****     cy_stc_ipc_sema_t      *semaStruct;
 386:Generated_Source\PSoC6\pdl\drivers/peripheral/ipc/cy_ipc_sema.c **** 
 387:Generated_Source\PSoC6\pdl\drivers/peripheral/ipc/cy_ipc_sema.c ****     /* Get pointer to structure */
 388:Generated_Source\PSoC6\pdl\drivers/peripheral/ipc/cy_ipc_sema.c ****     semaStruct = (cy_stc_ipc_sema_t *)Cy_IPC_Drv_ReadDataValue(cy_semaIpcStruct);
 791              		.loc 2 388 0
 792 0006 064B     		ldr	r3, .L65
 793 0008 1B68     		ldr	r3, [r3]
 794 000a 1800     		movs	r0, r3
 795 000c FFF7FEFF 		bl	Cy_IPC_Drv_ReadDataValue
 796 0010 0300     		movs	r3, r0
 797 0012 7B60     		str	r3, [r7, #4]
 389:Generated_Source\PSoC6\pdl\drivers/peripheral/ipc/cy_ipc_sema.c **** 
 390:Generated_Source\PSoC6\pdl\drivers/peripheral/ipc/cy_ipc_sema.c ****     return (semaStruct->maxSema);
 798              		.loc 2 390 0
 799 0014 7B68     		ldr	r3, [r7, #4]
 800 0016 1B68     		ldr	r3, [r3]
 391:Generated_Source\PSoC6\pdl\drivers/peripheral/ipc/cy_ipc_sema.c **** }
 801              		.loc 2 391 0
 802 0018 1800     		movs	r0, r3
 803 001a BD46     		mov	sp, r7
 804 001c 02B0     		add	sp, sp, #8
 805              		@ sp needed
 806 001e 80BD     		pop	{r7, pc}
 807              	.L66:
 808              		.align	2
 809              	.L65:
 810 0020 00000000 		.word	cy_semaIpcStruct
 811              		.cfi_endproc
 812              	.LFE59:
 813              		.size	Cy_IPC_Sema_GetMaxSems, .-Cy_IPC_Sema_GetMaxSems
 814              		.bss
 815              		.align	2
 816              	cy_semaData.9586:
 817 0004 00000000 		.space	8
 817      00000000 
 818              		.text
 819              	.Letext0:
 820              		.file 3 "c:\\program files (x86)\\cypress\\psoc creator\\4.2\\psoc creator\\import\\gnu\\arm\\5.4.
 821              		.file 4 "c:\\program files (x86)\\cypress\\psoc creator\\4.2\\psoc creator\\import\\gnu\\arm\\5.4.
 822              		.file 5 "Generated_Source\\PSoC6\\pdl\\devices/psoc6/ip/cyip_ipc.h"
 823              		.file 6 "Generated_Source\\PSoC6\\pdl\\drivers/peripheral/syslib/cy_syslib.h"
 824              		.file 7 "Generated_Source\\PSoC6\\pdl\\drivers/peripheral/ipc/cy_ipc_sema.h"
 825              		.section	.debug_info,"",%progbits
 826              	.Ldebug_info0:
 827 0000 BD050000 		.4byte	0x5bd
ARM GAS  C:\Users\salaz\AppData\Local\Temp\ccFFISlC.s 			page 39


 828 0004 0400     		.2byte	0x4
 829 0006 00000000 		.4byte	.Ldebug_abbrev0
 830 000a 04       		.byte	0x4
 831 000b 01       		.uleb128 0x1
 832 000c 37040000 		.4byte	.LASF74
 833 0010 0C       		.byte	0xc
 834 0011 C0030000 		.4byte	.LASF75
 835 0015 8A000000 		.4byte	.LASF76
 836 0019 00000000 		.4byte	.Ldebug_ranges0+0
 837 001d 00000000 		.4byte	0
 838 0021 00000000 		.4byte	.Ldebug_line0
 839 0025 02       		.uleb128 0x2
 840 0026 01       		.byte	0x1
 841 0027 06       		.byte	0x6
 842 0028 50020000 		.4byte	.LASF0
 843 002c 02       		.uleb128 0x2
 844 002d 01       		.byte	0x1
 845 002e 08       		.byte	0x8
 846 002f 42020000 		.4byte	.LASF1
 847 0033 02       		.uleb128 0x2
 848 0034 02       		.byte	0x2
 849 0035 05       		.byte	0x5
 850 0036 28000000 		.4byte	.LASF2
 851 003a 02       		.uleb128 0x2
 852 003b 02       		.byte	0x2
 853 003c 07       		.byte	0x7
 854 003d 30030000 		.4byte	.LASF3
 855 0041 02       		.uleb128 0x2
 856 0042 04       		.byte	0x4
 857 0043 05       		.byte	0x5
 858 0044 6E010000 		.4byte	.LASF4
 859 0048 03       		.uleb128 0x3
 860 0049 3B000000 		.4byte	.LASF9
 861 004d 03       		.byte	0x3
 862 004e 41       		.byte	0x41
 863 004f 53000000 		.4byte	0x53
 864 0053 02       		.uleb128 0x2
 865 0054 04       		.byte	0x4
 866 0055 07       		.byte	0x7
 867 0056 90030000 		.4byte	.LASF5
 868 005a 02       		.uleb128 0x2
 869 005b 08       		.byte	0x8
 870 005c 05       		.byte	0x5
 871 005d 0B010000 		.4byte	.LASF6
 872 0061 02       		.uleb128 0x2
 873 0062 08       		.byte	0x8
 874 0063 07       		.byte	0x7
 875 0064 65020000 		.4byte	.LASF7
 876 0068 04       		.uleb128 0x4
 877 0069 04       		.byte	0x4
 878 006a 05       		.byte	0x5
 879 006b 696E7400 		.ascii	"int\000"
 880 006f 02       		.uleb128 0x2
 881 0070 04       		.byte	0x4
 882 0071 07       		.byte	0x7
 883 0072 9B020000 		.4byte	.LASF8
 884 0076 03       		.uleb128 0x3
ARM GAS  C:\Users\salaz\AppData\Local\Temp\ccFFISlC.s 			page 40


 885 0077 7C020000 		.4byte	.LASF10
 886 007b 04       		.byte	0x4
 887 007c 30       		.byte	0x30
 888 007d 48000000 		.4byte	0x48
 889 0081 02       		.uleb128 0x2
 890 0082 04       		.byte	0x4
 891 0083 07       		.byte	0x7
 892 0084 32000000 		.4byte	.LASF11
 893 0088 05       		.uleb128 0x5
 894 0089 76000000 		.4byte	0x76
 895 008d 06       		.uleb128 0x6
 896 008e 88000000 		.4byte	0x88
 897 0092 07       		.uleb128 0x7
 898 0093 8D000000 		.4byte	0x8d
 899 0097 A2000000 		.4byte	0xa2
 900 009b 08       		.uleb128 0x8
 901 009c 81000000 		.4byte	0x81
 902 00a0 02       		.byte	0x2
 903 00a1 00       		.byte	0
 904 00a2 07       		.uleb128 0x7
 905 00a3 8D000000 		.4byte	0x8d
 906 00a7 B2000000 		.4byte	0xb2
 907 00ab 08       		.uleb128 0x8
 908 00ac 81000000 		.4byte	0x81
 909 00b0 03       		.byte	0x3
 910 00b1 00       		.byte	0
 911 00b2 09       		.uleb128 0x9
 912 00b3 20       		.byte	0x20
 913 00b4 05       		.byte	0x5
 914 00b5 23       		.byte	0x23
 915 00b6 03010000 		.4byte	0x103
 916 00ba 0A       		.uleb128 0xa
 917 00bb 0E050000 		.4byte	.LASF12
 918 00bf 05       		.byte	0x5
 919 00c0 24       		.byte	0x24
 920 00c1 8D000000 		.4byte	0x8d
 921 00c5 00       		.byte	0
 922 00c6 0A       		.uleb128 0xa
 923 00c7 3A020000 		.4byte	.LASF13
 924 00cb 05       		.byte	0x5
 925 00cc 25       		.byte	0x25
 926 00cd 88000000 		.4byte	0x88
 927 00d1 04       		.byte	0x4
 928 00d2 0A       		.uleb128 0xa
 929 00d3 34010000 		.4byte	.LASF14
 930 00d7 05       		.byte	0x5
 931 00d8 26       		.byte	0x26
 932 00d9 88000000 		.4byte	0x88
 933 00dd 08       		.byte	0x8
 934 00de 0A       		.uleb128 0xa
 935 00df 1D020000 		.4byte	.LASF15
 936 00e3 05       		.byte	0x5
 937 00e4 27       		.byte	0x27
 938 00e5 88000000 		.4byte	0x88
 939 00e9 0C       		.byte	0xc
 940 00ea 0A       		.uleb128 0xa
 941 00eb 1E040000 		.4byte	.LASF16
ARM GAS  C:\Users\salaz\AppData\Local\Temp\ccFFISlC.s 			page 41


 942 00ef 05       		.byte	0x5
 943 00f0 28       		.byte	0x28
 944 00f1 8D000000 		.4byte	0x8d
 945 00f5 10       		.byte	0x10
 946 00f6 0A       		.uleb128 0xa
 947 00f7 46000000 		.4byte	.LASF17
 948 00fb 05       		.byte	0x5
 949 00fc 29       		.byte	0x29
 950 00fd 08010000 		.4byte	0x108
 951 0101 14       		.byte	0x14
 952 0102 00       		.byte	0
 953 0103 05       		.uleb128 0x5
 954 0104 92000000 		.4byte	0x92
 955 0108 06       		.uleb128 0x6
 956 0109 03010000 		.4byte	0x103
 957 010d 03       		.uleb128 0x3
 958 010e FA010000 		.4byte	.LASF18
 959 0112 05       		.byte	0x5
 960 0113 2A       		.byte	0x2a
 961 0114 B2000000 		.4byte	0xb2
 962 0118 09       		.uleb128 0x9
 963 0119 20       		.byte	0x20
 964 011a 05       		.byte	0x5
 965 011b 2F       		.byte	0x2f
 966 011c 5D010000 		.4byte	0x15d
 967 0120 0A       		.uleb128 0xa
 968 0121 65030000 		.4byte	.LASF19
 969 0125 05       		.byte	0x5
 970 0126 30       		.byte	0x30
 971 0127 88000000 		.4byte	0x88
 972 012b 00       		.byte	0
 973 012c 0A       		.uleb128 0xa
 974 012d 5C020000 		.4byte	.LASF20
 975 0131 05       		.byte	0x5
 976 0132 31       		.byte	0x31
 977 0133 88000000 		.4byte	0x88
 978 0137 04       		.byte	0x4
 979 0138 0A       		.uleb128 0xa
 980 0139 C9000000 		.4byte	.LASF21
 981 013d 05       		.byte	0x5
 982 013e 32       		.byte	0x32
 983 013f 88000000 		.4byte	0x88
 984 0143 08       		.byte	0x8
 985 0144 0A       		.uleb128 0xa
 986 0145 22020000 		.4byte	.LASF22
 987 0149 05       		.byte	0x5
 988 014a 33       		.byte	0x33
 989 014b 8D000000 		.4byte	0x8d
 990 014f 0C       		.byte	0xc
 991 0150 0A       		.uleb128 0xa
 992 0151 46000000 		.4byte	.LASF17
 993 0155 05       		.byte	0x5
 994 0156 34       		.byte	0x34
 995 0157 62010000 		.4byte	0x162
 996 015b 10       		.byte	0x10
 997 015c 00       		.byte	0
 998 015d 05       		.uleb128 0x5
ARM GAS  C:\Users\salaz\AppData\Local\Temp\ccFFISlC.s 			page 42


 999 015e A2000000 		.4byte	0xa2
 1000 0162 06       		.uleb128 0x6
 1001 0163 5D010000 		.4byte	0x15d
 1002 0167 03       		.uleb128 0x3
 1003 0168 D4010000 		.4byte	.LASF23
 1004 016c 05       		.byte	0x5
 1005 016d 35       		.byte	0x35
 1006 016e 18010000 		.4byte	0x118
 1007 0172 0B       		.uleb128 0xb
 1008 0173 0012     		.2byte	0x1200
 1009 0175 05       		.byte	0x5
 1010 0176 3A       		.byte	0x3a
 1011 0177 A2010000 		.4byte	0x1a2
 1012 017b 0A       		.uleb128 0xa
 1013 017c 30040000 		.4byte	.LASF24
 1014 0180 05       		.byte	0x5
 1015 0181 3B       		.byte	0x3b
 1016 0182 A2010000 		.4byte	0x1a2
 1017 0186 00       		.byte	0
 1018 0187 0C       		.uleb128 0xc
 1019 0188 46000000 		.4byte	.LASF17
 1020 018c 05       		.byte	0x5
 1021 018d 3C       		.byte	0x3c
 1022 018e C8010000 		.4byte	0x1c8
 1023 0192 0002     		.2byte	0x200
 1024 0194 0C       		.uleb128 0xc
 1025 0195 62000000 		.4byte	.LASF25
 1026 0199 05       		.byte	0x5
 1027 019a 3D       		.byte	0x3d
 1028 019b CD010000 		.4byte	0x1cd
 1029 019f 0010     		.2byte	0x1000
 1030 01a1 00       		.byte	0
 1031 01a2 07       		.uleb128 0x7
 1032 01a3 0D010000 		.4byte	0x10d
 1033 01a7 B2010000 		.4byte	0x1b2
 1034 01ab 08       		.uleb128 0x8
 1035 01ac 81000000 		.4byte	0x81
 1036 01b0 0F       		.byte	0xf
 1037 01b1 00       		.byte	0
 1038 01b2 07       		.uleb128 0x7
 1039 01b3 8D000000 		.4byte	0x8d
 1040 01b7 C3010000 		.4byte	0x1c3
 1041 01bb 0D       		.uleb128 0xd
 1042 01bc 81000000 		.4byte	0x81
 1043 01c0 7F03     		.2byte	0x37f
 1044 01c2 00       		.byte	0
 1045 01c3 05       		.uleb128 0x5
 1046 01c4 B2010000 		.4byte	0x1b2
 1047 01c8 06       		.uleb128 0x6
 1048 01c9 C3010000 		.4byte	0x1c3
 1049 01cd 07       		.uleb128 0x7
 1050 01ce 67010000 		.4byte	0x167
 1051 01d2 DD010000 		.4byte	0x1dd
 1052 01d6 08       		.uleb128 0x8
 1053 01d7 81000000 		.4byte	0x81
 1054 01db 0F       		.byte	0xf
 1055 01dc 00       		.byte	0
ARM GAS  C:\Users\salaz\AppData\Local\Temp\ccFFISlC.s 			page 43


 1056 01dd 03       		.uleb128 0x3
 1057 01de C1020000 		.4byte	.LASF26
 1058 01e2 05       		.byte	0x5
 1059 01e3 3E       		.byte	0x3e
 1060 01e4 72010000 		.4byte	0x172
 1061 01e8 0E       		.uleb128 0xe
 1062 01e9 A2010000 		.4byte	.LASF27
 1063 01ed 06       		.byte	0x6
 1064 01ee C401     		.2byte	0x1c4
 1065 01f0 F4010000 		.4byte	0x1f4
 1066 01f4 02       		.uleb128 0x2
 1067 01f5 01       		.byte	0x1
 1068 01f6 08       		.byte	0x8
 1069 01f7 23000000 		.4byte	.LASF28
 1070 01fb 02       		.uleb128 0x2
 1071 01fc 04       		.byte	0x4
 1072 01fd 04       		.byte	0x4
 1073 01fe EC000000 		.4byte	.LASF29
 1074 0202 02       		.uleb128 0x2
 1075 0203 08       		.byte	0x8
 1076 0204 04       		.byte	0x4
 1077 0205 A2030000 		.4byte	.LASF30
 1078 0209 02       		.uleb128 0x2
 1079 020a 08       		.byte	0x8
 1080 020b 04       		.byte	0x4
 1081 020c 2E020000 		.4byte	.LASF31
 1082 0210 0F       		.uleb128 0xf
 1083 0211 04       		.byte	0x4
 1084 0212 6F000000 		.4byte	0x6f
 1085 0216 01       		.byte	0x1
 1086 0217 5901     		.2byte	0x159
 1087 0219 2D020000 		.4byte	0x22d
 1088 021d 10       		.uleb128 0x10
 1089 021e 4F000000 		.4byte	.LASF32
 1090 0222 00       		.byte	0
 1091 0223 11       		.uleb128 0x11
 1092 0224 E9010000 		.4byte	.LASF33
 1093 0228 01008A00 		.4byte	0x8a0001
 1094 022c 00       		.byte	0
 1095 022d 0E       		.uleb128 0xe
 1096 022e 85020000 		.4byte	.LASF34
 1097 0232 01       		.byte	0x1
 1098 0233 6001     		.2byte	0x160
 1099 0235 10020000 		.4byte	0x210
 1100 0239 12       		.uleb128 0x12
 1101 023a 04       		.byte	0x4
 1102 023b 6F000000 		.4byte	0x6f
 1103 023f 07       		.byte	0x7
 1104 0240 43       		.byte	0x43
 1105 0241 94020000 		.4byte	0x294
 1106 0245 10       		.uleb128 0x10
 1107 0246 A9010000 		.4byte	.LASF35
 1108 024a 00       		.byte	0
 1109 024b 11       		.uleb128 0x11
 1110 024c 77010000 		.4byte	.LASF36
 1111 0250 01018A00 		.4byte	0x8a0101
 1112 0254 11       		.uleb128 0x11
ARM GAS  C:\Users\salaz\AppData\Local\Temp\ccFFISlC.s 			page 44


 1113 0255 19010000 		.4byte	.LASF37
 1114 0259 02018A00 		.4byte	0x8a0102
 1115 025d 11       		.uleb128 0x11
 1116 025e CA020000 		.4byte	.LASF38
 1117 0262 03018A00 		.4byte	0x8a0103
 1118 0266 11       		.uleb128 0x11
 1119 0267 D3000000 		.4byte	.LASF39
 1120 026b 04018A00 		.4byte	0x8a0104
 1121 026f 11       		.uleb128 0x11
 1122 0270 E9020000 		.4byte	.LASF40
 1123 0274 02018800 		.4byte	0x880102
 1124 0278 11       		.uleb128 0x11
 1125 0279 0A020000 		.4byte	.LASF41
 1126 027d 03018800 		.4byte	0x880103
 1127 0281 11       		.uleb128 0x11
 1128 0282 16030000 		.4byte	.LASF42
 1129 0286 01018800 		.4byte	0x880101
 1130 028a 11       		.uleb128 0x11
 1131 028b 43030000 		.4byte	.LASF43
 1132 028f 00018800 		.4byte	0x880100
 1133 0293 00       		.byte	0
 1134 0294 03       		.uleb128 0x3
 1135 0295 0C000000 		.4byte	.LASF44
 1136 0299 07       		.byte	0x7
 1137 029a 58       		.byte	0x58
 1138 029b 39020000 		.4byte	0x239
 1139 029f 09       		.uleb128 0x9
 1140 02a0 08       		.byte	0x8
 1141 02a1 02       		.byte	0x2
 1142 02a2 1E       		.byte	0x1e
 1143 02a3 C0020000 		.4byte	0x2c0
 1144 02a7 0A       		.uleb128 0xa
 1145 02a8 C9040000 		.4byte	.LASF45
 1146 02ac 02       		.byte	0x2
 1147 02ad 20       		.byte	0x20
 1148 02ae 76000000 		.4byte	0x76
 1149 02b2 00       		.byte	0
 1150 02b3 0A       		.uleb128 0xa
 1151 02b4 E0020000 		.4byte	.LASF46
 1152 02b8 02       		.byte	0x2
 1153 02b9 21       		.byte	0x21
 1154 02ba C0020000 		.4byte	0x2c0
 1155 02be 04       		.byte	0x4
 1156 02bf 00       		.byte	0
 1157 02c0 13       		.uleb128 0x13
 1158 02c1 04       		.byte	0x4
 1159 02c2 76000000 		.4byte	0x76
 1160 02c6 03       		.uleb128 0x3
 1161 02c7 B7000000 		.4byte	.LASF47
 1162 02cb 02       		.byte	0x2
 1163 02cc 22       		.byte	0x22
 1164 02cd 9F020000 		.4byte	0x29f
 1165 02d1 14       		.uleb128 0x14
 1166 02d2 51010000 		.4byte	.LASF48
 1167 02d6 01       		.byte	0x1
 1168 02d7 A701     		.2byte	0x1a7
 1169 02d9 FB020000 		.4byte	0x2fb
ARM GAS  C:\Users\salaz\AppData\Local\Temp\ccFFISlC.s 			page 45


 1170 02dd 00000000 		.4byte	.LFB36
 1171 02e1 38000000 		.4byte	.LFE36-.LFB36
 1172 02e5 01       		.uleb128 0x1
 1173 02e6 9C       		.byte	0x9c
 1174 02e7 FB020000 		.4byte	0x2fb
 1175 02eb 15       		.uleb128 0x15
 1176 02ec 02010000 		.4byte	.LASF50
 1177 02f0 01       		.byte	0x1
 1178 02f1 A701     		.2byte	0x1a7
 1179 02f3 76000000 		.4byte	0x76
 1180 02f7 02       		.uleb128 0x2
 1181 02f8 91       		.byte	0x91
 1182 02f9 74       		.sleb128 -12
 1183 02fa 00       		.byte	0
 1184 02fb 13       		.uleb128 0x13
 1185 02fc 04       		.byte	0x4
 1186 02fd 0D010000 		.4byte	0x10d
 1187 0301 16       		.uleb128 0x16
 1188 0302 A8020000 		.4byte	.LASF49
 1189 0306 01       		.byte	0x1
 1190 0307 E202     		.2byte	0x2e2
 1191 0309 76000000 		.4byte	0x76
 1192 030d 00000000 		.4byte	.LFB47
 1193 0311 14000000 		.4byte	.LFE47-.LFB47
 1194 0315 01       		.uleb128 0x1
 1195 0316 9C       		.byte	0x9c
 1196 0317 2B030000 		.4byte	0x32b
 1197 031b 15       		.uleb128 0x15
 1198 031c FD040000 		.4byte	.LASF51
 1199 0320 01       		.byte	0x1
 1200 0321 E202     		.2byte	0x2e2
 1201 0323 2B030000 		.4byte	0x32b
 1202 0327 02       		.uleb128 0x2
 1203 0328 91       		.byte	0x91
 1204 0329 74       		.sleb128 -12
 1205 032a 00       		.byte	0
 1206 032b 13       		.uleb128 0x13
 1207 032c 04       		.byte	0x4
 1208 032d 31030000 		.4byte	0x331
 1209 0331 06       		.uleb128 0x6
 1210 0332 0D010000 		.4byte	0x10d
 1211 0336 14       		.uleb128 0x14
 1212 0337 3B010000 		.4byte	.LASF52
 1213 033b 01       		.byte	0x1
 1214 033c 6803     		.2byte	0x368
 1215 033e 2D020000 		.4byte	0x22d
 1216 0342 00000000 		.4byte	.LFB52
 1217 0346 3C000000 		.4byte	.LFE52-.LFB52
 1218 034a 01       		.uleb128 0x1
 1219 034b 9C       		.byte	0x9c
 1220 034c 7E030000 		.4byte	0x37e
 1221 0350 15       		.uleb128 0x15
 1222 0351 FD040000 		.4byte	.LASF51
 1223 0355 01       		.byte	0x1
 1224 0356 6803     		.2byte	0x368
 1225 0358 FB020000 		.4byte	0x2fb
 1226 035c 02       		.uleb128 0x2
ARM GAS  C:\Users\salaz\AppData\Local\Temp\ccFFISlC.s 			page 46


 1227 035d 91       		.byte	0x91
 1228 035e 74       		.sleb128 -12
 1229 035f 15       		.uleb128 0x15
 1230 0360 F2000000 		.4byte	.LASF53
 1231 0364 01       		.byte	0x1
 1232 0365 6803     		.2byte	0x368
 1233 0367 76000000 		.4byte	0x76
 1234 036b 02       		.uleb128 0x2
 1235 036c 91       		.byte	0x91
 1236 036d 70       		.sleb128 -16
 1237 036e 15       		.uleb128 0x15
 1238 036f 89030000 		.4byte	.LASF54
 1239 0373 01       		.byte	0x1
 1240 0374 6803     		.2byte	0x368
 1241 0376 7E030000 		.4byte	0x37e
 1242 037a 02       		.uleb128 0x2
 1243 037b 91       		.byte	0x91
 1244 037c 6C       		.sleb128 -20
 1245 037d 00       		.byte	0
 1246 037e 13       		.uleb128 0x13
 1247 037f 04       		.byte	0x4
 1248 0380 84030000 		.4byte	0x384
 1249 0384 17       		.uleb128 0x17
 1250 0385 16       		.uleb128 0x16
 1251 0386 BD010000 		.4byte	.LASF55
 1252 038a 01       		.byte	0x1
 1253 038b A503     		.2byte	0x3a5
 1254 038d 2D020000 		.4byte	0x22d
 1255 0391 00000000 		.4byte	.LFB54
 1256 0395 24000000 		.4byte	.LFE54-.LFB54
 1257 0399 01       		.uleb128 0x1
 1258 039a 9C       		.byte	0x9c
 1259 039b AF030000 		.4byte	0x3af
 1260 039f 15       		.uleb128 0x15
 1261 03a0 FD040000 		.4byte	.LASF51
 1262 03a4 01       		.byte	0x1
 1263 03a5 A503     		.2byte	0x3a5
 1264 03a7 2B030000 		.4byte	0x32b
 1265 03ab 02       		.uleb128 0x2
 1266 03ac 91       		.byte	0x91
 1267 03ad 74       		.sleb128 -12
 1268 03ae 00       		.byte	0
 1269 03af 18       		.uleb128 0x18
 1270 03b0 79000000 		.4byte	.LASF61
 1271 03b4 02       		.byte	0x2
 1272 03b5 46       		.byte	0x46
 1273 03b6 94020000 		.4byte	0x294
 1274 03ba 00000000 		.4byte	.LFB55
 1275 03be E0000000 		.4byte	.LFE55-.LFB55
 1276 03c2 01       		.uleb128 0x1
 1277 03c3 9C       		.byte	0x9c
 1278 03c4 12040000 		.4byte	0x412
 1279 03c8 19       		.uleb128 0x19
 1280 03c9 00040000 		.4byte	.LASF56
 1281 03cd 02       		.byte	0x2
 1282 03ce 46       		.byte	0x46
 1283 03cf 76000000 		.4byte	0x76
ARM GAS  C:\Users\salaz\AppData\Local\Temp\ccFFISlC.s 			page 47


 1284 03d3 02       		.uleb128 0x2
 1285 03d4 91       		.byte	0x91
 1286 03d5 6C       		.sleb128 -20
 1287 03d6 19       		.uleb128 0x19
 1288 03d7 2A040000 		.4byte	.LASF57
 1289 03db 02       		.byte	0x2
 1290 03dc 47       		.byte	0x47
 1291 03dd 76000000 		.4byte	0x76
 1292 03e1 02       		.uleb128 0x2
 1293 03e2 91       		.byte	0x91
 1294 03e3 68       		.sleb128 -24
 1295 03e4 19       		.uleb128 0x19
 1296 03e5 E5040000 		.4byte	.LASF58
 1297 03e9 02       		.byte	0x2
 1298 03ea 47       		.byte	0x47
 1299 03eb C0020000 		.4byte	0x2c0
 1300 03ef 02       		.uleb128 0x2
 1301 03f0 91       		.byte	0x91
 1302 03f1 64       		.sleb128 -28
 1303 03f2 1A       		.uleb128 0x1a
 1304 03f3 02050000 		.4byte	.LASF59
 1305 03f7 02       		.byte	0x2
 1306 03f8 4A       		.byte	0x4a
 1307 03f9 C6020000 		.4byte	0x2c6
 1308 03fd 05       		.uleb128 0x5
 1309 03fe 03       		.byte	0x3
 1310 03ff 04000000 		.4byte	cy_semaData.9586
 1311 0403 1A       		.uleb128 0x1a
 1312 0404 D1040000 		.4byte	.LASF60
 1313 0408 02       		.byte	0x2
 1314 0409 4C       		.byte	0x4c
 1315 040a 94020000 		.4byte	0x294
 1316 040e 02       		.uleb128 0x2
 1317 040f 91       		.byte	0x91
 1318 0410 74       		.sleb128 -12
 1319 0411 00       		.byte	0
 1320 0412 18       		.uleb128 0x18
 1321 0413 6A030000 		.4byte	.LASF62
 1322 0417 02       		.byte	0x2
 1323 0418 B3       		.byte	0xb3
 1324 0419 94020000 		.4byte	0x294
 1325 041d 00000000 		.4byte	.LFB56
 1326 0421 E4000000 		.4byte	.LFE56-.LFB56
 1327 0425 01       		.uleb128 0x1
 1328 0426 9C       		.byte	0x9c
 1329 0427 8E040000 		.4byte	0x48e
 1330 042b 19       		.uleb128 0x19
 1331 042c 6E000000 		.4byte	.LASF63
 1332 0430 02       		.byte	0x2
 1333 0431 B3       		.byte	0xb3
 1334 0432 76000000 		.4byte	0x76
 1335 0436 02       		.uleb128 0x2
 1336 0437 91       		.byte	0x91
 1337 0438 5C       		.sleb128 -36
 1338 0439 19       		.uleb128 0x19
 1339 043a 00000000 		.4byte	.LASF64
 1340 043e 02       		.byte	0x2
ARM GAS  C:\Users\salaz\AppData\Local\Temp\ccFFISlC.s 			page 48


 1341 043f B3       		.byte	0xb3
 1342 0440 8E040000 		.4byte	0x48e
 1343 0444 02       		.uleb128 0x2
 1344 0445 91       		.byte	0x91
 1345 0446 5B       		.sleb128 -37
 1346 0447 1A       		.uleb128 0x1a
 1347 0448 DB040000 		.4byte	.LASF65
 1348 044c 02       		.byte	0x2
 1349 044d B5       		.byte	0xb5
 1350 044e 76000000 		.4byte	0x76
 1351 0452 02       		.uleb128 0x2
 1352 0453 91       		.byte	0x91
 1353 0454 68       		.sleb128 -24
 1354 0455 1A       		.uleb128 0x1a
 1355 0456 02030000 		.4byte	.LASF66
 1356 045a 02       		.byte	0x2
 1357 045b B6       		.byte	0xb6
 1358 045c 76000000 		.4byte	0x76
 1359 0460 02       		.uleb128 0x2
 1360 0461 91       		.byte	0x91
 1361 0462 64       		.sleb128 -28
 1362 0463 1A       		.uleb128 0x1a
 1363 0464 7A030000 		.4byte	.LASF67
 1364 0468 02       		.byte	0x2
 1365 0469 B7       		.byte	0xb7
 1366 046a 76000000 		.4byte	0x76
 1367 046e 02       		.uleb128 0x2
 1368 046f 91       		.byte	0x91
 1369 0470 74       		.sleb128 -12
 1370 0471 1A       		.uleb128 0x1a
 1371 0472 0B030000 		.4byte	.LASF68
 1372 0476 02       		.byte	0x2
 1373 0477 B9       		.byte	0xb9
 1374 0478 95040000 		.4byte	0x495
 1375 047c 02       		.uleb128 0x2
 1376 047d 91       		.byte	0x91
 1377 047e 6C       		.sleb128 -20
 1378 047f 1A       		.uleb128 0x1a
 1379 0480 D1040000 		.4byte	.LASF60
 1380 0484 02       		.byte	0x2
 1381 0485 BA       		.byte	0xba
 1382 0486 94020000 		.4byte	0x294
 1383 048a 02       		.uleb128 0x2
 1384 048b 91       		.byte	0x91
 1385 048c 70       		.sleb128 -16
 1386 048d 00       		.byte	0
 1387 048e 02       		.uleb128 0x2
 1388 048f 01       		.byte	0x1
 1389 0490 02       		.byte	0x2
 1390 0491 5F030000 		.4byte	.LASF69
 1391 0495 13       		.uleb128 0x13
 1392 0496 04       		.byte	0x4
 1393 0497 C6020000 		.4byte	0x2c6
 1394 049b 1B       		.uleb128 0x1b
 1395 049c 90010000 		.4byte	.LASF70
 1396 04a0 02       		.byte	0x2
 1397 04a1 0B01     		.2byte	0x10b
ARM GAS  C:\Users\salaz\AppData\Local\Temp\ccFFISlC.s 			page 49


 1398 04a3 94020000 		.4byte	0x294
 1399 04a7 00000000 		.4byte	.LFB57
 1400 04ab E4000000 		.4byte	.LFE57-.LFB57
 1401 04af 01       		.uleb128 0x1
 1402 04b0 9C       		.byte	0x9c
 1403 04b1 1F050000 		.4byte	0x51f
 1404 04b5 15       		.uleb128 0x15
 1405 04b6 6E000000 		.4byte	.LASF63
 1406 04ba 02       		.byte	0x2
 1407 04bb 0B01     		.2byte	0x10b
 1408 04bd 76000000 		.4byte	0x76
 1409 04c1 02       		.uleb128 0x2
 1410 04c2 91       		.byte	0x91
 1411 04c3 5C       		.sleb128 -36
 1412 04c4 15       		.uleb128 0x15
 1413 04c5 00000000 		.4byte	.LASF64
 1414 04c9 02       		.byte	0x2
 1415 04ca 0B01     		.2byte	0x10b
 1416 04cc 8E040000 		.4byte	0x48e
 1417 04d0 02       		.uleb128 0x2
 1418 04d1 91       		.byte	0x91
 1419 04d2 5B       		.sleb128 -37
 1420 04d3 1C       		.uleb128 0x1c
 1421 04d4 DB040000 		.4byte	.LASF65
 1422 04d8 02       		.byte	0x2
 1423 04d9 0D01     		.2byte	0x10d
 1424 04db 76000000 		.4byte	0x76
 1425 04df 02       		.uleb128 0x2
 1426 04e0 91       		.byte	0x91
 1427 04e1 68       		.sleb128 -24
 1428 04e2 1C       		.uleb128 0x1c
 1429 04e3 02030000 		.4byte	.LASF66
 1430 04e7 02       		.byte	0x2
 1431 04e8 0E01     		.2byte	0x10e
 1432 04ea 76000000 		.4byte	0x76
 1433 04ee 02       		.uleb128 0x2
 1434 04ef 91       		.byte	0x91
 1435 04f0 64       		.sleb128 -28
 1436 04f1 1C       		.uleb128 0x1c
 1437 04f2 7A030000 		.4byte	.LASF67
 1438 04f6 02       		.byte	0x2
 1439 04f7 0F01     		.2byte	0x10f
 1440 04f9 76000000 		.4byte	0x76
 1441 04fd 02       		.uleb128 0x2
 1442 04fe 91       		.byte	0x91
 1443 04ff 74       		.sleb128 -12
 1444 0500 1C       		.uleb128 0x1c
 1445 0501 0B030000 		.4byte	.LASF68
 1446 0505 02       		.byte	0x2
 1447 0506 1101     		.2byte	0x111
 1448 0508 95040000 		.4byte	0x495
 1449 050c 02       		.uleb128 0x2
 1450 050d 91       		.byte	0x91
 1451 050e 6C       		.sleb128 -20
 1452 050f 1C       		.uleb128 0x1c
 1453 0510 D1040000 		.4byte	.LASF60
 1454 0514 02       		.byte	0x2
ARM GAS  C:\Users\salaz\AppData\Local\Temp\ccFFISlC.s 			page 50


 1455 0515 1201     		.2byte	0x112
 1456 0517 94020000 		.4byte	0x294
 1457 051b 02       		.uleb128 0x2
 1458 051c 91       		.byte	0x91
 1459 051d 70       		.sleb128 -16
 1460 051e 00       		.byte	0
 1461 051f 1B       		.uleb128 0x1b
 1462 0520 0B040000 		.4byte	.LASF71
 1463 0524 02       		.byte	0x2
 1464 0525 5101     		.2byte	0x151
 1465 0527 94020000 		.4byte	0x294
 1466 052b 00000000 		.4byte	.LFB58
 1467 052f 74000000 		.4byte	.LFE58-.LFB58
 1468 0533 01       		.uleb128 0x1
 1469 0534 9C       		.byte	0x9c
 1470 0535 85050000 		.4byte	0x585
 1471 0539 15       		.uleb128 0x15
 1472 053a 6E000000 		.4byte	.LASF63
 1473 053e 02       		.byte	0x2
 1474 053f 5101     		.2byte	0x151
 1475 0541 76000000 		.4byte	0x76
 1476 0545 02       		.uleb128 0x2
 1477 0546 91       		.byte	0x91
 1478 0547 64       		.sleb128 -28
 1479 0548 1C       		.uleb128 0x1c
 1480 0549 D1040000 		.4byte	.LASF60
 1481 054d 02       		.byte	0x2
 1482 054e 5301     		.2byte	0x153
 1483 0550 94020000 		.4byte	0x294
 1484 0554 02       		.uleb128 0x2
 1485 0555 91       		.byte	0x91
 1486 0556 74       		.sleb128 -12
 1487 0557 1C       		.uleb128 0x1c
 1488 0558 DB040000 		.4byte	.LASF65
 1489 055c 02       		.byte	0x2
 1490 055d 5401     		.2byte	0x154
 1491 055f 76000000 		.4byte	0x76
 1492 0563 02       		.uleb128 0x2
 1493 0564 91       		.byte	0x91
 1494 0565 6C       		.sleb128 -20
 1495 0566 1C       		.uleb128 0x1c
 1496 0567 02030000 		.4byte	.LASF66
 1497 056b 02       		.byte	0x2
 1498 056c 5501     		.2byte	0x155
 1499 056e 76000000 		.4byte	0x76
 1500 0572 02       		.uleb128 0x2
 1501 0573 91       		.byte	0x91
 1502 0574 68       		.sleb128 -24
 1503 0575 1C       		.uleb128 0x1c
 1504 0576 0B030000 		.4byte	.LASF68
 1505 057a 02       		.byte	0x2
 1506 057b 5601     		.2byte	0x156
 1507 057d 95040000 		.4byte	0x495
 1508 0581 02       		.uleb128 0x2
 1509 0582 91       		.byte	0x91
 1510 0583 70       		.sleb128 -16
 1511 0584 00       		.byte	0
ARM GAS  C:\Users\salaz\AppData\Local\Temp\ccFFISlC.s 			page 51


 1512 0585 1B       		.uleb128 0x1b
 1513 0586 A9030000 		.4byte	.LASF72
 1514 058a 02       		.byte	0x2
 1515 058b 7F01     		.2byte	0x17f
 1516 058d 76000000 		.4byte	0x76
 1517 0591 00000000 		.4byte	.LFB59
 1518 0595 24000000 		.4byte	.LFE59-.LFB59
 1519 0599 01       		.uleb128 0x1
 1520 059a 9C       		.byte	0x9c
 1521 059b AF050000 		.4byte	0x5af
 1522 059f 1C       		.uleb128 0x1c
 1523 05a0 0B030000 		.4byte	.LASF68
 1524 05a4 02       		.byte	0x2
 1525 05a5 8101     		.2byte	0x181
 1526 05a7 95040000 		.4byte	0x495
 1527 05ab 02       		.uleb128 0x2
 1528 05ac 91       		.byte	0x91
 1529 05ad 74       		.sleb128 -12
 1530 05ae 00       		.byte	0
 1531 05af 1A       		.uleb128 0x1a
 1532 05b0 EC040000 		.4byte	.LASF73
 1533 05b4 02       		.byte	0x2
 1534 05b5 19       		.byte	0x19
 1535 05b6 FB020000 		.4byte	0x2fb
 1536 05ba 05       		.uleb128 0x5
 1537 05bb 03       		.byte	0x3
 1538 05bc 00000000 		.4byte	cy_semaIpcStruct
 1539 05c0 00       		.byte	0
 1540              		.section	.debug_abbrev,"",%progbits
 1541              	.Ldebug_abbrev0:
 1542 0000 01       		.uleb128 0x1
 1543 0001 11       		.uleb128 0x11
 1544 0002 01       		.byte	0x1
 1545 0003 25       		.uleb128 0x25
 1546 0004 0E       		.uleb128 0xe
 1547 0005 13       		.uleb128 0x13
 1548 0006 0B       		.uleb128 0xb
 1549 0007 03       		.uleb128 0x3
 1550 0008 0E       		.uleb128 0xe
 1551 0009 1B       		.uleb128 0x1b
 1552 000a 0E       		.uleb128 0xe
 1553 000b 55       		.uleb128 0x55
 1554 000c 17       		.uleb128 0x17
 1555 000d 11       		.uleb128 0x11
 1556 000e 01       		.uleb128 0x1
 1557 000f 10       		.uleb128 0x10
 1558 0010 17       		.uleb128 0x17
 1559 0011 00       		.byte	0
 1560 0012 00       		.byte	0
 1561 0013 02       		.uleb128 0x2
 1562 0014 24       		.uleb128 0x24
 1563 0015 00       		.byte	0
 1564 0016 0B       		.uleb128 0xb
 1565 0017 0B       		.uleb128 0xb
 1566 0018 3E       		.uleb128 0x3e
 1567 0019 0B       		.uleb128 0xb
 1568 001a 03       		.uleb128 0x3
ARM GAS  C:\Users\salaz\AppData\Local\Temp\ccFFISlC.s 			page 52


 1569 001b 0E       		.uleb128 0xe
 1570 001c 00       		.byte	0
 1571 001d 00       		.byte	0
 1572 001e 03       		.uleb128 0x3
 1573 001f 16       		.uleb128 0x16
 1574 0020 00       		.byte	0
 1575 0021 03       		.uleb128 0x3
 1576 0022 0E       		.uleb128 0xe
 1577 0023 3A       		.uleb128 0x3a
 1578 0024 0B       		.uleb128 0xb
 1579 0025 3B       		.uleb128 0x3b
 1580 0026 0B       		.uleb128 0xb
 1581 0027 49       		.uleb128 0x49
 1582 0028 13       		.uleb128 0x13
 1583 0029 00       		.byte	0
 1584 002a 00       		.byte	0
 1585 002b 04       		.uleb128 0x4
 1586 002c 24       		.uleb128 0x24
 1587 002d 00       		.byte	0
 1588 002e 0B       		.uleb128 0xb
 1589 002f 0B       		.uleb128 0xb
 1590 0030 3E       		.uleb128 0x3e
 1591 0031 0B       		.uleb128 0xb
 1592 0032 03       		.uleb128 0x3
 1593 0033 08       		.uleb128 0x8
 1594 0034 00       		.byte	0
 1595 0035 00       		.byte	0
 1596 0036 05       		.uleb128 0x5
 1597 0037 35       		.uleb128 0x35
 1598 0038 00       		.byte	0
 1599 0039 49       		.uleb128 0x49
 1600 003a 13       		.uleb128 0x13
 1601 003b 00       		.byte	0
 1602 003c 00       		.byte	0
 1603 003d 06       		.uleb128 0x6
 1604 003e 26       		.uleb128 0x26
 1605 003f 00       		.byte	0
 1606 0040 49       		.uleb128 0x49
 1607 0041 13       		.uleb128 0x13
 1608 0042 00       		.byte	0
 1609 0043 00       		.byte	0
 1610 0044 07       		.uleb128 0x7
 1611 0045 01       		.uleb128 0x1
 1612 0046 01       		.byte	0x1
 1613 0047 49       		.uleb128 0x49
 1614 0048 13       		.uleb128 0x13
 1615 0049 01       		.uleb128 0x1
 1616 004a 13       		.uleb128 0x13
 1617 004b 00       		.byte	0
 1618 004c 00       		.byte	0
 1619 004d 08       		.uleb128 0x8
 1620 004e 21       		.uleb128 0x21
 1621 004f 00       		.byte	0
 1622 0050 49       		.uleb128 0x49
 1623 0051 13       		.uleb128 0x13
 1624 0052 2F       		.uleb128 0x2f
 1625 0053 0B       		.uleb128 0xb
ARM GAS  C:\Users\salaz\AppData\Local\Temp\ccFFISlC.s 			page 53


 1626 0054 00       		.byte	0
 1627 0055 00       		.byte	0
 1628 0056 09       		.uleb128 0x9
 1629 0057 13       		.uleb128 0x13
 1630 0058 01       		.byte	0x1
 1631 0059 0B       		.uleb128 0xb
 1632 005a 0B       		.uleb128 0xb
 1633 005b 3A       		.uleb128 0x3a
 1634 005c 0B       		.uleb128 0xb
 1635 005d 3B       		.uleb128 0x3b
 1636 005e 0B       		.uleb128 0xb
 1637 005f 01       		.uleb128 0x1
 1638 0060 13       		.uleb128 0x13
 1639 0061 00       		.byte	0
 1640 0062 00       		.byte	0
 1641 0063 0A       		.uleb128 0xa
 1642 0064 0D       		.uleb128 0xd
 1643 0065 00       		.byte	0
 1644 0066 03       		.uleb128 0x3
 1645 0067 0E       		.uleb128 0xe
 1646 0068 3A       		.uleb128 0x3a
 1647 0069 0B       		.uleb128 0xb
 1648 006a 3B       		.uleb128 0x3b
 1649 006b 0B       		.uleb128 0xb
 1650 006c 49       		.uleb128 0x49
 1651 006d 13       		.uleb128 0x13
 1652 006e 38       		.uleb128 0x38
 1653 006f 0B       		.uleb128 0xb
 1654 0070 00       		.byte	0
 1655 0071 00       		.byte	0
 1656 0072 0B       		.uleb128 0xb
 1657 0073 13       		.uleb128 0x13
 1658 0074 01       		.byte	0x1
 1659 0075 0B       		.uleb128 0xb
 1660 0076 05       		.uleb128 0x5
 1661 0077 3A       		.uleb128 0x3a
 1662 0078 0B       		.uleb128 0xb
 1663 0079 3B       		.uleb128 0x3b
 1664 007a 0B       		.uleb128 0xb
 1665 007b 01       		.uleb128 0x1
 1666 007c 13       		.uleb128 0x13
 1667 007d 00       		.byte	0
 1668 007e 00       		.byte	0
 1669 007f 0C       		.uleb128 0xc
 1670 0080 0D       		.uleb128 0xd
 1671 0081 00       		.byte	0
 1672 0082 03       		.uleb128 0x3
 1673 0083 0E       		.uleb128 0xe
 1674 0084 3A       		.uleb128 0x3a
 1675 0085 0B       		.uleb128 0xb
 1676 0086 3B       		.uleb128 0x3b
 1677 0087 0B       		.uleb128 0xb
 1678 0088 49       		.uleb128 0x49
 1679 0089 13       		.uleb128 0x13
 1680 008a 38       		.uleb128 0x38
 1681 008b 05       		.uleb128 0x5
 1682 008c 00       		.byte	0
ARM GAS  C:\Users\salaz\AppData\Local\Temp\ccFFISlC.s 			page 54


 1683 008d 00       		.byte	0
 1684 008e 0D       		.uleb128 0xd
 1685 008f 21       		.uleb128 0x21
 1686 0090 00       		.byte	0
 1687 0091 49       		.uleb128 0x49
 1688 0092 13       		.uleb128 0x13
 1689 0093 2F       		.uleb128 0x2f
 1690 0094 05       		.uleb128 0x5
 1691 0095 00       		.byte	0
 1692 0096 00       		.byte	0
 1693 0097 0E       		.uleb128 0xe
 1694 0098 16       		.uleb128 0x16
 1695 0099 00       		.byte	0
 1696 009a 03       		.uleb128 0x3
 1697 009b 0E       		.uleb128 0xe
 1698 009c 3A       		.uleb128 0x3a
 1699 009d 0B       		.uleb128 0xb
 1700 009e 3B       		.uleb128 0x3b
 1701 009f 05       		.uleb128 0x5
 1702 00a0 49       		.uleb128 0x49
 1703 00a1 13       		.uleb128 0x13
 1704 00a2 00       		.byte	0
 1705 00a3 00       		.byte	0
 1706 00a4 0F       		.uleb128 0xf
 1707 00a5 04       		.uleb128 0x4
 1708 00a6 01       		.byte	0x1
 1709 00a7 0B       		.uleb128 0xb
 1710 00a8 0B       		.uleb128 0xb
 1711 00a9 49       		.uleb128 0x49
 1712 00aa 13       		.uleb128 0x13
 1713 00ab 3A       		.uleb128 0x3a
 1714 00ac 0B       		.uleb128 0xb
 1715 00ad 3B       		.uleb128 0x3b
 1716 00ae 05       		.uleb128 0x5
 1717 00af 01       		.uleb128 0x1
 1718 00b0 13       		.uleb128 0x13
 1719 00b1 00       		.byte	0
 1720 00b2 00       		.byte	0
 1721 00b3 10       		.uleb128 0x10
 1722 00b4 28       		.uleb128 0x28
 1723 00b5 00       		.byte	0
 1724 00b6 03       		.uleb128 0x3
 1725 00b7 0E       		.uleb128 0xe
 1726 00b8 1C       		.uleb128 0x1c
 1727 00b9 0B       		.uleb128 0xb
 1728 00ba 00       		.byte	0
 1729 00bb 00       		.byte	0
 1730 00bc 11       		.uleb128 0x11
 1731 00bd 28       		.uleb128 0x28
 1732 00be 00       		.byte	0
 1733 00bf 03       		.uleb128 0x3
 1734 00c0 0E       		.uleb128 0xe
 1735 00c1 1C       		.uleb128 0x1c
 1736 00c2 06       		.uleb128 0x6
 1737 00c3 00       		.byte	0
 1738 00c4 00       		.byte	0
 1739 00c5 12       		.uleb128 0x12
ARM GAS  C:\Users\salaz\AppData\Local\Temp\ccFFISlC.s 			page 55


 1740 00c6 04       		.uleb128 0x4
 1741 00c7 01       		.byte	0x1
 1742 00c8 0B       		.uleb128 0xb
 1743 00c9 0B       		.uleb128 0xb
 1744 00ca 49       		.uleb128 0x49
 1745 00cb 13       		.uleb128 0x13
 1746 00cc 3A       		.uleb128 0x3a
 1747 00cd 0B       		.uleb128 0xb
 1748 00ce 3B       		.uleb128 0x3b
 1749 00cf 0B       		.uleb128 0xb
 1750 00d0 01       		.uleb128 0x1
 1751 00d1 13       		.uleb128 0x13
 1752 00d2 00       		.byte	0
 1753 00d3 00       		.byte	0
 1754 00d4 13       		.uleb128 0x13
 1755 00d5 0F       		.uleb128 0xf
 1756 00d6 00       		.byte	0
 1757 00d7 0B       		.uleb128 0xb
 1758 00d8 0B       		.uleb128 0xb
 1759 00d9 49       		.uleb128 0x49
 1760 00da 13       		.uleb128 0x13
 1761 00db 00       		.byte	0
 1762 00dc 00       		.byte	0
 1763 00dd 14       		.uleb128 0x14
 1764 00de 2E       		.uleb128 0x2e
 1765 00df 01       		.byte	0x1
 1766 00e0 03       		.uleb128 0x3
 1767 00e1 0E       		.uleb128 0xe
 1768 00e2 3A       		.uleb128 0x3a
 1769 00e3 0B       		.uleb128 0xb
 1770 00e4 3B       		.uleb128 0x3b
 1771 00e5 05       		.uleb128 0x5
 1772 00e6 27       		.uleb128 0x27
 1773 00e7 19       		.uleb128 0x19
 1774 00e8 49       		.uleb128 0x49
 1775 00e9 13       		.uleb128 0x13
 1776 00ea 11       		.uleb128 0x11
 1777 00eb 01       		.uleb128 0x1
 1778 00ec 12       		.uleb128 0x12
 1779 00ed 06       		.uleb128 0x6
 1780 00ee 40       		.uleb128 0x40
 1781 00ef 18       		.uleb128 0x18
 1782 00f0 9642     		.uleb128 0x2116
 1783 00f2 19       		.uleb128 0x19
 1784 00f3 01       		.uleb128 0x1
 1785 00f4 13       		.uleb128 0x13
 1786 00f5 00       		.byte	0
 1787 00f6 00       		.byte	0
 1788 00f7 15       		.uleb128 0x15
 1789 00f8 05       		.uleb128 0x5
 1790 00f9 00       		.byte	0
 1791 00fa 03       		.uleb128 0x3
 1792 00fb 0E       		.uleb128 0xe
 1793 00fc 3A       		.uleb128 0x3a
 1794 00fd 0B       		.uleb128 0xb
 1795 00fe 3B       		.uleb128 0x3b
 1796 00ff 05       		.uleb128 0x5
ARM GAS  C:\Users\salaz\AppData\Local\Temp\ccFFISlC.s 			page 56


 1797 0100 49       		.uleb128 0x49
 1798 0101 13       		.uleb128 0x13
 1799 0102 02       		.uleb128 0x2
 1800 0103 18       		.uleb128 0x18
 1801 0104 00       		.byte	0
 1802 0105 00       		.byte	0
 1803 0106 16       		.uleb128 0x16
 1804 0107 2E       		.uleb128 0x2e
 1805 0108 01       		.byte	0x1
 1806 0109 03       		.uleb128 0x3
 1807 010a 0E       		.uleb128 0xe
 1808 010b 3A       		.uleb128 0x3a
 1809 010c 0B       		.uleb128 0xb
 1810 010d 3B       		.uleb128 0x3b
 1811 010e 05       		.uleb128 0x5
 1812 010f 27       		.uleb128 0x27
 1813 0110 19       		.uleb128 0x19
 1814 0111 49       		.uleb128 0x49
 1815 0112 13       		.uleb128 0x13
 1816 0113 11       		.uleb128 0x11
 1817 0114 01       		.uleb128 0x1
 1818 0115 12       		.uleb128 0x12
 1819 0116 06       		.uleb128 0x6
 1820 0117 40       		.uleb128 0x40
 1821 0118 18       		.uleb128 0x18
 1822 0119 9742     		.uleb128 0x2117
 1823 011b 19       		.uleb128 0x19
 1824 011c 01       		.uleb128 0x1
 1825 011d 13       		.uleb128 0x13
 1826 011e 00       		.byte	0
 1827 011f 00       		.byte	0
 1828 0120 17       		.uleb128 0x17
 1829 0121 26       		.uleb128 0x26
 1830 0122 00       		.byte	0
 1831 0123 00       		.byte	0
 1832 0124 00       		.byte	0
 1833 0125 18       		.uleb128 0x18
 1834 0126 2E       		.uleb128 0x2e
 1835 0127 01       		.byte	0x1
 1836 0128 3F       		.uleb128 0x3f
 1837 0129 19       		.uleb128 0x19
 1838 012a 03       		.uleb128 0x3
 1839 012b 0E       		.uleb128 0xe
 1840 012c 3A       		.uleb128 0x3a
 1841 012d 0B       		.uleb128 0xb
 1842 012e 3B       		.uleb128 0x3b
 1843 012f 0B       		.uleb128 0xb
 1844 0130 27       		.uleb128 0x27
 1845 0131 19       		.uleb128 0x19
 1846 0132 49       		.uleb128 0x49
 1847 0133 13       		.uleb128 0x13
 1848 0134 11       		.uleb128 0x11
 1849 0135 01       		.uleb128 0x1
 1850 0136 12       		.uleb128 0x12
 1851 0137 06       		.uleb128 0x6
 1852 0138 40       		.uleb128 0x40
 1853 0139 18       		.uleb128 0x18
ARM GAS  C:\Users\salaz\AppData\Local\Temp\ccFFISlC.s 			page 57


 1854 013a 9642     		.uleb128 0x2116
 1855 013c 19       		.uleb128 0x19
 1856 013d 01       		.uleb128 0x1
 1857 013e 13       		.uleb128 0x13
 1858 013f 00       		.byte	0
 1859 0140 00       		.byte	0
 1860 0141 19       		.uleb128 0x19
 1861 0142 05       		.uleb128 0x5
 1862 0143 00       		.byte	0
 1863 0144 03       		.uleb128 0x3
 1864 0145 0E       		.uleb128 0xe
 1865 0146 3A       		.uleb128 0x3a
 1866 0147 0B       		.uleb128 0xb
 1867 0148 3B       		.uleb128 0x3b
 1868 0149 0B       		.uleb128 0xb
 1869 014a 49       		.uleb128 0x49
 1870 014b 13       		.uleb128 0x13
 1871 014c 02       		.uleb128 0x2
 1872 014d 18       		.uleb128 0x18
 1873 014e 00       		.byte	0
 1874 014f 00       		.byte	0
 1875 0150 1A       		.uleb128 0x1a
 1876 0151 34       		.uleb128 0x34
 1877 0152 00       		.byte	0
 1878 0153 03       		.uleb128 0x3
 1879 0154 0E       		.uleb128 0xe
 1880 0155 3A       		.uleb128 0x3a
 1881 0156 0B       		.uleb128 0xb
 1882 0157 3B       		.uleb128 0x3b
 1883 0158 0B       		.uleb128 0xb
 1884 0159 49       		.uleb128 0x49
 1885 015a 13       		.uleb128 0x13
 1886 015b 02       		.uleb128 0x2
 1887 015c 18       		.uleb128 0x18
 1888 015d 00       		.byte	0
 1889 015e 00       		.byte	0
 1890 015f 1B       		.uleb128 0x1b
 1891 0160 2E       		.uleb128 0x2e
 1892 0161 01       		.byte	0x1
 1893 0162 3F       		.uleb128 0x3f
 1894 0163 19       		.uleb128 0x19
 1895 0164 03       		.uleb128 0x3
 1896 0165 0E       		.uleb128 0xe
 1897 0166 3A       		.uleb128 0x3a
 1898 0167 0B       		.uleb128 0xb
 1899 0168 3B       		.uleb128 0x3b
 1900 0169 05       		.uleb128 0x5
 1901 016a 27       		.uleb128 0x27
 1902 016b 19       		.uleb128 0x19
 1903 016c 49       		.uleb128 0x49
 1904 016d 13       		.uleb128 0x13
 1905 016e 11       		.uleb128 0x11
 1906 016f 01       		.uleb128 0x1
 1907 0170 12       		.uleb128 0x12
 1908 0171 06       		.uleb128 0x6
 1909 0172 40       		.uleb128 0x40
 1910 0173 18       		.uleb128 0x18
ARM GAS  C:\Users\salaz\AppData\Local\Temp\ccFFISlC.s 			page 58


 1911 0174 9642     		.uleb128 0x2116
 1912 0176 19       		.uleb128 0x19
 1913 0177 01       		.uleb128 0x1
 1914 0178 13       		.uleb128 0x13
 1915 0179 00       		.byte	0
 1916 017a 00       		.byte	0
 1917 017b 1C       		.uleb128 0x1c
 1918 017c 34       		.uleb128 0x34
 1919 017d 00       		.byte	0
 1920 017e 03       		.uleb128 0x3
 1921 017f 0E       		.uleb128 0xe
 1922 0180 3A       		.uleb128 0x3a
 1923 0181 0B       		.uleb128 0xb
 1924 0182 3B       		.uleb128 0x3b
 1925 0183 05       		.uleb128 0x5
 1926 0184 49       		.uleb128 0x49
 1927 0185 13       		.uleb128 0x13
 1928 0186 02       		.uleb128 0x2
 1929 0187 18       		.uleb128 0x18
 1930 0188 00       		.byte	0
 1931 0189 00       		.byte	0
 1932 018a 00       		.byte	0
 1933              		.section	.debug_aranges,"",%progbits
 1934 0000 5C000000 		.4byte	0x5c
 1935 0004 0200     		.2byte	0x2
 1936 0006 00000000 		.4byte	.Ldebug_info0
 1937 000a 04       		.byte	0x4
 1938 000b 00       		.byte	0
 1939 000c 0000     		.2byte	0
 1940 000e 0000     		.2byte	0
 1941 0010 00000000 		.4byte	.LFB36
 1942 0014 38000000 		.4byte	.LFE36-.LFB36
 1943 0018 00000000 		.4byte	.LFB47
 1944 001c 14000000 		.4byte	.LFE47-.LFB47
 1945 0020 00000000 		.4byte	.LFB52
 1946 0024 3C000000 		.4byte	.LFE52-.LFB52
 1947 0028 00000000 		.4byte	.LFB54
 1948 002c 24000000 		.4byte	.LFE54-.LFB54
 1949 0030 00000000 		.4byte	.LFB55
 1950 0034 E0000000 		.4byte	.LFE55-.LFB55
 1951 0038 00000000 		.4byte	.LFB56
 1952 003c E4000000 		.4byte	.LFE56-.LFB56
 1953 0040 00000000 		.4byte	.LFB57
 1954 0044 E4000000 		.4byte	.LFE57-.LFB57
 1955 0048 00000000 		.4byte	.LFB58
 1956 004c 74000000 		.4byte	.LFE58-.LFB58
 1957 0050 00000000 		.4byte	.LFB59
 1958 0054 24000000 		.4byte	.LFE59-.LFB59
 1959 0058 00000000 		.4byte	0
 1960 005c 00000000 		.4byte	0
 1961              		.section	.debug_ranges,"",%progbits
 1962              	.Ldebug_ranges0:
 1963 0000 00000000 		.4byte	.LFB36
 1964 0004 38000000 		.4byte	.LFE36
 1965 0008 00000000 		.4byte	.LFB47
 1966 000c 14000000 		.4byte	.LFE47
 1967 0010 00000000 		.4byte	.LFB52
ARM GAS  C:\Users\salaz\AppData\Local\Temp\ccFFISlC.s 			page 59


 1968 0014 3C000000 		.4byte	.LFE52
 1969 0018 00000000 		.4byte	.LFB54
 1970 001c 24000000 		.4byte	.LFE54
 1971 0020 00000000 		.4byte	.LFB55
 1972 0024 E0000000 		.4byte	.LFE55
 1973 0028 00000000 		.4byte	.LFB56
 1974 002c E4000000 		.4byte	.LFE56
 1975 0030 00000000 		.4byte	.LFB57
 1976 0034 E4000000 		.4byte	.LFE57
 1977 0038 00000000 		.4byte	.LFB58
 1978 003c 74000000 		.4byte	.LFE58
 1979 0040 00000000 		.4byte	.LFB59
 1980 0044 24000000 		.4byte	.LFE59
 1981 0048 00000000 		.4byte	0
 1982 004c 00000000 		.4byte	0
 1983              		.section	.debug_line,"",%progbits
 1984              	.Ldebug_line0:
 1985 0000 25030000 		.section	.debug_str,"MS",%progbits,1
 1985      0200F201 
 1985      00000201 
 1985      FB0E0D00 
 1985      01010101 
 1986              	.LASF64:
 1987 0000 70726565 		.ascii	"preemptable\000"
 1987      6D707461 
 1987      626C6500 
 1988              	.LASF44:
 1989 000c 63795F65 		.ascii	"cy_en_ipcsema_status_t\000"
 1989      6E5F6970 
 1989      6373656D 
 1989      615F7374 
 1989      61747573 
 1990              	.LASF28:
 1991 0023 63686172 		.ascii	"char\000"
 1991      00
 1992              	.LASF2:
 1993 0028 73686F72 		.ascii	"short int\000"
 1993      7420696E 
 1993      7400
 1994              	.LASF11:
 1995 0032 73697A65 		.ascii	"sizetype\000"
 1995      74797065 
 1995      00
 1996              	.LASF9:
 1997 003b 5F5F7569 		.ascii	"__uint32_t\000"
 1997      6E743332 
 1997      5F7400
 1998              	.LASF17:
 1999 0046 52455345 		.ascii	"RESERVED\000"
 1999      52564544 
 1999      00
 2000              	.LASF32:
 2001 004f 43595F49 		.ascii	"CY_IPC_DRV_SUCCESS\000"
 2001      50435F44 
 2001      52565F53 
 2001      55434345 
 2001      535300
ARM GAS  C:\Users\salaz\AppData\Local\Temp\ccFFISlC.s 			page 60


 2002              	.LASF25:
 2003 0062 494E5452 		.ascii	"INTR_STRUCT\000"
 2003      5F535452 
 2003      55435400 
 2004              	.LASF63:
 2005 006e 73656D61 		.ascii	"semaNumber\000"
 2005      4E756D62 
 2005      657200
 2006              	.LASF61:
 2007 0079 43795F49 		.ascii	"Cy_IPC_Sema_Init\000"
 2007      50435F53 
 2007      656D615F 
 2007      496E6974 
 2007      00
 2008              	.LASF76:
 2009 008a 433A5C55 		.ascii	"C:\\Users\\salaz\\Desktop\\UART\\UART_debug.cydsn\000"
 2009      73657273 
 2009      5C73616C 
 2009      617A5C44 
 2009      65736B74 
 2010              	.LASF47:
 2011 00b7 63795F73 		.ascii	"cy_stc_ipc_sema_t\000"
 2011      74635F69 
 2011      70635F73 
 2011      656D615F 
 2011      7400
 2012              	.LASF21:
 2013 00c9 494E5452 		.ascii	"INTR_MASK\000"
 2013      5F4D4153 
 2013      4B00
 2014              	.LASF39:
 2015 00d3 43595F49 		.ascii	"CY_IPC_SEMA_OUT_OF_RANGE\000"
 2015      50435F53 
 2015      454D415F 
 2015      4F55545F 
 2015      4F465F52 
 2016              	.LASF29:
 2017 00ec 666C6F61 		.ascii	"float\000"
 2017      7400
 2018              	.LASF53:
 2019 00f2 6E6F7469 		.ascii	"notifyEventIntr\000"
 2019      66794576 
 2019      656E7449 
 2019      6E747200 
 2020              	.LASF50:
 2021 0102 69706349 		.ascii	"ipcIndex\000"
 2021      6E646578 
 2021      00
 2022              	.LASF6:
 2023 010b 6C6F6E67 		.ascii	"long long int\000"
 2023      206C6F6E 
 2023      6720696E 
 2023      7400
 2024              	.LASF37:
 2025 0119 43595F49 		.ascii	"CY_IPC_SEMA_ERROR_UNLOCKED\000"
 2025      50435F53 
 2025      454D415F 
ARM GAS  C:\Users\salaz\AppData\Local\Temp\ccFFISlC.s 			page 61


 2025      4552524F 
 2025      525F554E 
 2026              	.LASF14:
 2027 0134 4E4F5449 		.ascii	"NOTIFY\000"
 2027      465900
 2028              	.LASF52:
 2029 013b 43795F49 		.ascii	"Cy_IPC_Drv_SendMsgPtr\000"
 2029      50435F44 
 2029      72765F53 
 2029      656E644D 
 2029      73675074 
 2030              	.LASF48:
 2031 0151 43795F49 		.ascii	"Cy_IPC_Drv_GetIpcBaseAddress\000"
 2031      50435F44 
 2031      72765F47 
 2031      65744970 
 2031      63426173 
 2032              	.LASF4:
 2033 016e 6C6F6E67 		.ascii	"long int\000"
 2033      20696E74 
 2033      00
 2034              	.LASF36:
 2035 0177 43595F49 		.ascii	"CY_IPC_SEMA_ERROR_LOCKED\000"
 2035      50435F53 
 2035      454D415F 
 2035      4552524F 
 2035      525F4C4F 
 2036              	.LASF70:
 2037 0190 43795F49 		.ascii	"Cy_IPC_Sema_Clear\000"
 2037      50435F53 
 2037      656D615F 
 2037      436C6561 
 2037      7200
 2038              	.LASF27:
 2039 01a2 63686172 		.ascii	"char_t\000"
 2039      5F7400
 2040              	.LASF35:
 2041 01a9 43595F49 		.ascii	"CY_IPC_SEMA_SUCCESS\000"
 2041      50435F53 
 2041      454D415F 
 2041      53554343 
 2041      45535300 
 2042              	.LASF55:
 2043 01bd 43795F49 		.ascii	"Cy_IPC_Drv_LockAcquire\000"
 2043      50435F44 
 2043      72765F4C 
 2043      6F636B41 
 2043      63717569 
 2044              	.LASF23:
 2045 01d4 4950435F 		.ascii	"IPC_INTR_STRUCT_Type\000"
 2045      494E5452 
 2045      5F535452 
 2045      5543545F 
 2045      54797065 
 2046              	.LASF33:
 2047 01e9 43595F49 		.ascii	"CY_IPC_DRV_ERROR\000"
 2047      50435F44 
ARM GAS  C:\Users\salaz\AppData\Local\Temp\ccFFISlC.s 			page 62


 2047      52565F45 
 2047      52524F52 
 2047      00
 2048              	.LASF18:
 2049 01fa 4950435F 		.ascii	"IPC_STRUCT_Type\000"
 2049      53545255 
 2049      43545F54 
 2049      79706500 
 2050              	.LASF41:
 2051 020a 43595F49 		.ascii	"CY_IPC_SEMA_LOCKED\000"
 2051      50435F53 
 2051      454D415F 
 2051      4C4F434B 
 2051      454400
 2052              	.LASF15:
 2053 021d 44415441 		.ascii	"DATA\000"
 2053      00
 2054              	.LASF22:
 2055 0222 494E5452 		.ascii	"INTR_MASKED\000"
 2055      5F4D4153 
 2055      4B454400 
 2056              	.LASF31:
 2057 022e 6C6F6E67 		.ascii	"long double\000"
 2057      20646F75 
 2057      626C6500 
 2058              	.LASF13:
 2059 023a 52454C45 		.ascii	"RELEASE\000"
 2059      41534500 
 2060              	.LASF1:
 2061 0242 756E7369 		.ascii	"unsigned char\000"
 2061      676E6564 
 2061      20636861 
 2061      7200
 2062              	.LASF0:
 2063 0250 7369676E 		.ascii	"signed char\000"
 2063      65642063 
 2063      68617200 
 2064              	.LASF20:
 2065 025c 494E5452 		.ascii	"INTR_SET\000"
 2065      5F534554 
 2065      00
 2066              	.LASF7:
 2067 0265 6C6F6E67 		.ascii	"long long unsigned int\000"
 2067      206C6F6E 
 2067      6720756E 
 2067      7369676E 
 2067      65642069 
 2068              	.LASF10:
 2069 027c 75696E74 		.ascii	"uint32_t\000"
 2069      33325F74 
 2069      00
 2070              	.LASF34:
 2071 0285 63795F65 		.ascii	"cy_en_ipcdrv_status_t\000"
 2071      6E5F6970 
 2071      63647276 
 2071      5F737461 
 2071      7475735F 
ARM GAS  C:\Users\salaz\AppData\Local\Temp\ccFFISlC.s 			page 63


 2072              	.LASF8:
 2073 029b 756E7369 		.ascii	"unsigned int\000"
 2073      676E6564 
 2073      20696E74 
 2073      00
 2074              	.LASF49:
 2075 02a8 43795F49 		.ascii	"Cy_IPC_Drv_ReadDataValue\000"
 2075      50435F44 
 2075      72765F52 
 2075      65616444 
 2075      61746156 
 2076              	.LASF26:
 2077 02c1 4950435F 		.ascii	"IPC_Type\000"
 2077      54797065 
 2077      00
 2078              	.LASF38:
 2079 02ca 43595F49 		.ascii	"CY_IPC_SEMA_BAD_PARAM\000"
 2079      50435F53 
 2079      454D415F 
 2079      4241445F 
 2079      50415241 
 2080              	.LASF46:
 2081 02e0 61727261 		.ascii	"arrayPtr\000"
 2081      79507472 
 2081      00
 2082              	.LASF40:
 2083 02e9 43595F49 		.ascii	"CY_IPC_SEMA_NOT_ACQUIRED\000"
 2083      50435F53 
 2083      454D415F 
 2083      4E4F545F 
 2083      41435155 
 2084              	.LASF66:
 2085 0302 73656D61 		.ascii	"semaMask\000"
 2085      4D61736B 
 2085      00
 2086              	.LASF68:
 2087 030b 73656D61 		.ascii	"semaStruct\000"
 2087      53747275 
 2087      637400
 2088              	.LASF42:
 2089 0316 43595F49 		.ascii	"CY_IPC_SEMA_STATUS_LOCKED\000"
 2089      50435F53 
 2089      454D415F 
 2089      53544154 
 2089      55535F4C 
 2090              	.LASF3:
 2091 0330 73686F72 		.ascii	"short unsigned int\000"
 2091      7420756E 
 2091      7369676E 
 2091      65642069 
 2091      6E7400
 2092              	.LASF43:
 2093 0343 43595F49 		.ascii	"CY_IPC_SEMA_STATUS_UNLOCKED\000"
 2093      50435F53 
 2093      454D415F 
 2093      53544154 
 2093      55535F55 
ARM GAS  C:\Users\salaz\AppData\Local\Temp\ccFFISlC.s 			page 64


 2094              	.LASF69:
 2095 035f 5F426F6F 		.ascii	"_Bool\000"
 2095      6C00
 2096              	.LASF19:
 2097 0365 494E5452 		.ascii	"INTR\000"
 2097      00
 2098              	.LASF62:
 2099 036a 43795F49 		.ascii	"Cy_IPC_Sema_Set\000"
 2099      50435F53 
 2099      656D615F 
 2099      53657400 
 2100              	.LASF67:
 2101 037a 696E7465 		.ascii	"interruptState\000"
 2101      72727570 
 2101      74537461 
 2101      746500
 2102              	.LASF54:
 2103 0389 6D736750 		.ascii	"msgPtr\000"
 2103      747200
 2104              	.LASF5:
 2105 0390 6C6F6E67 		.ascii	"long unsigned int\000"
 2105      20756E73 
 2105      69676E65 
 2105      6420696E 
 2105      7400
 2106              	.LASF30:
 2107 03a2 646F7562 		.ascii	"double\000"
 2107      6C6500
 2108              	.LASF72:
 2109 03a9 43795F49 		.ascii	"Cy_IPC_Sema_GetMaxSems\000"
 2109      50435F53 
 2109      656D615F 
 2109      4765744D 
 2109      61785365 
 2110              	.LASF75:
 2111 03c0 47656E65 		.ascii	"Generated_Source\\PSoC6\\pdl\\drivers\\peripheral\\"
 2111      72617465 
 2111      645F536F 
 2111      75726365 
 2111      5C50536F 
 2112 03ee 6970635C 		.ascii	"ipc\\cy_ipc_sema.c\000"
 2112      63795F69 
 2112      70635F73 
 2112      656D612E 
 2112      6300
 2113              	.LASF56:
 2114 0400 69706343 		.ascii	"ipcChannel\000"
 2114      68616E6E 
 2114      656C00
 2115              	.LASF71:
 2116 040b 43795F49 		.ascii	"Cy_IPC_Sema_Status\000"
 2116      50435F53 
 2116      656D615F 
 2116      53746174 
 2116      757300
 2117              	.LASF16:
 2118 041e 4C4F434B 		.ascii	"LOCK_STATUS\000"
ARM GAS  C:\Users\salaz\AppData\Local\Temp\ccFFISlC.s 			page 65


 2118      5F535441 
 2118      54555300 
 2119              	.LASF57:
 2120 042a 636F756E 		.ascii	"count\000"
 2120      7400
 2121              	.LASF24:
 2122 0430 53545255 		.ascii	"STRUCT\000"
 2122      435400
 2123              	.LASF74:
 2124 0437 474E5520 		.ascii	"GNU C11 5.4.1 20160609 (release) [ARM/embedded-5-br"
 2124      43313120 
 2124      352E342E 
 2124      31203230 
 2124      31363036 
 2125 046a 616E6368 		.ascii	"anch revision 237715] -mcpu=cortex-m0plus -mthumb -"
 2125      20726576 
 2125      6973696F 
 2125      6E203233 
 2125      37373135 
 2126 049d 67202D4F 		.ascii	"g -O0 -ffunction-sections -ffat-lto-objects\000"
 2126      30202D66 
 2126      66756E63 
 2126      74696F6E 
 2126      2D736563 
 2127              	.LASF45:
 2128 04c9 6D617853 		.ascii	"maxSema\000"
 2128      656D6100 
 2129              	.LASF60:
 2130 04d1 72657453 		.ascii	"retStatus\000"
 2130      74617475 
 2130      7300
 2131              	.LASF65:
 2132 04db 73656D61 		.ascii	"semaIndex\000"
 2132      496E6465 
 2132      7800
 2133              	.LASF58:
 2134 04e5 6D656D50 		.ascii	"memPtr\000"
 2134      747200
 2135              	.LASF73:
 2136 04ec 63795F73 		.ascii	"cy_semaIpcStruct\000"
 2136      656D6149 
 2136      70635374 
 2136      72756374 
 2136      00
 2137              	.LASF51:
 2138 04fd 62617365 		.ascii	"base\000"
 2138      00
 2139              	.LASF59:
 2140 0502 63795F73 		.ascii	"cy_semaData\000"
 2140      656D6144 
 2140      61746100 
 2141              	.LASF12:
 2142 050e 41435155 		.ascii	"ACQUIRE\000"
 2142      49524500 
 2143              		.ident	"GCC: (GNU Tools for ARM Embedded Processors) 5.4.1 20160609 (release) [ARM/embedded-5-bran
