ARM GAS  C:\Users\salaz\AppData\Local\Temp\cc2HCa0f.s 			page 1


   1              		.syntax unified
   2              		.cpu cortex-m0plus
   3              		.fpu softvfp
   4              		.eabi_attribute 20, 1
   5              		.eabi_attribute 21, 1
   6              		.eabi_attribute 23, 3
   7              		.eabi_attribute 24, 1
   8              		.eabi_attribute 25, 1
   9              		.eabi_attribute 26, 1
  10              		.eabi_attribute 30, 6
  11              		.eabi_attribute 34, 0
  12              		.eabi_attribute 18, 4
  13              		.thumb
  14              		.syntax unified
  15              		.file	"cy_lvd.c"
  16              		.text
  17              	.Ltext0:
  18              		.cfi_sections	.debug_frame
  19              		.section	.text.Cy_LVD_Enable,"ax",%progbits
  20              		.align	2
  21              		.code	16
  22              		.thumb_func
  23              		.type	Cy_LVD_Enable, %function
  24              	Cy_LVD_Enable:
  25              	.LFB69:
  26              		.file 1 "Generated_Source\\PSoC6\\pdl\\drivers\\peripheral\\lvd\\cy_lvd.h"
   1:Generated_Source\PSoC6\pdl\drivers\peripheral\lvd/cy_lvd.h **** /***************************************************************************//**
   2:Generated_Source\PSoC6\pdl\drivers\peripheral\lvd/cy_lvd.h **** * \file cy_lvd.h
   3:Generated_Source\PSoC6\pdl\drivers\peripheral\lvd/cy_lvd.h **** * \version 1.0.1
   4:Generated_Source\PSoC6\pdl\drivers\peripheral\lvd/cy_lvd.h **** * 
   5:Generated_Source\PSoC6\pdl\drivers\peripheral\lvd/cy_lvd.h **** * The header file of the LVD driver.
   6:Generated_Source\PSoC6\pdl\drivers\peripheral\lvd/cy_lvd.h **** *
   7:Generated_Source\PSoC6\pdl\drivers\peripheral\lvd/cy_lvd.h **** ********************************************************************************
   8:Generated_Source\PSoC6\pdl\drivers\peripheral\lvd/cy_lvd.h **** * \copyright
   9:Generated_Source\PSoC6\pdl\drivers\peripheral\lvd/cy_lvd.h **** * Copyright 2017-2018, Cypress Semiconductor Corporation. All rights reserved.
  10:Generated_Source\PSoC6\pdl\drivers\peripheral\lvd/cy_lvd.h **** * You may use this file only in accordance with the license, terms, conditions,
  11:Generated_Source\PSoC6\pdl\drivers\peripheral\lvd/cy_lvd.h **** * disclaimers, and limitations in the end user license agreement accompanying
  12:Generated_Source\PSoC6\pdl\drivers\peripheral\lvd/cy_lvd.h **** * the software package with which this file was provided.
  13:Generated_Source\PSoC6\pdl\drivers\peripheral\lvd/cy_lvd.h **** *******************************************************************************/
  14:Generated_Source\PSoC6\pdl\drivers\peripheral\lvd/cy_lvd.h **** 
  15:Generated_Source\PSoC6\pdl\drivers\peripheral\lvd/cy_lvd.h **** /**
  16:Generated_Source\PSoC6\pdl\drivers\peripheral\lvd/cy_lvd.h **** * \addtogroup group_lvd
  17:Generated_Source\PSoC6\pdl\drivers\peripheral\lvd/cy_lvd.h **** * \{
  18:Generated_Source\PSoC6\pdl\drivers\peripheral\lvd/cy_lvd.h **** * The LVD driver provides an API to manage the Low Voltage Detection block. 
  19:Generated_Source\PSoC6\pdl\drivers\peripheral\lvd/cy_lvd.h **** * The LVD block provides a status of currently observed VDDD voltage 
  20:Generated_Source\PSoC6\pdl\drivers\peripheral\lvd/cy_lvd.h **** * and triggers an interrupt when the observed voltage crosses an adjusted
  21:Generated_Source\PSoC6\pdl\drivers\peripheral\lvd/cy_lvd.h **** * threshold.
  22:Generated_Source\PSoC6\pdl\drivers\peripheral\lvd/cy_lvd.h **** *
  23:Generated_Source\PSoC6\pdl\drivers\peripheral\lvd/cy_lvd.h **** * \section group_lvd_configuration_considerations Configuration Considerations
  24:Generated_Source\PSoC6\pdl\drivers\peripheral\lvd/cy_lvd.h **** * To set up an LVD, configure the voltage threshold by the 
  25:Generated_Source\PSoC6\pdl\drivers\peripheral\lvd/cy_lvd.h **** * \ref Cy_LVD_SetThreshold function, ensure that the LVD block itself and LVD 
  26:Generated_Source\PSoC6\pdl\drivers\peripheral\lvd/cy_lvd.h **** * interrupt are disabled (by the \ref Cy_LVD_Disable and 
  27:Generated_Source\PSoC6\pdl\drivers\peripheral\lvd/cy_lvd.h **** * \ref Cy_LVD_ClearInterruptMask functions correspondingly) before changing the
  28:Generated_Source\PSoC6\pdl\drivers\peripheral\lvd/cy_lvd.h **** * threshold to prevent propagating a false interrupt. 
  29:Generated_Source\PSoC6\pdl\drivers\peripheral\lvd/cy_lvd.h **** * Then configure interrupts by the \ref Cy_LVD_SetInterruptConfig function, do
  30:Generated_Source\PSoC6\pdl\drivers\peripheral\lvd/cy_lvd.h **** * not forget to initialise an interrupt handler (the interrupt source number 
  31:Generated_Source\PSoC6\pdl\drivers\peripheral\lvd/cy_lvd.h **** * is srss_interrupt_IRQn).
ARM GAS  C:\Users\salaz\AppData\Local\Temp\cc2HCa0f.s 			page 2


  32:Generated_Source\PSoC6\pdl\drivers\peripheral\lvd/cy_lvd.h **** * Then enable LVD by the \ref Cy_LVD_Enable function, then wait for at least 20us
  33:Generated_Source\PSoC6\pdl\drivers\peripheral\lvd/cy_lvd.h **** * to get the circuit stabilized and clear the possible false interrupts by the
  34:Generated_Source\PSoC6\pdl\drivers\peripheral\lvd/cy_lvd.h **** * \ref Cy_LVD_ClearInterrupt, and finally the LVD interrupt can be enabled by
  35:Generated_Source\PSoC6\pdl\drivers\peripheral\lvd/cy_lvd.h **** * the \ref Cy_LVD_SetInterruptMask function.
  36:Generated_Source\PSoC6\pdl\drivers\peripheral\lvd/cy_lvd.h **** *
  37:Generated_Source\PSoC6\pdl\drivers\peripheral\lvd/cy_lvd.h **** * For example:
  38:Generated_Source\PSoC6\pdl\drivers\peripheral\lvd/cy_lvd.h **** * \snippet lvd_1_0_sut_00.cydsn/main_cm4.c Cy_LVD_Snippet
  39:Generated_Source\PSoC6\pdl\drivers\peripheral\lvd/cy_lvd.h **** *
  40:Generated_Source\PSoC6\pdl\drivers\peripheral\lvd/cy_lvd.h **** * Note that the LVD circuit is available only in Active, LPACTIVE, Sleep, and
  41:Generated_Source\PSoC6\pdl\drivers\peripheral\lvd/cy_lvd.h **** * LPSLEEP power modes. If an LVD is required in Deep-Sleep mode, then the device
  42:Generated_Source\PSoC6\pdl\drivers\peripheral\lvd/cy_lvd.h **** * should be configured to periodically wake up from deep sleep using a
  43:Generated_Source\PSoC6\pdl\drivers\peripheral\lvd/cy_lvd.h **** * Deep-Sleep wakeup source. This makes sure a LVD check is performed during
  44:Generated_Source\PSoC6\pdl\drivers\peripheral\lvd/cy_lvd.h **** * Active/LPACTIVE mode.
  45:Generated_Source\PSoC6\pdl\drivers\peripheral\lvd/cy_lvd.h **** *
  46:Generated_Source\PSoC6\pdl\drivers\peripheral\lvd/cy_lvd.h **** * \section group_lvd_more_information More Information
  47:Generated_Source\PSoC6\pdl\drivers\peripheral\lvd/cy_lvd.h **** * See the LVD chapter of the device technical reference manual (TRM).
  48:Generated_Source\PSoC6\pdl\drivers\peripheral\lvd/cy_lvd.h **** *
  49:Generated_Source\PSoC6\pdl\drivers\peripheral\lvd/cy_lvd.h **** * \section group_lvd_MISRA MISRA-C Compliance
  50:Generated_Source\PSoC6\pdl\drivers\peripheral\lvd/cy_lvd.h **** * The LVD driver has the following specific deviations:
  51:Generated_Source\PSoC6\pdl\drivers\peripheral\lvd/cy_lvd.h **** * <table class="doxtable">
  52:Generated_Source\PSoC6\pdl\drivers\peripheral\lvd/cy_lvd.h **** *   <tr>
  53:Generated_Source\PSoC6\pdl\drivers\peripheral\lvd/cy_lvd.h **** *     <th>MISRA Rule</th>
  54:Generated_Source\PSoC6\pdl\drivers\peripheral\lvd/cy_lvd.h **** *     <th>Rule Class (Required/Advisory)</th>
  55:Generated_Source\PSoC6\pdl\drivers\peripheral\lvd/cy_lvd.h **** *     <th>Rule Description</th>
  56:Generated_Source\PSoC6\pdl\drivers\peripheral\lvd/cy_lvd.h **** *     <th>Description of Deviation(s)</th>
  57:Generated_Source\PSoC6\pdl\drivers\peripheral\lvd/cy_lvd.h **** *   </tr>
  58:Generated_Source\PSoC6\pdl\drivers\peripheral\lvd/cy_lvd.h **** *   <tr>
  59:Generated_Source\PSoC6\pdl\drivers\peripheral\lvd/cy_lvd.h **** *     <td>10.3</td>
  60:Generated_Source\PSoC6\pdl\drivers\peripheral\lvd/cy_lvd.h **** *     <td>R</td>
  61:Generated_Source\PSoC6\pdl\drivers\peripheral\lvd/cy_lvd.h **** *     <td>A composite expression of 'essentially unsigned' type (%1s) is being
  62:Generated_Source\PSoC6\pdl\drivers\peripheral\lvd/cy_lvd.h **** *         cast to a different type category, '%2s'.</td>
  63:Generated_Source\PSoC6\pdl\drivers\peripheral\lvd/cy_lvd.h **** *     <td>The value got from the bitfield physically can't exceed the enumeration
  64:Generated_Source\PSoC6\pdl\drivers\peripheral\lvd/cy_lvd.h **** *         that describes this bitfield. So the code is safety by design.</td>
  65:Generated_Source\PSoC6\pdl\drivers\peripheral\lvd/cy_lvd.h **** *   </tr>
  66:Generated_Source\PSoC6\pdl\drivers\peripheral\lvd/cy_lvd.h **** *   <tr>
  67:Generated_Source\PSoC6\pdl\drivers\peripheral\lvd/cy_lvd.h **** *     <td>16.7</td>
  68:Generated_Source\PSoC6\pdl\drivers\peripheral\lvd/cy_lvd.h **** *     <td>A</td>
  69:Generated_Source\PSoC6\pdl\drivers\peripheral\lvd/cy_lvd.h **** *     <td>The object addressed by the pointer parameter '%s' is not modified and
  70:Generated_Source\PSoC6\pdl\drivers\peripheral\lvd/cy_lvd.h **** *         so the pointer could be of type 'pointer to const'.</td>
  71:Generated_Source\PSoC6\pdl\drivers\peripheral\lvd/cy_lvd.h **** *     <td>The pointer parameter is not used or modified, as there is no need 
  72:Generated_Source\PSoC6\pdl\drivers\peripheral\lvd/cy_lvd.h **** *         to do any actions with it. However, such parameter is 
  73:Generated_Source\PSoC6\pdl\drivers\peripheral\lvd/cy_lvd.h **** *         required to be presented in the function, because the 
  74:Generated_Source\PSoC6\pdl\drivers\peripheral\lvd/cy_lvd.h **** *         \ref Cy_LVD_DeepSleepCallback is a callback 
  75:Generated_Source\PSoC6\pdl\drivers\peripheral\lvd/cy_lvd.h **** *         of \ref cy_en_syspm_status_t type.
  76:Generated_Source\PSoC6\pdl\drivers\peripheral\lvd/cy_lvd.h **** *         The SysPM driver callback function type requires implementing the 
  77:Generated_Source\PSoC6\pdl\drivers\peripheral\lvd/cy_lvd.h **** *         function with the next parameters and return value: <br>
  78:Generated_Source\PSoC6\pdl\drivers\peripheral\lvd/cy_lvd.h **** *         cy_en_syspm_status_t (*Cy_SysPmCallback) 
  79:Generated_Source\PSoC6\pdl\drivers\peripheral\lvd/cy_lvd.h **** *         (cy_stc_syspm_callback_params_t *callbackParams);</td>
  80:Generated_Source\PSoC6\pdl\drivers\peripheral\lvd/cy_lvd.h **** *   </tr>
  81:Generated_Source\PSoC6\pdl\drivers\peripheral\lvd/cy_lvd.h **** * </table>
  82:Generated_Source\PSoC6\pdl\drivers\peripheral\lvd/cy_lvd.h **** *
  83:Generated_Source\PSoC6\pdl\drivers\peripheral\lvd/cy_lvd.h **** * \section group_lvd_changelog Changelog
  84:Generated_Source\PSoC6\pdl\drivers\peripheral\lvd/cy_lvd.h **** * <table class="doxtable">
  85:Generated_Source\PSoC6\pdl\drivers\peripheral\lvd/cy_lvd.h **** *   <tr><th>Version</th><th>Changes</th><th>Reason of Change</th></tr>
  86:Generated_Source\PSoC6\pdl\drivers\peripheral\lvd/cy_lvd.h **** *   <tr>
  87:Generated_Source\PSoC6\pdl\drivers\peripheral\lvd/cy_lvd.h **** *     <td>1.0.1</td>
  88:Generated_Source\PSoC6\pdl\drivers\peripheral\lvd/cy_lvd.h **** *     <td>Added Low Power Callback section</td>
ARM GAS  C:\Users\salaz\AppData\Local\Temp\cc2HCa0f.s 			page 3


  89:Generated_Source\PSoC6\pdl\drivers\peripheral\lvd/cy_lvd.h **** *     <td>Documentation update and clarification</td>
  90:Generated_Source\PSoC6\pdl\drivers\peripheral\lvd/cy_lvd.h **** *   </tr>
  91:Generated_Source\PSoC6\pdl\drivers\peripheral\lvd/cy_lvd.h **** *   <tr>
  92:Generated_Source\PSoC6\pdl\drivers\peripheral\lvd/cy_lvd.h **** *     <td>1.0</td>
  93:Generated_Source\PSoC6\pdl\drivers\peripheral\lvd/cy_lvd.h **** *     <td>Initial Version</td>
  94:Generated_Source\PSoC6\pdl\drivers\peripheral\lvd/cy_lvd.h **** *     <td></td>
  95:Generated_Source\PSoC6\pdl\drivers\peripheral\lvd/cy_lvd.h **** *   </tr>
  96:Generated_Source\PSoC6\pdl\drivers\peripheral\lvd/cy_lvd.h **** * </table>
  97:Generated_Source\PSoC6\pdl\drivers\peripheral\lvd/cy_lvd.h **** *
  98:Generated_Source\PSoC6\pdl\drivers\peripheral\lvd/cy_lvd.h **** * \defgroup group_lvd_macros Macros
  99:Generated_Source\PSoC6\pdl\drivers\peripheral\lvd/cy_lvd.h **** * \defgroup group_lvd_functions Functions
 100:Generated_Source\PSoC6\pdl\drivers\peripheral\lvd/cy_lvd.h **** *   \{
 101:Generated_Source\PSoC6\pdl\drivers\peripheral\lvd/cy_lvd.h **** *       \defgroup group_lvd_functions_syspm_callback  Low Power Callback
 102:Generated_Source\PSoC6\pdl\drivers\peripheral\lvd/cy_lvd.h **** *   \}
 103:Generated_Source\PSoC6\pdl\drivers\peripheral\lvd/cy_lvd.h **** * \defgroup group_lvd_enums Enumerated Types
 104:Generated_Source\PSoC6\pdl\drivers\peripheral\lvd/cy_lvd.h **** */
 105:Generated_Source\PSoC6\pdl\drivers\peripheral\lvd/cy_lvd.h **** 
 106:Generated_Source\PSoC6\pdl\drivers\peripheral\lvd/cy_lvd.h **** 
 107:Generated_Source\PSoC6\pdl\drivers\peripheral\lvd/cy_lvd.h **** #if !defined CY_LVD_H
 108:Generated_Source\PSoC6\pdl\drivers\peripheral\lvd/cy_lvd.h **** #define CY_LVD_H
 109:Generated_Source\PSoC6\pdl\drivers\peripheral\lvd/cy_lvd.h ****     
 110:Generated_Source\PSoC6\pdl\drivers\peripheral\lvd/cy_lvd.h **** #include "syspm/cy_syspm.h"
 111:Generated_Source\PSoC6\pdl\drivers\peripheral\lvd/cy_lvd.h **** 
 112:Generated_Source\PSoC6\pdl\drivers\peripheral\lvd/cy_lvd.h **** #ifdef __cplusplus
 113:Generated_Source\PSoC6\pdl\drivers\peripheral\lvd/cy_lvd.h **** extern "C" {
 114:Generated_Source\PSoC6\pdl\drivers\peripheral\lvd/cy_lvd.h **** #endif
 115:Generated_Source\PSoC6\pdl\drivers\peripheral\lvd/cy_lvd.h **** 
 116:Generated_Source\PSoC6\pdl\drivers\peripheral\lvd/cy_lvd.h **** /** \addtogroup group_lvd_macros
 117:Generated_Source\PSoC6\pdl\drivers\peripheral\lvd/cy_lvd.h **** * \{
 118:Generated_Source\PSoC6\pdl\drivers\peripheral\lvd/cy_lvd.h **** */
 119:Generated_Source\PSoC6\pdl\drivers\peripheral\lvd/cy_lvd.h **** 
 120:Generated_Source\PSoC6\pdl\drivers\peripheral\lvd/cy_lvd.h **** /** The driver major version */
 121:Generated_Source\PSoC6\pdl\drivers\peripheral\lvd/cy_lvd.h **** #define CY_LVD_DRV_VERSION_MAJOR       1
 122:Generated_Source\PSoC6\pdl\drivers\peripheral\lvd/cy_lvd.h **** 
 123:Generated_Source\PSoC6\pdl\drivers\peripheral\lvd/cy_lvd.h **** /** The driver minor version */
 124:Generated_Source\PSoC6\pdl\drivers\peripheral\lvd/cy_lvd.h **** #define CY_LVD_DRV_VERSION_MINOR       0
 125:Generated_Source\PSoC6\pdl\drivers\peripheral\lvd/cy_lvd.h **** 
 126:Generated_Source\PSoC6\pdl\drivers\peripheral\lvd/cy_lvd.h **** /** The LVD driver identifier */
 127:Generated_Source\PSoC6\pdl\drivers\peripheral\lvd/cy_lvd.h **** #define CY_LVD_ID                      (CY_PDL_DRV_ID(0x39U))
 128:Generated_Source\PSoC6\pdl\drivers\peripheral\lvd/cy_lvd.h **** 
 129:Generated_Source\PSoC6\pdl\drivers\peripheral\lvd/cy_lvd.h **** /** Interrupt mask for \ref Cy_LVD_GetInterruptStatus(),
 130:Generated_Source\PSoC6\pdl\drivers\peripheral\lvd/cy_lvd.h ****                        \ref Cy_LVD_GetInterruptMask() and 
 131:Generated_Source\PSoC6\pdl\drivers\peripheral\lvd/cy_lvd.h ****                        \ref Cy_LVD_GetInterruptStatusMasked() */
 132:Generated_Source\PSoC6\pdl\drivers\peripheral\lvd/cy_lvd.h **** #define CY_LVD_INTR        (SRSS_SRSS_INTR_HVLVD1_Msk)
 133:Generated_Source\PSoC6\pdl\drivers\peripheral\lvd/cy_lvd.h **** 
 134:Generated_Source\PSoC6\pdl\drivers\peripheral\lvd/cy_lvd.h **** /** \} group_lvd_macros */
 135:Generated_Source\PSoC6\pdl\drivers\peripheral\lvd/cy_lvd.h **** 
 136:Generated_Source\PSoC6\pdl\drivers\peripheral\lvd/cy_lvd.h **** 
 137:Generated_Source\PSoC6\pdl\drivers\peripheral\lvd/cy_lvd.h **** /** \addtogroup group_lvd_enums
 138:Generated_Source\PSoC6\pdl\drivers\peripheral\lvd/cy_lvd.h **** * \{
 139:Generated_Source\PSoC6\pdl\drivers\peripheral\lvd/cy_lvd.h **** */
 140:Generated_Source\PSoC6\pdl\drivers\peripheral\lvd/cy_lvd.h **** 
 141:Generated_Source\PSoC6\pdl\drivers\peripheral\lvd/cy_lvd.h **** 
 142:Generated_Source\PSoC6\pdl\drivers\peripheral\lvd/cy_lvd.h **** /**
 143:Generated_Source\PSoC6\pdl\drivers\peripheral\lvd/cy_lvd.h ****  * LVD reference voltage select.
 144:Generated_Source\PSoC6\pdl\drivers\peripheral\lvd/cy_lvd.h ****  */
 145:Generated_Source\PSoC6\pdl\drivers\peripheral\lvd/cy_lvd.h **** typedef enum
ARM GAS  C:\Users\salaz\AppData\Local\Temp\cc2HCa0f.s 			page 4


 146:Generated_Source\PSoC6\pdl\drivers\peripheral\lvd/cy_lvd.h **** {
 147:Generated_Source\PSoC6\pdl\drivers\peripheral\lvd/cy_lvd.h ****     CY_LVD_THRESHOLD_1_2_V    = 0x0U, /**<Select LVD reference voltage: 1.2V */
 148:Generated_Source\PSoC6\pdl\drivers\peripheral\lvd/cy_lvd.h ****     CY_LVD_THRESHOLD_1_4_V    = 0x1U, /**<Select LVD reference voltage: 1.4V */
 149:Generated_Source\PSoC6\pdl\drivers\peripheral\lvd/cy_lvd.h ****     CY_LVD_THRESHOLD_1_6_V    = 0x2U, /**<Select LVD reference voltage: 1.6V */
 150:Generated_Source\PSoC6\pdl\drivers\peripheral\lvd/cy_lvd.h ****     CY_LVD_THRESHOLD_1_8_V    = 0x3U, /**<Select LVD reference voltage: 1.8V */
 151:Generated_Source\PSoC6\pdl\drivers\peripheral\lvd/cy_lvd.h ****     CY_LVD_THRESHOLD_2_0_V    = 0x4U, /**<Select LVD reference voltage: 2.0V */
 152:Generated_Source\PSoC6\pdl\drivers\peripheral\lvd/cy_lvd.h ****     CY_LVD_THRESHOLD_2_1_V    = 0x5U, /**<Select LVD reference voltage: 2.1V */
 153:Generated_Source\PSoC6\pdl\drivers\peripheral\lvd/cy_lvd.h ****     CY_LVD_THRESHOLD_2_2_V    = 0x6U, /**<Select LVD reference voltage: 2.2V */
 154:Generated_Source\PSoC6\pdl\drivers\peripheral\lvd/cy_lvd.h ****     CY_LVD_THRESHOLD_2_3_V    = 0x7U, /**<Select LVD reference voltage: 2.3V */
 155:Generated_Source\PSoC6\pdl\drivers\peripheral\lvd/cy_lvd.h ****     CY_LVD_THRESHOLD_2_4_V    = 0x8U, /**<Select LVD reference voltage: 2.4V */
 156:Generated_Source\PSoC6\pdl\drivers\peripheral\lvd/cy_lvd.h ****     CY_LVD_THRESHOLD_2_5_V    = 0x9U, /**<Select LVD reference voltage: 2.5V */
 157:Generated_Source\PSoC6\pdl\drivers\peripheral\lvd/cy_lvd.h ****     CY_LVD_THRESHOLD_2_6_V    = 0xAU, /**<Select LVD reference voltage: 2.6V */
 158:Generated_Source\PSoC6\pdl\drivers\peripheral\lvd/cy_lvd.h ****     CY_LVD_THRESHOLD_2_7_V    = 0xBU, /**<Select LVD reference voltage: 2.7V */
 159:Generated_Source\PSoC6\pdl\drivers\peripheral\lvd/cy_lvd.h ****     CY_LVD_THRESHOLD_2_8_V    = 0xCU, /**<Select LVD reference voltage: 2.8V */
 160:Generated_Source\PSoC6\pdl\drivers\peripheral\lvd/cy_lvd.h ****     CY_LVD_THRESHOLD_2_9_V    = 0xDU, /**<Select LVD reference voltage: 2.9V */
 161:Generated_Source\PSoC6\pdl\drivers\peripheral\lvd/cy_lvd.h ****     CY_LVD_THRESHOLD_3_0_V    = 0xEU, /**<Select LVD reference voltage: 3.0V */
 162:Generated_Source\PSoC6\pdl\drivers\peripheral\lvd/cy_lvd.h ****     CY_LVD_THRESHOLD_3_1_V    = 0xFU  /**<Select LVD reference voltage: 3.1V */
 163:Generated_Source\PSoC6\pdl\drivers\peripheral\lvd/cy_lvd.h **** } cy_en_lvd_tripsel_t;
 164:Generated_Source\PSoC6\pdl\drivers\peripheral\lvd/cy_lvd.h **** 
 165:Generated_Source\PSoC6\pdl\drivers\peripheral\lvd/cy_lvd.h **** /**
 166:Generated_Source\PSoC6\pdl\drivers\peripheral\lvd/cy_lvd.h ****  * LVD interrupt configuration select.
 167:Generated_Source\PSoC6\pdl\drivers\peripheral\lvd/cy_lvd.h ****  */
 168:Generated_Source\PSoC6\pdl\drivers\peripheral\lvd/cy_lvd.h **** typedef enum
 169:Generated_Source\PSoC6\pdl\drivers\peripheral\lvd/cy_lvd.h **** {
 170:Generated_Source\PSoC6\pdl\drivers\peripheral\lvd/cy_lvd.h ****     CY_LVD_INTR_DISABLE    = 0x0U,  /**<Select LVD interrupt: disabled */
 171:Generated_Source\PSoC6\pdl\drivers\peripheral\lvd/cy_lvd.h ****     CY_LVD_INTR_RISING     = 0x1U,  /**<Select LVD interrupt: rising edge */
 172:Generated_Source\PSoC6\pdl\drivers\peripheral\lvd/cy_lvd.h ****     CY_LVD_INTR_FALLING    = 0x2U,  /**<Select LVD interrupt: falling edge */
 173:Generated_Source\PSoC6\pdl\drivers\peripheral\lvd/cy_lvd.h ****     CY_LVD_INTR_BOTH       = 0x3U,  /**<Select LVD interrupt: both edges */
 174:Generated_Source\PSoC6\pdl\drivers\peripheral\lvd/cy_lvd.h **** } cy_en_lvd_intr_config_t;
 175:Generated_Source\PSoC6\pdl\drivers\peripheral\lvd/cy_lvd.h **** 
 176:Generated_Source\PSoC6\pdl\drivers\peripheral\lvd/cy_lvd.h **** /**
 177:Generated_Source\PSoC6\pdl\drivers\peripheral\lvd/cy_lvd.h ****  * LVD output status.
 178:Generated_Source\PSoC6\pdl\drivers\peripheral\lvd/cy_lvd.h ****  */
 179:Generated_Source\PSoC6\pdl\drivers\peripheral\lvd/cy_lvd.h **** typedef enum
 180:Generated_Source\PSoC6\pdl\drivers\peripheral\lvd/cy_lvd.h **** {
 181:Generated_Source\PSoC6\pdl\drivers\peripheral\lvd/cy_lvd.h ****     CY_LVD_STATUS_BELOW   = 0x0U,  /**<The voltage is below the threshold */
 182:Generated_Source\PSoC6\pdl\drivers\peripheral\lvd/cy_lvd.h ****     CY_LVD_STATUS_ABOVE   = 0x1U,  /**<The voltage is above the threshold */
 183:Generated_Source\PSoC6\pdl\drivers\peripheral\lvd/cy_lvd.h **** } cy_en_lvd_status_t;
 184:Generated_Source\PSoC6\pdl\drivers\peripheral\lvd/cy_lvd.h **** 
 185:Generated_Source\PSoC6\pdl\drivers\peripheral\lvd/cy_lvd.h **** /** \} group_lvd_enums */
 186:Generated_Source\PSoC6\pdl\drivers\peripheral\lvd/cy_lvd.h **** 
 187:Generated_Source\PSoC6\pdl\drivers\peripheral\lvd/cy_lvd.h **** /** \cond internal */
 188:Generated_Source\PSoC6\pdl\drivers\peripheral\lvd/cy_lvd.h **** /* Macros for conditions used by CY_ASSERT calls */
 189:Generated_Source\PSoC6\pdl\drivers\peripheral\lvd/cy_lvd.h **** #define CY_LVD_CHECK_TRIPSEL(threshold)  (((threshold) == CY_LVD_THRESHOLD_1_2_V) || \
 190:Generated_Source\PSoC6\pdl\drivers\peripheral\lvd/cy_lvd.h ****                                           ((threshold) == CY_LVD_THRESHOLD_1_4_V) || \
 191:Generated_Source\PSoC6\pdl\drivers\peripheral\lvd/cy_lvd.h ****                                           ((threshold) == CY_LVD_THRESHOLD_1_6_V) || \
 192:Generated_Source\PSoC6\pdl\drivers\peripheral\lvd/cy_lvd.h ****                                           ((threshold) == CY_LVD_THRESHOLD_1_8_V) || \
 193:Generated_Source\PSoC6\pdl\drivers\peripheral\lvd/cy_lvd.h ****                                           ((threshold) == CY_LVD_THRESHOLD_2_0_V) || \
 194:Generated_Source\PSoC6\pdl\drivers\peripheral\lvd/cy_lvd.h ****                                           ((threshold) == CY_LVD_THRESHOLD_2_1_V) || \
 195:Generated_Source\PSoC6\pdl\drivers\peripheral\lvd/cy_lvd.h ****                                           ((threshold) == CY_LVD_THRESHOLD_2_2_V) || \
 196:Generated_Source\PSoC6\pdl\drivers\peripheral\lvd/cy_lvd.h ****                                           ((threshold) == CY_LVD_THRESHOLD_2_3_V) || \
 197:Generated_Source\PSoC6\pdl\drivers\peripheral\lvd/cy_lvd.h ****                                           ((threshold) == CY_LVD_THRESHOLD_2_4_V) || \
 198:Generated_Source\PSoC6\pdl\drivers\peripheral\lvd/cy_lvd.h ****                                           ((threshold) == CY_LVD_THRESHOLD_2_5_V) || \
 199:Generated_Source\PSoC6\pdl\drivers\peripheral\lvd/cy_lvd.h ****                                           ((threshold) == CY_LVD_THRESHOLD_2_6_V) || \
 200:Generated_Source\PSoC6\pdl\drivers\peripheral\lvd/cy_lvd.h ****                                           ((threshold) == CY_LVD_THRESHOLD_2_7_V) || \
 201:Generated_Source\PSoC6\pdl\drivers\peripheral\lvd/cy_lvd.h ****                                           ((threshold) == CY_LVD_THRESHOLD_2_8_V) || \
 202:Generated_Source\PSoC6\pdl\drivers\peripheral\lvd/cy_lvd.h ****                                           ((threshold) == CY_LVD_THRESHOLD_2_9_V) || \
ARM GAS  C:\Users\salaz\AppData\Local\Temp\cc2HCa0f.s 			page 5


 203:Generated_Source\PSoC6\pdl\drivers\peripheral\lvd/cy_lvd.h ****                                           ((threshold) == CY_LVD_THRESHOLD_3_0_V) || \
 204:Generated_Source\PSoC6\pdl\drivers\peripheral\lvd/cy_lvd.h ****                                           ((threshold) == CY_LVD_THRESHOLD_3_1_V))
 205:Generated_Source\PSoC6\pdl\drivers\peripheral\lvd/cy_lvd.h ****                                           
 206:Generated_Source\PSoC6\pdl\drivers\peripheral\lvd/cy_lvd.h **** #define CY_LVD_CHECK_INTR_CFG(intrCfg)   (((intrCfg) == CY_LVD_INTR_DISABLE) || \
 207:Generated_Source\PSoC6\pdl\drivers\peripheral\lvd/cy_lvd.h ****                                           ((intrCfg) == CY_LVD_INTR_RISING) || \
 208:Generated_Source\PSoC6\pdl\drivers\peripheral\lvd/cy_lvd.h ****                                           ((intrCfg) == CY_LVD_INTR_FALLING) || \
 209:Generated_Source\PSoC6\pdl\drivers\peripheral\lvd/cy_lvd.h ****                                           ((intrCfg) == CY_LVD_INTR_BOTH))                         
 210:Generated_Source\PSoC6\pdl\drivers\peripheral\lvd/cy_lvd.h **** /** \endcond */
 211:Generated_Source\PSoC6\pdl\drivers\peripheral\lvd/cy_lvd.h **** 
 212:Generated_Source\PSoC6\pdl\drivers\peripheral\lvd/cy_lvd.h **** /**
 213:Generated_Source\PSoC6\pdl\drivers\peripheral\lvd/cy_lvd.h **** * \addtogroup group_lvd_functions
 214:Generated_Source\PSoC6\pdl\drivers\peripheral\lvd/cy_lvd.h **** * \{
 215:Generated_Source\PSoC6\pdl\drivers\peripheral\lvd/cy_lvd.h **** */
 216:Generated_Source\PSoC6\pdl\drivers\peripheral\lvd/cy_lvd.h **** __STATIC_INLINE void Cy_LVD_Enable(void);
 217:Generated_Source\PSoC6\pdl\drivers\peripheral\lvd/cy_lvd.h **** __STATIC_INLINE void Cy_LVD_Disable(void);
 218:Generated_Source\PSoC6\pdl\drivers\peripheral\lvd/cy_lvd.h **** __STATIC_INLINE void Cy_LVD_SetThreshold(cy_en_lvd_tripsel_t threshold);
 219:Generated_Source\PSoC6\pdl\drivers\peripheral\lvd/cy_lvd.h **** __STATIC_INLINE cy_en_lvd_status_t Cy_LVD_GetStatus(void);
 220:Generated_Source\PSoC6\pdl\drivers\peripheral\lvd/cy_lvd.h **** __STATIC_INLINE uint32_t Cy_LVD_GetInterruptStatus(void);
 221:Generated_Source\PSoC6\pdl\drivers\peripheral\lvd/cy_lvd.h **** __STATIC_INLINE void Cy_LVD_ClearInterrupt(void);
 222:Generated_Source\PSoC6\pdl\drivers\peripheral\lvd/cy_lvd.h **** __STATIC_INLINE void Cy_LVD_SetInterrupt(void);
 223:Generated_Source\PSoC6\pdl\drivers\peripheral\lvd/cy_lvd.h **** __STATIC_INLINE uint32_t Cy_LVD_GetInterruptMask(void);
 224:Generated_Source\PSoC6\pdl\drivers\peripheral\lvd/cy_lvd.h **** __STATIC_INLINE void Cy_LVD_SetInterruptMask(void);
 225:Generated_Source\PSoC6\pdl\drivers\peripheral\lvd/cy_lvd.h **** __STATIC_INLINE void Cy_LVD_ClearInterruptMask(void);
 226:Generated_Source\PSoC6\pdl\drivers\peripheral\lvd/cy_lvd.h **** __STATIC_INLINE uint32_t Cy_LVD_GetInterruptStatusMasked(void);
 227:Generated_Source\PSoC6\pdl\drivers\peripheral\lvd/cy_lvd.h **** __STATIC_INLINE void Cy_LVD_SetInterruptConfig(cy_en_lvd_intr_config_t lvdInterruptConfig);
 228:Generated_Source\PSoC6\pdl\drivers\peripheral\lvd/cy_lvd.h **** /** \addtogroup group_lvd_functions_syspm_callback
 229:Generated_Source\PSoC6\pdl\drivers\peripheral\lvd/cy_lvd.h **** * The driver supports SysPm callback for Deep Sleep transition.
 230:Generated_Source\PSoC6\pdl\drivers\peripheral\lvd/cy_lvd.h **** * \{
 231:Generated_Source\PSoC6\pdl\drivers\peripheral\lvd/cy_lvd.h **** */
 232:Generated_Source\PSoC6\pdl\drivers\peripheral\lvd/cy_lvd.h **** cy_en_syspm_status_t Cy_LVD_DeepSleepCallback(cy_stc_syspm_callback_params_t * callbackParams);
 233:Generated_Source\PSoC6\pdl\drivers\peripheral\lvd/cy_lvd.h **** /** \} */
 234:Generated_Source\PSoC6\pdl\drivers\peripheral\lvd/cy_lvd.h **** 
 235:Generated_Source\PSoC6\pdl\drivers\peripheral\lvd/cy_lvd.h **** /*******************************************************************************
 236:Generated_Source\PSoC6\pdl\drivers\peripheral\lvd/cy_lvd.h **** * Function Name: Cy_LVD_Enable
 237:Generated_Source\PSoC6\pdl\drivers\peripheral\lvd/cy_lvd.h **** ****************************************************************************//**
 238:Generated_Source\PSoC6\pdl\drivers\peripheral\lvd/cy_lvd.h **** *
 239:Generated_Source\PSoC6\pdl\drivers\peripheral\lvd/cy_lvd.h **** *  Enables the output of the LVD block when the VDDD voltage is   
 240:Generated_Source\PSoC6\pdl\drivers\peripheral\lvd/cy_lvd.h **** *  at or below the threshold.
 241:Generated_Source\PSoC6\pdl\drivers\peripheral\lvd/cy_lvd.h **** *  See the Configuration Considerations section for details.
 242:Generated_Source\PSoC6\pdl\drivers\peripheral\lvd/cy_lvd.h **** *
 243:Generated_Source\PSoC6\pdl\drivers\peripheral\lvd/cy_lvd.h **** *******************************************************************************/
 244:Generated_Source\PSoC6\pdl\drivers\peripheral\lvd/cy_lvd.h **** __STATIC_INLINE void Cy_LVD_Enable(void)
 245:Generated_Source\PSoC6\pdl\drivers\peripheral\lvd/cy_lvd.h **** {
  27              		.loc 1 245 0
  28              		.cfi_startproc
  29              		@ args = 0, pretend = 0, frame = 0
  30              		@ frame_needed = 1, uses_anonymous_args = 0
  31 0000 80B5     		push	{r7, lr}
  32              		.cfi_def_cfa_offset 8
  33              		.cfi_offset 7, -8
  34              		.cfi_offset 14, -4
  35 0002 00AF     		add	r7, sp, #0
  36              		.cfi_def_cfa_register 7
 246:Generated_Source\PSoC6\pdl\drivers\peripheral\lvd/cy_lvd.h ****     SRSS->PWR_LVD_CTL |= SRSS_PWR_LVD_CTL_HVLVD1_EN_Msk;
  37              		.loc 1 246 0
  38 0004 044B     		ldr	r3, .L2
  39 0006 044A     		ldr	r2, .L2
ARM GAS  C:\Users\salaz\AppData\Local\Temp\cc2HCa0f.s 			page 6


  40 0008 9268     		ldr	r2, [r2, #8]
  41 000a 8021     		movs	r1, #128
  42 000c 0A43     		orrs	r2, r1
  43 000e 9A60     		str	r2, [r3, #8]
 247:Generated_Source\PSoC6\pdl\drivers\peripheral\lvd/cy_lvd.h **** }
  44              		.loc 1 247 0
  45 0010 C046     		nop
  46 0012 BD46     		mov	sp, r7
  47              		@ sp needed
  48 0014 80BD     		pop	{r7, pc}
  49              	.L3:
  50 0016 C046     		.align	2
  51              	.L2:
  52 0018 00002640 		.word	1076232192
  53              		.cfi_endproc
  54              	.LFE69:
  55              		.size	Cy_LVD_Enable, .-Cy_LVD_Enable
  56              		.section	.text.Cy_LVD_DeepSleepCallback,"ax",%progbits
  57              		.align	2
  58              		.global	Cy_LVD_DeepSleepCallback
  59              		.code	16
  60              		.thumb_func
  61              		.type	Cy_LVD_DeepSleepCallback, %function
  62              	Cy_LVD_DeepSleepCallback:
  63              	.LFB81:
  64              		.file 2 "Generated_Source\\PSoC6\\pdl\\drivers\\peripheral\\lvd\\cy_lvd.c"
   1:Generated_Source\PSoC6\pdl\drivers\peripheral\lvd/cy_lvd.c **** /***************************************************************************//**
   2:Generated_Source\PSoC6\pdl\drivers\peripheral\lvd/cy_lvd.c **** * \file cy_lvd.c
   3:Generated_Source\PSoC6\pdl\drivers\peripheral\lvd/cy_lvd.c **** * \version 1.0.1
   4:Generated_Source\PSoC6\pdl\drivers\peripheral\lvd/cy_lvd.c **** *
   5:Generated_Source\PSoC6\pdl\drivers\peripheral\lvd/cy_lvd.c **** * The source code file for the LVD driver.
   6:Generated_Source\PSoC6\pdl\drivers\peripheral\lvd/cy_lvd.c **** *
   7:Generated_Source\PSoC6\pdl\drivers\peripheral\lvd/cy_lvd.c **** ********************************************************************************
   8:Generated_Source\PSoC6\pdl\drivers\peripheral\lvd/cy_lvd.c **** * \copyright
   9:Generated_Source\PSoC6\pdl\drivers\peripheral\lvd/cy_lvd.c **** * Copyright 2017-2018, Cypress Semiconductor Corporation. All rights reserved.
  10:Generated_Source\PSoC6\pdl\drivers\peripheral\lvd/cy_lvd.c **** * You may use this file only in accordance with the license, terms, conditions,
  11:Generated_Source\PSoC6\pdl\drivers\peripheral\lvd/cy_lvd.c **** * disclaimers, and limitations in the end user license agreement accompanying
  12:Generated_Source\PSoC6\pdl\drivers\peripheral\lvd/cy_lvd.c **** * the software package with which this file was provided.
  13:Generated_Source\PSoC6\pdl\drivers\peripheral\lvd/cy_lvd.c **** *******************************************************************************/
  14:Generated_Source\PSoC6\pdl\drivers\peripheral\lvd/cy_lvd.c **** 
  15:Generated_Source\PSoC6\pdl\drivers\peripheral\lvd/cy_lvd.c **** #include "cy_lvd.h"
  16:Generated_Source\PSoC6\pdl\drivers\peripheral\lvd/cy_lvd.c **** 
  17:Generated_Source\PSoC6\pdl\drivers\peripheral\lvd/cy_lvd.c **** #ifdef __cplusplus
  18:Generated_Source\PSoC6\pdl\drivers\peripheral\lvd/cy_lvd.c **** extern "C" {
  19:Generated_Source\PSoC6\pdl\drivers\peripheral\lvd/cy_lvd.c **** #endif
  20:Generated_Source\PSoC6\pdl\drivers\peripheral\lvd/cy_lvd.c **** 
  21:Generated_Source\PSoC6\pdl\drivers\peripheral\lvd/cy_lvd.c **** 
  22:Generated_Source\PSoC6\pdl\drivers\peripheral\lvd/cy_lvd.c **** /*******************************************************************************
  23:Generated_Source\PSoC6\pdl\drivers\peripheral\lvd/cy_lvd.c **** * Function Name: Cy_LVD_DeepSleepCallback
  24:Generated_Source\PSoC6\pdl\drivers\peripheral\lvd/cy_lvd.c **** ****************************************************************************//**
  25:Generated_Source\PSoC6\pdl\drivers\peripheral\lvd/cy_lvd.c **** *
  26:Generated_Source\PSoC6\pdl\drivers\peripheral\lvd/cy_lvd.c **** * When this function is registered by \ref Cy_SysPm_RegisterCallback - it
  27:Generated_Source\PSoC6\pdl\drivers\peripheral\lvd/cy_lvd.c **** * automatically enables the LVD after wake up from Deep-Sleep mode.
  28:Generated_Source\PSoC6\pdl\drivers\peripheral\lvd/cy_lvd.c **** *
  29:Generated_Source\PSoC6\pdl\drivers\peripheral\lvd/cy_lvd.c **** * \param callbackParams The pointer to the callback parameters structure, 
  30:Generated_Source\PSoC6\pdl\drivers\peripheral\lvd/cy_lvd.c **** * see \ref cy_stc_syspm_callback_params_t.
  31:Generated_Source\PSoC6\pdl\drivers\peripheral\lvd/cy_lvd.c **** *
ARM GAS  C:\Users\salaz\AppData\Local\Temp\cc2HCa0f.s 			page 7


  32:Generated_Source\PSoC6\pdl\drivers\peripheral\lvd/cy_lvd.c **** * \return the SysPm callback status \ref cy_en_syspm_status_t.
  33:Generated_Source\PSoC6\pdl\drivers\peripheral\lvd/cy_lvd.c **** *
  34:Generated_Source\PSoC6\pdl\drivers\peripheral\lvd/cy_lvd.c **** *******************************************************************************/
  35:Generated_Source\PSoC6\pdl\drivers\peripheral\lvd/cy_lvd.c **** cy_en_syspm_status_t Cy_LVD_DeepSleepCallback(cy_stc_syspm_callback_params_t * callbackParams)
  36:Generated_Source\PSoC6\pdl\drivers\peripheral\lvd/cy_lvd.c **** {
  65              		.loc 2 36 0
  66              		.cfi_startproc
  67              		@ args = 0, pretend = 0, frame = 16
  68              		@ frame_needed = 1, uses_anonymous_args = 0
  69 0000 80B5     		push	{r7, lr}
  70              		.cfi_def_cfa_offset 8
  71              		.cfi_offset 7, -8
  72              		.cfi_offset 14, -4
  73 0002 84B0     		sub	sp, sp, #16
  74              		.cfi_def_cfa_offset 24
  75 0004 00AF     		add	r7, sp, #0
  76              		.cfi_def_cfa_register 7
  77 0006 7860     		str	r0, [r7, #4]
  37:Generated_Source\PSoC6\pdl\drivers\peripheral\lvd/cy_lvd.c ****     cy_en_syspm_status_t ret = CY_SYSPM_SUCCESS;
  78              		.loc 2 37 0
  79 0008 0023     		movs	r3, #0
  80 000a FB60     		str	r3, [r7, #12]
  38:Generated_Source\PSoC6\pdl\drivers\peripheral\lvd/cy_lvd.c ****     
  39:Generated_Source\PSoC6\pdl\drivers\peripheral\lvd/cy_lvd.c ****     switch(callbackParams->mode)
  81              		.loc 2 39 0
  82 000c 7B68     		ldr	r3, [r7, #4]
  83 000e 1B78     		ldrb	r3, [r3]
  84 0010 042B     		cmp	r3, #4
  85 0012 0CD0     		beq	.L11
  86 0014 03DC     		bgt	.L7
  87 0016 013B     		subs	r3, r3, #1
  88 0018 012B     		cmp	r3, #1
  89 001a 05D8     		bhi	.L5
  40:Generated_Source\PSoC6\pdl\drivers\peripheral\lvd/cy_lvd.c ****     {
  41:Generated_Source\PSoC6\pdl\drivers\peripheral\lvd/cy_lvd.c ****         case CY_SYSPM_CHECK_READY:
  42:Generated_Source\PSoC6\pdl\drivers\peripheral\lvd/cy_lvd.c ****         case CY_SYSPM_CHECK_FAIL:
  43:Generated_Source\PSoC6\pdl\drivers\peripheral\lvd/cy_lvd.c ****         case CY_SYSPM_BEFORE_TRANSITION:
  44:Generated_Source\PSoC6\pdl\drivers\peripheral\lvd/cy_lvd.c ****             break;
  90              		.loc 2 44 0
  91 001c 07E0     		b	.L11
  92              	.L7:
  39:Generated_Source\PSoC6\pdl\drivers\peripheral\lvd/cy_lvd.c ****     {
  93              		.loc 2 39 0
  94 001e 082B     		cmp	r3, #8
  95 0020 02D1     		bne	.L5
  45:Generated_Source\PSoC6\pdl\drivers\peripheral\lvd/cy_lvd.c ****             
  46:Generated_Source\PSoC6\pdl\drivers\peripheral\lvd/cy_lvd.c ****         case CY_SYSPM_AFTER_TRANSITION:
  47:Generated_Source\PSoC6\pdl\drivers\peripheral\lvd/cy_lvd.c ****             Cy_LVD_Enable();
  96              		.loc 2 47 0
  97 0022 FFF7FEFF 		bl	Cy_LVD_Enable
  48:Generated_Source\PSoC6\pdl\drivers\peripheral\lvd/cy_lvd.c ****             break;
  98              		.loc 2 48 0
  99 0026 03E0     		b	.L9
 100              	.L5:
  49:Generated_Source\PSoC6\pdl\drivers\peripheral\lvd/cy_lvd.c ****         
  50:Generated_Source\PSoC6\pdl\drivers\peripheral\lvd/cy_lvd.c ****         default:
  51:Generated_Source\PSoC6\pdl\drivers\peripheral\lvd/cy_lvd.c ****             ret = CY_SYSPM_FAIL;
ARM GAS  C:\Users\salaz\AppData\Local\Temp\cc2HCa0f.s 			page 8


 101              		.loc 2 51 0
 102 0028 044B     		ldr	r3, .L12
 103 002a FB60     		str	r3, [r7, #12]
  52:Generated_Source\PSoC6\pdl\drivers\peripheral\lvd/cy_lvd.c ****             break;
 104              		.loc 2 52 0
 105 002c 00E0     		b	.L9
 106              	.L11:
  44:Generated_Source\PSoC6\pdl\drivers\peripheral\lvd/cy_lvd.c ****             
 107              		.loc 2 44 0
 108 002e C046     		nop
 109              	.L9:
  53:Generated_Source\PSoC6\pdl\drivers\peripheral\lvd/cy_lvd.c ****     }
  54:Generated_Source\PSoC6\pdl\drivers\peripheral\lvd/cy_lvd.c ****         
  55:Generated_Source\PSoC6\pdl\drivers\peripheral\lvd/cy_lvd.c ****     return(ret);
 110              		.loc 2 55 0
 111 0030 FB68     		ldr	r3, [r7, #12]
  56:Generated_Source\PSoC6\pdl\drivers\peripheral\lvd/cy_lvd.c **** }
 112              		.loc 2 56 0
 113 0032 1800     		movs	r0, r3
 114 0034 BD46     		mov	sp, r7
 115 0036 04B0     		add	sp, sp, #16
 116              		@ sp needed
 117 0038 80BD     		pop	{r7, pc}
 118              	.L13:
 119 003a C046     		.align	2
 120              	.L12:
 121 003c FF004200 		.word	4325631
 122              		.cfi_endproc
 123              	.LFE81:
 124              		.size	Cy_LVD_DeepSleepCallback, .-Cy_LVD_DeepSleepCallback
 125              		.text
 126              	.Letext0:
 127              		.file 3 "c:\\program files (x86)\\cypress\\psoc creator\\4.2\\psoc creator\\import\\gnu\\arm\\5.4.
 128              		.file 4 "c:\\program files (x86)\\cypress\\psoc creator\\4.2\\psoc creator\\import\\gnu\\arm\\5.4.
 129              		.file 5 "Generated_Source\\PSoC6\\pdl\\devices/psoc6/ip/cyip_srss.h"
 130              		.file 6 "Generated_Source\\PSoC6\\pdl\\drivers/peripheral/syspm/cy_syspm.h"