ARM GAS  C:\Users\salaz\AppData\Local\Temp\ccSSnxm1.s 			page 1


   1              		.syntax unified
   2              		.cpu cortex-m0plus
   3              		.fpu softvfp
   4              		.eabi_attribute 20, 1
   5              		.eabi_attribute 21, 1
   6              		.eabi_attribute 23, 3
   7              		.eabi_attribute 24, 1
   8              		.eabi_attribute 25, 1
   9              		.eabi_attribute 26, 1
  10              		.eabi_attribute 30, 6
  11              		.eabi_attribute 34, 0
  12              		.eabi_attribute 18, 4
  13              		.thumb
  14              		.syntax unified
  15              		.file	"cy_prot.c"
  16              		.text
  17              	.Ltext0:
  18              		.cfi_sections	.debug_frame
  19              		.section	.rodata
  20              		.align	2
  21              	.LC0:
  22 0000 47656E65 		.ascii	"Generated_Source\\PSoC6\\pdl\\drivers\\peripheral\\"
  22      72617465 
  22      645F536F 
  22      75726365 
  22      5C50536F 
  23 002e 70726F74 		.ascii	"prot\\cy_prot.c\000"
  23      5C63795F 
  23      70726F74 
  23      2E6300
  24              		.section	.text.Cy_Prot_ConfigBusMaster,"ax",%progbits
  25              		.align	2
  26              		.global	Cy_Prot_ConfigBusMaster
  27              		.code	16
  28              		.thumb_func
  29              		.type	Cy_Prot_ConfigBusMaster, %function
  30              	Cy_Prot_ConfigBusMaster:
  31              	.LFB36:
  32              		.file 1 "Generated_Source\\PSoC6\\pdl\\drivers\\peripheral\\prot\\cy_prot.c"
   1:Generated_Source\PSoC6\pdl\drivers\peripheral\prot/cy_prot.c **** /***************************************************************************//**
   2:Generated_Source\PSoC6\pdl\drivers\peripheral\prot/cy_prot.c **** * \file cy_prot.c
   3:Generated_Source\PSoC6\pdl\drivers\peripheral\prot/cy_prot.c **** * \version 1.10
   4:Generated_Source\PSoC6\pdl\drivers\peripheral\prot/cy_prot.c **** *
   5:Generated_Source\PSoC6\pdl\drivers\peripheral\prot/cy_prot.c **** * \brief
   6:Generated_Source\PSoC6\pdl\drivers\peripheral\prot/cy_prot.c **** * Provides an API implementation of the Protection Unit driver
   7:Generated_Source\PSoC6\pdl\drivers\peripheral\prot/cy_prot.c **** *
   8:Generated_Source\PSoC6\pdl\drivers\peripheral\prot/cy_prot.c **** ********************************************************************************
   9:Generated_Source\PSoC6\pdl\drivers\peripheral\prot/cy_prot.c **** * \copyright
  10:Generated_Source\PSoC6\pdl\drivers\peripheral\prot/cy_prot.c **** * Copyright 2016-2018, Cypress Semiconductor Corporation. All rights reserved.
  11:Generated_Source\PSoC6\pdl\drivers\peripheral\prot/cy_prot.c **** * You may use this file only in accordance with the license, terms, conditions,
  12:Generated_Source\PSoC6\pdl\drivers\peripheral\prot/cy_prot.c **** * disclaimers, and limitations in the end user license agreement accompanying
  13:Generated_Source\PSoC6\pdl\drivers\peripheral\prot/cy_prot.c **** * the software package with which this file was provided.
  14:Generated_Source\PSoC6\pdl\drivers\peripheral\prot/cy_prot.c **** *******************************************************************************/
  15:Generated_Source\PSoC6\pdl\drivers\peripheral\prot/cy_prot.c **** 
  16:Generated_Source\PSoC6\pdl\drivers\peripheral\prot/cy_prot.c **** #include "cy_prot.h"
  17:Generated_Source\PSoC6\pdl\drivers\peripheral\prot/cy_prot.c **** 
  18:Generated_Source\PSoC6\pdl\drivers\peripheral\prot/cy_prot.c **** #if defined(__cplusplus)
ARM GAS  C:\Users\salaz\AppData\Local\Temp\ccSSnxm1.s 			page 2


  19:Generated_Source\PSoC6\pdl\drivers\peripheral\prot/cy_prot.c **** extern "C" {
  20:Generated_Source\PSoC6\pdl\drivers\peripheral\prot/cy_prot.c **** #endif
  21:Generated_Source\PSoC6\pdl\drivers\peripheral\prot/cy_prot.c **** 
  22:Generated_Source\PSoC6\pdl\drivers\peripheral\prot/cy_prot.c **** 
  23:Generated_Source\PSoC6\pdl\drivers\peripheral\prot/cy_prot.c **** /*******************************************************************************
  24:Generated_Source\PSoC6\pdl\drivers\peripheral\prot/cy_prot.c **** * Function Name: Cy_Prot_ConfigBusMaster
  25:Generated_Source\PSoC6\pdl\drivers\peripheral\prot/cy_prot.c **** ****************************************************************************//**
  26:Generated_Source\PSoC6\pdl\drivers\peripheral\prot/cy_prot.c **** *
  27:Generated_Source\PSoC6\pdl\drivers\peripheral\prot/cy_prot.c **** * \brief Configures the allowed protection contexts, security (secure/non-secure)
  28:Generated_Source\PSoC6\pdl\drivers\peripheral\prot/cy_prot.c **** * and privilege level of the bus transaction created by the specified master. 
  29:Generated_Source\PSoC6\pdl\drivers\peripheral\prot/cy_prot.c **** *
  30:Generated_Source\PSoC6\pdl\drivers\peripheral\prot/cy_prot.c **** * \param busMaster
  31:Generated_Source\PSoC6\pdl\drivers\peripheral\prot/cy_prot.c **** * Indicates which master needs to be configured. Refer to the CPUSS_MS_ID_X
  32:Generated_Source\PSoC6\pdl\drivers\peripheral\prot/cy_prot.c **** * defines.
  33:Generated_Source\PSoC6\pdl\drivers\peripheral\prot/cy_prot.c **** * 
  34:Generated_Source\PSoC6\pdl\drivers\peripheral\prot/cy_prot.c **** * \param privileged
  35:Generated_Source\PSoC6\pdl\drivers\peripheral\prot/cy_prot.c **** * Boolean to define the privilege level of all subsequent bus transfers.
  36:Generated_Source\PSoC6\pdl\drivers\peripheral\prot/cy_prot.c **** * True - privileged, False - not privileged.
  37:Generated_Source\PSoC6\pdl\drivers\peripheral\prot/cy_prot.c **** * Note that this is an inherited value. If not inherited, then this bit will 
  38:Generated_Source\PSoC6\pdl\drivers\peripheral\prot/cy_prot.c **** * be used.
  39:Generated_Source\PSoC6\pdl\drivers\peripheral\prot/cy_prot.c **** *
  40:Generated_Source\PSoC6\pdl\drivers\peripheral\prot/cy_prot.c **** * \param secure
  41:Generated_Source\PSoC6\pdl\drivers\peripheral\prot/cy_prot.c **** * Security setting for the master. True - Secure, False - Not secure.
  42:Generated_Source\PSoC6\pdl\drivers\peripheral\prot/cy_prot.c **** * 
  43:Generated_Source\PSoC6\pdl\drivers\peripheral\prot/cy_prot.c **** * \param pcMask
  44:Generated_Source\PSoC6\pdl\drivers\peripheral\prot/cy_prot.c **** * This is a 16 bit value of the allowed contexts, it is an OR'ed (|) field of the
  45:Generated_Source\PSoC6\pdl\drivers\peripheral\prot/cy_prot.c **** * provided defines in cy_prot.h. For example: (PROT_PC1 | PROT_PC3 | PROT_PC4)
  46:Generated_Source\PSoC6\pdl\drivers\peripheral\prot/cy_prot.c **** * 
  47:Generated_Source\PSoC6\pdl\drivers\peripheral\prot/cy_prot.c **** * \return
  48:Generated_Source\PSoC6\pdl\drivers\peripheral\prot/cy_prot.c **** * Status of the function call.
  49:Generated_Source\PSoC6\pdl\drivers\peripheral\prot/cy_prot.c **** *
  50:Generated_Source\PSoC6\pdl\drivers\peripheral\prot/cy_prot.c **** *   Status               | Description
  51:Generated_Source\PSoC6\pdl\drivers\peripheral\prot/cy_prot.c **** *   ------------         | -----------
  52:Generated_Source\PSoC6\pdl\drivers\peripheral\prot/cy_prot.c **** *   CY_PROT_SUCCESS      | The function completed successfully
  53:Generated_Source\PSoC6\pdl\drivers\peripheral\prot/cy_prot.c **** *   CY_PROT_FAILURE      | The resource is locked
  54:Generated_Source\PSoC6\pdl\drivers\peripheral\prot/cy_prot.c **** *   CY_PROT_BAD_PARAM    | An incorrect/invalid parameter was passed
  55:Generated_Source\PSoC6\pdl\drivers\peripheral\prot/cy_prot.c **** *
  56:Generated_Source\PSoC6\pdl\drivers\peripheral\prot/cy_prot.c **** * \funcusage
  57:Generated_Source\PSoC6\pdl\drivers\peripheral\prot/cy_prot.c **** * \snippet prot/prot_v1_10_sut_01.cydsn/main_cm4.c snippet_Cy_Prot_ConfigBusMaster
  58:Generated_Source\PSoC6\pdl\drivers\peripheral\prot/cy_prot.c **** *
  59:Generated_Source\PSoC6\pdl\drivers\peripheral\prot/cy_prot.c **** *******************************************************************************/
  60:Generated_Source\PSoC6\pdl\drivers\peripheral\prot/cy_prot.c **** cy_en_prot_status_t Cy_Prot_ConfigBusMaster(en_prot_master_t busMaster, bool privileged, bool secur
  61:Generated_Source\PSoC6\pdl\drivers\peripheral\prot/cy_prot.c **** {
  33              		.loc 1 61 0
  34              		.cfi_startproc
  35              		@ args = 0, pretend = 0, frame = 24
  36              		@ frame_needed = 1, uses_anonymous_args = 0
  37 0000 90B5     		push	{r4, r7, lr}
  38              		.cfi_def_cfa_offset 12
  39              		.cfi_offset 4, -12
  40              		.cfi_offset 7, -8
  41              		.cfi_offset 14, -4
  42 0002 87B0     		sub	sp, sp, #28
  43              		.cfi_def_cfa_offset 40
  44 0004 00AF     		add	r7, sp, #0
  45              		.cfi_def_cfa_register 7
  46 0006 0400     		movs	r4, r0
ARM GAS  C:\Users\salaz\AppData\Local\Temp\ccSSnxm1.s 			page 3


  47 0008 0800     		movs	r0, r1
  48 000a 1100     		movs	r1, r2
  49 000c 3B60     		str	r3, [r7]
  50 000e FB1D     		adds	r3, r7, #7
  51 0010 221C     		adds	r2, r4, #0
  52 0012 1A70     		strb	r2, [r3]
  53 0014 BB1D     		adds	r3, r7, #6
  54 0016 021C     		adds	r2, r0, #0
  55 0018 1A70     		strb	r2, [r3]
  56 001a 7B1D     		adds	r3, r7, #5
  57 001c 0A1C     		adds	r2, r1, #0
  58 001e 1A70     		strb	r2, [r3]
  62:Generated_Source\PSoC6\pdl\drivers\peripheral\prot/cy_prot.c ****     cy_en_prot_status_t status;
  63:Generated_Source\PSoC6\pdl\drivers\peripheral\prot/cy_prot.c ****     uint32_t regVal;
  64:Generated_Source\PSoC6\pdl\drivers\peripheral\prot/cy_prot.c ****     uint32_t * addrMsCtl;
  65:Generated_Source\PSoC6\pdl\drivers\peripheral\prot/cy_prot.c **** 
  66:Generated_Source\PSoC6\pdl\drivers\peripheral\prot/cy_prot.c ****     CY_ASSERT_L1(CY_PROT_IS_BUS_MASTER_VALID(busMaster));
  59              		.loc 1 66 0
  60 0020 FB1D     		adds	r3, r7, #7
  61 0022 1B78     		ldrb	r3, [r3]
  62 0024 0F2B     		cmp	r3, #15
  63 0026 04D9     		bls	.L2
  64              		.loc 1 66 0 is_stmt 0 discriminator 1
  65 0028 374B     		ldr	r3, .L28
  66 002a 4221     		movs	r1, #66
  67 002c 1800     		movs	r0, r3
  68 002e FFF7FEFF 		bl	Cy_SysLib_AssertFailed
  69              	.L2:
  67:Generated_Source\PSoC6\pdl\drivers\peripheral\prot/cy_prot.c ****         
  68:Generated_Source\PSoC6\pdl\drivers\peripheral\prot/cy_prot.c ****     addrMsCtl = (uint32_t *)(PROT_BASE + (uint32_t)((uint32_t)busMaster << CY_PROT_MSX_CTL_SHIFT));
  70              		.loc 1 68 0 is_stmt 1
  71 0032 FB1D     		adds	r3, r7, #7
  72 0034 1B78     		ldrb	r3, [r3]
  73 0036 9B00     		lsls	r3, r3, #2
  74 0038 344A     		ldr	r2, .L28+4
  75 003a 9446     		mov	ip, r2
  76 003c 6344     		add	r3, r3, ip
  77 003e 3B61     		str	r3, [r7, #16]
  69:Generated_Source\PSoC6\pdl\drivers\peripheral\prot/cy_prot.c ****     
  70:Generated_Source\PSoC6\pdl\drivers\peripheral\prot/cy_prot.c ****     /* Check if PC mask is in supported range */
  71:Generated_Source\PSoC6\pdl\drivers\peripheral\prot/cy_prot.c ****     switch (busMaster)
  78              		.loc 1 71 0
  79 0040 FB1D     		adds	r3, r7, #7
  80 0042 1B78     		ldrb	r3, [r3]
  81 0044 0F2B     		cmp	r3, #15
  82 0046 38D8     		bhi	.L3
  83 0048 9A00     		lsls	r2, r3, #2
  84 004a 314B     		ldr	r3, .L28+8
  85 004c D318     		adds	r3, r2, r3
  86 004e 1B68     		ldr	r3, [r3]
  87 0050 9F46     		mov	pc, r3
  88              		.section	.rodata
  89 003d 000000   		.align	2
  90              	.L5:
  91 0040 52000000 		.word	.L4
  92 0044 64000000 		.word	.L6
  93 0048 76000000 		.word	.L7
ARM GAS  C:\Users\salaz\AppData\Local\Temp\ccSSnxm1.s 			page 4


  94 004c 86000000 		.word	.L8
  95 0050 BA000000 		.word	.L3
  96 0054 BA000000 		.word	.L3
  97 0058 BA000000 		.word	.L3
  98 005c BA000000 		.word	.L3
  99 0060 BA000000 		.word	.L3
 100 0064 BA000000 		.word	.L3
 101 0068 BA000000 		.word	.L3
 102 006c BA000000 		.word	.L3
 103 0070 BA000000 		.word	.L3
 104 0074 BA000000 		.word	.L3
 105 0078 96000000 		.word	.L9
 106 007c A8000000 		.word	.L10
 107              		.section	.text.Cy_Prot_ConfigBusMaster
 108              	.L4:
  72:Generated_Source\PSoC6\pdl\drivers\peripheral\prot/cy_prot.c ****     {
  73:Generated_Source\PSoC6\pdl\drivers\peripheral\prot/cy_prot.c ****         case (CPUSS_MS_ID_CM0):
  74:Generated_Source\PSoC6\pdl\drivers\peripheral\prot/cy_prot.c ****         {
  75:Generated_Source\PSoC6\pdl\drivers\peripheral\prot/cy_prot.c ****             status = ((uint32_t)(pcMask & CY_PROT_MS0_PC_LIMIT_MASK) != 0UL) ? CY_PROT_BAD_PARAM : 
 109              		.loc 1 75 0
 110 0052 3B68     		ldr	r3, [r7]
 111 0054 7F22     		movs	r2, #127
 112 0056 9343     		bics	r3, r2
 113 0058 01D0     		beq	.L11
 114              		.loc 1 75 0 is_stmt 0 discriminator 1
 115 005a 2E4B     		ldr	r3, .L28+12
 116 005c 00E0     		b	.L12
 117              	.L11:
 118              		.loc 1 75 0 discriminator 2
 119 005e 0023     		movs	r3, #0
 120              	.L12:
 121              		.loc 1 75 0 discriminator 4
 122 0060 7B61     		str	r3, [r7, #20]
  76:Generated_Source\PSoC6\pdl\drivers\peripheral\prot/cy_prot.c ****             break;
 123              		.loc 1 76 0 is_stmt 1 discriminator 4
 124 0062 2DE0     		b	.L13
 125              	.L6:
  77:Generated_Source\PSoC6\pdl\drivers\peripheral\prot/cy_prot.c ****         }
  78:Generated_Source\PSoC6\pdl\drivers\peripheral\prot/cy_prot.c ****         case (CPUSS_MS_ID_CRYPTO):
  79:Generated_Source\PSoC6\pdl\drivers\peripheral\prot/cy_prot.c ****         {
  80:Generated_Source\PSoC6\pdl\drivers\peripheral\prot/cy_prot.c ****             status = ((uint32_t)(pcMask & CY_PROT_MS1_PC_LIMIT_MASK) != 0UL) ? CY_PROT_BAD_PARAM : 
 126              		.loc 1 80 0
 127 0064 3B68     		ldr	r3, [r7]
 128 0066 7F22     		movs	r2, #127
 129 0068 9343     		bics	r3, r2
 130 006a 01D0     		beq	.L14
 131              		.loc 1 80 0 is_stmt 0 discriminator 1
 132 006c 294B     		ldr	r3, .L28+12
 133 006e 00E0     		b	.L15
 134              	.L14:
 135              		.loc 1 80 0 discriminator 2
 136 0070 0023     		movs	r3, #0
 137              	.L15:
 138              		.loc 1 80 0 discriminator 4
 139 0072 7B61     		str	r3, [r7, #20]
  81:Generated_Source\PSoC6\pdl\drivers\peripheral\prot/cy_prot.c ****             break;
 140              		.loc 1 81 0 is_stmt 1 discriminator 4
ARM GAS  C:\Users\salaz\AppData\Local\Temp\ccSSnxm1.s 			page 5


 141 0074 24E0     		b	.L13
 142              	.L7:
  82:Generated_Source\PSoC6\pdl\drivers\peripheral\prot/cy_prot.c ****         }
  83:Generated_Source\PSoC6\pdl\drivers\peripheral\prot/cy_prot.c ****         case (CPUSS_MS_ID_DW0):
  84:Generated_Source\PSoC6\pdl\drivers\peripheral\prot/cy_prot.c ****         {
  85:Generated_Source\PSoC6\pdl\drivers\peripheral\prot/cy_prot.c ****             status = ((uint32_t)(pcMask & CY_PROT_MS2_PC_LIMIT_MASK) != 0UL) ? CY_PROT_BAD_PARAM : 
 143              		.loc 1 85 0
 144 0076 3B68     		ldr	r3, [r7]
 145 0078 002B     		cmp	r3, #0
 146 007a 01D0     		beq	.L16
 147              		.loc 1 85 0 is_stmt 0 discriminator 1
 148 007c 254B     		ldr	r3, .L28+12
 149 007e 00E0     		b	.L17
 150              	.L16:
 151              		.loc 1 85 0 discriminator 2
 152 0080 0023     		movs	r3, #0
 153              	.L17:
 154              		.loc 1 85 0 discriminator 4
 155 0082 7B61     		str	r3, [r7, #20]
  86:Generated_Source\PSoC6\pdl\drivers\peripheral\prot/cy_prot.c ****             break;
 156              		.loc 1 86 0 is_stmt 1 discriminator 4
 157 0084 1CE0     		b	.L13
 158              	.L8:
  87:Generated_Source\PSoC6\pdl\drivers\peripheral\prot/cy_prot.c ****         }
  88:Generated_Source\PSoC6\pdl\drivers\peripheral\prot/cy_prot.c ****         case (CPUSS_MS_ID_DW1):
  89:Generated_Source\PSoC6\pdl\drivers\peripheral\prot/cy_prot.c ****         {
  90:Generated_Source\PSoC6\pdl\drivers\peripheral\prot/cy_prot.c ****             status = ((uint32_t)(pcMask & CY_PROT_MS3_PC_LIMIT_MASK) != 0UL) ? CY_PROT_BAD_PARAM : 
 159              		.loc 1 90 0
 160 0086 3B68     		ldr	r3, [r7]
 161 0088 002B     		cmp	r3, #0
 162 008a 01D0     		beq	.L18
 163              		.loc 1 90 0 is_stmt 0 discriminator 1
 164 008c 214B     		ldr	r3, .L28+12
 165 008e 00E0     		b	.L19
 166              	.L18:
 167              		.loc 1 90 0 discriminator 2
 168 0090 0023     		movs	r3, #0
 169              	.L19:
 170              		.loc 1 90 0 discriminator 4
 171 0092 7B61     		str	r3, [r7, #20]
  91:Generated_Source\PSoC6\pdl\drivers\peripheral\prot/cy_prot.c ****             break;
 172              		.loc 1 91 0 is_stmt 1 discriminator 4
 173 0094 14E0     		b	.L13
 174              	.L9:
  92:Generated_Source\PSoC6\pdl\drivers\peripheral\prot/cy_prot.c ****         }
  93:Generated_Source\PSoC6\pdl\drivers\peripheral\prot/cy_prot.c ****         case (CPUSS_MS_ID_CM4):
  94:Generated_Source\PSoC6\pdl\drivers\peripheral\prot/cy_prot.c ****         {
  95:Generated_Source\PSoC6\pdl\drivers\peripheral\prot/cy_prot.c ****             status = ((uint32_t)(pcMask & CY_PROT_MS14_PC_LIMIT_MASK) != 0UL) ? CY_PROT_BAD_PARAM :
 175              		.loc 1 95 0
 176 0096 3B68     		ldr	r3, [r7]
 177 0098 7F22     		movs	r2, #127
 178 009a 9343     		bics	r3, r2
 179 009c 01D0     		beq	.L20
 180              		.loc 1 95 0 is_stmt 0 discriminator 1
 181 009e 1D4B     		ldr	r3, .L28+12
 182 00a0 00E0     		b	.L21
 183              	.L20:
ARM GAS  C:\Users\salaz\AppData\Local\Temp\ccSSnxm1.s 			page 6


 184              		.loc 1 95 0 discriminator 2
 185 00a2 0023     		movs	r3, #0
 186              	.L21:
 187              		.loc 1 95 0 discriminator 4
 188 00a4 7B61     		str	r3, [r7, #20]
  96:Generated_Source\PSoC6\pdl\drivers\peripheral\prot/cy_prot.c ****             break;
 189              		.loc 1 96 0 is_stmt 1 discriminator 4
 190 00a6 0BE0     		b	.L13
 191              	.L10:
  97:Generated_Source\PSoC6\pdl\drivers\peripheral\prot/cy_prot.c ****         }
  98:Generated_Source\PSoC6\pdl\drivers\peripheral\prot/cy_prot.c ****         case (CPUSS_MS_ID_TC):
  99:Generated_Source\PSoC6\pdl\drivers\peripheral\prot/cy_prot.c ****         {
 100:Generated_Source\PSoC6\pdl\drivers\peripheral\prot/cy_prot.c ****             status = ((uint32_t)(pcMask & CY_PROT_MS15_PC_LIMIT_MASK) != 0UL) ? CY_PROT_BAD_PARAM :
 192              		.loc 1 100 0
 193 00a8 3B68     		ldr	r3, [r7]
 194 00aa 7F22     		movs	r2, #127
 195 00ac 9343     		bics	r3, r2
 196 00ae 01D0     		beq	.L22
 197              		.loc 1 100 0 is_stmt 0 discriminator 1
 198 00b0 184B     		ldr	r3, .L28+12
 199 00b2 00E0     		b	.L23
 200              	.L22:
 201              		.loc 1 100 0 discriminator 2
 202 00b4 0023     		movs	r3, #0
 203              	.L23:
 204              		.loc 1 100 0 discriminator 4
 205 00b6 7B61     		str	r3, [r7, #20]
 101:Generated_Source\PSoC6\pdl\drivers\peripheral\prot/cy_prot.c ****             break;
 206              		.loc 1 101 0 is_stmt 1 discriminator 4
 207 00b8 02E0     		b	.L13
 208              	.L3:
 102:Generated_Source\PSoC6\pdl\drivers\peripheral\prot/cy_prot.c ****         }
 103:Generated_Source\PSoC6\pdl\drivers\peripheral\prot/cy_prot.c ****         default:
 104:Generated_Source\PSoC6\pdl\drivers\peripheral\prot/cy_prot.c ****             status = CY_PROT_BAD_PARAM;
 209              		.loc 1 104 0
 210 00ba 164B     		ldr	r3, .L28+12
 211 00bc 7B61     		str	r3, [r7, #20]
 105:Generated_Source\PSoC6\pdl\drivers\peripheral\prot/cy_prot.c ****         break;
 212              		.loc 1 105 0
 213 00be C046     		nop
 214              	.L13:
 106:Generated_Source\PSoC6\pdl\drivers\peripheral\prot/cy_prot.c ****     }
 107:Generated_Source\PSoC6\pdl\drivers\peripheral\prot/cy_prot.c ****     
 108:Generated_Source\PSoC6\pdl\drivers\peripheral\prot/cy_prot.c ****     if(status != CY_PROT_BAD_PARAM) 
 215              		.loc 1 108 0
 216 00c0 7B69     		ldr	r3, [r7, #20]
 217 00c2 144A     		ldr	r2, .L28+12
 218 00c4 9342     		cmp	r3, r2
 219 00c6 1AD0     		beq	.L24
 109:Generated_Source\PSoC6\pdl\drivers\peripheral\prot/cy_prot.c ****     {
 110:Generated_Source\PSoC6\pdl\drivers\peripheral\prot/cy_prot.c ****         regVal = _VAL2FLD(PROT_SMPU_MS0_CTL_NS, !secure)
 220              		.loc 1 110 0
 221 00c8 7B1D     		adds	r3, r7, #5
 222 00ca 1B78     		ldrb	r3, [r3]
 223 00cc 0122     		movs	r2, #1
 224 00ce 5340     		eors	r3, r2
 225 00d0 DBB2     		uxtb	r3, r3
ARM GAS  C:\Users\salaz\AppData\Local\Temp\ccSSnxm1.s 			page 7


 226 00d2 5B00     		lsls	r3, r3, #1
 227 00d4 0222     		movs	r2, #2
 228 00d6 1A40     		ands	r2, r3
 111:Generated_Source\PSoC6\pdl\drivers\peripheral\prot/cy_prot.c ****                 | _VAL2FLD(PROT_SMPU_MS0_CTL_P, privileged)
 229              		.loc 1 111 0
 230 00d8 BB1D     		adds	r3, r7, #6
 231 00da 1B78     		ldrb	r3, [r3]
 232 00dc 1A43     		orrs	r2, r3
 112:Generated_Source\PSoC6\pdl\drivers\peripheral\prot/cy_prot.c ****                 | _VAL2FLD(PROT_SMPU_MS0_CTL_PC_MASK_15_TO_1, pcMask);
 233              		.loc 1 112 0
 234 00de 3B68     		ldr	r3, [r7]
 235 00e0 5B04     		lsls	r3, r3, #17
 110:Generated_Source\PSoC6\pdl\drivers\peripheral\prot/cy_prot.c ****                 | _VAL2FLD(PROT_SMPU_MS0_CTL_P, privileged)
 236              		.loc 1 110 0
 237 00e2 1343     		orrs	r3, r2
 238 00e4 FB60     		str	r3, [r7, #12]
 113:Generated_Source\PSoC6\pdl\drivers\peripheral\prot/cy_prot.c ****         *addrMsCtl = regVal;
 239              		.loc 1 113 0
 240 00e6 3B69     		ldr	r3, [r7, #16]
 241 00e8 FA68     		ldr	r2, [r7, #12]
 242 00ea 1A60     		str	r2, [r3]
 114:Generated_Source\PSoC6\pdl\drivers\peripheral\prot/cy_prot.c ****         status = (*addrMsCtl != regVal) ? CY_PROT_FAILURE : CY_PROT_SUCCESS;
 243              		.loc 1 114 0
 244 00ec 3B69     		ldr	r3, [r7, #16]
 245 00ee 1A68     		ldr	r2, [r3]
 246 00f0 FB68     		ldr	r3, [r7, #12]
 247 00f2 9A42     		cmp	r2, r3
 248 00f4 01D0     		beq	.L25
 249              		.loc 1 114 0 is_stmt 0 discriminator 1
 250 00f6 084B     		ldr	r3, .L28+16
 251 00f8 00E0     		b	.L26
 252              	.L25:
 253              		.loc 1 114 0 discriminator 2
 254 00fa 0023     		movs	r3, #0
 255              	.L26:
 256              		.loc 1 114 0 discriminator 4
 257 00fc 7B61     		str	r3, [r7, #20]
 258              	.L24:
 115:Generated_Source\PSoC6\pdl\drivers\peripheral\prot/cy_prot.c ****     }
 116:Generated_Source\PSoC6\pdl\drivers\peripheral\prot/cy_prot.c ****     
 117:Generated_Source\PSoC6\pdl\drivers\peripheral\prot/cy_prot.c ****     return status;
 259              		.loc 1 117 0 is_stmt 1
 260 00fe 7B69     		ldr	r3, [r7, #20]
 118:Generated_Source\PSoC6\pdl\drivers\peripheral\prot/cy_prot.c **** }
 261              		.loc 1 118 0
 262 0100 1800     		movs	r0, r3
 263 0102 BD46     		mov	sp, r7
 264 0104 07B0     		add	sp, sp, #28
 265              		@ sp needed
 266 0106 90BD     		pop	{r4, r7, pc}
 267              	.L29:
 268              		.align	2
 269              	.L28:
 270 0108 00000000 		.word	.LC0
 271 010c 00002440 		.word	1076101120
 272 0110 40000000 		.word	.L5
 273 0114 0100C200 		.word	12713985
ARM GAS  C:\Users\salaz\AppData\Local\Temp\ccSSnxm1.s 			page 8


 274 0118 0300C200 		.word	12713987
 275              		.cfi_endproc
 276              	.LFE36:
 277              		.size	Cy_Prot_ConfigBusMaster, .-Cy_Prot_ConfigBusMaster
 278              		.section	.text.Cy_Prot_SetActivePC,"ax",%progbits
 279              		.align	2
 280              		.global	Cy_Prot_SetActivePC
 281              		.code	16
 282              		.thumb_func
 283              		.type	Cy_Prot_SetActivePC, %function
 284              	Cy_Prot_SetActivePC:
 285              	.LFB37:
 119:Generated_Source\PSoC6\pdl\drivers\peripheral\prot/cy_prot.c **** 
 120:Generated_Source\PSoC6\pdl\drivers\peripheral\prot/cy_prot.c **** 
 121:Generated_Source\PSoC6\pdl\drivers\peripheral\prot/cy_prot.c **** /*******************************************************************************
 122:Generated_Source\PSoC6\pdl\drivers\peripheral\prot/cy_prot.c **** * Function Name: Cy_Prot_SetActivePC
 123:Generated_Source\PSoC6\pdl\drivers\peripheral\prot/cy_prot.c **** ****************************************************************************//**
 124:Generated_Source\PSoC6\pdl\drivers\peripheral\prot/cy_prot.c **** *
 125:Generated_Source\PSoC6\pdl\drivers\peripheral\prot/cy_prot.c **** * \brief Sets the current/active protection context of the specified bus master.
 126:Generated_Source\PSoC6\pdl\drivers\peripheral\prot/cy_prot.c **** * 
 127:Generated_Source\PSoC6\pdl\drivers\peripheral\prot/cy_prot.c **** * Allowed PC values are 1-15. If this value is not inherited from another bus 
 128:Generated_Source\PSoC6\pdl\drivers\peripheral\prot/cy_prot.c **** * master, the value set through this function is used.
 129:Generated_Source\PSoC6\pdl\drivers\peripheral\prot/cy_prot.c **** *
 130:Generated_Source\PSoC6\pdl\drivers\peripheral\prot/cy_prot.c **** * \param busMaster
 131:Generated_Source\PSoC6\pdl\drivers\peripheral\prot/cy_prot.c **** * The bus master to configure. Refer to the CPUSS_MS_ID_X defines.
 132:Generated_Source\PSoC6\pdl\drivers\peripheral\prot/cy_prot.c **** * 
 133:Generated_Source\PSoC6\pdl\drivers\peripheral\prot/cy_prot.c **** * \param pc
 134:Generated_Source\PSoC6\pdl\drivers\peripheral\prot/cy_prot.c **** * Active protection context of the specified master. Note that only those 
 135:Generated_Source\PSoC6\pdl\drivers\peripheral\prot/cy_prot.c **** * protection contexts allowed by the pcMask will take effect. 
 136:Generated_Source\PSoC6\pdl\drivers\peripheral\prot/cy_prot.c **** *
 137:Generated_Source\PSoC6\pdl\drivers\peripheral\prot/cy_prot.c **** * \return
 138:Generated_Source\PSoC6\pdl\drivers\peripheral\prot/cy_prot.c **** * Status of the function call.
 139:Generated_Source\PSoC6\pdl\drivers\peripheral\prot/cy_prot.c **** *
 140:Generated_Source\PSoC6\pdl\drivers\peripheral\prot/cy_prot.c **** *   Status               | Description
 141:Generated_Source\PSoC6\pdl\drivers\peripheral\prot/cy_prot.c **** *   ------------         | -----------
 142:Generated_Source\PSoC6\pdl\drivers\peripheral\prot/cy_prot.c **** *   CY_PROT_SUCCESS      | The function completed successfully
 143:Generated_Source\PSoC6\pdl\drivers\peripheral\prot/cy_prot.c **** *   CY_PROT_FAILURE      | The resource is locked
 144:Generated_Source\PSoC6\pdl\drivers\peripheral\prot/cy_prot.c **** *   CY_PROT_BAD_PARAM    | An incorrect/invalid parameter was passed
 145:Generated_Source\PSoC6\pdl\drivers\peripheral\prot/cy_prot.c **** *
 146:Generated_Source\PSoC6\pdl\drivers\peripheral\prot/cy_prot.c **** * \funcusage
 147:Generated_Source\PSoC6\pdl\drivers\peripheral\prot/cy_prot.c **** * \snippet prot/prot_v1_10_sut_01.cydsn/main_cm4.c snippet_Cy_Prot_SetActivePC
 148:Generated_Source\PSoC6\pdl\drivers\peripheral\prot/cy_prot.c **** *
 149:Generated_Source\PSoC6\pdl\drivers\peripheral\prot/cy_prot.c **** *******************************************************************************/
 150:Generated_Source\PSoC6\pdl\drivers\peripheral\prot/cy_prot.c **** cy_en_prot_status_t Cy_Prot_SetActivePC(en_prot_master_t busMaster, uint32_t pc)
 151:Generated_Source\PSoC6\pdl\drivers\peripheral\prot/cy_prot.c **** {
 286              		.loc 1 151 0
 287              		.cfi_startproc
 288              		@ args = 0, pretend = 0, frame = 16
 289              		@ frame_needed = 1, uses_anonymous_args = 0
 290 0000 80B5     		push	{r7, lr}
 291              		.cfi_def_cfa_offset 8
 292              		.cfi_offset 7, -8
 293              		.cfi_offset 14, -4
 294 0002 84B0     		sub	sp, sp, #16
 295              		.cfi_def_cfa_offset 24
 296 0004 00AF     		add	r7, sp, #0
 297              		.cfi_def_cfa_register 7
ARM GAS  C:\Users\salaz\AppData\Local\Temp\ccSSnxm1.s 			page 9


 298 0006 0200     		movs	r2, r0
 299 0008 3960     		str	r1, [r7]
 300 000a FB1D     		adds	r3, r7, #7
 301 000c 1A70     		strb	r2, [r3]
 152:Generated_Source\PSoC6\pdl\drivers\peripheral\prot/cy_prot.c ****     cy_en_prot_status_t status;
 153:Generated_Source\PSoC6\pdl\drivers\peripheral\prot/cy_prot.c ****     PROT_MPU_Type* addrMpu;
 154:Generated_Source\PSoC6\pdl\drivers\peripheral\prot/cy_prot.c ****     
 155:Generated_Source\PSoC6\pdl\drivers\peripheral\prot/cy_prot.c ****     CY_ASSERT_L1(CY_PROT_IS_BUS_MASTER_VALID(busMaster));
 302              		.loc 1 155 0
 303 000e FB1D     		adds	r3, r7, #7
 304 0010 1B78     		ldrb	r3, [r3]
 305 0012 0F2B     		cmp	r3, #15
 306 0014 04D9     		bls	.L31
 307              		.loc 1 155 0 is_stmt 0 discriminator 1
 308 0016 334B     		ldr	r3, .L57
 309 0018 9B21     		movs	r1, #155
 310 001a 1800     		movs	r0, r3
 311 001c FFF7FEFF 		bl	Cy_SysLib_AssertFailed
 312              	.L31:
 156:Generated_Source\PSoC6\pdl\drivers\peripheral\prot/cy_prot.c ****     
 157:Generated_Source\PSoC6\pdl\drivers\peripheral\prot/cy_prot.c ****     addrMpu = (PROT_MPU_Type*)(&PROT->CYMPU[busMaster]); 
 313              		.loc 1 157 0 is_stmt 1
 314 0020 FB1D     		adds	r3, r7, #7
 315 0022 1B78     		ldrb	r3, [r3]
 316 0024 9B02     		lsls	r3, r3, #10
 317 0026 304A     		ldr	r2, .L57+4
 318 0028 9446     		mov	ip, r2
 319 002a 6344     		add	r3, r3, ip
 320 002c BB60     		str	r3, [r7, #8]
 158:Generated_Source\PSoC6\pdl\drivers\peripheral\prot/cy_prot.c ****     
 159:Generated_Source\PSoC6\pdl\drivers\peripheral\prot/cy_prot.c ****     /* Check if PC value is in supported range */
 160:Generated_Source\PSoC6\pdl\drivers\peripheral\prot/cy_prot.c ****     switch (busMaster)
 321              		.loc 1 160 0
 322 002e FB1D     		adds	r3, r7, #7
 323 0030 1B78     		ldrb	r3, [r3]
 324 0032 0F2B     		cmp	r3, #15
 325 0034 34D8     		bhi	.L32
 326 0036 9A00     		lsls	r2, r3, #2
 327 0038 2C4B     		ldr	r3, .L57+8
 328 003a D318     		adds	r3, r2, r3
 329 003c 1B68     		ldr	r3, [r3]
 330 003e 9F46     		mov	pc, r3
 331              		.section	.rodata
 332              		.align	2
 333              	.L34:
 334 0080 40000000 		.word	.L33
 335 0084 50000000 		.word	.L35
 336 0088 60000000 		.word	.L36
 337 008c 70000000 		.word	.L37
 338 0090 A0000000 		.word	.L32
 339 0094 A0000000 		.word	.L32
 340 0098 A0000000 		.word	.L32
 341 009c A0000000 		.word	.L32
 342 00a0 A0000000 		.word	.L32
 343 00a4 A0000000 		.word	.L32
 344 00a8 A0000000 		.word	.L32
 345 00ac A0000000 		.word	.L32
ARM GAS  C:\Users\salaz\AppData\Local\Temp\ccSSnxm1.s 			page 10


 346 00b0 A0000000 		.word	.L32
 347 00b4 A0000000 		.word	.L32
 348 00b8 80000000 		.word	.L38
 349 00bc 90000000 		.word	.L39
 350              		.section	.text.Cy_Prot_SetActivePC
 351              	.L33:
 161:Generated_Source\PSoC6\pdl\drivers\peripheral\prot/cy_prot.c ****     {
 162:Generated_Source\PSoC6\pdl\drivers\peripheral\prot/cy_prot.c ****         case (CPUSS_MS_ID_CM0):
 163:Generated_Source\PSoC6\pdl\drivers\peripheral\prot/cy_prot.c ****         {
 164:Generated_Source\PSoC6\pdl\drivers\peripheral\prot/cy_prot.c ****             status = (pc > CPUSS_PROT_SMPU_MS0_PC_NR_MINUS1) ? CY_PROT_BAD_PARAM : CY_PROT_SUCCESS;
 352              		.loc 1 164 0
 353 0040 3B68     		ldr	r3, [r7]
 354 0042 072B     		cmp	r3, #7
 355 0044 01D9     		bls	.L40
 356              		.loc 1 164 0 is_stmt 0 discriminator 1
 357 0046 2A4B     		ldr	r3, .L57+12
 358 0048 00E0     		b	.L41
 359              	.L40:
 360              		.loc 1 164 0 discriminator 2
 361 004a 0023     		movs	r3, #0
 362              	.L41:
 363              		.loc 1 164 0 discriminator 4
 364 004c FB60     		str	r3, [r7, #12]
 165:Generated_Source\PSoC6\pdl\drivers\peripheral\prot/cy_prot.c ****             break;
 365              		.loc 1 165 0 is_stmt 1 discriminator 4
 366 004e 2AE0     		b	.L42
 367              	.L35:
 166:Generated_Source\PSoC6\pdl\drivers\peripheral\prot/cy_prot.c ****         }
 167:Generated_Source\PSoC6\pdl\drivers\peripheral\prot/cy_prot.c ****         case (CPUSS_MS_ID_CRYPTO):
 168:Generated_Source\PSoC6\pdl\drivers\peripheral\prot/cy_prot.c ****         {
 169:Generated_Source\PSoC6\pdl\drivers\peripheral\prot/cy_prot.c ****             status = (pc > CPUSS_PROT_SMPU_MS1_PC_NR_MINUS1) ? CY_PROT_BAD_PARAM : CY_PROT_SUCCESS;
 368              		.loc 1 169 0
 369 0050 3B68     		ldr	r3, [r7]
 370 0052 072B     		cmp	r3, #7
 371 0054 01D9     		bls	.L43
 372              		.loc 1 169 0 is_stmt 0 discriminator 1
 373 0056 264B     		ldr	r3, .L57+12
 374 0058 00E0     		b	.L44
 375              	.L43:
 376              		.loc 1 169 0 discriminator 2
 377 005a 0023     		movs	r3, #0
 378              	.L44:
 379              		.loc 1 169 0 discriminator 4
 380 005c FB60     		str	r3, [r7, #12]
 170:Generated_Source\PSoC6\pdl\drivers\peripheral\prot/cy_prot.c ****             break;
 381              		.loc 1 170 0 is_stmt 1 discriminator 4
 382 005e 22E0     		b	.L42
 383              	.L36:
 171:Generated_Source\PSoC6\pdl\drivers\peripheral\prot/cy_prot.c ****         }
 172:Generated_Source\PSoC6\pdl\drivers\peripheral\prot/cy_prot.c ****         case (CPUSS_MS_ID_DW0):
 173:Generated_Source\PSoC6\pdl\drivers\peripheral\prot/cy_prot.c ****         {
 174:Generated_Source\PSoC6\pdl\drivers\peripheral\prot/cy_prot.c ****             status = (pc > CPUSS_PROT_SMPU_MS2_PC_NR_MINUS1) ? CY_PROT_BAD_PARAM : CY_PROT_SUCCESS;
 384              		.loc 1 174 0
 385 0060 3B68     		ldr	r3, [r7]
 386 0062 002B     		cmp	r3, #0
 387 0064 01D0     		beq	.L45
 388              		.loc 1 174 0 is_stmt 0 discriminator 1
ARM GAS  C:\Users\salaz\AppData\Local\Temp\ccSSnxm1.s 			page 11


 389 0066 224B     		ldr	r3, .L57+12
 390 0068 00E0     		b	.L46
 391              	.L45:
 392              		.loc 1 174 0 discriminator 2
 393 006a 0023     		movs	r3, #0
 394              	.L46:
 395              		.loc 1 174 0 discriminator 4
 396 006c FB60     		str	r3, [r7, #12]
 175:Generated_Source\PSoC6\pdl\drivers\peripheral\prot/cy_prot.c ****             break;
 397              		.loc 1 175 0 is_stmt 1 discriminator 4
 398 006e 1AE0     		b	.L42
 399              	.L37:
 176:Generated_Source\PSoC6\pdl\drivers\peripheral\prot/cy_prot.c ****         }
 177:Generated_Source\PSoC6\pdl\drivers\peripheral\prot/cy_prot.c ****         case (CPUSS_MS_ID_DW1):
 178:Generated_Source\PSoC6\pdl\drivers\peripheral\prot/cy_prot.c ****         {
 179:Generated_Source\PSoC6\pdl\drivers\peripheral\prot/cy_prot.c ****             status = (pc > CPUSS_PROT_SMPU_MS3_PC_NR_MINUS1) ? CY_PROT_BAD_PARAM : CY_PROT_SUCCESS;
 400              		.loc 1 179 0
 401 0070 3B68     		ldr	r3, [r7]
 402 0072 002B     		cmp	r3, #0
 403 0074 01D0     		beq	.L47
 404              		.loc 1 179 0 is_stmt 0 discriminator 1
 405 0076 1E4B     		ldr	r3, .L57+12
 406 0078 00E0     		b	.L48
 407              	.L47:
 408              		.loc 1 179 0 discriminator 2
 409 007a 0023     		movs	r3, #0
 410              	.L48:
 411              		.loc 1 179 0 discriminator 4
 412 007c FB60     		str	r3, [r7, #12]
 180:Generated_Source\PSoC6\pdl\drivers\peripheral\prot/cy_prot.c ****             break;
 413              		.loc 1 180 0 is_stmt 1 discriminator 4
 414 007e 12E0     		b	.L42
 415              	.L38:
 181:Generated_Source\PSoC6\pdl\drivers\peripheral\prot/cy_prot.c ****         }
 182:Generated_Source\PSoC6\pdl\drivers\peripheral\prot/cy_prot.c ****         case (CPUSS_MS_ID_CM4):
 183:Generated_Source\PSoC6\pdl\drivers\peripheral\prot/cy_prot.c ****         {
 184:Generated_Source\PSoC6\pdl\drivers\peripheral\prot/cy_prot.c ****             status = (pc > CPUSS_PROT_SMPU_MS14_PC_NR_MINUS1) ? CY_PROT_BAD_PARAM : CY_PROT_SUCCESS
 416              		.loc 1 184 0
 417 0080 3B68     		ldr	r3, [r7]
 418 0082 072B     		cmp	r3, #7
 419 0084 01D9     		bls	.L49
 420              		.loc 1 184 0 is_stmt 0 discriminator 1
 421 0086 1A4B     		ldr	r3, .L57+12
 422 0088 00E0     		b	.L50
 423              	.L49:
 424              		.loc 1 184 0 discriminator 2
 425 008a 0023     		movs	r3, #0
 426              	.L50:
 427              		.loc 1 184 0 discriminator 4
 428 008c FB60     		str	r3, [r7, #12]
 185:Generated_Source\PSoC6\pdl\drivers\peripheral\prot/cy_prot.c ****             break;
 429              		.loc 1 185 0 is_stmt 1 discriminator 4
 430 008e 0AE0     		b	.L42
 431              	.L39:
 186:Generated_Source\PSoC6\pdl\drivers\peripheral\prot/cy_prot.c ****         }
 187:Generated_Source\PSoC6\pdl\drivers\peripheral\prot/cy_prot.c ****         case (CPUSS_MS_ID_TC):
 188:Generated_Source\PSoC6\pdl\drivers\peripheral\prot/cy_prot.c ****         {
ARM GAS  C:\Users\salaz\AppData\Local\Temp\ccSSnxm1.s 			page 12


 189:Generated_Source\PSoC6\pdl\drivers\peripheral\prot/cy_prot.c ****             status = (pc > CPUSS_PROT_SMPU_MS15_PC_NR_MINUS1) ? CY_PROT_BAD_PARAM : CY_PROT_SUCCESS
 432              		.loc 1 189 0
 433 0090 3B68     		ldr	r3, [r7]
 434 0092 072B     		cmp	r3, #7
 435 0094 01D9     		bls	.L51
 436              		.loc 1 189 0 is_stmt 0 discriminator 1
 437 0096 164B     		ldr	r3, .L57+12
 438 0098 00E0     		b	.L52
 439              	.L51:
 440              		.loc 1 189 0 discriminator 2
 441 009a 0023     		movs	r3, #0
 442              	.L52:
 443              		.loc 1 189 0 discriminator 4
 444 009c FB60     		str	r3, [r7, #12]
 190:Generated_Source\PSoC6\pdl\drivers\peripheral\prot/cy_prot.c ****             break;
 445              		.loc 1 190 0 is_stmt 1 discriminator 4
 446 009e 02E0     		b	.L42
 447              	.L32:
 191:Generated_Source\PSoC6\pdl\drivers\peripheral\prot/cy_prot.c ****         }
 192:Generated_Source\PSoC6\pdl\drivers\peripheral\prot/cy_prot.c ****         default:
 193:Generated_Source\PSoC6\pdl\drivers\peripheral\prot/cy_prot.c ****             status = CY_PROT_BAD_PARAM;
 448              		.loc 1 193 0
 449 00a0 134B     		ldr	r3, .L57+12
 450 00a2 FB60     		str	r3, [r7, #12]
 194:Generated_Source\PSoC6\pdl\drivers\peripheral\prot/cy_prot.c ****         break;
 451              		.loc 1 194 0
 452 00a4 C046     		nop
 453              	.L42:
 195:Generated_Source\PSoC6\pdl\drivers\peripheral\prot/cy_prot.c ****     }
 196:Generated_Source\PSoC6\pdl\drivers\peripheral\prot/cy_prot.c ****     
 197:Generated_Source\PSoC6\pdl\drivers\peripheral\prot/cy_prot.c ****     if(status != CY_PROT_BAD_PARAM) 
 454              		.loc 1 197 0
 455 00a6 FB68     		ldr	r3, [r7, #12]
 456 00a8 114A     		ldr	r2, .L57+12
 457 00aa 9342     		cmp	r3, r2
 458 00ac 15D0     		beq	.L53
 198:Generated_Source\PSoC6\pdl\drivers\peripheral\prot/cy_prot.c ****     {
 199:Generated_Source\PSoC6\pdl\drivers\peripheral\prot/cy_prot.c ****         addrMpu->MS_CTL = _VAL2FLD(PROT_MPU_MS_CTL_PC, pc) | _VAL2FLD(PROT_MPU_MS_CTL_PC_SAVED, pc)
 459              		.loc 1 199 0
 460 00ae 3B68     		ldr	r3, [r7]
 461 00b0 0F22     		movs	r2, #15
 462 00b2 1A40     		ands	r2, r3
 463 00b4 3B68     		ldr	r3, [r7]
 464 00b6 1904     		lsls	r1, r3, #16
 465 00b8 F023     		movs	r3, #240
 466 00ba 1B03     		lsls	r3, r3, #12
 467 00bc 0B40     		ands	r3, r1
 468 00be 1A43     		orrs	r2, r3
 469 00c0 BB68     		ldr	r3, [r7, #8]
 470 00c2 1A60     		str	r2, [r3]
 200:Generated_Source\PSoC6\pdl\drivers\peripheral\prot/cy_prot.c ****         status = (_FLD2VAL(PROT_MPU_MS_CTL_PC, addrMpu->MS_CTL) != pc) ? CY_PROT_FAILURE : CY_PROT_
 471              		.loc 1 200 0
 472 00c4 BB68     		ldr	r3, [r7, #8]
 473 00c6 1B68     		ldr	r3, [r3]
 474 00c8 0F22     		movs	r2, #15
 475 00ca 1A40     		ands	r2, r3
 476 00cc 3B68     		ldr	r3, [r7]
ARM GAS  C:\Users\salaz\AppData\Local\Temp\ccSSnxm1.s 			page 13


 477 00ce 9A42     		cmp	r2, r3
 478 00d0 01D0     		beq	.L54
 479              		.loc 1 200 0 is_stmt 0 discriminator 1
 480 00d2 084B     		ldr	r3, .L57+16
 481 00d4 00E0     		b	.L55
 482              	.L54:
 483              		.loc 1 200 0 discriminator 2
 484 00d6 0023     		movs	r3, #0
 485              	.L55:
 486              		.loc 1 200 0 discriminator 4
 487 00d8 FB60     		str	r3, [r7, #12]
 488              	.L53:
 201:Generated_Source\PSoC6\pdl\drivers\peripheral\prot/cy_prot.c ****     }
 202:Generated_Source\PSoC6\pdl\drivers\peripheral\prot/cy_prot.c ****     
 203:Generated_Source\PSoC6\pdl\drivers\peripheral\prot/cy_prot.c ****     return status;
 489              		.loc 1 203 0 is_stmt 1
 490 00da FB68     		ldr	r3, [r7, #12]
 204:Generated_Source\PSoC6\pdl\drivers\peripheral\prot/cy_prot.c **** }
 491              		.loc 1 204 0
 492 00dc 1800     		movs	r0, r3
 493 00de BD46     		mov	sp, r7
 494 00e0 04B0     		add	sp, sp, #16
 495              		@ sp needed
 496 00e2 80BD     		pop	{r7, pc}
 497              	.L58:
 498              		.align	2
 499              	.L57:
 500 00e4 00000000 		.word	.LC0
 501 00e8 00402440 		.word	1076117504
 502 00ec 80000000 		.word	.L34
 503 00f0 0100C200 		.word	12713985
 504 00f4 0300C200 		.word	12713987
 505              		.cfi_endproc
 506              	.LFE37:
 507              		.size	Cy_Prot_SetActivePC, .-Cy_Prot_SetActivePC
 508              		.section	.text.Cy_Prot_GetActivePC,"ax",%progbits
 509              		.align	2
 510              		.global	Cy_Prot_GetActivePC
 511              		.code	16
 512              		.thumb_func
 513              		.type	Cy_Prot_GetActivePC, %function
 514              	Cy_Prot_GetActivePC:
 515              	.LFB38:
 205:Generated_Source\PSoC6\pdl\drivers\peripheral\prot/cy_prot.c **** 
 206:Generated_Source\PSoC6\pdl\drivers\peripheral\prot/cy_prot.c **** 
 207:Generated_Source\PSoC6\pdl\drivers\peripheral\prot/cy_prot.c **** /*******************************************************************************
 208:Generated_Source\PSoC6\pdl\drivers\peripheral\prot/cy_prot.c **** * Function Name: Cy_Prot_GetActivePC
 209:Generated_Source\PSoC6\pdl\drivers\peripheral\prot/cy_prot.c **** ****************************************************************************//**
 210:Generated_Source\PSoC6\pdl\drivers\peripheral\prot/cy_prot.c **** *
 211:Generated_Source\PSoC6\pdl\drivers\peripheral\prot/cy_prot.c **** * \brief Returns the active protection context of a master. 
 212:Generated_Source\PSoC6\pdl\drivers\peripheral\prot/cy_prot.c **** *
 213:Generated_Source\PSoC6\pdl\drivers\peripheral\prot/cy_prot.c **** * \param busMaster
 214:Generated_Source\PSoC6\pdl\drivers\peripheral\prot/cy_prot.c **** * The bus master, whose protection context is being read. Refer to the 
 215:Generated_Source\PSoC6\pdl\drivers\peripheral\prot/cy_prot.c **** * CPUSS_MS_ID_X defines.
 216:Generated_Source\PSoC6\pdl\drivers\peripheral\prot/cy_prot.c **** * 
 217:Generated_Source\PSoC6\pdl\drivers\peripheral\prot/cy_prot.c **** * \return
 218:Generated_Source\PSoC6\pdl\drivers\peripheral\prot/cy_prot.c **** * Active protection context of the master
ARM GAS  C:\Users\salaz\AppData\Local\Temp\ccSSnxm1.s 			page 14


 219:Generated_Source\PSoC6\pdl\drivers\peripheral\prot/cy_prot.c **** *
 220:Generated_Source\PSoC6\pdl\drivers\peripheral\prot/cy_prot.c **** * \funcusage
 221:Generated_Source\PSoC6\pdl\drivers\peripheral\prot/cy_prot.c **** * \snippet prot/prot_v1_10_sut_01.cydsn/main_cm4.c snippet_Cy_Prot_SetActivePC
 222:Generated_Source\PSoC6\pdl\drivers\peripheral\prot/cy_prot.c **** *
 223:Generated_Source\PSoC6\pdl\drivers\peripheral\prot/cy_prot.c **** *******************************************************************************/
 224:Generated_Source\PSoC6\pdl\drivers\peripheral\prot/cy_prot.c **** uint32_t Cy_Prot_GetActivePC(en_prot_master_t busMaster)
 225:Generated_Source\PSoC6\pdl\drivers\peripheral\prot/cy_prot.c **** {
 516              		.loc 1 225 0
 517              		.cfi_startproc
 518              		@ args = 0, pretend = 0, frame = 16
 519              		@ frame_needed = 1, uses_anonymous_args = 0
 520 0000 80B5     		push	{r7, lr}
 521              		.cfi_def_cfa_offset 8
 522              		.cfi_offset 7, -8
 523              		.cfi_offset 14, -4
 524 0002 84B0     		sub	sp, sp, #16
 525              		.cfi_def_cfa_offset 24
 526 0004 00AF     		add	r7, sp, #0
 527              		.cfi_def_cfa_register 7
 528 0006 0200     		movs	r2, r0
 529 0008 FB1D     		adds	r3, r7, #7
 530 000a 1A70     		strb	r2, [r3]
 226:Generated_Source\PSoC6\pdl\drivers\peripheral\prot/cy_prot.c ****     PROT_MPU_Type* addrMpu;
 227:Generated_Source\PSoC6\pdl\drivers\peripheral\prot/cy_prot.c ****     
 228:Generated_Source\PSoC6\pdl\drivers\peripheral\prot/cy_prot.c ****     CY_ASSERT_L1(CY_PROT_IS_BUS_MASTER_VALID(busMaster));
 531              		.loc 1 228 0
 532 000c FB1D     		adds	r3, r7, #7
 533 000e 1B78     		ldrb	r3, [r3]
 534 0010 0F2B     		cmp	r3, #15
 535 0012 04D9     		bls	.L60
 536              		.loc 1 228 0 is_stmt 0 discriminator 1
 537 0014 094B     		ldr	r3, .L62
 538 0016 E421     		movs	r1, #228
 539 0018 1800     		movs	r0, r3
 540 001a FFF7FEFF 		bl	Cy_SysLib_AssertFailed
 541              	.L60:
 229:Generated_Source\PSoC6\pdl\drivers\peripheral\prot/cy_prot.c ****     
 230:Generated_Source\PSoC6\pdl\drivers\peripheral\prot/cy_prot.c ****     addrMpu = (PROT_MPU_Type*)(&PROT->CYMPU[busMaster]);
 542              		.loc 1 230 0 is_stmt 1
 543 001e FB1D     		adds	r3, r7, #7
 544 0020 1B78     		ldrb	r3, [r3]
 545 0022 9B02     		lsls	r3, r3, #10
 546 0024 064A     		ldr	r2, .L62+4
 547 0026 9446     		mov	ip, r2
 548 0028 6344     		add	r3, r3, ip
 549 002a FB60     		str	r3, [r7, #12]
 231:Generated_Source\PSoC6\pdl\drivers\peripheral\prot/cy_prot.c ****     
 232:Generated_Source\PSoC6\pdl\drivers\peripheral\prot/cy_prot.c ****     return ((uint32_t)_FLD2VAL(PROT_MPU_MS_CTL_PC, addrMpu->MS_CTL));
 550              		.loc 1 232 0
 551 002c FB68     		ldr	r3, [r7, #12]
 552 002e 1B68     		ldr	r3, [r3]
 553 0030 0F22     		movs	r2, #15
 554 0032 1340     		ands	r3, r2
 233:Generated_Source\PSoC6\pdl\drivers\peripheral\prot/cy_prot.c **** }
 555              		.loc 1 233 0
 556 0034 1800     		movs	r0, r3
 557 0036 BD46     		mov	sp, r7
ARM GAS  C:\Users\salaz\AppData\Local\Temp\ccSSnxm1.s 			page 15


 558 0038 04B0     		add	sp, sp, #16
 559              		@ sp needed
 560 003a 80BD     		pop	{r7, pc}
 561              	.L63:
 562              		.align	2
 563              	.L62:
 564 003c 00000000 		.word	.LC0
 565 0040 00402440 		.word	1076117504
 566              		.cfi_endproc
 567              	.LFE38:
 568              		.size	Cy_Prot_GetActivePC, .-Cy_Prot_GetActivePC
 569              		.section	.text.Cy_Prot_ConfigMpuStruct,"ax",%progbits
 570              		.align	2
 571              		.global	Cy_Prot_ConfigMpuStruct
 572              		.code	16
 573              		.thumb_func
 574              		.type	Cy_Prot_ConfigMpuStruct, %function
 575              	Cy_Prot_ConfigMpuStruct:
 576              	.LFB39:
 234:Generated_Source\PSoC6\pdl\drivers\peripheral\prot/cy_prot.c **** 
 235:Generated_Source\PSoC6\pdl\drivers\peripheral\prot/cy_prot.c **** 
 236:Generated_Source\PSoC6\pdl\drivers\peripheral\prot/cy_prot.c **** /*******************************************************************************
 237:Generated_Source\PSoC6\pdl\drivers\peripheral\prot/cy_prot.c **** * Function Name: Cy_Prot_ConfigMpuStruct
 238:Generated_Source\PSoC6\pdl\drivers\peripheral\prot/cy_prot.c **** ****************************************************************************//**
 239:Generated_Source\PSoC6\pdl\drivers\peripheral\prot/cy_prot.c **** *
 240:Generated_Source\PSoC6\pdl\drivers\peripheral\prot/cy_prot.c **** * \brief This function configures a memory protection unit (MPU) struct with its 
 241:Generated_Source\PSoC6\pdl\drivers\peripheral\prot/cy_prot.c **** * protection attributes. 
 242:Generated_Source\PSoC6\pdl\drivers\peripheral\prot/cy_prot.c **** *
 243:Generated_Source\PSoC6\pdl\drivers\peripheral\prot/cy_prot.c **** * The protection structs act like the gatekeepers for a master's accesses to
 244:Generated_Source\PSoC6\pdl\drivers\peripheral\prot/cy_prot.c **** * memory, allowing only the permitted transactions to go through.
 245:Generated_Source\PSoC6\pdl\drivers\peripheral\prot/cy_prot.c **** *
 246:Generated_Source\PSoC6\pdl\drivers\peripheral\prot/cy_prot.c **** * \param base
 247:Generated_Source\PSoC6\pdl\drivers\peripheral\prot/cy_prot.c **** * The base address for the MPU struct being configured. 
 248:Generated_Source\PSoC6\pdl\drivers\peripheral\prot/cy_prot.c **** * 
 249:Generated_Source\PSoC6\pdl\drivers\peripheral\prot/cy_prot.c **** * \param config
 250:Generated_Source\PSoC6\pdl\drivers\peripheral\prot/cy_prot.c **** * Initialization structure containing all the protection attributes.
 251:Generated_Source\PSoC6\pdl\drivers\peripheral\prot/cy_prot.c **** * 
 252:Generated_Source\PSoC6\pdl\drivers\peripheral\prot/cy_prot.c **** * \return
 253:Generated_Source\PSoC6\pdl\drivers\peripheral\prot/cy_prot.c **** * Status of the function call.
 254:Generated_Source\PSoC6\pdl\drivers\peripheral\prot/cy_prot.c **** *
 255:Generated_Source\PSoC6\pdl\drivers\peripheral\prot/cy_prot.c **** *   Status               | Description
 256:Generated_Source\PSoC6\pdl\drivers\peripheral\prot/cy_prot.c **** *   ------------         | -----------
 257:Generated_Source\PSoC6\pdl\drivers\peripheral\prot/cy_prot.c **** *   CY_PROT_SUCCESS      | The MPU struct was configured
 258:Generated_Source\PSoC6\pdl\drivers\peripheral\prot/cy_prot.c **** *   CY_PROT_FAILURE      | Configuration failed due to a protection violation
 259:Generated_Source\PSoC6\pdl\drivers\peripheral\prot/cy_prot.c **** *
 260:Generated_Source\PSoC6\pdl\drivers\peripheral\prot/cy_prot.c **** * \funcusage
 261:Generated_Source\PSoC6\pdl\drivers\peripheral\prot/cy_prot.c **** * \snippet prot/prot_v1_10_sut_01.cydsn/main_cm4.c snippet_Cy_Prot_ConfigMpuStruct
 262:Generated_Source\PSoC6\pdl\drivers\peripheral\prot/cy_prot.c **** *
 263:Generated_Source\PSoC6\pdl\drivers\peripheral\prot/cy_prot.c **** *******************************************************************************/
 264:Generated_Source\PSoC6\pdl\drivers\peripheral\prot/cy_prot.c **** cy_en_prot_status_t Cy_Prot_ConfigMpuStruct(PROT_MPU_MPU_STRUCT_Type* base, const cy_stc_mpu_cfg_t*
 265:Generated_Source\PSoC6\pdl\drivers\peripheral\prot/cy_prot.c **** {
 577              		.loc 1 265 0
 578              		.cfi_startproc
 579              		@ args = 0, pretend = 0, frame = 24
 580              		@ frame_needed = 1, uses_anonymous_args = 0
 581 0000 80B5     		push	{r7, lr}
 582              		.cfi_def_cfa_offset 8
ARM GAS  C:\Users\salaz\AppData\Local\Temp\ccSSnxm1.s 			page 16


 583              		.cfi_offset 7, -8
 584              		.cfi_offset 14, -4
 585 0002 86B0     		sub	sp, sp, #24
 586              		.cfi_def_cfa_offset 32
 587 0004 00AF     		add	r7, sp, #0
 588              		.cfi_def_cfa_register 7
 589 0006 7860     		str	r0, [r7, #4]
 590 0008 3960     		str	r1, [r7]
 266:Generated_Source\PSoC6\pdl\drivers\peripheral\prot/cy_prot.c ****     cy_en_prot_status_t status;
 267:Generated_Source\PSoC6\pdl\drivers\peripheral\prot/cy_prot.c ****     uint32_t addrReg;
 268:Generated_Source\PSoC6\pdl\drivers\peripheral\prot/cy_prot.c ****     uint32_t attReg;
 269:Generated_Source\PSoC6\pdl\drivers\peripheral\prot/cy_prot.c **** 
 270:Generated_Source\PSoC6\pdl\drivers\peripheral\prot/cy_prot.c ****     CY_ASSERT_L1(NULL != base);
 591              		.loc 1 270 0
 592 000a 7B68     		ldr	r3, [r7, #4]
 593 000c 002B     		cmp	r3, #0
 594 000e 06D1     		bne	.L65
 595              		.loc 1 270 0 is_stmt 0 discriminator 1
 596 0010 8723     		movs	r3, #135
 597 0012 5A00     		lsls	r2, r3, #1
 598 0014 814B     		ldr	r3, .L73
 599 0016 1100     		movs	r1, r2
 600 0018 1800     		movs	r0, r3
 601 001a FFF7FEFF 		bl	Cy_SysLib_AssertFailed
 602              	.L65:
 271:Generated_Source\PSoC6\pdl\drivers\peripheral\prot/cy_prot.c ****     CY_ASSERT_L3(CY_PROT_IS_MPU_PERM_VALID(config->userPermission));
 603              		.loc 1 271 0 is_stmt 1
 604 001e 3B68     		ldr	r3, [r7]
 605 0020 9B79     		ldrb	r3, [r3, #6]
 606 0022 002B     		cmp	r3, #0
 607 0024 23D0     		beq	.L66
 608              		.loc 1 271 0 is_stmt 0 discriminator 1
 609 0026 3B68     		ldr	r3, [r7]
 610 0028 9B79     		ldrb	r3, [r3, #6]
 611 002a 012B     		cmp	r3, #1
 612 002c 1FD0     		beq	.L66
 613              		.loc 1 271 0 discriminator 2
 614 002e 3B68     		ldr	r3, [r7]
 615 0030 9B79     		ldrb	r3, [r3, #6]
 616 0032 022B     		cmp	r3, #2
 617 0034 1BD0     		beq	.L66
 618              		.loc 1 271 0 discriminator 3
 619 0036 3B68     		ldr	r3, [r7]
 620 0038 9B79     		ldrb	r3, [r3, #6]
 621 003a 032B     		cmp	r3, #3
 622 003c 17D0     		beq	.L66
 623              		.loc 1 271 0 discriminator 4
 624 003e 3B68     		ldr	r3, [r7]
 625 0040 9B79     		ldrb	r3, [r3, #6]
 626 0042 042B     		cmp	r3, #4
 627 0044 13D0     		beq	.L66
 628              		.loc 1 271 0 discriminator 5
 629 0046 3B68     		ldr	r3, [r7]
 630 0048 9B79     		ldrb	r3, [r3, #6]
 631 004a 052B     		cmp	r3, #5
 632 004c 0FD0     		beq	.L66
 633              		.loc 1 271 0 discriminator 6
ARM GAS  C:\Users\salaz\AppData\Local\Temp\ccSSnxm1.s 			page 17


 634 004e 3B68     		ldr	r3, [r7]
 635 0050 9B79     		ldrb	r3, [r3, #6]
 636 0052 062B     		cmp	r3, #6
 637 0054 0BD0     		beq	.L66
 638              		.loc 1 271 0 discriminator 7
 639 0056 3B68     		ldr	r3, [r7]
 640 0058 9B79     		ldrb	r3, [r3, #6]
 641 005a 072B     		cmp	r3, #7
 642 005c 07D0     		beq	.L66
 643              		.loc 1 271 0 discriminator 8
 644 005e 1023     		movs	r3, #16
 645 0060 FF33     		adds	r3, r3, #255
 646 0062 1A00     		movs	r2, r3
 647 0064 6D4B     		ldr	r3, .L73
 648 0066 1100     		movs	r1, r2
 649 0068 1800     		movs	r0, r3
 650 006a FFF7FEFF 		bl	Cy_SysLib_AssertFailed
 651              	.L66:
 272:Generated_Source\PSoC6\pdl\drivers\peripheral\prot/cy_prot.c ****     CY_ASSERT_L3(CY_PROT_IS_MPU_PERM_VALID(config->privPermission));
 652              		.loc 1 272 0 is_stmt 1
 653 006e 3B68     		ldr	r3, [r7]
 654 0070 DB79     		ldrb	r3, [r3, #7]
 655 0072 002B     		cmp	r3, #0
 656 0074 22D0     		beq	.L67
 657              		.loc 1 272 0 is_stmt 0 discriminator 1
 658 0076 3B68     		ldr	r3, [r7]
 659 0078 DB79     		ldrb	r3, [r3, #7]
 660 007a 012B     		cmp	r3, #1
 661 007c 1ED0     		beq	.L67
 662              		.loc 1 272 0 discriminator 2
 663 007e 3B68     		ldr	r3, [r7]
 664 0080 DB79     		ldrb	r3, [r3, #7]
 665 0082 022B     		cmp	r3, #2
 666 0084 1AD0     		beq	.L67
 667              		.loc 1 272 0 discriminator 3
 668 0086 3B68     		ldr	r3, [r7]
 669 0088 DB79     		ldrb	r3, [r3, #7]
 670 008a 032B     		cmp	r3, #3
 671 008c 16D0     		beq	.L67
 672              		.loc 1 272 0 discriminator 4
 673 008e 3B68     		ldr	r3, [r7]
 674 0090 DB79     		ldrb	r3, [r3, #7]
 675 0092 042B     		cmp	r3, #4
 676 0094 12D0     		beq	.L67
 677              		.loc 1 272 0 discriminator 5
 678 0096 3B68     		ldr	r3, [r7]
 679 0098 DB79     		ldrb	r3, [r3, #7]
 680 009a 052B     		cmp	r3, #5
 681 009c 0ED0     		beq	.L67
 682              		.loc 1 272 0 discriminator 6
 683 009e 3B68     		ldr	r3, [r7]
 684 00a0 DB79     		ldrb	r3, [r3, #7]
 685 00a2 062B     		cmp	r3, #6
 686 00a4 0AD0     		beq	.L67
 687              		.loc 1 272 0 discriminator 7
 688 00a6 3B68     		ldr	r3, [r7]
 689 00a8 DB79     		ldrb	r3, [r3, #7]
ARM GAS  C:\Users\salaz\AppData\Local\Temp\ccSSnxm1.s 			page 18


 690 00aa 072B     		cmp	r3, #7
 691 00ac 06D0     		beq	.L67
 692              		.loc 1 272 0 discriminator 8
 693 00ae 8823     		movs	r3, #136
 694 00b0 5A00     		lsls	r2, r3, #1
 695 00b2 5A4B     		ldr	r3, .L73
 696 00b4 1100     		movs	r1, r2
 697 00b6 1800     		movs	r0, r3
 698 00b8 FFF7FEFF 		bl	Cy_SysLib_AssertFailed
 699              	.L67:
 273:Generated_Source\PSoC6\pdl\drivers\peripheral\prot/cy_prot.c ****     CY_ASSERT_L3(CY_PROT_IS_REGION_SIZE_VALID(config->regionSize));
 700              		.loc 1 273 0 is_stmt 1
 701 00bc 3B68     		ldr	r3, [r7]
 702 00be 1B79     		ldrb	r3, [r3, #4]
 703 00c0 072B     		cmp	r3, #7
 704 00c2 00D1     		bne	.LCB595
 705 00c4 6AE0     		b	.L68	@long jump
 706              	.LCB595:
 707              		.loc 1 273 0 is_stmt 0 discriminator 1
 708 00c6 3B68     		ldr	r3, [r7]
 709 00c8 1B79     		ldrb	r3, [r3, #4]
 710 00ca 082B     		cmp	r3, #8
 711 00cc 00D1     		bne	.LCB599
 712 00ce 65E0     		b	.L68	@long jump
 713              	.LCB599:
 714              		.loc 1 273 0 discriminator 2
 715 00d0 3B68     		ldr	r3, [r7]
 716 00d2 1B79     		ldrb	r3, [r3, #4]
 717 00d4 092B     		cmp	r3, #9
 718 00d6 00D1     		bne	.LCB603
 719 00d8 60E0     		b	.L68	@long jump
 720              	.LCB603:
 721              		.loc 1 273 0 discriminator 3
 722 00da 3B68     		ldr	r3, [r7]
 723 00dc 1B79     		ldrb	r3, [r3, #4]
 724 00de 0A2B     		cmp	r3, #10
 725 00e0 00D1     		bne	.LCB607
 726 00e2 5BE0     		b	.L68	@long jump
 727              	.LCB607:
 728              		.loc 1 273 0 discriminator 4
 729 00e4 3B68     		ldr	r3, [r7]
 730 00e6 1B79     		ldrb	r3, [r3, #4]
 731 00e8 0B2B     		cmp	r3, #11
 732 00ea 57D0     		beq	.L68
 733              		.loc 1 273 0 discriminator 5
 734 00ec 3B68     		ldr	r3, [r7]
 735 00ee 1B79     		ldrb	r3, [r3, #4]
 736 00f0 0C2B     		cmp	r3, #12
 737 00f2 53D0     		beq	.L68
 738              		.loc 1 273 0 discriminator 6
 739 00f4 3B68     		ldr	r3, [r7]
 740 00f6 1B79     		ldrb	r3, [r3, #4]
 741 00f8 0D2B     		cmp	r3, #13
 742 00fa 4FD0     		beq	.L68
 743              		.loc 1 273 0 discriminator 7
 744 00fc 3B68     		ldr	r3, [r7]
 745 00fe 1B79     		ldrb	r3, [r3, #4]
ARM GAS  C:\Users\salaz\AppData\Local\Temp\ccSSnxm1.s 			page 19


 746 0100 0E2B     		cmp	r3, #14
 747 0102 4BD0     		beq	.L68
 748              		.loc 1 273 0 discriminator 8
 749 0104 3B68     		ldr	r3, [r7]
 750 0106 1B79     		ldrb	r3, [r3, #4]
 751 0108 0F2B     		cmp	r3, #15
 752 010a 47D0     		beq	.L68
 753              		.loc 1 273 0 discriminator 9
 754 010c 3B68     		ldr	r3, [r7]
 755 010e 1B79     		ldrb	r3, [r3, #4]
 756 0110 102B     		cmp	r3, #16
 757 0112 43D0     		beq	.L68
 758              		.loc 1 273 0 discriminator 10
 759 0114 3B68     		ldr	r3, [r7]
 760 0116 1B79     		ldrb	r3, [r3, #4]
 761 0118 112B     		cmp	r3, #17
 762 011a 3FD0     		beq	.L68
 763              		.loc 1 273 0 discriminator 11
 764 011c 3B68     		ldr	r3, [r7]
 765 011e 1B79     		ldrb	r3, [r3, #4]
 766 0120 122B     		cmp	r3, #18
 767 0122 3BD0     		beq	.L68
 768              		.loc 1 273 0 discriminator 12
 769 0124 3B68     		ldr	r3, [r7]
 770 0126 1B79     		ldrb	r3, [r3, #4]
 771 0128 132B     		cmp	r3, #19
 772 012a 37D0     		beq	.L68
 773              		.loc 1 273 0 discriminator 13
 774 012c 3B68     		ldr	r3, [r7]
 775 012e 1B79     		ldrb	r3, [r3, #4]
 776 0130 142B     		cmp	r3, #20
 777 0132 33D0     		beq	.L68
 778              		.loc 1 273 0 discriminator 14
 779 0134 3B68     		ldr	r3, [r7]
 780 0136 1B79     		ldrb	r3, [r3, #4]
 781 0138 152B     		cmp	r3, #21
 782 013a 2FD0     		beq	.L68
 783              		.loc 1 273 0 discriminator 15
 784 013c 3B68     		ldr	r3, [r7]
 785 013e 1B79     		ldrb	r3, [r3, #4]
 786 0140 162B     		cmp	r3, #22
 787 0142 2BD0     		beq	.L68
 788              		.loc 1 273 0 discriminator 16
 789 0144 3B68     		ldr	r3, [r7]
 790 0146 1B79     		ldrb	r3, [r3, #4]
 791 0148 172B     		cmp	r3, #23
 792 014a 27D0     		beq	.L68
 793              		.loc 1 273 0 discriminator 17
 794 014c 3B68     		ldr	r3, [r7]
 795 014e 1B79     		ldrb	r3, [r3, #4]
 796 0150 182B     		cmp	r3, #24
 797 0152 23D0     		beq	.L68
 798              		.loc 1 273 0 discriminator 18
 799 0154 3B68     		ldr	r3, [r7]
 800 0156 1B79     		ldrb	r3, [r3, #4]
 801 0158 192B     		cmp	r3, #25
 802 015a 1FD0     		beq	.L68
ARM GAS  C:\Users\salaz\AppData\Local\Temp\ccSSnxm1.s 			page 20


 803              		.loc 1 273 0 discriminator 19
 804 015c 3B68     		ldr	r3, [r7]
 805 015e 1B79     		ldrb	r3, [r3, #4]
 806 0160 1A2B     		cmp	r3, #26
 807 0162 1BD0     		beq	.L68
 808              		.loc 1 273 0 discriminator 20
 809 0164 3B68     		ldr	r3, [r7]
 810 0166 1B79     		ldrb	r3, [r3, #4]
 811 0168 1B2B     		cmp	r3, #27
 812 016a 17D0     		beq	.L68
 813              		.loc 1 273 0 discriminator 21
 814 016c 3B68     		ldr	r3, [r7]
 815 016e 1B79     		ldrb	r3, [r3, #4]
 816 0170 1C2B     		cmp	r3, #28
 817 0172 13D0     		beq	.L68
 818              		.loc 1 273 0 discriminator 22
 819 0174 3B68     		ldr	r3, [r7]
 820 0176 1B79     		ldrb	r3, [r3, #4]
 821 0178 1D2B     		cmp	r3, #29
 822 017a 0FD0     		beq	.L68
 823              		.loc 1 273 0 discriminator 23
 824 017c 3B68     		ldr	r3, [r7]
 825 017e 1B79     		ldrb	r3, [r3, #4]
 826 0180 1E2B     		cmp	r3, #30
 827 0182 0BD0     		beq	.L68
 828              		.loc 1 273 0 discriminator 24
 829 0184 3B68     		ldr	r3, [r7]
 830 0186 1B79     		ldrb	r3, [r3, #4]
 831 0188 1F2B     		cmp	r3, #31
 832 018a 07D0     		beq	.L68
 833              		.loc 1 273 0 discriminator 25
 834 018c 1223     		movs	r3, #18
 835 018e FF33     		adds	r3, r3, #255
 836 0190 1A00     		movs	r2, r3
 837 0192 224B     		ldr	r3, .L73
 838 0194 1100     		movs	r1, r2
 839 0196 1800     		movs	r0, r3
 840 0198 FFF7FEFF 		bl	Cy_SysLib_AssertFailed
 841              	.L68:
 274:Generated_Source\PSoC6\pdl\drivers\peripheral\prot/cy_prot.c **** 
 275:Generated_Source\PSoC6\pdl\drivers\peripheral\prot/cy_prot.c ****     addrReg = _VAL2FLD(PROT_MPU_MPU_STRUCT_ADDR_SUBREGION_DISABLE, config->subregions)
 842              		.loc 1 275 0 is_stmt 1
 843 019c 3B68     		ldr	r3, [r7]
 844 019e 5B79     		ldrb	r3, [r3, #5]
 845 01a0 1A00     		movs	r2, r3
 276:Generated_Source\PSoC6\pdl\drivers\peripheral\prot/cy_prot.c ****               | _VAL2FLD(PROT_MPU_MPU_STRUCT_ADDR_ADDR24, (uint32_t)((uint32_t)config->address >> C
 846              		.loc 1 276 0
 847 01a2 3B68     		ldr	r3, [r7]
 848 01a4 1B68     		ldr	r3, [r3]
 849 01a6 1900     		movs	r1, r3
 850 01a8 FF23     		movs	r3, #255
 851 01aa 9943     		bics	r1, r3
 852 01ac 0B00     		movs	r3, r1
 275:Generated_Source\PSoC6\pdl\drivers\peripheral\prot/cy_prot.c ****               | _VAL2FLD(PROT_MPU_MPU_STRUCT_ADDR_ADDR24, (uint32_t)((uint32_t)config->address >> C
 853              		.loc 1 275 0
 854 01ae 1343     		orrs	r3, r2
 855 01b0 7B61     		str	r3, [r7, #20]
ARM GAS  C:\Users\salaz\AppData\Local\Temp\ccSSnxm1.s 			page 21


 277:Generated_Source\PSoC6\pdl\drivers\peripheral\prot/cy_prot.c ****     attReg  = ((uint32_t)config->userPermission & CY_PROT_ATT_PERMISSION_MASK)
 856              		.loc 1 277 0
 857 01b2 3B68     		ldr	r3, [r7]
 858 01b4 9B79     		ldrb	r3, [r3, #6]
 859 01b6 1A00     		movs	r2, r3
 860 01b8 0723     		movs	r3, #7
 861 01ba 1A40     		ands	r2, r3
 278:Generated_Source\PSoC6\pdl\drivers\peripheral\prot/cy_prot.c ****               | (((uint32_t)config->privPermission & CY_PROT_ATT_PERMISSION_MASK) << CY_PROT_ATT_PR
 862              		.loc 1 278 0
 863 01bc 3B68     		ldr	r3, [r7]
 864 01be DB79     		ldrb	r3, [r3, #7]
 865 01c0 DB00     		lsls	r3, r3, #3
 866 01c2 3821     		movs	r1, #56
 867 01c4 0B40     		ands	r3, r1
 868 01c6 1A43     		orrs	r2, r3
 279:Generated_Source\PSoC6\pdl\drivers\peripheral\prot/cy_prot.c ****               | _VAL2FLD(PROT_MPU_MPU_STRUCT_ATT_NS, !(config->secure))
 869              		.loc 1 279 0
 870 01c8 3B68     		ldr	r3, [r7]
 871 01ca 1B7A     		ldrb	r3, [r3, #8]
 872 01cc 0121     		movs	r1, #1
 873 01ce 4B40     		eors	r3, r1
 874 01d0 DBB2     		uxtb	r3, r3
 875 01d2 9B01     		lsls	r3, r3, #6
 876 01d4 4021     		movs	r1, #64
 877 01d6 0B40     		ands	r3, r1
 878 01d8 1A43     		orrs	r2, r3
 280:Generated_Source\PSoC6\pdl\drivers\peripheral\prot/cy_prot.c ****               | _VAL2FLD(PROT_MPU_MPU_STRUCT_ATT_REGION_SIZE, config->regionSize);
 879              		.loc 1 280 0
 880 01da 3B68     		ldr	r3, [r7]
 881 01dc 1B79     		ldrb	r3, [r3, #4]
 882 01de 1906     		lsls	r1, r3, #24
 883 01e0 F823     		movs	r3, #248
 884 01e2 5B05     		lsls	r3, r3, #21
 885 01e4 0B40     		ands	r3, r1
 277:Generated_Source\PSoC6\pdl\drivers\peripheral\prot/cy_prot.c ****               | (((uint32_t)config->privPermission & CY_PROT_ATT_PERMISSION_MASK) << CY_PROT_ATT_PR
 886              		.loc 1 277 0
 887 01e6 1343     		orrs	r3, r2
 888 01e8 3B61     		str	r3, [r7, #16]
 281:Generated_Source\PSoC6\pdl\drivers\peripheral\prot/cy_prot.c ****     base->ATT = attReg;
 889              		.loc 1 281 0
 890 01ea 7B68     		ldr	r3, [r7, #4]
 891 01ec 3A69     		ldr	r2, [r7, #16]
 892 01ee 5A60     		str	r2, [r3, #4]
 282:Generated_Source\PSoC6\pdl\drivers\peripheral\prot/cy_prot.c ****     base->ADDR = addrReg;
 893              		.loc 1 282 0
 894 01f0 7B68     		ldr	r3, [r7, #4]
 895 01f2 7A69     		ldr	r2, [r7, #20]
 896 01f4 1A60     		str	r2, [r3]
 283:Generated_Source\PSoC6\pdl\drivers\peripheral\prot/cy_prot.c ****     status = ((base->ADDR != addrReg) || (base->ATT != attReg)) ? CY_PROT_FAILURE : CY_PROT_SUCCESS
 897              		.loc 1 283 0
 898 01f6 7B68     		ldr	r3, [r7, #4]
 899 01f8 1A68     		ldr	r2, [r3]
 900 01fa 7B69     		ldr	r3, [r7, #20]
 901 01fc 9A42     		cmp	r2, r3
 902 01fe 04D1     		bne	.L69
 903              		.loc 1 283 0 is_stmt 0 discriminator 2
 904 0200 7B68     		ldr	r3, [r7, #4]
ARM GAS  C:\Users\salaz\AppData\Local\Temp\ccSSnxm1.s 			page 22


 905 0202 5A68     		ldr	r2, [r3, #4]
 906 0204 3B69     		ldr	r3, [r7, #16]
 907 0206 9A42     		cmp	r2, r3
 908 0208 01D0     		beq	.L70
 909              	.L69:
 910              		.loc 1 283 0 discriminator 3
 911 020a 054B     		ldr	r3, .L73+4
 912 020c 00E0     		b	.L71
 913              	.L70:
 914              		.loc 1 283 0 discriminator 4
 915 020e 0023     		movs	r3, #0
 916              	.L71:
 917              		.loc 1 283 0 discriminator 6
 918 0210 FB60     		str	r3, [r7, #12]
 284:Generated_Source\PSoC6\pdl\drivers\peripheral\prot/cy_prot.c ****     
 285:Generated_Source\PSoC6\pdl\drivers\peripheral\prot/cy_prot.c ****     return status;
 919              		.loc 1 285 0 is_stmt 1 discriminator 6
 920 0212 FB68     		ldr	r3, [r7, #12]
 286:Generated_Source\PSoC6\pdl\drivers\peripheral\prot/cy_prot.c **** }
 921              		.loc 1 286 0 discriminator 6
 922 0214 1800     		movs	r0, r3
 923 0216 BD46     		mov	sp, r7
 924 0218 06B0     		add	sp, sp, #24
 925              		@ sp needed
 926 021a 80BD     		pop	{r7, pc}
 927              	.L74:
 928              		.align	2
 929              	.L73:
 930 021c 00000000 		.word	.LC0
 931 0220 0300C200 		.word	12713987
 932              		.cfi_endproc
 933              	.LFE39:
 934              		.size	Cy_Prot_ConfigMpuStruct, .-Cy_Prot_ConfigMpuStruct
 935              		.section	.text.Cy_Prot_EnableMpuStruct,"ax",%progbits
 936              		.align	2
 937              		.global	Cy_Prot_EnableMpuStruct
 938              		.code	16
 939              		.thumb_func
 940              		.type	Cy_Prot_EnableMpuStruct, %function
 941              	Cy_Prot_EnableMpuStruct:
 942              	.LFB40:
 287:Generated_Source\PSoC6\pdl\drivers\peripheral\prot/cy_prot.c **** 
 288:Generated_Source\PSoC6\pdl\drivers\peripheral\prot/cy_prot.c **** 
 289:Generated_Source\PSoC6\pdl\drivers\peripheral\prot/cy_prot.c **** /*******************************************************************************
 290:Generated_Source\PSoC6\pdl\drivers\peripheral\prot/cy_prot.c **** * Function Name: Cy_Prot_EnableMpuStruct
 291:Generated_Source\PSoC6\pdl\drivers\peripheral\prot/cy_prot.c **** ****************************************************************************//**
 292:Generated_Source\PSoC6\pdl\drivers\peripheral\prot/cy_prot.c **** *
 293:Generated_Source\PSoC6\pdl\drivers\peripheral\prot/cy_prot.c **** * \brief Enables the MPU struct, which allows the MPU protection attributes to 
 294:Generated_Source\PSoC6\pdl\drivers\peripheral\prot/cy_prot.c **** * take effect. 
 295:Generated_Source\PSoC6\pdl\drivers\peripheral\prot/cy_prot.c **** *
 296:Generated_Source\PSoC6\pdl\drivers\peripheral\prot/cy_prot.c **** * \param base
 297:Generated_Source\PSoC6\pdl\drivers\peripheral\prot/cy_prot.c **** * The base address of the MPU struct being configured. 
 298:Generated_Source\PSoC6\pdl\drivers\peripheral\prot/cy_prot.c **** *
 299:Generated_Source\PSoC6\pdl\drivers\peripheral\prot/cy_prot.c **** * \return
 300:Generated_Source\PSoC6\pdl\drivers\peripheral\prot/cy_prot.c **** * Status of the function call.
 301:Generated_Source\PSoC6\pdl\drivers\peripheral\prot/cy_prot.c **** *
 302:Generated_Source\PSoC6\pdl\drivers\peripheral\prot/cy_prot.c **** *   Status               | Description
ARM GAS  C:\Users\salaz\AppData\Local\Temp\ccSSnxm1.s 			page 23


 303:Generated_Source\PSoC6\pdl\drivers\peripheral\prot/cy_prot.c **** *   ------------         | -----------
 304:Generated_Source\PSoC6\pdl\drivers\peripheral\prot/cy_prot.c **** *   CY_PROT_SUCCESS      | The MPU struct was enabled
 305:Generated_Source\PSoC6\pdl\drivers\peripheral\prot/cy_prot.c **** *   CY_PROT_FAILURE      | The MPU struct is disabled and possibly locked
 306:Generated_Source\PSoC6\pdl\drivers\peripheral\prot/cy_prot.c **** *
 307:Generated_Source\PSoC6\pdl\drivers\peripheral\prot/cy_prot.c **** * \funcusage
 308:Generated_Source\PSoC6\pdl\drivers\peripheral\prot/cy_prot.c **** * \snippet prot/prot_v1_10_sut_01.cydsn/main_cm4.c snippet_Cy_Prot_EnableMpuStruct
 309:Generated_Source\PSoC6\pdl\drivers\peripheral\prot/cy_prot.c **** *
 310:Generated_Source\PSoC6\pdl\drivers\peripheral\prot/cy_prot.c **** *******************************************************************************/
 311:Generated_Source\PSoC6\pdl\drivers\peripheral\prot/cy_prot.c **** cy_en_prot_status_t Cy_Prot_EnableMpuStruct(PROT_MPU_MPU_STRUCT_Type* base)
 312:Generated_Source\PSoC6\pdl\drivers\peripheral\prot/cy_prot.c **** {
 943              		.loc 1 312 0
 944              		.cfi_startproc
 945              		@ args = 0, pretend = 0, frame = 16
 946              		@ frame_needed = 1, uses_anonymous_args = 0
 947 0000 80B5     		push	{r7, lr}
 948              		.cfi_def_cfa_offset 8
 949              		.cfi_offset 7, -8
 950              		.cfi_offset 14, -4
 951 0002 84B0     		sub	sp, sp, #16
 952              		.cfi_def_cfa_offset 24
 953 0004 00AF     		add	r7, sp, #0
 954              		.cfi_def_cfa_register 7
 955 0006 7860     		str	r0, [r7, #4]
 313:Generated_Source\PSoC6\pdl\drivers\peripheral\prot/cy_prot.c ****     cy_en_prot_status_t status;
 314:Generated_Source\PSoC6\pdl\drivers\peripheral\prot/cy_prot.c **** 
 315:Generated_Source\PSoC6\pdl\drivers\peripheral\prot/cy_prot.c ****     base->ATT |= _VAL2FLD(PROT_MPU_MPU_STRUCT_ATT_ENABLED, CY_PROT_STRUCT_ENABLE);
 956              		.loc 1 315 0
 957 0008 7B68     		ldr	r3, [r7, #4]
 958 000a 5B68     		ldr	r3, [r3, #4]
 959 000c 8022     		movs	r2, #128
 960 000e 1206     		lsls	r2, r2, #24
 961 0010 1A43     		orrs	r2, r3
 962 0012 7B68     		ldr	r3, [r7, #4]
 963 0014 5A60     		str	r2, [r3, #4]
 316:Generated_Source\PSoC6\pdl\drivers\peripheral\prot/cy_prot.c ****     status = (_FLD2VAL(PROT_MPU_MPU_STRUCT_ATT_ENABLED, base->ATT) != CY_PROT_STRUCT_ENABLE) ?
 964              		.loc 1 316 0
 965 0016 7B68     		ldr	r3, [r7, #4]
 966 0018 5B68     		ldr	r3, [r3, #4]
 967 001a DB0F     		lsrs	r3, r3, #31
 968 001c DB07     		lsls	r3, r3, #31
 969 001e DB0F     		lsrs	r3, r3, #31
 970 0020 012B     		cmp	r3, #1
 971 0022 01D0     		beq	.L76
 972              		.loc 1 316 0 is_stmt 0 discriminator 1
 973 0024 044B     		ldr	r3, .L79
 974 0026 00E0     		b	.L77
 975              	.L76:
 976              		.loc 1 316 0 discriminator 2
 977 0028 0023     		movs	r3, #0
 978              	.L77:
 979              		.loc 1 316 0 discriminator 4
 980 002a FB60     		str	r3, [r7, #12]
 317:Generated_Source\PSoC6\pdl\drivers\peripheral\prot/cy_prot.c ****                 CY_PROT_FAILURE : CY_PROT_SUCCESS;
 318:Generated_Source\PSoC6\pdl\drivers\peripheral\prot/cy_prot.c ****     
 319:Generated_Source\PSoC6\pdl\drivers\peripheral\prot/cy_prot.c ****     return status;
 981              		.loc 1 319 0 is_stmt 1 discriminator 4
 982 002c FB68     		ldr	r3, [r7, #12]
ARM GAS  C:\Users\salaz\AppData\Local\Temp\ccSSnxm1.s 			page 24


 320:Generated_Source\PSoC6\pdl\drivers\peripheral\prot/cy_prot.c **** }
 983              		.loc 1 320 0 discriminator 4
 984 002e 1800     		movs	r0, r3
 985 0030 BD46     		mov	sp, r7
 986 0032 04B0     		add	sp, sp, #16
 987              		@ sp needed
 988 0034 80BD     		pop	{r7, pc}
 989              	.L80:
 990 0036 C046     		.align	2
 991              	.L79:
 992 0038 0300C200 		.word	12713987
 993              		.cfi_endproc
 994              	.LFE40:
 995              		.size	Cy_Prot_EnableMpuStruct, .-Cy_Prot_EnableMpuStruct
 996              		.section	.text.Cy_Prot_DisableMpuStruct,"ax",%progbits
 997              		.align	2
 998              		.global	Cy_Prot_DisableMpuStruct
 999              		.code	16
 1000              		.thumb_func
 1001              		.type	Cy_Prot_DisableMpuStruct, %function
 1002              	Cy_Prot_DisableMpuStruct:
 1003              	.LFB41:
 321:Generated_Source\PSoC6\pdl\drivers\peripheral\prot/cy_prot.c **** 
 322:Generated_Source\PSoC6\pdl\drivers\peripheral\prot/cy_prot.c **** 
 323:Generated_Source\PSoC6\pdl\drivers\peripheral\prot/cy_prot.c **** /*******************************************************************************
 324:Generated_Source\PSoC6\pdl\drivers\peripheral\prot/cy_prot.c **** * Function Name: Cy_Prot_DisableMpuStruct
 325:Generated_Source\PSoC6\pdl\drivers\peripheral\prot/cy_prot.c **** ****************************************************************************//**
 326:Generated_Source\PSoC6\pdl\drivers\peripheral\prot/cy_prot.c **** *
 327:Generated_Source\PSoC6\pdl\drivers\peripheral\prot/cy_prot.c **** * \brief Disbles the MPU struct, which prevents the MPU protection attributes
 328:Generated_Source\PSoC6\pdl\drivers\peripheral\prot/cy_prot.c **** * from taking effect.
 329:Generated_Source\PSoC6\pdl\drivers\peripheral\prot/cy_prot.c **** *
 330:Generated_Source\PSoC6\pdl\drivers\peripheral\prot/cy_prot.c **** * \param base
 331:Generated_Source\PSoC6\pdl\drivers\peripheral\prot/cy_prot.c **** * The base address of the MPU struct being configured. 
 332:Generated_Source\PSoC6\pdl\drivers\peripheral\prot/cy_prot.c **** *
 333:Generated_Source\PSoC6\pdl\drivers\peripheral\prot/cy_prot.c **** * \return
 334:Generated_Source\PSoC6\pdl\drivers\peripheral\prot/cy_prot.c **** * Status of the function call.
 335:Generated_Source\PSoC6\pdl\drivers\peripheral\prot/cy_prot.c **** *
 336:Generated_Source\PSoC6\pdl\drivers\peripheral\prot/cy_prot.c **** *   Status               | Description
 337:Generated_Source\PSoC6\pdl\drivers\peripheral\prot/cy_prot.c **** *   ------------         | -----------
 338:Generated_Source\PSoC6\pdl\drivers\peripheral\prot/cy_prot.c **** *   CY_PROT_SUCCESS      | The MPU struct was disabled
 339:Generated_Source\PSoC6\pdl\drivers\peripheral\prot/cy_prot.c **** *   CY_PROT_FAILURE      | The MPU struct is enabled and possibly locked
 340:Generated_Source\PSoC6\pdl\drivers\peripheral\prot/cy_prot.c **** *
 341:Generated_Source\PSoC6\pdl\drivers\peripheral\prot/cy_prot.c **** * \funcusage
 342:Generated_Source\PSoC6\pdl\drivers\peripheral\prot/cy_prot.c **** * \snippet prot/prot_v1_10_sut_01.cydsn/main_cm4.c snippet_Cy_Prot_DisableMpuStruct
 343:Generated_Source\PSoC6\pdl\drivers\peripheral\prot/cy_prot.c **** *
 344:Generated_Source\PSoC6\pdl\drivers\peripheral\prot/cy_prot.c **** *******************************************************************************/
 345:Generated_Source\PSoC6\pdl\drivers\peripheral\prot/cy_prot.c **** cy_en_prot_status_t Cy_Prot_DisableMpuStruct(PROT_MPU_MPU_STRUCT_Type* base)
 346:Generated_Source\PSoC6\pdl\drivers\peripheral\prot/cy_prot.c **** {
 1004              		.loc 1 346 0
 1005              		.cfi_startproc
 1006              		@ args = 0, pretend = 0, frame = 16
 1007              		@ frame_needed = 1, uses_anonymous_args = 0
 1008 0000 80B5     		push	{r7, lr}
 1009              		.cfi_def_cfa_offset 8
 1010              		.cfi_offset 7, -8
 1011              		.cfi_offset 14, -4
 1012 0002 84B0     		sub	sp, sp, #16
ARM GAS  C:\Users\salaz\AppData\Local\Temp\ccSSnxm1.s 			page 25


 1013              		.cfi_def_cfa_offset 24
 1014 0004 00AF     		add	r7, sp, #0
 1015              		.cfi_def_cfa_register 7
 1016 0006 7860     		str	r0, [r7, #4]
 347:Generated_Source\PSoC6\pdl\drivers\peripheral\prot/cy_prot.c ****     cy_en_prot_status_t status;
 348:Generated_Source\PSoC6\pdl\drivers\peripheral\prot/cy_prot.c ****     
 349:Generated_Source\PSoC6\pdl\drivers\peripheral\prot/cy_prot.c ****     base->ATT &= ~_VAL2FLD(PROT_MPU_MPU_STRUCT_ATT_ENABLED, CY_PROT_STRUCT_ENABLE);
 1017              		.loc 1 349 0
 1018 0008 7B68     		ldr	r3, [r7, #4]
 1019 000a 5B68     		ldr	r3, [r3, #4]
 1020 000c 5B00     		lsls	r3, r3, #1
 1021 000e 5A08     		lsrs	r2, r3, #1
 1022 0010 7B68     		ldr	r3, [r7, #4]
 1023 0012 5A60     		str	r2, [r3, #4]
 350:Generated_Source\PSoC6\pdl\drivers\peripheral\prot/cy_prot.c ****     status = (_FLD2VAL(PROT_MPU_MPU_STRUCT_ATT_ENABLED, base->ATT) == CY_PROT_STRUCT_ENABLE) ?
 1024              		.loc 1 350 0
 1025 0014 7B68     		ldr	r3, [r7, #4]
 1026 0016 5B68     		ldr	r3, [r3, #4]
 1027 0018 DB0F     		lsrs	r3, r3, #31
 1028 001a DB07     		lsls	r3, r3, #31
 1029 001c DB0F     		lsrs	r3, r3, #31
 1030 001e 012B     		cmp	r3, #1
 1031 0020 01D1     		bne	.L82
 1032              		.loc 1 350 0 is_stmt 0 discriminator 1
 1033 0022 044B     		ldr	r3, .L85
 1034 0024 00E0     		b	.L83
 1035              	.L82:
 1036              		.loc 1 350 0 discriminator 2
 1037 0026 0023     		movs	r3, #0
 1038              	.L83:
 1039              		.loc 1 350 0 discriminator 4
 1040 0028 FB60     		str	r3, [r7, #12]
 351:Generated_Source\PSoC6\pdl\drivers\peripheral\prot/cy_prot.c ****             CY_PROT_FAILURE : CY_PROT_SUCCESS;
 352:Generated_Source\PSoC6\pdl\drivers\peripheral\prot/cy_prot.c ****     
 353:Generated_Source\PSoC6\pdl\drivers\peripheral\prot/cy_prot.c ****     return status;
 1041              		.loc 1 353 0 is_stmt 1 discriminator 4
 1042 002a FB68     		ldr	r3, [r7, #12]
 354:Generated_Source\PSoC6\pdl\drivers\peripheral\prot/cy_prot.c **** }
 1043              		.loc 1 354 0 discriminator 4
 1044 002c 1800     		movs	r0, r3
 1045 002e BD46     		mov	sp, r7
 1046 0030 04B0     		add	sp, sp, #16
 1047              		@ sp needed
 1048 0032 80BD     		pop	{r7, pc}
 1049              	.L86:
 1050              		.align	2
 1051              	.L85:
 1052 0034 0300C200 		.word	12713987
 1053              		.cfi_endproc
 1054              	.LFE41:
 1055              		.size	Cy_Prot_DisableMpuStruct, .-Cy_Prot_DisableMpuStruct
 1056              		.section	.text.Cy_Prot_ConfigSmpuMasterStruct,"ax",%progbits
 1057              		.align	2
 1058              		.global	Cy_Prot_ConfigSmpuMasterStruct
 1059              		.code	16
 1060              		.thumb_func
 1061              		.type	Cy_Prot_ConfigSmpuMasterStruct, %function
ARM GAS  C:\Users\salaz\AppData\Local\Temp\ccSSnxm1.s 			page 26


 1062              	Cy_Prot_ConfigSmpuMasterStruct:
 1063              	.LFB42:
 355:Generated_Source\PSoC6\pdl\drivers\peripheral\prot/cy_prot.c **** 
 356:Generated_Source\PSoC6\pdl\drivers\peripheral\prot/cy_prot.c **** 
 357:Generated_Source\PSoC6\pdl\drivers\peripheral\prot/cy_prot.c **** /*******************************************************************************
 358:Generated_Source\PSoC6\pdl\drivers\peripheral\prot/cy_prot.c **** * Function Name: Cy_Prot_ConfigSmpuMasterStruct
 359:Generated_Source\PSoC6\pdl\drivers\peripheral\prot/cy_prot.c **** ****************************************************************************//**
 360:Generated_Source\PSoC6\pdl\drivers\peripheral\prot/cy_prot.c **** *
 361:Generated_Source\PSoC6\pdl\drivers\peripheral\prot/cy_prot.c **** * \brief Configures a Shared Memory Protection Unit (SMPU) master protection 
 362:Generated_Source\PSoC6\pdl\drivers\peripheral\prot/cy_prot.c **** * struct with its protection attributes. 
 363:Generated_Source\PSoC6\pdl\drivers\peripheral\prot/cy_prot.c **** *
 364:Generated_Source\PSoC6\pdl\drivers\peripheral\prot/cy_prot.c **** * This function configures the master struct governing the corresponding slave
 365:Generated_Source\PSoC6\pdl\drivers\peripheral\prot/cy_prot.c **** * struct pair. It is a mechanism to protect the slave SMPU struct. Since the
 366:Generated_Source\PSoC6\pdl\drivers\peripheral\prot/cy_prot.c **** * memory location of the slave struct is known, the address, regionSize and
 367:Generated_Source\PSoC6\pdl\drivers\peripheral\prot/cy_prot.c **** * subregions of the configuration struct are not applicable.
 368:Generated_Source\PSoC6\pdl\drivers\peripheral\prot/cy_prot.c **** *
 369:Generated_Source\PSoC6\pdl\drivers\peripheral\prot/cy_prot.c **** * Note that only the user/privileged write permissions are configurable. The 
 370:Generated_Source\PSoC6\pdl\drivers\peripheral\prot/cy_prot.c **** * read and execute permissions are read-only and cannot be configured.
 371:Generated_Source\PSoC6\pdl\drivers\peripheral\prot/cy_prot.c **** *
 372:Generated_Source\PSoC6\pdl\drivers\peripheral\prot/cy_prot.c **** * \param base
 373:Generated_Source\PSoC6\pdl\drivers\peripheral\prot/cy_prot.c **** * The register base address of the protection struct being configured.
 374:Generated_Source\PSoC6\pdl\drivers\peripheral\prot/cy_prot.c **** * 
 375:Generated_Source\PSoC6\pdl\drivers\peripheral\prot/cy_prot.c **** * \param config
 376:Generated_Source\PSoC6\pdl\drivers\peripheral\prot/cy_prot.c **** * Initialization structure with all the protection attributes.
 377:Generated_Source\PSoC6\pdl\drivers\peripheral\prot/cy_prot.c **** * 
 378:Generated_Source\PSoC6\pdl\drivers\peripheral\prot/cy_prot.c **** * \return
 379:Generated_Source\PSoC6\pdl\drivers\peripheral\prot/cy_prot.c **** * Status of the function call.
 380:Generated_Source\PSoC6\pdl\drivers\peripheral\prot/cy_prot.c **** *
 381:Generated_Source\PSoC6\pdl\drivers\peripheral\prot/cy_prot.c **** *   Status               | Description
 382:Generated_Source\PSoC6\pdl\drivers\peripheral\prot/cy_prot.c **** *   ------------         | -----------
 383:Generated_Source\PSoC6\pdl\drivers\peripheral\prot/cy_prot.c **** *   CY_PROT_SUCCESS      | SMPU master struct was successfully configured
 384:Generated_Source\PSoC6\pdl\drivers\peripheral\prot/cy_prot.c **** *   CY_PROT_FAILURE      | The resource is locked
 385:Generated_Source\PSoC6\pdl\drivers\peripheral\prot/cy_prot.c **** *   CY_PROT_BAD_PARAM    | An incorrect/invalid parameter was passed
 386:Generated_Source\PSoC6\pdl\drivers\peripheral\prot/cy_prot.c **** *
 387:Generated_Source\PSoC6\pdl\drivers\peripheral\prot/cy_prot.c **** * \funcusage
 388:Generated_Source\PSoC6\pdl\drivers\peripheral\prot/cy_prot.c **** * \snippet prot/prot_v1_10_sut_01.cydsn/main_cm4.c snippet_Cy_Prot_ConfigSmpuMasterStruct
 389:Generated_Source\PSoC6\pdl\drivers\peripheral\prot/cy_prot.c **** *
 390:Generated_Source\PSoC6\pdl\drivers\peripheral\prot/cy_prot.c **** *******************************************************************************/
 391:Generated_Source\PSoC6\pdl\drivers\peripheral\prot/cy_prot.c **** cy_en_prot_status_t Cy_Prot_ConfigSmpuMasterStruct(PROT_SMPU_SMPU_STRUCT_Type* base, const cy_stc_s
 392:Generated_Source\PSoC6\pdl\drivers\peripheral\prot/cy_prot.c **** {
 1064              		.loc 1 392 0
 1065              		.cfi_startproc
 1066              		@ args = 0, pretend = 0, frame = 16
 1067              		@ frame_needed = 1, uses_anonymous_args = 0
 1068 0000 80B5     		push	{r7, lr}
 1069              		.cfi_def_cfa_offset 8
 1070              		.cfi_offset 7, -8
 1071              		.cfi_offset 14, -4
 1072 0002 84B0     		sub	sp, sp, #16
 1073              		.cfi_def_cfa_offset 24
 1074 0004 00AF     		add	r7, sp, #0
 1075              		.cfi_def_cfa_register 7
 1076 0006 7860     		str	r0, [r7, #4]
 1077 0008 3960     		str	r1, [r7]
 393:Generated_Source\PSoC6\pdl\drivers\peripheral\prot/cy_prot.c ****     cy_en_prot_status_t status;
 394:Generated_Source\PSoC6\pdl\drivers\peripheral\prot/cy_prot.c ****     uint32_t attReg;
 395:Generated_Source\PSoC6\pdl\drivers\peripheral\prot/cy_prot.c ****     
ARM GAS  C:\Users\salaz\AppData\Local\Temp\ccSSnxm1.s 			page 27


 396:Generated_Source\PSoC6\pdl\drivers\peripheral\prot/cy_prot.c ****     CY_ASSERT_L1(NULL != base);
 1078              		.loc 1 396 0
 1079 000a 7B68     		ldr	r3, [r7, #4]
 1080 000c 002B     		cmp	r3, #0
 1081 000e 06D1     		bne	.L88
 1082              		.loc 1 396 0 is_stmt 0 discriminator 1
 1083 0010 C623     		movs	r3, #198
 1084 0012 5A00     		lsls	r2, r3, #1
 1085 0014 354B     		ldr	r3, .L97
 1086 0016 1100     		movs	r1, r2
 1087 0018 1800     		movs	r0, r3
 1088 001a FFF7FEFF 		bl	Cy_SysLib_AssertFailed
 1089              	.L88:
 397:Generated_Source\PSoC6\pdl\drivers\peripheral\prot/cy_prot.c ****     CY_ASSERT_L3(CY_PROT_IS_SMPU_MS_PERM_VALID(config->userPermission));
 1090              		.loc 1 397 0 is_stmt 1
 1091 001e 3B68     		ldr	r3, [r7]
 1092 0020 9B79     		ldrb	r3, [r3, #6]
 1093 0022 012B     		cmp	r3, #1
 1094 0024 0BD0     		beq	.L89
 1095              		.loc 1 397 0 is_stmt 0 discriminator 1
 1096 0026 3B68     		ldr	r3, [r7]
 1097 0028 9B79     		ldrb	r3, [r3, #6]
 1098 002a 032B     		cmp	r3, #3
 1099 002c 07D0     		beq	.L89
 1100              		.loc 1 397 0 discriminator 2
 1101 002e 8E23     		movs	r3, #142
 1102 0030 FF33     		adds	r3, r3, #255
 1103 0032 1A00     		movs	r2, r3
 1104 0034 2D4B     		ldr	r3, .L97
 1105 0036 1100     		movs	r1, r2
 1106 0038 1800     		movs	r0, r3
 1107 003a FFF7FEFF 		bl	Cy_SysLib_AssertFailed
 1108              	.L89:
 398:Generated_Source\PSoC6\pdl\drivers\peripheral\prot/cy_prot.c ****     CY_ASSERT_L3(CY_PROT_IS_SMPU_MS_PERM_VALID(config->privPermission));
 1109              		.loc 1 398 0 is_stmt 1
 1110 003e 3B68     		ldr	r3, [r7]
 1111 0040 DB79     		ldrb	r3, [r3, #7]
 1112 0042 012B     		cmp	r3, #1
 1113 0044 0AD0     		beq	.L90
 1114              		.loc 1 398 0 is_stmt 0 discriminator 1
 1115 0046 3B68     		ldr	r3, [r7]
 1116 0048 DB79     		ldrb	r3, [r3, #7]
 1117 004a 032B     		cmp	r3, #3
 1118 004c 06D0     		beq	.L90
 1119              		.loc 1 398 0 discriminator 2
 1120 004e C723     		movs	r3, #199
 1121 0050 5A00     		lsls	r2, r3, #1
 1122 0052 264B     		ldr	r3, .L97
 1123 0054 1100     		movs	r1, r2
 1124 0056 1800     		movs	r0, r3
 1125 0058 FFF7FEFF 		bl	Cy_SysLib_AssertFailed
 1126              	.L90:
 399:Generated_Source\PSoC6\pdl\drivers\peripheral\prot/cy_prot.c ****     
 400:Generated_Source\PSoC6\pdl\drivers\peripheral\prot/cy_prot.c ****     if(((uint32_t)config->pcMask & CY_PROT_SMPU_PC_LIMIT_MASK) != 0UL) 
 1127              		.loc 1 400 0 is_stmt 1
 1128 005c 3B68     		ldr	r3, [r7]
 1129 005e 5B89     		ldrh	r3, [r3, #10]
ARM GAS  C:\Users\salaz\AppData\Local\Temp\ccSSnxm1.s 			page 28


 1130 0060 1A00     		movs	r2, r3
 1131 0062 7F23     		movs	r3, #127
 1132 0064 9A43     		bics	r2, r3
 1133 0066 131E     		subs	r3, r2, #0
 1134 0068 02D0     		beq	.L91
 401:Generated_Source\PSoC6\pdl\drivers\peripheral\prot/cy_prot.c ****     {
 402:Generated_Source\PSoC6\pdl\drivers\peripheral\prot/cy_prot.c ****         /* PC mask out of range - not supported in device */
 403:Generated_Source\PSoC6\pdl\drivers\peripheral\prot/cy_prot.c ****         status = CY_PROT_BAD_PARAM;
 1135              		.loc 1 403 0
 1136 006a 214B     		ldr	r3, .L97+4
 1137 006c FB60     		str	r3, [r7, #12]
 1138 006e 38E0     		b	.L92
 1139              	.L91:
 404:Generated_Source\PSoC6\pdl\drivers\peripheral\prot/cy_prot.c ****     }
 405:Generated_Source\PSoC6\pdl\drivers\peripheral\prot/cy_prot.c ****     else
 406:Generated_Source\PSoC6\pdl\drivers\peripheral\prot/cy_prot.c ****     {
 407:Generated_Source\PSoC6\pdl\drivers\peripheral\prot/cy_prot.c ****         /* ADDR1 is read only. Only configure ATT1 */
 408:Generated_Source\PSoC6\pdl\drivers\peripheral\prot/cy_prot.c ****         attReg = ((uint32_t)config->userPermission & CY_PROT_ATT_PERMISSION_MASK)
 1140              		.loc 1 408 0
 1141 0070 3B68     		ldr	r3, [r7]
 1142 0072 9B79     		ldrb	r3, [r3, #6]
 1143 0074 1A00     		movs	r2, r3
 1144 0076 0723     		movs	r3, #7
 1145 0078 1A40     		ands	r2, r3
 409:Generated_Source\PSoC6\pdl\drivers\peripheral\prot/cy_prot.c ****                     | (uint32_t)(((uint32_t)config->privPermission & CY_PROT_ATT_PERMISSION_MASK) <
 1146              		.loc 1 409 0
 1147 007a 3B68     		ldr	r3, [r7]
 1148 007c DB79     		ldrb	r3, [r3, #7]
 1149 007e DB00     		lsls	r3, r3, #3
 1150 0080 3821     		movs	r1, #56
 1151 0082 0B40     		ands	r3, r1
 1152 0084 1A43     		orrs	r2, r3
 410:Generated_Source\PSoC6\pdl\drivers\peripheral\prot/cy_prot.c ****                     | _VAL2FLD(PROT_SMPU_SMPU_STRUCT_ATT1_NS, !(config->secure))
 1153              		.loc 1 410 0
 1154 0086 3B68     		ldr	r3, [r7]
 1155 0088 1B7A     		ldrb	r3, [r3, #8]
 1156 008a 0121     		movs	r1, #1
 1157 008c 4B40     		eors	r3, r1
 1158 008e DBB2     		uxtb	r3, r3
 1159 0090 9B01     		lsls	r3, r3, #6
 1160 0092 4021     		movs	r1, #64
 1161 0094 0B40     		ands	r3, r1
 1162 0096 1A43     		orrs	r2, r3
 411:Generated_Source\PSoC6\pdl\drivers\peripheral\prot/cy_prot.c ****                     | _VAL2FLD(PROT_SMPU_SMPU_STRUCT_ATT1_PC_MASK_15_TO_1, config->pcMask)
 1163              		.loc 1 411 0
 1164 0098 3B68     		ldr	r3, [r7]
 1165 009a 5B89     		ldrh	r3, [r3, #10]
 1166 009c 5B02     		lsls	r3, r3, #9
 1167 009e 1549     		ldr	r1, .L97+8
 1168 00a0 0B40     		ands	r3, r1
 1169 00a2 1A43     		orrs	r2, r3
 412:Generated_Source\PSoC6\pdl\drivers\peripheral\prot/cy_prot.c ****                     /* No region size - read only for master structs */
 413:Generated_Source\PSoC6\pdl\drivers\peripheral\prot/cy_prot.c ****                     | _VAL2FLD(PROT_SMPU_SMPU_STRUCT_ATT1_PC_MATCH, config->pcMatch);
 1170              		.loc 1 413 0
 1171 00a4 3B68     		ldr	r3, [r7]
 1172 00a6 5B7A     		ldrb	r3, [r3, #9]
 1173 00a8 9907     		lsls	r1, r3, #30
ARM GAS  C:\Users\salaz\AppData\Local\Temp\ccSSnxm1.s 			page 29


 1174 00aa 8023     		movs	r3, #128
 1175 00ac DB05     		lsls	r3, r3, #23
 1176 00ae 0B40     		ands	r3, r1
 408:Generated_Source\PSoC6\pdl\drivers\peripheral\prot/cy_prot.c ****                     | (uint32_t)(((uint32_t)config->privPermission & CY_PROT_ATT_PERMISSION_MASK) <
 1177              		.loc 1 408 0
 1178 00b0 1343     		orrs	r3, r2
 1179 00b2 BB60     		str	r3, [r7, #8]
 414:Generated_Source\PSoC6\pdl\drivers\peripheral\prot/cy_prot.c ****         if ((attReg & CY_PROT_SMPU_ATT1_MASK) != attReg)
 1180              		.loc 1 414 0
 1181 00b4 BB68     		ldr	r3, [r7, #8]
 1182 00b6 104A     		ldr	r2, .L97+12
 1183 00b8 1A40     		ands	r2, r3
 1184 00ba BB68     		ldr	r3, [r7, #8]
 1185 00bc 9A42     		cmp	r2, r3
 1186 00be 02D0     		beq	.L93
 415:Generated_Source\PSoC6\pdl\drivers\peripheral\prot/cy_prot.c ****         {
 416:Generated_Source\PSoC6\pdl\drivers\peripheral\prot/cy_prot.c ****             /* Invalid parameter was passed */
 417:Generated_Source\PSoC6\pdl\drivers\peripheral\prot/cy_prot.c ****             status = CY_PROT_BAD_PARAM;
 1187              		.loc 1 417 0
 1188 00c0 0B4B     		ldr	r3, .L97+4
 1189 00c2 FB60     		str	r3, [r7, #12]
 1190 00c4 0DE0     		b	.L92
 1191              	.L93:
 418:Generated_Source\PSoC6\pdl\drivers\peripheral\prot/cy_prot.c ****         }
 419:Generated_Source\PSoC6\pdl\drivers\peripheral\prot/cy_prot.c ****         else
 420:Generated_Source\PSoC6\pdl\drivers\peripheral\prot/cy_prot.c ****         {
 421:Generated_Source\PSoC6\pdl\drivers\peripheral\prot/cy_prot.c ****             base->ATT1 = attReg;
 1192              		.loc 1 421 0
 1193 00c6 7B68     		ldr	r3, [r7, #4]
 1194 00c8 BA68     		ldr	r2, [r7, #8]
 1195 00ca 5A62     		str	r2, [r3, #36]
 422:Generated_Source\PSoC6\pdl\drivers\peripheral\prot/cy_prot.c ****             status = ((base->ATT1 & CY_PROT_SMPU_ATT1_MASK) != attReg) ? CY_PROT_FAILURE : CY_PROT_
 1196              		.loc 1 422 0
 1197 00cc 7B68     		ldr	r3, [r7, #4]
 1198 00ce 5B6A     		ldr	r3, [r3, #36]
 1199 00d0 094A     		ldr	r2, .L97+12
 1200 00d2 1A40     		ands	r2, r3
 1201 00d4 BB68     		ldr	r3, [r7, #8]
 1202 00d6 9A42     		cmp	r2, r3
 1203 00d8 01D0     		beq	.L94
 1204              		.loc 1 422 0 is_stmt 0 discriminator 1
 1205 00da 084B     		ldr	r3, .L97+16
 1206 00dc 00E0     		b	.L95
 1207              	.L94:
 1208              		.loc 1 422 0 discriminator 2
 1209 00de 0023     		movs	r3, #0
 1210              	.L95:
 1211              		.loc 1 422 0 discriminator 4
 1212 00e0 FB60     		str	r3, [r7, #12]
 1213              	.L92:
 423:Generated_Source\PSoC6\pdl\drivers\peripheral\prot/cy_prot.c ****         }
 424:Generated_Source\PSoC6\pdl\drivers\peripheral\prot/cy_prot.c ****     }
 425:Generated_Source\PSoC6\pdl\drivers\peripheral\prot/cy_prot.c ****     
 426:Generated_Source\PSoC6\pdl\drivers\peripheral\prot/cy_prot.c ****     return status;
 1214              		.loc 1 426 0 is_stmt 1
 1215 00e2 FB68     		ldr	r3, [r7, #12]
 427:Generated_Source\PSoC6\pdl\drivers\peripheral\prot/cy_prot.c **** }
ARM GAS  C:\Users\salaz\AppData\Local\Temp\ccSSnxm1.s 			page 30


 1216              		.loc 1 427 0
 1217 00e4 1800     		movs	r0, r3
 1218 00e6 BD46     		mov	sp, r7
 1219 00e8 04B0     		add	sp, sp, #16
 1220              		@ sp needed
 1221 00ea 80BD     		pop	{r7, pc}
 1222              	.L98:
 1223              		.align	2
 1224              	.L97:
 1225 00ec 00000000 		.word	.LC0
 1226 00f0 0100C200 		.word	12713985
 1227 00f4 00FEFF00 		.word	16776704
 1228 00f8 DBFEFFE0 		.word	-520093989
 1229 00fc 0300C200 		.word	12713987
 1230              		.cfi_endproc
 1231              	.LFE42:
 1232              		.size	Cy_Prot_ConfigSmpuMasterStruct, .-Cy_Prot_ConfigSmpuMasterStruct
 1233              		.section	.text.Cy_Prot_ConfigSmpuSlaveStruct,"ax",%progbits
 1234              		.align	2
 1235              		.global	Cy_Prot_ConfigSmpuSlaveStruct
 1236              		.code	16
 1237              		.thumb_func
 1238              		.type	Cy_Prot_ConfigSmpuSlaveStruct, %function
 1239              	Cy_Prot_ConfigSmpuSlaveStruct:
 1240              	.LFB43:
 428:Generated_Source\PSoC6\pdl\drivers\peripheral\prot/cy_prot.c **** 
 429:Generated_Source\PSoC6\pdl\drivers\peripheral\prot/cy_prot.c **** /*******************************************************************************
 430:Generated_Source\PSoC6\pdl\drivers\peripheral\prot/cy_prot.c **** * Function Name: Cy_Prot_ConfigSmpuSlaveStruct
 431:Generated_Source\PSoC6\pdl\drivers\peripheral\prot/cy_prot.c **** ****************************************************************************//**
 432:Generated_Source\PSoC6\pdl\drivers\peripheral\prot/cy_prot.c **** *
 433:Generated_Source\PSoC6\pdl\drivers\peripheral\prot/cy_prot.c **** * \brief Configures a Shared Memory Protection Unit (SMPU) slave protection 
 434:Generated_Source\PSoC6\pdl\drivers\peripheral\prot/cy_prot.c **** * struct with its protection attributes. 
 435:Generated_Source\PSoC6\pdl\drivers\peripheral\prot/cy_prot.c **** * 
 436:Generated_Source\PSoC6\pdl\drivers\peripheral\prot/cy_prot.c **** * This function configures the slave struct of an SMPU pair, which can protect
 437:Generated_Source\PSoC6\pdl\drivers\peripheral\prot/cy_prot.c **** * any memory region in a device from invalid bus master accesses.
 438:Generated_Source\PSoC6\pdl\drivers\peripheral\prot/cy_prot.c **** *
 439:Generated_Source\PSoC6\pdl\drivers\peripheral\prot/cy_prot.c **** * \param base
 440:Generated_Source\PSoC6\pdl\drivers\peripheral\prot/cy_prot.c **** * The register base address of the protection structure being configured.
 441:Generated_Source\PSoC6\pdl\drivers\peripheral\prot/cy_prot.c **** * 
 442:Generated_Source\PSoC6\pdl\drivers\peripheral\prot/cy_prot.c **** * \param config
 443:Generated_Source\PSoC6\pdl\drivers\peripheral\prot/cy_prot.c **** * Initialization structure with all the protection attributes.
 444:Generated_Source\PSoC6\pdl\drivers\peripheral\prot/cy_prot.c **** * 
 445:Generated_Source\PSoC6\pdl\drivers\peripheral\prot/cy_prot.c **** * \return
 446:Generated_Source\PSoC6\pdl\drivers\peripheral\prot/cy_prot.c **** * Status of the function call.
 447:Generated_Source\PSoC6\pdl\drivers\peripheral\prot/cy_prot.c **** *
 448:Generated_Source\PSoC6\pdl\drivers\peripheral\prot/cy_prot.c **** *   Status               | Description
 449:Generated_Source\PSoC6\pdl\drivers\peripheral\prot/cy_prot.c **** *   ------------         | -----------
 450:Generated_Source\PSoC6\pdl\drivers\peripheral\prot/cy_prot.c **** *   CY_PROT_SUCCESS      | SMPU slave struct was successfully configured
 451:Generated_Source\PSoC6\pdl\drivers\peripheral\prot/cy_prot.c **** *   CY_PROT_FAILURE      | The resource is locked
 452:Generated_Source\PSoC6\pdl\drivers\peripheral\prot/cy_prot.c **** *   CY_PROT_BAD_PARAM    | An incorrect/invalid parameter was passed
 453:Generated_Source\PSoC6\pdl\drivers\peripheral\prot/cy_prot.c **** *
 454:Generated_Source\PSoC6\pdl\drivers\peripheral\prot/cy_prot.c **** * \funcusage
 455:Generated_Source\PSoC6\pdl\drivers\peripheral\prot/cy_prot.c **** * \snippet prot/prot_v1_10_sut_01.cydsn/main_cm4.c snippet_Cy_Prot_ConfigSmpuSlaveStruct
 456:Generated_Source\PSoC6\pdl\drivers\peripheral\prot/cy_prot.c **** *
 457:Generated_Source\PSoC6\pdl\drivers\peripheral\prot/cy_prot.c **** *******************************************************************************/
 458:Generated_Source\PSoC6\pdl\drivers\peripheral\prot/cy_prot.c **** cy_en_prot_status_t Cy_Prot_ConfigSmpuSlaveStruct(PROT_SMPU_SMPU_STRUCT_Type* base, const cy_stc_sm
 459:Generated_Source\PSoC6\pdl\drivers\peripheral\prot/cy_prot.c **** {
ARM GAS  C:\Users\salaz\AppData\Local\Temp\ccSSnxm1.s 			page 31


 1241              		.loc 1 459 0
 1242              		.cfi_startproc
 1243              		@ args = 0, pretend = 0, frame = 24
 1244              		@ frame_needed = 1, uses_anonymous_args = 0
 1245 0000 80B5     		push	{r7, lr}
 1246              		.cfi_def_cfa_offset 8
 1247              		.cfi_offset 7, -8
 1248              		.cfi_offset 14, -4
 1249 0002 86B0     		sub	sp, sp, #24
 1250              		.cfi_def_cfa_offset 32
 1251 0004 00AF     		add	r7, sp, #0
 1252              		.cfi_def_cfa_register 7
 1253 0006 7860     		str	r0, [r7, #4]
 1254 0008 3960     		str	r1, [r7]
 460:Generated_Source\PSoC6\pdl\drivers\peripheral\prot/cy_prot.c ****     cy_en_prot_status_t status;
 461:Generated_Source\PSoC6\pdl\drivers\peripheral\prot/cy_prot.c ****     uint32_t addrReg;
 462:Generated_Source\PSoC6\pdl\drivers\peripheral\prot/cy_prot.c ****     uint32_t attReg;
 463:Generated_Source\PSoC6\pdl\drivers\peripheral\prot/cy_prot.c ****     
 464:Generated_Source\PSoC6\pdl\drivers\peripheral\prot/cy_prot.c ****     CY_ASSERT_L1(NULL != base);
 1255              		.loc 1 464 0
 1256 000a 7B68     		ldr	r3, [r7, #4]
 1257 000c 002B     		cmp	r3, #0
 1258 000e 06D1     		bne	.L100
 1259              		.loc 1 464 0 is_stmt 0 discriminator 1
 1260 0010 E823     		movs	r3, #232
 1261 0012 5A00     		lsls	r2, r3, #1
 1262 0014 8E4B     		ldr	r3, .L110
 1263 0016 1100     		movs	r1, r2
 1264 0018 1800     		movs	r0, r3
 1265 001a FFF7FEFF 		bl	Cy_SysLib_AssertFailed
 1266              	.L100:
 465:Generated_Source\PSoC6\pdl\drivers\peripheral\prot/cy_prot.c ****     CY_ASSERT_L3(CY_PROT_IS_SMPU_SL_PERM_VALID(config->userPermission));
 1267              		.loc 1 465 0 is_stmt 1
 1268 001e 3B68     		ldr	r3, [r7]
 1269 0020 9B79     		ldrb	r3, [r3, #6]
 1270 0022 002B     		cmp	r3, #0
 1271 0024 23D0     		beq	.L101
 1272              		.loc 1 465 0 is_stmt 0 discriminator 1
 1273 0026 3B68     		ldr	r3, [r7]
 1274 0028 9B79     		ldrb	r3, [r3, #6]
 1275 002a 012B     		cmp	r3, #1
 1276 002c 1FD0     		beq	.L101
 1277              		.loc 1 465 0 discriminator 2
 1278 002e 3B68     		ldr	r3, [r7]
 1279 0030 9B79     		ldrb	r3, [r3, #6]
 1280 0032 022B     		cmp	r3, #2
 1281 0034 1BD0     		beq	.L101
 1282              		.loc 1 465 0 discriminator 3
 1283 0036 3B68     		ldr	r3, [r7]
 1284 0038 9B79     		ldrb	r3, [r3, #6]
 1285 003a 032B     		cmp	r3, #3
 1286 003c 17D0     		beq	.L101
 1287              		.loc 1 465 0 discriminator 4
 1288 003e 3B68     		ldr	r3, [r7]
 1289 0040 9B79     		ldrb	r3, [r3, #6]
 1290 0042 042B     		cmp	r3, #4
 1291 0044 13D0     		beq	.L101
ARM GAS  C:\Users\salaz\AppData\Local\Temp\ccSSnxm1.s 			page 32


 1292              		.loc 1 465 0 discriminator 5
 1293 0046 3B68     		ldr	r3, [r7]
 1294 0048 9B79     		ldrb	r3, [r3, #6]
 1295 004a 052B     		cmp	r3, #5
 1296 004c 0FD0     		beq	.L101
 1297              		.loc 1 465 0 discriminator 6
 1298 004e 3B68     		ldr	r3, [r7]
 1299 0050 9B79     		ldrb	r3, [r3, #6]
 1300 0052 062B     		cmp	r3, #6
 1301 0054 0BD0     		beq	.L101
 1302              		.loc 1 465 0 discriminator 7
 1303 0056 3B68     		ldr	r3, [r7]
 1304 0058 9B79     		ldrb	r3, [r3, #6]
 1305 005a 072B     		cmp	r3, #7
 1306 005c 07D0     		beq	.L101
 1307              		.loc 1 465 0 discriminator 8
 1308 005e D223     		movs	r3, #210
 1309 0060 FF33     		adds	r3, r3, #255
 1310 0062 1A00     		movs	r2, r3
 1311 0064 7A4B     		ldr	r3, .L110
 1312 0066 1100     		movs	r1, r2
 1313 0068 1800     		movs	r0, r3
 1314 006a FFF7FEFF 		bl	Cy_SysLib_AssertFailed
 1315              	.L101:
 466:Generated_Source\PSoC6\pdl\drivers\peripheral\prot/cy_prot.c ****     CY_ASSERT_L3(CY_PROT_IS_SMPU_SL_PERM_VALID(config->privPermission));
 1316              		.loc 1 466 0 is_stmt 1
 1317 006e 3B68     		ldr	r3, [r7]
 1318 0070 DB79     		ldrb	r3, [r3, #7]
 1319 0072 002B     		cmp	r3, #0
 1320 0074 22D0     		beq	.L102
 1321              		.loc 1 466 0 is_stmt 0 discriminator 1
 1322 0076 3B68     		ldr	r3, [r7]
 1323 0078 DB79     		ldrb	r3, [r3, #7]
 1324 007a 012B     		cmp	r3, #1
 1325 007c 1ED0     		beq	.L102
 1326              		.loc 1 466 0 discriminator 2
 1327 007e 3B68     		ldr	r3, [r7]
 1328 0080 DB79     		ldrb	r3, [r3, #7]
 1329 0082 022B     		cmp	r3, #2
 1330 0084 1AD0     		beq	.L102
 1331              		.loc 1 466 0 discriminator 3
 1332 0086 3B68     		ldr	r3, [r7]
 1333 0088 DB79     		ldrb	r3, [r3, #7]
 1334 008a 032B     		cmp	r3, #3
 1335 008c 16D0     		beq	.L102
 1336              		.loc 1 466 0 discriminator 4
 1337 008e 3B68     		ldr	r3, [r7]
 1338 0090 DB79     		ldrb	r3, [r3, #7]
 1339 0092 042B     		cmp	r3, #4
 1340 0094 12D0     		beq	.L102
 1341              		.loc 1 466 0 discriminator 5
 1342 0096 3B68     		ldr	r3, [r7]
 1343 0098 DB79     		ldrb	r3, [r3, #7]
 1344 009a 052B     		cmp	r3, #5
 1345 009c 0ED0     		beq	.L102
 1346              		.loc 1 466 0 discriminator 6
 1347 009e 3B68     		ldr	r3, [r7]
ARM GAS  C:\Users\salaz\AppData\Local\Temp\ccSSnxm1.s 			page 33


 1348 00a0 DB79     		ldrb	r3, [r3, #7]
 1349 00a2 062B     		cmp	r3, #6
 1350 00a4 0AD0     		beq	.L102
 1351              		.loc 1 466 0 discriminator 7
 1352 00a6 3B68     		ldr	r3, [r7]
 1353 00a8 DB79     		ldrb	r3, [r3, #7]
 1354 00aa 072B     		cmp	r3, #7
 1355 00ac 06D0     		beq	.L102
 1356              		.loc 1 466 0 discriminator 8
 1357 00ae E923     		movs	r3, #233
 1358 00b0 5A00     		lsls	r2, r3, #1
 1359 00b2 674B     		ldr	r3, .L110
 1360 00b4 1100     		movs	r1, r2
 1361 00b6 1800     		movs	r0, r3
 1362 00b8 FFF7FEFF 		bl	Cy_SysLib_AssertFailed
 1363              	.L102:
 467:Generated_Source\PSoC6\pdl\drivers\peripheral\prot/cy_prot.c ****     CY_ASSERT_L3(CY_PROT_IS_REGION_SIZE_VALID(config->regionSize));
 1364              		.loc 1 467 0 is_stmt 1
 1365 00bc 3B68     		ldr	r3, [r7]
 1366 00be 1B79     		ldrb	r3, [r3, #4]
 1367 00c0 072B     		cmp	r3, #7
 1368 00c2 00D1     		bne	.LCB1164
 1369 00c4 6AE0     		b	.L103	@long jump
 1370              	.LCB1164:
 1371              		.loc 1 467 0 is_stmt 0 discriminator 1
 1372 00c6 3B68     		ldr	r3, [r7]
 1373 00c8 1B79     		ldrb	r3, [r3, #4]
 1374 00ca 082B     		cmp	r3, #8
 1375 00cc 00D1     		bne	.LCB1168
 1376 00ce 65E0     		b	.L103	@long jump
 1377              	.LCB1168:
 1378              		.loc 1 467 0 discriminator 2
 1379 00d0 3B68     		ldr	r3, [r7]
 1380 00d2 1B79     		ldrb	r3, [r3, #4]
 1381 00d4 092B     		cmp	r3, #9
 1382 00d6 00D1     		bne	.LCB1172
 1383 00d8 60E0     		b	.L103	@long jump
 1384              	.LCB1172:
 1385              		.loc 1 467 0 discriminator 3
 1386 00da 3B68     		ldr	r3, [r7]
 1387 00dc 1B79     		ldrb	r3, [r3, #4]
 1388 00de 0A2B     		cmp	r3, #10
 1389 00e0 00D1     		bne	.LCB1176
 1390 00e2 5BE0     		b	.L103	@long jump
 1391              	.LCB1176:
 1392              		.loc 1 467 0 discriminator 4
 1393 00e4 3B68     		ldr	r3, [r7]
 1394 00e6 1B79     		ldrb	r3, [r3, #4]
 1395 00e8 0B2B     		cmp	r3, #11
 1396 00ea 57D0     		beq	.L103
 1397              		.loc 1 467 0 discriminator 5
 1398 00ec 3B68     		ldr	r3, [r7]
 1399 00ee 1B79     		ldrb	r3, [r3, #4]
 1400 00f0 0C2B     		cmp	r3, #12
 1401 00f2 53D0     		beq	.L103
 1402              		.loc 1 467 0 discriminator 6
 1403 00f4 3B68     		ldr	r3, [r7]
ARM GAS  C:\Users\salaz\AppData\Local\Temp\ccSSnxm1.s 			page 34


 1404 00f6 1B79     		ldrb	r3, [r3, #4]
 1405 00f8 0D2B     		cmp	r3, #13
 1406 00fa 4FD0     		beq	.L103
 1407              		.loc 1 467 0 discriminator 7
 1408 00fc 3B68     		ldr	r3, [r7]
 1409 00fe 1B79     		ldrb	r3, [r3, #4]
 1410 0100 0E2B     		cmp	r3, #14
 1411 0102 4BD0     		beq	.L103
 1412              		.loc 1 467 0 discriminator 8
 1413 0104 3B68     		ldr	r3, [r7]
 1414 0106 1B79     		ldrb	r3, [r3, #4]
 1415 0108 0F2B     		cmp	r3, #15
 1416 010a 47D0     		beq	.L103
 1417              		.loc 1 467 0 discriminator 9
 1418 010c 3B68     		ldr	r3, [r7]
 1419 010e 1B79     		ldrb	r3, [r3, #4]
 1420 0110 102B     		cmp	r3, #16
 1421 0112 43D0     		beq	.L103
 1422              		.loc 1 467 0 discriminator 10
 1423 0114 3B68     		ldr	r3, [r7]
 1424 0116 1B79     		ldrb	r3, [r3, #4]
 1425 0118 112B     		cmp	r3, #17
 1426 011a 3FD0     		beq	.L103
 1427              		.loc 1 467 0 discriminator 11
 1428 011c 3B68     		ldr	r3, [r7]
 1429 011e 1B79     		ldrb	r3, [r3, #4]
 1430 0120 122B     		cmp	r3, #18
 1431 0122 3BD0     		beq	.L103
 1432              		.loc 1 467 0 discriminator 12
 1433 0124 3B68     		ldr	r3, [r7]
 1434 0126 1B79     		ldrb	r3, [r3, #4]
 1435 0128 132B     		cmp	r3, #19
 1436 012a 37D0     		beq	.L103
 1437              		.loc 1 467 0 discriminator 13
 1438 012c 3B68     		ldr	r3, [r7]
 1439 012e 1B79     		ldrb	r3, [r3, #4]
 1440 0130 142B     		cmp	r3, #20
 1441 0132 33D0     		beq	.L103
 1442              		.loc 1 467 0 discriminator 14
 1443 0134 3B68     		ldr	r3, [r7]
 1444 0136 1B79     		ldrb	r3, [r3, #4]
 1445 0138 152B     		cmp	r3, #21
 1446 013a 2FD0     		beq	.L103
 1447              		.loc 1 467 0 discriminator 15
 1448 013c 3B68     		ldr	r3, [r7]
 1449 013e 1B79     		ldrb	r3, [r3, #4]
 1450 0140 162B     		cmp	r3, #22
 1451 0142 2BD0     		beq	.L103
 1452              		.loc 1 467 0 discriminator 16
 1453 0144 3B68     		ldr	r3, [r7]
 1454 0146 1B79     		ldrb	r3, [r3, #4]
 1455 0148 172B     		cmp	r3, #23
 1456 014a 27D0     		beq	.L103
 1457              		.loc 1 467 0 discriminator 17
 1458 014c 3B68     		ldr	r3, [r7]
 1459 014e 1B79     		ldrb	r3, [r3, #4]
 1460 0150 182B     		cmp	r3, #24
ARM GAS  C:\Users\salaz\AppData\Local\Temp\ccSSnxm1.s 			page 35


 1461 0152 23D0     		beq	.L103
 1462              		.loc 1 467 0 discriminator 18
 1463 0154 3B68     		ldr	r3, [r7]
 1464 0156 1B79     		ldrb	r3, [r3, #4]
 1465 0158 192B     		cmp	r3, #25
 1466 015a 1FD0     		beq	.L103
 1467              		.loc 1 467 0 discriminator 19
 1468 015c 3B68     		ldr	r3, [r7]
 1469 015e 1B79     		ldrb	r3, [r3, #4]
 1470 0160 1A2B     		cmp	r3, #26
 1471 0162 1BD0     		beq	.L103
 1472              		.loc 1 467 0 discriminator 20
 1473 0164 3B68     		ldr	r3, [r7]
 1474 0166 1B79     		ldrb	r3, [r3, #4]
 1475 0168 1B2B     		cmp	r3, #27
 1476 016a 17D0     		beq	.L103
 1477              		.loc 1 467 0 discriminator 21
 1478 016c 3B68     		ldr	r3, [r7]
 1479 016e 1B79     		ldrb	r3, [r3, #4]
 1480 0170 1C2B     		cmp	r3, #28
 1481 0172 13D0     		beq	.L103
 1482              		.loc 1 467 0 discriminator 22
 1483 0174 3B68     		ldr	r3, [r7]
 1484 0176 1B79     		ldrb	r3, [r3, #4]
 1485 0178 1D2B     		cmp	r3, #29
 1486 017a 0FD0     		beq	.L103
 1487              		.loc 1 467 0 discriminator 23
 1488 017c 3B68     		ldr	r3, [r7]
 1489 017e 1B79     		ldrb	r3, [r3, #4]
 1490 0180 1E2B     		cmp	r3, #30
 1491 0182 0BD0     		beq	.L103
 1492              		.loc 1 467 0 discriminator 24
 1493 0184 3B68     		ldr	r3, [r7]
 1494 0186 1B79     		ldrb	r3, [r3, #4]
 1495 0188 1F2B     		cmp	r3, #31
 1496 018a 07D0     		beq	.L103
 1497              		.loc 1 467 0 discriminator 25
 1498 018c D423     		movs	r3, #212
 1499 018e FF33     		adds	r3, r3, #255
 1500 0190 1A00     		movs	r2, r3
 1501 0192 2F4B     		ldr	r3, .L110
 1502 0194 1100     		movs	r1, r2
 1503 0196 1800     		movs	r0, r3
 1504 0198 FFF7FEFF 		bl	Cy_SysLib_AssertFailed
 1505              	.L103:
 468:Generated_Source\PSoC6\pdl\drivers\peripheral\prot/cy_prot.c **** 
 469:Generated_Source\PSoC6\pdl\drivers\peripheral\prot/cy_prot.c ****     if(((uint32_t)config->pcMask & CY_PROT_SMPU_PC_LIMIT_MASK) != 0UL) 
 1506              		.loc 1 469 0 is_stmt 1
 1507 019c 3B68     		ldr	r3, [r7]
 1508 019e 5B89     		ldrh	r3, [r3, #10]
 1509 01a0 1A00     		movs	r2, r3
 1510 01a2 7F23     		movs	r3, #127
 1511 01a4 9A43     		bics	r2, r3
 1512 01a6 131E     		subs	r3, r2, #0
 1513 01a8 02D0     		beq	.L104
 470:Generated_Source\PSoC6\pdl\drivers\peripheral\prot/cy_prot.c ****     {
 471:Generated_Source\PSoC6\pdl\drivers\peripheral\prot/cy_prot.c ****         /* PC mask out of range - not supported in device */
ARM GAS  C:\Users\salaz\AppData\Local\Temp\ccSSnxm1.s 			page 36


 472:Generated_Source\PSoC6\pdl\drivers\peripheral\prot/cy_prot.c ****         status = CY_PROT_BAD_PARAM;
 1514              		.loc 1 472 0
 1515 01aa 2A4B     		ldr	r3, .L110+4
 1516 01ac 7B61     		str	r3, [r7, #20]
 1517 01ae 49E0     		b	.L105
 1518              	.L104:
 473:Generated_Source\PSoC6\pdl\drivers\peripheral\prot/cy_prot.c ****     }
 474:Generated_Source\PSoC6\pdl\drivers\peripheral\prot/cy_prot.c ****     else
 475:Generated_Source\PSoC6\pdl\drivers\peripheral\prot/cy_prot.c ****     {
 476:Generated_Source\PSoC6\pdl\drivers\peripheral\prot/cy_prot.c ****         addrReg= _VAL2FLD(PROT_SMPU_SMPU_STRUCT_ADDR0_SUBREGION_DISABLE, config->subregions)
 1519              		.loc 1 476 0
 1520 01b0 3B68     		ldr	r3, [r7]
 1521 01b2 5B79     		ldrb	r3, [r3, #5]
 1522 01b4 1A00     		movs	r2, r3
 477:Generated_Source\PSoC6\pdl\drivers\peripheral\prot/cy_prot.c ****                     | _VAL2FLD(PROT_SMPU_SMPU_STRUCT_ADDR0_ADDR24, (uint32_t)((uint32_t)config->add
 1523              		.loc 1 477 0
 1524 01b6 3B68     		ldr	r3, [r7]
 1525 01b8 1B68     		ldr	r3, [r3]
 1526 01ba 1900     		movs	r1, r3
 1527 01bc FF23     		movs	r3, #255
 1528 01be 9943     		bics	r1, r3
 1529 01c0 0B00     		movs	r3, r1
 476:Generated_Source\PSoC6\pdl\drivers\peripheral\prot/cy_prot.c ****                     | _VAL2FLD(PROT_SMPU_SMPU_STRUCT_ADDR0_ADDR24, (uint32_t)((uint32_t)config->add
 1530              		.loc 1 476 0
 1531 01c2 1343     		orrs	r3, r2
 1532 01c4 3B61     		str	r3, [r7, #16]
 478:Generated_Source\PSoC6\pdl\drivers\peripheral\prot/cy_prot.c ****         attReg= ((uint32_t)config->userPermission & CY_PROT_ATT_PERMISSION_MASK)
 1533              		.loc 1 478 0
 1534 01c6 3B68     		ldr	r3, [r7]
 1535 01c8 9B79     		ldrb	r3, [r3, #6]
 1536 01ca 1A00     		movs	r2, r3
 1537 01cc 0723     		movs	r3, #7
 1538 01ce 1A40     		ands	r2, r3
 479:Generated_Source\PSoC6\pdl\drivers\peripheral\prot/cy_prot.c ****                     | (uint32_t)(((uint32_t)config->privPermission & CY_PROT_ATT_PERMISSION_MASK) <
 1539              		.loc 1 479 0
 1540 01d0 3B68     		ldr	r3, [r7]
 1541 01d2 DB79     		ldrb	r3, [r3, #7]
 1542 01d4 DB00     		lsls	r3, r3, #3
 1543 01d6 3821     		movs	r1, #56
 1544 01d8 0B40     		ands	r3, r1
 1545 01da 1A43     		orrs	r2, r3
 480:Generated_Source\PSoC6\pdl\drivers\peripheral\prot/cy_prot.c ****                     | _VAL2FLD(PROT_SMPU_SMPU_STRUCT_ATT0_NS, !(config->secure))
 1546              		.loc 1 480 0
 1547 01dc 3B68     		ldr	r3, [r7]
 1548 01de 1B7A     		ldrb	r3, [r3, #8]
 1549 01e0 0121     		movs	r1, #1
 1550 01e2 4B40     		eors	r3, r1
 1551 01e4 DBB2     		uxtb	r3, r3
 1552 01e6 9B01     		lsls	r3, r3, #6
 1553 01e8 4021     		movs	r1, #64
 1554 01ea 0B40     		ands	r3, r1
 1555 01ec 1A43     		orrs	r2, r3
 481:Generated_Source\PSoC6\pdl\drivers\peripheral\prot/cy_prot.c ****                     | _VAL2FLD(PROT_SMPU_SMPU_STRUCT_ATT0_PC_MASK_15_TO_1, config->pcMask)
 1556              		.loc 1 481 0
 1557 01ee 3B68     		ldr	r3, [r7]
 1558 01f0 5B89     		ldrh	r3, [r3, #10]
 1559 01f2 5B02     		lsls	r3, r3, #9
ARM GAS  C:\Users\salaz\AppData\Local\Temp\ccSSnxm1.s 			page 37


 1560 01f4 1849     		ldr	r1, .L110+8
 1561 01f6 0B40     		ands	r3, r1
 1562 01f8 1A43     		orrs	r2, r3
 482:Generated_Source\PSoC6\pdl\drivers\peripheral\prot/cy_prot.c ****                     | _VAL2FLD(PROT_SMPU_SMPU_STRUCT_ATT0_REGION_SIZE, config->regionSize)
 1563              		.loc 1 482 0
 1564 01fa 3B68     		ldr	r3, [r7]
 1565 01fc 1B79     		ldrb	r3, [r3, #4]
 1566 01fe 1906     		lsls	r1, r3, #24
 1567 0200 F823     		movs	r3, #248
 1568 0202 5B05     		lsls	r3, r3, #21
 1569 0204 0B40     		ands	r3, r1
 1570 0206 1A43     		orrs	r2, r3
 483:Generated_Source\PSoC6\pdl\drivers\peripheral\prot/cy_prot.c ****                     | _VAL2FLD(PROT_SMPU_SMPU_STRUCT_ATT0_PC_MATCH, config->pcMatch);
 1571              		.loc 1 483 0
 1572 0208 3B68     		ldr	r3, [r7]
 1573 020a 5B7A     		ldrb	r3, [r3, #9]
 1574 020c 9907     		lsls	r1, r3, #30
 1575 020e 8023     		movs	r3, #128
 1576 0210 DB05     		lsls	r3, r3, #23
 1577 0212 0B40     		ands	r3, r1
 478:Generated_Source\PSoC6\pdl\drivers\peripheral\prot/cy_prot.c ****                     | (uint32_t)(((uint32_t)config->privPermission & CY_PROT_ATT_PERMISSION_MASK) <
 1578              		.loc 1 478 0
 1579 0214 1343     		orrs	r3, r2
 1580 0216 FB60     		str	r3, [r7, #12]
 484:Generated_Source\PSoC6\pdl\drivers\peripheral\prot/cy_prot.c ****         base->ATT0 = attReg;
 1581              		.loc 1 484 0
 1582 0218 7B68     		ldr	r3, [r7, #4]
 1583 021a FA68     		ldr	r2, [r7, #12]
 1584 021c 5A60     		str	r2, [r3, #4]
 485:Generated_Source\PSoC6\pdl\drivers\peripheral\prot/cy_prot.c ****         base->ADDR0 = addrReg;
 1585              		.loc 1 485 0
 1586 021e 7B68     		ldr	r3, [r7, #4]
 1587 0220 3A69     		ldr	r2, [r7, #16]
 1588 0222 1A60     		str	r2, [r3]
 486:Generated_Source\PSoC6\pdl\drivers\peripheral\prot/cy_prot.c ****         status = ((base->ADDR0 != addrReg) || ((base->ATT0 & CY_PROT_SMPU_ATT0_MASK) != attReg))
 1589              		.loc 1 486 0
 1590 0224 7B68     		ldr	r3, [r7, #4]
 1591 0226 1A68     		ldr	r2, [r3]
 1592 0228 3B69     		ldr	r3, [r7, #16]
 1593 022a 9A42     		cmp	r2, r3
 1594 022c 06D1     		bne	.L106
 1595              		.loc 1 486 0 is_stmt 0 discriminator 2
 1596 022e 7B68     		ldr	r3, [r7, #4]
 1597 0230 5B68     		ldr	r3, [r3, #4]
 1598 0232 0A4A     		ldr	r2, .L110+12
 1599 0234 1A40     		ands	r2, r3
 1600 0236 FB68     		ldr	r3, [r7, #12]
 1601 0238 9A42     		cmp	r2, r3
 1602 023a 01D0     		beq	.L107
 1603              	.L106:
 1604              		.loc 1 486 0 discriminator 3
 1605 023c 084B     		ldr	r3, .L110+16
 1606 023e 00E0     		b	.L108
 1607              	.L107:
 1608              		.loc 1 486 0 discriminator 4
 1609 0240 0023     		movs	r3, #0
 1610              	.L108:
ARM GAS  C:\Users\salaz\AppData\Local\Temp\ccSSnxm1.s 			page 38


 1611              		.loc 1 486 0 discriminator 6
 1612 0242 7B61     		str	r3, [r7, #20]
 1613              	.L105:
 487:Generated_Source\PSoC6\pdl\drivers\peripheral\prot/cy_prot.c ****                     ? CY_PROT_FAILURE : CY_PROT_SUCCESS;
 488:Generated_Source\PSoC6\pdl\drivers\peripheral\prot/cy_prot.c ****     }
 489:Generated_Source\PSoC6\pdl\drivers\peripheral\prot/cy_prot.c ****     
 490:Generated_Source\PSoC6\pdl\drivers\peripheral\prot/cy_prot.c ****     return status;
 1614              		.loc 1 490 0 is_stmt 1
 1615 0244 7B69     		ldr	r3, [r7, #20]
 491:Generated_Source\PSoC6\pdl\drivers\peripheral\prot/cy_prot.c **** }
 1616              		.loc 1 491 0
 1617 0246 1800     		movs	r0, r3
 1618 0248 BD46     		mov	sp, r7
 1619 024a 06B0     		add	sp, sp, #24
 1620              		@ sp needed
 1621 024c 80BD     		pop	{r7, pc}
 1622              	.L111:
 1623 024e C046     		.align	2
 1624              	.L110:
 1625 0250 00000000 		.word	.LC0
 1626 0254 0100C200 		.word	12713985
 1627 0258 00FEFF00 		.word	16776704
 1628 025c FFFEFFFF 		.word	-257
 1629 0260 0300C200 		.word	12713987
 1630              		.cfi_endproc
 1631              	.LFE43:
 1632              		.size	Cy_Prot_ConfigSmpuSlaveStruct, .-Cy_Prot_ConfigSmpuSlaveStruct
 1633              		.section	.text.Cy_Prot_EnableSmpuMasterStruct,"ax",%progbits
 1634              		.align	2
 1635              		.global	Cy_Prot_EnableSmpuMasterStruct
 1636              		.code	16
 1637              		.thumb_func
 1638              		.type	Cy_Prot_EnableSmpuMasterStruct, %function
 1639              	Cy_Prot_EnableSmpuMasterStruct:
 1640              	.LFB44:
 492:Generated_Source\PSoC6\pdl\drivers\peripheral\prot/cy_prot.c **** 
 493:Generated_Source\PSoC6\pdl\drivers\peripheral\prot/cy_prot.c **** 
 494:Generated_Source\PSoC6\pdl\drivers\peripheral\prot/cy_prot.c **** /*******************************************************************************
 495:Generated_Source\PSoC6\pdl\drivers\peripheral\prot/cy_prot.c **** * Function Name: Cy_Prot_EnableSmpuMasterStruct
 496:Generated_Source\PSoC6\pdl\drivers\peripheral\prot/cy_prot.c **** ****************************************************************************//**
 497:Generated_Source\PSoC6\pdl\drivers\peripheral\prot/cy_prot.c **** *
 498:Generated_Source\PSoC6\pdl\drivers\peripheral\prot/cy_prot.c **** * \brief Enables the Master SMPU structure.
 499:Generated_Source\PSoC6\pdl\drivers\peripheral\prot/cy_prot.c **** *
 500:Generated_Source\PSoC6\pdl\drivers\peripheral\prot/cy_prot.c **** * This is an SMPU master struct enable function. The SMPU protection settings
 501:Generated_Source\PSoC6\pdl\drivers\peripheral\prot/cy_prot.c **** * will take effect after successful completion of this function call.
 502:Generated_Source\PSoC6\pdl\drivers\peripheral\prot/cy_prot.c **** *
 503:Generated_Source\PSoC6\pdl\drivers\peripheral\prot/cy_prot.c **** * \param base
 504:Generated_Source\PSoC6\pdl\drivers\peripheral\prot/cy_prot.c **** * The base address for the protection unit structure being configured. 
 505:Generated_Source\PSoC6\pdl\drivers\peripheral\prot/cy_prot.c **** *
 506:Generated_Source\PSoC6\pdl\drivers\peripheral\prot/cy_prot.c **** * \return
 507:Generated_Source\PSoC6\pdl\drivers\peripheral\prot/cy_prot.c **** * Status of the function call.
 508:Generated_Source\PSoC6\pdl\drivers\peripheral\prot/cy_prot.c **** *
 509:Generated_Source\PSoC6\pdl\drivers\peripheral\prot/cy_prot.c **** *   Status               | Description
 510:Generated_Source\PSoC6\pdl\drivers\peripheral\prot/cy_prot.c **** *   ------------         | -----------
 511:Generated_Source\PSoC6\pdl\drivers\peripheral\prot/cy_prot.c **** *   CY_PROT_SUCCESS      | The Master PU struct was enabled
 512:Generated_Source\PSoC6\pdl\drivers\peripheral\prot/cy_prot.c **** *   CY_PROT_FAILURE      | The Master PU struct is disabled and possibly locked
 513:Generated_Source\PSoC6\pdl\drivers\peripheral\prot/cy_prot.c **** *
ARM GAS  C:\Users\salaz\AppData\Local\Temp\ccSSnxm1.s 			page 39


 514:Generated_Source\PSoC6\pdl\drivers\peripheral\prot/cy_prot.c **** * \funcusage
 515:Generated_Source\PSoC6\pdl\drivers\peripheral\prot/cy_prot.c **** * \snippet prot/prot_v1_10_sut_01.cydsn/main_cm4.c snippet_Cy_Prot_EnableSmpuMasterStruct
 516:Generated_Source\PSoC6\pdl\drivers\peripheral\prot/cy_prot.c **** *
 517:Generated_Source\PSoC6\pdl\drivers\peripheral\prot/cy_prot.c **** *******************************************************************************/
 518:Generated_Source\PSoC6\pdl\drivers\peripheral\prot/cy_prot.c **** cy_en_prot_status_t Cy_Prot_EnableSmpuMasterStruct(PROT_SMPU_SMPU_STRUCT_Type* base)
 519:Generated_Source\PSoC6\pdl\drivers\peripheral\prot/cy_prot.c **** {
 1641              		.loc 1 519 0
 1642              		.cfi_startproc
 1643              		@ args = 0, pretend = 0, frame = 16
 1644              		@ frame_needed = 1, uses_anonymous_args = 0
 1645 0000 80B5     		push	{r7, lr}
 1646              		.cfi_def_cfa_offset 8
 1647              		.cfi_offset 7, -8
 1648              		.cfi_offset 14, -4
 1649 0002 84B0     		sub	sp, sp, #16
 1650              		.cfi_def_cfa_offset 24
 1651 0004 00AF     		add	r7, sp, #0
 1652              		.cfi_def_cfa_register 7
 1653 0006 7860     		str	r0, [r7, #4]
 520:Generated_Source\PSoC6\pdl\drivers\peripheral\prot/cy_prot.c ****     cy_en_prot_status_t status;
 521:Generated_Source\PSoC6\pdl\drivers\peripheral\prot/cy_prot.c ****     
 522:Generated_Source\PSoC6\pdl\drivers\peripheral\prot/cy_prot.c ****     base->ATT1 |= _VAL2FLD(PROT_SMPU_SMPU_STRUCT_ATT1_ENABLED, CY_PROT_STRUCT_ENABLE);
 1654              		.loc 1 522 0
 1655 0008 7B68     		ldr	r3, [r7, #4]
 1656 000a 5B6A     		ldr	r3, [r3, #36]
 1657 000c 8022     		movs	r2, #128
 1658 000e 1206     		lsls	r2, r2, #24
 1659 0010 1A43     		orrs	r2, r3
 1660 0012 7B68     		ldr	r3, [r7, #4]
 1661 0014 5A62     		str	r2, [r3, #36]
 523:Generated_Source\PSoC6\pdl\drivers\peripheral\prot/cy_prot.c ****     status = (_FLD2VAL(PROT_SMPU_SMPU_STRUCT_ATT1_ENABLED, base->ATT1) != CY_PROT_STRUCT_ENABLE) ?
 1662              		.loc 1 523 0
 1663 0016 7B68     		ldr	r3, [r7, #4]
 1664 0018 5B6A     		ldr	r3, [r3, #36]
 1665 001a DB0F     		lsrs	r3, r3, #31
 1666 001c DB07     		lsls	r3, r3, #31
 1667 001e DB0F     		lsrs	r3, r3, #31
 1668 0020 012B     		cmp	r3, #1
 1669 0022 01D0     		beq	.L113
 1670              		.loc 1 523 0 is_stmt 0 discriminator 1
 1671 0024 044B     		ldr	r3, .L116
 1672 0026 00E0     		b	.L114
 1673              	.L113:
 1674              		.loc 1 523 0 discriminator 2
 1675 0028 0023     		movs	r3, #0
 1676              	.L114:
 1677              		.loc 1 523 0 discriminator 4
 1678 002a FB60     		str	r3, [r7, #12]
 524:Generated_Source\PSoC6\pdl\drivers\peripheral\prot/cy_prot.c ****                 CY_PROT_FAILURE : CY_PROT_SUCCESS;
 525:Generated_Source\PSoC6\pdl\drivers\peripheral\prot/cy_prot.c ****     
 526:Generated_Source\PSoC6\pdl\drivers\peripheral\prot/cy_prot.c ****     return status;
 1679              		.loc 1 526 0 is_stmt 1 discriminator 4
 1680 002c FB68     		ldr	r3, [r7, #12]
 527:Generated_Source\PSoC6\pdl\drivers\peripheral\prot/cy_prot.c **** }
 1681              		.loc 1 527 0 discriminator 4
 1682 002e 1800     		movs	r0, r3
 1683 0030 BD46     		mov	sp, r7
ARM GAS  C:\Users\salaz\AppData\Local\Temp\ccSSnxm1.s 			page 40


 1684 0032 04B0     		add	sp, sp, #16
 1685              		@ sp needed
 1686 0034 80BD     		pop	{r7, pc}
 1687              	.L117:
 1688 0036 C046     		.align	2
 1689              	.L116:
 1690 0038 0300C200 		.word	12713987
 1691              		.cfi_endproc
 1692              	.LFE44:
 1693              		.size	Cy_Prot_EnableSmpuMasterStruct, .-Cy_Prot_EnableSmpuMasterStruct
 1694              		.section	.text.Cy_Prot_DisableSmpuMasterStruct,"ax",%progbits
 1695              		.align	2
 1696              		.global	Cy_Prot_DisableSmpuMasterStruct
 1697              		.code	16
 1698              		.thumb_func
 1699              		.type	Cy_Prot_DisableSmpuMasterStruct, %function
 1700              	Cy_Prot_DisableSmpuMasterStruct:
 1701              	.LFB45:
 528:Generated_Source\PSoC6\pdl\drivers\peripheral\prot/cy_prot.c **** 
 529:Generated_Source\PSoC6\pdl\drivers\peripheral\prot/cy_prot.c **** 
 530:Generated_Source\PSoC6\pdl\drivers\peripheral\prot/cy_prot.c **** /*******************************************************************************
 531:Generated_Source\PSoC6\pdl\drivers\peripheral\prot/cy_prot.c **** * Function Name: Cy_Prot_DisableSmpuMasterStruct
 532:Generated_Source\PSoC6\pdl\drivers\peripheral\prot/cy_prot.c **** ****************************************************************************//**
 533:Generated_Source\PSoC6\pdl\drivers\peripheral\prot/cy_prot.c **** *
 534:Generated_Source\PSoC6\pdl\drivers\peripheral\prot/cy_prot.c **** * \brief Disables the Master SMPU structure.
 535:Generated_Source\PSoC6\pdl\drivers\peripheral\prot/cy_prot.c **** *
 536:Generated_Source\PSoC6\pdl\drivers\peripheral\prot/cy_prot.c **** * This is an SMPU master struct disable function. The SMPU protection settings
 537:Generated_Source\PSoC6\pdl\drivers\peripheral\prot/cy_prot.c **** * will seize to take effect after successful completion of this function call.
 538:Generated_Source\PSoC6\pdl\drivers\peripheral\prot/cy_prot.c **** *
 539:Generated_Source\PSoC6\pdl\drivers\peripheral\prot/cy_prot.c **** * \param base
 540:Generated_Source\PSoC6\pdl\drivers\peripheral\prot/cy_prot.c **** * The base address for the protection unit structure being configured. 
 541:Generated_Source\PSoC6\pdl\drivers\peripheral\prot/cy_prot.c **** *
 542:Generated_Source\PSoC6\pdl\drivers\peripheral\prot/cy_prot.c **** * \return
 543:Generated_Source\PSoC6\pdl\drivers\peripheral\prot/cy_prot.c **** * Status of the function call.
 544:Generated_Source\PSoC6\pdl\drivers\peripheral\prot/cy_prot.c **** *
 545:Generated_Source\PSoC6\pdl\drivers\peripheral\prot/cy_prot.c **** *   Status               | Description
 546:Generated_Source\PSoC6\pdl\drivers\peripheral\prot/cy_prot.c **** *   ------------         | -----------
 547:Generated_Source\PSoC6\pdl\drivers\peripheral\prot/cy_prot.c **** *   CY_PROT_SUCCESS      | The Master PU struct was disabled
 548:Generated_Source\PSoC6\pdl\drivers\peripheral\prot/cy_prot.c **** *   CY_PROT_FAILURE      | The Master PU struct is enabled and possibly locked
 549:Generated_Source\PSoC6\pdl\drivers\peripheral\prot/cy_prot.c **** *
 550:Generated_Source\PSoC6\pdl\drivers\peripheral\prot/cy_prot.c **** * \funcusage
 551:Generated_Source\PSoC6\pdl\drivers\peripheral\prot/cy_prot.c **** * \snippet prot/prot_v1_10_sut_01.cydsn/main_cm4.c snippet_Cy_Prot_DisableSmpuMasterStruct
 552:Generated_Source\PSoC6\pdl\drivers\peripheral\prot/cy_prot.c **** *
 553:Generated_Source\PSoC6\pdl\drivers\peripheral\prot/cy_prot.c **** *******************************************************************************/
 554:Generated_Source\PSoC6\pdl\drivers\peripheral\prot/cy_prot.c **** cy_en_prot_status_t Cy_Prot_DisableSmpuMasterStruct(PROT_SMPU_SMPU_STRUCT_Type* base)
 555:Generated_Source\PSoC6\pdl\drivers\peripheral\prot/cy_prot.c **** {
 1702              		.loc 1 555 0
 1703              		.cfi_startproc
 1704              		@ args = 0, pretend = 0, frame = 16
 1705              		@ frame_needed = 1, uses_anonymous_args = 0
 1706 0000 80B5     		push	{r7, lr}
 1707              		.cfi_def_cfa_offset 8
 1708              		.cfi_offset 7, -8
 1709              		.cfi_offset 14, -4
 1710 0002 84B0     		sub	sp, sp, #16
 1711              		.cfi_def_cfa_offset 24
 1712 0004 00AF     		add	r7, sp, #0
ARM GAS  C:\Users\salaz\AppData\Local\Temp\ccSSnxm1.s 			page 41


 1713              		.cfi_def_cfa_register 7
 1714 0006 7860     		str	r0, [r7, #4]
 556:Generated_Source\PSoC6\pdl\drivers\peripheral\prot/cy_prot.c ****     cy_en_prot_status_t status;
 557:Generated_Source\PSoC6\pdl\drivers\peripheral\prot/cy_prot.c ****     
 558:Generated_Source\PSoC6\pdl\drivers\peripheral\prot/cy_prot.c ****     base->ATT1 &= ~_VAL2FLD(PROT_SMPU_SMPU_STRUCT_ATT1_ENABLED, CY_PROT_STRUCT_ENABLE);
 1715              		.loc 1 558 0
 1716 0008 7B68     		ldr	r3, [r7, #4]
 1717 000a 5B6A     		ldr	r3, [r3, #36]
 1718 000c 5B00     		lsls	r3, r3, #1
 1719 000e 5A08     		lsrs	r2, r3, #1
 1720 0010 7B68     		ldr	r3, [r7, #4]
 1721 0012 5A62     		str	r2, [r3, #36]
 559:Generated_Source\PSoC6\pdl\drivers\peripheral\prot/cy_prot.c ****     status = (_FLD2VAL(PROT_SMPU_SMPU_STRUCT_ATT1_ENABLED, base->ATT1) == CY_PROT_STRUCT_ENABLE) ?
 1722              		.loc 1 559 0
 1723 0014 7B68     		ldr	r3, [r7, #4]
 1724 0016 5B6A     		ldr	r3, [r3, #36]
 1725 0018 DB0F     		lsrs	r3, r3, #31
 1726 001a DB07     		lsls	r3, r3, #31
 1727 001c DB0F     		lsrs	r3, r3, #31
 1728 001e 012B     		cmp	r3, #1
 1729 0020 01D1     		bne	.L119
 1730              		.loc 1 559 0 is_stmt 0 discriminator 1
 1731 0022 044B     		ldr	r3, .L122
 1732 0024 00E0     		b	.L120
 1733              	.L119:
 1734              		.loc 1 559 0 discriminator 2
 1735 0026 0023     		movs	r3, #0
 1736              	.L120:
 1737              		.loc 1 559 0 discriminator 4
 1738 0028 FB60     		str	r3, [r7, #12]
 560:Generated_Source\PSoC6\pdl\drivers\peripheral\prot/cy_prot.c ****                 CY_PROT_FAILURE : CY_PROT_SUCCESS;
 561:Generated_Source\PSoC6\pdl\drivers\peripheral\prot/cy_prot.c ****     
 562:Generated_Source\PSoC6\pdl\drivers\peripheral\prot/cy_prot.c ****     return status;
 1739              		.loc 1 562 0 is_stmt 1 discriminator 4
 1740 002a FB68     		ldr	r3, [r7, #12]
 563:Generated_Source\PSoC6\pdl\drivers\peripheral\prot/cy_prot.c **** }
 1741              		.loc 1 563 0 discriminator 4
 1742 002c 1800     		movs	r0, r3
 1743 002e BD46     		mov	sp, r7
 1744 0030 04B0     		add	sp, sp, #16
 1745              		@ sp needed
 1746 0032 80BD     		pop	{r7, pc}
 1747              	.L123:
 1748              		.align	2
 1749              	.L122:
 1750 0034 0300C200 		.word	12713987
 1751              		.cfi_endproc
 1752              	.LFE45:
 1753              		.size	Cy_Prot_DisableSmpuMasterStruct, .-Cy_Prot_DisableSmpuMasterStruct
 1754              		.section	.text.Cy_Prot_EnableSmpuSlaveStruct,"ax",%progbits
 1755              		.align	2
 1756              		.global	Cy_Prot_EnableSmpuSlaveStruct
 1757              		.code	16
 1758              		.thumb_func
 1759              		.type	Cy_Prot_EnableSmpuSlaveStruct, %function
 1760              	Cy_Prot_EnableSmpuSlaveStruct:
 1761              	.LFB46:
ARM GAS  C:\Users\salaz\AppData\Local\Temp\ccSSnxm1.s 			page 42


 564:Generated_Source\PSoC6\pdl\drivers\peripheral\prot/cy_prot.c **** 
 565:Generated_Source\PSoC6\pdl\drivers\peripheral\prot/cy_prot.c **** 
 566:Generated_Source\PSoC6\pdl\drivers\peripheral\prot/cy_prot.c **** /*******************************************************************************
 567:Generated_Source\PSoC6\pdl\drivers\peripheral\prot/cy_prot.c **** * Function Name: Cy_Prot_EnableSmpuSlaveStruct
 568:Generated_Source\PSoC6\pdl\drivers\peripheral\prot/cy_prot.c **** ****************************************************************************//**
 569:Generated_Source\PSoC6\pdl\drivers\peripheral\prot/cy_prot.c **** *
 570:Generated_Source\PSoC6\pdl\drivers\peripheral\prot/cy_prot.c **** * \brief Enables the Slave SMPU structure.
 571:Generated_Source\PSoC6\pdl\drivers\peripheral\prot/cy_prot.c **** *
 572:Generated_Source\PSoC6\pdl\drivers\peripheral\prot/cy_prot.c **** * This is an SMPU slave struct enable function. The SMPU protection settings
 573:Generated_Source\PSoC6\pdl\drivers\peripheral\prot/cy_prot.c **** * will take effect after successful completion of this function call.
 574:Generated_Source\PSoC6\pdl\drivers\peripheral\prot/cy_prot.c **** *
 575:Generated_Source\PSoC6\pdl\drivers\peripheral\prot/cy_prot.c **** * \param base
 576:Generated_Source\PSoC6\pdl\drivers\peripheral\prot/cy_prot.c **** * The base address for the protection unit structure being configured. 
 577:Generated_Source\PSoC6\pdl\drivers\peripheral\prot/cy_prot.c **** *
 578:Generated_Source\PSoC6\pdl\drivers\peripheral\prot/cy_prot.c **** * \return
 579:Generated_Source\PSoC6\pdl\drivers\peripheral\prot/cy_prot.c **** * Status of the function call.
 580:Generated_Source\PSoC6\pdl\drivers\peripheral\prot/cy_prot.c **** *
 581:Generated_Source\PSoC6\pdl\drivers\peripheral\prot/cy_prot.c **** *   Status               | Description
 582:Generated_Source\PSoC6\pdl\drivers\peripheral\prot/cy_prot.c **** *   ------------         | -----------
 583:Generated_Source\PSoC6\pdl\drivers\peripheral\prot/cy_prot.c **** *   CY_PROT_SUCCESS      | The Slave PU struct was enabled
 584:Generated_Source\PSoC6\pdl\drivers\peripheral\prot/cy_prot.c **** *   CY_PROT_FAILURE      | The Slave PU struct is disabled and possibly locked
 585:Generated_Source\PSoC6\pdl\drivers\peripheral\prot/cy_prot.c **** *
 586:Generated_Source\PSoC6\pdl\drivers\peripheral\prot/cy_prot.c **** * \funcusage
 587:Generated_Source\PSoC6\pdl\drivers\peripheral\prot/cy_prot.c **** * \snippet prot/prot_v1_10_sut_01.cydsn/main_cm4.c snippet_Cy_Prot_EnableSmpuSlaveStruct
 588:Generated_Source\PSoC6\pdl\drivers\peripheral\prot/cy_prot.c **** *
 589:Generated_Source\PSoC6\pdl\drivers\peripheral\prot/cy_prot.c **** *******************************************************************************/
 590:Generated_Source\PSoC6\pdl\drivers\peripheral\prot/cy_prot.c **** cy_en_prot_status_t Cy_Prot_EnableSmpuSlaveStruct(PROT_SMPU_SMPU_STRUCT_Type* base)
 591:Generated_Source\PSoC6\pdl\drivers\peripheral\prot/cy_prot.c **** {   
 1762              		.loc 1 591 0
 1763              		.cfi_startproc
 1764              		@ args = 0, pretend = 0, frame = 16
 1765              		@ frame_needed = 1, uses_anonymous_args = 0
 1766 0000 80B5     		push	{r7, lr}
 1767              		.cfi_def_cfa_offset 8
 1768              		.cfi_offset 7, -8
 1769              		.cfi_offset 14, -4
 1770 0002 84B0     		sub	sp, sp, #16
 1771              		.cfi_def_cfa_offset 24
 1772 0004 00AF     		add	r7, sp, #0
 1773              		.cfi_def_cfa_register 7
 1774 0006 7860     		str	r0, [r7, #4]
 592:Generated_Source\PSoC6\pdl\drivers\peripheral\prot/cy_prot.c ****     cy_en_prot_status_t status;
 593:Generated_Source\PSoC6\pdl\drivers\peripheral\prot/cy_prot.c ****     
 594:Generated_Source\PSoC6\pdl\drivers\peripheral\prot/cy_prot.c ****     base->ATT0 |= _VAL2FLD(PROT_SMPU_SMPU_STRUCT_ATT0_ENABLED, CY_PROT_STRUCT_ENABLE);
 1775              		.loc 1 594 0
 1776 0008 7B68     		ldr	r3, [r7, #4]
 1777 000a 5B68     		ldr	r3, [r3, #4]
 1778 000c 8022     		movs	r2, #128
 1779 000e 1206     		lsls	r2, r2, #24
 1780 0010 1A43     		orrs	r2, r3
 1781 0012 7B68     		ldr	r3, [r7, #4]
 1782 0014 5A60     		str	r2, [r3, #4]
 595:Generated_Source\PSoC6\pdl\drivers\peripheral\prot/cy_prot.c ****     status = (_FLD2VAL(PROT_SMPU_SMPU_STRUCT_ATT0_ENABLED, base->ATT0) != CY_PROT_STRUCT_ENABLE) ?
 1783              		.loc 1 595 0
 1784 0016 7B68     		ldr	r3, [r7, #4]
 1785 0018 5B68     		ldr	r3, [r3, #4]
 1786 001a DB0F     		lsrs	r3, r3, #31
ARM GAS  C:\Users\salaz\AppData\Local\Temp\ccSSnxm1.s 			page 43


 1787 001c DB07     		lsls	r3, r3, #31
 1788 001e DB0F     		lsrs	r3, r3, #31
 1789 0020 012B     		cmp	r3, #1
 1790 0022 01D0     		beq	.L125
 1791              		.loc 1 595 0 is_stmt 0 discriminator 1
 1792 0024 044B     		ldr	r3, .L128
 1793 0026 00E0     		b	.L126
 1794              	.L125:
 1795              		.loc 1 595 0 discriminator 2
 1796 0028 0023     		movs	r3, #0
 1797              	.L126:
 1798              		.loc 1 595 0 discriminator 4
 1799 002a FB60     		str	r3, [r7, #12]
 596:Generated_Source\PSoC6\pdl\drivers\peripheral\prot/cy_prot.c ****                 CY_PROT_FAILURE : CY_PROT_SUCCESS;
 597:Generated_Source\PSoC6\pdl\drivers\peripheral\prot/cy_prot.c ****     
 598:Generated_Source\PSoC6\pdl\drivers\peripheral\prot/cy_prot.c ****     return status;
 1800              		.loc 1 598 0 is_stmt 1 discriminator 4
 1801 002c FB68     		ldr	r3, [r7, #12]
 599:Generated_Source\PSoC6\pdl\drivers\peripheral\prot/cy_prot.c **** }
 1802              		.loc 1 599 0 discriminator 4
 1803 002e 1800     		movs	r0, r3
 1804 0030 BD46     		mov	sp, r7
 1805 0032 04B0     		add	sp, sp, #16
 1806              		@ sp needed
 1807 0034 80BD     		pop	{r7, pc}
 1808              	.L129:
 1809 0036 C046     		.align	2
 1810              	.L128:
 1811 0038 0300C200 		.word	12713987
 1812              		.cfi_endproc
 1813              	.LFE46:
 1814              		.size	Cy_Prot_EnableSmpuSlaveStruct, .-Cy_Prot_EnableSmpuSlaveStruct
 1815              		.section	.text.Cy_Prot_DisableSmpuSlaveStruct,"ax",%progbits
 1816              		.align	2
 1817              		.global	Cy_Prot_DisableSmpuSlaveStruct
 1818              		.code	16
 1819              		.thumb_func
 1820              		.type	Cy_Prot_DisableSmpuSlaveStruct, %function
 1821              	Cy_Prot_DisableSmpuSlaveStruct:
 1822              	.LFB47:
 600:Generated_Source\PSoC6\pdl\drivers\peripheral\prot/cy_prot.c **** 
 601:Generated_Source\PSoC6\pdl\drivers\peripheral\prot/cy_prot.c **** 
 602:Generated_Source\PSoC6\pdl\drivers\peripheral\prot/cy_prot.c **** /*******************************************************************************
 603:Generated_Source\PSoC6\pdl\drivers\peripheral\prot/cy_prot.c **** * Function Name: Cy_Prot_DisableSmpuSlaveStruct
 604:Generated_Source\PSoC6\pdl\drivers\peripheral\prot/cy_prot.c **** ****************************************************************************//**
 605:Generated_Source\PSoC6\pdl\drivers\peripheral\prot/cy_prot.c **** *
 606:Generated_Source\PSoC6\pdl\drivers\peripheral\prot/cy_prot.c **** * \brief Disables the Slave SMPU structure.
 607:Generated_Source\PSoC6\pdl\drivers\peripheral\prot/cy_prot.c **** *
 608:Generated_Source\PSoC6\pdl\drivers\peripheral\prot/cy_prot.c **** * This is an SMPU slave struct disable function. The SMPU protection settings
 609:Generated_Source\PSoC6\pdl\drivers\peripheral\prot/cy_prot.c **** * will seize to take effect after successful completion of this function call.
 610:Generated_Source\PSoC6\pdl\drivers\peripheral\prot/cy_prot.c **** *
 611:Generated_Source\PSoC6\pdl\drivers\peripheral\prot/cy_prot.c **** * \param base
 612:Generated_Source\PSoC6\pdl\drivers\peripheral\prot/cy_prot.c **** * The base address for the protection unit structure being configured. 
 613:Generated_Source\PSoC6\pdl\drivers\peripheral\prot/cy_prot.c **** *
 614:Generated_Source\PSoC6\pdl\drivers\peripheral\prot/cy_prot.c **** * \return
 615:Generated_Source\PSoC6\pdl\drivers\peripheral\prot/cy_prot.c **** * Status of the function call.
 616:Generated_Source\PSoC6\pdl\drivers\peripheral\prot/cy_prot.c **** *
ARM GAS  C:\Users\salaz\AppData\Local\Temp\ccSSnxm1.s 			page 44


 617:Generated_Source\PSoC6\pdl\drivers\peripheral\prot/cy_prot.c **** *   Status               | Description
 618:Generated_Source\PSoC6\pdl\drivers\peripheral\prot/cy_prot.c **** *   ------------         | -----------
 619:Generated_Source\PSoC6\pdl\drivers\peripheral\prot/cy_prot.c **** *   CY_PROT_SUCCESS      | The Slave PU struct was disabled
 620:Generated_Source\PSoC6\pdl\drivers\peripheral\prot/cy_prot.c **** *   CY_PROT_FAILURE      | The Slave PU struct is enabled and possibly locked
 621:Generated_Source\PSoC6\pdl\drivers\peripheral\prot/cy_prot.c **** *
 622:Generated_Source\PSoC6\pdl\drivers\peripheral\prot/cy_prot.c **** * \funcusage
 623:Generated_Source\PSoC6\pdl\drivers\peripheral\prot/cy_prot.c **** * \snippet prot/prot_v1_10_sut_01.cydsn/main_cm4.c snippet_Cy_Prot_DisableSmpuSlaveStruct
 624:Generated_Source\PSoC6\pdl\drivers\peripheral\prot/cy_prot.c **** *
 625:Generated_Source\PSoC6\pdl\drivers\peripheral\prot/cy_prot.c **** *******************************************************************************/
 626:Generated_Source\PSoC6\pdl\drivers\peripheral\prot/cy_prot.c **** cy_en_prot_status_t Cy_Prot_DisableSmpuSlaveStruct(PROT_SMPU_SMPU_STRUCT_Type* base)
 627:Generated_Source\PSoC6\pdl\drivers\peripheral\prot/cy_prot.c **** {
 1823              		.loc 1 627 0
 1824              		.cfi_startproc
 1825              		@ args = 0, pretend = 0, frame = 16
 1826              		@ frame_needed = 1, uses_anonymous_args = 0
 1827 0000 80B5     		push	{r7, lr}
 1828              		.cfi_def_cfa_offset 8
 1829              		.cfi_offset 7, -8
 1830              		.cfi_offset 14, -4
 1831 0002 84B0     		sub	sp, sp, #16
 1832              		.cfi_def_cfa_offset 24
 1833 0004 00AF     		add	r7, sp, #0
 1834              		.cfi_def_cfa_register 7
 1835 0006 7860     		str	r0, [r7, #4]
 628:Generated_Source\PSoC6\pdl\drivers\peripheral\prot/cy_prot.c ****     cy_en_prot_status_t status;
 629:Generated_Source\PSoC6\pdl\drivers\peripheral\prot/cy_prot.c ****     
 630:Generated_Source\PSoC6\pdl\drivers\peripheral\prot/cy_prot.c ****     base->ATT0 &= ~_VAL2FLD(PROT_SMPU_SMPU_STRUCT_ATT0_ENABLED, CY_PROT_STRUCT_ENABLE);
 1836              		.loc 1 630 0
 1837 0008 7B68     		ldr	r3, [r7, #4]
 1838 000a 5B68     		ldr	r3, [r3, #4]
 1839 000c 5B00     		lsls	r3, r3, #1
 1840 000e 5A08     		lsrs	r2, r3, #1
 1841 0010 7B68     		ldr	r3, [r7, #4]
 1842 0012 5A60     		str	r2, [r3, #4]
 631:Generated_Source\PSoC6\pdl\drivers\peripheral\prot/cy_prot.c ****     status = (_FLD2VAL(PROT_SMPU_SMPU_STRUCT_ATT0_ENABLED, base->ATT0) == CY_PROT_STRUCT_ENABLE) ?
 1843              		.loc 1 631 0
 1844 0014 7B68     		ldr	r3, [r7, #4]
 1845 0016 5B68     		ldr	r3, [r3, #4]
 1846 0018 DB0F     		lsrs	r3, r3, #31
 1847 001a DB07     		lsls	r3, r3, #31
 1848 001c DB0F     		lsrs	r3, r3, #31
 1849 001e 012B     		cmp	r3, #1
 1850 0020 01D1     		bne	.L131
 1851              		.loc 1 631 0 is_stmt 0 discriminator 1
 1852 0022 044B     		ldr	r3, .L134
 1853 0024 00E0     		b	.L132
 1854              	.L131:
 1855              		.loc 1 631 0 discriminator 2
 1856 0026 0023     		movs	r3, #0
 1857              	.L132:
 1858              		.loc 1 631 0 discriminator 4
 1859 0028 FB60     		str	r3, [r7, #12]
 632:Generated_Source\PSoC6\pdl\drivers\peripheral\prot/cy_prot.c ****                 CY_PROT_FAILURE : CY_PROT_SUCCESS;
 633:Generated_Source\PSoC6\pdl\drivers\peripheral\prot/cy_prot.c ****     
 634:Generated_Source\PSoC6\pdl\drivers\peripheral\prot/cy_prot.c ****     return status;
 1860              		.loc 1 634 0 is_stmt 1 discriminator 4
 1861 002a FB68     		ldr	r3, [r7, #12]
ARM GAS  C:\Users\salaz\AppData\Local\Temp\ccSSnxm1.s 			page 45


 635:Generated_Source\PSoC6\pdl\drivers\peripheral\prot/cy_prot.c **** }
 1862              		.loc 1 635 0 discriminator 4
 1863 002c 1800     		movs	r0, r3
 1864 002e BD46     		mov	sp, r7
 1865 0030 04B0     		add	sp, sp, #16
 1866              		@ sp needed
 1867 0032 80BD     		pop	{r7, pc}
 1868              	.L135:
 1869              		.align	2
 1870              	.L134:
 1871 0034 0300C200 		.word	12713987
 1872              		.cfi_endproc
 1873              	.LFE47:
 1874              		.size	Cy_Prot_DisableSmpuSlaveStruct, .-Cy_Prot_DisableSmpuSlaveStruct
 1875              		.section	.text.Cy_Prot_ConfigPpuProgMasterStruct,"ax",%progbits
 1876              		.align	2
 1877              		.global	Cy_Prot_ConfigPpuProgMasterStruct
 1878              		.code	16
 1879              		.thumb_func
 1880              		.type	Cy_Prot_ConfigPpuProgMasterStruct, %function
 1881              	Cy_Prot_ConfigPpuProgMasterStruct:
 1882              	.LFB48:
 636:Generated_Source\PSoC6\pdl\drivers\peripheral\prot/cy_prot.c **** 
 637:Generated_Source\PSoC6\pdl\drivers\peripheral\prot/cy_prot.c **** 
 638:Generated_Source\PSoC6\pdl\drivers\peripheral\prot/cy_prot.c **** /*******************************************************************************
 639:Generated_Source\PSoC6\pdl\drivers\peripheral\prot/cy_prot.c **** * Function Name: Cy_Prot_ConfigPpuProgMasterStruct
 640:Generated_Source\PSoC6\pdl\drivers\peripheral\prot/cy_prot.c **** ****************************************************************************//**
 641:Generated_Source\PSoC6\pdl\drivers\peripheral\prot/cy_prot.c **** *
 642:Generated_Source\PSoC6\pdl\drivers\peripheral\prot/cy_prot.c **** * \brief Configures a Programmable Peripheral Protection Unit (PPU PROG) master 
 643:Generated_Source\PSoC6\pdl\drivers\peripheral\prot/cy_prot.c **** * protection struct with its protection attributes. 
 644:Generated_Source\PSoC6\pdl\drivers\peripheral\prot/cy_prot.c **** *
 645:Generated_Source\PSoC6\pdl\drivers\peripheral\prot/cy_prot.c **** * This function configures the master struct governing the corresponding slave
 646:Generated_Source\PSoC6\pdl\drivers\peripheral\prot/cy_prot.c **** * struct pair. It is a mechanism to protect the slave PPU PROG struct. Since
 647:Generated_Source\PSoC6\pdl\drivers\peripheral\prot/cy_prot.c **** * the memory location of the slave struct is known, the address, regionSize and
 648:Generated_Source\PSoC6\pdl\drivers\peripheral\prot/cy_prot.c **** * subregions of the configuration struct are not applicable.
 649:Generated_Source\PSoC6\pdl\drivers\peripheral\prot/cy_prot.c **** *
 650:Generated_Source\PSoC6\pdl\drivers\peripheral\prot/cy_prot.c **** * Note that only the user/privileged write permissions are configurable. The 
 651:Generated_Source\PSoC6\pdl\drivers\peripheral\prot/cy_prot.c **** * read and execute permissions are read-only and cannot be configured.
 652:Generated_Source\PSoC6\pdl\drivers\peripheral\prot/cy_prot.c **** *
 653:Generated_Source\PSoC6\pdl\drivers\peripheral\prot/cy_prot.c **** * \param base
 654:Generated_Source\PSoC6\pdl\drivers\peripheral\prot/cy_prot.c **** * The register base address of the protection struct being configured.
 655:Generated_Source\PSoC6\pdl\drivers\peripheral\prot/cy_prot.c **** * 
 656:Generated_Source\PSoC6\pdl\drivers\peripheral\prot/cy_prot.c **** * \param config
 657:Generated_Source\PSoC6\pdl\drivers\peripheral\prot/cy_prot.c **** * Initialization structure with all the protection attributes.
 658:Generated_Source\PSoC6\pdl\drivers\peripheral\prot/cy_prot.c **** * 
 659:Generated_Source\PSoC6\pdl\drivers\peripheral\prot/cy_prot.c **** * \return
 660:Generated_Source\PSoC6\pdl\drivers\peripheral\prot/cy_prot.c **** * Status of the function call.
 661:Generated_Source\PSoC6\pdl\drivers\peripheral\prot/cy_prot.c **** *
 662:Generated_Source\PSoC6\pdl\drivers\peripheral\prot/cy_prot.c **** *   Status               | Description
 663:Generated_Source\PSoC6\pdl\drivers\peripheral\prot/cy_prot.c **** *   ------------         | -----------
 664:Generated_Source\PSoC6\pdl\drivers\peripheral\prot/cy_prot.c **** *   CY_PROT_SUCCESS      | PPU PROG master struct was successfully configured
 665:Generated_Source\PSoC6\pdl\drivers\peripheral\prot/cy_prot.c **** *   CY_PROT_FAILURE      | The resource is locked
 666:Generated_Source\PSoC6\pdl\drivers\peripheral\prot/cy_prot.c **** *   CY_PROT_BAD_PARAM    | An incorrect/invalid parameter was passed
 667:Generated_Source\PSoC6\pdl\drivers\peripheral\prot/cy_prot.c **** *
 668:Generated_Source\PSoC6\pdl\drivers\peripheral\prot/cy_prot.c **** * \funcusage
 669:Generated_Source\PSoC6\pdl\drivers\peripheral\prot/cy_prot.c **** * \snippet prot/prot_v1_10_sut_01.cydsn/main_cm4.c snippet_Cy_Prot_ConfigPpuProgMasterStruct
 670:Generated_Source\PSoC6\pdl\drivers\peripheral\prot/cy_prot.c **** *
ARM GAS  C:\Users\salaz\AppData\Local\Temp\ccSSnxm1.s 			page 46


 671:Generated_Source\PSoC6\pdl\drivers\peripheral\prot/cy_prot.c **** *******************************************************************************/
 672:Generated_Source\PSoC6\pdl\drivers\peripheral\prot/cy_prot.c **** cy_en_prot_status_t Cy_Prot_ConfigPpuProgMasterStruct(PERI_PPU_PR_Type* base, const cy_stc_ppu_prog
 673:Generated_Source\PSoC6\pdl\drivers\peripheral\prot/cy_prot.c **** {
 1883              		.loc 1 673 0
 1884              		.cfi_startproc
 1885              		@ args = 0, pretend = 0, frame = 16
 1886              		@ frame_needed = 1, uses_anonymous_args = 0
 1887 0000 80B5     		push	{r7, lr}
 1888              		.cfi_def_cfa_offset 8
 1889              		.cfi_offset 7, -8
 1890              		.cfi_offset 14, -4
 1891 0002 84B0     		sub	sp, sp, #16
 1892              		.cfi_def_cfa_offset 24
 1893 0004 00AF     		add	r7, sp, #0
 1894              		.cfi_def_cfa_register 7
 1895 0006 7860     		str	r0, [r7, #4]
 1896 0008 3960     		str	r1, [r7]
 674:Generated_Source\PSoC6\pdl\drivers\peripheral\prot/cy_prot.c ****     cy_en_prot_status_t status;
 675:Generated_Source\PSoC6\pdl\drivers\peripheral\prot/cy_prot.c ****     uint32_t attReg;
 676:Generated_Source\PSoC6\pdl\drivers\peripheral\prot/cy_prot.c ****     
 677:Generated_Source\PSoC6\pdl\drivers\peripheral\prot/cy_prot.c ****     CY_ASSERT_L1(NULL != base);
 1897              		.loc 1 677 0
 1898 000a 7B68     		ldr	r3, [r7, #4]
 1899 000c 002B     		cmp	r3, #0
 1900 000e 05D1     		bne	.L137
 1901              		.loc 1 677 0 is_stmt 0 discriminator 1
 1902 0010 344A     		ldr	r2, .L146
 1903 0012 354B     		ldr	r3, .L146+4
 1904 0014 1100     		movs	r1, r2
 1905 0016 1800     		movs	r0, r3
 1906 0018 FFF7FEFF 		bl	Cy_SysLib_AssertFailed
 1907              	.L137:
 678:Generated_Source\PSoC6\pdl\drivers\peripheral\prot/cy_prot.c ****     CY_ASSERT_L3(CY_PROT_IS_PROG_MS_PERM_VALID(config->userPermission));
 1908              		.loc 1 678 0 is_stmt 1
 1909 001c 3B68     		ldr	r3, [r7]
 1910 001e 9B79     		ldrb	r3, [r3, #6]
 1911 0020 012B     		cmp	r3, #1
 1912 0022 09D0     		beq	.L138
 1913              		.loc 1 678 0 is_stmt 0 discriminator 1
 1914 0024 3B68     		ldr	r3, [r7]
 1915 0026 9B79     		ldrb	r3, [r3, #6]
 1916 0028 032B     		cmp	r3, #3
 1917 002a 05D0     		beq	.L138
 1918              		.loc 1 678 0 discriminator 2
 1919 002c 2F4A     		ldr	r2, .L146+8
 1920 002e 2E4B     		ldr	r3, .L146+4
 1921 0030 1100     		movs	r1, r2
 1922 0032 1800     		movs	r0, r3
 1923 0034 FFF7FEFF 		bl	Cy_SysLib_AssertFailed
 1924              	.L138:
 679:Generated_Source\PSoC6\pdl\drivers\peripheral\prot/cy_prot.c ****     CY_ASSERT_L3(CY_PROT_IS_PROG_MS_PERM_VALID(config->privPermission));
 1925              		.loc 1 679 0 is_stmt 1
 1926 0038 3B68     		ldr	r3, [r7]
 1927 003a DB79     		ldrb	r3, [r3, #7]
 1928 003c 012B     		cmp	r3, #1
 1929 003e 09D0     		beq	.L139
 1930              		.loc 1 679 0 is_stmt 0 discriminator 1
ARM GAS  C:\Users\salaz\AppData\Local\Temp\ccSSnxm1.s 			page 47


 1931 0040 3B68     		ldr	r3, [r7]
 1932 0042 DB79     		ldrb	r3, [r3, #7]
 1933 0044 032B     		cmp	r3, #3
 1934 0046 05D0     		beq	.L139
 1935              		.loc 1 679 0 discriminator 2
 1936 0048 294A     		ldr	r2, .L146+12
 1937 004a 274B     		ldr	r3, .L146+4
 1938 004c 1100     		movs	r1, r2
 1939 004e 1800     		movs	r0, r3
 1940 0050 FFF7FEFF 		bl	Cy_SysLib_AssertFailed
 1941              	.L139:
 680:Generated_Source\PSoC6\pdl\drivers\peripheral\prot/cy_prot.c ****     
 681:Generated_Source\PSoC6\pdl\drivers\peripheral\prot/cy_prot.c ****     if(((uint32_t)config->pcMask & CY_PROT_PPU_PROG_PC_LIMIT_MASK) != 0UL) 
 1942              		.loc 1 681 0 is_stmt 1
 1943 0054 3B68     		ldr	r3, [r7]
 1944 0056 5B89     		ldrh	r3, [r3, #10]
 1945 0058 1A00     		movs	r2, r3
 1946 005a 7F23     		movs	r3, #127
 1947 005c 9A43     		bics	r2, r3
 1948 005e 131E     		subs	r3, r2, #0
 1949 0060 02D0     		beq	.L140
 682:Generated_Source\PSoC6\pdl\drivers\peripheral\prot/cy_prot.c ****     {
 683:Generated_Source\PSoC6\pdl\drivers\peripheral\prot/cy_prot.c ****         /* PC mask out of range - not supported in device */
 684:Generated_Source\PSoC6\pdl\drivers\peripheral\prot/cy_prot.c ****         status = CY_PROT_BAD_PARAM;
 1950              		.loc 1 684 0
 1951 0062 244B     		ldr	r3, .L146+16
 1952 0064 FB60     		str	r3, [r7, #12]
 1953 0066 38E0     		b	.L141
 1954              	.L140:
 685:Generated_Source\PSoC6\pdl\drivers\peripheral\prot/cy_prot.c ****     }
 686:Generated_Source\PSoC6\pdl\drivers\peripheral\prot/cy_prot.c ****     else
 687:Generated_Source\PSoC6\pdl\drivers\peripheral\prot/cy_prot.c ****     {
 688:Generated_Source\PSoC6\pdl\drivers\peripheral\prot/cy_prot.c ****         /* ADDR1 is read only. Only configure ATT1 */
 689:Generated_Source\PSoC6\pdl\drivers\peripheral\prot/cy_prot.c ****         attReg = ((uint32_t)config->userPermission & CY_PROT_ATT_PERMISSION_MASK)
 1955              		.loc 1 689 0
 1956 0068 3B68     		ldr	r3, [r7]
 1957 006a 9B79     		ldrb	r3, [r3, #6]
 1958 006c 1A00     		movs	r2, r3
 1959 006e 0723     		movs	r3, #7
 1960 0070 1A40     		ands	r2, r3
 690:Generated_Source\PSoC6\pdl\drivers\peripheral\prot/cy_prot.c ****                     | (uint32_t)(((uint32_t)config->privPermission & CY_PROT_ATT_PERMISSION_MASK) <
 1961              		.loc 1 690 0
 1962 0072 3B68     		ldr	r3, [r7]
 1963 0074 DB79     		ldrb	r3, [r3, #7]
 1964 0076 DB00     		lsls	r3, r3, #3
 1965 0078 3821     		movs	r1, #56
 1966 007a 0B40     		ands	r3, r1
 1967 007c 1A43     		orrs	r2, r3
 691:Generated_Source\PSoC6\pdl\drivers\peripheral\prot/cy_prot.c ****                     | _VAL2FLD(PERI_PPU_PR_ATT1_NS, !(config->secure))
 1968              		.loc 1 691 0
 1969 007e 3B68     		ldr	r3, [r7]
 1970 0080 1B7A     		ldrb	r3, [r3, #8]
 1971 0082 0121     		movs	r1, #1
 1972 0084 4B40     		eors	r3, r1
 1973 0086 DBB2     		uxtb	r3, r3
 1974 0088 9B01     		lsls	r3, r3, #6
 1975 008a 4021     		movs	r1, #64
ARM GAS  C:\Users\salaz\AppData\Local\Temp\ccSSnxm1.s 			page 48


 1976 008c 0B40     		ands	r3, r1
 1977 008e 1A43     		orrs	r2, r3
 692:Generated_Source\PSoC6\pdl\drivers\peripheral\prot/cy_prot.c ****                     | _VAL2FLD(PERI_PPU_PR_ATT1_PC_MASK_15_TO_1, config->pcMask)
 1978              		.loc 1 692 0
 1979 0090 3B68     		ldr	r3, [r7]
 1980 0092 5B89     		ldrh	r3, [r3, #10]
 1981 0094 5B02     		lsls	r3, r3, #9
 1982 0096 1849     		ldr	r1, .L146+20
 1983 0098 0B40     		ands	r3, r1
 1984 009a 1A43     		orrs	r2, r3
 693:Generated_Source\PSoC6\pdl\drivers\peripheral\prot/cy_prot.c ****                     /* No region size - read only for master structs */
 694:Generated_Source\PSoC6\pdl\drivers\peripheral\prot/cy_prot.c ****                     | _VAL2FLD(PERI_PPU_PR_ATT1_PC_MATCH, config->pcMatch);
 1985              		.loc 1 694 0
 1986 009c 3B68     		ldr	r3, [r7]
 1987 009e 5B7A     		ldrb	r3, [r3, #9]
 1988 00a0 9907     		lsls	r1, r3, #30
 1989 00a2 8023     		movs	r3, #128
 1990 00a4 DB05     		lsls	r3, r3, #23
 1991 00a6 0B40     		ands	r3, r1
 689:Generated_Source\PSoC6\pdl\drivers\peripheral\prot/cy_prot.c ****                     | (uint32_t)(((uint32_t)config->privPermission & CY_PROT_ATT_PERMISSION_MASK) <
 1992              		.loc 1 689 0
 1993 00a8 1343     		orrs	r3, r2
 1994 00aa BB60     		str	r3, [r7, #8]
 695:Generated_Source\PSoC6\pdl\drivers\peripheral\prot/cy_prot.c ****         if ((attReg & CY_PROT_PPU_PROG_ATT1_MASK) != attReg)
 1995              		.loc 1 695 0
 1996 00ac BB68     		ldr	r3, [r7, #8]
 1997 00ae 134A     		ldr	r2, .L146+24
 1998 00b0 1A40     		ands	r2, r3
 1999 00b2 BB68     		ldr	r3, [r7, #8]
 2000 00b4 9A42     		cmp	r2, r3
 2001 00b6 02D0     		beq	.L142
 696:Generated_Source\PSoC6\pdl\drivers\peripheral\prot/cy_prot.c ****         {
 697:Generated_Source\PSoC6\pdl\drivers\peripheral\prot/cy_prot.c ****             /* Invalid parameter was passed */
 698:Generated_Source\PSoC6\pdl\drivers\peripheral\prot/cy_prot.c ****             status = CY_PROT_BAD_PARAM;
 2002              		.loc 1 698 0
 2003 00b8 0E4B     		ldr	r3, .L146+16
 2004 00ba FB60     		str	r3, [r7, #12]
 2005 00bc 0DE0     		b	.L141
 2006              	.L142:
 699:Generated_Source\PSoC6\pdl\drivers\peripheral\prot/cy_prot.c ****         }
 700:Generated_Source\PSoC6\pdl\drivers\peripheral\prot/cy_prot.c ****         else
 701:Generated_Source\PSoC6\pdl\drivers\peripheral\prot/cy_prot.c ****         {
 702:Generated_Source\PSoC6\pdl\drivers\peripheral\prot/cy_prot.c ****             base->ATT1 = attReg;
 2007              		.loc 1 702 0
 2008 00be 7B68     		ldr	r3, [r7, #4]
 2009 00c0 BA68     		ldr	r2, [r7, #8]
 2010 00c2 5A62     		str	r2, [r3, #36]
 703:Generated_Source\PSoC6\pdl\drivers\peripheral\prot/cy_prot.c ****             status = ((base->ATT1 & CY_PROT_PPU_PROG_ATT1_MASK) != attReg) ? CY_PROT_FAILURE : CY_P
 2011              		.loc 1 703 0
 2012 00c4 7B68     		ldr	r3, [r7, #4]
 2013 00c6 5B6A     		ldr	r3, [r3, #36]
 2014 00c8 0C4A     		ldr	r2, .L146+24
 2015 00ca 1A40     		ands	r2, r3
 2016 00cc BB68     		ldr	r3, [r7, #8]
 2017 00ce 9A42     		cmp	r2, r3
 2018 00d0 01D0     		beq	.L143
 2019              		.loc 1 703 0 is_stmt 0 discriminator 1
ARM GAS  C:\Users\salaz\AppData\Local\Temp\ccSSnxm1.s 			page 49


 2020 00d2 0B4B     		ldr	r3, .L146+28
 2021 00d4 00E0     		b	.L144
 2022              	.L143:
 2023              		.loc 1 703 0 discriminator 2
 2024 00d6 0023     		movs	r3, #0
 2025              	.L144:
 2026              		.loc 1 703 0 discriminator 4
 2027 00d8 FB60     		str	r3, [r7, #12]
 2028              	.L141:
 704:Generated_Source\PSoC6\pdl\drivers\peripheral\prot/cy_prot.c ****         }
 705:Generated_Source\PSoC6\pdl\drivers\peripheral\prot/cy_prot.c ****     }
 706:Generated_Source\PSoC6\pdl\drivers\peripheral\prot/cy_prot.c **** 
 707:Generated_Source\PSoC6\pdl\drivers\peripheral\prot/cy_prot.c ****     return status;
 2029              		.loc 1 707 0 is_stmt 1
 2030 00da FB68     		ldr	r3, [r7, #12]
 708:Generated_Source\PSoC6\pdl\drivers\peripheral\prot/cy_prot.c **** }
 2031              		.loc 1 708 0
 2032 00dc 1800     		movs	r0, r3
 2033 00de BD46     		mov	sp, r7
 2034 00e0 04B0     		add	sp, sp, #16
 2035              		@ sp needed
 2036 00e2 80BD     		pop	{r7, pc}
 2037              	.L147:
 2038              		.align	2
 2039              	.L146:
 2040 00e4 A5020000 		.word	677
 2041 00e8 00000000 		.word	.LC0
 2042 00ec A6020000 		.word	678
 2043 00f0 A7020000 		.word	679
 2044 00f4 0100C200 		.word	12713985
 2045 00f8 00FEFF00 		.word	16776704
 2046 00fc DBFEFFE0 		.word	-520093989
 2047 0100 0300C200 		.word	12713987
 2048              		.cfi_endproc
 2049              	.LFE48:
 2050              		.size	Cy_Prot_ConfigPpuProgMasterStruct, .-Cy_Prot_ConfigPpuProgMasterStruct
 2051              		.section	.text.Cy_Prot_ConfigPpuProgSlaveStruct,"ax",%progbits
 2052              		.align	2
 2053              		.global	Cy_Prot_ConfigPpuProgSlaveStruct
 2054              		.code	16
 2055              		.thumb_func
 2056              		.type	Cy_Prot_ConfigPpuProgSlaveStruct, %function
 2057              	Cy_Prot_ConfigPpuProgSlaveStruct:
 2058              	.LFB49:
 709:Generated_Source\PSoC6\pdl\drivers\peripheral\prot/cy_prot.c **** 
 710:Generated_Source\PSoC6\pdl\drivers\peripheral\prot/cy_prot.c **** /*******************************************************************************
 711:Generated_Source\PSoC6\pdl\drivers\peripheral\prot/cy_prot.c **** * Function Name: Cy_Prot_ConfigPpuProgSlaveStruct
 712:Generated_Source\PSoC6\pdl\drivers\peripheral\prot/cy_prot.c **** ****************************************************************************//**
 713:Generated_Source\PSoC6\pdl\drivers\peripheral\prot/cy_prot.c **** *
 714:Generated_Source\PSoC6\pdl\drivers\peripheral\prot/cy_prot.c **** * \brief Configures a Programmable Peripheral Protection Unit (PPU PROG) slave
 715:Generated_Source\PSoC6\pdl\drivers\peripheral\prot/cy_prot.c **** * protection struct with its protection attributes. 
 716:Generated_Source\PSoC6\pdl\drivers\peripheral\prot/cy_prot.c **** * 
 717:Generated_Source\PSoC6\pdl\drivers\peripheral\prot/cy_prot.c **** * This function configures the slave struct of a PPU PROG pair, which can 
 718:Generated_Source\PSoC6\pdl\drivers\peripheral\prot/cy_prot.c **** * protect any peripheral memory region in a device from invalid bus master 
 719:Generated_Source\PSoC6\pdl\drivers\peripheral\prot/cy_prot.c **** * accesses.
 720:Generated_Source\PSoC6\pdl\drivers\peripheral\prot/cy_prot.c **** *
 721:Generated_Source\PSoC6\pdl\drivers\peripheral\prot/cy_prot.c **** * Note that the user/privileged execute accesses are read-only and are always 
ARM GAS  C:\Users\salaz\AppData\Local\Temp\ccSSnxm1.s 			page 50


 722:Generated_Source\PSoC6\pdl\drivers\peripheral\prot/cy_prot.c **** * enabled. 
 723:Generated_Source\PSoC6\pdl\drivers\peripheral\prot/cy_prot.c **** *
 724:Generated_Source\PSoC6\pdl\drivers\peripheral\prot/cy_prot.c **** * \param base
 725:Generated_Source\PSoC6\pdl\drivers\peripheral\prot/cy_prot.c **** * The register base address of the protection structure being configured.
 726:Generated_Source\PSoC6\pdl\drivers\peripheral\prot/cy_prot.c **** * 
 727:Generated_Source\PSoC6\pdl\drivers\peripheral\prot/cy_prot.c **** * \param config
 728:Generated_Source\PSoC6\pdl\drivers\peripheral\prot/cy_prot.c **** * Initialization structure with all the protection attributes.
 729:Generated_Source\PSoC6\pdl\drivers\peripheral\prot/cy_prot.c **** * 
 730:Generated_Source\PSoC6\pdl\drivers\peripheral\prot/cy_prot.c **** * \return
 731:Generated_Source\PSoC6\pdl\drivers\peripheral\prot/cy_prot.c **** * Status of the function call.
 732:Generated_Source\PSoC6\pdl\drivers\peripheral\prot/cy_prot.c **** *
 733:Generated_Source\PSoC6\pdl\drivers\peripheral\prot/cy_prot.c **** *   Status               | Description
 734:Generated_Source\PSoC6\pdl\drivers\peripheral\prot/cy_prot.c **** *   ------------         | -----------
 735:Generated_Source\PSoC6\pdl\drivers\peripheral\prot/cy_prot.c **** *   CY_PROT_SUCCESS      | PPU PROG slave struct was successfully configured
 736:Generated_Source\PSoC6\pdl\drivers\peripheral\prot/cy_prot.c **** *   CY_PROT_FAILURE      | The resource is locked
 737:Generated_Source\PSoC6\pdl\drivers\peripheral\prot/cy_prot.c **** *   CY_PROT_BAD_PARAM    | An incorrect/invalid parameter was passed
 738:Generated_Source\PSoC6\pdl\drivers\peripheral\prot/cy_prot.c **** *
 739:Generated_Source\PSoC6\pdl\drivers\peripheral\prot/cy_prot.c **** * \funcusage
 740:Generated_Source\PSoC6\pdl\drivers\peripheral\prot/cy_prot.c **** * \snippet prot/prot_v1_10_sut_01.cydsn/main_cm4.c snippet_Cy_Prot_ConfigPpuProgSlaveStruct
 741:Generated_Source\PSoC6\pdl\drivers\peripheral\prot/cy_prot.c **** *
 742:Generated_Source\PSoC6\pdl\drivers\peripheral\prot/cy_prot.c **** *******************************************************************************/
 743:Generated_Source\PSoC6\pdl\drivers\peripheral\prot/cy_prot.c **** cy_en_prot_status_t Cy_Prot_ConfigPpuProgSlaveStruct(PERI_PPU_PR_Type* base, const cy_stc_ppu_prog_
 744:Generated_Source\PSoC6\pdl\drivers\peripheral\prot/cy_prot.c **** {
 2059              		.loc 1 744 0
 2060              		.cfi_startproc
 2061              		@ args = 0, pretend = 0, frame = 24
 2062              		@ frame_needed = 1, uses_anonymous_args = 0
 2063 0000 80B5     		push	{r7, lr}
 2064              		.cfi_def_cfa_offset 8
 2065              		.cfi_offset 7, -8
 2066              		.cfi_offset 14, -4
 2067 0002 86B0     		sub	sp, sp, #24
 2068              		.cfi_def_cfa_offset 32
 2069 0004 00AF     		add	r7, sp, #0
 2070              		.cfi_def_cfa_register 7
 2071 0006 7860     		str	r0, [r7, #4]
 2072 0008 3960     		str	r1, [r7]
 745:Generated_Source\PSoC6\pdl\drivers\peripheral\prot/cy_prot.c ****     cy_en_prot_status_t status;
 746:Generated_Source\PSoC6\pdl\drivers\peripheral\prot/cy_prot.c ****     uint32_t addrReg;
 747:Generated_Source\PSoC6\pdl\drivers\peripheral\prot/cy_prot.c ****     uint32_t attReg;
 748:Generated_Source\PSoC6\pdl\drivers\peripheral\prot/cy_prot.c ****     
 749:Generated_Source\PSoC6\pdl\drivers\peripheral\prot/cy_prot.c ****     CY_ASSERT_L1(NULL != base);
 2073              		.loc 1 749 0
 2074 000a 7B68     		ldr	r3, [r7, #4]
 2075 000c 002B     		cmp	r3, #0
 2076 000e 05D1     		bne	.L149
 2077              		.loc 1 749 0 is_stmt 0 discriminator 1
 2078 0010 814A     		ldr	r2, .L160
 2079 0012 824B     		ldr	r3, .L160+4
 2080 0014 1100     		movs	r1, r2
 2081 0016 1800     		movs	r0, r3
 2082 0018 FFF7FEFF 		bl	Cy_SysLib_AssertFailed
 2083              	.L149:
 750:Generated_Source\PSoC6\pdl\drivers\peripheral\prot/cy_prot.c ****     CY_ASSERT_L3(CY_PROT_IS_PROG_SL_PERM_VALID(config->userPermission));
 2084              		.loc 1 750 0 is_stmt 1
 2085 001c 3B68     		ldr	r3, [r7]
 2086 001e 9B79     		ldrb	r3, [r3, #6]
ARM GAS  C:\Users\salaz\AppData\Local\Temp\ccSSnxm1.s 			page 51


 2087 0020 002B     		cmp	r3, #0
 2088 0022 11D0     		beq	.L150
 2089              		.loc 1 750 0 is_stmt 0 discriminator 1
 2090 0024 3B68     		ldr	r3, [r7]
 2091 0026 9B79     		ldrb	r3, [r3, #6]
 2092 0028 012B     		cmp	r3, #1
 2093 002a 0DD0     		beq	.L150
 2094              		.loc 1 750 0 discriminator 2
 2095 002c 3B68     		ldr	r3, [r7]
 2096 002e 9B79     		ldrb	r3, [r3, #6]
 2097 0030 022B     		cmp	r3, #2
 2098 0032 09D0     		beq	.L150
 2099              		.loc 1 750 0 discriminator 3
 2100 0034 3B68     		ldr	r3, [r7]
 2101 0036 9B79     		ldrb	r3, [r3, #6]
 2102 0038 032B     		cmp	r3, #3
 2103 003a 05D0     		beq	.L150
 2104              		.loc 1 750 0 discriminator 4
 2105 003c 784A     		ldr	r2, .L160+8
 2106 003e 774B     		ldr	r3, .L160+4
 2107 0040 1100     		movs	r1, r2
 2108 0042 1800     		movs	r0, r3
 2109 0044 FFF7FEFF 		bl	Cy_SysLib_AssertFailed
 2110              	.L150:
 751:Generated_Source\PSoC6\pdl\drivers\peripheral\prot/cy_prot.c ****     CY_ASSERT_L3(CY_PROT_IS_PROG_SL_PERM_VALID(config->privPermission));
 2111              		.loc 1 751 0 is_stmt 1
 2112 0048 3B68     		ldr	r3, [r7]
 2113 004a DB79     		ldrb	r3, [r3, #7]
 2114 004c 002B     		cmp	r3, #0
 2115 004e 11D0     		beq	.L151
 2116              		.loc 1 751 0 is_stmt 0 discriminator 1
 2117 0050 3B68     		ldr	r3, [r7]
 2118 0052 DB79     		ldrb	r3, [r3, #7]
 2119 0054 012B     		cmp	r3, #1
 2120 0056 0DD0     		beq	.L151
 2121              		.loc 1 751 0 discriminator 2
 2122 0058 3B68     		ldr	r3, [r7]
 2123 005a DB79     		ldrb	r3, [r3, #7]
 2124 005c 022B     		cmp	r3, #2
 2125 005e 09D0     		beq	.L151
 2126              		.loc 1 751 0 discriminator 3
 2127 0060 3B68     		ldr	r3, [r7]
 2128 0062 DB79     		ldrb	r3, [r3, #7]
 2129 0064 032B     		cmp	r3, #3
 2130 0066 05D0     		beq	.L151
 2131              		.loc 1 751 0 discriminator 4
 2132 0068 6E4A     		ldr	r2, .L160+12
 2133 006a 6C4B     		ldr	r3, .L160+4
 2134 006c 1100     		movs	r1, r2
 2135 006e 1800     		movs	r0, r3
 2136 0070 FFF7FEFF 		bl	Cy_SysLib_AssertFailed
 2137              	.L151:
 752:Generated_Source\PSoC6\pdl\drivers\peripheral\prot/cy_prot.c ****     CY_ASSERT_L3(CY_PROT_IS_REGION_SIZE_VALID(config->regionSize));
 2138              		.loc 1 752 0 is_stmt 1
 2139 0074 3B68     		ldr	r3, [r7]
 2140 0076 1B79     		ldrb	r3, [r3, #4]
 2141 0078 072B     		cmp	r3, #7
ARM GAS  C:\Users\salaz\AppData\Local\Temp\ccSSnxm1.s 			page 52


 2142 007a 00D1     		bne	.LCB1839
 2143 007c 69E0     		b	.L152	@long jump
 2144              	.LCB1839:
 2145              		.loc 1 752 0 is_stmt 0 discriminator 1
 2146 007e 3B68     		ldr	r3, [r7]
 2147 0080 1B79     		ldrb	r3, [r3, #4]
 2148 0082 082B     		cmp	r3, #8
 2149 0084 00D1     		bne	.LCB1843
 2150 0086 64E0     		b	.L152	@long jump
 2151              	.LCB1843:
 2152              		.loc 1 752 0 discriminator 2
 2153 0088 3B68     		ldr	r3, [r7]
 2154 008a 1B79     		ldrb	r3, [r3, #4]
 2155 008c 092B     		cmp	r3, #9
 2156 008e 00D1     		bne	.LCB1847
 2157 0090 5FE0     		b	.L152	@long jump
 2158              	.LCB1847:
 2159              		.loc 1 752 0 discriminator 3
 2160 0092 3B68     		ldr	r3, [r7]
 2161 0094 1B79     		ldrb	r3, [r3, #4]
 2162 0096 0A2B     		cmp	r3, #10
 2163 0098 00D1     		bne	.LCB1851
 2164 009a 5AE0     		b	.L152	@long jump
 2165              	.LCB1851:
 2166              		.loc 1 752 0 discriminator 4
 2167 009c 3B68     		ldr	r3, [r7]
 2168 009e 1B79     		ldrb	r3, [r3, #4]
 2169 00a0 0B2B     		cmp	r3, #11
 2170 00a2 56D0     		beq	.L152
 2171              		.loc 1 752 0 discriminator 5
 2172 00a4 3B68     		ldr	r3, [r7]
 2173 00a6 1B79     		ldrb	r3, [r3, #4]
 2174 00a8 0C2B     		cmp	r3, #12
 2175 00aa 52D0     		beq	.L152
 2176              		.loc 1 752 0 discriminator 6
 2177 00ac 3B68     		ldr	r3, [r7]
 2178 00ae 1B79     		ldrb	r3, [r3, #4]
 2179 00b0 0D2B     		cmp	r3, #13
 2180 00b2 4ED0     		beq	.L152
 2181              		.loc 1 752 0 discriminator 7
 2182 00b4 3B68     		ldr	r3, [r7]
 2183 00b6 1B79     		ldrb	r3, [r3, #4]
 2184 00b8 0E2B     		cmp	r3, #14
 2185 00ba 4AD0     		beq	.L152
 2186              		.loc 1 752 0 discriminator 8
 2187 00bc 3B68     		ldr	r3, [r7]
 2188 00be 1B79     		ldrb	r3, [r3, #4]
 2189 00c0 0F2B     		cmp	r3, #15
 2190 00c2 46D0     		beq	.L152
 2191              		.loc 1 752 0 discriminator 9
 2192 00c4 3B68     		ldr	r3, [r7]
 2193 00c6 1B79     		ldrb	r3, [r3, #4]
 2194 00c8 102B     		cmp	r3, #16
 2195 00ca 42D0     		beq	.L152
 2196              		.loc 1 752 0 discriminator 10
 2197 00cc 3B68     		ldr	r3, [r7]
 2198 00ce 1B79     		ldrb	r3, [r3, #4]
ARM GAS  C:\Users\salaz\AppData\Local\Temp\ccSSnxm1.s 			page 53


 2199 00d0 112B     		cmp	r3, #17
 2200 00d2 3ED0     		beq	.L152
 2201              		.loc 1 752 0 discriminator 11
 2202 00d4 3B68     		ldr	r3, [r7]
 2203 00d6 1B79     		ldrb	r3, [r3, #4]
 2204 00d8 122B     		cmp	r3, #18
 2205 00da 3AD0     		beq	.L152
 2206              		.loc 1 752 0 discriminator 12
 2207 00dc 3B68     		ldr	r3, [r7]
 2208 00de 1B79     		ldrb	r3, [r3, #4]
 2209 00e0 132B     		cmp	r3, #19
 2210 00e2 36D0     		beq	.L152
 2211              		.loc 1 752 0 discriminator 13
 2212 00e4 3B68     		ldr	r3, [r7]
 2213 00e6 1B79     		ldrb	r3, [r3, #4]
 2214 00e8 142B     		cmp	r3, #20
 2215 00ea 32D0     		beq	.L152
 2216              		.loc 1 752 0 discriminator 14
 2217 00ec 3B68     		ldr	r3, [r7]
 2218 00ee 1B79     		ldrb	r3, [r3, #4]
 2219 00f0 152B     		cmp	r3, #21
 2220 00f2 2ED0     		beq	.L152
 2221              		.loc 1 752 0 discriminator 15
 2222 00f4 3B68     		ldr	r3, [r7]
 2223 00f6 1B79     		ldrb	r3, [r3, #4]
 2224 00f8 162B     		cmp	r3, #22
 2225 00fa 2AD0     		beq	.L152
 2226              		.loc 1 752 0 discriminator 16
 2227 00fc 3B68     		ldr	r3, [r7]
 2228 00fe 1B79     		ldrb	r3, [r3, #4]
 2229 0100 172B     		cmp	r3, #23
 2230 0102 26D0     		beq	.L152
 2231              		.loc 1 752 0 discriminator 17
 2232 0104 3B68     		ldr	r3, [r7]
 2233 0106 1B79     		ldrb	r3, [r3, #4]
 2234 0108 182B     		cmp	r3, #24
 2235 010a 22D0     		beq	.L152
 2236              		.loc 1 752 0 discriminator 18
 2237 010c 3B68     		ldr	r3, [r7]
 2238 010e 1B79     		ldrb	r3, [r3, #4]
 2239 0110 192B     		cmp	r3, #25
 2240 0112 1ED0     		beq	.L152
 2241              		.loc 1 752 0 discriminator 19
 2242 0114 3B68     		ldr	r3, [r7]
 2243 0116 1B79     		ldrb	r3, [r3, #4]
 2244 0118 1A2B     		cmp	r3, #26
 2245 011a 1AD0     		beq	.L152
 2246              		.loc 1 752 0 discriminator 20
 2247 011c 3B68     		ldr	r3, [r7]
 2248 011e 1B79     		ldrb	r3, [r3, #4]
 2249 0120 1B2B     		cmp	r3, #27
 2250 0122 16D0     		beq	.L152
 2251              		.loc 1 752 0 discriminator 21
 2252 0124 3B68     		ldr	r3, [r7]
 2253 0126 1B79     		ldrb	r3, [r3, #4]
 2254 0128 1C2B     		cmp	r3, #28
 2255 012a 12D0     		beq	.L152
ARM GAS  C:\Users\salaz\AppData\Local\Temp\ccSSnxm1.s 			page 54


 2256              		.loc 1 752 0 discriminator 22
 2257 012c 3B68     		ldr	r3, [r7]
 2258 012e 1B79     		ldrb	r3, [r3, #4]
 2259 0130 1D2B     		cmp	r3, #29
 2260 0132 0ED0     		beq	.L152
 2261              		.loc 1 752 0 discriminator 23
 2262 0134 3B68     		ldr	r3, [r7]
 2263 0136 1B79     		ldrb	r3, [r3, #4]
 2264 0138 1E2B     		cmp	r3, #30
 2265 013a 0AD0     		beq	.L152
 2266              		.loc 1 752 0 discriminator 24
 2267 013c 3B68     		ldr	r3, [r7]
 2268 013e 1B79     		ldrb	r3, [r3, #4]
 2269 0140 1F2B     		cmp	r3, #31
 2270 0142 06D0     		beq	.L152
 2271              		.loc 1 752 0 discriminator 25
 2272 0144 BC23     		movs	r3, #188
 2273 0146 9A00     		lsls	r2, r3, #2
 2274 0148 344B     		ldr	r3, .L160+4
 2275 014a 1100     		movs	r1, r2
 2276 014c 1800     		movs	r0, r3
 2277 014e FFF7FEFF 		bl	Cy_SysLib_AssertFailed
 2278              	.L152:
 753:Generated_Source\PSoC6\pdl\drivers\peripheral\prot/cy_prot.c **** 
 754:Generated_Source\PSoC6\pdl\drivers\peripheral\prot/cy_prot.c ****     if(((uint32_t)config->pcMask & CY_PROT_PPU_PROG_PC_LIMIT_MASK) != 0UL) 
 2279              		.loc 1 754 0 is_stmt 1
 2280 0152 3B68     		ldr	r3, [r7]
 2281 0154 5B89     		ldrh	r3, [r3, #10]
 2282 0156 1A00     		movs	r2, r3
 2283 0158 7F23     		movs	r3, #127
 2284 015a 9A43     		bics	r2, r3
 2285 015c 131E     		subs	r3, r2, #0
 2286 015e 02D0     		beq	.L153
 755:Generated_Source\PSoC6\pdl\drivers\peripheral\prot/cy_prot.c ****     {
 756:Generated_Source\PSoC6\pdl\drivers\peripheral\prot/cy_prot.c ****         /* PC mask out of range - not supported in device */
 757:Generated_Source\PSoC6\pdl\drivers\peripheral\prot/cy_prot.c ****         status = CY_PROT_BAD_PARAM;
 2287              		.loc 1 757 0
 2288 0160 314B     		ldr	r3, .L160+16
 2289 0162 7B61     		str	r3, [r7, #20]
 2290 0164 52E0     		b	.L154
 2291              	.L153:
 758:Generated_Source\PSoC6\pdl\drivers\peripheral\prot/cy_prot.c ****     }
 759:Generated_Source\PSoC6\pdl\drivers\peripheral\prot/cy_prot.c ****     else
 760:Generated_Source\PSoC6\pdl\drivers\peripheral\prot/cy_prot.c ****     {
 761:Generated_Source\PSoC6\pdl\drivers\peripheral\prot/cy_prot.c ****         addrReg= _VAL2FLD(PERI_PPU_PR_ADDR0_SUBREGION_DISABLE, config->subregions)
 2292              		.loc 1 761 0
 2293 0166 3B68     		ldr	r3, [r7]
 2294 0168 5B79     		ldrb	r3, [r3, #5]
 2295 016a 1A00     		movs	r2, r3
 762:Generated_Source\PSoC6\pdl\drivers\peripheral\prot/cy_prot.c ****                     | _VAL2FLD(PERI_PPU_PR_ADDR0_ADDR24, (uint32_t)((uint32_t)config->address >> CY
 2296              		.loc 1 762 0
 2297 016c 3B68     		ldr	r3, [r7]
 2298 016e 1B68     		ldr	r3, [r3]
 2299 0170 1900     		movs	r1, r3
 2300 0172 FF23     		movs	r3, #255
 2301 0174 9943     		bics	r1, r3
 2302 0176 0B00     		movs	r3, r1
ARM GAS  C:\Users\salaz\AppData\Local\Temp\ccSSnxm1.s 			page 55


 761:Generated_Source\PSoC6\pdl\drivers\peripheral\prot/cy_prot.c ****                     | _VAL2FLD(PERI_PPU_PR_ADDR0_ADDR24, (uint32_t)((uint32_t)config->address >> CY
 2303              		.loc 1 761 0
 2304 0178 1343     		orrs	r3, r2
 2305 017a 3B61     		str	r3, [r7, #16]
 763:Generated_Source\PSoC6\pdl\drivers\peripheral\prot/cy_prot.c ****         attReg= ((uint32_t)config->userPermission & CY_PROT_ATT_PERMISSION_MASK)
 2306              		.loc 1 763 0
 2307 017c 3B68     		ldr	r3, [r7]
 2308 017e 9B79     		ldrb	r3, [r3, #6]
 2309 0180 1A00     		movs	r2, r3
 2310 0182 0723     		movs	r3, #7
 2311 0184 1A40     		ands	r2, r3
 764:Generated_Source\PSoC6\pdl\drivers\peripheral\prot/cy_prot.c ****                     | (uint32_t)(((uint32_t)config->privPermission & CY_PROT_ATT_PERMISSION_MASK) <
 2312              		.loc 1 764 0
 2313 0186 3B68     		ldr	r3, [r7]
 2314 0188 DB79     		ldrb	r3, [r3, #7]
 2315 018a DB00     		lsls	r3, r3, #3
 2316 018c 3821     		movs	r1, #56
 2317 018e 0B40     		ands	r3, r1
 2318 0190 1A43     		orrs	r2, r3
 765:Generated_Source\PSoC6\pdl\drivers\peripheral\prot/cy_prot.c ****                     | _VAL2FLD(PERI_PPU_PR_ATT0_NS, !(config->secure))
 2319              		.loc 1 765 0
 2320 0192 3B68     		ldr	r3, [r7]
 2321 0194 1B7A     		ldrb	r3, [r3, #8]
 2322 0196 0121     		movs	r1, #1
 2323 0198 4B40     		eors	r3, r1
 2324 019a DBB2     		uxtb	r3, r3
 2325 019c 9B01     		lsls	r3, r3, #6
 2326 019e 4021     		movs	r1, #64
 2327 01a0 0B40     		ands	r3, r1
 2328 01a2 1A43     		orrs	r2, r3
 766:Generated_Source\PSoC6\pdl\drivers\peripheral\prot/cy_prot.c ****                     | _VAL2FLD(PERI_PPU_PR_ATT0_PC_MASK_15_TO_1, config->pcMask)
 2329              		.loc 1 766 0
 2330 01a4 3B68     		ldr	r3, [r7]
 2331 01a6 5B89     		ldrh	r3, [r3, #10]
 2332 01a8 5B02     		lsls	r3, r3, #9
 2333 01aa 2049     		ldr	r1, .L160+20
 2334 01ac 0B40     		ands	r3, r1
 2335 01ae 1A43     		orrs	r2, r3
 767:Generated_Source\PSoC6\pdl\drivers\peripheral\prot/cy_prot.c ****                     | _VAL2FLD(PERI_PPU_PR_ATT0_REGION_SIZE, config->regionSize)
 2336              		.loc 1 767 0
 2337 01b0 3B68     		ldr	r3, [r7]
 2338 01b2 1B79     		ldrb	r3, [r3, #4]
 2339 01b4 1906     		lsls	r1, r3, #24
 2340 01b6 F823     		movs	r3, #248
 2341 01b8 5B05     		lsls	r3, r3, #21
 2342 01ba 0B40     		ands	r3, r1
 2343 01bc 1A43     		orrs	r2, r3
 768:Generated_Source\PSoC6\pdl\drivers\peripheral\prot/cy_prot.c ****                     | _VAL2FLD(PERI_PPU_PR_ATT0_PC_MATCH, config->pcMatch);
 2344              		.loc 1 768 0
 2345 01be 3B68     		ldr	r3, [r7]
 2346 01c0 5B7A     		ldrb	r3, [r3, #9]
 2347 01c2 9907     		lsls	r1, r3, #30
 2348 01c4 8023     		movs	r3, #128
 2349 01c6 DB05     		lsls	r3, r3, #23
 2350 01c8 0B40     		ands	r3, r1
 763:Generated_Source\PSoC6\pdl\drivers\peripheral\prot/cy_prot.c ****                     | (uint32_t)(((uint32_t)config->privPermission & CY_PROT_ATT_PERMISSION_MASK) <
 2351              		.loc 1 763 0
ARM GAS  C:\Users\salaz\AppData\Local\Temp\ccSSnxm1.s 			page 56


 2352 01ca 1343     		orrs	r3, r2
 2353 01cc FB60     		str	r3, [r7, #12]
 769:Generated_Source\PSoC6\pdl\drivers\peripheral\prot/cy_prot.c ****         if ((attReg & CY_PROT_PPU_PROG_ATT0_MASK) != attReg)
 2354              		.loc 1 769 0
 2355 01ce FB68     		ldr	r3, [r7, #12]
 2356 01d0 174A     		ldr	r2, .L160+24
 2357 01d2 1A40     		ands	r2, r3
 2358 01d4 FB68     		ldr	r3, [r7, #12]
 2359 01d6 9A42     		cmp	r2, r3
 2360 01d8 02D0     		beq	.L155
 770:Generated_Source\PSoC6\pdl\drivers\peripheral\prot/cy_prot.c ****         {
 771:Generated_Source\PSoC6\pdl\drivers\peripheral\prot/cy_prot.c ****             /* Invalid parameter was passed */
 772:Generated_Source\PSoC6\pdl\drivers\peripheral\prot/cy_prot.c ****             status = CY_PROT_BAD_PARAM;
 2361              		.loc 1 772 0
 2362 01da 134B     		ldr	r3, .L160+16
 2363 01dc 7B61     		str	r3, [r7, #20]
 2364 01de 15E0     		b	.L154
 2365              	.L155:
 773:Generated_Source\PSoC6\pdl\drivers\peripheral\prot/cy_prot.c ****         }
 774:Generated_Source\PSoC6\pdl\drivers\peripheral\prot/cy_prot.c ****         else
 775:Generated_Source\PSoC6\pdl\drivers\peripheral\prot/cy_prot.c ****         {
 776:Generated_Source\PSoC6\pdl\drivers\peripheral\prot/cy_prot.c ****             base->ATT0 = attReg;
 2366              		.loc 1 776 0
 2367 01e0 7B68     		ldr	r3, [r7, #4]
 2368 01e2 FA68     		ldr	r2, [r7, #12]
 2369 01e4 5A60     		str	r2, [r3, #4]
 777:Generated_Source\PSoC6\pdl\drivers\peripheral\prot/cy_prot.c ****             base->ADDR0 = addrReg;
 2370              		.loc 1 777 0
 2371 01e6 7B68     		ldr	r3, [r7, #4]
 2372 01e8 3A69     		ldr	r2, [r7, #16]
 2373 01ea 1A60     		str	r2, [r3]
 778:Generated_Source\PSoC6\pdl\drivers\peripheral\prot/cy_prot.c ****             status = ((base->ADDR0 != addrReg) || ((base->ATT0 & CY_PROT_PPU_PROG_ATT0_MASK) != att
 2374              		.loc 1 778 0
 2375 01ec 7B68     		ldr	r3, [r7, #4]
 2376 01ee 1A68     		ldr	r2, [r3]
 2377 01f0 3B69     		ldr	r3, [r7, #16]
 2378 01f2 9A42     		cmp	r2, r3
 2379 01f4 06D1     		bne	.L156
 2380              		.loc 1 778 0 is_stmt 0 discriminator 2
 2381 01f6 7B68     		ldr	r3, [r7, #4]
 2382 01f8 5B68     		ldr	r3, [r3, #4]
 2383 01fa 0D4A     		ldr	r2, .L160+24
 2384 01fc 1A40     		ands	r2, r3
 2385 01fe FB68     		ldr	r3, [r7, #12]
 2386 0200 9A42     		cmp	r2, r3
 2387 0202 01D0     		beq	.L157
 2388              	.L156:
 2389              		.loc 1 778 0 discriminator 3
 2390 0204 0B4B     		ldr	r3, .L160+28
 2391 0206 00E0     		b	.L158
 2392              	.L157:
 2393              		.loc 1 778 0 discriminator 4
 2394 0208 0023     		movs	r3, #0
 2395              	.L158:
 2396              		.loc 1 778 0 discriminator 6
 2397 020a 7B61     		str	r3, [r7, #20]
 2398              	.L154:
ARM GAS  C:\Users\salaz\AppData\Local\Temp\ccSSnxm1.s 			page 57


 779:Generated_Source\PSoC6\pdl\drivers\peripheral\prot/cy_prot.c ****                         ? CY_PROT_FAILURE : CY_PROT_SUCCESS;
 780:Generated_Source\PSoC6\pdl\drivers\peripheral\prot/cy_prot.c ****         }
 781:Generated_Source\PSoC6\pdl\drivers\peripheral\prot/cy_prot.c ****     }
 782:Generated_Source\PSoC6\pdl\drivers\peripheral\prot/cy_prot.c ****     
 783:Generated_Source\PSoC6\pdl\drivers\peripheral\prot/cy_prot.c ****     return status;
 2399              		.loc 1 783 0 is_stmt 1
 2400 020c 7B69     		ldr	r3, [r7, #20]
 784:Generated_Source\PSoC6\pdl\drivers\peripheral\prot/cy_prot.c **** }
 2401              		.loc 1 784 0
 2402 020e 1800     		movs	r0, r3
 2403 0210 BD46     		mov	sp, r7
 2404 0212 06B0     		add	sp, sp, #24
 2405              		@ sp needed
 2406 0214 80BD     		pop	{r7, pc}
 2407              	.L161:
 2408 0216 C046     		.align	2
 2409              	.L160:
 2410 0218 ED020000 		.word	749
 2411 021c 00000000 		.word	.LC0
 2412 0220 EE020000 		.word	750
 2413 0224 EF020000 		.word	751
 2414 0228 0100C200 		.word	12713985
 2415 022c 00FEFF00 		.word	16776704
 2416 0230 DBFEFFFF 		.word	-293
 2417 0234 0300C200 		.word	12713987
 2418              		.cfi_endproc
 2419              	.LFE49:
 2420              		.size	Cy_Prot_ConfigPpuProgSlaveStruct, .-Cy_Prot_ConfigPpuProgSlaveStruct
 2421              		.section	.text.Cy_Prot_EnablePpuProgMasterStruct,"ax",%progbits
 2422              		.align	2
 2423              		.global	Cy_Prot_EnablePpuProgMasterStruct
 2424              		.code	16
 2425              		.thumb_func
 2426              		.type	Cy_Prot_EnablePpuProgMasterStruct, %function
 2427              	Cy_Prot_EnablePpuProgMasterStruct:
 2428              	.LFB50:
 785:Generated_Source\PSoC6\pdl\drivers\peripheral\prot/cy_prot.c **** 
 786:Generated_Source\PSoC6\pdl\drivers\peripheral\prot/cy_prot.c **** 
 787:Generated_Source\PSoC6\pdl\drivers\peripheral\prot/cy_prot.c **** /*******************************************************************************
 788:Generated_Source\PSoC6\pdl\drivers\peripheral\prot/cy_prot.c **** * Function Name: Cy_Prot_EnablePpuProgMasterStruct
 789:Generated_Source\PSoC6\pdl\drivers\peripheral\prot/cy_prot.c **** ****************************************************************************//**
 790:Generated_Source\PSoC6\pdl\drivers\peripheral\prot/cy_prot.c **** *
 791:Generated_Source\PSoC6\pdl\drivers\peripheral\prot/cy_prot.c **** * \brief Enables the Master PPU PROG structure.
 792:Generated_Source\PSoC6\pdl\drivers\peripheral\prot/cy_prot.c **** *
 793:Generated_Source\PSoC6\pdl\drivers\peripheral\prot/cy_prot.c **** * This is a PPU PROG master struct enable function. The PPU PROG protection 
 794:Generated_Source\PSoC6\pdl\drivers\peripheral\prot/cy_prot.c **** * settings will take effect after successful completion of this function call.
 795:Generated_Source\PSoC6\pdl\drivers\peripheral\prot/cy_prot.c **** *
 796:Generated_Source\PSoC6\pdl\drivers\peripheral\prot/cy_prot.c **** * \param base
 797:Generated_Source\PSoC6\pdl\drivers\peripheral\prot/cy_prot.c **** * The base address for the protection unit structure being configured. 
 798:Generated_Source\PSoC6\pdl\drivers\peripheral\prot/cy_prot.c **** *
 799:Generated_Source\PSoC6\pdl\drivers\peripheral\prot/cy_prot.c **** * \return
 800:Generated_Source\PSoC6\pdl\drivers\peripheral\prot/cy_prot.c **** * Status of the function call.
 801:Generated_Source\PSoC6\pdl\drivers\peripheral\prot/cy_prot.c **** *
 802:Generated_Source\PSoC6\pdl\drivers\peripheral\prot/cy_prot.c **** *   Status               | Description
 803:Generated_Source\PSoC6\pdl\drivers\peripheral\prot/cy_prot.c **** *   ------------         | -----------
 804:Generated_Source\PSoC6\pdl\drivers\peripheral\prot/cy_prot.c **** *   CY_PROT_SUCCESS      | The Master PU struct was enabled
 805:Generated_Source\PSoC6\pdl\drivers\peripheral\prot/cy_prot.c **** *   CY_PROT_FAILURE      | The Master PU struct is disabled and possibly locked
ARM GAS  C:\Users\salaz\AppData\Local\Temp\ccSSnxm1.s 			page 58


 806:Generated_Source\PSoC6\pdl\drivers\peripheral\prot/cy_prot.c **** *
 807:Generated_Source\PSoC6\pdl\drivers\peripheral\prot/cy_prot.c **** * \funcusage
 808:Generated_Source\PSoC6\pdl\drivers\peripheral\prot/cy_prot.c **** * \snippet prot/prot_v1_10_sut_01.cydsn/main_cm4.c snippet_Cy_Prot_EnablePpuProgMasterStruct
 809:Generated_Source\PSoC6\pdl\drivers\peripheral\prot/cy_prot.c **** *
 810:Generated_Source\PSoC6\pdl\drivers\peripheral\prot/cy_prot.c **** *******************************************************************************/
 811:Generated_Source\PSoC6\pdl\drivers\peripheral\prot/cy_prot.c **** cy_en_prot_status_t Cy_Prot_EnablePpuProgMasterStruct(PERI_PPU_PR_Type* base)
 812:Generated_Source\PSoC6\pdl\drivers\peripheral\prot/cy_prot.c **** {
 2429              		.loc 1 812 0
 2430              		.cfi_startproc
 2431              		@ args = 0, pretend = 0, frame = 16
 2432              		@ frame_needed = 1, uses_anonymous_args = 0
 2433 0000 80B5     		push	{r7, lr}
 2434              		.cfi_def_cfa_offset 8
 2435              		.cfi_offset 7, -8
 2436              		.cfi_offset 14, -4
 2437 0002 84B0     		sub	sp, sp, #16
 2438              		.cfi_def_cfa_offset 24
 2439 0004 00AF     		add	r7, sp, #0
 2440              		.cfi_def_cfa_register 7
 2441 0006 7860     		str	r0, [r7, #4]
 813:Generated_Source\PSoC6\pdl\drivers\peripheral\prot/cy_prot.c ****     cy_en_prot_status_t status;
 814:Generated_Source\PSoC6\pdl\drivers\peripheral\prot/cy_prot.c ****     
 815:Generated_Source\PSoC6\pdl\drivers\peripheral\prot/cy_prot.c ****     base->ATT1 |= _VAL2FLD(PERI_PPU_PR_ATT1_ENABLED, CY_PROT_STRUCT_ENABLE);
 2442              		.loc 1 815 0
 2443 0008 7B68     		ldr	r3, [r7, #4]
 2444 000a 5B6A     		ldr	r3, [r3, #36]
 2445 000c 8022     		movs	r2, #128
 2446 000e 1206     		lsls	r2, r2, #24
 2447 0010 1A43     		orrs	r2, r3
 2448 0012 7B68     		ldr	r3, [r7, #4]
 2449 0014 5A62     		str	r2, [r3, #36]
 816:Generated_Source\PSoC6\pdl\drivers\peripheral\prot/cy_prot.c ****     status = (_FLD2VAL(PERI_PPU_PR_ATT1_ENABLED, base->ATT1) != CY_PROT_STRUCT_ENABLE) ?
 2450              		.loc 1 816 0
 2451 0016 7B68     		ldr	r3, [r7, #4]
 2452 0018 5B6A     		ldr	r3, [r3, #36]
 2453 001a DB0F     		lsrs	r3, r3, #31
 2454 001c DB07     		lsls	r3, r3, #31
 2455 001e DB0F     		lsrs	r3, r3, #31
 2456 0020 012B     		cmp	r3, #1
 2457 0022 01D0     		beq	.L163
 2458              		.loc 1 816 0 is_stmt 0 discriminator 1
 2459 0024 044B     		ldr	r3, .L166
 2460 0026 00E0     		b	.L164
 2461              	.L163:
 2462              		.loc 1 816 0 discriminator 2
 2463 0028 0023     		movs	r3, #0
 2464              	.L164:
 2465              		.loc 1 816 0 discriminator 4
 2466 002a FB60     		str	r3, [r7, #12]
 817:Generated_Source\PSoC6\pdl\drivers\peripheral\prot/cy_prot.c ****                 CY_PROT_FAILURE : CY_PROT_SUCCESS;
 818:Generated_Source\PSoC6\pdl\drivers\peripheral\prot/cy_prot.c ****     
 819:Generated_Source\PSoC6\pdl\drivers\peripheral\prot/cy_prot.c ****     return status;
 2467              		.loc 1 819 0 is_stmt 1 discriminator 4
 2468 002c FB68     		ldr	r3, [r7, #12]
 820:Generated_Source\PSoC6\pdl\drivers\peripheral\prot/cy_prot.c **** }
 2469              		.loc 1 820 0 discriminator 4
 2470 002e 1800     		movs	r0, r3
ARM GAS  C:\Users\salaz\AppData\Local\Temp\ccSSnxm1.s 			page 59


 2471 0030 BD46     		mov	sp, r7
 2472 0032 04B0     		add	sp, sp, #16
 2473              		@ sp needed
 2474 0034 80BD     		pop	{r7, pc}
 2475              	.L167:
 2476 0036 C046     		.align	2
 2477              	.L166:
 2478 0038 0300C200 		.word	12713987
 2479              		.cfi_endproc
 2480              	.LFE50:
 2481              		.size	Cy_Prot_EnablePpuProgMasterStruct, .-Cy_Prot_EnablePpuProgMasterStruct
 2482              		.section	.text.Cy_Prot_DisablePpuProgMasterStruct,"ax",%progbits
 2483              		.align	2
 2484              		.global	Cy_Prot_DisablePpuProgMasterStruct
 2485              		.code	16
 2486              		.thumb_func
 2487              		.type	Cy_Prot_DisablePpuProgMasterStruct, %function
 2488              	Cy_Prot_DisablePpuProgMasterStruct:
 2489              	.LFB51:
 821:Generated_Source\PSoC6\pdl\drivers\peripheral\prot/cy_prot.c **** 
 822:Generated_Source\PSoC6\pdl\drivers\peripheral\prot/cy_prot.c **** 
 823:Generated_Source\PSoC6\pdl\drivers\peripheral\prot/cy_prot.c **** /*******************************************************************************
 824:Generated_Source\PSoC6\pdl\drivers\peripheral\prot/cy_prot.c **** * Function Name: Cy_Prot_DisablePpuProgMasterStruct
 825:Generated_Source\PSoC6\pdl\drivers\peripheral\prot/cy_prot.c **** ****************************************************************************//**
 826:Generated_Source\PSoC6\pdl\drivers\peripheral\prot/cy_prot.c **** *
 827:Generated_Source\PSoC6\pdl\drivers\peripheral\prot/cy_prot.c **** * \brief Disables the Master PPU PROG structure.
 828:Generated_Source\PSoC6\pdl\drivers\peripheral\prot/cy_prot.c **** *
 829:Generated_Source\PSoC6\pdl\drivers\peripheral\prot/cy_prot.c **** * This is a PPU PROG master struct disable function. The PPU PROG protection 
 830:Generated_Source\PSoC6\pdl\drivers\peripheral\prot/cy_prot.c **** * settings will seize to take effect after successful completion of this 
 831:Generated_Source\PSoC6\pdl\drivers\peripheral\prot/cy_prot.c **** * function call.
 832:Generated_Source\PSoC6\pdl\drivers\peripheral\prot/cy_prot.c **** *
 833:Generated_Source\PSoC6\pdl\drivers\peripheral\prot/cy_prot.c **** * \param base
 834:Generated_Source\PSoC6\pdl\drivers\peripheral\prot/cy_prot.c **** * The base address for the protection unit structure being configured. 
 835:Generated_Source\PSoC6\pdl\drivers\peripheral\prot/cy_prot.c **** *
 836:Generated_Source\PSoC6\pdl\drivers\peripheral\prot/cy_prot.c **** * \return
 837:Generated_Source\PSoC6\pdl\drivers\peripheral\prot/cy_prot.c **** * Status of the function call.
 838:Generated_Source\PSoC6\pdl\drivers\peripheral\prot/cy_prot.c **** *
 839:Generated_Source\PSoC6\pdl\drivers\peripheral\prot/cy_prot.c **** *   Status               | Description
 840:Generated_Source\PSoC6\pdl\drivers\peripheral\prot/cy_prot.c **** *   ------------         | -----------
 841:Generated_Source\PSoC6\pdl\drivers\peripheral\prot/cy_prot.c **** *   CY_PROT_SUCCESS      | The Master PU struct was disabled
 842:Generated_Source\PSoC6\pdl\drivers\peripheral\prot/cy_prot.c **** *   CY_PROT_FAILURE      | The Master PU struct is enabled and possibly locked
 843:Generated_Source\PSoC6\pdl\drivers\peripheral\prot/cy_prot.c **** *
 844:Generated_Source\PSoC6\pdl\drivers\peripheral\prot/cy_prot.c **** * \funcusage
 845:Generated_Source\PSoC6\pdl\drivers\peripheral\prot/cy_prot.c **** * \snippet prot/prot_v1_10_sut_01.cydsn/main_cm4.c snippet_Cy_Prot_DisablePpuProgMasterStruct
 846:Generated_Source\PSoC6\pdl\drivers\peripheral\prot/cy_prot.c **** *
 847:Generated_Source\PSoC6\pdl\drivers\peripheral\prot/cy_prot.c **** *******************************************************************************/
 848:Generated_Source\PSoC6\pdl\drivers\peripheral\prot/cy_prot.c **** cy_en_prot_status_t Cy_Prot_DisablePpuProgMasterStruct(PERI_PPU_PR_Type* base)
 849:Generated_Source\PSoC6\pdl\drivers\peripheral\prot/cy_prot.c **** {
 2490              		.loc 1 849 0
 2491              		.cfi_startproc
 2492              		@ args = 0, pretend = 0, frame = 16
 2493              		@ frame_needed = 1, uses_anonymous_args = 0
 2494 0000 80B5     		push	{r7, lr}
 2495              		.cfi_def_cfa_offset 8
 2496              		.cfi_offset 7, -8
 2497              		.cfi_offset 14, -4
 2498 0002 84B0     		sub	sp, sp, #16
ARM GAS  C:\Users\salaz\AppData\Local\Temp\ccSSnxm1.s 			page 60


 2499              		.cfi_def_cfa_offset 24
 2500 0004 00AF     		add	r7, sp, #0
 2501              		.cfi_def_cfa_register 7
 2502 0006 7860     		str	r0, [r7, #4]
 850:Generated_Source\PSoC6\pdl\drivers\peripheral\prot/cy_prot.c ****     cy_en_prot_status_t status;
 851:Generated_Source\PSoC6\pdl\drivers\peripheral\prot/cy_prot.c ****     
 852:Generated_Source\PSoC6\pdl\drivers\peripheral\prot/cy_prot.c ****     base->ATT1 &= ~_VAL2FLD(PERI_PPU_PR_ATT1_ENABLED, CY_PROT_STRUCT_ENABLE);
 2503              		.loc 1 852 0
 2504 0008 7B68     		ldr	r3, [r7, #4]
 2505 000a 5B6A     		ldr	r3, [r3, #36]
 2506 000c 5B00     		lsls	r3, r3, #1
 2507 000e 5A08     		lsrs	r2, r3, #1
 2508 0010 7B68     		ldr	r3, [r7, #4]
 2509 0012 5A62     		str	r2, [r3, #36]
 853:Generated_Source\PSoC6\pdl\drivers\peripheral\prot/cy_prot.c ****     status = (_FLD2VAL(PERI_PPU_PR_ATT1_ENABLED, base->ATT1) == CY_PROT_STRUCT_ENABLE) ?
 2510              		.loc 1 853 0
 2511 0014 7B68     		ldr	r3, [r7, #4]
 2512 0016 5B6A     		ldr	r3, [r3, #36]
 2513 0018 DB0F     		lsrs	r3, r3, #31
 2514 001a DB07     		lsls	r3, r3, #31
 2515 001c DB0F     		lsrs	r3, r3, #31
 2516 001e 012B     		cmp	r3, #1
 2517 0020 01D1     		bne	.L169
 2518              		.loc 1 853 0 is_stmt 0 discriminator 1
 2519 0022 044B     		ldr	r3, .L172
 2520 0024 00E0     		b	.L170
 2521              	.L169:
 2522              		.loc 1 853 0 discriminator 2
 2523 0026 0023     		movs	r3, #0
 2524              	.L170:
 2525              		.loc 1 853 0 discriminator 4
 2526 0028 FB60     		str	r3, [r7, #12]
 854:Generated_Source\PSoC6\pdl\drivers\peripheral\prot/cy_prot.c ****                 CY_PROT_FAILURE : CY_PROT_SUCCESS;
 855:Generated_Source\PSoC6\pdl\drivers\peripheral\prot/cy_prot.c ****     
 856:Generated_Source\PSoC6\pdl\drivers\peripheral\prot/cy_prot.c ****     return status;
 2527              		.loc 1 856 0 is_stmt 1 discriminator 4
 2528 002a FB68     		ldr	r3, [r7, #12]
 857:Generated_Source\PSoC6\pdl\drivers\peripheral\prot/cy_prot.c **** }
 2529              		.loc 1 857 0 discriminator 4
 2530 002c 1800     		movs	r0, r3
 2531 002e BD46     		mov	sp, r7
 2532 0030 04B0     		add	sp, sp, #16
 2533              		@ sp needed
 2534 0032 80BD     		pop	{r7, pc}
 2535              	.L173:
 2536              		.align	2
 2537              	.L172:
 2538 0034 0300C200 		.word	12713987
 2539              		.cfi_endproc
 2540              	.LFE51:
 2541              		.size	Cy_Prot_DisablePpuProgMasterStruct, .-Cy_Prot_DisablePpuProgMasterStruct
 2542              		.section	.text.Cy_Prot_EnablePpuProgSlaveStruct,"ax",%progbits
 2543              		.align	2
 2544              		.global	Cy_Prot_EnablePpuProgSlaveStruct
 2545              		.code	16
 2546              		.thumb_func
 2547              		.type	Cy_Prot_EnablePpuProgSlaveStruct, %function
ARM GAS  C:\Users\salaz\AppData\Local\Temp\ccSSnxm1.s 			page 61


 2548              	Cy_Prot_EnablePpuProgSlaveStruct:
 2549              	.LFB52:
 858:Generated_Source\PSoC6\pdl\drivers\peripheral\prot/cy_prot.c **** 
 859:Generated_Source\PSoC6\pdl\drivers\peripheral\prot/cy_prot.c **** 
 860:Generated_Source\PSoC6\pdl\drivers\peripheral\prot/cy_prot.c **** /*******************************************************************************
 861:Generated_Source\PSoC6\pdl\drivers\peripheral\prot/cy_prot.c **** * Function Name: Cy_Prot_EnablePpuProgSlaveStruct
 862:Generated_Source\PSoC6\pdl\drivers\peripheral\prot/cy_prot.c **** ****************************************************************************//**
 863:Generated_Source\PSoC6\pdl\drivers\peripheral\prot/cy_prot.c **** *
 864:Generated_Source\PSoC6\pdl\drivers\peripheral\prot/cy_prot.c **** * \brief Enables the Slave PPU PROG structure.
 865:Generated_Source\PSoC6\pdl\drivers\peripheral\prot/cy_prot.c **** *
 866:Generated_Source\PSoC6\pdl\drivers\peripheral\prot/cy_prot.c **** * This is a PPU PROG slave struct enable function. The PPU PROG protection 
 867:Generated_Source\PSoC6\pdl\drivers\peripheral\prot/cy_prot.c **** * settings will take effect after successful completion of this function call.
 868:Generated_Source\PSoC6\pdl\drivers\peripheral\prot/cy_prot.c **** *
 869:Generated_Source\PSoC6\pdl\drivers\peripheral\prot/cy_prot.c **** * \param base
 870:Generated_Source\PSoC6\pdl\drivers\peripheral\prot/cy_prot.c **** * The base address for the protection unit structure being configured. 
 871:Generated_Source\PSoC6\pdl\drivers\peripheral\prot/cy_prot.c **** *
 872:Generated_Source\PSoC6\pdl\drivers\peripheral\prot/cy_prot.c **** * \return
 873:Generated_Source\PSoC6\pdl\drivers\peripheral\prot/cy_prot.c **** * Status of the function call.
 874:Generated_Source\PSoC6\pdl\drivers\peripheral\prot/cy_prot.c **** *
 875:Generated_Source\PSoC6\pdl\drivers\peripheral\prot/cy_prot.c **** *   Status               | Description
 876:Generated_Source\PSoC6\pdl\drivers\peripheral\prot/cy_prot.c **** *   ------------         | -----------
 877:Generated_Source\PSoC6\pdl\drivers\peripheral\prot/cy_prot.c **** *   CY_PROT_SUCCESS      | The Slave PU struct was enabled
 878:Generated_Source\PSoC6\pdl\drivers\peripheral\prot/cy_prot.c **** *   CY_PROT_FAILURE      | The Slave PU struct is disabled and possibly locked
 879:Generated_Source\PSoC6\pdl\drivers\peripheral\prot/cy_prot.c **** *
 880:Generated_Source\PSoC6\pdl\drivers\peripheral\prot/cy_prot.c **** * \funcusage
 881:Generated_Source\PSoC6\pdl\drivers\peripheral\prot/cy_prot.c **** * \snippet prot/prot_v1_10_sut_01.cydsn/main_cm4.c snippet_Cy_Prot_EnablePpuProgSlaveStruct
 882:Generated_Source\PSoC6\pdl\drivers\peripheral\prot/cy_prot.c **** *
 883:Generated_Source\PSoC6\pdl\drivers\peripheral\prot/cy_prot.c **** *******************************************************************************/
 884:Generated_Source\PSoC6\pdl\drivers\peripheral\prot/cy_prot.c **** cy_en_prot_status_t Cy_Prot_EnablePpuProgSlaveStruct(PERI_PPU_PR_Type* base)
 885:Generated_Source\PSoC6\pdl\drivers\peripheral\prot/cy_prot.c **** {   
 2550              		.loc 1 885 0
 2551              		.cfi_startproc
 2552              		@ args = 0, pretend = 0, frame = 16
 2553              		@ frame_needed = 1, uses_anonymous_args = 0
 2554 0000 80B5     		push	{r7, lr}
 2555              		.cfi_def_cfa_offset 8
 2556              		.cfi_offset 7, -8
 2557              		.cfi_offset 14, -4
 2558 0002 84B0     		sub	sp, sp, #16
 2559              		.cfi_def_cfa_offset 24
 2560 0004 00AF     		add	r7, sp, #0
 2561              		.cfi_def_cfa_register 7
 2562 0006 7860     		str	r0, [r7, #4]
 886:Generated_Source\PSoC6\pdl\drivers\peripheral\prot/cy_prot.c ****     cy_en_prot_status_t status;
 887:Generated_Source\PSoC6\pdl\drivers\peripheral\prot/cy_prot.c ****     
 888:Generated_Source\PSoC6\pdl\drivers\peripheral\prot/cy_prot.c ****     base->ATT0 |= _VAL2FLD(PERI_PPU_PR_ATT0_ENABLED, CY_PROT_STRUCT_ENABLE);
 2563              		.loc 1 888 0
 2564 0008 7B68     		ldr	r3, [r7, #4]
 2565 000a 5B68     		ldr	r3, [r3, #4]
 2566 000c 8022     		movs	r2, #128
 2567 000e 1206     		lsls	r2, r2, #24
 2568 0010 1A43     		orrs	r2, r3
 2569 0012 7B68     		ldr	r3, [r7, #4]
 2570 0014 5A60     		str	r2, [r3, #4]
 889:Generated_Source\PSoC6\pdl\drivers\peripheral\prot/cy_prot.c ****     status = (_FLD2VAL(PERI_PPU_PR_ATT0_ENABLED, base->ATT0) != CY_PROT_STRUCT_ENABLE) ?
 2571              		.loc 1 889 0
 2572 0016 7B68     		ldr	r3, [r7, #4]
ARM GAS  C:\Users\salaz\AppData\Local\Temp\ccSSnxm1.s 			page 62


 2573 0018 5B68     		ldr	r3, [r3, #4]
 2574 001a DB0F     		lsrs	r3, r3, #31
 2575 001c DB07     		lsls	r3, r3, #31
 2576 001e DB0F     		lsrs	r3, r3, #31
 2577 0020 012B     		cmp	r3, #1
 2578 0022 01D0     		beq	.L175
 2579              		.loc 1 889 0 is_stmt 0 discriminator 1
 2580 0024 044B     		ldr	r3, .L178
 2581 0026 00E0     		b	.L176
 2582              	.L175:
 2583              		.loc 1 889 0 discriminator 2
 2584 0028 0023     		movs	r3, #0
 2585              	.L176:
 2586              		.loc 1 889 0 discriminator 4
 2587 002a FB60     		str	r3, [r7, #12]
 890:Generated_Source\PSoC6\pdl\drivers\peripheral\prot/cy_prot.c ****                 CY_PROT_FAILURE : CY_PROT_SUCCESS;
 891:Generated_Source\PSoC6\pdl\drivers\peripheral\prot/cy_prot.c ****     
 892:Generated_Source\PSoC6\pdl\drivers\peripheral\prot/cy_prot.c ****     return status;
 2588              		.loc 1 892 0 is_stmt 1 discriminator 4
 2589 002c FB68     		ldr	r3, [r7, #12]
 893:Generated_Source\PSoC6\pdl\drivers\peripheral\prot/cy_prot.c **** }
 2590              		.loc 1 893 0 discriminator 4
 2591 002e 1800     		movs	r0, r3
 2592 0030 BD46     		mov	sp, r7
 2593 0032 04B0     		add	sp, sp, #16
 2594              		@ sp needed
 2595 0034 80BD     		pop	{r7, pc}
 2596              	.L179:
 2597 0036 C046     		.align	2
 2598              	.L178:
 2599 0038 0300C200 		.word	12713987
 2600              		.cfi_endproc
 2601              	.LFE52:
 2602              		.size	Cy_Prot_EnablePpuProgSlaveStruct, .-Cy_Prot_EnablePpuProgSlaveStruct
 2603              		.section	.text.Cy_Prot_DisablePpuProgSlaveStruct,"ax",%progbits
 2604              		.align	2
 2605              		.global	Cy_Prot_DisablePpuProgSlaveStruct
 2606              		.code	16
 2607              		.thumb_func
 2608              		.type	Cy_Prot_DisablePpuProgSlaveStruct, %function
 2609              	Cy_Prot_DisablePpuProgSlaveStruct:
 2610              	.LFB53:
 894:Generated_Source\PSoC6\pdl\drivers\peripheral\prot/cy_prot.c **** 
 895:Generated_Source\PSoC6\pdl\drivers\peripheral\prot/cy_prot.c **** 
 896:Generated_Source\PSoC6\pdl\drivers\peripheral\prot/cy_prot.c **** /*******************************************************************************
 897:Generated_Source\PSoC6\pdl\drivers\peripheral\prot/cy_prot.c **** * Function Name: Cy_Prot_DisablePpuProgSlaveStruct
 898:Generated_Source\PSoC6\pdl\drivers\peripheral\prot/cy_prot.c **** ****************************************************************************//**
 899:Generated_Source\PSoC6\pdl\drivers\peripheral\prot/cy_prot.c **** *
 900:Generated_Source\PSoC6\pdl\drivers\peripheral\prot/cy_prot.c **** * \brief Disables the Slave PPU PROG structure.
 901:Generated_Source\PSoC6\pdl\drivers\peripheral\prot/cy_prot.c **** *
 902:Generated_Source\PSoC6\pdl\drivers\peripheral\prot/cy_prot.c **** * This is a PPU PROG slave struct disable function. The PPU PROG protection 
 903:Generated_Source\PSoC6\pdl\drivers\peripheral\prot/cy_prot.c **** * settings will seize to take effect after successful completion of this 
 904:Generated_Source\PSoC6\pdl\drivers\peripheral\prot/cy_prot.c **** * function call.
 905:Generated_Source\PSoC6\pdl\drivers\peripheral\prot/cy_prot.c **** *
 906:Generated_Source\PSoC6\pdl\drivers\peripheral\prot/cy_prot.c **** * \param base
 907:Generated_Source\PSoC6\pdl\drivers\peripheral\prot/cy_prot.c **** * The base address for the protection unit structure being configured. 
 908:Generated_Source\PSoC6\pdl\drivers\peripheral\prot/cy_prot.c **** *
ARM GAS  C:\Users\salaz\AppData\Local\Temp\ccSSnxm1.s 			page 63


 909:Generated_Source\PSoC6\pdl\drivers\peripheral\prot/cy_prot.c **** * \return
 910:Generated_Source\PSoC6\pdl\drivers\peripheral\prot/cy_prot.c **** * Status of the function call.
 911:Generated_Source\PSoC6\pdl\drivers\peripheral\prot/cy_prot.c **** *
 912:Generated_Source\PSoC6\pdl\drivers\peripheral\prot/cy_prot.c **** *   Status               | Description
 913:Generated_Source\PSoC6\pdl\drivers\peripheral\prot/cy_prot.c **** *   ------------         | -----------
 914:Generated_Source\PSoC6\pdl\drivers\peripheral\prot/cy_prot.c **** *   CY_PROT_SUCCESS      | The Slave PU struct was disabled
 915:Generated_Source\PSoC6\pdl\drivers\peripheral\prot/cy_prot.c **** *   CY_PROT_FAILURE      | The Slave PU struct is enabled and possibly locked
 916:Generated_Source\PSoC6\pdl\drivers\peripheral\prot/cy_prot.c **** *
 917:Generated_Source\PSoC6\pdl\drivers\peripheral\prot/cy_prot.c **** * \funcusage
 918:Generated_Source\PSoC6\pdl\drivers\peripheral\prot/cy_prot.c **** * \snippet prot/prot_v1_10_sut_01.cydsn/main_cm4.c snippet_Cy_Prot_DisablePpuProgSlaveStruct
 919:Generated_Source\PSoC6\pdl\drivers\peripheral\prot/cy_prot.c **** *
 920:Generated_Source\PSoC6\pdl\drivers\peripheral\prot/cy_prot.c **** *******************************************************************************/
 921:Generated_Source\PSoC6\pdl\drivers\peripheral\prot/cy_prot.c **** cy_en_prot_status_t Cy_Prot_DisablePpuProgSlaveStruct(PERI_PPU_PR_Type* base)
 922:Generated_Source\PSoC6\pdl\drivers\peripheral\prot/cy_prot.c **** {
 2611              		.loc 1 922 0
 2612              		.cfi_startproc
 2613              		@ args = 0, pretend = 0, frame = 16
 2614              		@ frame_needed = 1, uses_anonymous_args = 0
 2615 0000 80B5     		push	{r7, lr}
 2616              		.cfi_def_cfa_offset 8
 2617              		.cfi_offset 7, -8
 2618              		.cfi_offset 14, -4
 2619 0002 84B0     		sub	sp, sp, #16
 2620              		.cfi_def_cfa_offset 24
 2621 0004 00AF     		add	r7, sp, #0
 2622              		.cfi_def_cfa_register 7
 2623 0006 7860     		str	r0, [r7, #4]
 923:Generated_Source\PSoC6\pdl\drivers\peripheral\prot/cy_prot.c ****     cy_en_prot_status_t status;
 924:Generated_Source\PSoC6\pdl\drivers\peripheral\prot/cy_prot.c ****     
 925:Generated_Source\PSoC6\pdl\drivers\peripheral\prot/cy_prot.c ****     base->ATT0 &= ~_VAL2FLD(PERI_PPU_PR_ATT0_ENABLED, CY_PROT_STRUCT_ENABLE);
 2624              		.loc 1 925 0
 2625 0008 7B68     		ldr	r3, [r7, #4]
 2626 000a 5B68     		ldr	r3, [r3, #4]
 2627 000c 5B00     		lsls	r3, r3, #1
 2628 000e 5A08     		lsrs	r2, r3, #1
 2629 0010 7B68     		ldr	r3, [r7, #4]
 2630 0012 5A60     		str	r2, [r3, #4]
 926:Generated_Source\PSoC6\pdl\drivers\peripheral\prot/cy_prot.c ****     status = (_FLD2VAL(PERI_PPU_PR_ATT0_ENABLED, base->ATT0) == CY_PROT_STRUCT_ENABLE) ?
 2631              		.loc 1 926 0
 2632 0014 7B68     		ldr	r3, [r7, #4]
 2633 0016 5B68     		ldr	r3, [r3, #4]
 2634 0018 DB0F     		lsrs	r3, r3, #31
 2635 001a DB07     		lsls	r3, r3, #31
 2636 001c DB0F     		lsrs	r3, r3, #31
 2637 001e 012B     		cmp	r3, #1
 2638 0020 01D1     		bne	.L181
 2639              		.loc 1 926 0 is_stmt 0 discriminator 1
 2640 0022 044B     		ldr	r3, .L184
 2641 0024 00E0     		b	.L182
 2642              	.L181:
 2643              		.loc 1 926 0 discriminator 2
 2644 0026 0023     		movs	r3, #0
 2645              	.L182:
 2646              		.loc 1 926 0 discriminator 4
 2647 0028 FB60     		str	r3, [r7, #12]
 927:Generated_Source\PSoC6\pdl\drivers\peripheral\prot/cy_prot.c ****                 CY_PROT_FAILURE : CY_PROT_SUCCESS;
 928:Generated_Source\PSoC6\pdl\drivers\peripheral\prot/cy_prot.c ****     
ARM GAS  C:\Users\salaz\AppData\Local\Temp\ccSSnxm1.s 			page 64


 929:Generated_Source\PSoC6\pdl\drivers\peripheral\prot/cy_prot.c ****     return status;
 2648              		.loc 1 929 0 is_stmt 1 discriminator 4
 2649 002a FB68     		ldr	r3, [r7, #12]
 930:Generated_Source\PSoC6\pdl\drivers\peripheral\prot/cy_prot.c **** }
 2650              		.loc 1 930 0 discriminator 4
 2651 002c 1800     		movs	r0, r3
 2652 002e BD46     		mov	sp, r7
 2653 0030 04B0     		add	sp, sp, #16
 2654              		@ sp needed
 2655 0032 80BD     		pop	{r7, pc}
 2656              	.L185:
 2657              		.align	2
 2658              	.L184:
 2659 0034 0300C200 		.word	12713987
 2660              		.cfi_endproc
 2661              	.LFE53:
 2662              		.size	Cy_Prot_DisablePpuProgSlaveStruct, .-Cy_Prot_DisablePpuProgSlaveStruct
 2663              		.section	.text.Cy_Prot_ConfigPpuFixedGrMasterStruct,"ax",%progbits
 2664              		.align	2
 2665              		.global	Cy_Prot_ConfigPpuFixedGrMasterStruct
 2666              		.code	16
 2667              		.thumb_func
 2668              		.type	Cy_Prot_ConfigPpuFixedGrMasterStruct, %function
 2669              	Cy_Prot_ConfigPpuFixedGrMasterStruct:
 2670              	.LFB54:
 931:Generated_Source\PSoC6\pdl\drivers\peripheral\prot/cy_prot.c **** 
 932:Generated_Source\PSoC6\pdl\drivers\peripheral\prot/cy_prot.c **** 
 933:Generated_Source\PSoC6\pdl\drivers\peripheral\prot/cy_prot.c **** /*******************************************************************************
 934:Generated_Source\PSoC6\pdl\drivers\peripheral\prot/cy_prot.c **** * Function Name: Cy_Prot_ConfigPpuFixedGrMasterStruct
 935:Generated_Source\PSoC6\pdl\drivers\peripheral\prot/cy_prot.c **** ****************************************************************************//**
 936:Generated_Source\PSoC6\pdl\drivers\peripheral\prot/cy_prot.c **** *
 937:Generated_Source\PSoC6\pdl\drivers\peripheral\prot/cy_prot.c **** * \brief Configures a Fixed Peripheral Group Protection Unit (PPU GR) master 
 938:Generated_Source\PSoC6\pdl\drivers\peripheral\prot/cy_prot.c **** * protection struct with its protection attributes. 
 939:Generated_Source\PSoC6\pdl\drivers\peripheral\prot/cy_prot.c **** *
 940:Generated_Source\PSoC6\pdl\drivers\peripheral\prot/cy_prot.c **** * This function configures the master struct governing the corresponding slave
 941:Generated_Source\PSoC6\pdl\drivers\peripheral\prot/cy_prot.c **** * struct pair. It is a mechanism to protect the slave PPU GR struct. Since
 942:Generated_Source\PSoC6\pdl\drivers\peripheral\prot/cy_prot.c **** * the memory location of the slave struct is known, the address, regionSize and
 943:Generated_Source\PSoC6\pdl\drivers\peripheral\prot/cy_prot.c **** * subregions of the configuration struct are not applicable.
 944:Generated_Source\PSoC6\pdl\drivers\peripheral\prot/cy_prot.c **** *
 945:Generated_Source\PSoC6\pdl\drivers\peripheral\prot/cy_prot.c **** * Note that only the user/privileged write permissions are configurable. The 
 946:Generated_Source\PSoC6\pdl\drivers\peripheral\prot/cy_prot.c **** * read and execute permissions are read-only and cannot be configured.
 947:Generated_Source\PSoC6\pdl\drivers\peripheral\prot/cy_prot.c **** *
 948:Generated_Source\PSoC6\pdl\drivers\peripheral\prot/cy_prot.c **** * \param base
 949:Generated_Source\PSoC6\pdl\drivers\peripheral\prot/cy_prot.c **** * The register base address of the protection struct being configured.
 950:Generated_Source\PSoC6\pdl\drivers\peripheral\prot/cy_prot.c **** * 
 951:Generated_Source\PSoC6\pdl\drivers\peripheral\prot/cy_prot.c **** * \param config
 952:Generated_Source\PSoC6\pdl\drivers\peripheral\prot/cy_prot.c **** * Initialization structure with all the protection attributes.
 953:Generated_Source\PSoC6\pdl\drivers\peripheral\prot/cy_prot.c **** * 
 954:Generated_Source\PSoC6\pdl\drivers\peripheral\prot/cy_prot.c **** * \return
 955:Generated_Source\PSoC6\pdl\drivers\peripheral\prot/cy_prot.c **** * Status of the function call.
 956:Generated_Source\PSoC6\pdl\drivers\peripheral\prot/cy_prot.c **** *
 957:Generated_Source\PSoC6\pdl\drivers\peripheral\prot/cy_prot.c **** *   Status               | Description
 958:Generated_Source\PSoC6\pdl\drivers\peripheral\prot/cy_prot.c **** *   ------------         | -----------
 959:Generated_Source\PSoC6\pdl\drivers\peripheral\prot/cy_prot.c **** *   CY_PROT_SUCCESS      | PPU GR master struct was successfully configured
 960:Generated_Source\PSoC6\pdl\drivers\peripheral\prot/cy_prot.c **** *   CY_PROT_FAILURE      | The resource is locked
 961:Generated_Source\PSoC6\pdl\drivers\peripheral\prot/cy_prot.c **** *   CY_PROT_BAD_PARAM    | An incorrect/invalid parameter was passed
 962:Generated_Source\PSoC6\pdl\drivers\peripheral\prot/cy_prot.c **** *
ARM GAS  C:\Users\salaz\AppData\Local\Temp\ccSSnxm1.s 			page 65


 963:Generated_Source\PSoC6\pdl\drivers\peripheral\prot/cy_prot.c **** * \funcusage
 964:Generated_Source\PSoC6\pdl\drivers\peripheral\prot/cy_prot.c **** * \snippet prot/prot_v1_10_sut_01.cydsn/main_cm4.c snippet_Cy_Prot_ConfigPpuFixedGrMasterStruct
 965:Generated_Source\PSoC6\pdl\drivers\peripheral\prot/cy_prot.c **** *
 966:Generated_Source\PSoC6\pdl\drivers\peripheral\prot/cy_prot.c **** *******************************************************************************/
 967:Generated_Source\PSoC6\pdl\drivers\peripheral\prot/cy_prot.c **** cy_en_prot_status_t Cy_Prot_ConfigPpuFixedGrMasterStruct(PERI_PPU_GR_Type* base, const cy_stc_ppu_g
 968:Generated_Source\PSoC6\pdl\drivers\peripheral\prot/cy_prot.c **** {
 2671              		.loc 1 968 0
 2672              		.cfi_startproc
 2673              		@ args = 0, pretend = 0, frame = 16
 2674              		@ frame_needed = 1, uses_anonymous_args = 0
 2675 0000 80B5     		push	{r7, lr}
 2676              		.cfi_def_cfa_offset 8
 2677              		.cfi_offset 7, -8
 2678              		.cfi_offset 14, -4
 2679 0002 84B0     		sub	sp, sp, #16
 2680              		.cfi_def_cfa_offset 24
 2681 0004 00AF     		add	r7, sp, #0
 2682              		.cfi_def_cfa_register 7
 2683 0006 7860     		str	r0, [r7, #4]
 2684 0008 3960     		str	r1, [r7]
 969:Generated_Source\PSoC6\pdl\drivers\peripheral\prot/cy_prot.c ****     cy_en_prot_status_t status;
 970:Generated_Source\PSoC6\pdl\drivers\peripheral\prot/cy_prot.c ****     uint32_t attReg;
 971:Generated_Source\PSoC6\pdl\drivers\peripheral\prot/cy_prot.c ****     
 972:Generated_Source\PSoC6\pdl\drivers\peripheral\prot/cy_prot.c ****     CY_ASSERT_L1(NULL != base);
 2685              		.loc 1 972 0
 2686 000a 7B68     		ldr	r3, [r7, #4]
 2687 000c 002B     		cmp	r3, #0
 2688 000e 06D1     		bne	.L187
 2689              		.loc 1 972 0 is_stmt 0 discriminator 1
 2690 0010 F323     		movs	r3, #243
 2691 0012 9A00     		lsls	r2, r3, #2
 2692 0014 344B     		ldr	r3, .L196
 2693 0016 1100     		movs	r1, r2
 2694 0018 1800     		movs	r0, r3
 2695 001a FFF7FEFF 		bl	Cy_SysLib_AssertFailed
 2696              	.L187:
 973:Generated_Source\PSoC6\pdl\drivers\peripheral\prot/cy_prot.c ****     CY_ASSERT_L3(CY_PROT_IS_FIXED_MS_PERM_VALID(config->userPermission));
 2697              		.loc 1 973 0 is_stmt 1
 2698 001e 3B68     		ldr	r3, [r7]
 2699 0020 1B78     		ldrb	r3, [r3]
 2700 0022 012B     		cmp	r3, #1
 2701 0024 09D0     		beq	.L188
 2702              		.loc 1 973 0 is_stmt 0 discriminator 1
 2703 0026 3B68     		ldr	r3, [r7]
 2704 0028 1B78     		ldrb	r3, [r3]
 2705 002a 032B     		cmp	r3, #3
 2706 002c 05D0     		beq	.L188
 2707              		.loc 1 973 0 discriminator 2
 2708 002e 2F4A     		ldr	r2, .L196+4
 2709 0030 2D4B     		ldr	r3, .L196
 2710 0032 1100     		movs	r1, r2
 2711 0034 1800     		movs	r0, r3
 2712 0036 FFF7FEFF 		bl	Cy_SysLib_AssertFailed
 2713              	.L188:
 974:Generated_Source\PSoC6\pdl\drivers\peripheral\prot/cy_prot.c ****     CY_ASSERT_L3(CY_PROT_IS_FIXED_MS_PERM_VALID(config->privPermission));
 2714              		.loc 1 974 0 is_stmt 1
 2715 003a 3B68     		ldr	r3, [r7]
ARM GAS  C:\Users\salaz\AppData\Local\Temp\ccSSnxm1.s 			page 66


 2716 003c 5B78     		ldrb	r3, [r3, #1]
 2717 003e 012B     		cmp	r3, #1
 2718 0040 09D0     		beq	.L189
 2719              		.loc 1 974 0 is_stmt 0 discriminator 1
 2720 0042 3B68     		ldr	r3, [r7]
 2721 0044 5B78     		ldrb	r3, [r3, #1]
 2722 0046 032B     		cmp	r3, #3
 2723 0048 05D0     		beq	.L189
 2724              		.loc 1 974 0 discriminator 2
 2725 004a 294A     		ldr	r2, .L196+8
 2726 004c 264B     		ldr	r3, .L196
 2727 004e 1100     		movs	r1, r2
 2728 0050 1800     		movs	r0, r3
 2729 0052 FFF7FEFF 		bl	Cy_SysLib_AssertFailed
 2730              	.L189:
 975:Generated_Source\PSoC6\pdl\drivers\peripheral\prot/cy_prot.c ****     
 976:Generated_Source\PSoC6\pdl\drivers\peripheral\prot/cy_prot.c ****     if(((uint32_t)config->pcMask & CY_PROT_PPU_FIXED_PC_LIMIT_MASK) != 0UL) 
 2731              		.loc 1 976 0 is_stmt 1
 2732 0056 3B68     		ldr	r3, [r7]
 2733 0058 9B88     		ldrh	r3, [r3, #4]
 2734 005a 1A00     		movs	r2, r3
 2735 005c 7F23     		movs	r3, #127
 2736 005e 9A43     		bics	r2, r3
 2737 0060 131E     		subs	r3, r2, #0
 2738 0062 02D0     		beq	.L190
 977:Generated_Source\PSoC6\pdl\drivers\peripheral\prot/cy_prot.c ****     {
 978:Generated_Source\PSoC6\pdl\drivers\peripheral\prot/cy_prot.c ****         /* PC mask out of range - not supported in device */
 979:Generated_Source\PSoC6\pdl\drivers\peripheral\prot/cy_prot.c ****         status = CY_PROT_BAD_PARAM;
 2739              		.loc 1 979 0
 2740 0064 234B     		ldr	r3, .L196+12
 2741 0066 FB60     		str	r3, [r7, #12]
 2742 0068 38E0     		b	.L191
 2743              	.L190:
 980:Generated_Source\PSoC6\pdl\drivers\peripheral\prot/cy_prot.c ****     }
 981:Generated_Source\PSoC6\pdl\drivers\peripheral\prot/cy_prot.c ****     else
 982:Generated_Source\PSoC6\pdl\drivers\peripheral\prot/cy_prot.c ****     {
 983:Generated_Source\PSoC6\pdl\drivers\peripheral\prot/cy_prot.c ****         /* ADDR1 is read only. Only configure ATT1 */
 984:Generated_Source\PSoC6\pdl\drivers\peripheral\prot/cy_prot.c ****         attReg = (((uint32_t)config->userPermission & CY_PROT_ATT_PERMISSION_MASK))
 2744              		.loc 1 984 0
 2745 006a 3B68     		ldr	r3, [r7]
 2746 006c 1B78     		ldrb	r3, [r3]
 2747 006e 1A00     		movs	r2, r3
 2748 0070 0723     		movs	r3, #7
 2749 0072 1A40     		ands	r2, r3
 985:Generated_Source\PSoC6\pdl\drivers\peripheral\prot/cy_prot.c ****                     | (uint32_t)(((uint32_t)config->privPermission & CY_PROT_ATT_PERMISSION_MASK) <
 2750              		.loc 1 985 0
 2751 0074 3B68     		ldr	r3, [r7]
 2752 0076 5B78     		ldrb	r3, [r3, #1]
 2753 0078 DB00     		lsls	r3, r3, #3
 2754 007a 3821     		movs	r1, #56
 2755 007c 0B40     		ands	r3, r1
 2756 007e 1A43     		orrs	r2, r3
 986:Generated_Source\PSoC6\pdl\drivers\peripheral\prot/cy_prot.c ****                     | _VAL2FLD(PERI_PPU_GR_ATT1_NS, !(config->secure))
 2757              		.loc 1 986 0
 2758 0080 3B68     		ldr	r3, [r7]
 2759 0082 9B78     		ldrb	r3, [r3, #2]
 2760 0084 0121     		movs	r1, #1
ARM GAS  C:\Users\salaz\AppData\Local\Temp\ccSSnxm1.s 			page 67


 2761 0086 4B40     		eors	r3, r1
 2762 0088 DBB2     		uxtb	r3, r3
 2763 008a 9B01     		lsls	r3, r3, #6
 2764 008c 4021     		movs	r1, #64
 2765 008e 0B40     		ands	r3, r1
 2766 0090 1A43     		orrs	r2, r3
 987:Generated_Source\PSoC6\pdl\drivers\peripheral\prot/cy_prot.c ****                     | _VAL2FLD(PERI_PPU_GR_ATT1_PC_MASK_15_TO_1, config->pcMask)
 2767              		.loc 1 987 0
 2768 0092 3B68     		ldr	r3, [r7]
 2769 0094 9B88     		ldrh	r3, [r3, #4]
 2770 0096 5B02     		lsls	r3, r3, #9
 2771 0098 1749     		ldr	r1, .L196+16
 2772 009a 0B40     		ands	r3, r1
 2773 009c 1A43     		orrs	r2, r3
 988:Generated_Source\PSoC6\pdl\drivers\peripheral\prot/cy_prot.c ****                     /* No region size - read only for master structs */
 989:Generated_Source\PSoC6\pdl\drivers\peripheral\prot/cy_prot.c ****                     | _VAL2FLD(PERI_PPU_GR_ATT1_PC_MATCH, config->pcMatch);
 2774              		.loc 1 989 0
 2775 009e 3B68     		ldr	r3, [r7]
 2776 00a0 DB78     		ldrb	r3, [r3, #3]
 2777 00a2 9907     		lsls	r1, r3, #30
 2778 00a4 8023     		movs	r3, #128
 2779 00a6 DB05     		lsls	r3, r3, #23
 2780 00a8 0B40     		ands	r3, r1
 984:Generated_Source\PSoC6\pdl\drivers\peripheral\prot/cy_prot.c ****                     | (uint32_t)(((uint32_t)config->privPermission & CY_PROT_ATT_PERMISSION_MASK) <
 2781              		.loc 1 984 0
 2782 00aa 1343     		orrs	r3, r2
 2783 00ac BB60     		str	r3, [r7, #8]
 990:Generated_Source\PSoC6\pdl\drivers\peripheral\prot/cy_prot.c ****         if ((attReg & CY_PROT_PPU_GR_ATT1_MASK) != attReg)
 2784              		.loc 1 990 0
 2785 00ae BB68     		ldr	r3, [r7, #8]
 2786 00b0 124A     		ldr	r2, .L196+20
 2787 00b2 1A40     		ands	r2, r3
 2788 00b4 BB68     		ldr	r3, [r7, #8]
 2789 00b6 9A42     		cmp	r2, r3
 2790 00b8 02D0     		beq	.L192
 991:Generated_Source\PSoC6\pdl\drivers\peripheral\prot/cy_prot.c ****         {
 992:Generated_Source\PSoC6\pdl\drivers\peripheral\prot/cy_prot.c ****             /* Invalid parameter was passed */
 993:Generated_Source\PSoC6\pdl\drivers\peripheral\prot/cy_prot.c ****             status = CY_PROT_BAD_PARAM;
 2791              		.loc 1 993 0
 2792 00ba 0E4B     		ldr	r3, .L196+12
 2793 00bc FB60     		str	r3, [r7, #12]
 2794 00be 0DE0     		b	.L191
 2795              	.L192:
 994:Generated_Source\PSoC6\pdl\drivers\peripheral\prot/cy_prot.c ****         }
 995:Generated_Source\PSoC6\pdl\drivers\peripheral\prot/cy_prot.c ****         else
 996:Generated_Source\PSoC6\pdl\drivers\peripheral\prot/cy_prot.c ****         {
 997:Generated_Source\PSoC6\pdl\drivers\peripheral\prot/cy_prot.c ****             base->ATT1 = attReg;
 2796              		.loc 1 997 0
 2797 00c0 7B68     		ldr	r3, [r7, #4]
 2798 00c2 BA68     		ldr	r2, [r7, #8]
 2799 00c4 5A62     		str	r2, [r3, #36]
 998:Generated_Source\PSoC6\pdl\drivers\peripheral\prot/cy_prot.c ****             status = ((base->ATT1 & CY_PROT_PPU_GR_ATT1_MASK) != attReg) ? CY_PROT_FAILURE : CY_PRO
 2800              		.loc 1 998 0
 2801 00c6 7B68     		ldr	r3, [r7, #4]
 2802 00c8 5B6A     		ldr	r3, [r3, #36]
 2803 00ca 0C4A     		ldr	r2, .L196+20
 2804 00cc 1A40     		ands	r2, r3
ARM GAS  C:\Users\salaz\AppData\Local\Temp\ccSSnxm1.s 			page 68


 2805 00ce BB68     		ldr	r3, [r7, #8]
 2806 00d0 9A42     		cmp	r2, r3
 2807 00d2 01D0     		beq	.L193
 2808              		.loc 1 998 0 is_stmt 0 discriminator 1
 2809 00d4 0A4B     		ldr	r3, .L196+24
 2810 00d6 00E0     		b	.L194
 2811              	.L193:
 2812              		.loc 1 998 0 discriminator 2
 2813 00d8 0023     		movs	r3, #0
 2814              	.L194:
 2815              		.loc 1 998 0 discriminator 4
 2816 00da FB60     		str	r3, [r7, #12]
 2817              	.L191:
 999:Generated_Source\PSoC6\pdl\drivers\peripheral\prot/cy_prot.c ****         }
1000:Generated_Source\PSoC6\pdl\drivers\peripheral\prot/cy_prot.c ****     }
1001:Generated_Source\PSoC6\pdl\drivers\peripheral\prot/cy_prot.c ****     
1002:Generated_Source\PSoC6\pdl\drivers\peripheral\prot/cy_prot.c ****     return status;
 2818              		.loc 1 1002 0 is_stmt 1
 2819 00dc FB68     		ldr	r3, [r7, #12]
1003:Generated_Source\PSoC6\pdl\drivers\peripheral\prot/cy_prot.c **** }
 2820              		.loc 1 1003 0
 2821 00de 1800     		movs	r0, r3
 2822 00e0 BD46     		mov	sp, r7
 2823 00e2 04B0     		add	sp, sp, #16
 2824              		@ sp needed
 2825 00e4 80BD     		pop	{r7, pc}
 2826              	.L197:
 2827 00e6 C046     		.align	2
 2828              	.L196:
 2829 00e8 00000000 		.word	.LC0
 2830 00ec CD030000 		.word	973
 2831 00f0 CE030000 		.word	974
 2832 00f4 0100C200 		.word	12713985
 2833 00f8 00FEFF00 		.word	16776704
 2834 00fc DBFEFFE0 		.word	-520093989
 2835 0100 0300C200 		.word	12713987
 2836              		.cfi_endproc
 2837              	.LFE54:
 2838              		.size	Cy_Prot_ConfigPpuFixedGrMasterStruct, .-Cy_Prot_ConfigPpuFixedGrMasterStruct
 2839              		.section	.text.Cy_Prot_ConfigPpuFixedGrSlaveStruct,"ax",%progbits
 2840              		.align	2
 2841              		.global	Cy_Prot_ConfigPpuFixedGrSlaveStruct
 2842              		.code	16
 2843              		.thumb_func
 2844              		.type	Cy_Prot_ConfigPpuFixedGrSlaveStruct, %function
 2845              	Cy_Prot_ConfigPpuFixedGrSlaveStruct:
 2846              	.LFB55:
1004:Generated_Source\PSoC6\pdl\drivers\peripheral\prot/cy_prot.c **** 
1005:Generated_Source\PSoC6\pdl\drivers\peripheral\prot/cy_prot.c **** 
1006:Generated_Source\PSoC6\pdl\drivers\peripheral\prot/cy_prot.c **** /*******************************************************************************
1007:Generated_Source\PSoC6\pdl\drivers\peripheral\prot/cy_prot.c **** * Function Name: Cy_Prot_ConfigPpuFixedGrSlaveStruct
1008:Generated_Source\PSoC6\pdl\drivers\peripheral\prot/cy_prot.c **** ****************************************************************************//**
1009:Generated_Source\PSoC6\pdl\drivers\peripheral\prot/cy_prot.c **** *
1010:Generated_Source\PSoC6\pdl\drivers\peripheral\prot/cy_prot.c **** * \brief Configures a Fixed Peripheral Group Protection Unit (PPU GR) slave
1011:Generated_Source\PSoC6\pdl\drivers\peripheral\prot/cy_prot.c **** * protection struct with its protection attributes. 
1012:Generated_Source\PSoC6\pdl\drivers\peripheral\prot/cy_prot.c **** * 
1013:Generated_Source\PSoC6\pdl\drivers\peripheral\prot/cy_prot.c **** * This function configures the slave struct of a PPU GR pair, which can 
ARM GAS  C:\Users\salaz\AppData\Local\Temp\ccSSnxm1.s 			page 69


1014:Generated_Source\PSoC6\pdl\drivers\peripheral\prot/cy_prot.c **** * protect an entire peripheral MMIO group from invalid bus master accesses.
1015:Generated_Source\PSoC6\pdl\drivers\peripheral\prot/cy_prot.c **** * Refer to the device Technical Reference manual for details on peripheral
1016:Generated_Source\PSoC6\pdl\drivers\peripheral\prot/cy_prot.c **** * MMIO grouping and which peripherals belong to which groups.
1017:Generated_Source\PSoC6\pdl\drivers\peripheral\prot/cy_prot.c **** *
1018:Generated_Source\PSoC6\pdl\drivers\peripheral\prot/cy_prot.c **** * Each fixed PPU GR is devoted to a defined MMIO group. Hence the address, 
1019:Generated_Source\PSoC6\pdl\drivers\peripheral\prot/cy_prot.c **** * regionSize and subregions of the configuration struct are not applicable.
1020:Generated_Source\PSoC6\pdl\drivers\peripheral\prot/cy_prot.c **** *
1021:Generated_Source\PSoC6\pdl\drivers\peripheral\prot/cy_prot.c **** * Note that the user/privileged execute accesses are read-only and are always 
1022:Generated_Source\PSoC6\pdl\drivers\peripheral\prot/cy_prot.c **** * enabled. 
1023:Generated_Source\PSoC6\pdl\drivers\peripheral\prot/cy_prot.c **** *
1024:Generated_Source\PSoC6\pdl\drivers\peripheral\prot/cy_prot.c **** * \param base
1025:Generated_Source\PSoC6\pdl\drivers\peripheral\prot/cy_prot.c **** * The register base address of the protection structure being configured.
1026:Generated_Source\PSoC6\pdl\drivers\peripheral\prot/cy_prot.c **** * 
1027:Generated_Source\PSoC6\pdl\drivers\peripheral\prot/cy_prot.c **** * \param config
1028:Generated_Source\PSoC6\pdl\drivers\peripheral\prot/cy_prot.c **** * Initialization structure with all the protection attributes.
1029:Generated_Source\PSoC6\pdl\drivers\peripheral\prot/cy_prot.c **** * 
1030:Generated_Source\PSoC6\pdl\drivers\peripheral\prot/cy_prot.c **** * \return
1031:Generated_Source\PSoC6\pdl\drivers\peripheral\prot/cy_prot.c **** * Status of the function call.
1032:Generated_Source\PSoC6\pdl\drivers\peripheral\prot/cy_prot.c **** *
1033:Generated_Source\PSoC6\pdl\drivers\peripheral\prot/cy_prot.c **** *   Status               | Description
1034:Generated_Source\PSoC6\pdl\drivers\peripheral\prot/cy_prot.c **** *   ------------         | -----------
1035:Generated_Source\PSoC6\pdl\drivers\peripheral\prot/cy_prot.c **** *   CY_PROT_SUCCESS      | PPU GR slave struct was successfully configured
1036:Generated_Source\PSoC6\pdl\drivers\peripheral\prot/cy_prot.c **** *   CY_PROT_FAILURE      | The resource is locked
1037:Generated_Source\PSoC6\pdl\drivers\peripheral\prot/cy_prot.c **** *   CY_PROT_BAD_PARAM    | An incorrect/invalid parameter was passed
1038:Generated_Source\PSoC6\pdl\drivers\peripheral\prot/cy_prot.c **** *
1039:Generated_Source\PSoC6\pdl\drivers\peripheral\prot/cy_prot.c **** * \funcusage
1040:Generated_Source\PSoC6\pdl\drivers\peripheral\prot/cy_prot.c **** * \snippet prot/prot_v1_10_sut_01.cydsn/main_cm4.c snippet_Cy_Prot_ConfigPpuFixedGrSlaveStruct
1041:Generated_Source\PSoC6\pdl\drivers\peripheral\prot/cy_prot.c **** *
1042:Generated_Source\PSoC6\pdl\drivers\peripheral\prot/cy_prot.c **** *******************************************************************************/
1043:Generated_Source\PSoC6\pdl\drivers\peripheral\prot/cy_prot.c **** cy_en_prot_status_t Cy_Prot_ConfigPpuFixedGrSlaveStruct(PERI_PPU_GR_Type* base, const cy_stc_ppu_gr
1044:Generated_Source\PSoC6\pdl\drivers\peripheral\prot/cy_prot.c **** {
 2847              		.loc 1 1044 0
 2848              		.cfi_startproc
 2849              		@ args = 0, pretend = 0, frame = 16
 2850              		@ frame_needed = 1, uses_anonymous_args = 0
 2851 0000 80B5     		push	{r7, lr}
 2852              		.cfi_def_cfa_offset 8
 2853              		.cfi_offset 7, -8
 2854              		.cfi_offset 14, -4
 2855 0002 84B0     		sub	sp, sp, #16
 2856              		.cfi_def_cfa_offset 24
 2857 0004 00AF     		add	r7, sp, #0
 2858              		.cfi_def_cfa_register 7
 2859 0006 7860     		str	r0, [r7, #4]
 2860 0008 3960     		str	r1, [r7]
1045:Generated_Source\PSoC6\pdl\drivers\peripheral\prot/cy_prot.c ****     cy_en_prot_status_t status;
1046:Generated_Source\PSoC6\pdl\drivers\peripheral\prot/cy_prot.c ****     uint32_t attReg;
1047:Generated_Source\PSoC6\pdl\drivers\peripheral\prot/cy_prot.c ****     
1048:Generated_Source\PSoC6\pdl\drivers\peripheral\prot/cy_prot.c ****     CY_ASSERT_L1(NULL != base);
 2861              		.loc 1 1048 0
 2862 000a 7B68     		ldr	r3, [r7, #4]
 2863 000c 002B     		cmp	r3, #0
 2864 000e 06D1     		bne	.L199
 2865              		.loc 1 1048 0 is_stmt 0 discriminator 1
 2866 0010 8323     		movs	r3, #131
 2867 0012 DA00     		lsls	r2, r3, #3
 2868 0014 3C4B     		ldr	r3, .L208
ARM GAS  C:\Users\salaz\AppData\Local\Temp\ccSSnxm1.s 			page 70


 2869 0016 1100     		movs	r1, r2
 2870 0018 1800     		movs	r0, r3
 2871 001a FFF7FEFF 		bl	Cy_SysLib_AssertFailed
 2872              	.L199:
1049:Generated_Source\PSoC6\pdl\drivers\peripheral\prot/cy_prot.c ****     CY_ASSERT_L3(CY_PROT_IS_FIXED_SL_PERM_VALID(config->userPermission));
 2873              		.loc 1 1049 0 is_stmt 1
 2874 001e 3B68     		ldr	r3, [r7]
 2875 0020 1B78     		ldrb	r3, [r3]
 2876 0022 002B     		cmp	r3, #0
 2877 0024 11D0     		beq	.L200
 2878              		.loc 1 1049 0 is_stmt 0 discriminator 1
 2879 0026 3B68     		ldr	r3, [r7]
 2880 0028 1B78     		ldrb	r3, [r3]
 2881 002a 012B     		cmp	r3, #1
 2882 002c 0DD0     		beq	.L200
 2883              		.loc 1 1049 0 discriminator 2
 2884 002e 3B68     		ldr	r3, [r7]
 2885 0030 1B78     		ldrb	r3, [r3]
 2886 0032 022B     		cmp	r3, #2
 2887 0034 09D0     		beq	.L200
 2888              		.loc 1 1049 0 discriminator 3
 2889 0036 3B68     		ldr	r3, [r7]
 2890 0038 1B78     		ldrb	r3, [r3]
 2891 003a 032B     		cmp	r3, #3
 2892 003c 05D0     		beq	.L200
 2893              		.loc 1 1049 0 discriminator 4
 2894 003e 334A     		ldr	r2, .L208+4
 2895 0040 314B     		ldr	r3, .L208
 2896 0042 1100     		movs	r1, r2
 2897 0044 1800     		movs	r0, r3
 2898 0046 FFF7FEFF 		bl	Cy_SysLib_AssertFailed
 2899              	.L200:
1050:Generated_Source\PSoC6\pdl\drivers\peripheral\prot/cy_prot.c ****     CY_ASSERT_L3(CY_PROT_IS_FIXED_SL_PERM_VALID(config->privPermission));
 2900              		.loc 1 1050 0 is_stmt 1
 2901 004a 3B68     		ldr	r3, [r7]
 2902 004c 5B78     		ldrb	r3, [r3, #1]
 2903 004e 002B     		cmp	r3, #0
 2904 0050 11D0     		beq	.L201
 2905              		.loc 1 1050 0 is_stmt 0 discriminator 1
 2906 0052 3B68     		ldr	r3, [r7]
 2907 0054 5B78     		ldrb	r3, [r3, #1]
 2908 0056 012B     		cmp	r3, #1
 2909 0058 0DD0     		beq	.L201
 2910              		.loc 1 1050 0 discriminator 2
 2911 005a 3B68     		ldr	r3, [r7]
 2912 005c 5B78     		ldrb	r3, [r3, #1]
 2913 005e 022B     		cmp	r3, #2
 2914 0060 09D0     		beq	.L201
 2915              		.loc 1 1050 0 discriminator 3
 2916 0062 3B68     		ldr	r3, [r7]
 2917 0064 5B78     		ldrb	r3, [r3, #1]
 2918 0066 032B     		cmp	r3, #3
 2919 0068 05D0     		beq	.L201
 2920              		.loc 1 1050 0 discriminator 4
 2921 006a 294A     		ldr	r2, .L208+8
 2922 006c 264B     		ldr	r3, .L208
 2923 006e 1100     		movs	r1, r2
ARM GAS  C:\Users\salaz\AppData\Local\Temp\ccSSnxm1.s 			page 71


 2924 0070 1800     		movs	r0, r3
 2925 0072 FFF7FEFF 		bl	Cy_SysLib_AssertFailed
 2926              	.L201:
1051:Generated_Source\PSoC6\pdl\drivers\peripheral\prot/cy_prot.c ****     
1052:Generated_Source\PSoC6\pdl\drivers\peripheral\prot/cy_prot.c ****     if(((uint32_t)config->pcMask & CY_PROT_PPU_FIXED_PC_LIMIT_MASK) != 0UL) 
 2927              		.loc 1 1052 0 is_stmt 1
 2928 0076 3B68     		ldr	r3, [r7]
 2929 0078 9B88     		ldrh	r3, [r3, #4]
 2930 007a 1A00     		movs	r2, r3
 2931 007c 7F23     		movs	r3, #127
 2932 007e 9A43     		bics	r2, r3
 2933 0080 131E     		subs	r3, r2, #0
 2934 0082 02D0     		beq	.L202
1053:Generated_Source\PSoC6\pdl\drivers\peripheral\prot/cy_prot.c ****     {
1054:Generated_Source\PSoC6\pdl\drivers\peripheral\prot/cy_prot.c ****         /* PC mask out of range - not supported in device */
1055:Generated_Source\PSoC6\pdl\drivers\peripheral\prot/cy_prot.c ****         status = CY_PROT_BAD_PARAM;
 2935              		.loc 1 1055 0
 2936 0084 234B     		ldr	r3, .L208+12
 2937 0086 FB60     		str	r3, [r7, #12]
 2938 0088 38E0     		b	.L203
 2939              	.L202:
1056:Generated_Source\PSoC6\pdl\drivers\peripheral\prot/cy_prot.c ****     }
1057:Generated_Source\PSoC6\pdl\drivers\peripheral\prot/cy_prot.c ****     else
1058:Generated_Source\PSoC6\pdl\drivers\peripheral\prot/cy_prot.c ****     {
1059:Generated_Source\PSoC6\pdl\drivers\peripheral\prot/cy_prot.c ****         /* ADDR0 is read only. Only configure ATT0 */
1060:Generated_Source\PSoC6\pdl\drivers\peripheral\prot/cy_prot.c ****         attReg = (uint32_t)(((uint32_t)config->userPermission & CY_PROT_ATT_PERMISSION_MASK))
 2940              		.loc 1 1060 0
 2941 008a 3B68     		ldr	r3, [r7]
 2942 008c 1B78     		ldrb	r3, [r3]
 2943 008e 1A00     		movs	r2, r3
 2944 0090 0723     		movs	r3, #7
 2945 0092 1A40     		ands	r2, r3
1061:Generated_Source\PSoC6\pdl\drivers\peripheral\prot/cy_prot.c ****                     | (uint32_t)(((uint32_t)config->privPermission & CY_PROT_ATT_PERMISSION_MASK) <
 2946              		.loc 1 1061 0
 2947 0094 3B68     		ldr	r3, [r7]
 2948 0096 5B78     		ldrb	r3, [r3, #1]
 2949 0098 DB00     		lsls	r3, r3, #3
 2950 009a 3821     		movs	r1, #56
 2951 009c 0B40     		ands	r3, r1
 2952 009e 1A43     		orrs	r2, r3
1062:Generated_Source\PSoC6\pdl\drivers\peripheral\prot/cy_prot.c ****                     | _VAL2FLD(PERI_PPU_GR_ATT0_NS, !(config->secure))
 2953              		.loc 1 1062 0
 2954 00a0 3B68     		ldr	r3, [r7]
 2955 00a2 9B78     		ldrb	r3, [r3, #2]
 2956 00a4 0121     		movs	r1, #1
 2957 00a6 4B40     		eors	r3, r1
 2958 00a8 DBB2     		uxtb	r3, r3
 2959 00aa 9B01     		lsls	r3, r3, #6
 2960 00ac 4021     		movs	r1, #64
 2961 00ae 0B40     		ands	r3, r1
 2962 00b0 1A43     		orrs	r2, r3
1063:Generated_Source\PSoC6\pdl\drivers\peripheral\prot/cy_prot.c ****                     | _VAL2FLD(PERI_PPU_GR_ATT0_PC_MASK_15_TO_1, config->pcMask)
 2963              		.loc 1 1063 0
 2964 00b2 3B68     		ldr	r3, [r7]
 2965 00b4 9B88     		ldrh	r3, [r3, #4]
 2966 00b6 5B02     		lsls	r3, r3, #9
 2967 00b8 1749     		ldr	r1, .L208+16
ARM GAS  C:\Users\salaz\AppData\Local\Temp\ccSSnxm1.s 			page 72


 2968 00ba 0B40     		ands	r3, r1
 2969 00bc 1A43     		orrs	r2, r3
1064:Generated_Source\PSoC6\pdl\drivers\peripheral\prot/cy_prot.c ****                     /* No region size - read only */
1065:Generated_Source\PSoC6\pdl\drivers\peripheral\prot/cy_prot.c ****                     | _VAL2FLD(PERI_PPU_GR_ATT0_PC_MATCH, config->pcMatch);
 2970              		.loc 1 1065 0
 2971 00be 3B68     		ldr	r3, [r7]
 2972 00c0 DB78     		ldrb	r3, [r3, #3]
 2973 00c2 9907     		lsls	r1, r3, #30
 2974 00c4 8023     		movs	r3, #128
 2975 00c6 DB05     		lsls	r3, r3, #23
 2976 00c8 0B40     		ands	r3, r1
1060:Generated_Source\PSoC6\pdl\drivers\peripheral\prot/cy_prot.c ****                     | (uint32_t)(((uint32_t)config->privPermission & CY_PROT_ATT_PERMISSION_MASK) <
 2977              		.loc 1 1060 0
 2978 00ca 1343     		orrs	r3, r2
 2979 00cc BB60     		str	r3, [r7, #8]
1066:Generated_Source\PSoC6\pdl\drivers\peripheral\prot/cy_prot.c ****         if ((attReg & CY_PROT_PPU_GR_ATT0_MASK) != attReg)
 2980              		.loc 1 1066 0
 2981 00ce BB68     		ldr	r3, [r7, #8]
 2982 00d0 124A     		ldr	r2, .L208+20
 2983 00d2 1A40     		ands	r2, r3
 2984 00d4 BB68     		ldr	r3, [r7, #8]
 2985 00d6 9A42     		cmp	r2, r3
 2986 00d8 02D0     		beq	.L204
1067:Generated_Source\PSoC6\pdl\drivers\peripheral\prot/cy_prot.c ****         {
1068:Generated_Source\PSoC6\pdl\drivers\peripheral\prot/cy_prot.c ****             /* Invalid parameter was passed */
1069:Generated_Source\PSoC6\pdl\drivers\peripheral\prot/cy_prot.c ****             status = CY_PROT_BAD_PARAM;
 2987              		.loc 1 1069 0
 2988 00da 0E4B     		ldr	r3, .L208+12
 2989 00dc FB60     		str	r3, [r7, #12]
 2990 00de 0DE0     		b	.L203
 2991              	.L204:
1070:Generated_Source\PSoC6\pdl\drivers\peripheral\prot/cy_prot.c ****         }
1071:Generated_Source\PSoC6\pdl\drivers\peripheral\prot/cy_prot.c ****         else
1072:Generated_Source\PSoC6\pdl\drivers\peripheral\prot/cy_prot.c ****         {
1073:Generated_Source\PSoC6\pdl\drivers\peripheral\prot/cy_prot.c ****             base->ATT0 = attReg;
 2992              		.loc 1 1073 0
 2993 00e0 7B68     		ldr	r3, [r7, #4]
 2994 00e2 BA68     		ldr	r2, [r7, #8]
 2995 00e4 5A60     		str	r2, [r3, #4]
1074:Generated_Source\PSoC6\pdl\drivers\peripheral\prot/cy_prot.c ****             status = ((base->ATT0 & CY_PROT_PPU_GR_ATT0_MASK) != attReg) ? CY_PROT_FAILURE : CY_PRO
 2996              		.loc 1 1074 0
 2997 00e6 7B68     		ldr	r3, [r7, #4]
 2998 00e8 5B68     		ldr	r3, [r3, #4]
 2999 00ea 0C4A     		ldr	r2, .L208+20
 3000 00ec 1A40     		ands	r2, r3
 3001 00ee BB68     		ldr	r3, [r7, #8]
 3002 00f0 9A42     		cmp	r2, r3
 3003 00f2 01D0     		beq	.L205
 3004              		.loc 1 1074 0 is_stmt 0 discriminator 1
 3005 00f4 0A4B     		ldr	r3, .L208+24
 3006 00f6 00E0     		b	.L206
 3007              	.L205:
 3008              		.loc 1 1074 0 discriminator 2
 3009 00f8 0023     		movs	r3, #0
 3010              	.L206:
 3011              		.loc 1 1074 0 discriminator 4
 3012 00fa FB60     		str	r3, [r7, #12]
ARM GAS  C:\Users\salaz\AppData\Local\Temp\ccSSnxm1.s 			page 73


 3013              	.L203:
1075:Generated_Source\PSoC6\pdl\drivers\peripheral\prot/cy_prot.c ****         }
1076:Generated_Source\PSoC6\pdl\drivers\peripheral\prot/cy_prot.c ****     }    
1077:Generated_Source\PSoC6\pdl\drivers\peripheral\prot/cy_prot.c ****     return status;
 3014              		.loc 1 1077 0 is_stmt 1
 3015 00fc FB68     		ldr	r3, [r7, #12]
1078:Generated_Source\PSoC6\pdl\drivers\peripheral\prot/cy_prot.c **** }
 3016              		.loc 1 1078 0
 3017 00fe 1800     		movs	r0, r3
 3018 0100 BD46     		mov	sp, r7
 3019 0102 04B0     		add	sp, sp, #16
 3020              		@ sp needed
 3021 0104 80BD     		pop	{r7, pc}
 3022              	.L209:
 3023 0106 C046     		.align	2
 3024              	.L208:
 3025 0108 00000000 		.word	.LC0
 3026 010c 19040000 		.word	1049
 3027 0110 1A040000 		.word	1050
 3028 0114 0100C200 		.word	12713985
 3029 0118 00FEFF00 		.word	16776704
 3030 011c DBFEFFE0 		.word	-520093989
 3031 0120 0300C200 		.word	12713987
 3032              		.cfi_endproc
 3033              	.LFE55:
 3034              		.size	Cy_Prot_ConfigPpuFixedGrSlaveStruct, .-Cy_Prot_ConfigPpuFixedGrSlaveStruct
 3035              		.section	.text.Cy_Prot_EnablePpuFixedGrMasterStruct,"ax",%progbits
 3036              		.align	2
 3037              		.global	Cy_Prot_EnablePpuFixedGrMasterStruct
 3038              		.code	16
 3039              		.thumb_func
 3040              		.type	Cy_Prot_EnablePpuFixedGrMasterStruct, %function
 3041              	Cy_Prot_EnablePpuFixedGrMasterStruct:
 3042              	.LFB56:
1079:Generated_Source\PSoC6\pdl\drivers\peripheral\prot/cy_prot.c **** 
1080:Generated_Source\PSoC6\pdl\drivers\peripheral\prot/cy_prot.c **** 
1081:Generated_Source\PSoC6\pdl\drivers\peripheral\prot/cy_prot.c **** /*******************************************************************************
1082:Generated_Source\PSoC6\pdl\drivers\peripheral\prot/cy_prot.c **** * Function Name: Cy_Prot_EnablePpuFixedGrMasterStruct
1083:Generated_Source\PSoC6\pdl\drivers\peripheral\prot/cy_prot.c **** ****************************************************************************//**
1084:Generated_Source\PSoC6\pdl\drivers\peripheral\prot/cy_prot.c **** *
1085:Generated_Source\PSoC6\pdl\drivers\peripheral\prot/cy_prot.c **** * \brief Enables the Master PPU GR structure.
1086:Generated_Source\PSoC6\pdl\drivers\peripheral\prot/cy_prot.c **** *
1087:Generated_Source\PSoC6\pdl\drivers\peripheral\prot/cy_prot.c **** * This is a PPU GR master struct enable function. The PPU GR protection 
1088:Generated_Source\PSoC6\pdl\drivers\peripheral\prot/cy_prot.c **** * settings will take effect after successful completion of this function call.
1089:Generated_Source\PSoC6\pdl\drivers\peripheral\prot/cy_prot.c **** *
1090:Generated_Source\PSoC6\pdl\drivers\peripheral\prot/cy_prot.c **** * \param base
1091:Generated_Source\PSoC6\pdl\drivers\peripheral\prot/cy_prot.c **** * The base address for the protection unit structure being configured. 
1092:Generated_Source\PSoC6\pdl\drivers\peripheral\prot/cy_prot.c **** *
1093:Generated_Source\PSoC6\pdl\drivers\peripheral\prot/cy_prot.c **** * \return
1094:Generated_Source\PSoC6\pdl\drivers\peripheral\prot/cy_prot.c **** * Status of the function call.
1095:Generated_Source\PSoC6\pdl\drivers\peripheral\prot/cy_prot.c **** *
1096:Generated_Source\PSoC6\pdl\drivers\peripheral\prot/cy_prot.c **** *   Status               | Description
1097:Generated_Source\PSoC6\pdl\drivers\peripheral\prot/cy_prot.c **** *   ------------         | -----------
1098:Generated_Source\PSoC6\pdl\drivers\peripheral\prot/cy_prot.c **** *   CY_PROT_SUCCESS      | The Master PU struct was enabled
1099:Generated_Source\PSoC6\pdl\drivers\peripheral\prot/cy_prot.c **** *   CY_PROT_FAILURE      | The Master PU struct is disabled and possibly locked
1100:Generated_Source\PSoC6\pdl\drivers\peripheral\prot/cy_prot.c **** *
1101:Generated_Source\PSoC6\pdl\drivers\peripheral\prot/cy_prot.c **** * \funcusage
ARM GAS  C:\Users\salaz\AppData\Local\Temp\ccSSnxm1.s 			page 74


1102:Generated_Source\PSoC6\pdl\drivers\peripheral\prot/cy_prot.c **** * \snippet prot/prot_v1_10_sut_01.cydsn/main_cm4.c snippet_Cy_Prot_EnablePpuFixedGrMasterStruct
1103:Generated_Source\PSoC6\pdl\drivers\peripheral\prot/cy_prot.c **** *
1104:Generated_Source\PSoC6\pdl\drivers\peripheral\prot/cy_prot.c **** *******************************************************************************/
1105:Generated_Source\PSoC6\pdl\drivers\peripheral\prot/cy_prot.c **** cy_en_prot_status_t Cy_Prot_EnablePpuFixedGrMasterStruct(PERI_PPU_GR_Type* base)
1106:Generated_Source\PSoC6\pdl\drivers\peripheral\prot/cy_prot.c **** {
 3043              		.loc 1 1106 0
 3044              		.cfi_startproc
 3045              		@ args = 0, pretend = 0, frame = 16
 3046              		@ frame_needed = 1, uses_anonymous_args = 0
 3047 0000 80B5     		push	{r7, lr}
 3048              		.cfi_def_cfa_offset 8
 3049              		.cfi_offset 7, -8
 3050              		.cfi_offset 14, -4
 3051 0002 84B0     		sub	sp, sp, #16
 3052              		.cfi_def_cfa_offset 24
 3053 0004 00AF     		add	r7, sp, #0
 3054              		.cfi_def_cfa_register 7
 3055 0006 7860     		str	r0, [r7, #4]
1107:Generated_Source\PSoC6\pdl\drivers\peripheral\prot/cy_prot.c ****     cy_en_prot_status_t status;
1108:Generated_Source\PSoC6\pdl\drivers\peripheral\prot/cy_prot.c ****     
1109:Generated_Source\PSoC6\pdl\drivers\peripheral\prot/cy_prot.c ****     base->ATT1 |= _VAL2FLD(PERI_PPU_GR_ATT1_ENABLED, CY_PROT_STRUCT_ENABLE);
 3056              		.loc 1 1109 0
 3057 0008 7B68     		ldr	r3, [r7, #4]
 3058 000a 5B6A     		ldr	r3, [r3, #36]
 3059 000c 8022     		movs	r2, #128
 3060 000e 1206     		lsls	r2, r2, #24
 3061 0010 1A43     		orrs	r2, r3
 3062 0012 7B68     		ldr	r3, [r7, #4]
 3063 0014 5A62     		str	r2, [r3, #36]
1110:Generated_Source\PSoC6\pdl\drivers\peripheral\prot/cy_prot.c ****     status = (_FLD2VAL(PERI_PPU_GR_ATT1_ENABLED, base->ATT1) != CY_PROT_STRUCT_ENABLE) ?
 3064              		.loc 1 1110 0
 3065 0016 7B68     		ldr	r3, [r7, #4]
 3066 0018 5B6A     		ldr	r3, [r3, #36]
 3067 001a DB0F     		lsrs	r3, r3, #31
 3068 001c DB07     		lsls	r3, r3, #31
 3069 001e DB0F     		lsrs	r3, r3, #31
 3070 0020 012B     		cmp	r3, #1
 3071 0022 01D0     		beq	.L211
 3072              		.loc 1 1110 0 is_stmt 0 discriminator 1
 3073 0024 044B     		ldr	r3, .L214
 3074 0026 00E0     		b	.L212
 3075              	.L211:
 3076              		.loc 1 1110 0 discriminator 2
 3077 0028 0023     		movs	r3, #0
 3078              	.L212:
 3079              		.loc 1 1110 0 discriminator 4
 3080 002a FB60     		str	r3, [r7, #12]
1111:Generated_Source\PSoC6\pdl\drivers\peripheral\prot/cy_prot.c ****                 CY_PROT_FAILURE : CY_PROT_SUCCESS;
1112:Generated_Source\PSoC6\pdl\drivers\peripheral\prot/cy_prot.c ****     
1113:Generated_Source\PSoC6\pdl\drivers\peripheral\prot/cy_prot.c ****     return status;
 3081              		.loc 1 1113 0 is_stmt 1 discriminator 4
 3082 002c FB68     		ldr	r3, [r7, #12]
1114:Generated_Source\PSoC6\pdl\drivers\peripheral\prot/cy_prot.c **** }
 3083              		.loc 1 1114 0 discriminator 4
 3084 002e 1800     		movs	r0, r3
