ARM GAS  C:\Users\salaz\AppData\Local\Temp\ccSSnxm1.s 			page 1


   1              		.syntax unified
   2              		.cpu cortex-m0plus
   3              		.fpu softvfp
   4              		.eabi_attribute 20, 1
   5              		.eabi_attribute 21, 1
   6              		.eabi_attribute 23, 3
   7              		.eabi_attribute 24, 1
   8              		.eabi_attribute 25, 1
   9              		.eabi_attribute 26, 1
  10              		.eabi_attribute 30, 6
  11              		.eabi_attribute 34, 0
  12              		.eabi_attribute 18, 4
  13              		.thumb
  14              		.syntax unified
  15              		.file	"cy_prot.c"
  16              		.text
  17              	.Ltext0:
  18              		.cfi_sections	.debug_frame
  19              		.section	.rodata
  20              		.align	2
  21              	.LC0:
  22 0000 47656E65 		.ascii	"Generated_Source\\PSoC6\\pdl\\drivers\\peripheral\\"
  22      72617465 
  22      645F536F 
  22      75726365 
  22      5C50536F 
  23 002e 70726F74 		.ascii	"prot\\cy_prot.c\000"
  23      5C63795F 
  23      70726F74 
  23      2E6300
  24              		.section	.text.Cy_Prot_ConfigBusMaster,"ax",%progbits
  25              		.align	2
  26              		.global	Cy_Prot_ConfigBusMaster
  27              		.code	16
  28              		.thumb_func
  29              		.type	Cy_Prot_ConfigBusMaster, %function
  30              	Cy_Prot_ConfigBusMaster:
  31              	.LFB36:
  32              		.file 1 "Generated_Source\\PSoC6\\pdl\\drivers\\peripheral\\prot\\cy_prot.c"
   1:Generated_Source\PSoC6\pdl\drivers\peripheral\prot/cy_prot.c **** /***************************************************************************//**
   2:Generated_Source\PSoC6\pdl\drivers\peripheral\prot/cy_prot.c **** * \file cy_prot.c
   3:Generated_Source\PSoC6\pdl\drivers\peripheral\prot/cy_prot.c **** * \version 1.10
   4:Generated_Source\PSoC6\pdl\drivers\peripheral\prot/cy_prot.c **** *
   5:Generated_Source\PSoC6\pdl\drivers\peripheral\prot/cy_prot.c **** * \brief
   6:Generated_Source\PSoC6\pdl\drivers\peripheral\prot/cy_prot.c **** * Provides an API implementation of the Protection Unit driver
   7:Generated_Source\PSoC6\pdl\drivers\peripheral\prot/cy_prot.c **** *
   8:Generated_Source\PSoC6\pdl\drivers\peripheral\prot/cy_prot.c **** ********************************************************************************
   9:Generated_Source\PSoC6\pdl\drivers\peripheral\prot/cy_prot.c **** * \copyright
  10:Generated_Source\PSoC6\pdl\drivers\peripheral\prot/cy_prot.c **** * Copyright 2016-2018, Cypress Semiconductor Corporation. All rights reserved.
  11:Generated_Source\PSoC6\pdl\drivers\peripheral\prot/cy_prot.c **** * You may use this file only in accordance with the license, terms, conditions,
  12:Generated_Source\PSoC6\pdl\drivers\peripheral\prot/cy_prot.c **** * disclaimers, and limitations in the end user license agreement accompanying
  13:Generated_Source\PSoC6\pdl\drivers\peripheral\prot/cy_prot.c **** * the software package with which this file was provided.
  14:Generated_Source\PSoC6\pdl\drivers\peripheral\prot/cy_prot.c **** *******************************************************************************/
  15:Generated_Source\PSoC6\pdl\drivers\peripheral\prot/cy_prot.c **** 
  16:Generated_Source\PSoC6\pdl\drivers\peripheral\prot/cy_prot.c **** #include "cy_prot.h"
  17:Generated_Source\PSoC6\pdl\drivers\peripheral\prot/cy_prot.c **** 
  18:Generated_Source\PSoC6\pdl\drivers\peripheral\prot/cy_prot.c **** #if defined(__cplusplus)
ARM GAS  C:\Users\salaz\AppData\Local\Temp\ccSSnxm1.s 			page 2


  19:Generated_Source\PSoC6\pdl\drivers\peripheral\prot/cy_prot.c **** extern "C" {
  20:Generated_Source\PSoC6\pdl\drivers\peripheral\prot/cy_prot.c **** #endif
  21:Generated_Source\PSoC6\pdl\drivers\peripheral\prot/cy_prot.c **** 
  22:Generated_Source\PSoC6\pdl\drivers\peripheral\prot/cy_prot.c **** 
  23:Generated_Source\PSoC6\pdl\drivers\peripheral\prot/cy_prot.c **** /*******************************************************************************
  24:Generated_Source\PSoC6\pdl\drivers\peripheral\prot/cy_prot.c **** * Function Name: Cy_Prot_ConfigBusMaster
  25:Generated_Source\PSoC6\pdl\drivers\peripheral\prot/cy_prot.c **** ****************************************************************************//**
  26:Generated_Source\PSoC6\pdl\drivers\peripheral\prot/cy_prot.c **** *
  27:Generated_Source\PSoC6\pdl\drivers\peripheral\prot/cy_prot.c **** * \brief Configures the allowed protection contexts, security (secure/non-secure)
  28:Generated_Source\PSoC6\pdl\drivers\peripheral\prot/cy_prot.c **** * and privilege level of the bus transaction created by the specified master. 
  29:Generated_Source\PSoC6\pdl\drivers\peripheral\prot/cy_prot.c **** *
  30:Generated_Source\PSoC6\pdl\drivers\peripheral\prot/cy_prot.c **** * \param busMaster
  31:Generated_Source\PSoC6\pdl\drivers\peripheral\prot/cy_prot.c **** * Indicates which master needs to be configured. Refer to the CPUSS_MS_ID_X
  32:Generated_Source\PSoC6\pdl\drivers\peripheral\prot/cy_prot.c **** * defines.
  33:Generated_Source\PSoC6\pdl\drivers\peripheral\prot/cy_prot.c **** * 
  34:Generated_Source\PSoC6\pdl\drivers\peripheral\prot/cy_prot.c **** * \param privileged
  35:Generated_Source\PSoC6\pdl\drivers\peripheral\prot/cy_prot.c **** * Boolean to define the privilege level of all subsequent bus transfers.
  36:Generated_Source\PSoC6\pdl\drivers\peripheral\prot/cy_prot.c **** * True - privileged, False - not privileged.
  37:Generated_Source\PSoC6\pdl\drivers\peripheral\prot/cy_prot.c **** * Note that this is an inherited value. If not inherited, then this bit will 
  38:Generated_Source\PSoC6\pdl\drivers\peripheral\prot/cy_prot.c **** * be used.
  39:Generated_Source\PSoC6\pdl\drivers\peripheral\prot/cy_prot.c **** *
  40:Generated_Source\PSoC6\pdl\drivers\peripheral\prot/cy_prot.c **** * \param secure
  41:Generated_Source\PSoC6\pdl\drivers\peripheral\prot/cy_prot.c **** * Security setting for the master. True - Secure, False - Not secure.
  42:Generated_Source\PSoC6\pdl\drivers\peripheral\prot/cy_prot.c **** * 
  43:Generated_Source\PSoC6\pdl\drivers\peripheral\prot/cy_prot.c **** * \param pcMask
  44:Generated_Source\PSoC6\pdl\drivers\peripheral\prot/cy_prot.c **** * This is a 16 bit value of the allowed contexts, it is an OR'ed (|) field of the
  45:Generated_Source\PSoC6\pdl\drivers\peripheral\prot/cy_prot.c **** * provided defines in cy_prot.h. For example: (PROT_PC1 | PROT_PC3 | PROT_PC4)
  46:Generated_Source\PSoC6\pdl\drivers\peripheral\prot/cy_prot.c **** * 
  47:Generated_Source\PSoC6\pdl\drivers\peripheral\prot/cy_prot.c **** * \return
  48:Generated_Source\PSoC6\pdl\drivers\peripheral\prot/cy_prot.c **** * Status of the function call.
  49:Generated_Source\PSoC6\pdl\drivers\peripheral\prot/cy_prot.c **** *
  50:Generated_Source\PSoC6\pdl\drivers\peripheral\prot/cy_prot.c **** *   Status               | Description
  51:Generated_Source\PSoC6\pdl\drivers\peripheral\prot/cy_prot.c **** *   ------------         | -----------
  52:Generated_Source\PSoC6\pdl\drivers\peripheral\prot/cy_prot.c **** *   CY_PROT_SUCCESS      | The function completed successfully
  53:Generated_Source\PSoC6\pdl\drivers\peripheral\prot/cy_prot.c **** *   CY_PROT_FAILURE      | The resource is locked
  54:Generated_Source\PSoC6\pdl\drivers\peripheral\prot/cy_prot.c **** *   CY_PROT_BAD_PARAM    | An incorrect/invalid parameter was passed
  55:Generated_Source\PSoC6\pdl\drivers\peripheral\prot/cy_prot.c **** *
  56:Generated_Source\PSoC6\pdl\drivers\peripheral\prot/cy_prot.c **** * \funcusage
  57:Generated_Source\PSoC6\pdl\drivers\peripheral\prot/cy_prot.c **** * \snippet prot/prot_v1_10_sut_01.cydsn/main_cm4.c snippet_Cy_Prot_ConfigBusMaster
  58:Generated_Source\PSoC6\pdl\drivers\peripheral\prot/cy_prot.c **** *
  59:Generated_Source\PSoC6\pdl\drivers\peripheral\prot/cy_prot.c **** *******************************************************************************/
  60:Generated_Source\PSoC6\pdl\drivers\peripheral\prot/cy_prot.c **** cy_en_prot_status_t Cy_Prot_ConfigBusMaster(en_prot_master_t busMaster, bool privileged, bool secur
  61:Generated_Source\PSoC6\pdl\drivers\peripheral\prot/cy_prot.c **** {
  33              		.loc 1 61 0
  34              		.cfi_startproc
  35              		@ args = 0, pretend = 0, frame = 24
  36              		@ frame_needed = 1, uses_anonymous_args = 0
  37 0000 90B5     		push	{r4, r7, lr}
  38              		.cfi_def_cfa_offset 12
  39              		.cfi_offset 4, -12
  40              		.cfi_offset 7, -8
  41              		.cfi_offset 14, -4
  42 0002 87B0     		sub	sp, sp, #28
  43              		.cfi_def_cfa_offset 40
  44 0004 00AF     		add	r7, sp, #0
  45              		.cfi_def_cfa_register 7
  46 0006 0400     		movs	r4, r0
ARM GAS  C:\Users\salaz\AppData\Local\Temp\ccSSnxm1.s 			page 3


  47 0008 0800     		movs	r0, r1
  48 000a 1100     		movs	r1, r2
  49 000c 3B60     		str	r3, [r7]
  50 000e FB1D     		adds	r3, r7, #7
  51 0010 221C     		adds	r2, r4, #0
  52 0012 1A70     		strb	r2, [r3]
  53 0014 BB1D     		adds	r3, r7, #6
  54 0016 021C     		adds	r2, r0, #0
  55 0018 1A70     		strb	r2, [r3]
  56 001a 7B1D     		adds	r3, r7, #5
  57 001c 0A1C     		adds	r2, r1, #0
  58 001e 1A70     		strb	r2, [r3]
  62:Generated_Source\PSoC6\pdl\drivers\peripheral\prot/cy_prot.c ****     cy_en_prot_status_t status;
  63:Generated_Source\PSoC6\pdl\drivers\peripheral\prot/cy_prot.c ****     uint32_t regVal;
  64:Generated_Source\PSoC6\pdl\drivers\peripheral\prot/cy_prot.c ****     uint32_t * addrMsCtl;
  65:Generated_Source\PSoC6\pdl\drivers\peripheral\prot/cy_prot.c **** 
  66:Generated_Source\PSoC6\pdl\drivers\peripheral\prot/cy_prot.c ****     CY_ASSERT_L1(CY_PROT_IS_BUS_MASTER_VALID(busMaster));
  59              		.loc 1 66 0
  60 0020 FB1D     		adds	r3, r7, #7
  61 0022 1B78     		ldrb	r3, [r3]
  62 0024 0F2B     		cmp	r3, #15
  63 0026 04D9     		bls	.L2
  64              		.loc 1 66 0 is_stmt 0 discriminator 1
  65 0028 374B     		ldr	r3, .L28
  66 002a 4221     		movs	r1, #66
  67 002c 1800     		movs	r0, r3
  68 002e FFF7FEFF 		bl	Cy_SysLib_AssertFailed
  69              	.L2:
  67:Generated_Source\PSoC6\pdl\drivers\peripheral\prot/cy_prot.c ****         
  68:Generated_Source\PSoC6\pdl\drivers\peripheral\prot/cy_prot.c ****     addrMsCtl = (uint32_t *)(PROT_BASE + (uint32_t)((uint32_t)busMaster << CY_PROT_MSX_CTL_SHIFT));
  70              		.loc 1 68 0 is_stmt 1
  71 0032 FB1D     		adds	r3, r7, #7
  72 0034 1B78     		ldrb	r3, [r3]
  73 0036 9B00     		lsls	r3, r3, #2
  74 0038 344A     		ldr	r2, .L28+4
  75 003a 9446     		mov	ip, r2
  76 003c 6344     		add	r3, r3, ip
  77 003e 3B61     		str	r3, [r7, #16]
  69:Generated_Source\PSoC6\pdl\drivers\peripheral\prot/cy_prot.c ****     
  70:Generated_Source\PSoC6\pdl\drivers\peripheral\prot/cy_prot.c ****     /* Check if PC mask is in supported range */
  71:Generated_Source\PSoC6\pdl\drivers\peripheral\prot/cy_prot.c ****     switch (busMaster)
  78              		.loc 1 71 0
  79 0040 FB1D     		adds	r3, r7, #7
  80 0042 1B78     		ldrb	r3, [r3]
  81 0044 0F2B     		cmp	r3, #15
  82 0046 38D8     		bhi	.L3
  83 0048 9A00     		lsls	r2, r3, #2
  84 004a 314B     		ldr	r3, .L28+8
  85 004c D318     		adds	r3, r2, r3
  86 004e 1B68     		ldr	r3, [r3]
  87 0050 9F46     		mov	pc, r3
  88              		.section	.rodata
  89 003d 000000   		.align	2
  90              	.L5:
  91 0040 52000000 		.word	.L4
  92 0044 64000000 		.word	.L6
  93 0048 76000000 		.word	.L7
ARM GAS  C:\Users\salaz\AppData\Local\Temp\ccSSnxm1.s 			page 4


  94 004c 86000000 		.word	.L8
  95 0050 BA000000 		.word	.L3
  96 0054 BA000000 		.word	.L3
  97 0058 BA000000 		.word	.L3
  98 005c BA000000 		.word	.L3
  99 0060 BA000000 		.word	.L3
 100 0064 BA000000 		.word	.L3
 101 0068 BA000000 		.word	.L3
 102 006c BA000000 		.word	.L3
 103 0070 BA000000 		.word	.L3
 104 0074 BA000000 		.word	.L3
 105 0078 96000000 		.word	.L9
 106 007c A8000000 		.word	.L10
 107              		.section	.text.Cy_Prot_ConfigBusMaster
 108              	.L4:
  72:Generated_Source\PSoC6\pdl\drivers\peripheral\prot/cy_prot.c ****     {
  73:Generated_Source\PSoC6\pdl\drivers\peripheral\prot/cy_prot.c ****         case (CPUSS_MS_ID_CM0):
  74:Generated_Source\PSoC6\pdl\drivers\peripheral\prot/cy_prot.c ****         {
  75:Generated_Source\PSoC6\pdl\drivers\peripheral\prot/cy_prot.c ****             status = ((uint32_t)(pcMask & CY_PROT_MS0_PC_LIMIT_MASK) != 0UL) ? CY_PROT_BAD_PARAM : 
 109              		.loc 1 75 0
 110 0052 3B68     		ldr	r3, [r7]
 111 0054 7F22     		movs	r2, #127
 112 0056 9343     		bics	r3, r2
 113 0058 01D0     		beq	.L11
 114              		.loc 1 75 0 is_stmt 0 discriminator 1
 115 005a 2E4B     		ldr	r3, .L28+12
 116 005c 00E0     		b	.L12
 117              	.L11:
 118              		.loc 1 75 0 discriminator 2
 119 005e 0023     		movs	r3, #0
 120              	.L12:
 121              		.loc 1 75 0 discriminator 4
 122 0060 7B61     		str	r3, [r7, #20]
  76:Generated_Source\PSoC6\pdl\drivers\peripheral\prot/cy_prot.c ****             break;
 123              		.loc 1 76 0 is_stmt 1 discriminator 4
 124 0062 2DE0     		b	.L13
 125              	.L6:
  77:Generated_Source\PSoC6\pdl\drivers\peripheral\prot/cy_prot.c ****         }
  78:Generated_Source\PSoC6\pdl\drivers\peripheral\prot/cy_prot.c ****         case (CPUSS_MS_ID_CRYPTO):
  79:Generated_Source\PSoC6\pdl\drivers\peripheral\prot/cy_prot.c ****         {
  80:Generated_Source\PSoC6\pdl\drivers\peripheral\prot/cy_prot.c ****             status = ((uint32_t)(pcMask & CY_PROT_MS1_PC_LIMIT_MASK) != 0UL) ? CY_PROT_BAD_PARAM : 
 126              		.loc 1 80 0
 127 0064 3B68     		ldr	r3, [r7]
 128 0066 7F22     		movs	r2, #127
 129 0068 9343     		bics	r3, r2
 130 006a 01D0     		beq	.L14
 131              		.loc 1 80 0 is_stmt 0 discriminator 1
 132 006c 294B     		ldr	r3, .L28+12
 133 006e 00E0     		b	.L15
 134              	.L14:
 135              		.loc 1 80 0 discriminator 2
 136 0070 0023     		movs	r3, #0
 137              	.L15:
 138              		.loc 1 80 0 discriminator 4
 139 0072 7B61     		str	r3, [r7, #20]
  81:Generated_Source\PSoC6\pdl\drivers\peripheral\prot/cy_prot.c ****             break;
 140              		.loc 1 81 0 is_stmt 1 discriminator 4
ARM GAS  C:\Users\salaz\AppData\Local\Temp\ccSSnxm1.s 			page 5


 141 0074 24E0     		b	.L13
 142              	.L7:
  82:Generated_Source\PSoC6\pdl\drivers\peripheral\prot/cy_prot.c ****         }
  83:Generated_Source\PSoC6\pdl\drivers\peripheral\prot/cy_prot.c ****         case (CPUSS_MS_ID_DW0):
  84:Generated_Source\PSoC6\pdl\drivers\peripheral\prot/cy_prot.c ****         {
  85:Generated_Source\PSoC6\pdl\drivers\peripheral\prot/cy_prot.c ****             status = ((uint32_t)(pcMask & CY_PROT_MS2_PC_LIMIT_MASK) != 0UL) ? CY_PROT_BAD_PARAM : 
 143              		.loc 1 85 0
 144 0076 3B68     		ldr	r3, [r7]
 145 0078 002B     		cmp	r3, #0
 146 007a 01D0     		beq	.L16
 147              		.loc 1 85 0 is_stmt 0 discriminator 1
 148 007c 254B     		ldr	r3, .L28+12
 149 007e 00E0     		b	.L17
 150              	.L16:
 151              		.loc 1 85 0 discriminator 2
 152 0080 0023     		movs	r3, #0
 153              	.L17:
 154              		.loc 1 85 0 discriminator 4
 155 0082 7B61     		str	r3, [r7, #20]
  86:Generated_Source\PSoC6\pdl\drivers\peripheral\prot/cy_prot.c ****             break;
 156              		.loc 1 86 0 is_stmt 1 discriminator 4
 157 0084 1CE0     		b	.L13
 158              	.L8:
  87:Generated_Source\PSoC6\pdl\drivers\peripheral\prot/cy_prot.c ****         }
  88:Generated_Source\PSoC6\pdl\drivers\peripheral\prot/cy_prot.c ****         case (CPUSS_MS_ID_DW1):
  89:Generated_Source\PSoC6\pdl\drivers\peripheral\prot/cy_prot.c ****         {
  90:Generated_Source\PSoC6\pdl\drivers\peripheral\prot/cy_prot.c ****             status = ((uint32_t)(pcMask & CY_PROT_MS3_PC_LIMIT_MASK) != 0UL) ? CY_PROT_BAD_PARAM : 
 159              		.loc 1 90 0
 160 0086 3B68     		ldr	r3, [r7]
 161 0088 002B     		cmp	r3, #0
 162 008a 01D0     		beq	.L18
 163              		.loc 1 90 0 is_stmt 0 discriminator 1
 164 008c 214B     		ldr	r3, .L28+12
 165 008e 00E0     		b	.L19
 166              	.L18:
 167              		.loc 1 90 0 discriminator 2
 168 0090 0023     		movs	r3, #0
 169              	.L19:
 170              		.loc 1 90 0 discriminator 4
 171 0092 7B61     		str	r3, [r7, #20]
  91:Generated_Source\PSoC6\pdl\drivers\peripheral\prot/cy_prot.c ****             break;
 172              		.loc 1 91 0 is_stmt 1 discriminator 4
 173 0094 14E0     		b	.L13
 174              	.L9:
  92:Generated_Source\PSoC6\pdl\drivers\peripheral\prot/cy_prot.c ****         }
  93:Generated_Source\PSoC6\pdl\drivers\peripheral\prot/cy_prot.c ****         case (CPUSS_MS_ID_CM4):
  94:Generated_Source\PSoC6\pdl\drivers\peripheral\prot/cy_prot.c ****         {
  95:Generated_Source\PSoC6\pdl\drivers\peripheral\prot/cy_prot.c ****             status = ((uint32_t)(pcMask & CY_PROT_MS14_PC_LIMIT_MASK) != 0UL) ? CY_PROT_BAD_PARAM :
 175              		.loc 1 95 0
 176 0096 3B68     		ldr	r3, [r7]
 177 0098 7F22     		movs	r2, #127
 178 009a 9343     		bics	r3, r2
 179 009c 01D0     		beq	.L20
 180              		.loc 1 95 0 is_stmt 0 discriminator 1
 181 009e 1D4B     		ldr	r3, .L28+12
 182 00a0 00E0     		b	.L21
 183              	.L20:
ARM GAS  C:\Users\salaz\AppData\Local\Temp\ccSSnxm1.s 			page 6


 184              		.loc 1 95 0 discriminator 2
 185 00a2 0023     		movs	r3, #0
 186              	.L21:
 187              		.loc 1 95 0 discriminator 4
 188 00a4 7B61     		str	r3, [r7, #20]
  96:Generated_Source\PSoC6\pdl\drivers\peripheral\prot/cy_prot.c ****             break;
 189              		.loc 1 96 0 is_stmt 1 discriminator 4
 190 00a6 0BE0     		b	.L13
 191              	.L10:
  97:Generated_Source\PSoC6\pdl\drivers\peripheral\prot/cy_prot.c ****         }
  98:Generated_Source\PSoC6\pdl\drivers\peripheral\prot/cy_prot.c ****         case (CPUSS_MS_ID_TC):
  99:Generated_Source\PSoC6\pdl\drivers\peripheral\prot/cy_prot.c ****         {
 100:Generated_Source\PSoC6\pdl\drivers\peripheral\prot/cy_prot.c ****             status = ((uint32_t)(pcMask & CY_PROT_MS15_PC_LIMIT_MASK) != 0UL) ? CY_PROT_BAD_PARAM :
 192              		.loc 1 100 0
 193 00a8 3B68     		ldr	r3, [r7]
 194 00aa 7F22     		movs	r2, #127
 195 00ac 9343     		bics	r3, r2
 196 00ae 01D0     		beq	.L22
 197              		.loc 1 100 0 is_stmt 0 discriminator 1
 198 00b0 184B     		ldr	r3, .L28+12
 199 00b2 00E0     		b	.L23
 200              	.L22:
 201              		.loc 1 100 0 discriminator 2
 202 00b4 0023     		movs	r3, #0
 203              	.L23:
 204              		.loc 1 100 0 discriminator 4
 205 00b6 7B61     		str	r3, [r7, #20]
 101:Generated_Source\PSoC6\pdl\drivers\peripheral\prot/cy_prot.c ****             break;
 206              		.loc 1 101 0 is_stmt 1 discriminator 4
 207 00b8 02E0     		b	.L13
 208              	.L3:
 102:Generated_Source\PSoC6\pdl\drivers\peripheral\prot/cy_prot.c ****         }
 103:Generated_Source\PSoC6\pdl\drivers\peripheral\prot/cy_prot.c ****         default:
 104:Generated_Source\PSoC6\pdl\drivers\peripheral\prot/cy_prot.c ****             status = CY_PROT_BAD_PARAM;
 209              		.loc 1 104 0
 210 00ba 164B     		ldr	r3, .L28+12
 211 00bc 7B61     		str	r3, [r7, #20]
 105:Generated_Source\PSoC6\pdl\drivers\peripheral\prot/cy_prot.c ****         break;
 212              		.loc 1 105 0
 213 00be C046     		nop
 214              	.L13:
 106:Generated_Source\PSoC6\pdl\drivers\peripheral\prot/cy_prot.c ****     }
 107:Generated_Source\PSoC6\pdl\drivers\peripheral\prot/cy_prot.c ****     
 108:Generated_Source\PSoC6\pdl\drivers\peripheral\prot/cy_prot.c ****     if(status != CY_PROT_BAD_PARAM) 
 215              		.loc 1 108 0
 216 00c0 7B69     		ldr	r3, [r7, #20]
 217 00c2 144A     		ldr	r2, .L28+12
 218 00c4 9342     		cmp	r3, r2
 219 00c6 1AD0     		beq	.L24
 109:Generated_Source\PSoC6\pdl\drivers\peripheral\prot/cy_prot.c ****     {
 110:Generated_Source\PSoC6\pdl\drivers\peripheral\prot/cy_prot.c ****         regVal = _VAL2FLD(PROT_SMPU_MS0_CTL_NS, !secure)
 220              		.loc 1 110 0
 221 00c8 7B1D     		adds	r3, r7, #5
 222 00ca 1B78     		ldrb	r3, [r3]
 223 00cc 0122     		movs	r2, #1
 224 00ce 5340     		eors	r3, r2
 225 00d0 DBB2     		uxtb	r3, r3
ARM GAS  C:\Users\salaz\AppData\Local\Temp\ccSSnxm1.s 			page 7


 226 00d2 5B00     		lsls	r3, r3, #1
 227 00d4 0222     		movs	r2, #2
 228 00d6 1A40     		ands	r2, r3
 111:Generated_Source\PSoC6\pdl\drivers\peripheral\prot/cy_prot.c ****                 | _VAL2FLD(PROT_SMPU_MS0_CTL_P, privileged)
 229              		.loc 1 111 0
 230 00d8 BB1D     		adds	r3, r7, #6
 231 00da 1B78     		ldrb	r3, [r3]
 232 00dc 1A43     		orrs	r2, r3
 112:Generated_Source\PSoC6\pdl\drivers\peripheral\prot/cy_prot.c ****                 | _VAL2FLD(PROT_SMPU_MS0_CTL_PC_MASK_15_TO_1, pcMask);
 233              		.loc 1 112 0
 234 00de 3B68     		ldr	r3, [r7]
 235 00e0 5B04     		lsls	r3, r3, #17
 110:Generated_Source\PSoC6\pdl\drivers\peripheral\prot/cy_prot.c ****                 | _VAL2FLD(PROT_SMPU_MS0_CTL_P, privileged)
 236              		.loc 1 110 0
 237 00e2 1343     		orrs	r3, r2
 238 00e4 FB60     		str	r3, [r7, #12]
 113:Generated_Source\PSoC6\pdl\drivers\peripheral\prot/cy_prot.c ****         *addrMsCtl = regVal;
 239              		.loc 1 113 0
 240 00e6 3B69     		ldr	r3, [r7, #16]
 241 00e8 FA68     		ldr	r2, [r7, #12]
 242 00ea 1A60     		str	r2, [r3]
 114:Generated_Source\PSoC6\pdl\drivers\peripheral\prot/cy_prot.c ****         status = (*addrMsCtl != regVal) ? CY_PROT_FAILURE : CY_PROT_SUCCESS;
 243              		.loc 1 114 0
 244 00ec 3B69     		ldr	r3, [r7, #16]
 245 00ee 1A68     		ldr	r2, [r3]
 246 00f0 FB68     		ldr	r3, [r7, #12]
 247 00f2 9A42     		cmp	r2, r3
 248 00f4 01D0     		beq	.L25
 249              		.loc 1 114 0 is_stmt 0 discriminator 1
 250 00f6 084B     		ldr	r3, .L28+16
 251 00f8 00E0     		b	.L26
 252              	.L25:
 253              		.loc 1 114 0 discriminator 2
 254 00fa 0023     		movs	r3, #0
 255              	.L26:
 256              		.loc 1 114 0 discriminator 4
 257 00fc 7B61     		str	r3, [r7, #20]
 258              	.L24:
 115:Generated_Source\PSoC6\pdl\drivers\peripheral\prot/cy_prot.c ****     }
 116:Generated_Source\PSoC6\pdl\drivers\peripheral\prot/cy_prot.c ****     
 117:Generated_Source\PSoC6\pdl\drivers\peripheral\prot/cy_prot.c ****     return status;
 259              		.loc 1 117 0 is_stmt 1
 260 00fe 7B69     		ldr	r3, [r7, #20]
 118:Generated_Source\PSoC6\pdl\drivers\peripheral\prot/cy_prot.c **** }
 261              		.loc 1 118 0
 262 0100 1800     		movs	r0, r3
 263 0102 BD46     		mov	sp, r7
 264 0104 07B0     		add	sp, sp, #28
 265              		@ sp needed
 266 0106 90BD     		pop	{r4, r7, pc}
 267              	.L29:
 268              		.align	2
 269              	.L28:
 270 0108 00000000 		.word	.LC0
 271 010c 00002440 		.word	1076101120
 272 0110 40000000 		.word	.L5
 273 0114 0100C200 		.word	12713985
ARM GAS  C:\Users\salaz\AppData\Local\Temp\ccSSnxm1.s 			page 8


 274 0118 0300C200 		.word	12713987
 275              		.cfi_endproc
 276              	.LFE36:
 277              		.size	Cy_Prot_ConfigBusMaster, .-Cy_Prot_ConfigBusMaster
 278              		.section	.text.Cy_Prot_SetActivePC,"ax",%progbits
 279              		.align	2
 280              		.global	Cy_Prot_SetActivePC
 281              		.code	16
 282              		.thumb_func
 283              		.type	Cy_Prot_SetActivePC, %function
 284              	Cy_Prot_SetActivePC:
 285              	.LFB37:
 119:Generated_Source\PSoC6\pdl\drivers\peripheral\prot/cy_prot.c **** 
 120:Generated_Source\PSoC6\pdl\drivers\peripheral\prot/cy_prot.c **** 
 121:Generated_Source\PSoC6\pdl\drivers\peripheral\prot/cy_prot.c **** /*******************************************************************************
 122:Generated_Source\PSoC6\pdl\drivers\peripheral\prot/cy_prot.c **** * Function Name: Cy_Prot_SetActivePC
 123:Generated_Source\PSoC6\pdl\drivers\peripheral\prot/cy_prot.c **** ****************************************************************************//**
 124:Generated_Source\PSoC6\pdl\drivers\peripheral\prot/cy_prot.c **** *
 125:Generated_Source\PSoC6\pdl\drivers\peripheral\prot/cy_prot.c **** * \brief Sets the current/active protection context of the specified bus master.
 126:Generated_Source\PSoC6\pdl\drivers\peripheral\prot/cy_prot.c **** * 
 127:Generated_Source\PSoC6\pdl\drivers\peripheral\prot/cy_prot.c **** * Allowed PC values are 1-15. If this value is not inherited from another bus 
 128:Generated_Source\PSoC6\pdl\drivers\peripheral\prot/cy_prot.c **** * master, the value set through this function is used.
 129:Generated_Source\PSoC6\pdl\drivers\peripheral\prot/cy_prot.c **** *
 130:Generated_Source\PSoC6\pdl\drivers\peripheral\prot/cy_prot.c **** * \param busMaster
 131:Generated_Source\PSoC6\pdl\drivers\peripheral\prot/cy_prot.c **** * The bus master to configure. Refer to the CPUSS_MS_ID_X defines.
 132:Generated_Source\PSoC6\pdl\drivers\peripheral\prot/cy_prot.c **** * 
 133:Generated_Source\PSoC6\pdl\drivers\peripheral\prot/cy_prot.c **** * \param pc
 134:Generated_Source\PSoC6\pdl\drivers\peripheral\prot/cy_prot.c **** * Active protection context of the specified master. Note that only those 
 135:Generated_Source\PSoC6\pdl\drivers\peripheral\prot/cy_prot.c **** * protection contexts allowed by the pcMask will take effect. 
 136:Generated_Source\PSoC6\pdl\drivers\peripheral\prot/cy_prot.c **** *
 137:Generated_Source\PSoC6\pdl\drivers\peripheral\prot/cy_prot.c **** * \return
 138:Generated_Source\PSoC6\pdl\drivers\peripheral\prot/cy_prot.c **** * Status of the function call.
 139:Generated_Source\PSoC6\pdl\drivers\peripheral\prot/cy_prot.c **** *
 140:Generated_Source\PSoC6\pdl\drivers\peripheral\prot/cy_prot.c **** *   Status               | Description
 141:Generated_Source\PSoC6\pdl\drivers\peripheral\prot/cy_prot.c **** *   ------------         | -----------
 142:Generated_Source\PSoC6\pdl\drivers\peripheral\prot/cy_prot.c **** *   CY_PROT_SUCCESS      | The function completed successfully
 143:Generated_Source\PSoC6\pdl\drivers\peripheral\prot/cy_prot.c **** *   CY_PROT_FAILURE      | The resource is locked
 144:Generated_Source\PSoC6\pdl\drivers\peripheral\prot/cy_prot.c **** *   CY_PROT_BAD_PARAM    | An incorrect/invalid parameter was passed
 145:Generated_Source\PSoC6\pdl\drivers\peripheral\prot/cy_prot.c **** *
 146:Generated_Source\PSoC6\pdl\drivers\peripheral\prot/cy_prot.c **** * \funcusage
 147:Generated_Source\PSoC6\pdl\drivers\peripheral\prot/cy_prot.c **** * \snippet prot/prot_v1_10_sut_01.cydsn/main_cm4.c snippet_Cy_Prot_SetActivePC
 148:Generated_Source\PSoC6\pdl\drivers\peripheral\prot/cy_prot.c **** *
 149:Generated_Source\PSoC6\pdl\drivers\peripheral\prot/cy_prot.c **** *******************************************************************************/
 150:Generated_Source\PSoC6\pdl\drivers\peripheral\prot/cy_prot.c **** cy_en_prot_status_t Cy_Prot_SetActivePC(en_prot_master_t busMaster, uint32_t pc)
 151:Generated_Source\PSoC6\pdl\drivers\peripheral\prot/cy_prot.c **** {
 286              		.loc 1 151 0
 287              		.cfi_startproc
 288              		@ args = 0, pretend = 0, frame = 16
 289              		@ frame_needed = 1, uses_anonymous_args = 0
 290 0000 80B5     		push	{r7, lr}
 291              		.cfi_def_cfa_offset 8
 292              		.cfi_offset 7, -8
 293              		.cfi_offset 14, -4
 294 0002 84B0     		sub	sp, sp, #16
 295              		.cfi_def_cfa_offset 24
 296 0004 00AF     		add	r7, sp, #0
 297              		.cfi_def_cfa_register 7
ARM GAS  C:\Users\salaz\AppData\Local\Temp\ccSSnxm1.s 			page 9


 298 0006 0200     		movs	r2, r0
 299 0008 3960     		str	r1, [r7]
 300 000a FB1D     		adds	r3, r7, #7
 301 000c 1A70     		strb	r2, [r3]
 152:Generated_Source\PSoC6\pdl\drivers\peripheral\prot/cy_prot.c ****     cy_en_prot_status_t status;
 153:Generated_Source\PSoC6\pdl\drivers\peripheral\prot/cy_prot.c ****     PROT_MPU_Type* addrMpu;
 154:Generated_Source\PSoC6\pdl\drivers\peripheral\prot/cy_prot.c ****     
 155:Generated_Source\PSoC6\pdl\drivers\peripheral\prot/cy_prot.c ****     CY_ASSERT_L1(CY_PROT_IS_BUS_MASTER_VALID(busMaster));
 302              		.loc 1 155 0
 303 000e FB1D     		adds	r3, r7, #7
 304 0010 1B78     		ldrb	r3, [r3]
 305 0012 0F2B     		cmp	r3, #15
 306 0014 04D9     		bls	.L31
 307              		.loc 1 155 0 is_stmt 0 discriminator 1
 308 0016 334B     		ldr	r3, .L57
 309 0018 9B21     		movs	r1, #155
 310 001a 1800     		movs	r0, r3
 311 001c FFF7FEFF 		bl	Cy_SysLib_AssertFailed
 312              	.L31:
 156:Generated_Source\PSoC6\pdl\drivers\peripheral\prot/cy_prot.c ****     
 157:Generated_Source\PSoC6\pdl\drivers\peripheral\prot/cy_prot.c ****     addrMpu = (PROT_MPU_Type*)(&PROT->CYMPU[busMaster]); 
 313              		.loc 1 157 0 is_stmt 1
 314 0020 FB1D     		adds	r3, r7, #7
 315 0022 1B78     		ldrb	r3, [r3]
 316 0024 9B02     		lsls	r3, r3, #10
 317 0026 304A     		ldr	r2, .L57+4
 318 0028 9446     		mov	ip, r2
 319 002a 6344     		add	r3, r3, ip
 320 002c BB60     		str	r3, [r7, #8]
 158:Generated_Source\PSoC6\pdl\drivers\peripheral\prot/cy_prot.c ****     
 159:Generated_Source\PSoC6\pdl\drivers\peripheral\prot/cy_prot.c ****     /* Check if PC value is in supported range */
 160:Generated_Source\PSoC6\pdl\drivers\peripheral\prot/cy_prot.c ****     switch (busMaster)
 321              		.loc 1 160 0
 322 002e FB1D     		adds	r3, r7, #7
 323 0030 1B78     		ldrb	r3, [r3]
 324 0032 0F2B     		cmp	r3, #15
 325 0034 34D8     		bhi	.L32
 326 0036 9A00     		lsls	r2, r3, #2
 327 0038 2C4B     		ldr	r3, .L57+8
 328 003a D318     		adds	r3, r2, r3
 329 003c 1B68     		ldr	r3, [r3]
 330 003e 9F46     		mov	pc, r3
 331              		.section	.rodata
 332              		.align	2
 333              	.L34:
 334 0080 40000000 		.word	.L33
 335 0084 50000000 		.word	.L35
 336 0088 60000000 		.word	.L36
 337 008c 70000000 		.word	.L37
 338 0090 A0000000 		.word	.L32
 339 0094 A0000000 		.word	.L32
 340 0098 A0000000 		.word	.L32
 341 009c A0000000 		.word	.L32
 342 00a0 A0000000 		.word	.L32
 343 00a4 A0000000 		.word	.L32
 344 00a8 A0000000 		.word	.L32
 345 00ac A0000000 		.word	.L32
ARM GAS  C:\Users\salaz\AppData\Local\Temp\ccSSnxm1.s 			page 10


 346 00b0 A0000000 		.word	.L32
 347 00b4 A0000000 		.word	.L32
 348 00b8 80000000 		.word	.L38
 349 00bc 90000000 		.word	.L39
 350              		.section	.text.Cy_Prot_SetActivePC
 351              	.L33:
 161:Generated_Source\PSoC6\pdl\drivers\peripheral\prot/cy_prot.c ****     {
 162:Generated_Source\PSoC6\pdl\drivers\peripheral\prot/cy_prot.c ****         case (CPUSS_MS_ID_CM0):
 163:Generated_Source\PSoC6\pdl\drivers\peripheral\prot/cy_prot.c ****         {
 164:Generated_Source\PSoC6\pdl\drivers\peripheral\prot/cy_prot.c ****             status = (pc > CPUSS_PROT_SMPU_MS0_PC_NR_MINUS1) ? CY_PROT_BAD_PARAM : CY_PROT_SUCCESS;
 352              		.loc 1 164 0
 353 0040 3B68     		ldr	r3, [r7]
 354 0042 072B     		cmp	r3, #7
 355 0044 01D9     		bls	.L40
 356              		.loc 1 164 0 is_stmt 0 discriminator 1
 357 0046 2A4B     		ldr	r3, .L57+12
 358 0048 00E0     		b	.L41
 359              	.L40:
 360              		.loc 1 164 0 discriminator 2
 361 004a 0023     		movs	r3, #0
 362              	.L41:
 363              		.loc 1 164 0 discriminator 4
 364 004c FB60     		str	r3, [r7, #12]
 165:Generated_Source\PSoC6\pdl\drivers\peripheral\prot/cy_prot.c ****             break;
 365              		.loc 1 165 0 is_stmt 1 discriminator 4
 366 004e 2AE0     		b	.L42
 367              	.L35:
 166:Generated_Source\PSoC6\pdl\drivers\peripheral\prot/cy_prot.c ****         }
 167:Generated_Source\PSoC6\pdl\drivers\peripheral\prot/cy_prot.c ****         case (CPUSS_MS_ID_CRYPTO):
 168:Generated_Source\PSoC6\pdl\drivers\peripheral\prot/cy_prot.c ****         {
 169:Generated_Source\PSoC6\pdl\drivers\peripheral\prot/cy_prot.c ****             status = (pc > CPUSS_PROT_SMPU_MS1_PC_NR_MINUS1) ? CY_PROT_BAD_PARAM : CY_PROT_SUCCESS;
 368              		.loc 1 169 0
 369 0050 3B68     		ldr	r3, [r7]
 370 0052 072B     		cmp	r3, #7
 371 0054 01D9     		bls	.L43
 372              		.loc 1 169 0 is_stmt 0 discriminator 1
 373 0056 264B     		ldr	r3, .L57+12
 374 0058 00E0     		b	.L44
 375              	.L43:
 376              		.loc 1 169 0 discriminator 2
 377 005a 0023     		movs	r3, #0
 378              	.L44:
 379              		.loc 1 169 0 discriminator 4
 380 005c FB60     		str	r3, [r7, #12]
 170:Generated_Source\PSoC6\pdl\drivers\peripheral\prot/cy_prot.c ****             break;
 381              		.loc 1 170 0 is_stmt 1 discriminator 4
 382 005e 22E0     		b	.L42
 383              	.L36:
 171:Generated_Source\PSoC6\pdl\drivers\peripheral\prot/cy_prot.c ****         }
 172:Generated_Source\PSoC6\pdl\drivers\peripheral\prot/cy_prot.c ****         case (CPUSS_MS_ID_DW0):
 173:Generated_Source\PSoC6\pdl\drivers\peripheral\prot/cy_prot.c ****         {
 174:Generated_Source\PSoC6\pdl\drivers\peripheral\prot/cy_prot.c ****             status = (pc > CPUSS_PROT_SMPU_MS2_PC_NR_MINUS1) ? CY_PROT_BAD_PARAM : CY_PROT_SUCCESS;
 384              		.loc 1 174 0
 385 0060 3B68     		ldr	r3, [r7]
 386 0062 002B     		cmp	r3, #0
 387 0064 01D0     		beq	.L45
 388              		.loc 1 174 0 is_stmt 0 discriminator 1
ARM GAS  C:\Users\salaz\AppData\Local\Temp\ccSSnxm1.s 			page 11


 389 0066 224B     		ldr	r3, .L57+12
 390 0068 00E0     		b	.L46
 391              	.L45:
 392              		.loc 1 174 0 discriminator 2
 393 006a 0023     		movs	r3, #0
 394              	.L46:
 395              		.loc 1 174 0 discriminator 4
 396 006c FB60     		str	r3, [r7, #12]
 175:Generated_Source\PSoC6\pdl\drivers\peripheral\prot/cy_prot.c ****             break;
 397              		.loc 1 175 0 is_stmt 1 discriminator 4
 398 006e 1AE0     		b	.L42
 399              	.L37:
 176:Generated_Source\PSoC6\pdl\drivers\peripheral\prot/cy_prot.c ****         }
 177:Generated_Source\PSoC6\pdl\drivers\peripheral\prot/cy_prot.c ****         case (CPUSS_MS_ID_DW1):
 178:Generated_Source\PSoC6\pdl\drivers\peripheral\prot/cy_prot.c ****         {
 179:Generated_Source\PSoC6\pdl\drivers\peripheral\prot/cy_prot.c ****             status = (pc > CPUSS_PROT_SMPU_MS3_PC_NR_MINUS1) ? CY_PROT_BAD_PARAM : CY_PROT_SUCCESS;
 400              		.loc 1 179 0
 401 0070 3B68     		ldr	r3, [r7]
 402 0072 002B     		cmp	r3, #0
 403 0074 01D0     		beq	.L47
 404              		.loc 1 179 0 is_stmt 0 discriminator 1
 405 0076 1E4B     		ldr	r3, .L57+12
 406 0078 00E0     		b	.L48
 407              	.L47:
 408              		.loc 1 179 0 discriminator 2
 409 007a 0023     		movs	r3, #0
 410              	.L48:
 411              		.loc 1 179 0 discriminator 4
 412 007c FB60     		str	r3, [r7, #12]
 180:Generated_Source\PSoC6\pdl\drivers\peripheral\prot/cy_prot.c ****             break;
 413              		.loc 1 180 0 is_stmt 1 discriminator 4
 414 007e 12E0     		b	.L42
 415              	.L38:
 181:Generated_Source\PSoC6\pdl\drivers\peripheral\prot/cy_prot.c ****         }
 182:Generated_Source\PSoC6\pdl\drivers\peripheral\prot/cy_prot.c ****         case (CPUSS_MS_ID_CM4):
 183:Generated_Source\PSoC6\pdl\drivers\peripheral\prot/cy_prot.c ****         {
 184:Generated_Source\PSoC6\pdl\drivers\peripheral\prot/cy_prot.c ****             status = (pc > CPUSS_PROT_SMPU_MS14_PC_NR_MINUS1) ? CY_PROT_BAD_PARAM : CY_PROT_SUCCESS
 416              		.loc 1 184 0
 417 0080 3B68     		ldr	r3, [r7]
 418 0082 072B     		cmp	r3, #7
 419 0084 01D9     		bls	.L49
 420              		.loc 1 184 0 is_stmt 0 discriminator 1
 421 0086 1A4B     		ldr	r3, .L57+12
 422 0088 00E0     		b	.L50
 423              	.L49:
 424              		.loc 1 184 0 discriminator 2
 425 008a 0023     		movs	r3, #0
 426              	.L50:
 427              		.loc 1 184 0 discriminator 4
 428 008c FB60     		str	r3, [r7, #12]
 185:Generated_Source\PSoC6\pdl\drivers\peripheral\prot/cy_prot.c ****             break;
 429              		.loc 1 185 0 is_stmt 1 discriminator 4
 430 008e 0AE0     		b	.L42
 431              	.L39:
 186:Generated_Source\PSoC6\pdl\drivers\peripheral\prot/cy_prot.c ****         }
 187:Generated_Source\PSoC6\pdl\drivers\peripheral\prot/cy_prot.c ****         case (CPUSS_MS_ID_TC):
 188:Generated_Source\PSoC6\pdl\drivers\peripheral\prot/cy_prot.c ****         {
ARM GAS  C:\Users\salaz\AppData\Local\Temp\ccSSnxm1.s 			page 12


 189:Generated_Source\PSoC6\pdl\drivers\peripheral\prot/cy_prot.c ****             status = (pc > CPUSS_PROT_SMPU_MS15_PC_NR_MINUS1) ? CY_PROT_BAD_PARAM : CY_PROT_SUCCESS
 432              		.loc 1 189 0
 433 0090 3B68     		ldr	r3, [r7]
 434 0092 072B     		cmp	r3, #7
 435 0094 01D9     		bls	.L51
 436              		.loc 1 189 0 is_stmt 0 discriminator 1
 437 0096 164B     		ldr	r3, .L57+12
 438 0098 00E0     		b	.L52
 439              	.L51:
 440              		.loc 1 189 0 discriminator 2
 441 009a 0023     		movs	r3, #0
 442              	.L52:
 443              		.loc 1 189 0 discriminator 4
 444 009c FB60     		str	r3, [r7, #12]
 190:Generated_Source\PSoC6\pdl\drivers\peripheral\prot/cy_prot.c ****             break;
 445              		.loc 1 190 0 is_stmt 1 discriminator 4
 446 009e 02E0     		b	.L42
 447              	.L32:
 191:Generated_Source\PSoC6\pdl\drivers\peripheral\prot/cy_prot.c ****         }
 192:Generated_Source\PSoC6\pdl\drivers\peripheral\prot/cy_prot.c ****         default:
 193:Generated_Source\PSoC6\pdl\drivers\peripheral\prot/cy_prot.c ****             status = CY_PROT_BAD_PARAM;
 448              		.loc 1 193 0
 449 00a0 134B     		ldr	r3, .L57+12
 450 00a2 FB60     		str	r3, [r7, #12]
 194:Generated_Source\PSoC6\pdl\drivers\peripheral\prot/cy_prot.c ****         break;
 451              		.loc 1 194 0
 452 00a4 C046     		nop
 453              	.L42:
 195:Generated_Source\PSoC6\pdl\drivers\peripheral\prot/cy_prot.c ****     }
 196:Generated_Source\PSoC6\pdl\drivers\peripheral\prot/cy_prot.c ****     
 197:Generated_Source\PSoC6\pdl\drivers\peripheral\prot/cy_prot.c ****     if(status != CY_PROT_BAD_PARAM) 
 454              		.loc 1 197 0
 455 00a6 FB68     		ldr	r3, [r7, #12]
 456 00a8 114A     		ldr	r2, .L57+12
 457 00aa 9342     		cmp	r3, r2
 458 00ac 15D0     		beq	.L53
 198:Generated_Source\PSoC6\pdl\drivers\peripheral\prot/cy_prot.c ****     {
 199:Generated_Source\PSoC6\pdl\drivers\peripheral\prot/cy_prot.c ****         addrMpu->MS_CTL = _VAL2FLD(PROT_MPU_MS_CTL_PC, pc) | _VAL2FLD(PROT_MPU_MS_CTL_PC_SAVED, pc)
 459              		.loc 1 199 0
 460 00ae 3B68     		ldr	r3, [r7]
 461 00b0 0F22     		movs	r2, #15
 462 00b2 1A40     		ands	r2, r3
 463 00b4 3B68     		ldr	r3, [r7]
 464 00b6 1904     		lsls	r1, r3, #16
 465 00b8 F023     		movs	r3, #240
 466 00ba 1B03     		lsls	r3, r3, #12
 467 00bc 0B40     		ands	r3, r1
 468 00be 1A43     		orrs	r2, r3
 469 00c0 BB68     		ldr	r3, [r7, #8]
 470 00c2 1A60     		str	r2, [r3]
 200:Generated_Source\PSoC6\pdl\drivers\peripheral\prot/cy_prot.c ****         status = (_FLD2VAL(PROT_MPU_MS_CTL_PC, addrMpu->MS_CTL) != pc) ? CY_PROT_FAILURE : CY_PROT_
 471              		.loc 1 200 0
 472 00c4 BB68     		ldr	r3, [r7, #8]
 473 00c6 1B68     		ldr	r3, [r3]
 474 00c8 0F22     		movs	r2, #15
 475 00ca 1A40     		ands	r2, r3
 476 00cc 3B68     		ldr	r3, [r7]
ARM GAS  C:\Users\salaz\AppData\Local\Temp\ccSSnxm1.s 			page 13


 477 00ce 9A42     		cmp	r2, r3
 478 00d0 01D0     		beq	.L54
 479              		.loc 1 200 0 is_stmt 0 discriminator 1
 480 00d2 084B     		ldr	r3, .L57+16
 481 00d4 00E0     		b	.L55
 482              	.L54:
 483              		.loc 1 200 0 discriminator 2
 484 00d6 0023     		movs	r3, #0
 485              	.L55:
 486              		.loc 1 200 0 discriminator 4
 487 00d8 FB60     		str	r3, [r7, #12]
 488              	.L53:
 201:Generated_Source\PSoC6\pdl\drivers\peripheral\prot/cy_prot.c ****     }
 202:Generated_Source\PSoC6\pdl\drivers\peripheral\prot/cy_prot.c ****     
 203:Generated_Source\PSoC6\pdl\drivers\peripheral\prot/cy_prot.c ****     return status;
 489              		.loc 1 203 0 is_stmt 1
 490 00da FB68     		ldr	r3, [r7, #12]
 204:Generated_Source\PSoC6\pdl\drivers\peripheral\prot/cy_prot.c **** }
 491              		.loc 1 204 0
 492 00dc 1800     		movs	r0, r3
 493 00de BD46     		mov	sp, r7
 494 00e0 04B0     		add	sp, sp, #16
 495              		@ sp needed
 496 00e2 80BD     		pop	{r7, pc}
 497              	.L58:
 498              		.align	2
 499              	.L57:
 500 00e4 00000000 		.word	.LC0
 501 00e8 00402440 		.word	1076117504
 502 00ec 80000000 		.word	.L34
 503 00f0 0100C200 		.word	12713985
 504 00f4 0300C200 		.word	12713987
 505              		.cfi_endproc
 506              	.LFE37:
 507              		.size	Cy_Prot_SetActivePC, .-Cy_Prot_SetActivePC
 508              		.section	.text.Cy_Prot_GetActivePC,"ax",%progbits
 509              		.align	2
 510              		.global	Cy_Prot_GetActivePC
 511              		.code	16
 512              		.thumb_func
 513              		.type	Cy_Prot_GetActivePC, %function
 514              	Cy_Prot_GetActivePC:
 515              	.LFB38:
 205:Generated_Source\PSoC6\pdl\drivers\peripheral\prot/cy_prot.c **** 
 206:Generated_Source\PSoC6\pdl\drivers\peripheral\prot/cy_prot.c **** 
 207:Generated_Source\PSoC6\pdl\drivers\peripheral\prot/cy_prot.c **** /*******************************************************************************
 208:Generated_Source\PSoC6\pdl\drivers\peripheral\prot/cy_prot.c **** * Function Name: Cy_Prot_GetActivePC
 209:Generated_Source\PSoC6\pdl\drivers\peripheral\prot/cy_prot.c **** ****************************************************************************//**
 210:Generated_Source\PSoC6\pdl\drivers\peripheral\prot/cy_prot.c **** *
 211:Generated_Source\PSoC6\pdl\drivers\peripheral\prot/cy_prot.c **** * \brief Returns the active protection context of a master. 
 212:Generated_Source\PSoC6\pdl\drivers\peripheral\prot/cy_prot.c **** *
 213:Generated_Source\PSoC6\pdl\drivers\peripheral\prot/cy_prot.c **** * \param busMaster
 214:Generated_Source\PSoC6\pdl\drivers\peripheral\prot/cy_prot.c **** * The bus master, whose protection context is being read. Refer to the 
 215:Generated_Source\PSoC6\pdl\drivers\peripheral\prot/cy_prot.c **** * CPUSS_MS_ID_X defines.
 216:Generated_Source\PSoC6\pdl\drivers\peripheral\prot/cy_prot.c **** * 
 217:Generated_Source\PSoC6\pdl\drivers\peripheral\prot/cy_prot.c **** * \return
 218:Generated_Source\PSoC6\pdl\drivers\peripheral\prot/cy_prot.c **** * Active protection context of the master
ARM GAS  C:\Users\salaz\AppData\Local\Temp\ccSSnxm1.s 			page 14


 219:Generated_Source\PSoC6\pdl\drivers\peripheral\prot/cy_prot.c **** *
 220:Generated_Source\PSoC6\pdl\drivers\peripheral\prot/cy_prot.c **** * \funcusage
 221:Generated_Source\PSoC6\pdl\drivers\peripheral\prot/cy_prot.c **** * \snippet prot/prot_v1_10_sut_01.cydsn/main_cm4.c snippet_Cy_Prot_SetActivePC
 222:Generated_Source\PSoC6\pdl\drivers\peripheral\prot/cy_prot.c **** *
 223:Generated_Source\PSoC6\pdl\drivers\peripheral\prot/cy_prot.c **** *******************************************************************************/
 224:Generated_Source\PSoC6\pdl\drivers\peripheral\prot/cy_prot.c **** uint32_t Cy_Prot_GetActivePC(en_prot_master_t busMaster)
 225:Generated_Source\PSoC6\pdl\drivers\peripheral\prot/cy_prot.c **** {
 516              		.loc 1 225 0
 517              		.cfi_startproc
 518              		@ args = 0, pretend = 0, frame = 16
 519              		@ frame_needed = 1, uses_anonymous_args = 0
 520 0000 80B5     		push	{r7, lr}
 521              		.cfi_def_cfa_offset 8
 522              		.cfi_offset 7, -8
 523              		.cfi_offset 14, -4
 524 0002 84B0     		sub	sp, sp, #16
 525              		.cfi_def_cfa_offset 24
 526 0004 00AF     		add	r7, sp, #0
 527              		.cfi_def_cfa_register 7
 528 0006 0200     		movs	r2, r0
 529 0008 FB1D     		adds	r3, r7, #7
 530 000a 1A70     		strb	r2, [r3]
 226:Generated_Source\PSoC6\pdl\drivers\peripheral\prot/cy_prot.c ****     PROT_MPU_Type* addrMpu;
 227:Generated_Source\PSoC6\pdl\drivers\peripheral\prot/cy_prot.c ****     
 228:Generated_Source\PSoC6\pdl\drivers\peripheral\prot/cy_prot.c ****     CY_ASSERT_L1(CY_PROT_IS_BUS_MASTER_VALID(busMaster));
 531              		.loc 1 228 0
 532 000c FB1D     		adds	r3, r7, #7
 533 000e 1B78     		ldrb	r3, [r3]
 534 0010 0F2B     		cmp	r3, #15
 535 0012 04D9     		bls	.L60
 536              		.loc 1 228 0 is_stmt 0 discriminator 1
 537 0014 094B     		ldr	r3, .L62
 538 0016 E421     		movs	r1, #228
 539 0018 1800     		movs	r0, r3
 540 001a FFF7FEFF 		bl	Cy_SysLib_AssertFailed
 541              	.L60:
 229:Generated_Source\PSoC6\pdl\drivers\peripheral\prot/cy_prot.c ****     
 230:Generated_Source\PSoC6\pdl\drivers\peripheral\prot/cy_prot.c ****     addrMpu = (PROT_MPU_Type*)(&PROT->CYMPU[busMaster]);
 542              		.loc 1 230 0 is_stmt 1
 543 001e FB1D     		adds	r3, r7, #7
 544 0020 1B78     		ldrb	r3, [r3]
 545 0022 9B02     		lsls	r3, r3, #10
 546 0024 064A     		ldr	r2, .L62+4
 547 0026 9446     		mov	ip, r2
 548 0028 6344     		add	r3, r3, ip
 549 002a FB60     		str	r3, [r7, #12]
 231:Generated_Source\PSoC6\pdl\drivers\peripheral\prot/cy_prot.c ****     
 232:Generated_Source\PSoC6\pdl\drivers\peripheral\prot/cy_prot.c ****     return ((uint32_t)_FLD2VAL(PROT_MPU_MS_CTL_PC, addrMpu->MS_CTL));
 550              		.loc 1 232 0
 551 002c FB68     		ldr	r3, [r7, #12]
 552 002e 1B68     		ldr	r3, [r3]
 553 0030 0F22     		movs	r2, #15
 554 0032 1340     		ands	r3, r2
 233:Generated_Source\PSoC6\pdl\drivers\peripheral\prot/cy_prot.c **** }
 555              		.loc 1 233 0
 556 0034 1800     		movs	r0, r3
 557 0036 BD46     		mov	sp, r7
ARM GAS  C:\Users\salaz\AppData\Local\Temp\ccSSnxm1.s 			page 15


 558 0038 04B0     		add	sp, sp, #16
 559              		@ sp needed
 560 003a 80BD     		pop	{r7, pc}
 561              	.L63:
 562              		.align	2
 563              	.L62:
 564 003c 00000000 		.word	.LC0
 565 0040 00402440 		.word	1076117504
 566              		.cfi_endproc
 567              	.LFE38:
 568              		.size	Cy_Prot_GetActivePC, .-Cy_Prot_GetActivePC
 569              		.section	.text.Cy_Prot_ConfigMpuStruct,"ax",%progbits
 570              		.align	2
 571              		.global	Cy_Prot_ConfigMpuStruct
 572              		.code	16
 573              		.thumb_func
 574              		.type	Cy_Prot_ConfigMpuStruct, %function
 575              	Cy_Prot_ConfigMpuStruct:
 576              	.LFB39:
 234:Generated_Source\PSoC6\pdl\drivers\peripheral\prot/cy_prot.c **** 
 235:Generated_Source\PSoC6\pdl\drivers\peripheral\prot/cy_prot.c **** 
 236:Generated_Source\PSoC6\pdl\drivers\peripheral\prot/cy_prot.c **** /*******************************************************************************
 237:Generated_Source\PSoC6\pdl\drivers\peripheral\prot/cy_prot.c **** * Function Name: Cy_Prot_ConfigMpuStruct
 238:Generated_Source\PSoC6\pdl\drivers\peripheral\prot/cy_prot.c **** ****************************************************************************//**
 239:Generated_Source\PSoC6\pdl\drivers\peripheral\prot/cy_prot.c **** *
 240:Generated_Source\PSoC6\pdl\drivers\peripheral\prot/cy_prot.c **** * \brief This function configures a memory protection unit (MPU) struct with its 
 241:Generated_Source\PSoC6\pdl\drivers\peripheral\prot/cy_prot.c **** * protection attributes. 
 242:Generated_Source\PSoC6\pdl\drivers\peripheral\prot/cy_prot.c **** *
 243:Generated_Source\PSoC6\pdl\drivers\peripheral\prot/cy_prot.c **** * The protection structs act like the gatekeepers for a master's accesses to
 244:Generated_Source\PSoC6\pdl\drivers\peripheral\prot/cy_prot.c **** * memory, allowing only the permitted transactions to go through.
 245:Generated_Source\PSoC6\pdl\drivers\peripheral\prot/cy_prot.c **** *
 246:Generated_Source\PSoC6\pdl\drivers\peripheral\prot/cy_prot.c **** * \param base
 247:Generated_Source\PSoC6\pdl\drivers\peripheral\prot/cy_prot.c **** * The base address for the MPU struct being configured. 
 248:Generated_Source\PSoC6\pdl\drivers\peripheral\prot/cy_prot.c **** * 
 249:Generated_Source\PSoC6\pdl\drivers\peripheral\prot/cy_prot.c **** * \param config
 250:Generated_Source\PSoC6\pdl\drivers\peripheral\prot/cy_prot.c **** * Initialization structure containing all the protection attributes.
 251:Generated_Source\PSoC6\pdl\drivers\peripheral\prot/cy_prot.c **** * 
 252:Generated_Source\PSoC6\pdl\drivers\peripheral\prot/cy_prot.c **** * \return
 253:Generated_Source\PSoC6\pdl\drivers\peripheral\prot/cy_prot.c **** * Status of the function call.
 254:Generated_Source\PSoC6\pdl\drivers\peripheral\prot/cy_prot.c **** *
 255:Generated_Source\PSoC6\pdl\drivers\peripheral\prot/cy_prot.c **** *   Status               | Description
 256:Generated_Source\PSoC6\pdl\drivers\peripheral\prot/cy_prot.c **** *   ------------         | -----------
 257:Generated_Source\PSoC6\pdl\drivers\peripheral\prot/cy_prot.c **** *   CY_PROT_SUCCESS      | The MPU struct was configured
 258:Generated_Source\PSoC6\pdl\drivers\peripheral\prot/cy_prot.c **** *   CY_PROT_FAILURE      | Configuration failed due to a protection violation
 259:Generated_Source\PSoC6\pdl\drivers\peripheral\prot/cy_prot.c **** *
 260:Generated_Source\PSoC6\pdl\drivers\peripheral\prot/cy_prot.c **** * \funcusage
 261:Generated_Source\PSoC6\pdl\drivers\peripheral\prot/cy_prot.c **** * \snippet prot/prot_v1_10_sut_01.cydsn/main_cm4.c snippet_Cy_Prot_ConfigMpuStruct
 262:Generated_Source\PSoC6\pdl\drivers\peripheral\prot/cy_prot.c **** *
 263:Generated_Source\PSoC6\pdl\drivers\peripheral\prot/cy_prot.c **** *******************************************************************************/
 264:Generated_Source\PSoC6\pdl\drivers\peripheral\prot/cy_prot.c **** cy_en_prot_status_t Cy_Prot_ConfigMpuStruct(PROT_MPU_MPU_STRUCT_Type* base, const cy_stc_mpu_cfg_t*
 265:Generated_Source\PSoC6\pdl\drivers\peripheral\prot/cy_prot.c **** {
 577              		.loc 1 265 0
 578              		.cfi_startproc
 579              		@ args = 0, pretend = 0, frame = 24
 580              		@ frame_needed = 1, uses_anonymous_args = 0
 581 0000 80B5     		push	{r7, lr}
 582              		.cfi_def_cfa_offset 8
ARM GAS  C:\Users\salaz\AppData\Local\Temp\ccSSnxm1.s 			page 16


 583              		.cfi_offset 7, -8
 584              		.cfi_offset 14, -4
 585 0002 86B0     		sub	sp, sp, #24
 586              		.cfi_def_cfa_offset 32
 587 0004 00AF     		add	r7, sp, #0
 588              		.cfi_def_cfa_register 7
 589 0006 7860     		str	r0, [r7, #4]
 590 0008 3960     		str	r1, [r7]
 266:Generated_Source\PSoC6\pdl\drivers\peripheral\prot/cy_prot.c ****     cy_en_prot_status_t status;
 267:Generated_Source\PSoC6\pdl\drivers\peripheral\prot/cy_prot.c ****     uint32_t addrReg;
 268:Generated_Source\PSoC6\pdl\drivers\peripheral\prot/cy_prot.c ****     uint32_t attReg;
 269:Generated_Source\PSoC6\pdl\drivers\peripheral\prot/cy_prot.c **** 
 270:Generated_Source\PSoC6\pdl\drivers\peripheral\prot/cy_prot.c ****     CY_ASSERT_L1(NULL != base);
 591              		.loc 1 270 0
 592 000a 7B68     		ldr	r3, [r7, #4]
 593 000c 002B     		cmp	r3, #0
 594 000e 06D1     		bne	.L65
 595              		.loc 1 270 0 is_stmt 0 discriminator 1
 596 0010 8723     		movs	r3, #135
 597 0012 5A00     		lsls	r2, r3, #1
 598 0014 814B     		ldr	r3, .L73
 599 0016 1100     		movs	r1, r2
 600 0018 1800     		movs	r0, r3
 601 001a FFF7FEFF 		bl	Cy_SysLib_AssertFailed
 602              	.L65:
 271:Generated_Source\PSoC6\pdl\drivers\peripheral\prot/cy_prot.c ****     CY_ASSERT_L3(CY_PROT_IS_MPU_PERM_VALID(config->userPermission));
 603              		.loc 1 271 0 is_stmt 1
 604 001e 3B68     		ldr	r3, [r7]
 605 0020 9B79     		ldrb	r3, [r3, #6]
 606 0022 002B     		cmp	r3, #0
 607 0024 23D0     		beq	.L66
 608              		.loc 1 271 0 is_stmt 0 discriminator 1
 609 0026 3B68     		ldr	r3, [r7]
 610 0028 9B79     		ldrb	r3, [r3, #6]
 611 002a 012B     		cmp	r3, #1
 612 002c 1FD0     		beq	.L66
 613              		.loc 1 271 0 discriminator 2
 614 002e 3B68     		ldr	r3, [r7]
 615 0030 9B79     		ldrb	r3, [r3, #6]
 616 0032 022B     		cmp	r3, #2
 617 0034 1BD0     		beq	.L66
 618              		.loc 1 271 0 discriminator 3
 619 0036 3B68     		ldr	r3, [r7]
 620 0038 9B79     		ldrb	r3, [r3, #6]
 621 003a 032B     		cmp	r3, #3
 622 003c 17D0     		beq	.L66
 623              		.loc 1 271 0 discriminator 4
 624 003e 3B68     		ldr	r3, [r7]
 625 0040 9B79     		ldrb	r3, [r3, #6]
 626 0042 042B     		cmp	r3, #4
 627 0044 13D0     		beq	.L66
 628              		.loc 1 271 0 discriminator 5
 629 0046 3B68     		ldr	r3, [r7]
 630 0048 9B79     		ldrb	r3, [r3, #6]
 631 004a 052B     		cmp	r3, #5
 632 004c 0FD0     		beq	.L66
 633              		.loc 1 271 0 discriminator 6
ARM GAS  C:\Users\salaz\AppData\Local\Temp\ccSSnxm1.s 			page 17


 634 004e 3B68     		ldr	r3, [r7]
 635 0050 9B79     		ldrb	r3, [r3, #6]
 636 0052 062B     		cmp	r3, #6
 637 0054 0BD0     		beq	.L66
 638              		.loc 1 271 0 discriminator 7
 639 0056 3B68     		ldr	r3, [r7]
 640 0058 9B79     		ldrb	r3, [r3, #6]
 641 005a 072B     		cmp	r3, #7
 642 005c 07D0     		beq	.L66
 643              		.loc 1 271 0 discriminator 8
 644 005e 1023     		movs	r3, #16
 645 0060 FF33     		adds	r3, r3, #255
 646 0062 1A00     		movs	r2, r3
 647 0064 6D4B     		ldr	r3, .L73
 648 0066 1100     		movs	r1, r2
 649 0068 1800     		movs	r0, r3
 650 006a FFF7FEFF 		bl	Cy_SysLib_AssertFailed
 651              	.L66:
 272:Generated_Source\PSoC6\pdl\drivers\peripheral\prot/cy_prot.c ****     CY_ASSERT_L3(CY_PROT_IS_MPU_PERM_VALID(config->privPermission));
 652              		.loc 1 272 0 is_stmt 1
 653 006e 3B68     		ldr	r3, [r7]
 654 0070 DB79     		ldrb	r3, [r3, #7]
 655 0072 002B     		cmp	r3, #0
 656 0074 22D0     		beq	.L67
 657              		.loc 1 272 0 is_stmt 0 discriminator 1
 658 0076 3B68     		ldr	r3, [r7]
 659 0078 DB79     		ldrb	r3, [r3, #7]
 660 007a 012B     		cmp	r3, #1
 661 007c 1ED0     		beq	.L67
 662              		.loc 1 272 0 discriminator 2
 663 007e 3B68     		ldr	r3, [r7]
 664 0080 DB79     		ldrb	r3, [r3, #7]
 665 0082 022B     		cmp	r3, #2
 666 0084 1AD0     		beq	.L67
 667              		.loc 1 272 0 discriminator 3
 668 0086 3B68     		ldr	r3, [r7]
 669 0088 DB79     		ldrb	r3, [r3, #7]
 670 008a 032B     		cmp	r3, #3
 671 008c 16D0     		beq	.L67
 672              		.loc 1 272 0 discriminator 4
 673 008e 3B68     		ldr	r3, [r7]
 674 0090 DB79     		ldrb	r3, [r3, #7]
 675 0092 042B     		cmp	r3, #4
 676 0094 12D0     		beq	.L67
 677              		.loc 1 272 0 discriminator 5
 678 0096 3B68     		ldr	r3, [r7]
 679 0098 DB79     		ldrb	r3, [r3, #7]
 680 009a 052B     		cmp	r3, #5
 681 009c 0ED0     		beq	.L67
 682              		.loc 1 272 0 discriminator 6
 683 009e 3B68     		ldr	r3, [r7]
 684 00a0 DB79     		ldrb	r3, [r3, #7]
 685 00a2 062B     		cmp	r3, #6
 686 00a4 0AD0     		beq	.L67
 687              		.loc 1 272 0 discriminator 7
 688 00a6 3B68     		ldr	r3, [r7]
 689 00a8 DB79     		ldrb	r3, [r3, #7]
ARM GAS  C:\Users\salaz\AppData\Local\Temp\ccSSnxm1.s 			page 18


 690 00aa 072B     		cmp	r3, #7
 691 00ac 06D0     		beq	.L67
 692              		.loc 1 272 0 discriminator 8
 693 00ae 8823     		movs	r3, #136
 694 00b0 5A00     		lsls	r2, r3, #1
 695 00b2 5A4B     		ldr	r3, .L73
 696 00b4 1100     		movs	r1, r2
 697 00b6 1800     		movs	r0, r3
 698 00b8 FFF7FEFF 		bl	Cy_SysLib_AssertFailed
 699              	.L67:
 273:Generated_Source\PSoC6\pdl\drivers\peripheral\prot/cy_prot.c ****     CY_ASSERT_L3(CY_PROT_IS_REGION_SIZE_VALID(config->regionSize));
 700              		.loc 1 273 0 is_stmt 1
 701 00bc 3B68     		ldr	r3, [r7]
 702 00be 1B79     		ldrb	r3, [r3, #4]
 703 00c0 072B     		cmp	r3, #7
 704 00c2 00D1     		bne	.LCB595
 705 00c4 6AE0     		b	.L68	@long jump
 706              	.LCB595:
 707              		.loc 1 273 0 is_stmt 0 discriminator 1
 708 00c6 3B68     		ldr	r3, [r7]
 709 00c8 1B79     		ldrb	r3, [r3, #4]
 710 00ca 082B     		cmp	r3, #8
 711 00cc 00D1     		bne	.LCB599
 712 00ce 65E0     		b	.L68	@long jump
 713              	.LCB599:
 714              		.loc 1 273 0 discriminator 2
 715 00d0 3B68     		ldr	r3, [r7]
 716 00d2 1B79     		ldrb	r3, [r3, #4]
 717 00d4 092B     		cmp	r3, #9
 718 00d6 00D1     		bne	.LCB603
 719 00d8 60E0     		b	.L68	@long jump
 720              	.LCB603:
 721              		.loc 1 273 0 discriminator 3
 722 00da 3B68     		ldr	r3, [r7]
 723 00dc 1B79     		ldrb	r3, [r3, #4]
 724 00de 0A2B     		cmp	r3, #10
 725 00e0 00D1     		bne	.LCB607
 726 00e2 5BE0     		b	.L68	@long jump
 727              	.LCB607:
 728              		.loc 1 273 0 discriminator 4
 729 00e4 3B68     		ldr	r3, [r7]
 730 00e6 1B79     		ldrb	r3, [r3, #4]
 731 00e8 0B2B     		cmp	r3, #11
 732 00ea 57D0     		beq	.L68
 733              		.loc 1 273 0 discriminator 5
 734 00ec 3B68     		ldr	r3, [r7]
 735 00ee 1B79     		ldrb	r3, [r3, #4]
 736 00f0 0C2B     		cmp	r3, #12
 737 00f2 53D0     		beq	.L68
 738              		.loc 1 273 0 discriminator 6
 739 00f4 3B68     		ldr	r3, [r7]
 740 00f6 1B79     		ldrb	r3, [r3, #4]
 741 00f8 0D2B     		cmp	r3, #13
 742 00fa 4FD0     		beq	.L68
 743              		.loc 1 273 0 discriminator 7
 744 00fc 3B68     		ldr	r3, [r7]
 745 00fe 1B79     		ldrb	r3, [r3, #4]
ARM GAS  C:\Users\salaz\AppData\Local\Temp\ccSSnxm1.s 			page 19


 746 0100 0E2B     		cmp	r3, #14
 747 0102 4BD0     		beq	.L68
 748              		.loc 1 273 0 discriminator 8
 749 0104 3B68     		ldr	r3, [r7]
 750 0106 1B79     		ldrb	r3, [r3, #4]
 751 0108 0F2B     		cmp	r3, #15
 752 010a 47D0     		beq	.L68
 753              		.loc 1 273 0 discriminator 9
 754 010c 3B68     		ldr	r3, [r7]
 755 010e 1B79     		ldrb	r3, [r3, #4]
 756 0110 102B     		cmp	r3, #16
 757 0112 43D0     		beq	.L68
 758              		.loc 1 273 0 discriminator 10
 759 0114 3B68     		ldr	r3, [r7]
 760 0116 1B79     		ldrb	r3, [r3, #4]
 761 0118 112B     		cmp	r3, #17
 762 011a 3FD0     		beq	.L68
 763              		.loc 1 273 0 discriminator 11
 764 011c 3B68     		ldr	r3, [r7]
 765 011e 1B79     		ldrb	r3, [r3, #4]
 766 0120 122B     		cmp	r3, #18
 767 0122 3BD0     		beq	.L68
 768              		.loc 1 273 0 discriminator 12
 769 0124 3B68     		ldr	r3, [r7]
 770 0126 1B79     		ldrb	r3, [r3, #4]
 771 0128 132B     		cmp	r3, #19
 772 012a 37D0     		beq	.L68
 773              		.loc 1 273 0 discriminator 13
 774 012c 3B68     		ldr	r3, [r7]
 775 012e 1B79     		ldrb	r3, [r3, #4]
 776 0130 142B     		cmp	r3, #20
 777 0132 33D0     		beq	.L68
 778              		.loc 1 273 0 discriminator 14
 779 0134 3B68     		ldr	r3, [r7]
 780 0136 1B79     		ldrb	r3, [r3, #4]
 781 0138 152B     		cmp	r3, #21
 782 013a 2FD0     		beq	.L68
 783              		.loc 1 273 0 discriminator 15
 784 013c 3B68     		ldr	r3, [r7]
 785 013e 1B79     		ldrb	r3, [r3, #4]
 786 0140 162B     		cmp	r3, #22
 787 0142 2BD0     		beq	.L68
 788              		.loc 1 273 0 discriminator 16
 789 0144 3B68     		ldr	r3, [r7]
 790 0146 1B79     		ldrb	r3, [r3, #4]
 791 0148 172B     		cmp	r3, #23
 792 014a 27D0     		beq	.L68
 793              		.loc 1 273 0 discriminator 17
 794 014c 3B68     		ldr	r3, [r7]
 795 014e 1B79     		ldrb	r3, [r3, #4]
 796 0150 182B     		cmp	r3, #24
 797 0152 23D0     		beq	.L68
 798              		.loc 1 273 0 discriminator 18
 799 0154 3B68     		ldr	r3, [r7]
 800 0156 1B79     		ldrb	r3, [r3, #4]
 801 0158 192B     		cmp	r3, #25
 802 015a 1FD0     		beq	.L68
ARM GAS  C:\Users\salaz\AppData\Local\Temp\ccSSnxm1.s 			page 20


 803              		.loc 1 273 0 discriminator 19
 804 015c 3B68     		ldr	r3, [r7]
 805 015e 1B79     		ldrb	r3, [r3, #4]
 806 0160 1A2B     		cmp	r3, #26
 807 0162 1BD0     		beq	.L68
 808              		.loc 1 273 0 discriminator 20
 809 0164 3B68     		ldr	r3, [r7]
 810 0166 1B79     		ldrb	r3, [r3, #4]
 811 0168 1B2B     		cmp	r3, #27
 812 016a 17D0     		beq	.L68
 813              		.loc 1 273 0 discriminator 21
 814 016c 3B68     		ldr	r3, [r7]
 815 016e 1B79     		ldrb	r3, [r3, #4]
 816 0170 1C2B     		cmp	r3, #28
 817 0172 13D0     		beq	.L68
 818              		.loc 1 273 0 discriminator 22
 819 0174 3B68     		ldr	r3, [r7]
 820 0176 1B79     		ldrb	r3, [r3, #4]
 821 0178 1D2B     		cmp	r3, #29
 822 017a 0FD0     		beq	.L68
 823              		.loc 1 273 0 discriminator 23
 824 017c 3B68     		ldr	r3, [r7]
 825 017e 1B79     		ldrb	r3, [r3, #4]
 826 0180 1E2B     		cmp	r3, #30
 827 0182 0BD0     		beq	.L68
 828              		.loc 1 273 0 discriminator 24
 829 0184 3B68     		ldr	r3, [r7]
 830 0186 1B79     		ldrb	r3, [r3, #4]
 831 0188 1F2B     		cmp	r3, #31
 832 018a 07D0     		beq	.L68
 833              		.loc 1 273 0 discriminator 25
 834 018c 1223     		movs	r3, #18
 835 018e FF33     		adds	r3, r3, #255
 836 0190 1A00     		movs	r2, r3
 837 0192 224B     		ldr	r3, .L73
 838 0194 1100     		movs	r1, r2
 839 0196 1800     		movs	r0, r3
 840 0198 FFF7FEFF 		bl	Cy_SysLib_AssertFailed
 841              	.L68:
 274:Generated_Source\PSoC6\pdl\drivers\peripheral\prot/cy_prot.c **** 
 275:Generated_Source\PSoC6\pdl\drivers\peripheral\prot/cy_prot.c ****     addrReg = _VAL2FLD(PROT_MPU_MPU_STRUCT_ADDR_SUBREGION_DISABLE, config->subregions)
 842              		.loc 1 275 0 is_stmt 1
 843 019c 3B68     		ldr	r3, [r7]
 844 019e 5B79     		ldrb	r3, [r3, #5]
 845 01a0 1A00     		movs	r2, r3
 276:Generated_Source\PSoC6\pdl\drivers\peripheral\prot/cy_prot.c ****               | _VAL2FLD(PROT_MPU_MPU_STRUCT_ADDR_ADDR24, (uint32_t)((uint32_t)config->address >> C
 846              		.loc 1 276 0
 847 01a2 3B68     		ldr	r3, [r7]
 848 01a4 1B68     		ldr	r3, [r3]
 849 01a6 1900     		movs	r1, r3
 850 01a8 FF23     		movs	r3, #255
 851 01aa 9943     		bics	r1, r3
 852 01ac 0B00     		movs	r3, r1
 275:Generated_Source\PSoC6\pdl\drivers\peripheral\prot/cy_prot.c ****               | _VAL2FLD(PROT_MPU_MPU_STRUCT_ADDR_ADDR24, (uint32_t)((uint32_t)config->address >> C
 853              		.loc 1 275 0
 854 01ae 1343     		orrs	r3, r2
 855 01b0 7B61     		str	r3, [r7, #20]
ARM GAS  C:\Users\salaz\AppData\Local\Temp\ccSSnxm1.s 			page 21


 277:Generated_Source\PSoC6\pdl\drivers\peripheral\prot/cy_prot.c ****     attReg  = ((uint32_t)config->userPermission & CY_PROT_ATT_PERMISSION_MASK)
 856              		.loc 1 277 0
 857 01b2 3B68     		ldr	r3, [r7]
 858 01b4 9B79     		ldrb	r3, [r3, #6]
 859 01b6 1A00     		movs	r2, r3
 860 01b8 0723     		movs	r3, #7
 861 01ba 1A40     		ands	r2, r3
 278:Generated_Source\PSoC6\pdl\drivers\peripheral\prot/cy_prot.c ****               | (((uint32_t)config->privPermission & CY_PROT_ATT_PERMISSION_MASK) << CY_PROT_ATT_PR
 862              		.loc 1 278 0
 863 01bc 3B68     		ldr	r3, [r7]
 864 01be DB79     		ldrb	r3, [r3, #7]
 865 01c0 DB00     		lsls	r3, r3, #3
 866 01c2 3821     		movs	r1, #56
 867 01c4 0B40     		ands	r3, r1
 868 01c6 1A43     		orrs	r2, r3
 279:Generated_Source\PSoC6\pdl\drivers\peripheral\prot/cy_prot.c ****               | _VAL2FLD(PROT_MPU_MPU_STRUCT_ATT_NS, !(config->secure))
 869              		.loc 1 279 0
 870 01c8 3B68     		ldr	r3, [r7]
 871 01ca 1B7A     		ldrb	r3, [r3, #8]
 872 01cc 0121     		movs	r1, #1
 873 01ce 4B40     		eors	r3, r1
 874 01d0 DBB2     		uxtb	r3, r3
 875 01d2 9B01     		lsls	r3, r3, #6
 876 01d4 4021     		movs	r1, #64
 877 01d6 0B40     		ands	r3, r1
 878 01d8 1A43     		orrs	r2, r3
 280:Generated_Source\PSoC6\pdl\drivers\peripheral\prot/cy_prot.c ****               | _VAL2FLD(PROT_MPU_MPU_STRUCT_ATT_REGION_SIZE, config->regionSize);
 879              		.loc 1 280 0
 880 01da 3B68     		ldr	r3, [r7]
 881 01dc 1B79     		ldrb	r3, [r3, #4]
 882 01de 1906     		lsls	r1, r3, #24
 883 01e0 F823     		movs	r3, #248
 884 01e2 5B05     		lsls	r3, r3, #21
 885 01e4 0B40     		ands	r3, r1
 277:Generated_Source\PSoC6\pdl\drivers\peripheral\prot/cy_prot.c ****               | (((uint32_t)config->privPermission & CY_PROT_ATT_PERMISSION_MASK) << CY_PROT_ATT_PR
 886              		.loc 1 277 0
 887 01e6 1343     		orrs	r3, r2
 888 01e8 3B61     		str	r3, [r7, #16]
 281:Generated_Source\PSoC6\pdl\drivers\peripheral\prot/cy_prot.c ****     base->ATT = attReg;
 889              		.loc 1 281 0
 890 01ea 7B68     		ldr	r3, [r7, #4]
 891 01ec 3A69     		ldr	r2, [r7, #16]
 892 01ee 5A60     		str	r2, [r3, #4]
 282:Generated_Source\PSoC6\pdl\drivers\peripheral\prot/cy_prot.c ****     base->ADDR = addrReg;
 893              		.loc 1 282 0
 894 01f0 7B68     		ldr	r3, [r7, #4]
 895 01f2 7A69     		ldr	r2, [r7, #20]
 896 01f4 1A60     		str	r2, [r3]
 283:Generated_Source\PSoC6\pdl\drivers\peripheral\prot/cy_prot.c ****     status = ((base->ADDR != addrReg) || (base->ATT != attReg)) ? CY_PROT_FAILURE : CY_PROT_SUCCESS
 897              		.loc 1 283 0
 898 01f6 7B68     		ldr	r3, [r7, #4]
 899 01f8 1A68     		ldr	r2, [r3]
 900 01fa 7B69     		ldr	r3, [r7, #20]
 901 01fc 9A42     		cmp	r2, r3
 902 01fe 04D1     		bne	.L69
 903              		.loc 1 283 0 is_stmt 0 discriminator 2
 904 0200 7B68     		ldr	r3, [r7, #4]
ARM GAS  C:\Users\salaz\AppData\Local\Temp\ccSSnxm1.s 			page 22


 905 0202 5A68     		ldr	r2, [r3, #4]
 906 0204 3B69     		ldr	r3, [r7, #16]
 907 0206 9A42     		cmp	r2, r3
 908 0208 01D0     		beq	.L70
 909              	.L69:
 910              		.loc 1 283 0 discriminator 3
 911 020a 054B     		ldr	r3, .L73+4
 912 020c 00E0     		b	.L71
 913              	.L70:
 914              		.loc 1 283 0 discriminator 4
 915 020e 0023     		movs	r3, #0
 916              	.L71:
 917              		.loc 1 283 0 discriminator 6
 918 0210 FB60     		str	r3, [r7, #12]
 284:Generated_Source\PSoC6\pdl\drivers\peripheral\prot/cy_prot.c ****     
 285:Generated_Source\PSoC6\pdl\drivers\peripheral\prot/cy_prot.c ****     return status;
 919              		.loc 1 285 0 is_stmt 1 discriminator 6
 920 0212 FB68     		ldr	r3, [r7, #12]
 286:Generated_Source\PSoC6\pdl\drivers\peripheral\prot/cy_prot.c **** }
 921              		.loc 1 286 0 discriminator 6
 922 0214 1800     		movs	r0, r3
 923 0216 BD46     		mov	sp, r7
 924 0218 06B0     		add	sp, sp, #24
 925              		@ sp needed
 926 021a 80BD     		pop	{r7, pc}
 927              	.L74:
 928              		.align	2
 929              	.L73:
 930 021c 00000000 		.word	.LC0
 931 0220 0300C200 		.word	12713987
 932              		.cfi_endproc
 933              	.LFE39:
 934              		.size	Cy_Prot_ConfigMpuStruct, .-Cy_Prot_ConfigMpuStruct
 935              		.section	.text.Cy_Prot_EnableMpuStruct,"ax",%progbits
 936              		.align	2
 937              		.global	Cy_Prot_EnableMpuStruct
 938              		.code	16
 939              		.thumb_func
 940              		.type	Cy_Prot_EnableMpuStruct, %function
 941              	Cy_Prot_EnableMpuStruct:
 942              	.LFB40:
 287:Generated_Source\PSoC6\pdl\drivers\peripheral\prot/cy_prot.c **** 
 288:Generated_Source\PSoC6\pdl\drivers\peripheral\prot/cy_prot.c **** 
 289:Generated_Source\PSoC6\pdl\drivers\peripheral\prot/cy_prot.c **** /*******************************************************************************
 290:Generated_Source\PSoC6\pdl\drivers\peripheral\prot/cy_prot.c **** * Function Name: Cy_Prot_EnableMpuStruct
 291:Generated_Source\PSoC6\pdl\drivers\peripheral\prot/cy_prot.c **** ****************************************************************************//**
 292:Generated_Source\PSoC6\pdl\drivers\peripheral\prot/cy_prot.c **** *
 293:Generated_Source\PSoC6\pdl\drivers\peripheral\prot/cy_prot.c **** * \brief Enables the MPU struct, which allows the MPU protection attributes to 
 294:Generated_Source\PSoC6\pdl\drivers\peripheral\prot/cy_prot.c **** * take effect. 
 295:Generated_Source\PSoC6\pdl\drivers\peripheral\prot/cy_prot.c **** *
 296:Generated_Source\PSoC6\pdl\drivers\peripheral\prot/cy_prot.c **** * \param base
 297:Generated_Source\PSoC6\pdl\drivers\peripheral\prot/cy_prot.c **** * The base address of the MPU struct being configured. 
 298:Generated_Source\PSoC6\pdl\drivers\peripheral\prot/cy_prot.c **** *
 299:Generated_Source\PSoC6\pdl\drivers\peripheral\prot/cy_prot.c **** * \return
 300:Generated_Source\PSoC6\pdl\drivers\peripheral\prot/cy_prot.c **** * Status of the function call.
 301:Generated_Source\PSoC6\pdl\drivers\peripheral\prot/cy_prot.c **** *
 302:Generated_Source\PSoC6\pdl\drivers\peripheral\prot/cy_prot.c **** *   Status               | Description
ARM GAS  C:\Users\salaz\AppData\Local\Temp\ccSSnxm1.s 			page 23


 303:Generated_Source\PSoC6\pdl\drivers\peripheral\prot/cy_prot.c **** *   ------------         | -----------
 304:Generated_Source\PSoC6\pdl\drivers\peripheral\prot/cy_prot.c **** *   CY_PROT_SUCCESS      | The MPU struct was enabled
 305:Generated_Source\PSoC6\pdl\drivers\peripheral\prot/cy_prot.c **** *   CY_PROT_FAILURE      | The MPU struct is disabled and possibly locked
 306:Generated_Source\PSoC6\pdl\drivers\peripheral\prot/cy_prot.c **** *
 307:Generated_Source\PSoC6\pdl\drivers\peripheral\prot/cy_prot.c **** * \funcusage
 308:Generated_Source\PSoC6\pdl\drivers\peripheral\prot/cy_prot.c **** * \snippet prot/prot_v1_10_sut_01.cydsn/main_cm4.c snippet_Cy_Prot_EnableMpuStruct
 309:Generated_Source\PSoC6\pdl\drivers\peripheral\prot/cy_prot.c **** *
 310:Generated_Source\PSoC6\pdl\drivers\peripheral\prot/cy_prot.c **** *******************************************************************************/
 311:Generated_Source\PSoC6\pdl\drivers\peripheral\prot/cy_prot.c **** cy_en_prot_status_t Cy_Prot_EnableMpuStruct(PROT_MPU_MPU_STRUCT_Type* base)
 312:Generated_Source\PSoC6\pdl\drivers\peripheral\prot/cy_prot.c **** {
 943              		.loc 1 312 0
 944              		.cfi_startproc
 945              		@ args = 0, pretend = 0, frame = 16
 946              		@ frame_needed = 1, uses_anonymous_args = 0
 947 0000 80B5     		push	{r7, lr}
 948              		.cfi_def_cfa_offset 8
 949              		.cfi_offset 7, -8
 950              		.cfi_offset 14, -4
 951 0002 84B0     		sub	sp, sp, #16
 952              		.cfi_def_cfa_offset 24
 953 0004 00AF     		add	r7, sp, #0
 954              		.cfi_def_cfa_register 7
 955 0006 7860     		str	r0, [r7, #4]
 313:Generated_Source\PSoC6\pdl\drivers\peripheral\prot/cy_prot.c ****     cy_en_prot_status_t status;
 314:Generated_Source\PSoC6\pdl\drivers\peripheral\prot/cy_prot.c **** 
 315:Generated_Source\PSoC6\pdl\drivers\peripheral\prot/cy_prot.c ****     base->ATT |= _VAL2FLD(PROT_MPU_MPU_STRUCT_ATT_ENABLED, CY_PROT_STRUCT_ENABLE);
 956              		.loc 1 315 0
 957 0008 7B68     		ldr	r3, [r7, #4]
 958 000a 5B68     		ldr	r3, [r3, #4]
 959 000c 8022     		movs	r2, #128
 960 000e 1206     		lsls	r2, r2, #24
 961 0010 1A43     		orrs	r2, r3
 962 0012 7B68     		ldr	r3, [r7, #4]
 963 0014 5A60     		str	r2, [r3, #4]
 316:Generated_Source\PSoC6\pdl\drivers\peripheral\prot/cy_prot.c ****     status = (_FLD2VAL(PROT_MPU_MPU_STRUCT_ATT_ENABLED, base->ATT) != CY_PROT_STRUCT_ENABLE) ?
 964              		.loc 1 316 0
 965 0016 7B68     		ldr	r3, [r7, #4]
 966 0018 5B68     		ldr	r3, [r3, #4]
 967 001a DB0F     		lsrs	r3, r3, #31
 968 001c DB07     		lsls	r3, r3, #31
 969 001e DB0F     		lsrs	r3, r3, #31
 970 0020 012B     		cmp	r3, #1
 971 0022 01D0     		beq	.L76
 972              		.loc 1 316 0 is_stmt 0 discriminator 1
 973 0024 044B     		ldr	r3, .L79
 974 0026 00E0     		b	.L77
 975              	.L76:
 976              		.loc 1 316 0 discriminator 2
 977 0028 0023     		movs	r3, #0
 978              	.L77:
 979              		.loc 1 316 0 discriminator 4
 980 002a FB60     		str	r3, [r7, #12]
 317:Generated_Source\PSoC6\pdl\drivers\peripheral\prot/cy_prot.c ****                 CY_PROT_FAILURE : CY_PROT_SUCCESS;
 318:Generated_Source\PSoC6\pdl\drivers\peripheral\prot/cy_prot.c ****     
 319:Generated_Source\PSoC6\pdl\drivers\peripheral\prot/cy_prot.c ****     return status;
 981              		.loc 1 319 0 is_stmt 1 discriminator 4
 982 002c FB68     		ldr	r3, [r7, #12]
ARM GAS  C:\Users\salaz\AppData\Local\Temp\ccSSnxm1.s 			page 24


 320:Generated_Source\PSoC6\pdl\drivers\peripheral\prot/cy_prot.c **** }
 983              		.loc 1 320 0 discriminator 4
 984 002e 1800     		movs	r0, r3
 985 0030 BD46     		mov	sp, r7
 986 0032 04B0     		add	sp, sp, #16
 987              		@ sp needed
 988 0034 80BD     		pop	{r7, pc}
 989              	.L80:
 990 0036 C046     		.align	2
 991              	.L79:
 992 0038 0300C200 		.word	12713987
 993              		.cfi_endproc
 994              	.LFE40:
 995              		.size	Cy_Prot_EnableMpuStruct, .-Cy_Prot_EnableMpuStruct
 996              		.section	.text.Cy_Prot_DisableMpuStruct,"ax",%progbits
 997              		.align	2
 998              		.global	Cy_Prot_DisableMpuStruct
 999              		.code	16
 1000              		.thumb_func
 1001              		.type	Cy_Prot_DisableMpuStruct, %function
 1002              	Cy_Prot_DisableMpuStruct:
 1003              	.LFB41:
 321:Generated_Source\PSoC6\pdl\drivers\peripheral\prot/cy_prot.c **** 
 322:Generated_Source\PSoC6\pdl\drivers\peripheral\prot/cy_prot.c **** 
 323:Generated_Source\PSoC6\pdl\drivers\peripheral\prot/cy_prot.c **** /*******************************************************************************
 324:Generated_Source\PSoC6\pdl\drivers\peripheral\prot/cy_prot.c **** * Function Name: Cy_Prot_DisableMpuStruct
 325:Generated_Source\PSoC6\pdl\drivers\peripheral\prot/cy_prot.c **** ****************************************************************************//**
 326:Generated_Source\PSoC6\pdl\drivers\peripheral\prot/cy_prot.c **** *
 327:Generated_Source\PSoC6\pdl\drivers\peripheral\prot/cy_prot.c **** * \brief Disbles the MPU struct, which prevents the MPU protection attributes
 328:Generated_Source\PSoC6\pdl\drivers\peripheral\prot/cy_prot.c **** * from taking effect.
 329:Generated_Source\PSoC6\pdl\drivers\peripheral\prot/cy_prot.c **** *
 330:Generated_Source\PSoC6\pdl\drivers\peripheral\prot/cy_prot.c **** * \param base
 331:Generated_Source\PSoC6\pdl\drivers\peripheral\prot/cy_prot.c **** * The base address of the MPU struct being configured. 
 332:Generated_Source\PSoC6\pdl\drivers\peripheral\prot/cy_prot.c **** *
 333:Generated_Source\PSoC6\pdl\drivers\peripheral\prot/cy_prot.c **** * \return
 334:Generated_Source\PSoC6\pdl\drivers\peripheral\prot/cy_prot.c **** * Status of the function call.
 335:Generated_Source\PSoC6\pdl\drivers\peripheral\prot/cy_prot.c **** *
 336:Generated_Source\PSoC6\pdl\drivers\peripheral\prot/cy_prot.c **** *   Status               | Description
 337:Generated_Source\PSoC6\pdl\drivers\peripheral\prot/cy_prot.c **** *   ------------         | -----------
 338:Generated_Source\PSoC6\pdl\drivers\peripheral\prot/cy_prot.c **** *   CY_PROT_SUCCESS      | The MPU struct was disabled
 339:Generated_Source\PSoC6\pdl\drivers\peripheral\prot/cy_prot.c **** *   CY_PROT_FAILURE      | The MPU struct is enabled and possibly locked
 340:Generated_Source\PSoC6\pdl\drivers\peripheral\prot/cy_prot.c **** *
 341:Generated_Source\PSoC6\pdl\drivers\peripheral\prot/cy_prot.c **** * \funcusage
 342:Generated_Source\PSoC6\pdl\drivers\peripheral\prot/cy_prot.c **** * \snippet prot/prot_v1_10_sut_01.cydsn/main_cm4.c snippet_Cy_Prot_DisableMpuStruct
 343:Generated_Source\PSoC6\pdl\drivers\peripheral\prot/cy_prot.c **** *
 344:Generated_Source\PSoC6\pdl\drivers\peripheral\prot/cy_prot.c **** *******************************************************************************/
 345:Generated_Source\PSoC6\pdl\drivers\peripheral\prot/cy_prot.c **** cy_en_prot_status_t Cy_Prot_DisableMpuStruct(PROT_MPU_MPU_STRUCT_Type* base)
 346:Generated_Source\PSoC6\pdl\drivers\peripheral\prot/cy_prot.c **** {
 1004              		.loc 1 346 0
 1005              		.cfi_startproc
 1006              		@ args = 0, pretend = 0, frame = 16
 1007              		@ frame_needed = 1, uses_anonymous_args = 0
 1008 0000 80B5     		push	{r7, lr}
 1009              		.cfi_def_cfa_offset 8
 1010              		.cfi_offset 7, -8
 1011              		.cfi_offset 14, -4
 1012 0002 84B0     		sub	sp, sp, #16
ARM GAS  C:\Users\salaz\AppData\Local\Temp\ccSSnxm1.s 			page 25


 1013              		.cfi_def_cfa_offset 24
 1014 0004 00AF     		add	r7, sp, #0
 1015              		.cfi_def_cfa_register 7
 1016 0006 7860     		str	r0, [r7, #4]
 347:Generated_Source\PSoC6\pdl\drivers\peripheral\prot/cy_prot.c ****     cy_en_prot_status_t status;
 348:Generated_Source\PSoC6\pdl\drivers\peripheral\prot/cy_prot.c ****     
 349:Generated_Source\PSoC6\pdl\drivers\peripheral\prot/cy_prot.c ****     base->ATT &= ~_VAL2FLD(PROT_MPU_MPU_STRUCT_ATT_ENABLED, CY_PROT_STRUCT_ENABLE);
 1017              		.loc 1 349 0
 1018 0008 7B68     		ldr	r3, [r7, #4]
 1019 000a 5B68     		ldr	r3, [r3, #4]
 1020 000c 5B00     		lsls	r3, r3, #1
 1021 000e 5A08     		lsrs	r2, r3, #1
 1022 0010 7B68     		ldr	r3, [r7, #4]
 1023 0012 5A60     		str	r2, [r3, #4]
 350:Generated_Source\PSoC6\pdl\drivers\peripheral\prot/cy_prot.c ****     status = (_FLD2VAL(PROT_MPU_MPU_STRUCT_ATT_ENABLED, base->ATT) == CY_PROT_STRUCT_ENABLE) ?
 1024              		.loc 1 350 0
 1025 0014 7B68     		ldr	r3, [r7, #4]
 1026 0016 5B68     		ldr	r3, [r3, #4]
 1027 0018 DB0F     		lsrs	r3, r3, #31
 1028 001a DB07     		lsls	r3, r3, #31
 1029 001c DB0F     		lsrs	r3, r3, #31
 1030 001e 012B     		cmp	r3, #1
 1031 0020 01D1     		bne	.L82
 1032              		.loc 1 350 0 is_stmt 0 discriminator 1
 1033 0022 044B     		ldr	r3, .L85
 1034 0024 00E0     		b	.L83
 1035              	.L82:
 1036              		.loc 1 350 0 discriminator 2
 1037 0026 0023     		movs	r3, #0
 1038              	.L83:
 1039              		.loc 1 350 0 discriminator 4
 1040 0028 FB60     		str	r3, [r7, #12]
 351:Generated_Source\PSoC6\pdl\drivers\peripheral\prot/cy_prot.c ****             CY_PROT_FAILURE : CY_PROT_SUCCESS;
 352:Generated_Source\PSoC6\pdl\drivers\peripheral\prot/cy_prot.c ****     
 353:Generated_Source\PSoC6\pdl\drivers\peripheral\prot/cy_prot.c ****     return status;
 1041              		.loc 1 353 0 is_stmt 1 discriminator 4
 1042 002a FB68     		ldr	r3, [r7, #12]
 354:Generated_Source\PSoC6\pdl\drivers\peripheral\prot/cy_prot.c **** }
 1043              		.loc 1 354 0 discriminator 4
 1044 002c 1800     		movs	r0, r3
 1045 002e BD46     		mov	sp, r7
 1046 0030 04B0     		add	sp, sp, #16
 1047              		@ sp needed
 1048 0032 80BD     		pop	{r7, pc}
 1049              	.L86:
 1050              		.align	2
 1051              	.L85:
 1052 0034 0300C200 		.word	12713987
 1053              		.cfi_endproc
 1054              	.LFE41:
 1055              		.size	Cy_Prot_DisableMpuStruct, .-Cy_Prot_DisableMpuStruct
 1056              		.section	.text.Cy_Prot_ConfigSmpuMasterStruct,"ax",%progbits
 1057              		.align	2
 1058              		.global	Cy_Prot_ConfigSmpuMasterStruct
 1059              		.code	16
 1060              		.thumb_func
 1061              		.type	Cy_Prot_ConfigSmpuMasterStruct, %function
ARM GAS  C:\Users\salaz\AppData\Local\Temp\ccSSnxm1.s 			page 26


 1062              	Cy_Prot_ConfigSmpuMasterStruct:
 1063              	.LFB42:
 355:Generated_Source\PSoC6\pdl\drivers\peripheral\prot/cy_prot.c **** 
 356:Generated_Source\PSoC6\pdl\drivers\peripheral\prot/cy_prot.c **** 
 357:Generated_Source\PSoC6\pdl\drivers\peripheral\prot/cy_prot.c **** /*******************************************************************************
 358:Generated_Source\PSoC6\pdl\drivers\peripheral\prot/cy_prot.c **** * Function Name: Cy_Prot_ConfigSmpuMasterStruct
 359:Generated_Source\PSoC6\pdl\drivers\peripheral\prot/cy_prot.c **** ****************************************************************************//**
 360:Generated_Source\PSoC6\pdl\drivers\peripheral\prot/cy_prot.c **** *
 361:Generated_Source\PSoC6\pdl\drivers\peripheral\prot/cy_prot.c **** * \brief Configures a Shared Memory Protection Unit (SMPU) master protection 
 362:Generated_Source\PSoC6\pdl\drivers\peripheral\prot/cy_prot.c **** * struct with its protection attributes. 
 363:Generated_Source\PSoC6\pdl\drivers\peripheral\prot/cy_prot.c **** *
 364:Generated_Source\PSoC6\pdl\drivers\peripheral\prot/cy_prot.c **** * This function configures the master struct governing the corresponding slave
 365:Generated_Source\PSoC6\pdl\drivers\peripheral\prot/cy_prot.c **** * struct pair. It is a mechanism to protect the slave SMPU struct. Since the
 366:Generated_Source\PSoC6\pdl\drivers\peripheral\prot/cy_prot.c **** * memory location of the slave struct is known, the address, regionSize and
 367:Generated_Source\PSoC6\pdl\drivers\peripheral\prot/cy_prot.c **** * subregions of the configuration struct are not applicable.
 368:Generated_Source\PSoC6\pdl\drivers\peripheral\prot/cy_prot.c **** *
 369:Generated_Source\PSoC6\pdl\drivers\peripheral\prot/cy_prot.c **** * Note that only the user/privileged write permissions are configurable. The 
 370:Generated_Source\PSoC6\pdl\drivers\peripheral\prot/cy_prot.c **** * read and execute permissions are read-only and cannot be configured.
 371:Generated_Source\PSoC6\pdl\drivers\peripheral\prot/cy_prot.c **** *
 372:Generated_Source\PSoC6\pdl\drivers\peripheral\prot/cy_prot.c **** * \param base
 373:Generated_Source\PSoC6\pdl\drivers\peripheral\prot/cy_prot.c **** * The register base address of the protection struct being configured.
 374:Generated_Source\PSoC6\pdl\drivers\peripheral\prot/cy_prot.c **** * 
 375:Generated_Source\PSoC6\pdl\drivers\peripheral\prot/cy_prot.c **** * \param config
 376:Generated_Source\PSoC6\pdl\drivers\peripheral\prot/cy_prot.c **** * Initialization structure with all the protection attributes.
 377:Generated_Source\PSoC6\pdl\drivers\peripheral\prot/cy_prot.c **** * 
 378:Generated_Source\PSoC6\pdl\drivers\peripheral\prot/cy_prot.c **** * \return
 379:Generated_Source\PSoC6\pdl\drivers\peripheral\prot/cy_prot.c **** * Status of the function call.
 380:Generated_Source\PSoC6\pdl\drivers\peripheral\prot/cy_prot.c **** *
 381:Generated_Source\PSoC6\pdl\drivers\peripheral\prot/cy_prot.c **** *   Status               | Description
 382:Generated_Source\PSoC6\pdl\drivers\peripheral\prot/cy_prot.c **** *   ------------         | -----------
 383:Generated_Source\PSoC6\pdl\drivers\peripheral\prot/cy_prot.c **** *   CY_PROT_SUCCESS      | SMPU master struct was successfully configured
 384:Generated_Source\PSoC6\pdl\drivers\peripheral\prot/cy_prot.c **** *   CY_PROT_FAILURE      | The resource is locked
 385:Generated_Source\PSoC6\pdl\drivers\peripheral\prot/cy_prot.c **** *   CY_PROT_BAD_PARAM    | An incorrect/invalid parameter was passed
 386:Generated_Source\PSoC6\pdl\drivers\peripheral\prot/cy_prot.c **** *
 387:Generated_Source\PSoC6\pdl\drivers\peripheral\prot/cy_prot.c **** * \funcusage
 388:Generated_Source\PSoC6\pdl\drivers\peripheral\prot/cy_prot.c **** * \snippet prot/prot_v1_10_sut_01.cydsn/main_cm4.c snippet_Cy_Prot_ConfigSmpuMasterStruct
 389:Generated_Source\PSoC6\pdl\drivers\peripheral\prot/cy_prot.c **** *
 390:Generated_Source\PSoC6\pdl\drivers\peripheral\prot/cy_prot.c **** *******************************************************************************/
 391:Generated_Source\PSoC6\pdl\drivers\peripheral\prot/cy_prot.c **** cy_en_prot_status_t Cy_Prot_ConfigSmpuMasterStruct(PROT_SMPU_SMPU_STRUCT_Type* base, const cy_stc_s
 392:Generated_Source\PSoC6\pdl\drivers\peripheral\prot/cy_prot.c **** {
 1064              		.loc 1 392 0
 1065              		.cfi_startproc
 1066              		@ args = 0, pretend = 0, frame = 16
 1067              		@ frame_needed = 1, uses_anonymous_args = 0
 1068 0000 80B5     		push	{r7, lr}
 1069              		.cfi_def_cfa_offset 8
 1070              		.cfi_offset 7, -8
 1071              		.cfi_offset 14, -4
 1072 0002 84B0     		sub	sp, sp, #16
 1073              		.cfi_def_cfa_offset 24
 1074 0004 00AF     		add	r7, sp, #0
 1075              		.cfi_def_cfa_register 7
 1076 0006 7860     		str	r0, [r7, #4]
 1077 0008 3960     		str	r1, [r7]
 393:Generated_Source\PSoC6\pdl\drivers\peripheral\prot/cy_prot.c ****     cy_en_prot_status_t status;
 394:Generated_Source\PSoC6\pdl\drivers\peripheral\prot/cy_prot.c ****     uint32_t attReg;
 395:Generated_Source\PSoC6\pdl\drivers\peripheral\prot/cy_prot.c ****     
ARM GAS  C:\Users\salaz\AppData\Local\Temp\ccSSnxm1.s 			page 27


 396:Generated_Source\PSoC6\pdl\drivers\peripheral\prot/cy_prot.c ****     CY_ASSERT_L1(NULL != base);
 1078              		.loc 1 396 0
 1079 000a 7B68     		ldr	r3, [r7, #4]
 1080 000c 002B     		cmp	r3, #0
 1081 000e 06D1     		bne	.L88
 1082              		.loc 1 396 0 is_stmt 0 discriminator 1
 1083 0010 C623     		movs	r3, #198
 1084 0012 5A00     		lsls	r2, r3, #1
 1085 0014 354B     		ldr	r3, .L97
 1086 0016 1100     		movs	r1, r2
 1087 0018 1800     		movs	r0, r3
 1088 001a FFF7FEFF 		bl	Cy_SysLib_AssertFailed
 1089              	.L88:
 397:Generated_Source\PSoC6\pdl\drivers\peripheral\prot/cy_prot.c ****     CY_ASSERT_L3(CY_PROT_IS_SMPU_MS_PERM_VALID(config->userPermission));
 1090              		.loc 1 397 0 is_stmt 1
 1091 001e 3B68     		ldr	r3, [r7]
 1092 0020 9B79     		ldrb	r3, [r3, #6]
 1093 0022 012B     		cmp	r3, #1
 1094 0024 0BD0     		beq	.L89
 1095              		.loc 1 397 0 is_stmt 0 discriminator 1
 1096 0026 3B68     		ldr	r3, [r7]
 1097 0028 9B79     		ldrb	r3, [r3, #6]
 1098 002a 032B     		cmp	r3, #3
 1099 002c 07D0     		beq	.L89
 1100              		.loc 1 397 0 discriminator 2
 1101 002e 8E23     		movs	r3, #142
 1102 0030 FF33     		adds	r3, r3, #255
 1103 0032 1A00     		movs	r2, r3
 1104 0034 2D4B     		ldr	r3, .L97
 1105 0036 1100     		movs	r1, r2
 1106 0038 1800     		movs	r0, r3
 1107 003a FFF7FEFF 		bl	Cy_SysLib_AssertFailed
 1108              	.L89:
 398:Generated_Source\PSoC6\pdl\drivers\peripheral\prot/cy_prot.c ****     CY_ASSERT_L3(CY_PROT_IS_SMPU_MS_PERM_VALID(config->privPermission));
 1109              		.loc 1 398 0 is_stmt 1
 1110 003e 3B68     		ldr	r3, [r7]
 1111 0040 DB79     		ldrb	r3, [r3, #7]
 1112 0042 012B     		cmp	r3, #1
 1113 0044 0AD0     		beq	.L90
 1114              		.loc 1 398 0 is_stmt 0 discriminator 1
 1115 0046 3B68     		ldr	r3, [r7]
 1116 0048 DB79     		ldrb	r3, [r3, #7]
 1117 004a 032B     		cmp	r3, #3
 1118 004c 06D0     		beq	.L90
 1119              		.loc 1 398 0 discriminator 2
 1120 004e C723     		movs	r3, #199
 1121 0050 5A00     		lsls	r2, r3, #1
 1122 0052 264B     		ldr	r3, .L97
 1123 0054 1100     		movs	r1, r2
 1124 0056 1800     		movs	r0, r3
 1125 0058 FFF7FEFF 		bl	Cy_SysLib_AssertFailed
 1126              	.L90:
 399:Generated_Source\PSoC6\pdl\drivers\peripheral\prot/cy_prot.c ****     
 400:Generated_Source\PSoC6\pdl\drivers\peripheral\prot/cy_prot.c ****     if(((uint32_t)config->pcMask & CY_PROT_SMPU_PC_LIMIT_MASK) != 0UL) 
 1127              		.loc 1 400 0 is_stmt 1
 1128 005c 3B68     		ldr	r3, [r7]
 1129 005e 5B89     		ldrh	r3, [r3, #10]
ARM GAS  C:\Users\salaz\AppData\Local\Temp\ccSSnxm1.s 			page 28


 1130 0060 1A00     		movs	r2, r3
 1131 0062 7F23     		movs	r3, #127
 1132 0064 9A43     		bics	r2, r3
 1133 0066 131E     		subs	r3, r2, #0
 1134 0068 02D0     		beq	.L91
 401:Generated_Source\PSoC6\pdl\drivers\peripheral\prot/cy_prot.c ****     {
 402:Generated_Source\PSoC6\pdl\drivers\peripheral\prot/cy_prot.c ****         /* PC mask out of range - not supported in device */
 403:Generated_Source\PSoC6\pdl\drivers\peripheral\prot/cy_prot.c ****         status = CY_PROT_BAD_PARAM;
 1135              		.loc 1 403 0
 1136 006a 214B     		ldr	r3, .L97+4
 1137 006c FB60     		str	r3, [r7, #12]
 1138 006e 38E0     		b	.L92
 1139              	.L91:
 404:Generated_Source\PSoC6\pdl\drivers\peripheral\prot/cy_prot.c ****     }
 405:Generated_Source\PSoC6\pdl\drivers\peripheral\prot/cy_prot.c ****     else
 406:Generated_Source\PSoC6\pdl\drivers\peripheral\prot/cy_prot.c ****     {
 407:Generated_Source\PSoC6\pdl\drivers\peripheral\prot/cy_prot.c ****         /* ADDR1 is read only. Only configure ATT1 */
 408:Generated_Source\PSoC6\pdl\drivers\peripheral\prot/cy_prot.c ****         attReg = ((uint32_t)config->userPermission & CY_PROT_ATT_PERMISSION_MASK)
 1140              		.loc 1 408 0
 1141 0070 3B68     		ldr	r3, [r7]
 1142 0072 9B79     		ldrb	r3, [r3, #6]
 1143 0074 1A00     		movs	r2, r3
 1144 0076 0723     		movs	r3, #7
 1145 0078 1A40     		ands	r2, r3
 409:Generated_Source\PSoC6\pdl\drivers\peripheral\prot/cy_prot.c ****                     | (uint32_t)(((uint32_t)config->privPermission & CY_PROT_ATT_PERMISSION_MASK) <
 1146              		.loc 1 409 0
 1147 007a 3B68     		ldr	r3, [r7]
 1148 007c DB79     		ldrb	r3, [r3, #7]
 1149 007e DB00     		lsls	r3, r3, #3
 1150 0080 3821     		movs	r1, #56
 1151 0082 0B40     		ands	r3, r1
 1152 0084 1A43     		orrs	r2, r3
 410:Generated_Source\PSoC6\pdl\drivers\peripheral\prot/cy_prot.c ****                     | _VAL2FLD(PROT_SMPU_SMPU_STRUCT_ATT1_NS, !(config->secure))
 1153              		.loc 1 410 0
 1154 0086 3B68     		ldr	r3, [r7]
 1155 0088 1B7A     		ldrb	r3, [r3, #8]
 1156 008a 0121     		movs	r1, #1
 1157 008c 4B40     		eors	r3, r1
 1158 008e DBB2     		uxtb	r3, r3
 1159 0090 9B01     		lsls	r3, r3, #6
 1160 0092 4021     		movs	r1, #64
 1161 0094 0B40     		ands	r3, r1
 1162 0096 1A43     		orrs	r2, r3
 411:Generated_Source\PSoC6\pdl\drivers\peripheral\prot/cy_prot.c ****                     | _VAL2FLD(PROT_SMPU_SMPU_STRUCT_ATT1_PC_MASK_15_TO_1, config->pcMask)
 1163              		.loc 1 411 0
 1164 0098 3B68     		ldr	r3, [r7]
 1165 009a 5B89     		ldrh	r3, [r3, #10]
 1166 009c 5B02     		lsls	r3, r3, #9
 1167 009e 1549     		ldr	r1, .L97+8
 1168 00a0 0B40     		ands	r3, r1
 1169 00a2 1A43     		orrs	r2, r3
 412:Generated_Source\PSoC6\pdl\drivers\peripheral\prot/cy_prot.c ****                     /* No region size - read only for master structs */
 413:Generated_Source\PSoC6\pdl\drivers\peripheral\prot/cy_prot.c ****                     | _VAL2FLD(PROT_SMPU_SMPU_STRUCT_ATT1_PC_MATCH, config->pcMatch);
 1170              		.loc 1 413 0
 1171 00a4 3B68     		ldr	r3, [r7]
 1172 00a6 5B7A     		ldrb	r3, [r3, #9]
 1173 00a8 9907     		lsls	r1, r3, #30
ARM GAS  C:\Users\salaz\AppData\Local\Temp\ccSSnxm1.s 			page 29


 1174 00aa 8023     		movs	r3, #128
 1175 00ac DB05     		lsls	r3, r3, #23
 1176 00ae 0B40     		ands	r3, r1
 408:Generated_Source\PSoC6\pdl\drivers\peripheral\prot/cy_prot.c ****                     | (uint32_t)(((uint32_t)config->privPermission & CY_PROT_ATT_PERMISSION_MASK) <
 1177              		.loc 1 408 0
 1178 00b0 1343     		orrs	r3, r2
 1179 00b2 BB60     		str	r3, [r7, #8]
 414:Generated_Source\PSoC6\pdl\drivers\peripheral\prot/cy_prot.c ****         if ((attReg & CY_PROT_SMPU_ATT1_MASK) != attReg)
 1180              		.loc 1 414 0
 1181 00b4 BB68     		ldr	r3, [r7, #8]
 1182 00b6 104A     		ldr	r2, .L97+12
 1183 00b8 1A40     		ands	r2, r3
 1184 00ba BB68     		ldr	r3, [r7, #8]
 1185 00bc 9A42     		cmp	r2, r3
 1186 00be 02D0     		beq	.L93
 415:Generated_Source\PSoC6\pdl\drivers\peripheral\prot/cy_prot.c ****         {
 416:Generated_Source\PSoC6\pdl\drivers\peripheral\prot/cy_prot.c ****             /* Invalid parameter was passed */
 417:Generated_Source\PSoC6\pdl\drivers\peripheral\prot/cy_prot.c ****             status = CY_PROT_BAD_PARAM;
 1187              		.loc 1 417 0
 1188 00c0 0B4B     		ldr	r3, .L97+4
 1189 00c2 FB60     		str	r3, [r7, #12]
 1190 00c4 0DE0     		b	.L92
 1191              	.L93:
 418:Generated_Source\PSoC6\pdl\drivers\peripheral\prot/cy_prot.c ****         }
 419:Generated_Source\PSoC6\pdl\drivers\peripheral\prot/cy_prot.c ****         else
 420:Generated_Source\PSoC6\pdl\drivers\peripheral\prot/cy_prot.c ****         {
 421:Generated_Source\PSoC6\pdl\drivers\peripheral\prot/cy_prot.c ****             base->ATT1 = attReg;
 1192              		.loc 1 421 0
 1193 00c6 7B68     		ldr	r3, [r7, #4]
 1194 00c8 BA68     		ldr	r2, [r7, #8]
 1195 00ca 5A62     		str	r2, [r3, #36]
 422:Generated_Source\PSoC6\pdl\drivers\peripheral\prot/cy_prot.c ****             status = ((base->ATT1 & CY_PROT_SMPU_ATT1_MASK) != attReg) ? CY_PROT_FAILURE : CY_PROT_
 1196              		.loc 1 422 0
 1197 00cc 7B68     		ldr	r3, [r7, #4]
 1198 00ce 5B6A     		ldr	r3, [r3, #36]
 1199 00d0 094A     		ldr	r2, .L97+12
 1200 00d2 1A40     		ands	r2, r3
 1201 00d4 BB68     		ldr	r3, [r7, #8]
 1202 00d6 9A42     		cmp	r2, r3
 1203 00d8 01D0     		beq	.L94
 1204              		.loc 1 422 0 is_stmt 0 discriminator 1
 1205 00da 084B     		ldr	r3, .L97+16
 1206 00dc 00E0     		b	.L95
 1207              	.L94:
 1208              		.loc 1 422 0 discriminator 2
 1209 00de 0023     		movs	r3, #0
 1210              	.L95:
 1211              		.loc 1 422 0 discriminator 4
 1212 00e0 FB60     		str	r3, [r7, #12]
 1213              	.L92:
 423:Generated_Source\PSoC6\pdl\drivers\peripheral\prot/cy_prot.c ****         }
 424:Generated_Source\PSoC6\pdl\drivers\peripheral\prot/cy_prot.c ****     }
 425:Generated_Source\PSoC6\pdl\drivers\peripheral\prot/cy_prot.c ****     
 426:Generated_Source\PSoC6\pdl\drivers\peripheral\prot/cy_prot.c ****     return status;
 1214              		.loc 1 426 0 is_stmt 1
 1215 00e2 FB68     		ldr	r3, [r7, #12]
 427:Generated_Source\PSoC6\pdl\drivers\peripheral\prot/cy_prot.c **** }
ARM GAS  C:\Users\salaz\AppData\Local\Temp\ccSSnxm1.s 			page 30


 1216              		.loc 1 427 0
 1217 00e4 1800     		movs	r0, r3
 1218 00e6 BD46     		mov	sp, r7
 1219 00e8 04B0     		add	sp, sp, #16
 1220              		@ sp needed
 1221 00ea 80BD     		pop	{r7, pc}
 1222              	.L98:
 1223              		.align	2
 1224              	.L97:
 1225 00ec 00000000 		.word	.LC0
 1226 00f0 0100C200 		.word	12713985
 1227 00f4 00FEFF00 		.word	16776704
 1228 00f8 DBFEFFE0 		.word	-520093989
 1229 00fc 0300C200 		.word	12713987
 1230              		.cfi_endproc
 1231              	.LFE42:
 1232              		.size	Cy_Prot_ConfigSmpuMasterStruct, .-Cy_Prot_ConfigSmpuMasterStruct
 1233              		.section	.text.Cy_Prot_ConfigSmpuSlaveStruct,"ax",%progbits
 1234              		.align	2
 1235              		.global	Cy_Prot_ConfigSmpuSlaveStruct
 1236              		.code	16
 1237              		.thumb_func
 1238              		.type	Cy_Prot_ConfigSmpuSlaveStruct, %function
 1239              	Cy_Prot_ConfigSmpuSlaveStruct:
 1240              	.LFB43:
 428:Generated_Source\PSoC6\pdl\drivers\peripheral\prot/cy_prot.c **** 
 429:Generated_Source\PSoC6\pdl\drivers\peripheral\prot/cy_prot.c **** /*******************************************************************************
 430:Generated_Source\PSoC6\pdl\drivers\peripheral\prot/cy_prot.c **** * Function Name: Cy_Prot_ConfigSmpuSlaveStruct
 431:Generated_Source\PSoC6\pdl\drivers\peripheral\prot/cy_prot.c **** ****************************************************************************//**
 432:Generated_Source\PSoC6\pdl\drivers\peripheral\prot/cy_prot.c **** *
 433:Generated_Source\PSoC6\pdl\drivers\peripheral\prot/cy_prot.c **** * \brief Configures a Shared Memory Protection Unit (SMPU) slave protection 
 434:Generated_Source\PSoC6\pdl\drivers\peripheral\prot/cy_prot.c **** * struct with its protection attributes. 
 435:Generated_Source\PSoC6\pdl\drivers\peripheral\prot/cy_prot.c **** * 
 436:Generated_Source\PSoC6\pdl\drivers\peripheral\prot/cy_prot.c **** * This function configures the slave struct of an SMPU pair, which can protect
 437:Generated_Source\PSoC6\pdl\drivers\peripheral\prot/cy_prot.c **** * any memory region in a device from invalid bus master accesses.
 438:Generated_Source\PSoC6\pdl\drivers\peripheral\prot/cy_prot.c **** *
 439:Generated_Source\PSoC6\pdl\drivers\peripheral\prot/cy_prot.c **** * \param base
 440:Generated_Source\PSoC6\pdl\drivers\peripheral\prot/cy_prot.c **** * The register base address of the protection structure being configured.
 441:Generated_Source\PSoC6\pdl\drivers\peripheral\prot/cy_prot.c **** * 
 442:Generated_Source\PSoC6\pdl\drivers\peripheral\prot/cy_prot.c **** * \param config
 443:Generated_Source\PSoC6\pdl\drivers\peripheral\prot/cy_prot.c **** * Initialization structure with all the protection attributes.
 444:Generated_Source\PSoC6\pdl\drivers\peripheral\prot/cy_prot.c **** * 
 445:Generated_Source\PSoC6\pdl\drivers\peripheral\prot/cy_prot.c **** * \return
 446:Generated_Source\PSoC6\pdl\drivers\peripheral\prot/cy_prot.c **** * Status of the function call.
 447:Generated_Source\PSoC6\pdl\drivers\peripheral\prot/cy_prot.c **** *
 448:Generated_Source\PSoC6\pdl\drivers\peripheral\prot/cy_prot.c **** *   Status               | Description
 449:Generated_Source\PSoC6\pdl\drivers\peripheral\prot/cy_prot.c **** *   ------------         | -----------
 450:Generated_Source\PSoC6\pdl\drivers\peripheral\prot/cy_prot.c **** *   CY_PROT_SUCCESS      | SMPU slave struct was successfully configured
 451:Generated_Source\PSoC6\pdl\drivers\peripheral\prot/cy_prot.c **** *   CY_PROT_FAILURE      | The resource is locked
 452:Generated_Source\PSoC6\pdl\drivers\peripheral\prot/cy_prot.c **** *   CY_PROT_BAD_PARAM    | An incorrect/invalid parameter was passed
 453:Generated_Source\PSoC6\pdl\drivers\peripheral\prot/cy_prot.c **** *
 454:Generated_Source\PSoC6\pdl\drivers\peripheral\prot/cy_prot.c **** * \funcusage
 455:Generated_Source\PSoC6\pdl\drivers\peripheral\prot/cy_prot.c **** * \snippet prot/prot_v1_10_sut_01.cydsn/main_cm4.c snippet_Cy_Prot_ConfigSmpuSlaveStruct
 456:Generated_Source\PSoC6\pdl\drivers\peripheral\prot/cy_prot.c **** *
 457:Generated_Source\PSoC6\pdl\drivers\peripheral\prot/cy_prot.c **** *******************************************************************************/
 458:Generated_Source\PSoC6\pdl\drivers\peripheral\prot/cy_prot.c **** cy_en_prot_status_t Cy_Prot_ConfigSmpuSlaveStruct(PROT_SMPU_SMPU_STRUCT_Type* base, const cy_stc_sm
 459:Generated_Source\PSoC6\pdl\drivers\peripheral\prot/cy_prot.c **** {
ARM GAS  C:\Users\salaz\AppData\Local\Temp\ccSSnxm1.s 			page 31


 1241              		.loc 1 459 0
 1242              		.cfi_startproc
 1243              		@ args = 0, pretend = 0, frame = 24
 1244              		@ frame_needed = 1, uses_anonymous_args = 0
 1245 0000 80B5     		push	{r7, lr}
 1246              		.cfi_def_cfa_offset 8
 1247              		.cfi_offset 7, -8
 1248              		.cfi_offset 14, -4
 1249 0002 86B0     		sub	sp, sp, #24
 1250              		.cfi_def_cfa_offset 32
 1251 0004 00AF     		add	r7, sp, #0
 1252              		.cfi_def_cfa_register 7
 1253 0006 7860     		str	r0, [r7, #4]
 1254 0008 3960     		str	r1, [r7]
 460:Generated_Source\PSoC6\pdl\drivers\peripheral\prot/cy_prot.c ****     cy_en_prot_status_t status;
 461:Generated_Source\PSoC6\pdl\drivers\peripheral\prot/cy_prot.c ****     uint32_t addrReg;
 462:Generated_Source\PSoC6\pdl\drivers\peripheral\prot/cy_prot.c ****     uint32_t attReg;
 463:Generated_Source\PSoC6\pdl\drivers\peripheral\prot/cy_prot.c ****     
 464:Generated_Source\PSoC6\pdl\drivers\peripheral\prot/cy_prot.c ****     CY_ASSERT_L1(NULL != base);
 1255              		.loc 1 464 0
 1256 000a 7B68     		ldr	r3, [r7, #4]
 1257 000c 002B     		cmp	r3, #0
 1258 000e 06D1     		bne	.L100
 1259              		.loc 1 464 0 is_stmt 0 discriminator 1
 1260 0010 E823     		movs	r3, #232
 1261 0012 5A00     		lsls	r2, r3, #1
 1262 0014 8E4B     		ldr	r3, .L110
 1263 0016 1100     		movs	r1, r2
 1264 0018 1800     		movs	r0, r3
 1265 001a FFF7FEFF 		bl	Cy_SysLib_AssertFailed
 1266              	.L100:
 465:Generated_Source\PSoC6\pdl\drivers\peripheral\prot/cy_prot.c ****     CY_ASSERT_L3(CY_PROT_IS_SMPU_SL_PERM_VALID(config->userPermission));
 1267              		.loc 1 465 0 is_stmt 1
 1268 001e 3B68     		ldr	r3, [r7]
 1269 0020 9B79     		ldrb	r3, [r3, #6]
 1270 0022 002B     		cmp	r3, #0
 1271 0024 23D0     		beq	.L101
 1272              		.loc 1 465 0 is_stmt 0 discriminator 1
 1273 0026 3B68     		ldr	r3, [r7]
 1274 0028 9B79     		ldrb	r3, [r3, #6]
 1275 002a 012B     		cmp	r3, #1
 1276 002c 1FD0     		beq	.L101
 1277              		.loc 1 465 0 discriminator 2
 1278 002e 3B68     		ldr	r3, [r7]
 1279 0030 9B79     		ldrb	r3, [r3, #6]
 1280 0032 022B     		cmp	r3, #2
 1281 0034 1BD0     		beq	.L101
 1282              		.loc 1 465 0 discriminator 3
 1283 0036 3B68     		ldr	r3, [r7]
 1284 0038 9B79     		ldrb	r3, [r3, #6]
 1285 003a 032B     		cmp	r3, #3
 1286 003c 17D0     		beq	.L101
 1287              		.loc 1 465 0 discriminator 4
 1288 003e 3B68     		ldr	r3, [r7]
 1289 0040 9B79     		ldrb	r3, [r3, #6]
 1290 0042 042B     		cmp	r3, #4
 1291 0044 13D0     		beq	.L101
ARM GAS  C:\Users\salaz\AppData\Local\Temp\ccSSnxm1.s 			page 32


 1292              		.loc 1 465 0 discriminator 5
 1293 0046 3B68     		ldr	r3, [r7]
 1294 0048 9B79     		ldrb	r3, [r3, #6]
 1295 004a 052B     		cmp	r3, #5
 1296 004c 0FD0     		beq	.L101
 1297              		.loc 1 465 0 discriminator 6
 1298 004e 3B68     		ldr	r3, [r7]
 1299 0050 9B79     		ldrb	r3, [r3, #6]
 1300 0052 062B     		cmp	r3, #6
 1301 0054 0BD0     		beq	.L101
 1302              		.loc 1 465 0 discriminator 7
 1303 0056 3B68     		ldr	r3, [r7]
 1304 0058 9B79     		ldrb	r3, [r3, #6]
 1305 005a 072B     		cmp	r3, #7
 1306 005c 07D0     		beq	.L101
 1307              		.loc 1 465 0 discriminator 8
 1308 005e D223     		movs	r3, #210
 1309 0060 FF33     		adds	r3, r3, #255
 1310 0062 1A00     		movs	r2, r3
 1311 0064 7A4B     		ldr	r3, .L110
 1312 0066 1100     		movs	r1, r2
 1313 0068 1800     		movs	r0, r3
 1314 006a FFF7FEFF 		bl	Cy_SysLib_AssertFailed
 1315              	.L101:
 466:Generated_Source\PSoC6\pdl\drivers\peripheral\prot/cy_prot.c ****     CY_ASSERT_L3(CY_PROT_IS_SMPU_SL_PERM_VALID(config->privPermission));
 1316              		.loc 1 466 0 is_stmt 1
 1317 006e 3B68     		ldr	r3, [r7]
 1318 0070 DB79     		ldrb	r3, [r3, #7]
 1319 0072 002B     		cmp	r3, #0
 1320 0074 22D0     		beq	.L102
 1321              		.loc 1 466 0 is_stmt 0 discriminator 1
 1322 0076 3B68     		ldr	r3, [r7]
 1323 0078 DB79     		ldrb	r3, [r3, #7]
 1324 007a 012B     		cmp	r3, #1
 1325 007c 1ED0     		beq	.L102
 1326              		.loc 1 466 0 discriminator 2
 1327 007e 3B68     		ldr	r3, [r7]
 1328 0080 DB79     		ldrb	r3, [r3, #7]
 1329 0082 022B     		cmp	r3, #2
 1330 0084 1AD0     		beq	.L102
 1331              		.loc 1 466 0 discriminator 3
 1332 0086 3B68     		ldr	r3, [r7]
 1333 0088 DB79     		ldrb	r3, [r3, #7]
 1334 008a 032B     		cmp	r3, #3
 1335 008c 16D0     		beq	.L102
 1336              		.loc 1 466 0 discriminator 4
 1337 008e 3B68     		ldr	r3, [r7]
 1338 0090 DB79     		ldrb	r3, [r3, #7]
 1339 0092 042B     		cmp	r3, #4
 1340 0094 12D0     		beq	.L102
 1341              		.loc 1 466 0 discriminator 5
 1342 0096 3B68     		ldr	r3, [r7]
 1343 0098 DB79     		ldrb	r3, [r3, #7]
 1344 009a 052B     		cmp	r3, #5
 1345 009c 0ED0     		beq	.L102
 1346              		.loc 1 466 0 discriminator 6
 1347 009e 3B68     		ldr	r3, [r7]
ARM GAS  C:\Users\salaz\AppData\Local\Temp\ccSSnxm1.s 			page 33


 1348 00a0 DB79     		ldrb	r3, [r3, #7]
 1349 00a2 062B     		cmp	r3, #6
 1350 00a4 0AD0     		beq	.L102
 1351              		.loc 1 466 0 discriminator 7
 1352 00a6 3B68     		ldr	r3, [r7]
 1353 00a8 DB79     		ldrb	r3, [r3, #7]
 1354 00aa 072B     		cmp	r3, #7
 1355 00ac 06D0     		beq	.L102
 1356              		.loc 1 466 0 discriminator 8
 1357 00ae E923     		movs	r3, #233
 1358 00b0 5A00     		lsls	r2, r3, #1
 1359 00b2 674B     		ldr	r3, .L110
 1360 00b4 1100     		movs	r1, r2
 1361 00b6 1800     		movs	r0, r3
 1362 00b8 FFF7FEFF 		bl	Cy_SysLib_AssertFailed
 1363              	.L102:
 467:Generated_Source\PSoC6\pdl\drivers\peripheral\prot/cy_prot.c ****     CY_ASSERT_L3(CY_PROT_IS_REGION_SIZE_VALID(config->regionSize));
 1364              		.loc 1 467 0 is_stmt 1
 1365 00bc 3B68     		ldr	r3, [r7]
 1366 00be 1B79     		ldrb	r3, [r3, #4]
 1367 00c0 072B     		cmp	r3, #7
 1368 00c2 00D1     		bne	.LCB1164
 1369 00c4 6AE0     		b	.L103	@long jump
 1370              	.LCB1164:
 1371              		.loc 1 467 0 is_stmt 0 discriminator 1
 1372 00c6 3B68     		ldr	r3, [r7]
 1373 00c8 1B79     		ldrb	r3, [r3, #4]
 1374 00ca 082B     		cmp	r3, #8
 1375 00cc 00D1     		bne	.LCB1168
 1376 00ce 65E0     		b	.L103	@long jump
 1377              	.LCB1168:
 1378              		.loc 1 467 0 discriminator 2
 1379 00d0 3B68     		ldr	r3, [r7]
 1380 00d2 1B79     		ldrb	r3, [r3, #4]
 1381 00d4 092B     		cmp	r3, #9
 1382 00d6 00D1     		bne	.LCB1172
 1383 00d8 60E0     		b	.L103	@long jump
 1384              	.LCB1172:
 1385              		.loc 1 467 0 discriminator 3
 1386 00da 3B68     		ldr	r3, [r7]
 1387 00dc 1B79     		ldrb	r3, [r3, #4]
 1388 00de 0A2B     		cmp	r3, #10
 1389 00e0 00D1     		bne	.LCB1176
 1390 00e2 5BE0     		b	.L103	@long jump
 1391              	.LCB1176:
 1392              		.loc 1 467 0 discriminator 4
 1393 00e4 3B68     		ldr	r3, [r7]
 1394 00e6 1B79     		ldrb	r3, [r3, #4]
 1395 00e8 0B2B     		cmp	r3, #11
 1396 00ea 57D0     		beq	.L103
 1397              		.loc 1 467 0 discriminator 5
 1398 00ec 3B68     		ldr	r3, [r7]
 1399 00ee 1B79     		ldrb	r3, [r3, #4]
 1400 00f0 0C2B     		cmp	r3, #12
 1401 00f2 53D0     		beq	.L103
 1402              		.loc 1 467 0 discriminator 6
 1403 00f4 3B68     		ldr	r3, [r7]
ARM GAS  C:\Users\salaz\AppData\Local\Temp\ccSSnxm1.s 			page 34


 1404 00f6 1B79     		ldrb	r3, [r3, #4]
 1405 00f8 0D2B     		cmp	r3, #13
 1406 00fa 4FD0     		beq	.L103
 1407              		.loc 1 467 0 discriminator 7
 1408 00fc 3B68     		ldr	r3, [r7]
 1409 00fe 1B79     		ldrb	r3, [r3, #4]
 1410 0100 0E2B     		cmp	r3, #14
 1411 0102 4BD0     		beq	.L103
 1412              		.loc 1 467 0 discriminator 8
 1413 0104 3B68     		ldr	r3, [r7]
 1414 0106 1B79     		ldrb	r3, [r3, #4]
 1415 0108 0F2B     		cmp	r3, #15
 1416 010a 47D0     		beq	.L103
 1417              		.loc 1 467 0 discriminator 9
 1418 010c 3B68     		ldr	r3, [r7]
 1419 010e 1B79     		ldrb	r3, [r3, #4]
 1420 0110 102B     		cmp	r3, #16
 1421 0112 43D0     		beq	.L103
 1422              		.loc 1 467 0 discriminator 10
 1423 0114 3B68     		ldr	r3, [r7]
 1424 0116 1B79     		ldrb	r3, [r3, #4]
 1425 0118 112B     		cmp	r3, #17
 1426 011a 3FD0     		beq	.L103
 1427              		.loc 1 467 0 discriminator 11
 1428 011c 3B68     		ldr	r3, [r7]
 1429 011e 1B79     		ldrb	r3, [r3, #4]
 1430 0120 122B     		cmp	r3, #18
 1431 0122 3BD0     		beq	.L103
 1432              		.loc 1 467 0 discriminator 12
 1433 0124 3B68     		ldr	r3, [r7]
 1434 0126 1B79     		ldrb	r3, [r3, #4]
 1435 0128 132B     		cmp	r3, #19
 1436 012a 37D0     		beq	.L103
 1437              		.loc 1 467 0 discriminator 13
 1438 012c 3B68     		ldr	r3, [r7]
 1439 012e 1B79     		ldrb	r3, [r3, #4]
 1440 0130 142B     		cmp	r3, #20
 1441 0132 33D0     		beq	.L103
 1442              		.loc 1 467 0 discriminator 14
 1443 0134 3B68     		ldr	r3, [r7]
 1444 0136 1B79     		ldrb	r3, [r3, #4]
 1445 0138 152B     		cmp	r3, #21
 1446 013a 2FD0     		beq	.L103
 1447              		.loc 1 467 0 discriminator 15
 1448 013c 3B68     		ldr	r3, [r7]
 1449 013e 1B79     		ldrb	r3, [r3, #4]
 1450 0140 162B     		cmp	r3, #22
 1451 0142 2BD0     		beq	.L103
 1452              		.loc 1 467 0 discriminator 16
 1453 0144 3B68     		ldr	r3, [r7]
 1454 0146 1B79     		ldrb	r3, [r3, #4]
 1455 0148 172B     		cmp	r3, #23
 1456 014a 27D0     		beq	.L103
 1457              		.loc 1 467 0 discriminator 17
 1458 014c 3B68     		ldr	r3, [r7]
 1459 014e 1B79     		ldrb	r3, [r3, #4]
 1460 0150 182B     		cmp	r3, #24
ARM GAS  C:\Users\salaz\AppData\Local\Temp\ccSSnxm1.s 			page 35


 1461 0152 23D0     		beq	.L103
 1462              		.loc 1 467 0 discriminator 18
 1463 0154 3B68     		ldr	r3, [r7]
 1464 0156 1B79     		ldrb	r3, [r3, #4]
 1465 0158 192B     		cmp	r3, #25
 1466 015a 1FD0     		beq	.L103
 1467              		.loc 1 467 0 discriminator 19
 1468 015c 3B68     		ldr	r3, [r7]
 1469 015e 1B79     		ldrb	r3, [r3, #4]
 1470 0160 1A2B     		cmp	r3, #26
 1471 0162 1BD0     		beq	.L103
 1472              		.loc 1 467 0 discriminator 20
 1473 0164 3B68     		ldr	r3, [r7]
 1474 0166 1B79     		ldrb	r3, [r3, #4]
 1475 0168 1B2B     		cmp	r3, #27
 1476 016a 17D0     		beq	.L103
 1477              		.loc 1 467 0 discriminator 21
 1478 016c 3B68     		ldr	r3, [r7]
 1479 016e 1B79     		ldrb	r3, [r3, #4]
 1480 0170 1C2B     		cmp	r3, #28
 1481 0172 13D0     		beq	.L103
 1482              		.loc 1 467 0 discriminator 22
 1483 0174 3B68     		ldr	r3, [r7]
 1484 0176 1B79     		ldrb	r3, [r3, #4]
 1485 0178 1D2B     		cmp	r3, #29
 1486 017a 0FD0     		beq	.L103
 1487              		.loc 1 467 0 discriminator 23
 1488 017c 3B68     		ldr	r3, [r7]
 1489 017e 1B79     		ldrb	r3, [r3, #4]
 1490 0180 1E2B     		cmp	r3, #30
 1491 0182 0BD0     		beq	.L103
 1492              		.loc 1 467 0 discriminator 24
 1493 0184 3B68     		ldr	r3, [r7]
 1494 0186 1B79     		ldrb	r3, [r3, #4]
 1495 0188 1F2B     		cmp	r3, #31
 1496 018a 07D0     		beq	.L103
 1497              		.loc 1 467 0 discriminator 25
 1498 018c D423     		movs	r3, #212
 1499 018e FF33     		adds	r3, r3, #255
 1500 0190 1A00     		movs	r2, r3
 1501 0192 2F4B     		ldr	r3, .L110
 1502 0194 1100     		movs	r1, r2
 1503 0196 1800     		movs	r0, r3
 1504 0198 FFF7FEFF 		bl	Cy_SysLib_AssertFailed
 1505              	.L103:
 468:Generated_Source\PSoC6\pdl\drivers\peripheral\prot/cy_prot.c **** 
 469:Generated_Source\PSoC6\pdl\drivers\peripheral\prot/cy_prot.c ****     if(((uint32_t)config->pcMask & CY_PROT_SMPU_PC_LIMIT_MASK) != 0UL) 
 1506              		.loc 1 469 0 is_stmt 1
 1507 019c 3B68     		ldr	r3, [r7]
 1508 019e 5B89     		ldrh	r3, [r3, #10]
 1509 01a0 1A00     		movs	r2, r3
 1510 01a2 7F23     		movs	r3, #127
 1511 01a4 9A43     		bics	r2, r3
 1512 01a6 131E     		subs	r3, r2, #0
 1513 01a8 02D0     		beq	.L104
 470:Generated_Source\PSoC6\pdl\drivers\peripheral\prot/cy_prot.c ****     {
 471:Generated_Source\PSoC6\pdl\drivers\peripheral\prot/cy_prot.c ****         /* PC mask out of range - not supported in device */
ARM GAS  C:\Users\salaz\AppData\Local\Temp\ccSSnxm1.s 			page 36


 472:Generated_Source\PSoC6\pdl\drivers\peripheral\prot/cy_prot.c ****         status = CY_PROT_BAD_PARAM;
 1514              		.loc 1 472 0
 1515 01aa 2A4B     		ldr	r3, .L110+4
 1516 01ac 7B61     		str	r3, [r7, #20]
 1517 01ae 49E0     		b	.L105
 1518              	.L104:
 473:Generated_Source\PSoC6\pdl\drivers\peripheral\prot/cy_prot.c ****     }
 474:Generated_Source\PSoC6\pdl\drivers\peripheral\prot/cy_prot.c ****     else
 475:Generated_Source\PSoC6\pdl\drivers\peripheral\prot/cy_prot.c ****     {
 476:Generated_Source\PSoC6\pdl\drivers\peripheral\prot/cy_prot.c ****         addrReg= _VAL2FLD(PROT_SMPU_SMPU_STRUCT_ADDR0_SUBREGION_DISABLE, config->subregions)
 1519              		.loc 1 476 0
 1520 01b0 3B68     		ldr	r3, [r7]
 1521 01b2 5B79     		ldrb	r3, [r3, #5]
 1522 01b4 1A00     		movs	r2, r3
 477:Generated_Source\PSoC6\pdl\drivers\peripheral\prot/cy_prot.c ****                     | _VAL2FLD(PROT_SMPU_SMPU_STRUCT_ADDR0_ADDR24, (uint32_t)((uint32_t)config->add
 1523              		.loc 1 477 0
 1524 01b6 3B68     		ldr	r3, [r7]
 1525 01b8 1B68     		ldr	r3, [r3]
 1526 01ba 1900     		movs	r1, r3
 1527 01bc FF23     		movs	r3, #255
 1528 01be 9943     		bics	r1, r3
 1529 01c0 0B00     		movs	r3, r1
 476:Generated_Source\PSoC6\pdl\drivers\peripheral\prot/cy_prot.c ****                     | _VAL2FLD(PROT_SMPU_SMPU_STRUCT_ADDR0_ADDR24, (uint32_t)((uint32_t)config->add
 1530              		.loc 1 476 0
 1531 01c2 1343     		orrs	r3, r2
 1532 01c4 3B61     		str	r3, [r7, #16]
 478:Generated_Source\PSoC6\pdl\drivers\peripheral\prot/cy_prot.c ****         attReg= ((uint32_t)config->userPermission & CY_PROT_ATT_PERMISSION_MASK)
 1533              		.loc 1 478 0
 1534 01c6 3B68     		ldr	r3, [r7]
 1535 01c8 9B79     		ldrb	r3, [r3, #6]
 1536 01ca 1A00     		movs	r2, r3
 1537 01cc 0723     		movs	r3, #7
 1538 01ce 1A40     		ands	r2, r3
 479:Generated_Source\PSoC6\pdl\drivers\peripheral\prot/cy_prot.c ****                     | (uint32_t)(((uint32_t)config->privPermission & CY_PROT_ATT_PERMISSION_MASK) <
 1539              		.loc 1 479 0
 1540 01d0 3B68     		ldr	r3, [r7]
 1541 01d2 DB79     		ldrb	r3, [r3, #7]
 1542 01d4 DB00     		lsls	r3, r3, #3
 1543 01d6 3821     		movs	r1, #56
 1544 01d8 0B40     		ands	r3, r1
 1545 01da 1A43     		orrs	r2, r3
 480:Generated_Source\PSoC6\pdl\drivers\peripheral\prot/cy_prot.c ****                     | _VAL2FLD(PROT_SMPU_SMPU_STRUCT_ATT0_NS, !(config->secure))
 1546              		.loc 1 480 0
 1547 01dc 3B68     		ldr	r3, [r7]
 1548 01de 1B7A     		ldrb	r3, [r3, #8]
 1549 01e0 0121     		movs	r1, #1
 1550 01e2 4B40     		eors	r3, r1
 1551 01e4 DBB2     		uxtb	r3, r3
 1552 01e6 9B01     		lsls	r3, r3, #6
 1553 01e8 4021     		movs	r1, #64
 1554 01ea 0B40     		ands	r3, r1
 1555 01ec 1A43     		orrs	r2, r3
 481:Generated_Source\PSoC6\pdl\drivers\peripheral\prot/cy_prot.c ****                     | _VAL2FLD(PROT_SMPU_SMPU_STRUCT_ATT0_PC_MASK_15_TO_1, config->pcMask)
 1556              		.loc 1 481 0
 1557 01ee 3B68     		ldr	r3, [r7]
 1558 01f0 5B89     		ldrh	r3, [r3, #10]
 1559 01f2 5B02     		lsls	r3, r3, #9
ARM GAS  C:\Users\salaz\AppData\Local\Temp\ccSSnxm1.s 			page 37


 1560 01f4 1849     		ldr	r1, .L110+8
 1561 01f6 0B40     		ands	r3, r1
 1562 01f8 1A43     		orrs	r2, r3
 482:Generated_Source\PSoC6\pdl\drivers\peripheral\prot/cy_prot.c ****                     | _VAL2FLD(PROT_SMPU_SMPU_STRUCT_ATT0_REGION_SIZE, config->regionSize)
 1563              		.loc 1 482 0
 1564 01fa 3B68     		ldr	r3, [r7]
 1565 01fc 1B79     		ldrb	r3, [r3, #4]
 1566 01fe 1906     		lsls	r1, r3, #24
 1567 0200 F823     		movs	r3, #248
 1568 0202 5B05     		lsls	r3, r3, #21
 1569 0204 0B40     		ands	r3, r1
 1570 0206 1A43     		orrs	r2, r3
 483:Generated_Source\PSoC6\pdl\drivers\peripheral\prot/cy_prot.c ****                     | _VAL2FLD(PROT_SMPU_SMPU_STRUCT_ATT0_PC_MATCH, config->pcMatch);
 1571              		.loc 1 483 0
 1572 0208 3B68     		ldr	r3, [r7]
 1573 020a 5B7A     		ldrb	r3, [r3, #9]
 1574 020c 9907     		lsls	r1, r3, #30
 1575 020e 8023     		movs	r3, #128
 1576 0210 DB05     		lsls	r3, r3, #23
 1577 0212 0B40     		ands	r3, r1
 478:Generated_Source\PSoC6\pdl\drivers\peripheral\prot/cy_prot.c ****                     | (uint32_t)(((uint32_t)config->privPermission & CY_PROT_ATT_PERMISSION_MASK) <
 1578              		.loc 1 478 0
 1579 0214 1343     		orrs	r3, r2
 1580 0216 FB60     		str	r3, [r7, #12]
 484:Generated_Source\PSoC6\pdl\drivers\peripheral\prot/cy_prot.c ****         base->ATT0 = attReg;
 1581              		.loc 1 484 0
 1582 0218 7B68     		ldr	r3, [r7, #4]
 1583 021a FA68     		ldr	r2, [r7, #12]
 1584 021c 5A60     		str	r2, [r3, #4]
 485:Generated_Source\PSoC6\pdl\drivers\peripheral\prot/cy_prot.c ****         base->ADDR0 = addrReg;
 1585              		.loc 1 485 0
 1586 021e 7B68     		ldr	r3, [r7, #4]
 1587 0220 3A69     		ldr	r2, [r7, #16]
 1588 0222 1A60     		str	r2, [r3]
 486:Generated_Source\PSoC6\pdl\drivers\peripheral\prot/cy_prot.c ****         status = ((base->ADDR0 != addrReg) || ((base->ATT0 & CY_PROT_SMPU_ATT0_MASK) != attReg))
 1589              		.loc 1 486 0
 1590 0224 7B68     		ldr	r3, [r7, #4]
 1591 0226 1A68     		ldr	r2, [r3]
 1592 0228 3B69     		ldr	r3, [r7, #16]
 1593 022a 9A42     		cmp	r2, r3
 1594 022c 06D1     		bne	.L106
 1595              		.loc 1 486 0 is_stmt 0 discriminator 2
 1596 022e 7B68     		ldr	r3, [r7, #4]
 1597 0230 5B68     		ldr	r3, [r3, #4]
 1598 0232 0A4A     		ldr	r2, .L110+12
 1599 0234 1A40     		ands	r2, r3
 1600 0236 FB68     		ldr	r3, [r7, #12]
 1601 0238 9A42     		cmp	r2, r3
 1602 023a 01D0     		beq	.L107
 1603              	.L106:
 1604              		.loc 1 486 0 discriminator 3
 1605 023c 084B     		ldr	r3, .L110+16
 1606 023e 00E0     		b	.L108
 1607              	.L107:
 1608              		.loc 1 486 0 discriminator 4
 1609 0240 0023     		movs	r3, #0
 1610              	.L108:
ARM GAS  C:\Users\salaz\AppData\Local\Temp\ccSSnxm1.s 			page 38


 1611              		.loc 1 486 0 discriminator 6
 1612 0242 7B61     		str	r3, [r7, #20]
 1613              	.L105:
 487:Generated_Source\PSoC6\pdl\drivers\peripheral\prot/cy_prot.c ****                     ? CY_PROT_FAILURE : CY_PROT_SUCCESS;
 488:Generated_Source\PSoC6\pdl\drivers\peripheral\prot/cy_prot.c ****     }
 489:Generated_Source\PSoC6\pdl\drivers\peripheral\prot/cy_prot.c ****     
 490:Generated_Source\PSoC6\pdl\drivers\peripheral\prot/cy_prot.c ****     return status;
 1614              		.loc 1 490 0 is_stmt 1
 1615 0244 7B69     		ldr	r3, [r7, #20]
 491:Generated_Source\PSoC6\pdl\drivers\peripheral\prot/cy_prot.c **** }
 1616              		.loc 1 491 0
 1617 0246 1800     		movs	r0, r3
 1618 0248 BD46     		mov	sp, r7
 1619 024a 06B0     		add	sp, sp, #24
 1620              		@ sp needed
 1621 024c 80BD     		pop	{r7, pc}
 1622              	.L111:
 1623 024e C046     		.align	2
 1624              	.L110:
 1625 0250 00000000 		.word	.LC0
 1626 0254 0100C200 		.word	12713985
 1627 0258 00FEFF00 		.word	16776704
 1628 025c FFFEFFFF 		.word	-257
 1629 0260 0300C200 		.word	12713987
 1630              		.cfi_endproc
 1631              	.LFE43:
 1632              		.size	Cy_Prot_ConfigSmpuSlaveStruct, .-Cy_Prot_ConfigSmpuSlaveStruct
 1633              		.section	.text.Cy_Prot_EnableSmpuMasterStruct,"ax",%progbits
 1634              		.align	2
 1635              		.global	Cy_Prot_EnableSmpuMasterStruct
 1636              		.code	16
 1637              		.thumb_func
 1638              		.type	Cy_Prot_EnableSmpuMasterStruct, %function
 1639              	Cy_Prot_EnableSmpuMasterStruct:
 1640              	.LFB44:
 492:Generated_Source\PSoC6\pdl\drivers\peripheral\prot/cy_prot.c **** 
 493:Generated_Source\PSoC6\pdl\drivers\peripheral\prot/cy_prot.c **** 
 494:Generated_Source\PSoC6\pdl\drivers\peripheral\prot/cy_prot.c **** /*******************************************************************************
 495:Generated_Source\PSoC6\pdl\drivers\peripheral\prot/cy_prot.c **** * Function Name: Cy_Prot_EnableSmpuMasterStruct
 496:Generated_Source\PSoC6\pdl\drivers\peripheral\prot/cy_prot.c **** ****************************************************************************//**
 497:Generated_Source\PSoC6\pdl\drivers\peripheral\prot/cy_prot.c **** *
 498:Generated_Source\PSoC6\pdl\drivers\peripheral\prot/cy_prot.c **** * \brief Enables the Master SMPU structure.
 499:Generated_Source\PSoC6\pdl\drivers\peripheral\prot/cy_prot.c **** *
 500:Generated_Source\PSoC6\pdl\drivers\peripheral\prot/cy_prot.c **** * This is an SMPU master struct enable function. The SMPU protection settings
 501:Generated_Source\PSoC6\pdl\drivers\peripheral\prot/cy_prot.c **** * will take effect after successful completion of this function call.
 502:Generated_Source\PSoC6\pdl\drivers\peripheral\prot/cy_prot.c **** *
 503:Generated_Source\PSoC6\pdl\drivers\peripheral\prot/cy_prot.c **** * \param base
 504:Generated_Source\PSoC6\pdl\drivers\peripheral\prot/cy_prot.c **** * The base address for the protection unit structure being configured. 
 505:Generated_Source\PSoC6\pdl\drivers\peripheral\prot/cy_prot.c **** *
 506:Generated_Source\PSoC6\pdl\drivers\peripheral\prot/cy_prot.c **** * \return
 507:Generated_Source\PSoC6\pdl\drivers\peripheral\prot/cy_prot.c **** * Status of the function call.
 508:Generated_Source\PSoC6\pdl\drivers\peripheral\prot/cy_prot.c **** *
 509:Generated_Source\PSoC6\pdl\drivers\peripheral\prot/cy_prot.c **** *   Status               | Description
 510:Generated_Source\PSoC6\pdl\drivers\peripheral\prot/cy_prot.c **** *   ------------         | -----------
 511:Generated_Source\PSoC6\pdl\drivers\peripheral\prot/cy_prot.c **** *   CY_PROT_SUCCESS      | The Master PU struct was enabled
 512:Generated_Source\PSoC6\pdl\drivers\peripheral\prot/cy_prot.c **** *   CY_PROT_FAILURE      | The Master PU struct is disabled and possibly locked
 513:Generated_Source\PSoC6\pdl\drivers\peripheral\prot/cy_prot.c **** *
ARM GAS  C:\Users\salaz\AppData\Local\Temp\ccSSnxm1.s 			page 39


 514:Generated_Source\PSoC6\pdl\drivers\peripheral\prot/cy_prot.c **** * \funcusage
 515:Generated_Source\PSoC6\pdl\drivers\peripheral\prot/cy_prot.c **** * \snippet prot/prot_v1_10_sut_01.cydsn/main_cm4.c snippet_Cy_Prot_EnableSmpuMasterStruct
 516:Generated_Source\PSoC6\pdl\drivers\peripheral\prot/cy_prot.c **** *
 517:Generated_Source\PSoC6\pdl\drivers\peripheral\prot/cy_prot.c **** *******************************************************************************/
 518:Generated_Source\PSoC6\pdl\drivers\peripheral\prot/cy_prot.c **** cy_en_prot_status_t Cy_Prot_EnableSmpuMasterStruct(PROT_SMPU_SMPU_STRUCT_Type* base)
 519:Generated_Source\PSoC6\pdl\drivers\peripheral\prot/cy_prot.c **** {
 1641              		.loc 1 519 0
 1642              		.cfi_startproc
 1643              		@ args = 0, pretend = 0, frame = 16
 1644              		@ frame_needed = 1, uses_anonymous_args = 0
 1645 0000 80B5     		push	{r7, lr}
 1646              		.cfi_def_cfa_offset 8
 1647              		.cfi_offset 7, -8
 1648              		.cfi_offset 14, -4
 1649 0002 84B0     		sub	sp, sp, #16
 1650              		.cfi_def_cfa_offset 24
 1651 0004 00AF     		add	r7, sp, #0
 1652              		.cfi_def_cfa_register 7
 1653 0006 7860     		str	r0, [r7, #4]
 520:Generated_Source\PSoC6\pdl\drivers\peripheral\prot/cy_prot.c ****     cy_en_prot_status_t status;
 521:Generated_Source\PSoC6\pdl\drivers\peripheral\prot/cy_prot.c ****     
 522:Generated_Source\PSoC6\pdl\drivers\peripheral\prot/cy_prot.c ****     base->ATT1 |= _VAL2FLD(PROT_SMPU_SMPU_STRUCT_ATT1_ENABLED, CY_PROT_STRUCT_ENABLE);
 1654              		.loc 1 522 0
 1655 0008 7B68     		ldr	r3, [r7, #4]
 1656 000a 5B6A     		ldr	r3, [r3, #36]
 1657 000c 8022     		movs	r2, #128
 1658 000e 1206     		lsls	r2, r2, #24
 1659 0010 1A43     		orrs	r2, r3
 1660 0012 7B68     		ldr	r3, [r7, #4]
 1661 0014 5A62     		str	r2, [r3, #36]
 523:Generated_Source\PSoC6\pdl\drivers\peripheral\prot/cy_prot.c ****     status = (_FLD2VAL(PROT_SMPU_SMPU_STRUCT_ATT1_ENABLED, base->ATT1) != CY_PROT_STRUCT_ENABLE) ?
 1662              		.loc 1 523 0
 1663 0016 7B68     		ldr	r3, [r7, #4]
 1664 0018 5B6A     		ldr	r3, [r3, #36]
 1665 001a DB0F     		lsrs	r3, r3, #31
 1666 001c DB07     		lsls	r3, r3, #31
 1667 001e DB0F     		lsrs	r3, r3, #31
 1668 0020 012B     		cmp	r3, #1
 1669 0022 01D0     		beq	.L113
 1670              		.loc 1 523 0 is_stmt 0 discriminator 1
 1671 0024 044B     		ldr	r3, .L116
 1672 0026 00E0     		b	.L114
 1673              	.L113:
 1674              		.loc 1 523 0 discriminator 2
 1675 0028 0023     		movs	r3, #0
 1676              	.L114:
 1677              		.loc 1 523 0 discriminator 4
 1678 002a FB60     		str	r3, [r7, #12]
 524:Generated_Source\PSoC6\pdl\drivers\peripheral\prot/cy_prot.c ****                 CY_PROT_FAILURE : CY_PROT_SUCCESS;
 525:Generated_Source\PSoC6\pdl\drivers\peripheral\prot/cy_prot.c ****     
 526:Generated_Source\PSoC6\pdl\drivers\peripheral\prot/cy_prot.c ****     return status;
 1679              		.loc 1 526 0 is_stmt 1 discriminator 4
 1680 002c FB68     		ldr	r3, [r7, #12]
 527:Generated_Source\PSoC6\pdl\drivers\peripheral\prot/cy_prot.c **** }
 1681              		.loc 1 527 0 discriminator 4
 1682 002e 1800     		movs	r0, r3
 1683 0030 BD46     		mov	sp, r7
ARM GAS  C:\Users\salaz\AppData\Local\Temp\ccSSnxm1.s 			page 40


 1684 0032 04B0     		add	sp, sp, #16
 1685              		@ sp needed
 1686 0034 80BD     		pop	{r7, pc}
 1687              	.L117:
 1688 0036 C046     		.align	2
 1689              	.L116:
 1690 0038 0300C200 		.word	12713987
 1691              		.cfi_endproc
 1692              	.LFE44:
 1693              		.size	Cy_Prot_EnableSmpuMasterStruct, .-Cy_Prot_EnableSmpuMasterStruct
 1694              		.section	.text.Cy_Prot_DisableSmpuMasterStruct,"ax",%progbits
 1695              		.align	2
 1696              		.global	Cy_Prot_DisableSmpuMasterStruct
 1697              		.code	16
 1698              		.thumb_func
 1699              		.type	Cy_Prot_DisableSmpuMasterStruct, %function
 1700              	Cy_Prot_DisableSmpuMasterStruct:
 1701              	.LFB45:
 528:Generated_Source\PSoC6\pdl\drivers\peripheral\prot/cy_prot.c **** 
 529:Generated_Source\PSoC6\pdl\drivers\peripheral\prot/cy_prot.c **** 
 530:Generated_Source\PSoC6\pdl\drivers\peripheral\prot/cy_prot.c **** /*******************************************************************************
 531:Generated_Source\PSoC6\pdl\drivers\peripheral\prot/cy_prot.c **** * Function Name: Cy_Prot_DisableSmpuMasterStruct
 532:Generated_Source\PSoC6\pdl\drivers\peripheral\prot/cy_prot.c **** ****************************************************************************//**
 533:Generated_Source\PSoC6\pdl\drivers\peripheral\prot/cy_prot.c **** *
 534:Generated_Source\PSoC6\pdl\drivers\peripheral\prot/cy_prot.c **** * \brief Disables the Master SMPU structure.
 535:Generated_Source\PSoC6\pdl\drivers\peripheral\prot/cy_prot.c **** *
 536:Generated_Source\PSoC6\pdl\drivers\peripheral\prot/cy_prot.c **** * This is an SMPU master struct disable function. The SMPU protection settings
 537:Generated_Source\PSoC6\pdl\drivers\peripheral\prot/cy_prot.c **** * will seize to take effect after successful completion of this function call.
 538:Generated_Source\PSoC6\pdl\drivers\peripheral\prot/cy_prot.c **** *
 539:Generated_Source\PSoC6\pdl\drivers\peripheral\prot/cy_prot.c **** * \param base
 540:Generated_Source\PSoC6\pdl\drivers\peripheral\prot/cy_prot.c **** * The base address for the protection unit structure being configured. 
 541:Generated_Source\PSoC6\pdl\drivers\peripheral\prot/cy_prot.c **** *
 542:Generated_Source\PSoC6\pdl\drivers\peripheral\prot/cy_prot.c **** * \return
 543:Generated_Source\PSoC6\pdl\drivers\peripheral\prot/cy_prot.c **** * Status of the function call.
 544:Generated_Source\PSoC6\pdl\drivers\peripheral\prot/cy_prot.c **** *
 545:Generated_Source\PSoC6\pdl\drivers\peripheral\prot/cy_prot.c **** *   Status               | Description
 546:Generated_Source\PSoC6\pdl\drivers\peripheral\prot/cy_prot.c **** *   ------------         | -----------
 547:Generated_Source\PSoC6\pdl\drivers\peripheral\prot/cy_prot.c **** *   CY_PROT_SUCCESS      | The Master PU struct was disabled
 548:Generated_Source\PSoC6\pdl\drivers\peripheral\prot/cy_prot.c **** *   CY_PROT_FAILURE      | The Master PU struct is enabled and possibly locked
 549:Generated_Source\PSoC6\pdl\drivers\peripheral\prot/cy_prot.c **** *
 550:Generated_Source\PSoC6\pdl\drivers\peripheral\prot/cy_prot.c **** * \funcusage
 551:Generated_Source\PSoC6\pdl\drivers\peripheral\prot/cy_prot.c **** * \snippet prot/prot_v1_10_sut_01.cydsn/main_cm4.c snippet_Cy_Prot_DisableSmpuMasterStruct
 552:Generated_Source\PSoC6\pdl\drivers\peripheral\prot/cy_prot.c **** *
 553:Generated_Source\PSoC6\pdl\drivers\peripheral\prot/cy_prot.c **** *******************************************************************************/
 554:Generated_Source\PSoC6\pdl\drivers\peripheral\prot/cy_prot.c **** cy_en_prot_status_t Cy_Prot_DisableSmpuMasterStruct(PROT_SMPU_SMPU_STRUCT_Type* base)
 555:Generated_Source\PSoC6\pdl\drivers\peripheral\prot/cy_prot.c **** {
 1702              		.loc 1 555 0
 1703              		.cfi_startproc
 1704              		@ args = 0, pretend = 0, frame = 16
 1705              		@ frame_needed = 1, uses_anonymous_args = 0
 1706 0000 80B5     		push	{r7, lr}
 1707              		.cfi_def_cfa_offset 8
 1708              		.cfi_offset 7, -8
 1709              		.cfi_offset 14, -4
 1710 0002 84B0     		sub	sp, sp, #16
 1711              		.cfi_def_cfa_offset 24
 1712 0004 00AF     		add	r7, sp, #0
ARM GAS  C:\Users\salaz\AppData\Local\Temp\ccSSnxm1.s 			page 41


 1713              		.cfi_def_cfa_register 7
 1714 0006 7860     		str	r0, [r7, #4]
 556:Generated_Source\PSoC6\pdl\drivers\peripheral\prot/cy_prot.c ****     cy_en_prot_status_t status;
 557:Generated_Source\PSoC6\pdl\drivers\peripheral\prot/cy_prot.c ****     
 558:Generated_Source\PSoC6\pdl\drivers\peripheral\prot/cy_prot.c ****     base->ATT1 &= ~_VAL2FLD(PROT_SMPU_SMPU_STRUCT_ATT1_ENABLED, CY_PROT_STRUCT_ENABLE);
 1715              		.loc 1 558 0
 1716 0008 7B68     		ldr	r3, [r7, #4]
 1717 000a 5B6A     		ldr	r3, [r3, #36]
 1718 000c 5B00     		lsls	r3, r3, #1
 1719 000e 5A08     		lsrs	r2, r3, #1
 1720 0010 7B68     		ldr	r3, [r7, #4]
 1721 0012 5A62     		str	r2, [r3, #36]
 559:Generated_Source\PSoC6\pdl\drivers\peripheral\prot/cy_prot.c ****     status = (_FLD2VAL(PROT_SMPU_SMPU_STRUCT_ATT1_ENABLED, base->ATT1) == CY_PROT_STRUCT_ENABLE) ?
 1722              		.loc 1 559 0
 1723 0014 7B68     		ldr	r3, [r7, #4]
 1724 0016 5B6A     		ldr	r3, [r3, #36]
 1725 0018 DB0F     		lsrs	r3, r3, #31
 1726 001a DB07     		lsls	r3, r3, #31
 1727 001c DB0F     		lsrs	r3, r3, #31
 1728 001e 012B     		cmp	r3, #1
 1729 0020 01D1     		bne	.L119
 1730              		.loc 1 559 0 is_stmt 0 discriminator 1
 1731 0022 044B     		ldr	r3, .L122
 1732 0024 00E0     		b	.L120
 1733              	.L119:
 1734              		.loc 1 559 0 discriminator 2
 1735 0026 0023     		movs	r3, #0
 1736              	.L120:
 1737              		.loc 1 559 0 discriminator 4
 1738 0028 FB60     		str	r3, [r7, #12]
 560:Generated_Source\PSoC6\pdl\drivers\peripheral\prot/cy_prot.c ****                 CY_PROT_FAILURE : CY_PROT_SUCCESS;
 561:Generated_Source\PSoC6\pdl\drivers\peripheral\prot/cy_prot.c ****     
 562:Generated_Source\PSoC6\pdl\drivers\peripheral\prot/cy_prot.c ****     return status;
 1739              		.loc 1 562 0 is_stmt 1 discriminator 4
 1740 002a FB68     		ldr	r3, [r7, #12]
 563:Generated_Source\PSoC6\pdl\drivers\peripheral\prot/cy_prot.c **** }
 1741              		.loc 1 563 0 discriminator 4
 1742 002c 1800     		movs	r0, r3
 1743 002e BD46     		mov	sp, r7
 1744 0030 04B0     		add	sp, sp, #16
 1745              		@ sp needed
 1746 0032 80BD     		pop	{r7, pc}
 1747              	.L123:
 1748              		.align	2
 1749              	.L122:
 1750 0034 0300C200 		.word	12713987
 1751              		.cfi_endproc
 1752              	.LFE45:
 1753              		.size	Cy_Prot_DisableSmpuMasterStruct, .-Cy_Prot_DisableSmpuMasterStruct
 1754              		.section	.text.Cy_Prot_EnableSmpuSlaveStruct,"ax",%progbits
 1755              		.align	2
 1756              		.global	Cy_Prot_EnableSmpuSlaveStruct
 1757              		.code	16
 1758              		.thumb_func
 1759              		.type	Cy_Prot_EnableSmpuSlaveStruct, %function
 1760              	Cy_Prot_EnableSmpuSlaveStruct:
 1761              	.LFB46:
ARM GAS  C:\Users\salaz\AppData\Local\Temp\ccSSnxm1.s 			page 42


 564:Generated_Source\PSoC6\pdl\drivers\peripheral\prot/cy_prot.c **** 
 565:Generated_Source\PSoC6\pdl\drivers\peripheral\prot/cy_prot.c **** 
 566:Generated_Source\PSoC6\pdl\drivers\peripheral\prot/cy_prot.c **** /*******************************************************************************
 567:Generated_Source\PSoC6\pdl\drivers\peripheral\prot/cy_prot.c **** * Function Name: Cy_Prot_EnableSmpuSlaveStruct
 568:Generated_Source\PSoC6\pdl\drivers\peripheral\prot/cy_prot.c **** ****************************************************************************//**
 569:Generated_Source\PSoC6\pdl\drivers\peripheral\prot/cy_prot.c **** *
 570:Generated_Source\PSoC6\pdl\drivers\peripheral\prot/cy_prot.c **** * \brief Enables the Slave SMPU structure.
 571:Generated_Source\PSoC6\pdl\drivers\peripheral\prot/cy_prot.c **** *
 572:Generated_Source\PSoC6\pdl\drivers\peripheral\prot/cy_prot.c **** * This is an SMPU slave struct enable function. The SMPU protection settings
 573:Generated_Source\PSoC6\pdl\drivers\peripheral\prot/cy_prot.c **** * will take effect after successful completion of this function call.
 574:Generated_Source\PSoC6\pdl\drivers\peripheral\prot/cy_prot.c **** *
 575:Generated_Source\PSoC6\pdl\drivers\peripheral\prot/cy_prot.c **** * \param base
 576:Generated_Source\PSoC6\pdl\drivers\peripheral\prot/cy_prot.c **** * The base address for the protection unit structure being configured. 
 577:Generated_Source\PSoC6\pdl\drivers\peripheral\prot/cy_prot.c **** *
 578:Generated_Source\PSoC6\pdl\drivers\peripheral\prot/cy_prot.c **** * \return
 579:Generated_Source\PSoC6\pdl\drivers\peripheral\prot/cy_prot.c **** * Status of the function call.
 580:Generated_Source\PSoC6\pdl\drivers\peripheral\prot/cy_prot.c **** *
 581:Generated_Source\PSoC6\pdl\drivers\peripheral\prot/cy_prot.c **** *   Status               | Description
 582:Generated_Source\PSoC6\pdl\drivers\peripheral\prot/cy_prot.c **** *   ------------         | -----------
 583:Generated_Source\PSoC6\pdl\drivers\peripheral\prot/cy_prot.c **** *   CY_PROT_SUCCESS      | The Slave PU struct was enabled
 584:Generated_Source\PSoC6\pdl\drivers\peripheral\prot/cy_prot.c **** *   CY_PROT_FAILURE      | The Slave PU struct is disabled and possibly locked
 585:Generated_Source\PSoC6\pdl\drivers\peripheral\prot/cy_prot.c **** *
 586:Generated_Source\PSoC6\pdl\drivers\peripheral\prot/cy_prot.c **** * \funcusage
 587:Generated_Source\PSoC6\pdl\drivers\peripheral\prot/cy_prot.c **** * \snippet prot/prot_v1_10_sut_01.cydsn/main_cm4.c snippet_Cy_Prot_EnableSmpuSlaveStruct
 588:Generated_Source\PSoC6\pdl\drivers\peripheral\prot/cy_prot.c **** *
 589:Generated_Source\PSoC6\pdl\drivers\peripheral\prot/cy_prot.c **** *******************************************************************************/
 590:Generated_Source\PSoC6\pdl\drivers\peripheral\prot/cy_prot.c **** cy_en_prot_status_t Cy_Prot_EnableSmpuSlaveStruct(PROT_SMPU_SMPU_STRUCT_Type* base)
 591:Generated_Source\PSoC6\pdl\drivers\peripheral\prot/cy_prot.c **** {   
 1762              		.loc 1 591 0
 1763              		.cfi_startproc
 1764              		@ args = 0, pretend = 0, frame = 16
 1765              		@ frame_needed = 1, uses_anonymous_args = 0
 1766 0000 80B5     		push	{r7, lr}
 1767              		.cfi_def_cfa_offset 8
 1768              		.cfi_offset 7, -8
 1769              		.cfi_offset 14, -4
 1770 0002 84B0     		sub	sp, sp, #16
 1771              		.cfi_def_cfa_offset 24
 1772 0004 00AF     		add	r7, sp, #0
 1773              		.cfi_def_cfa_register 7
 1774 0006 7860     		str	r0, [r7, #4]
 592:Generated_Source\PSoC6\pdl\drivers\peripheral\prot/cy_prot.c ****     cy_en_prot_status_t status;
 593:Generated_Source\PSoC6\pdl\drivers\peripheral\prot/cy_prot.c ****     
 594:Generated_Source\PSoC6\pdl\drivers\peripheral\prot/cy_prot.c ****     base->ATT0 |= _VAL2FLD(PROT_SMPU_SMPU_STRUCT_ATT0_ENABLED, CY_PROT_STRUCT_ENABLE);
 1775              		.loc 1 594 0
 1776 0008 7B68     		ldr	r3, [r7, #4]
 1777 000a 5B68     		ldr	r3, [r3, #4]
 1778 000c 8022     		movs	r2, #128
 1779 000e 1206     		lsls	r2, r2, #24
 1780 0010 1A43     		orrs	r2, r3
 1781 0012 7B68     		ldr	r3, [r7, #4]
 1782 0014 5A60     		str	r2, [r3, #4]
 595:Generated_Source\PSoC6\pdl\drivers\peripheral\prot/cy_prot.c ****     status = (_FLD2VAL(PROT_SMPU_SMPU_STRUCT_ATT0_ENABLED, base->ATT0) != CY_PROT_STRUCT_ENABLE) ?
 1783              		.loc 1 595 0
 1784 0016 7B68     		ldr	r3, [r7, #4]
 1785 0018 5B68     		ldr	r3, [r3, #4]
 1786 001a DB0F     		lsrs	r3, r3, #31
ARM GAS  C:\Users\salaz\AppData\Local\Temp\ccSSnxm1.s 			page 43


 1787 001c DB07     		lsls	r3, r3, #31
 1788 001e DB0F     		lsrs	r3, r3, #31
 1789 0020 012B     		cmp	r3, #1
 1790 0022 01D0     		beq	.L125
 1791              		.loc 1 595 0 is_stmt 0 discriminator 1
 1792 0024 044B     		ldr	r3, .L128
 1793 0026 00E0     		b	.L126
 1794              	.L125:
 1795              		.loc 1 595 0 discriminator 2
 1796 0028 0023     		movs	r3, #0
 1797              	.L126:
 1798              		.loc 1 595 0 discriminator 4
 1799 002a FB60     		str	r3, [r7, #12]
 596:Generated_Source\PSoC6\pdl\drivers\peripheral\prot/cy_prot.c ****                 CY_PROT_FAILURE : CY_PROT_SUCCESS;
 597:Generated_Source\PSoC6\pdl\drivers\peripheral\prot/cy_prot.c ****     
 598:Generated_Source\PSoC6\pdl\drivers\peripheral\prot/cy_prot.c ****     return status;
 1800              		.loc 1 598 0 is_stmt 1 discriminator 4
 1801 002c FB68     		ldr	r3, [r7, #12]
 599:Generated_Source\PSoC6\pdl\drivers\peripheral\prot/cy_prot.c **** }
 1802              		.loc 1 599 0 discriminator 4
 1803 002e 1800     		movs	r0, r3
 1804 0030 BD46     		mov	sp, r7
 1805 0032 04B0     		add	sp, sp, #16
 1806              		@ sp needed
 1807 0034 80BD     		pop	{r7, pc}
 1808              	.L129:
 1809 0036 C046     		.align	2
 1810              	.L128:
 1811 0038 0300C200 		.word	12713987
 1812              		.cfi_endproc
 1813              	.LFE46:
 1814              		.size	Cy_Prot_EnableSmpuSlaveStruct, .-Cy_Prot_EnableSmpuSlaveStruct
 1815              		.section	.text.Cy_Prot_DisableSmpuSlaveStruct,"ax",%progbits
 1816              		.align	2
 1817              		.global	Cy_Prot_DisableSmpuSlaveStruct
 1818              		.code	16
 1819              		.thumb_func
 1820              		.type	Cy_Prot_DisableSmpuSlaveStruct, %function
 1821              	Cy_Prot_DisableSmpuSlaveStruct:
 1822              	.LFB47:
 600:Generated_Source\PSoC6\pdl\drivers\peripheral\prot/cy_prot.c **** 
 601:Generated_Source\PSoC6\pdl\drivers\peripheral\prot/cy_prot.c **** 
 602:Generated_Source\PSoC6\pdl\drivers\peripheral\prot/cy_prot.c **** /*******************************************************************************
 603:Generated_Source\PSoC6\pdl\drivers\peripheral\prot/cy_prot.c **** * Function Name: Cy_Prot_DisableSmpuSlaveStruct
 604:Generated_Source\PSoC6\pdl\drivers\peripheral\prot/cy_prot.c **** ****************************************************************************//**
 605:Generated_Source\PSoC6\pdl\drivers\peripheral\prot/cy_prot.c **** *
 606:Generated_Source\PSoC6\pdl\drivers\peripheral\prot/cy_prot.c **** * \brief Disables the Slave SMPU structure.
 607:Generated_Source\PSoC6\pdl\drivers\peripheral\prot/cy_prot.c **** *
 608:Generated_Source\PSoC6\pdl\drivers\peripheral\prot/cy_prot.c **** * This is an SMPU slave struct disable function. The SMPU protection settings
 609:Generated_Source\PSoC6\pdl\drivers\peripheral\prot/cy_prot.c **** * will seize to take effect after successful completion of this function call.
 610:Generated_Source\PSoC6\pdl\drivers\peripheral\prot/cy_prot.c **** *
 611:Generated_Source\PSoC6\pdl\drivers\peripheral\prot/cy_prot.c **** * \param base
 612:Generated_Source\PSoC6\pdl\drivers\peripheral\prot/cy_prot.c **** * The base address for the protection unit structure being configured. 
 613:Generated_Source\PSoC6\pdl\drivers\peripheral\prot/cy_prot.c **** *
 614:Generated_Source\PSoC6\pdl\drivers\peripheral\prot/cy_prot.c **** * \return
 615:Generated_Source\PSoC6\pdl\drivers\peripheral\prot/cy_prot.c **** * Status of the function call.
 616:Generated_Source\PSoC6\pdl\drivers\peripheral\prot/cy_prot.c **** *
ARM GAS  C:\Users\salaz\AppData\Local\Temp\ccSSnxm1.s 			page 44


 617:Generated_Source\PSoC6\pdl\drivers\peripheral\prot/cy_prot.c **** *   Status               | Description
 618:Generated_Source\PSoC6\pdl\drivers\peripheral\prot/cy_prot.c **** *   ------------         | -----------
 619:Generated_Source\PSoC6\pdl\drivers\peripheral\prot/cy_prot.c **** *   CY_PROT_SUCCESS      | The Slave PU struct was disabled
 620:Generated_Source\PSoC6\pdl\drivers\peripheral\prot/cy_prot.c **** *   CY_PROT_FAILURE      | The Slave PU struct is enabled and possibly locked
 621:Generated_Source\PSoC6\pdl\drivers\peripheral\prot/cy_prot.c **** *
 622:Generated_Source\PSoC6\pdl\drivers\peripheral\prot/cy_prot.c **** * \funcusage
 623:Generated_Source\PSoC6\pdl\drivers\peripheral\prot/cy_prot.c **** * \snippet prot/prot_v1_10_sut_01.cydsn/main_cm4.c snippet_Cy_Prot_DisableSmpuSlaveStruct
 624:Generated_Source\PSoC6\pdl\drivers\peripheral\prot/cy_prot.c **** *
 625:Generated_Source\PSoC6\pdl\drivers\peripheral\prot/cy_prot.c **** *******************************************************************************/
 626:Generated_Source\PSoC6\pdl\drivers\peripheral\prot/cy_prot.c **** cy_en_prot_status_t Cy_Prot_DisableSmpuSlaveStruct(PROT_SMPU_SMPU_STRUCT_Type* base)
 627:Generated_Source\PSoC6\pdl\drivers\peripheral\prot/cy_prot.c **** {
 1823              		.loc 1 627 0
 1824              		.cfi_startproc
 1825              		@ args = 0, pretend = 0, frame = 16
 1826              		@ frame_needed = 1, uses_anonymous_args = 0
 1827 0000 80B5     		push	{r7, lr}
 1828              		.cfi_def_cfa_offset 8
 1829              		.cfi_offset 7, -8
 1830              		.cfi_offset 14, -4
 1831 0002 84B0     		sub	sp, sp, #16
 1832              		.cfi_def_cfa_offset 24
 1833 0004 00AF     		add	r7, sp, #0
 1834              		.cfi_def_cfa_register 7
 1835 0006 7860     		str	r0, [r7, #4]
 628:Generated_Source\PSoC6\pdl\drivers\peripheral\prot/cy_prot.c ****     cy_en_prot_status_t status;
 629:Generated_Source\PSoC6\pdl\drivers\peripheral\prot/cy_prot.c ****     
 630:Generated_Source\PSoC6\pdl\drivers\peripheral\prot/cy_prot.c ****     base->ATT0 &= ~_VAL2FLD(PROT_SMPU_SMPU_STRUCT_ATT0_ENABLED, CY_PROT_STRUCT_ENABLE);
 1836              		.loc 1 630 0
 1837 0008 7B68     		ldr	r3, [r7, #4]
 1838 000a 5B68     		ldr	r3, [r3, #4]
 1839 000c 5B00     		lsls	r3, r3, #1
 1840 000e 5A08     		lsrs	r2, r3, #1
 1841 0010 7B68     		ldr	r3, [r7, #4]
 1842 0012 5A60     		str	r2, [r3, #4]
 631:Generated_Source\PSoC6\pdl\drivers\peripheral\prot/cy_prot.c ****     status = (_FLD2VAL(PROT_SMPU_SMPU_STRUCT_ATT0_ENABLED, base->ATT0) == CY_PROT_STRUCT_ENABLE) ?
 1843              		.loc 1 631 0
 1844 0014 7B68     		ldr	r3, [r7, #4]
 1845 0016 5B68     		ldr	r3, [r3, #4]
 1846 0018 DB0F     		lsrs	r3, r3, #31
 1847 001a DB07     		lsls	r3, r3, #31
 1848 001c DB0F     		lsrs	r3, r3, #31
 1849 001e 012B     		cmp	r3, #1
 1850 0020 01D1     		bne	.L131
 1851              		.loc 1 631 0 is_stmt 0 discriminator 1
 1852 0022 044B     		ldr	r3, .L134
 1853 0024 00E0     		b	.L132
 1854              	.L131:
 1855              		.loc 1 631 0 discriminator 2
 1856 0026 0023     		movs	r3, #0
 1857              	.L132:
 1858              		.loc 1 631 0 discriminator 4
 1859 0028 FB60     		str	r3, [r7, #12]
 632:Generated_Source\PSoC6\pdl\drivers\peripheral\prot/cy_prot.c ****                 CY_PROT_FAILURE : CY_PROT_SUCCESS;
 633:Generated_Source\PSoC6\pdl\drivers\peripheral\prot/cy_prot.c ****     
 634:Generated_Source\PSoC6\pdl\drivers\peripheral\prot/cy_prot.c ****     return status;
 1860              		.loc 1 634 0 is_stmt 1 discriminator 4
 1861 002a FB68     		ldr	r3, [r7, #12]
ARM GAS  C:\Users\salaz\AppData\Local\Temp\ccSSnxm1.s 			page 45


 635:Generated_Source\PSoC6\pdl\drivers\peripheral\prot/cy_prot.c **** }
 1862              		.loc 1 635 0 discriminator 4
 1863 002c 1800     		movs	r0, r3
 1864 002e BD46     		mov	sp, r7
 1865 0030 04B0     		add	sp, sp, #16
 1866              		@ sp needed
 1867 0032 80BD     		pop	{r7, pc}
 1868              	.L135:
 1869              		.align	2
 1870              	.L134:
 1871 0034 0300C200 		.word	12713987
 1872              		.cfi_endproc
 1873              	.LFE47:
 1874              		.size	Cy_Prot_DisableSmpuSlaveStruct, .-Cy_Prot_DisableSmpuSlaveStruct
 1875              		.section	.text.Cy_Prot_ConfigPpuProgMasterStruct,"ax",%progbits
 1876              		.align	2
 1877              		.global	Cy_Prot_ConfigPpuProgMasterStruct
 1878              		.code	16
 1879              		.thumb_func
 1880              		.type	Cy_Prot_ConfigPpuProgMasterStruct, %function
 1881              	Cy_Prot_ConfigPpuProgMasterStruct:
 1882              	.LFB48:
 636:Generated_Source\PSoC6\pdl\drivers\peripheral\prot/cy_prot.c **** 
 637:Generated_Source\PSoC6\pdl\drivers\peripheral\prot/cy_prot.c **** 
 638:Generated_Source\PSoC6\pdl\drivers\peripheral\prot/cy_prot.c **** /*******************************************************************************
 639:Generated_Source\PSoC6\pdl\drivers\peripheral\prot/cy_prot.c **** * Function Name: Cy_Prot_ConfigPpuProgMasterStruct
 640:Generated_Source\PSoC6\pdl\drivers\peripheral\prot/cy_prot.c **** ****************************************************************************//**
 641:Generated_Source\PSoC6\pdl\drivers\peripheral\prot/cy_prot.c **** *
 642:Generated_Source\PSoC6\pdl\drivers\peripheral\prot/cy_prot.c **** * \brief Configures a Programmable Peripheral Protection Unit (PPU PROG) master 
 643:Generated_Source\PSoC6\pdl\drivers\peripheral\prot/cy_prot.c **** * protection struct with its protection attributes. 
 644:Generated_Source\PSoC6\pdl\drivers\peripheral\prot/cy_prot.c **** *
 645:Generated_Source\PSoC6\pdl\drivers\peripheral\prot/cy_prot.c **** * This function configures the master struct governing the corresponding slave
 646:Generated_Source\PSoC6\pdl\drivers\peripheral\prot/cy_prot.c **** * struct pair. It is a mechanism to protect the slave PPU PROG struct. Since
 647:Generated_Source\PSoC6\pdl\drivers\peripheral\prot/cy_prot.c **** * the memory location of the slave struct is known, the address, regionSize and
 648:Generated_Source\PSoC6\pdl\drivers\peripheral\prot/cy_prot.c **** * subregions of the configuration struct are not applicable.
 649:Generated_Source\PSoC6\pdl\drivers\peripheral\prot/cy_prot.c **** *
 650:Generated_Source\PSoC6\pdl\drivers\peripheral\prot/cy_prot.c **** * Note that only the user/privileged write permissions are configurable. The 
 651:Generated_Source\PSoC6\pdl\drivers\peripheral\prot/cy_prot.c **** * read and execute permissions are read-only and cannot be configured.
 652:Generated_Source\PSoC6\pdl\drivers\peripheral\prot/cy_prot.c **** *
 653:Generated_Source\PSoC6\pdl\drivers\peripheral\prot/cy_prot.c **** * \param base
 654:Generated_Source\PSoC6\pdl\drivers\peripheral\prot/cy_prot.c **** * The register base address of the protection struct being configured.
 655:Generated_Source\PSoC6\pdl\drivers\peripheral\prot/cy_prot.c **** * 
 656:Generated_Source\PSoC6\pdl\drivers\peripheral\prot/cy_prot.c **** * \param config
 657:Generated_Source\PSoC6\pdl\drivers\peripheral\prot/cy_prot.c **** * Initialization structure with all the protection attributes.
 658:Generated_Source\PSoC6\pdl\drivers\peripheral\prot/cy_prot.c **** * 
 659:Generated_Source\PSoC6\pdl\drivers\peripheral\prot/cy_prot.c **** * \return
 660:Generated_Source\PSoC6\pdl\drivers\peripheral\prot/cy_prot.c **** * Status of the function call.
 661:Generated_Source\PSoC6\pdl\drivers\peripheral\prot/cy_prot.c **** *
 662:Generated_Source\PSoC6\pdl\drivers\peripheral\prot/cy_prot.c **** *   Status               | Description
 663:Generated_Source\PSoC6\pdl\drivers\peripheral\prot/cy_prot.c **** *   ------------         | -----------
 664:Generated_Source\PSoC6\pdl\drivers\peripheral\prot/cy_prot.c **** *   CY_PROT_SUCCESS      | PPU PROG master struct was successfully configured
 665:Generated_Source\PSoC6\pdl\drivers\peripheral\prot/cy_prot.c **** *   CY_PROT_FAILURE      | The resource is locked
 666:Generated_Source\PSoC6\pdl\drivers\peripheral\prot/cy_prot.c **** *   CY_PROT_BAD_PARAM    | An incorrect/invalid parameter was passed
 667:Generated_Source\PSoC6\pdl\drivers\peripheral\prot/cy_prot.c **** *
 668:Generated_Source\PSoC6\pdl\drivers\peripheral\prot/cy_prot.c **** * \funcusage
 669:Generated_Source\PSoC6\pdl\drivers\peripheral\prot/cy_prot.c **** * \snippet prot/prot_v1_10_sut_01.cydsn/main_cm4.c snippet_Cy_Prot_ConfigPpuProgMasterStruct
 670:Generated_Source\PSoC6\pdl\drivers\peripheral\prot/cy_prot.c **** *
ARM GAS  C:\Users\salaz\AppData\Local\Temp\ccSSnxm1.s 			page 46


 671:Generated_Source\PSoC6\pdl\drivers\peripheral\prot/cy_prot.c **** *******************************************************************************/
 672:Generated_Source\PSoC6\pdl\drivers\peripheral\prot/cy_prot.c **** cy_en_prot_status_t Cy_Prot_ConfigPpuProgMasterStruct(PERI_PPU_PR_Type* base, const cy_stc_ppu_prog
 673:Generated_Source\PSoC6\pdl\drivers\peripheral\prot/cy_prot.c **** {
 1883              		.loc 1 673 0
 1884              		.cfi_startproc
 1885              		@ args = 0, pretend = 0, frame = 16
 1886              		@ frame_needed = 1, uses_anonymous_args = 0
 1887 0000 80B5     		push	{r7, lr}
 1888              		.cfi_def_cfa_offset 8
 1889              		.cfi_offset 7, -8
 1890              		.cfi_offset 14, -4
 1891 0002 84B0     		sub	sp, sp, #16
 1892              		.cfi_def_cfa_offset 24
 1893 0004 00AF     		add	r7, sp, #0
 1894              		.cfi_def_cfa_register 7
 1895 0006 7860     		str	r0, [r7, #4]
 1896 0008 3960     		str	r1, [r7]
 674:Generated_Source\PSoC6\pdl\drivers\peripheral\prot/cy_prot.c ****     cy_en_prot_status_t status;
 675:Generated_Source\PSoC6\pdl\drivers\peripheral\prot/cy_prot.c ****     uint32_t attReg;
 676:Generated_Source\PSoC6\pdl\drivers\peripheral\prot/cy_prot.c ****     
 677:Generated_Source\PSoC6\pdl\drivers\peripheral\prot/cy_prot.c ****     CY_ASSERT_L1(NULL != base);
 1897              		.loc 1 677 0
 1898 000a 7B68     		ldr	r3, [r7, #4]
 1899 000c 002B     		cmp	r3, #0
 1900 000e 05D1     		bne	.L137
 1901              		.loc 1 677 0 is_stmt 0 discriminator 1
 1902 0010 344A     		ldr	r2, .L146
 1903 0012 354B     		ldr	r3, .L146+4
 1904 0014 1100     		movs	r1, r2
 1905 0016 1800     		movs	r0, r3
 1906 0018 FFF7FEFF 		bl	Cy_SysLib_AssertFailed
 1907              	.L137:
 678:Generated_Source\PSoC6\pdl\drivers\peripheral\prot/cy_prot.c ****     CY_ASSERT_L3(CY_PROT_IS_PROG_MS_PERM_VALID(config->userPermission));
 1908              		.loc 1 678 0 is_stmt 1
 1909 001c 3B68     		ldr	r3, [r7]
 1910 001e 9B79     		ldrb	r3, [r3, #6]
 1911 0020 012B     		cmp	r3, #1
 1912 0022 09D0     		beq	.L138
 1913              		.loc 1 678 0 is_stmt 0 discriminator 1
 1914 0024 3B68     		ldr	r3, [r7]
 1915 0026 9B79     		ldrb	r3, [r3, #6]
 1916 0028 032B     		cmp	r3, #3
 1917 002a 05D0     		beq	.L138
 1918              		.loc 1 678 0 discriminator 2
 1919 002c 2F4A     		ldr	r2, .L146+8
 1920 002e 2E4B     		ldr	r3, .L146+4
 1921 0030 1100     		movs	r1, r2
 1922 0032 1800     		movs	r0, r3
 1923 0034 FFF7FEFF 		bl	Cy_SysLib_AssertFailed
 1924              	.L138:
 679:Generated_Source\PSoC6\pdl\drivers\peripheral\prot/cy_prot.c ****     CY_ASSERT_L3(CY_PROT_IS_PROG_MS_PERM_VALID(config->privPermission));
 1925              		.loc 1 679 0 is_stmt 1
 1926 0038 3B68     		ldr	r3, [r7]
 1927 003a DB79     		ldrb	r3, [r3, #7]
 1928 003c 012B     		cmp	r3, #1
 1929 003e 09D0     		beq	.L139
 1930              		.loc 1 679 0 is_stmt 0 discriminator 1
ARM GAS  C:\Users\salaz\AppData\Local\Temp\ccSSnxm1.s 			page 47


 1931 0040 3B68     		ldr	r3, [r7]
 1932 0042 DB79     		ldrb	r3, [r3, #7]
 1933 0044 032B     		cmp	r3, #3
 1934 0046 05D0     		beq	.L139
 1935              		.loc 1 679 0 discriminator 2
 1936 0048 294A     		ldr	r2, .L146+12
 1937 004a 274B     		ldr	r3, .L146+4
 1938 004c 1100     		movs	r1, r2
 1939 004e 1800     		movs	r0, r3
 1940 0050 FFF7FEFF 		bl	Cy_SysLib_AssertFailed
 1941              	.L139:
 680:Generated_Source\PSoC6\pdl\drivers\peripheral\prot/cy_prot.c ****     
 681:Generated_Source\PSoC6\pdl\drivers\peripheral\prot/cy_prot.c ****     if(((uint32_t)config->pcMask & CY_PROT_PPU_PROG_PC_LIMIT_MASK) != 0UL) 
 1942              		.loc 1 681 0 is_stmt 1
 1943 0054 3B68     		ldr	r3, [r7]
 1944 0056 5B89     		ldrh	r3, [r3, #10]
 1945 0058 1A00     		movs	r2, r3
 1946 005a 7F23     		movs	r3, #127
 1947 005c 9A43     		bics	r2, r3
 1948 005e 131E     		subs	r3, r2, #0
 1949 0060 02D0     		beq	.L140
 682:Generated_Source\PSoC6\pdl\drivers\peripheral\prot/cy_prot.c ****     {
 683:Generated_Source\PSoC6\pdl\drivers\peripheral\prot/cy_prot.c ****         /* PC mask out of range - not supported in device */
 684:Generated_Source\PSoC6\pdl\drivers\peripheral\prot/cy_prot.c ****         status = CY_PROT_BAD_PARAM;
 1950              		.loc 1 684 0
 1951 0062 244B     		ldr	r3, .L146+16
 1952 0064 FB60     		str	r3, [r7, #12]
 1953 0066 38E0     		b	.L141
 1954              	.L140:
 685:Generated_Source\PSoC6\pdl\drivers\peripheral\prot/cy_prot.c ****     }
 686:Generated_Source\PSoC6\pdl\drivers\peripheral\prot/cy_prot.c ****     else
 687:Generated_Source\PSoC6\pdl\drivers\peripheral\prot/cy_prot.c ****     {
 688:Generated_Source\PSoC6\pdl\drivers\peripheral\prot/cy_prot.c ****         /* ADDR1 is read only. Only configure ATT1 */
 689:Generated_Source\PSoC6\pdl\drivers\peripheral\prot/cy_prot.c ****         attReg = ((uint32_t)config->userPermission & CY_PROT_ATT_PERMISSION_MASK)
 1955              		.loc 1 689 0
 1956 0068 3B68     		ldr	r3, [r7]
 1957 006a 9B79     		ldrb	r3, [r3, #6]
 1958 006c 1A00     		movs	r2, r3
 1959 006e 0723     		movs	r3, #7
 1960 0070 1A40     		ands	r2, r3
 690:Generated_Source\PSoC6\pdl\drivers\peripheral\prot/cy_prot.c ****                     | (uint32_t)(((uint32_t)config->privPermission & CY_PROT_ATT_PERMISSION_MASK) <
 1961              		.loc 1 690 0
 1962 0072 3B68     		ldr	r3, [r7]
 1963 0074 DB79     		ldrb	r3, [r3, #7]
 1964 0076 DB00     		lsls	r3, r3, #3
 1965 0078 3821     		movs	r1, #56
 1966 007a 0B40     		ands	r3, r1
 1967 007c 1A43     		orrs	r2, r3
 691:Generated_Source\PSoC6\pdl\drivers\peripheral\prot/cy_prot.c ****                     | _VAL2FLD(PERI_PPU_PR_ATT1_NS, !(config->secure))
 1968              		.loc 1 691 0
 1969 007e 3B68     		ldr	r3, [r7]
 1970 0080 1B7A     		ldrb	r3, [r3, #8]
 1971 0082 0121     		movs	r1, #1
 1972 0084 4B40     		eors	r3, r1
 1973 0086 DBB2     		uxtb	r3, r3
 1974 0088 9B01     		lsls	r3, r3, #6
 1975 008a 4021     		movs	r1, #64
ARM GAS  C:\Users\salaz\AppData\Local\Temp\ccSSnxm1.s 			page 48


 1976 008c 0B40     		ands	r3, r1
 1977 008e 1A43     		orrs	r2, r3
 692:Generated_Source\PSoC6\pdl\drivers\peripheral\prot/cy_prot.c ****                     | _VAL2FLD(PERI_PPU_PR_ATT1_PC_MASK_15_TO_1, config->pcMask)
 1978              		.loc 1 692 0
 1979 0090 3B68     		ldr	r3, [r7]
 1980 0092 5B89     		ldrh	r3, [r3, #10]
 1981 0094 5B02     		lsls	r3, r3, #9
 1982 0096 1849     		ldr	r1, .L146+20
 1983 0098 0B40     		ands	r3, r1
 1984 009a 1A43     		orrs	r2, r3
 693:Generated_Source\PSoC6\pdl\drivers\peripheral\prot/cy_prot.c ****                     /* No region size - read only for master structs */
 694:Generated_Source\PSoC6\pdl\drivers\peripheral\prot/cy_prot.c ****                     | _VAL2FLD(PERI_PPU_PR_ATT1_PC_MATCH, config->pcMatch);
 1985              		.loc 1 694 0
 1986 009c 3B68     		ldr	r3, [r7]
 1987 009e 5B7A     		ldrb	r3, [r3, #9]
 1988 00a0 9907     		lsls	r1, r3, #30
 1989 00a2 8023     		movs	r3, #128
 1990 00a4 DB05     		lsls	r3, r3, #23
 1991 00a6 0B40     		ands	r3, r1
 689:Generated_Source\PSoC6\pdl\drivers\peripheral\prot/cy_prot.c ****                     | (uint32_t)(((uint32_t)config->privPermission & CY_PROT_ATT_PERMISSION_MASK) <
 1992              		.loc 1 689 0
 1993 00a8 1343     		orrs	r3, r2
 1994 00aa BB60     		str	r3, [r7, #8]
 695:Generated_Source\PSoC6\pdl\drivers\peripheral\prot/cy_prot.c ****         if ((attReg & CY_PROT_PPU_PROG_ATT1_MASK) != attReg)
 1995              		.loc 1 695 0
 1996 00ac BB68     		ldr	r3, [r7, #8]
 1997 00ae 134A     		ldr	r2, .L146+24
 1998 00b0 1A40     		ands	r2, r3
 1999 00b2 BB68     		ldr	r3, [r7, #8]
 2000 00b4 9A42     		cmp	r2, r3
 2001 00b6 02D0     		beq	.L142
 696:Generated_Source\PSoC6\pdl\drivers\peripheral\prot/cy_prot.c ****         {
 697:Generated_Source\PSoC6\pdl\drivers\peripheral\prot/cy_prot.c ****             /* Invalid parameter was passed */
 698:Generated_Source\PSoC6\pdl\drivers\peripheral\prot/cy_prot.c ****             status = CY_PROT_BAD_PARAM;
 2002              		.loc 1 698 0
 2003 00b8 0E4B     		ldr	r3, .L146+16
 2004 00ba FB60     		str	r3, [r7, #12]
 2005 00bc 0DE0     		b	.L141
 2006              	.L142:
 699:Generated_Source\PSoC6\pdl\drivers\peripheral\prot/cy_prot.c ****         }
 700:Generated_Source\PSoC6\pdl\drivers\peripheral\prot/cy_prot.c ****         else
 701:Generated_Source\PSoC6\pdl\drivers\peripheral\prot/cy_prot.c ****         {
 702:Generated_Source\PSoC6\pdl\drivers\peripheral\prot/cy_prot.c ****             base->ATT1 = attReg;
 2007              		.loc 1 702 0
 2008 00be 7B68     		ldr	r3, [r7, #4]
 2009 00c0 BA68     		ldr	r2, [r7, #8]
 2010 00c2 5A62     		str	r2, [r3, #36]
 703:Generated_Source\PSoC6\pdl\drivers\peripheral\prot/cy_prot.c ****             status = ((base->ATT1 & CY_PROT_PPU_PROG_ATT1_MASK) != attReg) ? CY_PROT_FAILURE : CY_P
 2011              		.loc 1 703 0
 2012 00c4 7B68     		ldr	r3, [r7, #4]
 2013 00c6 5B6A     		ldr	r3, [r3, #36]
 2014 00c8 0C4A     		ldr	r2, .L146+24
 2015 00ca 1A40     		ands	r2, r3
 2016 00cc BB68     		ldr	r3, [r7, #8]
 2017 00ce 9A42     		cmp	r2, r3
 2018 00d0 01D0     		beq	.L143
 2019              		.loc 1 703 0 is_stmt 0 discriminator 1
ARM GAS  C:\Users\salaz\AppData\Local\Temp\ccSSnxm1.s 			page 49


 2020 00d2 0B4B     		ldr	r3, .L146+28
 2021 00d4 00E0     		b	.L144
 2022              	.L143:
 2023              		.loc 1 703 0 discriminator 2
 2024 00d6 0023     		movs	r3, #0
 2025              	.L144:
 2026              		.loc 1 703 0 discriminator 4
 2027 00d8 FB60     		str	r3, [r7, #12]
 2028              	.L141:
 704:Generated_Source\PSoC6\pdl\drivers\peripheral\prot/cy_prot.c ****         }
 705:Generated_Source\PSoC6\pdl\drivers\peripheral\prot/cy_prot.c ****     }
 706:Generated_Source\PSoC6\pdl\drivers\peripheral\prot/cy_prot.c **** 
 707:Generated_Source\PSoC6\pdl\drivers\peripheral\prot/cy_prot.c ****     return status;
 2029              		.loc 1 707 0 is_stmt 1
 2030 00da FB68     		ldr	r3, [r7, #12]
 708:Generated_Source\PSoC6\pdl\drivers\peripheral\prot/cy_prot.c **** }
 2031              		.loc 1 708 0
 2032 00dc 1800     		movs	r0, r3
 2033 00de BD46     		mov	sp, r7
 2034 00e0 04B0     		add	sp, sp, #16
 2035              		@ sp needed
 2036 00e2 80BD     		pop	{r7, pc}
 2037              	.L147:
 2038              		.align	2
 2039              	.L146:
 2040 00e4 A5020000 		.word	677
 2041 00e8 00000000 		.word	.LC0
 2042 00ec A6020000 		.word	678
 2043 00f0 A7020000 		.word	679
 2044 00f4 0100C200 		.word	12713985
 2045 00f8 00FEFF00 		.word	16776704
 2046 00fc DBFEFFE0 		.word	-520093989
 2047 0100 0300C200 		.word	12713987
 2048              		.cfi_endproc
 2049              	.LFE48:
 2050              		.size	Cy_Prot_ConfigPpuProgMasterStruct, .-Cy_Prot_ConfigPpuProgMasterStruct
 2051              		.section	.text.Cy_Prot_ConfigPpuProgSlaveStruct,"ax",%progbits
 2052              		.align	2
 2053              		.global	Cy_Prot_ConfigPpuProgSlaveStruct
 2054              		.code	16
 2055              		.thumb_func
 2056              		.type	Cy_Prot_ConfigPpuProgSlaveStruct, %function
 2057              	Cy_Prot_ConfigPpuProgSlaveStruct:
 2058              	.LFB49:
 709:Generated_Source\PSoC6\pdl\drivers\peripheral\prot/cy_prot.c **** 
 710:Generated_Source\PSoC6\pdl\drivers\peripheral\prot/cy_prot.c **** /*******************************************************************************
 711:Generated_Source\PSoC6\pdl\drivers\peripheral\prot/cy_prot.c **** * Function Name: Cy_Prot_ConfigPpuProgSlaveStruct
 712:Generated_Source\PSoC6\pdl\drivers\peripheral\prot/cy_prot.c **** ****************************************************************************//**
 713:Generated_Source\PSoC6\pdl\drivers\peripheral\prot/cy_prot.c **** *
 714:Generated_Source\PSoC6\pdl\drivers\peripheral\prot/cy_prot.c **** * \brief Configures a Programmable Peripheral Protection Unit (PPU PROG) slave
 715:Generated_Source\PSoC6\pdl\drivers\peripheral\prot/cy_prot.c **** * protection struct with its protection attributes. 
 716:Generated_Source\PSoC6\pdl\drivers\peripheral\prot/cy_prot.c **** * 
 717:Generated_Source\PSoC6\pdl\drivers\peripheral\prot/cy_prot.c **** * This function configures the slave struct of a PPU PROG pair, which can 
 718:Generated_Source\PSoC6\pdl\drivers\peripheral\prot/cy_prot.c **** * protect any peripheral memory region in a device from invalid bus master 
 719:Generated_Source\PSoC6\pdl\drivers\peripheral\prot/cy_prot.c **** * accesses.
 720:Generated_Source\PSoC6\pdl\drivers\peripheral\prot/cy_prot.c **** *
 721:Generated_Source\PSoC6\pdl\drivers\peripheral\prot/cy_prot.c **** * Note that the user/privileged execute accesses are read-only and are always 
ARM GAS  C:\Users\salaz\AppData\Local\Temp\ccSSnxm1.s 			page 50


 722:Generated_Source\PSoC6\pdl\drivers\peripheral\prot/cy_prot.c **** * enabled. 
 723:Generated_Source\PSoC6\pdl\drivers\peripheral\prot/cy_prot.c **** *
 724:Generated_Source\PSoC6\pdl\drivers\peripheral\prot/cy_prot.c **** * \param base
 725:Generated_Source\PSoC6\pdl\drivers\peripheral\prot/cy_prot.c **** * The register base address of the protection structure being configured.
 726:Generated_Source\PSoC6\pdl\drivers\peripheral\prot/cy_prot.c **** * 
 727:Generated_Source\PSoC6\pdl\drivers\peripheral\prot/cy_prot.c **** * \param config
 728:Generated_Source\PSoC6\pdl\drivers\peripheral\prot/cy_prot.c **** * Initialization structure with all the protection attributes.
 729:Generated_Source\PSoC6\pdl\drivers\peripheral\prot/cy_prot.c **** * 
 730:Generated_Source\PSoC6\pdl\drivers\peripheral\prot/cy_prot.c **** * \return
 731:Generated_Source\PSoC6\pdl\drivers\peripheral\prot/cy_prot.c **** * Status of the function call.
 732:Generated_Source\PSoC6\pdl\drivers\peripheral\prot/cy_prot.c **** *
 733:Generated_Source\PSoC6\pdl\drivers\peripheral\prot/cy_prot.c **** *   Status               | Description
 734:Generated_Source\PSoC6\pdl\drivers\peripheral\prot/cy_prot.c **** *   ------------         | -----------
 735:Generated_Source\PSoC6\pdl\drivers\peripheral\prot/cy_prot.c **** *   CY_PROT_SUCCESS      | PPU PROG slave struct was successfully configured
 736:Generated_Source\PSoC6\pdl\drivers\peripheral\prot/cy_prot.c **** *   CY_PROT_FAILURE      | The resource is locked
 737:Generated_Source\PSoC6\pdl\drivers\peripheral\prot/cy_prot.c **** *   CY_PROT_BAD_PARAM    | An incorrect/invalid parameter was passed
 738:Generated_Source\PSoC6\pdl\drivers\peripheral\prot/cy_prot.c **** *
 739:Generated_Source\PSoC6\pdl\drivers\peripheral\prot/cy_prot.c **** * \funcusage
 740:Generated_Source\PSoC6\pdl\drivers\peripheral\prot/cy_prot.c **** * \snippet prot/prot_v1_10_sut_01.cydsn/main_cm4.c snippet_Cy_Prot_ConfigPpuProgSlaveStruct
 741:Generated_Source\PSoC6\pdl\drivers\peripheral\prot/cy_prot.c **** *
 742:Generated_Source\PSoC6\pdl\drivers\peripheral\prot/cy_prot.c **** *******************************************************************************/
 743:Generated_Source\PSoC6\pdl\drivers\peripheral\prot/cy_prot.c **** cy_en_prot_status_t Cy_Prot_ConfigPpuProgSlaveStruct(PERI_PPU_PR_Type* base, const cy_stc_ppu_prog_
 744:Generated_Source\PSoC6\pdl\drivers\peripheral\prot/cy_prot.c **** {
 2059              		.loc 1 744 0
 2060              		.cfi_startproc
 2061              		@ args = 0, pretend = 0, frame = 24
 2062              		@ frame_needed = 1, uses_anonymous_args = 0
 2063 0000 80B5     		push	{r7, lr}
 2064              		.cfi_def_cfa_offset 8
 2065              		.cfi_offset 7, -8
 2066              		.cfi_offset 14, -4
 2067 0002 86B0     		sub	sp, sp, #24
 2068              		.cfi_def_cfa_offset 32
 2069 0004 00AF     		add	r7, sp, #0
 2070              		.cfi_def_cfa_register 7
 2071 0006 7860     		str	r0, [r7, #4]
 2072 0008 3960     		str	r1, [r7]
 745:Generated_Source\PSoC6\pdl\drivers\peripheral\prot/cy_prot.c ****     cy_en_prot_status_t status;
 746:Generated_Source\PSoC6\pdl\drivers\peripheral\prot/cy_prot.c ****     uint32_t addrReg;
 747:Generated_Source\PSoC6\pdl\drivers\peripheral\prot/cy_prot.c ****     uint32_t attReg;
 748:Generated_Source\PSoC6\pdl\drivers\peripheral\prot/cy_prot.c ****     
 749:Generated_Source\PSoC6\pdl\drivers\peripheral\prot/cy_prot.c ****     CY_ASSERT_L1(NULL != base);
 2073              		.loc 1 749 0
 2074 000a 7B68     		ldr	r3, [r7, #4]
 2075 000c 002B     		cmp	r3, #0
 2076 000e 05D1     		bne	.L149
 2077              		.loc 1 749 0 is_stmt 0 discriminator 1
 2078 0010 814A     		ldr	r2, .L160
 2079 0012 824B     		ldr	r3, .L160+4
 2080 0014 1100     		movs	r1, r2
 2081 0016 1800     		movs	r0, r3
 2082 0018 FFF7FEFF 		bl	Cy_SysLib_AssertFailed
 2083              	.L149:
 750:Generated_Source\PSoC6\pdl\drivers\peripheral\prot/cy_prot.c ****     CY_ASSERT_L3(CY_PROT_IS_PROG_SL_PERM_VALID(config->userPermission));
 2084              		.loc 1 750 0 is_stmt 1
 2085 001c 3B68     		ldr	r3, [r7]
 2086 001e 9B79     		ldrb	r3, [r3, #6]
ARM GAS  C:\Users\salaz\AppData\Local\Temp\ccSSnxm1.s 			page 51


 2087 0020 002B     		cmp	r3, #0
 2088 0022 11D0     		beq	.L150
 2089              		.loc 1 750 0 is_stmt 0 discriminator 1
 2090 0024 3B68     		ldr	r3, [r7]
 2091 0026 9B79     		ldrb	r3, [r3, #6]
 2092 0028 012B     		cmp	r3, #1
 2093 002a 0DD0     		beq	.L150
 2094              		.loc 1 750 0 discriminator 2
 2095 002c 3B68     		ldr	r3, [r7]
 2096 002e 9B79     		ldrb	r3, [r3, #6]
 2097 0030 022B     		cmp	r3, #2
 2098 0032 09D0     		beq	.L150
 2099              		.loc 1 750 0 discriminator 3
 2100 0034 3B68     		ldr	r3, [r7]
 2101 0036 9B79     		ldrb	r3, [r3, #6]
 2102 0038 032B     		cmp	r3, #3
 2103 003a 05D0     		beq	.L150
 2104              		.loc 1 750 0 discriminator 4
 2105 003c 784A     		ldr	r2, .L160+8
 2106 003e 774B     		ldr	r3, .L160+4
 2107 0040 1100     		movs	r1, r2
 2108 0042 1800     		movs	r0, r3
 2109 0044 FFF7FEFF 		bl	Cy_SysLib_AssertFailed
 2110              	.L150:
 751:Generated_Source\PSoC6\pdl\drivers\peripheral\prot/cy_prot.c ****     CY_ASSERT_L3(CY_PROT_IS_PROG_SL_PERM_VALID(config->privPermission));
 2111              		.loc 1 751 0 is_stmt 1
 2112 0048 3B68     		ldr	r3, [r7]
 2113 004a DB79     		ldrb	r3, [r3, #7]
 2114 004c 002B     		cmp	r3, #0
 2115 004e 11D0     		beq	.L151
 2116              		.loc 1 751 0 is_stmt 0 discriminator 1
 2117 0050 3B68     		ldr	r3, [r7]
 2118 0052 DB79     		ldrb	r3, [r3, #7]
 2119 0054 012B     		cmp	r3, #1
 2120 0056 0DD0     		beq	.L151
 2121              		.loc 1 751 0 discriminator 2
 2122 0058 3B68     		ldr	r3, [r7]
 2123 005a DB79     		ldrb	r3, [r3, #7]
 2124 005c 022B     		cmp	r3, #2
 2125 005e 09D0     		beq	.L151
 2126              		.loc 1 751 0 discriminator 3
 2127 0060 3B68     		ldr	r3, [r7]
 2128 0062 DB79     		ldrb	r3, [r3, #7]
 2129 0064 032B     		cmp	r3, #3
 2130 0066 05D0     		beq	.L151
 2131              		.loc 1 751 0 discriminator 4
 2132 0068 6E4A     		ldr	r2, .L160+12
 2133 006a 6C4B     		ldr	r3, .L160+4
 2134 006c 1100     		movs	r1, r2
 2135 006e 1800     		movs	r0, r3
 2136 0070 FFF7FEFF 		bl	Cy_SysLib_AssertFailed
 2137              	.L151:
 752:Generated_Source\PSoC6\pdl\drivers\peripheral\prot/cy_prot.c ****     CY_ASSERT_L3(CY_PROT_IS_REGION_SIZE_VALID(config->regionSize));
 2138              		.loc 1 752 0 is_stmt 1
 2139 0074 3B68     		ldr	r3, [r7]
 2140 0076 1B79     		ldrb	r3, [r3, #4]
 2141 0078 072B     		cmp	r3, #7
ARM GAS  C:\Users\salaz\AppData\Local\Temp\ccSSnxm1.s 			page 52


 2142 007a 00D1     		bne	.LCB1839
 2143 007c 69E0     		b	.L152	@long jump
 2144              	.LCB1839:
 2145              		.loc 1 752 0 is_stmt 0 discriminator 1
 2146 007e 3B68     		ldr	r3, [r7]
 2147 0080 1B79     		ldrb	r3, [r3, #4]
 2148 0082 082B     		cmp	r3, #8
 2149 0084 00D1     		bne	.LCB1843
 2150 0086 64E0     		b	.L152	@long jump
 2151              	.LCB1843:
 2152              		.loc 1 752 0 discriminator 2
 2153 0088 3B68     		ldr	r3, [r7]
 2154 008a 1B79     		ldrb	r3, [r3, #4]
 2155 008c 092B     		cmp	r3, #9
 2156 008e 00D1     		bne	.LCB1847
 2157 0090 5FE0     		b	.L152	@long jump
 2158              	.LCB1847:
 2159              		.loc 1 752 0 discriminator 3
 2160 0092 3B68     		ldr	r3, [r7]
 2161 0094 1B79     		ldrb	r3, [r3, #4]
 2162 0096 0A2B     		cmp	r3, #10
 2163 0098 00D1     		bne	.LCB1851
 2164 009a 5AE0     		b	.L152	@long jump
 2165              	.LCB1851:
 2166              		.loc 1 752 0 discriminator 4
 2167 009c 3B68     		ldr	r3, [r7]
 2168 009e 1B79     		ldrb	r3, [r3, #4]
 2169 00a0 0B2B     		cmp	r3, #11
 2170 00a2 56D0     		beq	.L152
 2171              		.loc 1 752 0 discriminator 5
 2172 00a4 3B68     		ldr	r3, [r7]
 2173 00a6 1B79     		ldrb	r3, [r3, #4]
 2174 00a8 0C2B     		cmp	r3, #12
 2175 00aa 52D0     		beq	.L152
 2176              		.loc 1 752 0 discriminator 6
 2177 00ac 3B68     		ldr	r3, [r7]
 2178 00ae 1B79     		ldrb	r3, [r3, #4]
 2179 00b0 0D2B     		cmp	r3, #13
 2180 00b2 4ED0     		beq	.L152
 2181              		.loc 1 752 0 discriminator 7
 2182 00b4 3B68     		ldr	r3, [r7]
 2183 00b6 1B79     		ldrb	r3, [r3, #4]
 2184 00b8 0E2B     		cmp	r3, #14
 2185 00ba 4AD0     		beq	.L152
 2186              		.loc 1 752 0 discriminator 8
 2187 00bc 3B68     		ldr	r3, [r7]
 2188 00be 1B79     		ldrb	r3, [r3, #4]
 2189 00c0 0F2B     		cmp	r3, #15
 2190 00c2 46D0     		beq	.L152
 2191              		.loc 1 752 0 discriminator 9
 2192 00c4 3B68     		ldr	r3, [r7]
 2193 00c6 1B79     		ldrb	r3, [r3, #4]
 2194 00c8 102B     		cmp	r3, #16
 2195 00ca 42D0     		beq	.L152
 2196              		.loc 1 752 0 discriminator 10
 2197 00cc 3B68     		ldr	r3, [r7]
 2198 00ce 1B79     		ldrb	r3, [r3, #4]
ARM GAS  C:\Users\salaz\AppData\Local\Temp\ccSSnxm1.s 			page 53


 2199 00d0 112B     		cmp	r3, #17
 2200 00d2 3ED0     		beq	.L152
 2201              		.loc 1 752 0 discriminator 11
 2202 00d4 3B68     		ldr	r3, [r7]
 2203 00d6 1B79     		ldrb	r3, [r3, #4]
 2204 00d8 122B     		cmp	r3, #18
 2205 00da 3AD0     		beq	.L152
 2206              		.loc 1 752 0 discriminator 12
 2207 00dc 3B68     		ldr	r3, [r7]
 2208 00de 1B79     		ldrb	r3, [r3, #4]
 2209 00e0 132B     		cmp	r3, #19
 2210 00e2 36D0     		beq	.L152
 2211              		.loc 1 752 0 discriminator 13
 2212 00e4 3B68     		ldr	r3, [r7]
 2213 00e6 1B79     		ldrb	r3, [r3, #4]
 2214 00e8 142B     		cmp	r3, #20
 2215 00ea 32D0     		beq	.L152
 2216              		.loc 1 752 0 discriminator 14
 2217 00ec 3B68     		ldr	r3, [r7]
 2218 00ee 1B79     		ldrb	r3, [r3, #4]
 2219 00f0 152B     		cmp	r3, #21
 2220 00f2 2ED0     		beq	.L152
 2221              		.loc 1 752 0 discriminator 15
 2222 00f4 3B68     		ldr	r3, [r7]
 2223 00f6 1B79     		ldrb	r3, [r3, #4]
 2224 00f8 162B     		cmp	r3, #22
 2225 00fa 2AD0     		beq	.L152
 2226              		.loc 1 752 0 discriminator 16
 2227 00fc 3B68     		ldr	r3, [r7]
 2228 00fe 1B79     		ldrb	r3, [r3, #4]
 2229 0100 172B     		cmp	r3, #23
 2230 0102 26D0     		beq	.L152
 2231              		.loc 1 752 0 discriminator 17
 2232 0104 3B68     		ldr	r3, [r7]
 2233 0106 1B79     		ldrb	r3, [r3, #4]
 2234 0108 182B     		cmp	r3, #24
 2235 010a 22D0     		beq	.L152
 2236              		.loc 1 752 0 discriminator 18
 2237 010c 3B68     		ldr	r3, [r7]
 2238 010e 1B79     		ldrb	r3, [r3, #4]
 2239 0110 192B     		cmp	r3, #25
 2240 0112 1ED0     		beq	.L152
 2241              		.loc 1 752 0 discriminator 19
 2242 0114 3B68     		ldr	r3, [r7]
 2243 0116 1B79     		ldrb	r3, [r3, #4]
 2244 0118 1A2B     		cmp	r3, #26
 2245 011a 1AD0     		beq	.L152
 2246              		.loc 1 752 0 discriminator 20
 2247 011c 3B68     		ldr	r3, [r7]
 2248 011e 1B79     		ldrb	r3, [r3, #4]
 2249 0120 1B2B     		cmp	r3, #27
 2250 0122 16D0     		beq	.L152
 2251              		.loc 1 752 0 discriminator 21
 2252 0124 3B68     		ldr	r3, [r7]
 2253 0126 1B79     		ldrb	r3, [r3, #4]
 2254 0128 1C2B     		cmp	r3, #28
 2255 012a 12D0     		beq	.L152
ARM GAS  C:\Users\salaz\AppData\Local\Temp\ccSSnxm1.s 			page 54


 2256              		.loc 1 752 0 discriminator 22
 2257 012c 3B68     		ldr	r3, [r7]
 2258 012e 1B79     		ldrb	r3, [r3, #4]
 2259 0130 1D2B     		cmp	r3, #29
 2260 0132 0ED0     		beq	.L152
 2261              		.loc 1 752 0 discriminator 23
 2262 0134 3B68     		ldr	r3, [r7]
 2263 0136 1B79     		ldrb	r3, [r3, #4]
 2264 0138 1E2B     		cmp	r3, #30
 2265 013a 0AD0     		beq	.L152
 2266              		.loc 1 752 0 discriminator 24
 2267 013c 3B68     		ldr	r3, [r7]
 2268 013e 1B79     		ldrb	r3, [r3, #4]
 2269 0140 1F2B     		cmp	r3, #31
 2270 0142 06D0     		beq	.L152
 2271              		.loc 1 752 0 discriminator 25
 2272 0144 BC23     		movs	r3, #188
 2273 0146 9A00     		lsls	r2, r3, #2
 2274 0148 344B     		ldr	r3, .L160+4
 2275 014a 1100     		movs	r1, r2
 2276 014c 1800     		movs	r0, r3
 2277 014e FFF7FEFF 		bl	Cy_SysLib_AssertFailed
 2278              	.L152:
 753:Generated_Source\PSoC6\pdl\drivers\peripheral\prot/cy_prot.c **** 
 754:Generated_Source\PSoC6\pdl\drivers\peripheral\prot/cy_prot.c ****     if(((uint32_t)config->pcMask & CY_PROT_PPU_PROG_PC_LIMIT_MASK) != 0UL) 
 2279              		.loc 1 754 0 is_stmt 1
 2280 0152 3B68     		ldr	r3, [r7]
 2281 0154 5B89     		ldrh	r3, [r3, #10]
 2282 0156 1A00     		movs	r2, r3
 2283 0158 7F23     		movs	r3, #127
 2284 015a 9A43     		bics	r2, r3
 2285 015c 131E     		subs	r3, r2, #0
 2286 015e 02D0     		beq	.L153
 755:Generated_Source\PSoC6\pdl\drivers\peripheral\prot/cy_prot.c ****     {
 756:Generated_Source\PSoC6\pdl\drivers\peripheral\prot/cy_prot.c ****         /* PC mask out of range - not supported in device */
 757:Generated_Source\PSoC6\pdl\drivers\peripheral\prot/cy_prot.c ****         status = CY_PROT_BAD_PARAM;
 2287              		.loc 1 757 0
 2288 0160 314B     		ldr	r3, .L160+16
 2289 0162 7B61     		str	r3, [r7, #20]
 2290 0164 52E0     		b	.L154
 2291              	.L153:
 758:Generated_Source\PSoC6\pdl\drivers\peripheral\prot/cy_prot.c ****     }
 759:Generated_Source\PSoC6\pdl\drivers\peripheral\prot/cy_prot.c ****     else
 760:Generated_Source\PSoC6\pdl\drivers\peripheral\prot/cy_prot.c ****     {
 761:Generated_Source\PSoC6\pdl\drivers\peripheral\prot/cy_prot.c ****         addrReg= _VAL2FLD(PERI_PPU_PR_ADDR0_SUBREGION_DISABLE, config->subregions)
 2292              		.loc 1 761 0
 2293 0166 3B68     		ldr	r3, [r7]
 2294 0168 5B79     		ldrb	r3, [r3, #5]
 2295 016a 1A00     		movs	r2, r3
 762:Generated_Source\PSoC6\pdl\drivers\peripheral\prot/cy_prot.c ****                     | _VAL2FLD(PERI_PPU_PR_ADDR0_ADDR24, (uint32_t)((uint32_t)config->address >> CY
 2296              		.loc 1 762 0
 2297 016c 3B68     		ldr	r3, [r7]
 2298 016e 1B68     		ldr	r3, [r3]
 2299 0170 1900     		movs	r1, r3
 2300 0172 FF23     		movs	r3, #255
 2301 0174 9943     		bics	r1, r3
 2302 0176 0B00     		movs	r3, r1
ARM GAS  C:\Users\salaz\AppData\Local\Temp\ccSSnxm1.s 			page 55


 761:Generated_Source\PSoC6\pdl\drivers\peripheral\prot/cy_prot.c ****                     | _VAL2FLD(PERI_PPU_PR_ADDR0_ADDR24, (uint32_t)((uint32_t)config->address >> CY
 2303              		.loc 1 761 0
 2304 0178 1343     		orrs	r3, r2
 2305 017a 3B61     		str	r3, [r7, #16]
 763:Generated_Source\PSoC6\pdl\drivers\peripheral\prot/cy_prot.c ****         attReg= ((uint32_t)config->userPermission & CY_PROT_ATT_PERMISSION_MASK)
 2306              		.loc 1 763 0
 2307 017c 3B68     		ldr	r3, [r7]
 2308 017e 9B79     		ldrb	r3, [r3, #6]
 2309 0180 1A00     		movs	r2, r3
 2310 0182 0723     		movs	r3, #7
 2311 0184 1A40     		ands	r2, r3
 764:Generated_Source\PSoC6\pdl\drivers\peripheral\prot/cy_prot.c ****                     | (uint32_t)(((uint32_t)config->privPermission & CY_PROT_ATT_PERMISSION_MASK) <
 2312              		.loc 1 764 0
 2313 0186 3B68     		ldr	r3, [r7]
 2314 0188 DB79     		ldrb	r3, [r3, #7]
 2315 018a DB00     		lsls	r3, r3, #3
 2316 018c 3821     		movs	r1, #56
 2317 018e 0B40     		ands	r3, r1
 2318 0190 1A43     		orrs	r2, r3
 765:Generated_Source\PSoC6\pdl\drivers\peripheral\prot/cy_prot.c ****                     | _VAL2FLD(PERI_PPU_PR_ATT0_NS, !(config->secure))
 2319              		.loc 1 765 0
 2320 0192 3B68     		ldr	r3, [r7]
 2321 0194 1B7A     		ldrb	r3, [r3, #8]
 2322 0196 0121     		movs	r1, #1
 2323 0198 4B40     		eors	r3, r1
 2324 019a DBB2     		uxtb	r3, r3
 2325 019c 9B01     		lsls	r3, r3, #6
 2326 019e 4021     		movs	r1, #64
 2327 01a0 0B40     		ands	r3, r1
 2328 01a2 1A43     		orrs	r2, r3
 766:Generated_Source\PSoC6\pdl\drivers\peripheral\prot/cy_prot.c ****                     | _VAL2FLD(PERI_PPU_PR_ATT0_PC_MASK_15_TO_1, config->pcMask)
 2329              		.loc 1 766 0
 2330 01a4 3B68     		ldr	r3, [r7]
 2331 01a6 5B89     		ldrh	r3, [r3, #10]
 2332 01a8 5B02     		lsls	r3, r3, #9
 2333 01aa 2049     		ldr	r1, .L160+20
 2334 01ac 0B40     		ands	r3, r1
 2335 01ae 1A43     		orrs	r2, r3
 767:Generated_Source\PSoC6\pdl\drivers\peripheral\prot/cy_prot.c ****                     | _VAL2FLD(PERI_PPU_PR_ATT0_REGION_SIZE, config->regionSize)
 2336              		.loc 1 767 0
 2337 01b0 3B68     		ldr	r3, [r7]
 2338 01b2 1B79     		ldrb	r3, [r3, #4]
 2339 01b4 1906     		lsls	r1, r3, #24
 2340 01b6 F823     		movs	r3, #248
 2341 01b8 5B05     		lsls	r3, r3, #21
 2342 01ba 0B40     		ands	r3, r1
 2343 01bc 1A43     		orrs	r2, r3
 768:Generated_Source\PSoC6\pdl\drivers\peripheral\prot/cy_prot.c ****                     | _VAL2FLD(PERI_PPU_PR_ATT0_PC_MATCH, config->pcMatch);
 2344              		.loc 1 768 0
 2345 01be 3B68     		ldr	r3, [r7]
 2346 01c0 5B7A     		ldrb	r3, [r3, #9]
 2347 01c2 9907     		lsls	r1, r3, #30
 2348 01c4 8023     		movs	r3, #128
 2349 01c6 DB05     		lsls	r3, r3, #23
 2350 01c8 0B40     		ands	r3, r1
 763:Generated_Source\PSoC6\pdl\drivers\peripheral\prot/cy_prot.c ****                     | (uint32_t)(((uint32_t)config->privPermission & CY_PROT_ATT_PERMISSION_MASK) <
 2351              		.loc 1 763 0
ARM GAS  C:\Users\salaz\AppData\Local\Temp\ccSSnxm1.s 			page 56


 2352 01ca 1343     		orrs	r3, r2
 2353 01cc FB60     		str	r3, [r7, #12]
 769:Generated_Source\PSoC6\pdl\drivers\peripheral\prot/cy_prot.c ****         if ((attReg & CY_PROT_PPU_PROG_ATT0_MASK) != attReg)
 2354              		.loc 1 769 0
 2355 01ce FB68     		ldr	r3, [r7, #12]
 2356 01d0 174A     		ldr	r2, .L160+24
 2357 01d2 1A40     		ands	r2, r3
 2358 01d4 FB68     		ldr	r3, [r7, #12]
 2359 01d6 9A42     		cmp	r2, r3
 2360 01d8 02D0     		beq	.L155
 770:Generated_Source\PSoC6\pdl\drivers\peripheral\prot/cy_prot.c ****         {
 771:Generated_Source\PSoC6\pdl\drivers\peripheral\prot/cy_prot.c ****             /* Invalid parameter was passed */
 772:Generated_Source\PSoC6\pdl\drivers\peripheral\prot/cy_prot.c ****             status = CY_PROT_BAD_PARAM;
 2361              		.loc 1 772 0
 2362 01da 134B     		ldr	r3, .L160+16
 2363 01dc 7B61     		str	r3, [r7, #20]
 2364 01de 15E0     		b	.L154
 2365              	.L155:
 773:Generated_Source\PSoC6\pdl\drivers\peripheral\prot/cy_prot.c ****         }
 774:Generated_Source\PSoC6\pdl\drivers\peripheral\prot/cy_prot.c ****         else
 775:Generated_Source\PSoC6\pdl\drivers\peripheral\prot/cy_prot.c ****         {
 776:Generated_Source\PSoC6\pdl\drivers\peripheral\prot/cy_prot.c ****             base->ATT0 = attReg;
 2366              		.loc 1 776 0
 2367 01e0 7B68     		ldr	r3, [r7, #4]
 2368 01e2 FA68     		ldr	r2, [r7, #12]
 2369 01e4 5A60     		str	r2, [r3, #4]
 777:Generated_Source\PSoC6\pdl\drivers\peripheral\prot/cy_prot.c ****             base->ADDR0 = addrReg;
 2370              		.loc 1 777 0
 2371 01e6 7B68     		ldr	r3, [r7, #4]
 2372 01e8 3A69     		ldr	r2, [r7, #16]
 2373 01ea 1A60     		str	r2, [r3]
 778:Generated_Source\PSoC6\pdl\drivers\peripheral\prot/cy_prot.c ****             status = ((base->ADDR0 != addrReg) || ((base->ATT0 & CY_PROT_PPU_PROG_ATT0_MASK) != att
 2374              		.loc 1 778 0
 2375 01ec 7B68     		ldr	r3, [r7, #4]
 2376 01ee 1A68     		ldr	r2, [r3]
 2377 01f0 3B69     		ldr	r3, [r7, #16]
 2378 01f2 9A42     		cmp	r2, r3
 2379 01f4 06D1     		bne	.L156
 2380              		.loc 1 778 0 is_stmt 0 discriminator 2
 2381 01f6 7B68     		ldr	r3, [r7, #4]
 2382 01f8 5B68     		ldr	r3, [r3, #4]
 2383 01fa 0D4A     		ldr	r2, .L160+24
 2384 01fc 1A40     		ands	r2, r3
 2385 01fe FB68     		ldr	r3, [r7, #12]
 2386 0200 9A42     		cmp	r2, r3
 2387 0202 01D0     		beq	.L157
 2388              	.L156:
 2389              		.loc 1 778 0 discriminator 3
 2390 0204 0B4B     		ldr	r3, .L160+28
 2391 0206 00E0     		b	.L158
 2392              	.L157:
 2393              		.loc 1 778 0 discriminator 4
 2394 0208 0023     		movs	r3, #0
 2395              	.L158:
 2396              		.loc 1 778 0 discriminator 6
 2397 020a 7B61     		str	r3, [r7, #20]
 2398              	.L154:
ARM GAS  C:\Users\salaz\AppData\Local\Temp\ccSSnxm1.s 			page 57


 779:Generated_Source\PSoC6\pdl\drivers\peripheral\prot/cy_prot.c ****                         ? CY_PROT_FAILURE : CY_PROT_SUCCESS;
 780:Generated_Source\PSoC6\pdl\drivers\peripheral\prot/cy_prot.c ****         }
 781:Generated_Source\PSoC6\pdl\drivers\peripheral\prot/cy_prot.c ****     }
 782:Generated_Source\PSoC6\pdl\drivers\peripheral\prot/cy_prot.c ****     
 783:Generated_Source\PSoC6\pdl\drivers\peripheral\prot/cy_prot.c ****     return status;
 2399              		.loc 1 783 0 is_stmt 1
 2400 020c 7B69     		ldr	r3, [r7, #20]
 784:Generated_Source\PSoC6\pdl\drivers\peripheral\prot/cy_prot.c **** }
 2401              		.loc 1 784 0
 2402 020e 1800     		movs	r0, r3
 2403 0210 BD46     		mov	sp, r7
 2404 0212 06B0     		add	sp, sp, #24
 2405              		@ sp needed
 2406 0214 80BD     		pop	{r7, pc}
 2407              	.L161:
 2408 0216 C046     		.align	2
 2409              	.L160:
 2410 0218 ED020000 		.word	749
 2411 021c 00000000 		.word	.LC0
 2412 0220 EE020000 		.word	750
 2413 0224 EF020000 		.word	751
 2414 0228 0100C200 		.word	12713985
 2415 022c 00FEFF00 		.word	16776704
 2416 0230 DBFEFFFF 		.word	-293
 2417 0234 0300C200 		.word	12713987
 2418              		.cfi_endproc
 2419              	.LFE49:
 2420              		.size	Cy_Prot_ConfigPpuProgSlaveStruct, .-Cy_Prot_ConfigPpuProgSlaveStruct
 2421              		.section	.text.Cy_Prot_EnablePpuProgMasterStruct,"ax",%progbits
 2422              		.align	2
 2423              		.global	Cy_Prot_EnablePpuProgMasterStruct
 2424              		.code	16
 2425              		.thumb_func
 2426              		.type	Cy_Prot_EnablePpuProgMasterStruct, %function
 2427              	Cy_Prot_EnablePpuProgMasterStruct:
 2428              	.LFB50:
 785:Generated_Source\PSoC6\pdl\drivers\peripheral\prot/cy_prot.c **** 
 786:Generated_Source\PSoC6\pdl\drivers\peripheral\prot/cy_prot.c **** 
 787:Generated_Source\PSoC6\pdl\drivers\peripheral\prot/cy_prot.c **** /*******************************************************************************
 788:Generated_Source\PSoC6\pdl\drivers\peripheral\prot/cy_prot.c **** * Function Name: Cy_Prot_EnablePpuProgMasterStruct
 789:Generated_Source\PSoC6\pdl\drivers\peripheral\prot/cy_prot.c **** ****************************************************************************//**
 790:Generated_Source\PSoC6\pdl\drivers\peripheral\prot/cy_prot.c **** *
 791:Generated_Source\PSoC6\pdl\drivers\peripheral\prot/cy_prot.c **** * \brief Enables the Master PPU PROG structure.
 792:Generated_Source\PSoC6\pdl\drivers\peripheral\prot/cy_prot.c **** *
 793:Generated_Source\PSoC6\pdl\drivers\peripheral\prot/cy_prot.c **** * This is a PPU PROG master struct enable function. The PPU PROG protection 
 794:Generated_Source\PSoC6\pdl\drivers\peripheral\prot/cy_prot.c **** * settings will take effect after successful completion of this function call.
 795:Generated_Source\PSoC6\pdl\drivers\peripheral\prot/cy_prot.c **** *
 796:Generated_Source\PSoC6\pdl\drivers\peripheral\prot/cy_prot.c **** * \param base
 797:Generated_Source\PSoC6\pdl\drivers\peripheral\prot/cy_prot.c **** * The base address for the protection unit structure being configured. 
 798:Generated_Source\PSoC6\pdl\drivers\peripheral\prot/cy_prot.c **** *
 799:Generated_Source\PSoC6\pdl\drivers\peripheral\prot/cy_prot.c **** * \return
 800:Generated_Source\PSoC6\pdl\drivers\peripheral\prot/cy_prot.c **** * Status of the function call.
 801:Generated_Source\PSoC6\pdl\drivers\peripheral\prot/cy_prot.c **** *
 802:Generated_Source\PSoC6\pdl\drivers\peripheral\prot/cy_prot.c **** *   Status               | Description
 803:Generated_Source\PSoC6\pdl\drivers\peripheral\prot/cy_prot.c **** *   ------------         | -----------
 804:Generated_Source\PSoC6\pdl\drivers\peripheral\prot/cy_prot.c **** *   CY_PROT_SUCCESS      | The Master PU struct was enabled
 805:Generated_Source\PSoC6\pdl\drivers\peripheral\prot/cy_prot.c **** *   CY_PROT_FAILURE      | The Master PU struct is disabled and possibly locked
ARM GAS  C:\Users\salaz\AppData\Local\Temp\ccSSnxm1.s 			page 58


 806:Generated_Source\PSoC6\pdl\drivers\peripheral\prot/cy_prot.c **** *
 807:Generated_Source\PSoC6\pdl\drivers\peripheral\prot/cy_prot.c **** * \funcusage
 808:Generated_Source\PSoC6\pdl\drivers\peripheral\prot/cy_prot.c **** * \snippet prot/prot_v1_10_sut_01.cydsn/main_cm4.c snippet_Cy_Prot_EnablePpuProgMasterStruct
 809:Generated_Source\PSoC6\pdl\drivers\peripheral\prot/cy_prot.c **** *
 810:Generated_Source\PSoC6\pdl\drivers\peripheral\prot/cy_prot.c **** *******************************************************************************/
 811:Generated_Source\PSoC6\pdl\drivers\peripheral\prot/cy_prot.c **** cy_en_prot_status_t Cy_Prot_EnablePpuProgMasterStruct(PERI_PPU_PR_Type* base)
 812:Generated_Source\PSoC6\pdl\drivers\peripheral\prot/cy_prot.c **** {
 2429              		.loc 1 812 0
 2430              		.cfi_startproc
 2431              		@ args = 0, pretend = 0, frame = 16
 2432              		@ frame_needed = 1, uses_anonymous_args = 0
 2433 0000 80B5     		push	{r7, lr}
 2434              		.cfi_def_cfa_offset 8
 2435              		.cfi_offset 7, -8
 2436              		.cfi_offset 14, -4
 2437 0002 84B0     		sub	sp, sp, #16
 2438              		.cfi_def_cfa_offset 24
 2439 0004 00AF     		add	r7, sp, #0
 2440              		.cfi_def_cfa_register 7
 2441 0006 7860     		str	r0, [r7, #4]
 813:Generated_Source\PSoC6\pdl\drivers\peripheral\prot/cy_prot.c ****     cy_en_prot_status_t status;
 814:Generated_Source\PSoC6\pdl\drivers\peripheral\prot/cy_prot.c ****     
 815:Generated_Source\PSoC6\pdl\drivers\peripheral\prot/cy_prot.c ****     base->ATT1 |= _VAL2FLD(PERI_PPU_PR_ATT1_ENABLED, CY_PROT_STRUCT_ENABLE);
 2442              		.loc 1 815 0
 2443 0008 7B68     		ldr	r3, [r7, #4]
 2444 000a 5B6A     		ldr	r3, [r3, #36]
 2445 000c 8022     		movs	r2, #128
 2446 000e 1206     		lsls	r2, r2, #24
 2447 0010 1A43     		orrs	r2, r3
 2448 0012 7B68     		ldr	r3, [r7, #4]
 2449 0014 5A62     		str	r2, [r3, #36]
 816:Generated_Source\PSoC6\pdl\drivers\peripheral\prot/cy_prot.c ****     status = (_FLD2VAL(PERI_PPU_PR_ATT1_ENABLED, base->ATT1) != CY_PROT_STRUCT_ENABLE) ?
 2450              		.loc 1 816 0
 2451 0016 7B68     		ldr	r3, [r7, #4]
 2452 0018 5B6A     		ldr	r3, [r3, #36]
 2453 001a DB0F     		lsrs	r3, r3, #31
 2454 001c DB07     		lsls	r3, r3, #31
 2455 001e DB0F     		lsrs	r3, r3, #31
 2456 0020 012B     		cmp	r3, #1
 2457 0022 01D0     		beq	.L163
 2458              		.loc 1 816 0 is_stmt 0 discriminator 1
 2459 0024 044B     		ldr	r3, .L166
 2460 0026 00E0     		b	.L164
 2461              	.L163:
 2462              		.loc 1 816 0 discriminator 2
 2463 0028 0023     		movs	r3, #0
 2464              	.L164:
 2465              		.loc 1 816 0 discriminator 4
 2466 002a FB60     		str	r3, [r7, #12]
 817:Generated_Source\PSoC6\pdl\drivers\peripheral\prot/cy_prot.c ****                 CY_PROT_FAILURE : CY_PROT_SUCCESS;
 818:Generated_Source\PSoC6\pdl\drivers\peripheral\prot/cy_prot.c ****     
 819:Generated_Source\PSoC6\pdl\drivers\peripheral\prot/cy_prot.c ****     return status;
 2467              		.loc 1 819 0 is_stmt 1 discriminator 4
 2468 002c FB68     		ldr	r3, [r7, #12]
 820:Generated_Source\PSoC6\pdl\drivers\peripheral\prot/cy_prot.c **** }
 2469              		.loc 1 820 0 discriminator 4
 2470 002e 1800     		movs	r0, r3
ARM GAS  C:\Users\salaz\AppData\Local\Temp\ccSSnxm1.s 			page 59


 2471 0030 BD46     		mov	sp, r7
 2472 0032 04B0     		add	sp, sp, #16
 2473              		@ sp needed
 2474 0034 80BD     		pop	{r7, pc}
 2475              	.L167:
 2476 0036 C046     		.align	2
 2477              	.L166:
 2478 0038 0300C200 		.word	12713987
 2479              		.cfi_endproc
 2480              	.LFE50:
 2481              		.size	Cy_Prot_EnablePpuProgMasterStruct, .-Cy_Prot_EnablePpuProgMasterStruct
 2482              		.section	.text.Cy_Prot_DisablePpuProgMasterStruct,"ax",%progbits
 2483              		.align	2
 2484              		.global	Cy_Prot_DisablePpuProgMasterStruct
 2485              		.code	16
 2486              		.thumb_func
 2487              		.type	Cy_Prot_DisablePpuProgMasterStruct, %function
 2488              	Cy_Prot_DisablePpuProgMasterStruct:
 2489              	.LFB51:
 821:Generated_Source\PSoC6\pdl\drivers\peripheral\prot/cy_prot.c **** 
 822:Generated_Source\PSoC6\pdl\drivers\peripheral\prot/cy_prot.c **** 
 823:Generated_Source\PSoC6\pdl\drivers\peripheral\prot/cy_prot.c **** /*******************************************************************************
 824:Generated_Source\PSoC6\pdl\drivers\peripheral\prot/cy_prot.c **** * Function Name: Cy_Prot_DisablePpuProgMasterStruct
 825:Generated_Source\PSoC6\pdl\drivers\peripheral\prot/cy_prot.c **** ****************************************************************************//**
 826:Generated_Source\PSoC6\pdl\drivers\peripheral\prot/cy_prot.c **** *
 827:Generated_Source\PSoC6\pdl\drivers\peripheral\prot/cy_prot.c **** * \brief Disables the Master PPU PROG structure.
 828:Generated_Source\PSoC6\pdl\drivers\peripheral\prot/cy_prot.c **** *
 829:Generated_Source\PSoC6\pdl\drivers\peripheral\prot/cy_prot.c **** * This is a PPU PROG master struct disable function. The PPU PROG protection 
 830:Generated_Source\PSoC6\pdl\drivers\peripheral\prot/cy_prot.c **** * settings will seize to take effect after successful completion of this 
 831:Generated_Source\PSoC6\pdl\drivers\peripheral\prot/cy_prot.c **** * function call.
 832:Generated_Source\PSoC6\pdl\drivers\peripheral\prot/cy_prot.c **** *
 833:Generated_Source\PSoC6\pdl\drivers\peripheral\prot/cy_prot.c **** * \param base
 834:Generated_Source\PSoC6\pdl\drivers\peripheral\prot/cy_prot.c **** * The base address for the protection unit structure being configured. 
 835:Generated_Source\PSoC6\pdl\drivers\peripheral\prot/cy_prot.c **** *
 836:Generated_Source\PSoC6\pdl\drivers\peripheral\prot/cy_prot.c **** * \return
 837:Generated_Source\PSoC6\pdl\drivers\peripheral\prot/cy_prot.c **** * Status of the function call.
 838:Generated_Source\PSoC6\pdl\drivers\peripheral\prot/cy_prot.c **** *
 839:Generated_Source\PSoC6\pdl\drivers\peripheral\prot/cy_prot.c **** *   Status               | Description
 840:Generated_Source\PSoC6\pdl\drivers\peripheral\prot/cy_prot.c **** *   ------------         | -----------
 841:Generated_Source\PSoC6\pdl\drivers\peripheral\prot/cy_prot.c **** *   CY_PROT_SUCCESS      | The Master PU struct was disabled
 842:Generated_Source\PSoC6\pdl\drivers\peripheral\prot/cy_prot.c **** *   CY_PROT_FAILURE      | The Master PU struct is enabled and possibly locked
 843:Generated_Source\PSoC6\pdl\drivers\peripheral\prot/cy_prot.c **** *
 844:Generated_Source\PSoC6\pdl\drivers\peripheral\prot/cy_prot.c **** * \funcusage
 845:Generated_Source\PSoC6\pdl\drivers\peripheral\prot/cy_prot.c **** * \snippet prot/prot_v1_10_sut_01.cydsn/main_cm4.c snippet_Cy_Prot_DisablePpuProgMasterStruct
 846:Generated_Source\PSoC6\pdl\drivers\peripheral\prot/cy_prot.c **** *
 847:Generated_Source\PSoC6\pdl\drivers\peripheral\prot/cy_prot.c **** *******************************************************************************/
 848:Generated_Source\PSoC6\pdl\drivers\peripheral\prot/cy_prot.c **** cy_en_prot_status_t Cy_Prot_DisablePpuProgMasterStruct(PERI_PPU_PR_Type* base)
 849:Generated_Source\PSoC6\pdl\drivers\peripheral\prot/cy_prot.c **** {
 2490              		.loc 1 849 0
 2491              		.cfi_startproc
 2492              		@ args = 0, pretend = 0, frame = 16
 2493              		@ frame_needed = 1, uses_anonymous_args = 0
 2494 0000 80B5     		push	{r7, lr}
 2495              		.cfi_def_cfa_offset 8
 2496              		.cfi_offset 7, -8
 2497              		.cfi_offset 14, -4
 2498 0002 84B0     		sub	sp, sp, #16
ARM GAS  C:\Users\salaz\AppData\Local\Temp\ccSSnxm1.s 			page 60


 2499              		.cfi_def_cfa_offset 24
 2500 0004 00AF     		add	r7, sp, #0
 2501              		.cfi_def_cfa_register 7
 2502 0006 7860     		str	r0, [r7, #4]
 850:Generated_Source\PSoC6\pdl\drivers\peripheral\prot/cy_prot.c ****     cy_en_prot_status_t status;
 851:Generated_Source\PSoC6\pdl\drivers\peripheral\prot/cy_prot.c ****     
 852:Generated_Source\PSoC6\pdl\drivers\peripheral\prot/cy_prot.c ****     base->ATT1 &= ~_VAL2FLD(PERI_PPU_PR_ATT1_ENABLED, CY_PROT_STRUCT_ENABLE);
 2503              		.loc 1 852 0
 2504 0008 7B68     		ldr	r3, [r7, #4]
 2505 000a 5B6A     		ldr	r3, [r3, #36]
 2506 000c 5B00     		lsls	r3, r3, #1
 2507 000e 5A08     		lsrs	r2, r3, #1
 2508 0010 7B68     		ldr	r3, [r7, #4]
 2509 0012 5A62     		str	r2, [r3, #36]
 853:Generated_Source\PSoC6\pdl\drivers\peripheral\prot/cy_prot.c ****     status = (_FLD2VAL(PERI_PPU_PR_ATT1_ENABLED, base->ATT1) == CY_PROT_STRUCT_ENABLE) ?
 2510              		.loc 1 853 0
 2511 0014 7B68     		ldr	r3, [r7, #4]
 2512 0016 5B6A     		ldr	r3, [r3, #36]
 2513 0018 DB0F     		lsrs	r3, r3, #31
 2514 001a DB07     		lsls	r3, r3, #31
 2515 001c DB0F     		lsrs	r3, r3, #31
 2516 001e 012B     		cmp	r3, #1
 2517 0020 01D1     		bne	.L169
 2518              		.loc 1 853 0 is_stmt 0 discriminator 1
 2519 0022 044B     		ldr	r3, .L172
 2520 0024 00E0     		b	.L170
 2521              	.L169:
 2522              		.loc 1 853 0 discriminator 2
 2523 0026 0023     		movs	r3, #0
 2524              	.L170:
 2525              		.loc 1 853 0 discriminator 4
 2526 0028 FB60     		str	r3, [r7, #12]
 854:Generated_Source\PSoC6\pdl\drivers\peripheral\prot/cy_prot.c ****                 CY_PROT_FAILURE : CY_PROT_SUCCESS;
 855:Generated_Source\PSoC6\pdl\drivers\peripheral\prot/cy_prot.c ****     
 856:Generated_Source\PSoC6\pdl\drivers\peripheral\prot/cy_prot.c ****     return status;
 2527              		.loc 1 856 0 is_stmt 1 discriminator 4
 2528 002a FB68     		ldr	r3, [r7, #12]
 857:Generated_Source\PSoC6\pdl\drivers\peripheral\prot/cy_prot.c **** }
 2529              		.loc 1 857 0 discriminator 4
 2530 002c 1800     		movs	r0, r3
 2531 002e BD46     		mov	sp, r7
 2532 0030 04B0     		add	sp, sp, #16
 2533              		@ sp needed
 2534 0032 80BD     		pop	{r7, pc}
 2535              	.L173:
 2536              		.align	2
 2537              	.L172:
 2538 0034 0300C200 		.word	12713987
 2539              		.cfi_endproc
 2540              	.LFE51:
 2541              		.size	Cy_Prot_DisablePpuProgMasterStruct, .-Cy_Prot_DisablePpuProgMasterStruct
 2542              		.section	.text.Cy_Prot_EnablePpuProgSlaveStruct,"ax",%progbits
 2543              		.align	2
 2544              		.global	Cy_Prot_EnablePpuProgSlaveStruct
 2545              		.code	16
 2546              		.thumb_func
 2547              		.type	Cy_Prot_EnablePpuProgSlaveStruct, %function
ARM GAS  C:\Users\salaz\AppData\Local\Temp\ccSSnxm1.s 			page 61


 2548              	Cy_Prot_EnablePpuProgSlaveStruct:
 2549              	.LFB52:
 858:Generated_Source\PSoC6\pdl\drivers\peripheral\prot/cy_prot.c **** 
 859:Generated_Source\PSoC6\pdl\drivers\peripheral\prot/cy_prot.c **** 
 860:Generated_Source\PSoC6\pdl\drivers\peripheral\prot/cy_prot.c **** /*******************************************************************************
 861:Generated_Source\PSoC6\pdl\drivers\peripheral\prot/cy_prot.c **** * Function Name: Cy_Prot_EnablePpuProgSlaveStruct
 862:Generated_Source\PSoC6\pdl\drivers\peripheral\prot/cy_prot.c **** ****************************************************************************//**
 863:Generated_Source\PSoC6\pdl\drivers\peripheral\prot/cy_prot.c **** *
 864:Generated_Source\PSoC6\pdl\drivers\peripheral\prot/cy_prot.c **** * \brief Enables the Slave PPU PROG structure.
 865:Generated_Source\PSoC6\pdl\drivers\peripheral\prot/cy_prot.c **** *
 866:Generated_Source\PSoC6\pdl\drivers\peripheral\prot/cy_prot.c **** * This is a PPU PROG slave struct enable function. The PPU PROG protection 
 867:Generated_Source\PSoC6\pdl\drivers\peripheral\prot/cy_prot.c **** * settings will take effect after successful completion of this function call.
 868:Generated_Source\PSoC6\pdl\drivers\peripheral\prot/cy_prot.c **** *
 869:Generated_Source\PSoC6\pdl\drivers\peripheral\prot/cy_prot.c **** * \param base
 870:Generated_Source\PSoC6\pdl\drivers\peripheral\prot/cy_prot.c **** * The base address for the protection unit structure being configured. 
 871:Generated_Source\PSoC6\pdl\drivers\peripheral\prot/cy_prot.c **** *
 872:Generated_Source\PSoC6\pdl\drivers\peripheral\prot/cy_prot.c **** * \return
 873:Generated_Source\PSoC6\pdl\drivers\peripheral\prot/cy_prot.c **** * Status of the function call.
 874:Generated_Source\PSoC6\pdl\drivers\peripheral\prot/cy_prot.c **** *
 875:Generated_Source\PSoC6\pdl\drivers\peripheral\prot/cy_prot.c **** *   Status               | Description
 876:Generated_Source\PSoC6\pdl\drivers\peripheral\prot/cy_prot.c **** *   ------------         | -----------
 877:Generated_Source\PSoC6\pdl\drivers\peripheral\prot/cy_prot.c **** *   CY_PROT_SUCCESS      | The Slave PU struct was enabled
 878:Generated_Source\PSoC6\pdl\drivers\peripheral\prot/cy_prot.c **** *   CY_PROT_FAILURE      | The Slave PU struct is disabled and possibly locked
 879:Generated_Source\PSoC6\pdl\drivers\peripheral\prot/cy_prot.c **** *
 880:Generated_Source\PSoC6\pdl\drivers\peripheral\prot/cy_prot.c **** * \funcusage
 881:Generated_Source\PSoC6\pdl\drivers\peripheral\prot/cy_prot.c **** * \snippet prot/prot_v1_10_sut_01.cydsn/main_cm4.c snippet_Cy_Prot_EnablePpuProgSlaveStruct
 882:Generated_Source\PSoC6\pdl\drivers\peripheral\prot/cy_prot.c **** *
 883:Generated_Source\PSoC6\pdl\drivers\peripheral\prot/cy_prot.c **** *******************************************************************************/
 884:Generated_Source\PSoC6\pdl\drivers\peripheral\prot/cy_prot.c **** cy_en_prot_status_t Cy_Prot_EnablePpuProgSlaveStruct(PERI_PPU_PR_Type* base)
 885:Generated_Source\PSoC6\pdl\drivers\peripheral\prot/cy_prot.c **** {   
 2550              		.loc 1 885 0
 2551              		.cfi_startproc
 2552              		@ args = 0, pretend = 0, frame = 16
 2553              		@ frame_needed = 1, uses_anonymous_args = 0
 2554 0000 80B5     		push	{r7, lr}
 2555              		.cfi_def_cfa_offset 8
 2556              		.cfi_offset 7, -8
 2557              		.cfi_offset 14, -4
 2558 0002 84B0     		sub	sp, sp, #16
 2559              		.cfi_def_cfa_offset 24
 2560 0004 00AF     		add	r7, sp, #0
 2561              		.cfi_def_cfa_register 7
 2562 0006 7860     		str	r0, [r7, #4]
 886:Generated_Source\PSoC6\pdl\drivers\peripheral\prot/cy_prot.c ****     cy_en_prot_status_t status;
 887:Generated_Source\PSoC6\pdl\drivers\peripheral\prot/cy_prot.c ****     
 888:Generated_Source\PSoC6\pdl\drivers\peripheral\prot/cy_prot.c ****     base->ATT0 |= _VAL2FLD(PERI_PPU_PR_ATT0_ENABLED, CY_PROT_STRUCT_ENABLE);
 2563              		.loc 1 888 0
 2564 0008 7B68     		ldr	r3, [r7, #4]
 2565 000a 5B68     		ldr	r3, [r3, #4]
 2566 000c 8022     		movs	r2, #128
 2567 000e 1206     		lsls	r2, r2, #24
 2568 0010 1A43     		orrs	r2, r3
 2569 0012 7B68     		ldr	r3, [r7, #4]
 2570 0014 5A60     		str	r2, [r3, #4]
 889:Generated_Source\PSoC6\pdl\drivers\peripheral\prot/cy_prot.c ****     status = (_FLD2VAL(PERI_PPU_PR_ATT0_ENABLED, base->ATT0) != CY_PROT_STRUCT_ENABLE) ?
 2571              		.loc 1 889 0
 2572 0016 7B68     		ldr	r3, [r7, #4]
ARM GAS  C:\Users\salaz\AppData\Local\Temp\ccSSnxm1.s 			page 62


 2573 0018 5B68     		ldr	r3, [r3, #4]
 2574 001a DB0F     		lsrs	r3, r3, #31
 2575 001c DB07     		lsls	r3, r3, #31
 2576 001e DB0F     		lsrs	r3, r3, #31
 2577 0020 012B     		cmp	r3, #1
 2578 0022 01D0     		beq	.L175
 2579              		.loc 1 889 0 is_stmt 0 discriminator 1
 2580 0024 044B     		ldr	r3, .L178
 2581 0026 00E0     		b	.L176
 2582              	.L175:
 2583              		.loc 1 889 0 discriminator 2
 2584 0028 0023     		movs	r3, #0
 2585              	.L176:
 2586              		.loc 1 889 0 discriminator 4
 2587 002a FB60     		str	r3, [r7, #12]
 890:Generated_Source\PSoC6\pdl\drivers\peripheral\prot/cy_prot.c ****                 CY_PROT_FAILURE : CY_PROT_SUCCESS;
 891:Generated_Source\PSoC6\pdl\drivers\peripheral\prot/cy_prot.c ****     
 892:Generated_Source\PSoC6\pdl\drivers\peripheral\prot/cy_prot.c ****     return status;
 2588              		.loc 1 892 0 is_stmt 1 discriminator 4
 2589 002c FB68     		ldr	r3, [r7, #12]
 893:Generated_Source\PSoC6\pdl\drivers\peripheral\prot/cy_prot.c **** }
 2590              		.loc 1 893 0 discriminator 4
 2591 002e 1800     		movs	r0, r3
 2592 0030 BD46     		mov	sp, r7
 2593 0032 04B0     		add	sp, sp, #16
 2594              		@ sp needed
 2595 0034 80BD     		pop	{r7, pc}
 2596              	.L179:
 2597 0036 C046     		.align	2
 2598              	.L178:
 2599 0038 0300C200 		.word	12713987
 2600              		.cfi_endproc
 2601              	.LFE52:
 2602              		.size	Cy_Prot_EnablePpuProgSlaveStruct, .-Cy_Prot_EnablePpuProgSlaveStruct
 2603              		.section	.text.Cy_Prot_DisablePpuProgSlaveStruct,"ax",%progbits
 2604              		.align	2
 2605              		.global	Cy_Prot_DisablePpuProgSlaveStruct
 2606              		.code	16
 2607              		.thumb_func
 2608              		.type	Cy_Prot_DisablePpuProgSlaveStruct, %function
 2609              	Cy_Prot_DisablePpuProgSlaveStruct:
 2610              	.LFB53:
 894:Generated_Source\PSoC6\pdl\drivers\peripheral\prot/cy_prot.c **** 
 895:Generated_Source\PSoC6\pdl\drivers\peripheral\prot/cy_prot.c **** 
 896:Generated_Source\PSoC6\pdl\drivers\peripheral\prot/cy_prot.c **** /*******************************************************************************
 897:Generated_Source\PSoC6\pdl\drivers\peripheral\prot/cy_prot.c **** * Function Name: Cy_Prot_DisablePpuProgSlaveStruct
 898:Generated_Source\PSoC6\pdl\drivers\peripheral\prot/cy_prot.c **** ****************************************************************************//**
 899:Generated_Source\PSoC6\pdl\drivers\peripheral\prot/cy_prot.c **** *
 900:Generated_Source\PSoC6\pdl\drivers\peripheral\prot/cy_prot.c **** * \brief Disables the Slave PPU PROG structure.
 901:Generated_Source\PSoC6\pdl\drivers\peripheral\prot/cy_prot.c **** *
 902:Generated_Source\PSoC6\pdl\drivers\peripheral\prot/cy_prot.c **** * This is a PPU PROG slave struct disable function. The PPU PROG protection 
 903:Generated_Source\PSoC6\pdl\drivers\peripheral\prot/cy_prot.c **** * settings will seize to take effect after successful completion of this 
 904:Generated_Source\PSoC6\pdl\drivers\peripheral\prot/cy_prot.c **** * function call.
 905:Generated_Source\PSoC6\pdl\drivers\peripheral\prot/cy_prot.c **** *
 906:Generated_Source\PSoC6\pdl\drivers\peripheral\prot/cy_prot.c **** * \param base
 907:Generated_Source\PSoC6\pdl\drivers\peripheral\prot/cy_prot.c **** * The base address for the protection unit structure being configured. 
 908:Generated_Source\PSoC6\pdl\drivers\peripheral\prot/cy_prot.c **** *
ARM GAS  C:\Users\salaz\AppData\Local\Temp\ccSSnxm1.s 			page 63


 909:Generated_Source\PSoC6\pdl\drivers\peripheral\prot/cy_prot.c **** * \return
 910:Generated_Source\PSoC6\pdl\drivers\peripheral\prot/cy_prot.c **** * Status of the function call.
 911:Generated_Source\PSoC6\pdl\drivers\peripheral\prot/cy_prot.c **** *
 912:Generated_Source\PSoC6\pdl\drivers\peripheral\prot/cy_prot.c **** *   Status               | Description
 913:Generated_Source\PSoC6\pdl\drivers\peripheral\prot/cy_prot.c **** *   ------------         | -----------
 914:Generated_Source\PSoC6\pdl\drivers\peripheral\prot/cy_prot.c **** *   CY_PROT_SUCCESS      | The Slave PU struct was disabled
 915:Generated_Source\PSoC6\pdl\drivers\peripheral\prot/cy_prot.c **** *   CY_PROT_FAILURE      | The Slave PU struct is enabled and possibly locked
 916:Generated_Source\PSoC6\pdl\drivers\peripheral\prot/cy_prot.c **** *
 917:Generated_Source\PSoC6\pdl\drivers\peripheral\prot/cy_prot.c **** * \funcusage
 918:Generated_Source\PSoC6\pdl\drivers\peripheral\prot/cy_prot.c **** * \snippet prot/prot_v1_10_sut_01.cydsn/main_cm4.c snippet_Cy_Prot_DisablePpuProgSlaveStruct
 919:Generated_Source\PSoC6\pdl\drivers\peripheral\prot/cy_prot.c **** *
 920:Generated_Source\PSoC6\pdl\drivers\peripheral\prot/cy_prot.c **** *******************************************************************************/
 921:Generated_Source\PSoC6\pdl\drivers\peripheral\prot/cy_prot.c **** cy_en_prot_status_t Cy_Prot_DisablePpuProgSlaveStruct(PERI_PPU_PR_Type* base)
 922:Generated_Source\PSoC6\pdl\drivers\peripheral\prot/cy_prot.c **** {
 2611              		.loc 1 922 0
 2612              		.cfi_startproc
 2613              		@ args = 0, pretend = 0, frame = 16
 2614              		@ frame_needed = 1, uses_anonymous_args = 0
 2615 0000 80B5     		push	{r7, lr}
 2616              		.cfi_def_cfa_offset 8
 2617              		.cfi_offset 7, -8
 2618              		.cfi_offset 14, -4
 2619 0002 84B0     		sub	sp, sp, #16
 2620              		.cfi_def_cfa_offset 24
 2621 0004 00AF     		add	r7, sp, #0
 2622              		.cfi_def_cfa_register 7
 2623 0006 7860     		str	r0, [r7, #4]
 923:Generated_Source\PSoC6\pdl\drivers\peripheral\prot/cy_prot.c ****     cy_en_prot_status_t status;
 924:Generated_Source\PSoC6\pdl\drivers\peripheral\prot/cy_prot.c ****     
 925:Generated_Source\PSoC6\pdl\drivers\peripheral\prot/cy_prot.c ****     base->ATT0 &= ~_VAL2FLD(PERI_PPU_PR_ATT0_ENABLED, CY_PROT_STRUCT_ENABLE);
 2624              		.loc 1 925 0
 2625 0008 7B68     		ldr	r3, [r7, #4]
 2626 000a 5B68     		ldr	r3, [r3, #4]
 2627 000c 5B00     		lsls	r3, r3, #1
 2628 000e 5A08     		lsrs	r2, r3, #1
 2629 0010 7B68     		ldr	r3, [r7, #4]
 2630 0012 5A60     		str	r2, [r3, #4]
 926:Generated_Source\PSoC6\pdl\drivers\peripheral\prot/cy_prot.c ****     status = (_FLD2VAL(PERI_PPU_PR_ATT0_ENABLED, base->ATT0) == CY_PROT_STRUCT_ENABLE) ?
 2631              		.loc 1 926 0
 2632 0014 7B68     		ldr	r3, [r7, #4]
 2633 0016 5B68     		ldr	r3, [r3, #4]
 2634 0018 DB0F     		lsrs	r3, r3, #31
 2635 001a DB07     		lsls	r3, r3, #31
 2636 001c DB0F     		lsrs	r3, r3, #31
 2637 001e 012B     		cmp	r3, #1
 2638 0020 01D1     		bne	.L181
 2639              		.loc 1 926 0 is_stmt 0 discriminator 1
 2640 0022 044B     		ldr	r3, .L184
 2641 0024 00E0     		b	.L182
 2642              	.L181:
 2643              		.loc 1 926 0 discriminator 2
 2644 0026 0023     		movs	r3, #0
 2645              	.L182:
 2646              		.loc 1 926 0 discriminator 4
 2647 0028 FB60     		str	r3, [r7, #12]
 927:Generated_Source\PSoC6\pdl\drivers\peripheral\prot/cy_prot.c ****                 CY_PROT_FAILURE : CY_PROT_SUCCESS;
 928:Generated_Source\PSoC6\pdl\drivers\peripheral\prot/cy_prot.c ****     
ARM GAS  C:\Users\salaz\AppData\Local\Temp\ccSSnxm1.s 			page 64


 929:Generated_Source\PSoC6\pdl\drivers\peripheral\prot/cy_prot.c ****     return status;
 2648              		.loc 1 929 0 is_stmt 1 discriminator 4
 2649 002a FB68     		ldr	r3, [r7, #12]
 930:Generated_Source\PSoC6\pdl\drivers\peripheral\prot/cy_prot.c **** }
 2650              		.loc 1 930 0 discriminator 4
 2651 002c 1800     		movs	r0, r3
 2652 002e BD46     		mov	sp, r7
 2653 0030 04B0     		add	sp, sp, #16
 2654              		@ sp needed
 2655 0032 80BD     		pop	{r7, pc}
 2656              	.L185:
 2657              		.align	2
 2658              	.L184:
 2659 0034 0300C200 		.word	12713987
 2660              		.cfi_endproc
 2661              	.LFE53:
 2662              		.size	Cy_Prot_DisablePpuProgSlaveStruct, .-Cy_Prot_DisablePpuProgSlaveStruct
 2663              		.section	.text.Cy_Prot_ConfigPpuFixedGrMasterStruct,"ax",%progbits
 2664              		.align	2
 2665              		.global	Cy_Prot_ConfigPpuFixedGrMasterStruct
 2666              		.code	16
 2667              		.thumb_func
 2668              		.type	Cy_Prot_ConfigPpuFixedGrMasterStruct, %function
 2669              	Cy_Prot_ConfigPpuFixedGrMasterStruct:
 2670              	.LFB54:
 931:Generated_Source\PSoC6\pdl\drivers\peripheral\prot/cy_prot.c **** 
 932:Generated_Source\PSoC6\pdl\drivers\peripheral\prot/cy_prot.c **** 
 933:Generated_Source\PSoC6\pdl\drivers\peripheral\prot/cy_prot.c **** /*******************************************************************************
 934:Generated_Source\PSoC6\pdl\drivers\peripheral\prot/cy_prot.c **** * Function Name: Cy_Prot_ConfigPpuFixedGrMasterStruct
 935:Generated_Source\PSoC6\pdl\drivers\peripheral\prot/cy_prot.c **** ****************************************************************************//**
 936:Generated_Source\PSoC6\pdl\drivers\peripheral\prot/cy_prot.c **** *
 937:Generated_Source\PSoC6\pdl\drivers\peripheral\prot/cy_prot.c **** * \brief Configures a Fixed Peripheral Group Protection Unit (PPU GR) master 
 938:Generated_Source\PSoC6\pdl\drivers\peripheral\prot/cy_prot.c **** * protection struct with its protection attributes. 
 939:Generated_Source\PSoC6\pdl\drivers\peripheral\prot/cy_prot.c **** *
 940:Generated_Source\PSoC6\pdl\drivers\peripheral\prot/cy_prot.c **** * This function configures the master struct governing the corresponding slave
 941:Generated_Source\PSoC6\pdl\drivers\peripheral\prot/cy_prot.c **** * struct pair. It is a mechanism to protect the slave PPU GR struct. Since
 942:Generated_Source\PSoC6\pdl\drivers\peripheral\prot/cy_prot.c **** * the memory location of the slave struct is known, the address, regionSize and
 943:Generated_Source\PSoC6\pdl\drivers\peripheral\prot/cy_prot.c **** * subregions of the configuration struct are not applicable.
 944:Generated_Source\PSoC6\pdl\drivers\peripheral\prot/cy_prot.c **** *
 945:Generated_Source\PSoC6\pdl\drivers\peripheral\prot/cy_prot.c **** * Note that only the user/privileged write permissions are configurable. The 
 946:Generated_Source\PSoC6\pdl\drivers\peripheral\prot/cy_prot.c **** * read and execute permissions are read-only and cannot be configured.
 947:Generated_Source\PSoC6\pdl\drivers\peripheral\prot/cy_prot.c **** *
 948:Generated_Source\PSoC6\pdl\drivers\peripheral\prot/cy_prot.c **** * \param base
 949:Generated_Source\PSoC6\pdl\drivers\peripheral\prot/cy_prot.c **** * The register base address of the protection struct being configured.
 950:Generated_Source\PSoC6\pdl\drivers\peripheral\prot/cy_prot.c **** * 
 951:Generated_Source\PSoC6\pdl\drivers\peripheral\prot/cy_prot.c **** * \param config
 952:Generated_Source\PSoC6\pdl\drivers\peripheral\prot/cy_prot.c **** * Initialization structure with all the protection attributes.
 953:Generated_Source\PSoC6\pdl\drivers\peripheral\prot/cy_prot.c **** * 
 954:Generated_Source\PSoC6\pdl\drivers\peripheral\prot/cy_prot.c **** * \return
 955:Generated_Source\PSoC6\pdl\drivers\peripheral\prot/cy_prot.c **** * Status of the function call.
 956:Generated_Source\PSoC6\pdl\drivers\peripheral\prot/cy_prot.c **** *
 957:Generated_Source\PSoC6\pdl\drivers\peripheral\prot/cy_prot.c **** *   Status               | Description
 958:Generated_Source\PSoC6\pdl\drivers\peripheral\prot/cy_prot.c **** *   ------------         | -----------
 959:Generated_Source\PSoC6\pdl\drivers\peripheral\prot/cy_prot.c **** *   CY_PROT_SUCCESS      | PPU GR master struct was successfully configured
 960:Generated_Source\PSoC6\pdl\drivers\peripheral\prot/cy_prot.c **** *   CY_PROT_FAILURE      | The resource is locked
 961:Generated_Source\PSoC6\pdl\drivers\peripheral\prot/cy_prot.c **** *   CY_PROT_BAD_PARAM    | An incorrect/invalid parameter was passed
 962:Generated_Source\PSoC6\pdl\drivers\peripheral\prot/cy_prot.c **** *
ARM GAS  C:\Users\salaz\AppData\Local\Temp\ccSSnxm1.s 			page 65


 963:Generated_Source\PSoC6\pdl\drivers\peripheral\prot/cy_prot.c **** * \funcusage
 964:Generated_Source\PSoC6\pdl\drivers\peripheral\prot/cy_prot.c **** * \snippet prot/prot_v1_10_sut_01.cydsn/main_cm4.c snippet_Cy_Prot_ConfigPpuFixedGrMasterStruct
 965:Generated_Source\PSoC6\pdl\drivers\peripheral\prot/cy_prot.c **** *
 966:Generated_Source\PSoC6\pdl\drivers\peripheral\prot/cy_prot.c **** *******************************************************************************/
 967:Generated_Source\PSoC6\pdl\drivers\peripheral\prot/cy_prot.c **** cy_en_prot_status_t Cy_Prot_ConfigPpuFixedGrMasterStruct(PERI_PPU_GR_Type* base, const cy_stc_ppu_g
 968:Generated_Source\PSoC6\pdl\drivers\peripheral\prot/cy_prot.c **** {
 2671              		.loc 1 968 0
 2672              		.cfi_startproc
 2673              		@ args = 0, pretend = 0, frame = 16
 2674              		@ frame_needed = 1, uses_anonymous_args = 0
 2675 0000 80B5     		push	{r7, lr}
 2676              		.cfi_def_cfa_offset 8
 2677              		.cfi_offset 7, -8
 2678              		.cfi_offset 14, -4
 2679 0002 84B0     		sub	sp, sp, #16
 2680              		.cfi_def_cfa_offset 24
 2681 0004 00AF     		add	r7, sp, #0
 2682              		.cfi_def_cfa_register 7
 2683 0006 7860     		str	r0, [r7, #4]
 2684 0008 3960     		str	r1, [r7]
 969:Generated_Source\PSoC6\pdl\drivers\peripheral\prot/cy_prot.c ****     cy_en_prot_status_t status;
 970:Generated_Source\PSoC6\pdl\drivers\peripheral\prot/cy_prot.c ****     uint32_t attReg;
 971:Generated_Source\PSoC6\pdl\drivers\peripheral\prot/cy_prot.c ****     
 972:Generated_Source\PSoC6\pdl\drivers\peripheral\prot/cy_prot.c ****     CY_ASSERT_L1(NULL != base);
 2685              		.loc 1 972 0
 2686 000a 7B68     		ldr	r3, [r7, #4]
 2687 000c 002B     		cmp	r3, #0
 2688 000e 06D1     		bne	.L187
 2689              		.loc 1 972 0 is_stmt 0 discriminator 1
 2690 0010 F323     		movs	r3, #243
 2691 0012 9A00     		lsls	r2, r3, #2
 2692 0014 344B     		ldr	r3, .L196
 2693 0016 1100     		movs	r1, r2
 2694 0018 1800     		movs	r0, r3
 2695 001a FFF7FEFF 		bl	Cy_SysLib_AssertFailed
 2696              	.L187:
 973:Generated_Source\PSoC6\pdl\drivers\peripheral\prot/cy_prot.c ****     CY_ASSERT_L3(CY_PROT_IS_FIXED_MS_PERM_VALID(config->userPermission));
 2697              		.loc 1 973 0 is_stmt 1
 2698 001e 3B68     		ldr	r3, [r7]
 2699 0020 1B78     		ldrb	r3, [r3]
 2700 0022 012B     		cmp	r3, #1
 2701 0024 09D0     		beq	.L188
 2702              		.loc 1 973 0 is_stmt 0 discriminator 1
 2703 0026 3B68     		ldr	r3, [r7]
 2704 0028 1B78     		ldrb	r3, [r3]
 2705 002a 032B     		cmp	r3, #3
 2706 002c 05D0     		beq	.L188
 2707              		.loc 1 973 0 discriminator 2
 2708 002e 2F4A     		ldr	r2, .L196+4
 2709 0030 2D4B     		ldr	r3, .L196
 2710 0032 1100     		movs	r1, r2
 2711 0034 1800     		movs	r0, r3
 2712 0036 FFF7FEFF 		bl	Cy_SysLib_AssertFailed
 2713              	.L188:
 974:Generated_Source\PSoC6\pdl\drivers\peripheral\prot/cy_prot.c ****     CY_ASSERT_L3(CY_PROT_IS_FIXED_MS_PERM_VALID(config->privPermission));
 2714              		.loc 1 974 0 is_stmt 1
 2715 003a 3B68     		ldr	r3, [r7]
ARM GAS  C:\Users\salaz\AppData\Local\Temp\ccSSnxm1.s 			page 66


 2716 003c 5B78     		ldrb	r3, [r3, #1]
 2717 003e 012B     		cmp	r3, #1
 2718 0040 09D0     		beq	.L189
 2719              		.loc 1 974 0 is_stmt 0 discriminator 1
 2720 0042 3B68     		ldr	r3, [r7]
 2721 0044 5B78     		ldrb	r3, [r3, #1]
 2722 0046 032B     		cmp	r3, #3
 2723 0048 05D0     		beq	.L189
 2724              		.loc 1 974 0 discriminator 2
 2725 004a 294A     		ldr	r2, .L196+8
 2726 004c 264B     		ldr	r3, .L196
 2727 004e 1100     		movs	r1, r2
 2728 0050 1800     		movs	r0, r3
 2729 0052 FFF7FEFF 		bl	Cy_SysLib_AssertFailed
 2730              	.L189:
 975:Generated_Source\PSoC6\pdl\drivers\peripheral\prot/cy_prot.c ****     
 976:Generated_Source\PSoC6\pdl\drivers\peripheral\prot/cy_prot.c ****     if(((uint32_t)config->pcMask & CY_PROT_PPU_FIXED_PC_LIMIT_MASK) != 0UL) 
 2731              		.loc 1 976 0 is_stmt 1
 2732 0056 3B68     		ldr	r3, [r7]
 2733 0058 9B88     		ldrh	r3, [r3, #4]
 2734 005a 1A00     		movs	r2, r3
 2735 005c 7F23     		movs	r3, #127
 2736 005e 9A43     		bics	r2, r3
 2737 0060 131E     		subs	r3, r2, #0
 2738 0062 02D0     		beq	.L190
 977:Generated_Source\PSoC6\pdl\drivers\peripheral\prot/cy_prot.c ****     {
 978:Generated_Source\PSoC6\pdl\drivers\peripheral\prot/cy_prot.c ****         /* PC mask out of range - not supported in device */
 979:Generated_Source\PSoC6\pdl\drivers\peripheral\prot/cy_prot.c ****         status = CY_PROT_BAD_PARAM;
 2739              		.loc 1 979 0
 2740 0064 234B     		ldr	r3, .L196+12
 2741 0066 FB60     		str	r3, [r7, #12]
 2742 0068 38E0     		b	.L191
 2743              	.L190:
 980:Generated_Source\PSoC6\pdl\drivers\peripheral\prot/cy_prot.c ****     }
 981:Generated_Source\PSoC6\pdl\drivers\peripheral\prot/cy_prot.c ****     else
 982:Generated_Source\PSoC6\pdl\drivers\peripheral\prot/cy_prot.c ****     {
 983:Generated_Source\PSoC6\pdl\drivers\peripheral\prot/cy_prot.c ****         /* ADDR1 is read only. Only configure ATT1 */
 984:Generated_Source\PSoC6\pdl\drivers\peripheral\prot/cy_prot.c ****         attReg = (((uint32_t)config->userPermission & CY_PROT_ATT_PERMISSION_MASK))
 2744              		.loc 1 984 0
 2745 006a 3B68     		ldr	r3, [r7]
 2746 006c 1B78     		ldrb	r3, [r3]
 2747 006e 1A00     		movs	r2, r3
 2748 0070 0723     		movs	r3, #7
 2749 0072 1A40     		ands	r2, r3
 985:Generated_Source\PSoC6\pdl\drivers\peripheral\prot/cy_prot.c ****                     | (uint32_t)(((uint32_t)config->privPermission & CY_PROT_ATT_PERMISSION_MASK) <
 2750              		.loc 1 985 0
 2751 0074 3B68     		ldr	r3, [r7]
 2752 0076 5B78     		ldrb	r3, [r3, #1]
 2753 0078 DB00     		lsls	r3, r3, #3
 2754 007a 3821     		movs	r1, #56
 2755 007c 0B40     		ands	r3, r1
 2756 007e 1A43     		orrs	r2, r3
 986:Generated_Source\PSoC6\pdl\drivers\peripheral\prot/cy_prot.c ****                     | _VAL2FLD(PERI_PPU_GR_ATT1_NS, !(config->secure))
 2757              		.loc 1 986 0
 2758 0080 3B68     		ldr	r3, [r7]
 2759 0082 9B78     		ldrb	r3, [r3, #2]
 2760 0084 0121     		movs	r1, #1
ARM GAS  C:\Users\salaz\AppData\Local\Temp\ccSSnxm1.s 			page 67


 2761 0086 4B40     		eors	r3, r1
 2762 0088 DBB2     		uxtb	r3, r3
 2763 008a 9B01     		lsls	r3, r3, #6
 2764 008c 4021     		movs	r1, #64
 2765 008e 0B40     		ands	r3, r1
 2766 0090 1A43     		orrs	r2, r3
 987:Generated_Source\PSoC6\pdl\drivers\peripheral\prot/cy_prot.c ****                     | _VAL2FLD(PERI_PPU_GR_ATT1_PC_MASK_15_TO_1, config->pcMask)
 2767              		.loc 1 987 0
 2768 0092 3B68     		ldr	r3, [r7]
 2769 0094 9B88     		ldrh	r3, [r3, #4]
 2770 0096 5B02     		lsls	r3, r3, #9
 2771 0098 1749     		ldr	r1, .L196+16
 2772 009a 0B40     		ands	r3, r1
 2773 009c 1A43     		orrs	r2, r3
 988:Generated_Source\PSoC6\pdl\drivers\peripheral\prot/cy_prot.c ****                     /* No region size - read only for master structs */
 989:Generated_Source\PSoC6\pdl\drivers\peripheral\prot/cy_prot.c ****                     | _VAL2FLD(PERI_PPU_GR_ATT1_PC_MATCH, config->pcMatch);
 2774              		.loc 1 989 0
 2775 009e 3B68     		ldr	r3, [r7]
 2776 00a0 DB78     		ldrb	r3, [r3, #3]
 2777 00a2 9907     		lsls	r1, r3, #30
 2778 00a4 8023     		movs	r3, #128
 2779 00a6 DB05     		lsls	r3, r3, #23
 2780 00a8 0B40     		ands	r3, r1
 984:Generated_Source\PSoC6\pdl\drivers\peripheral\prot/cy_prot.c ****                     | (uint32_t)(((uint32_t)config->privPermission & CY_PROT_ATT_PERMISSION_MASK) <
 2781              		.loc 1 984 0
 2782 00aa 1343     		orrs	r3, r2
 2783 00ac BB60     		str	r3, [r7, #8]
 990:Generated_Source\PSoC6\pdl\drivers\peripheral\prot/cy_prot.c ****         if ((attReg & CY_PROT_PPU_GR_ATT1_MASK) != attReg)
 2784              		.loc 1 990 0
 2785 00ae BB68     		ldr	r3, [r7, #8]
 2786 00b0 124A     		ldr	r2, .L196+20
 2787 00b2 1A40     		ands	r2, r3
 2788 00b4 BB68     		ldr	r3, [r7, #8]
 2789 00b6 9A42     		cmp	r2, r3
 2790 00b8 02D0     		beq	.L192
 991:Generated_Source\PSoC6\pdl\drivers\peripheral\prot/cy_prot.c ****         {
 992:Generated_Source\PSoC6\pdl\drivers\peripheral\prot/cy_prot.c ****             /* Invalid parameter was passed */
 993:Generated_Source\PSoC6\pdl\drivers\peripheral\prot/cy_prot.c ****             status = CY_PROT_BAD_PARAM;
 2791              		.loc 1 993 0
 2792 00ba 0E4B     		ldr	r3, .L196+12
 2793 00bc FB60     		str	r3, [r7, #12]
 2794 00be 0DE0     		b	.L191
 2795              	.L192:
 994:Generated_Source\PSoC6\pdl\drivers\peripheral\prot/cy_prot.c ****         }
 995:Generated_Source\PSoC6\pdl\drivers\peripheral\prot/cy_prot.c ****         else
 996:Generated_Source\PSoC6\pdl\drivers\peripheral\prot/cy_prot.c ****         {
 997:Generated_Source\PSoC6\pdl\drivers\peripheral\prot/cy_prot.c ****             base->ATT1 = attReg;
 2796              		.loc 1 997 0
 2797 00c0 7B68     		ldr	r3, [r7, #4]
 2798 00c2 BA68     		ldr	r2, [r7, #8]
 2799 00c4 5A62     		str	r2, [r3, #36]
 998:Generated_Source\PSoC6\pdl\drivers\peripheral\prot/cy_prot.c ****             status = ((base->ATT1 & CY_PROT_PPU_GR_ATT1_MASK) != attReg) ? CY_PROT_FAILURE : CY_PRO
 2800              		.loc 1 998 0
 2801 00c6 7B68     		ldr	r3, [r7, #4]
 2802 00c8 5B6A     		ldr	r3, [r3, #36]
 2803 00ca 0C4A     		ldr	r2, .L196+20
 2804 00cc 1A40     		ands	r2, r3
ARM GAS  C:\Users\salaz\AppData\Local\Temp\ccSSnxm1.s 			page 68


 2805 00ce BB68     		ldr	r3, [r7, #8]
 2806 00d0 9A42     		cmp	r2, r3
 2807 00d2 01D0     		beq	.L193
 2808              		.loc 1 998 0 is_stmt 0 discriminator 1
 2809 00d4 0A4B     		ldr	r3, .L196+24
 2810 00d6 00E0     		b	.L194
 2811              	.L193:
 2812              		.loc 1 998 0 discriminator 2
 2813 00d8 0023     		movs	r3, #0
 2814              	.L194:
 2815              		.loc 1 998 0 discriminator 4
 2816 00da FB60     		str	r3, [r7, #12]
 2817              	.L191:
 999:Generated_Source\PSoC6\pdl\drivers\peripheral\prot/cy_prot.c ****         }
1000:Generated_Source\PSoC6\pdl\drivers\peripheral\prot/cy_prot.c ****     }
1001:Generated_Source\PSoC6\pdl\drivers\peripheral\prot/cy_prot.c ****     
1002:Generated_Source\PSoC6\pdl\drivers\peripheral\prot/cy_prot.c ****     return status;
 2818              		.loc 1 1002 0 is_stmt 1
 2819 00dc FB68     		ldr	r3, [r7, #12]
1003:Generated_Source\PSoC6\pdl\drivers\peripheral\prot/cy_prot.c **** }
 2820              		.loc 1 1003 0
 2821 00de 1800     		movs	r0, r3
 2822 00e0 BD46     		mov	sp, r7
 2823 00e2 04B0     		add	sp, sp, #16
 2824              		@ sp needed
 2825 00e4 80BD     		pop	{r7, pc}
 2826              	.L197:
 2827 00e6 C046     		.align	2
 2828              	.L196:
 2829 00e8 00000000 		.word	.LC0
 2830 00ec CD030000 		.word	973
 2831 00f0 CE030000 		.word	974
 2832 00f4 0100C200 		.word	12713985
 2833 00f8 00FEFF00 		.word	16776704
 2834 00fc DBFEFFE0 		.word	-520093989
 2835 0100 0300C200 		.word	12713987
 2836              		.cfi_endproc
 2837              	.LFE54:
 2838              		.size	Cy_Prot_ConfigPpuFixedGrMasterStruct, .-Cy_Prot_ConfigPpuFixedGrMasterStruct
 2839              		.section	.text.Cy_Prot_ConfigPpuFixedGrSlaveStruct,"ax",%progbits
 2840              		.align	2
 2841              		.global	Cy_Prot_ConfigPpuFixedGrSlaveStruct
 2842              		.code	16
 2843              		.thumb_func
 2844              		.type	Cy_Prot_ConfigPpuFixedGrSlaveStruct, %function
 2845              	Cy_Prot_ConfigPpuFixedGrSlaveStruct:
 2846              	.LFB55:
1004:Generated_Source\PSoC6\pdl\drivers\peripheral\prot/cy_prot.c **** 
1005:Generated_Source\PSoC6\pdl\drivers\peripheral\prot/cy_prot.c **** 
1006:Generated_Source\PSoC6\pdl\drivers\peripheral\prot/cy_prot.c **** /*******************************************************************************
1007:Generated_Source\PSoC6\pdl\drivers\peripheral\prot/cy_prot.c **** * Function Name: Cy_Prot_ConfigPpuFixedGrSlaveStruct
1008:Generated_Source\PSoC6\pdl\drivers\peripheral\prot/cy_prot.c **** ****************************************************************************//**
1009:Generated_Source\PSoC6\pdl\drivers\peripheral\prot/cy_prot.c **** *
1010:Generated_Source\PSoC6\pdl\drivers\peripheral\prot/cy_prot.c **** * \brief Configures a Fixed Peripheral Group Protection Unit (PPU GR) slave
1011:Generated_Source\PSoC6\pdl\drivers\peripheral\prot/cy_prot.c **** * protection struct with its protection attributes. 
1012:Generated_Source\PSoC6\pdl\drivers\peripheral\prot/cy_prot.c **** * 
1013:Generated_Source\PSoC6\pdl\drivers\peripheral\prot/cy_prot.c **** * This function configures the slave struct of a PPU GR pair, which can 
ARM GAS  C:\Users\salaz\AppData\Local\Temp\ccSSnxm1.s 			page 69


1014:Generated_Source\PSoC6\pdl\drivers\peripheral\prot/cy_prot.c **** * protect an entire peripheral MMIO group from invalid bus master accesses.
1015:Generated_Source\PSoC6\pdl\drivers\peripheral\prot/cy_prot.c **** * Refer to the device Technical Reference manual for details on peripheral
1016:Generated_Source\PSoC6\pdl\drivers\peripheral\prot/cy_prot.c **** * MMIO grouping and which peripherals belong to which groups.
1017:Generated_Source\PSoC6\pdl\drivers\peripheral\prot/cy_prot.c **** *
1018:Generated_Source\PSoC6\pdl\drivers\peripheral\prot/cy_prot.c **** * Each fixed PPU GR is devoted to a defined MMIO group. Hence the address, 
1019:Generated_Source\PSoC6\pdl\drivers\peripheral\prot/cy_prot.c **** * regionSize and subregions of the configuration struct are not applicable.
1020:Generated_Source\PSoC6\pdl\drivers\peripheral\prot/cy_prot.c **** *
1021:Generated_Source\PSoC6\pdl\drivers\peripheral\prot/cy_prot.c **** * Note that the user/privileged execute accesses are read-only and are always 
1022:Generated_Source\PSoC6\pdl\drivers\peripheral\prot/cy_prot.c **** * enabled. 
1023:Generated_Source\PSoC6\pdl\drivers\peripheral\prot/cy_prot.c **** *
1024:Generated_Source\PSoC6\pdl\drivers\peripheral\prot/cy_prot.c **** * \param base
1025:Generated_Source\PSoC6\pdl\drivers\peripheral\prot/cy_prot.c **** * The register base address of the protection structure being configured.
1026:Generated_Source\PSoC6\pdl\drivers\peripheral\prot/cy_prot.c **** * 
1027:Generated_Source\PSoC6\pdl\drivers\peripheral\prot/cy_prot.c **** * \param config
1028:Generated_Source\PSoC6\pdl\drivers\peripheral\prot/cy_prot.c **** * Initialization structure with all the protection attributes.
1029:Generated_Source\PSoC6\pdl\drivers\peripheral\prot/cy_prot.c **** * 
1030:Generated_Source\PSoC6\pdl\drivers\peripheral\prot/cy_prot.c **** * \return
1031:Generated_Source\PSoC6\pdl\drivers\peripheral\prot/cy_prot.c **** * Status of the function call.
1032:Generated_Source\PSoC6\pdl\drivers\peripheral\prot/cy_prot.c **** *
1033:Generated_Source\PSoC6\pdl\drivers\peripheral\prot/cy_prot.c **** *   Status               | Description
1034:Generated_Source\PSoC6\pdl\drivers\peripheral\prot/cy_prot.c **** *   ------------         | -----------
1035:Generated_Source\PSoC6\pdl\drivers\peripheral\prot/cy_prot.c **** *   CY_PROT_SUCCESS      | PPU GR slave struct was successfully configured
1036:Generated_Source\PSoC6\pdl\drivers\peripheral\prot/cy_prot.c **** *   CY_PROT_FAILURE      | The resource is locked
1037:Generated_Source\PSoC6\pdl\drivers\peripheral\prot/cy_prot.c **** *   CY_PROT_BAD_PARAM    | An incorrect/invalid parameter was passed
1038:Generated_Source\PSoC6\pdl\drivers\peripheral\prot/cy_prot.c **** *
1039:Generated_Source\PSoC6\pdl\drivers\peripheral\prot/cy_prot.c **** * \funcusage
1040:Generated_Source\PSoC6\pdl\drivers\peripheral\prot/cy_prot.c **** * \snippet prot/prot_v1_10_sut_01.cydsn/main_cm4.c snippet_Cy_Prot_ConfigPpuFixedGrSlaveStruct
1041:Generated_Source\PSoC6\pdl\drivers\peripheral\prot/cy_prot.c **** *
1042:Generated_Source\PSoC6\pdl\drivers\peripheral\prot/cy_prot.c **** *******************************************************************************/
1043:Generated_Source\PSoC6\pdl\drivers\peripheral\prot/cy_prot.c **** cy_en_prot_status_t Cy_Prot_ConfigPpuFixedGrSlaveStruct(PERI_PPU_GR_Type* base, const cy_stc_ppu_gr
1044:Generated_Source\PSoC6\pdl\drivers\peripheral\prot/cy_prot.c **** {
 2847              		.loc 1 1044 0
 2848              		.cfi_startproc
 2849              		@ args = 0, pretend = 0, frame = 16
 2850              		@ frame_needed = 1, uses_anonymous_args = 0
 2851 0000 80B5     		push	{r7, lr}
 2852              		.cfi_def_cfa_offset 8
 2853              		.cfi_offset 7, -8
 2854              		.cfi_offset 14, -4
 2855 0002 84B0     		sub	sp, sp, #16
 2856              		.cfi_def_cfa_offset 24
 2857 0004 00AF     		add	r7, sp, #0
 2858              		.cfi_def_cfa_register 7
 2859 0006 7860     		str	r0, [r7, #4]
 2860 0008 3960     		str	r1, [r7]
1045:Generated_Source\PSoC6\pdl\drivers\peripheral\prot/cy_prot.c ****     cy_en_prot_status_t status;
1046:Generated_Source\PSoC6\pdl\drivers\peripheral\prot/cy_prot.c ****     uint32_t attReg;
1047:Generated_Source\PSoC6\pdl\drivers\peripheral\prot/cy_prot.c ****     
1048:Generated_Source\PSoC6\pdl\drivers\peripheral\prot/cy_prot.c ****     CY_ASSERT_L1(NULL != base);
 2861              		.loc 1 1048 0
 2862 000a 7B68     		ldr	r3, [r7, #4]
 2863 000c 002B     		cmp	r3, #0
 2864 000e 06D1     		bne	.L199
 2865              		.loc 1 1048 0 is_stmt 0 discriminator 1
 2866 0010 8323     		movs	r3, #131
 2867 0012 DA00     		lsls	r2, r3, #3
 2868 0014 3C4B     		ldr	r3, .L208
ARM GAS  C:\Users\salaz\AppData\Local\Temp\ccSSnxm1.s 			page 70


 2869 0016 1100     		movs	r1, r2
 2870 0018 1800     		movs	r0, r3
 2871 001a FFF7FEFF 		bl	Cy_SysLib_AssertFailed
 2872              	.L199:
1049:Generated_Source\PSoC6\pdl\drivers\peripheral\prot/cy_prot.c ****     CY_ASSERT_L3(CY_PROT_IS_FIXED_SL_PERM_VALID(config->userPermission));
 2873              		.loc 1 1049 0 is_stmt 1
 2874 001e 3B68     		ldr	r3, [r7]
 2875 0020 1B78     		ldrb	r3, [r3]
 2876 0022 002B     		cmp	r3, #0
 2877 0024 11D0     		beq	.L200
 2878              		.loc 1 1049 0 is_stmt 0 discriminator 1
 2879 0026 3B68     		ldr	r3, [r7]
 2880 0028 1B78     		ldrb	r3, [r3]
 2881 002a 012B     		cmp	r3, #1
 2882 002c 0DD0     		beq	.L200
 2883              		.loc 1 1049 0 discriminator 2
 2884 002e 3B68     		ldr	r3, [r7]
 2885 0030 1B78     		ldrb	r3, [r3]
 2886 0032 022B     		cmp	r3, #2
 2887 0034 09D0     		beq	.L200
 2888              		.loc 1 1049 0 discriminator 3
 2889 0036 3B68     		ldr	r3, [r7]
 2890 0038 1B78     		ldrb	r3, [r3]
 2891 003a 032B     		cmp	r3, #3
 2892 003c 05D0     		beq	.L200
 2893              		.loc 1 1049 0 discriminator 4
 2894 003e 334A     		ldr	r2, .L208+4
 2895 0040 314B     		ldr	r3, .L208
 2896 0042 1100     		movs	r1, r2
 2897 0044 1800     		movs	r0, r3
 2898 0046 FFF7FEFF 		bl	Cy_SysLib_AssertFailed
 2899              	.L200:
1050:Generated_Source\PSoC6\pdl\drivers\peripheral\prot/cy_prot.c ****     CY_ASSERT_L3(CY_PROT_IS_FIXED_SL_PERM_VALID(config->privPermission));
 2900              		.loc 1 1050 0 is_stmt 1
 2901 004a 3B68     		ldr	r3, [r7]
 2902 004c 5B78     		ldrb	r3, [r3, #1]
 2903 004e 002B     		cmp	r3, #0
 2904 0050 11D0     		beq	.L201
 2905              		.loc 1 1050 0 is_stmt 0 discriminator 1
 2906 0052 3B68     		ldr	r3, [r7]
 2907 0054 5B78     		ldrb	r3, [r3, #1]
 2908 0056 012B     		cmp	r3, #1
 2909 0058 0DD0     		beq	.L201
 2910              		.loc 1 1050 0 discriminator 2
 2911 005a 3B68     		ldr	r3, [r7]
 2912 005c 5B78     		ldrb	r3, [r3, #1]
 2913 005e 022B     		cmp	r3, #2
 2914 0060 09D0     		beq	.L201
 2915              		.loc 1 1050 0 discriminator 3
 2916 0062 3B68     		ldr	r3, [r7]
 2917 0064 5B78     		ldrb	r3, [r3, #1]
 2918 0066 032B     		cmp	r3, #3
 2919 0068 05D0     		beq	.L201
 2920              		.loc 1 1050 0 discriminator 4
 2921 006a 294A     		ldr	r2, .L208+8
 2922 006c 264B     		ldr	r3, .L208
 2923 006e 1100     		movs	r1, r2
ARM GAS  C:\Users\salaz\AppData\Local\Temp\ccSSnxm1.s 			page 71


 2924 0070 1800     		movs	r0, r3
 2925 0072 FFF7FEFF 		bl	Cy_SysLib_AssertFailed
 2926              	.L201:
1051:Generated_Source\PSoC6\pdl\drivers\peripheral\prot/cy_prot.c ****     
1052:Generated_Source\PSoC6\pdl\drivers\peripheral\prot/cy_prot.c ****     if(((uint32_t)config->pcMask & CY_PROT_PPU_FIXED_PC_LIMIT_MASK) != 0UL) 
 2927              		.loc 1 1052 0 is_stmt 1
 2928 0076 3B68     		ldr	r3, [r7]
 2929 0078 9B88     		ldrh	r3, [r3, #4]
 2930 007a 1A00     		movs	r2, r3
 2931 007c 7F23     		movs	r3, #127
 2932 007e 9A43     		bics	r2, r3
 2933 0080 131E     		subs	r3, r2, #0
 2934 0082 02D0     		beq	.L202
1053:Generated_Source\PSoC6\pdl\drivers\peripheral\prot/cy_prot.c ****     {
1054:Generated_Source\PSoC6\pdl\drivers\peripheral\prot/cy_prot.c ****         /* PC mask out of range - not supported in device */
1055:Generated_Source\PSoC6\pdl\drivers\peripheral\prot/cy_prot.c ****         status = CY_PROT_BAD_PARAM;
 2935              		.loc 1 1055 0
 2936 0084 234B     		ldr	r3, .L208+12
 2937 0086 FB60     		str	r3, [r7, #12]
 2938 0088 38E0     		b	.L203
 2939              	.L202:
1056:Generated_Source\PSoC6\pdl\drivers\peripheral\prot/cy_prot.c ****     }
1057:Generated_Source\PSoC6\pdl\drivers\peripheral\prot/cy_prot.c ****     else
1058:Generated_Source\PSoC6\pdl\drivers\peripheral\prot/cy_prot.c ****     {
1059:Generated_Source\PSoC6\pdl\drivers\peripheral\prot/cy_prot.c ****         /* ADDR0 is read only. Only configure ATT0 */
1060:Generated_Source\PSoC6\pdl\drivers\peripheral\prot/cy_prot.c ****         attReg = (uint32_t)(((uint32_t)config->userPermission & CY_PROT_ATT_PERMISSION_MASK))
 2940              		.loc 1 1060 0
 2941 008a 3B68     		ldr	r3, [r7]
 2942 008c 1B78     		ldrb	r3, [r3]
 2943 008e 1A00     		movs	r2, r3
 2944 0090 0723     		movs	r3, #7
 2945 0092 1A40     		ands	r2, r3
1061:Generated_Source\PSoC6\pdl\drivers\peripheral\prot/cy_prot.c ****                     | (uint32_t)(((uint32_t)config->privPermission & CY_PROT_ATT_PERMISSION_MASK) <
 2946              		.loc 1 1061 0
 2947 0094 3B68     		ldr	r3, [r7]
 2948 0096 5B78     		ldrb	r3, [r3, #1]
 2949 0098 DB00     		lsls	r3, r3, #3
 2950 009a 3821     		movs	r1, #56
 2951 009c 0B40     		ands	r3, r1
 2952 009e 1A43     		orrs	r2, r3
1062:Generated_Source\PSoC6\pdl\drivers\peripheral\prot/cy_prot.c ****                     | _VAL2FLD(PERI_PPU_GR_ATT0_NS, !(config->secure))
 2953              		.loc 1 1062 0
 2954 00a0 3B68     		ldr	r3, [r7]
 2955 00a2 9B78     		ldrb	r3, [r3, #2]
 2956 00a4 0121     		movs	r1, #1
 2957 00a6 4B40     		eors	r3, r1
 2958 00a8 DBB2     		uxtb	r3, r3
 2959 00aa 9B01     		lsls	r3, r3, #6
 2960 00ac 4021     		movs	r1, #64
 2961 00ae 0B40     		ands	r3, r1
 2962 00b0 1A43     		orrs	r2, r3
1063:Generated_Source\PSoC6\pdl\drivers\peripheral\prot/cy_prot.c ****                     | _VAL2FLD(PERI_PPU_GR_ATT0_PC_MASK_15_TO_1, config->pcMask)
 2963              		.loc 1 1063 0
 2964 00b2 3B68     		ldr	r3, [r7]
 2965 00b4 9B88     		ldrh	r3, [r3, #4]
 2966 00b6 5B02     		lsls	r3, r3, #9
 2967 00b8 1749     		ldr	r1, .L208+16
ARM GAS  C:\Users\salaz\AppData\Local\Temp\ccSSnxm1.s 			page 72


 2968 00ba 0B40     		ands	r3, r1
 2969 00bc 1A43     		orrs	r2, r3
1064:Generated_Source\PSoC6\pdl\drivers\peripheral\prot/cy_prot.c ****                     /* No region size - read only */
1065:Generated_Source\PSoC6\pdl\drivers\peripheral\prot/cy_prot.c ****                     | _VAL2FLD(PERI_PPU_GR_ATT0_PC_MATCH, config->pcMatch);
 2970              		.loc 1 1065 0
 2971 00be 3B68     		ldr	r3, [r7]
 2972 00c0 DB78     		ldrb	r3, [r3, #3]
 2973 00c2 9907     		lsls	r1, r3, #30
 2974 00c4 8023     		movs	r3, #128
 2975 00c6 DB05     		lsls	r3, r3, #23
 2976 00c8 0B40     		ands	r3, r1
1060:Generated_Source\PSoC6\pdl\drivers\peripheral\prot/cy_prot.c ****                     | (uint32_t)(((uint32_t)config->privPermission & CY_PROT_ATT_PERMISSION_MASK) <
 2977              		.loc 1 1060 0
 2978 00ca 1343     		orrs	r3, r2
 2979 00cc BB60     		str	r3, [r7, #8]
1066:Generated_Source\PSoC6\pdl\drivers\peripheral\prot/cy_prot.c ****         if ((attReg & CY_PROT_PPU_GR_ATT0_MASK) != attReg)
 2980              		.loc 1 1066 0
 2981 00ce BB68     		ldr	r3, [r7, #8]
 2982 00d0 124A     		ldr	r2, .L208+20
 2983 00d2 1A40     		ands	r2, r3
 2984 00d4 BB68     		ldr	r3, [r7, #8]
 2985 00d6 9A42     		cmp	r2, r3
 2986 00d8 02D0     		beq	.L204
1067:Generated_Source\PSoC6\pdl\drivers\peripheral\prot/cy_prot.c ****         {
1068:Generated_Source\PSoC6\pdl\drivers\peripheral\prot/cy_prot.c ****             /* Invalid parameter was passed */
1069:Generated_Source\PSoC6\pdl\drivers\peripheral\prot/cy_prot.c ****             status = CY_PROT_BAD_PARAM;
 2987              		.loc 1 1069 0
 2988 00da 0E4B     		ldr	r3, .L208+12
 2989 00dc FB60     		str	r3, [r7, #12]
 2990 00de 0DE0     		b	.L203
 2991              	.L204:
1070:Generated_Source\PSoC6\pdl\drivers\peripheral\prot/cy_prot.c ****         }
1071:Generated_Source\PSoC6\pdl\drivers\peripheral\prot/cy_prot.c ****         else
1072:Generated_Source\PSoC6\pdl\drivers\peripheral\prot/cy_prot.c ****         {
1073:Generated_Source\PSoC6\pdl\drivers\peripheral\prot/cy_prot.c ****             base->ATT0 = attReg;
 2992              		.loc 1 1073 0
 2993 00e0 7B68     		ldr	r3, [r7, #4]
 2994 00e2 BA68     		ldr	r2, [r7, #8]
 2995 00e4 5A60     		str	r2, [r3, #4]
1074:Generated_Source\PSoC6\pdl\drivers\peripheral\prot/cy_prot.c ****             status = ((base->ATT0 & CY_PROT_PPU_GR_ATT0_MASK) != attReg) ? CY_PROT_FAILURE : CY_PRO
 2996              		.loc 1 1074 0
 2997 00e6 7B68     		ldr	r3, [r7, #4]
 2998 00e8 5B68     		ldr	r3, [r3, #4]
 2999 00ea 0C4A     		ldr	r2, .L208+20
 3000 00ec 1A40     		ands	r2, r3
 3001 00ee BB68     		ldr	r3, [r7, #8]
 3002 00f0 9A42     		cmp	r2, r3
 3003 00f2 01D0     		beq	.L205
 3004              		.loc 1 1074 0 is_stmt 0 discriminator 1
 3005 00f4 0A4B     		ldr	r3, .L208+24
 3006 00f6 00E0     		b	.L206
 3007              	.L205:
 3008              		.loc 1 1074 0 discriminator 2
 3009 00f8 0023     		movs	r3, #0
 3010              	.L206:
 3011              		.loc 1 1074 0 discriminator 4
 3012 00fa FB60     		str	r3, [r7, #12]
ARM GAS  C:\Users\salaz\AppData\Local\Temp\ccSSnxm1.s 			page 73


 3013              	.L203:
1075:Generated_Source\PSoC6\pdl\drivers\peripheral\prot/cy_prot.c ****         }
1076:Generated_Source\PSoC6\pdl\drivers\peripheral\prot/cy_prot.c ****     }    
1077:Generated_Source\PSoC6\pdl\drivers\peripheral\prot/cy_prot.c ****     return status;
 3014              		.loc 1 1077 0 is_stmt 1
 3015 00fc FB68     		ldr	r3, [r7, #12]
1078:Generated_Source\PSoC6\pdl\drivers\peripheral\prot/cy_prot.c **** }
 3016              		.loc 1 1078 0
 3017 00fe 1800     		movs	r0, r3
 3018 0100 BD46     		mov	sp, r7
 3019 0102 04B0     		add	sp, sp, #16
 3020              		@ sp needed
 3021 0104 80BD     		pop	{r7, pc}
 3022              	.L209:
 3023 0106 C046     		.align	2
 3024              	.L208:
 3025 0108 00000000 		.word	.LC0
 3026 010c 19040000 		.word	1049
 3027 0110 1A040000 		.word	1050
 3028 0114 0100C200 		.word	12713985
 3029 0118 00FEFF00 		.word	16776704
 3030 011c DBFEFFE0 		.word	-520093989
 3031 0120 0300C200 		.word	12713987
 3032              		.cfi_endproc
 3033              	.LFE55:
 3034              		.size	Cy_Prot_ConfigPpuFixedGrSlaveStruct, .-Cy_Prot_ConfigPpuFixedGrSlaveStruct
 3035              		.section	.text.Cy_Prot_EnablePpuFixedGrMasterStruct,"ax",%progbits
 3036              		.align	2
 3037              		.global	Cy_Prot_EnablePpuFixedGrMasterStruct
 3038              		.code	16
 3039              		.thumb_func
 3040              		.type	Cy_Prot_EnablePpuFixedGrMasterStruct, %function
 3041              	Cy_Prot_EnablePpuFixedGrMasterStruct:
 3042              	.LFB56:
1079:Generated_Source\PSoC6\pdl\drivers\peripheral\prot/cy_prot.c **** 
1080:Generated_Source\PSoC6\pdl\drivers\peripheral\prot/cy_prot.c **** 
1081:Generated_Source\PSoC6\pdl\drivers\peripheral\prot/cy_prot.c **** /*******************************************************************************
1082:Generated_Source\PSoC6\pdl\drivers\peripheral\prot/cy_prot.c **** * Function Name: Cy_Prot_EnablePpuFixedGrMasterStruct
1083:Generated_Source\PSoC6\pdl\drivers\peripheral\prot/cy_prot.c **** ****************************************************************************//**
1084:Generated_Source\PSoC6\pdl\drivers\peripheral\prot/cy_prot.c **** *
1085:Generated_Source\PSoC6\pdl\drivers\peripheral\prot/cy_prot.c **** * \brief Enables the Master PPU GR structure.
1086:Generated_Source\PSoC6\pdl\drivers\peripheral\prot/cy_prot.c **** *
1087:Generated_Source\PSoC6\pdl\drivers\peripheral\prot/cy_prot.c **** * This is a PPU GR master struct enable function. The PPU GR protection 
1088:Generated_Source\PSoC6\pdl\drivers\peripheral\prot/cy_prot.c **** * settings will take effect after successful completion of this function call.
1089:Generated_Source\PSoC6\pdl\drivers\peripheral\prot/cy_prot.c **** *
1090:Generated_Source\PSoC6\pdl\drivers\peripheral\prot/cy_prot.c **** * \param base
1091:Generated_Source\PSoC6\pdl\drivers\peripheral\prot/cy_prot.c **** * The base address for the protection unit structure being configured. 
1092:Generated_Source\PSoC6\pdl\drivers\peripheral\prot/cy_prot.c **** *
1093:Generated_Source\PSoC6\pdl\drivers\peripheral\prot/cy_prot.c **** * \return
1094:Generated_Source\PSoC6\pdl\drivers\peripheral\prot/cy_prot.c **** * Status of the function call.
1095:Generated_Source\PSoC6\pdl\drivers\peripheral\prot/cy_prot.c **** *
1096:Generated_Source\PSoC6\pdl\drivers\peripheral\prot/cy_prot.c **** *   Status               | Description
1097:Generated_Source\PSoC6\pdl\drivers\peripheral\prot/cy_prot.c **** *   ------------         | -----------
1098:Generated_Source\PSoC6\pdl\drivers\peripheral\prot/cy_prot.c **** *   CY_PROT_SUCCESS      | The Master PU struct was enabled
1099:Generated_Source\PSoC6\pdl\drivers\peripheral\prot/cy_prot.c **** *   CY_PROT_FAILURE      | The Master PU struct is disabled and possibly locked
1100:Generated_Source\PSoC6\pdl\drivers\peripheral\prot/cy_prot.c **** *
1101:Generated_Source\PSoC6\pdl\drivers\peripheral\prot/cy_prot.c **** * \funcusage
ARM GAS  C:\Users\salaz\AppData\Local\Temp\ccSSnxm1.s 			page 74


1102:Generated_Source\PSoC6\pdl\drivers\peripheral\prot/cy_prot.c **** * \snippet prot/prot_v1_10_sut_01.cydsn/main_cm4.c snippet_Cy_Prot_EnablePpuFixedGrMasterStruct
1103:Generated_Source\PSoC6\pdl\drivers\peripheral\prot/cy_prot.c **** *
1104:Generated_Source\PSoC6\pdl\drivers\peripheral\prot/cy_prot.c **** *******************************************************************************/
1105:Generated_Source\PSoC6\pdl\drivers\peripheral\prot/cy_prot.c **** cy_en_prot_status_t Cy_Prot_EnablePpuFixedGrMasterStruct(PERI_PPU_GR_Type* base)
1106:Generated_Source\PSoC6\pdl\drivers\peripheral\prot/cy_prot.c **** {
 3043              		.loc 1 1106 0
 3044              		.cfi_startproc
 3045              		@ args = 0, pretend = 0, frame = 16
 3046              		@ frame_needed = 1, uses_anonymous_args = 0
 3047 0000 80B5     		push	{r7, lr}
 3048              		.cfi_def_cfa_offset 8
 3049              		.cfi_offset 7, -8
 3050              		.cfi_offset 14, -4
 3051 0002 84B0     		sub	sp, sp, #16
 3052              		.cfi_def_cfa_offset 24
 3053 0004 00AF     		add	r7, sp, #0
 3054              		.cfi_def_cfa_register 7
 3055 0006 7860     		str	r0, [r7, #4]
1107:Generated_Source\PSoC6\pdl\drivers\peripheral\prot/cy_prot.c ****     cy_en_prot_status_t status;
1108:Generated_Source\PSoC6\pdl\drivers\peripheral\prot/cy_prot.c ****     
1109:Generated_Source\PSoC6\pdl\drivers\peripheral\prot/cy_prot.c ****     base->ATT1 |= _VAL2FLD(PERI_PPU_GR_ATT1_ENABLED, CY_PROT_STRUCT_ENABLE);
 3056              		.loc 1 1109 0
 3057 0008 7B68     		ldr	r3, [r7, #4]
 3058 000a 5B6A     		ldr	r3, [r3, #36]
 3059 000c 8022     		movs	r2, #128
 3060 000e 1206     		lsls	r2, r2, #24
 3061 0010 1A43     		orrs	r2, r3
 3062 0012 7B68     		ldr	r3, [r7, #4]
 3063 0014 5A62     		str	r2, [r3, #36]
1110:Generated_Source\PSoC6\pdl\drivers\peripheral\prot/cy_prot.c ****     status = (_FLD2VAL(PERI_PPU_GR_ATT1_ENABLED, base->ATT1) != CY_PROT_STRUCT_ENABLE) ?
 3064              		.loc 1 1110 0
 3065 0016 7B68     		ldr	r3, [r7, #4]
 3066 0018 5B6A     		ldr	r3, [r3, #36]
 3067 001a DB0F     		lsrs	r3, r3, #31
 3068 001c DB07     		lsls	r3, r3, #31
 3069 001e DB0F     		lsrs	r3, r3, #31
 3070 0020 012B     		cmp	r3, #1
 3071 0022 01D0     		beq	.L211
 3072              		.loc 1 1110 0 is_stmt 0 discriminator 1
 3073 0024 044B     		ldr	r3, .L214
 3074 0026 00E0     		b	.L212
 3075              	.L211:
 3076              		.loc 1 1110 0 discriminator 2
 3077 0028 0023     		movs	r3, #0
 3078              	.L212:
 3079              		.loc 1 1110 0 discriminator 4
 3080 002a FB60     		str	r3, [r7, #12]
1111:Generated_Source\PSoC6\pdl\drivers\peripheral\prot/cy_prot.c ****                 CY_PROT_FAILURE : CY_PROT_SUCCESS;
1112:Generated_Source\PSoC6\pdl\drivers\peripheral\prot/cy_prot.c ****     
1113:Generated_Source\PSoC6\pdl\drivers\peripheral\prot/cy_prot.c ****     return status;
 3081              		.loc 1 1113 0 is_stmt 1 discriminator 4
 3082 002c FB68     		ldr	r3, [r7, #12]
1114:Generated_Source\PSoC6\pdl\drivers\peripheral\prot/cy_prot.c **** }
 3083              		.loc 1 1114 0 discriminator 4
 3084 002e 1800     		movs	r0, r3
 3085 0030 BD46     		mov	sp, r7
 3086 0032 04B0     		add	sp, sp, #16
ARM GAS  C:\Users\salaz\AppData\Local\Temp\ccSSnxm1.s 			page 75


 3087              		@ sp needed
 3088 0034 80BD     		pop	{r7, pc}
 3089              	.L215:
 3090 0036 C046     		.align	2
 3091              	.L214:
 3092 0038 0300C200 		.word	12713987
 3093              		.cfi_endproc
 3094              	.LFE56:
 3095              		.size	Cy_Prot_EnablePpuFixedGrMasterStruct, .-Cy_Prot_EnablePpuFixedGrMasterStruct
 3096              		.section	.text.Cy_Prot_DisablePpuFixedGrMasterStruct,"ax",%progbits
 3097              		.align	2
 3098              		.global	Cy_Prot_DisablePpuFixedGrMasterStruct
 3099              		.code	16
 3100              		.thumb_func
 3101              		.type	Cy_Prot_DisablePpuFixedGrMasterStruct, %function
 3102              	Cy_Prot_DisablePpuFixedGrMasterStruct:
 3103              	.LFB57:
1115:Generated_Source\PSoC6\pdl\drivers\peripheral\prot/cy_prot.c **** 
1116:Generated_Source\PSoC6\pdl\drivers\peripheral\prot/cy_prot.c **** 
1117:Generated_Source\PSoC6\pdl\drivers\peripheral\prot/cy_prot.c **** /*******************************************************************************
1118:Generated_Source\PSoC6\pdl\drivers\peripheral\prot/cy_prot.c **** * Function Name: Cy_Prot_DisablePpuFixedGrMasterStruct
1119:Generated_Source\PSoC6\pdl\drivers\peripheral\prot/cy_prot.c **** ****************************************************************************//**
1120:Generated_Source\PSoC6\pdl\drivers\peripheral\prot/cy_prot.c **** *
1121:Generated_Source\PSoC6\pdl\drivers\peripheral\prot/cy_prot.c **** * \brief Disables the Master PPU GR structure.
1122:Generated_Source\PSoC6\pdl\drivers\peripheral\prot/cy_prot.c **** *
1123:Generated_Source\PSoC6\pdl\drivers\peripheral\prot/cy_prot.c **** * This is a PPU GR master struct disable function. The PPU GR protection 
1124:Generated_Source\PSoC6\pdl\drivers\peripheral\prot/cy_prot.c **** * settings will seize to take effect after successful completion of this 
1125:Generated_Source\PSoC6\pdl\drivers\peripheral\prot/cy_prot.c **** * function call.
1126:Generated_Source\PSoC6\pdl\drivers\peripheral\prot/cy_prot.c **** *
1127:Generated_Source\PSoC6\pdl\drivers\peripheral\prot/cy_prot.c **** * \param base
1128:Generated_Source\PSoC6\pdl\drivers\peripheral\prot/cy_prot.c **** * The base address for the protection unit structure being configured. 
1129:Generated_Source\PSoC6\pdl\drivers\peripheral\prot/cy_prot.c **** *
1130:Generated_Source\PSoC6\pdl\drivers\peripheral\prot/cy_prot.c **** * \return
1131:Generated_Source\PSoC6\pdl\drivers\peripheral\prot/cy_prot.c **** * Status of the function call.
1132:Generated_Source\PSoC6\pdl\drivers\peripheral\prot/cy_prot.c **** *
1133:Generated_Source\PSoC6\pdl\drivers\peripheral\prot/cy_prot.c **** *   Status               | Description
1134:Generated_Source\PSoC6\pdl\drivers\peripheral\prot/cy_prot.c **** *   ------------         | -----------
1135:Generated_Source\PSoC6\pdl\drivers\peripheral\prot/cy_prot.c **** *   CY_PROT_SUCCESS      | The Master PU struct was disabled
1136:Generated_Source\PSoC6\pdl\drivers\peripheral\prot/cy_prot.c **** *   CY_PROT_FAILURE      | The Master PU struct is enabled and possibly locked
1137:Generated_Source\PSoC6\pdl\drivers\peripheral\prot/cy_prot.c **** *
1138:Generated_Source\PSoC6\pdl\drivers\peripheral\prot/cy_prot.c **** * \funcusage
1139:Generated_Source\PSoC6\pdl\drivers\peripheral\prot/cy_prot.c **** * \snippet prot/prot_v1_10_sut_01.cydsn/main_cm4.c snippet_Cy_Prot_DisablePpuFixedGrMasterStruct
1140:Generated_Source\PSoC6\pdl\drivers\peripheral\prot/cy_prot.c **** *
1141:Generated_Source\PSoC6\pdl\drivers\peripheral\prot/cy_prot.c **** *******************************************************************************/
1142:Generated_Source\PSoC6\pdl\drivers\peripheral\prot/cy_prot.c **** cy_en_prot_status_t Cy_Prot_DisablePpuFixedGrMasterStruct(PERI_PPU_GR_Type* base)
1143:Generated_Source\PSoC6\pdl\drivers\peripheral\prot/cy_prot.c **** {
 3104              		.loc 1 1143 0
 3105              		.cfi_startproc
 3106              		@ args = 0, pretend = 0, frame = 16
 3107              		@ frame_needed = 1, uses_anonymous_args = 0
 3108 0000 80B5     		push	{r7, lr}
 3109              		.cfi_def_cfa_offset 8
 3110              		.cfi_offset 7, -8
 3111              		.cfi_offset 14, -4
 3112 0002 84B0     		sub	sp, sp, #16
 3113              		.cfi_def_cfa_offset 24
 3114 0004 00AF     		add	r7, sp, #0
ARM GAS  C:\Users\salaz\AppData\Local\Temp\ccSSnxm1.s 			page 76


 3115              		.cfi_def_cfa_register 7
 3116 0006 7860     		str	r0, [r7, #4]
1144:Generated_Source\PSoC6\pdl\drivers\peripheral\prot/cy_prot.c ****     cy_en_prot_status_t status;
1145:Generated_Source\PSoC6\pdl\drivers\peripheral\prot/cy_prot.c ****     
1146:Generated_Source\PSoC6\pdl\drivers\peripheral\prot/cy_prot.c ****     base->ATT1 &= ~_VAL2FLD(PERI_PPU_GR_ATT1_ENABLED, CY_PROT_STRUCT_ENABLE);
 3117              		.loc 1 1146 0
 3118 0008 7B68     		ldr	r3, [r7, #4]
 3119 000a 5B6A     		ldr	r3, [r3, #36]
 3120 000c 5B00     		lsls	r3, r3, #1
 3121 000e 5A08     		lsrs	r2, r3, #1
 3122 0010 7B68     		ldr	r3, [r7, #4]
 3123 0012 5A62     		str	r2, [r3, #36]
1147:Generated_Source\PSoC6\pdl\drivers\peripheral\prot/cy_prot.c ****     status = (_FLD2VAL(PERI_PPU_GR_ATT1_ENABLED, base->ATT1) == CY_PROT_STRUCT_ENABLE) ?
 3124              		.loc 1 1147 0
 3125 0014 7B68     		ldr	r3, [r7, #4]
 3126 0016 5B6A     		ldr	r3, [r3, #36]
 3127 0018 DB0F     		lsrs	r3, r3, #31
 3128 001a DB07     		lsls	r3, r3, #31
 3129 001c DB0F     		lsrs	r3, r3, #31
 3130 001e 012B     		cmp	r3, #1
 3131 0020 01D1     		bne	.L217
 3132              		.loc 1 1147 0 is_stmt 0 discriminator 1
 3133 0022 044B     		ldr	r3, .L220
 3134 0024 00E0     		b	.L218
 3135              	.L217:
 3136              		.loc 1 1147 0 discriminator 2
 3137 0026 0023     		movs	r3, #0
 3138              	.L218:
 3139              		.loc 1 1147 0 discriminator 4
 3140 0028 FB60     		str	r3, [r7, #12]
1148:Generated_Source\PSoC6\pdl\drivers\peripheral\prot/cy_prot.c ****                 CY_PROT_FAILURE : CY_PROT_SUCCESS;
1149:Generated_Source\PSoC6\pdl\drivers\peripheral\prot/cy_prot.c ****     
1150:Generated_Source\PSoC6\pdl\drivers\peripheral\prot/cy_prot.c ****     return status;
 3141              		.loc 1 1150 0 is_stmt 1 discriminator 4
 3142 002a FB68     		ldr	r3, [r7, #12]
1151:Generated_Source\PSoC6\pdl\drivers\peripheral\prot/cy_prot.c **** }
 3143              		.loc 1 1151 0 discriminator 4
 3144 002c 1800     		movs	r0, r3
 3145 002e BD46     		mov	sp, r7
 3146 0030 04B0     		add	sp, sp, #16
 3147              		@ sp needed
 3148 0032 80BD     		pop	{r7, pc}
 3149              	.L221:
 3150              		.align	2
 3151              	.L220:
 3152 0034 0300C200 		.word	12713987
 3153              		.cfi_endproc
 3154              	.LFE57:
 3155              		.size	Cy_Prot_DisablePpuFixedGrMasterStruct, .-Cy_Prot_DisablePpuFixedGrMasterStruct
 3156              		.section	.text.Cy_Prot_EnablePpuFixedGrSlaveStruct,"ax",%progbits
 3157              		.align	2
 3158              		.global	Cy_Prot_EnablePpuFixedGrSlaveStruct
 3159              		.code	16
 3160              		.thumb_func
 3161              		.type	Cy_Prot_EnablePpuFixedGrSlaveStruct, %function
 3162              	Cy_Prot_EnablePpuFixedGrSlaveStruct:
 3163              	.LFB58:
ARM GAS  C:\Users\salaz\AppData\Local\Temp\ccSSnxm1.s 			page 77


1152:Generated_Source\PSoC6\pdl\drivers\peripheral\prot/cy_prot.c **** 
1153:Generated_Source\PSoC6\pdl\drivers\peripheral\prot/cy_prot.c **** 
1154:Generated_Source\PSoC6\pdl\drivers\peripheral\prot/cy_prot.c **** /*******************************************************************************
1155:Generated_Source\PSoC6\pdl\drivers\peripheral\prot/cy_prot.c **** * Function Name: Cy_Prot_EnablePpuFixedGrSlaveStruct
1156:Generated_Source\PSoC6\pdl\drivers\peripheral\prot/cy_prot.c **** ****************************************************************************//**
1157:Generated_Source\PSoC6\pdl\drivers\peripheral\prot/cy_prot.c **** *
1158:Generated_Source\PSoC6\pdl\drivers\peripheral\prot/cy_prot.c **** * \brief Enables the Slave PPU GR structure.
1159:Generated_Source\PSoC6\pdl\drivers\peripheral\prot/cy_prot.c **** *
1160:Generated_Source\PSoC6\pdl\drivers\peripheral\prot/cy_prot.c **** * This is a PPU GR slave struct enable function. The PPU GR protection 
1161:Generated_Source\PSoC6\pdl\drivers\peripheral\prot/cy_prot.c **** * settings will take effect after successful completion of this function call.
1162:Generated_Source\PSoC6\pdl\drivers\peripheral\prot/cy_prot.c **** *
1163:Generated_Source\PSoC6\pdl\drivers\peripheral\prot/cy_prot.c **** * \param base
1164:Generated_Source\PSoC6\pdl\drivers\peripheral\prot/cy_prot.c **** * The base address for the protection unit structure being configured. 
1165:Generated_Source\PSoC6\pdl\drivers\peripheral\prot/cy_prot.c **** *
1166:Generated_Source\PSoC6\pdl\drivers\peripheral\prot/cy_prot.c **** * \return
1167:Generated_Source\PSoC6\pdl\drivers\peripheral\prot/cy_prot.c **** * Status of the function call.
1168:Generated_Source\PSoC6\pdl\drivers\peripheral\prot/cy_prot.c **** *
1169:Generated_Source\PSoC6\pdl\drivers\peripheral\prot/cy_prot.c **** *   Status               | Description
1170:Generated_Source\PSoC6\pdl\drivers\peripheral\prot/cy_prot.c **** *   ------------         | -----------
1171:Generated_Source\PSoC6\pdl\drivers\peripheral\prot/cy_prot.c **** *   CY_PROT_SUCCESS      | The Slave PU struct was enabled
1172:Generated_Source\PSoC6\pdl\drivers\peripheral\prot/cy_prot.c **** *   CY_PROT_FAILURE      | The Slave PU struct is disabled and possibly locked
1173:Generated_Source\PSoC6\pdl\drivers\peripheral\prot/cy_prot.c **** *
1174:Generated_Source\PSoC6\pdl\drivers\peripheral\prot/cy_prot.c **** * \funcusage
1175:Generated_Source\PSoC6\pdl\drivers\peripheral\prot/cy_prot.c **** * \snippet prot/prot_v1_10_sut_01.cydsn/main_cm4.c snippet_Cy_Prot_EnablePpuFixedGrSlaveStruct
1176:Generated_Source\PSoC6\pdl\drivers\peripheral\prot/cy_prot.c **** *
1177:Generated_Source\PSoC6\pdl\drivers\peripheral\prot/cy_prot.c **** *******************************************************************************/
1178:Generated_Source\PSoC6\pdl\drivers\peripheral\prot/cy_prot.c **** cy_en_prot_status_t Cy_Prot_EnablePpuFixedGrSlaveStruct(PERI_PPU_GR_Type* base)
1179:Generated_Source\PSoC6\pdl\drivers\peripheral\prot/cy_prot.c **** {   
 3164              		.loc 1 1179 0
 3165              		.cfi_startproc
 3166              		@ args = 0, pretend = 0, frame = 16
 3167              		@ frame_needed = 1, uses_anonymous_args = 0
 3168 0000 80B5     		push	{r7, lr}
 3169              		.cfi_def_cfa_offset 8
 3170              		.cfi_offset 7, -8
 3171              		.cfi_offset 14, -4
 3172 0002 84B0     		sub	sp, sp, #16
 3173              		.cfi_def_cfa_offset 24
 3174 0004 00AF     		add	r7, sp, #0
 3175              		.cfi_def_cfa_register 7
 3176 0006 7860     		str	r0, [r7, #4]
1180:Generated_Source\PSoC6\pdl\drivers\peripheral\prot/cy_prot.c ****     cy_en_prot_status_t status;
1181:Generated_Source\PSoC6\pdl\drivers\peripheral\prot/cy_prot.c ****     
1182:Generated_Source\PSoC6\pdl\drivers\peripheral\prot/cy_prot.c ****     base->ATT0 |= _VAL2FLD(PERI_PPU_GR_ATT0_ENABLED, CY_PROT_STRUCT_ENABLE);
 3177              		.loc 1 1182 0
 3178 0008 7B68     		ldr	r3, [r7, #4]
 3179 000a 5B68     		ldr	r3, [r3, #4]
 3180 000c 8022     		movs	r2, #128
 3181 000e 1206     		lsls	r2, r2, #24
 3182 0010 1A43     		orrs	r2, r3
 3183 0012 7B68     		ldr	r3, [r7, #4]
 3184 0014 5A60     		str	r2, [r3, #4]
1183:Generated_Source\PSoC6\pdl\drivers\peripheral\prot/cy_prot.c ****     status = (_FLD2VAL(PERI_PPU_GR_ATT0_ENABLED, base->ATT0) != CY_PROT_STRUCT_ENABLE) ?
 3185              		.loc 1 1183 0
 3186 0016 7B68     		ldr	r3, [r7, #4]
 3187 0018 5B68     		ldr	r3, [r3, #4]
 3188 001a DB0F     		lsrs	r3, r3, #31
ARM GAS  C:\Users\salaz\AppData\Local\Temp\ccSSnxm1.s 			page 78


 3189 001c DB07     		lsls	r3, r3, #31
 3190 001e DB0F     		lsrs	r3, r3, #31
 3191 0020 012B     		cmp	r3, #1
 3192 0022 01D0     		beq	.L223
 3193              		.loc 1 1183 0 is_stmt 0 discriminator 1
 3194 0024 044B     		ldr	r3, .L226
 3195 0026 00E0     		b	.L224
 3196              	.L223:
 3197              		.loc 1 1183 0 discriminator 2
 3198 0028 0023     		movs	r3, #0
 3199              	.L224:
 3200              		.loc 1 1183 0 discriminator 4
 3201 002a FB60     		str	r3, [r7, #12]
1184:Generated_Source\PSoC6\pdl\drivers\peripheral\prot/cy_prot.c ****                 CY_PROT_FAILURE : CY_PROT_SUCCESS;
1185:Generated_Source\PSoC6\pdl\drivers\peripheral\prot/cy_prot.c ****     
1186:Generated_Source\PSoC6\pdl\drivers\peripheral\prot/cy_prot.c ****     return status;
 3202              		.loc 1 1186 0 is_stmt 1 discriminator 4
 3203 002c FB68     		ldr	r3, [r7, #12]
1187:Generated_Source\PSoC6\pdl\drivers\peripheral\prot/cy_prot.c **** }
 3204              		.loc 1 1187 0 discriminator 4
 3205 002e 1800     		movs	r0, r3
 3206 0030 BD46     		mov	sp, r7
 3207 0032 04B0     		add	sp, sp, #16
 3208              		@ sp needed
 3209 0034 80BD     		pop	{r7, pc}
 3210              	.L227:
 3211 0036 C046     		.align	2
 3212              	.L226:
 3213 0038 0300C200 		.word	12713987
 3214              		.cfi_endproc
 3215              	.LFE58:
 3216              		.size	Cy_Prot_EnablePpuFixedGrSlaveStruct, .-Cy_Prot_EnablePpuFixedGrSlaveStruct
 3217              		.section	.text.Cy_Prot_DisablePpuFixedGrSlaveStruct,"ax",%progbits
 3218              		.align	2
 3219              		.global	Cy_Prot_DisablePpuFixedGrSlaveStruct
 3220              		.code	16
 3221              		.thumb_func
 3222              		.type	Cy_Prot_DisablePpuFixedGrSlaveStruct, %function
 3223              	Cy_Prot_DisablePpuFixedGrSlaveStruct:
 3224              	.LFB59:
1188:Generated_Source\PSoC6\pdl\drivers\peripheral\prot/cy_prot.c **** 
1189:Generated_Source\PSoC6\pdl\drivers\peripheral\prot/cy_prot.c **** 
1190:Generated_Source\PSoC6\pdl\drivers\peripheral\prot/cy_prot.c **** /*******************************************************************************
1191:Generated_Source\PSoC6\pdl\drivers\peripheral\prot/cy_prot.c **** * Function Name: Cy_Prot_DisablePpuFixedGrSlaveStruct
1192:Generated_Source\PSoC6\pdl\drivers\peripheral\prot/cy_prot.c **** ****************************************************************************//**
1193:Generated_Source\PSoC6\pdl\drivers\peripheral\prot/cy_prot.c **** *
1194:Generated_Source\PSoC6\pdl\drivers\peripheral\prot/cy_prot.c **** * \brief Disables the Slave PPU GR structure.
1195:Generated_Source\PSoC6\pdl\drivers\peripheral\prot/cy_prot.c **** *
1196:Generated_Source\PSoC6\pdl\drivers\peripheral\prot/cy_prot.c **** * This is a PPU GR slave struct disable function. The PPU GR protection 
1197:Generated_Source\PSoC6\pdl\drivers\peripheral\prot/cy_prot.c **** * settings will seize to take effect after successful completion of this 
1198:Generated_Source\PSoC6\pdl\drivers\peripheral\prot/cy_prot.c **** * function call.
1199:Generated_Source\PSoC6\pdl\drivers\peripheral\prot/cy_prot.c **** *
1200:Generated_Source\PSoC6\pdl\drivers\peripheral\prot/cy_prot.c **** * \param base
1201:Generated_Source\PSoC6\pdl\drivers\peripheral\prot/cy_prot.c **** * The base address for the protection unit structure being configured. 
1202:Generated_Source\PSoC6\pdl\drivers\peripheral\prot/cy_prot.c **** *
1203:Generated_Source\PSoC6\pdl\drivers\peripheral\prot/cy_prot.c **** * \return
1204:Generated_Source\PSoC6\pdl\drivers\peripheral\prot/cy_prot.c **** * Status of the function call.
ARM GAS  C:\Users\salaz\AppData\Local\Temp\ccSSnxm1.s 			page 79


1205:Generated_Source\PSoC6\pdl\drivers\peripheral\prot/cy_prot.c **** *
1206:Generated_Source\PSoC6\pdl\drivers\peripheral\prot/cy_prot.c **** *   Status               | Description
1207:Generated_Source\PSoC6\pdl\drivers\peripheral\prot/cy_prot.c **** *   ------------         | -----------
1208:Generated_Source\PSoC6\pdl\drivers\peripheral\prot/cy_prot.c **** *   CY_PROT_SUCCESS      | The Slave PU struct was disabled
1209:Generated_Source\PSoC6\pdl\drivers\peripheral\prot/cy_prot.c **** *   CY_PROT_FAILURE      | The Slave PU struct is enabled and possibly locked
1210:Generated_Source\PSoC6\pdl\drivers\peripheral\prot/cy_prot.c **** *
1211:Generated_Source\PSoC6\pdl\drivers\peripheral\prot/cy_prot.c **** * \funcusage
1212:Generated_Source\PSoC6\pdl\drivers\peripheral\prot/cy_prot.c **** * \snippet prot/prot_v1_10_sut_01.cydsn/main_cm4.c snippet_Cy_Prot_DisablePpuFixedGrSlaveStruct
1213:Generated_Source\PSoC6\pdl\drivers\peripheral\prot/cy_prot.c **** *
1214:Generated_Source\PSoC6\pdl\drivers\peripheral\prot/cy_prot.c **** *******************************************************************************/
1215:Generated_Source\PSoC6\pdl\drivers\peripheral\prot/cy_prot.c **** cy_en_prot_status_t Cy_Prot_DisablePpuFixedGrSlaveStruct(PERI_PPU_GR_Type* base)
1216:Generated_Source\PSoC6\pdl\drivers\peripheral\prot/cy_prot.c **** {
 3225              		.loc 1 1216 0
 3226              		.cfi_startproc
 3227              		@ args = 0, pretend = 0, frame = 16
 3228              		@ frame_needed = 1, uses_anonymous_args = 0
 3229 0000 80B5     		push	{r7, lr}
 3230              		.cfi_def_cfa_offset 8
 3231              		.cfi_offset 7, -8
 3232              		.cfi_offset 14, -4
 3233 0002 84B0     		sub	sp, sp, #16
 3234              		.cfi_def_cfa_offset 24
 3235 0004 00AF     		add	r7, sp, #0
 3236              		.cfi_def_cfa_register 7
 3237 0006 7860     		str	r0, [r7, #4]
1217:Generated_Source\PSoC6\pdl\drivers\peripheral\prot/cy_prot.c ****     cy_en_prot_status_t status;
1218:Generated_Source\PSoC6\pdl\drivers\peripheral\prot/cy_prot.c ****     
1219:Generated_Source\PSoC6\pdl\drivers\peripheral\prot/cy_prot.c ****     base->ATT0 &= ~_VAL2FLD(PERI_PPU_GR_ATT0_ENABLED, CY_PROT_STRUCT_ENABLE);
 3238              		.loc 1 1219 0
 3239 0008 7B68     		ldr	r3, [r7, #4]
 3240 000a 5B68     		ldr	r3, [r3, #4]
 3241 000c 5B00     		lsls	r3, r3, #1
 3242 000e 5A08     		lsrs	r2, r3, #1
 3243 0010 7B68     		ldr	r3, [r7, #4]
 3244 0012 5A60     		str	r2, [r3, #4]
1220:Generated_Source\PSoC6\pdl\drivers\peripheral\prot/cy_prot.c ****     status = (_FLD2VAL(PERI_PPU_GR_ATT0_ENABLED, base->ATT0) == CY_PROT_STRUCT_ENABLE) ?
 3245              		.loc 1 1220 0
 3246 0014 7B68     		ldr	r3, [r7, #4]
 3247 0016 5B68     		ldr	r3, [r3, #4]
 3248 0018 DB0F     		lsrs	r3, r3, #31
 3249 001a DB07     		lsls	r3, r3, #31
 3250 001c DB0F     		lsrs	r3, r3, #31
 3251 001e 012B     		cmp	r3, #1
 3252 0020 01D1     		bne	.L229
 3253              		.loc 1 1220 0 is_stmt 0 discriminator 1
 3254 0022 044B     		ldr	r3, .L232
 3255 0024 00E0     		b	.L230
 3256              	.L229:
 3257              		.loc 1 1220 0 discriminator 2
 3258 0026 0023     		movs	r3, #0
 3259              	.L230:
 3260              		.loc 1 1220 0 discriminator 4
 3261 0028 FB60     		str	r3, [r7, #12]
1221:Generated_Source\PSoC6\pdl\drivers\peripheral\prot/cy_prot.c ****                 CY_PROT_FAILURE : CY_PROT_SUCCESS;
1222:Generated_Source\PSoC6\pdl\drivers\peripheral\prot/cy_prot.c ****     
1223:Generated_Source\PSoC6\pdl\drivers\peripheral\prot/cy_prot.c ****     return status;
 3262              		.loc 1 1223 0 is_stmt 1 discriminator 4
ARM GAS  C:\Users\salaz\AppData\Local\Temp\ccSSnxm1.s 			page 80


 3263 002a FB68     		ldr	r3, [r7, #12]
1224:Generated_Source\PSoC6\pdl\drivers\peripheral\prot/cy_prot.c **** }
 3264              		.loc 1 1224 0 discriminator 4
 3265 002c 1800     		movs	r0, r3
 3266 002e BD46     		mov	sp, r7
 3267 0030 04B0     		add	sp, sp, #16
 3268              		@ sp needed
 3269 0032 80BD     		pop	{r7, pc}
 3270              	.L233:
 3271              		.align	2
 3272              	.L232:
 3273 0034 0300C200 		.word	12713987
 3274              		.cfi_endproc
 3275              	.LFE59:
 3276              		.size	Cy_Prot_DisablePpuFixedGrSlaveStruct, .-Cy_Prot_DisablePpuFixedGrSlaveStruct
 3277              		.section	.text.Cy_Prot_ConfigPpuFixedSlMasterStruct,"ax",%progbits
 3278              		.align	2
 3279              		.global	Cy_Prot_ConfigPpuFixedSlMasterStruct
 3280              		.code	16
 3281              		.thumb_func
 3282              		.type	Cy_Prot_ConfigPpuFixedSlMasterStruct, %function
 3283              	Cy_Prot_ConfigPpuFixedSlMasterStruct:
 3284              	.LFB60:
1225:Generated_Source\PSoC6\pdl\drivers\peripheral\prot/cy_prot.c **** 
1226:Generated_Source\PSoC6\pdl\drivers\peripheral\prot/cy_prot.c **** 
1227:Generated_Source\PSoC6\pdl\drivers\peripheral\prot/cy_prot.c **** /*******************************************************************************
1228:Generated_Source\PSoC6\pdl\drivers\peripheral\prot/cy_prot.c **** * Function Name: Cy_Prot_ConfigPpuFixedSlMasterStruct
1229:Generated_Source\PSoC6\pdl\drivers\peripheral\prot/cy_prot.c **** ****************************************************************************//**
1230:Generated_Source\PSoC6\pdl\drivers\peripheral\prot/cy_prot.c **** *
1231:Generated_Source\PSoC6\pdl\drivers\peripheral\prot/cy_prot.c **** * \brief Configures a Fixed Peripheral Slave Protection Unit (PPU SL) master 
1232:Generated_Source\PSoC6\pdl\drivers\peripheral\prot/cy_prot.c **** * protection struct with its protection attributes. 
1233:Generated_Source\PSoC6\pdl\drivers\peripheral\prot/cy_prot.c **** *
1234:Generated_Source\PSoC6\pdl\drivers\peripheral\prot/cy_prot.c **** * This function configures the master struct governing the corresponding slave
1235:Generated_Source\PSoC6\pdl\drivers\peripheral\prot/cy_prot.c **** * struct pair. It is a mechanism to protect the slave PPU SL struct. Since
1236:Generated_Source\PSoC6\pdl\drivers\peripheral\prot/cy_prot.c **** * the memory location of the slave struct is known, the address, regionSize and
1237:Generated_Source\PSoC6\pdl\drivers\peripheral\prot/cy_prot.c **** * subregions of the configuration struct are not applicable.
1238:Generated_Source\PSoC6\pdl\drivers\peripheral\prot/cy_prot.c **** *
1239:Generated_Source\PSoC6\pdl\drivers\peripheral\prot/cy_prot.c **** * Note that only the user/privileged write permissions are configurable. The 
1240:Generated_Source\PSoC6\pdl\drivers\peripheral\prot/cy_prot.c **** * read and execute permissions are read-only and cannot be configured.
1241:Generated_Source\PSoC6\pdl\drivers\peripheral\prot/cy_prot.c **** *
1242:Generated_Source\PSoC6\pdl\drivers\peripheral\prot/cy_prot.c **** * \param base
1243:Generated_Source\PSoC6\pdl\drivers\peripheral\prot/cy_prot.c **** * The register base address of the protection struct being configured.
1244:Generated_Source\PSoC6\pdl\drivers\peripheral\prot/cy_prot.c **** * 
1245:Generated_Source\PSoC6\pdl\drivers\peripheral\prot/cy_prot.c **** * \param config
1246:Generated_Source\PSoC6\pdl\drivers\peripheral\prot/cy_prot.c **** * Initialization structure with all the protection attributes.
1247:Generated_Source\PSoC6\pdl\drivers\peripheral\prot/cy_prot.c **** * 
1248:Generated_Source\PSoC6\pdl\drivers\peripheral\prot/cy_prot.c **** * \return
1249:Generated_Source\PSoC6\pdl\drivers\peripheral\prot/cy_prot.c **** * Status of the function call.
1250:Generated_Source\PSoC6\pdl\drivers\peripheral\prot/cy_prot.c **** *
1251:Generated_Source\PSoC6\pdl\drivers\peripheral\prot/cy_prot.c **** *   Status               | Description
1252:Generated_Source\PSoC6\pdl\drivers\peripheral\prot/cy_prot.c **** *   ------------         | -----------
1253:Generated_Source\PSoC6\pdl\drivers\peripheral\prot/cy_prot.c **** *   CY_PROT_SUCCESS      | PPU SL master struct was successfully configured
1254:Generated_Source\PSoC6\pdl\drivers\peripheral\prot/cy_prot.c **** *   CY_PROT_FAILURE      | The resource is locked
1255:Generated_Source\PSoC6\pdl\drivers\peripheral\prot/cy_prot.c **** *   CY_PROT_BAD_PARAM    | An incorrect/invalid parameter was passed
1256:Generated_Source\PSoC6\pdl\drivers\peripheral\prot/cy_prot.c **** *
1257:Generated_Source\PSoC6\pdl\drivers\peripheral\prot/cy_prot.c **** * \funcusage
1258:Generated_Source\PSoC6\pdl\drivers\peripheral\prot/cy_prot.c **** * \snippet prot/prot_v1_10_sut_01.cydsn/main_cm4.c snippet_Cy_Prot_ConfigPpuFixedSlMasterStruct
ARM GAS  C:\Users\salaz\AppData\Local\Temp\ccSSnxm1.s 			page 81


1259:Generated_Source\PSoC6\pdl\drivers\peripheral\prot/cy_prot.c **** *
1260:Generated_Source\PSoC6\pdl\drivers\peripheral\prot/cy_prot.c **** *******************************************************************************/
1261:Generated_Source\PSoC6\pdl\drivers\peripheral\prot/cy_prot.c **** cy_en_prot_status_t Cy_Prot_ConfigPpuFixedSlMasterStruct(PERI_GR_PPU_SL_Type* base, const cy_stc_pp
1262:Generated_Source\PSoC6\pdl\drivers\peripheral\prot/cy_prot.c **** {
 3285              		.loc 1 1262 0
 3286              		.cfi_startproc
 3287              		@ args = 0, pretend = 0, frame = 16
 3288              		@ frame_needed = 1, uses_anonymous_args = 0
 3289 0000 80B5     		push	{r7, lr}
 3290              		.cfi_def_cfa_offset 8
 3291              		.cfi_offset 7, -8
 3292              		.cfi_offset 14, -4
 3293 0002 84B0     		sub	sp, sp, #16
 3294              		.cfi_def_cfa_offset 24
 3295 0004 00AF     		add	r7, sp, #0
 3296              		.cfi_def_cfa_register 7
 3297 0006 7860     		str	r0, [r7, #4]
 3298 0008 3960     		str	r1, [r7]
1263:Generated_Source\PSoC6\pdl\drivers\peripheral\prot/cy_prot.c ****     cy_en_prot_status_t status;
1264:Generated_Source\PSoC6\pdl\drivers\peripheral\prot/cy_prot.c ****     uint32_t attReg;
1265:Generated_Source\PSoC6\pdl\drivers\peripheral\prot/cy_prot.c ****     
1266:Generated_Source\PSoC6\pdl\drivers\peripheral\prot/cy_prot.c ****     CY_ASSERT_L1(NULL != base);
 3299              		.loc 1 1266 0
 3300 000a 7B68     		ldr	r3, [r7, #4]
 3301 000c 002B     		cmp	r3, #0
 3302 000e 05D1     		bne	.L235
 3303              		.loc 1 1266 0 is_stmt 0 discriminator 1
 3304 0010 344A     		ldr	r2, .L244
 3305 0012 354B     		ldr	r3, .L244+4
 3306 0014 1100     		movs	r1, r2
 3307 0016 1800     		movs	r0, r3
 3308 0018 FFF7FEFF 		bl	Cy_SysLib_AssertFailed
 3309              	.L235:
1267:Generated_Source\PSoC6\pdl\drivers\peripheral\prot/cy_prot.c ****     CY_ASSERT_L3(CY_PROT_IS_FIXED_MS_PERM_VALID(config->userPermission));
 3310              		.loc 1 1267 0 is_stmt 1
 3311 001c 3B68     		ldr	r3, [r7]
 3312 001e 1B78     		ldrb	r3, [r3]
 3313 0020 012B     		cmp	r3, #1
 3314 0022 09D0     		beq	.L236
 3315              		.loc 1 1267 0 is_stmt 0 discriminator 1
 3316 0024 3B68     		ldr	r3, [r7]
 3317 0026 1B78     		ldrb	r3, [r3]
 3318 0028 032B     		cmp	r3, #3
 3319 002a 05D0     		beq	.L236
 3320              		.loc 1 1267 0 discriminator 2
 3321 002c 2F4A     		ldr	r2, .L244+8
 3322 002e 2E4B     		ldr	r3, .L244+4
 3323 0030 1100     		movs	r1, r2
 3324 0032 1800     		movs	r0, r3
 3325 0034 FFF7FEFF 		bl	Cy_SysLib_AssertFailed
 3326              	.L236:
1268:Generated_Source\PSoC6\pdl\drivers\peripheral\prot/cy_prot.c ****     CY_ASSERT_L3(CY_PROT_IS_FIXED_MS_PERM_VALID(config->privPermission));
 3327              		.loc 1 1268 0 is_stmt 1
 3328 0038 3B68     		ldr	r3, [r7]
 3329 003a 5B78     		ldrb	r3, [r3, #1]
 3330 003c 012B     		cmp	r3, #1
 3331 003e 09D0     		beq	.L237
ARM GAS  C:\Users\salaz\AppData\Local\Temp\ccSSnxm1.s 			page 82


 3332              		.loc 1 1268 0 is_stmt 0 discriminator 1
 3333 0040 3B68     		ldr	r3, [r7]
 3334 0042 5B78     		ldrb	r3, [r3, #1]
 3335 0044 032B     		cmp	r3, #3
 3336 0046 05D0     		beq	.L237
 3337              		.loc 1 1268 0 discriminator 2
 3338 0048 294A     		ldr	r2, .L244+12
 3339 004a 274B     		ldr	r3, .L244+4
 3340 004c 1100     		movs	r1, r2
 3341 004e 1800     		movs	r0, r3
 3342 0050 FFF7FEFF 		bl	Cy_SysLib_AssertFailed
 3343              	.L237:
1269:Generated_Source\PSoC6\pdl\drivers\peripheral\prot/cy_prot.c ****     
1270:Generated_Source\PSoC6\pdl\drivers\peripheral\prot/cy_prot.c ****     if(((uint32_t)config->pcMask & CY_PROT_PPU_FIXED_PC_LIMIT_MASK) != 0UL) 
 3344              		.loc 1 1270 0 is_stmt 1
 3345 0054 3B68     		ldr	r3, [r7]
 3346 0056 9B88     		ldrh	r3, [r3, #4]
 3347 0058 1A00     		movs	r2, r3
 3348 005a 7F23     		movs	r3, #127
 3349 005c 9A43     		bics	r2, r3
 3350 005e 131E     		subs	r3, r2, #0
 3351 0060 02D0     		beq	.L238
1271:Generated_Source\PSoC6\pdl\drivers\peripheral\prot/cy_prot.c ****     {
1272:Generated_Source\PSoC6\pdl\drivers\peripheral\prot/cy_prot.c ****         /* PC mask out of range - not supported in device */
1273:Generated_Source\PSoC6\pdl\drivers\peripheral\prot/cy_prot.c ****         status = CY_PROT_BAD_PARAM;
 3352              		.loc 1 1273 0
 3353 0062 244B     		ldr	r3, .L244+16
 3354 0064 FB60     		str	r3, [r7, #12]
 3355 0066 38E0     		b	.L239
 3356              	.L238:
1274:Generated_Source\PSoC6\pdl\drivers\peripheral\prot/cy_prot.c ****     }
1275:Generated_Source\PSoC6\pdl\drivers\peripheral\prot/cy_prot.c ****     else
1276:Generated_Source\PSoC6\pdl\drivers\peripheral\prot/cy_prot.c ****     {
1277:Generated_Source\PSoC6\pdl\drivers\peripheral\prot/cy_prot.c ****         /* ADDR1 is read only. Only configure ATT1 */
1278:Generated_Source\PSoC6\pdl\drivers\peripheral\prot/cy_prot.c ****         attReg = ((uint32_t)config->userPermission & CY_PROT_ATT_PERMISSION_MASK)
 3357              		.loc 1 1278 0
 3358 0068 3B68     		ldr	r3, [r7]
 3359 006a 1B78     		ldrb	r3, [r3]
 3360 006c 1A00     		movs	r2, r3
 3361 006e 0723     		movs	r3, #7
 3362 0070 1A40     		ands	r2, r3
1279:Generated_Source\PSoC6\pdl\drivers\peripheral\prot/cy_prot.c ****                     | (uint32_t)(((uint32_t)config->privPermission & CY_PROT_ATT_PERMISSION_MASK) <
 3363              		.loc 1 1279 0
 3364 0072 3B68     		ldr	r3, [r7]
 3365 0074 5B78     		ldrb	r3, [r3, #1]
 3366 0076 DB00     		lsls	r3, r3, #3
 3367 0078 3821     		movs	r1, #56
 3368 007a 0B40     		ands	r3, r1
 3369 007c 1A43     		orrs	r2, r3
1280:Generated_Source\PSoC6\pdl\drivers\peripheral\prot/cy_prot.c ****                     | _VAL2FLD(PERI_GR_PPU_SL_ATT1_NS, !(config->secure))
 3370              		.loc 1 1280 0
 3371 007e 3B68     		ldr	r3, [r7]
 3372 0080 9B78     		ldrb	r3, [r3, #2]
 3373 0082 0121     		movs	r1, #1
 3374 0084 4B40     		eors	r3, r1
 3375 0086 DBB2     		uxtb	r3, r3
 3376 0088 9B01     		lsls	r3, r3, #6
ARM GAS  C:\Users\salaz\AppData\Local\Temp\ccSSnxm1.s 			page 83


 3377 008a 4021     		movs	r1, #64
 3378 008c 0B40     		ands	r3, r1
 3379 008e 1A43     		orrs	r2, r3
1281:Generated_Source\PSoC6\pdl\drivers\peripheral\prot/cy_prot.c ****                     | _VAL2FLD(PERI_GR_PPU_SL_ATT1_PC_MASK_15_TO_1, config->pcMask)
 3380              		.loc 1 1281 0
 3381 0090 3B68     		ldr	r3, [r7]
 3382 0092 9B88     		ldrh	r3, [r3, #4]
 3383 0094 5B02     		lsls	r3, r3, #9
 3384 0096 1849     		ldr	r1, .L244+20
 3385 0098 0B40     		ands	r3, r1
 3386 009a 1A43     		orrs	r2, r3
1282:Generated_Source\PSoC6\pdl\drivers\peripheral\prot/cy_prot.c ****                     /* No region size - read only for master structs */
1283:Generated_Source\PSoC6\pdl\drivers\peripheral\prot/cy_prot.c ****                     | _VAL2FLD(PERI_GR_PPU_SL_ATT1_PC_MATCH, config->pcMatch);
 3387              		.loc 1 1283 0
 3388 009c 3B68     		ldr	r3, [r7]
 3389 009e DB78     		ldrb	r3, [r3, #3]
 3390 00a0 9907     		lsls	r1, r3, #30
 3391 00a2 8023     		movs	r3, #128
 3392 00a4 DB05     		lsls	r3, r3, #23
 3393 00a6 0B40     		ands	r3, r1
1278:Generated_Source\PSoC6\pdl\drivers\peripheral\prot/cy_prot.c ****                     | (uint32_t)(((uint32_t)config->privPermission & CY_PROT_ATT_PERMISSION_MASK) <
 3394              		.loc 1 1278 0
 3395 00a8 1343     		orrs	r3, r2
 3396 00aa BB60     		str	r3, [r7, #8]
1284:Generated_Source\PSoC6\pdl\drivers\peripheral\prot/cy_prot.c ****         if ((attReg & CY_PROT_PPU_SL_ATT1_MASK) != attReg)
 3397              		.loc 1 1284 0
 3398 00ac BB68     		ldr	r3, [r7, #8]
 3399 00ae 134A     		ldr	r2, .L244+24
 3400 00b0 1A40     		ands	r2, r3
 3401 00b2 BB68     		ldr	r3, [r7, #8]
 3402 00b4 9A42     		cmp	r2, r3
 3403 00b6 02D0     		beq	.L240
1285:Generated_Source\PSoC6\pdl\drivers\peripheral\prot/cy_prot.c ****         {
1286:Generated_Source\PSoC6\pdl\drivers\peripheral\prot/cy_prot.c ****             /* Invalid parameter was passed */
1287:Generated_Source\PSoC6\pdl\drivers\peripheral\prot/cy_prot.c ****             status = CY_PROT_BAD_PARAM;
 3404              		.loc 1 1287 0
 3405 00b8 0E4B     		ldr	r3, .L244+16
 3406 00ba FB60     		str	r3, [r7, #12]
 3407 00bc 0DE0     		b	.L239
 3408              	.L240:
1288:Generated_Source\PSoC6\pdl\drivers\peripheral\prot/cy_prot.c ****         }
1289:Generated_Source\PSoC6\pdl\drivers\peripheral\prot/cy_prot.c ****         else
1290:Generated_Source\PSoC6\pdl\drivers\peripheral\prot/cy_prot.c ****         {
1291:Generated_Source\PSoC6\pdl\drivers\peripheral\prot/cy_prot.c ****             base->ATT1 = attReg;
 3409              		.loc 1 1291 0
 3410 00be 7B68     		ldr	r3, [r7, #4]
 3411 00c0 BA68     		ldr	r2, [r7, #8]
 3412 00c2 5A62     		str	r2, [r3, #36]
1292:Generated_Source\PSoC6\pdl\drivers\peripheral\prot/cy_prot.c ****             status = ((base->ATT1 & CY_PROT_PPU_SL_ATT1_MASK) != attReg) ? CY_PROT_FAILURE : CY_PRO
 3413              		.loc 1 1292 0
 3414 00c4 7B68     		ldr	r3, [r7, #4]
 3415 00c6 5B6A     		ldr	r3, [r3, #36]
 3416 00c8 0C4A     		ldr	r2, .L244+24
 3417 00ca 1A40     		ands	r2, r3
 3418 00cc BB68     		ldr	r3, [r7, #8]
 3419 00ce 9A42     		cmp	r2, r3
 3420 00d0 01D0     		beq	.L241
ARM GAS  C:\Users\salaz\AppData\Local\Temp\ccSSnxm1.s 			page 84


 3421              		.loc 1 1292 0 is_stmt 0 discriminator 1
 3422 00d2 0B4B     		ldr	r3, .L244+28
 3423 00d4 00E0     		b	.L242
 3424              	.L241:
 3425              		.loc 1 1292 0 discriminator 2
 3426 00d6 0023     		movs	r3, #0
 3427              	.L242:
 3428              		.loc 1 1292 0 discriminator 4
 3429 00d8 FB60     		str	r3, [r7, #12]
 3430              	.L239:
1293:Generated_Source\PSoC6\pdl\drivers\peripheral\prot/cy_prot.c ****         }
1294:Generated_Source\PSoC6\pdl\drivers\peripheral\prot/cy_prot.c ****     }
1295:Generated_Source\PSoC6\pdl\drivers\peripheral\prot/cy_prot.c ****     
1296:Generated_Source\PSoC6\pdl\drivers\peripheral\prot/cy_prot.c ****     return status;
 3431              		.loc 1 1296 0 is_stmt 1
 3432 00da FB68     		ldr	r3, [r7, #12]
1297:Generated_Source\PSoC6\pdl\drivers\peripheral\prot/cy_prot.c **** }
 3433              		.loc 1 1297 0
 3434 00dc 1800     		movs	r0, r3
 3435 00de BD46     		mov	sp, r7
 3436 00e0 04B0     		add	sp, sp, #16
 3437              		@ sp needed
 3438 00e2 80BD     		pop	{r7, pc}
 3439              	.L245:
 3440              		.align	2
 3441              	.L244:
 3442 00e4 F2040000 		.word	1266
 3443 00e8 00000000 		.word	.LC0
 3444 00ec F3040000 		.word	1267
 3445 00f0 F4040000 		.word	1268
 3446 00f4 0100C200 		.word	12713985
 3447 00f8 00FEFF00 		.word	16776704
 3448 00fc DBFEFFE0 		.word	-520093989
 3449 0100 0300C200 		.word	12713987
 3450              		.cfi_endproc
 3451              	.LFE60:
 3452              		.size	Cy_Prot_ConfigPpuFixedSlMasterStruct, .-Cy_Prot_ConfigPpuFixedSlMasterStruct
 3453              		.section	.text.Cy_Prot_ConfigPpuFixedSlSlaveStruct,"ax",%progbits
 3454              		.align	2
 3455              		.global	Cy_Prot_ConfigPpuFixedSlSlaveStruct
 3456              		.code	16
 3457              		.thumb_func
 3458              		.type	Cy_Prot_ConfigPpuFixedSlSlaveStruct, %function
 3459              	Cy_Prot_ConfigPpuFixedSlSlaveStruct:
 3460              	.LFB61:
1298:Generated_Source\PSoC6\pdl\drivers\peripheral\prot/cy_prot.c **** 
1299:Generated_Source\PSoC6\pdl\drivers\peripheral\prot/cy_prot.c **** 
1300:Generated_Source\PSoC6\pdl\drivers\peripheral\prot/cy_prot.c **** /*******************************************************************************
1301:Generated_Source\PSoC6\pdl\drivers\peripheral\prot/cy_prot.c **** * Function Name: Cy_Prot_ConfigPpuFixedSlSlaveStruct
1302:Generated_Source\PSoC6\pdl\drivers\peripheral\prot/cy_prot.c **** ****************************************************************************//**
1303:Generated_Source\PSoC6\pdl\drivers\peripheral\prot/cy_prot.c **** *
1304:Generated_Source\PSoC6\pdl\drivers\peripheral\prot/cy_prot.c **** * \brief Configures a Fixed Peripheral Slave Protection Unit (PPU SL) slave
1305:Generated_Source\PSoC6\pdl\drivers\peripheral\prot/cy_prot.c **** * protection struct with its protection attributes. 
1306:Generated_Source\PSoC6\pdl\drivers\peripheral\prot/cy_prot.c **** * 
1307:Generated_Source\PSoC6\pdl\drivers\peripheral\prot/cy_prot.c **** * This function configures the slave struct of a PPU SL pair, which can 
1308:Generated_Source\PSoC6\pdl\drivers\peripheral\prot/cy_prot.c **** * protect an entire peripheral slave instance from invalid bus master accesses.
1309:Generated_Source\PSoC6\pdl\drivers\peripheral\prot/cy_prot.c **** * For example, TCPWM0, TCPWM1, SCB0 and SCB1 etc.
ARM GAS  C:\Users\salaz\AppData\Local\Temp\ccSSnxm1.s 			page 85


1310:Generated_Source\PSoC6\pdl\drivers\peripheral\prot/cy_prot.c **** *
1311:Generated_Source\PSoC6\pdl\drivers\peripheral\prot/cy_prot.c **** * Each fixed PPU SL is devoted to a defined peripheral slave. Hence the address, 
1312:Generated_Source\PSoC6\pdl\drivers\peripheral\prot/cy_prot.c **** * regionSize and subregions of the configuration struct are not applicable.
1313:Generated_Source\PSoC6\pdl\drivers\peripheral\prot/cy_prot.c **** *
1314:Generated_Source\PSoC6\pdl\drivers\peripheral\prot/cy_prot.c **** * Note that the user/privileged execute accesses are read-only and are always 
1315:Generated_Source\PSoC6\pdl\drivers\peripheral\prot/cy_prot.c **** * enabled. 
1316:Generated_Source\PSoC6\pdl\drivers\peripheral\prot/cy_prot.c **** *
1317:Generated_Source\PSoC6\pdl\drivers\peripheral\prot/cy_prot.c **** * \param base
1318:Generated_Source\PSoC6\pdl\drivers\peripheral\prot/cy_prot.c **** * The register base address of the protection structure being configured.
1319:Generated_Source\PSoC6\pdl\drivers\peripheral\prot/cy_prot.c **** * 
1320:Generated_Source\PSoC6\pdl\drivers\peripheral\prot/cy_prot.c **** * \param config
1321:Generated_Source\PSoC6\pdl\drivers\peripheral\prot/cy_prot.c **** * Initialization structure with all the protection attributes.
1322:Generated_Source\PSoC6\pdl\drivers\peripheral\prot/cy_prot.c **** * 
1323:Generated_Source\PSoC6\pdl\drivers\peripheral\prot/cy_prot.c **** * \return
1324:Generated_Source\PSoC6\pdl\drivers\peripheral\prot/cy_prot.c **** * Status of the function call.
1325:Generated_Source\PSoC6\pdl\drivers\peripheral\prot/cy_prot.c **** *
1326:Generated_Source\PSoC6\pdl\drivers\peripheral\prot/cy_prot.c **** *   Status               | Description
1327:Generated_Source\PSoC6\pdl\drivers\peripheral\prot/cy_prot.c **** *   ------------         | -----------
1328:Generated_Source\PSoC6\pdl\drivers\peripheral\prot/cy_prot.c **** *   CY_PROT_SUCCESS      | PPU SL slave struct was successfully configured
1329:Generated_Source\PSoC6\pdl\drivers\peripheral\prot/cy_prot.c **** *   CY_PROT_FAILURE      | The resource is locked
1330:Generated_Source\PSoC6\pdl\drivers\peripheral\prot/cy_prot.c **** *   CY_PROT_BAD_PARAM    | An incorrect/invalid parameter was passed
1331:Generated_Source\PSoC6\pdl\drivers\peripheral\prot/cy_prot.c **** *
1332:Generated_Source\PSoC6\pdl\drivers\peripheral\prot/cy_prot.c **** * \funcusage
1333:Generated_Source\PSoC6\pdl\drivers\peripheral\prot/cy_prot.c **** * \snippet prot/prot_v1_10_sut_01.cydsn/main_cm4.c snippet_Cy_Prot_ConfigPpuFixedSlSlaveStruct
1334:Generated_Source\PSoC6\pdl\drivers\peripheral\prot/cy_prot.c **** *
1335:Generated_Source\PSoC6\pdl\drivers\peripheral\prot/cy_prot.c **** *******************************************************************************/
1336:Generated_Source\PSoC6\pdl\drivers\peripheral\prot/cy_prot.c **** cy_en_prot_status_t Cy_Prot_ConfigPpuFixedSlSlaveStruct(PERI_GR_PPU_SL_Type* base, const cy_stc_ppu
1337:Generated_Source\PSoC6\pdl\drivers\peripheral\prot/cy_prot.c **** {
 3461              		.loc 1 1337 0
 3462              		.cfi_startproc
 3463              		@ args = 0, pretend = 0, frame = 16
 3464              		@ frame_needed = 1, uses_anonymous_args = 0
 3465 0000 80B5     		push	{r7, lr}
 3466              		.cfi_def_cfa_offset 8
 3467              		.cfi_offset 7, -8
 3468              		.cfi_offset 14, -4
 3469 0002 84B0     		sub	sp, sp, #16
 3470              		.cfi_def_cfa_offset 24
 3471 0004 00AF     		add	r7, sp, #0
 3472              		.cfi_def_cfa_register 7
 3473 0006 7860     		str	r0, [r7, #4]
 3474 0008 3960     		str	r1, [r7]
1338:Generated_Source\PSoC6\pdl\drivers\peripheral\prot/cy_prot.c ****     cy_en_prot_status_t status;
1339:Generated_Source\PSoC6\pdl\drivers\peripheral\prot/cy_prot.c ****     uint32_t attReg;
1340:Generated_Source\PSoC6\pdl\drivers\peripheral\prot/cy_prot.c ****     
1341:Generated_Source\PSoC6\pdl\drivers\peripheral\prot/cy_prot.c ****     CY_ASSERT_L1(NULL != base);
 3475              		.loc 1 1341 0
 3476 000a 7B68     		ldr	r3, [r7, #4]
 3477 000c 002B     		cmp	r3, #0
 3478 000e 05D1     		bne	.L247
 3479              		.loc 1 1341 0 is_stmt 0 discriminator 1
 3480 0010 3C4A     		ldr	r2, .L256
 3481 0012 3D4B     		ldr	r3, .L256+4
 3482 0014 1100     		movs	r1, r2
 3483 0016 1800     		movs	r0, r3
 3484 0018 FFF7FEFF 		bl	Cy_SysLib_AssertFailed
 3485              	.L247:
ARM GAS  C:\Users\salaz\AppData\Local\Temp\ccSSnxm1.s 			page 86


1342:Generated_Source\PSoC6\pdl\drivers\peripheral\prot/cy_prot.c ****     CY_ASSERT_L3(CY_PROT_IS_FIXED_SL_PERM_VALID(config->userPermission));
 3486              		.loc 1 1342 0 is_stmt 1
 3487 001c 3B68     		ldr	r3, [r7]
 3488 001e 1B78     		ldrb	r3, [r3]
 3489 0020 002B     		cmp	r3, #0
 3490 0022 11D0     		beq	.L248
 3491              		.loc 1 1342 0 is_stmt 0 discriminator 1
 3492 0024 3B68     		ldr	r3, [r7]
 3493 0026 1B78     		ldrb	r3, [r3]
 3494 0028 012B     		cmp	r3, #1
 3495 002a 0DD0     		beq	.L248
 3496              		.loc 1 1342 0 discriminator 2
 3497 002c 3B68     		ldr	r3, [r7]
 3498 002e 1B78     		ldrb	r3, [r3]
 3499 0030 022B     		cmp	r3, #2
 3500 0032 09D0     		beq	.L248
 3501              		.loc 1 1342 0 discriminator 3
 3502 0034 3B68     		ldr	r3, [r7]
 3503 0036 1B78     		ldrb	r3, [r3]
 3504 0038 032B     		cmp	r3, #3
 3505 003a 05D0     		beq	.L248
 3506              		.loc 1 1342 0 discriminator 4
 3507 003c 334A     		ldr	r2, .L256+8
 3508 003e 324B     		ldr	r3, .L256+4
 3509 0040 1100     		movs	r1, r2
 3510 0042 1800     		movs	r0, r3
 3511 0044 FFF7FEFF 		bl	Cy_SysLib_AssertFailed
 3512              	.L248:
1343:Generated_Source\PSoC6\pdl\drivers\peripheral\prot/cy_prot.c ****     CY_ASSERT_L3(CY_PROT_IS_FIXED_SL_PERM_VALID(config->privPermission));
 3513              		.loc 1 1343 0 is_stmt 1
 3514 0048 3B68     		ldr	r3, [r7]
 3515 004a 5B78     		ldrb	r3, [r3, #1]
 3516 004c 002B     		cmp	r3, #0
 3517 004e 11D0     		beq	.L249
 3518              		.loc 1 1343 0 is_stmt 0 discriminator 1
 3519 0050 3B68     		ldr	r3, [r7]
 3520 0052 5B78     		ldrb	r3, [r3, #1]
 3521 0054 012B     		cmp	r3, #1
 3522 0056 0DD0     		beq	.L249
 3523              		.loc 1 1343 0 discriminator 2
 3524 0058 3B68     		ldr	r3, [r7]
 3525 005a 5B78     		ldrb	r3, [r3, #1]
 3526 005c 022B     		cmp	r3, #2
 3527 005e 09D0     		beq	.L249
 3528              		.loc 1 1343 0 discriminator 3
 3529 0060 3B68     		ldr	r3, [r7]
 3530 0062 5B78     		ldrb	r3, [r3, #1]
 3531 0064 032B     		cmp	r3, #3
 3532 0066 05D0     		beq	.L249
 3533              		.loc 1 1343 0 discriminator 4
 3534 0068 294A     		ldr	r2, .L256+12
 3535 006a 274B     		ldr	r3, .L256+4
 3536 006c 1100     		movs	r1, r2
 3537 006e 1800     		movs	r0, r3
 3538 0070 FFF7FEFF 		bl	Cy_SysLib_AssertFailed
 3539              	.L249:
1344:Generated_Source\PSoC6\pdl\drivers\peripheral\prot/cy_prot.c ****     
ARM GAS  C:\Users\salaz\AppData\Local\Temp\ccSSnxm1.s 			page 87


1345:Generated_Source\PSoC6\pdl\drivers\peripheral\prot/cy_prot.c ****     if(((uint32_t)config->pcMask & CY_PROT_PPU_FIXED_PC_LIMIT_MASK) != 0UL) 
 3540              		.loc 1 1345 0 is_stmt 1
 3541 0074 3B68     		ldr	r3, [r7]
 3542 0076 9B88     		ldrh	r3, [r3, #4]
 3543 0078 1A00     		movs	r2, r3
 3544 007a 7F23     		movs	r3, #127
 3545 007c 9A43     		bics	r2, r3
 3546 007e 131E     		subs	r3, r2, #0
 3547 0080 02D0     		beq	.L250
1346:Generated_Source\PSoC6\pdl\drivers\peripheral\prot/cy_prot.c ****     {
1347:Generated_Source\PSoC6\pdl\drivers\peripheral\prot/cy_prot.c ****         /* PC mask out of range - not supported in device */
1348:Generated_Source\PSoC6\pdl\drivers\peripheral\prot/cy_prot.c ****         status = CY_PROT_BAD_PARAM;
 3548              		.loc 1 1348 0
 3549 0082 244B     		ldr	r3, .L256+16
 3550 0084 FB60     		str	r3, [r7, #12]
 3551 0086 38E0     		b	.L251
 3552              	.L250:
1349:Generated_Source\PSoC6\pdl\drivers\peripheral\prot/cy_prot.c ****     }
1350:Generated_Source\PSoC6\pdl\drivers\peripheral\prot/cy_prot.c ****     else
1351:Generated_Source\PSoC6\pdl\drivers\peripheral\prot/cy_prot.c ****     {
1352:Generated_Source\PSoC6\pdl\drivers\peripheral\prot/cy_prot.c ****         /* ADDR0 is read only. Only configure ATT0 */
1353:Generated_Source\PSoC6\pdl\drivers\peripheral\prot/cy_prot.c ****         attReg = ((uint32_t)config->userPermission & CY_PROT_ATT_PERMISSION_MASK)
 3553              		.loc 1 1353 0
 3554 0088 3B68     		ldr	r3, [r7]
 3555 008a 1B78     		ldrb	r3, [r3]
 3556 008c 1A00     		movs	r2, r3
 3557 008e 0723     		movs	r3, #7
 3558 0090 1A40     		ands	r2, r3
1354:Generated_Source\PSoC6\pdl\drivers\peripheral\prot/cy_prot.c ****                     | (uint32_t)(((uint32_t)config->privPermission & CY_PROT_ATT_PERMISSION_MASK) <
 3559              		.loc 1 1354 0
 3560 0092 3B68     		ldr	r3, [r7]
 3561 0094 5B78     		ldrb	r3, [r3, #1]
 3562 0096 DB00     		lsls	r3, r3, #3
 3563 0098 3821     		movs	r1, #56
 3564 009a 0B40     		ands	r3, r1
 3565 009c 1A43     		orrs	r2, r3
1355:Generated_Source\PSoC6\pdl\drivers\peripheral\prot/cy_prot.c ****                     | _VAL2FLD(PERI_GR_PPU_SL_ATT0_NS, !(config->secure))
 3566              		.loc 1 1355 0
 3567 009e 3B68     		ldr	r3, [r7]
 3568 00a0 9B78     		ldrb	r3, [r3, #2]
 3569 00a2 0121     		movs	r1, #1
 3570 00a4 4B40     		eors	r3, r1
 3571 00a6 DBB2     		uxtb	r3, r3
 3572 00a8 9B01     		lsls	r3, r3, #6
 3573 00aa 4021     		movs	r1, #64
 3574 00ac 0B40     		ands	r3, r1
 3575 00ae 1A43     		orrs	r2, r3
1356:Generated_Source\PSoC6\pdl\drivers\peripheral\prot/cy_prot.c ****                     | _VAL2FLD(PERI_GR_PPU_SL_ATT0_PC_MASK_15_TO_1, config->pcMask)
 3576              		.loc 1 1356 0
 3577 00b0 3B68     		ldr	r3, [r7]
 3578 00b2 9B88     		ldrh	r3, [r3, #4]
 3579 00b4 5B02     		lsls	r3, r3, #9
 3580 00b6 1849     		ldr	r1, .L256+20
 3581 00b8 0B40     		ands	r3, r1
 3582 00ba 1A43     		orrs	r2, r3
1357:Generated_Source\PSoC6\pdl\drivers\peripheral\prot/cy_prot.c ****                     /* No region size - read only */
1358:Generated_Source\PSoC6\pdl\drivers\peripheral\prot/cy_prot.c ****                     | _VAL2FLD(PERI_GR_PPU_SL_ATT0_PC_MATCH, config->pcMatch);
ARM GAS  C:\Users\salaz\AppData\Local\Temp\ccSSnxm1.s 			page 88


 3583              		.loc 1 1358 0
 3584 00bc 3B68     		ldr	r3, [r7]
 3585 00be DB78     		ldrb	r3, [r3, #3]
 3586 00c0 9907     		lsls	r1, r3, #30
 3587 00c2 8023     		movs	r3, #128
 3588 00c4 DB05     		lsls	r3, r3, #23
 3589 00c6 0B40     		ands	r3, r1
1353:Generated_Source\PSoC6\pdl\drivers\peripheral\prot/cy_prot.c ****                     | (uint32_t)(((uint32_t)config->privPermission & CY_PROT_ATT_PERMISSION_MASK) <
 3590              		.loc 1 1353 0
 3591 00c8 1343     		orrs	r3, r2
 3592 00ca BB60     		str	r3, [r7, #8]
1359:Generated_Source\PSoC6\pdl\drivers\peripheral\prot/cy_prot.c ****         if ((attReg & CY_PROT_PPU_SL_ATT0_MASK) != attReg)
 3593              		.loc 1 1359 0
 3594 00cc BB68     		ldr	r3, [r7, #8]
 3595 00ce 134A     		ldr	r2, .L256+24
 3596 00d0 1A40     		ands	r2, r3
 3597 00d2 BB68     		ldr	r3, [r7, #8]
 3598 00d4 9A42     		cmp	r2, r3
 3599 00d6 02D0     		beq	.L252
1360:Generated_Source\PSoC6\pdl\drivers\peripheral\prot/cy_prot.c ****         {
1361:Generated_Source\PSoC6\pdl\drivers\peripheral\prot/cy_prot.c ****             /* Invalid parameter was passed */
1362:Generated_Source\PSoC6\pdl\drivers\peripheral\prot/cy_prot.c ****             status = CY_PROT_BAD_PARAM;
 3600              		.loc 1 1362 0
 3601 00d8 0E4B     		ldr	r3, .L256+16
 3602 00da FB60     		str	r3, [r7, #12]
 3603 00dc 0DE0     		b	.L251
 3604              	.L252:
1363:Generated_Source\PSoC6\pdl\drivers\peripheral\prot/cy_prot.c ****         }
1364:Generated_Source\PSoC6\pdl\drivers\peripheral\prot/cy_prot.c ****         else
1365:Generated_Source\PSoC6\pdl\drivers\peripheral\prot/cy_prot.c ****         {
1366:Generated_Source\PSoC6\pdl\drivers\peripheral\prot/cy_prot.c ****             base->ATT0 = attReg;
 3605              		.loc 1 1366 0
 3606 00de 7B68     		ldr	r3, [r7, #4]
 3607 00e0 BA68     		ldr	r2, [r7, #8]
 3608 00e2 5A60     		str	r2, [r3, #4]
1367:Generated_Source\PSoC6\pdl\drivers\peripheral\prot/cy_prot.c ****             status = ((base->ATT0 & CY_PROT_PPU_SL_ATT0_MASK) != attReg) ? CY_PROT_FAILURE : CY_PRO
 3609              		.loc 1 1367 0
 3610 00e4 7B68     		ldr	r3, [r7, #4]
 3611 00e6 5B68     		ldr	r3, [r3, #4]
 3612 00e8 0C4A     		ldr	r2, .L256+24
 3613 00ea 1A40     		ands	r2, r3
 3614 00ec BB68     		ldr	r3, [r7, #8]
 3615 00ee 9A42     		cmp	r2, r3
 3616 00f0 01D0     		beq	.L253
 3617              		.loc 1 1367 0 is_stmt 0 discriminator 1
 3618 00f2 0B4B     		ldr	r3, .L256+28
 3619 00f4 00E0     		b	.L254
 3620              	.L253:
 3621              		.loc 1 1367 0 discriminator 2
 3622 00f6 0023     		movs	r3, #0
 3623              	.L254:
 3624              		.loc 1 1367 0 discriminator 4
 3625 00f8 FB60     		str	r3, [r7, #12]
 3626              	.L251:
1368:Generated_Source\PSoC6\pdl\drivers\peripheral\prot/cy_prot.c ****         }
1369:Generated_Source\PSoC6\pdl\drivers\peripheral\prot/cy_prot.c ****     }
1370:Generated_Source\PSoC6\pdl\drivers\peripheral\prot/cy_prot.c ****     
ARM GAS  C:\Users\salaz\AppData\Local\Temp\ccSSnxm1.s 			page 89


1371:Generated_Source\PSoC6\pdl\drivers\peripheral\prot/cy_prot.c ****     return status;
 3627              		.loc 1 1371 0 is_stmt 1
 3628 00fa FB68     		ldr	r3, [r7, #12]
1372:Generated_Source\PSoC6\pdl\drivers\peripheral\prot/cy_prot.c **** }
 3629              		.loc 1 1372 0
 3630 00fc 1800     		movs	r0, r3
 3631 00fe BD46     		mov	sp, r7
 3632 0100 04B0     		add	sp, sp, #16
 3633              		@ sp needed
 3634 0102 80BD     		pop	{r7, pc}
 3635              	.L257:
 3636              		.align	2
 3637              	.L256:
 3638 0104 3D050000 		.word	1341
 3639 0108 00000000 		.word	.LC0
 3640 010c 3E050000 		.word	1342
 3641 0110 3F050000 		.word	1343
 3642 0114 0100C200 		.word	12713985
 3643 0118 00FEFF00 		.word	16776704
 3644 011c DBFEFFE0 		.word	-520093989
 3645 0120 0300C200 		.word	12713987
 3646              		.cfi_endproc
 3647              	.LFE61:
 3648              		.size	Cy_Prot_ConfigPpuFixedSlSlaveStruct, .-Cy_Prot_ConfigPpuFixedSlSlaveStruct
 3649              		.section	.text.Cy_Prot_EnablePpuFixedSlMasterStruct,"ax",%progbits
 3650              		.align	2
 3651              		.global	Cy_Prot_EnablePpuFixedSlMasterStruct
 3652              		.code	16
 3653              		.thumb_func
 3654              		.type	Cy_Prot_EnablePpuFixedSlMasterStruct, %function
 3655              	Cy_Prot_EnablePpuFixedSlMasterStruct:
 3656              	.LFB62:
1373:Generated_Source\PSoC6\pdl\drivers\peripheral\prot/cy_prot.c **** 
1374:Generated_Source\PSoC6\pdl\drivers\peripheral\prot/cy_prot.c **** 
1375:Generated_Source\PSoC6\pdl\drivers\peripheral\prot/cy_prot.c **** /*******************************************************************************
1376:Generated_Source\PSoC6\pdl\drivers\peripheral\prot/cy_prot.c **** * Function Name: Cy_Prot_EnablePpuFixedSlMasterStruct
1377:Generated_Source\PSoC6\pdl\drivers\peripheral\prot/cy_prot.c **** ****************************************************************************//**
1378:Generated_Source\PSoC6\pdl\drivers\peripheral\prot/cy_prot.c **** *
1379:Generated_Source\PSoC6\pdl\drivers\peripheral\prot/cy_prot.c **** * \brief Enables the Master PPU SL structure.
1380:Generated_Source\PSoC6\pdl\drivers\peripheral\prot/cy_prot.c **** *
1381:Generated_Source\PSoC6\pdl\drivers\peripheral\prot/cy_prot.c **** * This is a PPU SL master struct enable function. The PPU SL protection 
1382:Generated_Source\PSoC6\pdl\drivers\peripheral\prot/cy_prot.c **** * settings will take effect after successful completion of this function call.
1383:Generated_Source\PSoC6\pdl\drivers\peripheral\prot/cy_prot.c **** *
1384:Generated_Source\PSoC6\pdl\drivers\peripheral\prot/cy_prot.c **** * \param base
1385:Generated_Source\PSoC6\pdl\drivers\peripheral\prot/cy_prot.c **** * The base address for the protection unit structure being configured. 
1386:Generated_Source\PSoC6\pdl\drivers\peripheral\prot/cy_prot.c **** *
1387:Generated_Source\PSoC6\pdl\drivers\peripheral\prot/cy_prot.c **** * \return
1388:Generated_Source\PSoC6\pdl\drivers\peripheral\prot/cy_prot.c **** * Status of the function call.
1389:Generated_Source\PSoC6\pdl\drivers\peripheral\prot/cy_prot.c **** *
1390:Generated_Source\PSoC6\pdl\drivers\peripheral\prot/cy_prot.c **** *   Status               | Description
1391:Generated_Source\PSoC6\pdl\drivers\peripheral\prot/cy_prot.c **** *   ------------         | -----------
1392:Generated_Source\PSoC6\pdl\drivers\peripheral\prot/cy_prot.c **** *   CY_PROT_SUCCESS      | The Master PU struct was enabled
1393:Generated_Source\PSoC6\pdl\drivers\peripheral\prot/cy_prot.c **** *   CY_PROT_FAILURE      | The Master PU struct is disabled and possibly locked
1394:Generated_Source\PSoC6\pdl\drivers\peripheral\prot/cy_prot.c **** *
1395:Generated_Source\PSoC6\pdl\drivers\peripheral\prot/cy_prot.c **** * \funcusage
1396:Generated_Source\PSoC6\pdl\drivers\peripheral\prot/cy_prot.c **** * \snippet prot/prot_v1_10_sut_01.cydsn/main_cm4.c snippet_Cy_Prot_EnablePpuFixedSlMasterStruct
1397:Generated_Source\PSoC6\pdl\drivers\peripheral\prot/cy_prot.c **** *
ARM GAS  C:\Users\salaz\AppData\Local\Temp\ccSSnxm1.s 			page 90


1398:Generated_Source\PSoC6\pdl\drivers\peripheral\prot/cy_prot.c **** *******************************************************************************/
1399:Generated_Source\PSoC6\pdl\drivers\peripheral\prot/cy_prot.c **** cy_en_prot_status_t Cy_Prot_EnablePpuFixedSlMasterStruct(PERI_GR_PPU_SL_Type* base)
1400:Generated_Source\PSoC6\pdl\drivers\peripheral\prot/cy_prot.c **** {
 3657              		.loc 1 1400 0
 3658              		.cfi_startproc
 3659              		@ args = 0, pretend = 0, frame = 16
 3660              		@ frame_needed = 1, uses_anonymous_args = 0
 3661 0000 80B5     		push	{r7, lr}
 3662              		.cfi_def_cfa_offset 8
 3663              		.cfi_offset 7, -8
 3664              		.cfi_offset 14, -4
 3665 0002 84B0     		sub	sp, sp, #16
 3666              		.cfi_def_cfa_offset 24
 3667 0004 00AF     		add	r7, sp, #0
 3668              		.cfi_def_cfa_register 7
 3669 0006 7860     		str	r0, [r7, #4]
1401:Generated_Source\PSoC6\pdl\drivers\peripheral\prot/cy_prot.c ****     cy_en_prot_status_t status;
1402:Generated_Source\PSoC6\pdl\drivers\peripheral\prot/cy_prot.c ****     
1403:Generated_Source\PSoC6\pdl\drivers\peripheral\prot/cy_prot.c ****     base->ATT1 |= _VAL2FLD(PERI_GR_PPU_SL_ATT1_ENABLED, CY_PROT_STRUCT_ENABLE);
 3670              		.loc 1 1403 0
 3671 0008 7B68     		ldr	r3, [r7, #4]
 3672 000a 5B6A     		ldr	r3, [r3, #36]
 3673 000c 8022     		movs	r2, #128
 3674 000e 1206     		lsls	r2, r2, #24
 3675 0010 1A43     		orrs	r2, r3
 3676 0012 7B68     		ldr	r3, [r7, #4]
 3677 0014 5A62     		str	r2, [r3, #36]
1404:Generated_Source\PSoC6\pdl\drivers\peripheral\prot/cy_prot.c ****     status = (_FLD2VAL(PERI_GR_PPU_SL_ATT1_ENABLED, base->ATT1) != CY_PROT_STRUCT_ENABLE) ?
 3678              		.loc 1 1404 0
 3679 0016 7B68     		ldr	r3, [r7, #4]
 3680 0018 5B6A     		ldr	r3, [r3, #36]
 3681 001a DB0F     		lsrs	r3, r3, #31
 3682 001c DB07     		lsls	r3, r3, #31
 3683 001e DB0F     		lsrs	r3, r3, #31
 3684 0020 012B     		cmp	r3, #1
 3685 0022 01D0     		beq	.L259
 3686              		.loc 1 1404 0 is_stmt 0 discriminator 1
 3687 0024 044B     		ldr	r3, .L262
 3688 0026 00E0     		b	.L260
 3689              	.L259:
 3690              		.loc 1 1404 0 discriminator 2
 3691 0028 0023     		movs	r3, #0
 3692              	.L260:
 3693              		.loc 1 1404 0 discriminator 4
 3694 002a FB60     		str	r3, [r7, #12]
1405:Generated_Source\PSoC6\pdl\drivers\peripheral\prot/cy_prot.c ****                 CY_PROT_FAILURE : CY_PROT_SUCCESS;
1406:Generated_Source\PSoC6\pdl\drivers\peripheral\prot/cy_prot.c ****     
1407:Generated_Source\PSoC6\pdl\drivers\peripheral\prot/cy_prot.c ****     return status;
 3695              		.loc 1 1407 0 is_stmt 1 discriminator 4
 3696 002c FB68     		ldr	r3, [r7, #12]
1408:Generated_Source\PSoC6\pdl\drivers\peripheral\prot/cy_prot.c **** }
 3697              		.loc 1 1408 0 discriminator 4
 3698 002e 1800     		movs	r0, r3
 3699 0030 BD46     		mov	sp, r7
 3700 0032 04B0     		add	sp, sp, #16
 3701              		@ sp needed
 3702 0034 80BD     		pop	{r7, pc}
ARM GAS  C:\Users\salaz\AppData\Local\Temp\ccSSnxm1.s 			page 91


 3703              	.L263:
 3704 0036 C046     		.align	2
 3705              	.L262:
 3706 0038 0300C200 		.word	12713987
 3707              		.cfi_endproc
 3708              	.LFE62:
 3709              		.size	Cy_Prot_EnablePpuFixedSlMasterStruct, .-Cy_Prot_EnablePpuFixedSlMasterStruct
 3710              		.section	.text.Cy_Prot_DisablePpuFixedSlMasterStruct,"ax",%progbits
 3711              		.align	2
 3712              		.global	Cy_Prot_DisablePpuFixedSlMasterStruct
 3713              		.code	16
 3714              		.thumb_func
 3715              		.type	Cy_Prot_DisablePpuFixedSlMasterStruct, %function
 3716              	Cy_Prot_DisablePpuFixedSlMasterStruct:
 3717              	.LFB63:
1409:Generated_Source\PSoC6\pdl\drivers\peripheral\prot/cy_prot.c **** 
1410:Generated_Source\PSoC6\pdl\drivers\peripheral\prot/cy_prot.c **** 
1411:Generated_Source\PSoC6\pdl\drivers\peripheral\prot/cy_prot.c **** /*******************************************************************************
1412:Generated_Source\PSoC6\pdl\drivers\peripheral\prot/cy_prot.c **** * Function Name: Cy_Prot_DisablePpuFixedSlMasterStruct
1413:Generated_Source\PSoC6\pdl\drivers\peripheral\prot/cy_prot.c **** ****************************************************************************//**
1414:Generated_Source\PSoC6\pdl\drivers\peripheral\prot/cy_prot.c **** *
1415:Generated_Source\PSoC6\pdl\drivers\peripheral\prot/cy_prot.c **** * \brief Disables the Master PPU SL structure.
1416:Generated_Source\PSoC6\pdl\drivers\peripheral\prot/cy_prot.c **** *
1417:Generated_Source\PSoC6\pdl\drivers\peripheral\prot/cy_prot.c **** * This is a PPU SL master struct disable function. The PPU SL protection 
1418:Generated_Source\PSoC6\pdl\drivers\peripheral\prot/cy_prot.c **** * settings will seize to take effect after successful completion of this 
1419:Generated_Source\PSoC6\pdl\drivers\peripheral\prot/cy_prot.c **** * function call.
1420:Generated_Source\PSoC6\pdl\drivers\peripheral\prot/cy_prot.c **** *
1421:Generated_Source\PSoC6\pdl\drivers\peripheral\prot/cy_prot.c **** * \param base
1422:Generated_Source\PSoC6\pdl\drivers\peripheral\prot/cy_prot.c **** * The base address for the protection unit structure being configured. 
1423:Generated_Source\PSoC6\pdl\drivers\peripheral\prot/cy_prot.c **** *
1424:Generated_Source\PSoC6\pdl\drivers\peripheral\prot/cy_prot.c **** * \return
1425:Generated_Source\PSoC6\pdl\drivers\peripheral\prot/cy_prot.c **** * Status of the function call.
1426:Generated_Source\PSoC6\pdl\drivers\peripheral\prot/cy_prot.c **** *
1427:Generated_Source\PSoC6\pdl\drivers\peripheral\prot/cy_prot.c **** *   Status               | Description
1428:Generated_Source\PSoC6\pdl\drivers\peripheral\prot/cy_prot.c **** *   ------------         | -----------
1429:Generated_Source\PSoC6\pdl\drivers\peripheral\prot/cy_prot.c **** *   CY_PROT_SUCCESS      | The Master PU struct was disabled
1430:Generated_Source\PSoC6\pdl\drivers\peripheral\prot/cy_prot.c **** *   CY_PROT_FAILURE      | The Master PU struct is enabled and possibly locked
1431:Generated_Source\PSoC6\pdl\drivers\peripheral\prot/cy_prot.c **** *
1432:Generated_Source\PSoC6\pdl\drivers\peripheral\prot/cy_prot.c **** * \funcusage
1433:Generated_Source\PSoC6\pdl\drivers\peripheral\prot/cy_prot.c **** * \snippet prot/prot_v1_10_sut_01.cydsn/main_cm4.c snippet_Cy_Prot_DisablePpuFixedSlMasterStruct
1434:Generated_Source\PSoC6\pdl\drivers\peripheral\prot/cy_prot.c **** *
1435:Generated_Source\PSoC6\pdl\drivers\peripheral\prot/cy_prot.c **** *******************************************************************************/
1436:Generated_Source\PSoC6\pdl\drivers\peripheral\prot/cy_prot.c **** cy_en_prot_status_t Cy_Prot_DisablePpuFixedSlMasterStruct(PERI_GR_PPU_SL_Type* base)
1437:Generated_Source\PSoC6\pdl\drivers\peripheral\prot/cy_prot.c **** {
 3718              		.loc 1 1437 0
 3719              		.cfi_startproc
 3720              		@ args = 0, pretend = 0, frame = 16
 3721              		@ frame_needed = 1, uses_anonymous_args = 0
 3722 0000 80B5     		push	{r7, lr}
 3723              		.cfi_def_cfa_offset 8
 3724              		.cfi_offset 7, -8
 3725              		.cfi_offset 14, -4
 3726 0002 84B0     		sub	sp, sp, #16
 3727              		.cfi_def_cfa_offset 24
 3728 0004 00AF     		add	r7, sp, #0
 3729              		.cfi_def_cfa_register 7
 3730 0006 7860     		str	r0, [r7, #4]
ARM GAS  C:\Users\salaz\AppData\Local\Temp\ccSSnxm1.s 			page 92


1438:Generated_Source\PSoC6\pdl\drivers\peripheral\prot/cy_prot.c ****     cy_en_prot_status_t status;
1439:Generated_Source\PSoC6\pdl\drivers\peripheral\prot/cy_prot.c ****     
1440:Generated_Source\PSoC6\pdl\drivers\peripheral\prot/cy_prot.c ****     base->ATT1 &= ~_VAL2FLD(PERI_GR_PPU_SL_ATT1_ENABLED, CY_PROT_STRUCT_ENABLE);
 3731              		.loc 1 1440 0
 3732 0008 7B68     		ldr	r3, [r7, #4]
 3733 000a 5B6A     		ldr	r3, [r3, #36]
 3734 000c 5B00     		lsls	r3, r3, #1
 3735 000e 5A08     		lsrs	r2, r3, #1
 3736 0010 7B68     		ldr	r3, [r7, #4]
 3737 0012 5A62     		str	r2, [r3, #36]
1441:Generated_Source\PSoC6\pdl\drivers\peripheral\prot/cy_prot.c ****     status = (_FLD2VAL(PERI_GR_PPU_SL_ATT1_ENABLED, base->ATT1) == CY_PROT_STRUCT_ENABLE) ?
 3738              		.loc 1 1441 0
 3739 0014 7B68     		ldr	r3, [r7, #4]
 3740 0016 5B6A     		ldr	r3, [r3, #36]
 3741 0018 DB0F     		lsrs	r3, r3, #31
 3742 001a DB07     		lsls	r3, r3, #31
 3743 001c DB0F     		lsrs	r3, r3, #31
 3744 001e 012B     		cmp	r3, #1
 3745 0020 01D1     		bne	.L265
 3746              		.loc 1 1441 0 is_stmt 0 discriminator 1
 3747 0022 044B     		ldr	r3, .L268
 3748 0024 00E0     		b	.L266
 3749              	.L265:
 3750              		.loc 1 1441 0 discriminator 2
 3751 0026 0023     		movs	r3, #0
 3752              	.L266:
 3753              		.loc 1 1441 0 discriminator 4
 3754 0028 FB60     		str	r3, [r7, #12]
1442:Generated_Source\PSoC6\pdl\drivers\peripheral\prot/cy_prot.c ****                 CY_PROT_FAILURE : CY_PROT_SUCCESS;
1443:Generated_Source\PSoC6\pdl\drivers\peripheral\prot/cy_prot.c ****     
1444:Generated_Source\PSoC6\pdl\drivers\peripheral\prot/cy_prot.c ****     return status;
 3755              		.loc 1 1444 0 is_stmt 1 discriminator 4
 3756 002a FB68     		ldr	r3, [r7, #12]
1445:Generated_Source\PSoC6\pdl\drivers\peripheral\prot/cy_prot.c **** }
 3757              		.loc 1 1445 0 discriminator 4
 3758 002c 1800     		movs	r0, r3
 3759 002e BD46     		mov	sp, r7
 3760 0030 04B0     		add	sp, sp, #16
 3761              		@ sp needed
 3762 0032 80BD     		pop	{r7, pc}
 3763              	.L269:
 3764              		.align	2
 3765              	.L268:
 3766 0034 0300C200 		.word	12713987
 3767              		.cfi_endproc
 3768              	.LFE63:
 3769              		.size	Cy_Prot_DisablePpuFixedSlMasterStruct, .-Cy_Prot_DisablePpuFixedSlMasterStruct
 3770              		.section	.text.Cy_Prot_EnablePpuFixedSlSlaveStruct,"ax",%progbits
 3771              		.align	2
 3772              		.global	Cy_Prot_EnablePpuFixedSlSlaveStruct
 3773              		.code	16
 3774              		.thumb_func
 3775              		.type	Cy_Prot_EnablePpuFixedSlSlaveStruct, %function
 3776              	Cy_Prot_EnablePpuFixedSlSlaveStruct:
 3777              	.LFB64:
1446:Generated_Source\PSoC6\pdl\drivers\peripheral\prot/cy_prot.c **** 
1447:Generated_Source\PSoC6\pdl\drivers\peripheral\prot/cy_prot.c **** 
ARM GAS  C:\Users\salaz\AppData\Local\Temp\ccSSnxm1.s 			page 93


1448:Generated_Source\PSoC6\pdl\drivers\peripheral\prot/cy_prot.c **** /*******************************************************************************
1449:Generated_Source\PSoC6\pdl\drivers\peripheral\prot/cy_prot.c **** * Function Name: Cy_Prot_EnablePpuFixedSlSlaveStruct
1450:Generated_Source\PSoC6\pdl\drivers\peripheral\prot/cy_prot.c **** ****************************************************************************//**
1451:Generated_Source\PSoC6\pdl\drivers\peripheral\prot/cy_prot.c **** *
1452:Generated_Source\PSoC6\pdl\drivers\peripheral\prot/cy_prot.c **** * \brief Enables the Slave PPU SL structure.
1453:Generated_Source\PSoC6\pdl\drivers\peripheral\prot/cy_prot.c **** *
1454:Generated_Source\PSoC6\pdl\drivers\peripheral\prot/cy_prot.c **** * This is a PPU SL slave struct enable function. The PPU SL protection 
1455:Generated_Source\PSoC6\pdl\drivers\peripheral\prot/cy_prot.c **** * settings will take effect after successful completion of this function call.
1456:Generated_Source\PSoC6\pdl\drivers\peripheral\prot/cy_prot.c **** *
1457:Generated_Source\PSoC6\pdl\drivers\peripheral\prot/cy_prot.c **** * \param base
1458:Generated_Source\PSoC6\pdl\drivers\peripheral\prot/cy_prot.c **** * The base address for the protection unit structure being configured. 
1459:Generated_Source\PSoC6\pdl\drivers\peripheral\prot/cy_prot.c **** *
1460:Generated_Source\PSoC6\pdl\drivers\peripheral\prot/cy_prot.c **** * \return
1461:Generated_Source\PSoC6\pdl\drivers\peripheral\prot/cy_prot.c **** * Status of the function call.
1462:Generated_Source\PSoC6\pdl\drivers\peripheral\prot/cy_prot.c **** *
1463:Generated_Source\PSoC6\pdl\drivers\peripheral\prot/cy_prot.c **** *   Status               | Description
1464:Generated_Source\PSoC6\pdl\drivers\peripheral\prot/cy_prot.c **** *   ------------         | -----------
1465:Generated_Source\PSoC6\pdl\drivers\peripheral\prot/cy_prot.c **** *   CY_PROT_SUCCESS      | The Slave PU struct was enabled
1466:Generated_Source\PSoC6\pdl\drivers\peripheral\prot/cy_prot.c **** *   CY_PROT_FAILURE      | The Slave PU struct is disabled and possibly locked
1467:Generated_Source\PSoC6\pdl\drivers\peripheral\prot/cy_prot.c **** *
1468:Generated_Source\PSoC6\pdl\drivers\peripheral\prot/cy_prot.c **** * \funcusage
1469:Generated_Source\PSoC6\pdl\drivers\peripheral\prot/cy_prot.c **** * \snippet prot/prot_v1_10_sut_01.cydsn/main_cm4.c snippet_Cy_Prot_EnablePpuFixedSlSlaveStruct
1470:Generated_Source\PSoC6\pdl\drivers\peripheral\prot/cy_prot.c **** *
1471:Generated_Source\PSoC6\pdl\drivers\peripheral\prot/cy_prot.c **** *******************************************************************************/
1472:Generated_Source\PSoC6\pdl\drivers\peripheral\prot/cy_prot.c **** cy_en_prot_status_t Cy_Prot_EnablePpuFixedSlSlaveStruct(PERI_GR_PPU_SL_Type* base)
1473:Generated_Source\PSoC6\pdl\drivers\peripheral\prot/cy_prot.c **** {   
 3778              		.loc 1 1473 0
 3779              		.cfi_startproc
 3780              		@ args = 0, pretend = 0, frame = 16
 3781              		@ frame_needed = 1, uses_anonymous_args = 0
 3782 0000 80B5     		push	{r7, lr}
 3783              		.cfi_def_cfa_offset 8
 3784              		.cfi_offset 7, -8
 3785              		.cfi_offset 14, -4
 3786 0002 84B0     		sub	sp, sp, #16
 3787              		.cfi_def_cfa_offset 24
 3788 0004 00AF     		add	r7, sp, #0
 3789              		.cfi_def_cfa_register 7
 3790 0006 7860     		str	r0, [r7, #4]
1474:Generated_Source\PSoC6\pdl\drivers\peripheral\prot/cy_prot.c ****     cy_en_prot_status_t status;
1475:Generated_Source\PSoC6\pdl\drivers\peripheral\prot/cy_prot.c ****     
1476:Generated_Source\PSoC6\pdl\drivers\peripheral\prot/cy_prot.c ****     base->ATT0 |= _VAL2FLD(PERI_GR_PPU_SL_ATT0_ENABLED, CY_PROT_STRUCT_ENABLE);
 3791              		.loc 1 1476 0
 3792 0008 7B68     		ldr	r3, [r7, #4]
 3793 000a 5B68     		ldr	r3, [r3, #4]
 3794 000c 8022     		movs	r2, #128
 3795 000e 1206     		lsls	r2, r2, #24
 3796 0010 1A43     		orrs	r2, r3
 3797 0012 7B68     		ldr	r3, [r7, #4]
 3798 0014 5A60     		str	r2, [r3, #4]
1477:Generated_Source\PSoC6\pdl\drivers\peripheral\prot/cy_prot.c ****     status = (_FLD2VAL(PERI_GR_PPU_SL_ATT0_ENABLED, base->ATT0) != CY_PROT_STRUCT_ENABLE) ?
 3799              		.loc 1 1477 0
 3800 0016 7B68     		ldr	r3, [r7, #4]
 3801 0018 5B68     		ldr	r3, [r3, #4]
 3802 001a DB0F     		lsrs	r3, r3, #31
 3803 001c DB07     		lsls	r3, r3, #31
 3804 001e DB0F     		lsrs	r3, r3, #31
ARM GAS  C:\Users\salaz\AppData\Local\Temp\ccSSnxm1.s 			page 94


 3805 0020 012B     		cmp	r3, #1
 3806 0022 01D0     		beq	.L271
 3807              		.loc 1 1477 0 is_stmt 0 discriminator 1
 3808 0024 044B     		ldr	r3, .L274
 3809 0026 00E0     		b	.L272
 3810              	.L271:
 3811              		.loc 1 1477 0 discriminator 2
 3812 0028 0023     		movs	r3, #0
 3813              	.L272:
 3814              		.loc 1 1477 0 discriminator 4
 3815 002a FB60     		str	r3, [r7, #12]
1478:Generated_Source\PSoC6\pdl\drivers\peripheral\prot/cy_prot.c ****                 CY_PROT_FAILURE : CY_PROT_SUCCESS;
1479:Generated_Source\PSoC6\pdl\drivers\peripheral\prot/cy_prot.c ****     
1480:Generated_Source\PSoC6\pdl\drivers\peripheral\prot/cy_prot.c ****     return status;
 3816              		.loc 1 1480 0 is_stmt 1 discriminator 4
 3817 002c FB68     		ldr	r3, [r7, #12]
1481:Generated_Source\PSoC6\pdl\drivers\peripheral\prot/cy_prot.c **** }
 3818              		.loc 1 1481 0 discriminator 4
 3819 002e 1800     		movs	r0, r3
 3820 0030 BD46     		mov	sp, r7
 3821 0032 04B0     		add	sp, sp, #16
 3822              		@ sp needed
 3823 0034 80BD     		pop	{r7, pc}
 3824              	.L275:
 3825 0036 C046     		.align	2
 3826              	.L274:
 3827 0038 0300C200 		.word	12713987
 3828              		.cfi_endproc
 3829              	.LFE64:
 3830              		.size	Cy_Prot_EnablePpuFixedSlSlaveStruct, .-Cy_Prot_EnablePpuFixedSlSlaveStruct
 3831              		.section	.text.Cy_Prot_DisablePpuFixedSlSlaveStruct,"ax",%progbits
 3832              		.align	2
 3833              		.global	Cy_Prot_DisablePpuFixedSlSlaveStruct
 3834              		.code	16
 3835              		.thumb_func
 3836              		.type	Cy_Prot_DisablePpuFixedSlSlaveStruct, %function
 3837              	Cy_Prot_DisablePpuFixedSlSlaveStruct:
 3838              	.LFB65:
1482:Generated_Source\PSoC6\pdl\drivers\peripheral\prot/cy_prot.c **** 
1483:Generated_Source\PSoC6\pdl\drivers\peripheral\prot/cy_prot.c **** 
1484:Generated_Source\PSoC6\pdl\drivers\peripheral\prot/cy_prot.c **** /*******************************************************************************
1485:Generated_Source\PSoC6\pdl\drivers\peripheral\prot/cy_prot.c **** * Function Name: Cy_Prot_DisablePpuFixedSlSlaveStruct
1486:Generated_Source\PSoC6\pdl\drivers\peripheral\prot/cy_prot.c **** ****************************************************************************//**
1487:Generated_Source\PSoC6\pdl\drivers\peripheral\prot/cy_prot.c **** *
1488:Generated_Source\PSoC6\pdl\drivers\peripheral\prot/cy_prot.c **** * \brief Disables the Slave PPU SL structure.
1489:Generated_Source\PSoC6\pdl\drivers\peripheral\prot/cy_prot.c **** *
1490:Generated_Source\PSoC6\pdl\drivers\peripheral\prot/cy_prot.c **** * This is a PPU SL slave struct disable function. The PPU SL protection 
1491:Generated_Source\PSoC6\pdl\drivers\peripheral\prot/cy_prot.c **** * settings will seize to take effect after successful completion of this 
1492:Generated_Source\PSoC6\pdl\drivers\peripheral\prot/cy_prot.c **** * function call.
1493:Generated_Source\PSoC6\pdl\drivers\peripheral\prot/cy_prot.c **** *
1494:Generated_Source\PSoC6\pdl\drivers\peripheral\prot/cy_prot.c **** * \param base
1495:Generated_Source\PSoC6\pdl\drivers\peripheral\prot/cy_prot.c **** * The base address for the protection unit structure being configured. 
1496:Generated_Source\PSoC6\pdl\drivers\peripheral\prot/cy_prot.c **** *
1497:Generated_Source\PSoC6\pdl\drivers\peripheral\prot/cy_prot.c **** * \return
1498:Generated_Source\PSoC6\pdl\drivers\peripheral\prot/cy_prot.c **** * Status of the function call.
1499:Generated_Source\PSoC6\pdl\drivers\peripheral\prot/cy_prot.c **** *
1500:Generated_Source\PSoC6\pdl\drivers\peripheral\prot/cy_prot.c **** *   Status               | Description
ARM GAS  C:\Users\salaz\AppData\Local\Temp\ccSSnxm1.s 			page 95


1501:Generated_Source\PSoC6\pdl\drivers\peripheral\prot/cy_prot.c **** *   ------------         | -----------
1502:Generated_Source\PSoC6\pdl\drivers\peripheral\prot/cy_prot.c **** *   CY_PROT_SUCCESS      | The Slave PU struct was disabled
1503:Generated_Source\PSoC6\pdl\drivers\peripheral\prot/cy_prot.c **** *   CY_PROT_FAILURE      | The Slave PU struct is enabled and possibly locked
1504:Generated_Source\PSoC6\pdl\drivers\peripheral\prot/cy_prot.c **** *
1505:Generated_Source\PSoC6\pdl\drivers\peripheral\prot/cy_prot.c **** * \funcusage
1506:Generated_Source\PSoC6\pdl\drivers\peripheral\prot/cy_prot.c **** * \snippet prot/prot_v1_10_sut_01.cydsn/main_cm4.c snippet_Cy_Prot_DisablePpuFixedSlSlaveStruct
1507:Generated_Source\PSoC6\pdl\drivers\peripheral\prot/cy_prot.c **** *
1508:Generated_Source\PSoC6\pdl\drivers\peripheral\prot/cy_prot.c **** *******************************************************************************/
1509:Generated_Source\PSoC6\pdl\drivers\peripheral\prot/cy_prot.c **** cy_en_prot_status_t Cy_Prot_DisablePpuFixedSlSlaveStruct(PERI_GR_PPU_SL_Type* base)
1510:Generated_Source\PSoC6\pdl\drivers\peripheral\prot/cy_prot.c **** {
 3839              		.loc 1 1510 0
 3840              		.cfi_startproc
 3841              		@ args = 0, pretend = 0, frame = 16
 3842              		@ frame_needed = 1, uses_anonymous_args = 0
 3843 0000 80B5     		push	{r7, lr}
 3844              		.cfi_def_cfa_offset 8
 3845              		.cfi_offset 7, -8
 3846              		.cfi_offset 14, -4
 3847 0002 84B0     		sub	sp, sp, #16
 3848              		.cfi_def_cfa_offset 24
 3849 0004 00AF     		add	r7, sp, #0
 3850              		.cfi_def_cfa_register 7
 3851 0006 7860     		str	r0, [r7, #4]
1511:Generated_Source\PSoC6\pdl\drivers\peripheral\prot/cy_prot.c ****     cy_en_prot_status_t status;
1512:Generated_Source\PSoC6\pdl\drivers\peripheral\prot/cy_prot.c ****     
1513:Generated_Source\PSoC6\pdl\drivers\peripheral\prot/cy_prot.c ****     base->ATT0 &= ~_VAL2FLD(PERI_GR_PPU_SL_ATT0_ENABLED, CY_PROT_STRUCT_ENABLE);
 3852              		.loc 1 1513 0
 3853 0008 7B68     		ldr	r3, [r7, #4]
 3854 000a 5B68     		ldr	r3, [r3, #4]
 3855 000c 5B00     		lsls	r3, r3, #1
 3856 000e 5A08     		lsrs	r2, r3, #1
 3857 0010 7B68     		ldr	r3, [r7, #4]
 3858 0012 5A60     		str	r2, [r3, #4]
1514:Generated_Source\PSoC6\pdl\drivers\peripheral\prot/cy_prot.c ****     status = (_FLD2VAL(PERI_GR_PPU_SL_ATT0_ENABLED, base->ATT0) == CY_PROT_STRUCT_ENABLE) ?
 3859              		.loc 1 1514 0
 3860 0014 7B68     		ldr	r3, [r7, #4]
 3861 0016 5B68     		ldr	r3, [r3, #4]
 3862 0018 DB0F     		lsrs	r3, r3, #31
 3863 001a DB07     		lsls	r3, r3, #31
 3864 001c DB0F     		lsrs	r3, r3, #31
 3865 001e 012B     		cmp	r3, #1
 3866 0020 01D1     		bne	.L277
 3867              		.loc 1 1514 0 is_stmt 0 discriminator 1
 3868 0022 044B     		ldr	r3, .L280
 3869 0024 00E0     		b	.L278
 3870              	.L277:
 3871              		.loc 1 1514 0 discriminator 2
 3872 0026 0023     		movs	r3, #0
 3873              	.L278:
 3874              		.loc 1 1514 0 discriminator 4
 3875 0028 FB60     		str	r3, [r7, #12]
1515:Generated_Source\PSoC6\pdl\drivers\peripheral\prot/cy_prot.c ****                 CY_PROT_FAILURE : CY_PROT_SUCCESS;
1516:Generated_Source\PSoC6\pdl\drivers\peripheral\prot/cy_prot.c ****     
1517:Generated_Source\PSoC6\pdl\drivers\peripheral\prot/cy_prot.c ****     return status;
 3876              		.loc 1 1517 0 is_stmt 1 discriminator 4
 3877 002a FB68     		ldr	r3, [r7, #12]
1518:Generated_Source\PSoC6\pdl\drivers\peripheral\prot/cy_prot.c **** }
ARM GAS  C:\Users\salaz\AppData\Local\Temp\ccSSnxm1.s 			page 96


 3878              		.loc 1 1518 0 discriminator 4
 3879 002c 1800     		movs	r0, r3
 3880 002e BD46     		mov	sp, r7
 3881 0030 04B0     		add	sp, sp, #16
 3882              		@ sp needed
 3883 0032 80BD     		pop	{r7, pc}
 3884              	.L281:
 3885              		.align	2
 3886              	.L280:
 3887 0034 0300C200 		.word	12713987
 3888              		.cfi_endproc
 3889              	.LFE65:
 3890              		.size	Cy_Prot_DisablePpuFixedSlSlaveStruct, .-Cy_Prot_DisablePpuFixedSlSlaveStruct
 3891              		.section	.text.Cy_Prot_ConfigPpuFixedRgMasterStruct,"ax",%progbits
 3892              		.align	2
 3893              		.global	Cy_Prot_ConfigPpuFixedRgMasterStruct
 3894              		.code	16
 3895              		.thumb_func
 3896              		.type	Cy_Prot_ConfigPpuFixedRgMasterStruct, %function
 3897              	Cy_Prot_ConfigPpuFixedRgMasterStruct:
 3898              	.LFB66:
1519:Generated_Source\PSoC6\pdl\drivers\peripheral\prot/cy_prot.c **** 
1520:Generated_Source\PSoC6\pdl\drivers\peripheral\prot/cy_prot.c **** 
1521:Generated_Source\PSoC6\pdl\drivers\peripheral\prot/cy_prot.c **** /*******************************************************************************
1522:Generated_Source\PSoC6\pdl\drivers\peripheral\prot/cy_prot.c **** * Function Name: Cy_Prot_ConfigPpuFixedRgMasterStruct
1523:Generated_Source\PSoC6\pdl\drivers\peripheral\prot/cy_prot.c **** ****************************************************************************//**
1524:Generated_Source\PSoC6\pdl\drivers\peripheral\prot/cy_prot.c **** *
1525:Generated_Source\PSoC6\pdl\drivers\peripheral\prot/cy_prot.c **** * \brief Configures a Fixed Peripheral Region Protection Unit (PPU RG) master 
1526:Generated_Source\PSoC6\pdl\drivers\peripheral\prot/cy_prot.c **** * protection struct with its protection attributes. 
1527:Generated_Source\PSoC6\pdl\drivers\peripheral\prot/cy_prot.c **** *
1528:Generated_Source\PSoC6\pdl\drivers\peripheral\prot/cy_prot.c **** * This function configures the master struct governing the corresponding slave
1529:Generated_Source\PSoC6\pdl\drivers\peripheral\prot/cy_prot.c **** * struct pair. It is a mechanism to protect the slave PPU RG struct. Since
1530:Generated_Source\PSoC6\pdl\drivers\peripheral\prot/cy_prot.c **** * the memory location of the slave struct is known, the address, regionSize and
1531:Generated_Source\PSoC6\pdl\drivers\peripheral\prot/cy_prot.c **** * subregions of the configuration struct are not applicable.
1532:Generated_Source\PSoC6\pdl\drivers\peripheral\prot/cy_prot.c **** *
1533:Generated_Source\PSoC6\pdl\drivers\peripheral\prot/cy_prot.c **** * Note that only the user/privileged write permissions are configurable. The 
1534:Generated_Source\PSoC6\pdl\drivers\peripheral\prot/cy_prot.c **** * read and execute permissions are read-only and cannot be configured.
1535:Generated_Source\PSoC6\pdl\drivers\peripheral\prot/cy_prot.c **** *
1536:Generated_Source\PSoC6\pdl\drivers\peripheral\prot/cy_prot.c **** * \param base
1537:Generated_Source\PSoC6\pdl\drivers\peripheral\prot/cy_prot.c **** * The register base address of the protection struct being configured.
1538:Generated_Source\PSoC6\pdl\drivers\peripheral\prot/cy_prot.c **** * 
1539:Generated_Source\PSoC6\pdl\drivers\peripheral\prot/cy_prot.c **** * \param config
1540:Generated_Source\PSoC6\pdl\drivers\peripheral\prot/cy_prot.c **** * Initialization structure with all the protection attributes.
1541:Generated_Source\PSoC6\pdl\drivers\peripheral\prot/cy_prot.c **** * 
1542:Generated_Source\PSoC6\pdl\drivers\peripheral\prot/cy_prot.c **** * \return
1543:Generated_Source\PSoC6\pdl\drivers\peripheral\prot/cy_prot.c **** * Status of the function call.
1544:Generated_Source\PSoC6\pdl\drivers\peripheral\prot/cy_prot.c **** *
1545:Generated_Source\PSoC6\pdl\drivers\peripheral\prot/cy_prot.c **** *   Status               | Description
1546:Generated_Source\PSoC6\pdl\drivers\peripheral\prot/cy_prot.c **** *   ------------         | -----------
1547:Generated_Source\PSoC6\pdl\drivers\peripheral\prot/cy_prot.c **** *   CY_PROT_SUCCESS      | PPU RG master struct was successfully configured
1548:Generated_Source\PSoC6\pdl\drivers\peripheral\prot/cy_prot.c **** *   CY_PROT_FAILURE      | The resource is locked
1549:Generated_Source\PSoC6\pdl\drivers\peripheral\prot/cy_prot.c **** *   CY_PROT_BAD_PARAM    | An incorrect/invalid parameter was passed
1550:Generated_Source\PSoC6\pdl\drivers\peripheral\prot/cy_prot.c **** *
1551:Generated_Source\PSoC6\pdl\drivers\peripheral\prot/cy_prot.c **** * \funcusage
1552:Generated_Source\PSoC6\pdl\drivers\peripheral\prot/cy_prot.c **** * \snippet prot/prot_v1_10_sut_01.cydsn/main_cm4.c snippet_Cy_Prot_ConfigPpuFixedRgMasterStruct
1553:Generated_Source\PSoC6\pdl\drivers\peripheral\prot/cy_prot.c **** *
1554:Generated_Source\PSoC6\pdl\drivers\peripheral\prot/cy_prot.c **** *******************************************************************************/
ARM GAS  C:\Users\salaz\AppData\Local\Temp\ccSSnxm1.s 			page 97


1555:Generated_Source\PSoC6\pdl\drivers\peripheral\prot/cy_prot.c **** cy_en_prot_status_t Cy_Prot_ConfigPpuFixedRgMasterStruct(PERI_GR_PPU_RG_Type* base, const cy_stc_pp
1556:Generated_Source\PSoC6\pdl\drivers\peripheral\prot/cy_prot.c **** {
 3899              		.loc 1 1556 0
 3900              		.cfi_startproc
 3901              		@ args = 0, pretend = 0, frame = 16
 3902              		@ frame_needed = 1, uses_anonymous_args = 0
 3903 0000 80B5     		push	{r7, lr}
 3904              		.cfi_def_cfa_offset 8
 3905              		.cfi_offset 7, -8
 3906              		.cfi_offset 14, -4
 3907 0002 84B0     		sub	sp, sp, #16
 3908              		.cfi_def_cfa_offset 24
 3909 0004 00AF     		add	r7, sp, #0
 3910              		.cfi_def_cfa_register 7
 3911 0006 7860     		str	r0, [r7, #4]
 3912 0008 3960     		str	r1, [r7]
1557:Generated_Source\PSoC6\pdl\drivers\peripheral\prot/cy_prot.c ****     cy_en_prot_status_t status;
1558:Generated_Source\PSoC6\pdl\drivers\peripheral\prot/cy_prot.c ****     uint32_t attReg;
1559:Generated_Source\PSoC6\pdl\drivers\peripheral\prot/cy_prot.c ****     
1560:Generated_Source\PSoC6\pdl\drivers\peripheral\prot/cy_prot.c ****     CY_ASSERT_L1(NULL != base);
 3913              		.loc 1 1560 0
 3914 000a 7B68     		ldr	r3, [r7, #4]
 3915 000c 002B     		cmp	r3, #0
 3916 000e 06D1     		bne	.L283
 3917              		.loc 1 1560 0 is_stmt 0 discriminator 1
 3918 0010 C323     		movs	r3, #195
 3919 0012 DA00     		lsls	r2, r3, #3
 3920 0014 344B     		ldr	r3, .L292
 3921 0016 1100     		movs	r1, r2
 3922 0018 1800     		movs	r0, r3
 3923 001a FFF7FEFF 		bl	Cy_SysLib_AssertFailed
 3924              	.L283:
1561:Generated_Source\PSoC6\pdl\drivers\peripheral\prot/cy_prot.c ****     CY_ASSERT_L3(CY_PROT_IS_FIXED_MS_PERM_VALID(config->userPermission));
 3925              		.loc 1 1561 0 is_stmt 1
 3926 001e 3B68     		ldr	r3, [r7]
 3927 0020 1B78     		ldrb	r3, [r3]
 3928 0022 012B     		cmp	r3, #1
 3929 0024 09D0     		beq	.L284
 3930              		.loc 1 1561 0 is_stmt 0 discriminator 1
 3931 0026 3B68     		ldr	r3, [r7]
 3932 0028 1B78     		ldrb	r3, [r3]
 3933 002a 032B     		cmp	r3, #3
 3934 002c 05D0     		beq	.L284
 3935              		.loc 1 1561 0 discriminator 2
 3936 002e 2F4A     		ldr	r2, .L292+4
 3937 0030 2D4B     		ldr	r3, .L292
 3938 0032 1100     		movs	r1, r2
 3939 0034 1800     		movs	r0, r3
 3940 0036 FFF7FEFF 		bl	Cy_SysLib_AssertFailed
 3941              	.L284:
1562:Generated_Source\PSoC6\pdl\drivers\peripheral\prot/cy_prot.c ****     CY_ASSERT_L3(CY_PROT_IS_FIXED_MS_PERM_VALID(config->privPermission));
 3942              		.loc 1 1562 0 is_stmt 1
 3943 003a 3B68     		ldr	r3, [r7]
 3944 003c 5B78     		ldrb	r3, [r3, #1]
 3945 003e 012B     		cmp	r3, #1
 3946 0040 09D0     		beq	.L285
 3947              		.loc 1 1562 0 is_stmt 0 discriminator 1
ARM GAS  C:\Users\salaz\AppData\Local\Temp\ccSSnxm1.s 			page 98


 3948 0042 3B68     		ldr	r3, [r7]
 3949 0044 5B78     		ldrb	r3, [r3, #1]
 3950 0046 032B     		cmp	r3, #3
 3951 0048 05D0     		beq	.L285
 3952              		.loc 1 1562 0 discriminator 2
 3953 004a 294A     		ldr	r2, .L292+8
 3954 004c 264B     		ldr	r3, .L292
 3955 004e 1100     		movs	r1, r2
 3956 0050 1800     		movs	r0, r3
 3957 0052 FFF7FEFF 		bl	Cy_SysLib_AssertFailed
 3958              	.L285:
1563:Generated_Source\PSoC6\pdl\drivers\peripheral\prot/cy_prot.c ****     
1564:Generated_Source\PSoC6\pdl\drivers\peripheral\prot/cy_prot.c ****     if(((uint32_t)config->pcMask & CY_PROT_PPU_FIXED_PC_LIMIT_MASK) != 0UL) 
 3959              		.loc 1 1564 0 is_stmt 1
 3960 0056 3B68     		ldr	r3, [r7]
 3961 0058 9B88     		ldrh	r3, [r3, #4]
 3962 005a 1A00     		movs	r2, r3
 3963 005c 7F23     		movs	r3, #127
 3964 005e 9A43     		bics	r2, r3
 3965 0060 131E     		subs	r3, r2, #0
 3966 0062 02D0     		beq	.L286
1565:Generated_Source\PSoC6\pdl\drivers\peripheral\prot/cy_prot.c ****     {
1566:Generated_Source\PSoC6\pdl\drivers\peripheral\prot/cy_prot.c ****         /* PC mask out of range - not supported in device */
1567:Generated_Source\PSoC6\pdl\drivers\peripheral\prot/cy_prot.c ****         status = CY_PROT_BAD_PARAM;
 3967              		.loc 1 1567 0
 3968 0064 234B     		ldr	r3, .L292+12
 3969 0066 FB60     		str	r3, [r7, #12]
 3970 0068 38E0     		b	.L287
 3971              	.L286:
1568:Generated_Source\PSoC6\pdl\drivers\peripheral\prot/cy_prot.c ****     }
1569:Generated_Source\PSoC6\pdl\drivers\peripheral\prot/cy_prot.c ****     else
1570:Generated_Source\PSoC6\pdl\drivers\peripheral\prot/cy_prot.c ****     {
1571:Generated_Source\PSoC6\pdl\drivers\peripheral\prot/cy_prot.c ****         /* ADDR1 is read only. Only configure ATT1 */
1572:Generated_Source\PSoC6\pdl\drivers\peripheral\prot/cy_prot.c ****         attReg = ((uint32_t)config->userPermission & CY_PROT_ATT_PERMISSION_MASK)
 3972              		.loc 1 1572 0
 3973 006a 3B68     		ldr	r3, [r7]
 3974 006c 1B78     		ldrb	r3, [r3]
 3975 006e 1A00     		movs	r2, r3
 3976 0070 0723     		movs	r3, #7
 3977 0072 1A40     		ands	r2, r3
1573:Generated_Source\PSoC6\pdl\drivers\peripheral\prot/cy_prot.c ****                     | (uint32_t)(((uint32_t)config->privPermission & CY_PROT_ATT_PERMISSION_MASK) <
 3978              		.loc 1 1573 0
 3979 0074 3B68     		ldr	r3, [r7]
 3980 0076 5B78     		ldrb	r3, [r3, #1]
 3981 0078 DB00     		lsls	r3, r3, #3
 3982 007a 3821     		movs	r1, #56
 3983 007c 0B40     		ands	r3, r1
 3984 007e 1A43     		orrs	r2, r3
1574:Generated_Source\PSoC6\pdl\drivers\peripheral\prot/cy_prot.c ****                     | _VAL2FLD(PERI_GR_PPU_RG_ATT1_NS, !(config->secure))
 3985              		.loc 1 1574 0
 3986 0080 3B68     		ldr	r3, [r7]
 3987 0082 9B78     		ldrb	r3, [r3, #2]
 3988 0084 0121     		movs	r1, #1
 3989 0086 4B40     		eors	r3, r1
 3990 0088 DBB2     		uxtb	r3, r3
 3991 008a 9B01     		lsls	r3, r3, #6
 3992 008c 4021     		movs	r1, #64
ARM GAS  C:\Users\salaz\AppData\Local\Temp\ccSSnxm1.s 			page 99


 3993 008e 0B40     		ands	r3, r1
 3994 0090 1A43     		orrs	r2, r3
1575:Generated_Source\PSoC6\pdl\drivers\peripheral\prot/cy_prot.c ****                     | _VAL2FLD(PERI_GR_PPU_RG_ATT1_PC_MASK_15_TO_1, config->pcMask)
 3995              		.loc 1 1575 0
 3996 0092 3B68     		ldr	r3, [r7]
 3997 0094 9B88     		ldrh	r3, [r3, #4]
 3998 0096 5B02     		lsls	r3, r3, #9
 3999 0098 1749     		ldr	r1, .L292+16
 4000 009a 0B40     		ands	r3, r1
 4001 009c 1A43     		orrs	r2, r3
1576:Generated_Source\PSoC6\pdl\drivers\peripheral\prot/cy_prot.c ****                     /* No region size - read only for master structs */
1577:Generated_Source\PSoC6\pdl\drivers\peripheral\prot/cy_prot.c ****                     | _VAL2FLD(PERI_GR_PPU_RG_ATT1_PC_MATCH, config->pcMatch);
 4002              		.loc 1 1577 0
 4003 009e 3B68     		ldr	r3, [r7]
 4004 00a0 DB78     		ldrb	r3, [r3, #3]
 4005 00a2 9907     		lsls	r1, r3, #30
 4006 00a4 8023     		movs	r3, #128
 4007 00a6 DB05     		lsls	r3, r3, #23
 4008 00a8 0B40     		ands	r3, r1
1572:Generated_Source\PSoC6\pdl\drivers\peripheral\prot/cy_prot.c ****                     | (uint32_t)(((uint32_t)config->privPermission & CY_PROT_ATT_PERMISSION_MASK) <
 4009              		.loc 1 1572 0
 4010 00aa 1343     		orrs	r3, r2
 4011 00ac BB60     		str	r3, [r7, #8]
1578:Generated_Source\PSoC6\pdl\drivers\peripheral\prot/cy_prot.c ****         if ((attReg & CY_PROT_PPU_RG_ATT1_MASK) != attReg)
 4012              		.loc 1 1578 0
 4013 00ae BB68     		ldr	r3, [r7, #8]
 4014 00b0 124A     		ldr	r2, .L292+20
 4015 00b2 1A40     		ands	r2, r3
 4016 00b4 BB68     		ldr	r3, [r7, #8]
 4017 00b6 9A42     		cmp	r2, r3
 4018 00b8 02D0     		beq	.L288
1579:Generated_Source\PSoC6\pdl\drivers\peripheral\prot/cy_prot.c ****         {
1580:Generated_Source\PSoC6\pdl\drivers\peripheral\prot/cy_prot.c ****             /* Invalid parameter was passed */
1581:Generated_Source\PSoC6\pdl\drivers\peripheral\prot/cy_prot.c ****             status = CY_PROT_BAD_PARAM;
 4019              		.loc 1 1581 0
 4020 00ba 0E4B     		ldr	r3, .L292+12
 4021 00bc FB60     		str	r3, [r7, #12]
 4022 00be 0DE0     		b	.L287
 4023              	.L288:
1582:Generated_Source\PSoC6\pdl\drivers\peripheral\prot/cy_prot.c ****         }
1583:Generated_Source\PSoC6\pdl\drivers\peripheral\prot/cy_prot.c ****         else
1584:Generated_Source\PSoC6\pdl\drivers\peripheral\prot/cy_prot.c ****         {
1585:Generated_Source\PSoC6\pdl\drivers\peripheral\prot/cy_prot.c ****             base->ATT1 = attReg;
 4024              		.loc 1 1585 0
 4025 00c0 7B68     		ldr	r3, [r7, #4]
 4026 00c2 BA68     		ldr	r2, [r7, #8]
 4027 00c4 5A62     		str	r2, [r3, #36]
1586:Generated_Source\PSoC6\pdl\drivers\peripheral\prot/cy_prot.c ****             status = ((base->ATT1 & CY_PROT_PPU_RG_ATT1_MASK) != attReg) ? CY_PROT_FAILURE : CY_PRO
 4028              		.loc 1 1586 0
 4029 00c6 7B68     		ldr	r3, [r7, #4]
 4030 00c8 5B6A     		ldr	r3, [r3, #36]
 4031 00ca 0C4A     		ldr	r2, .L292+20
 4032 00cc 1A40     		ands	r2, r3
 4033 00ce BB68     		ldr	r3, [r7, #8]
 4034 00d0 9A42     		cmp	r2, r3
 4035 00d2 01D0     		beq	.L289
 4036              		.loc 1 1586 0 is_stmt 0 discriminator 1
ARM GAS  C:\Users\salaz\AppData\Local\Temp\ccSSnxm1.s 			page 100


 4037 00d4 0A4B     		ldr	r3, .L292+24
 4038 00d6 00E0     		b	.L290
 4039              	.L289:
 4040              		.loc 1 1586 0 discriminator 2
 4041 00d8 0023     		movs	r3, #0
 4042              	.L290:
 4043              		.loc 1 1586 0 discriminator 4
 4044 00da FB60     		str	r3, [r7, #12]
 4045              	.L287:
1587:Generated_Source\PSoC6\pdl\drivers\peripheral\prot/cy_prot.c ****         }
1588:Generated_Source\PSoC6\pdl\drivers\peripheral\prot/cy_prot.c ****     }
1589:Generated_Source\PSoC6\pdl\drivers\peripheral\prot/cy_prot.c ****     
1590:Generated_Source\PSoC6\pdl\drivers\peripheral\prot/cy_prot.c ****     return status;
 4046              		.loc 1 1590 0 is_stmt 1
 4047 00dc FB68     		ldr	r3, [r7, #12]
1591:Generated_Source\PSoC6\pdl\drivers\peripheral\prot/cy_prot.c **** }
 4048              		.loc 1 1591 0
 4049 00de 1800     		movs	r0, r3
 4050 00e0 BD46     		mov	sp, r7
 4051 00e2 04B0     		add	sp, sp, #16
 4052              		@ sp needed
 4053 00e4 80BD     		pop	{r7, pc}
 4054              	.L293:
 4055 00e6 C046     		.align	2
 4056              	.L292:
 4057 00e8 00000000 		.word	.LC0
 4058 00ec 19060000 		.word	1561
 4059 00f0 1A060000 		.word	1562
 4060 00f4 0100C200 		.word	12713985
 4061 00f8 00FEFF00 		.word	16776704
 4062 00fc DBFEFFE0 		.word	-520093989
 4063 0100 0300C200 		.word	12713987
 4064              		.cfi_endproc
 4065              	.LFE66:
 4066              		.size	Cy_Prot_ConfigPpuFixedRgMasterStruct, .-Cy_Prot_ConfigPpuFixedRgMasterStruct
 4067              		.section	.text.Cy_Prot_ConfigPpuFixedRgSlaveStruct,"ax",%progbits
 4068              		.align	2
 4069              		.global	Cy_Prot_ConfigPpuFixedRgSlaveStruct
 4070              		.code	16
 4071              		.thumb_func
 4072              		.type	Cy_Prot_ConfigPpuFixedRgSlaveStruct, %function
 4073              	Cy_Prot_ConfigPpuFixedRgSlaveStruct:
 4074              	.LFB67:
1592:Generated_Source\PSoC6\pdl\drivers\peripheral\prot/cy_prot.c **** 
1593:Generated_Source\PSoC6\pdl\drivers\peripheral\prot/cy_prot.c **** 
1594:Generated_Source\PSoC6\pdl\drivers\peripheral\prot/cy_prot.c **** /*******************************************************************************
1595:Generated_Source\PSoC6\pdl\drivers\peripheral\prot/cy_prot.c **** * Function Name: Cy_Prot_ConfigPpuFixedRgSlaveStruct
1596:Generated_Source\PSoC6\pdl\drivers\peripheral\prot/cy_prot.c **** ****************************************************************************//**
1597:Generated_Source\PSoC6\pdl\drivers\peripheral\prot/cy_prot.c **** *
1598:Generated_Source\PSoC6\pdl\drivers\peripheral\prot/cy_prot.c **** * \brief Configures a Fixed Peripheral Region Protection Unit (PPU RG) slave
1599:Generated_Source\PSoC6\pdl\drivers\peripheral\prot/cy_prot.c **** * protection struct with its protection attributes. 
1600:Generated_Source\PSoC6\pdl\drivers\peripheral\prot/cy_prot.c **** * 
1601:Generated_Source\PSoC6\pdl\drivers\peripheral\prot/cy_prot.c **** * This function configures the slave struct of a PPU RG pair, which can 
1602:Generated_Source\PSoC6\pdl\drivers\peripheral\prot/cy_prot.c **** * protect specified regions of peripheral instances. For example, individual
1603:Generated_Source\PSoC6\pdl\drivers\peripheral\prot/cy_prot.c **** * DW channel structs, SMPU structs, and IPC structs etc.
1604:Generated_Source\PSoC6\pdl\drivers\peripheral\prot/cy_prot.c **** *
1605:Generated_Source\PSoC6\pdl\drivers\peripheral\prot/cy_prot.c **** * Each fixed PPU RG is devoted to a defined peripheral region. Hence the address, 
ARM GAS  C:\Users\salaz\AppData\Local\Temp\ccSSnxm1.s 			page 101


1606:Generated_Source\PSoC6\pdl\drivers\peripheral\prot/cy_prot.c **** * regionSize and subregions of the configuration struct are not applicable.
1607:Generated_Source\PSoC6\pdl\drivers\peripheral\prot/cy_prot.c **** *
1608:Generated_Source\PSoC6\pdl\drivers\peripheral\prot/cy_prot.c **** * Note that the user/privileged execute accesses are read-only and are always 
1609:Generated_Source\PSoC6\pdl\drivers\peripheral\prot/cy_prot.c **** * enabled. 
1610:Generated_Source\PSoC6\pdl\drivers\peripheral\prot/cy_prot.c **** *
1611:Generated_Source\PSoC6\pdl\drivers\peripheral\prot/cy_prot.c **** * \param base
1612:Generated_Source\PSoC6\pdl\drivers\peripheral\prot/cy_prot.c **** * The register base address of the protection structure being configured.
1613:Generated_Source\PSoC6\pdl\drivers\peripheral\prot/cy_prot.c **** * 
1614:Generated_Source\PSoC6\pdl\drivers\peripheral\prot/cy_prot.c **** * \param config
1615:Generated_Source\PSoC6\pdl\drivers\peripheral\prot/cy_prot.c **** * Initialization structure with all the protection attributes.
1616:Generated_Source\PSoC6\pdl\drivers\peripheral\prot/cy_prot.c **** * 
1617:Generated_Source\PSoC6\pdl\drivers\peripheral\prot/cy_prot.c **** * \return
1618:Generated_Source\PSoC6\pdl\drivers\peripheral\prot/cy_prot.c **** * Status of the function call.
1619:Generated_Source\PSoC6\pdl\drivers\peripheral\prot/cy_prot.c **** *
1620:Generated_Source\PSoC6\pdl\drivers\peripheral\prot/cy_prot.c **** *   Status               | Description
1621:Generated_Source\PSoC6\pdl\drivers\peripheral\prot/cy_prot.c **** *   ------------         | -----------
1622:Generated_Source\PSoC6\pdl\drivers\peripheral\prot/cy_prot.c **** *   CY_PROT_SUCCESS      | PPU RG slave struct was successfully configured
1623:Generated_Source\PSoC6\pdl\drivers\peripheral\prot/cy_prot.c **** *   CY_PROT_FAILURE      | The resource is locked
1624:Generated_Source\PSoC6\pdl\drivers\peripheral\prot/cy_prot.c **** *   CY_PROT_BAD_PARAM    | An incorrect/invalid parameter was passed
1625:Generated_Source\PSoC6\pdl\drivers\peripheral\prot/cy_prot.c **** *
1626:Generated_Source\PSoC6\pdl\drivers\peripheral\prot/cy_prot.c **** * \funcusage
1627:Generated_Source\PSoC6\pdl\drivers\peripheral\prot/cy_prot.c **** * \snippet prot/prot_v1_10_sut_01.cydsn/main_cm4.c snippet_Cy_Prot_ConfigPpuFixedRgSlaveStruct
1628:Generated_Source\PSoC6\pdl\drivers\peripheral\prot/cy_prot.c **** *
1629:Generated_Source\PSoC6\pdl\drivers\peripheral\prot/cy_prot.c **** *******************************************************************************/
1630:Generated_Source\PSoC6\pdl\drivers\peripheral\prot/cy_prot.c **** cy_en_prot_status_t Cy_Prot_ConfigPpuFixedRgSlaveStruct(PERI_GR_PPU_RG_Type* base, const cy_stc_ppu
1631:Generated_Source\PSoC6\pdl\drivers\peripheral\prot/cy_prot.c **** {
 4075              		.loc 1 1631 0
 4076              		.cfi_startproc
 4077              		@ args = 0, pretend = 0, frame = 16
 4078              		@ frame_needed = 1, uses_anonymous_args = 0
 4079 0000 80B5     		push	{r7, lr}
 4080              		.cfi_def_cfa_offset 8
 4081              		.cfi_offset 7, -8
 4082              		.cfi_offset 14, -4
 4083 0002 84B0     		sub	sp, sp, #16
 4084              		.cfi_def_cfa_offset 24
 4085 0004 00AF     		add	r7, sp, #0
 4086              		.cfi_def_cfa_register 7
 4087 0006 7860     		str	r0, [r7, #4]
 4088 0008 3960     		str	r1, [r7]
1632:Generated_Source\PSoC6\pdl\drivers\peripheral\prot/cy_prot.c ****     cy_en_prot_status_t status;
1633:Generated_Source\PSoC6\pdl\drivers\peripheral\prot/cy_prot.c ****     uint32_t attReg;
1634:Generated_Source\PSoC6\pdl\drivers\peripheral\prot/cy_prot.c ****     
1635:Generated_Source\PSoC6\pdl\drivers\peripheral\prot/cy_prot.c ****     CY_ASSERT_L1(NULL != base);
 4089              		.loc 1 1635 0
 4090 000a 7B68     		ldr	r3, [r7, #4]
 4091 000c 002B     		cmp	r3, #0
 4092 000e 05D1     		bne	.L295
 4093              		.loc 1 1635 0 is_stmt 0 discriminator 1
 4094 0010 3C4A     		ldr	r2, .L304
 4095 0012 3D4B     		ldr	r3, .L304+4
 4096 0014 1100     		movs	r1, r2
 4097 0016 1800     		movs	r0, r3
 4098 0018 FFF7FEFF 		bl	Cy_SysLib_AssertFailed
 4099              	.L295:
1636:Generated_Source\PSoC6\pdl\drivers\peripheral\prot/cy_prot.c ****     CY_ASSERT_L3(CY_PROT_IS_FIXED_SL_PERM_VALID(config->userPermission));
 4100              		.loc 1 1636 0 is_stmt 1
ARM GAS  C:\Users\salaz\AppData\Local\Temp\ccSSnxm1.s 			page 102


 4101 001c 3B68     		ldr	r3, [r7]
 4102 001e 1B78     		ldrb	r3, [r3]
 4103 0020 002B     		cmp	r3, #0
 4104 0022 11D0     		beq	.L296
 4105              		.loc 1 1636 0 is_stmt 0 discriminator 1
 4106 0024 3B68     		ldr	r3, [r7]
 4107 0026 1B78     		ldrb	r3, [r3]
 4108 0028 012B     		cmp	r3, #1
 4109 002a 0DD0     		beq	.L296
 4110              		.loc 1 1636 0 discriminator 2
 4111 002c 3B68     		ldr	r3, [r7]
 4112 002e 1B78     		ldrb	r3, [r3]
 4113 0030 022B     		cmp	r3, #2
 4114 0032 09D0     		beq	.L296
 4115              		.loc 1 1636 0 discriminator 3
 4116 0034 3B68     		ldr	r3, [r7]
 4117 0036 1B78     		ldrb	r3, [r3]
 4118 0038 032B     		cmp	r3, #3
 4119 003a 05D0     		beq	.L296
 4120              		.loc 1 1636 0 discriminator 4
 4121 003c 334A     		ldr	r2, .L304+8
 4122 003e 324B     		ldr	r3, .L304+4
 4123 0040 1100     		movs	r1, r2
 4124 0042 1800     		movs	r0, r3
 4125 0044 FFF7FEFF 		bl	Cy_SysLib_AssertFailed
 4126              	.L296:
1637:Generated_Source\PSoC6\pdl\drivers\peripheral\prot/cy_prot.c ****     CY_ASSERT_L3(CY_PROT_IS_FIXED_SL_PERM_VALID(config->privPermission));
 4127              		.loc 1 1637 0 is_stmt 1
 4128 0048 3B68     		ldr	r3, [r7]
 4129 004a 5B78     		ldrb	r3, [r3, #1]
 4130 004c 002B     		cmp	r3, #0
 4131 004e 11D0     		beq	.L297
 4132              		.loc 1 1637 0 is_stmt 0 discriminator 1
 4133 0050 3B68     		ldr	r3, [r7]
 4134 0052 5B78     		ldrb	r3, [r3, #1]
 4135 0054 012B     		cmp	r3, #1
 4136 0056 0DD0     		beq	.L297
 4137              		.loc 1 1637 0 discriminator 2
 4138 0058 3B68     		ldr	r3, [r7]
 4139 005a 5B78     		ldrb	r3, [r3, #1]
 4140 005c 022B     		cmp	r3, #2
 4141 005e 09D0     		beq	.L297
 4142              		.loc 1 1637 0 discriminator 3
 4143 0060 3B68     		ldr	r3, [r7]
 4144 0062 5B78     		ldrb	r3, [r3, #1]
 4145 0064 032B     		cmp	r3, #3
 4146 0066 05D0     		beq	.L297
 4147              		.loc 1 1637 0 discriminator 4
 4148 0068 294A     		ldr	r2, .L304+12
 4149 006a 274B     		ldr	r3, .L304+4
 4150 006c 1100     		movs	r1, r2
 4151 006e 1800     		movs	r0, r3
 4152 0070 FFF7FEFF 		bl	Cy_SysLib_AssertFailed
 4153              	.L297:
1638:Generated_Source\PSoC6\pdl\drivers\peripheral\prot/cy_prot.c ****     
1639:Generated_Source\PSoC6\pdl\drivers\peripheral\prot/cy_prot.c ****     if(((uint32_t)config->pcMask & CY_PROT_PPU_FIXED_PC_LIMIT_MASK) != 0UL) 
 4154              		.loc 1 1639 0 is_stmt 1
ARM GAS  C:\Users\salaz\AppData\Local\Temp\ccSSnxm1.s 			page 103


 4155 0074 3B68     		ldr	r3, [r7]
 4156 0076 9B88     		ldrh	r3, [r3, #4]
 4157 0078 1A00     		movs	r2, r3
 4158 007a 7F23     		movs	r3, #127
 4159 007c 9A43     		bics	r2, r3
 4160 007e 131E     		subs	r3, r2, #0
 4161 0080 02D0     		beq	.L298
1640:Generated_Source\PSoC6\pdl\drivers\peripheral\prot/cy_prot.c ****     {
1641:Generated_Source\PSoC6\pdl\drivers\peripheral\prot/cy_prot.c ****         /* PC mask out of range - not supported in device */
1642:Generated_Source\PSoC6\pdl\drivers\peripheral\prot/cy_prot.c ****         status = CY_PROT_BAD_PARAM;
 4162              		.loc 1 1642 0
 4163 0082 244B     		ldr	r3, .L304+16
 4164 0084 FB60     		str	r3, [r7, #12]
 4165 0086 38E0     		b	.L299
 4166              	.L298:
1643:Generated_Source\PSoC6\pdl\drivers\peripheral\prot/cy_prot.c ****     }
1644:Generated_Source\PSoC6\pdl\drivers\peripheral\prot/cy_prot.c ****     else
1645:Generated_Source\PSoC6\pdl\drivers\peripheral\prot/cy_prot.c ****     {
1646:Generated_Source\PSoC6\pdl\drivers\peripheral\prot/cy_prot.c ****         /* ADDR0 is read only. Only configure ATT0 */
1647:Generated_Source\PSoC6\pdl\drivers\peripheral\prot/cy_prot.c ****         attReg = ((uint32_t)config->userPermission & CY_PROT_ATT_PERMISSION_MASK)
 4167              		.loc 1 1647 0
 4168 0088 3B68     		ldr	r3, [r7]
 4169 008a 1B78     		ldrb	r3, [r3]
 4170 008c 1A00     		movs	r2, r3
 4171 008e 0723     		movs	r3, #7
 4172 0090 1A40     		ands	r2, r3
1648:Generated_Source\PSoC6\pdl\drivers\peripheral\prot/cy_prot.c ****                     | (uint32_t)(((uint32_t)config->privPermission & CY_PROT_ATT_PERMISSION_MASK) <
 4173              		.loc 1 1648 0
 4174 0092 3B68     		ldr	r3, [r7]
 4175 0094 5B78     		ldrb	r3, [r3, #1]
 4176 0096 DB00     		lsls	r3, r3, #3
 4177 0098 3821     		movs	r1, #56
 4178 009a 0B40     		ands	r3, r1
 4179 009c 1A43     		orrs	r2, r3
1649:Generated_Source\PSoC6\pdl\drivers\peripheral\prot/cy_prot.c ****                     | _VAL2FLD(PERI_GR_PPU_RG_ATT0_NS, !(config->secure))
 4180              		.loc 1 1649 0
 4181 009e 3B68     		ldr	r3, [r7]
 4182 00a0 9B78     		ldrb	r3, [r3, #2]
 4183 00a2 0121     		movs	r1, #1
 4184 00a4 4B40     		eors	r3, r1
 4185 00a6 DBB2     		uxtb	r3, r3
 4186 00a8 9B01     		lsls	r3, r3, #6
 4187 00aa 4021     		movs	r1, #64
 4188 00ac 0B40     		ands	r3, r1
 4189 00ae 1A43     		orrs	r2, r3
1650:Generated_Source\PSoC6\pdl\drivers\peripheral\prot/cy_prot.c ****                     | _VAL2FLD(PERI_GR_PPU_RG_ATT0_PC_MASK_15_TO_1, config->pcMask)
 4190              		.loc 1 1650 0
 4191 00b0 3B68     		ldr	r3, [r7]
 4192 00b2 9B88     		ldrh	r3, [r3, #4]
 4193 00b4 5B02     		lsls	r3, r3, #9
 4194 00b6 1849     		ldr	r1, .L304+20
 4195 00b8 0B40     		ands	r3, r1
 4196 00ba 1A43     		orrs	r2, r3
1651:Generated_Source\PSoC6\pdl\drivers\peripheral\prot/cy_prot.c ****                     /* No region size - read only */
1652:Generated_Source\PSoC6\pdl\drivers\peripheral\prot/cy_prot.c ****                     | _VAL2FLD(PERI_GR_PPU_RG_ATT0_PC_MATCH, config->pcMatch);
 4197              		.loc 1 1652 0
 4198 00bc 3B68     		ldr	r3, [r7]
ARM GAS  C:\Users\salaz\AppData\Local\Temp\ccSSnxm1.s 			page 104


 4199 00be DB78     		ldrb	r3, [r3, #3]
 4200 00c0 9907     		lsls	r1, r3, #30
 4201 00c2 8023     		movs	r3, #128
 4202 00c4 DB05     		lsls	r3, r3, #23
 4203 00c6 0B40     		ands	r3, r1
1647:Generated_Source\PSoC6\pdl\drivers\peripheral\prot/cy_prot.c ****                     | (uint32_t)(((uint32_t)config->privPermission & CY_PROT_ATT_PERMISSION_MASK) <
 4204              		.loc 1 1647 0
 4205 00c8 1343     		orrs	r3, r2
 4206 00ca BB60     		str	r3, [r7, #8]
1653:Generated_Source\PSoC6\pdl\drivers\peripheral\prot/cy_prot.c ****         if ((attReg & CY_PROT_PPU_RG_ATT0_MASK) != attReg)
 4207              		.loc 1 1653 0
 4208 00cc BB68     		ldr	r3, [r7, #8]
 4209 00ce 134A     		ldr	r2, .L304+24
 4210 00d0 1A40     		ands	r2, r3
 4211 00d2 BB68     		ldr	r3, [r7, #8]
 4212 00d4 9A42     		cmp	r2, r3
 4213 00d6 02D0     		beq	.L300
1654:Generated_Source\PSoC6\pdl\drivers\peripheral\prot/cy_prot.c ****         {
1655:Generated_Source\PSoC6\pdl\drivers\peripheral\prot/cy_prot.c ****             /* Invalid parameter was passed */
1656:Generated_Source\PSoC6\pdl\drivers\peripheral\prot/cy_prot.c ****             status = CY_PROT_BAD_PARAM;
 4214              		.loc 1 1656 0
 4215 00d8 0E4B     		ldr	r3, .L304+16
 4216 00da FB60     		str	r3, [r7, #12]
 4217 00dc 0DE0     		b	.L299
 4218              	.L300:
1657:Generated_Source\PSoC6\pdl\drivers\peripheral\prot/cy_prot.c ****         }
1658:Generated_Source\PSoC6\pdl\drivers\peripheral\prot/cy_prot.c ****         else
1659:Generated_Source\PSoC6\pdl\drivers\peripheral\prot/cy_prot.c ****         {
1660:Generated_Source\PSoC6\pdl\drivers\peripheral\prot/cy_prot.c ****             base->ATT0 = attReg;
 4219              		.loc 1 1660 0
 4220 00de 7B68     		ldr	r3, [r7, #4]
 4221 00e0 BA68     		ldr	r2, [r7, #8]
 4222 00e2 5A60     		str	r2, [r3, #4]
1661:Generated_Source\PSoC6\pdl\drivers\peripheral\prot/cy_prot.c ****             status = ((base->ATT0 & CY_PROT_PPU_RG_ATT0_MASK) != attReg) ? CY_PROT_FAILURE : CY_PRO
 4223              		.loc 1 1661 0
 4224 00e4 7B68     		ldr	r3, [r7, #4]
 4225 00e6 5B68     		ldr	r3, [r3, #4]
 4226 00e8 0C4A     		ldr	r2, .L304+24
 4227 00ea 1A40     		ands	r2, r3
 4228 00ec BB68     		ldr	r3, [r7, #8]
 4229 00ee 9A42     		cmp	r2, r3
 4230 00f0 01D0     		beq	.L301
 4231              		.loc 1 1661 0 is_stmt 0 discriminator 1
 4232 00f2 0B4B     		ldr	r3, .L304+28
 4233 00f4 00E0     		b	.L302
 4234              	.L301:
 4235              		.loc 1 1661 0 discriminator 2
 4236 00f6 0023     		movs	r3, #0
 4237              	.L302:
 4238              		.loc 1 1661 0 discriminator 4
 4239 00f8 FB60     		str	r3, [r7, #12]
 4240              	.L299:
1662:Generated_Source\PSoC6\pdl\drivers\peripheral\prot/cy_prot.c ****         }
1663:Generated_Source\PSoC6\pdl\drivers\peripheral\prot/cy_prot.c ****     }
1664:Generated_Source\PSoC6\pdl\drivers\peripheral\prot/cy_prot.c ****     
1665:Generated_Source\PSoC6\pdl\drivers\peripheral\prot/cy_prot.c ****     return status;
 4241              		.loc 1 1665 0 is_stmt 1
ARM GAS  C:\Users\salaz\AppData\Local\Temp\ccSSnxm1.s 			page 105


 4242 00fa FB68     		ldr	r3, [r7, #12]
1666:Generated_Source\PSoC6\pdl\drivers\peripheral\prot/cy_prot.c **** }
 4243              		.loc 1 1666 0
 4244 00fc 1800     		movs	r0, r3
 4245 00fe BD46     		mov	sp, r7
 4246 0100 04B0     		add	sp, sp, #16
 4247              		@ sp needed
 4248 0102 80BD     		pop	{r7, pc}
 4249              	.L305:
 4250              		.align	2
 4251              	.L304:
 4252 0104 63060000 		.word	1635
 4253 0108 00000000 		.word	.LC0
 4254 010c 64060000 		.word	1636
 4255 0110 65060000 		.word	1637
 4256 0114 0100C200 		.word	12713985
 4257 0118 00FEFF00 		.word	16776704
 4258 011c DBFEFFE0 		.word	-520093989
 4259 0120 0300C200 		.word	12713987
 4260              		.cfi_endproc
 4261              	.LFE67:
 4262              		.size	Cy_Prot_ConfigPpuFixedRgSlaveStruct, .-Cy_Prot_ConfigPpuFixedRgSlaveStruct
 4263              		.section	.text.Cy_Prot_EnablePpuFixedRgMasterStruct,"ax",%progbits
 4264              		.align	2
 4265              		.global	Cy_Prot_EnablePpuFixedRgMasterStruct
 4266              		.code	16
 4267              		.thumb_func
 4268              		.type	Cy_Prot_EnablePpuFixedRgMasterStruct, %function
 4269              	Cy_Prot_EnablePpuFixedRgMasterStruct:
 4270              	.LFB68:
1667:Generated_Source\PSoC6\pdl\drivers\peripheral\prot/cy_prot.c **** 
1668:Generated_Source\PSoC6\pdl\drivers\peripheral\prot/cy_prot.c **** 
1669:Generated_Source\PSoC6\pdl\drivers\peripheral\prot/cy_prot.c **** /*******************************************************************************
1670:Generated_Source\PSoC6\pdl\drivers\peripheral\prot/cy_prot.c **** * Function Name: Cy_Prot_EnablePpuFixedRgMasterStruct
1671:Generated_Source\PSoC6\pdl\drivers\peripheral\prot/cy_prot.c **** ****************************************************************************//**
1672:Generated_Source\PSoC6\pdl\drivers\peripheral\prot/cy_prot.c **** *
1673:Generated_Source\PSoC6\pdl\drivers\peripheral\prot/cy_prot.c **** * \brief Enables the Master PPU RG structure.
1674:Generated_Source\PSoC6\pdl\drivers\peripheral\prot/cy_prot.c **** *
1675:Generated_Source\PSoC6\pdl\drivers\peripheral\prot/cy_prot.c **** * This is a PPU RG master struct enable function. The PPU RG protection 
1676:Generated_Source\PSoC6\pdl\drivers\peripheral\prot/cy_prot.c **** * settings will take effect after successful completion of this function call.
1677:Generated_Source\PSoC6\pdl\drivers\peripheral\prot/cy_prot.c **** *
1678:Generated_Source\PSoC6\pdl\drivers\peripheral\prot/cy_prot.c **** * \param base
1679:Generated_Source\PSoC6\pdl\drivers\peripheral\prot/cy_prot.c **** * The base address for the protection unit structure being configured. 
1680:Generated_Source\PSoC6\pdl\drivers\peripheral\prot/cy_prot.c **** *
1681:Generated_Source\PSoC6\pdl\drivers\peripheral\prot/cy_prot.c **** * \return
1682:Generated_Source\PSoC6\pdl\drivers\peripheral\prot/cy_prot.c **** * Status of the function call.
1683:Generated_Source\PSoC6\pdl\drivers\peripheral\prot/cy_prot.c **** *
1684:Generated_Source\PSoC6\pdl\drivers\peripheral\prot/cy_prot.c **** *   Status               | Description
1685:Generated_Source\PSoC6\pdl\drivers\peripheral\prot/cy_prot.c **** *   ------------         | -----------
1686:Generated_Source\PSoC6\pdl\drivers\peripheral\prot/cy_prot.c **** *   CY_PROT_SUCCESS      | The Master PU struct was enabled
1687:Generated_Source\PSoC6\pdl\drivers\peripheral\prot/cy_prot.c **** *   CY_PROT_FAILURE      | The Master PU struct is disabled and possibly locked
1688:Generated_Source\PSoC6\pdl\drivers\peripheral\prot/cy_prot.c **** *
1689:Generated_Source\PSoC6\pdl\drivers\peripheral\prot/cy_prot.c **** * \funcusage
1690:Generated_Source\PSoC6\pdl\drivers\peripheral\prot/cy_prot.c **** * \snippet prot/prot_v1_10_sut_01.cydsn/main_cm4.c snippet_Cy_Prot_EnablePpuFixedRgMasterStruct
1691:Generated_Source\PSoC6\pdl\drivers\peripheral\prot/cy_prot.c **** *
1692:Generated_Source\PSoC6\pdl\drivers\peripheral\prot/cy_prot.c **** *******************************************************************************/
1693:Generated_Source\PSoC6\pdl\drivers\peripheral\prot/cy_prot.c **** cy_en_prot_status_t Cy_Prot_EnablePpuFixedRgMasterStruct(PERI_GR_PPU_RG_Type* base)
ARM GAS  C:\Users\salaz\AppData\Local\Temp\ccSSnxm1.s 			page 106


1694:Generated_Source\PSoC6\pdl\drivers\peripheral\prot/cy_prot.c **** {
 4271              		.loc 1 1694 0
 4272              		.cfi_startproc
 4273              		@ args = 0, pretend = 0, frame = 16
 4274              		@ frame_needed = 1, uses_anonymous_args = 0
 4275 0000 80B5     		push	{r7, lr}
 4276              		.cfi_def_cfa_offset 8
 4277              		.cfi_offset 7, -8
 4278              		.cfi_offset 14, -4
 4279 0002 84B0     		sub	sp, sp, #16
 4280              		.cfi_def_cfa_offset 24
 4281 0004 00AF     		add	r7, sp, #0
 4282              		.cfi_def_cfa_register 7
 4283 0006 7860     		str	r0, [r7, #4]
1695:Generated_Source\PSoC6\pdl\drivers\peripheral\prot/cy_prot.c ****     cy_en_prot_status_t status;
1696:Generated_Source\PSoC6\pdl\drivers\peripheral\prot/cy_prot.c **** 
1697:Generated_Source\PSoC6\pdl\drivers\peripheral\prot/cy_prot.c ****     base->ATT1 |= _VAL2FLD(PERI_GR_PPU_RG_ATT1_ENABLED, CY_PROT_STRUCT_ENABLE);
 4284              		.loc 1 1697 0
 4285 0008 7B68     		ldr	r3, [r7, #4]
 4286 000a 5B6A     		ldr	r3, [r3, #36]
 4287 000c 8022     		movs	r2, #128
 4288 000e 1206     		lsls	r2, r2, #24
 4289 0010 1A43     		orrs	r2, r3
 4290 0012 7B68     		ldr	r3, [r7, #4]
 4291 0014 5A62     		str	r2, [r3, #36]
1698:Generated_Source\PSoC6\pdl\drivers\peripheral\prot/cy_prot.c ****     status = (_FLD2VAL(PERI_GR_PPU_RG_ATT1_ENABLED, base->ATT1) != CY_PROT_STRUCT_ENABLE) ?
 4292              		.loc 1 1698 0
 4293 0016 7B68     		ldr	r3, [r7, #4]
 4294 0018 5B6A     		ldr	r3, [r3, #36]
 4295 001a DB0F     		lsrs	r3, r3, #31
 4296 001c DB07     		lsls	r3, r3, #31
 4297 001e DB0F     		lsrs	r3, r3, #31
 4298 0020 012B     		cmp	r3, #1
 4299 0022 01D0     		beq	.L307
 4300              		.loc 1 1698 0 is_stmt 0 discriminator 1
 4301 0024 044B     		ldr	r3, .L310
 4302 0026 00E0     		b	.L308
 4303              	.L307:
 4304              		.loc 1 1698 0 discriminator 2
 4305 0028 0023     		movs	r3, #0
 4306              	.L308:
 4307              		.loc 1 1698 0 discriminator 4
 4308 002a FB60     		str	r3, [r7, #12]
1699:Generated_Source\PSoC6\pdl\drivers\peripheral\prot/cy_prot.c ****                 CY_PROT_FAILURE : CY_PROT_SUCCESS;
1700:Generated_Source\PSoC6\pdl\drivers\peripheral\prot/cy_prot.c ****     
1701:Generated_Source\PSoC6\pdl\drivers\peripheral\prot/cy_prot.c ****     return status;
 4309              		.loc 1 1701 0 is_stmt 1 discriminator 4
 4310 002c FB68     		ldr	r3, [r7, #12]
1702:Generated_Source\PSoC6\pdl\drivers\peripheral\prot/cy_prot.c **** }
 4311              		.loc 1 1702 0 discriminator 4
 4312 002e 1800     		movs	r0, r3
 4313 0030 BD46     		mov	sp, r7
 4314 0032 04B0     		add	sp, sp, #16
 4315              		@ sp needed
 4316 0034 80BD     		pop	{r7, pc}
 4317              	.L311:
 4318 0036 C046     		.align	2
ARM GAS  C:\Users\salaz\AppData\Local\Temp\ccSSnxm1.s 			page 107


 4319              	.L310:
 4320 0038 0300C200 		.word	12713987
 4321              		.cfi_endproc
 4322              	.LFE68:
 4323              		.size	Cy_Prot_EnablePpuFixedRgMasterStruct, .-Cy_Prot_EnablePpuFixedRgMasterStruct
 4324              		.section	.text.Cy_Prot_DisablePpuFixedRgMasterStruct,"ax",%progbits
 4325              		.align	2
 4326              		.global	Cy_Prot_DisablePpuFixedRgMasterStruct
 4327              		.code	16
 4328              		.thumb_func
 4329              		.type	Cy_Prot_DisablePpuFixedRgMasterStruct, %function
 4330              	Cy_Prot_DisablePpuFixedRgMasterStruct:
 4331              	.LFB69:
1703:Generated_Source\PSoC6\pdl\drivers\peripheral\prot/cy_prot.c **** 
1704:Generated_Source\PSoC6\pdl\drivers\peripheral\prot/cy_prot.c **** 
1705:Generated_Source\PSoC6\pdl\drivers\peripheral\prot/cy_prot.c **** /*******************************************************************************
1706:Generated_Source\PSoC6\pdl\drivers\peripheral\prot/cy_prot.c **** * Function Name: Cy_Prot_DisablePpuFixedRgMasterStruct
1707:Generated_Source\PSoC6\pdl\drivers\peripheral\prot/cy_prot.c **** ****************************************************************************//**
1708:Generated_Source\PSoC6\pdl\drivers\peripheral\prot/cy_prot.c **** *
1709:Generated_Source\PSoC6\pdl\drivers\peripheral\prot/cy_prot.c **** * \brief Disables the Master PPU RG structure.
1710:Generated_Source\PSoC6\pdl\drivers\peripheral\prot/cy_prot.c **** *
1711:Generated_Source\PSoC6\pdl\drivers\peripheral\prot/cy_prot.c **** * This is a PPU RG master struct disable function. The PPU RG protection 
1712:Generated_Source\PSoC6\pdl\drivers\peripheral\prot/cy_prot.c **** * settings will seize to take effect after successful completion of this 
1713:Generated_Source\PSoC6\pdl\drivers\peripheral\prot/cy_prot.c **** * function call.
1714:Generated_Source\PSoC6\pdl\drivers\peripheral\prot/cy_prot.c **** *
1715:Generated_Source\PSoC6\pdl\drivers\peripheral\prot/cy_prot.c **** * \param base
1716:Generated_Source\PSoC6\pdl\drivers\peripheral\prot/cy_prot.c **** * The base address for the protection unit structure being configured. 
1717:Generated_Source\PSoC6\pdl\drivers\peripheral\prot/cy_prot.c **** *
1718:Generated_Source\PSoC6\pdl\drivers\peripheral\prot/cy_prot.c **** * \return
1719:Generated_Source\PSoC6\pdl\drivers\peripheral\prot/cy_prot.c **** * Status of the function call.
1720:Generated_Source\PSoC6\pdl\drivers\peripheral\prot/cy_prot.c **** *
1721:Generated_Source\PSoC6\pdl\drivers\peripheral\prot/cy_prot.c **** *   Status               | Description
1722:Generated_Source\PSoC6\pdl\drivers\peripheral\prot/cy_prot.c **** *   ------------         | -----------
1723:Generated_Source\PSoC6\pdl\drivers\peripheral\prot/cy_prot.c **** *   CY_PROT_SUCCESS      | The Master PU struct was disabled
1724:Generated_Source\PSoC6\pdl\drivers\peripheral\prot/cy_prot.c **** *   CY_PROT_FAILURE      | The Master PU struct is enabled and possibly locked
1725:Generated_Source\PSoC6\pdl\drivers\peripheral\prot/cy_prot.c **** *
1726:Generated_Source\PSoC6\pdl\drivers\peripheral\prot/cy_prot.c **** * \funcusage
1727:Generated_Source\PSoC6\pdl\drivers\peripheral\prot/cy_prot.c **** * \snippet prot/prot_v1_10_sut_01.cydsn/main_cm4.c snippet_Cy_Prot_DisablePpuFixedRgMasterStruct
1728:Generated_Source\PSoC6\pdl\drivers\peripheral\prot/cy_prot.c **** *
1729:Generated_Source\PSoC6\pdl\drivers\peripheral\prot/cy_prot.c **** *******************************************************************************/
1730:Generated_Source\PSoC6\pdl\drivers\peripheral\prot/cy_prot.c **** cy_en_prot_status_t Cy_Prot_DisablePpuFixedRgMasterStruct(PERI_GR_PPU_RG_Type* base)
1731:Generated_Source\PSoC6\pdl\drivers\peripheral\prot/cy_prot.c **** {
 4332              		.loc 1 1731 0
 4333              		.cfi_startproc
 4334              		@ args = 0, pretend = 0, frame = 16
 4335              		@ frame_needed = 1, uses_anonymous_args = 0
 4336 0000 80B5     		push	{r7, lr}
 4337              		.cfi_def_cfa_offset 8
 4338              		.cfi_offset 7, -8
 4339              		.cfi_offset 14, -4
 4340 0002 84B0     		sub	sp, sp, #16
 4341              		.cfi_def_cfa_offset 24
 4342 0004 00AF     		add	r7, sp, #0
 4343              		.cfi_def_cfa_register 7
 4344 0006 7860     		str	r0, [r7, #4]
1732:Generated_Source\PSoC6\pdl\drivers\peripheral\prot/cy_prot.c ****     cy_en_prot_status_t status;
1733:Generated_Source\PSoC6\pdl\drivers\peripheral\prot/cy_prot.c ****     
ARM GAS  C:\Users\salaz\AppData\Local\Temp\ccSSnxm1.s 			page 108


1734:Generated_Source\PSoC6\pdl\drivers\peripheral\prot/cy_prot.c ****     base->ATT1 &= ~_VAL2FLD(PERI_GR_PPU_RG_ATT1_ENABLED, CY_PROT_STRUCT_ENABLE);
 4345              		.loc 1 1734 0
 4346 0008 7B68     		ldr	r3, [r7, #4]
 4347 000a 5B6A     		ldr	r3, [r3, #36]
 4348 000c 5B00     		lsls	r3, r3, #1
 4349 000e 5A08     		lsrs	r2, r3, #1
 4350 0010 7B68     		ldr	r3, [r7, #4]
 4351 0012 5A62     		str	r2, [r3, #36]
1735:Generated_Source\PSoC6\pdl\drivers\peripheral\prot/cy_prot.c ****     status = (_FLD2VAL(PERI_GR_PPU_RG_ATT1_ENABLED, base->ATT1) == CY_PROT_STRUCT_ENABLE) ?
 4352              		.loc 1 1735 0
 4353 0014 7B68     		ldr	r3, [r7, #4]
 4354 0016 5B6A     		ldr	r3, [r3, #36]
 4355 0018 DB0F     		lsrs	r3, r3, #31
 4356 001a DB07     		lsls	r3, r3, #31
 4357 001c DB0F     		lsrs	r3, r3, #31
 4358 001e 012B     		cmp	r3, #1
 4359 0020 01D1     		bne	.L313
 4360              		.loc 1 1735 0 is_stmt 0 discriminator 1
 4361 0022 044B     		ldr	r3, .L316
 4362 0024 00E0     		b	.L314
 4363              	.L313:
 4364              		.loc 1 1735 0 discriminator 2
 4365 0026 0023     		movs	r3, #0
 4366              	.L314:
 4367              		.loc 1 1735 0 discriminator 4
 4368 0028 FB60     		str	r3, [r7, #12]
1736:Generated_Source\PSoC6\pdl\drivers\peripheral\prot/cy_prot.c ****                 CY_PROT_FAILURE : CY_PROT_SUCCESS;
1737:Generated_Source\PSoC6\pdl\drivers\peripheral\prot/cy_prot.c ****     
1738:Generated_Source\PSoC6\pdl\drivers\peripheral\prot/cy_prot.c ****     return status;
 4369              		.loc 1 1738 0 is_stmt 1 discriminator 4
 4370 002a FB68     		ldr	r3, [r7, #12]
1739:Generated_Source\PSoC6\pdl\drivers\peripheral\prot/cy_prot.c **** }
 4371              		.loc 1 1739 0 discriminator 4
 4372 002c 1800     		movs	r0, r3
 4373 002e BD46     		mov	sp, r7
 4374 0030 04B0     		add	sp, sp, #16
 4375              		@ sp needed
 4376 0032 80BD     		pop	{r7, pc}
 4377              	.L317:
 4378              		.align	2
 4379              	.L316:
 4380 0034 0300C200 		.word	12713987
 4381              		.cfi_endproc
 4382              	.LFE69:
 4383              		.size	Cy_Prot_DisablePpuFixedRgMasterStruct, .-Cy_Prot_DisablePpuFixedRgMasterStruct
 4384              		.section	.text.Cy_Prot_EnablePpuFixedRgSlaveStruct,"ax",%progbits
 4385              		.align	2
 4386              		.global	Cy_Prot_EnablePpuFixedRgSlaveStruct
 4387              		.code	16
 4388              		.thumb_func
 4389              		.type	Cy_Prot_EnablePpuFixedRgSlaveStruct, %function
 4390              	Cy_Prot_EnablePpuFixedRgSlaveStruct:
 4391              	.LFB70:
1740:Generated_Source\PSoC6\pdl\drivers\peripheral\prot/cy_prot.c **** 
1741:Generated_Source\PSoC6\pdl\drivers\peripheral\prot/cy_prot.c **** 
1742:Generated_Source\PSoC6\pdl\drivers\peripheral\prot/cy_prot.c **** /*******************************************************************************
1743:Generated_Source\PSoC6\pdl\drivers\peripheral\prot/cy_prot.c **** * Function Name: Cy_Prot_EnablePpuFixedRgSlaveStruct
ARM GAS  C:\Users\salaz\AppData\Local\Temp\ccSSnxm1.s 			page 109


1744:Generated_Source\PSoC6\pdl\drivers\peripheral\prot/cy_prot.c **** ****************************************************************************//**
1745:Generated_Source\PSoC6\pdl\drivers\peripheral\prot/cy_prot.c **** *
1746:Generated_Source\PSoC6\pdl\drivers\peripheral\prot/cy_prot.c **** * \brief Enables the Slave PPU RG structure.
1747:Generated_Source\PSoC6\pdl\drivers\peripheral\prot/cy_prot.c **** *
1748:Generated_Source\PSoC6\pdl\drivers\peripheral\prot/cy_prot.c **** * This is a PPU RG slave struct enable function. The PPU RG protection 
1749:Generated_Source\PSoC6\pdl\drivers\peripheral\prot/cy_prot.c **** * settings will take effect after successful completion of this function call.
1750:Generated_Source\PSoC6\pdl\drivers\peripheral\prot/cy_prot.c **** *
1751:Generated_Source\PSoC6\pdl\drivers\peripheral\prot/cy_prot.c **** * \param base
1752:Generated_Source\PSoC6\pdl\drivers\peripheral\prot/cy_prot.c **** * The base address for the protection unit structure being configured. 
1753:Generated_Source\PSoC6\pdl\drivers\peripheral\prot/cy_prot.c **** *
1754:Generated_Source\PSoC6\pdl\drivers\peripheral\prot/cy_prot.c **** * \return
1755:Generated_Source\PSoC6\pdl\drivers\peripheral\prot/cy_prot.c **** * Status of the function call.
1756:Generated_Source\PSoC6\pdl\drivers\peripheral\prot/cy_prot.c **** *
1757:Generated_Source\PSoC6\pdl\drivers\peripheral\prot/cy_prot.c **** *   Status               | Description
1758:Generated_Source\PSoC6\pdl\drivers\peripheral\prot/cy_prot.c **** *   ------------         | -----------
1759:Generated_Source\PSoC6\pdl\drivers\peripheral\prot/cy_prot.c **** *   CY_PROT_SUCCESS      | The Slave PU struct was enabled
1760:Generated_Source\PSoC6\pdl\drivers\peripheral\prot/cy_prot.c **** *   CY_PROT_FAILURE      | The Slave PU struct is disabled and possibly locked
1761:Generated_Source\PSoC6\pdl\drivers\peripheral\prot/cy_prot.c **** *
1762:Generated_Source\PSoC6\pdl\drivers\peripheral\prot/cy_prot.c **** * \funcusage
1763:Generated_Source\PSoC6\pdl\drivers\peripheral\prot/cy_prot.c **** * \snippet prot/prot_v1_10_sut_01.cydsn/main_cm4.c snippet_Cy_Prot_EnablePpuFixedRgSlaveStruct
1764:Generated_Source\PSoC6\pdl\drivers\peripheral\prot/cy_prot.c **** *
1765:Generated_Source\PSoC6\pdl\drivers\peripheral\prot/cy_prot.c **** *******************************************************************************/
1766:Generated_Source\PSoC6\pdl\drivers\peripheral\prot/cy_prot.c **** cy_en_prot_status_t Cy_Prot_EnablePpuFixedRgSlaveStruct(PERI_GR_PPU_RG_Type* base)
1767:Generated_Source\PSoC6\pdl\drivers\peripheral\prot/cy_prot.c **** {   
 4392              		.loc 1 1767 0
 4393              		.cfi_startproc
 4394              		@ args = 0, pretend = 0, frame = 16
 4395              		@ frame_needed = 1, uses_anonymous_args = 0
 4396 0000 80B5     		push	{r7, lr}
 4397              		.cfi_def_cfa_offset 8
 4398              		.cfi_offset 7, -8
 4399              		.cfi_offset 14, -4
 4400 0002 84B0     		sub	sp, sp, #16
 4401              		.cfi_def_cfa_offset 24
 4402 0004 00AF     		add	r7, sp, #0
 4403              		.cfi_def_cfa_register 7
 4404 0006 7860     		str	r0, [r7, #4]
1768:Generated_Source\PSoC6\pdl\drivers\peripheral\prot/cy_prot.c ****     cy_en_prot_status_t status;
1769:Generated_Source\PSoC6\pdl\drivers\peripheral\prot/cy_prot.c ****     
1770:Generated_Source\PSoC6\pdl\drivers\peripheral\prot/cy_prot.c ****     base->ATT0 |= _VAL2FLD(PERI_GR_PPU_RG_ATT0_ENABLED, CY_PROT_STRUCT_ENABLE);
 4405              		.loc 1 1770 0
 4406 0008 7B68     		ldr	r3, [r7, #4]
 4407 000a 5B68     		ldr	r3, [r3, #4]
 4408 000c 8022     		movs	r2, #128
 4409 000e 1206     		lsls	r2, r2, #24
 4410 0010 1A43     		orrs	r2, r3
 4411 0012 7B68     		ldr	r3, [r7, #4]
 4412 0014 5A60     		str	r2, [r3, #4]
1771:Generated_Source\PSoC6\pdl\drivers\peripheral\prot/cy_prot.c ****     status = (_FLD2VAL(PERI_GR_PPU_RG_ATT0_ENABLED, base->ATT0) != CY_PROT_STRUCT_ENABLE) ?
 4413              		.loc 1 1771 0
 4414 0016 7B68     		ldr	r3, [r7, #4]
 4415 0018 5B68     		ldr	r3, [r3, #4]
 4416 001a DB0F     		lsrs	r3, r3, #31
 4417 001c DB07     		lsls	r3, r3, #31
 4418 001e DB0F     		lsrs	r3, r3, #31
 4419 0020 012B     		cmp	r3, #1
 4420 0022 01D0     		beq	.L319
ARM GAS  C:\Users\salaz\AppData\Local\Temp\ccSSnxm1.s 			page 110


 4421              		.loc 1 1771 0 is_stmt 0 discriminator 1
 4422 0024 044B     		ldr	r3, .L322
 4423 0026 00E0     		b	.L320
 4424              	.L319:
 4425              		.loc 1 1771 0 discriminator 2
 4426 0028 0023     		movs	r3, #0
 4427              	.L320:
 4428              		.loc 1 1771 0 discriminator 4
 4429 002a FB60     		str	r3, [r7, #12]
1772:Generated_Source\PSoC6\pdl\drivers\peripheral\prot/cy_prot.c ****                 CY_PROT_FAILURE : CY_PROT_SUCCESS;
1773:Generated_Source\PSoC6\pdl\drivers\peripheral\prot/cy_prot.c ****     
1774:Generated_Source\PSoC6\pdl\drivers\peripheral\prot/cy_prot.c ****     return status;
 4430              		.loc 1 1774 0 is_stmt 1 discriminator 4
 4431 002c FB68     		ldr	r3, [r7, #12]
1775:Generated_Source\PSoC6\pdl\drivers\peripheral\prot/cy_prot.c **** }
 4432              		.loc 1 1775 0 discriminator 4
 4433 002e 1800     		movs	r0, r3
 4434 0030 BD46     		mov	sp, r7
 4435 0032 04B0     		add	sp, sp, #16
 4436              		@ sp needed
 4437 0034 80BD     		pop	{r7, pc}
 4438              	.L323:
 4439 0036 C046     		.align	2
 4440              	.L322:
 4441 0038 0300C200 		.word	12713987
 4442              		.cfi_endproc
 4443              	.LFE70:
 4444              		.size	Cy_Prot_EnablePpuFixedRgSlaveStruct, .-Cy_Prot_EnablePpuFixedRgSlaveStruct
 4445              		.section	.text.Cy_Prot_DisablePpuFixedRgSlaveStruct,"ax",%progbits
 4446              		.align	2
 4447              		.global	Cy_Prot_DisablePpuFixedRgSlaveStruct
 4448              		.code	16
 4449              		.thumb_func
 4450              		.type	Cy_Prot_DisablePpuFixedRgSlaveStruct, %function
 4451              	Cy_Prot_DisablePpuFixedRgSlaveStruct:
 4452              	.LFB71:
1776:Generated_Source\PSoC6\pdl\drivers\peripheral\prot/cy_prot.c **** 
1777:Generated_Source\PSoC6\pdl\drivers\peripheral\prot/cy_prot.c **** 
1778:Generated_Source\PSoC6\pdl\drivers\peripheral\prot/cy_prot.c **** /*******************************************************************************
1779:Generated_Source\PSoC6\pdl\drivers\peripheral\prot/cy_prot.c **** * Function Name: Cy_Prot_DisablePpuFixedRgSlaveStruct
1780:Generated_Source\PSoC6\pdl\drivers\peripheral\prot/cy_prot.c **** ****************************************************************************//**
1781:Generated_Source\PSoC6\pdl\drivers\peripheral\prot/cy_prot.c **** *
1782:Generated_Source\PSoC6\pdl\drivers\peripheral\prot/cy_prot.c **** * \brief Disables the Slave PPU RG structure.
1783:Generated_Source\PSoC6\pdl\drivers\peripheral\prot/cy_prot.c **** *
1784:Generated_Source\PSoC6\pdl\drivers\peripheral\prot/cy_prot.c **** * This is a PPU RG slave struct disable function. The PPU RG protection 
1785:Generated_Source\PSoC6\pdl\drivers\peripheral\prot/cy_prot.c **** * settings will seize to take effect after successful completion of this 
1786:Generated_Source\PSoC6\pdl\drivers\peripheral\prot/cy_prot.c **** * function call.
1787:Generated_Source\PSoC6\pdl\drivers\peripheral\prot/cy_prot.c **** *
1788:Generated_Source\PSoC6\pdl\drivers\peripheral\prot/cy_prot.c **** * \param base
1789:Generated_Source\PSoC6\pdl\drivers\peripheral\prot/cy_prot.c **** * The base address for the protection unit structure being configured. 
1790:Generated_Source\PSoC6\pdl\drivers\peripheral\prot/cy_prot.c **** *
1791:Generated_Source\PSoC6\pdl\drivers\peripheral\prot/cy_prot.c **** * \return
1792:Generated_Source\PSoC6\pdl\drivers\peripheral\prot/cy_prot.c **** * Status of the function call.
1793:Generated_Source\PSoC6\pdl\drivers\peripheral\prot/cy_prot.c **** *
1794:Generated_Source\PSoC6\pdl\drivers\peripheral\prot/cy_prot.c **** *   Status               | Description
1795:Generated_Source\PSoC6\pdl\drivers\peripheral\prot/cy_prot.c **** *   ------------         | -----------
1796:Generated_Source\PSoC6\pdl\drivers\peripheral\prot/cy_prot.c **** *   CY_PROT_SUCCESS      | The Slave PU struct was disabled
ARM GAS  C:\Users\salaz\AppData\Local\Temp\ccSSnxm1.s 			page 111


1797:Generated_Source\PSoC6\pdl\drivers\peripheral\prot/cy_prot.c **** *   CY_PROT_FAILURE      | The Slave PU struct is enabled and possibly locked
1798:Generated_Source\PSoC6\pdl\drivers\peripheral\prot/cy_prot.c **** *
1799:Generated_Source\PSoC6\pdl\drivers\peripheral\prot/cy_prot.c **** * \funcusage
1800:Generated_Source\PSoC6\pdl\drivers\peripheral\prot/cy_prot.c **** * \snippet prot/prot_v1_10_sut_01.cydsn/main_cm4.c snippet_Cy_Prot_DisablePpuFixedRgSlaveStruct
1801:Generated_Source\PSoC6\pdl\drivers\peripheral\prot/cy_prot.c **** *
1802:Generated_Source\PSoC6\pdl\drivers\peripheral\prot/cy_prot.c **** *******************************************************************************/
1803:Generated_Source\PSoC6\pdl\drivers\peripheral\prot/cy_prot.c **** cy_en_prot_status_t Cy_Prot_DisablePpuFixedRgSlaveStruct(PERI_GR_PPU_RG_Type* base)
1804:Generated_Source\PSoC6\pdl\drivers\peripheral\prot/cy_prot.c **** {
 4453              		.loc 1 1804 0
 4454              		.cfi_startproc
 4455              		@ args = 0, pretend = 0, frame = 16
 4456              		@ frame_needed = 1, uses_anonymous_args = 0
 4457 0000 80B5     		push	{r7, lr}
 4458              		.cfi_def_cfa_offset 8
 4459              		.cfi_offset 7, -8
 4460              		.cfi_offset 14, -4
 4461 0002 84B0     		sub	sp, sp, #16
 4462              		.cfi_def_cfa_offset 24
 4463 0004 00AF     		add	r7, sp, #0
 4464              		.cfi_def_cfa_register 7
 4465 0006 7860     		str	r0, [r7, #4]
1805:Generated_Source\PSoC6\pdl\drivers\peripheral\prot/cy_prot.c ****     cy_en_prot_status_t status;
1806:Generated_Source\PSoC6\pdl\drivers\peripheral\prot/cy_prot.c ****     
1807:Generated_Source\PSoC6\pdl\drivers\peripheral\prot/cy_prot.c ****     base->ATT0 &= ~_VAL2FLD(PERI_GR_PPU_RG_ATT0_ENABLED, CY_PROT_STRUCT_ENABLE);
 4466              		.loc 1 1807 0
 4467 0008 7B68     		ldr	r3, [r7, #4]
 4468 000a 5B68     		ldr	r3, [r3, #4]
 4469 000c 5B00     		lsls	r3, r3, #1
 4470 000e 5A08     		lsrs	r2, r3, #1
 4471 0010 7B68     		ldr	r3, [r7, #4]
 4472 0012 5A60     		str	r2, [r3, #4]
1808:Generated_Source\PSoC6\pdl\drivers\peripheral\prot/cy_prot.c ****     status = (_FLD2VAL(PERI_GR_PPU_RG_ATT0_ENABLED, base->ATT0) == CY_PROT_STRUCT_ENABLE) ?
 4473              		.loc 1 1808 0
 4474 0014 7B68     		ldr	r3, [r7, #4]
 4475 0016 5B68     		ldr	r3, [r3, #4]
 4476 0018 DB0F     		lsrs	r3, r3, #31
 4477 001a DB07     		lsls	r3, r3, #31
 4478 001c DB0F     		lsrs	r3, r3, #31
 4479 001e 012B     		cmp	r3, #1
 4480 0020 01D1     		bne	.L325
 4481              		.loc 1 1808 0 is_stmt 0 discriminator 1
 4482 0022 044B     		ldr	r3, .L328
 4483 0024 00E0     		b	.L326
 4484              	.L325:
 4485              		.loc 1 1808 0 discriminator 2
 4486 0026 0023     		movs	r3, #0
 4487              	.L326:
 4488              		.loc 1 1808 0 discriminator 4
 4489 0028 FB60     		str	r3, [r7, #12]
1809:Generated_Source\PSoC6\pdl\drivers\peripheral\prot/cy_prot.c ****                 CY_PROT_FAILURE : CY_PROT_SUCCESS;
1810:Generated_Source\PSoC6\pdl\drivers\peripheral\prot/cy_prot.c ****     
1811:Generated_Source\PSoC6\pdl\drivers\peripheral\prot/cy_prot.c ****     return status;
 4490              		.loc 1 1811 0 is_stmt 1 discriminator 4
 4491 002a FB68     		ldr	r3, [r7, #12]
1812:Generated_Source\PSoC6\pdl\drivers\peripheral\prot/cy_prot.c **** }
 4492              		.loc 1 1812 0 discriminator 4
 4493 002c 1800     		movs	r0, r3
ARM GAS  C:\Users\salaz\AppData\Local\Temp\ccSSnxm1.s 			page 112


 4494 002e BD46     		mov	sp, r7
 4495 0030 04B0     		add	sp, sp, #16
 4496              		@ sp needed
 4497 0032 80BD     		pop	{r7, pc}
 4498              	.L329:
 4499              		.align	2
 4500              	.L328:
 4501 0034 0300C200 		.word	12713987
 4502              		.cfi_endproc
 4503              	.LFE71:
 4504              		.size	Cy_Prot_DisablePpuFixedRgSlaveStruct, .-Cy_Prot_DisablePpuFixedRgSlaveStruct
 4505              		.text
 4506              	.Letext0:
 4507              		.file 2 "c:\\program files (x86)\\cypress\\psoc creator\\4.2\\psoc creator\\import\\gnu\\arm\\5.4.
 4508              		.file 3 "c:\\program files (x86)\\cypress\\psoc creator\\4.2\\psoc creator\\import\\gnu\\arm\\5.4.
 4509              		.file 4 "Generated_Source\\PSoC6\\pdl\\devices/psoc6/psoc63/include/psoc63_config.h"
 4510              		.file 5 "Generated_Source\\PSoC6\\pdl\\devices/psoc6/ip/cyip_peri.h"
 4511              		.file 6 "Generated_Source\\PSoC6\\pdl\\devices/psoc6/ip/cyip_prot.h"
 4512              		.file 7 "Generated_Source\\PSoC6\\pdl\\drivers/peripheral/syslib/cy_syslib.h"
 4513              		.file 8 "Generated_Source\\PSoC6\\pdl\\drivers\\peripheral\\prot\\cy_prot.h"
 4514              		.section	.debug_info,"",%progbits
 4515              	.Ldebug_info0:
 4516 0000 5F130000 		.4byte	0x135f
 4517 0004 0400     		.2byte	0x4
 4518 0006 00000000 		.4byte	.Ldebug_abbrev0
 4519 000a 04       		.byte	0x4
 4520 000b 01       		.uleb128 0x1
 4521 000c 11050000 		.4byte	.LASF164
 4522 0010 0C       		.byte	0xc
 4523 0011 88040000 		.4byte	.LASF165
 4524 0015 39080000 		.4byte	.LASF166
 4525 0019 00000000 		.4byte	.Ldebug_ranges0+0
 4526 001d 00000000 		.4byte	0
 4527 0021 00000000 		.4byte	.Ldebug_line0
 4528 0025 02       		.uleb128 0x2
 4529 0026 04       		.byte	0x4
 4530 0027 05       		.byte	0x5
 4531 0028 696E7400 		.ascii	"int\000"
 4532 002c 03       		.uleb128 0x3
 4533 002d 04       		.byte	0x4
 4534 002e 07       		.byte	0x7
 4535 002f 98030000 		.4byte	.LASF0
 4536 0033 03       		.uleb128 0x3
 4537 0034 08       		.byte	0x8
 4538 0035 05       		.byte	0x5
 4539 0036 6E010000 		.4byte	.LASF1
 4540 003a 03       		.uleb128 0x3
 4541 003b 08       		.byte	0x8
 4542 003c 04       		.byte	0x4
 4543 003d A7090000 		.4byte	.LASF2
 4544 0041 03       		.uleb128 0x3
 4545 0042 01       		.byte	0x1
 4546 0043 06       		.byte	0x6
 4547 0044 7C010000 		.4byte	.LASF3
 4548 0048 04       		.uleb128 0x4
 4549 0049 9B000000 		.4byte	.LASF6
 4550 004d 02       		.byte	0x2
ARM GAS  C:\Users\salaz\AppData\Local\Temp\ccSSnxm1.s 			page 113


 4551 004e 1D       		.byte	0x1d
 4552 004f 53000000 		.4byte	0x53
 4553 0053 03       		.uleb128 0x3
 4554 0054 01       		.byte	0x1
 4555 0055 08       		.byte	0x8
 4556 0056 66080000 		.4byte	.LASF4
 4557 005a 03       		.uleb128 0x3
 4558 005b 02       		.byte	0x2
 4559 005c 05       		.byte	0x5
 4560 005d 95080000 		.4byte	.LASF5
 4561 0061 04       		.uleb128 0x4
 4562 0062 BF090000 		.4byte	.LASF7
 4563 0066 02       		.byte	0x2
 4564 0067 2B       		.byte	0x2b
 4565 0068 6C000000 		.4byte	0x6c
 4566 006c 03       		.uleb128 0x3
 4567 006d 02       		.byte	0x2
 4568 006e 07       		.byte	0x7
 4569 006f 69040000 		.4byte	.LASF8
 4570 0073 03       		.uleb128 0x3
 4571 0074 04       		.byte	0x4
 4572 0075 05       		.byte	0x5
 4573 0076 51020000 		.4byte	.LASF9
 4574 007a 04       		.uleb128 0x4
 4575 007b E6020000 		.4byte	.LASF10
 4576 007f 02       		.byte	0x2
 4577 0080 41       		.byte	0x41
 4578 0081 85000000 		.4byte	0x85
 4579 0085 03       		.uleb128 0x3
 4580 0086 04       		.byte	0x4
 4581 0087 07       		.byte	0x7
 4582 0088 EC030000 		.4byte	.LASF11
 4583 008c 03       		.uleb128 0x3
 4584 008d 08       		.byte	0x8
 4585 008e 07       		.byte	0x7
 4586 008f 11010000 		.4byte	.LASF12
 4587 0093 04       		.uleb128 0x4
 4588 0094 DF0A0000 		.4byte	.LASF13
 4589 0098 03       		.byte	0x3
 4590 0099 18       		.byte	0x18
 4591 009a 48000000 		.4byte	0x48
 4592 009e 04       		.uleb128 0x4
 4593 009f 72020000 		.4byte	.LASF14
 4594 00a3 03       		.byte	0x3
 4595 00a4 24       		.byte	0x24
 4596 00a5 61000000 		.4byte	0x61
 4597 00a9 04       		.uleb128 0x4
 4598 00aa 68090000 		.4byte	.LASF15
 4599 00ae 03       		.byte	0x3
 4600 00af 30       		.byte	0x30
 4601 00b0 7A000000 		.4byte	0x7a
 4602 00b4 03       		.uleb128 0x3
 4603 00b5 04       		.byte	0x4
 4604 00b6 07       		.byte	0x7
 4605 00b7 110B0000 		.4byte	.LASF16
 4606 00bb 05       		.uleb128 0x5
 4607 00bc A9000000 		.4byte	0xa9
ARM GAS  C:\Users\salaz\AppData\Local\Temp\ccSSnxm1.s 			page 114


 4608 00c0 06       		.uleb128 0x6
 4609 00c1 BB000000 		.4byte	0xbb
 4610 00c5 07       		.uleb128 0x7
 4611 00c6 01       		.byte	0x1
 4612 00c7 53000000 		.4byte	0x53
 4613 00cb 04       		.byte	0x4
 4614 00cc 1406     		.2byte	0x614
 4615 00ce F7000000 		.4byte	0xf7
 4616 00d2 08       		.uleb128 0x8
 4617 00d3 CA090000 		.4byte	.LASF17
 4618 00d7 00       		.byte	0
 4619 00d8 08       		.uleb128 0x8
 4620 00d9 C6010000 		.4byte	.LASF18
 4621 00dd 01       		.byte	0x1
 4622 00de 08       		.uleb128 0x8
 4623 00df 1A0B0000 		.4byte	.LASF19
 4624 00e3 02       		.byte	0x2
 4625 00e4 08       		.uleb128 0x8
 4626 00e5 550A0000 		.4byte	.LASF20
 4627 00e9 03       		.byte	0x3
 4628 00ea 08       		.uleb128 0x8
 4629 00eb 10070000 		.4byte	.LASF21
 4630 00ef 0E       		.byte	0xe
 4631 00f0 08       		.uleb128 0x8
 4632 00f1 E60B0000 		.4byte	.LASF22
 4633 00f5 0F       		.byte	0xf
 4634 00f6 00       		.byte	0
 4635 00f7 09       		.uleb128 0x9
 4636 00f8 61020000 		.4byte	.LASF23
 4637 00fc 04       		.byte	0x4
 4638 00fd 1B06     		.2byte	0x61b
 4639 00ff C5000000 		.4byte	0xc5
 4640 0103 0A       		.uleb128 0xa
 4641 0104 C0000000 		.4byte	0xc0
 4642 0108 14010000 		.4byte	0x114
 4643 010c 0B       		.uleb128 0xb
 4644 010d B4000000 		.4byte	0xb4
 4645 0111 FF05     		.2byte	0x5ff
 4646 0113 00       		.byte	0
 4647 0114 0A       		.uleb128 0xa
 4648 0115 C0000000 		.4byte	0xc0
 4649 0119 24010000 		.4byte	0x124
 4650 011d 0C       		.uleb128 0xc
 4651 011e B4000000 		.4byte	0xb4
 4652 0122 05       		.byte	0x5
 4653 0123 00       		.byte	0
 4654 0124 0D       		.uleb128 0xd
 4655 0125 40       		.byte	0x40
 4656 0126 05       		.byte	0x5
 4657 0127 39       		.byte	0x39
 4658 0128 75010000 		.4byte	0x175
 4659 012c 0E       		.uleb128 0xe
 4660 012d 7C040000 		.4byte	.LASF24
 4661 0131 05       		.byte	0x5
 4662 0132 3A       		.byte	0x3a
 4663 0133 BB000000 		.4byte	0xbb
 4664 0137 00       		.byte	0
ARM GAS  C:\Users\salaz\AppData\Local\Temp\ccSSnxm1.s 			page 115


 4665 0138 0E       		.uleb128 0xe
 4666 0139 D9020000 		.4byte	.LASF25
 4667 013d 05       		.byte	0x5
 4668 013e 3B       		.byte	0x3b
 4669 013f BB000000 		.4byte	0xbb
 4670 0143 04       		.byte	0x4
 4671 0144 0E       		.uleb128 0xe
 4672 0145 DA090000 		.4byte	.LASF26
 4673 0149 05       		.byte	0x5
 4674 014a 3C       		.byte	0x3c
 4675 014b 7A010000 		.4byte	0x17a
 4676 014f 08       		.byte	0x8
 4677 0150 0E       		.uleb128 0xe
 4678 0151 82040000 		.4byte	.LASF27
 4679 0155 05       		.byte	0x5
 4680 0156 3D       		.byte	0x3d
 4681 0157 C0000000 		.4byte	0xc0
 4682 015b 20       		.byte	0x20
 4683 015c 0E       		.uleb128 0xe
 4684 015d 650A0000 		.4byte	.LASF28
 4685 0161 05       		.byte	0x5
 4686 0162 3E       		.byte	0x3e
 4687 0163 BB000000 		.4byte	0xbb
 4688 0167 24       		.byte	0x24
 4689 0168 0E       		.uleb128 0xe
 4690 0169 BE070000 		.4byte	.LASF29
 4691 016d 05       		.byte	0x5
 4692 016e 3F       		.byte	0x3f
 4693 016f 84010000 		.4byte	0x184
 4694 0173 28       		.byte	0x28
 4695 0174 00       		.byte	0
 4696 0175 05       		.uleb128 0x5
 4697 0176 14010000 		.4byte	0x114
 4698 017a 06       		.uleb128 0x6
 4699 017b 75010000 		.4byte	0x175
 4700 017f 05       		.uleb128 0x5
 4701 0180 14010000 		.4byte	0x114
 4702 0184 06       		.uleb128 0x6
 4703 0185 7F010000 		.4byte	0x17f
 4704 0189 04       		.uleb128 0x4
 4705 018a 8A0A0000 		.4byte	.LASF30
 4706 018e 05       		.byte	0x5
 4707 018f 40       		.byte	0x40
 4708 0190 24010000 		.4byte	0x124
 4709 0194 0D       		.uleb128 0xd
 4710 0195 40       		.byte	0x40
 4711 0196 05       		.byte	0x5
 4712 0197 45       		.byte	0x45
 4713 0198 E5010000 		.4byte	0x1e5
 4714 019c 0E       		.uleb128 0xe
 4715 019d 7C040000 		.4byte	.LASF24
 4716 01a1 05       		.byte	0x5
 4717 01a2 46       		.byte	0x46
 4718 01a3 C0000000 		.4byte	0xc0
 4719 01a7 00       		.byte	0
 4720 01a8 0E       		.uleb128 0xe
 4721 01a9 D9020000 		.4byte	.LASF25
ARM GAS  C:\Users\salaz\AppData\Local\Temp\ccSSnxm1.s 			page 116


 4722 01ad 05       		.byte	0x5
 4723 01ae 47       		.byte	0x47
 4724 01af BB000000 		.4byte	0xbb
 4725 01b3 04       		.byte	0x4
 4726 01b4 0E       		.uleb128 0xe
 4727 01b5 DA090000 		.4byte	.LASF26
 4728 01b9 05       		.byte	0x5
 4729 01ba 48       		.byte	0x48
 4730 01bb EA010000 		.4byte	0x1ea
 4731 01bf 08       		.byte	0x8
 4732 01c0 0E       		.uleb128 0xe
 4733 01c1 82040000 		.4byte	.LASF27
 4734 01c5 05       		.byte	0x5
 4735 01c6 49       		.byte	0x49
 4736 01c7 C0000000 		.4byte	0xc0
 4737 01cb 20       		.byte	0x20
 4738 01cc 0E       		.uleb128 0xe
 4739 01cd 650A0000 		.4byte	.LASF28
 4740 01d1 05       		.byte	0x5
 4741 01d2 4A       		.byte	0x4a
 4742 01d3 BB000000 		.4byte	0xbb
 4743 01d7 24       		.byte	0x24
 4744 01d8 0E       		.uleb128 0xe
 4745 01d9 BE070000 		.4byte	.LASF29
 4746 01dd 05       		.byte	0x5
 4747 01de 4B       		.byte	0x4b
 4748 01df F4010000 		.4byte	0x1f4
 4749 01e3 28       		.byte	0x28
 4750 01e4 00       		.byte	0
 4751 01e5 05       		.uleb128 0x5
 4752 01e6 14010000 		.4byte	0x114
 4753 01ea 06       		.uleb128 0x6
 4754 01eb E5010000 		.4byte	0x1e5
 4755 01ef 05       		.uleb128 0x5
 4756 01f0 14010000 		.4byte	0x114
 4757 01f4 06       		.uleb128 0x6
 4758 01f5 EF010000 		.4byte	0x1ef
 4759 01f9 04       		.uleb128 0x4
 4760 01fa F8000000 		.4byte	.LASF31
 4761 01fe 05       		.byte	0x5
 4762 01ff 4C       		.byte	0x4c
 4763 0200 94010000 		.4byte	0x194
 4764 0204 0D       		.uleb128 0xd
 4765 0205 40       		.byte	0x40
 4766 0206 05       		.byte	0x5
 4767 0207 51       		.byte	0x51
 4768 0208 55020000 		.4byte	0x255
 4769 020c 0E       		.uleb128 0xe
 4770 020d 7C040000 		.4byte	.LASF24
 4771 0211 05       		.byte	0x5
 4772 0212 52       		.byte	0x52
 4773 0213 C0000000 		.4byte	0xc0
 4774 0217 00       		.byte	0
 4775 0218 0E       		.uleb128 0xe
 4776 0219 D9020000 		.4byte	.LASF25
 4777 021d 05       		.byte	0x5
 4778 021e 53       		.byte	0x53
ARM GAS  C:\Users\salaz\AppData\Local\Temp\ccSSnxm1.s 			page 117


 4779 021f BB000000 		.4byte	0xbb
 4780 0223 04       		.byte	0x4
 4781 0224 0E       		.uleb128 0xe
 4782 0225 DA090000 		.4byte	.LASF26
 4783 0229 05       		.byte	0x5
 4784 022a 54       		.byte	0x54
 4785 022b 5A020000 		.4byte	0x25a
 4786 022f 08       		.byte	0x8
 4787 0230 0E       		.uleb128 0xe
 4788 0231 82040000 		.4byte	.LASF27
 4789 0235 05       		.byte	0x5
 4790 0236 55       		.byte	0x55
 4791 0237 C0000000 		.4byte	0xc0
 4792 023b 20       		.byte	0x20
 4793 023c 0E       		.uleb128 0xe
 4794 023d 650A0000 		.4byte	.LASF28
 4795 0241 05       		.byte	0x5
 4796 0242 56       		.byte	0x56
 4797 0243 BB000000 		.4byte	0xbb
 4798 0247 24       		.byte	0x24
 4799 0248 0E       		.uleb128 0xe
 4800 0249 BE070000 		.4byte	.LASF29
 4801 024d 05       		.byte	0x5
 4802 024e 57       		.byte	0x57
 4803 024f 64020000 		.4byte	0x264
 4804 0253 28       		.byte	0x28
 4805 0254 00       		.byte	0
 4806 0255 05       		.uleb128 0x5
 4807 0256 14010000 		.4byte	0x114
 4808 025a 06       		.uleb128 0x6
 4809 025b 55020000 		.4byte	0x255
 4810 025f 05       		.uleb128 0x5
 4811 0260 14010000 		.4byte	0x114
 4812 0264 06       		.uleb128 0x6
 4813 0265 5F020000 		.4byte	0x25f
 4814 0269 04       		.uleb128 0x4
 4815 026a FD040000 		.4byte	.LASF32
 4816 026e 05       		.byte	0x5
 4817 026f 58       		.byte	0x58
 4818 0270 04020000 		.4byte	0x204
 4819 0274 0D       		.uleb128 0xd
 4820 0275 40       		.byte	0x40
 4821 0276 05       		.byte	0x5
 4822 0277 5D       		.byte	0x5d
 4823 0278 C5020000 		.4byte	0x2c5
 4824 027c 0E       		.uleb128 0xe
 4825 027d 7C040000 		.4byte	.LASF24
 4826 0281 05       		.byte	0x5
 4827 0282 5E       		.byte	0x5e
 4828 0283 C0000000 		.4byte	0xc0
 4829 0287 00       		.byte	0
 4830 0288 0E       		.uleb128 0xe
 4831 0289 D9020000 		.4byte	.LASF25
 4832 028d 05       		.byte	0x5
 4833 028e 5F       		.byte	0x5f
 4834 028f BB000000 		.4byte	0xbb
 4835 0293 04       		.byte	0x4
ARM GAS  C:\Users\salaz\AppData\Local\Temp\ccSSnxm1.s 			page 118


 4836 0294 0E       		.uleb128 0xe
 4837 0295 DA090000 		.4byte	.LASF26
 4838 0299 05       		.byte	0x5
 4839 029a 60       		.byte	0x60
 4840 029b CA020000 		.4byte	0x2ca
 4841 029f 08       		.byte	0x8
 4842 02a0 0E       		.uleb128 0xe
 4843 02a1 82040000 		.4byte	.LASF27
 4844 02a5 05       		.byte	0x5
 4845 02a6 61       		.byte	0x61
 4846 02a7 C0000000 		.4byte	0xc0
 4847 02ab 20       		.byte	0x20
 4848 02ac 0E       		.uleb128 0xe
 4849 02ad 650A0000 		.4byte	.LASF28
 4850 02b1 05       		.byte	0x5
 4851 02b2 62       		.byte	0x62
 4852 02b3 BB000000 		.4byte	0xbb
 4853 02b7 24       		.byte	0x24
 4854 02b8 0E       		.uleb128 0xe
 4855 02b9 BE070000 		.4byte	.LASF29
 4856 02bd 05       		.byte	0x5
 4857 02be 63       		.byte	0x63
 4858 02bf D4020000 		.4byte	0x2d4
 4859 02c3 28       		.byte	0x28
 4860 02c4 00       		.byte	0
 4861 02c5 05       		.uleb128 0x5
 4862 02c6 14010000 		.4byte	0x114
 4863 02ca 06       		.uleb128 0x6
 4864 02cb C5020000 		.4byte	0x2c5
 4865 02cf 05       		.uleb128 0x5
 4866 02d0 14010000 		.4byte	0x114
 4867 02d4 06       		.uleb128 0x6
 4868 02d5 CF020000 		.4byte	0x2cf
 4869 02d9 04       		.uleb128 0x4
 4870 02da 350C0000 		.4byte	.LASF33
 4871 02de 05       		.byte	0x5
 4872 02df 64       		.byte	0x64
 4873 02e0 74020000 		.4byte	0x274
 4874 02e4 0D       		.uleb128 0xd
 4875 02e5 40       		.byte	0x40
 4876 02e6 06       		.byte	0x6
 4877 02e7 25       		.byte	0x25
 4878 02e8 35030000 		.4byte	0x335
 4879 02ec 0E       		.uleb128 0xe
 4880 02ed 7C040000 		.4byte	.LASF24
 4881 02f1 06       		.byte	0x6
 4882 02f2 26       		.byte	0x26
 4883 02f3 BB000000 		.4byte	0xbb
 4884 02f7 00       		.byte	0
 4885 02f8 0E       		.uleb128 0xe
 4886 02f9 D9020000 		.4byte	.LASF25
 4887 02fd 06       		.byte	0x6
 4888 02fe 27       		.byte	0x27
 4889 02ff BB000000 		.4byte	0xbb
 4890 0303 04       		.byte	0x4
 4891 0304 0E       		.uleb128 0xe
 4892 0305 DA090000 		.4byte	.LASF26
ARM GAS  C:\Users\salaz\AppData\Local\Temp\ccSSnxm1.s 			page 119


 4893 0309 06       		.byte	0x6
 4894 030a 28       		.byte	0x28
 4895 030b 3A030000 		.4byte	0x33a
 4896 030f 08       		.byte	0x8
 4897 0310 0E       		.uleb128 0xe
 4898 0311 82040000 		.4byte	.LASF27
 4899 0315 06       		.byte	0x6
 4900 0316 29       		.byte	0x29
 4901 0317 C0000000 		.4byte	0xc0
 4902 031b 20       		.byte	0x20
 4903 031c 0E       		.uleb128 0xe
 4904 031d 650A0000 		.4byte	.LASF28
 4905 0321 06       		.byte	0x6
 4906 0322 2A       		.byte	0x2a
 4907 0323 BB000000 		.4byte	0xbb
 4908 0327 24       		.byte	0x24
 4909 0328 0E       		.uleb128 0xe
 4910 0329 BE070000 		.4byte	.LASF29
 4911 032d 06       		.byte	0x6
 4912 032e 2B       		.byte	0x2b
 4913 032f 44030000 		.4byte	0x344
 4914 0333 28       		.byte	0x28
 4915 0334 00       		.byte	0
 4916 0335 05       		.uleb128 0x5
 4917 0336 14010000 		.4byte	0x114
 4918 033a 06       		.uleb128 0x6
 4919 033b 35030000 		.4byte	0x335
 4920 033f 05       		.uleb128 0x5
 4921 0340 14010000 		.4byte	0x114
 4922 0344 06       		.uleb128 0x6
 4923 0345 3F030000 		.4byte	0x33f
 4924 0349 04       		.uleb128 0x4
 4925 034a E3070000 		.4byte	.LASF34
 4926 034e 06       		.byte	0x6
 4927 034f 2C       		.byte	0x2c
 4928 0350 E4020000 		.4byte	0x2e4
 4929 0354 0F       		.uleb128 0xf
 4930 0355 0040     		.2byte	0x4000
 4931 0357 06       		.byte	0x6
 4932 0358 31       		.byte	0x31
 4933 0359 44040000 		.4byte	0x444
 4934 035d 0E       		.uleb128 0xe
 4935 035e 60090000 		.4byte	.LASF35
 4936 0362 06       		.byte	0x6
 4937 0363 32       		.byte	0x32
 4938 0364 BB000000 		.4byte	0xbb
 4939 0368 00       		.byte	0
 4940 0369 0E       		.uleb128 0xe
 4941 036a FE030000 		.4byte	.LASF36
 4942 036e 06       		.byte	0x6
 4943 036f 33       		.byte	0x33
 4944 0370 BB000000 		.4byte	0xbb
 4945 0374 04       		.byte	0x4
 4946 0375 0E       		.uleb128 0xe
 4947 0376 F50B0000 		.4byte	.LASF37
 4948 037a 06       		.byte	0x6
 4949 037b 34       		.byte	0x34
ARM GAS  C:\Users\salaz\AppData\Local\Temp\ccSSnxm1.s 			page 120


 4950 037c BB000000 		.4byte	0xbb
 4951 0380 08       		.byte	0x8
 4952 0381 0E       		.uleb128 0xe
 4953 0382 F1080000 		.4byte	.LASF38
 4954 0386 06       		.byte	0x6
 4955 0387 35       		.byte	0x35
 4956 0388 BB000000 		.4byte	0xbb
 4957 038c 0C       		.byte	0xc
 4958 038d 0E       		.uleb128 0xe
 4959 038e 82020000 		.4byte	.LASF39
 4960 0392 06       		.byte	0x6
 4961 0393 36       		.byte	0x36
 4962 0394 BB000000 		.4byte	0xbb
 4963 0398 10       		.byte	0x10
 4964 0399 0E       		.uleb128 0xe
 4965 039a BE0A0000 		.4byte	.LASF40
 4966 039e 06       		.byte	0x6
 4967 039f 37       		.byte	0x37
 4968 03a0 BB000000 		.4byte	0xbb
 4969 03a4 14       		.byte	0x14
 4970 03a5 0E       		.uleb128 0xe
 4971 03a6 42060000 		.4byte	.LASF41
 4972 03aa 06       		.byte	0x6
 4973 03ab 38       		.byte	0x38
 4974 03ac BB000000 		.4byte	0xbb
 4975 03b0 18       		.byte	0x18
 4976 03b1 0E       		.uleb128 0xe
 4977 03b2 4D010000 		.4byte	.LASF42
 4978 03b6 06       		.byte	0x6
 4979 03b7 39       		.byte	0x39
 4980 03b8 BB000000 		.4byte	0xbb
 4981 03bc 1C       		.byte	0x1c
 4982 03bd 0E       		.uleb128 0xe
 4983 03be 3E0A0000 		.4byte	.LASF43
 4984 03c2 06       		.byte	0x6
 4985 03c3 3A       		.byte	0x3a
 4986 03c4 BB000000 		.4byte	0xbb
 4987 03c8 20       		.byte	0x20
 4988 03c9 0E       		.uleb128 0xe
 4989 03ca 50040000 		.4byte	.LASF44
 4990 03ce 06       		.byte	0x6
 4991 03cf 3B       		.byte	0x3b
 4992 03d0 BB000000 		.4byte	0xbb
 4993 03d4 24       		.byte	0x24
 4994 03d5 0E       		.uleb128 0xe
 4995 03d6 12000000 		.4byte	.LASF45
 4996 03da 06       		.byte	0x6
 4997 03db 3C       		.byte	0x3c
 4998 03dc BB000000 		.4byte	0xbb
 4999 03e0 28       		.byte	0x28
 5000 03e1 0E       		.uleb128 0xe
 5001 03e2 8C080000 		.4byte	.LASF46
 5002 03e6 06       		.byte	0x6
 5003 03e7 3D       		.byte	0x3d
 5004 03e8 BB000000 		.4byte	0xbb
 5005 03ec 2C       		.byte	0x2c
 5006 03ed 0E       		.uleb128 0xe
ARM GAS  C:\Users\salaz\AppData\Local\Temp\ccSSnxm1.s 			page 121


 5007 03ee E8080000 		.4byte	.LASF47
 5008 03f2 06       		.byte	0x6
 5009 03f3 3E       		.byte	0x3e
 5010 03f4 BB000000 		.4byte	0xbb
 5011 03f8 30       		.byte	0x30
 5012 03f9 0E       		.uleb128 0xe
 5013 03fa F80A0000 		.4byte	.LASF48
 5014 03fe 06       		.byte	0x6
 5015 03ff 3F       		.byte	0x3f
 5016 0400 BB000000 		.4byte	0xbb
 5017 0404 34       		.byte	0x34
 5018 0405 0E       		.uleb128 0xe
 5019 0406 AF060000 		.4byte	.LASF49
 5020 040a 06       		.byte	0x6
 5021 040b 40       		.byte	0x40
 5022 040c BB000000 		.4byte	0xbb
 5023 0410 38       		.byte	0x38
 5024 0411 0E       		.uleb128 0xe
 5025 0412 BD010000 		.4byte	.LASF50
 5026 0416 06       		.byte	0x6
 5027 0417 41       		.byte	0x41
 5028 0418 BB000000 		.4byte	0xbb
 5029 041c 3C       		.byte	0x3c
 5030 041d 0E       		.uleb128 0xe
 5031 041e DA090000 		.4byte	.LASF26
 5032 0422 06       		.byte	0x6
 5033 0423 42       		.byte	0x42
 5034 0424 5A040000 		.4byte	0x45a
 5035 0428 40       		.byte	0x40
 5036 0429 10       		.uleb128 0x10
 5037 042a FC090000 		.4byte	.LASF51
 5038 042e 06       		.byte	0x6
 5039 042f 43       		.byte	0x43
 5040 0430 5F040000 		.4byte	0x45f
 5041 0434 0020     		.2byte	0x2000
 5042 0436 10       		.uleb128 0x10
 5043 0437 BE070000 		.4byte	.LASF29
 5044 043b 06       		.byte	0x6
 5045 043c 44       		.byte	0x44
 5046 043d 74040000 		.4byte	0x474
 5047 0441 0028     		.2byte	0x2800
 5048 0443 00       		.byte	0
 5049 0444 0A       		.uleb128 0xa
 5050 0445 C0000000 		.4byte	0xc0
 5051 0449 55040000 		.4byte	0x455
 5052 044d 0B       		.uleb128 0xb
 5053 044e B4000000 		.4byte	0xb4
 5054 0452 EF07     		.2byte	0x7ef
 5055 0454 00       		.byte	0
 5056 0455 05       		.uleb128 0x5
 5057 0456 44040000 		.4byte	0x444
 5058 045a 06       		.uleb128 0x6
 5059 045b 55040000 		.4byte	0x455
 5060 045f 0A       		.uleb128 0xa
 5061 0460 49030000 		.4byte	0x349
 5062 0464 6F040000 		.4byte	0x46f
 5063 0468 0C       		.uleb128 0xc
ARM GAS  C:\Users\salaz\AppData\Local\Temp\ccSSnxm1.s 			page 122


 5064 0469 B4000000 		.4byte	0xb4
 5065 046d 1F       		.byte	0x1f
 5066 046e 00       		.byte	0
 5067 046f 05       		.uleb128 0x5
 5068 0470 03010000 		.4byte	0x103
 5069 0474 06       		.uleb128 0x6
 5070 0475 6F040000 		.4byte	0x46f
 5071 0479 04       		.uleb128 0x4
 5072 047a 460A0000 		.4byte	.LASF52
 5073 047e 06       		.byte	0x6
 5074 047f 45       		.byte	0x45
 5075 0480 54030000 		.4byte	0x354
 5076 0484 0D       		.uleb128 0xd
 5077 0485 20       		.byte	0x20
 5078 0486 06       		.byte	0x6
 5079 0487 4A       		.byte	0x4a
 5080 0488 B1040000 		.4byte	0x4b1
 5081 048c 0E       		.uleb128 0xe
 5082 048d 55010000 		.4byte	.LASF53
 5083 0491 06       		.byte	0x6
 5084 0492 4B       		.byte	0x4b
 5085 0493 BB000000 		.4byte	0xbb
 5086 0497 00       		.byte	0
 5087 0498 11       		.uleb128 0x11
 5088 0499 41545400 		.ascii	"ATT\000"
 5089 049d 06       		.byte	0x6
 5090 049e 4C       		.byte	0x4c
 5091 049f BB000000 		.4byte	0xbb
 5092 04a3 04       		.byte	0x4
 5093 04a4 0E       		.uleb128 0xe
 5094 04a5 DA090000 		.4byte	.LASF26
 5095 04a9 06       		.byte	0x6
 5096 04aa 4D       		.byte	0x4d
 5097 04ab B6040000 		.4byte	0x4b6
 5098 04af 08       		.byte	0x8
 5099 04b0 00       		.byte	0
 5100 04b1 05       		.uleb128 0x5
 5101 04b2 14010000 		.4byte	0x114
 5102 04b6 06       		.uleb128 0x6
 5103 04b7 B1040000 		.4byte	0x4b1
 5104 04bb 04       		.uleb128 0x4
 5105 04bc 8A020000 		.4byte	.LASF54
 5106 04c0 06       		.byte	0x6
 5107 04c1 4E       		.byte	0x4e
 5108 04c2 84040000 		.4byte	0x484
 5109 04c6 0F       		.uleb128 0xf
 5110 04c7 0004     		.2byte	0x400
 5111 04c9 06       		.byte	0x6
 5112 04ca 53       		.byte	0x53
 5113 04cb F5040000 		.4byte	0x4f5
 5114 04cf 0E       		.uleb128 0xe
 5115 04d0 77060000 		.4byte	.LASF55
 5116 04d4 06       		.byte	0x6
 5117 04d5 54       		.byte	0x54
 5118 04d6 BB000000 		.4byte	0xbb
 5119 04da 00       		.byte	0
 5120 04db 0E       		.uleb128 0xe
ARM GAS  C:\Users\salaz\AppData\Local\Temp\ccSSnxm1.s 			page 123


 5121 04dc DA090000 		.4byte	.LASF26
 5122 04e0 06       		.byte	0x6
 5123 04e1 55       		.byte	0x55
 5124 04e2 0A050000 		.4byte	0x50a
 5125 04e6 04       		.byte	0x4
 5126 04e7 10       		.uleb128 0x10
 5127 04e8 F1020000 		.4byte	.LASF56
 5128 04ec 06       		.byte	0x6
 5129 04ed 56       		.byte	0x56
 5130 04ee 0F050000 		.4byte	0x50f
 5131 04f2 0002     		.2byte	0x200
 5132 04f4 00       		.byte	0
 5133 04f5 0A       		.uleb128 0xa
 5134 04f6 C0000000 		.4byte	0xc0
 5135 04fa 05050000 		.4byte	0x505
 5136 04fe 0C       		.uleb128 0xc
 5137 04ff B4000000 		.4byte	0xb4
 5138 0503 7E       		.byte	0x7e
 5139 0504 00       		.byte	0
 5140 0505 05       		.uleb128 0x5
 5141 0506 F5040000 		.4byte	0x4f5
 5142 050a 06       		.uleb128 0x6
 5143 050b 05050000 		.4byte	0x505
 5144 050f 0A       		.uleb128 0xa
 5145 0510 BB040000 		.4byte	0x4bb
 5146 0514 1F050000 		.4byte	0x51f
 5147 0518 0C       		.uleb128 0xc
 5148 0519 B4000000 		.4byte	0xb4
 5149 051d 0F       		.byte	0xf
 5150 051e 00       		.byte	0
 5151 051f 04       		.uleb128 0x4
 5152 0520 03060000 		.4byte	.LASF57
 5153 0524 06       		.byte	0x6
 5154 0525 57       		.byte	0x57
 5155 0526 C6040000 		.4byte	0x4c6
 5156 052a 0F       		.uleb128 0xf
 5157 052b 0080     		.2byte	0x8000
 5158 052d 06       		.byte	0x6
 5159 052e 5C       		.byte	0x5c
 5160 052f 4D050000 		.4byte	0x54d
 5161 0533 0E       		.uleb128 0xe
 5162 0534 39010000 		.4byte	.LASF58
 5163 0538 06       		.byte	0x6
 5164 0539 5D       		.byte	0x5d
 5165 053a 79040000 		.4byte	0x479
 5166 053e 00       		.byte	0
 5167 053f 10       		.uleb128 0x10
 5168 0540 71060000 		.4byte	.LASF59
 5169 0544 06       		.byte	0x6
 5170 0545 5E       		.byte	0x5e
 5171 0546 4D050000 		.4byte	0x54d
 5172 054a 0040     		.2byte	0x4000
 5173 054c 00       		.byte	0
 5174 054d 0A       		.uleb128 0xa
 5175 054e 1F050000 		.4byte	0x51f
 5176 0552 5D050000 		.4byte	0x55d
 5177 0556 0C       		.uleb128 0xc
ARM GAS  C:\Users\salaz\AppData\Local\Temp\ccSSnxm1.s 			page 124


 5178 0557 B4000000 		.4byte	0xb4
 5179 055b 0F       		.byte	0xf
 5180 055c 00       		.byte	0
 5181 055d 04       		.uleb128 0x4
 5182 055e 9A010000 		.4byte	.LASF60
 5183 0562 06       		.byte	0x6
 5184 0563 5F       		.byte	0x5f
 5185 0564 2A050000 		.4byte	0x52a
 5186 0568 09       		.uleb128 0x9
 5187 0569 C3030000 		.4byte	.LASF61
 5188 056d 07       		.byte	0x7
 5189 056e C401     		.2byte	0x1c4
 5190 0570 74050000 		.4byte	0x574
 5191 0574 03       		.uleb128 0x3
 5192 0575 01       		.byte	0x1
 5193 0576 08       		.byte	0x8
 5194 0577 B3090000 		.4byte	.LASF62
 5195 057b 03       		.uleb128 0x3
 5196 057c 04       		.byte	0x4
 5197 057d 04       		.byte	0x4
 5198 057e 0B0B0000 		.4byte	.LASF63
 5199 0582 03       		.uleb128 0x3
 5200 0583 08       		.byte	0x8
 5201 0584 04       		.byte	0x4
 5202 0585 7B020000 		.4byte	.LASF64
 5203 0589 07       		.uleb128 0x7
 5204 058a 04       		.byte	0x4
 5205 058b 2C000000 		.4byte	0x2c
 5206 058f 08       		.byte	0x8
 5207 0590 A001     		.2byte	0x1a0
 5208 0592 AF050000 		.4byte	0x5af
 5209 0596 08       		.uleb128 0x8
 5210 0597 CA030000 		.4byte	.LASF65
 5211 059b 00       		.byte	0
 5212 059c 12       		.uleb128 0x12
 5213 059d 2F000000 		.4byte	.LASF66
 5214 05a1 0100C200 		.4byte	0xc20001
 5215 05a5 12       		.uleb128 0x12
 5216 05a6 2E0A0000 		.4byte	.LASF67
 5217 05aa 0300C200 		.4byte	0xc20003
 5218 05ae 00       		.byte	0
 5219 05af 09       		.uleb128 0x9
 5220 05b0 18040000 		.4byte	.LASF68
 5221 05b4 08       		.byte	0x8
 5222 05b5 A401     		.2byte	0x1a4
 5223 05b7 89050000 		.4byte	0x589
 5224 05bb 07       		.uleb128 0x7
 5225 05bc 01       		.byte	0x1
 5226 05bd 53000000 		.4byte	0x53
 5227 05c1 08       		.byte	0x8
 5228 05c2 AA01     		.2byte	0x1aa
 5229 05c4 F9050000 		.4byte	0x5f9
 5230 05c8 08       		.uleb128 0x8
 5231 05c9 47030000 		.4byte	.LASF69
 5232 05cd 00       		.byte	0
 5233 05ce 08       		.uleb128 0x8
 5234 05cf 3E010000 		.4byte	.LASF70
ARM GAS  C:\Users\salaz\AppData\Local\Temp\ccSSnxm1.s 			page 125


 5235 05d3 01       		.byte	0x1
 5236 05d4 08       		.uleb128 0x8
 5237 05d5 C3000000 		.4byte	.LASF71
 5238 05d9 02       		.byte	0x2
 5239 05da 08       		.uleb128 0x8
 5240 05db 6A0A0000 		.4byte	.LASF72
 5241 05df 03       		.byte	0x3
 5242 05e0 08       		.uleb128 0x8
 5243 05e1 66070000 		.4byte	.LASF73
 5244 05e5 04       		.byte	0x4
 5245 05e6 08       		.uleb128 0x8
 5246 05e7 7A0A0000 		.4byte	.LASF74
 5247 05eb 05       		.byte	0x5
 5248 05ec 08       		.uleb128 0x8
 5249 05ed 4A060000 		.4byte	.LASF75
 5250 05f1 06       		.byte	0x6
 5251 05f2 08       		.uleb128 0x8
 5252 05f3 28010000 		.4byte	.LASF76
 5253 05f7 07       		.byte	0x7
 5254 05f8 00       		.byte	0
 5255 05f9 09       		.uleb128 0x9
 5256 05fa 610B0000 		.4byte	.LASF77
 5257 05fe 08       		.byte	0x8
 5258 05ff B301     		.2byte	0x1b3
 5259 0601 BB050000 		.4byte	0x5bb
 5260 0605 07       		.uleb128 0x7
 5261 0606 01       		.byte	0x1
 5262 0607 53000000 		.4byte	0x53
 5263 060b 08       		.byte	0x8
 5264 060c B901     		.2byte	0x1b9
 5265 060e A9060000 		.4byte	0x6a9
 5266 0612 08       		.uleb128 0x8
 5267 0613 88010000 		.4byte	.LASF78
 5268 0617 07       		.byte	0x7
 5269 0618 08       		.uleb128 0x8
 5270 0619 00000000 		.4byte	.LASF79
 5271 061d 08       		.byte	0x8
 5272 061e 08       		.uleb128 0x8
 5273 061f E0050000 		.4byte	.LASF80
 5274 0623 09       		.byte	0x9
 5275 0624 08       		.uleb128 0x8
 5276 0625 A3020000 		.4byte	.LASF81
 5277 0629 0A       		.byte	0xa
 5278 062a 08       		.uleb128 0x8
 5279 062b E70A0000 		.4byte	.LASF82
 5280 062f 0B       		.byte	0xb
 5281 0630 08       		.uleb128 0x8
 5282 0631 FD010000 		.4byte	.LASF83
 5283 0635 0C       		.byte	0xc
 5284 0636 08       		.uleb128 0x8
 5285 0637 F1050000 		.4byte	.LASF84
 5286 063b 0D       		.byte	0xd
 5287 063c 08       		.uleb128 0x8
 5288 063d DA030000 		.4byte	.LASF85
 5289 0641 0E       		.byte	0xe
 5290 0642 08       		.uleb128 0x8
 5291 0643 06040000 		.4byte	.LASF86
ARM GAS  C:\Users\salaz\AppData\Local\Temp\ccSSnxm1.s 			page 126


 5292 0647 0F       		.byte	0xf
 5293 0648 08       		.uleb128 0x8
 5294 0649 9F080000 		.4byte	.LASF87
 5295 064d 10       		.byte	0x10
 5296 064e 08       		.uleb128 0x8
 5297 064f A5030000 		.4byte	.LASF88
 5298 0653 11       		.byte	0x11
 5299 0654 08       		.uleb128 0x8
 5300 0655 3D040000 		.4byte	.LASF89
 5301 0659 12       		.byte	0x12
 5302 065a 08       		.uleb128 0x8
 5303 065b 30090000 		.4byte	.LASF90
 5304 065f 13       		.byte	0x13
 5305 0660 08       		.uleb128 0x8
 5306 0661 7E060000 		.4byte	.LASF91
 5307 0665 14       		.byte	0x14
 5308 0666 08       		.uleb128 0x8
 5309 0667 FE070000 		.4byte	.LASF92
 5310 066b 15       		.byte	0x15
 5311 066c 08       		.uleb128 0x8
 5312 066d CF050000 		.4byte	.LASF93
 5313 0671 16       		.byte	0x16
 5314 0672 08       		.uleb128 0x8
 5315 0673 B2080000 		.4byte	.LASF94
 5316 0677 17       		.byte	0x17
 5317 0678 08       		.uleb128 0x8
 5318 0679 AC070000 		.4byte	.LASF95
 5319 067d 18       		.byte	0x18
 5320 067e 08       		.uleb128 0x8
 5321 067f CD0A0000 		.4byte	.LASF96
 5322 0683 19       		.byte	0x19
 5323 0684 08       		.uleb128 0x8
 5324 0685 4E0B0000 		.4byte	.LASF97
 5325 0689 1A       		.byte	0x1a
 5326 068a 08       		.uleb128 0x8
 5327 068b 53070000 		.4byte	.LASF98
 5328 068f 1B       		.byte	0x1b
 5329 0690 08       		.uleb128 0x8
 5330 0691 3B0B0000 		.4byte	.LASF99
 5331 0695 1C       		.byte	0x1c
 5332 0696 08       		.uleb128 0x8
 5333 0697 2A0B0000 		.4byte	.LASF100
 5334 069b 1D       		.byte	0x1d
 5335 069c 08       		.uleb128 0x8
 5336 069d 96090000 		.4byte	.LASF101
 5337 06a1 1E       		.byte	0x1e
 5338 06a2 08       		.uleb128 0x8
 5339 06a3 2C040000 		.4byte	.LASF102
 5340 06a7 1F       		.byte	0x1f
 5341 06a8 00       		.byte	0
 5342 06a9 09       		.uleb128 0x9
 5343 06aa F9080000 		.4byte	.LASF103
 5344 06ae 08       		.byte	0x8
 5345 06af D301     		.2byte	0x1d3
 5346 06b1 05060000 		.4byte	0x605
 5347 06b5 13       		.uleb128 0x13
 5348 06b6 0C       		.byte	0xc
ARM GAS  C:\Users\salaz\AppData\Local\Temp\ccSSnxm1.s 			page 127


 5349 06b7 08       		.byte	0x8
 5350 06b8 CE02     		.2byte	0x2ce
 5351 06ba 0D070000 		.4byte	0x70d
 5352 06be 14       		.uleb128 0x14
 5353 06bf 69060000 		.4byte	.LASF104
 5354 06c3 08       		.byte	0x8
 5355 06c4 D002     		.2byte	0x2d0
 5356 06c6 0D070000 		.4byte	0x70d
 5357 06ca 00       		.byte	0
 5358 06cb 14       		.uleb128 0x14
 5359 06cc 220C0000 		.4byte	.LASF105
 5360 06d0 08       		.byte	0x8
 5361 06d1 D102     		.2byte	0x2d1
 5362 06d3 A9060000 		.4byte	0x6a9
 5363 06d7 04       		.byte	0x4
 5364 06d8 14       		.uleb128 0x14
 5365 06d9 730B0000 		.4byte	.LASF106
 5366 06dd 08       		.byte	0x8
 5367 06de D202     		.2byte	0x2d2
 5368 06e0 93000000 		.4byte	0x93
 5369 06e4 05       		.byte	0x5
 5370 06e5 14       		.uleb128 0x14
 5371 06e6 5A060000 		.4byte	.LASF107
 5372 06ea 08       		.byte	0x8
 5373 06eb D302     		.2byte	0x2d3
 5374 06ed F9050000 		.4byte	0x5f9
 5375 06f1 06       		.byte	0x6
 5376 06f2 14       		.uleb128 0x14
 5377 06f3 20070000 		.4byte	.LASF108
 5378 06f7 08       		.byte	0x8
 5379 06f8 D402     		.2byte	0x2d4
 5380 06fa F9050000 		.4byte	0x5f9
 5381 06fe 07       		.byte	0x7
 5382 06ff 14       		.uleb128 0x14
 5383 0700 DC070000 		.4byte	.LASF109
 5384 0704 08       		.byte	0x8
 5385 0705 D502     		.2byte	0x2d5
 5386 0707 13070000 		.4byte	0x713
 5387 070b 08       		.byte	0x8
 5388 070c 00       		.byte	0
 5389 070d 15       		.uleb128 0x15
 5390 070e 04       		.byte	0x4
 5391 070f A9000000 		.4byte	0xa9
 5392 0713 03       		.uleb128 0x3
 5393 0714 01       		.byte	0x1
 5394 0715 02       		.byte	0x2
 5395 0716 33080000 		.4byte	.LASF110
 5396 071a 09       		.uleb128 0x9
 5397 071b 58040000 		.4byte	.LASF111
 5398 071f 08       		.byte	0x8
 5399 0720 D602     		.2byte	0x2d6
 5400 0722 B5060000 		.4byte	0x6b5
 5401 0726 13       		.uleb128 0x13
 5402 0727 0C       		.byte	0xc
 5403 0728 08       		.byte	0x8
 5404 0729 D902     		.2byte	0x2d9
 5405 072b 98070000 		.4byte	0x798
ARM GAS  C:\Users\salaz\AppData\Local\Temp\ccSSnxm1.s 			page 128


 5406 072f 14       		.uleb128 0x14
 5407 0730 69060000 		.4byte	.LASF104
 5408 0734 08       		.byte	0x8
 5409 0735 DB02     		.2byte	0x2db
 5410 0737 0D070000 		.4byte	0x70d
 5411 073b 00       		.byte	0
 5412 073c 14       		.uleb128 0x14
 5413 073d 220C0000 		.4byte	.LASF105
 5414 0741 08       		.byte	0x8
 5415 0742 DC02     		.2byte	0x2dc
 5416 0744 A9060000 		.4byte	0x6a9
 5417 0748 04       		.byte	0x4
 5418 0749 14       		.uleb128 0x14
 5419 074a 730B0000 		.4byte	.LASF106
 5420 074e 08       		.byte	0x8
 5421 074f DD02     		.2byte	0x2dd
 5422 0751 93000000 		.4byte	0x93
 5423 0755 05       		.byte	0x5
 5424 0756 14       		.uleb128 0x14
 5425 0757 5A060000 		.4byte	.LASF107
 5426 075b 08       		.byte	0x8
 5427 075c DE02     		.2byte	0x2de
 5428 075e F9050000 		.4byte	0x5f9
 5429 0762 06       		.byte	0x6
 5430 0763 14       		.uleb128 0x14
 5431 0764 20070000 		.4byte	.LASF108
 5432 0768 08       		.byte	0x8
 5433 0769 DF02     		.2byte	0x2df
 5434 076b F9050000 		.4byte	0x5f9
 5435 076f 07       		.byte	0x7
 5436 0770 14       		.uleb128 0x14
 5437 0771 DC070000 		.4byte	.LASF109
 5438 0775 08       		.byte	0x8
 5439 0776 E002     		.2byte	0x2e0
 5440 0778 13070000 		.4byte	0x713
 5441 077c 08       		.byte	0x8
 5442 077d 14       		.uleb128 0x14
 5443 077e 2D0C0000 		.4byte	.LASF112
 5444 0782 08       		.byte	0x8
 5445 0783 E102     		.2byte	0x2e1
 5446 0785 13070000 		.4byte	0x713
 5447 0789 09       		.byte	0x9
 5448 078a 14       		.uleb128 0x14
 5449 078b 5A020000 		.4byte	.LASF113
 5450 078f 08       		.byte	0x8
 5451 0790 E202     		.2byte	0x2e2
 5452 0792 9E000000 		.4byte	0x9e
 5453 0796 0A       		.byte	0xa
 5454 0797 00       		.byte	0
 5455 0798 09       		.uleb128 0x9
 5456 0799 EA090000 		.4byte	.LASF114
 5457 079d 08       		.byte	0x8
 5458 079e E302     		.2byte	0x2e3
 5459 07a0 26070000 		.4byte	0x726
 5460 07a4 13       		.uleb128 0x13
 5461 07a5 0C       		.byte	0xc
 5462 07a6 08       		.byte	0x8
ARM GAS  C:\Users\salaz\AppData\Local\Temp\ccSSnxm1.s 			page 129


 5463 07a7 E602     		.2byte	0x2e6
 5464 07a9 16080000 		.4byte	0x816
 5465 07ad 14       		.uleb128 0x14
 5466 07ae 69060000 		.4byte	.LASF104
 5467 07b2 08       		.byte	0x8
 5468 07b3 E802     		.2byte	0x2e8
 5469 07b5 0D070000 		.4byte	0x70d
 5470 07b9 00       		.byte	0
 5471 07ba 14       		.uleb128 0x14
 5472 07bb 220C0000 		.4byte	.LASF105
 5473 07bf 08       		.byte	0x8
 5474 07c0 E902     		.2byte	0x2e9
 5475 07c2 A9060000 		.4byte	0x6a9
 5476 07c6 04       		.byte	0x4
 5477 07c7 14       		.uleb128 0x14
 5478 07c8 730B0000 		.4byte	.LASF106
 5479 07cc 08       		.byte	0x8
 5480 07cd EA02     		.2byte	0x2ea
 5481 07cf 93000000 		.4byte	0x93
 5482 07d3 05       		.byte	0x5
 5483 07d4 14       		.uleb128 0x14
 5484 07d5 5A060000 		.4byte	.LASF107
 5485 07d9 08       		.byte	0x8
 5486 07da EB02     		.2byte	0x2eb
 5487 07dc F9050000 		.4byte	0x5f9
 5488 07e0 06       		.byte	0x6
 5489 07e1 14       		.uleb128 0x14
 5490 07e2 20070000 		.4byte	.LASF108
 5491 07e6 08       		.byte	0x8
 5492 07e7 EC02     		.2byte	0x2ec
 5493 07e9 F9050000 		.4byte	0x5f9
 5494 07ed 07       		.byte	0x7
 5495 07ee 14       		.uleb128 0x14
 5496 07ef DC070000 		.4byte	.LASF109
 5497 07f3 08       		.byte	0x8
 5498 07f4 ED02     		.2byte	0x2ed
 5499 07f6 13070000 		.4byte	0x713
 5500 07fa 08       		.byte	0x8
 5501 07fb 14       		.uleb128 0x14
 5502 07fc 2D0C0000 		.4byte	.LASF112
 5503 0800 08       		.byte	0x8
 5504 0801 EE02     		.2byte	0x2ee
 5505 0803 13070000 		.4byte	0x713
 5506 0807 09       		.byte	0x9
 5507 0808 14       		.uleb128 0x14
 5508 0809 5A020000 		.4byte	.LASF113
 5509 080d 08       		.byte	0x8
 5510 080e EF02     		.2byte	0x2ef
 5511 0810 9E000000 		.4byte	0x9e
 5512 0814 0A       		.byte	0xa
 5513 0815 00       		.byte	0
 5514 0816 09       		.uleb128 0x9
 5515 0817 82030000 		.4byte	.LASF115
 5516 081b 08       		.byte	0x8
 5517 081c F002     		.2byte	0x2f0
 5518 081e A4070000 		.4byte	0x7a4
 5519 0822 13       		.uleb128 0x13
ARM GAS  C:\Users\salaz\AppData\Local\Temp\ccSSnxm1.s 			page 130


 5520 0823 06       		.byte	0x6
 5521 0824 08       		.byte	0x8
 5522 0825 F302     		.2byte	0x2f3
 5523 0827 6D080000 		.4byte	0x86d
 5524 082b 14       		.uleb128 0x14
 5525 082c 5A060000 		.4byte	.LASF107
 5526 0830 08       		.byte	0x8
 5527 0831 F502     		.2byte	0x2f5
 5528 0833 F9050000 		.4byte	0x5f9
 5529 0837 00       		.byte	0
 5530 0838 14       		.uleb128 0x14
 5531 0839 20070000 		.4byte	.LASF108
 5532 083d 08       		.byte	0x8
 5533 083e F602     		.2byte	0x2f6
 5534 0840 F9050000 		.4byte	0x5f9
 5535 0844 01       		.byte	0x1
 5536 0845 14       		.uleb128 0x14
 5537 0846 DC070000 		.4byte	.LASF109
 5538 084a 08       		.byte	0x8
 5539 084b F702     		.2byte	0x2f7
 5540 084d 13070000 		.4byte	0x713
 5541 0851 02       		.byte	0x2
 5542 0852 14       		.uleb128 0x14
 5543 0853 2D0C0000 		.4byte	.LASF112
 5544 0857 08       		.byte	0x8
 5545 0858 F802     		.2byte	0x2f8
 5546 085a 13070000 		.4byte	0x713
 5547 085e 03       		.byte	0x3
 5548 085f 14       		.uleb128 0x14
 5549 0860 5A020000 		.4byte	.LASF113
 5550 0864 08       		.byte	0x8
 5551 0865 F902     		.2byte	0x2f9
 5552 0867 9E000000 		.4byte	0x9e
 5553 086b 04       		.byte	0x4
 5554 086c 00       		.byte	0
 5555 086d 09       		.uleb128 0x9
 5556 086e 1B000000 		.4byte	.LASF116
 5557 0872 08       		.byte	0x8
 5558 0873 FA02     		.2byte	0x2fa
 5559 0875 22080000 		.4byte	0x822
 5560 0879 13       		.uleb128 0x13
 5561 087a 06       		.byte	0x6
 5562 087b 08       		.byte	0x8
 5563 087c FD02     		.2byte	0x2fd
 5564 087e C4080000 		.4byte	0x8c4
 5565 0882 14       		.uleb128 0x14
 5566 0883 5A060000 		.4byte	.LASF107
 5567 0887 08       		.byte	0x8
 5568 0888 FF02     		.2byte	0x2ff
 5569 088a F9050000 		.4byte	0x5f9
 5570 088e 00       		.byte	0
 5571 088f 14       		.uleb128 0x14
 5572 0890 20070000 		.4byte	.LASF108
 5573 0894 08       		.byte	0x8
 5574 0895 0003     		.2byte	0x300
 5575 0897 F9050000 		.4byte	0x5f9
 5576 089b 01       		.byte	0x1
ARM GAS  C:\Users\salaz\AppData\Local\Temp\ccSSnxm1.s 			page 131


 5577 089c 14       		.uleb128 0x14
 5578 089d DC070000 		.4byte	.LASF109
 5579 08a1 08       		.byte	0x8
 5580 08a2 0103     		.2byte	0x301
 5581 08a4 13070000 		.4byte	0x713
 5582 08a8 02       		.byte	0x2
 5583 08a9 14       		.uleb128 0x14
 5584 08aa 2D0C0000 		.4byte	.LASF112
 5585 08ae 08       		.byte	0x8
 5586 08af 0203     		.2byte	0x302
 5587 08b1 13070000 		.4byte	0x713
 5588 08b5 03       		.byte	0x3
 5589 08b6 14       		.uleb128 0x14
 5590 08b7 5A020000 		.4byte	.LASF113
 5591 08bb 08       		.byte	0x8
 5592 08bc 0303     		.2byte	0x303
 5593 08be 9E000000 		.4byte	0x9e
 5594 08c2 04       		.byte	0x4
 5595 08c3 00       		.byte	0
 5596 08c4 09       		.uleb128 0x9
 5597 08c5 C8070000 		.4byte	.LASF117
 5598 08c9 08       		.byte	0x8
 5599 08ca 0403     		.2byte	0x304
 5600 08cc 79080000 		.4byte	0x879
 5601 08d0 13       		.uleb128 0x13
 5602 08d1 06       		.byte	0x6
 5603 08d2 08       		.byte	0x8
 5604 08d3 0703     		.2byte	0x307
 5605 08d5 1B090000 		.4byte	0x91b
 5606 08d9 14       		.uleb128 0x14
 5607 08da 5A060000 		.4byte	.LASF107
 5608 08de 08       		.byte	0x8
 5609 08df 0903     		.2byte	0x309
 5610 08e1 F9050000 		.4byte	0x5f9
 5611 08e5 00       		.byte	0
 5612 08e6 14       		.uleb128 0x14
 5613 08e7 20070000 		.4byte	.LASF108
 5614 08eb 08       		.byte	0x8
 5615 08ec 0A03     		.2byte	0x30a
 5616 08ee F9050000 		.4byte	0x5f9
 5617 08f2 01       		.byte	0x1
 5618 08f3 14       		.uleb128 0x14
 5619 08f4 DC070000 		.4byte	.LASF109
 5620 08f8 08       		.byte	0x8
 5621 08f9 0B03     		.2byte	0x30b
 5622 08fb 13070000 		.4byte	0x713
 5623 08ff 02       		.byte	0x2
 5624 0900 14       		.uleb128 0x14
 5625 0901 2D0C0000 		.4byte	.LASF112
 5626 0905 08       		.byte	0x8
 5627 0906 0C03     		.2byte	0x30c
 5628 0908 13070000 		.4byte	0x713
 5629 090c 03       		.byte	0x3
 5630 090d 14       		.uleb128 0x14
 5631 090e 5A020000 		.4byte	.LASF113
 5632 0912 08       		.byte	0x8
 5633 0913 0D03     		.2byte	0x30d
ARM GAS  C:\Users\salaz\AppData\Local\Temp\ccSSnxm1.s 			page 132


 5634 0915 9E000000 		.4byte	0x9e
 5635 0919 04       		.byte	0x4
 5636 091a 00       		.byte	0
 5637 091b 09       		.uleb128 0x9
 5638 091c 41000000 		.4byte	.LASF118
 5639 0920 08       		.byte	0x8
 5640 0921 0E03     		.2byte	0x30e
 5641 0923 D0080000 		.4byte	0x8d0
 5642 0927 16       		.uleb128 0x16
 5643 0928 F8060000 		.4byte	.LASF124
 5644 092c 01       		.byte	0x1
 5645 092d 3C       		.byte	0x3c
 5646 092e AF050000 		.4byte	0x5af
 5647 0932 00000000 		.4byte	.LFB36
 5648 0936 1C010000 		.4byte	.LFE36-.LFB36
 5649 093a 01       		.uleb128 0x1
 5650 093b 9C       		.byte	0x9c
 5651 093c A3090000 		.4byte	0x9a3
 5652 0940 17       		.uleb128 0x17
 5653 0941 11060000 		.4byte	.LASF119
 5654 0945 01       		.byte	0x1
 5655 0946 3C       		.byte	0x3c
 5656 0947 F7000000 		.4byte	0xf7
 5657 094b 02       		.uleb128 0x2
 5658 094c 91       		.byte	0x91
 5659 094d 5F       		.sleb128 -33
 5660 094e 17       		.uleb128 0x17
 5661 094f B8030000 		.4byte	.LASF120
 5662 0953 01       		.byte	0x1
 5663 0954 3C       		.byte	0x3c
 5664 0955 13070000 		.4byte	0x713
 5665 0959 02       		.uleb128 0x2
 5666 095a 91       		.byte	0x91
 5667 095b 5E       		.sleb128 -34
 5668 095c 17       		.uleb128 0x17
 5669 095d DC070000 		.4byte	.LASF109
 5670 0961 01       		.byte	0x1
 5671 0962 3C       		.byte	0x3c
 5672 0963 13070000 		.4byte	0x713
 5673 0967 02       		.uleb128 0x2
 5674 0968 91       		.byte	0x91
 5675 0969 5D       		.sleb128 -35
 5676 096a 17       		.uleb128 0x17
 5677 096b 5A020000 		.4byte	.LASF113
 5678 096f 01       		.byte	0x1
 5679 0970 3C       		.byte	0x3c
 5680 0971 A9000000 		.4byte	0xa9
 5681 0975 02       		.uleb128 0x2
 5682 0976 91       		.byte	0x91
 5683 0977 58       		.sleb128 -40
 5684 0978 18       		.uleb128 0x18
 5685 0979 C60A0000 		.4byte	.LASF121
 5686 097d 01       		.byte	0x1
 5687 097e 3E       		.byte	0x3e
 5688 097f AF050000 		.4byte	0x5af
 5689 0983 02       		.uleb128 0x2
 5690 0984 91       		.byte	0x91
ARM GAS  C:\Users\salaz\AppData\Local\Temp\ccSSnxm1.s 			page 133


 5691 0985 6C       		.sleb128 -20
 5692 0986 18       		.uleb128 0x18
 5693 0987 C8050000 		.4byte	.LASF122
 5694 098b 01       		.byte	0x1
 5695 098c 3F       		.byte	0x3f
 5696 098d A9000000 		.4byte	0xa9
 5697 0991 02       		.uleb128 0x2
 5698 0992 91       		.byte	0x91
 5699 0993 64       		.sleb128 -28
 5700 0994 18       		.uleb128 0x18
 5701 0995 010B0000 		.4byte	.LASF123
 5702 0999 01       		.byte	0x1
 5703 099a 40       		.byte	0x40
 5704 099b 0D070000 		.4byte	0x70d
 5705 099f 02       		.uleb128 0x2
 5706 09a0 91       		.byte	0x91
 5707 09a1 68       		.sleb128 -24
 5708 09a2 00       		.byte	0
 5709 09a3 16       		.uleb128 0x16
 5710 09a4 E9040000 		.4byte	.LASF125
 5711 09a8 01       		.byte	0x1
 5712 09a9 96       		.byte	0x96
 5713 09aa AF050000 		.4byte	0x5af
 5714 09ae 00000000 		.4byte	.LFB37
 5715 09b2 F8000000 		.4byte	.LFE37-.LFB37
 5716 09b6 01       		.uleb128 0x1
 5717 09b7 9C       		.byte	0x9c
 5718 09b8 F4090000 		.4byte	0x9f4
 5719 09bc 17       		.uleb128 0x17
 5720 09bd 11060000 		.4byte	.LASF119
 5721 09c1 01       		.byte	0x1
 5722 09c2 96       		.byte	0x96
 5723 09c3 F7000000 		.4byte	0xf7
 5724 09c7 02       		.uleb128 0x2
 5725 09c8 91       		.byte	0x91
 5726 09c9 6F       		.sleb128 -17
 5727 09ca 19       		.uleb128 0x19
 5728 09cb 706300   		.ascii	"pc\000"
 5729 09ce 01       		.byte	0x1
 5730 09cf 96       		.byte	0x96
 5731 09d0 A9000000 		.4byte	0xa9
 5732 09d4 02       		.uleb128 0x2
 5733 09d5 91       		.byte	0x91
 5734 09d6 68       		.sleb128 -24
 5735 09d7 18       		.uleb128 0x18
 5736 09d8 C60A0000 		.4byte	.LASF121
 5737 09dc 01       		.byte	0x1
 5738 09dd 98       		.byte	0x98
 5739 09de AF050000 		.4byte	0x5af
 5740 09e2 02       		.uleb128 0x2
 5741 09e3 91       		.byte	0x91
 5742 09e4 74       		.sleb128 -12
 5743 09e5 18       		.uleb128 0x18
 5744 09e6 DE020000 		.4byte	.LASF126
 5745 09ea 01       		.byte	0x1
 5746 09eb 99       		.byte	0x99
 5747 09ec F4090000 		.4byte	0x9f4
ARM GAS  C:\Users\salaz\AppData\Local\Temp\ccSSnxm1.s 			page 134


 5748 09f0 02       		.uleb128 0x2
 5749 09f1 91       		.byte	0x91
 5750 09f2 70       		.sleb128 -16
 5751 09f3 00       		.byte	0
 5752 09f4 15       		.uleb128 0x15
 5753 09f5 04       		.byte	0x4
 5754 09f6 1F050000 		.4byte	0x51f
 5755 09fa 16       		.uleb128 0x16
 5756 09fb 5A010000 		.4byte	.LASF127
 5757 09ff 01       		.byte	0x1
 5758 0a00 E0       		.byte	0xe0
 5759 0a01 A9000000 		.4byte	0xa9
 5760 0a05 00000000 		.4byte	.LFB38
 5761 0a09 44000000 		.4byte	.LFE38-.LFB38
 5762 0a0d 01       		.uleb128 0x1
 5763 0a0e 9C       		.byte	0x9c
 5764 0a0f 300A0000 		.4byte	0xa30
 5765 0a13 17       		.uleb128 0x17
 5766 0a14 11060000 		.4byte	.LASF119
 5767 0a18 01       		.byte	0x1
 5768 0a19 E0       		.byte	0xe0
 5769 0a1a F7000000 		.4byte	0xf7
 5770 0a1e 02       		.uleb128 0x2
 5771 0a1f 91       		.byte	0x91
 5772 0a20 6F       		.sleb128 -17
 5773 0a21 18       		.uleb128 0x18
 5774 0a22 DE020000 		.4byte	.LASF126
 5775 0a26 01       		.byte	0x1
 5776 0a27 E2       		.byte	0xe2
 5777 0a28 F4090000 		.4byte	0x9f4
 5778 0a2c 02       		.uleb128 0x2
 5779 0a2d 91       		.byte	0x91
 5780 0a2e 74       		.sleb128 -12
 5781 0a2f 00       		.byte	0
 5782 0a30 1A       		.uleb128 0x1a
 5783 0a31 74080000 		.4byte	.LASF128
 5784 0a35 01       		.byte	0x1
 5785 0a36 0801     		.2byte	0x108
 5786 0a38 AF050000 		.4byte	0x5af
 5787 0a3c 00000000 		.4byte	.LFB39
 5788 0a40 24020000 		.4byte	.LFE39-.LFB39
 5789 0a44 01       		.uleb128 0x1
 5790 0a45 9C       		.byte	0x9c
 5791 0a46 960A0000 		.4byte	0xa96
 5792 0a4a 1B       		.uleb128 0x1b
 5793 0a4b 1B060000 		.4byte	.LASF129
 5794 0a4f 01       		.byte	0x1
 5795 0a50 0801     		.2byte	0x108
 5796 0a52 960A0000 		.4byte	0xa96
 5797 0a56 02       		.uleb128 0x2
 5798 0a57 91       		.byte	0x91
 5799 0a58 64       		.sleb128 -28
 5800 0a59 1B       		.uleb128 0x1b
 5801 0a5a B8090000 		.4byte	.LASF130
 5802 0a5e 01       		.byte	0x1
 5803 0a5f 0801     		.2byte	0x108
 5804 0a61 9C0A0000 		.4byte	0xa9c
ARM GAS  C:\Users\salaz\AppData\Local\Temp\ccSSnxm1.s 			page 135


 5805 0a65 02       		.uleb128 0x2
 5806 0a66 91       		.byte	0x91
 5807 0a67 60       		.sleb128 -32
 5808 0a68 1C       		.uleb128 0x1c
 5809 0a69 C60A0000 		.4byte	.LASF121
 5810 0a6d 01       		.byte	0x1
 5811 0a6e 0A01     		.2byte	0x10a
 5812 0a70 AF050000 		.4byte	0x5af
 5813 0a74 02       		.uleb128 0x2
 5814 0a75 91       		.byte	0x91
 5815 0a76 6C       		.sleb128 -20
 5816 0a77 1C       		.uleb128 0x1c
 5817 0a78 09010000 		.4byte	.LASF131
 5818 0a7c 01       		.byte	0x1
 5819 0a7d 0B01     		.2byte	0x10b
 5820 0a7f A9000000 		.4byte	0xa9
 5821 0a83 02       		.uleb128 0x2
 5822 0a84 91       		.byte	0x91
 5823 0a85 74       		.sleb128 -12
 5824 0a86 1C       		.uleb128 0x1c
 5825 0a87 E3090000 		.4byte	.LASF132
 5826 0a8b 01       		.byte	0x1
 5827 0a8c 0C01     		.2byte	0x10c
 5828 0a8e A9000000 		.4byte	0xa9
 5829 0a92 02       		.uleb128 0x2
 5830 0a93 91       		.byte	0x91
 5831 0a94 70       		.sleb128 -16
 5832 0a95 00       		.byte	0
 5833 0a96 15       		.uleb128 0x15
 5834 0a97 04       		.byte	0x4
 5835 0a98 BB040000 		.4byte	0x4bb
 5836 0a9c 15       		.uleb128 0x15
 5837 0a9d 04       		.byte	0x4
 5838 0a9e A20A0000 		.4byte	0xaa2
 5839 0aa2 06       		.uleb128 0x6
 5840 0aa3 1A070000 		.4byte	0x71a
 5841 0aa7 1D       		.uleb128 0x1d
 5842 0aa8 75070000 		.4byte	.LASF133
 5843 0aac 01       		.byte	0x1
 5844 0aad 3701     		.2byte	0x137
 5845 0aaf AF050000 		.4byte	0x5af
 5846 0ab3 00000000 		.4byte	.LFB40
 5847 0ab7 3C000000 		.4byte	.LFE40-.LFB40
 5848 0abb 01       		.uleb128 0x1
 5849 0abc 9C       		.byte	0x9c
 5850 0abd E00A0000 		.4byte	0xae0
 5851 0ac1 1B       		.uleb128 0x1b
 5852 0ac2 1B060000 		.4byte	.LASF129
 5853 0ac6 01       		.byte	0x1
 5854 0ac7 3701     		.2byte	0x137
 5855 0ac9 960A0000 		.4byte	0xa96
 5856 0acd 02       		.uleb128 0x2
 5857 0ace 91       		.byte	0x91
 5858 0acf 6C       		.sleb128 -20
 5859 0ad0 1C       		.uleb128 0x1c
 5860 0ad1 C60A0000 		.4byte	.LASF121
 5861 0ad5 01       		.byte	0x1
ARM GAS  C:\Users\salaz\AppData\Local\Temp\ccSSnxm1.s 			page 136


 5862 0ad6 3901     		.2byte	0x139
 5863 0ad8 AF050000 		.4byte	0x5af
 5864 0adc 02       		.uleb128 0x2
 5865 0add 91       		.byte	0x91
 5866 0ade 74       		.sleb128 -12
 5867 0adf 00       		.byte	0
 5868 0ae0 1D       		.uleb128 0x1d
 5869 0ae1 A4010000 		.4byte	.LASF134
 5870 0ae5 01       		.byte	0x1
 5871 0ae6 5901     		.2byte	0x159
 5872 0ae8 AF050000 		.4byte	0x5af
 5873 0aec 00000000 		.4byte	.LFB41
 5874 0af0 38000000 		.4byte	.LFE41-.LFB41
 5875 0af4 01       		.uleb128 0x1
 5876 0af5 9C       		.byte	0x9c
 5877 0af6 190B0000 		.4byte	0xb19
 5878 0afa 1B       		.uleb128 0x1b
 5879 0afb 1B060000 		.4byte	.LASF129
 5880 0aff 01       		.byte	0x1
 5881 0b00 5901     		.2byte	0x159
 5882 0b02 960A0000 		.4byte	0xa96
 5883 0b06 02       		.uleb128 0x2
 5884 0b07 91       		.byte	0x91
 5885 0b08 6C       		.sleb128 -20
 5886 0b09 1C       		.uleb128 0x1c
 5887 0b0a C60A0000 		.4byte	.LASF121
 5888 0b0e 01       		.byte	0x1
 5889 0b0f 5B01     		.2byte	0x15b
 5890 0b11 AF050000 		.4byte	0x5af
 5891 0b15 02       		.uleb128 0x2
 5892 0b16 91       		.byte	0x91
 5893 0b17 74       		.sleb128 -12
 5894 0b18 00       		.byte	0
 5895 0b19 1A       		.uleb128 0x1a
 5896 0b1a 32020000 		.4byte	.LASF135
 5897 0b1e 01       		.byte	0x1
 5898 0b1f 8701     		.2byte	0x187
 5899 0b21 AF050000 		.4byte	0x5af
 5900 0b25 00000000 		.4byte	.LFB42
 5901 0b29 00010000 		.4byte	.LFE42-.LFB42
 5902 0b2d 01       		.uleb128 0x1
 5903 0b2e 9C       		.byte	0x9c
 5904 0b2f 700B0000 		.4byte	0xb70
 5905 0b33 1B       		.uleb128 0x1b
 5906 0b34 1B060000 		.4byte	.LASF129
 5907 0b38 01       		.byte	0x1
 5908 0b39 8701     		.2byte	0x187
 5909 0b3b 700B0000 		.4byte	0xb70
 5910 0b3f 02       		.uleb128 0x2
 5911 0b40 91       		.byte	0x91
 5912 0b41 6C       		.sleb128 -20
 5913 0b42 1B       		.uleb128 0x1b
 5914 0b43 B8090000 		.4byte	.LASF130
 5915 0b47 01       		.byte	0x1
 5916 0b48 8701     		.2byte	0x187
 5917 0b4a 760B0000 		.4byte	0xb76
 5918 0b4e 02       		.uleb128 0x2
ARM GAS  C:\Users\salaz\AppData\Local\Temp\ccSSnxm1.s 			page 137


 5919 0b4f 91       		.byte	0x91
 5920 0b50 68       		.sleb128 -24
 5921 0b51 1C       		.uleb128 0x1c
 5922 0b52 C60A0000 		.4byte	.LASF121
 5923 0b56 01       		.byte	0x1
 5924 0b57 8901     		.2byte	0x189
 5925 0b59 AF050000 		.4byte	0x5af
 5926 0b5d 02       		.uleb128 0x2
 5927 0b5e 91       		.byte	0x91
 5928 0b5f 74       		.sleb128 -12
 5929 0b60 1C       		.uleb128 0x1c
 5930 0b61 E3090000 		.4byte	.LASF132
 5931 0b65 01       		.byte	0x1
 5932 0b66 8A01     		.2byte	0x18a
 5933 0b68 A9000000 		.4byte	0xa9
 5934 0b6c 02       		.uleb128 0x2
 5935 0b6d 91       		.byte	0x91
 5936 0b6e 70       		.sleb128 -16
 5937 0b6f 00       		.byte	0
 5938 0b70 15       		.uleb128 0x15
 5939 0b71 04       		.byte	0x4
 5940 0b72 49030000 		.4byte	0x349
 5941 0b76 15       		.uleb128 0x15
 5942 0b77 04       		.byte	0x4
 5943 0b78 7C0B0000 		.4byte	0xb7c
 5944 0b7c 06       		.uleb128 0x6
 5945 0b7d 98070000 		.4byte	0x798
 5946 0b81 1A       		.uleb128 0x1a
 5947 0b82 A5000000 		.4byte	.LASF136
 5948 0b86 01       		.byte	0x1
 5949 0b87 CA01     		.2byte	0x1ca
 5950 0b89 AF050000 		.4byte	0x5af
 5951 0b8d 00000000 		.4byte	.LFB43
 5952 0b91 64020000 		.4byte	.LFE43-.LFB43
 5953 0b95 01       		.uleb128 0x1
 5954 0b96 9C       		.byte	0x9c
 5955 0b97 E70B0000 		.4byte	0xbe7
 5956 0b9b 1B       		.uleb128 0x1b
 5957 0b9c 1B060000 		.4byte	.LASF129
 5958 0ba0 01       		.byte	0x1
 5959 0ba1 CA01     		.2byte	0x1ca
 5960 0ba3 700B0000 		.4byte	0xb70
 5961 0ba7 02       		.uleb128 0x2
 5962 0ba8 91       		.byte	0x91
 5963 0ba9 64       		.sleb128 -28
 5964 0baa 1B       		.uleb128 0x1b
 5965 0bab B8090000 		.4byte	.LASF130
 5966 0baf 01       		.byte	0x1
 5967 0bb0 CA01     		.2byte	0x1ca
 5968 0bb2 760B0000 		.4byte	0xb76
 5969 0bb6 02       		.uleb128 0x2
 5970 0bb7 91       		.byte	0x91
 5971 0bb8 60       		.sleb128 -32
 5972 0bb9 1C       		.uleb128 0x1c
 5973 0bba C60A0000 		.4byte	.LASF121
 5974 0bbe 01       		.byte	0x1
 5975 0bbf CC01     		.2byte	0x1cc
ARM GAS  C:\Users\salaz\AppData\Local\Temp\ccSSnxm1.s 			page 138


 5976 0bc1 AF050000 		.4byte	0x5af
 5977 0bc5 02       		.uleb128 0x2
 5978 0bc6 91       		.byte	0x91
 5979 0bc7 74       		.sleb128 -12
 5980 0bc8 1C       		.uleb128 0x1c
 5981 0bc9 09010000 		.4byte	.LASF131
 5982 0bcd 01       		.byte	0x1
 5983 0bce CD01     		.2byte	0x1cd
 5984 0bd0 A9000000 		.4byte	0xa9
 5985 0bd4 02       		.uleb128 0x2
 5986 0bd5 91       		.byte	0x91
 5987 0bd6 70       		.sleb128 -16
 5988 0bd7 1C       		.uleb128 0x1c
 5989 0bd8 E3090000 		.4byte	.LASF132
 5990 0bdc 01       		.byte	0x1
 5991 0bdd CE01     		.2byte	0x1ce
 5992 0bdf A9000000 		.4byte	0xa9
 5993 0be3 02       		.uleb128 0x2
 5994 0be4 91       		.byte	0x91
 5995 0be5 6C       		.sleb128 -20
 5996 0be6 00       		.byte	0
 5997 0be7 1D       		.uleb128 0x1d
 5998 0be8 8D070000 		.4byte	.LASF137
 5999 0bec 01       		.byte	0x1
 6000 0bed 0602     		.2byte	0x206
 6001 0bef AF050000 		.4byte	0x5af
 6002 0bf3 00000000 		.4byte	.LFB44
 6003 0bf7 3C000000 		.4byte	.LFE44-.LFB44
 6004 0bfb 01       		.uleb128 0x1
 6005 0bfc 9C       		.byte	0x9c
 6006 0bfd 200C0000 		.4byte	0xc20
 6007 0c01 1B       		.uleb128 0x1b
 6008 0c02 1B060000 		.4byte	.LASF129
 6009 0c06 01       		.byte	0x1
 6010 0c07 0602     		.2byte	0x206
 6011 0c09 700B0000 		.4byte	0xb70
 6012 0c0d 02       		.uleb128 0x2
 6013 0c0e 91       		.byte	0x91
 6014 0c0f 6C       		.sleb128 -20
 6015 0c10 1C       		.uleb128 0x1c
 6016 0c11 C60A0000 		.4byte	.LASF121
 6017 0c15 01       		.byte	0x1
 6018 0c16 0802     		.2byte	0x208
 6019 0c18 AF050000 		.4byte	0x5af
 6020 0c1c 02       		.uleb128 0x2
 6021 0c1d 91       		.byte	0x91
 6022 0c1e 74       		.sleb128 -12
 6023 0c1f 00       		.byte	0
 6024 0c20 1D       		.uleb128 0x1d
 6025 0c21 8F060000 		.4byte	.LASF138
 6026 0c25 01       		.byte	0x1
 6027 0c26 2A02     		.2byte	0x22a
 6028 0c28 AF050000 		.4byte	0x5af
 6029 0c2c 00000000 		.4byte	.LFB45
 6030 0c30 38000000 		.4byte	.LFE45-.LFB45
 6031 0c34 01       		.uleb128 0x1
 6032 0c35 9C       		.byte	0x9c
ARM GAS  C:\Users\salaz\AppData\Local\Temp\ccSSnxm1.s 			page 139


 6033 0c36 590C0000 		.4byte	0xc59
 6034 0c3a 1B       		.uleb128 0x1b
 6035 0c3b 1B060000 		.4byte	.LASF129
 6036 0c3f 01       		.byte	0x1
 6037 0c40 2A02     		.2byte	0x22a
 6038 0c42 700B0000 		.4byte	0xb70
 6039 0c46 02       		.uleb128 0x2
 6040 0c47 91       		.byte	0x91
 6041 0c48 6C       		.sleb128 -20
 6042 0c49 1C       		.uleb128 0x1c
 6043 0c4a C60A0000 		.4byte	.LASF121
 6044 0c4e 01       		.byte	0x1
 6045 0c4f 2C02     		.2byte	0x22c
 6046 0c51 AF050000 		.4byte	0x5af
 6047 0c55 02       		.uleb128 0x2
 6048 0c56 91       		.byte	0x91
 6049 0c57 74       		.sleb128 -12
 6050 0c58 00       		.byte	0
 6051 0c59 1D       		.uleb128 0x1d
 6052 0c5a B8060000 		.4byte	.LASF139
 6053 0c5e 01       		.byte	0x1
 6054 0c5f 4E02     		.2byte	0x24e
 6055 0c61 AF050000 		.4byte	0x5af
 6056 0c65 00000000 		.4byte	.LFB46
 6057 0c69 3C000000 		.4byte	.LFE46-.LFB46
 6058 0c6d 01       		.uleb128 0x1
 6059 0c6e 9C       		.byte	0x9c
 6060 0c6f 920C0000 		.4byte	0xc92
 6061 0c73 1B       		.uleb128 0x1b
 6062 0c74 1B060000 		.4byte	.LASF129
 6063 0c78 01       		.byte	0x1
 6064 0c79 4E02     		.2byte	0x24e
 6065 0c7b 700B0000 		.4byte	0xb70
 6066 0c7f 02       		.uleb128 0x2
 6067 0c80 91       		.byte	0x91
 6068 0c81 6C       		.sleb128 -20
 6069 0c82 1C       		.uleb128 0x1c
 6070 0c83 C60A0000 		.4byte	.LASF121
 6071 0c87 01       		.byte	0x1
 6072 0c88 5002     		.2byte	0x250
 6073 0c8a AF050000 		.4byte	0x5af
 6074 0c8e 02       		.uleb128 0x2
 6075 0c8f 91       		.byte	0x91
 6076 0c90 74       		.sleb128 -12
 6077 0c91 00       		.byte	0
 6078 0c92 1D       		.uleb128 0x1d
 6079 0c93 41090000 		.4byte	.LASF140
 6080 0c97 01       		.byte	0x1
 6081 0c98 7202     		.2byte	0x272
 6082 0c9a AF050000 		.4byte	0x5af
 6083 0c9e 00000000 		.4byte	.LFB47
 6084 0ca2 38000000 		.4byte	.LFE47-.LFB47
 6085 0ca6 01       		.uleb128 0x1
 6086 0ca7 9C       		.byte	0x9c
 6087 0ca8 CB0C0000 		.4byte	0xccb
 6088 0cac 1B       		.uleb128 0x1b
 6089 0cad 1B060000 		.4byte	.LASF129
ARM GAS  C:\Users\salaz\AppData\Local\Temp\ccSSnxm1.s 			page 140


 6090 0cb1 01       		.byte	0x1
 6091 0cb2 7202     		.2byte	0x272
 6092 0cb4 700B0000 		.4byte	0xb70
 6093 0cb8 02       		.uleb128 0x2
 6094 0cb9 91       		.byte	0x91
 6095 0cba 6C       		.sleb128 -20
 6096 0cbb 1C       		.uleb128 0x1c
 6097 0cbc C60A0000 		.4byte	.LASF121
 6098 0cc0 01       		.byte	0x1
 6099 0cc1 7402     		.2byte	0x274
 6100 0cc3 AF050000 		.4byte	0x5af
 6101 0cc7 02       		.uleb128 0x2
 6102 0cc8 91       		.byte	0x91
 6103 0cc9 74       		.sleb128 -12
 6104 0cca 00       		.byte	0
 6105 0ccb 1A       		.uleb128 0x1a
 6106 0ccc 20060000 		.4byte	.LASF141
 6107 0cd0 01       		.byte	0x1
 6108 0cd1 A002     		.2byte	0x2a0
 6109 0cd3 AF050000 		.4byte	0x5af
 6110 0cd7 00000000 		.4byte	.LFB48
 6111 0cdb 04010000 		.4byte	.LFE48-.LFB48
 6112 0cdf 01       		.uleb128 0x1
 6113 0ce0 9C       		.byte	0x9c
 6114 0ce1 220D0000 		.4byte	0xd22
 6115 0ce5 1B       		.uleb128 0x1b
 6116 0ce6 1B060000 		.4byte	.LASF129
 6117 0cea 01       		.byte	0x1
 6118 0ceb A002     		.2byte	0x2a0
 6119 0ced 220D0000 		.4byte	0xd22
 6120 0cf1 02       		.uleb128 0x2
 6121 0cf2 91       		.byte	0x91
 6122 0cf3 6C       		.sleb128 -20
 6123 0cf4 1B       		.uleb128 0x1b
 6124 0cf5 B8090000 		.4byte	.LASF130
 6125 0cf9 01       		.byte	0x1
 6126 0cfa A002     		.2byte	0x2a0
 6127 0cfc 280D0000 		.4byte	0xd28
 6128 0d00 02       		.uleb128 0x2
 6129 0d01 91       		.byte	0x91
 6130 0d02 68       		.sleb128 -24
 6131 0d03 1C       		.uleb128 0x1c
 6132 0d04 C60A0000 		.4byte	.LASF121
 6133 0d08 01       		.byte	0x1
 6134 0d09 A202     		.2byte	0x2a2
 6135 0d0b AF050000 		.4byte	0x5af
 6136 0d0f 02       		.uleb128 0x2
 6137 0d10 91       		.byte	0x91
 6138 0d11 74       		.sleb128 -12
 6139 0d12 1C       		.uleb128 0x1c
 6140 0d13 E3090000 		.4byte	.LASF132
 6141 0d17 01       		.byte	0x1
 6142 0d18 A302     		.2byte	0x2a3
 6143 0d1a A9000000 		.4byte	0xa9
 6144 0d1e 02       		.uleb128 0x2
 6145 0d1f 91       		.byte	0x91
 6146 0d20 70       		.sleb128 -16
ARM GAS  C:\Users\salaz\AppData\Local\Temp\ccSSnxm1.s 			page 141


 6147 0d21 00       		.byte	0
 6148 0d22 15       		.uleb128 0x15
 6149 0d23 04       		.byte	0x4
 6150 0d24 89010000 		.4byte	0x189
 6151 0d28 15       		.uleb128 0x15
 6152 0d29 04       		.byte	0x4
 6153 0d2a 2E0D0000 		.4byte	0xd2e
 6154 0d2e 06       		.uleb128 0x6
 6155 0d2f 16080000 		.4byte	0x816
 6156 0d33 1A       		.uleb128 0x1a
 6157 0d34 55000000 		.4byte	.LASF142
 6158 0d38 01       		.byte	0x1
 6159 0d39 E702     		.2byte	0x2e7
 6160 0d3b AF050000 		.4byte	0x5af
 6161 0d3f 00000000 		.4byte	.LFB49
 6162 0d43 38020000 		.4byte	.LFE49-.LFB49
 6163 0d47 01       		.uleb128 0x1
 6164 0d48 9C       		.byte	0x9c
 6165 0d49 990D0000 		.4byte	0xd99
 6166 0d4d 1B       		.uleb128 0x1b
 6167 0d4e 1B060000 		.4byte	.LASF129
 6168 0d52 01       		.byte	0x1
 6169 0d53 E702     		.2byte	0x2e7
 6170 0d55 220D0000 		.4byte	0xd22
 6171 0d59 02       		.uleb128 0x2
 6172 0d5a 91       		.byte	0x91
 6173 0d5b 64       		.sleb128 -28
 6174 0d5c 1B       		.uleb128 0x1b
 6175 0d5d B8090000 		.4byte	.LASF130
 6176 0d61 01       		.byte	0x1
 6177 0d62 E702     		.2byte	0x2e7
 6178 0d64 280D0000 		.4byte	0xd28
 6179 0d68 02       		.uleb128 0x2
 6180 0d69 91       		.byte	0x91
 6181 0d6a 60       		.sleb128 -32
 6182 0d6b 1C       		.uleb128 0x1c
 6183 0d6c C60A0000 		.4byte	.LASF121
 6184 0d70 01       		.byte	0x1
 6185 0d71 E902     		.2byte	0x2e9
 6186 0d73 AF050000 		.4byte	0x5af
 6187 0d77 02       		.uleb128 0x2
 6188 0d78 91       		.byte	0x91
 6189 0d79 74       		.sleb128 -12
 6190 0d7a 1C       		.uleb128 0x1c
 6191 0d7b 09010000 		.4byte	.LASF131
 6192 0d7f 01       		.byte	0x1
 6193 0d80 EA02     		.2byte	0x2ea
 6194 0d82 A9000000 		.4byte	0xa9
 6195 0d86 02       		.uleb128 0x2
 6196 0d87 91       		.byte	0x91
 6197 0d88 70       		.sleb128 -16
 6198 0d89 1C       		.uleb128 0x1c
 6199 0d8a E3090000 		.4byte	.LASF132
 6200 0d8e 01       		.byte	0x1
 6201 0d8f EB02     		.2byte	0x2eb
 6202 0d91 A9000000 		.4byte	0xa9
 6203 0d95 02       		.uleb128 0x2
ARM GAS  C:\Users\salaz\AppData\Local\Temp\ccSSnxm1.s 			page 142


 6204 0d96 91       		.byte	0x91
 6205 0d97 6C       		.sleb128 -20
 6206 0d98 00       		.byte	0
 6207 0d99 1D       		.uleb128 0x1d
 6208 0d9a D6060000 		.4byte	.LASF143
 6209 0d9e 01       		.byte	0x1
 6210 0d9f 2B03     		.2byte	0x32b
 6211 0da1 AF050000 		.4byte	0x5af
 6212 0da5 00000000 		.4byte	.LFB50
 6213 0da9 3C000000 		.4byte	.LFE50-.LFB50
 6214 0dad 01       		.uleb128 0x1
 6215 0dae 9C       		.byte	0x9c
 6216 0daf D20D0000 		.4byte	0xdd2
 6217 0db3 1B       		.uleb128 0x1b
 6218 0db4 1B060000 		.4byte	.LASF129
 6219 0db8 01       		.byte	0x1
 6220 0db9 2B03     		.2byte	0x32b
 6221 0dbb 220D0000 		.4byte	0xd22
 6222 0dbf 02       		.uleb128 0x2
 6223 0dc0 91       		.byte	0x91
 6224 0dc1 6C       		.sleb128 -20
 6225 0dc2 1C       		.uleb128 0x1c
 6226 0dc3 C60A0000 		.4byte	.LASF121
 6227 0dc7 01       		.byte	0x1
 6228 0dc8 2D03     		.2byte	0x32d
 6229 0dca AF050000 		.4byte	0x5af
 6230 0dce 02       		.uleb128 0x2
 6231 0dcf 91       		.byte	0x91
 6232 0dd0 74       		.sleb128 -12
 6233 0dd1 00       		.byte	0
 6234 0dd2 1D       		.uleb128 0x1d
 6235 0dd3 9B0A0000 		.4byte	.LASF144
 6236 0dd7 01       		.byte	0x1
 6237 0dd8 5003     		.2byte	0x350
 6238 0dda AF050000 		.4byte	0x5af
 6239 0dde 00000000 		.4byte	.LFB51
 6240 0de2 38000000 		.4byte	.LFE51-.LFB51
 6241 0de6 01       		.uleb128 0x1
 6242 0de7 9C       		.byte	0x9c
 6243 0de8 0B0E0000 		.4byte	0xe0b
 6244 0dec 1B       		.uleb128 0x1b
 6245 0ded 1B060000 		.4byte	.LASF129
 6246 0df1 01       		.byte	0x1
 6247 0df2 5003     		.2byte	0x350
 6248 0df4 220D0000 		.4byte	0xd22
 6249 0df8 02       		.uleb128 0x2
 6250 0df9 91       		.byte	0x91
 6251 0dfa 6C       		.sleb128 -20
 6252 0dfb 1C       		.uleb128 0x1c
 6253 0dfc C60A0000 		.4byte	.LASF121
 6254 0e00 01       		.byte	0x1
 6255 0e01 5203     		.2byte	0x352
 6256 0e03 AF050000 		.4byte	0x5af
 6257 0e07 02       		.uleb128 0x2
 6258 0e08 91       		.byte	0x91
 6259 0e09 74       		.sleb128 -12
 6260 0e0a 00       		.byte	0
ARM GAS  C:\Users\salaz\AppData\Local\Temp\ccSSnxm1.s 			page 143


 6261 0e0b 1D       		.uleb128 0x1d
 6262 0e0c 7E0B0000 		.4byte	.LASF145
 6263 0e10 01       		.byte	0x1
 6264 0e11 7403     		.2byte	0x374
 6265 0e13 AF050000 		.4byte	0x5af
 6266 0e17 00000000 		.4byte	.LFB52
 6267 0e1b 3C000000 		.4byte	.LFE52-.LFB52
 6268 0e1f 01       		.uleb128 0x1
 6269 0e20 9C       		.byte	0x9c
 6270 0e21 440E0000 		.4byte	0xe44
 6271 0e25 1B       		.uleb128 0x1b
 6272 0e26 1B060000 		.4byte	.LASF129
 6273 0e2a 01       		.byte	0x1
 6274 0e2b 7403     		.2byte	0x374
 6275 0e2d 220D0000 		.4byte	0xd22
 6276 0e31 02       		.uleb128 0x2
 6277 0e32 91       		.byte	0x91
 6278 0e33 6C       		.sleb128 -20
 6279 0e34 1C       		.uleb128 0x1c
 6280 0e35 C60A0000 		.4byte	.LASF121
 6281 0e39 01       		.byte	0x1
 6282 0e3a 7603     		.2byte	0x376
 6283 0e3c AF050000 		.4byte	0x5af
 6284 0e40 02       		.uleb128 0x2
 6285 0e41 91       		.byte	0x91
 6286 0e42 74       		.sleb128 -12
 6287 0e43 00       		.byte	0
 6288 0e44 1D       		.uleb128 0x1d
 6289 0e45 C40B0000 		.4byte	.LASF146
 6290 0e49 01       		.byte	0x1
 6291 0e4a 9903     		.2byte	0x399
 6292 0e4c AF050000 		.4byte	0x5af
 6293 0e50 00000000 		.4byte	.LFB53
 6294 0e54 38000000 		.4byte	.LFE53-.LFB53
 6295 0e58 01       		.uleb128 0x1
 6296 0e59 9C       		.byte	0x9c
 6297 0e5a 7D0E0000 		.4byte	0xe7d
 6298 0e5e 1B       		.uleb128 0x1b
 6299 0e5f 1B060000 		.4byte	.LASF129
 6300 0e63 01       		.byte	0x1
 6301 0e64 9903     		.2byte	0x399
 6302 0e66 220D0000 		.4byte	0xd22
 6303 0e6a 02       		.uleb128 0x2
 6304 0e6b 91       		.byte	0x91
 6305 0e6c 6C       		.sleb128 -20
 6306 0e6d 1C       		.uleb128 0x1c
 6307 0e6e C60A0000 		.4byte	.LASF121
 6308 0e72 01       		.byte	0x1
 6309 0e73 9B03     		.2byte	0x39b
 6310 0e75 AF050000 		.4byte	0x5af
 6311 0e79 02       		.uleb128 0x2
 6312 0e7a 91       		.byte	0x91
 6313 0e7b 74       		.sleb128 -12
 6314 0e7c 00       		.byte	0
 6315 0e7d 1A       		.uleb128 0x1a
 6316 0e7e 9F0B0000 		.4byte	.LASF147
 6317 0e82 01       		.byte	0x1
ARM GAS  C:\Users\salaz\AppData\Local\Temp\ccSSnxm1.s 			page 144


 6318 0e83 C703     		.2byte	0x3c7
 6319 0e85 AF050000 		.4byte	0x5af
 6320 0e89 00000000 		.4byte	.LFB54
 6321 0e8d 04010000 		.4byte	.LFE54-.LFB54
 6322 0e91 01       		.uleb128 0x1
 6323 0e92 9C       		.byte	0x9c
 6324 0e93 D40E0000 		.4byte	0xed4
 6325 0e97 1B       		.uleb128 0x1b
 6326 0e98 1B060000 		.4byte	.LASF129
 6327 0e9c 01       		.byte	0x1
 6328 0e9d C703     		.2byte	0x3c7
 6329 0e9f D40E0000 		.4byte	0xed4
 6330 0ea3 02       		.uleb128 0x2
 6331 0ea4 91       		.byte	0x91
 6332 0ea5 6C       		.sleb128 -20
 6333 0ea6 1B       		.uleb128 0x1b
 6334 0ea7 B8090000 		.4byte	.LASF130
 6335 0eab 01       		.byte	0x1
 6336 0eac C703     		.2byte	0x3c7
 6337 0eae DA0E0000 		.4byte	0xeda
 6338 0eb2 02       		.uleb128 0x2
 6339 0eb3 91       		.byte	0x91
 6340 0eb4 68       		.sleb128 -24
 6341 0eb5 1C       		.uleb128 0x1c
 6342 0eb6 C60A0000 		.4byte	.LASF121
 6343 0eba 01       		.byte	0x1
 6344 0ebb C903     		.2byte	0x3c9
 6345 0ebd AF050000 		.4byte	0x5af
 6346 0ec1 02       		.uleb128 0x2
 6347 0ec2 91       		.byte	0x91
 6348 0ec3 74       		.sleb128 -12
 6349 0ec4 1C       		.uleb128 0x1c
 6350 0ec5 E3090000 		.4byte	.LASF132
 6351 0ec9 01       		.byte	0x1
 6352 0eca CA03     		.2byte	0x3ca
 6353 0ecc A9000000 		.4byte	0xa9
 6354 0ed0 02       		.uleb128 0x2
 6355 0ed1 91       		.byte	0x91
 6356 0ed2 70       		.sleb128 -16
 6357 0ed3 00       		.byte	0
 6358 0ed4 15       		.uleb128 0x15
 6359 0ed5 04       		.byte	0x4
 6360 0ed6 F9010000 		.4byte	0x1f9
 6361 0eda 15       		.uleb128 0x15
 6362 0edb 04       		.byte	0x4
 6363 0edc E00E0000 		.4byte	0xee0
 6364 0ee0 06       		.uleb128 0x6
 6365 0ee1 6D080000 		.4byte	0x86d
 6366 0ee5 1A       		.uleb128 0x1a
 6367 0ee6 D9010000 		.4byte	.LASF148
 6368 0eea 01       		.byte	0x1
 6369 0eeb 1304     		.2byte	0x413
 6370 0eed AF050000 		.4byte	0x5af
 6371 0ef1 00000000 		.4byte	.LFB55
 6372 0ef5 24010000 		.4byte	.LFE55-.LFB55
 6373 0ef9 01       		.uleb128 0x1
 6374 0efa 9C       		.byte	0x9c
ARM GAS  C:\Users\salaz\AppData\Local\Temp\ccSSnxm1.s 			page 145


 6375 0efb 3C0F0000 		.4byte	0xf3c
 6376 0eff 1B       		.uleb128 0x1b
 6377 0f00 1B060000 		.4byte	.LASF129
 6378 0f04 01       		.byte	0x1
 6379 0f05 1304     		.2byte	0x413
 6380 0f07 D40E0000 		.4byte	0xed4
 6381 0f0b 02       		.uleb128 0x2
 6382 0f0c 91       		.byte	0x91
 6383 0f0d 6C       		.sleb128 -20
 6384 0f0e 1B       		.uleb128 0x1b
 6385 0f0f B8090000 		.4byte	.LASF130
 6386 0f13 01       		.byte	0x1
 6387 0f14 1304     		.2byte	0x413
 6388 0f16 DA0E0000 		.4byte	0xeda
 6389 0f1a 02       		.uleb128 0x2
 6390 0f1b 91       		.byte	0x91
 6391 0f1c 68       		.sleb128 -24
 6392 0f1d 1C       		.uleb128 0x1c
 6393 0f1e C60A0000 		.4byte	.LASF121
 6394 0f22 01       		.byte	0x1
 6395 0f23 1504     		.2byte	0x415
 6396 0f25 AF050000 		.4byte	0x5af
 6397 0f29 02       		.uleb128 0x2
 6398 0f2a 91       		.byte	0x91
 6399 0f2b 74       		.sleb128 -12
 6400 0f2c 1C       		.uleb128 0x1c
 6401 0f2d E3090000 		.4byte	.LASF132
 6402 0f31 01       		.byte	0x1
 6403 0f32 1604     		.2byte	0x416
 6404 0f34 A9000000 		.4byte	0xa9
 6405 0f38 02       		.uleb128 0x2
 6406 0f39 91       		.byte	0x91
 6407 0f3a 70       		.sleb128 -16
 6408 0f3b 00       		.byte	0
 6409 0f3c 1D       		.uleb128 0x1d
 6410 0f3d B4020000 		.4byte	.LASF149
 6411 0f41 01       		.byte	0x1
 6412 0f42 5104     		.2byte	0x451
 6413 0f44 AF050000 		.4byte	0x5af
 6414 0f48 00000000 		.4byte	.LFB56
 6415 0f4c 3C000000 		.4byte	.LFE56-.LFB56
 6416 0f50 01       		.uleb128 0x1
 6417 0f51 9C       		.byte	0x9c
 6418 0f52 750F0000 		.4byte	0xf75
 6419 0f56 1B       		.uleb128 0x1b
 6420 0f57 1B060000 		.4byte	.LASF129
 6421 0f5b 01       		.byte	0x1
 6422 0f5c 5104     		.2byte	0x451
 6423 0f5e D40E0000 		.4byte	0xed4
 6424 0f62 02       		.uleb128 0x2
 6425 0f63 91       		.byte	0x91
 6426 0f64 6C       		.sleb128 -20
 6427 0f65 1C       		.uleb128 0x1c
 6428 0f66 C60A0000 		.4byte	.LASF121
 6429 0f6a 01       		.byte	0x1
 6430 0f6b 5304     		.2byte	0x453
 6431 0f6d AF050000 		.4byte	0x5af
ARM GAS  C:\Users\salaz\AppData\Local\Temp\ccSSnxm1.s 			page 146


 6432 0f71 02       		.uleb128 0x2
 6433 0f72 91       		.byte	0x91
 6434 0f73 74       		.sleb128 -12
 6435 0f74 00       		.byte	0
 6436 0f75 1D       		.uleb128 0x1d
 6437 0f76 080A0000 		.4byte	.LASF150
 6438 0f7a 01       		.byte	0x1
 6439 0f7b 7604     		.2byte	0x476
 6440 0f7d AF050000 		.4byte	0x5af
 6441 0f81 00000000 		.4byte	.LFB57
 6442 0f85 38000000 		.4byte	.LFE57-.LFB57
 6443 0f89 01       		.uleb128 0x1
 6444 0f8a 9C       		.byte	0x9c
 6445 0f8b AE0F0000 		.4byte	0xfae
 6446 0f8f 1B       		.uleb128 0x1b
 6447 0f90 1B060000 		.4byte	.LASF129
 6448 0f94 01       		.byte	0x1
 6449 0f95 7604     		.2byte	0x476
 6450 0f97 D40E0000 		.4byte	0xed4
 6451 0f9b 02       		.uleb128 0x2
 6452 0f9c 91       		.byte	0x91
 6453 0f9d 6C       		.sleb128 -20
 6454 0f9e 1C       		.uleb128 0x1c
 6455 0f9f C60A0000 		.4byte	.LASF121
 6456 0fa3 01       		.byte	0x1
 6457 0fa4 7804     		.2byte	0x478
 6458 0fa6 AF050000 		.4byte	0x5af
 6459 0faa 02       		.uleb128 0x2
 6460 0fab 91       		.byte	0x91
 6461 0fac 74       		.sleb128 -12
 6462 0fad 00       		.byte	0
 6463 0fae 1D       		.uleb128 0x1d
 6464 0faf 2F070000 		.4byte	.LASF151
 6465 0fb3 01       		.byte	0x1
 6466 0fb4 9A04     		.2byte	0x49a
 6467 0fb6 AF050000 		.4byte	0x5af
 6468 0fba 00000000 		.4byte	.LFB58
 6469 0fbe 3C000000 		.4byte	.LFE58-.LFB58
 6470 0fc2 01       		.uleb128 0x1
 6471 0fc3 9C       		.byte	0x9c
 6472 0fc4 E70F0000 		.4byte	0xfe7
 6473 0fc8 1B       		.uleb128 0x1b
 6474 0fc9 1B060000 		.4byte	.LASF129
 6475 0fcd 01       		.byte	0x1
 6476 0fce 9A04     		.2byte	0x49a
 6477 0fd0 D40E0000 		.4byte	0xed4
 6478 0fd4 02       		.uleb128 0x2
 6479 0fd5 91       		.byte	0x91
 6480 0fd6 6C       		.sleb128 -20
 6481 0fd7 1C       		.uleb128 0x1c
 6482 0fd8 C60A0000 		.4byte	.LASF121
 6483 0fdc 01       		.byte	0x1
 6484 0fdd 9C04     		.2byte	0x49c
 6485 0fdf AF050000 		.4byte	0x5af
 6486 0fe3 02       		.uleb128 0x2
 6487 0fe4 91       		.byte	0x91
 6488 0fe5 74       		.sleb128 -12
ARM GAS  C:\Users\salaz\AppData\Local\Temp\ccSSnxm1.s 			page 147


 6489 0fe6 00       		.byte	0
 6490 0fe7 1D       		.uleb128 0x1d
 6491 0fe8 0B090000 		.4byte	.LASF152
 6492 0fec 01       		.byte	0x1
 6493 0fed BF04     		.2byte	0x4bf
 6494 0fef AF050000 		.4byte	0x5af
 6495 0ff3 00000000 		.4byte	.LFB59
 6496 0ff7 38000000 		.4byte	.LFE59-.LFB59
 6497 0ffb 01       		.uleb128 0x1
 6498 0ffc 9C       		.byte	0x9c
 6499 0ffd 20100000 		.4byte	0x1020
 6500 1001 1B       		.uleb128 0x1b
 6501 1002 1B060000 		.4byte	.LASF129
 6502 1006 01       		.byte	0x1
 6503 1007 BF04     		.2byte	0x4bf
 6504 1009 D40E0000 		.4byte	0xed4
 6505 100d 02       		.uleb128 0x2
 6506 100e 91       		.byte	0x91
 6507 100f 6C       		.sleb128 -20
 6508 1010 1C       		.uleb128 0x1c
 6509 1011 C60A0000 		.4byte	.LASF121
 6510 1015 01       		.byte	0x1
 6511 1016 C104     		.2byte	0x4c1
 6512 1018 AF050000 		.4byte	0x5af
 6513 101c 02       		.uleb128 0x2
 6514 101d 91       		.byte	0x91
 6515 101e 74       		.sleb128 -12
 6516 101f 00       		.byte	0
 6517 1020 1A       		.uleb128 0x1a
 6518 1021 FD0B0000 		.4byte	.LASF153
 6519 1025 01       		.byte	0x1
 6520 1026 ED04     		.2byte	0x4ed
 6521 1028 AF050000 		.4byte	0x5af
 6522 102c 00000000 		.4byte	.LFB60
 6523 1030 04010000 		.4byte	.LFE60-.LFB60
 6524 1034 01       		.uleb128 0x1
 6525 1035 9C       		.byte	0x9c
 6526 1036 77100000 		.4byte	0x1077
 6527 103a 1B       		.uleb128 0x1b
 6528 103b 1B060000 		.4byte	.LASF129
 6529 103f 01       		.byte	0x1
 6530 1040 ED04     		.2byte	0x4ed
 6531 1042 77100000 		.4byte	0x1077
 6532 1046 02       		.uleb128 0x2
 6533 1047 91       		.byte	0x91
 6534 1048 6C       		.sleb128 -20
 6535 1049 1B       		.uleb128 0x1b
 6536 104a B8090000 		.4byte	.LASF130
 6537 104e 01       		.byte	0x1
 6538 104f ED04     		.2byte	0x4ed
 6539 1051 7D100000 		.4byte	0x107d
 6540 1055 02       		.uleb128 0x2
 6541 1056 91       		.byte	0x91
 6542 1057 68       		.sleb128 -24
 6543 1058 1C       		.uleb128 0x1c
 6544 1059 C60A0000 		.4byte	.LASF121
 6545 105d 01       		.byte	0x1
ARM GAS  C:\Users\salaz\AppData\Local\Temp\ccSSnxm1.s 			page 148


 6546 105e EF04     		.2byte	0x4ef
 6547 1060 AF050000 		.4byte	0x5af
 6548 1064 02       		.uleb128 0x2
 6549 1065 91       		.byte	0x91
 6550 1066 74       		.sleb128 -12
 6551 1067 1C       		.uleb128 0x1c
 6552 1068 E3090000 		.4byte	.LASF132
 6553 106c 01       		.byte	0x1
 6554 106d F004     		.2byte	0x4f0
 6555 106f A9000000 		.4byte	0xa9
 6556 1073 02       		.uleb128 0x2
 6557 1074 91       		.byte	0x91
 6558 1075 70       		.sleb128 -16
 6559 1076 00       		.byte	0
 6560 1077 15       		.uleb128 0x15
 6561 1078 04       		.byte	0x4
 6562 1079 69020000 		.4byte	0x269
 6563 107d 15       		.uleb128 0x15
 6564 107e 04       		.byte	0x4
 6565 107f 83100000 		.4byte	0x1083
 6566 1083 06       		.uleb128 0x6
 6567 1084 C4080000 		.4byte	0x8c4
 6568 1088 1A       		.uleb128 0x1a
 6569 1089 C4080000 		.4byte	.LASF154
 6570 108d 01       		.byte	0x1
 6571 108e 3805     		.2byte	0x538
 6572 1090 AF050000 		.4byte	0x5af
 6573 1094 00000000 		.4byte	.LFB61
 6574 1098 24010000 		.4byte	.LFE61-.LFB61
 6575 109c 01       		.uleb128 0x1
 6576 109d 9C       		.byte	0x9c
 6577 109e DF100000 		.4byte	0x10df
 6578 10a2 1B       		.uleb128 0x1b
 6579 10a3 1B060000 		.4byte	.LASF129
 6580 10a7 01       		.byte	0x1
 6581 10a8 3805     		.2byte	0x538
 6582 10aa 77100000 		.4byte	0x1077
 6583 10ae 02       		.uleb128 0x2
 6584 10af 91       		.byte	0x91
 6585 10b0 6C       		.sleb128 -20
 6586 10b1 1B       		.uleb128 0x1b
 6587 10b2 B8090000 		.4byte	.LASF130
 6588 10b6 01       		.byte	0x1
 6589 10b7 3805     		.2byte	0x538
 6590 10b9 7D100000 		.4byte	0x107d
 6591 10bd 02       		.uleb128 0x2
 6592 10be 91       		.byte	0x91
 6593 10bf 68       		.sleb128 -24
 6594 10c0 1C       		.uleb128 0x1c
 6595 10c1 C60A0000 		.4byte	.LASF121
 6596 10c5 01       		.byte	0x1
 6597 10c6 3A05     		.2byte	0x53a
 6598 10c8 AF050000 		.4byte	0x5af
 6599 10cc 02       		.uleb128 0x2
 6600 10cd 91       		.byte	0x91
 6601 10ce 74       		.sleb128 -12
 6602 10cf 1C       		.uleb128 0x1c
ARM GAS  C:\Users\salaz\AppData\Local\Temp\ccSSnxm1.s 			page 149


 6603 10d0 E3090000 		.4byte	.LASF132
 6604 10d4 01       		.byte	0x1
 6605 10d5 3B05     		.2byte	0x53b
 6606 10d7 A9000000 		.4byte	0xa9
 6607 10db 02       		.uleb128 0x2
 6608 10dc 91       		.byte	0x91
 6609 10dd 70       		.sleb128 -16
 6610 10de 00       		.byte	0
 6611 10df 1D       		.uleb128 0x1d
 6612 10e0 A3050000 		.4byte	.LASF155
 6613 10e4 01       		.byte	0x1
 6614 10e5 7705     		.2byte	0x577
 6615 10e7 AF050000 		.4byte	0x5af
 6616 10eb 00000000 		.4byte	.LFB62
 6617 10ef 3C000000 		.4byte	.LFE62-.LFB62
 6618 10f3 01       		.uleb128 0x1
 6619 10f4 9C       		.byte	0x9c
 6620 10f5 18110000 		.4byte	0x1118
 6621 10f9 1B       		.uleb128 0x1b
 6622 10fa 1B060000 		.4byte	.LASF129
 6623 10fe 01       		.byte	0x1
 6624 10ff 7705     		.2byte	0x577
 6625 1101 77100000 		.4byte	0x1077
 6626 1105 02       		.uleb128 0x2
 6627 1106 91       		.byte	0x91
 6628 1107 6C       		.sleb128 -20
 6629 1108 1C       		.uleb128 0x1c
 6630 1109 C60A0000 		.4byte	.LASF121
 6631 110d 01       		.byte	0x1
 6632 110e 7905     		.2byte	0x579
 6633 1110 AF050000 		.4byte	0x5af
 6634 1114 02       		.uleb128 0x2
 6635 1115 91       		.byte	0x91
 6636 1116 74       		.sleb128 -12
 6637 1117 00       		.byte	0
 6638 1118 1D       		.uleb128 0x1d
 6639 1119 FC020000 		.4byte	.LASF156
 6640 111d 01       		.byte	0x1
 6641 111e 9C05     		.2byte	0x59c
 6642 1120 AF050000 		.4byte	0x5af
 6643 1124 00000000 		.4byte	.LFB63
 6644 1128 38000000 		.4byte	.LFE63-.LFB63
 6645 112c 01       		.uleb128 0x1
 6646 112d 9C       		.byte	0x9c
 6647 112e 51110000 		.4byte	0x1151
 6648 1132 1B       		.uleb128 0x1b
 6649 1133 1B060000 		.4byte	.LASF129
 6650 1137 01       		.byte	0x1
 6651 1138 9C05     		.2byte	0x59c
 6652 113a 77100000 		.4byte	0x1077
 6653 113e 02       		.uleb128 0x2
 6654 113f 91       		.byte	0x91
 6655 1140 6C       		.sleb128 -20
 6656 1141 1C       		.uleb128 0x1c
 6657 1142 C60A0000 		.4byte	.LASF121
 6658 1146 01       		.byte	0x1
 6659 1147 9E05     		.2byte	0x59e
ARM GAS  C:\Users\salaz\AppData\Local\Temp\ccSSnxm1.s 			page 150


 6660 1149 AF050000 		.4byte	0x5af
 6661 114d 02       		.uleb128 0x2
 6662 114e 91       		.byte	0x91
 6663 114f 74       		.sleb128 -12
 6664 1150 00       		.byte	0
 6665 1151 1D       		.uleb128 0x1d
 6666 1152 0E020000 		.4byte	.LASF157
 6667 1156 01       		.byte	0x1
 6668 1157 C005     		.2byte	0x5c0
 6669 1159 AF050000 		.4byte	0x5af
 6670 115d 00000000 		.4byte	.LFB64
 6671 1161 3C000000 		.4byte	.LFE64-.LFB64
 6672 1165 01       		.uleb128 0x1
 6673 1166 9C       		.byte	0x9c
 6674 1167 8A110000 		.4byte	0x118a
 6675 116b 1B       		.uleb128 0x1b
 6676 116c 1B060000 		.4byte	.LASF129
 6677 1170 01       		.byte	0x1
 6678 1171 C005     		.2byte	0x5c0
 6679 1173 77100000 		.4byte	0x1077
 6680 1177 02       		.uleb128 0x2
 6681 1178 91       		.byte	0x91
 6682 1179 6C       		.sleb128 -20
 6683 117a 1C       		.uleb128 0x1c
 6684 117b C60A0000 		.4byte	.LASF121
 6685 117f 01       		.byte	0x1
 6686 1180 C205     		.2byte	0x5c2
 6687 1182 AF050000 		.4byte	0x5af
 6688 1186 02       		.uleb128 0x2
 6689 1187 91       		.byte	0x91
 6690 1188 74       		.sleb128 -12
 6691 1189 00       		.byte	0
 6692 118a 1D       		.uleb128 0x1d
 6693 118b 22030000 		.4byte	.LASF158
 6694 118f 01       		.byte	0x1
 6695 1190 E505     		.2byte	0x5e5
 6696 1192 AF050000 		.4byte	0x5af
 6697 1196 00000000 		.4byte	.LFB65
 6698 119a 38000000 		.4byte	.LFE65-.LFB65
 6699 119e 01       		.uleb128 0x1
 6700 119f 9C       		.byte	0x9c
 6701 11a0 C3110000 		.4byte	0x11c3
 6702 11a4 1B       		.uleb128 0x1b
 6703 11a5 1B060000 		.4byte	.LASF129
 6704 11a9 01       		.byte	0x1
 6705 11aa E505     		.2byte	0x5e5
 6706 11ac 77100000 		.4byte	0x1077
 6707 11b0 02       		.uleb128 0x2
 6708 11b1 91       		.byte	0x91
 6709 11b2 6C       		.sleb128 -20
 6710 11b3 1C       		.uleb128 0x1c
 6711 11b4 C60A0000 		.4byte	.LASF121
 6712 11b8 01       		.byte	0x1
 6713 11b9 E705     		.2byte	0x5e7
 6714 11bb AF050000 		.4byte	0x5af
 6715 11bf 02       		.uleb128 0x2
 6716 11c0 91       		.byte	0x91
ARM GAS  C:\Users\salaz\AppData\Local\Temp\ccSSnxm1.s 			page 151


 6717 11c1 74       		.sleb128 -12
 6718 11c2 00       		.byte	0
 6719 11c3 1A       		.uleb128 0x1a
 6720 11c4 71090000 		.4byte	.LASF159
 6721 11c8 01       		.byte	0x1
 6722 11c9 1306     		.2byte	0x613
 6723 11cb AF050000 		.4byte	0x5af
 6724 11cf 00000000 		.4byte	.LFB66
 6725 11d3 04010000 		.4byte	.LFE66-.LFB66
 6726 11d7 01       		.uleb128 0x1
 6727 11d8 9C       		.byte	0x9c
 6728 11d9 1A120000 		.4byte	0x121a
 6729 11dd 1B       		.uleb128 0x1b
 6730 11de 1B060000 		.4byte	.LASF129
 6731 11e2 01       		.byte	0x1
 6732 11e3 1306     		.2byte	0x613
 6733 11e5 1A120000 		.4byte	0x121a
 6734 11e9 02       		.uleb128 0x2
 6735 11ea 91       		.byte	0x91
 6736 11eb 6C       		.sleb128 -20
 6737 11ec 1B       		.uleb128 0x1b
 6738 11ed B8090000 		.4byte	.LASF130
 6739 11f1 01       		.byte	0x1
 6740 11f2 1306     		.2byte	0x613
 6741 11f4 20120000 		.4byte	0x1220
 6742 11f8 02       		.uleb128 0x2
 6743 11f9 91       		.byte	0x91
 6744 11fa 68       		.sleb128 -24
 6745 11fb 1C       		.uleb128 0x1c
 6746 11fc C60A0000 		.4byte	.LASF121
 6747 1200 01       		.byte	0x1
 6748 1201 1506     		.2byte	0x615
 6749 1203 AF050000 		.4byte	0x5af
 6750 1207 02       		.uleb128 0x2
 6751 1208 91       		.byte	0x91
 6752 1209 74       		.sleb128 -12
 6753 120a 1C       		.uleb128 0x1c
 6754 120b E3090000 		.4byte	.LASF132
 6755 120f 01       		.byte	0x1
 6756 1210 1606     		.2byte	0x616
 6757 1212 A9000000 		.4byte	0xa9
 6758 1216 02       		.uleb128 0x2
 6759 1217 91       		.byte	0x91
 6760 1218 70       		.sleb128 -16
 6761 1219 00       		.byte	0
 6762 121a 15       		.uleb128 0x15
 6763 121b 04       		.byte	0x4
 6764 121c D9020000 		.4byte	0x2d9
 6765 1220 15       		.uleb128 0x15
 6766 1221 04       		.byte	0x4
 6767 1222 26120000 		.4byte	0x1226
 6768 1226 06       		.uleb128 0x6
 6769 1227 1B090000 		.4byte	0x91b
 6770 122b 1A       		.uleb128 0x1a
 6771 122c 0F080000 		.4byte	.LASF160
 6772 1230 01       		.byte	0x1
 6773 1231 5E06     		.2byte	0x65e
ARM GAS  C:\Users\salaz\AppData\Local\Temp\ccSSnxm1.s 			page 152


 6774 1233 AF050000 		.4byte	0x5af
 6775 1237 00000000 		.4byte	.LFB67
 6776 123b 24010000 		.4byte	.LFE67-.LFB67
 6777 123f 01       		.uleb128 0x1
 6778 1240 9C       		.byte	0x9c
 6779 1241 82120000 		.4byte	0x1282
 6780 1245 1B       		.uleb128 0x1b
 6781 1246 1B060000 		.4byte	.LASF129
 6782 124a 01       		.byte	0x1
 6783 124b 5E06     		.2byte	0x65e
 6784 124d 1A120000 		.4byte	0x121a
 6785 1251 02       		.uleb128 0x2
 6786 1252 91       		.byte	0x91
 6787 1253 6C       		.sleb128 -20
 6788 1254 1B       		.uleb128 0x1b
 6789 1255 B8090000 		.4byte	.LASF130
 6790 1259 01       		.byte	0x1
 6791 125a 5E06     		.2byte	0x65e
 6792 125c 20120000 		.4byte	0x1220
 6793 1260 02       		.uleb128 0x2
 6794 1261 91       		.byte	0x91
 6795 1262 68       		.sleb128 -24
 6796 1263 1C       		.uleb128 0x1c
 6797 1264 C60A0000 		.4byte	.LASF121
 6798 1268 01       		.byte	0x1
 6799 1269 6006     		.2byte	0x660
 6800 126b AF050000 		.4byte	0x5af
 6801 126f 02       		.uleb128 0x2
 6802 1270 91       		.byte	0x91
 6803 1271 74       		.sleb128 -12
 6804 1272 1C       		.uleb128 0x1c
 6805 1273 E3090000 		.4byte	.LASF132
 6806 1277 01       		.byte	0x1
 6807 1278 6106     		.2byte	0x661
 6808 127a A9000000 		.4byte	0xa9
 6809 127e 02       		.uleb128 0x2
 6810 127f 91       		.byte	0x91
 6811 1280 70       		.sleb128 -16
 6812 1281 00       		.byte	0
 6813 1282 1D       		.uleb128 0x1d
 6814 1283 76000000 		.4byte	.LASF161
 6815 1287 01       		.byte	0x1
 6816 1288 9D06     		.2byte	0x69d
 6817 128a AF050000 		.4byte	0x5af
 6818 128e 00000000 		.4byte	.LFB68
 6819 1292 3C000000 		.4byte	.LFE68-.LFB68
 6820 1296 01       		.uleb128 0x1
 6821 1297 9C       		.byte	0x9c
 6822 1298 BB120000 		.4byte	0x12bb
 6823 129c 1B       		.uleb128 0x1b
 6824 129d 1B060000 		.4byte	.LASF129
 6825 12a1 01       		.byte	0x1
 6826 12a2 9D06     		.2byte	0x69d
 6827 12a4 1A120000 		.4byte	0x121a
 6828 12a8 02       		.uleb128 0x2
 6829 12a9 91       		.byte	0x91
 6830 12aa 6C       		.sleb128 -20
ARM GAS  C:\Users\salaz\AppData\Local\Temp\ccSSnxm1.s 			page 153


 6831 12ab 1C       		.uleb128 0x1c
 6832 12ac C60A0000 		.4byte	.LASF121
 6833 12b0 01       		.byte	0x1
 6834 12b1 9F06     		.2byte	0x69f
 6835 12b3 AF050000 		.4byte	0x5af
 6836 12b7 02       		.uleb128 0x2
 6837 12b8 91       		.byte	0x91
 6838 12b9 74       		.sleb128 -12
 6839 12ba 00       		.byte	0
 6840 12bb 1D       		.uleb128 0x1d
 6841 12bc D2000000 		.4byte	.LASF162
 6842 12c0 01       		.byte	0x1
 6843 12c1 C206     		.2byte	0x6c2
 6844 12c3 AF050000 		.4byte	0x5af
 6845 12c7 00000000 		.4byte	.LFB69
 6846 12cb 38000000 		.4byte	.LFE69-.LFB69
 6847 12cf 01       		.uleb128 0x1
 6848 12d0 9C       		.byte	0x9c
 6849 12d1 F4120000 		.4byte	0x12f4
 6850 12d5 1B       		.uleb128 0x1b
 6851 12d6 1B060000 		.4byte	.LASF129
 6852 12da 01       		.byte	0x1
 6853 12db C206     		.2byte	0x6c2
 6854 12dd 1A120000 		.4byte	0x121a
 6855 12e1 02       		.uleb128 0x2
 6856 12e2 91       		.byte	0x91
 6857 12e3 6C       		.sleb128 -20
 6858 12e4 1C       		.uleb128 0x1c
 6859 12e5 C60A0000 		.4byte	.LASF121
 6860 12e9 01       		.byte	0x1
 6861 12ea C406     		.2byte	0x6c4
 6862 12ec AF050000 		.4byte	0x5af
 6863 12f0 02       		.uleb128 0x2
 6864 12f1 91       		.byte	0x91
 6865 12f2 74       		.sleb128 -12
 6866 12f3 00       		.byte	0
 6867 12f4 1D       		.uleb128 0x1d
 6868 12f5 C5040000 		.4byte	.LASF163
 6869 12f9 01       		.byte	0x1
 6870 12fa E606     		.2byte	0x6e6
 6871 12fc AF050000 		.4byte	0x5af
 6872 1300 00000000 		.4byte	.LFB70
 6873 1304 3C000000 		.4byte	.LFE70-.LFB70
 6874 1308 01       		.uleb128 0x1
 6875 1309 9C       		.byte	0x9c
 6876 130a 2D130000 		.4byte	0x132d
 6877 130e 1B       		.uleb128 0x1b
 6878 130f 1B060000 		.4byte	.LASF129
 6879 1313 01       		.byte	0x1
 6880 1314 E606     		.2byte	0x6e6
 6881 1316 1A120000 		.4byte	0x121a
 6882 131a 02       		.uleb128 0x2
 6883 131b 91       		.byte	0x91
 6884 131c 6C       		.sleb128 -20
 6885 131d 1C       		.uleb128 0x1c
 6886 131e C60A0000 		.4byte	.LASF121
 6887 1322 01       		.byte	0x1
ARM GAS  C:\Users\salaz\AppData\Local\Temp\ccSSnxm1.s 			page 154


 6888 1323 E806     		.2byte	0x6e8
 6889 1325 AF050000 		.4byte	0x5af
 6890 1329 02       		.uleb128 0x2
 6891 132a 91       		.byte	0x91
 6892 132b 74       		.sleb128 -12
 6893 132c 00       		.byte	0
 6894 132d 1E       		.uleb128 0x1e
 6895 132e 5D030000 		.4byte	.LASF167
 6896 1332 01       		.byte	0x1
 6897 1333 0B07     		.2byte	0x70b
 6898 1335 AF050000 		.4byte	0x5af
 6899 1339 00000000 		.4byte	.LFB71
 6900 133d 38000000 		.4byte	.LFE71-.LFB71
 6901 1341 01       		.uleb128 0x1
 6902 1342 9C       		.byte	0x9c
 6903 1343 1B       		.uleb128 0x1b
 6904 1344 1B060000 		.4byte	.LASF129
 6905 1348 01       		.byte	0x1
 6906 1349 0B07     		.2byte	0x70b
 6907 134b 1A120000 		.4byte	0x121a
 6908 134f 02       		.uleb128 0x2
 6909 1350 91       		.byte	0x91
 6910 1351 6C       		.sleb128 -20
 6911 1352 1C       		.uleb128 0x1c
 6912 1353 C60A0000 		.4byte	.LASF121
 6913 1357 01       		.byte	0x1
 6914 1358 0D07     		.2byte	0x70d
 6915 135a AF050000 		.4byte	0x5af
 6916 135e 02       		.uleb128 0x2
 6917 135f 91       		.byte	0x91
 6918 1360 74       		.sleb128 -12
 6919 1361 00       		.byte	0
 6920 1362 00       		.byte	0
 6921              		.section	.debug_abbrev,"",%progbits
 6922              	.Ldebug_abbrev0:
 6923 0000 01       		.uleb128 0x1
 6924 0001 11       		.uleb128 0x11
 6925 0002 01       		.byte	0x1
 6926 0003 25       		.uleb128 0x25
 6927 0004 0E       		.uleb128 0xe
 6928 0005 13       		.uleb128 0x13
 6929 0006 0B       		.uleb128 0xb
 6930 0007 03       		.uleb128 0x3
 6931 0008 0E       		.uleb128 0xe
 6932 0009 1B       		.uleb128 0x1b
 6933 000a 0E       		.uleb128 0xe
 6934 000b 55       		.uleb128 0x55
 6935 000c 17       		.uleb128 0x17
 6936 000d 11       		.uleb128 0x11
 6937 000e 01       		.uleb128 0x1
 6938 000f 10       		.uleb128 0x10
 6939 0010 17       		.uleb128 0x17
 6940 0011 00       		.byte	0
 6941 0012 00       		.byte	0
 6942 0013 02       		.uleb128 0x2
 6943 0014 24       		.uleb128 0x24
 6944 0015 00       		.byte	0
ARM GAS  C:\Users\salaz\AppData\Local\Temp\ccSSnxm1.s 			page 155


 6945 0016 0B       		.uleb128 0xb
 6946 0017 0B       		.uleb128 0xb
 6947 0018 3E       		.uleb128 0x3e
 6948 0019 0B       		.uleb128 0xb
 6949 001a 03       		.uleb128 0x3
 6950 001b 08       		.uleb128 0x8
 6951 001c 00       		.byte	0
 6952 001d 00       		.byte	0
 6953 001e 03       		.uleb128 0x3
 6954 001f 24       		.uleb128 0x24
 6955 0020 00       		.byte	0
 6956 0021 0B       		.uleb128 0xb
 6957 0022 0B       		.uleb128 0xb
 6958 0023 3E       		.uleb128 0x3e
 6959 0024 0B       		.uleb128 0xb
 6960 0025 03       		.uleb128 0x3
 6961 0026 0E       		.uleb128 0xe
 6962 0027 00       		.byte	0
 6963 0028 00       		.byte	0
 6964 0029 04       		.uleb128 0x4
 6965 002a 16       		.uleb128 0x16
 6966 002b 00       		.byte	0
 6967 002c 03       		.uleb128 0x3
 6968 002d 0E       		.uleb128 0xe
 6969 002e 3A       		.uleb128 0x3a
 6970 002f 0B       		.uleb128 0xb
 6971 0030 3B       		.uleb128 0x3b
 6972 0031 0B       		.uleb128 0xb
 6973 0032 49       		.uleb128 0x49
 6974 0033 13       		.uleb128 0x13
 6975 0034 00       		.byte	0
 6976 0035 00       		.byte	0
 6977 0036 05       		.uleb128 0x5
 6978 0037 35       		.uleb128 0x35
 6979 0038 00       		.byte	0
 6980 0039 49       		.uleb128 0x49
 6981 003a 13       		.uleb128 0x13
 6982 003b 00       		.byte	0
 6983 003c 00       		.byte	0
 6984 003d 06       		.uleb128 0x6
 6985 003e 26       		.uleb128 0x26
 6986 003f 00       		.byte	0
 6987 0040 49       		.uleb128 0x49
 6988 0041 13       		.uleb128 0x13
 6989 0042 00       		.byte	0
 6990 0043 00       		.byte	0
 6991 0044 07       		.uleb128 0x7
 6992 0045 04       		.uleb128 0x4
 6993 0046 01       		.byte	0x1
 6994 0047 0B       		.uleb128 0xb
 6995 0048 0B       		.uleb128 0xb
 6996 0049 49       		.uleb128 0x49
 6997 004a 13       		.uleb128 0x13
 6998 004b 3A       		.uleb128 0x3a
 6999 004c 0B       		.uleb128 0xb
 7000 004d 3B       		.uleb128 0x3b
 7001 004e 05       		.uleb128 0x5
ARM GAS  C:\Users\salaz\AppData\Local\Temp\ccSSnxm1.s 			page 156


 7002 004f 01       		.uleb128 0x1
 7003 0050 13       		.uleb128 0x13
 7004 0051 00       		.byte	0
 7005 0052 00       		.byte	0
 7006 0053 08       		.uleb128 0x8
 7007 0054 28       		.uleb128 0x28
 7008 0055 00       		.byte	0
 7009 0056 03       		.uleb128 0x3
 7010 0057 0E       		.uleb128 0xe
 7011 0058 1C       		.uleb128 0x1c
 7012 0059 0B       		.uleb128 0xb
 7013 005a 00       		.byte	0
 7014 005b 00       		.byte	0
 7015 005c 09       		.uleb128 0x9
 7016 005d 16       		.uleb128 0x16
 7017 005e 00       		.byte	0
 7018 005f 03       		.uleb128 0x3
 7019 0060 0E       		.uleb128 0xe
 7020 0061 3A       		.uleb128 0x3a
 7021 0062 0B       		.uleb128 0xb
 7022 0063 3B       		.uleb128 0x3b
 7023 0064 05       		.uleb128 0x5
 7024 0065 49       		.uleb128 0x49
 7025 0066 13       		.uleb128 0x13
 7026 0067 00       		.byte	0
 7027 0068 00       		.byte	0
 7028 0069 0A       		.uleb128 0xa
 7029 006a 01       		.uleb128 0x1
 7030 006b 01       		.byte	0x1
 7031 006c 49       		.uleb128 0x49
 7032 006d 13       		.uleb128 0x13
 7033 006e 01       		.uleb128 0x1
 7034 006f 13       		.uleb128 0x13
 7035 0070 00       		.byte	0
 7036 0071 00       		.byte	0
 7037 0072 0B       		.uleb128 0xb
 7038 0073 21       		.uleb128 0x21
 7039 0074 00       		.byte	0
 7040 0075 49       		.uleb128 0x49
 7041 0076 13       		.uleb128 0x13
 7042 0077 2F       		.uleb128 0x2f
 7043 0078 05       		.uleb128 0x5
 7044 0079 00       		.byte	0
 7045 007a 00       		.byte	0
 7046 007b 0C       		.uleb128 0xc
 7047 007c 21       		.uleb128 0x21
 7048 007d 00       		.byte	0
 7049 007e 49       		.uleb128 0x49
 7050 007f 13       		.uleb128 0x13
 7051 0080 2F       		.uleb128 0x2f
 7052 0081 0B       		.uleb128 0xb
 7053 0082 00       		.byte	0
 7054 0083 00       		.byte	0
 7055 0084 0D       		.uleb128 0xd
 7056 0085 13       		.uleb128 0x13
 7057 0086 01       		.byte	0x1
 7058 0087 0B       		.uleb128 0xb
ARM GAS  C:\Users\salaz\AppData\Local\Temp\ccSSnxm1.s 			page 157


 7059 0088 0B       		.uleb128 0xb
 7060 0089 3A       		.uleb128 0x3a
 7061 008a 0B       		.uleb128 0xb
 7062 008b 3B       		.uleb128 0x3b
 7063 008c 0B       		.uleb128 0xb
 7064 008d 01       		.uleb128 0x1
 7065 008e 13       		.uleb128 0x13
 7066 008f 00       		.byte	0
 7067 0090 00       		.byte	0
 7068 0091 0E       		.uleb128 0xe
 7069 0092 0D       		.uleb128 0xd
 7070 0093 00       		.byte	0
 7071 0094 03       		.uleb128 0x3
 7072 0095 0E       		.uleb128 0xe
 7073 0096 3A       		.uleb128 0x3a
 7074 0097 0B       		.uleb128 0xb
 7075 0098 3B       		.uleb128 0x3b
 7076 0099 0B       		.uleb128 0xb
 7077 009a 49       		.uleb128 0x49
 7078 009b 13       		.uleb128 0x13
 7079 009c 38       		.uleb128 0x38
 7080 009d 0B       		.uleb128 0xb
 7081 009e 00       		.byte	0
 7082 009f 00       		.byte	0
 7083 00a0 0F       		.uleb128 0xf
 7084 00a1 13       		.uleb128 0x13
 7085 00a2 01       		.byte	0x1
 7086 00a3 0B       		.uleb128 0xb
 7087 00a4 05       		.uleb128 0x5
 7088 00a5 3A       		.uleb128 0x3a
 7089 00a6 0B       		.uleb128 0xb
 7090 00a7 3B       		.uleb128 0x3b
 7091 00a8 0B       		.uleb128 0xb
 7092 00a9 01       		.uleb128 0x1
 7093 00aa 13       		.uleb128 0x13
 7094 00ab 00       		.byte	0
 7095 00ac 00       		.byte	0
 7096 00ad 10       		.uleb128 0x10
 7097 00ae 0D       		.uleb128 0xd
 7098 00af 00       		.byte	0
 7099 00b0 03       		.uleb128 0x3
 7100 00b1 0E       		.uleb128 0xe
 7101 00b2 3A       		.uleb128 0x3a
 7102 00b3 0B       		.uleb128 0xb
 7103 00b4 3B       		.uleb128 0x3b
 7104 00b5 0B       		.uleb128 0xb
 7105 00b6 49       		.uleb128 0x49
 7106 00b7 13       		.uleb128 0x13
 7107 00b8 38       		.uleb128 0x38
 7108 00b9 05       		.uleb128 0x5
 7109 00ba 00       		.byte	0
 7110 00bb 00       		.byte	0
 7111 00bc 11       		.uleb128 0x11
 7112 00bd 0D       		.uleb128 0xd
 7113 00be 00       		.byte	0
 7114 00bf 03       		.uleb128 0x3
 7115 00c0 08       		.uleb128 0x8
ARM GAS  C:\Users\salaz\AppData\Local\Temp\ccSSnxm1.s 			page 158


 7116 00c1 3A       		.uleb128 0x3a
 7117 00c2 0B       		.uleb128 0xb
 7118 00c3 3B       		.uleb128 0x3b
 7119 00c4 0B       		.uleb128 0xb
 7120 00c5 49       		.uleb128 0x49
 7121 00c6 13       		.uleb128 0x13
 7122 00c7 38       		.uleb128 0x38
 7123 00c8 0B       		.uleb128 0xb
 7124 00c9 00       		.byte	0
 7125 00ca 00       		.byte	0
 7126 00cb 12       		.uleb128 0x12
 7127 00cc 28       		.uleb128 0x28
 7128 00cd 00       		.byte	0
 7129 00ce 03       		.uleb128 0x3
 7130 00cf 0E       		.uleb128 0xe
 7131 00d0 1C       		.uleb128 0x1c
 7132 00d1 06       		.uleb128 0x6
 7133 00d2 00       		.byte	0
 7134 00d3 00       		.byte	0
 7135 00d4 13       		.uleb128 0x13
 7136 00d5 13       		.uleb128 0x13
 7137 00d6 01       		.byte	0x1
 7138 00d7 0B       		.uleb128 0xb
 7139 00d8 0B       		.uleb128 0xb
 7140 00d9 3A       		.uleb128 0x3a
 7141 00da 0B       		.uleb128 0xb
 7142 00db 3B       		.uleb128 0x3b
 7143 00dc 05       		.uleb128 0x5
 7144 00dd 01       		.uleb128 0x1
 7145 00de 13       		.uleb128 0x13
 7146 00df 00       		.byte	0
 7147 00e0 00       		.byte	0
 7148 00e1 14       		.uleb128 0x14
 7149 00e2 0D       		.uleb128 0xd
 7150 00e3 00       		.byte	0
 7151 00e4 03       		.uleb128 0x3
 7152 00e5 0E       		.uleb128 0xe
 7153 00e6 3A       		.uleb128 0x3a
 7154 00e7 0B       		.uleb128 0xb
 7155 00e8 3B       		.uleb128 0x3b
 7156 00e9 05       		.uleb128 0x5
 7157 00ea 49       		.uleb128 0x49
 7158 00eb 13       		.uleb128 0x13
 7159 00ec 38       		.uleb128 0x38
 7160 00ed 0B       		.uleb128 0xb
 7161 00ee 00       		.byte	0
 7162 00ef 00       		.byte	0
 7163 00f0 15       		.uleb128 0x15
 7164 00f1 0F       		.uleb128 0xf
 7165 00f2 00       		.byte	0
 7166 00f3 0B       		.uleb128 0xb
 7167 00f4 0B       		.uleb128 0xb
 7168 00f5 49       		.uleb128 0x49
 7169 00f6 13       		.uleb128 0x13
 7170 00f7 00       		.byte	0
 7171 00f8 00       		.byte	0
 7172 00f9 16       		.uleb128 0x16
ARM GAS  C:\Users\salaz\AppData\Local\Temp\ccSSnxm1.s 			page 159


 7173 00fa 2E       		.uleb128 0x2e
 7174 00fb 01       		.byte	0x1
 7175 00fc 3F       		.uleb128 0x3f
 7176 00fd 19       		.uleb128 0x19
 7177 00fe 03       		.uleb128 0x3
 7178 00ff 0E       		.uleb128 0xe
 7179 0100 3A       		.uleb128 0x3a
 7180 0101 0B       		.uleb128 0xb
 7181 0102 3B       		.uleb128 0x3b
 7182 0103 0B       		.uleb128 0xb
 7183 0104 27       		.uleb128 0x27
 7184 0105 19       		.uleb128 0x19
 7185 0106 49       		.uleb128 0x49
 7186 0107 13       		.uleb128 0x13
 7187 0108 11       		.uleb128 0x11
 7188 0109 01       		.uleb128 0x1
 7189 010a 12       		.uleb128 0x12
 7190 010b 06       		.uleb128 0x6
 7191 010c 40       		.uleb128 0x40
 7192 010d 18       		.uleb128 0x18
 7193 010e 9642     		.uleb128 0x2116
 7194 0110 19       		.uleb128 0x19
 7195 0111 01       		.uleb128 0x1
 7196 0112 13       		.uleb128 0x13
 7197 0113 00       		.byte	0
 7198 0114 00       		.byte	0
 7199 0115 17       		.uleb128 0x17
 7200 0116 05       		.uleb128 0x5
 7201 0117 00       		.byte	0
 7202 0118 03       		.uleb128 0x3
 7203 0119 0E       		.uleb128 0xe
 7204 011a 3A       		.uleb128 0x3a
 7205 011b 0B       		.uleb128 0xb
 7206 011c 3B       		.uleb128 0x3b
 7207 011d 0B       		.uleb128 0xb
 7208 011e 49       		.uleb128 0x49
 7209 011f 13       		.uleb128 0x13
 7210 0120 02       		.uleb128 0x2
 7211 0121 18       		.uleb128 0x18
 7212 0122 00       		.byte	0
 7213 0123 00       		.byte	0
 7214 0124 18       		.uleb128 0x18
 7215 0125 34       		.uleb128 0x34
 7216 0126 00       		.byte	0
 7217 0127 03       		.uleb128 0x3
 7218 0128 0E       		.uleb128 0xe
 7219 0129 3A       		.uleb128 0x3a
 7220 012a 0B       		.uleb128 0xb
 7221 012b 3B       		.uleb128 0x3b
 7222 012c 0B       		.uleb128 0xb
 7223 012d 49       		.uleb128 0x49
 7224 012e 13       		.uleb128 0x13
 7225 012f 02       		.uleb128 0x2
 7226 0130 18       		.uleb128 0x18
 7227 0131 00       		.byte	0
 7228 0132 00       		.byte	0
 7229 0133 19       		.uleb128 0x19
ARM GAS  C:\Users\salaz\AppData\Local\Temp\ccSSnxm1.s 			page 160


 7230 0134 05       		.uleb128 0x5
 7231 0135 00       		.byte	0
 7232 0136 03       		.uleb128 0x3
 7233 0137 08       		.uleb128 0x8
 7234 0138 3A       		.uleb128 0x3a
 7235 0139 0B       		.uleb128 0xb
 7236 013a 3B       		.uleb128 0x3b
 7237 013b 0B       		.uleb128 0xb
 7238 013c 49       		.uleb128 0x49
 7239 013d 13       		.uleb128 0x13
 7240 013e 02       		.uleb128 0x2
 7241 013f 18       		.uleb128 0x18
 7242 0140 00       		.byte	0
 7243 0141 00       		.byte	0
 7244 0142 1A       		.uleb128 0x1a
 7245 0143 2E       		.uleb128 0x2e
 7246 0144 01       		.byte	0x1
 7247 0145 3F       		.uleb128 0x3f
 7248 0146 19       		.uleb128 0x19
 7249 0147 03       		.uleb128 0x3
 7250 0148 0E       		.uleb128 0xe
 7251 0149 3A       		.uleb128 0x3a
 7252 014a 0B       		.uleb128 0xb
 7253 014b 3B       		.uleb128 0x3b
 7254 014c 05       		.uleb128 0x5
 7255 014d 27       		.uleb128 0x27
 7256 014e 19       		.uleb128 0x19
 7257 014f 49       		.uleb128 0x49
 7258 0150 13       		.uleb128 0x13
 7259 0151 11       		.uleb128 0x11
 7260 0152 01       		.uleb128 0x1
 7261 0153 12       		.uleb128 0x12
 7262 0154 06       		.uleb128 0x6
 7263 0155 40       		.uleb128 0x40
 7264 0156 18       		.uleb128 0x18
 7265 0157 9642     		.uleb128 0x2116
 7266 0159 19       		.uleb128 0x19
 7267 015a 01       		.uleb128 0x1
 7268 015b 13       		.uleb128 0x13
 7269 015c 00       		.byte	0
 7270 015d 00       		.byte	0
 7271 015e 1B       		.uleb128 0x1b
 7272 015f 05       		.uleb128 0x5
 7273 0160 00       		.byte	0
 7274 0161 03       		.uleb128 0x3
 7275 0162 0E       		.uleb128 0xe
 7276 0163 3A       		.uleb128 0x3a
 7277 0164 0B       		.uleb128 0xb
 7278 0165 3B       		.uleb128 0x3b
 7279 0166 05       		.uleb128 0x5
 7280 0167 49       		.uleb128 0x49
 7281 0168 13       		.uleb128 0x13
 7282 0169 02       		.uleb128 0x2
 7283 016a 18       		.uleb128 0x18
 7284 016b 00       		.byte	0
 7285 016c 00       		.byte	0
 7286 016d 1C       		.uleb128 0x1c
ARM GAS  C:\Users\salaz\AppData\Local\Temp\ccSSnxm1.s 			page 161


 7287 016e 34       		.uleb128 0x34
 7288 016f 00       		.byte	0
 7289 0170 03       		.uleb128 0x3
 7290 0171 0E       		.uleb128 0xe
 7291 0172 3A       		.uleb128 0x3a
 7292 0173 0B       		.uleb128 0xb
 7293 0174 3B       		.uleb128 0x3b
 7294 0175 05       		.uleb128 0x5
 7295 0176 49       		.uleb128 0x49
 7296 0177 13       		.uleb128 0x13
 7297 0178 02       		.uleb128 0x2
 7298 0179 18       		.uleb128 0x18
 7299 017a 00       		.byte	0
 7300 017b 00       		.byte	0
 7301 017c 1D       		.uleb128 0x1d
 7302 017d 2E       		.uleb128 0x2e
 7303 017e 01       		.byte	0x1
 7304 017f 3F       		.uleb128 0x3f
 7305 0180 19       		.uleb128 0x19
 7306 0181 03       		.uleb128 0x3
 7307 0182 0E       		.uleb128 0xe
 7308 0183 3A       		.uleb128 0x3a
 7309 0184 0B       		.uleb128 0xb
 7310 0185 3B       		.uleb128 0x3b
 7311 0186 05       		.uleb128 0x5
 7312 0187 27       		.uleb128 0x27
 7313 0188 19       		.uleb128 0x19
 7314 0189 49       		.uleb128 0x49
 7315 018a 13       		.uleb128 0x13
 7316 018b 11       		.uleb128 0x11
 7317 018c 01       		.uleb128 0x1
 7318 018d 12       		.uleb128 0x12
 7319 018e 06       		.uleb128 0x6
 7320 018f 40       		.uleb128 0x40
 7321 0190 18       		.uleb128 0x18
 7322 0191 9742     		.uleb128 0x2117
 7323 0193 19       		.uleb128 0x19
 7324 0194 01       		.uleb128 0x1
 7325 0195 13       		.uleb128 0x13
 7326 0196 00       		.byte	0
 7327 0197 00       		.byte	0
 7328 0198 1E       		.uleb128 0x1e
 7329 0199 2E       		.uleb128 0x2e
 7330 019a 01       		.byte	0x1
 7331 019b 3F       		.uleb128 0x3f
 7332 019c 19       		.uleb128 0x19
 7333 019d 03       		.uleb128 0x3
 7334 019e 0E       		.uleb128 0xe
 7335 019f 3A       		.uleb128 0x3a
 7336 01a0 0B       		.uleb128 0xb
 7337 01a1 3B       		.uleb128 0x3b
 7338 01a2 05       		.uleb128 0x5
 7339 01a3 27       		.uleb128 0x27
 7340 01a4 19       		.uleb128 0x19
 7341 01a5 49       		.uleb128 0x49
 7342 01a6 13       		.uleb128 0x13
 7343 01a7 11       		.uleb128 0x11
ARM GAS  C:\Users\salaz\AppData\Local\Temp\ccSSnxm1.s 			page 162


 7344 01a8 01       		.uleb128 0x1
 7345 01a9 12       		.uleb128 0x12
 7346 01aa 06       		.uleb128 0x6
 7347 01ab 40       		.uleb128 0x40
 7348 01ac 18       		.uleb128 0x18
 7349 01ad 9742     		.uleb128 0x2117
 7350 01af 19       		.uleb128 0x19
 7351 01b0 00       		.byte	0
 7352 01b1 00       		.byte	0
 7353 01b2 00       		.byte	0
 7354              		.section	.debug_aranges,"",%progbits
 7355 0000 34010000 		.4byte	0x134
 7356 0004 0200     		.2byte	0x2
 7357 0006 00000000 		.4byte	.Ldebug_info0
 7358 000a 04       		.byte	0x4
 7359 000b 00       		.byte	0
 7360 000c 0000     		.2byte	0
 7361 000e 0000     		.2byte	0
 7362 0010 00000000 		.4byte	.LFB36
 7363 0014 1C010000 		.4byte	.LFE36-.LFB36
 7364 0018 00000000 		.4byte	.LFB37
 7365 001c F8000000 		.4byte	.LFE37-.LFB37
 7366 0020 00000000 		.4byte	.LFB38
 7367 0024 44000000 		.4byte	.LFE38-.LFB38
 7368 0028 00000000 		.4byte	.LFB39
 7369 002c 24020000 		.4byte	.LFE39-.LFB39
 7370 0030 00000000 		.4byte	.LFB40
 7371 0034 3C000000 		.4byte	.LFE40-.LFB40
 7372 0038 00000000 		.4byte	.LFB41
 7373 003c 38000000 		.4byte	.LFE41-.LFB41
 7374 0040 00000000 		.4byte	.LFB42
 7375 0044 00010000 		.4byte	.LFE42-.LFB42
 7376 0048 00000000 		.4byte	.LFB43
 7377 004c 64020000 		.4byte	.LFE43-.LFB43
 7378 0050 00000000 		.4byte	.LFB44
 7379 0054 3C000000 		.4byte	.LFE44-.LFB44
 7380 0058 00000000 		.4byte	.LFB45
 7381 005c 38000000 		.4byte	.LFE45-.LFB45
 7382 0060 00000000 		.4byte	.LFB46
 7383 0064 3C000000 		.4byte	.LFE46-.LFB46
 7384 0068 00000000 		.4byte	.LFB47
 7385 006c 38000000 		.4byte	.LFE47-.LFB47
 7386 0070 00000000 		.4byte	.LFB48
 7387 0074 04010000 		.4byte	.LFE48-.LFB48
 7388 0078 00000000 		.4byte	.LFB49
 7389 007c 38020000 		.4byte	.LFE49-.LFB49
 7390 0080 00000000 		.4byte	.LFB50
 7391 0084 3C000000 		.4byte	.LFE50-.LFB50
 7392 0088 00000000 		.4byte	.LFB51
 7393 008c 38000000 		.4byte	.LFE51-.LFB51
 7394 0090 00000000 		.4byte	.LFB52
 7395 0094 3C000000 		.4byte	.LFE52-.LFB52
 7396 0098 00000000 		.4byte	.LFB53
 7397 009c 38000000 		.4byte	.LFE53-.LFB53
 7398 00a0 00000000 		.4byte	.LFB54
 7399 00a4 04010000 		.4byte	.LFE54-.LFB54
 7400 00a8 00000000 		.4byte	.LFB55
ARM GAS  C:\Users\salaz\AppData\Local\Temp\ccSSnxm1.s 			page 163


 7401 00ac 24010000 		.4byte	.LFE55-.LFB55
 7402 00b0 00000000 		.4byte	.LFB56
 7403 00b4 3C000000 		.4byte	.LFE56-.LFB56
 7404 00b8 00000000 		.4byte	.LFB57
 7405 00bc 38000000 		.4byte	.LFE57-.LFB57
 7406 00c0 00000000 		.4byte	.LFB58
 7407 00c4 3C000000 		.4byte	.LFE58-.LFB58
 7408 00c8 00000000 		.4byte	.LFB59
 7409 00cc 38000000 		.4byte	.LFE59-.LFB59
 7410 00d0 00000000 		.4byte	.LFB60
 7411 00d4 04010000 		.4byte	.LFE60-.LFB60
 7412 00d8 00000000 		.4byte	.LFB61
 7413 00dc 24010000 		.4byte	.LFE61-.LFB61
 7414 00e0 00000000 		.4byte	.LFB62
 7415 00e4 3C000000 		.4byte	.LFE62-.LFB62
 7416 00e8 00000000 		.4byte	.LFB63
 7417 00ec 38000000 		.4byte	.LFE63-.LFB63
 7418 00f0 00000000 		.4byte	.LFB64
 7419 00f4 3C000000 		.4byte	.LFE64-.LFB64
 7420 00f8 00000000 		.4byte	.LFB65
 7421 00fc 38000000 		.4byte	.LFE65-.LFB65
 7422 0100 00000000 		.4byte	.LFB66
 7423 0104 04010000 		.4byte	.LFE66-.LFB66
 7424 0108 00000000 		.4byte	.LFB67
 7425 010c 24010000 		.4byte	.LFE67-.LFB67
 7426 0110 00000000 		.4byte	.LFB68
 7427 0114 3C000000 		.4byte	.LFE68-.LFB68
 7428 0118 00000000 		.4byte	.LFB69
 7429 011c 38000000 		.4byte	.LFE69-.LFB69
 7430 0120 00000000 		.4byte	.LFB70
 7431 0124 3C000000 		.4byte	.LFE70-.LFB70
 7432 0128 00000000 		.4byte	.LFB71
 7433 012c 38000000 		.4byte	.LFE71-.LFB71
 7434 0130 00000000 		.4byte	0
 7435 0134 00000000 		.4byte	0
 7436              		.section	.debug_ranges,"",%progbits
 7437              	.Ldebug_ranges0:
 7438 0000 00000000 		.4byte	.LFB36
 7439 0004 1C010000 		.4byte	.LFE36
 7440 0008 00000000 		.4byte	.LFB37
 7441 000c F8000000 		.4byte	.LFE37
 7442 0010 00000000 		.4byte	.LFB38
 7443 0014 44000000 		.4byte	.LFE38
 7444 0018 00000000 		.4byte	.LFB39
 7445 001c 24020000 		.4byte	.LFE39
 7446 0020 00000000 		.4byte	.LFB40
 7447 0024 3C000000 		.4byte	.LFE40
 7448 0028 00000000 		.4byte	.LFB41
 7449 002c 38000000 		.4byte	.LFE41
 7450 0030 00000000 		.4byte	.LFB42
 7451 0034 00010000 		.4byte	.LFE42
 7452 0038 00000000 		.4byte	.LFB43
 7453 003c 64020000 		.4byte	.LFE43
 7454 0040 00000000 		.4byte	.LFB44
 7455 0044 3C000000 		.4byte	.LFE44
 7456 0048 00000000 		.4byte	.LFB45
 7457 004c 38000000 		.4byte	.LFE45
ARM GAS  C:\Users\salaz\AppData\Local\Temp\ccSSnxm1.s 			page 164


 7458 0050 00000000 		.4byte	.LFB46
 7459 0054 3C000000 		.4byte	.LFE46
 7460 0058 00000000 		.4byte	.LFB47
 7461 005c 38000000 		.4byte	.LFE47
 7462 0060 00000000 		.4byte	.LFB48
 7463 0064 04010000 		.4byte	.LFE48
 7464 0068 00000000 		.4byte	.LFB49
 7465 006c 38020000 		.4byte	.LFE49
 7466 0070 00000000 		.4byte	.LFB50
 7467 0074 3C000000 		.4byte	.LFE50
 7468 0078 00000000 		.4byte	.LFB51
 7469 007c 38000000 		.4byte	.LFE51
 7470 0080 00000000 		.4byte	.LFB52
 7471 0084 3C000000 		.4byte	.LFE52
 7472 0088 00000000 		.4byte	.LFB53
 7473 008c 38000000 		.4byte	.LFE53
 7474 0090 00000000 		.4byte	.LFB54
 7475 0094 04010000 		.4byte	.LFE54
 7476 0098 00000000 		.4byte	.LFB55
 7477 009c 24010000 		.4byte	.LFE55
 7478 00a0 00000000 		.4byte	.LFB56
 7479 00a4 3C000000 		.4byte	.LFE56
 7480 00a8 00000000 		.4byte	.LFB57
 7481 00ac 38000000 		.4byte	.LFE57
 7482 00b0 00000000 		.4byte	.LFB58
 7483 00b4 3C000000 		.4byte	.LFE58
 7484 00b8 00000000 		.4byte	.LFB59
 7485 00bc 38000000 		.4byte	.LFE59
 7486 00c0 00000000 		.4byte	.LFB60
 7487 00c4 04010000 		.4byte	.LFE60
 7488 00c8 00000000 		.4byte	.LFB61
 7489 00cc 24010000 		.4byte	.LFE61
 7490 00d0 00000000 		.4byte	.LFB62
 7491 00d4 3C000000 		.4byte	.LFE62
 7492 00d8 00000000 		.4byte	.LFB63
 7493 00dc 38000000 		.4byte	.LFE63
 7494 00e0 00000000 		.4byte	.LFB64
 7495 00e4 3C000000 		.4byte	.LFE64
 7496 00e8 00000000 		.4byte	.LFB65
 7497 00ec 38000000 		.4byte	.LFE65
 7498 00f0 00000000 		.4byte	.LFB66
 7499 00f4 04010000 		.4byte	.LFE66
 7500 00f8 00000000 		.4byte	.LFB67
 7501 00fc 24010000 		.4byte	.LFE67
 7502 0100 00000000 		.4byte	.LFB68
 7503 0104 3C000000 		.4byte	.LFE68
 7504 0108 00000000 		.4byte	.LFB69
 7505 010c 38000000 		.4byte	.LFE69
 7506 0110 00000000 		.4byte	.LFB70
 7507 0114 3C000000 		.4byte	.LFE70
 7508 0118 00000000 		.4byte	.LFB71
 7509 011c 38000000 		.4byte	.LFE71
 7510 0120 00000000 		.4byte	0
 7511 0124 00000000 		.4byte	0
 7512              		.section	.debug_line,"",%progbits
 7513              	.Ldebug_line0:
 7514 0000 910D0000 		.section	.debug_str,"MS",%progbits,1
ARM GAS  C:\Users\salaz\AppData\Local\Temp\ccSSnxm1.s 			page 165


 7514      02003602 
 7514      00000201 
 7514      FB0E0D00 
 7514      01010101 
 7515              	.LASF79:
 7516 0000 43595F50 		.ascii	"CY_PROT_SIZE_512B\000"
 7516      524F545F 
 7516      53495A45 
 7516      5F353132 
 7516      4200
 7517              	.LASF45:
 7518 0012 4D533130 		.ascii	"MS10_CTL\000"
 7518      5F43544C 
 7518      00
 7519              	.LASF116:
 7520 001b 63795F73 		.ascii	"cy_stc_ppu_gr_cfg_t\000"
 7520      74635F70 
 7520      70755F67 
 7520      725F6366 
 7520      675F7400 
 7521              	.LASF66:
 7522 002f 43595F50 		.ascii	"CY_PROT_BAD_PARAM\000"
 7522      524F545F 
 7522      4241445F 
 7522      50415241 
 7522      4D00
 7523              	.LASF118:
 7524 0041 63795F73 		.ascii	"cy_stc_ppu_rg_cfg_t\000"
 7524      74635F70 
 7524      70755F72 
 7524      675F6366 
 7524      675F7400 
 7525              	.LASF142:
 7526 0055 43795F50 		.ascii	"Cy_Prot_ConfigPpuProgSlaveStruct\000"
 7526      726F745F 
 7526      436F6E66 
 7526      69675070 
 7526      7550726F 
 7527              	.LASF161:
 7528 0076 43795F50 		.ascii	"Cy_Prot_EnablePpuFixedRgMasterStruct\000"
 7528      726F745F 
 7528      456E6162 
 7528      6C655070 
 7528      75466978 
 7529              	.LASF6:
 7530 009b 5F5F7569 		.ascii	"__uint8_t\000"
 7530      6E74385F 
 7530      7400
 7531              	.LASF136:
 7532 00a5 43795F50 		.ascii	"Cy_Prot_ConfigSmpuSlaveStruct\000"
 7532      726F745F 
 7532      436F6E66 
 7532      6967536D 
 7532      7075536C 
 7533              	.LASF71:
 7534 00c3 43595F50 		.ascii	"CY_PROT_PERM_W\000"
 7534      524F545F 
ARM GAS  C:\Users\salaz\AppData\Local\Temp\ccSSnxm1.s 			page 166


 7534      5045524D 
 7534      5F5700
 7535              	.LASF162:
 7536 00d2 43795F50 		.ascii	"Cy_Prot_DisablePpuFixedRgMasterStruct\000"
 7536      726F745F 
 7536      44697361 
 7536      626C6550 
 7536      70754669 
 7537              	.LASF31:
 7538 00f8 50455249 		.ascii	"PERI_PPU_GR_Type\000"
 7538      5F505055 
 7538      5F47525F 
 7538      54797065 
 7538      00
 7539              	.LASF131:
 7540 0109 61646472 		.ascii	"addrReg\000"
 7540      52656700 
 7541              	.LASF12:
 7542 0111 6C6F6E67 		.ascii	"long long unsigned int\000"
 7542      206C6F6E 
 7542      6720756E 
 7542      7369676E 
 7542      65642069 
 7543              	.LASF76:
 7544 0128 43595F50 		.ascii	"CY_PROT_PERM_RWX\000"
 7544      524F545F 
 7544      5045524D 
 7544      5F525758 
 7544      00
 7545              	.LASF58:
 7546 0139 534D5055 		.ascii	"SMPU\000"
 7546      00
 7547              	.LASF70:
 7548 013e 43595F50 		.ascii	"CY_PROT_PERM_R\000"
 7548      524F545F 
 7548      5045524D 
 7548      5F5200
 7549              	.LASF42:
 7550 014d 4D53375F 		.ascii	"MS7_CTL\000"
 7550      43544C00 
 7551              	.LASF53:
 7552 0155 41444452 		.ascii	"ADDR\000"
 7552      00
 7553              	.LASF127:
 7554 015a 43795F50 		.ascii	"Cy_Prot_GetActivePC\000"
 7554      726F745F 
 7554      47657441 
 7554      63746976 
 7554      65504300 
 7555              	.LASF1:
 7556 016e 6C6F6E67 		.ascii	"long long int\000"
 7556      206C6F6E 
 7556      6720696E 
 7556      7400
 7557              	.LASF3:
 7558 017c 7369676E 		.ascii	"signed char\000"
 7558      65642063 
ARM GAS  C:\Users\salaz\AppData\Local\Temp\ccSSnxm1.s 			page 167


 7558      68617200 
 7559              	.LASF78:
 7560 0188 43595F50 		.ascii	"CY_PROT_SIZE_256B\000"
 7560      524F545F 
 7560      53495A45 
 7560      5F323536 
 7560      4200
 7561              	.LASF60:
 7562 019a 50524F54 		.ascii	"PROT_Type\000"
 7562      5F547970 
 7562      6500
 7563              	.LASF134:
 7564 01a4 43795F50 		.ascii	"Cy_Prot_DisableMpuStruct\000"
 7564      726F745F 
 7564      44697361 
 7564      626C654D 
 7564      70755374 
 7565              	.LASF50:
 7566 01bd 4D533135 		.ascii	"MS15_CTL\000"
 7566      5F43544C 
 7566      00
 7567              	.LASF18:
 7568 01c6 43505553 		.ascii	"CPUSS_MS_ID_CRYPTO\000"
 7568      535F4D53 
 7568      5F49445F 
 7568      43525950 
 7568      544F00
 7569              	.LASF148:
 7570 01d9 43795F50 		.ascii	"Cy_Prot_ConfigPpuFixedGrSlaveStruct\000"
 7570      726F745F 
 7570      436F6E66 
 7570      69675070 
 7570      75466978 
 7571              	.LASF83:
 7572 01fd 43595F50 		.ascii	"CY_PROT_SIZE_8KB\000"
 7572      524F545F 
 7572      53495A45 
 7572      5F384B42 
 7572      00
 7573              	.LASF157:
 7574 020e 43795F50 		.ascii	"Cy_Prot_EnablePpuFixedSlSlaveStruct\000"
 7574      726F745F 
 7574      456E6162 
 7574      6C655070 
 7574      75466978 
 7575              	.LASF135:
 7576 0232 43795F50 		.ascii	"Cy_Prot_ConfigSmpuMasterStruct\000"
 7576      726F745F 
 7576      436F6E66 
 7576      6967536D 
 7576      70754D61 
 7577              	.LASF9:
 7578 0251 6C6F6E67 		.ascii	"long int\000"
 7578      20696E74 
 7578      00
 7579              	.LASF113:
 7580 025a 70634D61 		.ascii	"pcMask\000"
ARM GAS  C:\Users\salaz\AppData\Local\Temp\ccSSnxm1.s 			page 168


 7580      736B00
 7581              	.LASF23:
 7582 0261 656E5F70 		.ascii	"en_prot_master_t\000"
 7582      726F745F 
 7582      6D617374 
 7582      65725F74 
 7582      00
 7583              	.LASF14:
 7584 0272 75696E74 		.ascii	"uint16_t\000"
 7584      31365F74 
 7584      00
 7585              	.LASF64:
 7586 027b 646F7562 		.ascii	"double\000"
 7586      6C6500
 7587              	.LASF39:
 7588 0282 4D53345F 		.ascii	"MS4_CTL\000"
 7588      43544C00 
 7589              	.LASF54:
 7590 028a 50524F54 		.ascii	"PROT_MPU_MPU_STRUCT_Type\000"
 7590      5F4D5055 
 7590      5F4D5055 
 7590      5F535452 
 7590      5543545F 
 7591              	.LASF81:
 7592 02a3 43595F50 		.ascii	"CY_PROT_SIZE_2KB\000"
 7592      524F545F 
 7592      53495A45 
 7592      5F324B42 
 7592      00
 7593              	.LASF149:
 7594 02b4 43795F50 		.ascii	"Cy_Prot_EnablePpuFixedGrMasterStruct\000"
 7594      726F745F 
 7594      456E6162 
 7594      6C655070 
 7594      75466978 
 7595              	.LASF25:
 7596 02d9 41545430 		.ascii	"ATT0\000"
 7596      00
 7597              	.LASF126:
 7598 02de 61646472 		.ascii	"addrMpu\000"
 7598      4D707500 
 7599              	.LASF10:
 7600 02e6 5F5F7569 		.ascii	"__uint32_t\000"
 7600      6E743332 
 7600      5F7400
 7601              	.LASF56:
 7602 02f1 4D50555F 		.ascii	"MPU_STRUCT\000"
 7602      53545255 
 7602      435400
 7603              	.LASF156:
 7604 02fc 43795F50 		.ascii	"Cy_Prot_DisablePpuFixedSlMasterStruct\000"
 7604      726F745F 
 7604      44697361 
 7604      626C6550 
 7604      70754669 
 7605              	.LASF158:
 7606 0322 43795F50 		.ascii	"Cy_Prot_DisablePpuFixedSlSlaveStruct\000"
ARM GAS  C:\Users\salaz\AppData\Local\Temp\ccSSnxm1.s 			page 169


 7606      726F745F 
 7606      44697361 
 7606      626C6550 
 7606      70754669 
 7607              	.LASF69:
 7608 0347 43595F50 		.ascii	"CY_PROT_PERM_DISABLED\000"
 7608      524F545F 
 7608      5045524D 
 7608      5F444953 
 7608      41424C45 
 7609              	.LASF167:
 7610 035d 43795F50 		.ascii	"Cy_Prot_DisablePpuFixedRgSlaveStruct\000"
 7610      726F745F 
 7610      44697361 
 7610      626C6550 
 7610      70754669 
 7611              	.LASF115:
 7612 0382 63795F73 		.ascii	"cy_stc_ppu_prog_cfg_t\000"
 7612      74635F70 
 7612      70755F70 
 7612      726F675F 
 7612      6366675F 
 7613              	.LASF0:
 7614 0398 756E7369 		.ascii	"unsigned int\000"
 7614      676E6564 
 7614      20696E74 
 7614      00
 7615              	.LASF88:
 7616 03a5 43595F50 		.ascii	"CY_PROT_SIZE_256KB\000"
 7616      524F545F 
 7616      53495A45 
 7616      5F323536 
 7616      4B4200
 7617              	.LASF120:
 7618 03b8 70726976 		.ascii	"privileged\000"
 7618      696C6567 
 7618      656400
 7619              	.LASF61:
 7620 03c3 63686172 		.ascii	"char_t\000"
 7620      5F7400
 7621              	.LASF65:
 7622 03ca 43595F50 		.ascii	"CY_PROT_SUCCESS\000"
 7622      524F545F 
 7622      53554343 
 7622      45535300 
 7623              	.LASF85:
 7624 03da 43595F50 		.ascii	"CY_PROT_SIZE_32KB\000"
 7624      524F545F 
 7624      53495A45 
 7624      5F33324B 
 7624      4200
 7625              	.LASF11:
 7626 03ec 6C6F6E67 		.ascii	"long unsigned int\000"
 7626      20756E73 
 7626      69676E65 
 7626      6420696E 
 7626      7400
ARM GAS  C:\Users\salaz\AppData\Local\Temp\ccSSnxm1.s 			page 170


 7627              	.LASF36:
 7628 03fe 4D53315F 		.ascii	"MS1_CTL\000"
 7628      43544C00 
 7629              	.LASF86:
 7630 0406 43595F50 		.ascii	"CY_PROT_SIZE_64KB\000"
 7630      524F545F 
 7630      53495A45 
 7630      5F36344B 
 7630      4200
 7631              	.LASF68:
 7632 0418 63795F65 		.ascii	"cy_en_prot_status_t\000"
 7632      6E5F7072 
 7632      6F745F73 
 7632      74617475 
 7632      735F7400 
 7633              	.LASF102:
 7634 042c 43595F50 		.ascii	"CY_PROT_SIZE_4GB\000"
 7634      524F545F 
 7634      53495A45 
 7634      5F344742 
 7634      00
 7635              	.LASF89:
 7636 043d 43595F50 		.ascii	"CY_PROT_SIZE_512KB\000"
 7636      524F545F 
 7636      53495A45 
 7636      5F353132 
 7636      4B4200
 7637              	.LASF44:
 7638 0450 4D53395F 		.ascii	"MS9_CTL\000"
 7638      43544C00 
 7639              	.LASF111:
 7640 0458 63795F73 		.ascii	"cy_stc_mpu_cfg_t\000"
 7640      74635F6D 
 7640      70755F63 
 7640      66675F74 
 7640      00
 7641              	.LASF8:
 7642 0469 73686F72 		.ascii	"short unsigned int\000"
 7642      7420756E 
 7642      7369676E 
 7642      65642069 
 7642      6E7400
 7643              	.LASF24:
 7644 047c 41444452 		.ascii	"ADDR0\000"
 7644      3000
 7645              	.LASF27:
 7646 0482 41444452 		.ascii	"ADDR1\000"
 7646      3100
 7647              	.LASF165:
 7648 0488 47656E65 		.ascii	"Generated_Source\\PSoC6\\pdl\\drivers\\peripheral\\"
 7648      72617465 
 7648      645F536F 
 7648      75726365 
 7648      5C50536F 
 7649 04b6 70726F74 		.ascii	"prot\\cy_prot.c\000"
 7649      5C63795F 
 7649      70726F74 
ARM GAS  C:\Users\salaz\AppData\Local\Temp\ccSSnxm1.s 			page 171


 7649      2E6300
 7650              	.LASF163:
 7651 04c5 43795F50 		.ascii	"Cy_Prot_EnablePpuFixedRgSlaveStruct\000"
 7651      726F745F 
 7651      456E6162 
 7651      6C655070 
 7651      75466978 
 7652              	.LASF125:
 7653 04e9 43795F50 		.ascii	"Cy_Prot_SetActivePC\000"
 7653      726F745F 
 7653      53657441 
 7653      63746976 
 7653      65504300 
 7654              	.LASF32:
 7655 04fd 50455249 		.ascii	"PERI_GR_PPU_SL_Type\000"
 7655      5F47525F 
 7655      5050555F 
 7655      534C5F54 
 7655      79706500 
 7656              	.LASF164:
 7657 0511 474E5520 		.ascii	"GNU C11 5.4.1 20160609 (release) [ARM/embedded-5-br"
 7657      43313120 
 7657      352E342E 
 7657      31203230 
 7657      31363036 
 7658 0544 616E6368 		.ascii	"anch revision 237715] -mcpu=cortex-m0plus -mthumb -"
 7658      20726576 
 7658      6973696F 
 7658      6E203233 
 7658      37373135 
 7659 0577 67202D4F 		.ascii	"g -O0 -ffunction-sections -ffat-lto-objects\000"
 7659      30202D66 
 7659      66756E63 
 7659      74696F6E 
 7659      2D736563 
 7660              	.LASF155:
 7661 05a3 43795F50 		.ascii	"Cy_Prot_EnablePpuFixedSlMasterStruct\000"
 7661      726F745F 
 7661      456E6162 
 7661      6C655070 
 7661      75466978 
 7662              	.LASF122:
 7663 05c8 72656756 		.ascii	"regVal\000"
 7663      616C00
 7664              	.LASF93:
 7665 05cf 43595F50 		.ascii	"CY_PROT_SIZE_8MB\000"
 7665      524F545F 
 7665      53495A45 
 7665      5F384D42 
 7665      00
 7666              	.LASF80:
 7667 05e0 43595F50 		.ascii	"CY_PROT_SIZE_1KB\000"
 7667      524F545F 
 7667      53495A45 
 7667      5F314B42 
 7667      00
 7668              	.LASF84:
ARM GAS  C:\Users\salaz\AppData\Local\Temp\ccSSnxm1.s 			page 172


 7669 05f1 43595F50 		.ascii	"CY_PROT_SIZE_16KB\000"
 7669      524F545F 
 7669      53495A45 
 7669      5F31364B 
 7669      4200
 7670              	.LASF57:
 7671 0603 50524F54 		.ascii	"PROT_MPU_Type\000"
 7671      5F4D5055 
 7671      5F547970 
 7671      6500
 7672              	.LASF119:
 7673 0611 6275734D 		.ascii	"busMaster\000"
 7673      61737465 
 7673      7200
 7674              	.LASF129:
 7675 061b 62617365 		.ascii	"base\000"
 7675      00
 7676              	.LASF141:
 7677 0620 43795F50 		.ascii	"Cy_Prot_ConfigPpuProgMasterStruct\000"
 7677      726F745F 
 7677      436F6E66 
 7677      69675070 
 7677      7550726F 
 7678              	.LASF41:
 7679 0642 4D53365F 		.ascii	"MS6_CTL\000"
 7679      43544C00 
 7680              	.LASF75:
 7681 064a 43595F50 		.ascii	"CY_PROT_PERM_WX\000"
 7681      524F545F 
 7681      5045524D 
 7681      5F575800 
 7682              	.LASF107:
 7683 065a 75736572 		.ascii	"userPermission\000"
 7683      5065726D 
 7683      69737369 
 7683      6F6E00
 7684              	.LASF104:
 7685 0669 61646472 		.ascii	"address\000"
 7685      65737300 
 7686              	.LASF59:
 7687 0671 43594D50 		.ascii	"CYMPU\000"
 7687      5500
 7688              	.LASF55:
 7689 0677 4D535F43 		.ascii	"MS_CTL\000"
 7689      544C00
 7690              	.LASF91:
 7691 067e 43595F50 		.ascii	"CY_PROT_SIZE_2MB\000"
 7691      524F545F 
 7691      53495A45 
 7691      5F324D42 
 7691      00
 7692              	.LASF138:
 7693 068f 43795F50 		.ascii	"Cy_Prot_DisableSmpuMasterStruct\000"
 7693      726F745F 
 7693      44697361 
 7693      626C6553 
 7693      6D70754D 
ARM GAS  C:\Users\salaz\AppData\Local\Temp\ccSSnxm1.s 			page 173


 7694              	.LASF49:
 7695 06af 4D533134 		.ascii	"MS14_CTL\000"
 7695      5F43544C 
 7695      00
 7696              	.LASF139:
 7697 06b8 43795F50 		.ascii	"Cy_Prot_EnableSmpuSlaveStruct\000"
 7697      726F745F 
 7697      456E6162 
 7697      6C65536D 
 7697      7075536C 
 7698              	.LASF143:
 7699 06d6 43795F50 		.ascii	"Cy_Prot_EnablePpuProgMasterStruct\000"
 7699      726F745F 
 7699      456E6162 
 7699      6C655070 
 7699      7550726F 
 7700              	.LASF124:
 7701 06f8 43795F50 		.ascii	"Cy_Prot_ConfigBusMaster\000"
 7701      726F745F 
 7701      436F6E66 
 7701      69674275 
 7701      734D6173 
 7702              	.LASF21:
 7703 0710 43505553 		.ascii	"CPUSS_MS_ID_CM4\000"
 7703      535F4D53 
 7703      5F49445F 
 7703      434D3400 
 7704              	.LASF108:
 7705 0720 70726976 		.ascii	"privPermission\000"
 7705      5065726D 
 7705      69737369 
 7705      6F6E00
 7706              	.LASF151:
 7707 072f 43795F50 		.ascii	"Cy_Prot_EnablePpuFixedGrSlaveStruct\000"
 7707      726F745F 
 7707      456E6162 
 7707      6C655070 
 7707      75466978 
 7708              	.LASF98:
 7709 0753 43595F50 		.ascii	"CY_PROT_SIZE_256MB\000"
 7709      524F545F 
 7709      53495A45 
 7709      5F323536 
 7709      4D4200
 7710              	.LASF73:
 7711 0766 43595F50 		.ascii	"CY_PROT_PERM_X\000"
 7711      524F545F 
 7711      5045524D 
 7711      5F5800
 7712              	.LASF133:
 7713 0775 43795F50 		.ascii	"Cy_Prot_EnableMpuStruct\000"
 7713      726F745F 
 7713      456E6162 
 7713      6C654D70 
 7713      75537472 
 7714              	.LASF137:
 7715 078d 43795F50 		.ascii	"Cy_Prot_EnableSmpuMasterStruct\000"
ARM GAS  C:\Users\salaz\AppData\Local\Temp\ccSSnxm1.s 			page 174


 7715      726F745F 
 7715      456E6162 
 7715      6C65536D 
 7715      70754D61 
 7716              	.LASF95:
 7717 07ac 43595F50 		.ascii	"CY_PROT_SIZE_32MB\000"
 7717      524F545F 
 7717      53495A45 
 7717      5F33324D 
 7717      4200
 7718              	.LASF29:
 7719 07be 52455345 		.ascii	"RESERVED1\000"
 7719      52564544 
 7719      3100
 7720              	.LASF117:
 7721 07c8 63795F73 		.ascii	"cy_stc_ppu_sl_cfg_t\000"
 7721      74635F70 
 7721      70755F73 
 7721      6C5F6366 
 7721      675F7400 
 7722              	.LASF109:
 7723 07dc 73656375 		.ascii	"secure\000"
 7723      726500
 7724              	.LASF34:
 7725 07e3 50524F54 		.ascii	"PROT_SMPU_SMPU_STRUCT_Type\000"
 7725      5F534D50 
 7725      555F534D 
 7725      50555F53 
 7725      54525543 
 7726              	.LASF92:
 7727 07fe 43595F50 		.ascii	"CY_PROT_SIZE_4MB\000"
 7727      524F545F 
 7727      53495A45 
 7727      5F344D42 
 7727      00
 7728              	.LASF160:
 7729 080f 43795F50 		.ascii	"Cy_Prot_ConfigPpuFixedRgSlaveStruct\000"
 7729      726F745F 
 7729      436F6E66 
 7729      69675070 
 7729      75466978 
 7730              	.LASF110:
 7731 0833 5F426F6F 		.ascii	"_Bool\000"
 7731      6C00
 7732              	.LASF166:
 7733 0839 433A5C55 		.ascii	"C:\\Users\\salaz\\Desktop\\UART\\UART_debug.cydsn\000"
 7733      73657273 
 7733      5C73616C 
 7733      617A5C44 
 7733      65736B74 
 7734              	.LASF4:
 7735 0866 756E7369 		.ascii	"unsigned char\000"
 7735      676E6564 
 7735      20636861 
 7735      7200
 7736              	.LASF128:
 7737 0874 43795F50 		.ascii	"Cy_Prot_ConfigMpuStruct\000"
ARM GAS  C:\Users\salaz\AppData\Local\Temp\ccSSnxm1.s 			page 175


 7737      726F745F 
 7737      436F6E66 
 7737      69674D70 
 7737      75537472 
 7738              	.LASF46:
 7739 088c 4D533131 		.ascii	"MS11_CTL\000"
 7739      5F43544C 
 7739      00
 7740              	.LASF5:
 7741 0895 73686F72 		.ascii	"short int\000"
 7741      7420696E 
 7741      7400
 7742              	.LASF87:
 7743 089f 43595F50 		.ascii	"CY_PROT_SIZE_128KB\000"
 7743      524F545F 
 7743      53495A45 
 7743      5F313238 
 7743      4B4200
 7744              	.LASF94:
 7745 08b2 43595F50 		.ascii	"CY_PROT_SIZE_16MB\000"
 7745      524F545F 
 7745      53495A45 
 7745      5F31364D 
 7745      4200
 7746              	.LASF154:
 7747 08c4 43795F50 		.ascii	"Cy_Prot_ConfigPpuFixedSlSlaveStruct\000"
 7747      726F745F 
 7747      436F6E66 
 7747      69675070 
 7747      75466978 
 7748              	.LASF47:
 7749 08e8 4D533132 		.ascii	"MS12_CTL\000"
 7749      5F43544C 
 7749      00
 7750              	.LASF38:
 7751 08f1 4D53335F 		.ascii	"MS3_CTL\000"
 7751      43544C00 
 7752              	.LASF103:
 7753 08f9 63795F65 		.ascii	"cy_en_prot_size_t\000"
 7753      6E5F7072 
 7753      6F745F73 
 7753      697A655F 
 7753      7400
 7754              	.LASF152:
 7755 090b 43795F50 		.ascii	"Cy_Prot_DisablePpuFixedGrSlaveStruct\000"
 7755      726F745F 
 7755      44697361 
 7755      626C6550 
 7755      70754669 
 7756              	.LASF90:
 7757 0930 43595F50 		.ascii	"CY_PROT_SIZE_1MB\000"
 7757      524F545F 
 7757      53495A45 
 7757      5F314D42 
 7757      00
 7758              	.LASF140:
 7759 0941 43795F50 		.ascii	"Cy_Prot_DisableSmpuSlaveStruct\000"
ARM GAS  C:\Users\salaz\AppData\Local\Temp\ccSSnxm1.s 			page 176


 7759      726F745F 
 7759      44697361 
 7759      626C6553 
 7759      6D707553 
 7760              	.LASF35:
 7761 0960 4D53305F 		.ascii	"MS0_CTL\000"
 7761      43544C00 
 7762              	.LASF15:
 7763 0968 75696E74 		.ascii	"uint32_t\000"
 7763      33325F74 
 7763      00
 7764              	.LASF159:
 7765 0971 43795F50 		.ascii	"Cy_Prot_ConfigPpuFixedRgMasterStruct\000"
 7765      726F745F 
 7765      436F6E66 
 7765      69675070 
 7765      75466978 
 7766              	.LASF101:
 7767 0996 43595F50 		.ascii	"CY_PROT_SIZE_2GB\000"
 7767      524F545F 
 7767      53495A45 
 7767      5F324742 
 7767      00
 7768              	.LASF2:
 7769 09a7 6C6F6E67 		.ascii	"long double\000"
 7769      20646F75 
 7769      626C6500 
 7770              	.LASF62:
 7771 09b3 63686172 		.ascii	"char\000"
 7771      00
 7772              	.LASF130:
 7773 09b8 636F6E66 		.ascii	"config\000"
 7773      696700
 7774              	.LASF7:
 7775 09bf 5F5F7569 		.ascii	"__uint16_t\000"
 7775      6E743136 
 7775      5F7400
 7776              	.LASF17:
 7777 09ca 43505553 		.ascii	"CPUSS_MS_ID_CM0\000"
 7777      535F4D53 
 7777      5F49445F 
 7777      434D3000 
 7778              	.LASF26:
 7779 09da 52455345 		.ascii	"RESERVED\000"
 7779      52564544 
 7779      00
 7780              	.LASF132:
 7781 09e3 61747452 		.ascii	"attReg\000"
 7781      656700
 7782              	.LASF114:
 7783 09ea 63795F73 		.ascii	"cy_stc_smpu_cfg_t\000"
 7783      74635F73 
 7783      6D70755F 
 7783      6366675F 
 7783      7400
 7784              	.LASF51:
 7785 09fc 534D5055 		.ascii	"SMPU_STRUCT\000"
ARM GAS  C:\Users\salaz\AppData\Local\Temp\ccSSnxm1.s 			page 177


 7785      5F535452 
 7785      55435400 
 7786              	.LASF150:
 7787 0a08 43795F50 		.ascii	"Cy_Prot_DisablePpuFixedGrMasterStruct\000"
 7787      726F745F 
 7787      44697361 
 7787      626C6550 
 7787      70754669 
 7788              	.LASF67:
 7789 0a2e 43595F50 		.ascii	"CY_PROT_FAILURE\000"
 7789      524F545F 
 7789      4641494C 
 7789      55524500 
 7790              	.LASF43:
 7791 0a3e 4D53385F 		.ascii	"MS8_CTL\000"
 7791      43544C00 
 7792              	.LASF52:
 7793 0a46 50524F54 		.ascii	"PROT_SMPU_Type\000"
 7793      5F534D50 
 7793      555F5479 
 7793      706500
 7794              	.LASF20:
 7795 0a55 43505553 		.ascii	"CPUSS_MS_ID_DW1\000"
 7795      535F4D53 
 7795      5F49445F 
 7795      44573100 
 7796              	.LASF28:
 7797 0a65 41545431 		.ascii	"ATT1\000"
 7797      00
 7798              	.LASF72:
 7799 0a6a 43595F50 		.ascii	"CY_PROT_PERM_RW\000"
 7799      524F545F 
 7799      5045524D 
 7799      5F525700 
 7800              	.LASF74:
 7801 0a7a 43595F50 		.ascii	"CY_PROT_PERM_RX\000"
 7801      524F545F 
 7801      5045524D 
 7801      5F525800 
 7802              	.LASF30:
 7803 0a8a 50455249 		.ascii	"PERI_PPU_PR_Type\000"
 7803      5F505055 
 7803      5F50525F 
 7803      54797065 
 7803      00
 7804              	.LASF144:
 7805 0a9b 43795F50 		.ascii	"Cy_Prot_DisablePpuProgMasterStruct\000"
 7805      726F745F 
 7805      44697361 
 7805      626C6550 
 7805      70755072 
 7806              	.LASF40:
 7807 0abe 4D53355F 		.ascii	"MS5_CTL\000"
 7807      43544C00 
 7808              	.LASF121:
 7809 0ac6 73746174 		.ascii	"status\000"
 7809      757300
ARM GAS  C:\Users\salaz\AppData\Local\Temp\ccSSnxm1.s 			page 178


 7810              	.LASF96:
 7811 0acd 43595F50 		.ascii	"CY_PROT_SIZE_64MB\000"
 7811      524F545F 
 7811      53495A45 
 7811      5F36344D 
 7811      4200
 7812              	.LASF13:
 7813 0adf 75696E74 		.ascii	"uint8_t\000"
 7813      385F7400 
 7814              	.LASF82:
 7815 0ae7 43595F50 		.ascii	"CY_PROT_SIZE_4KB\000"
 7815      524F545F 
 7815      53495A45 
 7815      5F344B42 
 7815      00
 7816              	.LASF48:
 7817 0af8 4D533133 		.ascii	"MS13_CTL\000"
 7817      5F43544C 
 7817      00
 7818              	.LASF123:
 7819 0b01 61646472 		.ascii	"addrMsCtl\000"
 7819      4D734374 
 7819      6C00
 7820              	.LASF63:
 7821 0b0b 666C6F61 		.ascii	"float\000"
 7821      7400
 7822              	.LASF16:
 7823 0b11 73697A65 		.ascii	"sizetype\000"
 7823      74797065 
 7823      00
 7824              	.LASF19:
 7825 0b1a 43505553 		.ascii	"CPUSS_MS_ID_DW0\000"
 7825      535F4D53 
 7825      5F49445F 
 7825      44573000 
 7826              	.LASF100:
 7827 0b2a 43595F50 		.ascii	"CY_PROT_SIZE_1GB\000"
 7827      524F545F 
 7827      53495A45 
 7827      5F314742 
 7827      00
 7828              	.LASF99:
 7829 0b3b 43595F50 		.ascii	"CY_PROT_SIZE_512MB\000"
 7829      524F545F 
 7829      53495A45 
 7829      5F353132 
 7829      4D4200
 7830              	.LASF97:
 7831 0b4e 43595F50 		.ascii	"CY_PROT_SIZE_128MB\000"
 7831      524F545F 
 7831      53495A45 
 7831      5F313238 
 7831      4D4200
 7832              	.LASF77:
 7833 0b61 63795F65 		.ascii	"cy_en_prot_perm_t\000"
 7833      6E5F7072 
 7833      6F745F70 
ARM GAS  C:\Users\salaz\AppData\Local\Temp\ccSSnxm1.s 			page 179


 7833      65726D5F 
 7833      7400
 7834              	.LASF106:
 7835 0b73 73756272 		.ascii	"subregions\000"
 7835      6567696F 
 7835      6E7300
 7836              	.LASF145:
 7837 0b7e 43795F50 		.ascii	"Cy_Prot_EnablePpuProgSlaveStruct\000"
 7837      726F745F 
 7837      456E6162 
 7837      6C655070 
 7837      7550726F 
 7838              	.LASF147:
 7839 0b9f 43795F50 		.ascii	"Cy_Prot_ConfigPpuFixedGrMasterStruct\000"
 7839      726F745F 
 7839      436F6E66 
 7839      69675070 
 7839      75466978 
 7840              	.LASF146:
 7841 0bc4 43795F50 		.ascii	"Cy_Prot_DisablePpuProgSlaveStruct\000"
 7841      726F745F 
 7841      44697361 
 7841      626C6550 
 7841      70755072 
 7842              	.LASF22:
 7843 0be6 43505553 		.ascii	"CPUSS_MS_ID_TC\000"
 7843      535F4D53 
 7843      5F49445F 
 7843      544300
 7844              	.LASF37:
 7845 0bf5 4D53325F 		.ascii	"MS2_CTL\000"
 7845      43544C00 
 7846              	.LASF153:
 7847 0bfd 43795F50 		.ascii	"Cy_Prot_ConfigPpuFixedSlMasterStruct\000"
 7847      726F745F 
 7847      436F6E66 
 7847      69675070 
 7847      75466978 
 7848              	.LASF105:
 7849 0c22 72656769 		.ascii	"regionSize\000"
 7849      6F6E5369 
 7849      7A6500
 7850              	.LASF112:
 7851 0c2d 70634D61 		.ascii	"pcMatch\000"
 7851      74636800 
 7852              	.LASF33:
 7853 0c35 50455249 		.ascii	"PERI_GR_PPU_RG_Type\000"
 7853      5F47525F 
 7853      5050555F 
 7853      52475F54 
 7853      79706500 
 7854              		.ident	"GCC: (GNU Tools for ARM Embedded Processors) 5.4.1 20160609 (release) [ARM/embedded-5-bran
