ARM GAS  C:\Users\salaz\AppData\Local\Temp\ccgxiCjI.s 			page 1


   1              		.syntax unified
   2              		.cpu cortex-m0plus
   3              		.fpu softvfp
   4              		.eabi_attribute 20, 1
   5              		.eabi_attribute 21, 1
   6              		.eabi_attribute 23, 3
   7              		.eabi_attribute 24, 1
   8              		.eabi_attribute 25, 1
   9              		.eabi_attribute 26, 1
  10              		.eabi_attribute 30, 6
  11              		.eabi_attribute 34, 0
  12              		.eabi_attribute 18, 4
  13              		.thumb
  14              		.syntax unified
  15              		.file	"cy_systick.c"
  16              		.text
  17              	.Ltext0:
  18              		.cfi_sections	.debug_frame
  19              		.section	.text.Cy_SysTick_EnableInterrupt,"ax",%progbits
  20              		.align	2
  21              		.code	16
  22              		.thumb_func
  23              		.type	Cy_SysTick_EnableInterrupt, %function
  24              	Cy_SysTick_EnableInterrupt:
  25              	.LFB36:
  26              		.file 1 "Generated_Source\\PSoC6\\pdl\\drivers\\peripheral\\systick\\cy_systick.h"
   1:Generated_Source\PSoC6\pdl\drivers\peripheral\systick/cy_systick.h **** /***************************************************************************//**
   2:Generated_Source\PSoC6\pdl\drivers\peripheral\systick/cy_systick.h **** * \file cy_systick.h
   3:Generated_Source\PSoC6\pdl\drivers\peripheral\systick/cy_systick.h **** * \version 1.0.1
   4:Generated_Source\PSoC6\pdl\drivers\peripheral\systick/cy_systick.h **** *
   5:Generated_Source\PSoC6\pdl\drivers\peripheral\systick/cy_systick.h **** * Provides the API declarations of the SysTick driver.
   6:Generated_Source\PSoC6\pdl\drivers\peripheral\systick/cy_systick.h **** *
   7:Generated_Source\PSoC6\pdl\drivers\peripheral\systick/cy_systick.h **** ********************************************************************************
   8:Generated_Source\PSoC6\pdl\drivers\peripheral\systick/cy_systick.h **** * \copyright
   9:Generated_Source\PSoC6\pdl\drivers\peripheral\systick/cy_systick.h **** * Copyright 2016-2018, Cypress Semiconductor Corporation.  All rights reserved.
  10:Generated_Source\PSoC6\pdl\drivers\peripheral\systick/cy_systick.h **** * You may use this file only in accordance with the license, terms, conditions,
  11:Generated_Source\PSoC6\pdl\drivers\peripheral\systick/cy_systick.h **** * disclaimers, and limitations in the end user license agreement accompanying
  12:Generated_Source\PSoC6\pdl\drivers\peripheral\systick/cy_systick.h **** * the software package with which this file was provided.
  13:Generated_Source\PSoC6\pdl\drivers\peripheral\systick/cy_systick.h **** *******************************************************************************/
  14:Generated_Source\PSoC6\pdl\drivers\peripheral\systick/cy_systick.h **** 
  15:Generated_Source\PSoC6\pdl\drivers\peripheral\systick/cy_systick.h **** #ifndef _CY_SYSTICK_H_
  16:Generated_Source\PSoC6\pdl\drivers\peripheral\systick/cy_systick.h **** #define _CY_SYSTICK_H_
  17:Generated_Source\PSoC6\pdl\drivers\peripheral\systick/cy_systick.h **** 
  18:Generated_Source\PSoC6\pdl\drivers\peripheral\systick/cy_systick.h **** /**
  19:Generated_Source\PSoC6\pdl\drivers\peripheral\systick/cy_systick.h **** * \defgroup group_arm_system_timer ARM System Timer (SysTick)
  20:Generated_Source\PSoC6\pdl\drivers\peripheral\systick/cy_systick.h **** * \{
  21:Generated_Source\PSoC6\pdl\drivers\peripheral\systick/cy_systick.h **** * Provides vendor-specific SysTick API.
  22:Generated_Source\PSoC6\pdl\drivers\peripheral\systick/cy_systick.h **** *
  23:Generated_Source\PSoC6\pdl\drivers\peripheral\systick/cy_systick.h **** * The SysTick timer is part of the CPU. The timer is a down counter with a 24-bit reload/tick value
  24:Generated_Source\PSoC6\pdl\drivers\peripheral\systick/cy_systick.h **** * the FastClk/SlowClk. The timer has the capability to generate an interrupt when the set number of
  25:Generated_Source\PSoC6\pdl\drivers\peripheral\systick/cy_systick.h **** * the counter is reloaded. This interrupt is available as part of the Nested Vectored Interrupt Con
  26:Generated_Source\PSoC6\pdl\drivers\peripheral\systick/cy_systick.h **** * service by the CPU and can be used for general-purpose timing control in user code.
  27:Generated_Source\PSoC6\pdl\drivers\peripheral\systick/cy_systick.h **** *
  28:Generated_Source\PSoC6\pdl\drivers\peripheral\systick/cy_systick.h **** * The timer is independent of the CPU (except for the clock), which is useful in applications requi
  29:Generated_Source\PSoC6\pdl\drivers\peripheral\systick/cy_systick.h **** * precise timing that do not have a dedicated timer/counter available for the job.
  30:Generated_Source\PSoC6\pdl\drivers\peripheral\systick/cy_systick.h **** *
  31:Generated_Source\PSoC6\pdl\drivers\peripheral\systick/cy_systick.h **** * \section group_systick_configuration Configuration Considerations
ARM GAS  C:\Users\salaz\AppData\Local\Temp\ccgxiCjI.s 			page 2


  32:Generated_Source\PSoC6\pdl\drivers\peripheral\systick/cy_systick.h **** *
  33:Generated_Source\PSoC6\pdl\drivers\peripheral\systick/cy_systick.h **** * The \ref Cy_SysTick_Init() performs all required driver's initialization and enables the timer. T
  34:Generated_Source\PSoC6\pdl\drivers\peripheral\systick/cy_systick.h **** * two parameters: clock source \ref cy_en_systick_clock_source_t and the timer interval. You must e
  35:Generated_Source\PSoC6\pdl\drivers\peripheral\systick/cy_systick.h **** * the selected clock source for SysTick is enabled.
  36:Generated_Source\PSoC6\pdl\drivers\peripheral\systick/cy_systick.h **** * The callbacks can be registered/unregistered any time after \ref Cy_SysTick_Init() by calling
  37:Generated_Source\PSoC6\pdl\drivers\peripheral\systick/cy_systick.h **** * \ref Cy_SysTick_SetCallback().
  38:Generated_Source\PSoC6\pdl\drivers\peripheral\systick/cy_systick.h **** *
  39:Generated_Source\PSoC6\pdl\drivers\peripheral\systick/cy_systick.h **** * Changing the SysTick clock source and/or its frequency will change the interrupt interval and the
  40:Generated_Source\PSoC6\pdl\drivers\peripheral\systick/cy_systick.h **** * \ref Cy_SysTick_SetReload() should be called to compensate for this change.
  41:Generated_Source\PSoC6\pdl\drivers\peripheral\systick/cy_systick.h **** *
  42:Generated_Source\PSoC6\pdl\drivers\peripheral\systick/cy_systick.h **** * \section group_systick_more_information More Information
  43:Generated_Source\PSoC6\pdl\drivers\peripheral\systick/cy_systick.h **** *
  44:Generated_Source\PSoC6\pdl\drivers\peripheral\systick/cy_systick.h **** * Refer to the SysTick section of the ARM reference guide for complete details on the registers and
  45:Generated_Source\PSoC6\pdl\drivers\peripheral\systick/cy_systick.h **** * See also the "CPU Subsystem (CPUSS)" chapter of the device technical reference manual (TRM).
  46:Generated_Source\PSoC6\pdl\drivers\peripheral\systick/cy_systick.h **** *
  47:Generated_Source\PSoC6\pdl\drivers\peripheral\systick/cy_systick.h **** * \section group_systick_MISRA MISRA-C Compliance
  48:Generated_Source\PSoC6\pdl\drivers\peripheral\systick/cy_systick.h **** *
  49:Generated_Source\PSoC6\pdl\drivers\peripheral\systick/cy_systick.h **** * <table class="doxtable">
  50:Generated_Source\PSoC6\pdl\drivers\peripheral\systick/cy_systick.h **** *   <tr>
  51:Generated_Source\PSoC6\pdl\drivers\peripheral\systick/cy_systick.h **** *       <th>MISRA Rule</th>
  52:Generated_Source\PSoC6\pdl\drivers\peripheral\systick/cy_systick.h **** *       <th>Rule Class (Required/Advisory)</th>
  53:Generated_Source\PSoC6\pdl\drivers\peripheral\systick/cy_systick.h **** *       <th>Rule Description</th>
  54:Generated_Source\PSoC6\pdl\drivers\peripheral\systick/cy_systick.h **** *       <th>Description of Deviation(s)</th>
  55:Generated_Source\PSoC6\pdl\drivers\peripheral\systick/cy_systick.h **** *   </tr>
  56:Generated_Source\PSoC6\pdl\drivers\peripheral\systick/cy_systick.h **** *   <tr>
  57:Generated_Source\PSoC6\pdl\drivers\peripheral\systick/cy_systick.h **** *       <td>8.12</td>
  58:Generated_Source\PSoC6\pdl\drivers\peripheral\systick/cy_systick.h **** *       <td>Required</td>
  59:Generated_Source\PSoC6\pdl\drivers\peripheral\systick/cy_systick.h **** *       <td>When an array is declared with external linkage, its size shall be
  60:Generated_Source\PSoC6\pdl\drivers\peripheral\systick/cy_systick.h **** *           stated explicitly or defined implicitly by initialization.</td>
  61:Generated_Source\PSoC6\pdl\drivers\peripheral\systick/cy_systick.h **** *       <td>The warning is related to the __ramVectors symbol defined in the assembly startup code.
  62:Generated_Source\PSoC6\pdl\drivers\peripheral\systick/cy_systick.h **** *           It's size is device-specific and unknown to the SysTick driver.</td>
  63:Generated_Source\PSoC6\pdl\drivers\peripheral\systick/cy_systick.h **** *   </tr>
  64:Generated_Source\PSoC6\pdl\drivers\peripheral\systick/cy_systick.h **** * </table>
  65:Generated_Source\PSoC6\pdl\drivers\peripheral\systick/cy_systick.h **** *
  66:Generated_Source\PSoC6\pdl\drivers\peripheral\systick/cy_systick.h **** * \section group_systick_changelog Changelog
  67:Generated_Source\PSoC6\pdl\drivers\peripheral\systick/cy_systick.h **** *
  68:Generated_Source\PSoC6\pdl\drivers\peripheral\systick/cy_systick.h **** * <table class="doxtable">
  69:Generated_Source\PSoC6\pdl\drivers\peripheral\systick/cy_systick.h **** * <tr><th>Version</th><th>Changes</th><th>Reason for Change</th></tr>
  70:Generated_Source\PSoC6\pdl\drivers\peripheral\systick/cy_systick.h **** * <tr>
  71:Generated_Source\PSoC6\pdl\drivers\peripheral\systick/cy_systick.h **** * <td>1.0.1</td>
  72:Generated_Source\PSoC6\pdl\drivers\peripheral\systick/cy_systick.h **** * <td>Fixed a warning issued when the compilation of C++ source code was
  73:Generated_Source\PSoC6\pdl\drivers\peripheral\systick/cy_systick.h **** *     enabled.</td> 
  74:Generated_Source\PSoC6\pdl\drivers\peripheral\systick/cy_systick.h **** * <td></td>
  75:Generated_Source\PSoC6\pdl\drivers\peripheral\systick/cy_systick.h **** * </tr>
  76:Generated_Source\PSoC6\pdl\drivers\peripheral\systick/cy_systick.h **** * <tr>
  77:Generated_Source\PSoC6\pdl\drivers\peripheral\systick/cy_systick.h **** * <td>1.0</td>
  78:Generated_Source\PSoC6\pdl\drivers\peripheral\systick/cy_systick.h **** * <td>Initial version</td>
  79:Generated_Source\PSoC6\pdl\drivers\peripheral\systick/cy_systick.h **** * <td></td>
  80:Generated_Source\PSoC6\pdl\drivers\peripheral\systick/cy_systick.h **** * </tr>
  81:Generated_Source\PSoC6\pdl\drivers\peripheral\systick/cy_systick.h **** * </table>
  82:Generated_Source\PSoC6\pdl\drivers\peripheral\systick/cy_systick.h **** *
  83:Generated_Source\PSoC6\pdl\drivers\peripheral\systick/cy_systick.h **** * \defgroup group_systick_macros Macros
  84:Generated_Source\PSoC6\pdl\drivers\peripheral\systick/cy_systick.h **** * \defgroup group_systick_functions Functions
  85:Generated_Source\PSoC6\pdl\drivers\peripheral\systick/cy_systick.h **** * \defgroup group_systick_data_structures Data Structures
  86:Generated_Source\PSoC6\pdl\drivers\peripheral\systick/cy_systick.h **** */
  87:Generated_Source\PSoC6\pdl\drivers\peripheral\systick/cy_systick.h **** 
  88:Generated_Source\PSoC6\pdl\drivers\peripheral\systick/cy_systick.h **** #include <stdint.h>
ARM GAS  C:\Users\salaz\AppData\Local\Temp\ccgxiCjI.s 			page 3


  89:Generated_Source\PSoC6\pdl\drivers\peripheral\systick/cy_systick.h **** #include "syslib/cy_syslib.h"
  90:Generated_Source\PSoC6\pdl\drivers\peripheral\systick/cy_systick.h **** 
  91:Generated_Source\PSoC6\pdl\drivers\peripheral\systick/cy_systick.h **** #ifdef __cplusplus
  92:Generated_Source\PSoC6\pdl\drivers\peripheral\systick/cy_systick.h **** extern "C" {
  93:Generated_Source\PSoC6\pdl\drivers\peripheral\systick/cy_systick.h **** #endif
  94:Generated_Source\PSoC6\pdl\drivers\peripheral\systick/cy_systick.h **** 
  95:Generated_Source\PSoC6\pdl\drivers\peripheral\systick/cy_systick.h **** /** \cond */
  96:Generated_Source\PSoC6\pdl\drivers\peripheral\systick/cy_systick.h **** extern cy_israddress __ramVectors[];
  97:Generated_Source\PSoC6\pdl\drivers\peripheral\systick/cy_systick.h **** typedef void (*Cy_SysTick_Callback)(void);
  98:Generated_Source\PSoC6\pdl\drivers\peripheral\systick/cy_systick.h **** /** \endcond */
  99:Generated_Source\PSoC6\pdl\drivers\peripheral\systick/cy_systick.h **** 
 100:Generated_Source\PSoC6\pdl\drivers\peripheral\systick/cy_systick.h **** /**
 101:Generated_Source\PSoC6\pdl\drivers\peripheral\systick/cy_systick.h **** * \addtogroup group_systick_data_structures
 102:Generated_Source\PSoC6\pdl\drivers\peripheral\systick/cy_systick.h **** * \{
 103:Generated_Source\PSoC6\pdl\drivers\peripheral\systick/cy_systick.h **** */
 104:Generated_Source\PSoC6\pdl\drivers\peripheral\systick/cy_systick.h **** /** SysTick clocks sources */
 105:Generated_Source\PSoC6\pdl\drivers\peripheral\systick/cy_systick.h **** typedef enum
 106:Generated_Source\PSoC6\pdl\drivers\peripheral\systick/cy_systick.h **** {
 107:Generated_Source\PSoC6\pdl\drivers\peripheral\systick/cy_systick.h ****     CY_SYSTICK_CLOCK_SOURCE_CLK_LF    = 0u,     /**< The low frequency clock clk_lf is selected. */
 108:Generated_Source\PSoC6\pdl\drivers\peripheral\systick/cy_systick.h ****     CY_SYSTICK_CLOCK_SOURCE_CLK_IMO   = 1u,     /**< The internal main oscillator (IMO) clock clk_i
 109:Generated_Source\PSoC6\pdl\drivers\peripheral\systick/cy_systick.h ****     CY_SYSTICK_CLOCK_SOURCE_CLK_ECO   = 2u,     /**< The external crystal oscillator (ECO) clock cl
 110:Generated_Source\PSoC6\pdl\drivers\peripheral\systick/cy_systick.h ****     CY_SYSTICK_CLOCK_SOURCE_CLK_TIMER = 3u,     /**< The SRSS clk_timer is selected. */
 111:Generated_Source\PSoC6\pdl\drivers\peripheral\systick/cy_systick.h ****     CY_SYSTICK_CLOCK_SOURCE_CLK_CPU   = 4u,     /**< The CPU clock is selected. */
 112:Generated_Source\PSoC6\pdl\drivers\peripheral\systick/cy_systick.h **** } cy_en_systick_clock_source_t;
 113:Generated_Source\PSoC6\pdl\drivers\peripheral\systick/cy_systick.h **** 
 114:Generated_Source\PSoC6\pdl\drivers\peripheral\systick/cy_systick.h **** /** \} group_systick_data_structures */
 115:Generated_Source\PSoC6\pdl\drivers\peripheral\systick/cy_systick.h **** 
 116:Generated_Source\PSoC6\pdl\drivers\peripheral\systick/cy_systick.h **** 
 117:Generated_Source\PSoC6\pdl\drivers\peripheral\systick/cy_systick.h **** /**
 118:Generated_Source\PSoC6\pdl\drivers\peripheral\systick/cy_systick.h **** * \addtogroup group_systick_functions
 119:Generated_Source\PSoC6\pdl\drivers\peripheral\systick/cy_systick.h **** * \{
 120:Generated_Source\PSoC6\pdl\drivers\peripheral\systick/cy_systick.h **** */
 121:Generated_Source\PSoC6\pdl\drivers\peripheral\systick/cy_systick.h **** 
 122:Generated_Source\PSoC6\pdl\drivers\peripheral\systick/cy_systick.h **** void Cy_SysTick_Init(cy_en_systick_clock_source_t clockSource, uint32_t interval);
 123:Generated_Source\PSoC6\pdl\drivers\peripheral\systick/cy_systick.h **** void Cy_SysTick_Enable(void);
 124:Generated_Source\PSoC6\pdl\drivers\peripheral\systick/cy_systick.h **** void Cy_SysTick_Disable(void);
 125:Generated_Source\PSoC6\pdl\drivers\peripheral\systick/cy_systick.h **** Cy_SysTick_Callback Cy_SysTick_SetCallback(uint32_t number, Cy_SysTick_Callback function);
 126:Generated_Source\PSoC6\pdl\drivers\peripheral\systick/cy_systick.h **** Cy_SysTick_Callback Cy_SysTick_GetCallback(uint32_t number);
 127:Generated_Source\PSoC6\pdl\drivers\peripheral\systick/cy_systick.h **** void Cy_SysTick_SetClockSource(cy_en_systick_clock_source_t clockSource);
 128:Generated_Source\PSoC6\pdl\drivers\peripheral\systick/cy_systick.h **** cy_en_systick_clock_source_t Cy_SysTick_GetClockSource(void);
 129:Generated_Source\PSoC6\pdl\drivers\peripheral\systick/cy_systick.h **** __STATIC_INLINE void Cy_SysTick_EnableInterrupt(void);
 130:Generated_Source\PSoC6\pdl\drivers\peripheral\systick/cy_systick.h **** __STATIC_INLINE void Cy_SysTick_DisableInterrupt(void);
 131:Generated_Source\PSoC6\pdl\drivers\peripheral\systick/cy_systick.h **** __STATIC_INLINE void Cy_SysTick_SetReload(uint32_t value);
 132:Generated_Source\PSoC6\pdl\drivers\peripheral\systick/cy_systick.h **** __STATIC_INLINE uint32_t Cy_SysTick_GetReload(void);
 133:Generated_Source\PSoC6\pdl\drivers\peripheral\systick/cy_systick.h **** __STATIC_INLINE uint32_t Cy_SysTick_GetValue(void);
 134:Generated_Source\PSoC6\pdl\drivers\peripheral\systick/cy_systick.h **** __STATIC_INLINE uint32_t Cy_SysTick_GetCountFlag(void);
 135:Generated_Source\PSoC6\pdl\drivers\peripheral\systick/cy_systick.h **** __STATIC_INLINE void Cy_SysTick_Clear(void);
 136:Generated_Source\PSoC6\pdl\drivers\peripheral\systick/cy_systick.h **** 
 137:Generated_Source\PSoC6\pdl\drivers\peripheral\systick/cy_systick.h **** /** \} group_systick_functions */
 138:Generated_Source\PSoC6\pdl\drivers\peripheral\systick/cy_systick.h **** 
 139:Generated_Source\PSoC6\pdl\drivers\peripheral\systick/cy_systick.h **** 
 140:Generated_Source\PSoC6\pdl\drivers\peripheral\systick/cy_systick.h **** /**
 141:Generated_Source\PSoC6\pdl\drivers\peripheral\systick/cy_systick.h **** * \addtogroup group_systick_macros
 142:Generated_Source\PSoC6\pdl\drivers\peripheral\systick/cy_systick.h **** * \{
 143:Generated_Source\PSoC6\pdl\drivers\peripheral\systick/cy_systick.h **** */
 144:Generated_Source\PSoC6\pdl\drivers\peripheral\systick/cy_systick.h **** 
 145:Generated_Source\PSoC6\pdl\drivers\peripheral\systick/cy_systick.h **** /** Driver major version */
ARM GAS  C:\Users\salaz\AppData\Local\Temp\ccgxiCjI.s 			page 4


 146:Generated_Source\PSoC6\pdl\drivers\peripheral\systick/cy_systick.h **** #define SYSTICK_DRV_VERSION_MAJOR       1
 147:Generated_Source\PSoC6\pdl\drivers\peripheral\systick/cy_systick.h **** 
 148:Generated_Source\PSoC6\pdl\drivers\peripheral\systick/cy_systick.h **** /** Driver minor version */
 149:Generated_Source\PSoC6\pdl\drivers\peripheral\systick/cy_systick.h **** #define SYSTICK_DRV_VERSION_MINOR       0
 150:Generated_Source\PSoC6\pdl\drivers\peripheral\systick/cy_systick.h **** 
 151:Generated_Source\PSoC6\pdl\drivers\peripheral\systick/cy_systick.h **** /** Number of the callbacks assigned to the SysTick interrupt */
 152:Generated_Source\PSoC6\pdl\drivers\peripheral\systick/cy_systick.h **** #define CY_SYS_SYST_NUM_OF_CALLBACKS         (5u)
 153:Generated_Source\PSoC6\pdl\drivers\peripheral\systick/cy_systick.h **** 
 154:Generated_Source\PSoC6\pdl\drivers\peripheral\systick/cy_systick.h **** /** \} group_systick_macros */
 155:Generated_Source\PSoC6\pdl\drivers\peripheral\systick/cy_systick.h **** 
 156:Generated_Source\PSoC6\pdl\drivers\peripheral\systick/cy_systick.h **** 
 157:Generated_Source\PSoC6\pdl\drivers\peripheral\systick/cy_systick.h **** /** \cond */
 158:Generated_Source\PSoC6\pdl\drivers\peripheral\systick/cy_systick.h **** /** Interrupt number in the vector table */
 159:Generated_Source\PSoC6\pdl\drivers\peripheral\systick/cy_systick.h **** #define CY_SYSTICK_IRQ_NUM                   (15u)
 160:Generated_Source\PSoC6\pdl\drivers\peripheral\systick/cy_systick.h **** /** \endcond */
 161:Generated_Source\PSoC6\pdl\drivers\peripheral\systick/cy_systick.h **** 
 162:Generated_Source\PSoC6\pdl\drivers\peripheral\systick/cy_systick.h **** /**
 163:Generated_Source\PSoC6\pdl\drivers\peripheral\systick/cy_systick.h **** * \addtogroup group_systick_functions
 164:Generated_Source\PSoC6\pdl\drivers\peripheral\systick/cy_systick.h **** * \{
 165:Generated_Source\PSoC6\pdl\drivers\peripheral\systick/cy_systick.h **** */
 166:Generated_Source\PSoC6\pdl\drivers\peripheral\systick/cy_systick.h **** 
 167:Generated_Source\PSoC6\pdl\drivers\peripheral\systick/cy_systick.h **** /*******************************************************************************
 168:Generated_Source\PSoC6\pdl\drivers\peripheral\systick/cy_systick.h **** * Function Name: Cy_SysTick_EnableInterrupt
 169:Generated_Source\PSoC6\pdl\drivers\peripheral\systick/cy_systick.h **** ****************************************************************************//**
 170:Generated_Source\PSoC6\pdl\drivers\peripheral\systick/cy_systick.h **** *
 171:Generated_Source\PSoC6\pdl\drivers\peripheral\systick/cy_systick.h **** * Enables the SysTick interrupt.
 172:Generated_Source\PSoC6\pdl\drivers\peripheral\systick/cy_systick.h **** *
 173:Generated_Source\PSoC6\pdl\drivers\peripheral\systick/cy_systick.h **** * \sideeffect Clears the SysTick count flag if it was set
 174:Generated_Source\PSoC6\pdl\drivers\peripheral\systick/cy_systick.h **** *
 175:Generated_Source\PSoC6\pdl\drivers\peripheral\systick/cy_systick.h **** *******************************************************************************/
 176:Generated_Source\PSoC6\pdl\drivers\peripheral\systick/cy_systick.h **** __STATIC_INLINE void Cy_SysTick_EnableInterrupt(void)
 177:Generated_Source\PSoC6\pdl\drivers\peripheral\systick/cy_systick.h **** {
  27              		.loc 1 177 0
  28              		.cfi_startproc
  29              		@ args = 0, pretend = 0, frame = 0
  30              		@ frame_needed = 1, uses_anonymous_args = 0
  31 0000 80B5     		push	{r7, lr}
  32              		.cfi_def_cfa_offset 8
  33              		.cfi_offset 7, -8
  34              		.cfi_offset 14, -4
  35 0002 00AF     		add	r7, sp, #0
  36              		.cfi_def_cfa_register 7
 178:Generated_Source\PSoC6\pdl\drivers\peripheral\systick/cy_systick.h ****     SysTick->CTRL = SysTick->CTRL | SysTick_CTRL_TICKINT_Msk;
  37              		.loc 1 178 0
  38 0004 044B     		ldr	r3, .L2
  39 0006 044A     		ldr	r2, .L2
  40 0008 1268     		ldr	r2, [r2]
  41 000a 0221     		movs	r1, #2
  42 000c 0A43     		orrs	r2, r1
  43 000e 1A60     		str	r2, [r3]
 179:Generated_Source\PSoC6\pdl\drivers\peripheral\systick/cy_systick.h **** }
  44              		.loc 1 179 0
  45 0010 C046     		nop
  46 0012 BD46     		mov	sp, r7
  47              		@ sp needed
  48 0014 80BD     		pop	{r7, pc}
  49              	.L3:
ARM GAS  C:\Users\salaz\AppData\Local\Temp\ccgxiCjI.s 			page 5


  50 0016 C046     		.align	2
  51              	.L2:
  52 0018 10E000E0 		.word	-536813552
  53              		.cfi_endproc
  54              	.LFE36:
  55              		.size	Cy_SysTick_EnableInterrupt, .-Cy_SysTick_EnableInterrupt
  56              		.section	.text.Cy_SysTick_DisableInterrupt,"ax",%progbits
  57              		.align	2
  58              		.code	16
  59              		.thumb_func
  60              		.type	Cy_SysTick_DisableInterrupt, %function
  61              	Cy_SysTick_DisableInterrupt:
  62              	.LFB37:
 180:Generated_Source\PSoC6\pdl\drivers\peripheral\systick/cy_systick.h **** 
 181:Generated_Source\PSoC6\pdl\drivers\peripheral\systick/cy_systick.h **** 
 182:Generated_Source\PSoC6\pdl\drivers\peripheral\systick/cy_systick.h **** /*******************************************************************************
 183:Generated_Source\PSoC6\pdl\drivers\peripheral\systick/cy_systick.h **** * Function Name: Cy_SysTick_DisableInterrupt
 184:Generated_Source\PSoC6\pdl\drivers\peripheral\systick/cy_systick.h **** ****************************************************************************//**
 185:Generated_Source\PSoC6\pdl\drivers\peripheral\systick/cy_systick.h **** *
 186:Generated_Source\PSoC6\pdl\drivers\peripheral\systick/cy_systick.h **** * Disables the SysTick interrupt.
 187:Generated_Source\PSoC6\pdl\drivers\peripheral\systick/cy_systick.h **** *
 188:Generated_Source\PSoC6\pdl\drivers\peripheral\systick/cy_systick.h **** * \sideeffect Clears the SysTick count flag if it was set
 189:Generated_Source\PSoC6\pdl\drivers\peripheral\systick/cy_systick.h **** *
 190:Generated_Source\PSoC6\pdl\drivers\peripheral\systick/cy_systick.h **** *******************************************************************************/
 191:Generated_Source\PSoC6\pdl\drivers\peripheral\systick/cy_systick.h **** __STATIC_INLINE void Cy_SysTick_DisableInterrupt(void)
 192:Generated_Source\PSoC6\pdl\drivers\peripheral\systick/cy_systick.h **** {
  63              		.loc 1 192 0
  64              		.cfi_startproc
  65              		@ args = 0, pretend = 0, frame = 0
  66              		@ frame_needed = 1, uses_anonymous_args = 0
  67 0000 80B5     		push	{r7, lr}
  68              		.cfi_def_cfa_offset 8
  69              		.cfi_offset 7, -8
  70              		.cfi_offset 14, -4
  71 0002 00AF     		add	r7, sp, #0
  72              		.cfi_def_cfa_register 7
 193:Generated_Source\PSoC6\pdl\drivers\peripheral\systick/cy_systick.h ****     SysTick->CTRL = SysTick->CTRL & ~SysTick_CTRL_TICKINT_Msk;
  73              		.loc 1 193 0
  74 0004 044B     		ldr	r3, .L5
  75 0006 044A     		ldr	r2, .L5
  76 0008 1268     		ldr	r2, [r2]
  77 000a 0221     		movs	r1, #2
  78 000c 8A43     		bics	r2, r1
  79 000e 1A60     		str	r2, [r3]
 194:Generated_Source\PSoC6\pdl\drivers\peripheral\systick/cy_systick.h **** }
  80              		.loc 1 194 0
  81 0010 C046     		nop
  82 0012 BD46     		mov	sp, r7
  83              		@ sp needed
  84 0014 80BD     		pop	{r7, pc}
  85              	.L6:
  86 0016 C046     		.align	2
  87              	.L5:
  88 0018 10E000E0 		.word	-536813552
  89              		.cfi_endproc
  90              	.LFE37:
  91              		.size	Cy_SysTick_DisableInterrupt, .-Cy_SysTick_DisableInterrupt
ARM GAS  C:\Users\salaz\AppData\Local\Temp\ccgxiCjI.s 			page 6


  92              		.section	.text.Cy_SysTick_SetReload,"ax",%progbits
  93              		.align	2
  94              		.code	16
  95              		.thumb_func
  96              		.type	Cy_SysTick_SetReload, %function
  97              	Cy_SysTick_SetReload:
  98              	.LFB38:
 195:Generated_Source\PSoC6\pdl\drivers\peripheral\systick/cy_systick.h **** 
 196:Generated_Source\PSoC6\pdl\drivers\peripheral\systick/cy_systick.h **** 
 197:Generated_Source\PSoC6\pdl\drivers\peripheral\systick/cy_systick.h **** /*******************************************************************************
 198:Generated_Source\PSoC6\pdl\drivers\peripheral\systick/cy_systick.h **** * Function Name: Cy_SysTick_SetReload
 199:Generated_Source\PSoC6\pdl\drivers\peripheral\systick/cy_systick.h **** ****************************************************************************//**
 200:Generated_Source\PSoC6\pdl\drivers\peripheral\systick/cy_systick.h **** *
 201:Generated_Source\PSoC6\pdl\drivers\peripheral\systick/cy_systick.h **** * Sets the value the counter is set to on a startup and after it reaches zero.
 202:Generated_Source\PSoC6\pdl\drivers\peripheral\systick/cy_systick.h **** * This function does not change or reset the current sysTick counter value, so
 203:Generated_Source\PSoC6\pdl\drivers\peripheral\systick/cy_systick.h **** * it should be cleared using the Cy_SysTick_Clear() API.
 204:Generated_Source\PSoC6\pdl\drivers\peripheral\systick/cy_systick.h **** *
 205:Generated_Source\PSoC6\pdl\drivers\peripheral\systick/cy_systick.h **** * \param value: The valid range is [0x0-0x00FFFFFF]. The counter reset value.
 206:Generated_Source\PSoC6\pdl\drivers\peripheral\systick/cy_systick.h **** *
 207:Generated_Source\PSoC6\pdl\drivers\peripheral\systick/cy_systick.h **** *******************************************************************************/
 208:Generated_Source\PSoC6\pdl\drivers\peripheral\systick/cy_systick.h **** __STATIC_INLINE void Cy_SysTick_SetReload(uint32_t value)
 209:Generated_Source\PSoC6\pdl\drivers\peripheral\systick/cy_systick.h **** {
  99              		.loc 1 209 0
 100              		.cfi_startproc
 101              		@ args = 0, pretend = 0, frame = 8
 102              		@ frame_needed = 1, uses_anonymous_args = 0
 103 0000 80B5     		push	{r7, lr}
 104              		.cfi_def_cfa_offset 8
 105              		.cfi_offset 7, -8
 106              		.cfi_offset 14, -4
 107 0002 82B0     		sub	sp, sp, #8
 108              		.cfi_def_cfa_offset 16
 109 0004 00AF     		add	r7, sp, #0
 110              		.cfi_def_cfa_register 7
 111 0006 7860     		str	r0, [r7, #4]
 210:Generated_Source\PSoC6\pdl\drivers\peripheral\systick/cy_systick.h ****     SysTick->LOAD = (value & SysTick_LOAD_RELOAD_Msk);
 112              		.loc 1 210 0
 113 0008 044B     		ldr	r3, .L8
 114 000a 7A68     		ldr	r2, [r7, #4]
 115 000c 1202     		lsls	r2, r2, #8
 116 000e 120A     		lsrs	r2, r2, #8
 117 0010 5A60     		str	r2, [r3, #4]
 211:Generated_Source\PSoC6\pdl\drivers\peripheral\systick/cy_systick.h **** }
 118              		.loc 1 211 0
 119 0012 C046     		nop
 120 0014 BD46     		mov	sp, r7
 121 0016 02B0     		add	sp, sp, #8
 122              		@ sp needed
 123 0018 80BD     		pop	{r7, pc}
 124              	.L9:
 125 001a C046     		.align	2
 126              	.L8:
 127 001c 10E000E0 		.word	-536813552
 128              		.cfi_endproc
 129              	.LFE38:
 130              		.size	Cy_SysTick_SetReload, .-Cy_SysTick_SetReload
 131              		.section	.text.Cy_SysTick_Clear,"ax",%progbits
ARM GAS  C:\Users\salaz\AppData\Local\Temp\ccgxiCjI.s 			page 7


 132              		.align	2
 133              		.code	16
 134              		.thumb_func
 135              		.type	Cy_SysTick_Clear, %function
 136              	Cy_SysTick_Clear:
 137              	.LFB41:
 212:Generated_Source\PSoC6\pdl\drivers\peripheral\systick/cy_systick.h **** 
 213:Generated_Source\PSoC6\pdl\drivers\peripheral\systick/cy_systick.h **** 
 214:Generated_Source\PSoC6\pdl\drivers\peripheral\systick/cy_systick.h **** /*******************************************************************************
 215:Generated_Source\PSoC6\pdl\drivers\peripheral\systick/cy_systick.h **** * Function Name: Cy_SysTick_GetReload
 216:Generated_Source\PSoC6\pdl\drivers\peripheral\systick/cy_systick.h **** ****************************************************************************//**
 217:Generated_Source\PSoC6\pdl\drivers\peripheral\systick/cy_systick.h **** *
 218:Generated_Source\PSoC6\pdl\drivers\peripheral\systick/cy_systick.h **** * Gets the value the counter is set to on a startup and after it reaches zero.
 219:Generated_Source\PSoC6\pdl\drivers\peripheral\systick/cy_systick.h **** *
 220:Generated_Source\PSoC6\pdl\drivers\peripheral\systick/cy_systick.h **** * \return The counter reset value.
 221:Generated_Source\PSoC6\pdl\drivers\peripheral\systick/cy_systick.h **** *
 222:Generated_Source\PSoC6\pdl\drivers\peripheral\systick/cy_systick.h **** *******************************************************************************/
 223:Generated_Source\PSoC6\pdl\drivers\peripheral\systick/cy_systick.h **** __STATIC_INLINE uint32_t Cy_SysTick_GetReload(void)
 224:Generated_Source\PSoC6\pdl\drivers\peripheral\systick/cy_systick.h **** {
 225:Generated_Source\PSoC6\pdl\drivers\peripheral\systick/cy_systick.h ****     return (SysTick->LOAD);
 226:Generated_Source\PSoC6\pdl\drivers\peripheral\systick/cy_systick.h **** }
 227:Generated_Source\PSoC6\pdl\drivers\peripheral\systick/cy_systick.h **** 
 228:Generated_Source\PSoC6\pdl\drivers\peripheral\systick/cy_systick.h **** 
 229:Generated_Source\PSoC6\pdl\drivers\peripheral\systick/cy_systick.h **** /*******************************************************************************
 230:Generated_Source\PSoC6\pdl\drivers\peripheral\systick/cy_systick.h **** * Function Name: Cy_SysTick_GetValue
 231:Generated_Source\PSoC6\pdl\drivers\peripheral\systick/cy_systick.h **** ****************************************************************************//**
 232:Generated_Source\PSoC6\pdl\drivers\peripheral\systick/cy_systick.h **** *
 233:Generated_Source\PSoC6\pdl\drivers\peripheral\systick/cy_systick.h **** * Gets the current SysTick counter value.
 234:Generated_Source\PSoC6\pdl\drivers\peripheral\systick/cy_systick.h **** *
 235:Generated_Source\PSoC6\pdl\drivers\peripheral\systick/cy_systick.h **** * \return The current SysTick counter value.
 236:Generated_Source\PSoC6\pdl\drivers\peripheral\systick/cy_systick.h **** *
 237:Generated_Source\PSoC6\pdl\drivers\peripheral\systick/cy_systick.h **** *******************************************************************************/
 238:Generated_Source\PSoC6\pdl\drivers\peripheral\systick/cy_systick.h **** __STATIC_INLINE uint32_t Cy_SysTick_GetValue(void)
 239:Generated_Source\PSoC6\pdl\drivers\peripheral\systick/cy_systick.h **** {
 240:Generated_Source\PSoC6\pdl\drivers\peripheral\systick/cy_systick.h ****     return (SysTick->VAL);
 241:Generated_Source\PSoC6\pdl\drivers\peripheral\systick/cy_systick.h **** }
 242:Generated_Source\PSoC6\pdl\drivers\peripheral\systick/cy_systick.h **** 
 243:Generated_Source\PSoC6\pdl\drivers\peripheral\systick/cy_systick.h **** /*******************************************************************************
 244:Generated_Source\PSoC6\pdl\drivers\peripheral\systick/cy_systick.h **** * Function Name: Cy_SysTick_Clear
 245:Generated_Source\PSoC6\pdl\drivers\peripheral\systick/cy_systick.h **** ****************************************************************************//**
 246:Generated_Source\PSoC6\pdl\drivers\peripheral\systick/cy_systick.h **** *
 247:Generated_Source\PSoC6\pdl\drivers\peripheral\systick/cy_systick.h **** * Clears the SysTick counter for a well-defined startup.
 248:Generated_Source\PSoC6\pdl\drivers\peripheral\systick/cy_systick.h **** *
 249:Generated_Source\PSoC6\pdl\drivers\peripheral\systick/cy_systick.h **** *******************************************************************************/
 250:Generated_Source\PSoC6\pdl\drivers\peripheral\systick/cy_systick.h **** __STATIC_INLINE void Cy_SysTick_Clear(void)
 251:Generated_Source\PSoC6\pdl\drivers\peripheral\systick/cy_systick.h **** {
 138              		.loc 1 251 0
 139              		.cfi_startproc
 140              		@ args = 0, pretend = 0, frame = 0
 141              		@ frame_needed = 1, uses_anonymous_args = 0
 142 0000 80B5     		push	{r7, lr}
 143              		.cfi_def_cfa_offset 8
 144              		.cfi_offset 7, -8
 145              		.cfi_offset 14, -4
 146 0002 00AF     		add	r7, sp, #0
 147              		.cfi_def_cfa_register 7
 252:Generated_Source\PSoC6\pdl\drivers\peripheral\systick/cy_systick.h ****     SysTick->VAL = 0u;
ARM GAS  C:\Users\salaz\AppData\Local\Temp\ccgxiCjI.s 			page 8


 148              		.loc 1 252 0
 149 0004 024B     		ldr	r3, .L11
 150 0006 0022     		movs	r2, #0
 151 0008 9A60     		str	r2, [r3, #8]
 253:Generated_Source\PSoC6\pdl\drivers\peripheral\systick/cy_systick.h **** }
 152              		.loc 1 253 0
 153 000a C046     		nop
 154 000c BD46     		mov	sp, r7
 155              		@ sp needed
 156 000e 80BD     		pop	{r7, pc}
 157              	.L12:
 158              		.align	2
 159              	.L11:
 160 0010 10E000E0 		.word	-536813552
 161              		.cfi_endproc
 162              	.LFE41:
 163              		.size	Cy_SysTick_Clear, .-Cy_SysTick_Clear
 164              		.section	.text.Cy_SysTick_GetCountFlag,"ax",%progbits
 165              		.align	2
 166              		.code	16
 167              		.thumb_func
 168              		.type	Cy_SysTick_GetCountFlag, %function
 169              	Cy_SysTick_GetCountFlag:
 170              	.LFB42:
 254:Generated_Source\PSoC6\pdl\drivers\peripheral\systick/cy_systick.h **** 
 255:Generated_Source\PSoC6\pdl\drivers\peripheral\systick/cy_systick.h **** 
 256:Generated_Source\PSoC6\pdl\drivers\peripheral\systick/cy_systick.h **** /*******************************************************************************
 257:Generated_Source\PSoC6\pdl\drivers\peripheral\systick/cy_systick.h **** * Function Name: Cy_SysTick_GetCountFlag
 258:Generated_Source\PSoC6\pdl\drivers\peripheral\systick/cy_systick.h **** ****************************************************************************//**
 259:Generated_Source\PSoC6\pdl\drivers\peripheral\systick/cy_systick.h **** *
 260:Generated_Source\PSoC6\pdl\drivers\peripheral\systick/cy_systick.h **** * Gets the values of the count flag. The count flag is set once the SysTick
 261:Generated_Source\PSoC6\pdl\drivers\peripheral\systick/cy_systick.h **** * counter reaches zero. The flag is cleared on read.
 262:Generated_Source\PSoC6\pdl\drivers\peripheral\systick/cy_systick.h **** *
 263:Generated_Source\PSoC6\pdl\drivers\peripheral\systick/cy_systick.h **** * \return Returns a non-zero value if a flag is set; otherwise a zero is
 264:Generated_Source\PSoC6\pdl\drivers\peripheral\systick/cy_systick.h **** * returned.
 265:Generated_Source\PSoC6\pdl\drivers\peripheral\systick/cy_systick.h **** *
 266:Generated_Source\PSoC6\pdl\drivers\peripheral\systick/cy_systick.h **** * \sideeffect Clears the SysTick count flag if it was set.
 267:Generated_Source\PSoC6\pdl\drivers\peripheral\systick/cy_systick.h **** *
 268:Generated_Source\PSoC6\pdl\drivers\peripheral\systick/cy_systick.h **** *******************************************************************************/
 269:Generated_Source\PSoC6\pdl\drivers\peripheral\systick/cy_systick.h **** __STATIC_INLINE uint32_t Cy_SysTick_GetCountFlag(void)
 270:Generated_Source\PSoC6\pdl\drivers\peripheral\systick/cy_systick.h **** {
 171              		.loc 1 270 0
 172              		.cfi_startproc
 173              		@ args = 0, pretend = 0, frame = 0
 174              		@ frame_needed = 1, uses_anonymous_args = 0
 175 0000 80B5     		push	{r7, lr}
 176              		.cfi_def_cfa_offset 8
 177              		.cfi_offset 7, -8
 178              		.cfi_offset 14, -4
 179 0002 00AF     		add	r7, sp, #0
 180              		.cfi_def_cfa_register 7
 271:Generated_Source\PSoC6\pdl\drivers\peripheral\systick/cy_systick.h ****     return (SysTick->CTRL & SysTick_CTRL_COUNTFLAG_Msk);
 181              		.loc 1 271 0
 182 0004 034B     		ldr	r3, .L15
 183 0006 1A68     		ldr	r2, [r3]
 184 0008 8023     		movs	r3, #128
 185 000a 5B02     		lsls	r3, r3, #9
ARM GAS  C:\Users\salaz\AppData\Local\Temp\ccgxiCjI.s 			page 9


 186 000c 1340     		ands	r3, r2
 272:Generated_Source\PSoC6\pdl\drivers\peripheral\systick/cy_systick.h **** }
 187              		.loc 1 272 0
 188 000e 1800     		movs	r0, r3
 189 0010 BD46     		mov	sp, r7
 190              		@ sp needed
 191 0012 80BD     		pop	{r7, pc}
 192              	.L16:
 193              		.align	2
 194              	.L15:
 195 0014 10E000E0 		.word	-536813552
 196              		.cfi_endproc
 197              	.LFE42:
 198              		.size	Cy_SysTick_GetCountFlag, .-Cy_SysTick_GetCountFlag
 199              		.bss
 200              		.align	2
 201              	Cy_SysTick_Callbacks:
 202 0000 00000000 		.space	20
 202      00000000 
 202      00000000 
 202      00000000 
 202      00000000 
 203              		.section	.text.Cy_SysTick_Init,"ax",%progbits
 204              		.align	2
 205              		.global	Cy_SysTick_Init
 206              		.code	16
 207              		.thumb_func
 208              		.type	Cy_SysTick_Init, %function
 209              	Cy_SysTick_Init:
 210              	.LFB43:
 211              		.file 2 "Generated_Source\\PSoC6\\pdl\\drivers\\peripheral\\systick\\cy_systick.c"
   1:Generated_Source\PSoC6\pdl\drivers\peripheral\systick/cy_systick.c **** /***************************************************************************//**
   2:Generated_Source\PSoC6\pdl\drivers\peripheral\systick/cy_systick.c **** * \file cy_systick.c
   3:Generated_Source\PSoC6\pdl\drivers\peripheral\systick/cy_systick.c **** * \version 1.0.1
   4:Generated_Source\PSoC6\pdl\drivers\peripheral\systick/cy_systick.c **** *
   5:Generated_Source\PSoC6\pdl\drivers\peripheral\systick/cy_systick.c **** * Provides the API definitions of the SisTick driver.
   6:Generated_Source\PSoC6\pdl\drivers\peripheral\systick/cy_systick.c **** *
   7:Generated_Source\PSoC6\pdl\drivers\peripheral\systick/cy_systick.c **** ********************************************************************************
   8:Generated_Source\PSoC6\pdl\drivers\peripheral\systick/cy_systick.c **** * \copyright
   9:Generated_Source\PSoC6\pdl\drivers\peripheral\systick/cy_systick.c **** * Copyright 2016-2018, Cypress Semiconductor Corporation.  All rights reserved.
  10:Generated_Source\PSoC6\pdl\drivers\peripheral\systick/cy_systick.c **** * You may use this file only in accordance with the license, terms, conditions,
  11:Generated_Source\PSoC6\pdl\drivers\peripheral\systick/cy_systick.c **** * disclaimers, and limitations in the end user license agreement accompanying
  12:Generated_Source\PSoC6\pdl\drivers\peripheral\systick/cy_systick.c **** * the software package with which this file was provided.
  13:Generated_Source\PSoC6\pdl\drivers\peripheral\systick/cy_systick.c **** *******************************************************************************/
  14:Generated_Source\PSoC6\pdl\drivers\peripheral\systick/cy_systick.c **** 
  15:Generated_Source\PSoC6\pdl\drivers\peripheral\systick/cy_systick.c **** #include "cy_systick.h"
  16:Generated_Source\PSoC6\pdl\drivers\peripheral\systick/cy_systick.c **** #include <stddef.h>     /* for NULL */
  17:Generated_Source\PSoC6\pdl\drivers\peripheral\systick/cy_systick.c **** 
  18:Generated_Source\PSoC6\pdl\drivers\peripheral\systick/cy_systick.c **** 
  19:Generated_Source\PSoC6\pdl\drivers\peripheral\systick/cy_systick.c **** static Cy_SysTick_Callback Cy_SysTick_Callbacks[CY_SYS_SYST_NUM_OF_CALLBACKS];
  20:Generated_Source\PSoC6\pdl\drivers\peripheral\systick/cy_systick.c **** static void Cy_SysTick_ServiceCallbacks(void);
  21:Generated_Source\PSoC6\pdl\drivers\peripheral\systick/cy_systick.c **** 
  22:Generated_Source\PSoC6\pdl\drivers\peripheral\systick/cy_systick.c **** 
  23:Generated_Source\PSoC6\pdl\drivers\peripheral\systick/cy_systick.c **** /*******************************************************************************
  24:Generated_Source\PSoC6\pdl\drivers\peripheral\systick/cy_systick.c **** * Function Name: Cy_SysTick_Init
  25:Generated_Source\PSoC6\pdl\drivers\peripheral\systick/cy_systick.c **** ****************************************************************************//**
  26:Generated_Source\PSoC6\pdl\drivers\peripheral\systick/cy_systick.c **** *
ARM GAS  C:\Users\salaz\AppData\Local\Temp\ccgxiCjI.s 			page 10


  27:Generated_Source\PSoC6\pdl\drivers\peripheral\systick/cy_systick.c **** * Initializes the SysTick driver:
  28:Generated_Source\PSoC6\pdl\drivers\peripheral\systick/cy_systick.c **** * - Initializes the callback addresses with pointers to NULL
  29:Generated_Source\PSoC6\pdl\drivers\peripheral\systick/cy_systick.c **** * - Associates the SysTick system vector with the callback functions
  30:Generated_Source\PSoC6\pdl\drivers\peripheral\systick/cy_systick.c **** * - Sets the SysTick clock by calling \ref Cy_SysTick_SetClockSource()
  31:Generated_Source\PSoC6\pdl\drivers\peripheral\systick/cy_systick.c **** * - Sets the SysTick reload interval by calling \ref Cy_SysTick_SetReload()
  32:Generated_Source\PSoC6\pdl\drivers\peripheral\systick/cy_systick.c **** * - Clears the SysTick counter value by calling \ref Cy_SysTick_Clear()
  33:Generated_Source\PSoC6\pdl\drivers\peripheral\systick/cy_systick.c **** * - Enables the SysTick by calling \ref Cy_SysTick_Enable(). Note the \ref
  34:Generated_Source\PSoC6\pdl\drivers\peripheral\systick/cy_systick.c **** *   Cy_SysTick_Enable() function also enables the SysTick interrupt by calling
  35:Generated_Source\PSoC6\pdl\drivers\peripheral\systick/cy_systick.c **** *   \ref Cy_SysTick_EnableInterrupt().
  36:Generated_Source\PSoC6\pdl\drivers\peripheral\systick/cy_systick.c **** *
  37:Generated_Source\PSoC6\pdl\drivers\peripheral\systick/cy_systick.c **** * \param clockSource The SysTick clock source \ref cy_en_systick_clock_source_t
  38:Generated_Source\PSoC6\pdl\drivers\peripheral\systick/cy_systick.c **** * \param interval The SysTick reload value.
  39:Generated_Source\PSoC6\pdl\drivers\peripheral\systick/cy_systick.c **** *
  40:Generated_Source\PSoC6\pdl\drivers\peripheral\systick/cy_systick.c **** * \sideeffect Clears the SysTick count flag if it was set.
  41:Generated_Source\PSoC6\pdl\drivers\peripheral\systick/cy_systick.c **** *
  42:Generated_Source\PSoC6\pdl\drivers\peripheral\systick/cy_systick.c **** *******************************************************************************/
  43:Generated_Source\PSoC6\pdl\drivers\peripheral\systick/cy_systick.c **** void Cy_SysTick_Init(cy_en_systick_clock_source_t clockSource, uint32_t interval)
  44:Generated_Source\PSoC6\pdl\drivers\peripheral\systick/cy_systick.c **** {
 212              		.loc 2 44 0
 213              		.cfi_startproc
 214              		@ args = 0, pretend = 0, frame = 16
 215              		@ frame_needed = 1, uses_anonymous_args = 0
 216 0000 80B5     		push	{r7, lr}
 217              		.cfi_def_cfa_offset 8
 218              		.cfi_offset 7, -8
 219              		.cfi_offset 14, -4
 220 0002 84B0     		sub	sp, sp, #16
 221              		.cfi_def_cfa_offset 24
 222 0004 00AF     		add	r7, sp, #0
 223              		.cfi_def_cfa_register 7
 224 0006 0200     		movs	r2, r0
 225 0008 3960     		str	r1, [r7]
 226 000a FB1D     		adds	r3, r7, #7
 227 000c 1A70     		strb	r2, [r3]
  45:Generated_Source\PSoC6\pdl\drivers\peripheral\systick/cy_systick.c ****     uint32_t i;
  46:Generated_Source\PSoC6\pdl\drivers\peripheral\systick/cy_systick.c **** 
  47:Generated_Source\PSoC6\pdl\drivers\peripheral\systick/cy_systick.c ****     for (i = 0u; i<CY_SYS_SYST_NUM_OF_CALLBACKS; i++)
 228              		.loc 2 47 0
 229 000e 0023     		movs	r3, #0
 230 0010 FB60     		str	r3, [r7, #12]
 231 0012 07E0     		b	.L18
 232              	.L19:
  48:Generated_Source\PSoC6\pdl\drivers\peripheral\systick/cy_systick.c ****     {
  49:Generated_Source\PSoC6\pdl\drivers\peripheral\systick/cy_systick.c ****         Cy_SysTick_Callbacks[i] = NULL;
 233              		.loc 2 49 0 discriminator 3
 234 0014 0F4B     		ldr	r3, .L20
 235 0016 FA68     		ldr	r2, [r7, #12]
 236 0018 9200     		lsls	r2, r2, #2
 237 001a 0021     		movs	r1, #0
 238 001c D150     		str	r1, [r2, r3]
  47:Generated_Source\PSoC6\pdl\drivers\peripheral\systick/cy_systick.c ****     {
 239              		.loc 2 47 0 discriminator 3
 240 001e FB68     		ldr	r3, [r7, #12]
 241 0020 0133     		adds	r3, r3, #1
 242 0022 FB60     		str	r3, [r7, #12]
 243              	.L18:
  47:Generated_Source\PSoC6\pdl\drivers\peripheral\systick/cy_systick.c ****     {
ARM GAS  C:\Users\salaz\AppData\Local\Temp\ccgxiCjI.s 			page 11


 244              		.loc 2 47 0 is_stmt 0 discriminator 1
 245 0024 FB68     		ldr	r3, [r7, #12]
 246 0026 042B     		cmp	r3, #4
 247 0028 F4D9     		bls	.L19
  50:Generated_Source\PSoC6\pdl\drivers\peripheral\systick/cy_systick.c ****     }
  51:Generated_Source\PSoC6\pdl\drivers\peripheral\systick/cy_systick.c **** 
  52:Generated_Source\PSoC6\pdl\drivers\peripheral\systick/cy_systick.c ****     __ramVectors[CY_SYSTICK_IRQ_NUM] = &Cy_SysTick_ServiceCallbacks;
 248              		.loc 2 52 0 is_stmt 1
 249 002a 0B4B     		ldr	r3, .L20+4
 250 002c 0B4A     		ldr	r2, .L20+8
 251 002e DA63     		str	r2, [r3, #60]
  53:Generated_Source\PSoC6\pdl\drivers\peripheral\systick/cy_systick.c ****     Cy_SysTick_SetClockSource(clockSource);
 252              		.loc 2 53 0
 253 0030 FB1D     		adds	r3, r7, #7
 254 0032 1B78     		ldrb	r3, [r3]
 255 0034 1800     		movs	r0, r3
 256 0036 FFF7FEFF 		bl	Cy_SysTick_SetClockSource
  54:Generated_Source\PSoC6\pdl\drivers\peripheral\systick/cy_systick.c **** 
  55:Generated_Source\PSoC6\pdl\drivers\peripheral\systick/cy_systick.c ****     Cy_SysTick_SetReload(interval);
 257              		.loc 2 55 0
 258 003a 3B68     		ldr	r3, [r7]
 259 003c 1800     		movs	r0, r3
 260 003e FFF7FEFF 		bl	Cy_SysTick_SetReload
  56:Generated_Source\PSoC6\pdl\drivers\peripheral\systick/cy_systick.c ****     Cy_SysTick_Clear();
 261              		.loc 2 56 0
 262 0042 FFF7FEFF 		bl	Cy_SysTick_Clear
  57:Generated_Source\PSoC6\pdl\drivers\peripheral\systick/cy_systick.c ****     Cy_SysTick_Enable();
 263              		.loc 2 57 0
 264 0046 FFF7FEFF 		bl	Cy_SysTick_Enable
  58:Generated_Source\PSoC6\pdl\drivers\peripheral\systick/cy_systick.c **** }
 265              		.loc 2 58 0
 266 004a C046     		nop
 267 004c BD46     		mov	sp, r7
 268 004e 04B0     		add	sp, sp, #16
 269              		@ sp needed
 270 0050 80BD     		pop	{r7, pc}
 271              	.L21:
 272 0052 C046     		.align	2
 273              	.L20:
 274 0054 00000000 		.word	Cy_SysTick_Callbacks
 275 0058 00000000 		.word	__ramVectors
 276 005c 00000000 		.word	Cy_SysTick_ServiceCallbacks
 277              		.cfi_endproc
 278              	.LFE43:
 279              		.size	Cy_SysTick_Init, .-Cy_SysTick_Init
 280              		.section	.text.Cy_SysTick_Enable,"ax",%progbits
 281              		.align	2
 282              		.global	Cy_SysTick_Enable
 283              		.code	16
 284              		.thumb_func
 285              		.type	Cy_SysTick_Enable, %function
 286              	Cy_SysTick_Enable:
 287              	.LFB44:
  59:Generated_Source\PSoC6\pdl\drivers\peripheral\systick/cy_systick.c **** 
  60:Generated_Source\PSoC6\pdl\drivers\peripheral\systick/cy_systick.c **** 
  61:Generated_Source\PSoC6\pdl\drivers\peripheral\systick/cy_systick.c **** /*******************************************************************************
  62:Generated_Source\PSoC6\pdl\drivers\peripheral\systick/cy_systick.c **** * Function Name: Cy_SysTick_Enable
ARM GAS  C:\Users\salaz\AppData\Local\Temp\ccgxiCjI.s 			page 12


  63:Generated_Source\PSoC6\pdl\drivers\peripheral\systick/cy_systick.c **** ****************************************************************************//**
  64:Generated_Source\PSoC6\pdl\drivers\peripheral\systick/cy_systick.c **** *
  65:Generated_Source\PSoC6\pdl\drivers\peripheral\systick/cy_systick.c **** * Enables the SysTick timer and its interrupt.
  66:Generated_Source\PSoC6\pdl\drivers\peripheral\systick/cy_systick.c **** *
  67:Generated_Source\PSoC6\pdl\drivers\peripheral\systick/cy_systick.c **** * \sideeffect Clears the SysTick count flag if it was set
  68:Generated_Source\PSoC6\pdl\drivers\peripheral\systick/cy_systick.c **** *
  69:Generated_Source\PSoC6\pdl\drivers\peripheral\systick/cy_systick.c **** *******************************************************************************/
  70:Generated_Source\PSoC6\pdl\drivers\peripheral\systick/cy_systick.c **** void Cy_SysTick_Enable(void)
  71:Generated_Source\PSoC6\pdl\drivers\peripheral\systick/cy_systick.c **** {
 288              		.loc 2 71 0
 289              		.cfi_startproc
 290              		@ args = 0, pretend = 0, frame = 0
 291              		@ frame_needed = 1, uses_anonymous_args = 0
 292 0000 80B5     		push	{r7, lr}
 293              		.cfi_def_cfa_offset 8
 294              		.cfi_offset 7, -8
 295              		.cfi_offset 14, -4
 296 0002 00AF     		add	r7, sp, #0
 297              		.cfi_def_cfa_register 7
  72:Generated_Source\PSoC6\pdl\drivers\peripheral\systick/cy_systick.c ****     Cy_SysTick_EnableInterrupt();
 298              		.loc 2 72 0
 299 0004 FFF7FEFF 		bl	Cy_SysTick_EnableInterrupt
  73:Generated_Source\PSoC6\pdl\drivers\peripheral\systick/cy_systick.c ****     SysTick->CTRL |= SysTick_CTRL_ENABLE_Msk;
 300              		.loc 2 73 0
 301 0008 044B     		ldr	r3, .L23
 302 000a 044A     		ldr	r2, .L23
 303 000c 1268     		ldr	r2, [r2]
 304 000e 0121     		movs	r1, #1
 305 0010 0A43     		orrs	r2, r1
 306 0012 1A60     		str	r2, [r3]
  74:Generated_Source\PSoC6\pdl\drivers\peripheral\systick/cy_systick.c **** }
 307              		.loc 2 74 0
 308 0014 C046     		nop
 309 0016 BD46     		mov	sp, r7
 310              		@ sp needed
 311 0018 80BD     		pop	{r7, pc}
 312              	.L24:
 313 001a C046     		.align	2
 314              	.L23:
 315 001c 10E000E0 		.word	-536813552
 316              		.cfi_endproc
 317              	.LFE44:
 318              		.size	Cy_SysTick_Enable, .-Cy_SysTick_Enable
 319              		.section	.text.Cy_SysTick_Disable,"ax",%progbits
 320              		.align	2
 321              		.global	Cy_SysTick_Disable
 322              		.code	16
 323              		.thumb_func
 324              		.type	Cy_SysTick_Disable, %function
 325              	Cy_SysTick_Disable:
 326              	.LFB45:
  75:Generated_Source\PSoC6\pdl\drivers\peripheral\systick/cy_systick.c **** 
  76:Generated_Source\PSoC6\pdl\drivers\peripheral\systick/cy_systick.c **** 
  77:Generated_Source\PSoC6\pdl\drivers\peripheral\systick/cy_systick.c **** /*******************************************************************************
  78:Generated_Source\PSoC6\pdl\drivers\peripheral\systick/cy_systick.c **** * Function Name: Cy_SysTick_Disable
  79:Generated_Source\PSoC6\pdl\drivers\peripheral\systick/cy_systick.c **** ****************************************************************************//**
  80:Generated_Source\PSoC6\pdl\drivers\peripheral\systick/cy_systick.c **** *
ARM GAS  C:\Users\salaz\AppData\Local\Temp\ccgxiCjI.s 			page 13


  81:Generated_Source\PSoC6\pdl\drivers\peripheral\systick/cy_systick.c **** * Disables the SysTick timer and its interrupt.
  82:Generated_Source\PSoC6\pdl\drivers\peripheral\systick/cy_systick.c **** *
  83:Generated_Source\PSoC6\pdl\drivers\peripheral\systick/cy_systick.c **** * \sideeffect Clears the SysTick count flag if it was set
  84:Generated_Source\PSoC6\pdl\drivers\peripheral\systick/cy_systick.c **** *
  85:Generated_Source\PSoC6\pdl\drivers\peripheral\systick/cy_systick.c **** *******************************************************************************/
  86:Generated_Source\PSoC6\pdl\drivers\peripheral\systick/cy_systick.c **** void Cy_SysTick_Disable(void)
  87:Generated_Source\PSoC6\pdl\drivers\peripheral\systick/cy_systick.c **** {
 327              		.loc 2 87 0
 328              		.cfi_startproc
 329              		@ args = 0, pretend = 0, frame = 0
 330              		@ frame_needed = 1, uses_anonymous_args = 0
 331 0000 80B5     		push	{r7, lr}
 332              		.cfi_def_cfa_offset 8
 333              		.cfi_offset 7, -8
 334              		.cfi_offset 14, -4
 335 0002 00AF     		add	r7, sp, #0
 336              		.cfi_def_cfa_register 7
  88:Generated_Source\PSoC6\pdl\drivers\peripheral\systick/cy_systick.c ****     Cy_SysTick_DisableInterrupt();
 337              		.loc 2 88 0
 338 0004 FFF7FEFF 		bl	Cy_SysTick_DisableInterrupt
  89:Generated_Source\PSoC6\pdl\drivers\peripheral\systick/cy_systick.c ****     SysTick->CTRL &= ~SysTick_CTRL_ENABLE_Msk;
 339              		.loc 2 89 0
 340 0008 044B     		ldr	r3, .L26
 341 000a 044A     		ldr	r2, .L26
 342 000c 1268     		ldr	r2, [r2]
 343 000e 0121     		movs	r1, #1
 344 0010 8A43     		bics	r2, r1
 345 0012 1A60     		str	r2, [r3]
  90:Generated_Source\PSoC6\pdl\drivers\peripheral\systick/cy_systick.c **** }
 346              		.loc 2 90 0
 347 0014 C046     		nop
 348 0016 BD46     		mov	sp, r7
 349              		@ sp needed
 350 0018 80BD     		pop	{r7, pc}
 351              	.L27:
 352 001a C046     		.align	2
 353              	.L26:
 354 001c 10E000E0 		.word	-536813552
 355              		.cfi_endproc
 356              	.LFE45:
 357              		.size	Cy_SysTick_Disable, .-Cy_SysTick_Disable
 358              		.section	.text.Cy_SysTick_SetClockSource,"ax",%progbits
 359              		.align	2
 360              		.global	Cy_SysTick_SetClockSource
 361              		.code	16
 362              		.thumb_func
 363              		.type	Cy_SysTick_SetClockSource, %function
 364              	Cy_SysTick_SetClockSource:
 365              	.LFB46:
  91:Generated_Source\PSoC6\pdl\drivers\peripheral\systick/cy_systick.c **** 
  92:Generated_Source\PSoC6\pdl\drivers\peripheral\systick/cy_systick.c **** 
  93:Generated_Source\PSoC6\pdl\drivers\peripheral\systick/cy_systick.c **** /*******************************************************************************
  94:Generated_Source\PSoC6\pdl\drivers\peripheral\systick/cy_systick.c **** * Function Name: Cy_SysTick_SetClockSource
  95:Generated_Source\PSoC6\pdl\drivers\peripheral\systick/cy_systick.c **** ****************************************************************************//**
  96:Generated_Source\PSoC6\pdl\drivers\peripheral\systick/cy_systick.c **** *
  97:Generated_Source\PSoC6\pdl\drivers\peripheral\systick/cy_systick.c **** * Sets the clock source for the SysTick counter.
  98:Generated_Source\PSoC6\pdl\drivers\peripheral\systick/cy_systick.c **** *
ARM GAS  C:\Users\salaz\AppData\Local\Temp\ccgxiCjI.s 			page 14


  99:Generated_Source\PSoC6\pdl\drivers\peripheral\systick/cy_systick.c **** * Clears the SysTick count flag if it was set. If the clock source is not ready
 100:Generated_Source\PSoC6\pdl\drivers\peripheral\systick/cy_systick.c **** * this function call will have no effect. After changing the clock source to the
 101:Generated_Source\PSoC6\pdl\drivers\peripheral\systick/cy_systick.c **** * low frequency clock, the counter and reload register values will remain
 102:Generated_Source\PSoC6\pdl\drivers\peripheral\systick/cy_systick.c **** * unchanged so the time to the interrupt will be significantly longer and vice
 103:Generated_Source\PSoC6\pdl\drivers\peripheral\systick/cy_systick.c **** * versa.
 104:Generated_Source\PSoC6\pdl\drivers\peripheral\systick/cy_systick.c **** *
 105:Generated_Source\PSoC6\pdl\drivers\peripheral\systick/cy_systick.c **** * Changing the SysTick clock source and/or its frequency will change
 106:Generated_Source\PSoC6\pdl\drivers\peripheral\systick/cy_systick.c **** * the interrupt interval and Cy_SysTick_SetReload() should be
 107:Generated_Source\PSoC6\pdl\drivers\peripheral\systick/cy_systick.c **** * called to compensate this change.
 108:Generated_Source\PSoC6\pdl\drivers\peripheral\systick/cy_systick.c **** *
 109:Generated_Source\PSoC6\pdl\drivers\peripheral\systick/cy_systick.c **** * \param clockSource \ref cy_en_systick_clock_source_t Clock source.
 110:Generated_Source\PSoC6\pdl\drivers\peripheral\systick/cy_systick.c **** *
 111:Generated_Source\PSoC6\pdl\drivers\peripheral\systick/cy_systick.c **** *******************************************************************************/
 112:Generated_Source\PSoC6\pdl\drivers\peripheral\systick/cy_systick.c **** void Cy_SysTick_SetClockSource(cy_en_systick_clock_source_t clockSource)
 113:Generated_Source\PSoC6\pdl\drivers\peripheral\systick/cy_systick.c **** {
 366              		.loc 2 113 0
 367              		.cfi_startproc
 368              		@ args = 0, pretend = 0, frame = 8
 369              		@ frame_needed = 1, uses_anonymous_args = 0
 370 0000 80B5     		push	{r7, lr}
 371              		.cfi_def_cfa_offset 8
 372              		.cfi_offset 7, -8
 373              		.cfi_offset 14, -4
 374 0002 82B0     		sub	sp, sp, #8
 375              		.cfi_def_cfa_offset 16
 376 0004 00AF     		add	r7, sp, #0
 377              		.cfi_def_cfa_register 7
 378 0006 0200     		movs	r2, r0
 379 0008 FB1D     		adds	r3, r7, #7
 380 000a 1A70     		strb	r2, [r3]
 114:Generated_Source\PSoC6\pdl\drivers\peripheral\systick/cy_systick.c ****     if (clockSource == CY_SYSTICK_CLOCK_SOURCE_CLK_CPU)
 381              		.loc 2 114 0
 382 000c FB1D     		adds	r3, r7, #7
 383 000e 1B78     		ldrb	r3, [r3]
 384 0010 042B     		cmp	r3, #4
 385 0012 06D1     		bne	.L29
 115:Generated_Source\PSoC6\pdl\drivers\peripheral\systick/cy_systick.c ****     {
 116:Generated_Source\PSoC6\pdl\drivers\peripheral\systick/cy_systick.c ****         SysTick->CTRL |= SysTick_CTRL_CLKSOURCE_Msk;
 386              		.loc 2 116 0
 387 0014 0D4B     		ldr	r3, .L32
 388 0016 0D4A     		ldr	r2, .L32
 389 0018 1268     		ldr	r2, [r2]
 390 001a 0421     		movs	r1, #4
 391 001c 0A43     		orrs	r2, r1
 392 001e 1A60     		str	r2, [r3]
 117:Generated_Source\PSoC6\pdl\drivers\peripheral\systick/cy_systick.c ****     }
 118:Generated_Source\PSoC6\pdl\drivers\peripheral\systick/cy_systick.c ****     else
 119:Generated_Source\PSoC6\pdl\drivers\peripheral\systick/cy_systick.c ****     {
 120:Generated_Source\PSoC6\pdl\drivers\peripheral\systick/cy_systick.c ****         CPUSS->SYSTICK_CTL = _VAL2FLD(CPUSS_SYSTICK_CTL_CLOCK_SOURCE, (uint32_t) clockSource);
 121:Generated_Source\PSoC6\pdl\drivers\peripheral\systick/cy_systick.c ****         SysTick->CTRL &= ~SysTick_CTRL_CLKSOURCE_Msk;
 122:Generated_Source\PSoC6\pdl\drivers\peripheral\systick/cy_systick.c ****     }
 123:Generated_Source\PSoC6\pdl\drivers\peripheral\systick/cy_systick.c **** }
 393              		.loc 2 123 0
 394 0020 0FE0     		b	.L31
 395              	.L29:
 120:Generated_Source\PSoC6\pdl\drivers\peripheral\systick/cy_systick.c ****         SysTick->CTRL &= ~SysTick_CTRL_CLKSOURCE_Msk;
 396              		.loc 2 120 0
ARM GAS  C:\Users\salaz\AppData\Local\Temp\ccgxiCjI.s 			page 15


 397 0022 0B49     		ldr	r1, .L32+4
 398 0024 FB1D     		adds	r3, r7, #7
 399 0026 1B78     		ldrb	r3, [r3]
 400 0028 1A06     		lsls	r2, r3, #24
 401 002a C023     		movs	r3, #192
 402 002c 9B04     		lsls	r3, r3, #18
 403 002e 1A40     		ands	r2, r3
 404 0030 9023     		movs	r3, #144
 405 0032 9B00     		lsls	r3, r3, #2
 406 0034 CA50     		str	r2, [r1, r3]
 121:Generated_Source\PSoC6\pdl\drivers\peripheral\systick/cy_systick.c ****     }
 407              		.loc 2 121 0
 408 0036 054B     		ldr	r3, .L32
 409 0038 044A     		ldr	r2, .L32
 410 003a 1268     		ldr	r2, [r2]
 411 003c 0421     		movs	r1, #4
 412 003e 8A43     		bics	r2, r1
 413 0040 1A60     		str	r2, [r3]
 414              	.L31:
 415              		.loc 2 123 0
 416 0042 C046     		nop
 417 0044 BD46     		mov	sp, r7
 418 0046 02B0     		add	sp, sp, #8
 419              		@ sp needed
 420 0048 80BD     		pop	{r7, pc}
 421              	.L33:
 422 004a C046     		.align	2
 423              	.L32:
 424 004c 10E000E0 		.word	-536813552
 425 0050 00002140 		.word	1075904512
 426              		.cfi_endproc
 427              	.LFE46:
 428              		.size	Cy_SysTick_SetClockSource, .-Cy_SysTick_SetClockSource
 429              		.section	.text.Cy_SysTick_GetClockSource,"ax",%progbits
 430              		.align	2
 431              		.global	Cy_SysTick_GetClockSource
 432              		.code	16
 433              		.thumb_func
 434              		.type	Cy_SysTick_GetClockSource, %function
 435              	Cy_SysTick_GetClockSource:
 436              	.LFB47:
 124:Generated_Source\PSoC6\pdl\drivers\peripheral\systick/cy_systick.c **** 
 125:Generated_Source\PSoC6\pdl\drivers\peripheral\systick/cy_systick.c **** 
 126:Generated_Source\PSoC6\pdl\drivers\peripheral\systick/cy_systick.c **** /*******************************************************************************
 127:Generated_Source\PSoC6\pdl\drivers\peripheral\systick/cy_systick.c **** * Function Name: Cy_SysTick_GetClockSource
 128:Generated_Source\PSoC6\pdl\drivers\peripheral\systick/cy_systick.c **** ****************************************************************************//**
 129:Generated_Source\PSoC6\pdl\drivers\peripheral\systick/cy_systick.c **** *
 130:Generated_Source\PSoC6\pdl\drivers\peripheral\systick/cy_systick.c **** * Gets the clock source for the SysTick counter.
 131:Generated_Source\PSoC6\pdl\drivers\peripheral\systick/cy_systick.c **** *
 132:Generated_Source\PSoC6\pdl\drivers\peripheral\systick/cy_systick.c **** * \returns \ref cy_en_systick_clock_source_t Clock source
 133:Generated_Source\PSoC6\pdl\drivers\peripheral\systick/cy_systick.c **** *
 134:Generated_Source\PSoC6\pdl\drivers\peripheral\systick/cy_systick.c **** *******************************************************************************/
 135:Generated_Source\PSoC6\pdl\drivers\peripheral\systick/cy_systick.c **** cy_en_systick_clock_source_t Cy_SysTick_GetClockSource(void)
 136:Generated_Source\PSoC6\pdl\drivers\peripheral\systick/cy_systick.c **** {
 437              		.loc 2 136 0
 438              		.cfi_startproc
 439              		@ args = 0, pretend = 0, frame = 8
ARM GAS  C:\Users\salaz\AppData\Local\Temp\ccgxiCjI.s 			page 16


 440              		@ frame_needed = 1, uses_anonymous_args = 0
 441 0000 80B5     		push	{r7, lr}
 442              		.cfi_def_cfa_offset 8
 443              		.cfi_offset 7, -8
 444              		.cfi_offset 14, -4
 445 0002 82B0     		sub	sp, sp, #8
 446              		.cfi_def_cfa_offset 16
 447 0004 00AF     		add	r7, sp, #0
 448              		.cfi_def_cfa_register 7
 137:Generated_Source\PSoC6\pdl\drivers\peripheral\systick/cy_systick.c ****     cy_en_systick_clock_source_t returnValue;
 138:Generated_Source\PSoC6\pdl\drivers\peripheral\systick/cy_systick.c **** 
 139:Generated_Source\PSoC6\pdl\drivers\peripheral\systick/cy_systick.c ****     if ((SysTick->CTRL & SysTick_CTRL_CLKSOURCE_Msk) != 0u)
 449              		.loc 2 139 0
 450 0006 0C4B     		ldr	r3, .L38
 451 0008 1B68     		ldr	r3, [r3]
 452 000a 0422     		movs	r2, #4
 453 000c 1340     		ands	r3, r2
 454 000e 03D0     		beq	.L35
 140:Generated_Source\PSoC6\pdl\drivers\peripheral\systick/cy_systick.c ****     {
 141:Generated_Source\PSoC6\pdl\drivers\peripheral\systick/cy_systick.c ****         returnValue = CY_SYSTICK_CLOCK_SOURCE_CLK_CPU;
 455              		.loc 2 141 0
 456 0010 FB1D     		adds	r3, r7, #7
 457 0012 0422     		movs	r2, #4
 458 0014 1A70     		strb	r2, [r3]
 459 0016 09E0     		b	.L36
 460              	.L35:
 142:Generated_Source\PSoC6\pdl\drivers\peripheral\systick/cy_systick.c ****     }
 143:Generated_Source\PSoC6\pdl\drivers\peripheral\systick/cy_systick.c ****     else
 144:Generated_Source\PSoC6\pdl\drivers\peripheral\systick/cy_systick.c ****     {
 145:Generated_Source\PSoC6\pdl\drivers\peripheral\systick/cy_systick.c ****         returnValue =  (cy_en_systick_clock_source_t) ((uint32_t) _FLD2VAL(CPUSS_SYSTICK_CTL_CLOCK_
 461              		.loc 2 145 0
 462 0018 084A     		ldr	r2, .L38+4
 463 001a 9023     		movs	r3, #144
 464 001c 9B00     		lsls	r3, r3, #2
 465 001e D258     		ldr	r2, [r2, r3]
 466 0020 C023     		movs	r3, #192
 467 0022 9B04     		lsls	r3, r3, #18
 468 0024 1340     		ands	r3, r2
 469 0026 1A0E     		lsrs	r2, r3, #24
 470 0028 FB1D     		adds	r3, r7, #7
 471 002a 1A70     		strb	r2, [r3]
 472              	.L36:
 146:Generated_Source\PSoC6\pdl\drivers\peripheral\systick/cy_systick.c ****     }
 147:Generated_Source\PSoC6\pdl\drivers\peripheral\systick/cy_systick.c **** 
 148:Generated_Source\PSoC6\pdl\drivers\peripheral\systick/cy_systick.c ****     return(returnValue);
 473              		.loc 2 148 0
 474 002c FB1D     		adds	r3, r7, #7
 475 002e 1B78     		ldrb	r3, [r3]
 149:Generated_Source\PSoC6\pdl\drivers\peripheral\systick/cy_systick.c **** }
 476              		.loc 2 149 0
 477 0030 1800     		movs	r0, r3
 478 0032 BD46     		mov	sp, r7
 479 0034 02B0     		add	sp, sp, #8
 480              		@ sp needed
 481 0036 80BD     		pop	{r7, pc}
 482              	.L39:
 483              		.align	2
ARM GAS  C:\Users\salaz\AppData\Local\Temp\ccgxiCjI.s 			page 17


 484              	.L38:
 485 0038 10E000E0 		.word	-536813552
 486 003c 00002140 		.word	1075904512
 487              		.cfi_endproc
 488              	.LFE47:
 489              		.size	Cy_SysTick_GetClockSource, .-Cy_SysTick_GetClockSource
 490              		.section	.text.Cy_SysTick_SetCallback,"ax",%progbits
 491              		.align	2
 492              		.global	Cy_SysTick_SetCallback
 493              		.code	16
 494              		.thumb_func
 495              		.type	Cy_SysTick_SetCallback, %function
 496              	Cy_SysTick_SetCallback:
 497              	.LFB48:
 150:Generated_Source\PSoC6\pdl\drivers\peripheral\systick/cy_systick.c **** 
 151:Generated_Source\PSoC6\pdl\drivers\peripheral\systick/cy_systick.c **** 
 152:Generated_Source\PSoC6\pdl\drivers\peripheral\systick/cy_systick.c **** /*******************************************************************************
 153:Generated_Source\PSoC6\pdl\drivers\peripheral\systick/cy_systick.c **** * Function Name: Cy_SysTick_SetCallback
 154:Generated_Source\PSoC6\pdl\drivers\peripheral\systick/cy_systick.c **** ****************************************************************************//**
 155:Generated_Source\PSoC6\pdl\drivers\peripheral\systick/cy_systick.c **** *
 156:Generated_Source\PSoC6\pdl\drivers\peripheral\systick/cy_systick.c **** * Sets the callback function to the specified callback number.
 157:Generated_Source\PSoC6\pdl\drivers\peripheral\systick/cy_systick.c **** *
 158:Generated_Source\PSoC6\pdl\drivers\peripheral\systick/cy_systick.c **** * \param number The number of the callback function addresses to be set.
 159:Generated_Source\PSoC6\pdl\drivers\peripheral\systick/cy_systick.c **** * The valid range is from 0 to \ref CY_SYS_SYST_NUM_OF_CALLBACKS - 1.
 160:Generated_Source\PSoC6\pdl\drivers\peripheral\systick/cy_systick.c **** *
 161:Generated_Source\PSoC6\pdl\drivers\peripheral\systick/cy_systick.c **** * \param function The pointer to the function that will be associated with the
 162:Generated_Source\PSoC6\pdl\drivers\peripheral\systick/cy_systick.c **** * SysTick ISR for the specified number.
 163:Generated_Source\PSoC6\pdl\drivers\peripheral\systick/cy_systick.c **** *
 164:Generated_Source\PSoC6\pdl\drivers\peripheral\systick/cy_systick.c **** * \return Returns the address of the previous callback function.
 165:Generated_Source\PSoC6\pdl\drivers\peripheral\systick/cy_systick.c **** * The NULL is returned if the specified address in not set or incorrect
 166:Generated_Source\PSoC6\pdl\drivers\peripheral\systick/cy_systick.c **** * parameter is specified.
 167:Generated_Source\PSoC6\pdl\drivers\peripheral\systick/cy_systick.c **** 
 168:Generated_Source\PSoC6\pdl\drivers\peripheral\systick/cy_systick.c **** * \sideeffect
 169:Generated_Source\PSoC6\pdl\drivers\peripheral\systick/cy_systick.c **** * The registered callback functions will be executed in the interrupt.
 170:Generated_Source\PSoC6\pdl\drivers\peripheral\systick/cy_systick.c **** *
 171:Generated_Source\PSoC6\pdl\drivers\peripheral\systick/cy_systick.c **** *******************************************************************************/
 172:Generated_Source\PSoC6\pdl\drivers\peripheral\systick/cy_systick.c **** Cy_SysTick_Callback Cy_SysTick_SetCallback(uint32_t number, Cy_SysTick_Callback function)
 173:Generated_Source\PSoC6\pdl\drivers\peripheral\systick/cy_systick.c **** {
 498              		.loc 2 173 0
 499              		.cfi_startproc
 500              		@ args = 0, pretend = 0, frame = 16
 501              		@ frame_needed = 1, uses_anonymous_args = 0
 502 0000 80B5     		push	{r7, lr}
 503              		.cfi_def_cfa_offset 8
 504              		.cfi_offset 7, -8
 505              		.cfi_offset 14, -4
 506 0002 84B0     		sub	sp, sp, #16
 507              		.cfi_def_cfa_offset 24
 508 0004 00AF     		add	r7, sp, #0
 509              		.cfi_def_cfa_register 7
 510 0006 7860     		str	r0, [r7, #4]
 511 0008 3960     		str	r1, [r7]
 174:Generated_Source\PSoC6\pdl\drivers\peripheral\systick/cy_systick.c ****     Cy_SysTick_Callback retVal;
 175:Generated_Source\PSoC6\pdl\drivers\peripheral\systick/cy_systick.c **** 
 176:Generated_Source\PSoC6\pdl\drivers\peripheral\systick/cy_systick.c ****     if (number < CY_SYS_SYST_NUM_OF_CALLBACKS)
 512              		.loc 2 176 0
 513 000a 7B68     		ldr	r3, [r7, #4]
ARM GAS  C:\Users\salaz\AppData\Local\Temp\ccgxiCjI.s 			page 18


 514 000c 042B     		cmp	r3, #4
 515 000e 0AD8     		bhi	.L41
 177:Generated_Source\PSoC6\pdl\drivers\peripheral\systick/cy_systick.c ****     {
 178:Generated_Source\PSoC6\pdl\drivers\peripheral\systick/cy_systick.c ****         retVal = Cy_SysTick_Callbacks[number];
 516              		.loc 2 178 0
 517 0010 084B     		ldr	r3, .L44
 518 0012 7A68     		ldr	r2, [r7, #4]
 519 0014 9200     		lsls	r2, r2, #2
 520 0016 D358     		ldr	r3, [r2, r3]
 521 0018 FB60     		str	r3, [r7, #12]
 179:Generated_Source\PSoC6\pdl\drivers\peripheral\systick/cy_systick.c ****         Cy_SysTick_Callbacks[number] = function;
 522              		.loc 2 179 0
 523 001a 064B     		ldr	r3, .L44
 524 001c 7A68     		ldr	r2, [r7, #4]
 525 001e 9200     		lsls	r2, r2, #2
 526 0020 3968     		ldr	r1, [r7]
 527 0022 D150     		str	r1, [r2, r3]
 528 0024 01E0     		b	.L42
 529              	.L41:
 180:Generated_Source\PSoC6\pdl\drivers\peripheral\systick/cy_systick.c ****     }
 181:Generated_Source\PSoC6\pdl\drivers\peripheral\systick/cy_systick.c ****     else
 182:Generated_Source\PSoC6\pdl\drivers\peripheral\systick/cy_systick.c ****     {
 183:Generated_Source\PSoC6\pdl\drivers\peripheral\systick/cy_systick.c ****         retVal = NULL;
 530              		.loc 2 183 0
 531 0026 0023     		movs	r3, #0
 532 0028 FB60     		str	r3, [r7, #12]
 533              	.L42:
 184:Generated_Source\PSoC6\pdl\drivers\peripheral\systick/cy_systick.c ****     }
 185:Generated_Source\PSoC6\pdl\drivers\peripheral\systick/cy_systick.c **** 
 186:Generated_Source\PSoC6\pdl\drivers\peripheral\systick/cy_systick.c ****     return (retVal);
 534              		.loc 2 186 0
 535 002a FB68     		ldr	r3, [r7, #12]
 187:Generated_Source\PSoC6\pdl\drivers\peripheral\systick/cy_systick.c **** }
 536              		.loc 2 187 0
 537 002c 1800     		movs	r0, r3
 538 002e BD46     		mov	sp, r7
 539 0030 04B0     		add	sp, sp, #16
 540              		@ sp needed
 541 0032 80BD     		pop	{r7, pc}
 542              	.L45:
 543              		.align	2
 544              	.L44:
 545 0034 00000000 		.word	Cy_SysTick_Callbacks
 546              		.cfi_endproc
 547              	.LFE48:
 548              		.size	Cy_SysTick_SetCallback, .-Cy_SysTick_SetCallback
 549              		.section	.text.Cy_SysTick_GetCallback,"ax",%progbits
 550              		.align	2
 551              		.global	Cy_SysTick_GetCallback
 552              		.code	16
 553              		.thumb_func
 554              		.type	Cy_SysTick_GetCallback, %function
 555              	Cy_SysTick_GetCallback:
 556              	.LFB49:
 188:Generated_Source\PSoC6\pdl\drivers\peripheral\systick/cy_systick.c **** 
 189:Generated_Source\PSoC6\pdl\drivers\peripheral\systick/cy_systick.c **** 
 190:Generated_Source\PSoC6\pdl\drivers\peripheral\systick/cy_systick.c **** /*******************************************************************************
ARM GAS  C:\Users\salaz\AppData\Local\Temp\ccgxiCjI.s 			page 19


 191:Generated_Source\PSoC6\pdl\drivers\peripheral\systick/cy_systick.c **** * Function Name: Cy_SysTick_GetCallback
 192:Generated_Source\PSoC6\pdl\drivers\peripheral\systick/cy_systick.c **** ****************************************************************************//**
 193:Generated_Source\PSoC6\pdl\drivers\peripheral\systick/cy_systick.c **** *
 194:Generated_Source\PSoC6\pdl\drivers\peripheral\systick/cy_systick.c **** * Gets the specified callback function address.
 195:Generated_Source\PSoC6\pdl\drivers\peripheral\systick/cy_systick.c **** *
 196:Generated_Source\PSoC6\pdl\drivers\peripheral\systick/cy_systick.c **** * \param number The number of the callback function address to get. The valid
 197:Generated_Source\PSoC6\pdl\drivers\peripheral\systick/cy_systick.c **** * range is from 0 to \ref CY_SYS_SYST_NUM_OF_CALLBACKS - 1.
 198:Generated_Source\PSoC6\pdl\drivers\peripheral\systick/cy_systick.c **** *
 199:Generated_Source\PSoC6\pdl\drivers\peripheral\systick/cy_systick.c **** * \return Returns the address of the specified callback function.
 200:Generated_Source\PSoC6\pdl\drivers\peripheral\systick/cy_systick.c **** * The NULL is returned if the specified address in not initialized or incorrect
 201:Generated_Source\PSoC6\pdl\drivers\peripheral\systick/cy_systick.c **** * parameter is specified.
 202:Generated_Source\PSoC6\pdl\drivers\peripheral\systick/cy_systick.c **** *
 203:Generated_Source\PSoC6\pdl\drivers\peripheral\systick/cy_systick.c **** *******************************************************************************/
 204:Generated_Source\PSoC6\pdl\drivers\peripheral\systick/cy_systick.c **** Cy_SysTick_Callback Cy_SysTick_GetCallback(uint32_t number)
 205:Generated_Source\PSoC6\pdl\drivers\peripheral\systick/cy_systick.c **** {
 557              		.loc 2 205 0
 558              		.cfi_startproc
 559              		@ args = 0, pretend = 0, frame = 16
 560              		@ frame_needed = 1, uses_anonymous_args = 0
 561 0000 80B5     		push	{r7, lr}
 562              		.cfi_def_cfa_offset 8
 563              		.cfi_offset 7, -8
 564              		.cfi_offset 14, -4
 565 0002 84B0     		sub	sp, sp, #16
 566              		.cfi_def_cfa_offset 24
 567 0004 00AF     		add	r7, sp, #0
 568              		.cfi_def_cfa_register 7
 569 0006 7860     		str	r0, [r7, #4]
 206:Generated_Source\PSoC6\pdl\drivers\peripheral\systick/cy_systick.c ****     Cy_SysTick_Callback retVal;
 207:Generated_Source\PSoC6\pdl\drivers\peripheral\systick/cy_systick.c **** 
 208:Generated_Source\PSoC6\pdl\drivers\peripheral\systick/cy_systick.c ****     if (number < CY_SYS_SYST_NUM_OF_CALLBACKS)
 570              		.loc 2 208 0
 571 0008 7B68     		ldr	r3, [r7, #4]
 572 000a 042B     		cmp	r3, #4
 573 000c 05D8     		bhi	.L47
 209:Generated_Source\PSoC6\pdl\drivers\peripheral\systick/cy_systick.c ****     {
 210:Generated_Source\PSoC6\pdl\drivers\peripheral\systick/cy_systick.c ****         retVal = Cy_SysTick_Callbacks[number];
 574              		.loc 2 210 0
 575 000e 064B     		ldr	r3, .L50
 576 0010 7A68     		ldr	r2, [r7, #4]
 577 0012 9200     		lsls	r2, r2, #2
 578 0014 D358     		ldr	r3, [r2, r3]
 579 0016 FB60     		str	r3, [r7, #12]
 580 0018 01E0     		b	.L48
 581              	.L47:
 211:Generated_Source\PSoC6\pdl\drivers\peripheral\systick/cy_systick.c ****     }
 212:Generated_Source\PSoC6\pdl\drivers\peripheral\systick/cy_systick.c ****     else
 213:Generated_Source\PSoC6\pdl\drivers\peripheral\systick/cy_systick.c ****     {
 214:Generated_Source\PSoC6\pdl\drivers\peripheral\systick/cy_systick.c ****         retVal = NULL;
 582              		.loc 2 214 0
 583 001a 0023     		movs	r3, #0
 584 001c FB60     		str	r3, [r7, #12]
 585              	.L48:
 215:Generated_Source\PSoC6\pdl\drivers\peripheral\systick/cy_systick.c ****     }
 216:Generated_Source\PSoC6\pdl\drivers\peripheral\systick/cy_systick.c **** 
 217:Generated_Source\PSoC6\pdl\drivers\peripheral\systick/cy_systick.c ****     return (retVal);
 586              		.loc 2 217 0
ARM GAS  C:\Users\salaz\AppData\Local\Temp\ccgxiCjI.s 			page 20


 587 001e FB68     		ldr	r3, [r7, #12]
 218:Generated_Source\PSoC6\pdl\drivers\peripheral\systick/cy_systick.c **** }
 588              		.loc 2 218 0
 589 0020 1800     		movs	r0, r3
 590 0022 BD46     		mov	sp, r7
 591 0024 04B0     		add	sp, sp, #16
 592              		@ sp needed
 593 0026 80BD     		pop	{r7, pc}
 594              	.L51:
 595              		.align	2
 596              	.L50:
 597 0028 00000000 		.word	Cy_SysTick_Callbacks
 598              		.cfi_endproc
 599              	.LFE49:
 600              		.size	Cy_SysTick_GetCallback, .-Cy_SysTick_GetCallback
 601              		.section	.text.Cy_SysTick_ServiceCallbacks,"ax",%progbits
 602              		.align	2
 603              		.code	16
 604              		.thumb_func
 605              		.type	Cy_SysTick_ServiceCallbacks, %function
 606              	Cy_SysTick_ServiceCallbacks:
 607              	.LFB50:
 219:Generated_Source\PSoC6\pdl\drivers\peripheral\systick/cy_systick.c **** 
 220:Generated_Source\PSoC6\pdl\drivers\peripheral\systick/cy_systick.c **** 
 221:Generated_Source\PSoC6\pdl\drivers\peripheral\systick/cy_systick.c **** /*******************************************************************************
 222:Generated_Source\PSoC6\pdl\drivers\peripheral\systick/cy_systick.c **** * Function Name: Cy_SysTick_ServiceCallbacks
 223:Generated_Source\PSoC6\pdl\drivers\peripheral\systick/cy_systick.c **** ****************************************************************************//**
 224:Generated_Source\PSoC6\pdl\drivers\peripheral\systick/cy_systick.c **** *
 225:Generated_Source\PSoC6\pdl\drivers\peripheral\systick/cy_systick.c **** * The system Tick timer interrupt routine.
 226:Generated_Source\PSoC6\pdl\drivers\peripheral\systick/cy_systick.c **** *
 227:Generated_Source\PSoC6\pdl\drivers\peripheral\systick/cy_systick.c **** *******************************************************************************/
 228:Generated_Source\PSoC6\pdl\drivers\peripheral\systick/cy_systick.c **** static void Cy_SysTick_ServiceCallbacks(void)
 229:Generated_Source\PSoC6\pdl\drivers\peripheral\systick/cy_systick.c **** {
 608              		.loc 2 229 0
 609              		.cfi_startproc
 610              		@ args = 0, pretend = 0, frame = 8
 611              		@ frame_needed = 1, uses_anonymous_args = 0
 612 0000 80B5     		push	{r7, lr}
 613              		.cfi_def_cfa_offset 8
 614              		.cfi_offset 7, -8
 615              		.cfi_offset 14, -4
 616 0002 82B0     		sub	sp, sp, #8
 617              		.cfi_def_cfa_offset 16
 618 0004 00AF     		add	r7, sp, #0
 619              		.cfi_def_cfa_register 7
 230:Generated_Source\PSoC6\pdl\drivers\peripheral\systick/cy_systick.c ****     uint32_t i;
 231:Generated_Source\PSoC6\pdl\drivers\peripheral\systick/cy_systick.c **** 
 232:Generated_Source\PSoC6\pdl\drivers\peripheral\systick/cy_systick.c ****     /* Verify that tick timer flag was set */
 233:Generated_Source\PSoC6\pdl\drivers\peripheral\systick/cy_systick.c ****     if (0u != Cy_SysTick_GetCountFlag())
 620              		.loc 2 233 0
 621 0006 FFF7FEFF 		bl	Cy_SysTick_GetCountFlag
 622 000a 031E     		subs	r3, r0, #0
 623 000c 13D0     		beq	.L57
 234:Generated_Source\PSoC6\pdl\drivers\peripheral\systick/cy_systick.c ****     {
 235:Generated_Source\PSoC6\pdl\drivers\peripheral\systick/cy_systick.c ****         for (i=0u; i < CY_SYS_SYST_NUM_OF_CALLBACKS; i++)
 624              		.loc 2 235 0
 625 000e 0023     		movs	r3, #0
ARM GAS  C:\Users\salaz\AppData\Local\Temp\ccgxiCjI.s 			page 21


 626 0010 7B60     		str	r3, [r7, #4]
 627 0012 0DE0     		b	.L54
 628              	.L56:
 236:Generated_Source\PSoC6\pdl\drivers\peripheral\systick/cy_systick.c ****         {
 237:Generated_Source\PSoC6\pdl\drivers\peripheral\systick/cy_systick.c ****             if (Cy_SysTick_Callbacks[i] != NULL)
 629              		.loc 2 237 0
 630 0014 0A4B     		ldr	r3, .L58
 631 0016 7A68     		ldr	r2, [r7, #4]
 632 0018 9200     		lsls	r2, r2, #2
 633 001a D358     		ldr	r3, [r2, r3]
 634 001c 002B     		cmp	r3, #0
 635 001e 04D0     		beq	.L55
 238:Generated_Source\PSoC6\pdl\drivers\peripheral\systick/cy_systick.c ****             {
 239:Generated_Source\PSoC6\pdl\drivers\peripheral\systick/cy_systick.c ****                 (void)(Cy_SysTick_Callbacks[i])();
 636              		.loc 2 239 0
 637 0020 074B     		ldr	r3, .L58
 638 0022 7A68     		ldr	r2, [r7, #4]
 639 0024 9200     		lsls	r2, r2, #2
 640 0026 D358     		ldr	r3, [r2, r3]
 641 0028 9847     		blx	r3
 642              	.L55:
 235:Generated_Source\PSoC6\pdl\drivers\peripheral\systick/cy_systick.c ****         {
 643              		.loc 2 235 0 discriminator 2
 644 002a 7B68     		ldr	r3, [r7, #4]
 645 002c 0133     		adds	r3, r3, #1
 646 002e 7B60     		str	r3, [r7, #4]
 647              	.L54:
 235:Generated_Source\PSoC6\pdl\drivers\peripheral\systick/cy_systick.c ****         {
 648              		.loc 2 235 0 is_stmt 0 discriminator 1
 649 0030 7B68     		ldr	r3, [r7, #4]
 650 0032 042B     		cmp	r3, #4
 651 0034 EED9     		bls	.L56
 652              	.L57:
 240:Generated_Source\PSoC6\pdl\drivers\peripheral\systick/cy_systick.c ****             }
 241:Generated_Source\PSoC6\pdl\drivers\peripheral\systick/cy_systick.c ****         }
 242:Generated_Source\PSoC6\pdl\drivers\peripheral\systick/cy_systick.c ****     }
 243:Generated_Source\PSoC6\pdl\drivers\peripheral\systick/cy_systick.c **** }
 653              		.loc 2 243 0 is_stmt 1
 654 0036 C046     		nop
 655 0038 BD46     		mov	sp, r7
 656 003a 02B0     		add	sp, sp, #8
 657              		@ sp needed
 658 003c 80BD     		pop	{r7, pc}
 659              	.L59:
 660 003e C046     		.align	2
 661              	.L58:
 662 0040 00000000 		.word	Cy_SysTick_Callbacks
 663              		.cfi_endproc
 664              	.LFE50:
 665              		.size	Cy_SysTick_ServiceCallbacks, .-Cy_SysTick_ServiceCallbacks
 666              		.text
 667              	.Letext0:
 668              		.file 3 "c:\\program files (x86)\\cypress\\psoc creator\\4.2\\psoc creator\\import\\gnu\\arm\\5.4.
 669              		.file 4 "c:\\program files (x86)\\cypress\\psoc creator\\4.2\\psoc creator\\import\\gnu\\arm\\5.4.
 670              		.file 5 "Generated_Source\\PSoC6\\pdl\\cmsis/include/core_cm0plus.h"
 671              		.file 6 "Generated_Source\\PSoC6\\pdl\\devices/psoc6/ip/cyip_cpuss.h"
 672              		.file 7 "Generated_Source\\PSoC6\\pdl\\drivers/peripheral/syslib/cy_syslib.h"
ARM GAS  C:\Users\salaz\AppData\Local\Temp\ccgxiCjI.s 			page 22

