ARM GAS  C:\Users\salaz\AppData\Local\Temp\ccynHHO7.s 			page 1


   1              		.syntax unified
   2              		.cpu cortex-m0plus
   3              		.fpu softvfp
   4              		.eabi_attribute 20, 1
   5              		.eabi_attribute 21, 1
   6              		.eabi_attribute 23, 3
   7              		.eabi_attribute 24, 1
   8              		.eabi_attribute 25, 1
   9              		.eabi_attribute 26, 1
  10              		.eabi_attribute 30, 6
  11              		.eabi_attribute 34, 0
  12              		.eabi_attribute 18, 4
  13              		.thumb
  14              		.syntax unified
  15              		.file	"cy_scb_spi.c"
  16              		.text
  17              	.Ltext0:
  18              		.cfi_sections	.debug_frame
  19              		.section	.text.Cy_SCB_ReadRxFifo,"ax",%progbits
  20              		.align	2
  21              		.code	16
  22              		.thumb_func
  23              		.type	Cy_SCB_ReadRxFifo, %function
  24              	Cy_SCB_ReadRxFifo:
  25              	.LFB69:
  26              		.file 1 "Generated_Source\\PSoC6\\pdl\\drivers\\peripheral\\scb\\cy_scb_common.h"
   1:Generated_Source\PSoC6\pdl\drivers\peripheral\scb/cy_scb_common.h **** /***************************************************************************//**
   2:Generated_Source\PSoC6\pdl\drivers\peripheral\scb/cy_scb_common.h **** * \file cy_scb_common.h
   3:Generated_Source\PSoC6\pdl\drivers\peripheral\scb/cy_scb_common.h **** * \version 2.10
   4:Generated_Source\PSoC6\pdl\drivers\peripheral\scb/cy_scb_common.h **** *
   5:Generated_Source\PSoC6\pdl\drivers\peripheral\scb/cy_scb_common.h **** * Provides common API declarations of the SCB driver.
   6:Generated_Source\PSoC6\pdl\drivers\peripheral\scb/cy_scb_common.h **** *
   7:Generated_Source\PSoC6\pdl\drivers\peripheral\scb/cy_scb_common.h **** ********************************************************************************
   8:Generated_Source\PSoC6\pdl\drivers\peripheral\scb/cy_scb_common.h **** * \copyright
   9:Generated_Source\PSoC6\pdl\drivers\peripheral\scb/cy_scb_common.h **** * Copyright 2016-2018, Cypress Semiconductor Corporation.  All rights reserved.
  10:Generated_Source\PSoC6\pdl\drivers\peripheral\scb/cy_scb_common.h **** * You may use this file only in accordance with the license, terms, conditions,
  11:Generated_Source\PSoC6\pdl\drivers\peripheral\scb/cy_scb_common.h **** * disclaimers, and limitations in the end user license agreement accompanying
  12:Generated_Source\PSoC6\pdl\drivers\peripheral\scb/cy_scb_common.h **** * the software package with which this file was provided.
  13:Generated_Source\PSoC6\pdl\drivers\peripheral\scb/cy_scb_common.h **** *******************************************************************************/
  14:Generated_Source\PSoC6\pdl\drivers\peripheral\scb/cy_scb_common.h **** 
  15:Generated_Source\PSoC6\pdl\drivers\peripheral\scb/cy_scb_common.h **** /**
  16:Generated_Source\PSoC6\pdl\drivers\peripheral\scb/cy_scb_common.h **** * \defgroup group_scb Serial Communication Block (SCB)
  17:Generated_Source\PSoC6\pdl\drivers\peripheral\scb/cy_scb_common.h **** * \{
  18:Generated_Source\PSoC6\pdl\drivers\peripheral\scb/cy_scb_common.h **** * \defgroup group_scb_common Common
  19:Generated_Source\PSoC6\pdl\drivers\peripheral\scb/cy_scb_common.h **** * \defgroup group_scb_ezi2c  EZI2C (SCB)
  20:Generated_Source\PSoC6\pdl\drivers\peripheral\scb/cy_scb_common.h **** * \defgroup group_scb_i2c    I2C (SCB)
  21:Generated_Source\PSoC6\pdl\drivers\peripheral\scb/cy_scb_common.h **** * \defgroup group_scb_spi    SPI (SCB)
  22:Generated_Source\PSoC6\pdl\drivers\peripheral\scb/cy_scb_common.h **** * \defgroup group_scb_uart   UART (SCB)
  23:Generated_Source\PSoC6\pdl\drivers\peripheral\scb/cy_scb_common.h **** * \} */
  24:Generated_Source\PSoC6\pdl\drivers\peripheral\scb/cy_scb_common.h **** 
  25:Generated_Source\PSoC6\pdl\drivers\peripheral\scb/cy_scb_common.h **** /**
  26:Generated_Source\PSoC6\pdl\drivers\peripheral\scb/cy_scb_common.h **** * \addtogroup group_scb_common
  27:Generated_Source\PSoC6\pdl\drivers\peripheral\scb/cy_scb_common.h **** * \{
  28:Generated_Source\PSoC6\pdl\drivers\peripheral\scb/cy_scb_common.h **** *
  29:Generated_Source\PSoC6\pdl\drivers\peripheral\scb/cy_scb_common.h **** * Common API for the Serial Communication Block.
  30:Generated_Source\PSoC6\pdl\drivers\peripheral\scb/cy_scb_common.h **** *
  31:Generated_Source\PSoC6\pdl\drivers\peripheral\scb/cy_scb_common.h **** * This is the common API that provides an interface to the SCB hardware.
ARM GAS  C:\Users\salaz\AppData\Local\Temp\ccynHHO7.s 			page 2


  32:Generated_Source\PSoC6\pdl\drivers\peripheral\scb/cy_scb_common.h **** * The I2C, SPI, and UART drivers use this common API.
  33:Generated_Source\PSoC6\pdl\drivers\peripheral\scb/cy_scb_common.h **** * Most users will use individual drivers and do not need to use the common
  34:Generated_Source\PSoC6\pdl\drivers\peripheral\scb/cy_scb_common.h **** * API for the SCB. However, you can use the common SCB API to implement
  35:Generated_Source\PSoC6\pdl\drivers\peripheral\scb/cy_scb_common.h **** * a custom driver based on the SCB hardware.
  36:Generated_Source\PSoC6\pdl\drivers\peripheral\scb/cy_scb_common.h **** *
  37:Generated_Source\PSoC6\pdl\drivers\peripheral\scb/cy_scb_common.h **** * \section group_scb_common_configuration Configuration Considerations
  38:Generated_Source\PSoC6\pdl\drivers\peripheral\scb/cy_scb_common.h **** *
  39:Generated_Source\PSoC6\pdl\drivers\peripheral\scb/cy_scb_common.h **** * This is not a driver and it does not require configuration.
  40:Generated_Source\PSoC6\pdl\drivers\peripheral\scb/cy_scb_common.h **** *
  41:Generated_Source\PSoC6\pdl\drivers\peripheral\scb/cy_scb_common.h **** * \section group_scb_common_more_information More Information
  42:Generated_Source\PSoC6\pdl\drivers\peripheral\scb/cy_scb_common.h **** *
  43:Generated_Source\PSoC6\pdl\drivers\peripheral\scb/cy_scb_common.h **** * Refer to the SCB chapter of the technical reference manual (TRM).
  44:Generated_Source\PSoC6\pdl\drivers\peripheral\scb/cy_scb_common.h **** *
  45:Generated_Source\PSoC6\pdl\drivers\peripheral\scb/cy_scb_common.h **** * \section group_scb_common_MISRA MISRA-C Compliance
  46:Generated_Source\PSoC6\pdl\drivers\peripheral\scb/cy_scb_common.h **** * <table class="doxtable">
  47:Generated_Source\PSoC6\pdl\drivers\peripheral\scb/cy_scb_common.h **** *   <tr>
  48:Generated_Source\PSoC6\pdl\drivers\peripheral\scb/cy_scb_common.h **** *     <th>MISRA rule</th>
  49:Generated_Source\PSoC6\pdl\drivers\peripheral\scb/cy_scb_common.h **** *     <th>Rule Class (Required/Advisory)</th>
  50:Generated_Source\PSoC6\pdl\drivers\peripheral\scb/cy_scb_common.h **** *     <th>Rule Description</th>
  51:Generated_Source\PSoC6\pdl\drivers\peripheral\scb/cy_scb_common.h **** *     <th>Description of Deviation(s)</th>
  52:Generated_Source\PSoC6\pdl\drivers\peripheral\scb/cy_scb_common.h **** *   </tr>
  53:Generated_Source\PSoC6\pdl\drivers\peripheral\scb/cy_scb_common.h **** *   <tr>
  54:Generated_Source\PSoC6\pdl\drivers\peripheral\scb/cy_scb_common.h **** *     <td>11.4</td>
  55:Generated_Source\PSoC6\pdl\drivers\peripheral\scb/cy_scb_common.h **** *     <td>A</td>
  56:Generated_Source\PSoC6\pdl\drivers\peripheral\scb/cy_scb_common.h **** *     <td>A cast should not be performed between a pointer to object type and
  57:Generated_Source\PSoC6\pdl\drivers\peripheral\scb/cy_scb_common.h **** *         a different pointer to object type.</td>
  58:Generated_Source\PSoC6\pdl\drivers\peripheral\scb/cy_scb_common.h **** *     <td>The pointer to the buffer memory is void to allow handling of
  59:Generated_Source\PSoC6\pdl\drivers\peripheral\scb/cy_scb_common.h **** *         different data types: uint8_t (4-8 bits) or uint16_t (9-16 bits).
  60:Generated_Source\PSoC6\pdl\drivers\peripheral\scb/cy_scb_common.h **** *         The cast operation is safe because the configuration is verified
  61:Generated_Source\PSoC6\pdl\drivers\peripheral\scb/cy_scb_common.h **** *         before operation is performed.
  62:Generated_Source\PSoC6\pdl\drivers\peripheral\scb/cy_scb_common.h **** *         </td>
  63:Generated_Source\PSoC6\pdl\drivers\peripheral\scb/cy_scb_common.h **** *   </tr>
  64:Generated_Source\PSoC6\pdl\drivers\peripheral\scb/cy_scb_common.h **** * </table>
  65:Generated_Source\PSoC6\pdl\drivers\peripheral\scb/cy_scb_common.h **** *
  66:Generated_Source\PSoC6\pdl\drivers\peripheral\scb/cy_scb_common.h **** * \section group_scb_common_changelog Changelog
  67:Generated_Source\PSoC6\pdl\drivers\peripheral\scb/cy_scb_common.h **** * <table class="doxtable">
  68:Generated_Source\PSoC6\pdl\drivers\peripheral\scb/cy_scb_common.h **** *   <tr><th>Version</th><th>Changes</th><th>Reason for Change</th></tr>
  69:Generated_Source\PSoC6\pdl\drivers\peripheral\scb/cy_scb_common.h **** *   <tr>
  70:Generated_Source\PSoC6\pdl\drivers\peripheral\scb/cy_scb_common.h **** *     <td>2.10</td>
  71:Generated_Source\PSoC6\pdl\drivers\peripheral\scb/cy_scb_common.h **** *     <td>None.</td>
  72:Generated_Source\PSoC6\pdl\drivers\peripheral\scb/cy_scb_common.h **** *     <td>SCB I2C driver updated.</td>
  73:Generated_Source\PSoC6\pdl\drivers\peripheral\scb/cy_scb_common.h **** *   </tr>
  74:Generated_Source\PSoC6\pdl\drivers\peripheral\scb/cy_scb_common.h **** *   <tr>
  75:Generated_Source\PSoC6\pdl\drivers\peripheral\scb/cy_scb_common.h **** *     <td rowspan="2"> 2.0</td>
  76:Generated_Source\PSoC6\pdl\drivers\peripheral\scb/cy_scb_common.h **** *     <td>Added parameters validation for public API.
  77:Generated_Source\PSoC6\pdl\drivers\peripheral\scb/cy_scb_common.h **** *     <td></td>
  78:Generated_Source\PSoC6\pdl\drivers\peripheral\scb/cy_scb_common.h **** *   </tr>
  79:Generated_Source\PSoC6\pdl\drivers\peripheral\scb/cy_scb_common.h **** *   <tr>
  80:Generated_Source\PSoC6\pdl\drivers\peripheral\scb/cy_scb_common.h **** *     <td>Fixed functions which return interrupt status to return only defined
  81:Generated_Source\PSoC6\pdl\drivers\peripheral\scb/cy_scb_common.h **** *         set of interrupt statuses.</td>
  82:Generated_Source\PSoC6\pdl\drivers\peripheral\scb/cy_scb_common.h **** *     <td></td>
  83:Generated_Source\PSoC6\pdl\drivers\peripheral\scb/cy_scb_common.h **** *   </tr>
  84:Generated_Source\PSoC6\pdl\drivers\peripheral\scb/cy_scb_common.h **** *   <tr>
  85:Generated_Source\PSoC6\pdl\drivers\peripheral\scb/cy_scb_common.h **** *     <td>1.0</td>
  86:Generated_Source\PSoC6\pdl\drivers\peripheral\scb/cy_scb_common.h **** *     <td>Initial version.</td>
  87:Generated_Source\PSoC6\pdl\drivers\peripheral\scb/cy_scb_common.h **** *     <td></td>
  88:Generated_Source\PSoC6\pdl\drivers\peripheral\scb/cy_scb_common.h **** *   </tr>
ARM GAS  C:\Users\salaz\AppData\Local\Temp\ccynHHO7.s 			page 3


  89:Generated_Source\PSoC6\pdl\drivers\peripheral\scb/cy_scb_common.h **** * </table>
  90:Generated_Source\PSoC6\pdl\drivers\peripheral\scb/cy_scb_common.h **** *
  91:Generated_Source\PSoC6\pdl\drivers\peripheral\scb/cy_scb_common.h **** * \defgroup group_scb_common_macros Macros
  92:Generated_Source\PSoC6\pdl\drivers\peripheral\scb/cy_scb_common.h **** * \defgroup group_scb_common_functions Functions
  93:Generated_Source\PSoC6\pdl\drivers\peripheral\scb/cy_scb_common.h **** * \defgroup group_scb_common_data_structures Data Structures
  94:Generated_Source\PSoC6\pdl\drivers\peripheral\scb/cy_scb_common.h **** *
  95:Generated_Source\PSoC6\pdl\drivers\peripheral\scb/cy_scb_common.h **** */
  96:Generated_Source\PSoC6\pdl\drivers\peripheral\scb/cy_scb_common.h **** 
  97:Generated_Source\PSoC6\pdl\drivers\peripheral\scb/cy_scb_common.h **** #if !defined(CY_SCB_COMMON_H)
  98:Generated_Source\PSoC6\pdl\drivers\peripheral\scb/cy_scb_common.h **** #define CY_SCB_COMMON_H
  99:Generated_Source\PSoC6\pdl\drivers\peripheral\scb/cy_scb_common.h **** 
 100:Generated_Source\PSoC6\pdl\drivers\peripheral\scb/cy_scb_common.h **** #include <stdint.h>
 101:Generated_Source\PSoC6\pdl\drivers\peripheral\scb/cy_scb_common.h **** #include <stddef.h>
 102:Generated_Source\PSoC6\pdl\drivers\peripheral\scb/cy_scb_common.h **** #include <stdbool.h>
 103:Generated_Source\PSoC6\pdl\drivers\peripheral\scb/cy_scb_common.h **** #include "cy_device_headers.h"
 104:Generated_Source\PSoC6\pdl\drivers\peripheral\scb/cy_scb_common.h **** #include "syslib/cy_syslib.h"
 105:Generated_Source\PSoC6\pdl\drivers\peripheral\scb/cy_scb_common.h **** #include "syspm/cy_syspm.h"
 106:Generated_Source\PSoC6\pdl\drivers\peripheral\scb/cy_scb_common.h **** 
 107:Generated_Source\PSoC6\pdl\drivers\peripheral\scb/cy_scb_common.h **** #ifndef CY_IP_MXSCB
 108:Generated_Source\PSoC6\pdl\drivers\peripheral\scb/cy_scb_common.h ****     #error "The SCB driver is not supported on this device"
 109:Generated_Source\PSoC6\pdl\drivers\peripheral\scb/cy_scb_common.h **** #endif
 110:Generated_Source\PSoC6\pdl\drivers\peripheral\scb/cy_scb_common.h **** 
 111:Generated_Source\PSoC6\pdl\drivers\peripheral\scb/cy_scb_common.h **** #if defined(__cplusplus)
 112:Generated_Source\PSoC6\pdl\drivers\peripheral\scb/cy_scb_common.h **** extern "C" {
 113:Generated_Source\PSoC6\pdl\drivers\peripheral\scb/cy_scb_common.h **** #endif
 114:Generated_Source\PSoC6\pdl\drivers\peripheral\scb/cy_scb_common.h **** 
 115:Generated_Source\PSoC6\pdl\drivers\peripheral\scb/cy_scb_common.h **** 
 116:Generated_Source\PSoC6\pdl\drivers\peripheral\scb/cy_scb_common.h **** /***************************************
 117:Generated_Source\PSoC6\pdl\drivers\peripheral\scb/cy_scb_common.h **** *        Function Prototypes
 118:Generated_Source\PSoC6\pdl\drivers\peripheral\scb/cy_scb_common.h **** ***************************************/
 119:Generated_Source\PSoC6\pdl\drivers\peripheral\scb/cy_scb_common.h **** 
 120:Generated_Source\PSoC6\pdl\drivers\peripheral\scb/cy_scb_common.h **** /**
 121:Generated_Source\PSoC6\pdl\drivers\peripheral\scb/cy_scb_common.h **** * \addtogroup group_scb_common_functions
 122:Generated_Source\PSoC6\pdl\drivers\peripheral\scb/cy_scb_common.h **** * \{
 123:Generated_Source\PSoC6\pdl\drivers\peripheral\scb/cy_scb_common.h **** */
 124:Generated_Source\PSoC6\pdl\drivers\peripheral\scb/cy_scb_common.h **** __STATIC_INLINE uint32_t Cy_SCB_ReadRxFifo    (CySCB_Type const *base);
 125:Generated_Source\PSoC6\pdl\drivers\peripheral\scb/cy_scb_common.h **** __STATIC_INLINE void     Cy_SCB_SetRxFifoLevel(CySCB_Type *base, uint32_t level);
 126:Generated_Source\PSoC6\pdl\drivers\peripheral\scb/cy_scb_common.h **** __STATIC_INLINE uint32_t Cy_SCB_GetNumInRxFifo(CySCB_Type const *base);
 127:Generated_Source\PSoC6\pdl\drivers\peripheral\scb/cy_scb_common.h **** __STATIC_INLINE uint32_t Cy_SCB_GetRxSrValid  (CySCB_Type const *base);
 128:Generated_Source\PSoC6\pdl\drivers\peripheral\scb/cy_scb_common.h **** __STATIC_INLINE void     Cy_SCB_ClearRxFifo   (CySCB_Type *base);
 129:Generated_Source\PSoC6\pdl\drivers\peripheral\scb/cy_scb_common.h **** 
 130:Generated_Source\PSoC6\pdl\drivers\peripheral\scb/cy_scb_common.h **** __STATIC_INLINE void     Cy_SCB_WriteTxFifo   (CySCB_Type *base, uint32_t data);
 131:Generated_Source\PSoC6\pdl\drivers\peripheral\scb/cy_scb_common.h **** __STATIC_INLINE void     Cy_SCB_SetTxFifoLevel(CySCB_Type *base, uint32_t level);
 132:Generated_Source\PSoC6\pdl\drivers\peripheral\scb/cy_scb_common.h **** __STATIC_INLINE uint32_t Cy_SCB_GetNumInTxFifo(CySCB_Type const *base);
 133:Generated_Source\PSoC6\pdl\drivers\peripheral\scb/cy_scb_common.h **** __STATIC_INLINE uint32_t Cy_SCB_GetTxSrValid  (CySCB_Type const *base);
 134:Generated_Source\PSoC6\pdl\drivers\peripheral\scb/cy_scb_common.h **** __STATIC_INLINE bool     Cy_SCB_IsTxComplete  (CySCB_Type const *base);
 135:Generated_Source\PSoC6\pdl\drivers\peripheral\scb/cy_scb_common.h **** __STATIC_INLINE void     Cy_SCB_ClearTxFifo   (CySCB_Type *base);
 136:Generated_Source\PSoC6\pdl\drivers\peripheral\scb/cy_scb_common.h **** 
 137:Generated_Source\PSoC6\pdl\drivers\peripheral\scb/cy_scb_common.h **** __STATIC_INLINE void     Cy_SCB_SetByteMode(CySCB_Type *base, bool byteMode);
 138:Generated_Source\PSoC6\pdl\drivers\peripheral\scb/cy_scb_common.h **** 
 139:Generated_Source\PSoC6\pdl\drivers\peripheral\scb/cy_scb_common.h **** __STATIC_INLINE uint32_t Cy_SCB_GetInterruptCause(CySCB_Type const *base);
 140:Generated_Source\PSoC6\pdl\drivers\peripheral\scb/cy_scb_common.h **** 
 141:Generated_Source\PSoC6\pdl\drivers\peripheral\scb/cy_scb_common.h **** __STATIC_INLINE uint32_t Cy_SCB_GetRxInterruptStatus(CySCB_Type const *base);
 142:Generated_Source\PSoC6\pdl\drivers\peripheral\scb/cy_scb_common.h **** __STATIC_INLINE void     Cy_SCB_SetRxInterruptMask  (CySCB_Type *base, uint32_t interruptMask);
 143:Generated_Source\PSoC6\pdl\drivers\peripheral\scb/cy_scb_common.h **** __STATIC_INLINE uint32_t Cy_SCB_GetRxInterruptMask  (CySCB_Type const *base);
 144:Generated_Source\PSoC6\pdl\drivers\peripheral\scb/cy_scb_common.h **** __STATIC_INLINE uint32_t Cy_SCB_GetRxInterruptStatusMasked(CySCB_Type const *base);
 145:Generated_Source\PSoC6\pdl\drivers\peripheral\scb/cy_scb_common.h **** __STATIC_INLINE void     Cy_SCB_ClearRxInterrupt    (CySCB_Type *base, uint32_t interruptMask);
ARM GAS  C:\Users\salaz\AppData\Local\Temp\ccynHHO7.s 			page 4


 146:Generated_Source\PSoC6\pdl\drivers\peripheral\scb/cy_scb_common.h **** __STATIC_INLINE void     Cy_SCB_SetRxInterrupt      (CySCB_Type *base, uint32_t interruptMask);
 147:Generated_Source\PSoC6\pdl\drivers\peripheral\scb/cy_scb_common.h **** 
 148:Generated_Source\PSoC6\pdl\drivers\peripheral\scb/cy_scb_common.h **** __STATIC_INLINE uint32_t Cy_SCB_GetTxInterruptStatus(CySCB_Type const *base);
 149:Generated_Source\PSoC6\pdl\drivers\peripheral\scb/cy_scb_common.h **** __STATIC_INLINE void     Cy_SCB_SetTxInterruptMask  (CySCB_Type *base, uint32_t interruptMask);
 150:Generated_Source\PSoC6\pdl\drivers\peripheral\scb/cy_scb_common.h **** __STATIC_INLINE uint32_t Cy_SCB_GetTxInterruptMask  (CySCB_Type const *base);
 151:Generated_Source\PSoC6\pdl\drivers\peripheral\scb/cy_scb_common.h **** __STATIC_INLINE uint32_t Cy_SCB_GetTxInterruptStatusMasked(CySCB_Type const *base);
 152:Generated_Source\PSoC6\pdl\drivers\peripheral\scb/cy_scb_common.h **** __STATIC_INLINE void     Cy_SCB_ClearTxInterrupt    (CySCB_Type *base, uint32_t interruptMask);
 153:Generated_Source\PSoC6\pdl\drivers\peripheral\scb/cy_scb_common.h **** __STATIC_INLINE void     Cy_SCB_SetTxInterrupt      (CySCB_Type *base, uint32_t interruptMask);
 154:Generated_Source\PSoC6\pdl\drivers\peripheral\scb/cy_scb_common.h **** 
 155:Generated_Source\PSoC6\pdl\drivers\peripheral\scb/cy_scb_common.h **** __STATIC_INLINE uint32_t Cy_SCB_GetMasterInterruptStatus(CySCB_Type const *base);
 156:Generated_Source\PSoC6\pdl\drivers\peripheral\scb/cy_scb_common.h **** __STATIC_INLINE void     Cy_SCB_SetMasterInterruptMask  (CySCB_Type *base, uint32_t interruptMask);
 157:Generated_Source\PSoC6\pdl\drivers\peripheral\scb/cy_scb_common.h **** __STATIC_INLINE uint32_t Cy_SCB_GetMasterInterruptMask  (CySCB_Type const *base);
 158:Generated_Source\PSoC6\pdl\drivers\peripheral\scb/cy_scb_common.h **** __STATIC_INLINE uint32_t Cy_SCB_GetMasterInterruptStatusMasked(CySCB_Type const *base);
 159:Generated_Source\PSoC6\pdl\drivers\peripheral\scb/cy_scb_common.h **** __STATIC_INLINE void     Cy_SCB_ClearMasterInterrupt    (CySCB_Type *base, uint32_t interruptMask);
 160:Generated_Source\PSoC6\pdl\drivers\peripheral\scb/cy_scb_common.h **** __STATIC_INLINE void     Cy_SCB_SetMasterInterrupt      (CySCB_Type *base, uint32_t interruptMask);
 161:Generated_Source\PSoC6\pdl\drivers\peripheral\scb/cy_scb_common.h **** 
 162:Generated_Source\PSoC6\pdl\drivers\peripheral\scb/cy_scb_common.h **** __STATIC_INLINE uint32_t Cy_SCB_GetSlaveInterruptStatus(CySCB_Type const *base);
 163:Generated_Source\PSoC6\pdl\drivers\peripheral\scb/cy_scb_common.h **** __STATIC_INLINE void     Cy_SCB_SetSlaveInterruptMask  (CySCB_Type *base, uint32_t interruptMask);
 164:Generated_Source\PSoC6\pdl\drivers\peripheral\scb/cy_scb_common.h **** __STATIC_INLINE uint32_t Cy_SCB_GetSlaveInterruptMask  (CySCB_Type const *base);
 165:Generated_Source\PSoC6\pdl\drivers\peripheral\scb/cy_scb_common.h **** __STATIC_INLINE uint32_t Cy_SCB_GetSlaveInterruptStatusMasked(CySCB_Type const *base);
 166:Generated_Source\PSoC6\pdl\drivers\peripheral\scb/cy_scb_common.h **** __STATIC_INLINE void     Cy_SCB_ClearSlaveInterrupt    (CySCB_Type *base, uint32_t interruptMask);
 167:Generated_Source\PSoC6\pdl\drivers\peripheral\scb/cy_scb_common.h **** __STATIC_INLINE void     Cy_SCB_SetSlaveInterrupt      (CySCB_Type *base, uint32_t interruptMask);
 168:Generated_Source\PSoC6\pdl\drivers\peripheral\scb/cy_scb_common.h **** 
 169:Generated_Source\PSoC6\pdl\drivers\peripheral\scb/cy_scb_common.h **** __STATIC_INLINE uint32_t Cy_SCB_GetI2CInterruptStatus(CySCB_Type const *base);
 170:Generated_Source\PSoC6\pdl\drivers\peripheral\scb/cy_scb_common.h **** __STATIC_INLINE void     Cy_SCB_SetI2CInterruptMask  (CySCB_Type *base, uint32_t interruptMask);
 171:Generated_Source\PSoC6\pdl\drivers\peripheral\scb/cy_scb_common.h **** __STATIC_INLINE uint32_t Cy_SCB_GetI2CInterruptMask  (CySCB_Type const *base);
 172:Generated_Source\PSoC6\pdl\drivers\peripheral\scb/cy_scb_common.h **** __STATIC_INLINE uint32_t Cy_SCB_GetI2CInterruptStatusMasked(CySCB_Type const *base);
 173:Generated_Source\PSoC6\pdl\drivers\peripheral\scb/cy_scb_common.h **** __STATIC_INLINE void     Cy_SCB_ClearI2CInterrupt    (CySCB_Type *base, uint32_t interruptMask);
 174:Generated_Source\PSoC6\pdl\drivers\peripheral\scb/cy_scb_common.h **** 
 175:Generated_Source\PSoC6\pdl\drivers\peripheral\scb/cy_scb_common.h **** __STATIC_INLINE uint32_t Cy_SCB_GetSpiInterruptStatus(CySCB_Type const *base);
 176:Generated_Source\PSoC6\pdl\drivers\peripheral\scb/cy_scb_common.h **** __STATIC_INLINE void     Cy_SCB_SetSpiInterruptMask  (CySCB_Type *base, uint32_t interruptMask);
 177:Generated_Source\PSoC6\pdl\drivers\peripheral\scb/cy_scb_common.h **** __STATIC_INLINE uint32_t Cy_SCB_GetSpiInterruptMask  (CySCB_Type const *base);
 178:Generated_Source\PSoC6\pdl\drivers\peripheral\scb/cy_scb_common.h **** __STATIC_INLINE uint32_t Cy_SCB_GetSpiInterruptStatusMasked(CySCB_Type const *base);
 179:Generated_Source\PSoC6\pdl\drivers\peripheral\scb/cy_scb_common.h **** __STATIC_INLINE void     Cy_SCB_ClearSpiInterrupt    (CySCB_Type *base, uint32_t interruptMask);
 180:Generated_Source\PSoC6\pdl\drivers\peripheral\scb/cy_scb_common.h **** 
 181:Generated_Source\PSoC6\pdl\drivers\peripheral\scb/cy_scb_common.h **** 
 182:Generated_Source\PSoC6\pdl\drivers\peripheral\scb/cy_scb_common.h **** /***************************************
 183:Generated_Source\PSoC6\pdl\drivers\peripheral\scb/cy_scb_common.h **** *     Internal Function Prototypes
 184:Generated_Source\PSoC6\pdl\drivers\peripheral\scb/cy_scb_common.h **** ***************************************/
 185:Generated_Source\PSoC6\pdl\drivers\peripheral\scb/cy_scb_common.h **** 
 186:Generated_Source\PSoC6\pdl\drivers\peripheral\scb/cy_scb_common.h **** /** \cond INTERNAL */
 187:Generated_Source\PSoC6\pdl\drivers\peripheral\scb/cy_scb_common.h **** void     Cy_SCB_ReadArrayNoCheck  (CySCB_Type const *base, void *buffer, uint32_t size);
 188:Generated_Source\PSoC6\pdl\drivers\peripheral\scb/cy_scb_common.h **** uint32_t Cy_SCB_ReadArray         (CySCB_Type const *base, void *buffer, uint32_t size);
 189:Generated_Source\PSoC6\pdl\drivers\peripheral\scb/cy_scb_common.h **** void     Cy_SCB_ReadArrayBlocking (CySCB_Type const *base, void *buffer, uint32_t size);
 190:Generated_Source\PSoC6\pdl\drivers\peripheral\scb/cy_scb_common.h **** uint32_t Cy_SCB_Write             (CySCB_Type *base, uint32_t data);
 191:Generated_Source\PSoC6\pdl\drivers\peripheral\scb/cy_scb_common.h **** void     Cy_SCB_WriteArrayNoCheck (CySCB_Type *base, void *buffer, uint32_t size);
 192:Generated_Source\PSoC6\pdl\drivers\peripheral\scb/cy_scb_common.h **** uint32_t Cy_SCB_WriteArray        (CySCB_Type *base, void *buffer, uint32_t size);
 193:Generated_Source\PSoC6\pdl\drivers\peripheral\scb/cy_scb_common.h **** void     Cy_SCB_WriteArrayBlocking(CySCB_Type *base, void *buffer, uint32_t size);
 194:Generated_Source\PSoC6\pdl\drivers\peripheral\scb/cy_scb_common.h **** void     Cy_SCB_WriteString       (CySCB_Type *base, char_t const string[]);
 195:Generated_Source\PSoC6\pdl\drivers\peripheral\scb/cy_scb_common.h **** void     Cy_SCB_WriteDefaultArrayNoCheck(CySCB_Type *base, uint32_t txData, uint32_t size);
 196:Generated_Source\PSoC6\pdl\drivers\peripheral\scb/cy_scb_common.h **** uint32_t Cy_SCB_WriteDefaultArray (CySCB_Type *base, uint32_t txData, uint32_t size);
 197:Generated_Source\PSoC6\pdl\drivers\peripheral\scb/cy_scb_common.h **** 
 198:Generated_Source\PSoC6\pdl\drivers\peripheral\scb/cy_scb_common.h **** __STATIC_INLINE uint32_t Cy_SCB_GetFifoSize (CySCB_Type const *base);
 199:Generated_Source\PSoC6\pdl\drivers\peripheral\scb/cy_scb_common.h **** __STATIC_INLINE void     Cy_SCB_FwBlockReset(CySCB_Type *base);
 200:Generated_Source\PSoC6\pdl\drivers\peripheral\scb/cy_scb_common.h **** __STATIC_INLINE bool     Cy_SCB_IsRxDataWidthByte(CySCB_Type const *base);
 201:Generated_Source\PSoC6\pdl\drivers\peripheral\scb/cy_scb_common.h **** __STATIC_INLINE bool     Cy_SCB_IsTxDataWidthByte(CySCB_Type const *base);
 202:Generated_Source\PSoC6\pdl\drivers\peripheral\scb/cy_scb_common.h **** __STATIC_INLINE uint32_t Cy_SCB_GetRxFifoLevel   (CySCB_Type const *base);
ARM GAS  C:\Users\salaz\AppData\Local\Temp\ccynHHO7.s 			page 5


 203:Generated_Source\PSoC6\pdl\drivers\peripheral\scb/cy_scb_common.h **** /** \endcond */
 204:Generated_Source\PSoC6\pdl\drivers\peripheral\scb/cy_scb_common.h **** 
 205:Generated_Source\PSoC6\pdl\drivers\peripheral\scb/cy_scb_common.h **** /** \} group_scb_common_functions */
 206:Generated_Source\PSoC6\pdl\drivers\peripheral\scb/cy_scb_common.h **** 
 207:Generated_Source\PSoC6\pdl\drivers\peripheral\scb/cy_scb_common.h **** /***************************************
 208:Generated_Source\PSoC6\pdl\drivers\peripheral\scb/cy_scb_common.h **** *            API Constants
 209:Generated_Source\PSoC6\pdl\drivers\peripheral\scb/cy_scb_common.h **** ***************************************/
 210:Generated_Source\PSoC6\pdl\drivers\peripheral\scb/cy_scb_common.h **** 
 211:Generated_Source\PSoC6\pdl\drivers\peripheral\scb/cy_scb_common.h **** /**
 212:Generated_Source\PSoC6\pdl\drivers\peripheral\scb/cy_scb_common.h **** * \addtogroup group_scb_common_macros
 213:Generated_Source\PSoC6\pdl\drivers\peripheral\scb/cy_scb_common.h **** * \{
 214:Generated_Source\PSoC6\pdl\drivers\peripheral\scb/cy_scb_common.h **** */
 215:Generated_Source\PSoC6\pdl\drivers\peripheral\scb/cy_scb_common.h **** 
 216:Generated_Source\PSoC6\pdl\drivers\peripheral\scb/cy_scb_common.h **** /** Driver major version */
 217:Generated_Source\PSoC6\pdl\drivers\peripheral\scb/cy_scb_common.h **** #define CY_SCB_DRV_VERSION_MAJOR    (2)
 218:Generated_Source\PSoC6\pdl\drivers\peripheral\scb/cy_scb_common.h **** 
 219:Generated_Source\PSoC6\pdl\drivers\peripheral\scb/cy_scb_common.h **** /** Driver minor version */
 220:Generated_Source\PSoC6\pdl\drivers\peripheral\scb/cy_scb_common.h **** #define CY_SCB_DRV_VERSION_MINOR    (10)
 221:Generated_Source\PSoC6\pdl\drivers\peripheral\scb/cy_scb_common.h **** 
 222:Generated_Source\PSoC6\pdl\drivers\peripheral\scb/cy_scb_common.h **** /** SCB driver identifier */
 223:Generated_Source\PSoC6\pdl\drivers\peripheral\scb/cy_scb_common.h **** #define CY_SCB_ID           CY_PDL_DRV_ID(0x2AU)
 224:Generated_Source\PSoC6\pdl\drivers\peripheral\scb/cy_scb_common.h **** 
 225:Generated_Source\PSoC6\pdl\drivers\peripheral\scb/cy_scb_common.h **** /** Position for SCB driver sub mode */
 226:Generated_Source\PSoC6\pdl\drivers\peripheral\scb/cy_scb_common.h **** #define CY_SCB_SUB_MODE_Pos (13UL)
 227:Generated_Source\PSoC6\pdl\drivers\peripheral\scb/cy_scb_common.h **** 
 228:Generated_Source\PSoC6\pdl\drivers\peripheral\scb/cy_scb_common.h **** /** EZI2C mode identifier */
 229:Generated_Source\PSoC6\pdl\drivers\peripheral\scb/cy_scb_common.h **** #define CY_SCB_EZI2C_ID     (0x0UL << CY_SCB_SUB_MODE_Pos)
 230:Generated_Source\PSoC6\pdl\drivers\peripheral\scb/cy_scb_common.h **** 
 231:Generated_Source\PSoC6\pdl\drivers\peripheral\scb/cy_scb_common.h **** /** EZI2C mode identifier */
 232:Generated_Source\PSoC6\pdl\drivers\peripheral\scb/cy_scb_common.h **** #define CY_SCB_I2C_ID       (0x1UL << CY_SCB_SUB_MODE_Pos)
 233:Generated_Source\PSoC6\pdl\drivers\peripheral\scb/cy_scb_common.h **** 
 234:Generated_Source\PSoC6\pdl\drivers\peripheral\scb/cy_scb_common.h **** /** EZI2C mode identifier */
 235:Generated_Source\PSoC6\pdl\drivers\peripheral\scb/cy_scb_common.h **** #define CY_SCB_SPI_ID       (0x2UL << CY_SCB_SUB_MODE_Pos)
 236:Generated_Source\PSoC6\pdl\drivers\peripheral\scb/cy_scb_common.h **** 
 237:Generated_Source\PSoC6\pdl\drivers\peripheral\scb/cy_scb_common.h **** /** EZI2C mode identifier */
 238:Generated_Source\PSoC6\pdl\drivers\peripheral\scb/cy_scb_common.h **** #define CY_SCB_UART_ID      (0x3UL << CY_SCB_SUB_MODE_Pos)
 239:Generated_Source\PSoC6\pdl\drivers\peripheral\scb/cy_scb_common.h **** 
 240:Generated_Source\PSoC6\pdl\drivers\peripheral\scb/cy_scb_common.h **** /**
 241:Generated_Source\PSoC6\pdl\drivers\peripheral\scb/cy_scb_common.h **** * \defgroup group_scb_common_macros_intr_cause SCB Interrupt Causes
 242:Generated_Source\PSoC6\pdl\drivers\peripheral\scb/cy_scb_common.h **** * \{
 243:Generated_Source\PSoC6\pdl\drivers\peripheral\scb/cy_scb_common.h **** */
 244:Generated_Source\PSoC6\pdl\drivers\peripheral\scb/cy_scb_common.h **** /** Interrupt from Master interrupt sources */
 245:Generated_Source\PSoC6\pdl\drivers\peripheral\scb/cy_scb_common.h **** #define CY_SCB_MASTER_INTR SCB_INTR_CAUSE_M_Msk
 246:Generated_Source\PSoC6\pdl\drivers\peripheral\scb/cy_scb_common.h **** 
 247:Generated_Source\PSoC6\pdl\drivers\peripheral\scb/cy_scb_common.h **** /** Interrupt from Slave interrupt sources  */
 248:Generated_Source\PSoC6\pdl\drivers\peripheral\scb/cy_scb_common.h **** #define CY_SCB_SLAVE_INTR  SCB_INTR_CAUSE_S_Msk
 249:Generated_Source\PSoC6\pdl\drivers\peripheral\scb/cy_scb_common.h **** 
 250:Generated_Source\PSoC6\pdl\drivers\peripheral\scb/cy_scb_common.h **** /** Interrupt from TX interrupt sources */
 251:Generated_Source\PSoC6\pdl\drivers\peripheral\scb/cy_scb_common.h **** #define CY_SCB_TX_INTR     SCB_INTR_CAUSE_TX_Msk
 252:Generated_Source\PSoC6\pdl\drivers\peripheral\scb/cy_scb_common.h **** 
 253:Generated_Source\PSoC6\pdl\drivers\peripheral\scb/cy_scb_common.h **** /** Interrupt from RX interrupt sources */
 254:Generated_Source\PSoC6\pdl\drivers\peripheral\scb/cy_scb_common.h **** #define CY_SCB_RX_INTR     SCB_INTR_CAUSE_RX_Msk
 255:Generated_Source\PSoC6\pdl\drivers\peripheral\scb/cy_scb_common.h **** 
 256:Generated_Source\PSoC6\pdl\drivers\peripheral\scb/cy_scb_common.h **** /** Interrupt from I2C externally clocked interrupt sources */
 257:Generated_Source\PSoC6\pdl\drivers\peripheral\scb/cy_scb_common.h **** #define CY_SCB_I2C_INTR    SCB_INTR_CAUSE_I2C_EC_Msk
 258:Generated_Source\PSoC6\pdl\drivers\peripheral\scb/cy_scb_common.h **** 
 259:Generated_Source\PSoC6\pdl\drivers\peripheral\scb/cy_scb_common.h **** /** Interrupt from SPI externally clocked interrupt sources */
ARM GAS  C:\Users\salaz\AppData\Local\Temp\ccynHHO7.s 			page 6


 260:Generated_Source\PSoC6\pdl\drivers\peripheral\scb/cy_scb_common.h **** #define CY_SCB_SPI_INTR    SCB_INTR_CAUSE_SPI_EC_Msk
 261:Generated_Source\PSoC6\pdl\drivers\peripheral\scb/cy_scb_common.h **** /** \} group_scb_common_macros_intr_cause */
 262:Generated_Source\PSoC6\pdl\drivers\peripheral\scb/cy_scb_common.h **** 
 263:Generated_Source\PSoC6\pdl\drivers\peripheral\scb/cy_scb_common.h **** /**
 264:Generated_Source\PSoC6\pdl\drivers\peripheral\scb/cy_scb_common.h **** * \defgroup group_scb_common_macros_tx_intr TX Interrupt Statuses
 265:Generated_Source\PSoC6\pdl\drivers\peripheral\scb/cy_scb_common.h **** * \{
 266:Generated_Source\PSoC6\pdl\drivers\peripheral\scb/cy_scb_common.h **** */
 267:Generated_Source\PSoC6\pdl\drivers\peripheral\scb/cy_scb_common.h **** /**
 268:Generated_Source\PSoC6\pdl\drivers\peripheral\scb/cy_scb_common.h **** * The number of data elements in the TX FIFO is less than the value
 269:Generated_Source\PSoC6\pdl\drivers\peripheral\scb/cy_scb_common.h **** * of the TX FIFO level
 270:Generated_Source\PSoC6\pdl\drivers\peripheral\scb/cy_scb_common.h **** */
 271:Generated_Source\PSoC6\pdl\drivers\peripheral\scb/cy_scb_common.h **** #define CY_SCB_TX_INTR_LEVEL           SCB_INTR_TX_TRIGGER_Msk
 272:Generated_Source\PSoC6\pdl\drivers\peripheral\scb/cy_scb_common.h **** 
 273:Generated_Source\PSoC6\pdl\drivers\peripheral\scb/cy_scb_common.h **** /** The TX FIFO is not full */
 274:Generated_Source\PSoC6\pdl\drivers\peripheral\scb/cy_scb_common.h **** #define CY_SCB_TX_INTR_NOT_FULL        SCB_INTR_TX_NOT_FULL_Msk
 275:Generated_Source\PSoC6\pdl\drivers\peripheral\scb/cy_scb_common.h **** 
 276:Generated_Source\PSoC6\pdl\drivers\peripheral\scb/cy_scb_common.h **** /** The TX FIFO is empty */
 277:Generated_Source\PSoC6\pdl\drivers\peripheral\scb/cy_scb_common.h **** #define CY_SCB_TX_INTR_EMPTY           SCB_INTR_TX_EMPTY_Msk
 278:Generated_Source\PSoC6\pdl\drivers\peripheral\scb/cy_scb_common.h **** 
 279:Generated_Source\PSoC6\pdl\drivers\peripheral\scb/cy_scb_common.h **** /** An attempt to write to a full TX FIFO */
 280:Generated_Source\PSoC6\pdl\drivers\peripheral\scb/cy_scb_common.h **** #define CY_SCB_TX_INTR_OVERFLOW        SCB_INTR_TX_OVERFLOW_Msk
 281:Generated_Source\PSoC6\pdl\drivers\peripheral\scb/cy_scb_common.h **** 
 282:Generated_Source\PSoC6\pdl\drivers\peripheral\scb/cy_scb_common.h **** /** An attempt to read from an empty TX FIFO */
 283:Generated_Source\PSoC6\pdl\drivers\peripheral\scb/cy_scb_common.h **** #define CY_SCB_TX_INTR_UNDERFLOW       SCB_INTR_TX_UNDERFLOW_Msk
 284:Generated_Source\PSoC6\pdl\drivers\peripheral\scb/cy_scb_common.h **** 
 285:Generated_Source\PSoC6\pdl\drivers\peripheral\scb/cy_scb_common.h **** /** The UART transfer is complete: all data elements from the TX FIFO are sent
 286:Generated_Source\PSoC6\pdl\drivers\peripheral\scb/cy_scb_common.h **** */
 287:Generated_Source\PSoC6\pdl\drivers\peripheral\scb/cy_scb_common.h **** #define CY_SCB_TX_INTR_UART_DONE       SCB_INTR_TX_UART_DONE_Msk
 288:Generated_Source\PSoC6\pdl\drivers\peripheral\scb/cy_scb_common.h **** 
 289:Generated_Source\PSoC6\pdl\drivers\peripheral\scb/cy_scb_common.h **** /** SmartCard only: UART received a NACK */
 290:Generated_Source\PSoC6\pdl\drivers\peripheral\scb/cy_scb_common.h **** #define CY_SCB_TX_INTR_UART_NACK       SCB_INTR_TX_UART_NACK_Msk
 291:Generated_Source\PSoC6\pdl\drivers\peripheral\scb/cy_scb_common.h **** 
 292:Generated_Source\PSoC6\pdl\drivers\peripheral\scb/cy_scb_common.h **** /**
 293:Generated_Source\PSoC6\pdl\drivers\peripheral\scb/cy_scb_common.h **** * SmartCard only: the value on the TX line of the UART does not match the
 294:Generated_Source\PSoC6\pdl\drivers\peripheral\scb/cy_scb_common.h **** * value on the RX line
 295:Generated_Source\PSoC6\pdl\drivers\peripheral\scb/cy_scb_common.h **** */
 296:Generated_Source\PSoC6\pdl\drivers\peripheral\scb/cy_scb_common.h **** #define CY_SCB_TX_INTR_UART_ARB_LOST   SCB_INTR_TX_UART_ARB_LOST_Msk
 297:Generated_Source\PSoC6\pdl\drivers\peripheral\scb/cy_scb_common.h **** /** \} group_scb_common_macros_tx_intr */
 298:Generated_Source\PSoC6\pdl\drivers\peripheral\scb/cy_scb_common.h **** 
 299:Generated_Source\PSoC6\pdl\drivers\peripheral\scb/cy_scb_common.h **** /**
 300:Generated_Source\PSoC6\pdl\drivers\peripheral\scb/cy_scb_common.h **** * \defgroup group_scb_common_macros_rx_intr RX Interrupt Statuses
 301:Generated_Source\PSoC6\pdl\drivers\peripheral\scb/cy_scb_common.h **** * \{
 302:Generated_Source\PSoC6\pdl\drivers\peripheral\scb/cy_scb_common.h **** */
 303:Generated_Source\PSoC6\pdl\drivers\peripheral\scb/cy_scb_common.h **** /**
 304:Generated_Source\PSoC6\pdl\drivers\peripheral\scb/cy_scb_common.h **** * The number of data elements in the RX FIFO is greater than the value of the
 305:Generated_Source\PSoC6\pdl\drivers\peripheral\scb/cy_scb_common.h **** * RX FIFO level
 306:Generated_Source\PSoC6\pdl\drivers\peripheral\scb/cy_scb_common.h **** */
 307:Generated_Source\PSoC6\pdl\drivers\peripheral\scb/cy_scb_common.h **** #define CY_SCB_RX_INTR_LEVEL             SCB_INTR_RX_TRIGGER_Msk
 308:Generated_Source\PSoC6\pdl\drivers\peripheral\scb/cy_scb_common.h **** 
 309:Generated_Source\PSoC6\pdl\drivers\peripheral\scb/cy_scb_common.h **** /** The RX FIFO is not empty */
 310:Generated_Source\PSoC6\pdl\drivers\peripheral\scb/cy_scb_common.h **** #define CY_SCB_RX_INTR_NOT_EMPTY         SCB_INTR_RX_NOT_EMPTY_Msk
 311:Generated_Source\PSoC6\pdl\drivers\peripheral\scb/cy_scb_common.h **** 
 312:Generated_Source\PSoC6\pdl\drivers\peripheral\scb/cy_scb_common.h **** /** The RX FIFO is full */
 313:Generated_Source\PSoC6\pdl\drivers\peripheral\scb/cy_scb_common.h **** #define CY_SCB_RX_INTR_FULL              SCB_INTR_RX_FULL_Msk
 314:Generated_Source\PSoC6\pdl\drivers\peripheral\scb/cy_scb_common.h **** 
 315:Generated_Source\PSoC6\pdl\drivers\peripheral\scb/cy_scb_common.h **** /** An attempt to write to a full RX FIFO */
 316:Generated_Source\PSoC6\pdl\drivers\peripheral\scb/cy_scb_common.h **** #define CY_SCB_RX_INTR_OVERFLOW          SCB_INTR_RX_OVERFLOW_Msk
ARM GAS  C:\Users\salaz\AppData\Local\Temp\ccynHHO7.s 			page 7


 317:Generated_Source\PSoC6\pdl\drivers\peripheral\scb/cy_scb_common.h **** 
 318:Generated_Source\PSoC6\pdl\drivers\peripheral\scb/cy_scb_common.h **** /** An attempt to read from an empty RX FIFO */
 319:Generated_Source\PSoC6\pdl\drivers\peripheral\scb/cy_scb_common.h **** #define CY_SCB_RX_INTR_UNDERFLOW         SCB_INTR_RX_UNDERFLOW_Msk
 320:Generated_Source\PSoC6\pdl\drivers\peripheral\scb/cy_scb_common.h **** 
 321:Generated_Source\PSoC6\pdl\drivers\peripheral\scb/cy_scb_common.h **** /** A UART framing error detected */
 322:Generated_Source\PSoC6\pdl\drivers\peripheral\scb/cy_scb_common.h **** #define CY_SCB_RX_INTR_UART_FRAME_ERROR  SCB_INTR_RX_FRAME_ERROR_Msk
 323:Generated_Source\PSoC6\pdl\drivers\peripheral\scb/cy_scb_common.h **** 
 324:Generated_Source\PSoC6\pdl\drivers\peripheral\scb/cy_scb_common.h **** /** A UART parity error detected  */
 325:Generated_Source\PSoC6\pdl\drivers\peripheral\scb/cy_scb_common.h **** #define CY_SCB_RX_INTR_UART_PARITY_ERROR SCB_INTR_RX_PARITY_ERROR_Msk
 326:Generated_Source\PSoC6\pdl\drivers\peripheral\scb/cy_scb_common.h **** 
 327:Generated_Source\PSoC6\pdl\drivers\peripheral\scb/cy_scb_common.h **** /** A UART break detected */
 328:Generated_Source\PSoC6\pdl\drivers\peripheral\scb/cy_scb_common.h **** #define CY_SCB_RX_INTR_UART_BREAK_DETECT SCB_INTR_RX_BREAK_DETECT_Msk
 329:Generated_Source\PSoC6\pdl\drivers\peripheral\scb/cy_scb_common.h **** /** \} group_scb_common_macros_rx_intr */
 330:Generated_Source\PSoC6\pdl\drivers\peripheral\scb/cy_scb_common.h **** 
 331:Generated_Source\PSoC6\pdl\drivers\peripheral\scb/cy_scb_common.h **** /**
 332:Generated_Source\PSoC6\pdl\drivers\peripheral\scb/cy_scb_common.h **** * \defgroup group_scb_common_macros_slave_intr Slave Interrupt Statuses
 333:Generated_Source\PSoC6\pdl\drivers\peripheral\scb/cy_scb_common.h **** * \{
 334:Generated_Source\PSoC6\pdl\drivers\peripheral\scb/cy_scb_common.h **** */
 335:Generated_Source\PSoC6\pdl\drivers\peripheral\scb/cy_scb_common.h **** /**
 336:Generated_Source\PSoC6\pdl\drivers\peripheral\scb/cy_scb_common.h **** * I2C slave lost arbitration: the value driven on the SDA line is not the same
 337:Generated_Source\PSoC6\pdl\drivers\peripheral\scb/cy_scb_common.h **** * as the value observed on the SDA line
 338:Generated_Source\PSoC6\pdl\drivers\peripheral\scb/cy_scb_common.h **** */
 339:Generated_Source\PSoC6\pdl\drivers\peripheral\scb/cy_scb_common.h **** #define CY_SCB_SLAVE_INTR_I2C_ARB_LOST      SCB_INTR_S_I2C_ARB_LOST_Msk
 340:Generated_Source\PSoC6\pdl\drivers\peripheral\scb/cy_scb_common.h **** 
 341:Generated_Source\PSoC6\pdl\drivers\peripheral\scb/cy_scb_common.h **** /** The I2C slave received a NAK */
 342:Generated_Source\PSoC6\pdl\drivers\peripheral\scb/cy_scb_common.h **** #define CY_SCB_SLAVE_INTR_I2C_NACK          SCB_INTR_S_I2C_NACK_Msk
 343:Generated_Source\PSoC6\pdl\drivers\peripheral\scb/cy_scb_common.h **** 
 344:Generated_Source\PSoC6\pdl\drivers\peripheral\scb/cy_scb_common.h **** /** The I2C slave received  an ACK */
 345:Generated_Source\PSoC6\pdl\drivers\peripheral\scb/cy_scb_common.h **** #define CY_SCB_SLAVE_INTR_I2C_ACK           SCB_INTR_S_I2C_ACK_Msk
 346:Generated_Source\PSoC6\pdl\drivers\peripheral\scb/cy_scb_common.h **** 
 347:Generated_Source\PSoC6\pdl\drivers\peripheral\scb/cy_scb_common.h **** /**
 348:Generated_Source\PSoC6\pdl\drivers\peripheral\scb/cy_scb_common.h **** * A Stop or Repeated Start event for a write transfer intended for this slave
 349:Generated_Source\PSoC6\pdl\drivers\peripheral\scb/cy_scb_common.h **** * was detected.
 350:Generated_Source\PSoC6\pdl\drivers\peripheral\scb/cy_scb_common.h **** */
 351:Generated_Source\PSoC6\pdl\drivers\peripheral\scb/cy_scb_common.h **** #define CY_SCB_SLAVE_INTR_I2C_WRITE_STOP    SCB_INTR_S_I2C_WRITE_STOP_Msk
 352:Generated_Source\PSoC6\pdl\drivers\peripheral\scb/cy_scb_common.h **** 
 353:Generated_Source\PSoC6\pdl\drivers\peripheral\scb/cy_scb_common.h **** /** A Stop or Repeated Start event intended for this slave was detected */
 354:Generated_Source\PSoC6\pdl\drivers\peripheral\scb/cy_scb_common.h **** #define CY_SCB_SLAVE_INTR_I2C_STOP          SCB_INTR_S_I2C_STOP_Msk
 355:Generated_Source\PSoC6\pdl\drivers\peripheral\scb/cy_scb_common.h **** 
 356:Generated_Source\PSoC6\pdl\drivers\peripheral\scb/cy_scb_common.h **** /** The I2C slave received a Start condition */
 357:Generated_Source\PSoC6\pdl\drivers\peripheral\scb/cy_scb_common.h **** #define CY_SCB_SLAVE_INTR_I2C_START         SCB_INTR_S_I2C_START_Msk
 358:Generated_Source\PSoC6\pdl\drivers\peripheral\scb/cy_scb_common.h **** 
 359:Generated_Source\PSoC6\pdl\drivers\peripheral\scb/cy_scb_common.h **** /** The I2C slave received the matching address */
 360:Generated_Source\PSoC6\pdl\drivers\peripheral\scb/cy_scb_common.h **** #define CY_SCB_SLAVE_INTR_I2C_ADDR_MATCH    SCB_INTR_S_I2C_ADDR_MATCH_Msk
 361:Generated_Source\PSoC6\pdl\drivers\peripheral\scb/cy_scb_common.h **** 
 362:Generated_Source\PSoC6\pdl\drivers\peripheral\scb/cy_scb_common.h **** /** The I2C Slave received the general call address */
 363:Generated_Source\PSoC6\pdl\drivers\peripheral\scb/cy_scb_common.h **** #define CY_SCB_SLAVE_INTR_I2C_GENERAL_ADDR  SCB_INTR_S_I2C_GENERAL_Msk
 364:Generated_Source\PSoC6\pdl\drivers\peripheral\scb/cy_scb_common.h **** 
 365:Generated_Source\PSoC6\pdl\drivers\peripheral\scb/cy_scb_common.h **** /** The I2C slave bus error (detection of unexpected Start or Stop condition) */
 366:Generated_Source\PSoC6\pdl\drivers\peripheral\scb/cy_scb_common.h **** #define CY_SCB_SLAVE_INTR_I2C_BUS_ERROR     SCB_INTR_S_I2C_BUS_ERROR_Msk
 367:Generated_Source\PSoC6\pdl\drivers\peripheral\scb/cy_scb_common.h **** 
 368:Generated_Source\PSoC6\pdl\drivers\peripheral\scb/cy_scb_common.h **** /**
 369:Generated_Source\PSoC6\pdl\drivers\peripheral\scb/cy_scb_common.h **** * The SPI slave select line is deselected at an expected time during an
 370:Generated_Source\PSoC6\pdl\drivers\peripheral\scb/cy_scb_common.h **** * SPI transfer.
 371:Generated_Source\PSoC6\pdl\drivers\peripheral\scb/cy_scb_common.h **** */
 372:Generated_Source\PSoC6\pdl\drivers\peripheral\scb/cy_scb_common.h **** #define CY_SCB_SLAVE_INTR_SPI_BUS_ERROR     SCB_INTR_S_SPI_BUS_ERROR_Msk
 373:Generated_Source\PSoC6\pdl\drivers\peripheral\scb/cy_scb_common.h **** /** \} group_scb_common_macros_slave_intr */
ARM GAS  C:\Users\salaz\AppData\Local\Temp\ccynHHO7.s 			page 8


 374:Generated_Source\PSoC6\pdl\drivers\peripheral\scb/cy_scb_common.h **** 
 375:Generated_Source\PSoC6\pdl\drivers\peripheral\scb/cy_scb_common.h **** /**
 376:Generated_Source\PSoC6\pdl\drivers\peripheral\scb/cy_scb_common.h **** * \defgroup group_scb_common_macros_master_intr Master Interrupt Statuses
 377:Generated_Source\PSoC6\pdl\drivers\peripheral\scb/cy_scb_common.h **** * \{
 378:Generated_Source\PSoC6\pdl\drivers\peripheral\scb/cy_scb_common.h **** */
 379:Generated_Source\PSoC6\pdl\drivers\peripheral\scb/cy_scb_common.h **** /** The I2C master lost arbitration */
 380:Generated_Source\PSoC6\pdl\drivers\peripheral\scb/cy_scb_common.h **** #define CY_SCB_MASTER_INTR_I2C_ARB_LOST    SCB_INTR_M_I2C_ARB_LOST_Msk
 381:Generated_Source\PSoC6\pdl\drivers\peripheral\scb/cy_scb_common.h **** 
 382:Generated_Source\PSoC6\pdl\drivers\peripheral\scb/cy_scb_common.h **** /** The I2C master received a NACK */
 383:Generated_Source\PSoC6\pdl\drivers\peripheral\scb/cy_scb_common.h **** #define CY_SCB_MASTER_INTR_I2C_NACK        SCB_INTR_M_I2C_NACK_Msk
 384:Generated_Source\PSoC6\pdl\drivers\peripheral\scb/cy_scb_common.h **** 
 385:Generated_Source\PSoC6\pdl\drivers\peripheral\scb/cy_scb_common.h **** /** The I2C master received an ACK */
 386:Generated_Source\PSoC6\pdl\drivers\peripheral\scb/cy_scb_common.h **** #define CY_SCB_MASTER_INTR_I2C_ACK         SCB_INTR_M_I2C_ACK_Msk
 387:Generated_Source\PSoC6\pdl\drivers\peripheral\scb/cy_scb_common.h **** 
 388:Generated_Source\PSoC6\pdl\drivers\peripheral\scb/cy_scb_common.h **** /** The I2C master generated a Stop */
 389:Generated_Source\PSoC6\pdl\drivers\peripheral\scb/cy_scb_common.h **** #define CY_SCB_MASTER_INTR_I2C_STOP        SCB_INTR_M_I2C_STOP_Msk
 390:Generated_Source\PSoC6\pdl\drivers\peripheral\scb/cy_scb_common.h **** 
 391:Generated_Source\PSoC6\pdl\drivers\peripheral\scb/cy_scb_common.h **** /** The I2C master bus error (detection of unexpected START or STOP condition)
 392:Generated_Source\PSoC6\pdl\drivers\peripheral\scb/cy_scb_common.h **** */
 393:Generated_Source\PSoC6\pdl\drivers\peripheral\scb/cy_scb_common.h **** #define CY_SCB_MASTER_INTR_I2C_BUS_ERROR   SCB_INTR_M_I2C_BUS_ERROR_Msk
 394:Generated_Source\PSoC6\pdl\drivers\peripheral\scb/cy_scb_common.h **** 
 395:Generated_Source\PSoC6\pdl\drivers\peripheral\scb/cy_scb_common.h **** /**
 396:Generated_Source\PSoC6\pdl\drivers\peripheral\scb/cy_scb_common.h **** * The SPI master transfer is complete: all data elements transferred from the
 397:Generated_Source\PSoC6\pdl\drivers\peripheral\scb/cy_scb_common.h **** * TX FIFO and TX shift register.
 398:Generated_Source\PSoC6\pdl\drivers\peripheral\scb/cy_scb_common.h **** */
 399:Generated_Source\PSoC6\pdl\drivers\peripheral\scb/cy_scb_common.h **** #define CY_SCB_MASTER_INTR_SPI_DONE        SCB_INTR_M_SPI_DONE_Msk
 400:Generated_Source\PSoC6\pdl\drivers\peripheral\scb/cy_scb_common.h **** /** \} group_scb_common_macros_master_intr */
 401:Generated_Source\PSoC6\pdl\drivers\peripheral\scb/cy_scb_common.h **** 
 402:Generated_Source\PSoC6\pdl\drivers\peripheral\scb/cy_scb_common.h **** /**
 403:Generated_Source\PSoC6\pdl\drivers\peripheral\scb/cy_scb_common.h **** * \defgroup group_scb_common_macros_i2c_intr I2C Interrupt Statuses
 404:Generated_Source\PSoC6\pdl\drivers\peripheral\scb/cy_scb_common.h **** * \{
 405:Generated_Source\PSoC6\pdl\drivers\peripheral\scb/cy_scb_common.h **** */
 406:Generated_Source\PSoC6\pdl\drivers\peripheral\scb/cy_scb_common.h **** /**
 407:Generated_Source\PSoC6\pdl\drivers\peripheral\scb/cy_scb_common.h **** * Wake up request: the I2C slave received the matching address.
 408:Generated_Source\PSoC6\pdl\drivers\peripheral\scb/cy_scb_common.h **** * Note that this interrupt source triggers in active mode.
 409:Generated_Source\PSoC6\pdl\drivers\peripheral\scb/cy_scb_common.h **** */
 410:Generated_Source\PSoC6\pdl\drivers\peripheral\scb/cy_scb_common.h **** #define CY_SCB_I2C_INTR_WAKEUP     SCB_INTR_I2C_EC_WAKE_UP_Msk
 411:Generated_Source\PSoC6\pdl\drivers\peripheral\scb/cy_scb_common.h **** /** \} group_scb_common_macros_i2c_intr */
 412:Generated_Source\PSoC6\pdl\drivers\peripheral\scb/cy_scb_common.h **** 
 413:Generated_Source\PSoC6\pdl\drivers\peripheral\scb/cy_scb_common.h **** /**
 414:Generated_Source\PSoC6\pdl\drivers\peripheral\scb/cy_scb_common.h **** * \defgroup group_scb_common_macros_SpiIntrStatuses SPI Interrupt Statuses
 415:Generated_Source\PSoC6\pdl\drivers\peripheral\scb/cy_scb_common.h **** * \{
 416:Generated_Source\PSoC6\pdl\drivers\peripheral\scb/cy_scb_common.h **** */
 417:Generated_Source\PSoC6\pdl\drivers\peripheral\scb/cy_scb_common.h **** /**
 418:Generated_Source\PSoC6\pdl\drivers\peripheral\scb/cy_scb_common.h **** * Wake up request: the SPI slave detects an active edge of the slave select
 419:Generated_Source\PSoC6\pdl\drivers\peripheral\scb/cy_scb_common.h **** * signal. Note that this interrupt source triggers in active mode.
 420:Generated_Source\PSoC6\pdl\drivers\peripheral\scb/cy_scb_common.h **** */
 421:Generated_Source\PSoC6\pdl\drivers\peripheral\scb/cy_scb_common.h **** #define CY_SCB_SPI_INTR_WAKEUP     SCB_INTR_SPI_EC_WAKE_UP_Msk
 422:Generated_Source\PSoC6\pdl\drivers\peripheral\scb/cy_scb_common.h **** /** \} group_scb_common_macros_SpiIntrStatuses */
 423:Generated_Source\PSoC6\pdl\drivers\peripheral\scb/cy_scb_common.h **** 
 424:Generated_Source\PSoC6\pdl\drivers\peripheral\scb/cy_scb_common.h **** 
 425:Generated_Source\PSoC6\pdl\drivers\peripheral\scb/cy_scb_common.h **** /***************************************
 426:Generated_Source\PSoC6\pdl\drivers\peripheral\scb/cy_scb_common.h **** *         Internal Constants
 427:Generated_Source\PSoC6\pdl\drivers\peripheral\scb/cy_scb_common.h **** ***************************************/
 428:Generated_Source\PSoC6\pdl\drivers\peripheral\scb/cy_scb_common.h **** 
 429:Generated_Source\PSoC6\pdl\drivers\peripheral\scb/cy_scb_common.h **** /** \cond INTERNAL */
 430:Generated_Source\PSoC6\pdl\drivers\peripheral\scb/cy_scb_common.h **** 
ARM GAS  C:\Users\salaz\AppData\Local\Temp\ccynHHO7.s 			page 9


 431:Generated_Source\PSoC6\pdl\drivers\peripheral\scb/cy_scb_common.h **** /* Default registers values */
 432:Generated_Source\PSoC6\pdl\drivers\peripheral\scb/cy_scb_common.h **** #define CY_SCB_CTRL_DEF_VAL         (_VAL2FLD(SCB_CTRL_OVS, 15UL) | \
 433:Generated_Source\PSoC6\pdl\drivers\peripheral\scb/cy_scb_common.h ****                                      _VAL2FLD(SCB_CTRL_MODE, 3UL))
 434:Generated_Source\PSoC6\pdl\drivers\peripheral\scb/cy_scb_common.h **** 
 435:Generated_Source\PSoC6\pdl\drivers\peripheral\scb/cy_scb_common.h **** #define CY_SCB_I2C_CTRL_DEF_VAL     (_VAL2FLD(SCB_I2C_CTRL_HIGH_PHASE_OVS, 8UL)        | \
 436:Generated_Source\PSoC6\pdl\drivers\peripheral\scb/cy_scb_common.h ****                                      _VAL2FLD(SCB_I2C_CTRL_HIGH_PHASE_OVS, 8UL)        | \
 437:Generated_Source\PSoC6\pdl\drivers\peripheral\scb/cy_scb_common.h ****                                      _VAL2FLD(SCB_I2C_CTRL_M_READY_DATA_ACK, 1UL)      | \
 438:Generated_Source\PSoC6\pdl\drivers\peripheral\scb/cy_scb_common.h ****                                      _VAL2FLD(SCB_I2C_CTRL_M_NOT_READY_DATA_NACK, 1UL) | \
 439:Generated_Source\PSoC6\pdl\drivers\peripheral\scb/cy_scb_common.h ****                                      _VAL2FLD(SCB_I2C_CTRL_S_GENERAL_IGNORE, 1UL)      | \
 440:Generated_Source\PSoC6\pdl\drivers\peripheral\scb/cy_scb_common.h ****                                      _VAL2FLD(SCB_I2C_CTRL_S_READY_ADDR_ACK, 1UL)      | \
 441:Generated_Source\PSoC6\pdl\drivers\peripheral\scb/cy_scb_common.h ****                                      _VAL2FLD(SCB_I2C_CTRL_S_READY_DATA_ACK, 1UL)      | \
 442:Generated_Source\PSoC6\pdl\drivers\peripheral\scb/cy_scb_common.h ****                                      _VAL2FLD(SCB_I2C_CTRL_S_NOT_READY_ADDR_NACK, 1UL) | \
 443:Generated_Source\PSoC6\pdl\drivers\peripheral\scb/cy_scb_common.h ****                                      _VAL2FLD(SCB_I2C_CTRL_S_NOT_READY_DATA_NACK, 1UL))
 444:Generated_Source\PSoC6\pdl\drivers\peripheral\scb/cy_scb_common.h **** 
 445:Generated_Source\PSoC6\pdl\drivers\peripheral\scb/cy_scb_common.h **** #define CY_SCB_I2C_CFG_DEF_VAL      (_VAL2FLD(SCB_I2C_CFG_SDA_IN_FILT_TRIM, 3UL)   | \
 446:Generated_Source\PSoC6\pdl\drivers\peripheral\scb/cy_scb_common.h ****                                      _VAL2FLD(SCB_I2C_CFG_SDA_IN_FILT_SEL, 1UL)    | \
 447:Generated_Source\PSoC6\pdl\drivers\peripheral\scb/cy_scb_common.h ****                                      _VAL2FLD(SCB_I2C_CFG_SCL_IN_FILT_SEL, 1UL)    | \
 448:Generated_Source\PSoC6\pdl\drivers\peripheral\scb/cy_scb_common.h ****                                      _VAL2FLD(SCB_I2C_CFG_SDA_OUT_FILT0_TRIM, 2UL) | \
 449:Generated_Source\PSoC6\pdl\drivers\peripheral\scb/cy_scb_common.h ****                                      _VAL2FLD(SCB_I2C_CFG_SDA_OUT_FILT1_TRIM, 2UL) | \
 450:Generated_Source\PSoC6\pdl\drivers\peripheral\scb/cy_scb_common.h ****                                      _VAL2FLD(SCB_I2C_CFG_SDA_OUT_FILT2_TRIM, 2UL))
 451:Generated_Source\PSoC6\pdl\drivers\peripheral\scb/cy_scb_common.h **** 
 452:Generated_Source\PSoC6\pdl\drivers\peripheral\scb/cy_scb_common.h **** #define CY_SCB_SPI_CTRL_DEF_VAL     _VAL2FLD(SCB_SPI_CTRL_MODE, 3UL)
 453:Generated_Source\PSoC6\pdl\drivers\peripheral\scb/cy_scb_common.h **** #define CY_SCB_UART_CTRL_DEF_VAL    _VAL2FLD(SCB_UART_CTRL_MODE, 3UL)
 454:Generated_Source\PSoC6\pdl\drivers\peripheral\scb/cy_scb_common.h **** 
 455:Generated_Source\PSoC6\pdl\drivers\peripheral\scb/cy_scb_common.h **** #define CY_SCB_UART_RX_CTRL_DEF_VAL (_VAL2FLD(SCB_UART_RX_CTRL_STOP_BITS, 2UL) | \
 456:Generated_Source\PSoC6\pdl\drivers\peripheral\scb/cy_scb_common.h ****                                      _VAL2FLD(SCB_UART_RX_CTRL_BREAK_WIDTH, 10UL))
 457:Generated_Source\PSoC6\pdl\drivers\peripheral\scb/cy_scb_common.h **** 
 458:Generated_Source\PSoC6\pdl\drivers\peripheral\scb/cy_scb_common.h **** #define CY_SCB_UART_TX_CTRL_DEF_VAL _VAL2FLD(SCB_UART_TX_CTRL_STOP_BITS, 2UL)
 459:Generated_Source\PSoC6\pdl\drivers\peripheral\scb/cy_scb_common.h **** 
 460:Generated_Source\PSoC6\pdl\drivers\peripheral\scb/cy_scb_common.h **** #define CY_SCB_RX_CTRL_DEF_VAL      (_VAL2FLD(SCB_RX_CTRL_DATA_WIDTH, 7UL) | \
 461:Generated_Source\PSoC6\pdl\drivers\peripheral\scb/cy_scb_common.h ****                                      _VAL2FLD(SCB_RX_CTRL_MSB_FIRST,  1UL))
 462:Generated_Source\PSoC6\pdl\drivers\peripheral\scb/cy_scb_common.h **** 
 463:Generated_Source\PSoC6\pdl\drivers\peripheral\scb/cy_scb_common.h **** #define CY_SCB_TX_CTRL_DEF_VAL      (_VAL2FLD(SCB_TX_CTRL_DATA_WIDTH, 7UL) | \
 464:Generated_Source\PSoC6\pdl\drivers\peripheral\scb/cy_scb_common.h ****                                      _VAL2FLD(SCB_TX_CTRL_MSB_FIRST,  1UL))
 465:Generated_Source\PSoC6\pdl\drivers\peripheral\scb/cy_scb_common.h **** 
 466:Generated_Source\PSoC6\pdl\drivers\peripheral\scb/cy_scb_common.h **** /* SCB CTRL modes */
 467:Generated_Source\PSoC6\pdl\drivers\peripheral\scb/cy_scb_common.h **** #define CY_SCB_CTRL_MODE_I2C   (0UL)
 468:Generated_Source\PSoC6\pdl\drivers\peripheral\scb/cy_scb_common.h **** #define CY_SCB_CTRL_MODE_SPI   (1UL)
 469:Generated_Source\PSoC6\pdl\drivers\peripheral\scb/cy_scb_common.h **** #define CY_SCB_CTRL_MODE_UART  (2UL)
 470:Generated_Source\PSoC6\pdl\drivers\peripheral\scb/cy_scb_common.h **** 
 471:Generated_Source\PSoC6\pdl\drivers\peripheral\scb/cy_scb_common.h **** /* The position and mask to set the I2C mode */
 472:Generated_Source\PSoC6\pdl\drivers\peripheral\scb/cy_scb_common.h **** #define CY_SCB_I2C_CTRL_MODE_Pos    SCB_I2C_CTRL_SLAVE_MODE_Pos
 473:Generated_Source\PSoC6\pdl\drivers\peripheral\scb/cy_scb_common.h **** #define CY_SCB_I2C_CTRL_MODE_Msk    (SCB_I2C_CTRL_SLAVE_MODE_Msk | \
 474:Generated_Source\PSoC6\pdl\drivers\peripheral\scb/cy_scb_common.h ****                                      SCB_I2C_CTRL_MASTER_MODE_Msk)
 475:Generated_Source\PSoC6\pdl\drivers\peripheral\scb/cy_scb_common.h **** 
 476:Generated_Source\PSoC6\pdl\drivers\peripheral\scb/cy_scb_common.h **** /* Cypress ID #282226:
 477:Generated_Source\PSoC6\pdl\drivers\peripheral\scb/cy_scb_common.h **** * SCB_I2C_CFG_SDA_IN_FILT_TRIM[1]: SCB clock enable (1), clock disable (0).
 478:Generated_Source\PSoC6\pdl\drivers\peripheral\scb/cy_scb_common.h **** */
 479:Generated_Source\PSoC6\pdl\drivers\peripheral\scb/cy_scb_common.h **** #define CY_SCB_I2C_CFG_CLK_ENABLE_Msk  (_VAL2FLD(SCB_I2C_CFG_SDA_IN_FILT_TRIM, 2UL))
 480:Generated_Source\PSoC6\pdl\drivers\peripheral\scb/cy_scb_common.h **** 
 481:Generated_Source\PSoC6\pdl\drivers\peripheral\scb/cy_scb_common.h **** /* I2C has fixed data width */
 482:Generated_Source\PSoC6\pdl\drivers\peripheral\scb/cy_scb_common.h **** #define CY_SCB_I2C_DATA_WIDTH   (7UL)
 483:Generated_Source\PSoC6\pdl\drivers\peripheral\scb/cy_scb_common.h **** 
 484:Generated_Source\PSoC6\pdl\drivers\peripheral\scb/cy_scb_common.h **** /* RX and TX control register values */
 485:Generated_Source\PSoC6\pdl\drivers\peripheral\scb/cy_scb_common.h **** #define CY_SCB_I2C_RX_CTRL      (_VAL2FLD(SCB_RX_CTRL_DATA_WIDTH, CY_SCB_I2C_DATA_WIDTH) | \
 486:Generated_Source\PSoC6\pdl\drivers\peripheral\scb/cy_scb_common.h ****                                  SCB_RX_CTRL_MSB_FIRST_Msk)
 487:Generated_Source\PSoC6\pdl\drivers\peripheral\scb/cy_scb_common.h **** #define CY_SCB_I2C_TX_CTRL      (_VAL2FLD(SCB_TX_CTRL_DATA_WIDTH, CY_SCB_I2C_DATA_WIDTH) | \
ARM GAS  C:\Users\salaz\AppData\Local\Temp\ccynHHO7.s 			page 10


 488:Generated_Source\PSoC6\pdl\drivers\peripheral\scb/cy_scb_common.h ****                                  SCB_TX_CTRL_MSB_FIRST_Msk | SCB_TX_CTRL_OPEN_DRAIN_Msk)
 489:Generated_Source\PSoC6\pdl\drivers\peripheral\scb/cy_scb_common.h **** 
 490:Generated_Source\PSoC6\pdl\drivers\peripheral\scb/cy_scb_common.h **** /* The position and mask to make an address byte */
 491:Generated_Source\PSoC6\pdl\drivers\peripheral\scb/cy_scb_common.h **** #define CY_SCB_I2C_ADDRESS_Pos  (1UL)
 492:Generated_Source\PSoC6\pdl\drivers\peripheral\scb/cy_scb_common.h **** #define CY_SCB_I2C_ADDRESS_Msk  (0xFEUL)
 493:Generated_Source\PSoC6\pdl\drivers\peripheral\scb/cy_scb_common.h **** 
 494:Generated_Source\PSoC6\pdl\drivers\peripheral\scb/cy_scb_common.h **** /* SPI slave select polarity */
 495:Generated_Source\PSoC6\pdl\drivers\peripheral\scb/cy_scb_common.h **** #define CY_SCB_SPI_CTRL_SSEL_POLARITY_Pos   SCB_SPI_CTRL_SSEL_POLARITY0_Pos
 496:Generated_Source\PSoC6\pdl\drivers\peripheral\scb/cy_scb_common.h **** #define CY_SCB_SPI_CTRL_SSEL_POLARITY_Msk   (SCB_SPI_CTRL_SSEL_POLARITY0_Msk | \
 497:Generated_Source\PSoC6\pdl\drivers\peripheral\scb/cy_scb_common.h ****                                              SCB_SPI_CTRL_SSEL_POLARITY1_Msk | \
 498:Generated_Source\PSoC6\pdl\drivers\peripheral\scb/cy_scb_common.h ****                                              SCB_SPI_CTRL_SSEL_POLARITY2_Msk | \
 499:Generated_Source\PSoC6\pdl\drivers\peripheral\scb/cy_scb_common.h ****                                              SCB_SPI_CTRL_SSEL_POLARITY3_Msk)
 500:Generated_Source\PSoC6\pdl\drivers\peripheral\scb/cy_scb_common.h **** 
 501:Generated_Source\PSoC6\pdl\drivers\peripheral\scb/cy_scb_common.h **** /* SPI clock modes: CPHA and CPOL */
 502:Generated_Source\PSoC6\pdl\drivers\peripheral\scb/cy_scb_common.h **** #define CY_SCB_SPI_CTRL_CLK_MODE_Pos    SCB_SPI_CTRL_CPHA_Pos
 503:Generated_Source\PSoC6\pdl\drivers\peripheral\scb/cy_scb_common.h **** #define CY_SCB_SPI_CTRL_CLK_MODE_Msk    (SCB_SPI_CTRL_CPHA_Msk | SCB_SPI_CTRL_CPOL_Msk)
 504:Generated_Source\PSoC6\pdl\drivers\peripheral\scb/cy_scb_common.h **** 
 505:Generated_Source\PSoC6\pdl\drivers\peripheral\scb/cy_scb_common.h **** /* UART parity and parity enable combination */
 506:Generated_Source\PSoC6\pdl\drivers\peripheral\scb/cy_scb_common.h **** #define CY_SCB_UART_RX_CTRL_SET_PARITY_Msk      (SCB_UART_RX_CTRL_PARITY_ENABLED_Msk | \
 507:Generated_Source\PSoC6\pdl\drivers\peripheral\scb/cy_scb_common.h ****                                                  SCB_UART_RX_CTRL_PARITY_Msk)
 508:Generated_Source\PSoC6\pdl\drivers\peripheral\scb/cy_scb_common.h **** #define CY_SCB_UART_RX_CTRL_SET_PARITY_Pos      SCB_UART_RX_CTRL_PARITY_Pos
 509:Generated_Source\PSoC6\pdl\drivers\peripheral\scb/cy_scb_common.h **** 
 510:Generated_Source\PSoC6\pdl\drivers\peripheral\scb/cy_scb_common.h **** #define CY_SCB_UART_TX_CTRL_SET_PARITY_Msk      (SCB_UART_TX_CTRL_PARITY_ENABLED_Msk | \
 511:Generated_Source\PSoC6\pdl\drivers\peripheral\scb/cy_scb_common.h ****                                                  SCB_UART_TX_CTRL_PARITY_Msk)
 512:Generated_Source\PSoC6\pdl\drivers\peripheral\scb/cy_scb_common.h **** #define CY_SCB_UART_TX_CTRL_SET_PARITY_Pos      SCB_UART_TX_CTRL_PARITY_Pos
 513:Generated_Source\PSoC6\pdl\drivers\peripheral\scb/cy_scb_common.h **** 
 514:Generated_Source\PSoC6\pdl\drivers\peripheral\scb/cy_scb_common.h **** /* Max number of bits for byte mode */
 515:Generated_Source\PSoC6\pdl\drivers\peripheral\scb/cy_scb_common.h **** #define CY_SCB_BYTE_WIDTH   (8UL)
 516:Generated_Source\PSoC6\pdl\drivers\peripheral\scb/cy_scb_common.h **** 
 517:Generated_Source\PSoC6\pdl\drivers\peripheral\scb/cy_scb_common.h **** /* Single unit to wait */
 518:Generated_Source\PSoC6\pdl\drivers\peripheral\scb/cy_scb_common.h **** #define CY_SCB_WAIT_1_UNIT  (1U)
 519:Generated_Source\PSoC6\pdl\drivers\peripheral\scb/cy_scb_common.h **** 
 520:Generated_Source\PSoC6\pdl\drivers\peripheral\scb/cy_scb_common.h **** /* Clear interrupt sources */
 521:Generated_Source\PSoC6\pdl\drivers\peripheral\scb/cy_scb_common.h **** #define CY_SCB_CLEAR_ALL_INTR_SRC   (0UL)
 522:Generated_Source\PSoC6\pdl\drivers\peripheral\scb/cy_scb_common.h **** 
 523:Generated_Source\PSoC6\pdl\drivers\peripheral\scb/cy_scb_common.h **** /* Hardware FIFO size */
 524:Generated_Source\PSoC6\pdl\drivers\peripheral\scb/cy_scb_common.h **** #define CY_SCB_FIFO_SIZE(base)    (SCB_GET_EZ_DATA_NR(base) / 2UL)
 525:Generated_Source\PSoC6\pdl\drivers\peripheral\scb/cy_scb_common.h **** 
 526:Generated_Source\PSoC6\pdl\drivers\peripheral\scb/cy_scb_common.h **** /* Provides a list of allowed sources */
 527:Generated_Source\PSoC6\pdl\drivers\peripheral\scb/cy_scb_common.h **** #define CY_SCB_TX_INTR_MASK     (CY_SCB_TX_INTR_LEVEL     | CY_SCB_TX_INTR_NOT_FULL  | CY_SCB_TX_IN
 528:Generated_Source\PSoC6\pdl\drivers\peripheral\scb/cy_scb_common.h ****                                  CY_SCB_TX_INTR_OVERFLOW  | CY_SCB_TX_INTR_UNDERFLOW | CY_SCB_TX_IN
 529:Generated_Source\PSoC6\pdl\drivers\peripheral\scb/cy_scb_common.h ****                                  CY_SCB_TX_INTR_UART_NACK | CY_SCB_TX_INTR_UART_ARB_LOST)
 530:Generated_Source\PSoC6\pdl\drivers\peripheral\scb/cy_scb_common.h **** 
 531:Generated_Source\PSoC6\pdl\drivers\peripheral\scb/cy_scb_common.h **** #define CY_SCB_RX_INTR_MASK     (CY_SCB_RX_INTR_LEVEL             | CY_SCB_RX_INTR_NOT_EMPTY | CY_S
 532:Generated_Source\PSoC6\pdl\drivers\peripheral\scb/cy_scb_common.h ****                                  CY_SCB_RX_INTR_OVERFLOW          | CY_SCB_RX_INTR_UNDERFLOW       
 533:Generated_Source\PSoC6\pdl\drivers\peripheral\scb/cy_scb_common.h ****                                  CY_SCB_RX_INTR_UART_FRAME_ERROR  | CY_SCB_RX_INTR_UART_PARITY_ERRO
 534:Generated_Source\PSoC6\pdl\drivers\peripheral\scb/cy_scb_common.h ****                                  CY_SCB_RX_INTR_UART_BREAK_DETECT)
 535:Generated_Source\PSoC6\pdl\drivers\peripheral\scb/cy_scb_common.h **** 
 536:Generated_Source\PSoC6\pdl\drivers\peripheral\scb/cy_scb_common.h **** 
 537:Generated_Source\PSoC6\pdl\drivers\peripheral\scb/cy_scb_common.h **** #define CY_SCB_SLAVE_INTR_MASK  (CY_SCB_SLAVE_INTR_I2C_ARB_LOST   | CY_SCB_SLAVE_INTR_I2C_NACK | CY
 538:Generated_Source\PSoC6\pdl\drivers\peripheral\scb/cy_scb_common.h ****                                  CY_SCB_SLAVE_INTR_I2C_WRITE_STOP | CY_SCB_SLAVE_INTR_I2C_STOP | CY
 539:Generated_Source\PSoC6\pdl\drivers\peripheral\scb/cy_scb_common.h ****                                  CY_SCB_SLAVE_INTR_I2C_ADDR_MATCH | CY_SCB_SLAVE_INTR_I2C_GENERAL_A
 540:Generated_Source\PSoC6\pdl\drivers\peripheral\scb/cy_scb_common.h ****                                  CY_SCB_SLAVE_INTR_I2C_BUS_ERROR  | CY_SCB_SLAVE_INTR_SPI_BUS_ERROR
 541:Generated_Source\PSoC6\pdl\drivers\peripheral\scb/cy_scb_common.h **** 
 542:Generated_Source\PSoC6\pdl\drivers\peripheral\scb/cy_scb_common.h **** #define CY_SCB_MASTER_INTR_MASK (CY_SCB_MASTER_INTR_I2C_ARB_LOST  | CY_SCB_MASTER_INTR_I2C_NACK | \
 543:Generated_Source\PSoC6\pdl\drivers\peripheral\scb/cy_scb_common.h ****                                  CY_SCB_MASTER_INTR_I2C_ACK       | CY_SCB_MASTER_INTR_I2C_STOP | \
 544:Generated_Source\PSoC6\pdl\drivers\peripheral\scb/cy_scb_common.h ****                                  CY_SCB_MASTER_INTR_I2C_BUS_ERROR | CY_SCB_MASTER_INTR_SPI_DONE)
ARM GAS  C:\Users\salaz\AppData\Local\Temp\ccynHHO7.s 			page 11


 545:Generated_Source\PSoC6\pdl\drivers\peripheral\scb/cy_scb_common.h **** 
 546:Generated_Source\PSoC6\pdl\drivers\peripheral\scb/cy_scb_common.h **** #define CY_SCB_I2C_INTR_MASK    CY_SCB_I2C_INTR_WAKEUP
 547:Generated_Source\PSoC6\pdl\drivers\peripheral\scb/cy_scb_common.h **** 
 548:Generated_Source\PSoC6\pdl\drivers\peripheral\scb/cy_scb_common.h **** #define CY_SCB_SPI_INTR_MASK    CY_SCB_SPI_INTR_WAKEUP
 549:Generated_Source\PSoC6\pdl\drivers\peripheral\scb/cy_scb_common.h **** 
 550:Generated_Source\PSoC6\pdl\drivers\peripheral\scb/cy_scb_common.h **** #define CY_SCB_IS_INTR_VALID(intr, mask)            ( 0UL == ((intr) & ((uint32_t) ~(mask))) )
 551:Generated_Source\PSoC6\pdl\drivers\peripheral\scb/cy_scb_common.h **** #define CY_SCB_IS_TRIGGER_LEVEL_VALID(base, level)  ((level) < Cy_SCB_GetFifoSize(base))
 552:Generated_Source\PSoC6\pdl\drivers\peripheral\scb/cy_scb_common.h **** 
 553:Generated_Source\PSoC6\pdl\drivers\peripheral\scb/cy_scb_common.h **** #define CY_SCB_IS_I2C_ADDR_VALID(addr)              ( (0U == ((addr) & 0x80U)) )
 554:Generated_Source\PSoC6\pdl\drivers\peripheral\scb/cy_scb_common.h **** #define CY_SCB_IS_BUFFER_VALID(buffer, size)        ( (NULL != (buffer)) && ((size) > 0UL) )
 555:Generated_Source\PSoC6\pdl\drivers\peripheral\scb/cy_scb_common.h **** #define CY_SCB_IS_I2C_BUFFER_VALID(buffer, size)    ( (0UL == (size)) ? true : (NULL != (buffer)) )
 556:Generated_Source\PSoC6\pdl\drivers\peripheral\scb/cy_scb_common.h **** /** \endcond */
 557:Generated_Source\PSoC6\pdl\drivers\peripheral\scb/cy_scb_common.h **** 
 558:Generated_Source\PSoC6\pdl\drivers\peripheral\scb/cy_scb_common.h **** /** \} group_scb_common_macros */
 559:Generated_Source\PSoC6\pdl\drivers\peripheral\scb/cy_scb_common.h **** 
 560:Generated_Source\PSoC6\pdl\drivers\peripheral\scb/cy_scb_common.h **** 
 561:Generated_Source\PSoC6\pdl\drivers\peripheral\scb/cy_scb_common.h **** /***************************************
 562:Generated_Source\PSoC6\pdl\drivers\peripheral\scb/cy_scb_common.h **** * Inline Function Implementation
 563:Generated_Source\PSoC6\pdl\drivers\peripheral\scb/cy_scb_common.h **** ***************************************/
 564:Generated_Source\PSoC6\pdl\drivers\peripheral\scb/cy_scb_common.h **** 
 565:Generated_Source\PSoC6\pdl\drivers\peripheral\scb/cy_scb_common.h **** /**
 566:Generated_Source\PSoC6\pdl\drivers\peripheral\scb/cy_scb_common.h **** * \addtogroup group_scb_common_functions
 567:Generated_Source\PSoC6\pdl\drivers\peripheral\scb/cy_scb_common.h **** * \{
 568:Generated_Source\PSoC6\pdl\drivers\peripheral\scb/cy_scb_common.h **** */
 569:Generated_Source\PSoC6\pdl\drivers\peripheral\scb/cy_scb_common.h **** 
 570:Generated_Source\PSoC6\pdl\drivers\peripheral\scb/cy_scb_common.h **** /*******************************************************************************
 571:Generated_Source\PSoC6\pdl\drivers\peripheral\scb/cy_scb_common.h **** * Function Name: Cy_SCB_ReadRxFifo
 572:Generated_Source\PSoC6\pdl\drivers\peripheral\scb/cy_scb_common.h **** ****************************************************************************//**
 573:Generated_Source\PSoC6\pdl\drivers\peripheral\scb/cy_scb_common.h **** *
 574:Generated_Source\PSoC6\pdl\drivers\peripheral\scb/cy_scb_common.h **** * Reads a data element directly out of the RX FIFO.
 575:Generated_Source\PSoC6\pdl\drivers\peripheral\scb/cy_scb_common.h **** * This function does not check whether the RX FIFO has data before reading it.
 576:Generated_Source\PSoC6\pdl\drivers\peripheral\scb/cy_scb_common.h **** *
 577:Generated_Source\PSoC6\pdl\drivers\peripheral\scb/cy_scb_common.h **** * \param base
 578:Generated_Source\PSoC6\pdl\drivers\peripheral\scb/cy_scb_common.h **** * The pointer to the SCB instance.
 579:Generated_Source\PSoC6\pdl\drivers\peripheral\scb/cy_scb_common.h **** *
 580:Generated_Source\PSoC6\pdl\drivers\peripheral\scb/cy_scb_common.h **** * \return
 581:Generated_Source\PSoC6\pdl\drivers\peripheral\scb/cy_scb_common.h **** * Data from RX FIFO.
 582:Generated_Source\PSoC6\pdl\drivers\peripheral\scb/cy_scb_common.h **** *
 583:Generated_Source\PSoC6\pdl\drivers\peripheral\scb/cy_scb_common.h **** *******************************************************************************/
 584:Generated_Source\PSoC6\pdl\drivers\peripheral\scb/cy_scb_common.h **** __STATIC_INLINE uint32_t Cy_SCB_ReadRxFifo(CySCB_Type const *base)
 585:Generated_Source\PSoC6\pdl\drivers\peripheral\scb/cy_scb_common.h **** {
  27              		.loc 1 585 0
  28              		.cfi_startproc
  29              		@ args = 0, pretend = 0, frame = 8
  30              		@ frame_needed = 1, uses_anonymous_args = 0
  31 0000 80B5     		push	{r7, lr}
  32              		.cfi_def_cfa_offset 8
  33              		.cfi_offset 7, -8
  34              		.cfi_offset 14, -4
  35 0002 82B0     		sub	sp, sp, #8
  36              		.cfi_def_cfa_offset 16
  37 0004 00AF     		add	r7, sp, #0
  38              		.cfi_def_cfa_register 7
  39 0006 7860     		str	r0, [r7, #4]
 586:Generated_Source\PSoC6\pdl\drivers\peripheral\scb/cy_scb_common.h ****     return (base->RX_FIFO_RD);
  40              		.loc 1 586 0
  41 0008 7A68     		ldr	r2, [r7, #4]
ARM GAS  C:\Users\salaz\AppData\Local\Temp\ccynHHO7.s 			page 12


  42 000a D023     		movs	r3, #208
  43 000c 9B00     		lsls	r3, r3, #2
  44 000e D358     		ldr	r3, [r2, r3]
 587:Generated_Source\PSoC6\pdl\drivers\peripheral\scb/cy_scb_common.h **** }
  45              		.loc 1 587 0
  46 0010 1800     		movs	r0, r3
  47 0012 BD46     		mov	sp, r7
  48 0014 02B0     		add	sp, sp, #8
  49              		@ sp needed
  50 0016 80BD     		pop	{r7, pc}
  51              		.cfi_endproc
  52              	.LFE69:
  53              		.size	Cy_SCB_ReadRxFifo, .-Cy_SCB_ReadRxFifo
  54              		.section	.rodata
  55              		.align	2
  56              	.LC0:
  57 0000 47656E65 		.ascii	"Generated_Source\\PSoC6\\pdl\\drivers\\peripheral\\"
  57      72617465 
  57      645F536F 
  57      75726365 
  57      5C50536F 
  58 002e 7363625C 		.ascii	"scb\\cy_scb_common.h\000"
  58      63795F73 
  58      63625F63 
  58      6F6D6D6F 
  58      6E2E6800 
  59              		.section	.text.Cy_SCB_SetRxFifoLevel,"ax",%progbits
  60              		.align	2
  61              		.code	16
  62              		.thumb_func
  63              		.type	Cy_SCB_SetRxFifoLevel, %function
  64              	Cy_SCB_SetRxFifoLevel:
  65              	.LFB70:
 588:Generated_Source\PSoC6\pdl\drivers\peripheral\scb/cy_scb_common.h **** 
 589:Generated_Source\PSoC6\pdl\drivers\peripheral\scb/cy_scb_common.h **** /*******************************************************************************
 590:Generated_Source\PSoC6\pdl\drivers\peripheral\scb/cy_scb_common.h **** * Function Name: Cy_SCB_SetRxFifoLevel
 591:Generated_Source\PSoC6\pdl\drivers\peripheral\scb/cy_scb_common.h **** ****************************************************************************//**
 592:Generated_Source\PSoC6\pdl\drivers\peripheral\scb/cy_scb_common.h **** *
 593:Generated_Source\PSoC6\pdl\drivers\peripheral\scb/cy_scb_common.h **** * Sets the RX FIFO level. When there are more data elements in the RX FIFO than
 594:Generated_Source\PSoC6\pdl\drivers\peripheral\scb/cy_scb_common.h **** * this level, the RX FIFO level interrupt is triggered.
 595:Generated_Source\PSoC6\pdl\drivers\peripheral\scb/cy_scb_common.h **** *
 596:Generated_Source\PSoC6\pdl\drivers\peripheral\scb/cy_scb_common.h **** * \param base
 597:Generated_Source\PSoC6\pdl\drivers\peripheral\scb/cy_scb_common.h **** * The pointer to the SCB instance.
 598:Generated_Source\PSoC6\pdl\drivers\peripheral\scb/cy_scb_common.h **** *
 599:Generated_Source\PSoC6\pdl\drivers\peripheral\scb/cy_scb_common.h **** * \param level
 600:Generated_Source\PSoC6\pdl\drivers\peripheral\scb/cy_scb_common.h **** * When there are more data elements in the FIFO than this level, the RX level
 601:Generated_Source\PSoC6\pdl\drivers\peripheral\scb/cy_scb_common.h **** * interrupt is triggered.
 602:Generated_Source\PSoC6\pdl\drivers\peripheral\scb/cy_scb_common.h **** *
 603:Generated_Source\PSoC6\pdl\drivers\peripheral\scb/cy_scb_common.h **** *******************************************************************************/
 604:Generated_Source\PSoC6\pdl\drivers\peripheral\scb/cy_scb_common.h **** __STATIC_INLINE void Cy_SCB_SetRxFifoLevel(CySCB_Type *base, uint32_t level)
 605:Generated_Source\PSoC6\pdl\drivers\peripheral\scb/cy_scb_common.h **** {
  66              		.loc 1 605 0
  67              		.cfi_startproc
  68              		@ args = 0, pretend = 0, frame = 8
  69              		@ frame_needed = 1, uses_anonymous_args = 0
  70 0000 80B5     		push	{r7, lr}
  71              		.cfi_def_cfa_offset 8
ARM GAS  C:\Users\salaz\AppData\Local\Temp\ccynHHO7.s 			page 13


  72              		.cfi_offset 7, -8
  73              		.cfi_offset 14, -4
  74 0002 82B0     		sub	sp, sp, #8
  75              		.cfi_def_cfa_offset 16
  76 0004 00AF     		add	r7, sp, #0
  77              		.cfi_def_cfa_register 7
  78 0006 7860     		str	r0, [r7, #4]
  79 0008 3960     		str	r1, [r7]
 606:Generated_Source\PSoC6\pdl\drivers\peripheral\scb/cy_scb_common.h ****     CY_ASSERT_L2(CY_SCB_IS_TRIGGER_LEVEL_VALID(base, level));
  80              		.loc 1 606 0
  81 000a 7B68     		ldr	r3, [r7, #4]
  82 000c 1800     		movs	r0, r3
  83 000e FFF7FEFF 		bl	Cy_SCB_GetFifoSize
  84 0012 0200     		movs	r2, r0
  85 0014 3B68     		ldr	r3, [r7]
  86 0016 9A42     		cmp	r2, r3
  87 0018 05D8     		bhi	.L4
  88              		.loc 1 606 0 is_stmt 0 discriminator 1
  89 001a 0D4A     		ldr	r2, .L5
  90 001c 0D4B     		ldr	r3, .L5+4
  91 001e 1100     		movs	r1, r2
  92 0020 1800     		movs	r0, r3
  93 0022 FFF7FEFF 		bl	Cy_SysLib_AssertFailed
  94              	.L4:
 607:Generated_Source\PSoC6\pdl\drivers\peripheral\scb/cy_scb_common.h **** 
 608:Generated_Source\PSoC6\pdl\drivers\peripheral\scb/cy_scb_common.h ****     base->RX_FIFO_CTRL = _CLR_SET_FLD32U(base->RX_FIFO_CTRL, SCB_RX_FIFO_CTRL_TRIGGER_LEVEL, level)
  95              		.loc 1 608 0 is_stmt 1
  96 0026 7A68     		ldr	r2, [r7, #4]
  97 0028 C123     		movs	r3, #193
  98 002a 9B00     		lsls	r3, r3, #2
  99 002c D358     		ldr	r3, [r2, r3]
 100 002e FF22     		movs	r2, #255
 101 0030 9343     		bics	r3, r2
 102 0032 1A00     		movs	r2, r3
 103 0034 3B68     		ldr	r3, [r7]
 104 0036 FF21     		movs	r1, #255
 105 0038 0B40     		ands	r3, r1
 106 003a 1A43     		orrs	r2, r3
 107 003c 1100     		movs	r1, r2
 108 003e 7A68     		ldr	r2, [r7, #4]
 109 0040 C123     		movs	r3, #193
 110 0042 9B00     		lsls	r3, r3, #2
 111 0044 D150     		str	r1, [r2, r3]
 609:Generated_Source\PSoC6\pdl\drivers\peripheral\scb/cy_scb_common.h **** }
 112              		.loc 1 609 0
 113 0046 C046     		nop
 114 0048 BD46     		mov	sp, r7
 115 004a 02B0     		add	sp, sp, #8
 116              		@ sp needed
 117 004c 80BD     		pop	{r7, pc}
 118              	.L6:
 119 004e C046     		.align	2
 120              	.L5:
 121 0050 5E020000 		.word	606
 122 0054 00000000 		.word	.LC0
 123              		.cfi_endproc
 124              	.LFE70:
ARM GAS  C:\Users\salaz\AppData\Local\Temp\ccynHHO7.s 			page 14


 125              		.size	Cy_SCB_SetRxFifoLevel, .-Cy_SCB_SetRxFifoLevel
 126              		.section	.text.Cy_SCB_GetNumInRxFifo,"ax",%progbits
 127              		.align	2
 128              		.code	16
 129              		.thumb_func
 130              		.type	Cy_SCB_GetNumInRxFifo, %function
 131              	Cy_SCB_GetNumInRxFifo:
 132              	.LFB71:
 610:Generated_Source\PSoC6\pdl\drivers\peripheral\scb/cy_scb_common.h **** 
 611:Generated_Source\PSoC6\pdl\drivers\peripheral\scb/cy_scb_common.h **** 
 612:Generated_Source\PSoC6\pdl\drivers\peripheral\scb/cy_scb_common.h **** /*******************************************************************************
 613:Generated_Source\PSoC6\pdl\drivers\peripheral\scb/cy_scb_common.h **** * Function Name: Cy_SCB_GetNumInRxFifo
 614:Generated_Source\PSoC6\pdl\drivers\peripheral\scb/cy_scb_common.h **** ****************************************************************************//**
 615:Generated_Source\PSoC6\pdl\drivers\peripheral\scb/cy_scb_common.h **** *
 616:Generated_Source\PSoC6\pdl\drivers\peripheral\scb/cy_scb_common.h **** * Returns the number of data elements currently in the RX FIFO.
 617:Generated_Source\PSoC6\pdl\drivers\peripheral\scb/cy_scb_common.h **** *
 618:Generated_Source\PSoC6\pdl\drivers\peripheral\scb/cy_scb_common.h **** * \param base
 619:Generated_Source\PSoC6\pdl\drivers\peripheral\scb/cy_scb_common.h **** * The pointer to the SCB instance.
 620:Generated_Source\PSoC6\pdl\drivers\peripheral\scb/cy_scb_common.h **** *
 621:Generated_Source\PSoC6\pdl\drivers\peripheral\scb/cy_scb_common.h **** * \return
 622:Generated_Source\PSoC6\pdl\drivers\peripheral\scb/cy_scb_common.h **** * The number or data elements in RX FIFO.
 623:Generated_Source\PSoC6\pdl\drivers\peripheral\scb/cy_scb_common.h **** *
 624:Generated_Source\PSoC6\pdl\drivers\peripheral\scb/cy_scb_common.h **** *******************************************************************************/
 625:Generated_Source\PSoC6\pdl\drivers\peripheral\scb/cy_scb_common.h **** __STATIC_INLINE uint32_t Cy_SCB_GetNumInRxFifo(CySCB_Type const *base)
 626:Generated_Source\PSoC6\pdl\drivers\peripheral\scb/cy_scb_common.h **** {
 133              		.loc 1 626 0
 134              		.cfi_startproc
 135              		@ args = 0, pretend = 0, frame = 8
 136              		@ frame_needed = 1, uses_anonymous_args = 0
 137 0000 80B5     		push	{r7, lr}
 138              		.cfi_def_cfa_offset 8
 139              		.cfi_offset 7, -8
 140              		.cfi_offset 14, -4
 141 0002 82B0     		sub	sp, sp, #8
 142              		.cfi_def_cfa_offset 16
 143 0004 00AF     		add	r7, sp, #0
 144              		.cfi_def_cfa_register 7
 145 0006 7860     		str	r0, [r7, #4]
 627:Generated_Source\PSoC6\pdl\drivers\peripheral\scb/cy_scb_common.h ****     return _FLD2VAL(SCB_RX_FIFO_STATUS_USED, base->RX_FIFO_STATUS);
 146              		.loc 1 627 0
 147 0008 7A68     		ldr	r2, [r7, #4]
 148 000a C223     		movs	r3, #194
 149 000c 9B00     		lsls	r3, r3, #2
 150 000e D358     		ldr	r3, [r2, r3]
 151 0010 DB05     		lsls	r3, r3, #23
 152 0012 DB0D     		lsrs	r3, r3, #23
 628:Generated_Source\PSoC6\pdl\drivers\peripheral\scb/cy_scb_common.h **** }
 153              		.loc 1 628 0
 154 0014 1800     		movs	r0, r3
 155 0016 BD46     		mov	sp, r7
 156 0018 02B0     		add	sp, sp, #8
 157              		@ sp needed
 158 001a 80BD     		pop	{r7, pc}
 159              		.cfi_endproc
 160              	.LFE71:
 161              		.size	Cy_SCB_GetNumInRxFifo, .-Cy_SCB_GetNumInRxFifo
 162              		.section	.text.Cy_SCB_ClearRxFifo,"ax",%progbits
ARM GAS  C:\Users\salaz\AppData\Local\Temp\ccynHHO7.s 			page 15


 163              		.align	2
 164              		.code	16
 165              		.thumb_func
 166              		.type	Cy_SCB_ClearRxFifo, %function
 167              	Cy_SCB_ClearRxFifo:
 168              	.LFB73:
 629:Generated_Source\PSoC6\pdl\drivers\peripheral\scb/cy_scb_common.h **** 
 630:Generated_Source\PSoC6\pdl\drivers\peripheral\scb/cy_scb_common.h **** 
 631:Generated_Source\PSoC6\pdl\drivers\peripheral\scb/cy_scb_common.h **** /*******************************************************************************
 632:Generated_Source\PSoC6\pdl\drivers\peripheral\scb/cy_scb_common.h **** * Function Name: Cy_SCB_GetRxSrValid
 633:Generated_Source\PSoC6\pdl\drivers\peripheral\scb/cy_scb_common.h **** ****************************************************************************//**
 634:Generated_Source\PSoC6\pdl\drivers\peripheral\scb/cy_scb_common.h **** *
 635:Generated_Source\PSoC6\pdl\drivers\peripheral\scb/cy_scb_common.h **** * Returns the status of the RX FIFO Shift Register valid bit.
 636:Generated_Source\PSoC6\pdl\drivers\peripheral\scb/cy_scb_common.h **** *
 637:Generated_Source\PSoC6\pdl\drivers\peripheral\scb/cy_scb_common.h **** * \param base
 638:Generated_Source\PSoC6\pdl\drivers\peripheral\scb/cy_scb_common.h **** * The pointer to the SCB instance.
 639:Generated_Source\PSoC6\pdl\drivers\peripheral\scb/cy_scb_common.h **** *
 640:Generated_Source\PSoC6\pdl\drivers\peripheral\scb/cy_scb_common.h **** * \return
 641:Generated_Source\PSoC6\pdl\drivers\peripheral\scb/cy_scb_common.h **** * 1 - RX shift register valid; 0 - RX shift register not valid.
 642:Generated_Source\PSoC6\pdl\drivers\peripheral\scb/cy_scb_common.h **** *
 643:Generated_Source\PSoC6\pdl\drivers\peripheral\scb/cy_scb_common.h **** *******************************************************************************/
 644:Generated_Source\PSoC6\pdl\drivers\peripheral\scb/cy_scb_common.h **** __STATIC_INLINE uint32_t Cy_SCB_GetRxSrValid(CySCB_Type const *base)
 645:Generated_Source\PSoC6\pdl\drivers\peripheral\scb/cy_scb_common.h **** {
 646:Generated_Source\PSoC6\pdl\drivers\peripheral\scb/cy_scb_common.h ****     return _FLD2VAL(SCB_RX_FIFO_STATUS_SR_VALID, base->RX_FIFO_STATUS);
 647:Generated_Source\PSoC6\pdl\drivers\peripheral\scb/cy_scb_common.h **** }
 648:Generated_Source\PSoC6\pdl\drivers\peripheral\scb/cy_scb_common.h **** 
 649:Generated_Source\PSoC6\pdl\drivers\peripheral\scb/cy_scb_common.h **** 
 650:Generated_Source\PSoC6\pdl\drivers\peripheral\scb/cy_scb_common.h **** /*******************************************************************************
 651:Generated_Source\PSoC6\pdl\drivers\peripheral\scb/cy_scb_common.h **** * Function Name: Cy_SCB_ClearRxFifo
 652:Generated_Source\PSoC6\pdl\drivers\peripheral\scb/cy_scb_common.h **** ****************************************************************************//**
 653:Generated_Source\PSoC6\pdl\drivers\peripheral\scb/cy_scb_common.h **** *
 654:Generated_Source\PSoC6\pdl\drivers\peripheral\scb/cy_scb_common.h **** * Clears the RX FIFO and shifter.
 655:Generated_Source\PSoC6\pdl\drivers\peripheral\scb/cy_scb_common.h **** *
 656:Generated_Source\PSoC6\pdl\drivers\peripheral\scb/cy_scb_common.h **** * \param base
 657:Generated_Source\PSoC6\pdl\drivers\peripheral\scb/cy_scb_common.h **** * The pointer to the SCB instance.
 658:Generated_Source\PSoC6\pdl\drivers\peripheral\scb/cy_scb_common.h **** *
 659:Generated_Source\PSoC6\pdl\drivers\peripheral\scb/cy_scb_common.h **** * \note
 660:Generated_Source\PSoC6\pdl\drivers\peripheral\scb/cy_scb_common.h **** * If there is partial data in the shifter, it is cleared and lost.
 661:Generated_Source\PSoC6\pdl\drivers\peripheral\scb/cy_scb_common.h **** *
 662:Generated_Source\PSoC6\pdl\drivers\peripheral\scb/cy_scb_common.h **** *******************************************************************************/
 663:Generated_Source\PSoC6\pdl\drivers\peripheral\scb/cy_scb_common.h **** __STATIC_INLINE void Cy_SCB_ClearRxFifo(CySCB_Type* base)
 664:Generated_Source\PSoC6\pdl\drivers\peripheral\scb/cy_scb_common.h **** {
 169              		.loc 1 664 0
 170              		.cfi_startproc
 171              		@ args = 0, pretend = 0, frame = 8
 172              		@ frame_needed = 1, uses_anonymous_args = 0
 173 0000 80B5     		push	{r7, lr}
 174              		.cfi_def_cfa_offset 8
 175              		.cfi_offset 7, -8
 176              		.cfi_offset 14, -4
 177 0002 82B0     		sub	sp, sp, #8
 178              		.cfi_def_cfa_offset 16
 179 0004 00AF     		add	r7, sp, #0
 180              		.cfi_def_cfa_register 7
 181 0006 7860     		str	r0, [r7, #4]
 665:Generated_Source\PSoC6\pdl\drivers\peripheral\scb/cy_scb_common.h ****     base->RX_FIFO_CTRL |= (uint32_t)  SCB_RX_FIFO_CTRL_CLEAR_Msk;
 182              		.loc 1 665 0
ARM GAS  C:\Users\salaz\AppData\Local\Temp\ccynHHO7.s 			page 16


 183 0008 7A68     		ldr	r2, [r7, #4]
 184 000a C123     		movs	r3, #193
 185 000c 9B00     		lsls	r3, r3, #2
 186 000e D358     		ldr	r3, [r2, r3]
 187 0010 8022     		movs	r2, #128
 188 0012 5202     		lsls	r2, r2, #9
 189 0014 1A43     		orrs	r2, r3
 190 0016 1100     		movs	r1, r2
 191 0018 7A68     		ldr	r2, [r7, #4]
 192 001a C123     		movs	r3, #193
 193 001c 9B00     		lsls	r3, r3, #2
 194 001e D150     		str	r1, [r2, r3]
 666:Generated_Source\PSoC6\pdl\drivers\peripheral\scb/cy_scb_common.h ****     base->RX_FIFO_CTRL &= (uint32_t) ~SCB_RX_FIFO_CTRL_CLEAR_Msk;
 195              		.loc 1 666 0
 196 0020 7A68     		ldr	r2, [r7, #4]
 197 0022 C123     		movs	r3, #193
 198 0024 9B00     		lsls	r3, r3, #2
 199 0026 D358     		ldr	r3, [r2, r3]
 200 0028 074A     		ldr	r2, .L10
 201 002a 1340     		ands	r3, r2
 202 002c 1900     		movs	r1, r3
 203 002e 7A68     		ldr	r2, [r7, #4]
 204 0030 C123     		movs	r3, #193
 205 0032 9B00     		lsls	r3, r3, #2
 206 0034 D150     		str	r1, [r2, r3]
 667:Generated_Source\PSoC6\pdl\drivers\peripheral\scb/cy_scb_common.h **** 
 668:Generated_Source\PSoC6\pdl\drivers\peripheral\scb/cy_scb_common.h ****     (void) base->RX_FIFO_CTRL;
 207              		.loc 1 668 0
 208 0036 7A68     		ldr	r2, [r7, #4]
 209 0038 C123     		movs	r3, #193
 210 003a 9B00     		lsls	r3, r3, #2
 211 003c D358     		ldr	r3, [r2, r3]
 669:Generated_Source\PSoC6\pdl\drivers\peripheral\scb/cy_scb_common.h **** }
 212              		.loc 1 669 0
 213 003e C046     		nop
 214 0040 BD46     		mov	sp, r7
 215 0042 02B0     		add	sp, sp, #8
 216              		@ sp needed
 217 0044 80BD     		pop	{r7, pc}
 218              	.L11:
 219 0046 C046     		.align	2
 220              	.L10:
 221 0048 FFFFFEFF 		.word	-65537
 222              		.cfi_endproc
 223              	.LFE73:
 224              		.size	Cy_SCB_ClearRxFifo, .-Cy_SCB_ClearRxFifo
 225              		.section	.text.Cy_SCB_SetTxFifoLevel,"ax",%progbits
 226              		.align	2
 227              		.code	16
 228              		.thumb_func
 229              		.type	Cy_SCB_SetTxFifoLevel, %function
 230              	Cy_SCB_SetTxFifoLevel:
 231              	.LFB75:
 670:Generated_Source\PSoC6\pdl\drivers\peripheral\scb/cy_scb_common.h **** 
 671:Generated_Source\PSoC6\pdl\drivers\peripheral\scb/cy_scb_common.h **** 
 672:Generated_Source\PSoC6\pdl\drivers\peripheral\scb/cy_scb_common.h **** /*******************************************************************************
 673:Generated_Source\PSoC6\pdl\drivers\peripheral\scb/cy_scb_common.h **** * Function Name: Cy_SCB_WriteTxFifo
ARM GAS  C:\Users\salaz\AppData\Local\Temp\ccynHHO7.s 			page 17


 674:Generated_Source\PSoC6\pdl\drivers\peripheral\scb/cy_scb_common.h **** ****************************************************************************//**
 675:Generated_Source\PSoC6\pdl\drivers\peripheral\scb/cy_scb_common.h **** *
 676:Generated_Source\PSoC6\pdl\drivers\peripheral\scb/cy_scb_common.h **** * Writes data directly into the TX FIFO.
 677:Generated_Source\PSoC6\pdl\drivers\peripheral\scb/cy_scb_common.h **** * This function does not check whether the TX FIFO is not full before writing
 678:Generated_Source\PSoC6\pdl\drivers\peripheral\scb/cy_scb_common.h **** * into it.
 679:Generated_Source\PSoC6\pdl\drivers\peripheral\scb/cy_scb_common.h **** *
 680:Generated_Source\PSoC6\pdl\drivers\peripheral\scb/cy_scb_common.h **** * \param base
 681:Generated_Source\PSoC6\pdl\drivers\peripheral\scb/cy_scb_common.h **** * The pointer to the SCB instance.
 682:Generated_Source\PSoC6\pdl\drivers\peripheral\scb/cy_scb_common.h **** *
 683:Generated_Source\PSoC6\pdl\drivers\peripheral\scb/cy_scb_common.h **** * \param data
 684:Generated_Source\PSoC6\pdl\drivers\peripheral\scb/cy_scb_common.h **** * Data to write to the TX FIFO.
 685:Generated_Source\PSoC6\pdl\drivers\peripheral\scb/cy_scb_common.h **** *
 686:Generated_Source\PSoC6\pdl\drivers\peripheral\scb/cy_scb_common.h **** *******************************************************************************/
 687:Generated_Source\PSoC6\pdl\drivers\peripheral\scb/cy_scb_common.h **** __STATIC_INLINE void Cy_SCB_WriteTxFifo(CySCB_Type* base, uint32_t data)
 688:Generated_Source\PSoC6\pdl\drivers\peripheral\scb/cy_scb_common.h **** {
 689:Generated_Source\PSoC6\pdl\drivers\peripheral\scb/cy_scb_common.h ****     base->TX_FIFO_WR = data;
 690:Generated_Source\PSoC6\pdl\drivers\peripheral\scb/cy_scb_common.h **** }
 691:Generated_Source\PSoC6\pdl\drivers\peripheral\scb/cy_scb_common.h **** 
 692:Generated_Source\PSoC6\pdl\drivers\peripheral\scb/cy_scb_common.h **** 
 693:Generated_Source\PSoC6\pdl\drivers\peripheral\scb/cy_scb_common.h **** /*******************************************************************************
 694:Generated_Source\PSoC6\pdl\drivers\peripheral\scb/cy_scb_common.h **** * Function Name: Cy_SCB_SetTxFifoLevel
 695:Generated_Source\PSoC6\pdl\drivers\peripheral\scb/cy_scb_common.h **** ****************************************************************************//**
 696:Generated_Source\PSoC6\pdl\drivers\peripheral\scb/cy_scb_common.h **** *
 697:Generated_Source\PSoC6\pdl\drivers\peripheral\scb/cy_scb_common.h **** * Sets the TX FIFO level. When there are fewer data elements in the TX FIFO than
 698:Generated_Source\PSoC6\pdl\drivers\peripheral\scb/cy_scb_common.h **** * this level, the TX FIFO level interrupt is triggered.
 699:Generated_Source\PSoC6\pdl\drivers\peripheral\scb/cy_scb_common.h **** *
 700:Generated_Source\PSoC6\pdl\drivers\peripheral\scb/cy_scb_common.h **** * \param base
 701:Generated_Source\PSoC6\pdl\drivers\peripheral\scb/cy_scb_common.h **** * The pointer to the SCB instance.
 702:Generated_Source\PSoC6\pdl\drivers\peripheral\scb/cy_scb_common.h **** *
 703:Generated_Source\PSoC6\pdl\drivers\peripheral\scb/cy_scb_common.h **** * \param level
 704:Generated_Source\PSoC6\pdl\drivers\peripheral\scb/cy_scb_common.h **** * When there are fewer data elements in the FIFO than this level, the TX level
 705:Generated_Source\PSoC6\pdl\drivers\peripheral\scb/cy_scb_common.h **** * interrupt is triggered.
 706:Generated_Source\PSoC6\pdl\drivers\peripheral\scb/cy_scb_common.h **** *
 707:Generated_Source\PSoC6\pdl\drivers\peripheral\scb/cy_scb_common.h **** *******************************************************************************/
 708:Generated_Source\PSoC6\pdl\drivers\peripheral\scb/cy_scb_common.h **** __STATIC_INLINE void Cy_SCB_SetTxFifoLevel(CySCB_Type *base, uint32_t level)
 709:Generated_Source\PSoC6\pdl\drivers\peripheral\scb/cy_scb_common.h **** {
 232              		.loc 1 709 0
 233              		.cfi_startproc
 234              		@ args = 0, pretend = 0, frame = 8
 235              		@ frame_needed = 1, uses_anonymous_args = 0
 236 0000 80B5     		push	{r7, lr}
 237              		.cfi_def_cfa_offset 8
 238              		.cfi_offset 7, -8
 239              		.cfi_offset 14, -4
 240 0002 82B0     		sub	sp, sp, #8
 241              		.cfi_def_cfa_offset 16
 242 0004 00AF     		add	r7, sp, #0
 243              		.cfi_def_cfa_register 7
 244 0006 7860     		str	r0, [r7, #4]
 245 0008 3960     		str	r1, [r7]
 710:Generated_Source\PSoC6\pdl\drivers\peripheral\scb/cy_scb_common.h ****     CY_ASSERT_L2(CY_SCB_IS_TRIGGER_LEVEL_VALID(base, level));
 246              		.loc 1 710 0
 247 000a 7B68     		ldr	r3, [r7, #4]
 248 000c 1800     		movs	r0, r3
 249 000e FFF7FEFF 		bl	Cy_SCB_GetFifoSize
 250 0012 0200     		movs	r2, r0
 251 0014 3B68     		ldr	r3, [r7]
ARM GAS  C:\Users\salaz\AppData\Local\Temp\ccynHHO7.s 			page 18


 252 0016 9A42     		cmp	r2, r3
 253 0018 05D8     		bhi	.L13
 254              		.loc 1 710 0 is_stmt 0 discriminator 1
 255 001a 0D4A     		ldr	r2, .L14
 256 001c 0D4B     		ldr	r3, .L14+4
 257 001e 1100     		movs	r1, r2
 258 0020 1800     		movs	r0, r3
 259 0022 FFF7FEFF 		bl	Cy_SysLib_AssertFailed
 260              	.L13:
 711:Generated_Source\PSoC6\pdl\drivers\peripheral\scb/cy_scb_common.h **** 
 712:Generated_Source\PSoC6\pdl\drivers\peripheral\scb/cy_scb_common.h ****     base->TX_FIFO_CTRL = _CLR_SET_FLD32U(base->TX_FIFO_CTRL, SCB_TX_FIFO_CTRL_TRIGGER_LEVEL, level)
 261              		.loc 1 712 0 is_stmt 1
 262 0026 7A68     		ldr	r2, [r7, #4]
 263 0028 8123     		movs	r3, #129
 264 002a 9B00     		lsls	r3, r3, #2
 265 002c D358     		ldr	r3, [r2, r3]
 266 002e FF22     		movs	r2, #255
 267 0030 9343     		bics	r3, r2
 268 0032 1A00     		movs	r2, r3
 269 0034 3B68     		ldr	r3, [r7]
 270 0036 FF21     		movs	r1, #255
 271 0038 0B40     		ands	r3, r1
 272 003a 1A43     		orrs	r2, r3
 273 003c 1100     		movs	r1, r2
 274 003e 7A68     		ldr	r2, [r7, #4]
 275 0040 8123     		movs	r3, #129
 276 0042 9B00     		lsls	r3, r3, #2
 277 0044 D150     		str	r1, [r2, r3]
 713:Generated_Source\PSoC6\pdl\drivers\peripheral\scb/cy_scb_common.h **** }
 278              		.loc 1 713 0
 279 0046 C046     		nop
 280 0048 BD46     		mov	sp, r7
 281 004a 02B0     		add	sp, sp, #8
 282              		@ sp needed
 283 004c 80BD     		pop	{r7, pc}
 284              	.L15:
 285 004e C046     		.align	2
 286              	.L14:
 287 0050 C6020000 		.word	710
 288 0054 00000000 		.word	.LC0
 289              		.cfi_endproc
 290              	.LFE75:
 291              		.size	Cy_SCB_SetTxFifoLevel, .-Cy_SCB_SetTxFifoLevel
 292              		.section	.text.Cy_SCB_GetNumInTxFifo,"ax",%progbits
 293              		.align	2
 294              		.code	16
 295              		.thumb_func
 296              		.type	Cy_SCB_GetNumInTxFifo, %function
 297              	Cy_SCB_GetNumInTxFifo:
 298              	.LFB76:
 714:Generated_Source\PSoC6\pdl\drivers\peripheral\scb/cy_scb_common.h **** 
 715:Generated_Source\PSoC6\pdl\drivers\peripheral\scb/cy_scb_common.h **** 
 716:Generated_Source\PSoC6\pdl\drivers\peripheral\scb/cy_scb_common.h **** /*******************************************************************************
 717:Generated_Source\PSoC6\pdl\drivers\peripheral\scb/cy_scb_common.h **** * Function Name: Cy_SCB_GetNumInTxFifo
 718:Generated_Source\PSoC6\pdl\drivers\peripheral\scb/cy_scb_common.h **** ****************************************************************************//**
 719:Generated_Source\PSoC6\pdl\drivers\peripheral\scb/cy_scb_common.h **** *
 720:Generated_Source\PSoC6\pdl\drivers\peripheral\scb/cy_scb_common.h **** * Returns the number of data elements currently in the TX FIFO.
ARM GAS  C:\Users\salaz\AppData\Local\Temp\ccynHHO7.s 			page 19


 721:Generated_Source\PSoC6\pdl\drivers\peripheral\scb/cy_scb_common.h **** *
 722:Generated_Source\PSoC6\pdl\drivers\peripheral\scb/cy_scb_common.h **** * \param base
 723:Generated_Source\PSoC6\pdl\drivers\peripheral\scb/cy_scb_common.h **** * The pointer to the SCB instance.
 724:Generated_Source\PSoC6\pdl\drivers\peripheral\scb/cy_scb_common.h **** *
 725:Generated_Source\PSoC6\pdl\drivers\peripheral\scb/cy_scb_common.h **** * \return
 726:Generated_Source\PSoC6\pdl\drivers\peripheral\scb/cy_scb_common.h **** * The number or data elements in the TX FIFO.
 727:Generated_Source\PSoC6\pdl\drivers\peripheral\scb/cy_scb_common.h **** *
 728:Generated_Source\PSoC6\pdl\drivers\peripheral\scb/cy_scb_common.h **** *******************************************************************************/
 729:Generated_Source\PSoC6\pdl\drivers\peripheral\scb/cy_scb_common.h **** __STATIC_INLINE uint32_t Cy_SCB_GetNumInTxFifo(CySCB_Type const *base)
 730:Generated_Source\PSoC6\pdl\drivers\peripheral\scb/cy_scb_common.h **** {
 299              		.loc 1 730 0
 300              		.cfi_startproc
 301              		@ args = 0, pretend = 0, frame = 8
 302              		@ frame_needed = 1, uses_anonymous_args = 0
 303 0000 80B5     		push	{r7, lr}
 304              		.cfi_def_cfa_offset 8
 305              		.cfi_offset 7, -8
 306              		.cfi_offset 14, -4
 307 0002 82B0     		sub	sp, sp, #8
 308              		.cfi_def_cfa_offset 16
 309 0004 00AF     		add	r7, sp, #0
 310              		.cfi_def_cfa_register 7
 311 0006 7860     		str	r0, [r7, #4]
 731:Generated_Source\PSoC6\pdl\drivers\peripheral\scb/cy_scb_common.h ****     return _FLD2VAL(SCB_TX_FIFO_STATUS_USED, base->TX_FIFO_STATUS);
 312              		.loc 1 731 0
 313 0008 7A68     		ldr	r2, [r7, #4]
 314 000a 8223     		movs	r3, #130
 315 000c 9B00     		lsls	r3, r3, #2
 316 000e D358     		ldr	r3, [r2, r3]
 317 0010 DB05     		lsls	r3, r3, #23
 318 0012 DB0D     		lsrs	r3, r3, #23
 732:Generated_Source\PSoC6\pdl\drivers\peripheral\scb/cy_scb_common.h **** }
 319              		.loc 1 732 0
 320 0014 1800     		movs	r0, r3
 321 0016 BD46     		mov	sp, r7
 322 0018 02B0     		add	sp, sp, #8
 323              		@ sp needed
 324 001a 80BD     		pop	{r7, pc}
 325              		.cfi_endproc
 326              	.LFE76:
 327              		.size	Cy_SCB_GetNumInTxFifo, .-Cy_SCB_GetNumInTxFifo
 328              		.section	.text.Cy_SCB_GetTxSrValid,"ax",%progbits
 329              		.align	2
 330              		.code	16
 331              		.thumb_func
 332              		.type	Cy_SCB_GetTxSrValid, %function
 333              	Cy_SCB_GetTxSrValid:
 334              	.LFB77:
 733:Generated_Source\PSoC6\pdl\drivers\peripheral\scb/cy_scb_common.h **** 
 734:Generated_Source\PSoC6\pdl\drivers\peripheral\scb/cy_scb_common.h **** 
 735:Generated_Source\PSoC6\pdl\drivers\peripheral\scb/cy_scb_common.h **** /*******************************************************************************
 736:Generated_Source\PSoC6\pdl\drivers\peripheral\scb/cy_scb_common.h **** * Function Name: Cy_SCB_GetTxSrValid
 737:Generated_Source\PSoC6\pdl\drivers\peripheral\scb/cy_scb_common.h **** ****************************************************************************//**
 738:Generated_Source\PSoC6\pdl\drivers\peripheral\scb/cy_scb_common.h **** *
 739:Generated_Source\PSoC6\pdl\drivers\peripheral\scb/cy_scb_common.h **** * Returns the status of the TX FIFO Shift Register valid bit.
 740:Generated_Source\PSoC6\pdl\drivers\peripheral\scb/cy_scb_common.h **** *
 741:Generated_Source\PSoC6\pdl\drivers\peripheral\scb/cy_scb_common.h **** * \param base
ARM GAS  C:\Users\salaz\AppData\Local\Temp\ccynHHO7.s 			page 20


 742:Generated_Source\PSoC6\pdl\drivers\peripheral\scb/cy_scb_common.h **** * The pointer to the SCB instance.
 743:Generated_Source\PSoC6\pdl\drivers\peripheral\scb/cy_scb_common.h **** *
 744:Generated_Source\PSoC6\pdl\drivers\peripheral\scb/cy_scb_common.h **** * \return
 745:Generated_Source\PSoC6\pdl\drivers\peripheral\scb/cy_scb_common.h **** * 1 - TX shift register valid; 0 - TX shift register not valid.
 746:Generated_Source\PSoC6\pdl\drivers\peripheral\scb/cy_scb_common.h **** *
 747:Generated_Source\PSoC6\pdl\drivers\peripheral\scb/cy_scb_common.h **** *******************************************************************************/
 748:Generated_Source\PSoC6\pdl\drivers\peripheral\scb/cy_scb_common.h **** __STATIC_INLINE uint32_t Cy_SCB_GetTxSrValid(CySCB_Type const *base)
 749:Generated_Source\PSoC6\pdl\drivers\peripheral\scb/cy_scb_common.h **** {
 335              		.loc 1 749 0
 336              		.cfi_startproc
 337              		@ args = 0, pretend = 0, frame = 8
 338              		@ frame_needed = 1, uses_anonymous_args = 0
 339 0000 80B5     		push	{r7, lr}
 340              		.cfi_def_cfa_offset 8
 341              		.cfi_offset 7, -8
 342              		.cfi_offset 14, -4
 343 0002 82B0     		sub	sp, sp, #8
 344              		.cfi_def_cfa_offset 16
 345 0004 00AF     		add	r7, sp, #0
 346              		.cfi_def_cfa_register 7
 347 0006 7860     		str	r0, [r7, #4]
 750:Generated_Source\PSoC6\pdl\drivers\peripheral\scb/cy_scb_common.h ****     return _FLD2VAL(SCB_TX_FIFO_STATUS_SR_VALID, base->TX_FIFO_STATUS);
 348              		.loc 1 750 0
 349 0008 7A68     		ldr	r2, [r7, #4]
 350 000a 8223     		movs	r3, #130
 351 000c 9B00     		lsls	r3, r3, #2
 352 000e D258     		ldr	r2, [r2, r3]
 353 0010 8023     		movs	r3, #128
 354 0012 1B02     		lsls	r3, r3, #8
 355 0014 1340     		ands	r3, r2
 356 0016 DB0B     		lsrs	r3, r3, #15
 751:Generated_Source\PSoC6\pdl\drivers\peripheral\scb/cy_scb_common.h **** }
 357              		.loc 1 751 0
 358 0018 1800     		movs	r0, r3
 359 001a BD46     		mov	sp, r7
 360 001c 02B0     		add	sp, sp, #8
 361              		@ sp needed
 362 001e 80BD     		pop	{r7, pc}
 363              		.cfi_endproc
 364              	.LFE77:
 365              		.size	Cy_SCB_GetTxSrValid, .-Cy_SCB_GetTxSrValid
 366              		.section	.text.Cy_SCB_IsTxComplete,"ax",%progbits
 367              		.align	2
 368              		.code	16
 369              		.thumb_func
 370              		.type	Cy_SCB_IsTxComplete, %function
 371              	Cy_SCB_IsTxComplete:
 372              	.LFB78:
 752:Generated_Source\PSoC6\pdl\drivers\peripheral\scb/cy_scb_common.h **** 
 753:Generated_Source\PSoC6\pdl\drivers\peripheral\scb/cy_scb_common.h **** 
 754:Generated_Source\PSoC6\pdl\drivers\peripheral\scb/cy_scb_common.h **** /*******************************************************************************
 755:Generated_Source\PSoC6\pdl\drivers\peripheral\scb/cy_scb_common.h **** * Function Name: Cy_SCB_IsTxComplete
 756:Generated_Source\PSoC6\pdl\drivers\peripheral\scb/cy_scb_common.h **** ****************************************************************************//**
 757:Generated_Source\PSoC6\pdl\drivers\peripheral\scb/cy_scb_common.h **** *
 758:Generated_Source\PSoC6\pdl\drivers\peripheral\scb/cy_scb_common.h **** * Checks whether the TX FIFO and Shifter are empty and there is no more data to send.
 759:Generated_Source\PSoC6\pdl\drivers\peripheral\scb/cy_scb_common.h **** *
 760:Generated_Source\PSoC6\pdl\drivers\peripheral\scb/cy_scb_common.h **** * \param base
ARM GAS  C:\Users\salaz\AppData\Local\Temp\ccynHHO7.s 			page 21


 761:Generated_Source\PSoC6\pdl\drivers\peripheral\scb/cy_scb_common.h **** * Pointer to SPI the SCB instance.
 762:Generated_Source\PSoC6\pdl\drivers\peripheral\scb/cy_scb_common.h **** *
 763:Generated_Source\PSoC6\pdl\drivers\peripheral\scb/cy_scb_common.h **** * \return
 764:Generated_Source\PSoC6\pdl\drivers\peripheral\scb/cy_scb_common.h **** * If true, transmission complete. If false, transmission is not complete.
 765:Generated_Source\PSoC6\pdl\drivers\peripheral\scb/cy_scb_common.h **** *
 766:Generated_Source\PSoC6\pdl\drivers\peripheral\scb/cy_scb_common.h **** *******************************************************************************/
 767:Generated_Source\PSoC6\pdl\drivers\peripheral\scb/cy_scb_common.h **** __STATIC_INLINE bool Cy_SCB_IsTxComplete(CySCB_Type const *base)
 768:Generated_Source\PSoC6\pdl\drivers\peripheral\scb/cy_scb_common.h **** {
 373              		.loc 1 768 0
 374              		.cfi_startproc
 375              		@ args = 0, pretend = 0, frame = 8
 376              		@ frame_needed = 1, uses_anonymous_args = 0
 377 0000 90B5     		push	{r4, r7, lr}
 378              		.cfi_def_cfa_offset 12
 379              		.cfi_offset 4, -12
 380              		.cfi_offset 7, -8
 381              		.cfi_offset 14, -4
 382 0002 83B0     		sub	sp, sp, #12
 383              		.cfi_def_cfa_offset 24
 384 0004 00AF     		add	r7, sp, #0
 385              		.cfi_def_cfa_register 7
 386 0006 7860     		str	r0, [r7, #4]
 769:Generated_Source\PSoC6\pdl\drivers\peripheral\scb/cy_scb_common.h ****      return (0UL == (Cy_SCB_GetNumInTxFifo(base) + Cy_SCB_GetTxSrValid(base)));
 387              		.loc 1 769 0
 388 0008 7B68     		ldr	r3, [r7, #4]
 389 000a 1800     		movs	r0, r3
 390 000c FFF7FEFF 		bl	Cy_SCB_GetNumInTxFifo
 391 0010 0400     		movs	r4, r0
 392 0012 7B68     		ldr	r3, [r7, #4]
 393 0014 1800     		movs	r0, r3
 394 0016 FFF7FEFF 		bl	Cy_SCB_GetTxSrValid
 395 001a 0300     		movs	r3, r0
 396 001c E318     		adds	r3, r4, r3
 397 001e 5A42     		rsbs	r2, r3, #0
 398 0020 5341     		adcs	r3, r3, r2
 399 0022 DBB2     		uxtb	r3, r3
 770:Generated_Source\PSoC6\pdl\drivers\peripheral\scb/cy_scb_common.h **** }
 400              		.loc 1 770 0
 401 0024 1800     		movs	r0, r3
 402 0026 BD46     		mov	sp, r7
 403 0028 03B0     		add	sp, sp, #12
 404              		@ sp needed
 405 002a 90BD     		pop	{r4, r7, pc}
 406              		.cfi_endproc
 407              	.LFE78:
 408              		.size	Cy_SCB_IsTxComplete, .-Cy_SCB_IsTxComplete
 409              		.section	.text.Cy_SCB_ClearTxFifo,"ax",%progbits
 410              		.align	2
 411              		.code	16
 412              		.thumb_func
 413              		.type	Cy_SCB_ClearTxFifo, %function
 414              	Cy_SCB_ClearTxFifo:
 415              	.LFB79:
 771:Generated_Source\PSoC6\pdl\drivers\peripheral\scb/cy_scb_common.h **** 
 772:Generated_Source\PSoC6\pdl\drivers\peripheral\scb/cy_scb_common.h **** 
 773:Generated_Source\PSoC6\pdl\drivers\peripheral\scb/cy_scb_common.h **** /*******************************************************************************
 774:Generated_Source\PSoC6\pdl\drivers\peripheral\scb/cy_scb_common.h **** * Function Name: Cy_SCB_ClearTxFifo
ARM GAS  C:\Users\salaz\AppData\Local\Temp\ccynHHO7.s 			page 22


 775:Generated_Source\PSoC6\pdl\drivers\peripheral\scb/cy_scb_common.h **** ****************************************************************************//**
 776:Generated_Source\PSoC6\pdl\drivers\peripheral\scb/cy_scb_common.h **** *
 777:Generated_Source\PSoC6\pdl\drivers\peripheral\scb/cy_scb_common.h **** * Clears the TX FIFO.
 778:Generated_Source\PSoC6\pdl\drivers\peripheral\scb/cy_scb_common.h **** *
 779:Generated_Source\PSoC6\pdl\drivers\peripheral\scb/cy_scb_common.h **** * \param base
 780:Generated_Source\PSoC6\pdl\drivers\peripheral\scb/cy_scb_common.h **** * The pointer to the SCB instance.
 781:Generated_Source\PSoC6\pdl\drivers\peripheral\scb/cy_scb_common.h **** *
 782:Generated_Source\PSoC6\pdl\drivers\peripheral\scb/cy_scb_common.h **** * \note
 783:Generated_Source\PSoC6\pdl\drivers\peripheral\scb/cy_scb_common.h **** * The TX FIFO clear operation also clears the shift register. Thus the shifter
 784:Generated_Source\PSoC6\pdl\drivers\peripheral\scb/cy_scb_common.h **** * could be cleared in the middle of a data element transfer. Thia results in
 785:Generated_Source\PSoC6\pdl\drivers\peripheral\scb/cy_scb_common.h **** * "ones" being sent on the bus for the remainder of the transfer.
 786:Generated_Source\PSoC6\pdl\drivers\peripheral\scb/cy_scb_common.h **** *
 787:Generated_Source\PSoC6\pdl\drivers\peripheral\scb/cy_scb_common.h **** *******************************************************************************/
 788:Generated_Source\PSoC6\pdl\drivers\peripheral\scb/cy_scb_common.h **** __STATIC_INLINE void Cy_SCB_ClearTxFifo(CySCB_Type *base)
 789:Generated_Source\PSoC6\pdl\drivers\peripheral\scb/cy_scb_common.h **** {
 416              		.loc 1 789 0
 417              		.cfi_startproc
 418              		@ args = 0, pretend = 0, frame = 8
 419              		@ frame_needed = 1, uses_anonymous_args = 0
 420 0000 80B5     		push	{r7, lr}
 421              		.cfi_def_cfa_offset 8
 422              		.cfi_offset 7, -8
 423              		.cfi_offset 14, -4
 424 0002 82B0     		sub	sp, sp, #8
 425              		.cfi_def_cfa_offset 16
 426 0004 00AF     		add	r7, sp, #0
 427              		.cfi_def_cfa_register 7
 428 0006 7860     		str	r0, [r7, #4]
 790:Generated_Source\PSoC6\pdl\drivers\peripheral\scb/cy_scb_common.h ****     base->TX_FIFO_CTRL |= (uint32_t)  SCB_TX_FIFO_CTRL_CLEAR_Msk;
 429              		.loc 1 790 0
 430 0008 7A68     		ldr	r2, [r7, #4]
 431 000a 8123     		movs	r3, #129
 432 000c 9B00     		lsls	r3, r3, #2
 433 000e D358     		ldr	r3, [r2, r3]
 434 0010 8022     		movs	r2, #128
 435 0012 5202     		lsls	r2, r2, #9
 436 0014 1A43     		orrs	r2, r3
 437 0016 1100     		movs	r1, r2
 438 0018 7A68     		ldr	r2, [r7, #4]
 439 001a 8123     		movs	r3, #129
 440 001c 9B00     		lsls	r3, r3, #2
 441 001e D150     		str	r1, [r2, r3]
 791:Generated_Source\PSoC6\pdl\drivers\peripheral\scb/cy_scb_common.h ****     base->TX_FIFO_CTRL &= (uint32_t) ~SCB_TX_FIFO_CTRL_CLEAR_Msk;
 442              		.loc 1 791 0
 443 0020 7A68     		ldr	r2, [r7, #4]
 444 0022 8123     		movs	r3, #129
 445 0024 9B00     		lsls	r3, r3, #2
 446 0026 D358     		ldr	r3, [r2, r3]
 447 0028 074A     		ldr	r2, .L23
 448 002a 1340     		ands	r3, r2
 449 002c 1900     		movs	r1, r3
 450 002e 7A68     		ldr	r2, [r7, #4]
 451 0030 8123     		movs	r3, #129
 452 0032 9B00     		lsls	r3, r3, #2
 453 0034 D150     		str	r1, [r2, r3]
 792:Generated_Source\PSoC6\pdl\drivers\peripheral\scb/cy_scb_common.h **** 
 793:Generated_Source\PSoC6\pdl\drivers\peripheral\scb/cy_scb_common.h ****     (void) base->TX_FIFO_CTRL;
ARM GAS  C:\Users\salaz\AppData\Local\Temp\ccynHHO7.s 			page 23


 454              		.loc 1 793 0
 455 0036 7A68     		ldr	r2, [r7, #4]
 456 0038 8123     		movs	r3, #129
 457 003a 9B00     		lsls	r3, r3, #2
 458 003c D358     		ldr	r3, [r2, r3]
 794:Generated_Source\PSoC6\pdl\drivers\peripheral\scb/cy_scb_common.h **** }
 459              		.loc 1 794 0
 460 003e C046     		nop
 461 0040 BD46     		mov	sp, r7
 462 0042 02B0     		add	sp, sp, #8
 463              		@ sp needed
 464 0044 80BD     		pop	{r7, pc}
 465              	.L24:
 466 0046 C046     		.align	2
 467              	.L23:
 468 0048 FFFFFEFF 		.word	-65537
 469              		.cfi_endproc
 470              	.LFE79:
 471              		.size	Cy_SCB_ClearTxFifo, .-Cy_SCB_ClearTxFifo
 472              		.section	.text.Cy_SCB_SetRxInterruptMask,"ax",%progbits
 473              		.align	2
 474              		.code	16
 475              		.thumb_func
 476              		.type	Cy_SCB_SetRxInterruptMask, %function
 477              	Cy_SCB_SetRxInterruptMask:
 478              	.LFB83:
 795:Generated_Source\PSoC6\pdl\drivers\peripheral\scb/cy_scb_common.h **** 
 796:Generated_Source\PSoC6\pdl\drivers\peripheral\scb/cy_scb_common.h **** 
 797:Generated_Source\PSoC6\pdl\drivers\peripheral\scb/cy_scb_common.h **** /*******************************************************************************
 798:Generated_Source\PSoC6\pdl\drivers\peripheral\scb/cy_scb_common.h **** * Function Name: Cy_SCB_SetByteMode
 799:Generated_Source\PSoC6\pdl\drivers\peripheral\scb/cy_scb_common.h **** ****************************************************************************//**
 800:Generated_Source\PSoC6\pdl\drivers\peripheral\scb/cy_scb_common.h **** *
 801:Generated_Source\PSoC6\pdl\drivers\peripheral\scb/cy_scb_common.h **** * Sets whether the RX and TX FIFOs are in byte mode.
 802:Generated_Source\PSoC6\pdl\drivers\peripheral\scb/cy_scb_common.h **** * The FIFOs are either 16-bit wide or 8-bit wide (byte mode).
 803:Generated_Source\PSoC6\pdl\drivers\peripheral\scb/cy_scb_common.h **** * When the FIFO is in byte mode it is twice as deep. See the device datasheet
 804:Generated_Source\PSoC6\pdl\drivers\peripheral\scb/cy_scb_common.h **** * for FIFO depths.
 805:Generated_Source\PSoC6\pdl\drivers\peripheral\scb/cy_scb_common.h **** *
 806:Generated_Source\PSoC6\pdl\drivers\peripheral\scb/cy_scb_common.h **** * \param base
 807:Generated_Source\PSoC6\pdl\drivers\peripheral\scb/cy_scb_common.h **** * The pointer to the SCB instance.
 808:Generated_Source\PSoC6\pdl\drivers\peripheral\scb/cy_scb_common.h **** *
 809:Generated_Source\PSoC6\pdl\drivers\peripheral\scb/cy_scb_common.h **** * \param byteMode
 810:Generated_Source\PSoC6\pdl\drivers\peripheral\scb/cy_scb_common.h **** * If true, TX and RX FIFOs are 8-bit wide. If false, the FIFOs are 16-bit wide.
 811:Generated_Source\PSoC6\pdl\drivers\peripheral\scb/cy_scb_common.h **** *
 812:Generated_Source\PSoC6\pdl\drivers\peripheral\scb/cy_scb_common.h **** *******************************************************************************/
 813:Generated_Source\PSoC6\pdl\drivers\peripheral\scb/cy_scb_common.h **** __STATIC_INLINE void Cy_SCB_SetByteMode(CySCB_Type *base, bool byteMode)
 814:Generated_Source\PSoC6\pdl\drivers\peripheral\scb/cy_scb_common.h **** {
 815:Generated_Source\PSoC6\pdl\drivers\peripheral\scb/cy_scb_common.h ****     if (byteMode)
 816:Generated_Source\PSoC6\pdl\drivers\peripheral\scb/cy_scb_common.h ****     {
 817:Generated_Source\PSoC6\pdl\drivers\peripheral\scb/cy_scb_common.h ****         base->CTRL |=  SCB_CTRL_BYTE_MODE_Msk;
 818:Generated_Source\PSoC6\pdl\drivers\peripheral\scb/cy_scb_common.h ****     }
 819:Generated_Source\PSoC6\pdl\drivers\peripheral\scb/cy_scb_common.h ****     else
 820:Generated_Source\PSoC6\pdl\drivers\peripheral\scb/cy_scb_common.h ****     {
 821:Generated_Source\PSoC6\pdl\drivers\peripheral\scb/cy_scb_common.h ****         base->CTRL &= ~SCB_CTRL_BYTE_MODE_Msk;
 822:Generated_Source\PSoC6\pdl\drivers\peripheral\scb/cy_scb_common.h ****     }
 823:Generated_Source\PSoC6\pdl\drivers\peripheral\scb/cy_scb_common.h **** }
 824:Generated_Source\PSoC6\pdl\drivers\peripheral\scb/cy_scb_common.h **** 
 825:Generated_Source\PSoC6\pdl\drivers\peripheral\scb/cy_scb_common.h **** 
ARM GAS  C:\Users\salaz\AppData\Local\Temp\ccynHHO7.s 			page 24


 826:Generated_Source\PSoC6\pdl\drivers\peripheral\scb/cy_scb_common.h **** /*******************************************************************************
 827:Generated_Source\PSoC6\pdl\drivers\peripheral\scb/cy_scb_common.h **** * Function Name: Cy_SCB_GetInterruptCause
 828:Generated_Source\PSoC6\pdl\drivers\peripheral\scb/cy_scb_common.h **** ****************************************************************************//**
 829:Generated_Source\PSoC6\pdl\drivers\peripheral\scb/cy_scb_common.h **** *
 830:Generated_Source\PSoC6\pdl\drivers\peripheral\scb/cy_scb_common.h **** * Returns the mask of bits showing the source of the current triggered
 831:Generated_Source\PSoC6\pdl\drivers\peripheral\scb/cy_scb_common.h **** * interrupt. This is useful for modes of operation where an interrupt can
 832:Generated_Source\PSoC6\pdl\drivers\peripheral\scb/cy_scb_common.h **** * be generated by conditions in multiple interrupt source registers.
 833:Generated_Source\PSoC6\pdl\drivers\peripheral\scb/cy_scb_common.h **** *
 834:Generated_Source\PSoC6\pdl\drivers\peripheral\scb/cy_scb_common.h **** * \param base
 835:Generated_Source\PSoC6\pdl\drivers\peripheral\scb/cy_scb_common.h **** * The pointer to the SCB instance.
 836:Generated_Source\PSoC6\pdl\drivers\peripheral\scb/cy_scb_common.h **** *
 837:Generated_Source\PSoC6\pdl\drivers\peripheral\scb/cy_scb_common.h **** * \return
 838:Generated_Source\PSoC6\pdl\drivers\peripheral\scb/cy_scb_common.h **** * The mask with the OR of the following conditions that have been triggered.
 839:Generated_Source\PSoC6\pdl\drivers\peripheral\scb/cy_scb_common.h **** * See \ref group_scb_common_macros_intr_cause for the set of constants.
 840:Generated_Source\PSoC6\pdl\drivers\peripheral\scb/cy_scb_common.h **** *
 841:Generated_Source\PSoC6\pdl\drivers\peripheral\scb/cy_scb_common.h **** *******************************************************************************/
 842:Generated_Source\PSoC6\pdl\drivers\peripheral\scb/cy_scb_common.h **** __STATIC_INLINE uint32_t Cy_SCB_GetInterruptCause(CySCB_Type const *base)
 843:Generated_Source\PSoC6\pdl\drivers\peripheral\scb/cy_scb_common.h **** {
 844:Generated_Source\PSoC6\pdl\drivers\peripheral\scb/cy_scb_common.h ****     return (base->INTR_CAUSE);
 845:Generated_Source\PSoC6\pdl\drivers\peripheral\scb/cy_scb_common.h **** }
 846:Generated_Source\PSoC6\pdl\drivers\peripheral\scb/cy_scb_common.h **** 
 847:Generated_Source\PSoC6\pdl\drivers\peripheral\scb/cy_scb_common.h **** 
 848:Generated_Source\PSoC6\pdl\drivers\peripheral\scb/cy_scb_common.h **** /*******************************************************************************
 849:Generated_Source\PSoC6\pdl\drivers\peripheral\scb/cy_scb_common.h **** * Function Name: Cy_SCB_GetRxInterruptStatus
 850:Generated_Source\PSoC6\pdl\drivers\peripheral\scb/cy_scb_common.h **** ****************************************************************************//**
 851:Generated_Source\PSoC6\pdl\drivers\peripheral\scb/cy_scb_common.h **** *
 852:Generated_Source\PSoC6\pdl\drivers\peripheral\scb/cy_scb_common.h **** * Returns the RX interrupt request register. This register contains the current
 853:Generated_Source\PSoC6\pdl\drivers\peripheral\scb/cy_scb_common.h **** * status of the RX interrupt sources.
 854:Generated_Source\PSoC6\pdl\drivers\peripheral\scb/cy_scb_common.h **** *
 855:Generated_Source\PSoC6\pdl\drivers\peripheral\scb/cy_scb_common.h **** * \param base
 856:Generated_Source\PSoC6\pdl\drivers\peripheral\scb/cy_scb_common.h **** * The pointer to the SCB instance.
 857:Generated_Source\PSoC6\pdl\drivers\peripheral\scb/cy_scb_common.h **** *
 858:Generated_Source\PSoC6\pdl\drivers\peripheral\scb/cy_scb_common.h **** * \return
 859:Generated_Source\PSoC6\pdl\drivers\peripheral\scb/cy_scb_common.h **** * The current status of the RX interrupt sources. Each constant is a bit field
 860:Generated_Source\PSoC6\pdl\drivers\peripheral\scb/cy_scb_common.h **** * value. The value returned may have multiple bits set to indicate the
 861:Generated_Source\PSoC6\pdl\drivers\peripheral\scb/cy_scb_common.h **** * current status.
 862:Generated_Source\PSoC6\pdl\drivers\peripheral\scb/cy_scb_common.h **** * See \ref group_scb_common_macros_rx_intr for the set of constants.
 863:Generated_Source\PSoC6\pdl\drivers\peripheral\scb/cy_scb_common.h **** *
 864:Generated_Source\PSoC6\pdl\drivers\peripheral\scb/cy_scb_common.h **** *******************************************************************************/
 865:Generated_Source\PSoC6\pdl\drivers\peripheral\scb/cy_scb_common.h **** __STATIC_INLINE uint32_t Cy_SCB_GetRxInterruptStatus(CySCB_Type const *base)
 866:Generated_Source\PSoC6\pdl\drivers\peripheral\scb/cy_scb_common.h **** {
 867:Generated_Source\PSoC6\pdl\drivers\peripheral\scb/cy_scb_common.h ****     return (base->INTR_RX & CY_SCB_RX_INTR_MASK);
 868:Generated_Source\PSoC6\pdl\drivers\peripheral\scb/cy_scb_common.h **** }
 869:Generated_Source\PSoC6\pdl\drivers\peripheral\scb/cy_scb_common.h **** 
 870:Generated_Source\PSoC6\pdl\drivers\peripheral\scb/cy_scb_common.h **** 
 871:Generated_Source\PSoC6\pdl\drivers\peripheral\scb/cy_scb_common.h **** /*******************************************************************************
 872:Generated_Source\PSoC6\pdl\drivers\peripheral\scb/cy_scb_common.h **** * Function Name: Cy_SCB_SetRxInterruptMask
 873:Generated_Source\PSoC6\pdl\drivers\peripheral\scb/cy_scb_common.h **** ****************************************************************************//**
 874:Generated_Source\PSoC6\pdl\drivers\peripheral\scb/cy_scb_common.h **** *
 875:Generated_Source\PSoC6\pdl\drivers\peripheral\scb/cy_scb_common.h **** * Writes the RX interrupt mask register. This register configures which bits
 876:Generated_Source\PSoC6\pdl\drivers\peripheral\scb/cy_scb_common.h **** * from the RX interrupt request register can trigger an interrupt event.
 877:Generated_Source\PSoC6\pdl\drivers\peripheral\scb/cy_scb_common.h **** *
 878:Generated_Source\PSoC6\pdl\drivers\peripheral\scb/cy_scb_common.h **** * \param base
 879:Generated_Source\PSoC6\pdl\drivers\peripheral\scb/cy_scb_common.h **** * The pointer to the SCB instance.
 880:Generated_Source\PSoC6\pdl\drivers\peripheral\scb/cy_scb_common.h **** *
 881:Generated_Source\PSoC6\pdl\drivers\peripheral\scb/cy_scb_common.h **** * \param interruptMask
 882:Generated_Source\PSoC6\pdl\drivers\peripheral\scb/cy_scb_common.h **** * Enabled RX interrupt sources.
ARM GAS  C:\Users\salaz\AppData\Local\Temp\ccynHHO7.s 			page 25


 883:Generated_Source\PSoC6\pdl\drivers\peripheral\scb/cy_scb_common.h **** * See \ref group_scb_common_macros_rx_intr.
 884:Generated_Source\PSoC6\pdl\drivers\peripheral\scb/cy_scb_common.h **** *
 885:Generated_Source\PSoC6\pdl\drivers\peripheral\scb/cy_scb_common.h **** *******************************************************************************/
 886:Generated_Source\PSoC6\pdl\drivers\peripheral\scb/cy_scb_common.h **** __STATIC_INLINE void Cy_SCB_SetRxInterruptMask(CySCB_Type *base, uint32_t interruptMask)
 887:Generated_Source\PSoC6\pdl\drivers\peripheral\scb/cy_scb_common.h **** {
 479              		.loc 1 887 0
 480              		.cfi_startproc
 481              		@ args = 0, pretend = 0, frame = 8
 482              		@ frame_needed = 1, uses_anonymous_args = 0
 483 0000 80B5     		push	{r7, lr}
 484              		.cfi_def_cfa_offset 8
 485              		.cfi_offset 7, -8
 486              		.cfi_offset 14, -4
 487 0002 82B0     		sub	sp, sp, #8
 488              		.cfi_def_cfa_offset 16
 489 0004 00AF     		add	r7, sp, #0
 490              		.cfi_def_cfa_register 7
 491 0006 7860     		str	r0, [r7, #4]
 492 0008 3960     		str	r1, [r7]
 888:Generated_Source\PSoC6\pdl\drivers\peripheral\scb/cy_scb_common.h ****     CY_ASSERT_L2(CY_SCB_IS_INTR_VALID(interruptMask, CY_SCB_RX_INTR_MASK));
 493              		.loc 1 888 0
 494 000a 3B68     		ldr	r3, [r7]
 495 000c 084A     		ldr	r2, .L27
 496 000e 1340     		ands	r3, r2
 497 0010 06D0     		beq	.L26
 498              		.loc 1 888 0 is_stmt 0 discriminator 1
 499 0012 DE23     		movs	r3, #222
 500 0014 9A00     		lsls	r2, r3, #2
 501 0016 074B     		ldr	r3, .L27+4
 502 0018 1100     		movs	r1, r2
 503 001a 1800     		movs	r0, r3
 504 001c FFF7FEFF 		bl	Cy_SysLib_AssertFailed
 505              	.L26:
 889:Generated_Source\PSoC6\pdl\drivers\peripheral\scb/cy_scb_common.h **** 
 890:Generated_Source\PSoC6\pdl\drivers\peripheral\scb/cy_scb_common.h ****     base->INTR_RX_MASK = interruptMask;
 506              		.loc 1 890 0 is_stmt 1
 507 0020 7B68     		ldr	r3, [r7, #4]
 508 0022 0549     		ldr	r1, .L27+8
 509 0024 3A68     		ldr	r2, [r7]
 510 0026 5A50     		str	r2, [r3, r1]
 891:Generated_Source\PSoC6\pdl\drivers\peripheral\scb/cy_scb_common.h **** }
 511              		.loc 1 891 0
 512 0028 C046     		nop
 513 002a BD46     		mov	sp, r7
 514 002c 02B0     		add	sp, sp, #8
 515              		@ sp needed
 516 002e 80BD     		pop	{r7, pc}
 517              	.L28:
 518              		.align	2
 519              	.L27:
 520 0030 92F4FFFF 		.word	-2926
 521 0034 00000000 		.word	.LC0
 522 0038 C80F0000 		.word	4040
 523              		.cfi_endproc
 524              	.LFE83:
 525              		.size	Cy_SCB_SetRxInterruptMask, .-Cy_SCB_SetRxInterruptMask
 526              		.section	.text.Cy_SCB_GetRxInterruptMask,"ax",%progbits
ARM GAS  C:\Users\salaz\AppData\Local\Temp\ccynHHO7.s 			page 26


 527              		.align	2
 528              		.code	16
 529              		.thumb_func
 530              		.type	Cy_SCB_GetRxInterruptMask, %function
 531              	Cy_SCB_GetRxInterruptMask:
 532              	.LFB84:
 892:Generated_Source\PSoC6\pdl\drivers\peripheral\scb/cy_scb_common.h **** 
 893:Generated_Source\PSoC6\pdl\drivers\peripheral\scb/cy_scb_common.h **** 
 894:Generated_Source\PSoC6\pdl\drivers\peripheral\scb/cy_scb_common.h **** /*******************************************************************************
 895:Generated_Source\PSoC6\pdl\drivers\peripheral\scb/cy_scb_common.h **** * Function Name: Cy_SCB_GetRxInterruptMask
 896:Generated_Source\PSoC6\pdl\drivers\peripheral\scb/cy_scb_common.h **** ****************************************************************************//**
 897:Generated_Source\PSoC6\pdl\drivers\peripheral\scb/cy_scb_common.h **** *
 898:Generated_Source\PSoC6\pdl\drivers\peripheral\scb/cy_scb_common.h **** * Returns the RX interrupt mask register. This register specifies which bits
 899:Generated_Source\PSoC6\pdl\drivers\peripheral\scb/cy_scb_common.h **** * from the RX interrupt request register trigger can an interrupt event.
 900:Generated_Source\PSoC6\pdl\drivers\peripheral\scb/cy_scb_common.h **** *
 901:Generated_Source\PSoC6\pdl\drivers\peripheral\scb/cy_scb_common.h **** * \param base
 902:Generated_Source\PSoC6\pdl\drivers\peripheral\scb/cy_scb_common.h **** * The pointer to the SCB instance.
 903:Generated_Source\PSoC6\pdl\drivers\peripheral\scb/cy_scb_common.h **** *
 904:Generated_Source\PSoC6\pdl\drivers\peripheral\scb/cy_scb_common.h **** * \return
 905:Generated_Source\PSoC6\pdl\drivers\peripheral\scb/cy_scb_common.h **** * Enabled RX interrupt sources.
 906:Generated_Source\PSoC6\pdl\drivers\peripheral\scb/cy_scb_common.h **** * See \ref group_scb_common_macros_rx_intr for the set of constants.
 907:Generated_Source\PSoC6\pdl\drivers\peripheral\scb/cy_scb_common.h **** *
 908:Generated_Source\PSoC6\pdl\drivers\peripheral\scb/cy_scb_common.h **** *******************************************************************************/
 909:Generated_Source\PSoC6\pdl\drivers\peripheral\scb/cy_scb_common.h **** __STATIC_INLINE uint32_t Cy_SCB_GetRxInterruptMask(CySCB_Type const *base)
 910:Generated_Source\PSoC6\pdl\drivers\peripheral\scb/cy_scb_common.h **** {
 533              		.loc 1 910 0
 534              		.cfi_startproc
 535              		@ args = 0, pretend = 0, frame = 8
 536              		@ frame_needed = 1, uses_anonymous_args = 0
 537 0000 80B5     		push	{r7, lr}
 538              		.cfi_def_cfa_offset 8
 539              		.cfi_offset 7, -8
 540              		.cfi_offset 14, -4
 541 0002 82B0     		sub	sp, sp, #8
 542              		.cfi_def_cfa_offset 16
 543 0004 00AF     		add	r7, sp, #0
 544              		.cfi_def_cfa_register 7
 545 0006 7860     		str	r0, [r7, #4]
 911:Generated_Source\PSoC6\pdl\drivers\peripheral\scb/cy_scb_common.h ****     return (base->INTR_RX_MASK);
 546              		.loc 1 911 0
 547 0008 7B68     		ldr	r3, [r7, #4]
 548 000a 034A     		ldr	r2, .L31
 549 000c 9B58     		ldr	r3, [r3, r2]
 912:Generated_Source\PSoC6\pdl\drivers\peripheral\scb/cy_scb_common.h **** }
 550              		.loc 1 912 0
 551 000e 1800     		movs	r0, r3
 552 0010 BD46     		mov	sp, r7
 553 0012 02B0     		add	sp, sp, #8
 554              		@ sp needed
 555 0014 80BD     		pop	{r7, pc}
 556              	.L32:
 557 0016 C046     		.align	2
 558              	.L31:
 559 0018 C80F0000 		.word	4040
 560              		.cfi_endproc
 561              	.LFE84:
 562              		.size	Cy_SCB_GetRxInterruptMask, .-Cy_SCB_GetRxInterruptMask
ARM GAS  C:\Users\salaz\AppData\Local\Temp\ccynHHO7.s 			page 27


 563              		.section	.text.Cy_SCB_GetRxInterruptStatusMasked,"ax",%progbits
 564              		.align	2
 565              		.code	16
 566              		.thumb_func
 567              		.type	Cy_SCB_GetRxInterruptStatusMasked, %function
 568              	Cy_SCB_GetRxInterruptStatusMasked:
 569              	.LFB85:
 913:Generated_Source\PSoC6\pdl\drivers\peripheral\scb/cy_scb_common.h **** 
 914:Generated_Source\PSoC6\pdl\drivers\peripheral\scb/cy_scb_common.h **** 
 915:Generated_Source\PSoC6\pdl\drivers\peripheral\scb/cy_scb_common.h **** /*******************************************************************************
 916:Generated_Source\PSoC6\pdl\drivers\peripheral\scb/cy_scb_common.h **** * Function Name: Cy_SCB_GetRxInterruptStatusMasked
 917:Generated_Source\PSoC6\pdl\drivers\peripheral\scb/cy_scb_common.h **** ****************************************************************************//**
 918:Generated_Source\PSoC6\pdl\drivers\peripheral\scb/cy_scb_common.h **** *
 919:Generated_Source\PSoC6\pdl\drivers\peripheral\scb/cy_scb_common.h **** * Returns the RX interrupt masked request register. This register contains
 920:Generated_Source\PSoC6\pdl\drivers\peripheral\scb/cy_scb_common.h **** * a logical AND of corresponding bits from the RX interrupt request and
 921:Generated_Source\PSoC6\pdl\drivers\peripheral\scb/cy_scb_common.h **** * mask registers.
 922:Generated_Source\PSoC6\pdl\drivers\peripheral\scb/cy_scb_common.h **** * This function is intended to be used in the interrupt service routine to
 923:Generated_Source\PSoC6\pdl\drivers\peripheral\scb/cy_scb_common.h **** * identify which of the enabled RX interrupt sources caused the interrupt event.
 924:Generated_Source\PSoC6\pdl\drivers\peripheral\scb/cy_scb_common.h **** *
 925:Generated_Source\PSoC6\pdl\drivers\peripheral\scb/cy_scb_common.h **** * \param base
 926:Generated_Source\PSoC6\pdl\drivers\peripheral\scb/cy_scb_common.h **** * The pointer to the SCB instance.
 927:Generated_Source\PSoC6\pdl\drivers\peripheral\scb/cy_scb_common.h **** *
 928:Generated_Source\PSoC6\pdl\drivers\peripheral\scb/cy_scb_common.h **** * \return
 929:Generated_Source\PSoC6\pdl\drivers\peripheral\scb/cy_scb_common.h **** * The current status of enabled RX interrupt sources.
 930:Generated_Source\PSoC6\pdl\drivers\peripheral\scb/cy_scb_common.h **** * See \ref group_scb_common_macros_rx_intr for the set of constants.
 931:Generated_Source\PSoC6\pdl\drivers\peripheral\scb/cy_scb_common.h **** *
 932:Generated_Source\PSoC6\pdl\drivers\peripheral\scb/cy_scb_common.h **** *******************************************************************************/
 933:Generated_Source\PSoC6\pdl\drivers\peripheral\scb/cy_scb_common.h **** __STATIC_INLINE uint32_t Cy_SCB_GetRxInterruptStatusMasked(CySCB_Type const *base)
 934:Generated_Source\PSoC6\pdl\drivers\peripheral\scb/cy_scb_common.h **** {
 570              		.loc 1 934 0
 571              		.cfi_startproc
 572              		@ args = 0, pretend = 0, frame = 8
 573              		@ frame_needed = 1, uses_anonymous_args = 0
 574 0000 80B5     		push	{r7, lr}
 575              		.cfi_def_cfa_offset 8
 576              		.cfi_offset 7, -8
 577              		.cfi_offset 14, -4
 578 0002 82B0     		sub	sp, sp, #8
 579              		.cfi_def_cfa_offset 16
 580 0004 00AF     		add	r7, sp, #0
 581              		.cfi_def_cfa_register 7
 582 0006 7860     		str	r0, [r7, #4]
 935:Generated_Source\PSoC6\pdl\drivers\peripheral\scb/cy_scb_common.h ****     return (base->INTR_RX_MASKED);
 583              		.loc 1 935 0
 584 0008 7B68     		ldr	r3, [r7, #4]
 585 000a 034A     		ldr	r2, .L35
 586 000c 9B58     		ldr	r3, [r3, r2]
 936:Generated_Source\PSoC6\pdl\drivers\peripheral\scb/cy_scb_common.h **** }
 587              		.loc 1 936 0
 588 000e 1800     		movs	r0, r3
 589 0010 BD46     		mov	sp, r7
 590 0012 02B0     		add	sp, sp, #8
 591              		@ sp needed
 592 0014 80BD     		pop	{r7, pc}
 593              	.L36:
 594 0016 C046     		.align	2
 595              	.L35:
ARM GAS  C:\Users\salaz\AppData\Local\Temp\ccynHHO7.s 			page 28


 596 0018 CC0F0000 		.word	4044
 597              		.cfi_endproc
 598              	.LFE85:
 599              		.size	Cy_SCB_GetRxInterruptStatusMasked, .-Cy_SCB_GetRxInterruptStatusMasked
 600              		.section	.text.Cy_SCB_ClearRxInterrupt,"ax",%progbits
 601              		.align	2
 602              		.code	16
 603              		.thumb_func
 604              		.type	Cy_SCB_ClearRxInterrupt, %function
 605              	Cy_SCB_ClearRxInterrupt:
 606              	.LFB86:
 937:Generated_Source\PSoC6\pdl\drivers\peripheral\scb/cy_scb_common.h **** 
 938:Generated_Source\PSoC6\pdl\drivers\peripheral\scb/cy_scb_common.h **** 
 939:Generated_Source\PSoC6\pdl\drivers\peripheral\scb/cy_scb_common.h **** /*******************************************************************************
 940:Generated_Source\PSoC6\pdl\drivers\peripheral\scb/cy_scb_common.h **** * Function Name: Cy_SCB_ClearRxInterrupt
 941:Generated_Source\PSoC6\pdl\drivers\peripheral\scb/cy_scb_common.h **** ****************************************************************************//**
 942:Generated_Source\PSoC6\pdl\drivers\peripheral\scb/cy_scb_common.h **** *
 943:Generated_Source\PSoC6\pdl\drivers\peripheral\scb/cy_scb_common.h **** * Clears the RX interrupt sources in the interrupt request register.
 944:Generated_Source\PSoC6\pdl\drivers\peripheral\scb/cy_scb_common.h **** *
 945:Generated_Source\PSoC6\pdl\drivers\peripheral\scb/cy_scb_common.h **** * \param base
 946:Generated_Source\PSoC6\pdl\drivers\peripheral\scb/cy_scb_common.h **** * The pointer to the SCB instance.
 947:Generated_Source\PSoC6\pdl\drivers\peripheral\scb/cy_scb_common.h **** *
 948:Generated_Source\PSoC6\pdl\drivers\peripheral\scb/cy_scb_common.h **** * \param interruptMask
 949:Generated_Source\PSoC6\pdl\drivers\peripheral\scb/cy_scb_common.h **** * The RX interrupt sources to be cleared.
 950:Generated_Source\PSoC6\pdl\drivers\peripheral\scb/cy_scb_common.h **** * See \ref group_scb_common_macros_rx_intr for the set of constants.
 951:Generated_Source\PSoC6\pdl\drivers\peripheral\scb/cy_scb_common.h **** *
 952:Generated_Source\PSoC6\pdl\drivers\peripheral\scb/cy_scb_common.h **** * \note
 953:Generated_Source\PSoC6\pdl\drivers\peripheral\scb/cy_scb_common.h **** *  - CY_SCB_INTR_RX_FIFO_LEVEL interrupt source is not cleared when
 954:Generated_Source\PSoC6\pdl\drivers\peripheral\scb/cy_scb_common.h **** *    the RX FIFO has more entries than the level.
 955:Generated_Source\PSoC6\pdl\drivers\peripheral\scb/cy_scb_common.h **** *  - CY_SCB_INTR_RX_NOT_EMPTY interrupt source is not cleared when the
 956:Generated_Source\PSoC6\pdl\drivers\peripheral\scb/cy_scb_common.h **** *    RX FIFO is not empty.
 957:Generated_Source\PSoC6\pdl\drivers\peripheral\scb/cy_scb_common.h **** *  - CY_SCB_INTR_RX_FULL interrupt source is not cleared when the
 958:Generated_Source\PSoC6\pdl\drivers\peripheral\scb/cy_scb_common.h **** *    RX FIFO is full.
 959:Generated_Source\PSoC6\pdl\drivers\peripheral\scb/cy_scb_common.h **** *
 960:Generated_Source\PSoC6\pdl\drivers\peripheral\scb/cy_scb_common.h **** *******************************************************************************/
 961:Generated_Source\PSoC6\pdl\drivers\peripheral\scb/cy_scb_common.h **** __STATIC_INLINE void Cy_SCB_ClearRxInterrupt(CySCB_Type *base, uint32_t interruptMask)
 962:Generated_Source\PSoC6\pdl\drivers\peripheral\scb/cy_scb_common.h **** {
 607              		.loc 1 962 0
 608              		.cfi_startproc
 609              		@ args = 0, pretend = 0, frame = 8
 610              		@ frame_needed = 1, uses_anonymous_args = 0
 611 0000 80B5     		push	{r7, lr}
 612              		.cfi_def_cfa_offset 8
 613              		.cfi_offset 7, -8
 614              		.cfi_offset 14, -4
 615 0002 82B0     		sub	sp, sp, #8
 616              		.cfi_def_cfa_offset 16
 617 0004 00AF     		add	r7, sp, #0
 618              		.cfi_def_cfa_register 7
 619 0006 7860     		str	r0, [r7, #4]
 620 0008 3960     		str	r1, [r7]
 963:Generated_Source\PSoC6\pdl\drivers\peripheral\scb/cy_scb_common.h ****     CY_ASSERT_L2(CY_SCB_IS_INTR_VALID(interruptMask, CY_SCB_RX_INTR_MASK));
 621              		.loc 1 963 0
 622 000a 3B68     		ldr	r3, [r7]
 623 000c 0A4A     		ldr	r2, .L39
 624 000e 1340     		ands	r3, r2
 625 0010 05D0     		beq	.L38
ARM GAS  C:\Users\salaz\AppData\Local\Temp\ccynHHO7.s 			page 29


 626              		.loc 1 963 0 is_stmt 0 discriminator 1
 627 0012 0A4A     		ldr	r2, .L39+4
 628 0014 0A4B     		ldr	r3, .L39+8
 629 0016 1100     		movs	r1, r2
 630 0018 1800     		movs	r0, r3
 631 001a FFF7FEFF 		bl	Cy_SysLib_AssertFailed
 632              	.L38:
 964:Generated_Source\PSoC6\pdl\drivers\peripheral\scb/cy_scb_common.h **** 
 965:Generated_Source\PSoC6\pdl\drivers\peripheral\scb/cy_scb_common.h ****     base->INTR_RX = interruptMask;
 633              		.loc 1 965 0 is_stmt 1
 634 001e 7A68     		ldr	r2, [r7, #4]
 635 0020 FC23     		movs	r3, #252
 636 0022 1B01     		lsls	r3, r3, #4
 637 0024 3968     		ldr	r1, [r7]
 638 0026 D150     		str	r1, [r2, r3]
 966:Generated_Source\PSoC6\pdl\drivers\peripheral\scb/cy_scb_common.h ****     (void) base->INTR_RX;
 639              		.loc 1 966 0
 640 0028 7A68     		ldr	r2, [r7, #4]
 641 002a FC23     		movs	r3, #252
 642 002c 1B01     		lsls	r3, r3, #4
 643 002e D358     		ldr	r3, [r2, r3]
 967:Generated_Source\PSoC6\pdl\drivers\peripheral\scb/cy_scb_common.h **** }
 644              		.loc 1 967 0
 645 0030 C046     		nop
 646 0032 BD46     		mov	sp, r7
 647 0034 02B0     		add	sp, sp, #8
 648              		@ sp needed
 649 0036 80BD     		pop	{r7, pc}
 650              	.L40:
 651              		.align	2
 652              	.L39:
 653 0038 92F4FFFF 		.word	-2926
 654 003c C3030000 		.word	963
 655 0040 00000000 		.word	.LC0
 656              		.cfi_endproc
 657              	.LFE86:
 658              		.size	Cy_SCB_ClearRxInterrupt, .-Cy_SCB_ClearRxInterrupt
 659              		.section	.text.Cy_SCB_SetTxInterruptMask,"ax",%progbits
 660              		.align	2
 661              		.code	16
 662              		.thumb_func
 663              		.type	Cy_SCB_SetTxInterruptMask, %function
 664              	Cy_SCB_SetTxInterruptMask:
 665              	.LFB89:
 968:Generated_Source\PSoC6\pdl\drivers\peripheral\scb/cy_scb_common.h **** 
 969:Generated_Source\PSoC6\pdl\drivers\peripheral\scb/cy_scb_common.h **** 
 970:Generated_Source\PSoC6\pdl\drivers\peripheral\scb/cy_scb_common.h **** /*******************************************************************************
 971:Generated_Source\PSoC6\pdl\drivers\peripheral\scb/cy_scb_common.h **** * Function Name: Cy_SCB_SetRxInterrupt
 972:Generated_Source\PSoC6\pdl\drivers\peripheral\scb/cy_scb_common.h **** ****************************************************************************//**
 973:Generated_Source\PSoC6\pdl\drivers\peripheral\scb/cy_scb_common.h **** *
 974:Generated_Source\PSoC6\pdl\drivers\peripheral\scb/cy_scb_common.h **** * Sets the RX interrupt sources in the interrupt request register.
 975:Generated_Source\PSoC6\pdl\drivers\peripheral\scb/cy_scb_common.h **** *
 976:Generated_Source\PSoC6\pdl\drivers\peripheral\scb/cy_scb_common.h **** * \param base
 977:Generated_Source\PSoC6\pdl\drivers\peripheral\scb/cy_scb_common.h **** * The pointer to the SCB instance.
 978:Generated_Source\PSoC6\pdl\drivers\peripheral\scb/cy_scb_common.h **** *
 979:Generated_Source\PSoC6\pdl\drivers\peripheral\scb/cy_scb_common.h **** * \param interruptMask
 980:Generated_Source\PSoC6\pdl\drivers\peripheral\scb/cy_scb_common.h **** * The RX interrupt sources to set in the RX interrupt request register.
ARM GAS  C:\Users\salaz\AppData\Local\Temp\ccynHHO7.s 			page 30


 981:Generated_Source\PSoC6\pdl\drivers\peripheral\scb/cy_scb_common.h **** * See \ref group_scb_common_macros_rx_intr for the set of constants.
 982:Generated_Source\PSoC6\pdl\drivers\peripheral\scb/cy_scb_common.h **** *
 983:Generated_Source\PSoC6\pdl\drivers\peripheral\scb/cy_scb_common.h **** *******************************************************************************/
 984:Generated_Source\PSoC6\pdl\drivers\peripheral\scb/cy_scb_common.h **** __STATIC_INLINE void Cy_SCB_SetRxInterrupt(CySCB_Type *base, uint32_t interruptMask)
 985:Generated_Source\PSoC6\pdl\drivers\peripheral\scb/cy_scb_common.h **** {
 986:Generated_Source\PSoC6\pdl\drivers\peripheral\scb/cy_scb_common.h ****     CY_ASSERT_L2(CY_SCB_IS_INTR_VALID(interruptMask, CY_SCB_RX_INTR_MASK));
 987:Generated_Source\PSoC6\pdl\drivers\peripheral\scb/cy_scb_common.h **** 
 988:Generated_Source\PSoC6\pdl\drivers\peripheral\scb/cy_scb_common.h ****     base->INTR_RX_SET = interruptMask;
 989:Generated_Source\PSoC6\pdl\drivers\peripheral\scb/cy_scb_common.h **** }
 990:Generated_Source\PSoC6\pdl\drivers\peripheral\scb/cy_scb_common.h **** 
 991:Generated_Source\PSoC6\pdl\drivers\peripheral\scb/cy_scb_common.h **** 
 992:Generated_Source\PSoC6\pdl\drivers\peripheral\scb/cy_scb_common.h **** /*******************************************************************************
 993:Generated_Source\PSoC6\pdl\drivers\peripheral\scb/cy_scb_common.h **** * Function Name: Cy_SCB_GetTxInterruptStatus
 994:Generated_Source\PSoC6\pdl\drivers\peripheral\scb/cy_scb_common.h **** ****************************************************************************//**
 995:Generated_Source\PSoC6\pdl\drivers\peripheral\scb/cy_scb_common.h **** *
 996:Generated_Source\PSoC6\pdl\drivers\peripheral\scb/cy_scb_common.h **** * Returns the TX interrupt request register. This register contains the current
 997:Generated_Source\PSoC6\pdl\drivers\peripheral\scb/cy_scb_common.h **** * status of the TX interrupt sources.
 998:Generated_Source\PSoC6\pdl\drivers\peripheral\scb/cy_scb_common.h **** *
 999:Generated_Source\PSoC6\pdl\drivers\peripheral\scb/cy_scb_common.h **** * \param base
1000:Generated_Source\PSoC6\pdl\drivers\peripheral\scb/cy_scb_common.h **** * The pointer to the SCB instance.
1001:Generated_Source\PSoC6\pdl\drivers\peripheral\scb/cy_scb_common.h **** *
1002:Generated_Source\PSoC6\pdl\drivers\peripheral\scb/cy_scb_common.h **** * \return
1003:Generated_Source\PSoC6\pdl\drivers\peripheral\scb/cy_scb_common.h **** * The current status of TX interrupt sources.
1004:Generated_Source\PSoC6\pdl\drivers\peripheral\scb/cy_scb_common.h **** * Each constant is a bit field value. The value returned may have multiple
1005:Generated_Source\PSoC6\pdl\drivers\peripheral\scb/cy_scb_common.h **** * bits set to indicate the current status.
1006:Generated_Source\PSoC6\pdl\drivers\peripheral\scb/cy_scb_common.h **** * See \ref group_scb_common_macros_tx_intr for the set of constants.
1007:Generated_Source\PSoC6\pdl\drivers\peripheral\scb/cy_scb_common.h **** *
1008:Generated_Source\PSoC6\pdl\drivers\peripheral\scb/cy_scb_common.h **** *******************************************************************************/
1009:Generated_Source\PSoC6\pdl\drivers\peripheral\scb/cy_scb_common.h **** __STATIC_INLINE uint32_t Cy_SCB_GetTxInterruptStatus(CySCB_Type const *base)
1010:Generated_Source\PSoC6\pdl\drivers\peripheral\scb/cy_scb_common.h **** {
1011:Generated_Source\PSoC6\pdl\drivers\peripheral\scb/cy_scb_common.h ****     return (base->INTR_TX & CY_SCB_TX_INTR_MASK);
1012:Generated_Source\PSoC6\pdl\drivers\peripheral\scb/cy_scb_common.h **** }
1013:Generated_Source\PSoC6\pdl\drivers\peripheral\scb/cy_scb_common.h **** 
1014:Generated_Source\PSoC6\pdl\drivers\peripheral\scb/cy_scb_common.h **** 
1015:Generated_Source\PSoC6\pdl\drivers\peripheral\scb/cy_scb_common.h **** /*******************************************************************************
1016:Generated_Source\PSoC6\pdl\drivers\peripheral\scb/cy_scb_common.h **** * Function Name: Cy_SCB_SetTxInterruptMask
1017:Generated_Source\PSoC6\pdl\drivers\peripheral\scb/cy_scb_common.h **** ****************************************************************************//**
1018:Generated_Source\PSoC6\pdl\drivers\peripheral\scb/cy_scb_common.h **** *
1019:Generated_Source\PSoC6\pdl\drivers\peripheral\scb/cy_scb_common.h **** * Writes the TX interrupt mask register. This register configures which bits
1020:Generated_Source\PSoC6\pdl\drivers\peripheral\scb/cy_scb_common.h **** * from the TX interrupt request register can trigger an interrupt event.
1021:Generated_Source\PSoC6\pdl\drivers\peripheral\scb/cy_scb_common.h **** *
1022:Generated_Source\PSoC6\pdl\drivers\peripheral\scb/cy_scb_common.h **** * \param base
1023:Generated_Source\PSoC6\pdl\drivers\peripheral\scb/cy_scb_common.h **** * The pointer to the SCB instance.
1024:Generated_Source\PSoC6\pdl\drivers\peripheral\scb/cy_scb_common.h **** *
1025:Generated_Source\PSoC6\pdl\drivers\peripheral\scb/cy_scb_common.h **** * \param interruptMask
1026:Generated_Source\PSoC6\pdl\drivers\peripheral\scb/cy_scb_common.h **** * Enabled TX interrupt sources.
1027:Generated_Source\PSoC6\pdl\drivers\peripheral\scb/cy_scb_common.h **** * See \ref group_scb_common_macros_tx_intr for the set of constants.
1028:Generated_Source\PSoC6\pdl\drivers\peripheral\scb/cy_scb_common.h **** *
1029:Generated_Source\PSoC6\pdl\drivers\peripheral\scb/cy_scb_common.h **** *******************************************************************************/
1030:Generated_Source\PSoC6\pdl\drivers\peripheral\scb/cy_scb_common.h **** __STATIC_INLINE void Cy_SCB_SetTxInterruptMask(CySCB_Type *base, uint32_t interruptMask)
1031:Generated_Source\PSoC6\pdl\drivers\peripheral\scb/cy_scb_common.h **** {
 666              		.loc 1 1031 0
 667              		.cfi_startproc
 668              		@ args = 0, pretend = 0, frame = 8
 669              		@ frame_needed = 1, uses_anonymous_args = 0
 670 0000 80B5     		push	{r7, lr}
 671              		.cfi_def_cfa_offset 8
ARM GAS  C:\Users\salaz\AppData\Local\Temp\ccynHHO7.s 			page 31


 672              		.cfi_offset 7, -8
 673              		.cfi_offset 14, -4
 674 0002 82B0     		sub	sp, sp, #8
 675              		.cfi_def_cfa_offset 16
 676 0004 00AF     		add	r7, sp, #0
 677              		.cfi_def_cfa_register 7
 678 0006 7860     		str	r0, [r7, #4]
 679 0008 3960     		str	r1, [r7]
1032:Generated_Source\PSoC6\pdl\drivers\peripheral\scb/cy_scb_common.h ****     CY_ASSERT_L2(CY_SCB_IS_INTR_VALID(interruptMask, CY_SCB_TX_INTR_MASK));
 680              		.loc 1 1032 0
 681 000a 3B68     		ldr	r3, [r7]
 682 000c 084A     		ldr	r2, .L43
 683 000e 1340     		ands	r3, r2
 684 0010 06D0     		beq	.L42
 685              		.loc 1 1032 0 is_stmt 0 discriminator 1
 686 0012 8123     		movs	r3, #129
 687 0014 DA00     		lsls	r2, r3, #3
 688 0016 074B     		ldr	r3, .L43+4
 689 0018 1100     		movs	r1, r2
 690 001a 1800     		movs	r0, r3
 691 001c FFF7FEFF 		bl	Cy_SysLib_AssertFailed
 692              	.L42:
1033:Generated_Source\PSoC6\pdl\drivers\peripheral\scb/cy_scb_common.h **** 
1034:Generated_Source\PSoC6\pdl\drivers\peripheral\scb/cy_scb_common.h ****     base->INTR_TX_MASK = interruptMask;
 693              		.loc 1 1034 0 is_stmt 1
 694 0020 7B68     		ldr	r3, [r7, #4]
 695 0022 0549     		ldr	r1, .L43+8
 696 0024 3A68     		ldr	r2, [r7]
 697 0026 5A50     		str	r2, [r3, r1]
1035:Generated_Source\PSoC6\pdl\drivers\peripheral\scb/cy_scb_common.h **** }
 698              		.loc 1 1035 0
 699 0028 C046     		nop
 700 002a BD46     		mov	sp, r7
 701 002c 02B0     		add	sp, sp, #8
 702              		@ sp needed
 703 002e 80BD     		pop	{r7, pc}
 704              	.L44:
 705              		.align	2
 706              	.L43:
 707 0030 8CF8FFFF 		.word	-1908
 708 0034 00000000 		.word	.LC0
 709 0038 880F0000 		.word	3976
 710              		.cfi_endproc
 711              	.LFE89:
 712              		.size	Cy_SCB_SetTxInterruptMask, .-Cy_SCB_SetTxInterruptMask
 713              		.section	.text.Cy_SCB_GetTxInterruptMask,"ax",%progbits
 714              		.align	2
 715              		.code	16
 716              		.thumb_func
 717              		.type	Cy_SCB_GetTxInterruptMask, %function
 718              	Cy_SCB_GetTxInterruptMask:
 719              	.LFB90:
1036:Generated_Source\PSoC6\pdl\drivers\peripheral\scb/cy_scb_common.h **** 
1037:Generated_Source\PSoC6\pdl\drivers\peripheral\scb/cy_scb_common.h **** 
1038:Generated_Source\PSoC6\pdl\drivers\peripheral\scb/cy_scb_common.h **** /*******************************************************************************
1039:Generated_Source\PSoC6\pdl\drivers\peripheral\scb/cy_scb_common.h **** * Function Name: Cy_SCB_GetTxInterruptMask
1040:Generated_Source\PSoC6\pdl\drivers\peripheral\scb/cy_scb_common.h **** ****************************************************************************//**
ARM GAS  C:\Users\salaz\AppData\Local\Temp\ccynHHO7.s 			page 32


1041:Generated_Source\PSoC6\pdl\drivers\peripheral\scb/cy_scb_common.h **** *
1042:Generated_Source\PSoC6\pdl\drivers\peripheral\scb/cy_scb_common.h **** * Returns the TX interrupt mask register. This register specifies which
1043:Generated_Source\PSoC6\pdl\drivers\peripheral\scb/cy_scb_common.h **** * bits from the TX interrupt request register can trigger an interrupt event.
1044:Generated_Source\PSoC6\pdl\drivers\peripheral\scb/cy_scb_common.h **** *
1045:Generated_Source\PSoC6\pdl\drivers\peripheral\scb/cy_scb_common.h **** * \param base
1046:Generated_Source\PSoC6\pdl\drivers\peripheral\scb/cy_scb_common.h **** * The pointer to the SCB instance.
1047:Generated_Source\PSoC6\pdl\drivers\peripheral\scb/cy_scb_common.h **** *
1048:Generated_Source\PSoC6\pdl\drivers\peripheral\scb/cy_scb_common.h **** * \return
1049:Generated_Source\PSoC6\pdl\drivers\peripheral\scb/cy_scb_common.h **** * Enabled TX interrupt sources.
1050:Generated_Source\PSoC6\pdl\drivers\peripheral\scb/cy_scb_common.h **** * See \ref group_scb_common_macros_tx_intr for the set of constants.
1051:Generated_Source\PSoC6\pdl\drivers\peripheral\scb/cy_scb_common.h **** *
1052:Generated_Source\PSoC6\pdl\drivers\peripheral\scb/cy_scb_common.h **** *******************************************************************************/
1053:Generated_Source\PSoC6\pdl\drivers\peripheral\scb/cy_scb_common.h **** __STATIC_INLINE uint32_t Cy_SCB_GetTxInterruptMask(CySCB_Type const *base)
1054:Generated_Source\PSoC6\pdl\drivers\peripheral\scb/cy_scb_common.h **** {
 720              		.loc 1 1054 0
 721              		.cfi_startproc
 722              		@ args = 0, pretend = 0, frame = 8
 723              		@ frame_needed = 1, uses_anonymous_args = 0
 724 0000 80B5     		push	{r7, lr}
 725              		.cfi_def_cfa_offset 8
 726              		.cfi_offset 7, -8
 727              		.cfi_offset 14, -4
 728 0002 82B0     		sub	sp, sp, #8
 729              		.cfi_def_cfa_offset 16
 730 0004 00AF     		add	r7, sp, #0
 731              		.cfi_def_cfa_register 7
 732 0006 7860     		str	r0, [r7, #4]
1055:Generated_Source\PSoC6\pdl\drivers\peripheral\scb/cy_scb_common.h ****     return (base->INTR_TX_MASK);
 733              		.loc 1 1055 0
 734 0008 7B68     		ldr	r3, [r7, #4]
 735 000a 034A     		ldr	r2, .L47
 736 000c 9B58     		ldr	r3, [r3, r2]
1056:Generated_Source\PSoC6\pdl\drivers\peripheral\scb/cy_scb_common.h **** }
 737              		.loc 1 1056 0
 738 000e 1800     		movs	r0, r3
 739 0010 BD46     		mov	sp, r7
 740 0012 02B0     		add	sp, sp, #8
 741              		@ sp needed
 742 0014 80BD     		pop	{r7, pc}
 743              	.L48:
 744 0016 C046     		.align	2
 745              	.L47:
 746 0018 880F0000 		.word	3976
 747              		.cfi_endproc
 748              	.LFE90:
 749              		.size	Cy_SCB_GetTxInterruptMask, .-Cy_SCB_GetTxInterruptMask
 750              		.section	.text.Cy_SCB_GetTxInterruptStatusMasked,"ax",%progbits
 751              		.align	2
 752              		.code	16
 753              		.thumb_func
 754              		.type	Cy_SCB_GetTxInterruptStatusMasked, %function
 755              	Cy_SCB_GetTxInterruptStatusMasked:
 756              	.LFB91:
1057:Generated_Source\PSoC6\pdl\drivers\peripheral\scb/cy_scb_common.h **** 
1058:Generated_Source\PSoC6\pdl\drivers\peripheral\scb/cy_scb_common.h **** 
1059:Generated_Source\PSoC6\pdl\drivers\peripheral\scb/cy_scb_common.h **** /*******************************************************************************
1060:Generated_Source\PSoC6\pdl\drivers\peripheral\scb/cy_scb_common.h **** * Function Name: Cy_SCB_GetTxInterruptStatusMasked
ARM GAS  C:\Users\salaz\AppData\Local\Temp\ccynHHO7.s 			page 33


1061:Generated_Source\PSoC6\pdl\drivers\peripheral\scb/cy_scb_common.h **** ****************************************************************************//**
1062:Generated_Source\PSoC6\pdl\drivers\peripheral\scb/cy_scb_common.h **** *
1063:Generated_Source\PSoC6\pdl\drivers\peripheral\scb/cy_scb_common.h **** * Returns the TX interrupt masked request register. This register contains
1064:Generated_Source\PSoC6\pdl\drivers\peripheral\scb/cy_scb_common.h **** * a logical AND of corresponding bits from the TX interrupt request and
1065:Generated_Source\PSoC6\pdl\drivers\peripheral\scb/cy_scb_common.h **** * mask registers.
1066:Generated_Source\PSoC6\pdl\drivers\peripheral\scb/cy_scb_common.h **** * This function is intended to be used in the interrupt service routine to
1067:Generated_Source\PSoC6\pdl\drivers\peripheral\scb/cy_scb_common.h **** * identify which of enabled TX interrupt sources caused the interrupt event.
1068:Generated_Source\PSoC6\pdl\drivers\peripheral\scb/cy_scb_common.h **** *
1069:Generated_Source\PSoC6\pdl\drivers\peripheral\scb/cy_scb_common.h **** * \param base
1070:Generated_Source\PSoC6\pdl\drivers\peripheral\scb/cy_scb_common.h **** * The pointer to the SCB instance.
1071:Generated_Source\PSoC6\pdl\drivers\peripheral\scb/cy_scb_common.h **** *
1072:Generated_Source\PSoC6\pdl\drivers\peripheral\scb/cy_scb_common.h **** * \return
1073:Generated_Source\PSoC6\pdl\drivers\peripheral\scb/cy_scb_common.h **** * The current status of enabled TX interrupt sources.
1074:Generated_Source\PSoC6\pdl\drivers\peripheral\scb/cy_scb_common.h **** * See \ref group_scb_common_macros_tx_intr for the set of constants.
1075:Generated_Source\PSoC6\pdl\drivers\peripheral\scb/cy_scb_common.h **** *
1076:Generated_Source\PSoC6\pdl\drivers\peripheral\scb/cy_scb_common.h **** *******************************************************************************/
1077:Generated_Source\PSoC6\pdl\drivers\peripheral\scb/cy_scb_common.h **** __STATIC_INLINE uint32_t Cy_SCB_GetTxInterruptStatusMasked(CySCB_Type const *base)
1078:Generated_Source\PSoC6\pdl\drivers\peripheral\scb/cy_scb_common.h **** {
 757              		.loc 1 1078 0
 758              		.cfi_startproc
 759              		@ args = 0, pretend = 0, frame = 8
 760              		@ frame_needed = 1, uses_anonymous_args = 0
 761 0000 80B5     		push	{r7, lr}
 762              		.cfi_def_cfa_offset 8
 763              		.cfi_offset 7, -8
 764              		.cfi_offset 14, -4
 765 0002 82B0     		sub	sp, sp, #8
 766              		.cfi_def_cfa_offset 16
 767 0004 00AF     		add	r7, sp, #0
 768              		.cfi_def_cfa_register 7
 769 0006 7860     		str	r0, [r7, #4]
1079:Generated_Source\PSoC6\pdl\drivers\peripheral\scb/cy_scb_common.h ****     return (base->INTR_TX_MASKED);
 770              		.loc 1 1079 0
 771 0008 7B68     		ldr	r3, [r7, #4]
 772 000a 034A     		ldr	r2, .L51
 773 000c 9B58     		ldr	r3, [r3, r2]
1080:Generated_Source\PSoC6\pdl\drivers\peripheral\scb/cy_scb_common.h **** }
 774              		.loc 1 1080 0
 775 000e 1800     		movs	r0, r3
 776 0010 BD46     		mov	sp, r7
 777 0012 02B0     		add	sp, sp, #8
 778              		@ sp needed
 779 0014 80BD     		pop	{r7, pc}
 780              	.L52:
 781 0016 C046     		.align	2
 782              	.L51:
 783 0018 8C0F0000 		.word	3980
 784              		.cfi_endproc
 785              	.LFE91:
 786              		.size	Cy_SCB_GetTxInterruptStatusMasked, .-Cy_SCB_GetTxInterruptStatusMasked
 787              		.section	.text.Cy_SCB_ClearTxInterrupt,"ax",%progbits
 788              		.align	2
 789              		.code	16
 790              		.thumb_func
 791              		.type	Cy_SCB_ClearTxInterrupt, %function
 792              	Cy_SCB_ClearTxInterrupt:
 793              	.LFB92:
ARM GAS  C:\Users\salaz\AppData\Local\Temp\ccynHHO7.s 			page 34


1081:Generated_Source\PSoC6\pdl\drivers\peripheral\scb/cy_scb_common.h **** 
1082:Generated_Source\PSoC6\pdl\drivers\peripheral\scb/cy_scb_common.h **** 
1083:Generated_Source\PSoC6\pdl\drivers\peripheral\scb/cy_scb_common.h **** /*******************************************************************************
1084:Generated_Source\PSoC6\pdl\drivers\peripheral\scb/cy_scb_common.h **** * Function Name: Cy_SCB_ClearTxInterrupt
1085:Generated_Source\PSoC6\pdl\drivers\peripheral\scb/cy_scb_common.h **** ****************************************************************************//**
1086:Generated_Source\PSoC6\pdl\drivers\peripheral\scb/cy_scb_common.h **** *
1087:Generated_Source\PSoC6\pdl\drivers\peripheral\scb/cy_scb_common.h **** * Clears the TX interrupt sources in the interrupt request register.
1088:Generated_Source\PSoC6\pdl\drivers\peripheral\scb/cy_scb_common.h **** *
1089:Generated_Source\PSoC6\pdl\drivers\peripheral\scb/cy_scb_common.h **** * \param base
1090:Generated_Source\PSoC6\pdl\drivers\peripheral\scb/cy_scb_common.h **** * The pointer to the SCB instance.
1091:Generated_Source\PSoC6\pdl\drivers\peripheral\scb/cy_scb_common.h **** *
1092:Generated_Source\PSoC6\pdl\drivers\peripheral\scb/cy_scb_common.h **** * \param interruptMask
1093:Generated_Source\PSoC6\pdl\drivers\peripheral\scb/cy_scb_common.h **** * The TX interrupt sources to be cleared.
1094:Generated_Source\PSoC6\pdl\drivers\peripheral\scb/cy_scb_common.h **** * See \ref group_scb_common_macros_tx_intr for the set of constants.
1095:Generated_Source\PSoC6\pdl\drivers\peripheral\scb/cy_scb_common.h **** *
1096:Generated_Source\PSoC6\pdl\drivers\peripheral\scb/cy_scb_common.h **** * \note
1097:Generated_Source\PSoC6\pdl\drivers\peripheral\scb/cy_scb_common.h **** *  - CY_SCB_INTR_TX_FIFO_LEVEL interrupt source is not cleared when the
1098:Generated_Source\PSoC6\pdl\drivers\peripheral\scb/cy_scb_common.h **** *    TX FIFO has fewer entries than the TX level.
1099:Generated_Source\PSoC6\pdl\drivers\peripheral\scb/cy_scb_common.h **** *  - CY_SCB_INTR_TX_NOT_FULL interrupt source is not cleared when the
1100:Generated_Source\PSoC6\pdl\drivers\peripheral\scb/cy_scb_common.h **** *    TX FIFO has empty entries in the TX FIFO.
1101:Generated_Source\PSoC6\pdl\drivers\peripheral\scb/cy_scb_common.h **** *  - CY_SCB_INTR_TX_EMPTY interrupt source is not cleared when the
1102:Generated_Source\PSoC6\pdl\drivers\peripheral\scb/cy_scb_common.h **** *    TX FIFO is empty.
1103:Generated_Source\PSoC6\pdl\drivers\peripheral\scb/cy_scb_common.h **** *  - CY_SCB_INTR_TX_UNDERFLOW interrupt source is not cleared when the
1104:Generated_Source\PSoC6\pdl\drivers\peripheral\scb/cy_scb_common.h **** *    TX FIFO is empty. Put data into the TX FIFO before clearing it.
1105:Generated_Source\PSoC6\pdl\drivers\peripheral\scb/cy_scb_common.h **** *
1106:Generated_Source\PSoC6\pdl\drivers\peripheral\scb/cy_scb_common.h **** *******************************************************************************/
1107:Generated_Source\PSoC6\pdl\drivers\peripheral\scb/cy_scb_common.h **** __STATIC_INLINE void Cy_SCB_ClearTxInterrupt(CySCB_Type *base, uint32_t interruptMask)
1108:Generated_Source\PSoC6\pdl\drivers\peripheral\scb/cy_scb_common.h **** {
 794              		.loc 1 1108 0
 795              		.cfi_startproc
 796              		@ args = 0, pretend = 0, frame = 8
 797              		@ frame_needed = 1, uses_anonymous_args = 0
 798 0000 80B5     		push	{r7, lr}
 799              		.cfi_def_cfa_offset 8
 800              		.cfi_offset 7, -8
 801              		.cfi_offset 14, -4
 802 0002 82B0     		sub	sp, sp, #8
 803              		.cfi_def_cfa_offset 16
 804 0004 00AF     		add	r7, sp, #0
 805              		.cfi_def_cfa_register 7
 806 0006 7860     		str	r0, [r7, #4]
 807 0008 3960     		str	r1, [r7]
1109:Generated_Source\PSoC6\pdl\drivers\peripheral\scb/cy_scb_common.h ****     CY_ASSERT_L2(CY_SCB_IS_INTR_VALID(interruptMask, CY_SCB_TX_INTR_MASK));
 808              		.loc 1 1109 0
 809 000a 3B68     		ldr	r3, [r7]
 810 000c 0A4A     		ldr	r2, .L55
 811 000e 1340     		ands	r3, r2
 812 0010 05D0     		beq	.L54
 813              		.loc 1 1109 0 is_stmt 0 discriminator 1
 814 0012 0A4A     		ldr	r2, .L55+4
 815 0014 0A4B     		ldr	r3, .L55+8
 816 0016 1100     		movs	r1, r2
 817 0018 1800     		movs	r0, r3
 818 001a FFF7FEFF 		bl	Cy_SysLib_AssertFailed
 819              	.L54:
1110:Generated_Source\PSoC6\pdl\drivers\peripheral\scb/cy_scb_common.h **** 
1111:Generated_Source\PSoC6\pdl\drivers\peripheral\scb/cy_scb_common.h ****     base->INTR_TX = interruptMask;
ARM GAS  C:\Users\salaz\AppData\Local\Temp\ccynHHO7.s 			page 35


 820              		.loc 1 1111 0 is_stmt 1
 821 001e 7A68     		ldr	r2, [r7, #4]
 822 0020 F823     		movs	r3, #248
 823 0022 1B01     		lsls	r3, r3, #4
 824 0024 3968     		ldr	r1, [r7]
 825 0026 D150     		str	r1, [r2, r3]
1112:Generated_Source\PSoC6\pdl\drivers\peripheral\scb/cy_scb_common.h ****     (void) base->INTR_TX;
 826              		.loc 1 1112 0
 827 0028 7A68     		ldr	r2, [r7, #4]
 828 002a F823     		movs	r3, #248
 829 002c 1B01     		lsls	r3, r3, #4
 830 002e D358     		ldr	r3, [r2, r3]
1113:Generated_Source\PSoC6\pdl\drivers\peripheral\scb/cy_scb_common.h **** }
 831              		.loc 1 1113 0
 832 0030 C046     		nop
 833 0032 BD46     		mov	sp, r7
 834 0034 02B0     		add	sp, sp, #8
 835              		@ sp needed
 836 0036 80BD     		pop	{r7, pc}
 837              	.L56:
 838              		.align	2
 839              	.L55:
 840 0038 8CF8FFFF 		.word	-1908
 841 003c 55040000 		.word	1109
 842 0040 00000000 		.word	.LC0
 843              		.cfi_endproc
 844              	.LFE92:
 845              		.size	Cy_SCB_ClearTxInterrupt, .-Cy_SCB_ClearTxInterrupt
 846              		.section	.text.Cy_SCB_SetMasterInterruptMask,"ax",%progbits
 847              		.align	2
 848              		.code	16
 849              		.thumb_func
 850              		.type	Cy_SCB_SetMasterInterruptMask, %function
 851              	Cy_SCB_SetMasterInterruptMask:
 852              	.LFB95:
1114:Generated_Source\PSoC6\pdl\drivers\peripheral\scb/cy_scb_common.h **** 
1115:Generated_Source\PSoC6\pdl\drivers\peripheral\scb/cy_scb_common.h **** 
1116:Generated_Source\PSoC6\pdl\drivers\peripheral\scb/cy_scb_common.h **** /*******************************************************************************
1117:Generated_Source\PSoC6\pdl\drivers\peripheral\scb/cy_scb_common.h **** * Function Name: Cy_SCB_SetTxInterrupt
1118:Generated_Source\PSoC6\pdl\drivers\peripheral\scb/cy_scb_common.h **** ****************************************************************************//**
1119:Generated_Source\PSoC6\pdl\drivers\peripheral\scb/cy_scb_common.h **** *
1120:Generated_Source\PSoC6\pdl\drivers\peripheral\scb/cy_scb_common.h **** * Sets TX interrupt sources in the interrupt request register.
1121:Generated_Source\PSoC6\pdl\drivers\peripheral\scb/cy_scb_common.h **** *
1122:Generated_Source\PSoC6\pdl\drivers\peripheral\scb/cy_scb_common.h **** * \param base
1123:Generated_Source\PSoC6\pdl\drivers\peripheral\scb/cy_scb_common.h **** * The pointer to the SCB instance.
1124:Generated_Source\PSoC6\pdl\drivers\peripheral\scb/cy_scb_common.h **** *
1125:Generated_Source\PSoC6\pdl\drivers\peripheral\scb/cy_scb_common.h **** * \param interruptMask
1126:Generated_Source\PSoC6\pdl\drivers\peripheral\scb/cy_scb_common.h **** * The TX interrupt sources to set in the TX interrupt request register.
1127:Generated_Source\PSoC6\pdl\drivers\peripheral\scb/cy_scb_common.h **** * See \ref group_scb_common_macros_tx_intr for the set of constants.
1128:Generated_Source\PSoC6\pdl\drivers\peripheral\scb/cy_scb_common.h **** *
1129:Generated_Source\PSoC6\pdl\drivers\peripheral\scb/cy_scb_common.h **** *******************************************************************************/
1130:Generated_Source\PSoC6\pdl\drivers\peripheral\scb/cy_scb_common.h **** __STATIC_INLINE void Cy_SCB_SetTxInterrupt(CySCB_Type *base, uint32_t interruptMask)
1131:Generated_Source\PSoC6\pdl\drivers\peripheral\scb/cy_scb_common.h **** {
1132:Generated_Source\PSoC6\pdl\drivers\peripheral\scb/cy_scb_common.h ****     CY_ASSERT_L2(CY_SCB_IS_INTR_VALID(interruptMask, CY_SCB_TX_INTR_MASK));
1133:Generated_Source\PSoC6\pdl\drivers\peripheral\scb/cy_scb_common.h **** 
1134:Generated_Source\PSoC6\pdl\drivers\peripheral\scb/cy_scb_common.h ****     base->INTR_TX_SET = interruptMask;
1135:Generated_Source\PSoC6\pdl\drivers\peripheral\scb/cy_scb_common.h **** }
ARM GAS  C:\Users\salaz\AppData\Local\Temp\ccynHHO7.s 			page 36


1136:Generated_Source\PSoC6\pdl\drivers\peripheral\scb/cy_scb_common.h **** 
1137:Generated_Source\PSoC6\pdl\drivers\peripheral\scb/cy_scb_common.h **** 
1138:Generated_Source\PSoC6\pdl\drivers\peripheral\scb/cy_scb_common.h **** /*******************************************************************************
1139:Generated_Source\PSoC6\pdl\drivers\peripheral\scb/cy_scb_common.h **** * Function Name: Cy_SCB_GetMasterInterruptStatus
1140:Generated_Source\PSoC6\pdl\drivers\peripheral\scb/cy_scb_common.h **** ****************************************************************************//**
1141:Generated_Source\PSoC6\pdl\drivers\peripheral\scb/cy_scb_common.h **** *
1142:Generated_Source\PSoC6\pdl\drivers\peripheral\scb/cy_scb_common.h **** * Returns the master interrupt request register. This register contains the current
1143:Generated_Source\PSoC6\pdl\drivers\peripheral\scb/cy_scb_common.h **** * status of the master interrupt sources.
1144:Generated_Source\PSoC6\pdl\drivers\peripheral\scb/cy_scb_common.h **** *
1145:Generated_Source\PSoC6\pdl\drivers\peripheral\scb/cy_scb_common.h **** * \param base
1146:Generated_Source\PSoC6\pdl\drivers\peripheral\scb/cy_scb_common.h **** * The pointer to the SCB instance.
1147:Generated_Source\PSoC6\pdl\drivers\peripheral\scb/cy_scb_common.h **** *
1148:Generated_Source\PSoC6\pdl\drivers\peripheral\scb/cy_scb_common.h **** * \return
1149:Generated_Source\PSoC6\pdl\drivers\peripheral\scb/cy_scb_common.h **** * The current status of the master interrupt sources.
1150:Generated_Source\PSoC6\pdl\drivers\peripheral\scb/cy_scb_common.h **** * Each constant is a bit field value. The value returned may have multiple
1151:Generated_Source\PSoC6\pdl\drivers\peripheral\scb/cy_scb_common.h **** * bits set to indicate the current status.
1152:Generated_Source\PSoC6\pdl\drivers\peripheral\scb/cy_scb_common.h **** * See \ref group_scb_common_macros_master_intr for the set of constants.
1153:Generated_Source\PSoC6\pdl\drivers\peripheral\scb/cy_scb_common.h **** *
1154:Generated_Source\PSoC6\pdl\drivers\peripheral\scb/cy_scb_common.h **** *******************************************************************************/
1155:Generated_Source\PSoC6\pdl\drivers\peripheral\scb/cy_scb_common.h **** __STATIC_INLINE uint32_t Cy_SCB_GetMasterInterruptStatus(CySCB_Type const *base)
1156:Generated_Source\PSoC6\pdl\drivers\peripheral\scb/cy_scb_common.h **** {
1157:Generated_Source\PSoC6\pdl\drivers\peripheral\scb/cy_scb_common.h ****     return (base->INTR_M & CY_SCB_MASTER_INTR_MASK);
1158:Generated_Source\PSoC6\pdl\drivers\peripheral\scb/cy_scb_common.h **** }
1159:Generated_Source\PSoC6\pdl\drivers\peripheral\scb/cy_scb_common.h **** 
1160:Generated_Source\PSoC6\pdl\drivers\peripheral\scb/cy_scb_common.h **** 
1161:Generated_Source\PSoC6\pdl\drivers\peripheral\scb/cy_scb_common.h **** /*******************************************************************************
1162:Generated_Source\PSoC6\pdl\drivers\peripheral\scb/cy_scb_common.h **** * Function Name: Cy_SCB_SetMasterInterruptMask
1163:Generated_Source\PSoC6\pdl\drivers\peripheral\scb/cy_scb_common.h **** ****************************************************************************//**
1164:Generated_Source\PSoC6\pdl\drivers\peripheral\scb/cy_scb_common.h **** *
1165:Generated_Source\PSoC6\pdl\drivers\peripheral\scb/cy_scb_common.h **** * Writes the master interrupt mask register. This register specifies which bits
1166:Generated_Source\PSoC6\pdl\drivers\peripheral\scb/cy_scb_common.h **** * from the master interrupt request register can trigger an interrupt event.
1167:Generated_Source\PSoC6\pdl\drivers\peripheral\scb/cy_scb_common.h **** *
1168:Generated_Source\PSoC6\pdl\drivers\peripheral\scb/cy_scb_common.h **** * \param base
1169:Generated_Source\PSoC6\pdl\drivers\peripheral\scb/cy_scb_common.h **** * The pointer to the SCB instance.
1170:Generated_Source\PSoC6\pdl\drivers\peripheral\scb/cy_scb_common.h **** *
1171:Generated_Source\PSoC6\pdl\drivers\peripheral\scb/cy_scb_common.h **** * \param interruptMask
1172:Generated_Source\PSoC6\pdl\drivers\peripheral\scb/cy_scb_common.h **** * The master interrupt sources to be enable.
1173:Generated_Source\PSoC6\pdl\drivers\peripheral\scb/cy_scb_common.h **** * See \ref group_scb_common_macros_master_intr for the set of constants.
1174:Generated_Source\PSoC6\pdl\drivers\peripheral\scb/cy_scb_common.h **** *
1175:Generated_Source\PSoC6\pdl\drivers\peripheral\scb/cy_scb_common.h **** *******************************************************************************/
1176:Generated_Source\PSoC6\pdl\drivers\peripheral\scb/cy_scb_common.h **** __STATIC_INLINE void Cy_SCB_SetMasterInterruptMask(CySCB_Type *base, uint32_t interruptMask)
1177:Generated_Source\PSoC6\pdl\drivers\peripheral\scb/cy_scb_common.h **** {
 853              		.loc 1 1177 0
 854              		.cfi_startproc
 855              		@ args = 0, pretend = 0, frame = 8
 856              		@ frame_needed = 1, uses_anonymous_args = 0
 857 0000 80B5     		push	{r7, lr}
 858              		.cfi_def_cfa_offset 8
 859              		.cfi_offset 7, -8
 860              		.cfi_offset 14, -4
 861 0002 82B0     		sub	sp, sp, #8
 862              		.cfi_def_cfa_offset 16
 863 0004 00AF     		add	r7, sp, #0
 864              		.cfi_def_cfa_register 7
 865 0006 7860     		str	r0, [r7, #4]
 866 0008 3960     		str	r1, [r7]
1178:Generated_Source\PSoC6\pdl\drivers\peripheral\scb/cy_scb_common.h ****     CY_ASSERT_L2(CY_SCB_IS_INTR_VALID(interruptMask, CY_SCB_MASTER_INTR_MASK));
ARM GAS  C:\Users\salaz\AppData\Local\Temp\ccynHHO7.s 			page 37


 867              		.loc 1 1178 0
 868 000a 3B68     		ldr	r3, [r7]
 869 000c 084A     		ldr	r2, .L59
 870 000e 1340     		ands	r3, r2
 871 0010 05D0     		beq	.L58
 872              		.loc 1 1178 0 is_stmt 0 discriminator 1
 873 0012 084A     		ldr	r2, .L59+4
 874 0014 084B     		ldr	r3, .L59+8
 875 0016 1100     		movs	r1, r2
 876 0018 1800     		movs	r0, r3
 877 001a FFF7FEFF 		bl	Cy_SysLib_AssertFailed
 878              	.L58:
1179:Generated_Source\PSoC6\pdl\drivers\peripheral\scb/cy_scb_common.h **** 
1180:Generated_Source\PSoC6\pdl\drivers\peripheral\scb/cy_scb_common.h ****     base->INTR_M_MASK = interruptMask;
 879              		.loc 1 1180 0 is_stmt 1
 880 001e 7B68     		ldr	r3, [r7, #4]
 881 0020 0649     		ldr	r1, .L59+12
 882 0022 3A68     		ldr	r2, [r7]
 883 0024 5A50     		str	r2, [r3, r1]
1181:Generated_Source\PSoC6\pdl\drivers\peripheral\scb/cy_scb_common.h **** }
 884              		.loc 1 1181 0
 885 0026 C046     		nop
 886 0028 BD46     		mov	sp, r7
 887 002a 02B0     		add	sp, sp, #8
 888              		@ sp needed
 889 002c 80BD     		pop	{r7, pc}
 890              	.L60:
 891 002e C046     		.align	2
 892              	.L59:
 893 0030 E8FCFFFF 		.word	-792
 894 0034 9A040000 		.word	1178
 895 0038 00000000 		.word	.LC0
 896 003c 080F0000 		.word	3848
 897              		.cfi_endproc
 898              	.LFE95:
 899              		.size	Cy_SCB_SetMasterInterruptMask, .-Cy_SCB_SetMasterInterruptMask
 900              		.section	.text.Cy_SCB_SetSlaveInterruptMask,"ax",%progbits
 901              		.align	2
 902              		.code	16
 903              		.thumb_func
 904              		.type	Cy_SCB_SetSlaveInterruptMask, %function
 905              	Cy_SCB_SetSlaveInterruptMask:
 906              	.LFB101:
1182:Generated_Source\PSoC6\pdl\drivers\peripheral\scb/cy_scb_common.h **** 
1183:Generated_Source\PSoC6\pdl\drivers\peripheral\scb/cy_scb_common.h **** 
1184:Generated_Source\PSoC6\pdl\drivers\peripheral\scb/cy_scb_common.h **** /*******************************************************************************
1185:Generated_Source\PSoC6\pdl\drivers\peripheral\scb/cy_scb_common.h **** * Function Name: Cy_SCB_GetMasterInterruptMask
1186:Generated_Source\PSoC6\pdl\drivers\peripheral\scb/cy_scb_common.h **** ****************************************************************************//**
1187:Generated_Source\PSoC6\pdl\drivers\peripheral\scb/cy_scb_common.h **** *
1188:Generated_Source\PSoC6\pdl\drivers\peripheral\scb/cy_scb_common.h **** * Returns the master interrupt mask register. This register specifies which bits
1189:Generated_Source\PSoC6\pdl\drivers\peripheral\scb/cy_scb_common.h **** * from the master interrupt request register can trigger an interrupt event.
1190:Generated_Source\PSoC6\pdl\drivers\peripheral\scb/cy_scb_common.h **** *
1191:Generated_Source\PSoC6\pdl\drivers\peripheral\scb/cy_scb_common.h **** * \param base
1192:Generated_Source\PSoC6\pdl\drivers\peripheral\scb/cy_scb_common.h **** * The pointer to the SCB instance.
1193:Generated_Source\PSoC6\pdl\drivers\peripheral\scb/cy_scb_common.h **** *
1194:Generated_Source\PSoC6\pdl\drivers\peripheral\scb/cy_scb_common.h **** * \return
1195:Generated_Source\PSoC6\pdl\drivers\peripheral\scb/cy_scb_common.h **** * Enabled master interrupt sources.
ARM GAS  C:\Users\salaz\AppData\Local\Temp\ccynHHO7.s 			page 38


1196:Generated_Source\PSoC6\pdl\drivers\peripheral\scb/cy_scb_common.h **** * See \ref group_scb_common_macros_master_intr for the set of constants.
1197:Generated_Source\PSoC6\pdl\drivers\peripheral\scb/cy_scb_common.h **** *
1198:Generated_Source\PSoC6\pdl\drivers\peripheral\scb/cy_scb_common.h **** *******************************************************************************/
1199:Generated_Source\PSoC6\pdl\drivers\peripheral\scb/cy_scb_common.h **** __STATIC_INLINE uint32_t Cy_SCB_GetMasterInterruptMask(CySCB_Type const *base)
1200:Generated_Source\PSoC6\pdl\drivers\peripheral\scb/cy_scb_common.h **** {
1201:Generated_Source\PSoC6\pdl\drivers\peripheral\scb/cy_scb_common.h ****     return (base->INTR_M_MASK);
1202:Generated_Source\PSoC6\pdl\drivers\peripheral\scb/cy_scb_common.h **** }
1203:Generated_Source\PSoC6\pdl\drivers\peripheral\scb/cy_scb_common.h **** 
1204:Generated_Source\PSoC6\pdl\drivers\peripheral\scb/cy_scb_common.h **** 
1205:Generated_Source\PSoC6\pdl\drivers\peripheral\scb/cy_scb_common.h **** /*******************************************************************************
1206:Generated_Source\PSoC6\pdl\drivers\peripheral\scb/cy_scb_common.h **** * Function Name: Cy_SCB_GetMasterInterruptStatusMasked
1207:Generated_Source\PSoC6\pdl\drivers\peripheral\scb/cy_scb_common.h **** ****************************************************************************//**
1208:Generated_Source\PSoC6\pdl\drivers\peripheral\scb/cy_scb_common.h **** *
1209:Generated_Source\PSoC6\pdl\drivers\peripheral\scb/cy_scb_common.h **** * Returns the master interrupt masked request register. This register contains a
1210:Generated_Source\PSoC6\pdl\drivers\peripheral\scb/cy_scb_common.h **** * logical AND of corresponding bits from the master interrupt request and mask
1211:Generated_Source\PSoC6\pdl\drivers\peripheral\scb/cy_scb_common.h **** * registers.
1212:Generated_Source\PSoC6\pdl\drivers\peripheral\scb/cy_scb_common.h **** * This function is intended to be used in the interrupt service routine to
1213:Generated_Source\PSoC6\pdl\drivers\peripheral\scb/cy_scb_common.h **** * identify which of the enabled master interrupt sources caused the interrupt
1214:Generated_Source\PSoC6\pdl\drivers\peripheral\scb/cy_scb_common.h **** * event.
1215:Generated_Source\PSoC6\pdl\drivers\peripheral\scb/cy_scb_common.h **** *
1216:Generated_Source\PSoC6\pdl\drivers\peripheral\scb/cy_scb_common.h **** * \param base
1217:Generated_Source\PSoC6\pdl\drivers\peripheral\scb/cy_scb_common.h **** * The pointer to the SCB instance.
1218:Generated_Source\PSoC6\pdl\drivers\peripheral\scb/cy_scb_common.h **** *
1219:Generated_Source\PSoC6\pdl\drivers\peripheral\scb/cy_scb_common.h **** * \return
1220:Generated_Source\PSoC6\pdl\drivers\peripheral\scb/cy_scb_common.h **** * The current status of enabled master interrupt sources.
1221:Generated_Source\PSoC6\pdl\drivers\peripheral\scb/cy_scb_common.h **** * See \ref group_scb_common_macros_master_intr for the set of constants.
1222:Generated_Source\PSoC6\pdl\drivers\peripheral\scb/cy_scb_common.h **** *
1223:Generated_Source\PSoC6\pdl\drivers\peripheral\scb/cy_scb_common.h **** *******************************************************************************/
1224:Generated_Source\PSoC6\pdl\drivers\peripheral\scb/cy_scb_common.h **** __STATIC_INLINE uint32_t Cy_SCB_GetMasterInterruptStatusMasked(CySCB_Type const *base)
1225:Generated_Source\PSoC6\pdl\drivers\peripheral\scb/cy_scb_common.h **** {
1226:Generated_Source\PSoC6\pdl\drivers\peripheral\scb/cy_scb_common.h ****     return (base->INTR_M_MASKED);
1227:Generated_Source\PSoC6\pdl\drivers\peripheral\scb/cy_scb_common.h **** }
1228:Generated_Source\PSoC6\pdl\drivers\peripheral\scb/cy_scb_common.h **** 
1229:Generated_Source\PSoC6\pdl\drivers\peripheral\scb/cy_scb_common.h **** 
1230:Generated_Source\PSoC6\pdl\drivers\peripheral\scb/cy_scb_common.h **** /*******************************************************************************
1231:Generated_Source\PSoC6\pdl\drivers\peripheral\scb/cy_scb_common.h **** * Function Name: Cy_SCB_ClearMasterInterrupt
1232:Generated_Source\PSoC6\pdl\drivers\peripheral\scb/cy_scb_common.h **** ****************************************************************************//**
1233:Generated_Source\PSoC6\pdl\drivers\peripheral\scb/cy_scb_common.h **** *
1234:Generated_Source\PSoC6\pdl\drivers\peripheral\scb/cy_scb_common.h **** * Clears master interrupt sources in the interrupt request register.
1235:Generated_Source\PSoC6\pdl\drivers\peripheral\scb/cy_scb_common.h **** *
1236:Generated_Source\PSoC6\pdl\drivers\peripheral\scb/cy_scb_common.h **** * \param base
1237:Generated_Source\PSoC6\pdl\drivers\peripheral\scb/cy_scb_common.h **** * The pointer to the SCB instance.
1238:Generated_Source\PSoC6\pdl\drivers\peripheral\scb/cy_scb_common.h **** *
1239:Generated_Source\PSoC6\pdl\drivers\peripheral\scb/cy_scb_common.h **** * \param interruptMask
1240:Generated_Source\PSoC6\pdl\drivers\peripheral\scb/cy_scb_common.h **** * The master interrupt sources to be cleared.
1241:Generated_Source\PSoC6\pdl\drivers\peripheral\scb/cy_scb_common.h **** * See \ref group_scb_common_macros_master_intr for the set of constants.
1242:Generated_Source\PSoC6\pdl\drivers\peripheral\scb/cy_scb_common.h **** *
1243:Generated_Source\PSoC6\pdl\drivers\peripheral\scb/cy_scb_common.h **** *******************************************************************************/
1244:Generated_Source\PSoC6\pdl\drivers\peripheral\scb/cy_scb_common.h **** __STATIC_INLINE void Cy_SCB_ClearMasterInterrupt(CySCB_Type *base, uint32_t interruptMask)
1245:Generated_Source\PSoC6\pdl\drivers\peripheral\scb/cy_scb_common.h **** {
1246:Generated_Source\PSoC6\pdl\drivers\peripheral\scb/cy_scb_common.h ****     CY_ASSERT_L2(CY_SCB_IS_INTR_VALID(interruptMask, CY_SCB_MASTER_INTR_MASK));
1247:Generated_Source\PSoC6\pdl\drivers\peripheral\scb/cy_scb_common.h **** 
1248:Generated_Source\PSoC6\pdl\drivers\peripheral\scb/cy_scb_common.h ****     base->INTR_M = interruptMask;
1249:Generated_Source\PSoC6\pdl\drivers\peripheral\scb/cy_scb_common.h ****     (void) base->INTR_M;
1250:Generated_Source\PSoC6\pdl\drivers\peripheral\scb/cy_scb_common.h **** }
1251:Generated_Source\PSoC6\pdl\drivers\peripheral\scb/cy_scb_common.h **** 
1252:Generated_Source\PSoC6\pdl\drivers\peripheral\scb/cy_scb_common.h **** 
ARM GAS  C:\Users\salaz\AppData\Local\Temp\ccynHHO7.s 			page 39


1253:Generated_Source\PSoC6\pdl\drivers\peripheral\scb/cy_scb_common.h **** /*******************************************************************************
1254:Generated_Source\PSoC6\pdl\drivers\peripheral\scb/cy_scb_common.h **** * Function Name: Cy_SCB_SetMasterInterrupt
1255:Generated_Source\PSoC6\pdl\drivers\peripheral\scb/cy_scb_common.h **** ****************************************************************************//**
1256:Generated_Source\PSoC6\pdl\drivers\peripheral\scb/cy_scb_common.h **** *
1257:Generated_Source\PSoC6\pdl\drivers\peripheral\scb/cy_scb_common.h **** * Sets master interrupt sources in the interrupt request register.
1258:Generated_Source\PSoC6\pdl\drivers\peripheral\scb/cy_scb_common.h **** *
1259:Generated_Source\PSoC6\pdl\drivers\peripheral\scb/cy_scb_common.h **** * \param base
1260:Generated_Source\PSoC6\pdl\drivers\peripheral\scb/cy_scb_common.h **** * The pointer to the SCB instance.
1261:Generated_Source\PSoC6\pdl\drivers\peripheral\scb/cy_scb_common.h **** *
1262:Generated_Source\PSoC6\pdl\drivers\peripheral\scb/cy_scb_common.h **** * \param interruptMask
1263:Generated_Source\PSoC6\pdl\drivers\peripheral\scb/cy_scb_common.h **** * The master interrupt sources to set in the master interrupt request register.
1264:Generated_Source\PSoC6\pdl\drivers\peripheral\scb/cy_scb_common.h **** * See \ref group_scb_common_macros_master_intr for the set of constants.
1265:Generated_Source\PSoC6\pdl\drivers\peripheral\scb/cy_scb_common.h **** *
1266:Generated_Source\PSoC6\pdl\drivers\peripheral\scb/cy_scb_common.h **** *******************************************************************************/
1267:Generated_Source\PSoC6\pdl\drivers\peripheral\scb/cy_scb_common.h **** __STATIC_INLINE void Cy_SCB_SetMasterInterrupt(CySCB_Type *base, uint32_t interruptMask)
1268:Generated_Source\PSoC6\pdl\drivers\peripheral\scb/cy_scb_common.h **** {
1269:Generated_Source\PSoC6\pdl\drivers\peripheral\scb/cy_scb_common.h ****     CY_ASSERT_L2(CY_SCB_IS_INTR_VALID(interruptMask, CY_SCB_MASTER_INTR_MASK));
1270:Generated_Source\PSoC6\pdl\drivers\peripheral\scb/cy_scb_common.h **** 
1271:Generated_Source\PSoC6\pdl\drivers\peripheral\scb/cy_scb_common.h ****     base->INTR_M_SET = interruptMask;
1272:Generated_Source\PSoC6\pdl\drivers\peripheral\scb/cy_scb_common.h **** }
1273:Generated_Source\PSoC6\pdl\drivers\peripheral\scb/cy_scb_common.h **** 
1274:Generated_Source\PSoC6\pdl\drivers\peripheral\scb/cy_scb_common.h **** 
1275:Generated_Source\PSoC6\pdl\drivers\peripheral\scb/cy_scb_common.h **** /*******************************************************************************
1276:Generated_Source\PSoC6\pdl\drivers\peripheral\scb/cy_scb_common.h **** * Function Name: Cy_SCB_GetSlaveInterruptStatus
1277:Generated_Source\PSoC6\pdl\drivers\peripheral\scb/cy_scb_common.h **** ****************************************************************************//**
1278:Generated_Source\PSoC6\pdl\drivers\peripheral\scb/cy_scb_common.h **** *
1279:Generated_Source\PSoC6\pdl\drivers\peripheral\scb/cy_scb_common.h **** * Returns the slave interrupt request register. This register contains the current
1280:Generated_Source\PSoC6\pdl\drivers\peripheral\scb/cy_scb_common.h **** * status of the slave interrupt sources.
1281:Generated_Source\PSoC6\pdl\drivers\peripheral\scb/cy_scb_common.h **** *
1282:Generated_Source\PSoC6\pdl\drivers\peripheral\scb/cy_scb_common.h **** * \param base
1283:Generated_Source\PSoC6\pdl\drivers\peripheral\scb/cy_scb_common.h **** * The pointer to the SCB instance.
1284:Generated_Source\PSoC6\pdl\drivers\peripheral\scb/cy_scb_common.h **** *
1285:Generated_Source\PSoC6\pdl\drivers\peripheral\scb/cy_scb_common.h **** * \return
1286:Generated_Source\PSoC6\pdl\drivers\peripheral\scb/cy_scb_common.h **** * The current status of the slave interrupt sources.
1287:Generated_Source\PSoC6\pdl\drivers\peripheral\scb/cy_scb_common.h **** * Each constant is a bit field value. The value returned may have multiple
1288:Generated_Source\PSoC6\pdl\drivers\peripheral\scb/cy_scb_common.h **** * bits set to indicate the current status.
1289:Generated_Source\PSoC6\pdl\drivers\peripheral\scb/cy_scb_common.h **** * See \ref group_scb_common_macros_slave_intr for the set of constants.
1290:Generated_Source\PSoC6\pdl\drivers\peripheral\scb/cy_scb_common.h **** *
1291:Generated_Source\PSoC6\pdl\drivers\peripheral\scb/cy_scb_common.h **** *******************************************************************************/
1292:Generated_Source\PSoC6\pdl\drivers\peripheral\scb/cy_scb_common.h **** __STATIC_INLINE uint32_t Cy_SCB_GetSlaveInterruptStatus(CySCB_Type const *base)
1293:Generated_Source\PSoC6\pdl\drivers\peripheral\scb/cy_scb_common.h **** {
1294:Generated_Source\PSoC6\pdl\drivers\peripheral\scb/cy_scb_common.h ****     return (base->INTR_S & CY_SCB_SLAVE_INTR_MASK);
1295:Generated_Source\PSoC6\pdl\drivers\peripheral\scb/cy_scb_common.h **** }
1296:Generated_Source\PSoC6\pdl\drivers\peripheral\scb/cy_scb_common.h **** 
1297:Generated_Source\PSoC6\pdl\drivers\peripheral\scb/cy_scb_common.h **** 
1298:Generated_Source\PSoC6\pdl\drivers\peripheral\scb/cy_scb_common.h **** /*******************************************************************************
1299:Generated_Source\PSoC6\pdl\drivers\peripheral\scb/cy_scb_common.h **** * Function Name: Cy_SCB_SetSlaveInterruptMask
1300:Generated_Source\PSoC6\pdl\drivers\peripheral\scb/cy_scb_common.h **** ****************************************************************************//**
1301:Generated_Source\PSoC6\pdl\drivers\peripheral\scb/cy_scb_common.h **** *
1302:Generated_Source\PSoC6\pdl\drivers\peripheral\scb/cy_scb_common.h **** * Writes slave interrupt mask register.
1303:Generated_Source\PSoC6\pdl\drivers\peripheral\scb/cy_scb_common.h **** * This register specifies which bits from the slave interrupt request register
1304:Generated_Source\PSoC6\pdl\drivers\peripheral\scb/cy_scb_common.h **** * can trigger an interrupt event.
1305:Generated_Source\PSoC6\pdl\drivers\peripheral\scb/cy_scb_common.h **** *
1306:Generated_Source\PSoC6\pdl\drivers\peripheral\scb/cy_scb_common.h **** * \param base
1307:Generated_Source\PSoC6\pdl\drivers\peripheral\scb/cy_scb_common.h **** * The pointer to the SCB instance.
1308:Generated_Source\PSoC6\pdl\drivers\peripheral\scb/cy_scb_common.h **** *
1309:Generated_Source\PSoC6\pdl\drivers\peripheral\scb/cy_scb_common.h **** * \param interruptMask
ARM GAS  C:\Users\salaz\AppData\Local\Temp\ccynHHO7.s 			page 40


1310:Generated_Source\PSoC6\pdl\drivers\peripheral\scb/cy_scb_common.h **** * Enabled slave interrupt sources.
1311:Generated_Source\PSoC6\pdl\drivers\peripheral\scb/cy_scb_common.h **** * See \ref group_scb_common_macros_slave_intr for the set of constants.
1312:Generated_Source\PSoC6\pdl\drivers\peripheral\scb/cy_scb_common.h **** *
1313:Generated_Source\PSoC6\pdl\drivers\peripheral\scb/cy_scb_common.h **** *******************************************************************************/
1314:Generated_Source\PSoC6\pdl\drivers\peripheral\scb/cy_scb_common.h **** __STATIC_INLINE void Cy_SCB_SetSlaveInterruptMask(CySCB_Type *base, uint32_t interruptMask)
1315:Generated_Source\PSoC6\pdl\drivers\peripheral\scb/cy_scb_common.h **** {
 907              		.loc 1 1315 0
 908              		.cfi_startproc
 909              		@ args = 0, pretend = 0, frame = 8
 910              		@ frame_needed = 1, uses_anonymous_args = 0
 911 0000 80B5     		push	{r7, lr}
 912              		.cfi_def_cfa_offset 8
 913              		.cfi_offset 7, -8
 914              		.cfi_offset 14, -4
 915 0002 82B0     		sub	sp, sp, #8
 916              		.cfi_def_cfa_offset 16
 917 0004 00AF     		add	r7, sp, #0
 918              		.cfi_def_cfa_register 7
 919 0006 7860     		str	r0, [r7, #4]
 920 0008 3960     		str	r1, [r7]
1316:Generated_Source\PSoC6\pdl\drivers\peripheral\scb/cy_scb_common.h ****     CY_ASSERT_L2(CY_SCB_IS_INTR_VALID(interruptMask, CY_SCB_SLAVE_INTR_MASK));
 921              		.loc 1 1316 0
 922 000a 3B68     		ldr	r3, [r7]
 923 000c 084A     		ldr	r2, .L63
 924 000e 1340     		ands	r3, r2
 925 0010 05D0     		beq	.L62
 926              		.loc 1 1316 0 is_stmt 0 discriminator 1
 927 0012 084A     		ldr	r2, .L63+4
 928 0014 084B     		ldr	r3, .L63+8
 929 0016 1100     		movs	r1, r2
 930 0018 1800     		movs	r0, r3
 931 001a FFF7FEFF 		bl	Cy_SysLib_AssertFailed
 932              	.L62:
1317:Generated_Source\PSoC6\pdl\drivers\peripheral\scb/cy_scb_common.h **** 
1318:Generated_Source\PSoC6\pdl\drivers\peripheral\scb/cy_scb_common.h ****     base->INTR_S_MASK = interruptMask;
 933              		.loc 1 1318 0 is_stmt 1
 934 001e 7B68     		ldr	r3, [r7, #4]
 935 0020 0649     		ldr	r1, .L63+12
 936 0022 3A68     		ldr	r2, [r7]
 937 0024 5A50     		str	r2, [r3, r1]
1319:Generated_Source\PSoC6\pdl\drivers\peripheral\scb/cy_scb_common.h **** }
 938              		.loc 1 1319 0
 939 0026 C046     		nop
 940 0028 BD46     		mov	sp, r7
 941 002a 02B0     		add	sp, sp, #8
 942              		@ sp needed
 943 002c 80BD     		pop	{r7, pc}
 944              	.L64:
 945 002e C046     		.align	2
 946              	.L63:
 947 0030 00F6FFFF 		.word	-2560
 948 0034 24050000 		.word	1316
 949 0038 00000000 		.word	.LC0
 950 003c 480F0000 		.word	3912
 951              		.cfi_endproc
 952              	.LFE101:
 953              		.size	Cy_SCB_SetSlaveInterruptMask, .-Cy_SCB_SetSlaveInterruptMask
ARM GAS  C:\Users\salaz\AppData\Local\Temp\ccynHHO7.s 			page 41


 954              		.section	.text.Cy_SCB_GetSlaveInterruptStatusMasked,"ax",%progbits
 955              		.align	2
 956              		.code	16
 957              		.thumb_func
 958              		.type	Cy_SCB_GetSlaveInterruptStatusMasked, %function
 959              	Cy_SCB_GetSlaveInterruptStatusMasked:
 960              	.LFB103:
1320:Generated_Source\PSoC6\pdl\drivers\peripheral\scb/cy_scb_common.h **** 
1321:Generated_Source\PSoC6\pdl\drivers\peripheral\scb/cy_scb_common.h **** 
1322:Generated_Source\PSoC6\pdl\drivers\peripheral\scb/cy_scb_common.h **** /*******************************************************************************
1323:Generated_Source\PSoC6\pdl\drivers\peripheral\scb/cy_scb_common.h **** * Function Name: Cy_SCB_GetSlaveInterruptMask
1324:Generated_Source\PSoC6\pdl\drivers\peripheral\scb/cy_scb_common.h **** ****************************************************************************//**
1325:Generated_Source\PSoC6\pdl\drivers\peripheral\scb/cy_scb_common.h **** *
1326:Generated_Source\PSoC6\pdl\drivers\peripheral\scb/cy_scb_common.h **** * Returns the slave interrupt mask register.
1327:Generated_Source\PSoC6\pdl\drivers\peripheral\scb/cy_scb_common.h **** * This register specifies which bits from the slave interrupt request register
1328:Generated_Source\PSoC6\pdl\drivers\peripheral\scb/cy_scb_common.h **** * can trigger an interrupt event.
1329:Generated_Source\PSoC6\pdl\drivers\peripheral\scb/cy_scb_common.h **** *
1330:Generated_Source\PSoC6\pdl\drivers\peripheral\scb/cy_scb_common.h **** * \param base
1331:Generated_Source\PSoC6\pdl\drivers\peripheral\scb/cy_scb_common.h **** * The pointer to the SCB instance.
1332:Generated_Source\PSoC6\pdl\drivers\peripheral\scb/cy_scb_common.h **** *
1333:Generated_Source\PSoC6\pdl\drivers\peripheral\scb/cy_scb_common.h **** * \return
1334:Generated_Source\PSoC6\pdl\drivers\peripheral\scb/cy_scb_common.h **** * Enabled slave interrupt sources.
1335:Generated_Source\PSoC6\pdl\drivers\peripheral\scb/cy_scb_common.h **** * See \ref group_scb_common_macros_slave_intr for the set of constants.
1336:Generated_Source\PSoC6\pdl\drivers\peripheral\scb/cy_scb_common.h **** *
1337:Generated_Source\PSoC6\pdl\drivers\peripheral\scb/cy_scb_common.h **** *******************************************************************************/
1338:Generated_Source\PSoC6\pdl\drivers\peripheral\scb/cy_scb_common.h **** __STATIC_INLINE uint32_t Cy_SCB_GetSlaveInterruptMask(CySCB_Type const *base)
1339:Generated_Source\PSoC6\pdl\drivers\peripheral\scb/cy_scb_common.h **** {
1340:Generated_Source\PSoC6\pdl\drivers\peripheral\scb/cy_scb_common.h ****     return (base->INTR_S_MASK);
1341:Generated_Source\PSoC6\pdl\drivers\peripheral\scb/cy_scb_common.h **** }
1342:Generated_Source\PSoC6\pdl\drivers\peripheral\scb/cy_scb_common.h **** 
1343:Generated_Source\PSoC6\pdl\drivers\peripheral\scb/cy_scb_common.h **** 
1344:Generated_Source\PSoC6\pdl\drivers\peripheral\scb/cy_scb_common.h **** /*******************************************************************************
1345:Generated_Source\PSoC6\pdl\drivers\peripheral\scb/cy_scb_common.h **** * Function Name: Cy_SCB_GetSlaveInterruptStatusMasked
1346:Generated_Source\PSoC6\pdl\drivers\peripheral\scb/cy_scb_common.h **** ****************************************************************************//**
1347:Generated_Source\PSoC6\pdl\drivers\peripheral\scb/cy_scb_common.h **** *
1348:Generated_Source\PSoC6\pdl\drivers\peripheral\scb/cy_scb_common.h **** * Returns the slave interrupt masked request register. This register contains a
1349:Generated_Source\PSoC6\pdl\drivers\peripheral\scb/cy_scb_common.h **** * logical AND of corresponding bits from the slave interrupt request and mask
1350:Generated_Source\PSoC6\pdl\drivers\peripheral\scb/cy_scb_common.h **** * registers.
1351:Generated_Source\PSoC6\pdl\drivers\peripheral\scb/cy_scb_common.h **** * This function is intended to be used in the interrupt service routine to
1352:Generated_Source\PSoC6\pdl\drivers\peripheral\scb/cy_scb_common.h **** * identify which of enabled slave interrupt sources caused the interrupt
1353:Generated_Source\PSoC6\pdl\drivers\peripheral\scb/cy_scb_common.h **** * event.
1354:Generated_Source\PSoC6\pdl\drivers\peripheral\scb/cy_scb_common.h **** *
1355:Generated_Source\PSoC6\pdl\drivers\peripheral\scb/cy_scb_common.h **** * \param base
1356:Generated_Source\PSoC6\pdl\drivers\peripheral\scb/cy_scb_common.h **** * The pointer to the SCB instance.
1357:Generated_Source\PSoC6\pdl\drivers\peripheral\scb/cy_scb_common.h **** *
1358:Generated_Source\PSoC6\pdl\drivers\peripheral\scb/cy_scb_common.h **** * \return
1359:Generated_Source\PSoC6\pdl\drivers\peripheral\scb/cy_scb_common.h **** * The current status of enabled slave interrupt sources.
1360:Generated_Source\PSoC6\pdl\drivers\peripheral\scb/cy_scb_common.h **** * See \ref group_scb_common_macros_slave_intr for the set of constants.
1361:Generated_Source\PSoC6\pdl\drivers\peripheral\scb/cy_scb_common.h **** *
1362:Generated_Source\PSoC6\pdl\drivers\peripheral\scb/cy_scb_common.h **** *******************************************************************************/
1363:Generated_Source\PSoC6\pdl\drivers\peripheral\scb/cy_scb_common.h **** __STATIC_INLINE uint32_t Cy_SCB_GetSlaveInterruptStatusMasked(CySCB_Type const *base)
1364:Generated_Source\PSoC6\pdl\drivers\peripheral\scb/cy_scb_common.h **** {
 961              		.loc 1 1364 0
 962              		.cfi_startproc
 963              		@ args = 0, pretend = 0, frame = 8
 964              		@ frame_needed = 1, uses_anonymous_args = 0
 965 0000 80B5     		push	{r7, lr}
ARM GAS  C:\Users\salaz\AppData\Local\Temp\ccynHHO7.s 			page 42


 966              		.cfi_def_cfa_offset 8
 967              		.cfi_offset 7, -8
 968              		.cfi_offset 14, -4
 969 0002 82B0     		sub	sp, sp, #8
 970              		.cfi_def_cfa_offset 16
 971 0004 00AF     		add	r7, sp, #0
 972              		.cfi_def_cfa_register 7
 973 0006 7860     		str	r0, [r7, #4]
1365:Generated_Source\PSoC6\pdl\drivers\peripheral\scb/cy_scb_common.h ****     return (base->INTR_S_MASKED);
 974              		.loc 1 1365 0
 975 0008 7B68     		ldr	r3, [r7, #4]
 976 000a 034A     		ldr	r2, .L67
 977 000c 9B58     		ldr	r3, [r3, r2]
1366:Generated_Source\PSoC6\pdl\drivers\peripheral\scb/cy_scb_common.h **** }
 978              		.loc 1 1366 0
 979 000e 1800     		movs	r0, r3
 980 0010 BD46     		mov	sp, r7
 981 0012 02B0     		add	sp, sp, #8
 982              		@ sp needed
 983 0014 80BD     		pop	{r7, pc}
 984              	.L68:
 985 0016 C046     		.align	2
 986              	.L67:
 987 0018 4C0F0000 		.word	3916
 988              		.cfi_endproc
 989              	.LFE103:
 990              		.size	Cy_SCB_GetSlaveInterruptStatusMasked, .-Cy_SCB_GetSlaveInterruptStatusMasked
 991              		.section	.text.Cy_SCB_ClearSlaveInterrupt,"ax",%progbits
 992              		.align	2
 993              		.code	16
 994              		.thumb_func
 995              		.type	Cy_SCB_ClearSlaveInterrupt, %function
 996              	Cy_SCB_ClearSlaveInterrupt:
 997              	.LFB104:
1367:Generated_Source\PSoC6\pdl\drivers\peripheral\scb/cy_scb_common.h **** 
1368:Generated_Source\PSoC6\pdl\drivers\peripheral\scb/cy_scb_common.h **** 
1369:Generated_Source\PSoC6\pdl\drivers\peripheral\scb/cy_scb_common.h **** /*******************************************************************************
1370:Generated_Source\PSoC6\pdl\drivers\peripheral\scb/cy_scb_common.h **** * Function Name: Cy_SCB_ClearSlaveInterrupt
1371:Generated_Source\PSoC6\pdl\drivers\peripheral\scb/cy_scb_common.h **** ****************************************************************************//**
1372:Generated_Source\PSoC6\pdl\drivers\peripheral\scb/cy_scb_common.h **** *
1373:Generated_Source\PSoC6\pdl\drivers\peripheral\scb/cy_scb_common.h **** * Clears the slave interrupt sources in the interrupt request register.
1374:Generated_Source\PSoC6\pdl\drivers\peripheral\scb/cy_scb_common.h **** *
1375:Generated_Source\PSoC6\pdl\drivers\peripheral\scb/cy_scb_common.h **** * \param base
1376:Generated_Source\PSoC6\pdl\drivers\peripheral\scb/cy_scb_common.h **** * The pointer to the SCB instance.
1377:Generated_Source\PSoC6\pdl\drivers\peripheral\scb/cy_scb_common.h **** *
1378:Generated_Source\PSoC6\pdl\drivers\peripheral\scb/cy_scb_common.h **** * \param interruptMask
1379:Generated_Source\PSoC6\pdl\drivers\peripheral\scb/cy_scb_common.h **** * Slave interrupt sources to be cleared.
1380:Generated_Source\PSoC6\pdl\drivers\peripheral\scb/cy_scb_common.h **** * See \ref group_scb_common_macros_slave_intr for the set of constants.
1381:Generated_Source\PSoC6\pdl\drivers\peripheral\scb/cy_scb_common.h **** *
1382:Generated_Source\PSoC6\pdl\drivers\peripheral\scb/cy_scb_common.h **** *******************************************************************************/
1383:Generated_Source\PSoC6\pdl\drivers\peripheral\scb/cy_scb_common.h **** __STATIC_INLINE void Cy_SCB_ClearSlaveInterrupt(CySCB_Type *base, uint32_t interruptMask)
1384:Generated_Source\PSoC6\pdl\drivers\peripheral\scb/cy_scb_common.h **** {
 998              		.loc 1 1384 0
 999              		.cfi_startproc
 1000              		@ args = 0, pretend = 0, frame = 8
 1001              		@ frame_needed = 1, uses_anonymous_args = 0
 1002 0000 80B5     		push	{r7, lr}
ARM GAS  C:\Users\salaz\AppData\Local\Temp\ccynHHO7.s 			page 43


 1003              		.cfi_def_cfa_offset 8
 1004              		.cfi_offset 7, -8
 1005              		.cfi_offset 14, -4
 1006 0002 82B0     		sub	sp, sp, #8
 1007              		.cfi_def_cfa_offset 16
 1008 0004 00AF     		add	r7, sp, #0
 1009              		.cfi_def_cfa_register 7
 1010 0006 7860     		str	r0, [r7, #4]
 1011 0008 3960     		str	r1, [r7]
1385:Generated_Source\PSoC6\pdl\drivers\peripheral\scb/cy_scb_common.h ****     CY_ASSERT_L2(CY_SCB_IS_INTR_VALID(interruptMask, CY_SCB_SLAVE_INTR_MASK));
 1012              		.loc 1 1385 0
 1013 000a 3B68     		ldr	r3, [r7]
 1014 000c 0A4A     		ldr	r2, .L71
 1015 000e 1340     		ands	r3, r2
 1016 0010 05D0     		beq	.L70
 1017              		.loc 1 1385 0 is_stmt 0 discriminator 1
 1018 0012 0A4A     		ldr	r2, .L71+4
 1019 0014 0A4B     		ldr	r3, .L71+8
 1020 0016 1100     		movs	r1, r2
 1021 0018 1800     		movs	r0, r3
 1022 001a FFF7FEFF 		bl	Cy_SysLib_AssertFailed
 1023              	.L70:
1386:Generated_Source\PSoC6\pdl\drivers\peripheral\scb/cy_scb_common.h **** 
1387:Generated_Source\PSoC6\pdl\drivers\peripheral\scb/cy_scb_common.h ****     base->INTR_S = interruptMask;
 1024              		.loc 1 1387 0 is_stmt 1
 1025 001e 7A68     		ldr	r2, [r7, #4]
 1026 0020 F423     		movs	r3, #244
 1027 0022 1B01     		lsls	r3, r3, #4
 1028 0024 3968     		ldr	r1, [r7]
 1029 0026 D150     		str	r1, [r2, r3]
1388:Generated_Source\PSoC6\pdl\drivers\peripheral\scb/cy_scb_common.h ****     (void) base->INTR_S;
 1030              		.loc 1 1388 0
 1031 0028 7A68     		ldr	r2, [r7, #4]
 1032 002a F423     		movs	r3, #244
 1033 002c 1B01     		lsls	r3, r3, #4
 1034 002e D358     		ldr	r3, [r2, r3]
1389:Generated_Source\PSoC6\pdl\drivers\peripheral\scb/cy_scb_common.h **** }
 1035              		.loc 1 1389 0
 1036 0030 C046     		nop
 1037 0032 BD46     		mov	sp, r7
 1038 0034 02B0     		add	sp, sp, #8
 1039              		@ sp needed
 1040 0036 80BD     		pop	{r7, pc}
 1041              	.L72:
 1042              		.align	2
 1043              	.L71:
 1044 0038 00F6FFFF 		.word	-2560
 1045 003c 69050000 		.word	1385
 1046 0040 00000000 		.word	.LC0
 1047              		.cfi_endproc
 1048              	.LFE104:
 1049              		.size	Cy_SCB_ClearSlaveInterrupt, .-Cy_SCB_ClearSlaveInterrupt
 1050              		.section	.text.Cy_SCB_SetSpiInterruptMask,"ax",%progbits
 1051              		.align	2
 1052              		.code	16
 1053              		.thumb_func
 1054              		.type	Cy_SCB_SetSpiInterruptMask, %function
ARM GAS  C:\Users\salaz\AppData\Local\Temp\ccynHHO7.s 			page 44


 1055              	Cy_SCB_SetSpiInterruptMask:
 1056              	.LFB112:
1390:Generated_Source\PSoC6\pdl\drivers\peripheral\scb/cy_scb_common.h **** 
1391:Generated_Source\PSoC6\pdl\drivers\peripheral\scb/cy_scb_common.h **** 
1392:Generated_Source\PSoC6\pdl\drivers\peripheral\scb/cy_scb_common.h **** /*******************************************************************************
1393:Generated_Source\PSoC6\pdl\drivers\peripheral\scb/cy_scb_common.h **** * Function Name: Cy_SCB_SetSlaveInterrupt
1394:Generated_Source\PSoC6\pdl\drivers\peripheral\scb/cy_scb_common.h **** ****************************************************************************//**
1395:Generated_Source\PSoC6\pdl\drivers\peripheral\scb/cy_scb_common.h **** *
1396:Generated_Source\PSoC6\pdl\drivers\peripheral\scb/cy_scb_common.h **** * Sets slave interrupt sources in the interrupt request register.
1397:Generated_Source\PSoC6\pdl\drivers\peripheral\scb/cy_scb_common.h **** *
1398:Generated_Source\PSoC6\pdl\drivers\peripheral\scb/cy_scb_common.h **** * \param base
1399:Generated_Source\PSoC6\pdl\drivers\peripheral\scb/cy_scb_common.h **** * The pointer to the SCB instance.
1400:Generated_Source\PSoC6\pdl\drivers\peripheral\scb/cy_scb_common.h **** *
1401:Generated_Source\PSoC6\pdl\drivers\peripheral\scb/cy_scb_common.h **** * \param interruptMask
1402:Generated_Source\PSoC6\pdl\drivers\peripheral\scb/cy_scb_common.h **** * The slave interrupt sources to set in the slave interrupt request register
1403:Generated_Source\PSoC6\pdl\drivers\peripheral\scb/cy_scb_common.h **** * See \ref group_scb_common_macros_slave_intr for the set of constants.
1404:Generated_Source\PSoC6\pdl\drivers\peripheral\scb/cy_scb_common.h **** *
1405:Generated_Source\PSoC6\pdl\drivers\peripheral\scb/cy_scb_common.h **** *******************************************************************************/
1406:Generated_Source\PSoC6\pdl\drivers\peripheral\scb/cy_scb_common.h **** __STATIC_INLINE void Cy_SCB_SetSlaveInterrupt(CySCB_Type *base, uint32_t interruptMask)
1407:Generated_Source\PSoC6\pdl\drivers\peripheral\scb/cy_scb_common.h **** {
1408:Generated_Source\PSoC6\pdl\drivers\peripheral\scb/cy_scb_common.h ****     CY_ASSERT_L2(CY_SCB_IS_INTR_VALID(interruptMask, CY_SCB_SLAVE_INTR_MASK));
1409:Generated_Source\PSoC6\pdl\drivers\peripheral\scb/cy_scb_common.h **** 
1410:Generated_Source\PSoC6\pdl\drivers\peripheral\scb/cy_scb_common.h ****     base->INTR_S_SET = interruptMask;
1411:Generated_Source\PSoC6\pdl\drivers\peripheral\scb/cy_scb_common.h **** }
1412:Generated_Source\PSoC6\pdl\drivers\peripheral\scb/cy_scb_common.h **** 
1413:Generated_Source\PSoC6\pdl\drivers\peripheral\scb/cy_scb_common.h **** 
1414:Generated_Source\PSoC6\pdl\drivers\peripheral\scb/cy_scb_common.h **** /*******************************************************************************
1415:Generated_Source\PSoC6\pdl\drivers\peripheral\scb/cy_scb_common.h **** * Function Name: Cy_SCB_GetI2CInterruptStatus
1416:Generated_Source\PSoC6\pdl\drivers\peripheral\scb/cy_scb_common.h **** ****************************************************************************//**
1417:Generated_Source\PSoC6\pdl\drivers\peripheral\scb/cy_scb_common.h **** *
1418:Generated_Source\PSoC6\pdl\drivers\peripheral\scb/cy_scb_common.h **** * Returns the I2C interrupt request register. This register contains the
1419:Generated_Source\PSoC6\pdl\drivers\peripheral\scb/cy_scb_common.h **** * current status of the I2C interrupt sources.
1420:Generated_Source\PSoC6\pdl\drivers\peripheral\scb/cy_scb_common.h **** *
1421:Generated_Source\PSoC6\pdl\drivers\peripheral\scb/cy_scb_common.h **** * \param base
1422:Generated_Source\PSoC6\pdl\drivers\peripheral\scb/cy_scb_common.h **** * The pointer to the SCB instance.
1423:Generated_Source\PSoC6\pdl\drivers\peripheral\scb/cy_scb_common.h **** *
1424:Generated_Source\PSoC6\pdl\drivers\peripheral\scb/cy_scb_common.h **** * \return
1425:Generated_Source\PSoC6\pdl\drivers\peripheral\scb/cy_scb_common.h **** * The current status of the I2C interrupt sources. Each constant is a bit
1426:Generated_Source\PSoC6\pdl\drivers\peripheral\scb/cy_scb_common.h **** * field value.
1427:Generated_Source\PSoC6\pdl\drivers\peripheral\scb/cy_scb_common.h **** * The value returned may have multiple bits set to indicate the current status.
1428:Generated_Source\PSoC6\pdl\drivers\peripheral\scb/cy_scb_common.h **** * See \ref group_scb_common_macros_slave_intr for the set of constants.
1429:Generated_Source\PSoC6\pdl\drivers\peripheral\scb/cy_scb_common.h **** *
1430:Generated_Source\PSoC6\pdl\drivers\peripheral\scb/cy_scb_common.h **** *******************************************************************************/
1431:Generated_Source\PSoC6\pdl\drivers\peripheral\scb/cy_scb_common.h **** __STATIC_INLINE uint32_t Cy_SCB_GetI2CInterruptStatus(CySCB_Type const *base)
1432:Generated_Source\PSoC6\pdl\drivers\peripheral\scb/cy_scb_common.h **** {
1433:Generated_Source\PSoC6\pdl\drivers\peripheral\scb/cy_scb_common.h ****     return (base->INTR_I2C_EC & CY_SCB_I2C_INTR_MASK);
1434:Generated_Source\PSoC6\pdl\drivers\peripheral\scb/cy_scb_common.h **** }
1435:Generated_Source\PSoC6\pdl\drivers\peripheral\scb/cy_scb_common.h **** 
1436:Generated_Source\PSoC6\pdl\drivers\peripheral\scb/cy_scb_common.h **** 
1437:Generated_Source\PSoC6\pdl\drivers\peripheral\scb/cy_scb_common.h **** /*******************************************************************************
1438:Generated_Source\PSoC6\pdl\drivers\peripheral\scb/cy_scb_common.h **** * Function Name: Cy_SCB_SetI2CInterruptMask
1439:Generated_Source\PSoC6\pdl\drivers\peripheral\scb/cy_scb_common.h **** ****************************************************************************//**
1440:Generated_Source\PSoC6\pdl\drivers\peripheral\scb/cy_scb_common.h **** *
1441:Generated_Source\PSoC6\pdl\drivers\peripheral\scb/cy_scb_common.h **** * Writes the I2C interrupt mask register. This register specifies which bits
1442:Generated_Source\PSoC6\pdl\drivers\peripheral\scb/cy_scb_common.h **** * from the I2C interrupt request register can trigger an interrupt event.
1443:Generated_Source\PSoC6\pdl\drivers\peripheral\scb/cy_scb_common.h **** *
1444:Generated_Source\PSoC6\pdl\drivers\peripheral\scb/cy_scb_common.h **** * \param base
ARM GAS  C:\Users\salaz\AppData\Local\Temp\ccynHHO7.s 			page 45


1445:Generated_Source\PSoC6\pdl\drivers\peripheral\scb/cy_scb_common.h **** * The pointer to the SCB instance.
1446:Generated_Source\PSoC6\pdl\drivers\peripheral\scb/cy_scb_common.h **** *
1447:Generated_Source\PSoC6\pdl\drivers\peripheral\scb/cy_scb_common.h **** * \param interruptMask
1448:Generated_Source\PSoC6\pdl\drivers\peripheral\scb/cy_scb_common.h **** * Enabled I2C interrupt sources.
1449:Generated_Source\PSoC6\pdl\drivers\peripheral\scb/cy_scb_common.h **** * See \ref group_scb_common_macros_i2c_intr for the set of constants.
1450:Generated_Source\PSoC6\pdl\drivers\peripheral\scb/cy_scb_common.h **** *
1451:Generated_Source\PSoC6\pdl\drivers\peripheral\scb/cy_scb_common.h **** *******************************************************************************/
1452:Generated_Source\PSoC6\pdl\drivers\peripheral\scb/cy_scb_common.h **** __STATIC_INLINE void Cy_SCB_SetI2CInterruptMask(CySCB_Type *base, uint32_t interruptMask)
1453:Generated_Source\PSoC6\pdl\drivers\peripheral\scb/cy_scb_common.h **** {
1454:Generated_Source\PSoC6\pdl\drivers\peripheral\scb/cy_scb_common.h ****     CY_ASSERT_L2(CY_SCB_IS_INTR_VALID(interruptMask, CY_SCB_I2C_INTR_MASK));
1455:Generated_Source\PSoC6\pdl\drivers\peripheral\scb/cy_scb_common.h **** 
1456:Generated_Source\PSoC6\pdl\drivers\peripheral\scb/cy_scb_common.h ****     base->INTR_I2C_EC_MASK = interruptMask;
1457:Generated_Source\PSoC6\pdl\drivers\peripheral\scb/cy_scb_common.h **** }
1458:Generated_Source\PSoC6\pdl\drivers\peripheral\scb/cy_scb_common.h **** 
1459:Generated_Source\PSoC6\pdl\drivers\peripheral\scb/cy_scb_common.h **** 
1460:Generated_Source\PSoC6\pdl\drivers\peripheral\scb/cy_scb_common.h **** /*******************************************************************************
1461:Generated_Source\PSoC6\pdl\drivers\peripheral\scb/cy_scb_common.h **** * Function Name: Cy_SCB_GetI2CInterruptMask
1462:Generated_Source\PSoC6\pdl\drivers\peripheral\scb/cy_scb_common.h **** ****************************************************************************//**
1463:Generated_Source\PSoC6\pdl\drivers\peripheral\scb/cy_scb_common.h **** *
1464:Generated_Source\PSoC6\pdl\drivers\peripheral\scb/cy_scb_common.h **** * Returns the I2C interrupt mask register. This register specifies which bits
1465:Generated_Source\PSoC6\pdl\drivers\peripheral\scb/cy_scb_common.h **** * from the I2C interrupt request register can trigger an interrupt event.
1466:Generated_Source\PSoC6\pdl\drivers\peripheral\scb/cy_scb_common.h **** *
1467:Generated_Source\PSoC6\pdl\drivers\peripheral\scb/cy_scb_common.h **** * \param base
1468:Generated_Source\PSoC6\pdl\drivers\peripheral\scb/cy_scb_common.h **** * The pointer to the SCB instance.
1469:Generated_Source\PSoC6\pdl\drivers\peripheral\scb/cy_scb_common.h **** *
1470:Generated_Source\PSoC6\pdl\drivers\peripheral\scb/cy_scb_common.h **** * \return
1471:Generated_Source\PSoC6\pdl\drivers\peripheral\scb/cy_scb_common.h **** * Enabled I2C interrupt sources.
1472:Generated_Source\PSoC6\pdl\drivers\peripheral\scb/cy_scb_common.h **** * See \ref group_scb_common_macros_i2c_intr.
1473:Generated_Source\PSoC6\pdl\drivers\peripheral\scb/cy_scb_common.h **** *
1474:Generated_Source\PSoC6\pdl\drivers\peripheral\scb/cy_scb_common.h **** *******************************************************************************/
1475:Generated_Source\PSoC6\pdl\drivers\peripheral\scb/cy_scb_common.h **** __STATIC_INLINE uint32_t Cy_SCB_GetI2CInterruptMask(CySCB_Type const *base)
1476:Generated_Source\PSoC6\pdl\drivers\peripheral\scb/cy_scb_common.h **** {
1477:Generated_Source\PSoC6\pdl\drivers\peripheral\scb/cy_scb_common.h ****     return (base->INTR_I2C_EC_MASK);
1478:Generated_Source\PSoC6\pdl\drivers\peripheral\scb/cy_scb_common.h **** }
1479:Generated_Source\PSoC6\pdl\drivers\peripheral\scb/cy_scb_common.h **** 
1480:Generated_Source\PSoC6\pdl\drivers\peripheral\scb/cy_scb_common.h **** 
1481:Generated_Source\PSoC6\pdl\drivers\peripheral\scb/cy_scb_common.h **** /*******************************************************************************
1482:Generated_Source\PSoC6\pdl\drivers\peripheral\scb/cy_scb_common.h **** * Function Name: Cy_SCB_GetI2CInterruptStatusMasked
1483:Generated_Source\PSoC6\pdl\drivers\peripheral\scb/cy_scb_common.h **** ****************************************************************************//**
1484:Generated_Source\PSoC6\pdl\drivers\peripheral\scb/cy_scb_common.h **** *
1485:Generated_Source\PSoC6\pdl\drivers\peripheral\scb/cy_scb_common.h **** * Returns the I2C interrupt masked request register. This register contains
1486:Generated_Source\PSoC6\pdl\drivers\peripheral\scb/cy_scb_common.h **** * a logical AND of corresponding bits from I2C interrupt request and mask
1487:Generated_Source\PSoC6\pdl\drivers\peripheral\scb/cy_scb_common.h **** * registers.
1488:Generated_Source\PSoC6\pdl\drivers\peripheral\scb/cy_scb_common.h **** * This function is intended to be used in the interrupt service routine to
1489:Generated_Source\PSoC6\pdl\drivers\peripheral\scb/cy_scb_common.h **** * identify which of enabled I2C interrupt sources caused the interrupt event.
1490:Generated_Source\PSoC6\pdl\drivers\peripheral\scb/cy_scb_common.h **** *
1491:Generated_Source\PSoC6\pdl\drivers\peripheral\scb/cy_scb_common.h **** * \param base
1492:Generated_Source\PSoC6\pdl\drivers\peripheral\scb/cy_scb_common.h **** * The pointer to the SCB instance.
1493:Generated_Source\PSoC6\pdl\drivers\peripheral\scb/cy_scb_common.h **** *
1494:Generated_Source\PSoC6\pdl\drivers\peripheral\scb/cy_scb_common.h **** * \return
1495:Generated_Source\PSoC6\pdl\drivers\peripheral\scb/cy_scb_common.h **** * The current status of enabled I2C interrupt sources.
1496:Generated_Source\PSoC6\pdl\drivers\peripheral\scb/cy_scb_common.h **** * See \ref group_scb_common_macros_i2c_intr for the set of constants.
1497:Generated_Source\PSoC6\pdl\drivers\peripheral\scb/cy_scb_common.h **** *
1498:Generated_Source\PSoC6\pdl\drivers\peripheral\scb/cy_scb_common.h **** *******************************************************************************/
1499:Generated_Source\PSoC6\pdl\drivers\peripheral\scb/cy_scb_common.h **** __STATIC_INLINE uint32_t Cy_SCB_GetI2CInterruptStatusMasked(CySCB_Type const *base)
1500:Generated_Source\PSoC6\pdl\drivers\peripheral\scb/cy_scb_common.h **** {
1501:Generated_Source\PSoC6\pdl\drivers\peripheral\scb/cy_scb_common.h ****     return (base->INTR_I2C_EC_MASKED);
ARM GAS  C:\Users\salaz\AppData\Local\Temp\ccynHHO7.s 			page 46


1502:Generated_Source\PSoC6\pdl\drivers\peripheral\scb/cy_scb_common.h **** }
1503:Generated_Source\PSoC6\pdl\drivers\peripheral\scb/cy_scb_common.h **** 
1504:Generated_Source\PSoC6\pdl\drivers\peripheral\scb/cy_scb_common.h **** 
1505:Generated_Source\PSoC6\pdl\drivers\peripheral\scb/cy_scb_common.h **** /*******************************************************************************
1506:Generated_Source\PSoC6\pdl\drivers\peripheral\scb/cy_scb_common.h **** * Function Name: Cy_SCB_ClearI2CInterrupt
1507:Generated_Source\PSoC6\pdl\drivers\peripheral\scb/cy_scb_common.h **** ****************************************************************************//**
1508:Generated_Source\PSoC6\pdl\drivers\peripheral\scb/cy_scb_common.h **** *
1509:Generated_Source\PSoC6\pdl\drivers\peripheral\scb/cy_scb_common.h **** * Clears I2C interrupt sources in the interrupt request register.
1510:Generated_Source\PSoC6\pdl\drivers\peripheral\scb/cy_scb_common.h **** *
1511:Generated_Source\PSoC6\pdl\drivers\peripheral\scb/cy_scb_common.h **** * \param base
1512:Generated_Source\PSoC6\pdl\drivers\peripheral\scb/cy_scb_common.h **** * The pointer to the SCB instance.
1513:Generated_Source\PSoC6\pdl\drivers\peripheral\scb/cy_scb_common.h **** *
1514:Generated_Source\PSoC6\pdl\drivers\peripheral\scb/cy_scb_common.h **** * \param interruptMask
1515:Generated_Source\PSoC6\pdl\drivers\peripheral\scb/cy_scb_common.h **** * The I2C interrupt sources to be cleared.
1516:Generated_Source\PSoC6\pdl\drivers\peripheral\scb/cy_scb_common.h **** * See \ref group_scb_common_macros_i2c_intr for the set of constants.
1517:Generated_Source\PSoC6\pdl\drivers\peripheral\scb/cy_scb_common.h **** *
1518:Generated_Source\PSoC6\pdl\drivers\peripheral\scb/cy_scb_common.h **** *******************************************************************************/
1519:Generated_Source\PSoC6\pdl\drivers\peripheral\scb/cy_scb_common.h **** __STATIC_INLINE void Cy_SCB_ClearI2CInterrupt(CySCB_Type *base, uint32_t interruptMask)
1520:Generated_Source\PSoC6\pdl\drivers\peripheral\scb/cy_scb_common.h **** {
1521:Generated_Source\PSoC6\pdl\drivers\peripheral\scb/cy_scb_common.h ****     CY_ASSERT_L2(CY_SCB_IS_INTR_VALID(interruptMask, CY_SCB_I2C_INTR_MASK));
1522:Generated_Source\PSoC6\pdl\drivers\peripheral\scb/cy_scb_common.h **** 
1523:Generated_Source\PSoC6\pdl\drivers\peripheral\scb/cy_scb_common.h ****     base->INTR_I2C_EC = interruptMask;
1524:Generated_Source\PSoC6\pdl\drivers\peripheral\scb/cy_scb_common.h ****     (void) base->INTR_I2C_EC;
1525:Generated_Source\PSoC6\pdl\drivers\peripheral\scb/cy_scb_common.h **** }
1526:Generated_Source\PSoC6\pdl\drivers\peripheral\scb/cy_scb_common.h **** 
1527:Generated_Source\PSoC6\pdl\drivers\peripheral\scb/cy_scb_common.h **** 
1528:Generated_Source\PSoC6\pdl\drivers\peripheral\scb/cy_scb_common.h **** /*******************************************************************************
1529:Generated_Source\PSoC6\pdl\drivers\peripheral\scb/cy_scb_common.h **** * Function Name: Cy_SCB_GetSpiInterruptStatus
1530:Generated_Source\PSoC6\pdl\drivers\peripheral\scb/cy_scb_common.h **** ****************************************************************************//**
1531:Generated_Source\PSoC6\pdl\drivers\peripheral\scb/cy_scb_common.h **** *
1532:Generated_Source\PSoC6\pdl\drivers\peripheral\scb/cy_scb_common.h **** * Returns the SPI interrupt request register. This register contains the current
1533:Generated_Source\PSoC6\pdl\drivers\peripheral\scb/cy_scb_common.h **** * status of the SPI interrupt sources.
1534:Generated_Source\PSoC6\pdl\drivers\peripheral\scb/cy_scb_common.h **** *
1535:Generated_Source\PSoC6\pdl\drivers\peripheral\scb/cy_scb_common.h **** * \param base
1536:Generated_Source\PSoC6\pdl\drivers\peripheral\scb/cy_scb_common.h **** * The pointer to the SCB instance.
1537:Generated_Source\PSoC6\pdl\drivers\peripheral\scb/cy_scb_common.h **** *
1538:Generated_Source\PSoC6\pdl\drivers\peripheral\scb/cy_scb_common.h **** * \return
1539:Generated_Source\PSoC6\pdl\drivers\peripheral\scb/cy_scb_common.h **** * The current status of SPI interrupt sources. Each constant is a bit field value.
1540:Generated_Source\PSoC6\pdl\drivers\peripheral\scb/cy_scb_common.h **** * The value returned may have multiple bits set to indicate the current status
1541:Generated_Source\PSoC6\pdl\drivers\peripheral\scb/cy_scb_common.h **** * See \ref group_scb_common_macros_SpiIntrStatuses for the set of constants.
1542:Generated_Source\PSoC6\pdl\drivers\peripheral\scb/cy_scb_common.h **** *
1543:Generated_Source\PSoC6\pdl\drivers\peripheral\scb/cy_scb_common.h **** *******************************************************************************/
1544:Generated_Source\PSoC6\pdl\drivers\peripheral\scb/cy_scb_common.h **** __STATIC_INLINE uint32_t Cy_SCB_GetSpiInterruptStatus(CySCB_Type const *base)
1545:Generated_Source\PSoC6\pdl\drivers\peripheral\scb/cy_scb_common.h **** {
1546:Generated_Source\PSoC6\pdl\drivers\peripheral\scb/cy_scb_common.h ****     return (base->INTR_SPI_EC & CY_SCB_SPI_INTR_MASK);
1547:Generated_Source\PSoC6\pdl\drivers\peripheral\scb/cy_scb_common.h **** }
1548:Generated_Source\PSoC6\pdl\drivers\peripheral\scb/cy_scb_common.h **** 
1549:Generated_Source\PSoC6\pdl\drivers\peripheral\scb/cy_scb_common.h **** 
1550:Generated_Source\PSoC6\pdl\drivers\peripheral\scb/cy_scb_common.h **** /*******************************************************************************
1551:Generated_Source\PSoC6\pdl\drivers\peripheral\scb/cy_scb_common.h **** * Function Name: Cy_SCB_SetSpiInterruptMask
1552:Generated_Source\PSoC6\pdl\drivers\peripheral\scb/cy_scb_common.h **** ****************************************************************************//**
1553:Generated_Source\PSoC6\pdl\drivers\peripheral\scb/cy_scb_common.h **** *
1554:Generated_Source\PSoC6\pdl\drivers\peripheral\scb/cy_scb_common.h **** * Writes the SPI interrupt mask register. This register specifies which
1555:Generated_Source\PSoC6\pdl\drivers\peripheral\scb/cy_scb_common.h **** * bits from the SPI interrupt request register can trigger an interrupt event.
1556:Generated_Source\PSoC6\pdl\drivers\peripheral\scb/cy_scb_common.h **** *
1557:Generated_Source\PSoC6\pdl\drivers\peripheral\scb/cy_scb_common.h **** * \param base
1558:Generated_Source\PSoC6\pdl\drivers\peripheral\scb/cy_scb_common.h **** * The pointer to the SCB instance.
ARM GAS  C:\Users\salaz\AppData\Local\Temp\ccynHHO7.s 			page 47


1559:Generated_Source\PSoC6\pdl\drivers\peripheral\scb/cy_scb_common.h **** *
1560:Generated_Source\PSoC6\pdl\drivers\peripheral\scb/cy_scb_common.h **** * \param interruptMask
1561:Generated_Source\PSoC6\pdl\drivers\peripheral\scb/cy_scb_common.h **** * Enabled SPI interrupt sources.
1562:Generated_Source\PSoC6\pdl\drivers\peripheral\scb/cy_scb_common.h **** * See \ref group_scb_common_macros_SpiIntrStatuses for the set of constants.
1563:Generated_Source\PSoC6\pdl\drivers\peripheral\scb/cy_scb_common.h **** *
1564:Generated_Source\PSoC6\pdl\drivers\peripheral\scb/cy_scb_common.h **** *******************************************************************************/
1565:Generated_Source\PSoC6\pdl\drivers\peripheral\scb/cy_scb_common.h **** __STATIC_INLINE void Cy_SCB_SetSpiInterruptMask(CySCB_Type *base, uint32_t interruptMask)
1566:Generated_Source\PSoC6\pdl\drivers\peripheral\scb/cy_scb_common.h **** {
 1057              		.loc 1 1566 0
 1058              		.cfi_startproc
 1059              		@ args = 0, pretend = 0, frame = 8
 1060              		@ frame_needed = 1, uses_anonymous_args = 0
 1061 0000 80B5     		push	{r7, lr}
 1062              		.cfi_def_cfa_offset 8
 1063              		.cfi_offset 7, -8
 1064              		.cfi_offset 14, -4
 1065 0002 82B0     		sub	sp, sp, #8
 1066              		.cfi_def_cfa_offset 16
 1067 0004 00AF     		add	r7, sp, #0
 1068              		.cfi_def_cfa_register 7
 1069 0006 7860     		str	r0, [r7, #4]
 1070 0008 3960     		str	r1, [r7]
1567:Generated_Source\PSoC6\pdl\drivers\peripheral\scb/cy_scb_common.h ****     CY_ASSERT_L2(CY_SCB_IS_INTR_VALID(interruptMask, CY_SCB_SPI_INTR_MASK));
 1071              		.loc 1 1567 0
 1072 000a 3B68     		ldr	r3, [r7]
 1073 000c 0122     		movs	r2, #1
 1074 000e 9343     		bics	r3, r2
 1075 0010 05D0     		beq	.L74
 1076              		.loc 1 1567 0 is_stmt 0 discriminator 1
 1077 0012 074A     		ldr	r2, .L75
 1078 0014 074B     		ldr	r3, .L75+4
 1079 0016 1100     		movs	r1, r2
 1080 0018 1800     		movs	r0, r3
 1081 001a FFF7FEFF 		bl	Cy_SysLib_AssertFailed
 1082              	.L74:
1568:Generated_Source\PSoC6\pdl\drivers\peripheral\scb/cy_scb_common.h **** 
1569:Generated_Source\PSoC6\pdl\drivers\peripheral\scb/cy_scb_common.h ****     base->INTR_SPI_EC_MASK = interruptMask;
 1083              		.loc 1 1569 0 is_stmt 1
 1084 001e 7B68     		ldr	r3, [r7, #4]
 1085 0020 0549     		ldr	r1, .L75+8
 1086 0022 3A68     		ldr	r2, [r7]
 1087 0024 5A50     		str	r2, [r3, r1]
1570:Generated_Source\PSoC6\pdl\drivers\peripheral\scb/cy_scb_common.h **** }
 1088              		.loc 1 1570 0
 1089 0026 C046     		nop
 1090 0028 BD46     		mov	sp, r7
 1091 002a 02B0     		add	sp, sp, #8
 1092              		@ sp needed
 1093 002c 80BD     		pop	{r7, pc}
 1094              	.L76:
 1095 002e C046     		.align	2
 1096              	.L75:
 1097 0030 1F060000 		.word	1567
 1098 0034 00000000 		.word	.LC0
 1099 0038 C80E0000 		.word	3784
 1100              		.cfi_endproc
 1101              	.LFE112:
ARM GAS  C:\Users\salaz\AppData\Local\Temp\ccynHHO7.s 			page 48


 1102              		.size	Cy_SCB_SetSpiInterruptMask, .-Cy_SCB_SetSpiInterruptMask
 1103              		.section	.text.Cy_SCB_GetSpiInterruptStatusMasked,"ax",%progbits
 1104              		.align	2
 1105              		.code	16
 1106              		.thumb_func
 1107              		.type	Cy_SCB_GetSpiInterruptStatusMasked, %function
 1108              	Cy_SCB_GetSpiInterruptStatusMasked:
 1109              	.LFB114:
1571:Generated_Source\PSoC6\pdl\drivers\peripheral\scb/cy_scb_common.h **** 
1572:Generated_Source\PSoC6\pdl\drivers\peripheral\scb/cy_scb_common.h **** 
1573:Generated_Source\PSoC6\pdl\drivers\peripheral\scb/cy_scb_common.h **** /*******************************************************************************
1574:Generated_Source\PSoC6\pdl\drivers\peripheral\scb/cy_scb_common.h **** * Function Name: Cy_SCB_GetSpiInterruptMask
1575:Generated_Source\PSoC6\pdl\drivers\peripheral\scb/cy_scb_common.h **** ****************************************************************************//**
1576:Generated_Source\PSoC6\pdl\drivers\peripheral\scb/cy_scb_common.h **** *
1577:Generated_Source\PSoC6\pdl\drivers\peripheral\scb/cy_scb_common.h **** * Returns the SPI interrupt mask register. This register specifies which bits
1578:Generated_Source\PSoC6\pdl\drivers\peripheral\scb/cy_scb_common.h **** * from the SPI interrupt request register can trigger an interrupt event.
1579:Generated_Source\PSoC6\pdl\drivers\peripheral\scb/cy_scb_common.h **** *
1580:Generated_Source\PSoC6\pdl\drivers\peripheral\scb/cy_scb_common.h **** * \param base
1581:Generated_Source\PSoC6\pdl\drivers\peripheral\scb/cy_scb_common.h **** * The pointer to the SCB instance.
1582:Generated_Source\PSoC6\pdl\drivers\peripheral\scb/cy_scb_common.h **** *
1583:Generated_Source\PSoC6\pdl\drivers\peripheral\scb/cy_scb_common.h **** * \return
1584:Generated_Source\PSoC6\pdl\drivers\peripheral\scb/cy_scb_common.h **** * Enabled SPI interrupt sources.
1585:Generated_Source\PSoC6\pdl\drivers\peripheral\scb/cy_scb_common.h **** * See \ref group_scb_common_macros_SpiIntrStatuses for the set of constants.
1586:Generated_Source\PSoC6\pdl\drivers\peripheral\scb/cy_scb_common.h **** *
1587:Generated_Source\PSoC6\pdl\drivers\peripheral\scb/cy_scb_common.h **** *******************************************************************************/
1588:Generated_Source\PSoC6\pdl\drivers\peripheral\scb/cy_scb_common.h **** __STATIC_INLINE uint32_t Cy_SCB_GetSpiInterruptMask(CySCB_Type const *base)
1589:Generated_Source\PSoC6\pdl\drivers\peripheral\scb/cy_scb_common.h **** {
1590:Generated_Source\PSoC6\pdl\drivers\peripheral\scb/cy_scb_common.h ****     return (base->INTR_SPI_EC_MASK);
1591:Generated_Source\PSoC6\pdl\drivers\peripheral\scb/cy_scb_common.h **** }
1592:Generated_Source\PSoC6\pdl\drivers\peripheral\scb/cy_scb_common.h **** 
1593:Generated_Source\PSoC6\pdl\drivers\peripheral\scb/cy_scb_common.h **** 
1594:Generated_Source\PSoC6\pdl\drivers\peripheral\scb/cy_scb_common.h **** /*******************************************************************************
1595:Generated_Source\PSoC6\pdl\drivers\peripheral\scb/cy_scb_common.h **** * Function Name: Cy_SCB_GetSpiInterruptStatusMasked
1596:Generated_Source\PSoC6\pdl\drivers\peripheral\scb/cy_scb_common.h **** ****************************************************************************//**
1597:Generated_Source\PSoC6\pdl\drivers\peripheral\scb/cy_scb_common.h **** *
1598:Generated_Source\PSoC6\pdl\drivers\peripheral\scb/cy_scb_common.h **** * Returns the SPI interrupt masked request register. This register contains
1599:Generated_Source\PSoC6\pdl\drivers\peripheral\scb/cy_scb_common.h **** * a logical AND of corresponding bits from the SPI interrupt request and
1600:Generated_Source\PSoC6\pdl\drivers\peripheral\scb/cy_scb_common.h **** * mask registers.
1601:Generated_Source\PSoC6\pdl\drivers\peripheral\scb/cy_scb_common.h **** * This function is intended to be used in the interrupt service routine to
1602:Generated_Source\PSoC6\pdl\drivers\peripheral\scb/cy_scb_common.h **** * identify which of enabled SPI interrupt sources caused the interrupt event.
1603:Generated_Source\PSoC6\pdl\drivers\peripheral\scb/cy_scb_common.h **** *
1604:Generated_Source\PSoC6\pdl\drivers\peripheral\scb/cy_scb_common.h **** * \param base
1605:Generated_Source\PSoC6\pdl\drivers\peripheral\scb/cy_scb_common.h **** * The pointer to the SCB instance.
1606:Generated_Source\PSoC6\pdl\drivers\peripheral\scb/cy_scb_common.h **** *
1607:Generated_Source\PSoC6\pdl\drivers\peripheral\scb/cy_scb_common.h **** * \return
1608:Generated_Source\PSoC6\pdl\drivers\peripheral\scb/cy_scb_common.h **** * The current status of enabled SPI interrupt sources.
1609:Generated_Source\PSoC6\pdl\drivers\peripheral\scb/cy_scb_common.h **** * See \ref group_scb_common_macros_SpiIntrStatuses for the set of constants.
1610:Generated_Source\PSoC6\pdl\drivers\peripheral\scb/cy_scb_common.h **** *
1611:Generated_Source\PSoC6\pdl\drivers\peripheral\scb/cy_scb_common.h **** *******************************************************************************/
1612:Generated_Source\PSoC6\pdl\drivers\peripheral\scb/cy_scb_common.h **** __STATIC_INLINE uint32_t Cy_SCB_GetSpiInterruptStatusMasked(CySCB_Type const *base)
1613:Generated_Source\PSoC6\pdl\drivers\peripheral\scb/cy_scb_common.h **** {
 1110              		.loc 1 1613 0
 1111              		.cfi_startproc
 1112              		@ args = 0, pretend = 0, frame = 8
 1113              		@ frame_needed = 1, uses_anonymous_args = 0
 1114 0000 80B5     		push	{r7, lr}
 1115              		.cfi_def_cfa_offset 8
ARM GAS  C:\Users\salaz\AppData\Local\Temp\ccynHHO7.s 			page 49


 1116              		.cfi_offset 7, -8
 1117              		.cfi_offset 14, -4
 1118 0002 82B0     		sub	sp, sp, #8
 1119              		.cfi_def_cfa_offset 16
 1120 0004 00AF     		add	r7, sp, #0
 1121              		.cfi_def_cfa_register 7
 1122 0006 7860     		str	r0, [r7, #4]
1614:Generated_Source\PSoC6\pdl\drivers\peripheral\scb/cy_scb_common.h ****     return (base->INTR_SPI_EC_MASKED);
 1123              		.loc 1 1614 0
 1124 0008 7B68     		ldr	r3, [r7, #4]
 1125 000a 034A     		ldr	r2, .L79
 1126 000c 9B58     		ldr	r3, [r3, r2]
1615:Generated_Source\PSoC6\pdl\drivers\peripheral\scb/cy_scb_common.h **** }
 1127              		.loc 1 1615 0
 1128 000e 1800     		movs	r0, r3
 1129 0010 BD46     		mov	sp, r7
 1130 0012 02B0     		add	sp, sp, #8
 1131              		@ sp needed
 1132 0014 80BD     		pop	{r7, pc}
 1133              	.L80:
 1134 0016 C046     		.align	2
 1135              	.L79:
 1136 0018 CC0E0000 		.word	3788
 1137              		.cfi_endproc
 1138              	.LFE114:
 1139              		.size	Cy_SCB_GetSpiInterruptStatusMasked, .-Cy_SCB_GetSpiInterruptStatusMasked
 1140              		.section	.text.Cy_SCB_ClearSpiInterrupt,"ax",%progbits
 1141              		.align	2
 1142              		.code	16
 1143              		.thumb_func
 1144              		.type	Cy_SCB_ClearSpiInterrupt, %function
 1145              	Cy_SCB_ClearSpiInterrupt:
 1146              	.LFB115:
1616:Generated_Source\PSoC6\pdl\drivers\peripheral\scb/cy_scb_common.h **** 
1617:Generated_Source\PSoC6\pdl\drivers\peripheral\scb/cy_scb_common.h **** 
1618:Generated_Source\PSoC6\pdl\drivers\peripheral\scb/cy_scb_common.h **** /*******************************************************************************
1619:Generated_Source\PSoC6\pdl\drivers\peripheral\scb/cy_scb_common.h **** * Function Name: Cy_SCB_ClearSpiInterrupt
1620:Generated_Source\PSoC6\pdl\drivers\peripheral\scb/cy_scb_common.h **** ****************************************************************************//**
1621:Generated_Source\PSoC6\pdl\drivers\peripheral\scb/cy_scb_common.h **** *
1622:Generated_Source\PSoC6\pdl\drivers\peripheral\scb/cy_scb_common.h **** * Clears SPI interrupt sources in the interrupt request register.
1623:Generated_Source\PSoC6\pdl\drivers\peripheral\scb/cy_scb_common.h **** *
1624:Generated_Source\PSoC6\pdl\drivers\peripheral\scb/cy_scb_common.h **** * \param base
1625:Generated_Source\PSoC6\pdl\drivers\peripheral\scb/cy_scb_common.h **** * The pointer to the SCB instance.
1626:Generated_Source\PSoC6\pdl\drivers\peripheral\scb/cy_scb_common.h **** *
1627:Generated_Source\PSoC6\pdl\drivers\peripheral\scb/cy_scb_common.h **** * \param interruptMask
1628:Generated_Source\PSoC6\pdl\drivers\peripheral\scb/cy_scb_common.h **** * The SPI interrupt sources to be cleared.
1629:Generated_Source\PSoC6\pdl\drivers\peripheral\scb/cy_scb_common.h **** * See \ref group_scb_common_macros_SpiIntrStatuses for the set of constants.
1630:Generated_Source\PSoC6\pdl\drivers\peripheral\scb/cy_scb_common.h **** *
1631:Generated_Source\PSoC6\pdl\drivers\peripheral\scb/cy_scb_common.h **** *******************************************************************************/
1632:Generated_Source\PSoC6\pdl\drivers\peripheral\scb/cy_scb_common.h **** __STATIC_INLINE void Cy_SCB_ClearSpiInterrupt(CySCB_Type *base, uint32_t interruptMask)
1633:Generated_Source\PSoC6\pdl\drivers\peripheral\scb/cy_scb_common.h **** {
 1147              		.loc 1 1633 0
 1148              		.cfi_startproc
 1149              		@ args = 0, pretend = 0, frame = 8
 1150              		@ frame_needed = 1, uses_anonymous_args = 0
 1151 0000 80B5     		push	{r7, lr}
 1152              		.cfi_def_cfa_offset 8
ARM GAS  C:\Users\salaz\AppData\Local\Temp\ccynHHO7.s 			page 50


 1153              		.cfi_offset 7, -8
 1154              		.cfi_offset 14, -4
 1155 0002 82B0     		sub	sp, sp, #8
 1156              		.cfi_def_cfa_offset 16
 1157 0004 00AF     		add	r7, sp, #0
 1158              		.cfi_def_cfa_register 7
 1159 0006 7860     		str	r0, [r7, #4]
 1160 0008 3960     		str	r1, [r7]
1634:Generated_Source\PSoC6\pdl\drivers\peripheral\scb/cy_scb_common.h ****     CY_ASSERT_L2(CY_SCB_IS_INTR_VALID(interruptMask, CY_SCB_SPI_INTR_MASK));
 1161              		.loc 1 1634 0
 1162 000a 3B68     		ldr	r3, [r7]
 1163 000c 0122     		movs	r2, #1
 1164 000e 9343     		bics	r3, r2
 1165 0010 05D0     		beq	.L82
 1166              		.loc 1 1634 0 is_stmt 0 discriminator 1
 1167 0012 094A     		ldr	r2, .L83
 1168 0014 094B     		ldr	r3, .L83+4
 1169 0016 1100     		movs	r1, r2
 1170 0018 1800     		movs	r0, r3
 1171 001a FFF7FEFF 		bl	Cy_SysLib_AssertFailed
 1172              	.L82:
1635:Generated_Source\PSoC6\pdl\drivers\peripheral\scb/cy_scb_common.h **** 
1636:Generated_Source\PSoC6\pdl\drivers\peripheral\scb/cy_scb_common.h ****     base->INTR_SPI_EC = interruptMask;
 1173              		.loc 1 1636 0 is_stmt 1
 1174 001e 7A68     		ldr	r2, [r7, #4]
 1175 0020 EC23     		movs	r3, #236
 1176 0022 1B01     		lsls	r3, r3, #4
 1177 0024 3968     		ldr	r1, [r7]
 1178 0026 D150     		str	r1, [r2, r3]
1637:Generated_Source\PSoC6\pdl\drivers\peripheral\scb/cy_scb_common.h ****     (void) base->INTR_SPI_EC;
 1179              		.loc 1 1637 0
 1180 0028 7A68     		ldr	r2, [r7, #4]
 1181 002a EC23     		movs	r3, #236
 1182 002c 1B01     		lsls	r3, r3, #4
 1183 002e D358     		ldr	r3, [r2, r3]
1638:Generated_Source\PSoC6\pdl\drivers\peripheral\scb/cy_scb_common.h **** }
 1184              		.loc 1 1638 0
 1185 0030 C046     		nop
 1186 0032 BD46     		mov	sp, r7
 1187 0034 02B0     		add	sp, sp, #8
 1188              		@ sp needed
 1189 0036 80BD     		pop	{r7, pc}
 1190              	.L84:
 1191              		.align	2
 1192              	.L83:
 1193 0038 62060000 		.word	1634
 1194 003c 00000000 		.word	.LC0
 1195              		.cfi_endproc
 1196              	.LFE115:
 1197              		.size	Cy_SCB_ClearSpiInterrupt, .-Cy_SCB_ClearSpiInterrupt
 1198              		.section	.text.Cy_SCB_GetFifoSize,"ax",%progbits
 1199              		.align	2
 1200              		.code	16
 1201              		.thumb_func
 1202              		.type	Cy_SCB_GetFifoSize, %function
 1203              	Cy_SCB_GetFifoSize:
 1204              	.LFB116:
ARM GAS  C:\Users\salaz\AppData\Local\Temp\ccynHHO7.s 			page 51


1639:Generated_Source\PSoC6\pdl\drivers\peripheral\scb/cy_scb_common.h **** 
1640:Generated_Source\PSoC6\pdl\drivers\peripheral\scb/cy_scb_common.h **** /** \cond INTERNAL */
1641:Generated_Source\PSoC6\pdl\drivers\peripheral\scb/cy_scb_common.h **** /*******************************************************************************
1642:Generated_Source\PSoC6\pdl\drivers\peripheral\scb/cy_scb_common.h **** * Function Name: Cy_SCB_GetFifoSize
1643:Generated_Source\PSoC6\pdl\drivers\peripheral\scb/cy_scb_common.h **** ****************************************************************************//**
1644:Generated_Source\PSoC6\pdl\drivers\peripheral\scb/cy_scb_common.h **** *
1645:Generated_Source\PSoC6\pdl\drivers\peripheral\scb/cy_scb_common.h **** * Returns the RX and TX FIFO depth.
1646:Generated_Source\PSoC6\pdl\drivers\peripheral\scb/cy_scb_common.h **** *
1647:Generated_Source\PSoC6\pdl\drivers\peripheral\scb/cy_scb_common.h **** * \param base
1648:Generated_Source\PSoC6\pdl\drivers\peripheral\scb/cy_scb_common.h **** * The pointer to the SCB instance.
1649:Generated_Source\PSoC6\pdl\drivers\peripheral\scb/cy_scb_common.h **** *
1650:Generated_Source\PSoC6\pdl\drivers\peripheral\scb/cy_scb_common.h **** * \return
1651:Generated_Source\PSoC6\pdl\drivers\peripheral\scb/cy_scb_common.h **** * FIFO depth.
1652:Generated_Source\PSoC6\pdl\drivers\peripheral\scb/cy_scb_common.h **** *
1653:Generated_Source\PSoC6\pdl\drivers\peripheral\scb/cy_scb_common.h **** *******************************************************************************/
1654:Generated_Source\PSoC6\pdl\drivers\peripheral\scb/cy_scb_common.h **** __STATIC_INLINE uint32_t Cy_SCB_GetFifoSize(CySCB_Type const *base)
1655:Generated_Source\PSoC6\pdl\drivers\peripheral\scb/cy_scb_common.h **** {
 1205              		.loc 1 1655 0
 1206              		.cfi_startproc
 1207              		@ args = 0, pretend = 0, frame = 8
 1208              		@ frame_needed = 1, uses_anonymous_args = 0
 1209 0000 80B5     		push	{r7, lr}
 1210              		.cfi_def_cfa_offset 8
 1211              		.cfi_offset 7, -8
 1212              		.cfi_offset 14, -4
 1213 0002 82B0     		sub	sp, sp, #8
 1214              		.cfi_def_cfa_offset 16
 1215 0004 00AF     		add	r7, sp, #0
 1216              		.cfi_def_cfa_register 7
 1217 0006 7860     		str	r0, [r7, #4]
1656:Generated_Source\PSoC6\pdl\drivers\peripheral\scb/cy_scb_common.h ****     return (_FLD2BOOL(SCB_CTRL_BYTE_MODE, base->CTRL) ?
 1218              		.loc 1 1656 0
 1219 0008 7B68     		ldr	r3, [r7, #4]
 1220 000a 1A68     		ldr	r2, [r3]
 1221 000c 8023     		movs	r3, #128
 1222 000e 1B01     		lsls	r3, r3, #4
 1223 0010 1340     		ands	r3, r2
1657:Generated_Source\PSoC6\pdl\drivers\peripheral\scb/cy_scb_common.h ****                 (CY_SCB_FIFO_SIZE(base)) : (CY_SCB_FIFO_SIZE(base) / 2UL));
 1224              		.loc 1 1657 0
 1225 0012 01D0     		beq	.L86
 1226              		.loc 1 1657 0 is_stmt 0 discriminator 1
 1227 0014 8023     		movs	r3, #128
1656:Generated_Source\PSoC6\pdl\drivers\peripheral\scb/cy_scb_common.h ****     return (_FLD2BOOL(SCB_CTRL_BYTE_MODE, base->CTRL) ?
 1228              		.loc 1 1656 0 is_stmt 1 discriminator 1
 1229 0016 00E0     		b	.L88
 1230              	.L86:
 1231              		.loc 1 1657 0 discriminator 2
 1232 0018 4023     		movs	r3, #64
 1233              	.L88:
1658:Generated_Source\PSoC6\pdl\drivers\peripheral\scb/cy_scb_common.h **** }
 1234              		.loc 1 1658 0 discriminator 1
 1235 001a 1800     		movs	r0, r3
 1236 001c BD46     		mov	sp, r7
 1237 001e 02B0     		add	sp, sp, #8
 1238              		@ sp needed
 1239 0020 80BD     		pop	{r7, pc}
 1240              		.cfi_endproc
ARM GAS  C:\Users\salaz\AppData\Local\Temp\ccynHHO7.s 			page 52


 1241              	.LFE116:
 1242              		.size	Cy_SCB_GetFifoSize, .-Cy_SCB_GetFifoSize
 1243 0022 C046     		.section	.text.Cy_SCB_IsRxDataWidthByte,"ax",%progbits
 1244              		.align	2
 1245              		.code	16
 1246              		.thumb_func
 1247              		.type	Cy_SCB_IsRxDataWidthByte, %function
 1248              	Cy_SCB_IsRxDataWidthByte:
 1249              	.LFB117:
1659:Generated_Source\PSoC6\pdl\drivers\peripheral\scb/cy_scb_common.h **** 
1660:Generated_Source\PSoC6\pdl\drivers\peripheral\scb/cy_scb_common.h **** 
1661:Generated_Source\PSoC6\pdl\drivers\peripheral\scb/cy_scb_common.h **** /*******************************************************************************
1662:Generated_Source\PSoC6\pdl\drivers\peripheral\scb/cy_scb_common.h **** * Function Name: Cy_SCB_IsRxDataWidthByte
1663:Generated_Source\PSoC6\pdl\drivers\peripheral\scb/cy_scb_common.h **** ****************************************************************************//**
1664:Generated_Source\PSoC6\pdl\drivers\peripheral\scb/cy_scb_common.h **** *
1665:Generated_Source\PSoC6\pdl\drivers\peripheral\scb/cy_scb_common.h **** * Returns true if the RX data width is a byte (8 bits).
1666:Generated_Source\PSoC6\pdl\drivers\peripheral\scb/cy_scb_common.h **** *
1667:Generated_Source\PSoC6\pdl\drivers\peripheral\scb/cy_scb_common.h **** * \param base
1668:Generated_Source\PSoC6\pdl\drivers\peripheral\scb/cy_scb_common.h **** * The pointer to the SCB instance.
1669:Generated_Source\PSoC6\pdl\drivers\peripheral\scb/cy_scb_common.h **** *
1670:Generated_Source\PSoC6\pdl\drivers\peripheral\scb/cy_scb_common.h **** * \return
1671:Generated_Source\PSoC6\pdl\drivers\peripheral\scb/cy_scb_common.h **** * True if the RX data width is a byte (8 bits).
1672:Generated_Source\PSoC6\pdl\drivers\peripheral\scb/cy_scb_common.h **** *
1673:Generated_Source\PSoC6\pdl\drivers\peripheral\scb/cy_scb_common.h **** *******************************************************************************/
1674:Generated_Source\PSoC6\pdl\drivers\peripheral\scb/cy_scb_common.h **** __STATIC_INLINE bool Cy_SCB_IsRxDataWidthByte(CySCB_Type const *base)
1675:Generated_Source\PSoC6\pdl\drivers\peripheral\scb/cy_scb_common.h **** {
 1250              		.loc 1 1675 0
 1251              		.cfi_startproc
 1252              		@ args = 0, pretend = 0, frame = 8
 1253              		@ frame_needed = 1, uses_anonymous_args = 0
 1254 0000 80B5     		push	{r7, lr}
 1255              		.cfi_def_cfa_offset 8
 1256              		.cfi_offset 7, -8
 1257              		.cfi_offset 14, -4
 1258 0002 82B0     		sub	sp, sp, #8
 1259              		.cfi_def_cfa_offset 16
 1260 0004 00AF     		add	r7, sp, #0
 1261              		.cfi_def_cfa_register 7
 1262 0006 7860     		str	r0, [r7, #4]
1676:Generated_Source\PSoC6\pdl\drivers\peripheral\scb/cy_scb_common.h ****     return (_FLD2VAL(SCB_RX_CTRL_DATA_WIDTH, base->RX_CTRL) < CY_SCB_BYTE_WIDTH);
 1263              		.loc 1 1676 0
 1264 0008 7A68     		ldr	r2, [r7, #4]
 1265 000a C023     		movs	r3, #192
 1266 000c 9B00     		lsls	r3, r3, #2
 1267 000e D358     		ldr	r3, [r2, r3]
 1268 0010 0F22     		movs	r2, #15
 1269 0012 1A40     		ands	r2, r3
 1270 0014 0721     		movs	r1, #7
 1271 0016 0023     		movs	r3, #0
 1272 0018 9142     		cmp	r1, r2
 1273 001a 5B41     		adcs	r3, r3, r3
 1274 001c DBB2     		uxtb	r3, r3
1677:Generated_Source\PSoC6\pdl\drivers\peripheral\scb/cy_scb_common.h **** }
 1275              		.loc 1 1677 0
 1276 001e 1800     		movs	r0, r3
 1277 0020 BD46     		mov	sp, r7
 1278 0022 02B0     		add	sp, sp, #8
ARM GAS  C:\Users\salaz\AppData\Local\Temp\ccynHHO7.s 			page 53


 1279              		@ sp needed
 1280 0024 80BD     		pop	{r7, pc}
 1281              		.cfi_endproc
 1282              	.LFE117:
 1283              		.size	Cy_SCB_IsRxDataWidthByte, .-Cy_SCB_IsRxDataWidthByte
 1284 0026 C046     		.section	.text.Cy_SCB_IsTxDataWidthByte,"ax",%progbits
 1285              		.align	2
 1286              		.code	16
 1287              		.thumb_func
 1288              		.type	Cy_SCB_IsTxDataWidthByte, %function
 1289              	Cy_SCB_IsTxDataWidthByte:
 1290              	.LFB118:
1678:Generated_Source\PSoC6\pdl\drivers\peripheral\scb/cy_scb_common.h **** 
1679:Generated_Source\PSoC6\pdl\drivers\peripheral\scb/cy_scb_common.h **** 
1680:Generated_Source\PSoC6\pdl\drivers\peripheral\scb/cy_scb_common.h **** /*******************************************************************************
1681:Generated_Source\PSoC6\pdl\drivers\peripheral\scb/cy_scb_common.h **** * Function Name: Cy_SCB_IsTxDataWidthByte
1682:Generated_Source\PSoC6\pdl\drivers\peripheral\scb/cy_scb_common.h **** ****************************************************************************//**
1683:Generated_Source\PSoC6\pdl\drivers\peripheral\scb/cy_scb_common.h **** *
1684:Generated_Source\PSoC6\pdl\drivers\peripheral\scb/cy_scb_common.h **** * Returns true if the TX data width is a byte (8 bits).
1685:Generated_Source\PSoC6\pdl\drivers\peripheral\scb/cy_scb_common.h **** *
1686:Generated_Source\PSoC6\pdl\drivers\peripheral\scb/cy_scb_common.h **** * \param base
1687:Generated_Source\PSoC6\pdl\drivers\peripheral\scb/cy_scb_common.h **** * The pointer to the SCB instance.
1688:Generated_Source\PSoC6\pdl\drivers\peripheral\scb/cy_scb_common.h **** *
1689:Generated_Source\PSoC6\pdl\drivers\peripheral\scb/cy_scb_common.h **** * \return
1690:Generated_Source\PSoC6\pdl\drivers\peripheral\scb/cy_scb_common.h **** * If true, the TX data width is a byte (8 bits). Otherwise, false.
1691:Generated_Source\PSoC6\pdl\drivers\peripheral\scb/cy_scb_common.h **** *
1692:Generated_Source\PSoC6\pdl\drivers\peripheral\scb/cy_scb_common.h **** *******************************************************************************/
1693:Generated_Source\PSoC6\pdl\drivers\peripheral\scb/cy_scb_common.h **** __STATIC_INLINE bool Cy_SCB_IsTxDataWidthByte(CySCB_Type const *base)
1694:Generated_Source\PSoC6\pdl\drivers\peripheral\scb/cy_scb_common.h **** {
 1291              		.loc 1 1694 0
 1292              		.cfi_startproc
 1293              		@ args = 0, pretend = 0, frame = 8
 1294              		@ frame_needed = 1, uses_anonymous_args = 0
 1295 0000 80B5     		push	{r7, lr}
 1296              		.cfi_def_cfa_offset 8
 1297              		.cfi_offset 7, -8
 1298              		.cfi_offset 14, -4
 1299 0002 82B0     		sub	sp, sp, #8
 1300              		.cfi_def_cfa_offset 16
 1301 0004 00AF     		add	r7, sp, #0
 1302              		.cfi_def_cfa_register 7
 1303 0006 7860     		str	r0, [r7, #4]
1695:Generated_Source\PSoC6\pdl\drivers\peripheral\scb/cy_scb_common.h ****     return (_FLD2VAL(SCB_TX_CTRL_DATA_WIDTH, base->TX_CTRL) < CY_SCB_BYTE_WIDTH);
 1304              		.loc 1 1695 0
 1305 0008 7A68     		ldr	r2, [r7, #4]
 1306 000a 8023     		movs	r3, #128
 1307 000c 9B00     		lsls	r3, r3, #2
 1308 000e D358     		ldr	r3, [r2, r3]
 1309 0010 0F22     		movs	r2, #15
 1310 0012 1A40     		ands	r2, r3
 1311 0014 0721     		movs	r1, #7
 1312 0016 0023     		movs	r3, #0
 1313 0018 9142     		cmp	r1, r2
 1314 001a 5B41     		adcs	r3, r3, r3
 1315 001c DBB2     		uxtb	r3, r3
1696:Generated_Source\PSoC6\pdl\drivers\peripheral\scb/cy_scb_common.h **** }
 1316              		.loc 1 1696 0
ARM GAS  C:\Users\salaz\AppData\Local\Temp\ccynHHO7.s 			page 54


 1317 001e 1800     		movs	r0, r3
 1318 0020 BD46     		mov	sp, r7
 1319 0022 02B0     		add	sp, sp, #8
 1320              		@ sp needed
 1321 0024 80BD     		pop	{r7, pc}
 1322              		.cfi_endproc
 1323              	.LFE118:
 1324              		.size	Cy_SCB_IsTxDataWidthByte, .-Cy_SCB_IsTxDataWidthByte
 1325 0026 C046     		.section	.text.Cy_SCB_SPI_Enable,"ax",%progbits
 1326              		.align	2
 1327              		.code	16
 1328              		.thumb_func
 1329              		.type	Cy_SCB_SPI_Enable, %function
 1330              	Cy_SCB_SPI_Enable:
 1331              	.LFB121:
 1332              		.file 2 "Generated_Source\\PSoC6\\pdl\\drivers\\peripheral\\scb\\cy_scb_spi.h"
   1:Generated_Source\PSoC6\pdl\drivers\peripheral\scb/cy_scb_spi.h **** /***************************************************************************//**
   2:Generated_Source\PSoC6\pdl\drivers\peripheral\scb/cy_scb_spi.h **** * \file cy_scb_spi.h
   3:Generated_Source\PSoC6\pdl\drivers\peripheral\scb/cy_scb_spi.h **** * \version 2.10
   4:Generated_Source\PSoC6\pdl\drivers\peripheral\scb/cy_scb_spi.h **** *
   5:Generated_Source\PSoC6\pdl\drivers\peripheral\scb/cy_scb_spi.h **** * Provides SPI API declarations of the SCB driver.
   6:Generated_Source\PSoC6\pdl\drivers\peripheral\scb/cy_scb_spi.h **** *
   7:Generated_Source\PSoC6\pdl\drivers\peripheral\scb/cy_scb_spi.h **** ********************************************************************************
   8:Generated_Source\PSoC6\pdl\drivers\peripheral\scb/cy_scb_spi.h **** * \copyright
   9:Generated_Source\PSoC6\pdl\drivers\peripheral\scb/cy_scb_spi.h **** * Copyright 2016-2018, Cypress Semiconductor Corporation.  All rights reserved.
  10:Generated_Source\PSoC6\pdl\drivers\peripheral\scb/cy_scb_spi.h **** * You may use this file only in accordance with the license, terms, conditions,
  11:Generated_Source\PSoC6\pdl\drivers\peripheral\scb/cy_scb_spi.h **** * disclaimers, and limitations in the end user license agreement accompanying
  12:Generated_Source\PSoC6\pdl\drivers\peripheral\scb/cy_scb_spi.h **** * the software package with which this file was provided.
  13:Generated_Source\PSoC6\pdl\drivers\peripheral\scb/cy_scb_spi.h **** *******************************************************************************/
  14:Generated_Source\PSoC6\pdl\drivers\peripheral\scb/cy_scb_spi.h **** 
  15:Generated_Source\PSoC6\pdl\drivers\peripheral\scb/cy_scb_spi.h **** /**
  16:Generated_Source\PSoC6\pdl\drivers\peripheral\scb/cy_scb_spi.h **** * \addtogroup group_scb_spi
  17:Generated_Source\PSoC6\pdl\drivers\peripheral\scb/cy_scb_spi.h **** * \{
  18:Generated_Source\PSoC6\pdl\drivers\peripheral\scb/cy_scb_spi.h **** * Driver API for SPI Bus Peripheral.
  19:Generated_Source\PSoC6\pdl\drivers\peripheral\scb/cy_scb_spi.h **** *
  20:Generated_Source\PSoC6\pdl\drivers\peripheral\scb/cy_scb_spi.h **** * Three different SPI protocols or modes are supported:
  21:Generated_Source\PSoC6\pdl\drivers\peripheral\scb/cy_scb_spi.h **** * * The original SPI protocol as defined by Motorola.
  22:Generated_Source\PSoC6\pdl\drivers\peripheral\scb/cy_scb_spi.h **** * * TI: Uses a short pulse on "spi_select" to indicate a start of transaction.
  23:Generated_Source\PSoC6\pdl\drivers\peripheral\scb/cy_scb_spi.h **** * * National Semiconductor (Microwire): Transmissions and Receptions occur
  24:Generated_Source\PSoC6\pdl\drivers\peripheral\scb/cy_scb_spi.h **** *   separately.
  25:Generated_Source\PSoC6\pdl\drivers\peripheral\scb/cy_scb_spi.h **** * In addition to the standard 8-bit word length, the component supports a
  26:Generated_Source\PSoC6\pdl\drivers\peripheral\scb/cy_scb_spi.h **** * configurable 4- to 16-bit data width for communicating at non-standard SPI
  27:Generated_Source\PSoC6\pdl\drivers\peripheral\scb/cy_scb_spi.h **** * data widths.
  28:Generated_Source\PSoC6\pdl\drivers\peripheral\scb/cy_scb_spi.h **** *
  29:Generated_Source\PSoC6\pdl\drivers\peripheral\scb/cy_scb_spi.h **** * \section group_scb_spi_configuration Configuration Considerations
  30:Generated_Source\PSoC6\pdl\drivers\peripheral\scb/cy_scb_spi.h **** * The SPI driver configuration can be divided to number of sequential
  31:Generated_Source\PSoC6\pdl\drivers\peripheral\scb/cy_scb_spi.h **** * steps listed below:
  32:Generated_Source\PSoC6\pdl\drivers\peripheral\scb/cy_scb_spi.h **** * * \ref group_scb_spi_config
  33:Generated_Source\PSoC6\pdl\drivers\peripheral\scb/cy_scb_spi.h **** * * \ref group_scb_spi_pins
  34:Generated_Source\PSoC6\pdl\drivers\peripheral\scb/cy_scb_spi.h **** * * \ref group_scb_spi_clock
  35:Generated_Source\PSoC6\pdl\drivers\peripheral\scb/cy_scb_spi.h **** * * \ref group_scb_spi_data_rate
  36:Generated_Source\PSoC6\pdl\drivers\peripheral\scb/cy_scb_spi.h **** * * \ref group_scb_spi_intr
  37:Generated_Source\PSoC6\pdl\drivers\peripheral\scb/cy_scb_spi.h **** * * \ref group_scb_spi_enable
  38:Generated_Source\PSoC6\pdl\drivers\peripheral\scb/cy_scb_spi.h **** *
  39:Generated_Source\PSoC6\pdl\drivers\peripheral\scb/cy_scb_spi.h **** * \note
  40:Generated_Source\PSoC6\pdl\drivers\peripheral\scb/cy_scb_spi.h **** * The SPI driver is built on top of the SCB hardware block. The SCB1 instance is
  41:Generated_Source\PSoC6\pdl\drivers\peripheral\scb/cy_scb_spi.h **** * used as an example for all code snippets. Modify the code to match your
ARM GAS  C:\Users\salaz\AppData\Local\Temp\ccynHHO7.s 			page 55


  42:Generated_Source\PSoC6\pdl\drivers\peripheral\scb/cy_scb_spi.h **** * design.
  43:Generated_Source\PSoC6\pdl\drivers\peripheral\scb/cy_scb_spi.h **** *
  44:Generated_Source\PSoC6\pdl\drivers\peripheral\scb/cy_scb_spi.h **** * \subsection group_scb_spi_config Configure SPI
  45:Generated_Source\PSoC6\pdl\drivers\peripheral\scb/cy_scb_spi.h **** * To set up the SPI slave driver, provide the configuration parameters in the
  46:Generated_Source\PSoC6\pdl\drivers\peripheral\scb/cy_scb_spi.h **** * \ref cy_stc_scb_spi_config_t structure. For example: provide spiMode,
  47:Generated_Source\PSoC6\pdl\drivers\peripheral\scb/cy_scb_spi.h **** * subMode, sclkMode, oversample, rxDataWidth, and txDataWidth. The other
  48:Generated_Source\PSoC6\pdl\drivers\peripheral\scb/cy_scb_spi.h **** * parameters are optional for operation. To initialize the driver, call
  49:Generated_Source\PSoC6\pdl\drivers\peripheral\scb/cy_scb_spi.h **** * \ref Cy_SCB_SPI_Init function providing a pointer to the filled
  50:Generated_Source\PSoC6\pdl\drivers\peripheral\scb/cy_scb_spi.h **** * \ref cy_stc_scb_spi_config_t structure and allocated \ref cy_stc_scb_spi_context_t.
  51:Generated_Source\PSoC6\pdl\drivers\peripheral\scb/cy_scb_spi.h **** *
  52:Generated_Source\PSoC6\pdl\drivers\peripheral\scb/cy_scb_spi.h **** * \snippet SCB_CompDatasheet_sut_01_revA.cydsn\spi_snippets.c SPI_CFG
  53:Generated_Source\PSoC6\pdl\drivers\peripheral\scb/cy_scb_spi.h **** *
  54:Generated_Source\PSoC6\pdl\drivers\peripheral\scb/cy_scb_spi.h **** * \subsection group_scb_spi_pins Assign and Configure Pins
  55:Generated_Source\PSoC6\pdl\drivers\peripheral\scb/cy_scb_spi.h **** * Only dedicated SCB pins can be used for SPI operation. The HSIOM
  56:Generated_Source\PSoC6\pdl\drivers\peripheral\scb/cy_scb_spi.h **** * register must be configured to connect block to the pins. Also the SPI output
  57:Generated_Source\PSoC6\pdl\drivers\peripheral\scb/cy_scb_spi.h **** * pins must be configured in Strong Drive mode and SPI input pins in
  58:Generated_Source\PSoC6\pdl\drivers\peripheral\scb/cy_scb_spi.h **** * Digital High-Z:
  59:Generated_Source\PSoC6\pdl\drivers\peripheral\scb/cy_scb_spi.h **** *
  60:Generated_Source\PSoC6\pdl\drivers\peripheral\scb/cy_scb_spi.h **** * \snippet SCB_CompDatasheet_sut_01_revA.cydsn\spi_snippets.c SPI_CFG_PINS
  61:Generated_Source\PSoC6\pdl\drivers\peripheral\scb/cy_scb_spi.h **** *
  62:Generated_Source\PSoC6\pdl\drivers\peripheral\scb/cy_scb_spi.h **** * \note
  63:Generated_Source\PSoC6\pdl\drivers\peripheral\scb/cy_scb_spi.h **** * The SCB stops driving pins when it is disabled or enters low power mode (except
  64:Generated_Source\PSoC6\pdl\drivers\peripheral\scb/cy_scb_spi.h **** * Alternate Active or Sleep). To keep the pins' states, they should be reconfigured or
  65:Generated_Source\PSoC6\pdl\drivers\peripheral\scb/cy_scb_spi.h **** * be frozen.
  66:Generated_Source\PSoC6\pdl\drivers\peripheral\scb/cy_scb_spi.h **** *
  67:Generated_Source\PSoC6\pdl\drivers\peripheral\scb/cy_scb_spi.h **** * \subsection group_scb_spi_clock Assign Clock Divider
  68:Generated_Source\PSoC6\pdl\drivers\peripheral\scb/cy_scb_spi.h **** * The clock source must be connected to the SCB block to oversample input and
  69:Generated_Source\PSoC6\pdl\drivers\peripheral\scb/cy_scb_spi.h **** * output signals. You must use one of the 8-bit or 16-bit dividers <em><b>(the
  70:Generated_Source\PSoC6\pdl\drivers\peripheral\scb/cy_scb_spi.h **** * source clock of this divider must be Clk_Peri)</b></em>. Use the
  71:Generated_Source\PSoC6\pdl\drivers\peripheral\scb/cy_scb_spi.h **** * \ref group_sysclk driver API to do that.
  72:Generated_Source\PSoC6\pdl\drivers\peripheral\scb/cy_scb_spi.h **** *
  73:Generated_Source\PSoC6\pdl\drivers\peripheral\scb/cy_scb_spi.h **** * \snippet SCB_CompDatasheet_sut_01_revA.cydsn\spi_snippets.c SPI_CFG_ASSIGN_CLOCK
  74:Generated_Source\PSoC6\pdl\drivers\peripheral\scb/cy_scb_spi.h **** *
  75:Generated_Source\PSoC6\pdl\drivers\peripheral\scb/cy_scb_spi.h **** * \subsection group_scb_spi_data_rate Configure Data Rate
  76:Generated_Source\PSoC6\pdl\drivers\peripheral\scb/cy_scb_spi.h **** * To get the SPI slave to operate with the desired data rate, the source clock must be
  77:Generated_Source\PSoC6\pdl\drivers\peripheral\scb/cy_scb_spi.h **** * fast enough to provide sufficient oversampling. Therefore, the clock divider
  78:Generated_Source\PSoC6\pdl\drivers\peripheral\scb/cy_scb_spi.h **** * must be configured to provide desired clock frequency. Use the
  79:Generated_Source\PSoC6\pdl\drivers\peripheral\scb/cy_scb_spi.h **** * \ref group_sysclk driver API to do that.
  80:Generated_Source\PSoC6\pdl\drivers\peripheral\scb/cy_scb_spi.h **** *
  81:Generated_Source\PSoC6\pdl\drivers\peripheral\scb/cy_scb_spi.h **** * \snippet SCB_CompDatasheet_sut_01_revA.cydsn\spi_snippets.c SPI_CFG_DATA_RATE_SLAVE
  82:Generated_Source\PSoC6\pdl\drivers\peripheral\scb/cy_scb_spi.h **** *
  83:Generated_Source\PSoC6\pdl\drivers\peripheral\scb/cy_scb_spi.h **** * To get the SPI master to operate with the desired data rate, the source clock frequency
  84:Generated_Source\PSoC6\pdl\drivers\peripheral\scb/cy_scb_spi.h **** * and the SCLK (SPI clock) period must be configured. Use the
  85:Generated_Source\PSoC6\pdl\drivers\peripheral\scb/cy_scb_spi.h **** * \ref group_sysclk driver API to configure source clock frequency. Set the
  86:Generated_Source\PSoC6\pdl\drivers\peripheral\scb/cy_scb_spi.h **** * <em><b>oversample parameter in configuration structure</b></em> to define number of SCB
  87:Generated_Source\PSoC6\pdl\drivers\peripheral\scb/cy_scb_spi.h **** * clocks in one SCLK period. When this value is even, the first and second phases
  88:Generated_Source\PSoC6\pdl\drivers\peripheral\scb/cy_scb_spi.h **** * of the SCLK period are the same. Otherwise, the first phase is one SCB clock
  89:Generated_Source\PSoC6\pdl\drivers\peripheral\scb/cy_scb_spi.h **** * cycle longer than the second phase. The level of the first phase of the clock
  90:Generated_Source\PSoC6\pdl\drivers\peripheral\scb/cy_scb_spi.h **** * period depends on CPOL settings: 0 - low level and 1 - high level.
  91:Generated_Source\PSoC6\pdl\drivers\peripheral\scb/cy_scb_spi.h **** *
  92:Generated_Source\PSoC6\pdl\drivers\peripheral\scb/cy_scb_spi.h **** * \snippet SCB_CompDatasheet_sut_01_revA.cydsn\spi_snippets.c SPI_CFG_DATA_RATE_MASTER
  93:Generated_Source\PSoC6\pdl\drivers\peripheral\scb/cy_scb_spi.h **** *
  94:Generated_Source\PSoC6\pdl\drivers\peripheral\scb/cy_scb_spi.h **** * Refer to the technical reference manual (TRM) section SPI sub-section
  95:Generated_Source\PSoC6\pdl\drivers\peripheral\scb/cy_scb_spi.h **** * Oversampling and Bit Rate to get information about how to configure SPI to run with
  96:Generated_Source\PSoC6\pdl\drivers\peripheral\scb/cy_scb_spi.h **** * desired data rate.
  97:Generated_Source\PSoC6\pdl\drivers\peripheral\scb/cy_scb_spi.h **** *
  98:Generated_Source\PSoC6\pdl\drivers\peripheral\scb/cy_scb_spi.h **** * \subsection group_scb_spi_intr Configure Interrupt
ARM GAS  C:\Users\salaz\AppData\Local\Temp\ccynHHO7.s 			page 56


  99:Generated_Source\PSoC6\pdl\drivers\peripheral\scb/cy_scb_spi.h **** * The interrupt is optional for the SPI operation. To configure the interrupt,
 100:Generated_Source\PSoC6\pdl\drivers\peripheral\scb/cy_scb_spi.h **** * the \ref Cy_SCB_SPI_Interrupt function must be called in the interrupt
 101:Generated_Source\PSoC6\pdl\drivers\peripheral\scb/cy_scb_spi.h **** * handler for the selected SCB instance. Also, this interrupt must be enabled
 102:Generated_Source\PSoC6\pdl\drivers\peripheral\scb/cy_scb_spi.h **** * in the NVIC.
 103:Generated_Source\PSoC6\pdl\drivers\peripheral\scb/cy_scb_spi.h **** *
 104:Generated_Source\PSoC6\pdl\drivers\peripheral\scb/cy_scb_spi.h **** * \snippet SCB_CompDatasheet_sut_01_revA.cydsn\spi_snippets.c SPI_INTR_A
 105:Generated_Source\PSoC6\pdl\drivers\peripheral\scb/cy_scb_spi.h **** * \snippet SCB_CompDatasheet_sut_01_revA.cydsn\spi_snippets.c SPI_INTR_B
 106:Generated_Source\PSoC6\pdl\drivers\peripheral\scb/cy_scb_spi.h **** *
 107:Generated_Source\PSoC6\pdl\drivers\peripheral\scb/cy_scb_spi.h **** * \subsection group_scb_spi_enable Enable SPI
 108:Generated_Source\PSoC6\pdl\drivers\peripheral\scb/cy_scb_spi.h **** * Finally, enable the SPI operation calling \ref Cy_SCB_SPI_Enable.
 109:Generated_Source\PSoC6\pdl\drivers\peripheral\scb/cy_scb_spi.h **** * For the slave, this means that SPI device starts respond to the transfers.
 110:Generated_Source\PSoC6\pdl\drivers\peripheral\scb/cy_scb_spi.h **** * For the master, it is ready to execute transfers.
 111:Generated_Source\PSoC6\pdl\drivers\peripheral\scb/cy_scb_spi.h **** *
 112:Generated_Source\PSoC6\pdl\drivers\peripheral\scb/cy_scb_spi.h **** * \snippet SCB_CompDatasheet_sut_01_revA.cydsn\spi_snippets.c SPI_ENABLE
 113:Generated_Source\PSoC6\pdl\drivers\peripheral\scb/cy_scb_spi.h **** *
 114:Generated_Source\PSoC6\pdl\drivers\peripheral\scb/cy_scb_spi.h **** * \section group_scb_spi_use_cases Common Use Cases
 115:Generated_Source\PSoC6\pdl\drivers\peripheral\scb/cy_scb_spi.h **** * The SPI API is the same for the master and slave mode operation and
 116:Generated_Source\PSoC6\pdl\drivers\peripheral\scb/cy_scb_spi.h **** * is divided into two categories: \ref group_scb_spi_low_level_functions
 117:Generated_Source\PSoC6\pdl\drivers\peripheral\scb/cy_scb_spi.h **** * and \ref group_scb_spi_high_level_functions. \n
 118:Generated_Source\PSoC6\pdl\drivers\peripheral\scb/cy_scb_spi.h **** * <em>Do not mix <b>High-Level</b> and <b>Low-Level</b> API because a Low-Level
 119:Generated_Source\PSoC6\pdl\drivers\peripheral\scb/cy_scb_spi.h **** * API can adversely affect the operation of a High-Level API.</em>
 120:Generated_Source\PSoC6\pdl\drivers\peripheral\scb/cy_scb_spi.h **** *
 121:Generated_Source\PSoC6\pdl\drivers\peripheral\scb/cy_scb_spi.h **** * \subsection group_scb_spi_ll Low-Level API
 122:Generated_Source\PSoC6\pdl\drivers\peripheral\scb/cy_scb_spi.h **** * The \ref group_scb_spi_low_level_functions API allows
 123:Generated_Source\PSoC6\pdl\drivers\peripheral\scb/cy_scb_spi.h **** * interacting directly with the hardware and do not use interrupt.
 124:Generated_Source\PSoC6\pdl\drivers\peripheral\scb/cy_scb_spi.h **** * These functions do not require context for operation. Thus, NULL can be
 125:Generated_Source\PSoC6\pdl\drivers\peripheral\scb/cy_scb_spi.h **** * passed in \ref Cy_SCB_SPI_Init and \ref Cy_SCB_SPI_Disable instead of
 126:Generated_Source\PSoC6\pdl\drivers\peripheral\scb/cy_scb_spi.h **** * a pointer to the context structure.
 127:Generated_Source\PSoC6\pdl\drivers\peripheral\scb/cy_scb_spi.h **** *
 128:Generated_Source\PSoC6\pdl\drivers\peripheral\scb/cy_scb_spi.h **** * * To write data into the TX FIFO, use one of the provided functions:
 129:Generated_Source\PSoC6\pdl\drivers\peripheral\scb/cy_scb_spi.h **** *   \ref Cy_SCB_SPI_Write, \ref Cy_SCB_SPI_WriteArray or
 130:Generated_Source\PSoC6\pdl\drivers\peripheral\scb/cy_scb_spi.h **** *   \ref Cy_SCB_SPI_WriteArrayBlocking.
 131:Generated_Source\PSoC6\pdl\drivers\peripheral\scb/cy_scb_spi.h **** *   Note that in the master mode, putting data into the TX FIFO starts a
 132:Generated_Source\PSoC6\pdl\drivers\peripheral\scb/cy_scb_spi.h **** *   transfer. Due to the SPI nature, the received data is put into the RX FIFO.
 133:Generated_Source\PSoC6\pdl\drivers\peripheral\scb/cy_scb_spi.h **** *
 134:Generated_Source\PSoC6\pdl\drivers\peripheral\scb/cy_scb_spi.h **** * * To read data from the RX FIFO, use one of the provided functions:
 135:Generated_Source\PSoC6\pdl\drivers\peripheral\scb/cy_scb_spi.h **** *   \ref Cy_SCB_SPI_Read or \ref Cy_SCB_SPI_ReadArray.
 136:Generated_Source\PSoC6\pdl\drivers\peripheral\scb/cy_scb_spi.h **** *
 137:Generated_Source\PSoC6\pdl\drivers\peripheral\scb/cy_scb_spi.h **** * * The statuses can be polled using: \ref Cy_SCB_SPI_GetRxFifoStatus,
 138:Generated_Source\PSoC6\pdl\drivers\peripheral\scb/cy_scb_spi.h **** *   \ref Cy_SCB_SPI_GetTxFifoStatus and \ref Cy_SCB_SPI_GetSlaveMasterStatus.
 139:Generated_Source\PSoC6\pdl\drivers\peripheral\scb/cy_scb_spi.h **** *   <em>The statuses are <b>W1C (Write 1 to Clear)</b> and after a status
 140:Generated_Source\PSoC6\pdl\drivers\peripheral\scb/cy_scb_spi.h **** *   is set, it must be cleared.</em> Note that there are statuses evaluated as level.
 141:Generated_Source\PSoC6\pdl\drivers\peripheral\scb/cy_scb_spi.h **** *   These statuses remain set until an event is true. Therefore, after the clear
 142:Generated_Source\PSoC6\pdl\drivers\peripheral\scb/cy_scb_spi.h **** *   operation, the status is cleared but then it is restored (if the event is still
 143:Generated_Source\PSoC6\pdl\drivers\peripheral\scb/cy_scb_spi.h **** *   true).
 144:Generated_Source\PSoC6\pdl\drivers\peripheral\scb/cy_scb_spi.h **** *   For example: the TX FIFO empty interrupt source can be cleared when the
 145:Generated_Source\PSoC6\pdl\drivers\peripheral\scb/cy_scb_spi.h **** *   TX FIFO is not empty. Put at least two data elements (one goes to the
 146:Generated_Source\PSoC6\pdl\drivers\peripheral\scb/cy_scb_spi.h **** *   shifter and next to FIFO) before clearing this status. \n
 147:Generated_Source\PSoC6\pdl\drivers\peripheral\scb/cy_scb_spi.h **** *   Also, following functions can be used for polling as well
 148:Generated_Source\PSoC6\pdl\drivers\peripheral\scb/cy_scb_spi.h **** *   \ref Cy_SCB_SPI_IsBusBusy, \ref Cy_SCB_SPI_IsTxComplete,
 149:Generated_Source\PSoC6\pdl\drivers\peripheral\scb/cy_scb_spi.h **** *   \ref Cy_SCB_SPI_GetNumInRxFifo and \ref Cy_SCB_SPI_GetNumInTxFifo.
 150:Generated_Source\PSoC6\pdl\drivers\peripheral\scb/cy_scb_spi.h **** *
 151:Generated_Source\PSoC6\pdl\drivers\peripheral\scb/cy_scb_spi.h **** * \snippet SCB_CompDatasheet_sut_01_revA.cydsn\spi_snippets.c SPI_TRANFER_DATA_LL
 152:Generated_Source\PSoC6\pdl\drivers\peripheral\scb/cy_scb_spi.h **** *
 153:Generated_Source\PSoC6\pdl\drivers\peripheral\scb/cy_scb_spi.h **** * \subsection group_scb_spi_hl High-Level API
 154:Generated_Source\PSoC6\pdl\drivers\peripheral\scb/cy_scb_spi.h **** * The \ref group_scb_spi_high_level_functions API uses an interrupt to execute
 155:Generated_Source\PSoC6\pdl\drivers\peripheral\scb/cy_scb_spi.h **** * a transfer. Call \ref Cy_SCB_SPI_Transfer to start communication: for the
ARM GAS  C:\Users\salaz\AppData\Local\Temp\ccynHHO7.s 			page 57


 156:Generated_Source\PSoC6\pdl\drivers\peripheral\scb/cy_scb_spi.h **** * master mode, a transfer to the slave starts but for the slave mode,
 157:Generated_Source\PSoC6\pdl\drivers\peripheral\scb/cy_scb_spi.h **** * the Read and Write buffers are prepared for the following communication
 158:Generated_Source\PSoC6\pdl\drivers\peripheral\scb/cy_scb_spi.h **** * with the master.
 159:Generated_Source\PSoC6\pdl\drivers\peripheral\scb/cy_scb_spi.h **** * After a transfer is started, the \ref Cy_SCB_SPI_Interrupt handles the
 160:Generated_Source\PSoC6\pdl\drivers\peripheral\scb/cy_scb_spi.h **** * transfer until its completion. Therefore, it must be called inside the
 161:Generated_Source\PSoC6\pdl\drivers\peripheral\scb/cy_scb_spi.h **** * user interrupt handler to make the High-Level API work. To monitor the status
 162:Generated_Source\PSoC6\pdl\drivers\peripheral\scb/cy_scb_spi.h **** * of the transfer operation, use \ref Cy_SCB_SPI_GetTransferStatus.
 163:Generated_Source\PSoC6\pdl\drivers\peripheral\scb/cy_scb_spi.h **** * Alternatively, use \ref Cy_SCB_SPI_RegisterCallback to register a callback
 164:Generated_Source\PSoC6\pdl\drivers\peripheral\scb/cy_scb_spi.h **** * function to be notified about \ref group_scb_spi_macros_callback_events.
 165:Generated_Source\PSoC6\pdl\drivers\peripheral\scb/cy_scb_spi.h **** *
 166:Generated_Source\PSoC6\pdl\drivers\peripheral\scb/cy_scb_spi.h **** * \snippet SCB_CompDatasheet_sut_01_revA.cydsn\spi_snippets.c SPI_TRANFER_DATA
 167:Generated_Source\PSoC6\pdl\drivers\peripheral\scb/cy_scb_spi.h **** *
 168:Generated_Source\PSoC6\pdl\drivers\peripheral\scb/cy_scb_spi.h **** * \section group_scb_spi_dma_trig DMA Trigger
 169:Generated_Source\PSoC6\pdl\drivers\peripheral\scb/cy_scb_spi.h **** * The SCB provides TX and RX output trigger signals that can be routed to the
 170:Generated_Source\PSoC6\pdl\drivers\peripheral\scb/cy_scb_spi.h **** * DMA controller inputs. These signals are assigned based on the data availability
 171:Generated_Source\PSoC6\pdl\drivers\peripheral\scb/cy_scb_spi.h **** * in the TX and RX FIFOs appropriately.
 172:Generated_Source\PSoC6\pdl\drivers\peripheral\scb/cy_scb_spi.h **** *
 173:Generated_Source\PSoC6\pdl\drivers\peripheral\scb/cy_scb_spi.h **** * * The RX trigger signal remains active until the number of data
 174:Generated_Source\PSoC6\pdl\drivers\peripheral\scb/cy_scb_spi.h **** *   elements in the RX FIFO is greater than the value of RX FIFO level. Use
 175:Generated_Source\PSoC6\pdl\drivers\peripheral\scb/cy_scb_spi.h **** *   function \ref Cy_SCB_SetRxFifoLevel or set configuration structure
 176:Generated_Source\PSoC6\pdl\drivers\peripheral\scb/cy_scb_spi.h **** *   rxFifoTriggerLevel parameter to configure RX FIFO level value. \n
 177:Generated_Source\PSoC6\pdl\drivers\peripheral\scb/cy_scb_spi.h **** *   <em>For example, the RX FIFO has 8 data elements and the RX FIFO level is 0.
 178:Generated_Source\PSoC6\pdl\drivers\peripheral\scb/cy_scb_spi.h **** *   The RX trigger signal remains active until DMA does not read all data from
 179:Generated_Source\PSoC6\pdl\drivers\peripheral\scb/cy_scb_spi.h **** *   the RX FIFO.</em>
 180:Generated_Source\PSoC6\pdl\drivers\peripheral\scb/cy_scb_spi.h **** *
 181:Generated_Source\PSoC6\pdl\drivers\peripheral\scb/cy_scb_spi.h **** * * The TX trigger signal remains active until the number of data elements
 182:Generated_Source\PSoC6\pdl\drivers\peripheral\scb/cy_scb_spi.h **** *   in the TX FIFO is less than the value of TX FIFO level. Use function
 183:Generated_Source\PSoC6\pdl\drivers\peripheral\scb/cy_scb_spi.h **** *   \ref Cy_SCB_SetTxFifoLevel or set configuration structure txFifoTriggerLevel
 184:Generated_Source\PSoC6\pdl\drivers\peripheral\scb/cy_scb_spi.h **** *   parameter to configure TX FIFO level value. \n
 185:Generated_Source\PSoC6\pdl\drivers\peripheral\scb/cy_scb_spi.h **** *   <em>For example, the TX FIFO has 0 data elements (empty) and the TX FIFO level
 186:Generated_Source\PSoC6\pdl\drivers\peripheral\scb/cy_scb_spi.h **** *   is 7. The TX trigger signal remains active until DMA does not load TX FIFO
 187:Generated_Source\PSoC6\pdl\drivers\peripheral\scb/cy_scb_spi.h **** *   with 7 data elements (note that after the first TX load operation, the data 
 188:Generated_Source\PSoC6\pdl\drivers\peripheral\scb/cy_scb_spi.h **** *   element goes to the shift register and TX FIFO remains empty).</em>
 189:Generated_Source\PSoC6\pdl\drivers\peripheral\scb/cy_scb_spi.h **** *
 190:Generated_Source\PSoC6\pdl\drivers\peripheral\scb/cy_scb_spi.h **** * To route SCB TX or RX trigger signals to the DMA controller, use \ref group_trigmux
 191:Generated_Source\PSoC6\pdl\drivers\peripheral\scb/cy_scb_spi.h **** * driver API.
 192:Generated_Source\PSoC6\pdl\drivers\peripheral\scb/cy_scb_spi.h **** *
 193:Generated_Source\PSoC6\pdl\drivers\peripheral\scb/cy_scb_spi.h **** * \note
 194:Generated_Source\PSoC6\pdl\drivers\peripheral\scb/cy_scb_spi.h **** * To properly handle DMA level request signal activation and de-activation from the SCB
 195:Generated_Source\PSoC6\pdl\drivers\peripheral\scb/cy_scb_spi.h **** * peripheral block the DMA Descriptor typically must be configured to re-trigger
 196:Generated_Source\PSoC6\pdl\drivers\peripheral\scb/cy_scb_spi.h **** * after 16 Clk_Slow cycles.
 197:Generated_Source\PSoC6\pdl\drivers\peripheral\scb/cy_scb_spi.h **** *
 198:Generated_Source\PSoC6\pdl\drivers\peripheral\scb/cy_scb_spi.h **** * \section group_scb_spi_lp Low Power Support
 199:Generated_Source\PSoC6\pdl\drivers\peripheral\scb/cy_scb_spi.h **** * The SPI driver provides the callback functions to handle power mode transition.
 200:Generated_Source\PSoC6\pdl\drivers\peripheral\scb/cy_scb_spi.h **** * The callback \ref Cy_SCB_SPI_DeepSleepCallback must be called
 201:Generated_Source\PSoC6\pdl\drivers\peripheral\scb/cy_scb_spi.h **** * during execution of \ref Cy_SysPm_DeepSleep; \ref Cy_SCB_SPI_HibernateCallback
 202:Generated_Source\PSoC6\pdl\drivers\peripheral\scb/cy_scb_spi.h **** * must be called during execution of \ref Cy_SysPm_Hibernate. To trigger the
 203:Generated_Source\PSoC6\pdl\drivers\peripheral\scb/cy_scb_spi.h **** * callback execution, the callback must be registered before calling the
 204:Generated_Source\PSoC6\pdl\drivers\peripheral\scb/cy_scb_spi.h **** * power mode transition function. Refer to \ref group_syspm driver for more
 205:Generated_Source\PSoC6\pdl\drivers\peripheral\scb/cy_scb_spi.h **** * information about power mode transitions and callback registration.
 206:Generated_Source\PSoC6\pdl\drivers\peripheral\scb/cy_scb_spi.h **** * 
 207:Generated_Source\PSoC6\pdl\drivers\peripheral\scb/cy_scb_spi.h **** * The SPI master is disabled during Deep Sleep and Hibernate and stops driving 
 208:Generated_Source\PSoC6\pdl\drivers\peripheral\scb/cy_scb_spi.h **** * the output pins. The state of the SPI master output pins SCLK, SS, and MOSI is 
 209:Generated_Source\PSoC6\pdl\drivers\peripheral\scb/cy_scb_spi.h **** * High-Z, which can cause unexpected behavior of the SPI Slave due to possible 
 210:Generated_Source\PSoC6\pdl\drivers\peripheral\scb/cy_scb_spi.h **** * glitches on these lines. These pins must be set to the inactive state before 
 211:Generated_Source\PSoC6\pdl\drivers\peripheral\scb/cy_scb_spi.h **** * entering Deep Sleep or Hibernate mode. To do that, configure the SPI master  
 212:Generated_Source\PSoC6\pdl\drivers\peripheral\scb/cy_scb_spi.h **** * pins output to drive the inactive state and High-Speed Input Output 
ARM GAS  C:\Users\salaz\AppData\Local\Temp\ccynHHO7.s 			page 58


 213:Generated_Source\PSoC6\pdl\drivers\peripheral\scb/cy_scb_spi.h **** * Multiplexer (HSIOM) to control output by GPIO (use \ref group_gpio 
 214:Generated_Source\PSoC6\pdl\drivers\peripheral\scb/cy_scb_spi.h **** * driver API). The pins configuration must be restored after exiting Deep Sleep 
 215:Generated_Source\PSoC6\pdl\drivers\peripheral\scb/cy_scb_spi.h **** * mode to return the SPI master control of the pins (after exiting Hibernate 
 216:Generated_Source\PSoC6\pdl\drivers\peripheral\scb/cy_scb_spi.h **** * mode, the system init code does the same). 
 217:Generated_Source\PSoC6\pdl\drivers\peripheral\scb/cy_scb_spi.h **** * Note that the SPI master must be enabled to drive the pins during 
 218:Generated_Source\PSoC6\pdl\drivers\peripheral\scb/cy_scb_spi.h **** * configuration change not to cause glitches on the lines. Copy either or 
 219:Generated_Source\PSoC6\pdl\drivers\peripheral\scb/cy_scb_spi.h **** * both \ref Cy_SCB_SPI_DeepSleepCallback and \ref Cy_SCB_SPI_HibernateCallback 
 220:Generated_Source\PSoC6\pdl\drivers\peripheral\scb/cy_scb_spi.h **** * as appropriate, and make the changes described above inside the function.
 221:Generated_Source\PSoC6\pdl\drivers\peripheral\scb/cy_scb_spi.h **** * Alternately, external pull-up or pull-down resistors can be connected 
 222:Generated_Source\PSoC6\pdl\drivers\peripheral\scb/cy_scb_spi.h **** * to the appropriate SPI lines to keep them inactive during Deep-Sleep or 
 223:Generated_Source\PSoC6\pdl\drivers\peripheral\scb/cy_scb_spi.h **** * Hibernate.
 224:Generated_Source\PSoC6\pdl\drivers\peripheral\scb/cy_scb_spi.h **** *
 225:Generated_Source\PSoC6\pdl\drivers\peripheral\scb/cy_scb_spi.h **** * \note
 226:Generated_Source\PSoC6\pdl\drivers\peripheral\scb/cy_scb_spi.h **** * Only applicable for <b>rev-08 of the CY8CKIT-062-BLE</b>.
 227:Generated_Source\PSoC6\pdl\drivers\peripheral\scb/cy_scb_spi.h **** * For proper operation, when the SPI slave is configured to be a wakeup
 228:Generated_Source\PSoC6\pdl\drivers\peripheral\scb/cy_scb_spi.h **** * source from Deep Sleep mode, the \ref Cy_SCB_SPI_DeepSleepCallback must be
 229:Generated_Source\PSoC6\pdl\drivers\peripheral\scb/cy_scb_spi.h **** * copied and modified. Refer to the function description to get the details.
 230:Generated_Source\PSoC6\pdl\drivers\peripheral\scb/cy_scb_spi.h **** *
 231:Generated_Source\PSoC6\pdl\drivers\peripheral\scb/cy_scb_spi.h **** * \section group_scb_spi_more_information More Information
 232:Generated_Source\PSoC6\pdl\drivers\peripheral\scb/cy_scb_spi.h **** * For more information on the SCB peripheral, refer to the technical reference
 233:Generated_Source\PSoC6\pdl\drivers\peripheral\scb/cy_scb_spi.h **** * manual (TRM).
 234:Generated_Source\PSoC6\pdl\drivers\peripheral\scb/cy_scb_spi.h **** *
 235:Generated_Source\PSoC6\pdl\drivers\peripheral\scb/cy_scb_spi.h **** * \section group_scb_spi_MISRA MISRA-C Compliance
 236:Generated_Source\PSoC6\pdl\drivers\peripheral\scb/cy_scb_spi.h **** * <table class="doxtable">
 237:Generated_Source\PSoC6\pdl\drivers\peripheral\scb/cy_scb_spi.h **** *   <tr>
 238:Generated_Source\PSoC6\pdl\drivers\peripheral\scb/cy_scb_spi.h **** *     <th>MISRA Rule</th>
 239:Generated_Source\PSoC6\pdl\drivers\peripheral\scb/cy_scb_spi.h **** *     <th>Rule Class (Required/Advisory)</th>
 240:Generated_Source\PSoC6\pdl\drivers\peripheral\scb/cy_scb_spi.h **** *     <th>Rule Description</th>
 241:Generated_Source\PSoC6\pdl\drivers\peripheral\scb/cy_scb_spi.h **** *     <th>Description of Deviation(s)</th>
 242:Generated_Source\PSoC6\pdl\drivers\peripheral\scb/cy_scb_spi.h **** *   </tr>
 243:Generated_Source\PSoC6\pdl\drivers\peripheral\scb/cy_scb_spi.h **** *   <tr>
 244:Generated_Source\PSoC6\pdl\drivers\peripheral\scb/cy_scb_spi.h **** *     <td>11.4</td>
 245:Generated_Source\PSoC6\pdl\drivers\peripheral\scb/cy_scb_spi.h **** *     <td>A</td>
 246:Generated_Source\PSoC6\pdl\drivers\peripheral\scb/cy_scb_spi.h **** *     <td>A cast should not be performed between a pointer to object type and
 247:Generated_Source\PSoC6\pdl\drivers\peripheral\scb/cy_scb_spi.h **** *         a different pointer to object type.</td>
 248:Generated_Source\PSoC6\pdl\drivers\peripheral\scb/cy_scb_spi.h **** *     <td>
 249:Generated_Source\PSoC6\pdl\drivers\peripheral\scb/cy_scb_spi.h **** *         * The pointer to the buffer memory is void to allow handling
 250:Generated_Source\PSoC6\pdl\drivers\peripheral\scb/cy_scb_spi.h **** *         different data types: uint8_t (4-8 bits) or uint16_t (9-16 bits).
 251:Generated_Source\PSoC6\pdl\drivers\peripheral\scb/cy_scb_spi.h **** *         The cast operation is safe because the configuration is verified
 252:Generated_Source\PSoC6\pdl\drivers\peripheral\scb/cy_scb_spi.h **** *         before operation is performed.
 253:Generated_Source\PSoC6\pdl\drivers\peripheral\scb/cy_scb_spi.h **** *         * The functions \ref Cy_SCB_SPI_DeepSleepCallback and
 254:Generated_Source\PSoC6\pdl\drivers\peripheral\scb/cy_scb_spi.h **** *         \ref Cy_SCB_SPI_HibernateCallback are callback of
 255:Generated_Source\PSoC6\pdl\drivers\peripheral\scb/cy_scb_spi.h **** *         \ref cy_en_syspm_status_t type. The cast operation safety in these
 256:Generated_Source\PSoC6\pdl\drivers\peripheral\scb/cy_scb_spi.h **** *         functions becomes the user's responsibility because pointers are
 257:Generated_Source\PSoC6\pdl\drivers\peripheral\scb/cy_scb_spi.h **** *         initialized when callback is registered in SysPm driver.</td>
 258:Generated_Source\PSoC6\pdl\drivers\peripheral\scb/cy_scb_spi.h **** *   </tr>
 259:Generated_Source\PSoC6\pdl\drivers\peripheral\scb/cy_scb_spi.h **** *   <tr>
 260:Generated_Source\PSoC6\pdl\drivers\peripheral\scb/cy_scb_spi.h **** *     <td>13.7</td>
 261:Generated_Source\PSoC6\pdl\drivers\peripheral\scb/cy_scb_spi.h **** *     <td>R</td>
 262:Generated_Source\PSoC6\pdl\drivers\peripheral\scb/cy_scb_spi.h **** *     <td>Boolean operations whose results are invariant shall not be
 263:Generated_Source\PSoC6\pdl\drivers\peripheral\scb/cy_scb_spi.h **** *         permitted.</td>
 264:Generated_Source\PSoC6\pdl\drivers\peripheral\scb/cy_scb_spi.h **** *     <td>The SCB block parameters can be a constant false or true depends on
 265:Generated_Source\PSoC6\pdl\drivers\peripheral\scb/cy_scb_spi.h **** *         the selected device and cause this violation.</td>
 266:Generated_Source\PSoC6\pdl\drivers\peripheral\scb/cy_scb_spi.h **** *   </tr>
 267:Generated_Source\PSoC6\pdl\drivers\peripheral\scb/cy_scb_spi.h **** *   <tr>
 268:Generated_Source\PSoC6\pdl\drivers\peripheral\scb/cy_scb_spi.h **** *     <td>14.1</td>
 269:Generated_Source\PSoC6\pdl\drivers\peripheral\scb/cy_scb_spi.h **** *     <td>R</td>
ARM GAS  C:\Users\salaz\AppData\Local\Temp\ccynHHO7.s 			page 59


 270:Generated_Source\PSoC6\pdl\drivers\peripheral\scb/cy_scb_spi.h **** *     <td>There shall be no unreachable code.</td>
 271:Generated_Source\PSoC6\pdl\drivers\peripheral\scb/cy_scb_spi.h **** *     <td>The SCB block parameters can be a constant false or true depends on
 272:Generated_Source\PSoC6\pdl\drivers\peripheral\scb/cy_scb_spi.h **** *         the selected device and cause code to be unreachable.</td>
 273:Generated_Source\PSoC6\pdl\drivers\peripheral\scb/cy_scb_spi.h **** *   </tr>
 274:Generated_Source\PSoC6\pdl\drivers\peripheral\scb/cy_scb_spi.h **** *   <tr>
 275:Generated_Source\PSoC6\pdl\drivers\peripheral\scb/cy_scb_spi.h **** *     <td>14.2</td>
 276:Generated_Source\PSoC6\pdl\drivers\peripheral\scb/cy_scb_spi.h **** *     <td>R</td>
 277:Generated_Source\PSoC6\pdl\drivers\peripheral\scb/cy_scb_spi.h **** *     <td>All non-null statements shall either: a) have at least one side-effect
 278:Generated_Source\PSoC6\pdl\drivers\peripheral\scb/cy_scb_spi.h **** *         however executed, or b) cause control flow to change.</td>
 279:Generated_Source\PSoC6\pdl\drivers\peripheral\scb/cy_scb_spi.h **** *     <td>The unused function parameters are cast to void. This statement
 280:Generated_Source\PSoC6\pdl\drivers\peripheral\scb/cy_scb_spi.h **** *         has no side-effect and is used to suppress a compiler warning.</td>
 281:Generated_Source\PSoC6\pdl\drivers\peripheral\scb/cy_scb_spi.h **** *   </tr>
 282:Generated_Source\PSoC6\pdl\drivers\peripheral\scb/cy_scb_spi.h **** *   <tr>
 283:Generated_Source\PSoC6\pdl\drivers\peripheral\scb/cy_scb_spi.h **** *     <td>14.7</td>
 284:Generated_Source\PSoC6\pdl\drivers\peripheral\scb/cy_scb_spi.h **** *     <td>R</td>
 285:Generated_Source\PSoC6\pdl\drivers\peripheral\scb/cy_scb_spi.h **** *     <td>A function shall have a single point of exit at the end of the
 286:Generated_Source\PSoC6\pdl\drivers\peripheral\scb/cy_scb_spi.h **** *         function.</td>
 287:Generated_Source\PSoC6\pdl\drivers\peripheral\scb/cy_scb_spi.h **** *     <td>The functions can return from several points. This is done to improve
 288:Generated_Source\PSoC6\pdl\drivers\peripheral\scb/cy_scb_spi.h **** *         code clarity when returning error status code if input parameters
 289:Generated_Source\PSoC6\pdl\drivers\peripheral\scb/cy_scb_spi.h **** *         validation is failed.</td>
 290:Generated_Source\PSoC6\pdl\drivers\peripheral\scb/cy_scb_spi.h **** *   </tr>
 291:Generated_Source\PSoC6\pdl\drivers\peripheral\scb/cy_scb_spi.h **** * </table>
 292:Generated_Source\PSoC6\pdl\drivers\peripheral\scb/cy_scb_spi.h **** *
 293:Generated_Source\PSoC6\pdl\drivers\peripheral\scb/cy_scb_spi.h **** * \section group_scb_spi_changelog Changelog
 294:Generated_Source\PSoC6\pdl\drivers\peripheral\scb/cy_scb_spi.h **** * <table class="doxtable">
 295:Generated_Source\PSoC6\pdl\drivers\peripheral\scb/cy_scb_spi.h **** *   <tr><th>Version</th><th>Changes</th><th>Reason for Change</th></tr>
 296:Generated_Source\PSoC6\pdl\drivers\peripheral\scb/cy_scb_spi.h **** *   <tr>
 297:Generated_Source\PSoC6\pdl\drivers\peripheral\scb/cy_scb_spi.h **** *     <td>2.10</td>
 298:Generated_Source\PSoC6\pdl\drivers\peripheral\scb/cy_scb_spi.h **** *     <td>None.</td>
 299:Generated_Source\PSoC6\pdl\drivers\peripheral\scb/cy_scb_spi.h **** *     <td>SCB I2C driver updated.</td>
 300:Generated_Source\PSoC6\pdl\drivers\peripheral\scb/cy_scb_spi.h **** *   </tr>
 301:Generated_Source\PSoC6\pdl\drivers\peripheral\scb/cy_scb_spi.h **** *   <tr>
 302:Generated_Source\PSoC6\pdl\drivers\peripheral\scb/cy_scb_spi.h **** *     <td rowspan="4"> 2.0</td>
 303:Generated_Source\PSoC6\pdl\drivers\peripheral\scb/cy_scb_spi.h **** *     <td>Fixed SPI callback notification when error event occurred.</td>
 304:Generated_Source\PSoC6\pdl\drivers\peripheral\scb/cy_scb_spi.h **** *     <td>The SPI callback passed incorrect event value if error event occurred.</td>
 305:Generated_Source\PSoC6\pdl\drivers\peripheral\scb/cy_scb_spi.h **** *   </tr>
 306:Generated_Source\PSoC6\pdl\drivers\peripheral\scb/cy_scb_spi.h **** *   <tr>
 307:Generated_Source\PSoC6\pdl\drivers\peripheral\scb/cy_scb_spi.h **** *     <td>Added parameters validation for public API.</td>
 308:Generated_Source\PSoC6\pdl\drivers\peripheral\scb/cy_scb_spi.h **** *     <td></td>
 309:Generated_Source\PSoC6\pdl\drivers\peripheral\scb/cy_scb_spi.h **** *   </tr>
 310:Generated_Source\PSoC6\pdl\drivers\peripheral\scb/cy_scb_spi.h **** *   <tr>
 311:Generated_Source\PSoC6\pdl\drivers\peripheral\scb/cy_scb_spi.h **** *     <td>Replaced variables that have limited range of values with enumerated
 312:Generated_Source\PSoC6\pdl\drivers\peripheral\scb/cy_scb_spi.h **** *         types.</td>
 313:Generated_Source\PSoC6\pdl\drivers\peripheral\scb/cy_scb_spi.h **** *     <td></td>
 314:Generated_Source\PSoC6\pdl\drivers\peripheral\scb/cy_scb_spi.h **** *   </tr>
 315:Generated_Source\PSoC6\pdl\drivers\peripheral\scb/cy_scb_spi.h **** *   <tr>
 316:Generated_Source\PSoC6\pdl\drivers\peripheral\scb/cy_scb_spi.h **** *     <td>Added missing "cy_cb_" to the callback function type names.</td>
 317:Generated_Source\PSoC6\pdl\drivers\peripheral\scb/cy_scb_spi.h **** *     <td></td>
 318:Generated_Source\PSoC6\pdl\drivers\peripheral\scb/cy_scb_spi.h **** *   </tr>
 319:Generated_Source\PSoC6\pdl\drivers\peripheral\scb/cy_scb_spi.h **** *   <tr>
 320:Generated_Source\PSoC6\pdl\drivers\peripheral\scb/cy_scb_spi.h **** *     <td>1.0</td>
 321:Generated_Source\PSoC6\pdl\drivers\peripheral\scb/cy_scb_spi.h **** *     <td>Initial version.</td>
 322:Generated_Source\PSoC6\pdl\drivers\peripheral\scb/cy_scb_spi.h **** *     <td></td>
 323:Generated_Source\PSoC6\pdl\drivers\peripheral\scb/cy_scb_spi.h **** *   </tr>
 324:Generated_Source\PSoC6\pdl\drivers\peripheral\scb/cy_scb_spi.h **** * </table>
 325:Generated_Source\PSoC6\pdl\drivers\peripheral\scb/cy_scb_spi.h **** *
 326:Generated_Source\PSoC6\pdl\drivers\peripheral\scb/cy_scb_spi.h **** * \defgroup group_scb_spi_macros Macros
ARM GAS  C:\Users\salaz\AppData\Local\Temp\ccynHHO7.s 			page 60


 327:Generated_Source\PSoC6\pdl\drivers\peripheral\scb/cy_scb_spi.h **** * \defgroup group_scb_spi_functions Functions
 328:Generated_Source\PSoC6\pdl\drivers\peripheral\scb/cy_scb_spi.h **** * \{
 329:Generated_Source\PSoC6\pdl\drivers\peripheral\scb/cy_scb_spi.h **** * \defgroup group_scb_spi_general_functions General
 330:Generated_Source\PSoC6\pdl\drivers\peripheral\scb/cy_scb_spi.h **** * \defgroup group_scb_spi_high_level_functions High-Level
 331:Generated_Source\PSoC6\pdl\drivers\peripheral\scb/cy_scb_spi.h **** * \defgroup group_scb_spi_low_level_functions Low-Level
 332:Generated_Source\PSoC6\pdl\drivers\peripheral\scb/cy_scb_spi.h **** * \defgroup group_scb_spi_interrupt_functions Interrupt
 333:Generated_Source\PSoC6\pdl\drivers\peripheral\scb/cy_scb_spi.h **** * \defgroup group_scb_spi_low_power_functions Low Power Callbacks
 334:Generated_Source\PSoC6\pdl\drivers\peripheral\scb/cy_scb_spi.h **** * \}
 335:Generated_Source\PSoC6\pdl\drivers\peripheral\scb/cy_scb_spi.h **** * \defgroup group_scb_spi_data_structures Data Structures
 336:Generated_Source\PSoC6\pdl\drivers\peripheral\scb/cy_scb_spi.h **** * \defgroup group_scb_spi_enums Enumerated Types
 337:Generated_Source\PSoC6\pdl\drivers\peripheral\scb/cy_scb_spi.h **** */
 338:Generated_Source\PSoC6\pdl\drivers\peripheral\scb/cy_scb_spi.h **** 
 339:Generated_Source\PSoC6\pdl\drivers\peripheral\scb/cy_scb_spi.h **** #if !defined(CY_SCB_SPI_H)
 340:Generated_Source\PSoC6\pdl\drivers\peripheral\scb/cy_scb_spi.h **** #define CY_SCB_SPI_H
 341:Generated_Source\PSoC6\pdl\drivers\peripheral\scb/cy_scb_spi.h **** 
 342:Generated_Source\PSoC6\pdl\drivers\peripheral\scb/cy_scb_spi.h **** #include "cy_scb_common.h"
 343:Generated_Source\PSoC6\pdl\drivers\peripheral\scb/cy_scb_spi.h **** 
 344:Generated_Source\PSoC6\pdl\drivers\peripheral\scb/cy_scb_spi.h **** #if defined(__cplusplus)
 345:Generated_Source\PSoC6\pdl\drivers\peripheral\scb/cy_scb_spi.h **** extern "C" {
 346:Generated_Source\PSoC6\pdl\drivers\peripheral\scb/cy_scb_spi.h **** #endif
 347:Generated_Source\PSoC6\pdl\drivers\peripheral\scb/cy_scb_spi.h **** 
 348:Generated_Source\PSoC6\pdl\drivers\peripheral\scb/cy_scb_spi.h **** /***************************************
 349:Generated_Source\PSoC6\pdl\drivers\peripheral\scb/cy_scb_spi.h **** *          Enumerated Types
 350:Generated_Source\PSoC6\pdl\drivers\peripheral\scb/cy_scb_spi.h **** ***************************************/
 351:Generated_Source\PSoC6\pdl\drivers\peripheral\scb/cy_scb_spi.h **** 
 352:Generated_Source\PSoC6\pdl\drivers\peripheral\scb/cy_scb_spi.h **** /**
 353:Generated_Source\PSoC6\pdl\drivers\peripheral\scb/cy_scb_spi.h **** * \addtogroup group_scb_spi_enums
 354:Generated_Source\PSoC6\pdl\drivers\peripheral\scb/cy_scb_spi.h **** * \{
 355:Generated_Source\PSoC6\pdl\drivers\peripheral\scb/cy_scb_spi.h **** */
 356:Generated_Source\PSoC6\pdl\drivers\peripheral\scb/cy_scb_spi.h **** 
 357:Generated_Source\PSoC6\pdl\drivers\peripheral\scb/cy_scb_spi.h **** /** SPI status codes */
 358:Generated_Source\PSoC6\pdl\drivers\peripheral\scb/cy_scb_spi.h **** typedef enum
 359:Generated_Source\PSoC6\pdl\drivers\peripheral\scb/cy_scb_spi.h **** {
 360:Generated_Source\PSoC6\pdl\drivers\peripheral\scb/cy_scb_spi.h ****     /** Operation completed successfully */
 361:Generated_Source\PSoC6\pdl\drivers\peripheral\scb/cy_scb_spi.h ****     CY_SCB_SPI_SUCCESS = 0U,
 362:Generated_Source\PSoC6\pdl\drivers\peripheral\scb/cy_scb_spi.h **** 
 363:Generated_Source\PSoC6\pdl\drivers\peripheral\scb/cy_scb_spi.h ****     /** One or more of input parameters are invalid */
 364:Generated_Source\PSoC6\pdl\drivers\peripheral\scb/cy_scb_spi.h ****     CY_SCB_SPI_BAD_PARAM = (CY_SCB_ID | CY_PDL_STATUS_ERROR | CY_SCB_SPI_ID | 1U),
 365:Generated_Source\PSoC6\pdl\drivers\peripheral\scb/cy_scb_spi.h **** 
 366:Generated_Source\PSoC6\pdl\drivers\peripheral\scb/cy_scb_spi.h ****     /**
 367:Generated_Source\PSoC6\pdl\drivers\peripheral\scb/cy_scb_spi.h ****     * The SPI is busy processing a transfer. Call \ref Cy_SCB_SPI_Transfer
 368:Generated_Source\PSoC6\pdl\drivers\peripheral\scb/cy_scb_spi.h ****     * function again once that transfer is completed or aborted.
 369:Generated_Source\PSoC6\pdl\drivers\peripheral\scb/cy_scb_spi.h ****     */
 370:Generated_Source\PSoC6\pdl\drivers\peripheral\scb/cy_scb_spi.h ****     CY_SCB_SPI_TRANSFER_BUSY = (CY_SCB_ID | CY_PDL_STATUS_ERROR | CY_SCB_SPI_ID | 2U)
 371:Generated_Source\PSoC6\pdl\drivers\peripheral\scb/cy_scb_spi.h **** } cy_en_scb_spi_status_t;
 372:Generated_Source\PSoC6\pdl\drivers\peripheral\scb/cy_scb_spi.h **** 
 373:Generated_Source\PSoC6\pdl\drivers\peripheral\scb/cy_scb_spi.h **** /** SPI Modes */
 374:Generated_Source\PSoC6\pdl\drivers\peripheral\scb/cy_scb_spi.h **** typedef enum
 375:Generated_Source\PSoC6\pdl\drivers\peripheral\scb/cy_scb_spi.h **** {
 376:Generated_Source\PSoC6\pdl\drivers\peripheral\scb/cy_scb_spi.h ****     CY_SCB_SPI_SLAVE,   /**< Configures SCB for SPI Slave operation  */
 377:Generated_Source\PSoC6\pdl\drivers\peripheral\scb/cy_scb_spi.h ****     CY_SCB_SPI_MASTER,  /**< Configures SCB for SPI Master operation */
 378:Generated_Source\PSoC6\pdl\drivers\peripheral\scb/cy_scb_spi.h **** } cy_en_scb_spi_mode_t;
 379:Generated_Source\PSoC6\pdl\drivers\peripheral\scb/cy_scb_spi.h **** 
 380:Generated_Source\PSoC6\pdl\drivers\peripheral\scb/cy_scb_spi.h **** /** SPI Submodes */
 381:Generated_Source\PSoC6\pdl\drivers\peripheral\scb/cy_scb_spi.h **** typedef enum
 382:Generated_Source\PSoC6\pdl\drivers\peripheral\scb/cy_scb_spi.h **** {
 383:Generated_Source\PSoC6\pdl\drivers\peripheral\scb/cy_scb_spi.h ****     /** Configures an SPI for a standard Motorola SPI operation */
ARM GAS  C:\Users\salaz\AppData\Local\Temp\ccynHHO7.s 			page 61


 384:Generated_Source\PSoC6\pdl\drivers\peripheral\scb/cy_scb_spi.h ****     CY_SCB_SPI_MOTOROLA     = 0x0U,
 385:Generated_Source\PSoC6\pdl\drivers\peripheral\scb/cy_scb_spi.h **** 
 386:Generated_Source\PSoC6\pdl\drivers\peripheral\scb/cy_scb_spi.h ****     /**
 387:Generated_Source\PSoC6\pdl\drivers\peripheral\scb/cy_scb_spi.h ****     * Configures the SPI for the TI SPI operation. In the TI mode, the slave
 388:Generated_Source\PSoC6\pdl\drivers\peripheral\scb/cy_scb_spi.h ****     * select is a pulse. In this case, the pulse coincides with the first bit.
 389:Generated_Source\PSoC6\pdl\drivers\peripheral\scb/cy_scb_spi.h ****     */
 390:Generated_Source\PSoC6\pdl\drivers\peripheral\scb/cy_scb_spi.h ****     CY_SCB_SPI_TI_COINCIDES = 0x01U,
 391:Generated_Source\PSoC6\pdl\drivers\peripheral\scb/cy_scb_spi.h **** 
 392:Generated_Source\PSoC6\pdl\drivers\peripheral\scb/cy_scb_spi.h ****     /**
 393:Generated_Source\PSoC6\pdl\drivers\peripheral\scb/cy_scb_spi.h ****     * Configures an SPI for the National SPI operation. This is a half-duplex
 394:Generated_Source\PSoC6\pdl\drivers\peripheral\scb/cy_scb_spi.h ****     * mode of operation.
 395:Generated_Source\PSoC6\pdl\drivers\peripheral\scb/cy_scb_spi.h ****     */
 396:Generated_Source\PSoC6\pdl\drivers\peripheral\scb/cy_scb_spi.h ****     CY_SCB_SPI_NATIONAL     = 0x02U,
 397:Generated_Source\PSoC6\pdl\drivers\peripheral\scb/cy_scb_spi.h **** 
 398:Generated_Source\PSoC6\pdl\drivers\peripheral\scb/cy_scb_spi.h ****     /**
 399:Generated_Source\PSoC6\pdl\drivers\peripheral\scb/cy_scb_spi.h ****     * Configures an SPI for the TI SPI operation, in the TI mode. The slave
 400:Generated_Source\PSoC6\pdl\drivers\peripheral\scb/cy_scb_spi.h ****     * select is a pulse. In this case the pulse precedes the first bit.
 401:Generated_Source\PSoC6\pdl\drivers\peripheral\scb/cy_scb_spi.h ****     */
 402:Generated_Source\PSoC6\pdl\drivers\peripheral\scb/cy_scb_spi.h ****     CY_SCB_SPI_TI_PRECEDES  = 0x05U,
 403:Generated_Source\PSoC6\pdl\drivers\peripheral\scb/cy_scb_spi.h **** } cy_en_scb_spi_sub_mode_t;
 404:Generated_Source\PSoC6\pdl\drivers\peripheral\scb/cy_scb_spi.h **** 
 405:Generated_Source\PSoC6\pdl\drivers\peripheral\scb/cy_scb_spi.h **** /** SPI SCLK Modes */
 406:Generated_Source\PSoC6\pdl\drivers\peripheral\scb/cy_scb_spi.h **** typedef enum
 407:Generated_Source\PSoC6\pdl\drivers\peripheral\scb/cy_scb_spi.h **** {
 408:Generated_Source\PSoC6\pdl\drivers\peripheral\scb/cy_scb_spi.h ****     CY_SCB_SPI_CPHA0_CPOL0 = 0U,   /**< Clock is active low, data is changed on first edge   */
 409:Generated_Source\PSoC6\pdl\drivers\peripheral\scb/cy_scb_spi.h ****     CY_SCB_SPI_CPHA0_CPOL1 = 1U,   /**< Clock is active high, data is changed on first edge  */
 410:Generated_Source\PSoC6\pdl\drivers\peripheral\scb/cy_scb_spi.h ****     CY_SCB_SPI_CPHA1_CPOL0 = 2U,   /**< Clock is active low, data is changed on second edge  */
 411:Generated_Source\PSoC6\pdl\drivers\peripheral\scb/cy_scb_spi.h ****     CY_SCB_SPI_CPHA1_CPOL1 = 3U,   /**< Clock is active high, data is changed on second edge */
 412:Generated_Source\PSoC6\pdl\drivers\peripheral\scb/cy_scb_spi.h **** } cy_en_scb_spi_sclk_mode_t;
 413:Generated_Source\PSoC6\pdl\drivers\peripheral\scb/cy_scb_spi.h **** 
 414:Generated_Source\PSoC6\pdl\drivers\peripheral\scb/cy_scb_spi.h **** /** SPI Slave Selects */
 415:Generated_Source\PSoC6\pdl\drivers\peripheral\scb/cy_scb_spi.h **** typedef enum
 416:Generated_Source\PSoC6\pdl\drivers\peripheral\scb/cy_scb_spi.h **** {
 417:Generated_Source\PSoC6\pdl\drivers\peripheral\scb/cy_scb_spi.h ****     CY_SCB_SPI_SLAVE_SELECT0 = 0U,   /**< Master will use Slave Select 0 */
 418:Generated_Source\PSoC6\pdl\drivers\peripheral\scb/cy_scb_spi.h ****     CY_SCB_SPI_SLAVE_SELECT1 = 1U,   /**< Master will use Slave Select 1 */
 419:Generated_Source\PSoC6\pdl\drivers\peripheral\scb/cy_scb_spi.h ****     CY_SCB_SPI_SLAVE_SELECT2 = 2U,   /**< Master will use Slave Select 2 */
 420:Generated_Source\PSoC6\pdl\drivers\peripheral\scb/cy_scb_spi.h ****     CY_SCB_SPI_SLAVE_SELECT3 = 3U,   /**< Master will use Slave Select 3 */
 421:Generated_Source\PSoC6\pdl\drivers\peripheral\scb/cy_scb_spi.h **** } cy_en_scb_spi_slave_select_t;
 422:Generated_Source\PSoC6\pdl\drivers\peripheral\scb/cy_scb_spi.h **** 
 423:Generated_Source\PSoC6\pdl\drivers\peripheral\scb/cy_scb_spi.h **** /** SPI Polarity */
 424:Generated_Source\PSoC6\pdl\drivers\peripheral\scb/cy_scb_spi.h **** typedef enum
 425:Generated_Source\PSoC6\pdl\drivers\peripheral\scb/cy_scb_spi.h **** {
 426:Generated_Source\PSoC6\pdl\drivers\peripheral\scb/cy_scb_spi.h ****     CY_SCB_SPI_ACTIVE_LOW  = 0U,    /**< Signal in question is active low */
 427:Generated_Source\PSoC6\pdl\drivers\peripheral\scb/cy_scb_spi.h ****     CY_SCB_SPI_ACTIVE_HIGH = 1U,    /**< Signal in question is active high */
 428:Generated_Source\PSoC6\pdl\drivers\peripheral\scb/cy_scb_spi.h **** } cy_en_scb_spi_polarity_t;
 429:Generated_Source\PSoC6\pdl\drivers\peripheral\scb/cy_scb_spi.h **** 
 430:Generated_Source\PSoC6\pdl\drivers\peripheral\scb/cy_scb_spi.h **** /** \} group_scb_spi_enums */
 431:Generated_Source\PSoC6\pdl\drivers\peripheral\scb/cy_scb_spi.h **** 
 432:Generated_Source\PSoC6\pdl\drivers\peripheral\scb/cy_scb_spi.h **** 
 433:Generated_Source\PSoC6\pdl\drivers\peripheral\scb/cy_scb_spi.h **** /***************************************
 434:Generated_Source\PSoC6\pdl\drivers\peripheral\scb/cy_scb_spi.h **** *       Type Definitions
 435:Generated_Source\PSoC6\pdl\drivers\peripheral\scb/cy_scb_spi.h **** ***************************************/
 436:Generated_Source\PSoC6\pdl\drivers\peripheral\scb/cy_scb_spi.h **** 
 437:Generated_Source\PSoC6\pdl\drivers\peripheral\scb/cy_scb_spi.h **** /**
 438:Generated_Source\PSoC6\pdl\drivers\peripheral\scb/cy_scb_spi.h **** * \addtogroup group_scb_spi_data_structures
 439:Generated_Source\PSoC6\pdl\drivers\peripheral\scb/cy_scb_spi.h **** * \{
 440:Generated_Source\PSoC6\pdl\drivers\peripheral\scb/cy_scb_spi.h **** */
ARM GAS  C:\Users\salaz\AppData\Local\Temp\ccynHHO7.s 			page 62


 441:Generated_Source\PSoC6\pdl\drivers\peripheral\scb/cy_scb_spi.h **** 
 442:Generated_Source\PSoC6\pdl\drivers\peripheral\scb/cy_scb_spi.h **** /**
 443:Generated_Source\PSoC6\pdl\drivers\peripheral\scb/cy_scb_spi.h **** * Provides the typedef for the callback function called in the
 444:Generated_Source\PSoC6\pdl\drivers\peripheral\scb/cy_scb_spi.h **** * \ref Cy_SCB_SPI_Interrupt to notify the user about occurrences of
 445:Generated_Source\PSoC6\pdl\drivers\peripheral\scb/cy_scb_spi.h **** * \ref group_scb_spi_macros_callback_events.
 446:Generated_Source\PSoC6\pdl\drivers\peripheral\scb/cy_scb_spi.h **** */
 447:Generated_Source\PSoC6\pdl\drivers\peripheral\scb/cy_scb_spi.h **** typedef void (* cy_cb_scb_spi_handle_events_t)(uint32_t event);
 448:Generated_Source\PSoC6\pdl\drivers\peripheral\scb/cy_scb_spi.h **** 
 449:Generated_Source\PSoC6\pdl\drivers\peripheral\scb/cy_scb_spi.h **** 
 450:Generated_Source\PSoC6\pdl\drivers\peripheral\scb/cy_scb_spi.h **** /** SPI configuration structure */
 451:Generated_Source\PSoC6\pdl\drivers\peripheral\scb/cy_scb_spi.h **** typedef struct cy_stc_scb_spi_config
 452:Generated_Source\PSoC6\pdl\drivers\peripheral\scb/cy_scb_spi.h **** {
 453:Generated_Source\PSoC6\pdl\drivers\peripheral\scb/cy_scb_spi.h ****     /** Specifies the mode of operation */
 454:Generated_Source\PSoC6\pdl\drivers\peripheral\scb/cy_scb_spi.h ****     cy_en_scb_spi_mode_t    spiMode;
 455:Generated_Source\PSoC6\pdl\drivers\peripheral\scb/cy_scb_spi.h **** 
 456:Generated_Source\PSoC6\pdl\drivers\peripheral\scb/cy_scb_spi.h ****     /** Specifies the submode of SPI operation */
 457:Generated_Source\PSoC6\pdl\drivers\peripheral\scb/cy_scb_spi.h ****     cy_en_scb_spi_sub_mode_t    subMode;
 458:Generated_Source\PSoC6\pdl\drivers\peripheral\scb/cy_scb_spi.h **** 
 459:Generated_Source\PSoC6\pdl\drivers\peripheral\scb/cy_scb_spi.h ****     /**
 460:Generated_Source\PSoC6\pdl\drivers\peripheral\scb/cy_scb_spi.h ****     * Configures the SCLK operation for Motorola sub-mode, ignored for all
 461:Generated_Source\PSoC6\pdl\drivers\peripheral\scb/cy_scb_spi.h ****     * other submodes
 462:Generated_Source\PSoC6\pdl\drivers\peripheral\scb/cy_scb_spi.h ****     */
 463:Generated_Source\PSoC6\pdl\drivers\peripheral\scb/cy_scb_spi.h ****     cy_en_scb_spi_sclk_mode_t    sclkMode;
 464:Generated_Source\PSoC6\pdl\drivers\peripheral\scb/cy_scb_spi.h **** 
 465:Generated_Source\PSoC6\pdl\drivers\peripheral\scb/cy_scb_spi.h ****     /**
 466:Generated_Source\PSoC6\pdl\drivers\peripheral\scb/cy_scb_spi.h ****     * Oversample factor for SPI.
 467:Generated_Source\PSoC6\pdl\drivers\peripheral\scb/cy_scb_spi.h ****     * * For the master mode, the data rate is the SCB clock / oversample
 468:Generated_Source\PSoC6\pdl\drivers\peripheral\scb/cy_scb_spi.h ****     *   (valid range is 4-16).
 469:Generated_Source\PSoC6\pdl\drivers\peripheral\scb/cy_scb_spi.h ****     * * For the slave mode, the oversample value is ignored. The data rate is
 470:Generated_Source\PSoC6\pdl\drivers\peripheral\scb/cy_scb_spi.h ****     *   determined by the SCB clock frequency. See the device datasheet for
 471:Generated_Source\PSoC6\pdl\drivers\peripheral\scb/cy_scb_spi.h ****     *   more details.
 472:Generated_Source\PSoC6\pdl\drivers\peripheral\scb/cy_scb_spi.h ****     */
 473:Generated_Source\PSoC6\pdl\drivers\peripheral\scb/cy_scb_spi.h ****     uint32_t    oversample;
 474:Generated_Source\PSoC6\pdl\drivers\peripheral\scb/cy_scb_spi.h **** 
 475:Generated_Source\PSoC6\pdl\drivers\peripheral\scb/cy_scb_spi.h ****     /**
 476:Generated_Source\PSoC6\pdl\drivers\peripheral\scb/cy_scb_spi.h ****     * The width of RX data (valid range 4-16). It must be the same as
 477:Generated_Source\PSoC6\pdl\drivers\peripheral\scb/cy_scb_spi.h ****     * \ref txDataWidth except in National sub-mode.
 478:Generated_Source\PSoC6\pdl\drivers\peripheral\scb/cy_scb_spi.h ****     */
 479:Generated_Source\PSoC6\pdl\drivers\peripheral\scb/cy_scb_spi.h ****     uint32_t    rxDataWidth;
 480:Generated_Source\PSoC6\pdl\drivers\peripheral\scb/cy_scb_spi.h **** 
 481:Generated_Source\PSoC6\pdl\drivers\peripheral\scb/cy_scb_spi.h ****     /**
 482:Generated_Source\PSoC6\pdl\drivers\peripheral\scb/cy_scb_spi.h ****     * The width of TX data (valid range 4-16). It must be the same as
 483:Generated_Source\PSoC6\pdl\drivers\peripheral\scb/cy_scb_spi.h ****     * \ref rxDataWidth except in National sub-mode.
 484:Generated_Source\PSoC6\pdl\drivers\peripheral\scb/cy_scb_spi.h ****     */
 485:Generated_Source\PSoC6\pdl\drivers\peripheral\scb/cy_scb_spi.h ****     uint32_t    txDataWidth;
 486:Generated_Source\PSoC6\pdl\drivers\peripheral\scb/cy_scb_spi.h **** 
 487:Generated_Source\PSoC6\pdl\drivers\peripheral\scb/cy_scb_spi.h ****     /**
 488:Generated_Source\PSoC6\pdl\drivers\peripheral\scb/cy_scb_spi.h ****     * Enables the hardware to shift out the data element MSB first, otherwise,
 489:Generated_Source\PSoC6\pdl\drivers\peripheral\scb/cy_scb_spi.h ****     * LSB first
 490:Generated_Source\PSoC6\pdl\drivers\peripheral\scb/cy_scb_spi.h ****     */
 491:Generated_Source\PSoC6\pdl\drivers\peripheral\scb/cy_scb_spi.h ****     bool        enableMsbFirst;
 492:Generated_Source\PSoC6\pdl\drivers\peripheral\scb/cy_scb_spi.h **** 
 493:Generated_Source\PSoC6\pdl\drivers\peripheral\scb/cy_scb_spi.h ****     /**
 494:Generated_Source\PSoC6\pdl\drivers\peripheral\scb/cy_scb_spi.h ****     * Enables the master to generate a continuous SCLK regardless of whether
 495:Generated_Source\PSoC6\pdl\drivers\peripheral\scb/cy_scb_spi.h ****     * there is data to send
 496:Generated_Source\PSoC6\pdl\drivers\peripheral\scb/cy_scb_spi.h ****     */
 497:Generated_Source\PSoC6\pdl\drivers\peripheral\scb/cy_scb_spi.h ****     bool        enableFreeRunSclk;
ARM GAS  C:\Users\salaz\AppData\Local\Temp\ccynHHO7.s 			page 63


 498:Generated_Source\PSoC6\pdl\drivers\peripheral\scb/cy_scb_spi.h **** 
 499:Generated_Source\PSoC6\pdl\drivers\peripheral\scb/cy_scb_spi.h ****     /**
 500:Generated_Source\PSoC6\pdl\drivers\peripheral\scb/cy_scb_spi.h ****     * Enables a digital 3-tap median filter to be applied to the input
 501:Generated_Source\PSoC6\pdl\drivers\peripheral\scb/cy_scb_spi.h ****     * of the RX FIFO to filter glitches on the line.
 502:Generated_Source\PSoC6\pdl\drivers\peripheral\scb/cy_scb_spi.h ****     */
 503:Generated_Source\PSoC6\pdl\drivers\peripheral\scb/cy_scb_spi.h ****     bool        enableInputFilter;
 504:Generated_Source\PSoC6\pdl\drivers\peripheral\scb/cy_scb_spi.h **** 
 505:Generated_Source\PSoC6\pdl\drivers\peripheral\scb/cy_scb_spi.h ****     /**
 506:Generated_Source\PSoC6\pdl\drivers\peripheral\scb/cy_scb_spi.h ****     * Enables the master to sample MISO line one half clock later to allow
 507:Generated_Source\PSoC6\pdl\drivers\peripheral\scb/cy_scb_spi.h ****     * better timings.
 508:Generated_Source\PSoC6\pdl\drivers\peripheral\scb/cy_scb_spi.h ****     */
 509:Generated_Source\PSoC6\pdl\drivers\peripheral\scb/cy_scb_spi.h ****     bool        enableMisoLateSample;
 510:Generated_Source\PSoC6\pdl\drivers\peripheral\scb/cy_scb_spi.h **** 
 511:Generated_Source\PSoC6\pdl\drivers\peripheral\scb/cy_scb_spi.h ****     /**
 512:Generated_Source\PSoC6\pdl\drivers\peripheral\scb/cy_scb_spi.h ****     * Enables the master to transmit each data element separated by a
 513:Generated_Source\PSoC6\pdl\drivers\peripheral\scb/cy_scb_spi.h ****     * de-assertion of the slave select line (only applicable for the master
 514:Generated_Source\PSoC6\pdl\drivers\peripheral\scb/cy_scb_spi.h ****     * mode)
 515:Generated_Source\PSoC6\pdl\drivers\peripheral\scb/cy_scb_spi.h ****     */
 516:Generated_Source\PSoC6\pdl\drivers\peripheral\scb/cy_scb_spi.h ****     bool        enableTransferSeperation;
 517:Generated_Source\PSoC6\pdl\drivers\peripheral\scb/cy_scb_spi.h **** 
 518:Generated_Source\PSoC6\pdl\drivers\peripheral\scb/cy_scb_spi.h ****     /**
 519:Generated_Source\PSoC6\pdl\drivers\peripheral\scb/cy_scb_spi.h ****     * Sets active polarity of each SS line.
 520:Generated_Source\PSoC6\pdl\drivers\peripheral\scb/cy_scb_spi.h ****     * This is a bit mask: bit 0 corresponds to SS0 and so on to SS3.
 521:Generated_Source\PSoC6\pdl\drivers\peripheral\scb/cy_scb_spi.h ****     * 1 means active high, a 0 means active low.
 522:Generated_Source\PSoC6\pdl\drivers\peripheral\scb/cy_scb_spi.h ****     */
 523:Generated_Source\PSoC6\pdl\drivers\peripheral\scb/cy_scb_spi.h ****     uint32_t    ssPolarity;
 524:Generated_Source\PSoC6\pdl\drivers\peripheral\scb/cy_scb_spi.h **** 
 525:Generated_Source\PSoC6\pdl\drivers\peripheral\scb/cy_scb_spi.h ****     /**
 526:Generated_Source\PSoC6\pdl\drivers\peripheral\scb/cy_scb_spi.h ****     * When set, the slave will wake the device when the slave select line
 527:Generated_Source\PSoC6\pdl\drivers\peripheral\scb/cy_scb_spi.h ****     * becomes active.
 528:Generated_Source\PSoC6\pdl\drivers\peripheral\scb/cy_scb_spi.h ****     * Note that not all SCBs support this mode. Consult the device
 529:Generated_Source\PSoC6\pdl\drivers\peripheral\scb/cy_scb_spi.h ****     * datasheet to determine which SCBs support wake from Deep Sleep.
 530:Generated_Source\PSoC6\pdl\drivers\peripheral\scb/cy_scb_spi.h ****     */
 531:Generated_Source\PSoC6\pdl\drivers\peripheral\scb/cy_scb_spi.h ****     bool        enableWakeFromSleep;
 532:Generated_Source\PSoC6\pdl\drivers\peripheral\scb/cy_scb_spi.h **** 
 533:Generated_Source\PSoC6\pdl\drivers\peripheral\scb/cy_scb_spi.h ****     /**
 534:Generated_Source\PSoC6\pdl\drivers\peripheral\scb/cy_scb_spi.h ****     * When there are more entries in the RX FIFO, then at this level
 535:Generated_Source\PSoC6\pdl\drivers\peripheral\scb/cy_scb_spi.h ****     * the RX trigger output goes high. This output can be connected
 536:Generated_Source\PSoC6\pdl\drivers\peripheral\scb/cy_scb_spi.h ****     * to a DMA channel through a trigger mux.
 537:Generated_Source\PSoC6\pdl\drivers\peripheral\scb/cy_scb_spi.h ****     * Also, it controls the \ref CY_SCB_SPI_RX_TRIGGER interrupt source.
 538:Generated_Source\PSoC6\pdl\drivers\peripheral\scb/cy_scb_spi.h ****     */
 539:Generated_Source\PSoC6\pdl\drivers\peripheral\scb/cy_scb_spi.h ****     uint32_t    rxFifoTriggerLevel;
 540:Generated_Source\PSoC6\pdl\drivers\peripheral\scb/cy_scb_spi.h **** 
 541:Generated_Source\PSoC6\pdl\drivers\peripheral\scb/cy_scb_spi.h ****     /**
 542:Generated_Source\PSoC6\pdl\drivers\peripheral\scb/cy_scb_spi.h ****     * Bits set in this mask will allow events to cause an interrupt
 543:Generated_Source\PSoC6\pdl\drivers\peripheral\scb/cy_scb_spi.h ****     * (See \ref group_scb_spi_macros_rx_fifo_status for the set of constant)
 544:Generated_Source\PSoC6\pdl\drivers\peripheral\scb/cy_scb_spi.h ****     */
 545:Generated_Source\PSoC6\pdl\drivers\peripheral\scb/cy_scb_spi.h ****     uint32_t    rxFifoIntEnableMask;
 546:Generated_Source\PSoC6\pdl\drivers\peripheral\scb/cy_scb_spi.h **** 
 547:Generated_Source\PSoC6\pdl\drivers\peripheral\scb/cy_scb_spi.h ****     /**
 548:Generated_Source\PSoC6\pdl\drivers\peripheral\scb/cy_scb_spi.h ****     * When there are fewer entries in the TX FIFO, then at this level
 549:Generated_Source\PSoC6\pdl\drivers\peripheral\scb/cy_scb_spi.h ****     * the TX trigger output goes high. This output can be connected
 550:Generated_Source\PSoC6\pdl\drivers\peripheral\scb/cy_scb_spi.h ****     * to a DMA channel through a trigger mux.
 551:Generated_Source\PSoC6\pdl\drivers\peripheral\scb/cy_scb_spi.h ****     * Also, it controls the \ref CY_SCB_SPI_TX_TRIGGER interrupt source.
 552:Generated_Source\PSoC6\pdl\drivers\peripheral\scb/cy_scb_spi.h ****     */
 553:Generated_Source\PSoC6\pdl\drivers\peripheral\scb/cy_scb_spi.h ****     uint32_t    txFifoTriggerLevel;
 554:Generated_Source\PSoC6\pdl\drivers\peripheral\scb/cy_scb_spi.h **** 
ARM GAS  C:\Users\salaz\AppData\Local\Temp\ccynHHO7.s 			page 64


 555:Generated_Source\PSoC6\pdl\drivers\peripheral\scb/cy_scb_spi.h ****     /**
 556:Generated_Source\PSoC6\pdl\drivers\peripheral\scb/cy_scb_spi.h ****     * Bits set in this mask allow events to cause an interrupt
 557:Generated_Source\PSoC6\pdl\drivers\peripheral\scb/cy_scb_spi.h ****     * (See \ref group_scb_spi_macros_tx_fifo_status for the set of constants)
 558:Generated_Source\PSoC6\pdl\drivers\peripheral\scb/cy_scb_spi.h ****     */
 559:Generated_Source\PSoC6\pdl\drivers\peripheral\scb/cy_scb_spi.h ****     uint32_t    txFifoIntEnableMask;
 560:Generated_Source\PSoC6\pdl\drivers\peripheral\scb/cy_scb_spi.h **** 
 561:Generated_Source\PSoC6\pdl\drivers\peripheral\scb/cy_scb_spi.h ****     /**
 562:Generated_Source\PSoC6\pdl\drivers\peripheral\scb/cy_scb_spi.h ****     * Bits set in this mask allow events to cause an interrupt
 563:Generated_Source\PSoC6\pdl\drivers\peripheral\scb/cy_scb_spi.h ****     * (See \ref group_scb_spi_macros_master_slave_status for the set of
 564:Generated_Source\PSoC6\pdl\drivers\peripheral\scb/cy_scb_spi.h ****     * constants)
 565:Generated_Source\PSoC6\pdl\drivers\peripheral\scb/cy_scb_spi.h ****     */
 566:Generated_Source\PSoC6\pdl\drivers\peripheral\scb/cy_scb_spi.h ****     uint32_t    masterSlaveIntEnableMask;
 567:Generated_Source\PSoC6\pdl\drivers\peripheral\scb/cy_scb_spi.h **** 
 568:Generated_Source\PSoC6\pdl\drivers\peripheral\scb/cy_scb_spi.h **** }cy_stc_scb_spi_config_t;
 569:Generated_Source\PSoC6\pdl\drivers\peripheral\scb/cy_scb_spi.h **** 
 570:Generated_Source\PSoC6\pdl\drivers\peripheral\scb/cy_scb_spi.h **** /** SPI context structure.
 571:Generated_Source\PSoC6\pdl\drivers\peripheral\scb/cy_scb_spi.h **** * All fields for the context structure are internal. Firmware never reads or
 572:Generated_Source\PSoC6\pdl\drivers\peripheral\scb/cy_scb_spi.h **** * writes these values. Firmware allocates the structure and provides the
 573:Generated_Source\PSoC6\pdl\drivers\peripheral\scb/cy_scb_spi.h **** * address of the structure to the driver in function calls. Firmware must
 574:Generated_Source\PSoC6\pdl\drivers\peripheral\scb/cy_scb_spi.h **** * ensure that the defined instance of this structure remains in scope
 575:Generated_Source\PSoC6\pdl\drivers\peripheral\scb/cy_scb_spi.h **** * while the drive is in use.
 576:Generated_Source\PSoC6\pdl\drivers\peripheral\scb/cy_scb_spi.h **** */
 577:Generated_Source\PSoC6\pdl\drivers\peripheral\scb/cy_scb_spi.h **** typedef struct cy_stc_scb_spi_context
 578:Generated_Source\PSoC6\pdl\drivers\peripheral\scb/cy_scb_spi.h **** {
 579:Generated_Source\PSoC6\pdl\drivers\peripheral\scb/cy_scb_spi.h ****     /** \cond INTERNAL */
 580:Generated_Source\PSoC6\pdl\drivers\peripheral\scb/cy_scb_spi.h ****     uint32_t volatile status;       /**< The receive status */
 581:Generated_Source\PSoC6\pdl\drivers\peripheral\scb/cy_scb_spi.h **** 
 582:Generated_Source\PSoC6\pdl\drivers\peripheral\scb/cy_scb_spi.h ****     void    *rxBuf;                 /**< The pointer to the receive buffer */
 583:Generated_Source\PSoC6\pdl\drivers\peripheral\scb/cy_scb_spi.h ****     uint32_t rxBufSize;             /**< The receive buffer size */
 584:Generated_Source\PSoC6\pdl\drivers\peripheral\scb/cy_scb_spi.h ****     uint32_t volatile rxBufIdx;     /**< The current location in the receive buffer */
 585:Generated_Source\PSoC6\pdl\drivers\peripheral\scb/cy_scb_spi.h **** 
 586:Generated_Source\PSoC6\pdl\drivers\peripheral\scb/cy_scb_spi.h ****     void    *txBuf;                 /**< The pointer to the transmit buffer */
 587:Generated_Source\PSoC6\pdl\drivers\peripheral\scb/cy_scb_spi.h ****     uint32_t txBufSize;             /**< The transmit buffer size */
 588:Generated_Source\PSoC6\pdl\drivers\peripheral\scb/cy_scb_spi.h ****     uint32_t volatile txBufIdx;     /**< The current location in the transmit buffer */
 589:Generated_Source\PSoC6\pdl\drivers\peripheral\scb/cy_scb_spi.h **** 
 590:Generated_Source\PSoC6\pdl\drivers\peripheral\scb/cy_scb_spi.h ****     /**
 591:Generated_Source\PSoC6\pdl\drivers\peripheral\scb/cy_scb_spi.h ****     * The pointer to an event callback that is called when any of
 592:Generated_Source\PSoC6\pdl\drivers\peripheral\scb/cy_scb_spi.h ****     * \ref group_scb_spi_macros_callback_events occurs
 593:Generated_Source\PSoC6\pdl\drivers\peripheral\scb/cy_scb_spi.h ****     */
 594:Generated_Source\PSoC6\pdl\drivers\peripheral\scb/cy_scb_spi.h ****     cy_cb_scb_spi_handle_events_t cbEvents;
 595:Generated_Source\PSoC6\pdl\drivers\peripheral\scb/cy_scb_spi.h **** 
 596:Generated_Source\PSoC6\pdl\drivers\peripheral\scb/cy_scb_spi.h **** #if !defined(NDEBUG)
 597:Generated_Source\PSoC6\pdl\drivers\peripheral\scb/cy_scb_spi.h ****     uint32_t initKey;               /**< Tracks the context initialization */
 598:Generated_Source\PSoC6\pdl\drivers\peripheral\scb/cy_scb_spi.h **** #endif /* !(NDEBUG) */
 599:Generated_Source\PSoC6\pdl\drivers\peripheral\scb/cy_scb_spi.h ****     /** \endcond */
 600:Generated_Source\PSoC6\pdl\drivers\peripheral\scb/cy_scb_spi.h **** } cy_stc_scb_spi_context_t;
 601:Generated_Source\PSoC6\pdl\drivers\peripheral\scb/cy_scb_spi.h **** 
 602:Generated_Source\PSoC6\pdl\drivers\peripheral\scb/cy_scb_spi.h **** /** \} group_scb_spi_data_structures */
 603:Generated_Source\PSoC6\pdl\drivers\peripheral\scb/cy_scb_spi.h **** 
 604:Generated_Source\PSoC6\pdl\drivers\peripheral\scb/cy_scb_spi.h **** 
 605:Generated_Source\PSoC6\pdl\drivers\peripheral\scb/cy_scb_spi.h **** /***************************************
 606:Generated_Source\PSoC6\pdl\drivers\peripheral\scb/cy_scb_spi.h **** *        Function Prototypes
 607:Generated_Source\PSoC6\pdl\drivers\peripheral\scb/cy_scb_spi.h **** ***************************************/
 608:Generated_Source\PSoC6\pdl\drivers\peripheral\scb/cy_scb_spi.h **** 
 609:Generated_Source\PSoC6\pdl\drivers\peripheral\scb/cy_scb_spi.h **** /**
 610:Generated_Source\PSoC6\pdl\drivers\peripheral\scb/cy_scb_spi.h **** * \addtogroup group_scb_spi_general_functions
 611:Generated_Source\PSoC6\pdl\drivers\peripheral\scb/cy_scb_spi.h **** * \{
ARM GAS  C:\Users\salaz\AppData\Local\Temp\ccynHHO7.s 			page 65


 612:Generated_Source\PSoC6\pdl\drivers\peripheral\scb/cy_scb_spi.h **** */
 613:Generated_Source\PSoC6\pdl\drivers\peripheral\scb/cy_scb_spi.h **** cy_en_scb_spi_status_t Cy_SCB_SPI_Init(CySCB_Type *base, cy_stc_scb_spi_config_t const *config,
 614:Generated_Source\PSoC6\pdl\drivers\peripheral\scb/cy_scb_spi.h ****                                        cy_stc_scb_spi_context_t *context);
 615:Generated_Source\PSoC6\pdl\drivers\peripheral\scb/cy_scb_spi.h **** void Cy_SCB_SPI_DeInit (CySCB_Type *base);
 616:Generated_Source\PSoC6\pdl\drivers\peripheral\scb/cy_scb_spi.h **** __STATIC_INLINE void Cy_SCB_SPI_Enable(CySCB_Type *base);
 617:Generated_Source\PSoC6\pdl\drivers\peripheral\scb/cy_scb_spi.h **** void Cy_SCB_SPI_Disable(CySCB_Type *base, cy_stc_scb_spi_context_t *context);
 618:Generated_Source\PSoC6\pdl\drivers\peripheral\scb/cy_scb_spi.h **** 
 619:Generated_Source\PSoC6\pdl\drivers\peripheral\scb/cy_scb_spi.h **** __STATIC_INLINE void Cy_SCB_SPI_SetActiveSlaveSelect(CySCB_Type *base,
 620:Generated_Source\PSoC6\pdl\drivers\peripheral\scb/cy_scb_spi.h ****                                     cy_en_scb_spi_slave_select_t slaveSelect);
 621:Generated_Source\PSoC6\pdl\drivers\peripheral\scb/cy_scb_spi.h **** __STATIC_INLINE void Cy_SCB_SPI_SetActiveSlaveSelectPolarity(CySCB_Type *base,
 622:Generated_Source\PSoC6\pdl\drivers\peripheral\scb/cy_scb_spi.h ****                                     cy_en_scb_spi_slave_select_t slaveSelect,
 623:Generated_Source\PSoC6\pdl\drivers\peripheral\scb/cy_scb_spi.h ****                                     cy_en_scb_spi_polarity_t polarity);
 624:Generated_Source\PSoC6\pdl\drivers\peripheral\scb/cy_scb_spi.h **** 
 625:Generated_Source\PSoC6\pdl\drivers\peripheral\scb/cy_scb_spi.h **** __STATIC_INLINE bool Cy_SCB_SPI_IsBusBusy(CySCB_Type const *base);
 626:Generated_Source\PSoC6\pdl\drivers\peripheral\scb/cy_scb_spi.h **** /** \} group_scb_spi_general_functions */
 627:Generated_Source\PSoC6\pdl\drivers\peripheral\scb/cy_scb_spi.h **** 
 628:Generated_Source\PSoC6\pdl\drivers\peripheral\scb/cy_scb_spi.h **** /**
 629:Generated_Source\PSoC6\pdl\drivers\peripheral\scb/cy_scb_spi.h **** * \addtogroup group_scb_spi_high_level_functions
 630:Generated_Source\PSoC6\pdl\drivers\peripheral\scb/cy_scb_spi.h **** * \{
 631:Generated_Source\PSoC6\pdl\drivers\peripheral\scb/cy_scb_spi.h **** */
 632:Generated_Source\PSoC6\pdl\drivers\peripheral\scb/cy_scb_spi.h **** cy_en_scb_spi_status_t Cy_SCB_SPI_Transfer(CySCB_Type *base, void *txBuffer, void *rxBuffer, uint32
 633:Generated_Source\PSoC6\pdl\drivers\peripheral\scb/cy_scb_spi.h ****                                            cy_stc_scb_spi_context_t *context);
 634:Generated_Source\PSoC6\pdl\drivers\peripheral\scb/cy_scb_spi.h **** void     Cy_SCB_SPI_AbortTransfer    (CySCB_Type *base, cy_stc_scb_spi_context_t *context);
 635:Generated_Source\PSoC6\pdl\drivers\peripheral\scb/cy_scb_spi.h **** uint32_t Cy_SCB_SPI_GetTransferStatus(CySCB_Type const *base, cy_stc_scb_spi_context_t const *conte
 636:Generated_Source\PSoC6\pdl\drivers\peripheral\scb/cy_scb_spi.h **** uint32_t Cy_SCB_SPI_GetNumTransfered (CySCB_Type const *base, cy_stc_scb_spi_context_t const *conte
 637:Generated_Source\PSoC6\pdl\drivers\peripheral\scb/cy_scb_spi.h **** /** \} group_scb_spi_high_level_functions */
 638:Generated_Source\PSoC6\pdl\drivers\peripheral\scb/cy_scb_spi.h **** 
 639:Generated_Source\PSoC6\pdl\drivers\peripheral\scb/cy_scb_spi.h **** /**
 640:Generated_Source\PSoC6\pdl\drivers\peripheral\scb/cy_scb_spi.h **** * \addtogroup group_scb_spi_low_level_functions
 641:Generated_Source\PSoC6\pdl\drivers\peripheral\scb/cy_scb_spi.h **** * \{
 642:Generated_Source\PSoC6\pdl\drivers\peripheral\scb/cy_scb_spi.h **** */
 643:Generated_Source\PSoC6\pdl\drivers\peripheral\scb/cy_scb_spi.h **** __STATIC_INLINE uint32_t Cy_SCB_SPI_Read     (CySCB_Type const *base);
 644:Generated_Source\PSoC6\pdl\drivers\peripheral\scb/cy_scb_spi.h **** __STATIC_INLINE uint32_t Cy_SCB_SPI_ReadArray(CySCB_Type const *base, void *buffer, uint32_t size);
 645:Generated_Source\PSoC6\pdl\drivers\peripheral\scb/cy_scb_spi.h **** 
 646:Generated_Source\PSoC6\pdl\drivers\peripheral\scb/cy_scb_spi.h **** __STATIC_INLINE uint32_t Cy_SCB_SPI_Write     (CySCB_Type *base, uint32_t data);
 647:Generated_Source\PSoC6\pdl\drivers\peripheral\scb/cy_scb_spi.h **** __STATIC_INLINE uint32_t Cy_SCB_SPI_WriteArray(CySCB_Type *base, void *buffer, uint32_t size);
 648:Generated_Source\PSoC6\pdl\drivers\peripheral\scb/cy_scb_spi.h **** __STATIC_INLINE void     Cy_SCB_SPI_WriteArrayBlocking(CySCB_Type *base, void *buffer, uint32_t siz
 649:Generated_Source\PSoC6\pdl\drivers\peripheral\scb/cy_scb_spi.h **** 
 650:Generated_Source\PSoC6\pdl\drivers\peripheral\scb/cy_scb_spi.h **** __STATIC_INLINE uint32_t Cy_SCB_SPI_GetTxFifoStatus  (CySCB_Type const *base);
 651:Generated_Source\PSoC6\pdl\drivers\peripheral\scb/cy_scb_spi.h **** __STATIC_INLINE void     Cy_SCB_SPI_ClearTxFifoStatus(CySCB_Type *base, uint32_t clearMask);
 652:Generated_Source\PSoC6\pdl\drivers\peripheral\scb/cy_scb_spi.h **** 
 653:Generated_Source\PSoC6\pdl\drivers\peripheral\scb/cy_scb_spi.h **** __STATIC_INLINE uint32_t Cy_SCB_SPI_GetRxFifoStatus  (CySCB_Type const *base);
 654:Generated_Source\PSoC6\pdl\drivers\peripheral\scb/cy_scb_spi.h **** __STATIC_INLINE void     Cy_SCB_SPI_ClearRxFifoStatus(CySCB_Type *base, uint32_t clearMask);
 655:Generated_Source\PSoC6\pdl\drivers\peripheral\scb/cy_scb_spi.h **** 
 656:Generated_Source\PSoC6\pdl\drivers\peripheral\scb/cy_scb_spi.h **** __STATIC_INLINE uint32_t Cy_SCB_SPI_GetSlaveMasterStatus  (CySCB_Type const *base);
 657:Generated_Source\PSoC6\pdl\drivers\peripheral\scb/cy_scb_spi.h **** __STATIC_INLINE void     Cy_SCB_SPI_ClearSlaveMasterStatus(CySCB_Type *base, uint32_t clearMask);
 658:Generated_Source\PSoC6\pdl\drivers\peripheral\scb/cy_scb_spi.h **** 
 659:Generated_Source\PSoC6\pdl\drivers\peripheral\scb/cy_scb_spi.h **** __STATIC_INLINE uint32_t Cy_SCB_SPI_GetNumInTxFifo(CySCB_Type const *base);
 660:Generated_Source\PSoC6\pdl\drivers\peripheral\scb/cy_scb_spi.h **** __STATIC_INLINE bool     Cy_SCB_SPI_IsTxComplete  (CySCB_Type const *base);
 661:Generated_Source\PSoC6\pdl\drivers\peripheral\scb/cy_scb_spi.h **** 
 662:Generated_Source\PSoC6\pdl\drivers\peripheral\scb/cy_scb_spi.h **** __STATIC_INLINE uint32_t Cy_SCB_SPI_GetNumInRxFifo(CySCB_Type const *base);
 663:Generated_Source\PSoC6\pdl\drivers\peripheral\scb/cy_scb_spi.h **** 
 664:Generated_Source\PSoC6\pdl\drivers\peripheral\scb/cy_scb_spi.h **** __STATIC_INLINE void Cy_SCB_SPI_ClearRxFifo(CySCB_Type *base);
 665:Generated_Source\PSoC6\pdl\drivers\peripheral\scb/cy_scb_spi.h **** __STATIC_INLINE void Cy_SCB_SPI_ClearTxFifo(CySCB_Type *base);
 666:Generated_Source\PSoC6\pdl\drivers\peripheral\scb/cy_scb_spi.h **** /** \} group_scb_spi_low_level_functions */
 667:Generated_Source\PSoC6\pdl\drivers\peripheral\scb/cy_scb_spi.h **** 
 668:Generated_Source\PSoC6\pdl\drivers\peripheral\scb/cy_scb_spi.h **** /**
ARM GAS  C:\Users\salaz\AppData\Local\Temp\ccynHHO7.s 			page 66


 669:Generated_Source\PSoC6\pdl\drivers\peripheral\scb/cy_scb_spi.h **** * \addtogroup group_scb_spi_interrupt_functions
 670:Generated_Source\PSoC6\pdl\drivers\peripheral\scb/cy_scb_spi.h **** * \{
 671:Generated_Source\PSoC6\pdl\drivers\peripheral\scb/cy_scb_spi.h **** */
 672:Generated_Source\PSoC6\pdl\drivers\peripheral\scb/cy_scb_spi.h **** void Cy_SCB_SPI_Interrupt(CySCB_Type *base, cy_stc_scb_spi_context_t *context);
 673:Generated_Source\PSoC6\pdl\drivers\peripheral\scb/cy_scb_spi.h **** 
 674:Generated_Source\PSoC6\pdl\drivers\peripheral\scb/cy_scb_spi.h **** __STATIC_INLINE void Cy_SCB_SPI_RegisterCallback(CySCB_Type const *base, cy_cb_scb_spi_handle_event
 675:Generated_Source\PSoC6\pdl\drivers\peripheral\scb/cy_scb_spi.h ****                                                  cy_stc_scb_spi_context_t *context);
 676:Generated_Source\PSoC6\pdl\drivers\peripheral\scb/cy_scb_spi.h **** /** \} group_scb_spi_interrupt_functions */
 677:Generated_Source\PSoC6\pdl\drivers\peripheral\scb/cy_scb_spi.h **** 
 678:Generated_Source\PSoC6\pdl\drivers\peripheral\scb/cy_scb_spi.h **** /**
 679:Generated_Source\PSoC6\pdl\drivers\peripheral\scb/cy_scb_spi.h **** * \addtogroup group_scb_spi_low_power_functions
 680:Generated_Source\PSoC6\pdl\drivers\peripheral\scb/cy_scb_spi.h **** * \{
 681:Generated_Source\PSoC6\pdl\drivers\peripheral\scb/cy_scb_spi.h **** */
 682:Generated_Source\PSoC6\pdl\drivers\peripheral\scb/cy_scb_spi.h **** cy_en_syspm_status_t Cy_SCB_SPI_DeepSleepCallback(cy_stc_syspm_callback_params_t *callbackParams);
 683:Generated_Source\PSoC6\pdl\drivers\peripheral\scb/cy_scb_spi.h **** cy_en_syspm_status_t Cy_SCB_SPI_HibernateCallback(cy_stc_syspm_callback_params_t *callbackParams);
 684:Generated_Source\PSoC6\pdl\drivers\peripheral\scb/cy_scb_spi.h **** /** \} group_scb_spi_low_power_functions */
 685:Generated_Source\PSoC6\pdl\drivers\peripheral\scb/cy_scb_spi.h **** 
 686:Generated_Source\PSoC6\pdl\drivers\peripheral\scb/cy_scb_spi.h **** 
 687:Generated_Source\PSoC6\pdl\drivers\peripheral\scb/cy_scb_spi.h **** /***************************************
 688:Generated_Source\PSoC6\pdl\drivers\peripheral\scb/cy_scb_spi.h **** *            API Constants
 689:Generated_Source\PSoC6\pdl\drivers\peripheral\scb/cy_scb_spi.h **** ***************************************/
 690:Generated_Source\PSoC6\pdl\drivers\peripheral\scb/cy_scb_spi.h **** 
 691:Generated_Source\PSoC6\pdl\drivers\peripheral\scb/cy_scb_spi.h **** /**
 692:Generated_Source\PSoC6\pdl\drivers\peripheral\scb/cy_scb_spi.h **** * \addtogroup group_scb_spi_macros
 693:Generated_Source\PSoC6\pdl\drivers\peripheral\scb/cy_scb_spi.h **** * \{
 694:Generated_Source\PSoC6\pdl\drivers\peripheral\scb/cy_scb_spi.h **** */
 695:Generated_Source\PSoC6\pdl\drivers\peripheral\scb/cy_scb_spi.h **** 
 696:Generated_Source\PSoC6\pdl\drivers\peripheral\scb/cy_scb_spi.h **** /**
 697:Generated_Source\PSoC6\pdl\drivers\peripheral\scb/cy_scb_spi.h **** * \defgroup group_scb_spi_macros_tx_fifo_status SPI TX FIFO Statuses
 698:Generated_Source\PSoC6\pdl\drivers\peripheral\scb/cy_scb_spi.h **** * Each SPI TX FIFO status is encoded in a separate bit. Therefore multiple bits
 699:Generated_Source\PSoC6\pdl\drivers\peripheral\scb/cy_scb_spi.h **** * may be set to indicate the current status.
 700:Generated_Source\PSoC6\pdl\drivers\peripheral\scb/cy_scb_spi.h **** * \{
 701:Generated_Source\PSoC6\pdl\drivers\peripheral\scb/cy_scb_spi.h **** */
 702:Generated_Source\PSoC6\pdl\drivers\peripheral\scb/cy_scb_spi.h **** /** The number of entries in the TX FIFO is less than the TX FIFO trigger level
 703:Generated_Source\PSoC6\pdl\drivers\peripheral\scb/cy_scb_spi.h **** * value
 704:Generated_Source\PSoC6\pdl\drivers\peripheral\scb/cy_scb_spi.h **** */
 705:Generated_Source\PSoC6\pdl\drivers\peripheral\scb/cy_scb_spi.h **** #define CY_SCB_SPI_TX_TRIGGER       (SCB_INTR_TX_TRIGGER_Msk)
 706:Generated_Source\PSoC6\pdl\drivers\peripheral\scb/cy_scb_spi.h **** 
 707:Generated_Source\PSoC6\pdl\drivers\peripheral\scb/cy_scb_spi.h **** /** The TX FIFO is not full, there is a space for more data */
 708:Generated_Source\PSoC6\pdl\drivers\peripheral\scb/cy_scb_spi.h **** #define CY_SCB_SPI_TX_NOT_FULL      (SCB_INTR_TX_NOT_FULL_Msk)
 709:Generated_Source\PSoC6\pdl\drivers\peripheral\scb/cy_scb_spi.h **** 
 710:Generated_Source\PSoC6\pdl\drivers\peripheral\scb/cy_scb_spi.h **** /**
 711:Generated_Source\PSoC6\pdl\drivers\peripheral\scb/cy_scb_spi.h **** * The TX FIFO is empty, note that there may still be data in the shift register.
 712:Generated_Source\PSoC6\pdl\drivers\peripheral\scb/cy_scb_spi.h **** */
 713:Generated_Source\PSoC6\pdl\drivers\peripheral\scb/cy_scb_spi.h **** #define CY_SCB_SPI_TX_EMPTY         (SCB_INTR_TX_EMPTY_Msk)
 714:Generated_Source\PSoC6\pdl\drivers\peripheral\scb/cy_scb_spi.h **** 
 715:Generated_Source\PSoC6\pdl\drivers\peripheral\scb/cy_scb_spi.h **** /** An attempt to write to the full TX FIFO */
 716:Generated_Source\PSoC6\pdl\drivers\peripheral\scb/cy_scb_spi.h **** #define CY_SCB_SPI_TX_OVERFLOW      (SCB_INTR_TX_OVERFLOW_Msk)
 717:Generated_Source\PSoC6\pdl\drivers\peripheral\scb/cy_scb_spi.h **** 
 718:Generated_Source\PSoC6\pdl\drivers\peripheral\scb/cy_scb_spi.h **** /**
 719:Generated_Source\PSoC6\pdl\drivers\peripheral\scb/cy_scb_spi.h **** * Applicable only for the slave mode. The master tried to read more
 720:Generated_Source\PSoC6\pdl\drivers\peripheral\scb/cy_scb_spi.h **** * data elements than available.
 721:Generated_Source\PSoC6\pdl\drivers\peripheral\scb/cy_scb_spi.h **** */
 722:Generated_Source\PSoC6\pdl\drivers\peripheral\scb/cy_scb_spi.h **** #define CY_SCB_SPI_TX_UNDERFLOW     (SCB_INTR_TX_UNDERFLOW_Msk)
 723:Generated_Source\PSoC6\pdl\drivers\peripheral\scb/cy_scb_spi.h **** /** \} group_scb_spi_macros_tx_fifo_status */
 724:Generated_Source\PSoC6\pdl\drivers\peripheral\scb/cy_scb_spi.h **** 
 725:Generated_Source\PSoC6\pdl\drivers\peripheral\scb/cy_scb_spi.h **** /**
ARM GAS  C:\Users\salaz\AppData\Local\Temp\ccynHHO7.s 			page 67


 726:Generated_Source\PSoC6\pdl\drivers\peripheral\scb/cy_scb_spi.h **** * \defgroup group_scb_spi_macros_rx_fifo_status SPI RX FIFO Statuses
 727:Generated_Source\PSoC6\pdl\drivers\peripheral\scb/cy_scb_spi.h **** * \{
 728:Generated_Source\PSoC6\pdl\drivers\peripheral\scb/cy_scb_spi.h **** * Each SPI RX FIFO status is encoded in a separate bit. Therefore, multiple
 729:Generated_Source\PSoC6\pdl\drivers\peripheral\scb/cy_scb_spi.h **** * bits may be set to indicate the current status.
 730:Generated_Source\PSoC6\pdl\drivers\peripheral\scb/cy_scb_spi.h **** */
 731:Generated_Source\PSoC6\pdl\drivers\peripheral\scb/cy_scb_spi.h **** /** The number of entries in the RX FIFO is more than the RX FIFO trigger
 732:Generated_Source\PSoC6\pdl\drivers\peripheral\scb/cy_scb_spi.h **** * level value.
 733:Generated_Source\PSoC6\pdl\drivers\peripheral\scb/cy_scb_spi.h **** */
 734:Generated_Source\PSoC6\pdl\drivers\peripheral\scb/cy_scb_spi.h **** #define CY_SCB_SPI_RX_TRIGGER       (SCB_INTR_RX_TRIGGER_Msk)
 735:Generated_Source\PSoC6\pdl\drivers\peripheral\scb/cy_scb_spi.h **** 
 736:Generated_Source\PSoC6\pdl\drivers\peripheral\scb/cy_scb_spi.h **** /** The RX FIFO is not empty, there is data to read */
 737:Generated_Source\PSoC6\pdl\drivers\peripheral\scb/cy_scb_spi.h **** #define CY_SCB_SPI_RX_NOT_EMPTY     (SCB_INTR_RX_NOT_EMPTY_Msk)
 738:Generated_Source\PSoC6\pdl\drivers\peripheral\scb/cy_scb_spi.h **** 
 739:Generated_Source\PSoC6\pdl\drivers\peripheral\scb/cy_scb_spi.h **** /**
 740:Generated_Source\PSoC6\pdl\drivers\peripheral\scb/cy_scb_spi.h **** * The RX FIFO is full. There is no more space for additional data.
 741:Generated_Source\PSoC6\pdl\drivers\peripheral\scb/cy_scb_spi.h **** * Any additional data will be dropped.
 742:Generated_Source\PSoC6\pdl\drivers\peripheral\scb/cy_scb_spi.h **** */
 743:Generated_Source\PSoC6\pdl\drivers\peripheral\scb/cy_scb_spi.h **** #define CY_SCB_SPI_RX_FULL          (SCB_INTR_RX_FULL_Msk)
 744:Generated_Source\PSoC6\pdl\drivers\peripheral\scb/cy_scb_spi.h **** 
 745:Generated_Source\PSoC6\pdl\drivers\peripheral\scb/cy_scb_spi.h **** /**
 746:Generated_Source\PSoC6\pdl\drivers\peripheral\scb/cy_scb_spi.h **** * The RX FIFO was full and there was an attempt to write to it.
 747:Generated_Source\PSoC6\pdl\drivers\peripheral\scb/cy_scb_spi.h **** * This additional data was dropped.
 748:Generated_Source\PSoC6\pdl\drivers\peripheral\scb/cy_scb_spi.h **** */
 749:Generated_Source\PSoC6\pdl\drivers\peripheral\scb/cy_scb_spi.h **** #define CY_SCB_SPI_RX_OVERFLOW      (SCB_INTR_RX_OVERFLOW_Msk)
 750:Generated_Source\PSoC6\pdl\drivers\peripheral\scb/cy_scb_spi.h **** 
 751:Generated_Source\PSoC6\pdl\drivers\peripheral\scb/cy_scb_spi.h **** /** An attempt to read from an empty RX FIFO */
 752:Generated_Source\PSoC6\pdl\drivers\peripheral\scb/cy_scb_spi.h **** #define CY_SCB_SPI_RX_UNDERFLOW     (SCB_INTR_RX_UNDERFLOW_Msk)
 753:Generated_Source\PSoC6\pdl\drivers\peripheral\scb/cy_scb_spi.h **** /** \} group_scb_spi_macros_rx_fifo_status */
 754:Generated_Source\PSoC6\pdl\drivers\peripheral\scb/cy_scb_spi.h **** 
 755:Generated_Source\PSoC6\pdl\drivers\peripheral\scb/cy_scb_spi.h **** /**
 756:Generated_Source\PSoC6\pdl\drivers\peripheral\scb/cy_scb_spi.h **** * \defgroup group_scb_spi_macros_master_slave_status SPI Master and Slave Statuses
 757:Generated_Source\PSoC6\pdl\drivers\peripheral\scb/cy_scb_spi.h **** * \{
 758:Generated_Source\PSoC6\pdl\drivers\peripheral\scb/cy_scb_spi.h **** */
 759:Generated_Source\PSoC6\pdl\drivers\peripheral\scb/cy_scb_spi.h **** /** The slave was deselected at the wrong time */
 760:Generated_Source\PSoC6\pdl\drivers\peripheral\scb/cy_scb_spi.h **** #define CY_SCB_SPI_SLAVE_ERR       (SCB_INTR_S_SPI_BUS_ERROR_Msk)
 761:Generated_Source\PSoC6\pdl\drivers\peripheral\scb/cy_scb_spi.h **** 
 762:Generated_Source\PSoC6\pdl\drivers\peripheral\scb/cy_scb_spi.h **** /** The master has transmitted all data elements from FIFO and shifter */
 763:Generated_Source\PSoC6\pdl\drivers\peripheral\scb/cy_scb_spi.h **** #define CY_SCB_SPI_MASTER_DONE     (SCB_INTR_M_SPI_DONE_Msk)
 764:Generated_Source\PSoC6\pdl\drivers\peripheral\scb/cy_scb_spi.h **** /** \} group_scb_spi_macros_master_slave_status */
 765:Generated_Source\PSoC6\pdl\drivers\peripheral\scb/cy_scb_spi.h **** 
 766:Generated_Source\PSoC6\pdl\drivers\peripheral\scb/cy_scb_spi.h **** /**
 767:Generated_Source\PSoC6\pdl\drivers\peripheral\scb/cy_scb_spi.h **** * \defgroup group_scb_spi_macros_xfer_status SPI Transfer Status
 768:Generated_Source\PSoC6\pdl\drivers\peripheral\scb/cy_scb_spi.h **** * \{
 769:Generated_Source\PSoC6\pdl\drivers\peripheral\scb/cy_scb_spi.h **** * Each SPI transfer status is encoded in a separate bit, therefore multiple bits
 770:Generated_Source\PSoC6\pdl\drivers\peripheral\scb/cy_scb_spi.h **** * may be set to indicate the current status.
 771:Generated_Source\PSoC6\pdl\drivers\peripheral\scb/cy_scb_spi.h **** */
 772:Generated_Source\PSoC6\pdl\drivers\peripheral\scb/cy_scb_spi.h **** /**
 773:Generated_Source\PSoC6\pdl\drivers\peripheral\scb/cy_scb_spi.h **** * Transfer operation started by \ref Cy_SCB_SPI_Transfer is in progress
 774:Generated_Source\PSoC6\pdl\drivers\peripheral\scb/cy_scb_spi.h **** */
 775:Generated_Source\PSoC6\pdl\drivers\peripheral\scb/cy_scb_spi.h **** #define CY_SCB_SPI_TRANSFER_ACTIVE     (0x01UL)
 776:Generated_Source\PSoC6\pdl\drivers\peripheral\scb/cy_scb_spi.h **** 
 777:Generated_Source\PSoC6\pdl\drivers\peripheral\scb/cy_scb_spi.h **** /**
 778:Generated_Source\PSoC6\pdl\drivers\peripheral\scb/cy_scb_spi.h **** * All data elements specified by \ref Cy_SCB_SPI_Transfer for transmission
 779:Generated_Source\PSoC6\pdl\drivers\peripheral\scb/cy_scb_spi.h **** * have been loaded into the TX FIFO
 780:Generated_Source\PSoC6\pdl\drivers\peripheral\scb/cy_scb_spi.h **** */
 781:Generated_Source\PSoC6\pdl\drivers\peripheral\scb/cy_scb_spi.h **** #define CY_SCB_SPI_TRANSFER_IN_FIFO    (0x02UL)
 782:Generated_Source\PSoC6\pdl\drivers\peripheral\scb/cy_scb_spi.h **** 
ARM GAS  C:\Users\salaz\AppData\Local\Temp\ccynHHO7.s 			page 68


 783:Generated_Source\PSoC6\pdl\drivers\peripheral\scb/cy_scb_spi.h **** /** The slave was deselected at the wrong time. */
 784:Generated_Source\PSoC6\pdl\drivers\peripheral\scb/cy_scb_spi.h **** #define CY_SCB_SPI_SLAVE_TRANSFER_ERR  (SCB_INTR_S_SPI_BUS_ERROR_Msk)
 785:Generated_Source\PSoC6\pdl\drivers\peripheral\scb/cy_scb_spi.h **** 
 786:Generated_Source\PSoC6\pdl\drivers\peripheral\scb/cy_scb_spi.h **** /**
 787:Generated_Source\PSoC6\pdl\drivers\peripheral\scb/cy_scb_spi.h **** * RX FIFO was full and there was an attempt to write to it.
 788:Generated_Source\PSoC6\pdl\drivers\peripheral\scb/cy_scb_spi.h **** * This additional data was dropped.
 789:Generated_Source\PSoC6\pdl\drivers\peripheral\scb/cy_scb_spi.h **** */
 790:Generated_Source\PSoC6\pdl\drivers\peripheral\scb/cy_scb_spi.h **** #define CY_SCB_SPI_TRANSFER_OVERFLOW   (SCB_INTR_RX_OVERFLOW_Msk)
 791:Generated_Source\PSoC6\pdl\drivers\peripheral\scb/cy_scb_spi.h **** 
 792:Generated_Source\PSoC6\pdl\drivers\peripheral\scb/cy_scb_spi.h **** /**
 793:Generated_Source\PSoC6\pdl\drivers\peripheral\scb/cy_scb_spi.h **** * Applicable only for the slave mode. The master tried to read more
 794:Generated_Source\PSoC6\pdl\drivers\peripheral\scb/cy_scb_spi.h **** * data elements than available in the TX FIFO.
 795:Generated_Source\PSoC6\pdl\drivers\peripheral\scb/cy_scb_spi.h **** */
 796:Generated_Source\PSoC6\pdl\drivers\peripheral\scb/cy_scb_spi.h **** #define CY_SCB_SPI_TRANSFER_UNDERFLOW  (SCB_INTR_TX_UNDERFLOW_Msk)
 797:Generated_Source\PSoC6\pdl\drivers\peripheral\scb/cy_scb_spi.h **** /** \} group_scb_spi_macros_xfer_status */
 798:Generated_Source\PSoC6\pdl\drivers\peripheral\scb/cy_scb_spi.h **** 
 799:Generated_Source\PSoC6\pdl\drivers\peripheral\scb/cy_scb_spi.h **** /**
 800:Generated_Source\PSoC6\pdl\drivers\peripheral\scb/cy_scb_spi.h **** * \defgroup group_scb_spi_macros_callback_events SPI Callback Events
 801:Generated_Source\PSoC6\pdl\drivers\peripheral\scb/cy_scb_spi.h **** * \{
 802:Generated_Source\PSoC6\pdl\drivers\peripheral\scb/cy_scb_spi.h **** * Only single event is notified by the callback.
 803:Generated_Source\PSoC6\pdl\drivers\peripheral\scb/cy_scb_spi.h **** */
 804:Generated_Source\PSoC6\pdl\drivers\peripheral\scb/cy_scb_spi.h **** /**
 805:Generated_Source\PSoC6\pdl\drivers\peripheral\scb/cy_scb_spi.h **** * All data elements specified by \ref Cy_SCB_SPI_Transfer for transmission
 806:Generated_Source\PSoC6\pdl\drivers\peripheral\scb/cy_scb_spi.h **** * have been loaded into the TX FIFO
 807:Generated_Source\PSoC6\pdl\drivers\peripheral\scb/cy_scb_spi.h **** */
 808:Generated_Source\PSoC6\pdl\drivers\peripheral\scb/cy_scb_spi.h **** #define CY_SCB_SPI_TRANSFER_IN_FIFO_EVENT  (0x01U)
 809:Generated_Source\PSoC6\pdl\drivers\peripheral\scb/cy_scb_spi.h **** 
 810:Generated_Source\PSoC6\pdl\drivers\peripheral\scb/cy_scb_spi.h **** /** The transfer operation started by \ref Cy_SCB_SPI_Transfer is complete */
 811:Generated_Source\PSoC6\pdl\drivers\peripheral\scb/cy_scb_spi.h **** #define CY_SCB_SPI_TRANSFER_CMPLT_EVENT    (0x02U)
 812:Generated_Source\PSoC6\pdl\drivers\peripheral\scb/cy_scb_spi.h **** 
 813:Generated_Source\PSoC6\pdl\drivers\peripheral\scb/cy_scb_spi.h **** /**
 814:Generated_Source\PSoC6\pdl\drivers\peripheral\scb/cy_scb_spi.h **** * An error occurred during the transfer. This includes overflow, underflow
 815:Generated_Source\PSoC6\pdl\drivers\peripheral\scb/cy_scb_spi.h **** * and a transfer error. Check \ref Cy_SCB_SPI_GetTransferStatus.
 816:Generated_Source\PSoC6\pdl\drivers\peripheral\scb/cy_scb_spi.h **** */
 817:Generated_Source\PSoC6\pdl\drivers\peripheral\scb/cy_scb_spi.h **** #define CY_SCB_SPI_TRANSFER_ERR_EVENT      (0x04U)
 818:Generated_Source\PSoC6\pdl\drivers\peripheral\scb/cy_scb_spi.h **** /** \} group_scb_spi_macros_callback_events */
 819:Generated_Source\PSoC6\pdl\drivers\peripheral\scb/cy_scb_spi.h **** 
 820:Generated_Source\PSoC6\pdl\drivers\peripheral\scb/cy_scb_spi.h **** 
 821:Generated_Source\PSoC6\pdl\drivers\peripheral\scb/cy_scb_spi.h **** /** Default TX value when no TX buffer is defined */
 822:Generated_Source\PSoC6\pdl\drivers\peripheral\scb/cy_scb_spi.h **** #define CY_SCB_SPI_DEFAULT_TX  (0x0000FFFFUL)
 823:Generated_Source\PSoC6\pdl\drivers\peripheral\scb/cy_scb_spi.h **** 
 824:Generated_Source\PSoC6\pdl\drivers\peripheral\scb/cy_scb_spi.h **** /** Data returned by the hardware when an empty RX FIFO is read */
 825:Generated_Source\PSoC6\pdl\drivers\peripheral\scb/cy_scb_spi.h **** #define CY_SCB_SPI_RX_NO_DATA  (0xFFFFFFFFUL)
 826:Generated_Source\PSoC6\pdl\drivers\peripheral\scb/cy_scb_spi.h **** 
 827:Generated_Source\PSoC6\pdl\drivers\peripheral\scb/cy_scb_spi.h **** 
 828:Generated_Source\PSoC6\pdl\drivers\peripheral\scb/cy_scb_spi.h **** /***************************************
 829:Generated_Source\PSoC6\pdl\drivers\peripheral\scb/cy_scb_spi.h **** *         Internal Constants
 830:Generated_Source\PSoC6\pdl\drivers\peripheral\scb/cy_scb_spi.h **** ***************************************/
 831:Generated_Source\PSoC6\pdl\drivers\peripheral\scb/cy_scb_spi.h **** 
 832:Generated_Source\PSoC6\pdl\drivers\peripheral\scb/cy_scb_spi.h **** /** \cond INTERNAL */
 833:Generated_Source\PSoC6\pdl\drivers\peripheral\scb/cy_scb_spi.h **** #define CY_SCB_SPI_RX_INTR_MASK  (CY_SCB_SPI_RX_TRIGGER  | CY_SCB_SPI_RX_NOT_EMPTY | CY_SCB_SPI_RX_
 834:Generated_Source\PSoC6\pdl\drivers\peripheral\scb/cy_scb_spi.h ****                                   CY_SCB_SPI_RX_OVERFLOW | CY_SCB_SPI_RX_UNDERFLOW)
 835:Generated_Source\PSoC6\pdl\drivers\peripheral\scb/cy_scb_spi.h **** 
 836:Generated_Source\PSoC6\pdl\drivers\peripheral\scb/cy_scb_spi.h **** #define CY_SCB_SPI_TX_INTR_MASK  (CY_SCB_SPI_TX_TRIGGER  | CY_SCB_SPI_TX_NOT_FULL | CY_SCB_SPI_TX_E
 837:Generated_Source\PSoC6\pdl\drivers\peripheral\scb/cy_scb_spi.h ****                                   CY_SCB_SPI_TX_OVERFLOW | CY_SCB_SPI_TX_UNDERFLOW)
 838:Generated_Source\PSoC6\pdl\drivers\peripheral\scb/cy_scb_spi.h **** 
 839:Generated_Source\PSoC6\pdl\drivers\peripheral\scb/cy_scb_spi.h **** #define CY_SCB_SPI_MASTER_SLAVE_INTR_MASK (CY_SCB_SPI_MASTER_DONE | CY_SCB_SPI_SLAVE_ERR)
ARM GAS  C:\Users\salaz\AppData\Local\Temp\ccynHHO7.s 			page 69


 840:Generated_Source\PSoC6\pdl\drivers\peripheral\scb/cy_scb_spi.h **** 
 841:Generated_Source\PSoC6\pdl\drivers\peripheral\scb/cy_scb_spi.h **** #define CY_SCB_SPI_TRANSFER_ERR    (CY_SCB_SPI_SLAVE_TRANSFER_ERR | CY_SCB_SPI_TRANSFER_OVERFLOW | 
 842:Generated_Source\PSoC6\pdl\drivers\peripheral\scb/cy_scb_spi.h ****                                     CY_SCB_SPI_TRANSFER_UNDERFLOW)
 843:Generated_Source\PSoC6\pdl\drivers\peripheral\scb/cy_scb_spi.h **** 
 844:Generated_Source\PSoC6\pdl\drivers\peripheral\scb/cy_scb_spi.h **** #define CY_SCB_SPI_INIT_KEY        (0x00ABCDEFUL)
 845:Generated_Source\PSoC6\pdl\drivers\peripheral\scb/cy_scb_spi.h **** 
 846:Generated_Source\PSoC6\pdl\drivers\peripheral\scb/cy_scb_spi.h **** #define CY_SCB_SPI_IS_MODE_VALID(mode)          ( (CY_SCB_SPI_SLAVE  == (mode)) || \
 847:Generated_Source\PSoC6\pdl\drivers\peripheral\scb/cy_scb_spi.h ****                                                   (CY_SCB_SPI_MASTER == (mode)) )
 848:Generated_Source\PSoC6\pdl\drivers\peripheral\scb/cy_scb_spi.h **** 
 849:Generated_Source\PSoC6\pdl\drivers\peripheral\scb/cy_scb_spi.h **** #define CY_SCB_SPI_IS_SUB_MODE_VALID(subMode)   ( (CY_SCB_SPI_MOTOROLA     == (subMode)) || \
 850:Generated_Source\PSoC6\pdl\drivers\peripheral\scb/cy_scb_spi.h ****                                                   (CY_SCB_SPI_TI_COINCIDES == (subMode)) || \
 851:Generated_Source\PSoC6\pdl\drivers\peripheral\scb/cy_scb_spi.h ****                                                   (CY_SCB_SPI_TI_PRECEDES  == (subMode)) || \
 852:Generated_Source\PSoC6\pdl\drivers\peripheral\scb/cy_scb_spi.h ****                                                   (CY_SCB_SPI_NATIONAL     == (subMode)) )
 853:Generated_Source\PSoC6\pdl\drivers\peripheral\scb/cy_scb_spi.h **** 
 854:Generated_Source\PSoC6\pdl\drivers\peripheral\scb/cy_scb_spi.h **** #define CY_SCB_SPI_IS_SCLK_MODE_VALID(clkMode)  ( (CY_SCB_SPI_CPHA0_CPOL0 == (clkMode)) || \
 855:Generated_Source\PSoC6\pdl\drivers\peripheral\scb/cy_scb_spi.h ****                                                   (CY_SCB_SPI_CPHA0_CPOL1 == (clkMode)) || \
 856:Generated_Source\PSoC6\pdl\drivers\peripheral\scb/cy_scb_spi.h ****                                                   (CY_SCB_SPI_CPHA1_CPOL0 == (clkMode)) || \
 857:Generated_Source\PSoC6\pdl\drivers\peripheral\scb/cy_scb_spi.h ****                                                   (CY_SCB_SPI_CPHA1_CPOL1 == (clkMode)) )
 858:Generated_Source\PSoC6\pdl\drivers\peripheral\scb/cy_scb_spi.h **** 
 859:Generated_Source\PSoC6\pdl\drivers\peripheral\scb/cy_scb_spi.h **** #define CY_SCB_SPI_IS_POLARITY_VALID(polarity)  ( (CY_SCB_SPI_ACTIVE_LOW  == (polarity)) || \
 860:Generated_Source\PSoC6\pdl\drivers\peripheral\scb/cy_scb_spi.h ****                                                   (CY_SCB_SPI_ACTIVE_HIGH == (polarity)) )
 861:Generated_Source\PSoC6\pdl\drivers\peripheral\scb/cy_scb_spi.h **** 
 862:Generated_Source\PSoC6\pdl\drivers\peripheral\scb/cy_scb_spi.h **** #define CY_SCB_SPI_IS_SLAVE_SEL_VALID(ss)       ( (CY_SCB_SPI_SLAVE_SELECT0 == (ss)) || \
 863:Generated_Source\PSoC6\pdl\drivers\peripheral\scb/cy_scb_spi.h ****                                                   (CY_SCB_SPI_SLAVE_SELECT1 == (ss)) || \
 864:Generated_Source\PSoC6\pdl\drivers\peripheral\scb/cy_scb_spi.h ****                                                   (CY_SCB_SPI_SLAVE_SELECT2 == (ss)) || \
 865:Generated_Source\PSoC6\pdl\drivers\peripheral\scb/cy_scb_spi.h ****                                                   (CY_SCB_SPI_SLAVE_SELECT3 == (ss)) )
 866:Generated_Source\PSoC6\pdl\drivers\peripheral\scb/cy_scb_spi.h **** 
 867:Generated_Source\PSoC6\pdl\drivers\peripheral\scb/cy_scb_spi.h **** #define CY_SCB_SPI_IS_OVERSAMPLE_VALID(ovs, mode)   ( (CY_SCB_SPI_MASTER == (mode)) ? (((ovs) >= 2U
 868:Generated_Source\PSoC6\pdl\drivers\peripheral\scb/cy_scb_spi.h **** #define CY_SCB_SPI_IS_DATA_WIDTH_VALID(width)       ( ((width) >= 4UL) && ((width) <= 16UL) )
 869:Generated_Source\PSoC6\pdl\drivers\peripheral\scb/cy_scb_spi.h **** #define CY_SCB_SPI_IS_SS_POLARITY_VALID(polarity)   ( (0UL == ((polarity) & (~0x0FUL))) )
 870:Generated_Source\PSoC6\pdl\drivers\peripheral\scb/cy_scb_spi.h **** #define CY_SCB_SPI_IS_BUFFER_VALID(txBuffer, rxBuffer, size)  ( ((size) > 0UL)  && \
 871:Generated_Source\PSoC6\pdl\drivers\peripheral\scb/cy_scb_spi.h ****                                                                  (false == ((NULL == (txBuffer)) &&
 872:Generated_Source\PSoC6\pdl\drivers\peripheral\scb/cy_scb_spi.h **** 
 873:Generated_Source\PSoC6\pdl\drivers\peripheral\scb/cy_scb_spi.h **** #define CY_SCB_SPI_IS_BOTH_DATA_WIDTH_VALID(subMode, rxWidth, txWidth)  ( (CY_SCB_SPI_NATIONAL != (
 874:Generated_Source\PSoC6\pdl\drivers\peripheral\scb/cy_scb_spi.h ****                                                                                     ((rxWidth) == (
 875:Generated_Source\PSoC6\pdl\drivers\peripheral\scb/cy_scb_spi.h **** 
 876:Generated_Source\PSoC6\pdl\drivers\peripheral\scb/cy_scb_spi.h **** /** \endcond */
 877:Generated_Source\PSoC6\pdl\drivers\peripheral\scb/cy_scb_spi.h **** 
 878:Generated_Source\PSoC6\pdl\drivers\peripheral\scb/cy_scb_spi.h **** /** \} group_scb_spi_macros */
 879:Generated_Source\PSoC6\pdl\drivers\peripheral\scb/cy_scb_spi.h **** 
 880:Generated_Source\PSoC6\pdl\drivers\peripheral\scb/cy_scb_spi.h **** 
 881:Generated_Source\PSoC6\pdl\drivers\peripheral\scb/cy_scb_spi.h **** /***************************************
 882:Generated_Source\PSoC6\pdl\drivers\peripheral\scb/cy_scb_spi.h **** *    In-line Function Implementation
 883:Generated_Source\PSoC6\pdl\drivers\peripheral\scb/cy_scb_spi.h **** ***************************************/
 884:Generated_Source\PSoC6\pdl\drivers\peripheral\scb/cy_scb_spi.h **** 
 885:Generated_Source\PSoC6\pdl\drivers\peripheral\scb/cy_scb_spi.h **** /**
 886:Generated_Source\PSoC6\pdl\drivers\peripheral\scb/cy_scb_spi.h **** * \addtogroup group_scb_spi_general_functions
 887:Generated_Source\PSoC6\pdl\drivers\peripheral\scb/cy_scb_spi.h **** * \{
 888:Generated_Source\PSoC6\pdl\drivers\peripheral\scb/cy_scb_spi.h **** */
 889:Generated_Source\PSoC6\pdl\drivers\peripheral\scb/cy_scb_spi.h **** 
 890:Generated_Source\PSoC6\pdl\drivers\peripheral\scb/cy_scb_spi.h **** /*******************************************************************************
 891:Generated_Source\PSoC6\pdl\drivers\peripheral\scb/cy_scb_spi.h **** * Function Name: Cy_SCB_SPI_Enable
 892:Generated_Source\PSoC6\pdl\drivers\peripheral\scb/cy_scb_spi.h **** ****************************************************************************//**
 893:Generated_Source\PSoC6\pdl\drivers\peripheral\scb/cy_scb_spi.h **** *
 894:Generated_Source\PSoC6\pdl\drivers\peripheral\scb/cy_scb_spi.h **** * Enables the SCB block for the SPI operation.
 895:Generated_Source\PSoC6\pdl\drivers\peripheral\scb/cy_scb_spi.h **** *
 896:Generated_Source\PSoC6\pdl\drivers\peripheral\scb/cy_scb_spi.h **** * \param base
ARM GAS  C:\Users\salaz\AppData\Local\Temp\ccynHHO7.s 			page 70


 897:Generated_Source\PSoC6\pdl\drivers\peripheral\scb/cy_scb_spi.h **** * The pointer to the SPI SCB instance.
 898:Generated_Source\PSoC6\pdl\drivers\peripheral\scb/cy_scb_spi.h **** *
 899:Generated_Source\PSoC6\pdl\drivers\peripheral\scb/cy_scb_spi.h **** *******************************************************************************/
 900:Generated_Source\PSoC6\pdl\drivers\peripheral\scb/cy_scb_spi.h **** __STATIC_INLINE void Cy_SCB_SPI_Enable(CySCB_Type *base)
 901:Generated_Source\PSoC6\pdl\drivers\peripheral\scb/cy_scb_spi.h **** {
 1333              		.loc 2 901 0
 1334              		.cfi_startproc
 1335              		@ args = 0, pretend = 0, frame = 8
 1336              		@ frame_needed = 1, uses_anonymous_args = 0
 1337 0000 80B5     		push	{r7, lr}
 1338              		.cfi_def_cfa_offset 8
 1339              		.cfi_offset 7, -8
 1340              		.cfi_offset 14, -4
 1341 0002 82B0     		sub	sp, sp, #8
 1342              		.cfi_def_cfa_offset 16
 1343 0004 00AF     		add	r7, sp, #0
 1344              		.cfi_def_cfa_register 7
 1345 0006 7860     		str	r0, [r7, #4]
 902:Generated_Source\PSoC6\pdl\drivers\peripheral\scb/cy_scb_spi.h ****     base->CTRL |= SCB_CTRL_ENABLED_Msk;
 1346              		.loc 2 902 0
 1347 0008 7B68     		ldr	r3, [r7, #4]
 1348 000a 1B68     		ldr	r3, [r3]
 1349 000c 8022     		movs	r2, #128
 1350 000e 1206     		lsls	r2, r2, #24
 1351 0010 1A43     		orrs	r2, r3
 1352 0012 7B68     		ldr	r3, [r7, #4]
 1353 0014 1A60     		str	r2, [r3]
 903:Generated_Source\PSoC6\pdl\drivers\peripheral\scb/cy_scb_spi.h **** }
 1354              		.loc 2 903 0
 1355 0016 C046     		nop
 1356 0018 BD46     		mov	sp, r7
 1357 001a 02B0     		add	sp, sp, #8
 1358              		@ sp needed
 1359 001c 80BD     		pop	{r7, pc}
 1360              		.cfi_endproc
 1361              	.LFE121:
 1362              		.size	Cy_SCB_SPI_Enable, .-Cy_SCB_SPI_Enable
 1363 001e C046     		.section	.text.Cy_SCB_SPI_IsBusBusy,"ax",%progbits
 1364              		.align	2
 1365              		.code	16
 1366              		.thumb_func
 1367              		.type	Cy_SCB_SPI_IsBusBusy, %function
 1368              	Cy_SCB_SPI_IsBusBusy:
 1369              	.LFB122:
 904:Generated_Source\PSoC6\pdl\drivers\peripheral\scb/cy_scb_spi.h **** 
 905:Generated_Source\PSoC6\pdl\drivers\peripheral\scb/cy_scb_spi.h **** 
 906:Generated_Source\PSoC6\pdl\drivers\peripheral\scb/cy_scb_spi.h **** /*******************************************************************************
 907:Generated_Source\PSoC6\pdl\drivers\peripheral\scb/cy_scb_spi.h **** * Function Name: Cy_SCB_SPI_IsBusBusy
 908:Generated_Source\PSoC6\pdl\drivers\peripheral\scb/cy_scb_spi.h **** ****************************************************************************//**
 909:Generated_Source\PSoC6\pdl\drivers\peripheral\scb/cy_scb_spi.h **** *
 910:Generated_Source\PSoC6\pdl\drivers\peripheral\scb/cy_scb_spi.h **** * Returns whether the SPI bus is busy or not. The bus busy is determined using
 911:Generated_Source\PSoC6\pdl\drivers\peripheral\scb/cy_scb_spi.h **** * the slave select signal.
 912:Generated_Source\PSoC6\pdl\drivers\peripheral\scb/cy_scb_spi.h **** * * Motorola and National Semiconductor sub-modes: the bus is busy after the
 913:Generated_Source\PSoC6\pdl\drivers\peripheral\scb/cy_scb_spi.h **** *   slave select line is activated and lasts until the slave select line is
 914:Generated_Source\PSoC6\pdl\drivers\peripheral\scb/cy_scb_spi.h **** *   deactivated.
 915:Generated_Source\PSoC6\pdl\drivers\peripheral\scb/cy_scb_spi.h **** * * Texas Instrument sub-modes: The bus is busy at the moment of the initial
 916:Generated_Source\PSoC6\pdl\drivers\peripheral\scb/cy_scb_spi.h **** *   pulse on the slave select line and lasts until the transfer is complete.
ARM GAS  C:\Users\salaz\AppData\Local\Temp\ccynHHO7.s 			page 71


 917:Generated_Source\PSoC6\pdl\drivers\peripheral\scb/cy_scb_spi.h **** *
 918:Generated_Source\PSoC6\pdl\drivers\peripheral\scb/cy_scb_spi.h **** * \param base
 919:Generated_Source\PSoC6\pdl\drivers\peripheral\scb/cy_scb_spi.h **** * The pointer to the SPI SCB instance.
 920:Generated_Source\PSoC6\pdl\drivers\peripheral\scb/cy_scb_spi.h **** *
 921:Generated_Source\PSoC6\pdl\drivers\peripheral\scb/cy_scb_spi.h **** * \return
 922:Generated_Source\PSoC6\pdl\drivers\peripheral\scb/cy_scb_spi.h **** * True - the bus is busy; false - the bus is idle.
 923:Generated_Source\PSoC6\pdl\drivers\peripheral\scb/cy_scb_spi.h **** *
 924:Generated_Source\PSoC6\pdl\drivers\peripheral\scb/cy_scb_spi.h **** * \note
 925:Generated_Source\PSoC6\pdl\drivers\peripheral\scb/cy_scb_spi.h **** * * The SPI master does not assign the slave select line immediately after
 926:Generated_Source\PSoC6\pdl\drivers\peripheral\scb/cy_scb_spi.h **** *   the first data element is written into the TX FIFO. It takes up to two SCLK
 927:Generated_Source\PSoC6\pdl\drivers\peripheral\scb/cy_scb_spi.h **** *   clocks to assign the slave select line. Before this happens, the bus
 928:Generated_Source\PSoC6\pdl\drivers\peripheral\scb/cy_scb_spi.h **** *   is considered idle.
 929:Generated_Source\PSoC6\pdl\drivers\peripheral\scb/cy_scb_spi.h **** * * If the SPI master is configured to separate a data elements transfer,
 930:Generated_Source\PSoC6\pdl\drivers\peripheral\scb/cy_scb_spi.h **** *   the bus is busy during each element transfer and is free between them.
 931:Generated_Source\PSoC6\pdl\drivers\peripheral\scb/cy_scb_spi.h **** *
 932:Generated_Source\PSoC6\pdl\drivers\peripheral\scb/cy_scb_spi.h **** *******************************************************************************/
 933:Generated_Source\PSoC6\pdl\drivers\peripheral\scb/cy_scb_spi.h **** __STATIC_INLINE bool Cy_SCB_SPI_IsBusBusy(CySCB_Type const *base)
 934:Generated_Source\PSoC6\pdl\drivers\peripheral\scb/cy_scb_spi.h **** {
 1370              		.loc 2 934 0
 1371              		.cfi_startproc
 1372              		@ args = 0, pretend = 0, frame = 8
 1373              		@ frame_needed = 1, uses_anonymous_args = 0
 1374 0000 80B5     		push	{r7, lr}
 1375              		.cfi_def_cfa_offset 8
 1376              		.cfi_offset 7, -8
 1377              		.cfi_offset 14, -4
 1378 0002 82B0     		sub	sp, sp, #8
 1379              		.cfi_def_cfa_offset 16
 1380 0004 00AF     		add	r7, sp, #0
 1381              		.cfi_def_cfa_register 7
 1382 0006 7860     		str	r0, [r7, #4]
 935:Generated_Source\PSoC6\pdl\drivers\peripheral\scb/cy_scb_spi.h ****     return _FLD2BOOL(SCB_SPI_STATUS_BUS_BUSY, base->SPI_STATUS);
 1383              		.loc 2 935 0
 1384 0008 7B68     		ldr	r3, [r7, #4]
 1385 000a 5B6A     		ldr	r3, [r3, #36]
 1386 000c 0122     		movs	r2, #1
 1387 000e 1340     		ands	r3, r2
 1388 0010 5A1E     		subs	r2, r3, #1
 1389 0012 9341     		sbcs	r3, r3, r2
 1390 0014 DBB2     		uxtb	r3, r3
 936:Generated_Source\PSoC6\pdl\drivers\peripheral\scb/cy_scb_spi.h **** }
 1391              		.loc 2 936 0
 1392 0016 1800     		movs	r0, r3
 1393 0018 BD46     		mov	sp, r7
 1394 001a 02B0     		add	sp, sp, #8
 1395              		@ sp needed
 1396 001c 80BD     		pop	{r7, pc}
 1397              		.cfi_endproc
 1398              	.LFE122:
 1399              		.size	Cy_SCB_SPI_IsBusBusy, .-Cy_SCB_SPI_IsBusBusy
 1400 001e C046     		.section	.text.Cy_SCB_SPI_GetNumInRxFifo,"ax",%progbits
 1401              		.align	2
 1402              		.code	16
 1403              		.thumb_func
 1404              		.type	Cy_SCB_SPI_GetNumInRxFifo, %function
 1405              	Cy_SCB_SPI_GetNumInRxFifo:
 1406              	.LFB127:
ARM GAS  C:\Users\salaz\AppData\Local\Temp\ccynHHO7.s 			page 72


 937:Generated_Source\PSoC6\pdl\drivers\peripheral\scb/cy_scb_spi.h **** 
 938:Generated_Source\PSoC6\pdl\drivers\peripheral\scb/cy_scb_spi.h **** 
 939:Generated_Source\PSoC6\pdl\drivers\peripheral\scb/cy_scb_spi.h **** /*******************************************************************************
 940:Generated_Source\PSoC6\pdl\drivers\peripheral\scb/cy_scb_spi.h **** * Function Name: Cy_SCB_SPI_SetActiveSlaveSelect
 941:Generated_Source\PSoC6\pdl\drivers\peripheral\scb/cy_scb_spi.h **** ****************************************************************************//**
 942:Generated_Source\PSoC6\pdl\drivers\peripheral\scb/cy_scb_spi.h **** *
 943:Generated_Source\PSoC6\pdl\drivers\peripheral\scb/cy_scb_spi.h **** * Selects an active slave select line from one of four available.
 944:Generated_Source\PSoC6\pdl\drivers\peripheral\scb/cy_scb_spi.h **** * This function is applicable for the master and slave.
 945:Generated_Source\PSoC6\pdl\drivers\peripheral\scb/cy_scb_spi.h **** *
 946:Generated_Source\PSoC6\pdl\drivers\peripheral\scb/cy_scb_spi.h **** * \param base
 947:Generated_Source\PSoC6\pdl\drivers\peripheral\scb/cy_scb_spi.h **** * The pointer to the SPI SCB instance.
 948:Generated_Source\PSoC6\pdl\drivers\peripheral\scb/cy_scb_spi.h **** *
 949:Generated_Source\PSoC6\pdl\drivers\peripheral\scb/cy_scb_spi.h **** * \param slaveSelect
 950:Generated_Source\PSoC6\pdl\drivers\peripheral\scb/cy_scb_spi.h **** * The slave select line number.
 951:Generated_Source\PSoC6\pdl\drivers\peripheral\scb/cy_scb_spi.h **** * See \ref cy_en_scb_spi_slave_select_t for the set of constants.
 952:Generated_Source\PSoC6\pdl\drivers\peripheral\scb/cy_scb_spi.h **** *
 953:Generated_Source\PSoC6\pdl\drivers\peripheral\scb/cy_scb_spi.h **** * \note
 954:Generated_Source\PSoC6\pdl\drivers\peripheral\scb/cy_scb_spi.h **** * The SCB be idle or disabled before calling this function.
 955:Generated_Source\PSoC6\pdl\drivers\peripheral\scb/cy_scb_spi.h **** *
 956:Generated_Source\PSoC6\pdl\drivers\peripheral\scb/cy_scb_spi.h **** *******************************************************************************/
 957:Generated_Source\PSoC6\pdl\drivers\peripheral\scb/cy_scb_spi.h **** __STATIC_INLINE void Cy_SCB_SPI_SetActiveSlaveSelect(CySCB_Type *base, cy_en_scb_spi_slave_select_t
 958:Generated_Source\PSoC6\pdl\drivers\peripheral\scb/cy_scb_spi.h **** {
 959:Generated_Source\PSoC6\pdl\drivers\peripheral\scb/cy_scb_spi.h ****     CY_ASSERT_L3(CY_SCB_SPI_IS_SLAVE_SEL_VALID(slaveSelect));
 960:Generated_Source\PSoC6\pdl\drivers\peripheral\scb/cy_scb_spi.h **** 
 961:Generated_Source\PSoC6\pdl\drivers\peripheral\scb/cy_scb_spi.h ****     base->SPI_CTRL = _CLR_SET_FLD32U(base->SPI_CTRL, SCB_SPI_CTRL_SSEL, (uint32_t) slaveSelect);
 962:Generated_Source\PSoC6\pdl\drivers\peripheral\scb/cy_scb_spi.h **** }
 963:Generated_Source\PSoC6\pdl\drivers\peripheral\scb/cy_scb_spi.h **** 
 964:Generated_Source\PSoC6\pdl\drivers\peripheral\scb/cy_scb_spi.h **** 
 965:Generated_Source\PSoC6\pdl\drivers\peripheral\scb/cy_scb_spi.h **** /*******************************************************************************
 966:Generated_Source\PSoC6\pdl\drivers\peripheral\scb/cy_scb_spi.h **** * Function Name: Cy_SCB_SPI_SetActiveSlaveSelectPolarity
 967:Generated_Source\PSoC6\pdl\drivers\peripheral\scb/cy_scb_spi.h **** ****************************************************************************//**
 968:Generated_Source\PSoC6\pdl\drivers\peripheral\scb/cy_scb_spi.h **** *
 969:Generated_Source\PSoC6\pdl\drivers\peripheral\scb/cy_scb_spi.h **** * Sets the active polarity for the slave select line.
 970:Generated_Source\PSoC6\pdl\drivers\peripheral\scb/cy_scb_spi.h **** *
 971:Generated_Source\PSoC6\pdl\drivers\peripheral\scb/cy_scb_spi.h **** * \param base
 972:Generated_Source\PSoC6\pdl\drivers\peripheral\scb/cy_scb_spi.h **** * The pointer to the SPI SCB instance.
 973:Generated_Source\PSoC6\pdl\drivers\peripheral\scb/cy_scb_spi.h **** *
 974:Generated_Source\PSoC6\pdl\drivers\peripheral\scb/cy_scb_spi.h **** * \param slaveSelect
 975:Generated_Source\PSoC6\pdl\drivers\peripheral\scb/cy_scb_spi.h **** * The slave select line number.
 976:Generated_Source\PSoC6\pdl\drivers\peripheral\scb/cy_scb_spi.h **** * See \ref cy_en_scb_spi_slave_select_t for the set of constants.
 977:Generated_Source\PSoC6\pdl\drivers\peripheral\scb/cy_scb_spi.h **** *
 978:Generated_Source\PSoC6\pdl\drivers\peripheral\scb/cy_scb_spi.h **** * \param polarity
 979:Generated_Source\PSoC6\pdl\drivers\peripheral\scb/cy_scb_spi.h **** * The polarity of the slave select line.
 980:Generated_Source\PSoC6\pdl\drivers\peripheral\scb/cy_scb_spi.h **** * See \ref cy_en_scb_spi_polarity_t for the set of constants.
 981:Generated_Source\PSoC6\pdl\drivers\peripheral\scb/cy_scb_spi.h **** *
 982:Generated_Source\PSoC6\pdl\drivers\peripheral\scb/cy_scb_spi.h **** * \note
 983:Generated_Source\PSoC6\pdl\drivers\peripheral\scb/cy_scb_spi.h **** * The SCB be idle or disabled before calling this function.
 984:Generated_Source\PSoC6\pdl\drivers\peripheral\scb/cy_scb_spi.h **** *
 985:Generated_Source\PSoC6\pdl\drivers\peripheral\scb/cy_scb_spi.h **** *******************************************************************************/
 986:Generated_Source\PSoC6\pdl\drivers\peripheral\scb/cy_scb_spi.h **** __STATIC_INLINE void Cy_SCB_SPI_SetActiveSlaveSelectPolarity(CySCB_Type *base,
 987:Generated_Source\PSoC6\pdl\drivers\peripheral\scb/cy_scb_spi.h ****                                 cy_en_scb_spi_slave_select_t slaveSelect,
 988:Generated_Source\PSoC6\pdl\drivers\peripheral\scb/cy_scb_spi.h ****                                 cy_en_scb_spi_polarity_t polarity)
 989:Generated_Source\PSoC6\pdl\drivers\peripheral\scb/cy_scb_spi.h **** {
 990:Generated_Source\PSoC6\pdl\drivers\peripheral\scb/cy_scb_spi.h ****     CY_ASSERT_L3(CY_SCB_SPI_IS_SLAVE_SEL_VALID(slaveSelect));
 991:Generated_Source\PSoC6\pdl\drivers\peripheral\scb/cy_scb_spi.h ****     CY_ASSERT_L3(CY_SCB_SPI_IS_POLARITY_VALID (polarity));
 992:Generated_Source\PSoC6\pdl\drivers\peripheral\scb/cy_scb_spi.h **** 
 993:Generated_Source\PSoC6\pdl\drivers\peripheral\scb/cy_scb_spi.h ****     uint32_t mask = _VAL2FLD(CY_SCB_SPI_CTRL_SSEL_POLARITY, (0x01UL << slaveSelect));
ARM GAS  C:\Users\salaz\AppData\Local\Temp\ccynHHO7.s 			page 73


 994:Generated_Source\PSoC6\pdl\drivers\peripheral\scb/cy_scb_spi.h **** 
 995:Generated_Source\PSoC6\pdl\drivers\peripheral\scb/cy_scb_spi.h ****     if (CY_SCB_SPI_ACTIVE_HIGH != polarity)
 996:Generated_Source\PSoC6\pdl\drivers\peripheral\scb/cy_scb_spi.h ****     {
 997:Generated_Source\PSoC6\pdl\drivers\peripheral\scb/cy_scb_spi.h ****         base->SPI_CTRL |= (uint32_t)  mask;
 998:Generated_Source\PSoC6\pdl\drivers\peripheral\scb/cy_scb_spi.h ****     }
 999:Generated_Source\PSoC6\pdl\drivers\peripheral\scb/cy_scb_spi.h ****     else
1000:Generated_Source\PSoC6\pdl\drivers\peripheral\scb/cy_scb_spi.h ****     {
1001:Generated_Source\PSoC6\pdl\drivers\peripheral\scb/cy_scb_spi.h ****         base->SPI_CTRL &= (uint32_t) ~mask;
1002:Generated_Source\PSoC6\pdl\drivers\peripheral\scb/cy_scb_spi.h ****     }
1003:Generated_Source\PSoC6\pdl\drivers\peripheral\scb/cy_scb_spi.h **** }
1004:Generated_Source\PSoC6\pdl\drivers\peripheral\scb/cy_scb_spi.h **** /** \} group_scb_spi_general_functions */
1005:Generated_Source\PSoC6\pdl\drivers\peripheral\scb/cy_scb_spi.h **** 
1006:Generated_Source\PSoC6\pdl\drivers\peripheral\scb/cy_scb_spi.h **** 
1007:Generated_Source\PSoC6\pdl\drivers\peripheral\scb/cy_scb_spi.h **** /**
1008:Generated_Source\PSoC6\pdl\drivers\peripheral\scb/cy_scb_spi.h **** * \addtogroup group_scb_spi_low_level_functions
1009:Generated_Source\PSoC6\pdl\drivers\peripheral\scb/cy_scb_spi.h **** * \{
1010:Generated_Source\PSoC6\pdl\drivers\peripheral\scb/cy_scb_spi.h **** */
1011:Generated_Source\PSoC6\pdl\drivers\peripheral\scb/cy_scb_spi.h **** /*******************************************************************************
1012:Generated_Source\PSoC6\pdl\drivers\peripheral\scb/cy_scb_spi.h **** * Function Name: Cy_SCB_SPI_GetRxFifoStatus
1013:Generated_Source\PSoC6\pdl\drivers\peripheral\scb/cy_scb_spi.h **** ****************************************************************************//**
1014:Generated_Source\PSoC6\pdl\drivers\peripheral\scb/cy_scb_spi.h **** *
1015:Generated_Source\PSoC6\pdl\drivers\peripheral\scb/cy_scb_spi.h **** * Returns the current status of the RX FIFO.
1016:Generated_Source\PSoC6\pdl\drivers\peripheral\scb/cy_scb_spi.h **** * Clear the active statuses to let the SCB hardware update them.
1017:Generated_Source\PSoC6\pdl\drivers\peripheral\scb/cy_scb_spi.h **** *
1018:Generated_Source\PSoC6\pdl\drivers\peripheral\scb/cy_scb_spi.h **** * \param base
1019:Generated_Source\PSoC6\pdl\drivers\peripheral\scb/cy_scb_spi.h **** * The pointer to the SPI SCB instance.
1020:Generated_Source\PSoC6\pdl\drivers\peripheral\scb/cy_scb_spi.h **** *
1021:Generated_Source\PSoC6\pdl\drivers\peripheral\scb/cy_scb_spi.h **** * \return
1022:Generated_Source\PSoC6\pdl\drivers\peripheral\scb/cy_scb_spi.h **** * \ref group_scb_spi_macros_rx_fifo_status
1023:Generated_Source\PSoC6\pdl\drivers\peripheral\scb/cy_scb_spi.h **** *
1024:Generated_Source\PSoC6\pdl\drivers\peripheral\scb/cy_scb_spi.h **** *******************************************************************************/
1025:Generated_Source\PSoC6\pdl\drivers\peripheral\scb/cy_scb_spi.h **** __STATIC_INLINE uint32_t Cy_SCB_SPI_GetRxFifoStatus(CySCB_Type const *base)
1026:Generated_Source\PSoC6\pdl\drivers\peripheral\scb/cy_scb_spi.h **** {
1027:Generated_Source\PSoC6\pdl\drivers\peripheral\scb/cy_scb_spi.h ****     return (Cy_SCB_GetRxInterruptStatus(base) & CY_SCB_SPI_RX_INTR_MASK);
1028:Generated_Source\PSoC6\pdl\drivers\peripheral\scb/cy_scb_spi.h **** }
1029:Generated_Source\PSoC6\pdl\drivers\peripheral\scb/cy_scb_spi.h **** 
1030:Generated_Source\PSoC6\pdl\drivers\peripheral\scb/cy_scb_spi.h **** 
1031:Generated_Source\PSoC6\pdl\drivers\peripheral\scb/cy_scb_spi.h **** /*******************************************************************************
1032:Generated_Source\PSoC6\pdl\drivers\peripheral\scb/cy_scb_spi.h **** * Function Name: Cy_SCB_SPI_ClearRxFifoStatus
1033:Generated_Source\PSoC6\pdl\drivers\peripheral\scb/cy_scb_spi.h **** ****************************************************************************//**
1034:Generated_Source\PSoC6\pdl\drivers\peripheral\scb/cy_scb_spi.h **** *
1035:Generated_Source\PSoC6\pdl\drivers\peripheral\scb/cy_scb_spi.h **** * Clears the selected statuses of the RX FIFO.
1036:Generated_Source\PSoC6\pdl\drivers\peripheral\scb/cy_scb_spi.h **** *
1037:Generated_Source\PSoC6\pdl\drivers\peripheral\scb/cy_scb_spi.h **** * \param base
1038:Generated_Source\PSoC6\pdl\drivers\peripheral\scb/cy_scb_spi.h **** * The pointer to the SPI SCB instance.
1039:Generated_Source\PSoC6\pdl\drivers\peripheral\scb/cy_scb_spi.h **** *
1040:Generated_Source\PSoC6\pdl\drivers\peripheral\scb/cy_scb_spi.h **** * \param clearMask
1041:Generated_Source\PSoC6\pdl\drivers\peripheral\scb/cy_scb_spi.h **** * The mask of which statuses to clear.
1042:Generated_Source\PSoC6\pdl\drivers\peripheral\scb/cy_scb_spi.h **** * See \ref group_scb_spi_macros_rx_fifo_status for the set of constants.
1043:Generated_Source\PSoC6\pdl\drivers\peripheral\scb/cy_scb_spi.h **** *
1044:Generated_Source\PSoC6\pdl\drivers\peripheral\scb/cy_scb_spi.h **** * \note
1045:Generated_Source\PSoC6\pdl\drivers\peripheral\scb/cy_scb_spi.h **** * * This status is also used for interrupt generation, so clearing it also
1046:Generated_Source\PSoC6\pdl\drivers\peripheral\scb/cy_scb_spi.h **** *   clears the interrupt sources.
1047:Generated_Source\PSoC6\pdl\drivers\peripheral\scb/cy_scb_spi.h **** * * Level sensitive statuses such as \ref CY_SCB_SPI_RX_TRIGGER,
1048:Generated_Source\PSoC6\pdl\drivers\peripheral\scb/cy_scb_spi.h **** *   \ref CY_SCB_SPI_RX_NOT_EMPTY and \ref CY_SCB_SPI_RX_FULL set high again after
1049:Generated_Source\PSoC6\pdl\drivers\peripheral\scb/cy_scb_spi.h **** *   being cleared if the condition remains true.
1050:Generated_Source\PSoC6\pdl\drivers\peripheral\scb/cy_scb_spi.h **** *
ARM GAS  C:\Users\salaz\AppData\Local\Temp\ccynHHO7.s 			page 74


1051:Generated_Source\PSoC6\pdl\drivers\peripheral\scb/cy_scb_spi.h **** *******************************************************************************/
1052:Generated_Source\PSoC6\pdl\drivers\peripheral\scb/cy_scb_spi.h **** __STATIC_INLINE void Cy_SCB_SPI_ClearRxFifoStatus(CySCB_Type *base, uint32_t clearMask)
1053:Generated_Source\PSoC6\pdl\drivers\peripheral\scb/cy_scb_spi.h **** {
1054:Generated_Source\PSoC6\pdl\drivers\peripheral\scb/cy_scb_spi.h ****     CY_ASSERT_L2(CY_SCB_IS_INTR_VALID(clearMask, CY_SCB_SPI_RX_INTR_MASK));
1055:Generated_Source\PSoC6\pdl\drivers\peripheral\scb/cy_scb_spi.h **** 
1056:Generated_Source\PSoC6\pdl\drivers\peripheral\scb/cy_scb_spi.h ****     Cy_SCB_ClearRxInterrupt(base, clearMask);
1057:Generated_Source\PSoC6\pdl\drivers\peripheral\scb/cy_scb_spi.h **** }
1058:Generated_Source\PSoC6\pdl\drivers\peripheral\scb/cy_scb_spi.h **** 
1059:Generated_Source\PSoC6\pdl\drivers\peripheral\scb/cy_scb_spi.h **** 
1060:Generated_Source\PSoC6\pdl\drivers\peripheral\scb/cy_scb_spi.h **** /*******************************************************************************
1061:Generated_Source\PSoC6\pdl\drivers\peripheral\scb/cy_scb_spi.h **** * Function Name: Cy_SCB_SPI_GetNumInRxFifo
1062:Generated_Source\PSoC6\pdl\drivers\peripheral\scb/cy_scb_spi.h **** ****************************************************************************//**
1063:Generated_Source\PSoC6\pdl\drivers\peripheral\scb/cy_scb_spi.h **** *
1064:Generated_Source\PSoC6\pdl\drivers\peripheral\scb/cy_scb_spi.h **** * Returns the number of data elements in the SPI RX FIFO.
1065:Generated_Source\PSoC6\pdl\drivers\peripheral\scb/cy_scb_spi.h **** *
1066:Generated_Source\PSoC6\pdl\drivers\peripheral\scb/cy_scb_spi.h **** * \param base
1067:Generated_Source\PSoC6\pdl\drivers\peripheral\scb/cy_scb_spi.h **** * The pointer to the SPI SCB instance.
1068:Generated_Source\PSoC6\pdl\drivers\peripheral\scb/cy_scb_spi.h **** *
1069:Generated_Source\PSoC6\pdl\drivers\peripheral\scb/cy_scb_spi.h **** * \return
1070:Generated_Source\PSoC6\pdl\drivers\peripheral\scb/cy_scb_spi.h **** * The number of data elements in the RX FIFO.
1071:Generated_Source\PSoC6\pdl\drivers\peripheral\scb/cy_scb_spi.h **** * The size of a data element defined by the configured RX data width.
1072:Generated_Source\PSoC6\pdl\drivers\peripheral\scb/cy_scb_spi.h **** *
1073:Generated_Source\PSoC6\pdl\drivers\peripheral\scb/cy_scb_spi.h **** * \note
1074:Generated_Source\PSoC6\pdl\drivers\peripheral\scb/cy_scb_spi.h **** * This number does not include any data currently in the RX shifter.
1075:Generated_Source\PSoC6\pdl\drivers\peripheral\scb/cy_scb_spi.h **** *
1076:Generated_Source\PSoC6\pdl\drivers\peripheral\scb/cy_scb_spi.h **** *******************************************************************************/
1077:Generated_Source\PSoC6\pdl\drivers\peripheral\scb/cy_scb_spi.h **** __STATIC_INLINE uint32_t Cy_SCB_SPI_GetNumInRxFifo(CySCB_Type const *base)
1078:Generated_Source\PSoC6\pdl\drivers\peripheral\scb/cy_scb_spi.h **** {
 1407              		.loc 2 1078 0
 1408              		.cfi_startproc
 1409              		@ args = 0, pretend = 0, frame = 8
 1410              		@ frame_needed = 1, uses_anonymous_args = 0
 1411 0000 80B5     		push	{r7, lr}
 1412              		.cfi_def_cfa_offset 8
 1413              		.cfi_offset 7, -8
 1414              		.cfi_offset 14, -4
 1415 0002 82B0     		sub	sp, sp, #8
 1416              		.cfi_def_cfa_offset 16
 1417 0004 00AF     		add	r7, sp, #0
 1418              		.cfi_def_cfa_register 7
 1419 0006 7860     		str	r0, [r7, #4]
1079:Generated_Source\PSoC6\pdl\drivers\peripheral\scb/cy_scb_spi.h ****     return Cy_SCB_GetNumInRxFifo(base);
 1420              		.loc 2 1079 0
 1421 0008 7B68     		ldr	r3, [r7, #4]
 1422 000a 1800     		movs	r0, r3
 1423 000c FFF7FEFF 		bl	Cy_SCB_GetNumInRxFifo
 1424 0010 0300     		movs	r3, r0
1080:Generated_Source\PSoC6\pdl\drivers\peripheral\scb/cy_scb_spi.h **** }
 1425              		.loc 2 1080 0
 1426 0012 1800     		movs	r0, r3
 1427 0014 BD46     		mov	sp, r7
 1428 0016 02B0     		add	sp, sp, #8
 1429              		@ sp needed
 1430 0018 80BD     		pop	{r7, pc}
 1431              		.cfi_endproc
 1432              	.LFE127:
 1433              		.size	Cy_SCB_SPI_GetNumInRxFifo, .-Cy_SCB_SPI_GetNumInRxFifo
ARM GAS  C:\Users\salaz\AppData\Local\Temp\ccynHHO7.s 			page 75


 1434 001a C046     		.section	.text.Cy_SCB_SPI_ClearRxFifo,"ax",%progbits
 1435              		.align	2
 1436              		.code	16
 1437              		.thumb_func
 1438              		.type	Cy_SCB_SPI_ClearRxFifo, %function
 1439              	Cy_SCB_SPI_ClearRxFifo:
 1440              	.LFB128:
1081:Generated_Source\PSoC6\pdl\drivers\peripheral\scb/cy_scb_spi.h **** 
1082:Generated_Source\PSoC6\pdl\drivers\peripheral\scb/cy_scb_spi.h **** 
1083:Generated_Source\PSoC6\pdl\drivers\peripheral\scb/cy_scb_spi.h **** /*******************************************************************************
1084:Generated_Source\PSoC6\pdl\drivers\peripheral\scb/cy_scb_spi.h **** * Function Name: Cy_SCB_SPI_ClearRxFifo
1085:Generated_Source\PSoC6\pdl\drivers\peripheral\scb/cy_scb_spi.h **** ****************************************************************************//**
1086:Generated_Source\PSoC6\pdl\drivers\peripheral\scb/cy_scb_spi.h **** *
1087:Generated_Source\PSoC6\pdl\drivers\peripheral\scb/cy_scb_spi.h **** * Clears all data out of the SPI RX FIFO.
1088:Generated_Source\PSoC6\pdl\drivers\peripheral\scb/cy_scb_spi.h **** *
1089:Generated_Source\PSoC6\pdl\drivers\peripheral\scb/cy_scb_spi.h **** * \param base
1090:Generated_Source\PSoC6\pdl\drivers\peripheral\scb/cy_scb_spi.h **** * The pointer to the SPI SCB instance.
1091:Generated_Source\PSoC6\pdl\drivers\peripheral\scb/cy_scb_spi.h **** *
1092:Generated_Source\PSoC6\pdl\drivers\peripheral\scb/cy_scb_spi.h **** * \sideeffect
1093:Generated_Source\PSoC6\pdl\drivers\peripheral\scb/cy_scb_spi.h **** * Any data currently in the shifter is cleared and lost.
1094:Generated_Source\PSoC6\pdl\drivers\peripheral\scb/cy_scb_spi.h **** *
1095:Generated_Source\PSoC6\pdl\drivers\peripheral\scb/cy_scb_spi.h **** *******************************************************************************/
1096:Generated_Source\PSoC6\pdl\drivers\peripheral\scb/cy_scb_spi.h **** __STATIC_INLINE void Cy_SCB_SPI_ClearRxFifo(CySCB_Type *base)
1097:Generated_Source\PSoC6\pdl\drivers\peripheral\scb/cy_scb_spi.h **** {
 1441              		.loc 2 1097 0
 1442              		.cfi_startproc
 1443              		@ args = 0, pretend = 0, frame = 8
 1444              		@ frame_needed = 1, uses_anonymous_args = 0
 1445 0000 80B5     		push	{r7, lr}
 1446              		.cfi_def_cfa_offset 8
 1447              		.cfi_offset 7, -8
 1448              		.cfi_offset 14, -4
 1449 0002 82B0     		sub	sp, sp, #8
 1450              		.cfi_def_cfa_offset 16
 1451 0004 00AF     		add	r7, sp, #0
 1452              		.cfi_def_cfa_register 7
 1453 0006 7860     		str	r0, [r7, #4]
1098:Generated_Source\PSoC6\pdl\drivers\peripheral\scb/cy_scb_spi.h ****     Cy_SCB_ClearRxFifo(base);
 1454              		.loc 2 1098 0
 1455 0008 7B68     		ldr	r3, [r7, #4]
 1456 000a 1800     		movs	r0, r3
 1457 000c FFF7FEFF 		bl	Cy_SCB_ClearRxFifo
1099:Generated_Source\PSoC6\pdl\drivers\peripheral\scb/cy_scb_spi.h **** }
 1458              		.loc 2 1099 0
 1459 0010 C046     		nop
 1460 0012 BD46     		mov	sp, r7
 1461 0014 02B0     		add	sp, sp, #8
 1462              		@ sp needed
 1463 0016 80BD     		pop	{r7, pc}
 1464              		.cfi_endproc
 1465              	.LFE128:
 1466              		.size	Cy_SCB_SPI_ClearRxFifo, .-Cy_SCB_SPI_ClearRxFifo
 1467              		.section	.text.Cy_SCB_SPI_IsTxComplete,"ax",%progbits
 1468              		.align	2
 1469              		.code	16
 1470              		.thumb_func
 1471              		.type	Cy_SCB_SPI_IsTxComplete, %function
ARM GAS  C:\Users\salaz\AppData\Local\Temp\ccynHHO7.s 			page 76


 1472              	Cy_SCB_SPI_IsTxComplete:
 1473              	.LFB132:
1100:Generated_Source\PSoC6\pdl\drivers\peripheral\scb/cy_scb_spi.h **** 
1101:Generated_Source\PSoC6\pdl\drivers\peripheral\scb/cy_scb_spi.h **** 
1102:Generated_Source\PSoC6\pdl\drivers\peripheral\scb/cy_scb_spi.h **** /*******************************************************************************
1103:Generated_Source\PSoC6\pdl\drivers\peripheral\scb/cy_scb_spi.h **** * Function Name: Cy_SCB_SPI_GetTxFifoStatus
1104:Generated_Source\PSoC6\pdl\drivers\peripheral\scb/cy_scb_spi.h **** ****************************************************************************//**
1105:Generated_Source\PSoC6\pdl\drivers\peripheral\scb/cy_scb_spi.h **** *
1106:Generated_Source\PSoC6\pdl\drivers\peripheral\scb/cy_scb_spi.h **** * Returns the current status of the TX FIFO.
1107:Generated_Source\PSoC6\pdl\drivers\peripheral\scb/cy_scb_spi.h **** * Clear the active statuses to let the SCB hardware update them.
1108:Generated_Source\PSoC6\pdl\drivers\peripheral\scb/cy_scb_spi.h **** *
1109:Generated_Source\PSoC6\pdl\drivers\peripheral\scb/cy_scb_spi.h **** * \param base
1110:Generated_Source\PSoC6\pdl\drivers\peripheral\scb/cy_scb_spi.h **** * The pointer to the SPI SCB instance.
1111:Generated_Source\PSoC6\pdl\drivers\peripheral\scb/cy_scb_spi.h **** *
1112:Generated_Source\PSoC6\pdl\drivers\peripheral\scb/cy_scb_spi.h **** * \return
1113:Generated_Source\PSoC6\pdl\drivers\peripheral\scb/cy_scb_spi.h **** * \ref group_scb_spi_macros_tx_fifo_status
1114:Generated_Source\PSoC6\pdl\drivers\peripheral\scb/cy_scb_spi.h **** *
1115:Generated_Source\PSoC6\pdl\drivers\peripheral\scb/cy_scb_spi.h **** *******************************************************************************/
1116:Generated_Source\PSoC6\pdl\drivers\peripheral\scb/cy_scb_spi.h **** __STATIC_INLINE uint32_t Cy_SCB_SPI_GetTxFifoStatus(CySCB_Type const *base)
1117:Generated_Source\PSoC6\pdl\drivers\peripheral\scb/cy_scb_spi.h **** {
1118:Generated_Source\PSoC6\pdl\drivers\peripheral\scb/cy_scb_spi.h ****     return (Cy_SCB_GetTxInterruptStatus(base) & CY_SCB_SPI_TX_INTR_MASK);
1119:Generated_Source\PSoC6\pdl\drivers\peripheral\scb/cy_scb_spi.h **** }
1120:Generated_Source\PSoC6\pdl\drivers\peripheral\scb/cy_scb_spi.h **** 
1121:Generated_Source\PSoC6\pdl\drivers\peripheral\scb/cy_scb_spi.h **** 
1122:Generated_Source\PSoC6\pdl\drivers\peripheral\scb/cy_scb_spi.h **** /*******************************************************************************
1123:Generated_Source\PSoC6\pdl\drivers\peripheral\scb/cy_scb_spi.h **** * Function Name: Cy_SCB_SPI_ClearTxFifoStatus
1124:Generated_Source\PSoC6\pdl\drivers\peripheral\scb/cy_scb_spi.h **** ****************************************************************************//**
1125:Generated_Source\PSoC6\pdl\drivers\peripheral\scb/cy_scb_spi.h **** *
1126:Generated_Source\PSoC6\pdl\drivers\peripheral\scb/cy_scb_spi.h **** * Clears the selected statuses of the TX FIFO.
1127:Generated_Source\PSoC6\pdl\drivers\peripheral\scb/cy_scb_spi.h **** *
1128:Generated_Source\PSoC6\pdl\drivers\peripheral\scb/cy_scb_spi.h **** * \param base
1129:Generated_Source\PSoC6\pdl\drivers\peripheral\scb/cy_scb_spi.h **** * The pointer to the SPI SCB instance.
1130:Generated_Source\PSoC6\pdl\drivers\peripheral\scb/cy_scb_spi.h **** *
1131:Generated_Source\PSoC6\pdl\drivers\peripheral\scb/cy_scb_spi.h **** * \param clearMask
1132:Generated_Source\PSoC6\pdl\drivers\peripheral\scb/cy_scb_spi.h **** * The mask of which statuses to clear.
1133:Generated_Source\PSoC6\pdl\drivers\peripheral\scb/cy_scb_spi.h **** * See \ref group_scb_spi_macros_tx_fifo_status for the set of constants.
1134:Generated_Source\PSoC6\pdl\drivers\peripheral\scb/cy_scb_spi.h **** *
1135:Generated_Source\PSoC6\pdl\drivers\peripheral\scb/cy_scb_spi.h **** * \note
1136:Generated_Source\PSoC6\pdl\drivers\peripheral\scb/cy_scb_spi.h **** * * The status is also used for interrupt generation, so clearing it also
1137:Generated_Source\PSoC6\pdl\drivers\peripheral\scb/cy_scb_spi.h **** *   clears the interrupt sources.
1138:Generated_Source\PSoC6\pdl\drivers\peripheral\scb/cy_scb_spi.h **** * * Level sensitive statuses such as \ref CY_SCB_SPI_TX_TRIGGER,
1139:Generated_Source\PSoC6\pdl\drivers\peripheral\scb/cy_scb_spi.h **** *   \ref CY_SCB_SPI_TX_EMPTY and \ref CY_SCB_SPI_TX_NOT_FULL set high again after
1140:Generated_Source\PSoC6\pdl\drivers\peripheral\scb/cy_scb_spi.h **** *   being cleared if the condition remains true.
1141:Generated_Source\PSoC6\pdl\drivers\peripheral\scb/cy_scb_spi.h **** *
1142:Generated_Source\PSoC6\pdl\drivers\peripheral\scb/cy_scb_spi.h **** *******************************************************************************/
1143:Generated_Source\PSoC6\pdl\drivers\peripheral\scb/cy_scb_spi.h **** __STATIC_INLINE void Cy_SCB_SPI_ClearTxFifoStatus(CySCB_Type *base, uint32_t clearMask)
1144:Generated_Source\PSoC6\pdl\drivers\peripheral\scb/cy_scb_spi.h **** {
1145:Generated_Source\PSoC6\pdl\drivers\peripheral\scb/cy_scb_spi.h ****     CY_ASSERT_L2(CY_SCB_IS_INTR_VALID(clearMask, CY_SCB_SPI_TX_INTR_MASK));
1146:Generated_Source\PSoC6\pdl\drivers\peripheral\scb/cy_scb_spi.h **** 
1147:Generated_Source\PSoC6\pdl\drivers\peripheral\scb/cy_scb_spi.h ****     Cy_SCB_ClearTxInterrupt(base, clearMask);
1148:Generated_Source\PSoC6\pdl\drivers\peripheral\scb/cy_scb_spi.h **** }
1149:Generated_Source\PSoC6\pdl\drivers\peripheral\scb/cy_scb_spi.h **** 
1150:Generated_Source\PSoC6\pdl\drivers\peripheral\scb/cy_scb_spi.h **** 
1151:Generated_Source\PSoC6\pdl\drivers\peripheral\scb/cy_scb_spi.h **** /*******************************************************************************
1152:Generated_Source\PSoC6\pdl\drivers\peripheral\scb/cy_scb_spi.h **** * Function Name: Cy_SCB_SPI_GetNumInTxFifo
1153:Generated_Source\PSoC6\pdl\drivers\peripheral\scb/cy_scb_spi.h **** ****************************************************************************//**
1154:Generated_Source\PSoC6\pdl\drivers\peripheral\scb/cy_scb_spi.h **** *
ARM GAS  C:\Users\salaz\AppData\Local\Temp\ccynHHO7.s 			page 77


1155:Generated_Source\PSoC6\pdl\drivers\peripheral\scb/cy_scb_spi.h **** * Returns the number of data elements in the SPI TX FIFO.
1156:Generated_Source\PSoC6\pdl\drivers\peripheral\scb/cy_scb_spi.h **** *
1157:Generated_Source\PSoC6\pdl\drivers\peripheral\scb/cy_scb_spi.h **** * \param base
1158:Generated_Source\PSoC6\pdl\drivers\peripheral\scb/cy_scb_spi.h **** * The pointer to the SPI SCB instance.
1159:Generated_Source\PSoC6\pdl\drivers\peripheral\scb/cy_scb_spi.h **** *
1160:Generated_Source\PSoC6\pdl\drivers\peripheral\scb/cy_scb_spi.h **** * \return
1161:Generated_Source\PSoC6\pdl\drivers\peripheral\scb/cy_scb_spi.h **** * The number of data elements in the TX FIFO.
1162:Generated_Source\PSoC6\pdl\drivers\peripheral\scb/cy_scb_spi.h **** * The size of a data element defined by the configured TX data width.
1163:Generated_Source\PSoC6\pdl\drivers\peripheral\scb/cy_scb_spi.h **** *
1164:Generated_Source\PSoC6\pdl\drivers\peripheral\scb/cy_scb_spi.h **** * \note
1165:Generated_Source\PSoC6\pdl\drivers\peripheral\scb/cy_scb_spi.h **** * This number does not include any data currently in the TX shifter.
1166:Generated_Source\PSoC6\pdl\drivers\peripheral\scb/cy_scb_spi.h **** *
1167:Generated_Source\PSoC6\pdl\drivers\peripheral\scb/cy_scb_spi.h **** *******************************************************************************/
1168:Generated_Source\PSoC6\pdl\drivers\peripheral\scb/cy_scb_spi.h **** __STATIC_INLINE uint32_t Cy_SCB_SPI_GetNumInTxFifo(CySCB_Type const *base)
1169:Generated_Source\PSoC6\pdl\drivers\peripheral\scb/cy_scb_spi.h **** {
1170:Generated_Source\PSoC6\pdl\drivers\peripheral\scb/cy_scb_spi.h ****     return Cy_SCB_GetNumInTxFifo(base);
1171:Generated_Source\PSoC6\pdl\drivers\peripheral\scb/cy_scb_spi.h **** }
1172:Generated_Source\PSoC6\pdl\drivers\peripheral\scb/cy_scb_spi.h **** 
1173:Generated_Source\PSoC6\pdl\drivers\peripheral\scb/cy_scb_spi.h **** 
1174:Generated_Source\PSoC6\pdl\drivers\peripheral\scb/cy_scb_spi.h **** /*******************************************************************************
1175:Generated_Source\PSoC6\pdl\drivers\peripheral\scb/cy_scb_spi.h **** * Function Name: Cy_SCB_SPI_IsTxComplete
1176:Generated_Source\PSoC6\pdl\drivers\peripheral\scb/cy_scb_spi.h **** ****************************************************************************//**
1177:Generated_Source\PSoC6\pdl\drivers\peripheral\scb/cy_scb_spi.h **** *
1178:Generated_Source\PSoC6\pdl\drivers\peripheral\scb/cy_scb_spi.h **** * Checks whether the TX FIFO and Shifter are empty and there is no more data to send
1179:Generated_Source\PSoC6\pdl\drivers\peripheral\scb/cy_scb_spi.h **** *
1180:Generated_Source\PSoC6\pdl\drivers\peripheral\scb/cy_scb_spi.h **** * \param base
1181:Generated_Source\PSoC6\pdl\drivers\peripheral\scb/cy_scb_spi.h **** * Pointer to the SPI SCB instance.
1182:Generated_Source\PSoC6\pdl\drivers\peripheral\scb/cy_scb_spi.h **** *
1183:Generated_Source\PSoC6\pdl\drivers\peripheral\scb/cy_scb_spi.h **** * \return
1184:Generated_Source\PSoC6\pdl\drivers\peripheral\scb/cy_scb_spi.h **** * If true, transmission complete. If false, transmission is not complete.
1185:Generated_Source\PSoC6\pdl\drivers\peripheral\scb/cy_scb_spi.h **** *
1186:Generated_Source\PSoC6\pdl\drivers\peripheral\scb/cy_scb_spi.h **** *******************************************************************************/
1187:Generated_Source\PSoC6\pdl\drivers\peripheral\scb/cy_scb_spi.h **** __STATIC_INLINE bool Cy_SCB_SPI_IsTxComplete(CySCB_Type const *base)
1188:Generated_Source\PSoC6\pdl\drivers\peripheral\scb/cy_scb_spi.h **** {
 1474              		.loc 2 1188 0
 1475              		.cfi_startproc
 1476              		@ args = 0, pretend = 0, frame = 8
 1477              		@ frame_needed = 1, uses_anonymous_args = 0
 1478 0000 80B5     		push	{r7, lr}
 1479              		.cfi_def_cfa_offset 8
 1480              		.cfi_offset 7, -8
 1481              		.cfi_offset 14, -4
 1482 0002 82B0     		sub	sp, sp, #8
 1483              		.cfi_def_cfa_offset 16
 1484 0004 00AF     		add	r7, sp, #0
 1485              		.cfi_def_cfa_register 7
 1486 0006 7860     		str	r0, [r7, #4]
1189:Generated_Source\PSoC6\pdl\drivers\peripheral\scb/cy_scb_spi.h ****     return Cy_SCB_IsTxComplete(base);
 1487              		.loc 2 1189 0
 1488 0008 7B68     		ldr	r3, [r7, #4]
 1489 000a 1800     		movs	r0, r3
 1490 000c FFF7FEFF 		bl	Cy_SCB_IsTxComplete
 1491 0010 0300     		movs	r3, r0
1190:Generated_Source\PSoC6\pdl\drivers\peripheral\scb/cy_scb_spi.h **** }
 1492              		.loc 2 1190 0
 1493 0012 1800     		movs	r0, r3
 1494 0014 BD46     		mov	sp, r7
ARM GAS  C:\Users\salaz\AppData\Local\Temp\ccynHHO7.s 			page 78


 1495 0016 02B0     		add	sp, sp, #8
 1496              		@ sp needed
 1497 0018 80BD     		pop	{r7, pc}
 1498              		.cfi_endproc
 1499              	.LFE132:
 1500              		.size	Cy_SCB_SPI_IsTxComplete, .-Cy_SCB_SPI_IsTxComplete
 1501 001a C046     		.section	.text.Cy_SCB_SPI_ClearTxFifo,"ax",%progbits
 1502              		.align	2
 1503              		.code	16
 1504              		.thumb_func
 1505              		.type	Cy_SCB_SPI_ClearTxFifo, %function
 1506              	Cy_SCB_SPI_ClearTxFifo:
 1507              	.LFB133:
1191:Generated_Source\PSoC6\pdl\drivers\peripheral\scb/cy_scb_spi.h **** 
1192:Generated_Source\PSoC6\pdl\drivers\peripheral\scb/cy_scb_spi.h **** 
1193:Generated_Source\PSoC6\pdl\drivers\peripheral\scb/cy_scb_spi.h **** /*******************************************************************************
1194:Generated_Source\PSoC6\pdl\drivers\peripheral\scb/cy_scb_spi.h **** * Function Name: Cy_SCB_SPI_ClearTxFifo
1195:Generated_Source\PSoC6\pdl\drivers\peripheral\scb/cy_scb_spi.h **** ****************************************************************************//**
1196:Generated_Source\PSoC6\pdl\drivers\peripheral\scb/cy_scb_spi.h **** *
1197:Generated_Source\PSoC6\pdl\drivers\peripheral\scb/cy_scb_spi.h **** * Clears all data out of the SPI TX FIFO.
1198:Generated_Source\PSoC6\pdl\drivers\peripheral\scb/cy_scb_spi.h **** *
1199:Generated_Source\PSoC6\pdl\drivers\peripheral\scb/cy_scb_spi.h **** * \param base
1200:Generated_Source\PSoC6\pdl\drivers\peripheral\scb/cy_scb_spi.h **** * The pointer to the SPI SCB instance.
1201:Generated_Source\PSoC6\pdl\drivers\peripheral\scb/cy_scb_spi.h **** *
1202:Generated_Source\PSoC6\pdl\drivers\peripheral\scb/cy_scb_spi.h **** * \sideeffect
1203:Generated_Source\PSoC6\pdl\drivers\peripheral\scb/cy_scb_spi.h **** * The TX FIFO clear operation also clears the shift register, so that
1204:Generated_Source\PSoC6\pdl\drivers\peripheral\scb/cy_scb_spi.h **** * the shifter can be cleared in the middle of a data element transfer,
1205:Generated_Source\PSoC6\pdl\drivers\peripheral\scb/cy_scb_spi.h **** * corrupting it. The data element corruption means that all bits that have
1206:Generated_Source\PSoC6\pdl\drivers\peripheral\scb/cy_scb_spi.h **** * not been transmitted are transmitted as 1s on the bus.
1207:Generated_Source\PSoC6\pdl\drivers\peripheral\scb/cy_scb_spi.h **** *
1208:Generated_Source\PSoC6\pdl\drivers\peripheral\scb/cy_scb_spi.h **** *******************************************************************************/
1209:Generated_Source\PSoC6\pdl\drivers\peripheral\scb/cy_scb_spi.h **** __STATIC_INLINE void Cy_SCB_SPI_ClearTxFifo(CySCB_Type *base)
1210:Generated_Source\PSoC6\pdl\drivers\peripheral\scb/cy_scb_spi.h **** {
 1508              		.loc 2 1210 0
 1509              		.cfi_startproc
 1510              		@ args = 0, pretend = 0, frame = 8
 1511              		@ frame_needed = 1, uses_anonymous_args = 0
 1512 0000 80B5     		push	{r7, lr}
 1513              		.cfi_def_cfa_offset 8
 1514              		.cfi_offset 7, -8
 1515              		.cfi_offset 14, -4
 1516 0002 82B0     		sub	sp, sp, #8
 1517              		.cfi_def_cfa_offset 16
 1518 0004 00AF     		add	r7, sp, #0
 1519              		.cfi_def_cfa_register 7
 1520 0006 7860     		str	r0, [r7, #4]
1211:Generated_Source\PSoC6\pdl\drivers\peripheral\scb/cy_scb_spi.h ****     Cy_SCB_ClearTxFifo(base);
 1521              		.loc 2 1211 0
 1522 0008 7B68     		ldr	r3, [r7, #4]
 1523 000a 1800     		movs	r0, r3
 1524 000c FFF7FEFF 		bl	Cy_SCB_ClearTxFifo
1212:Generated_Source\PSoC6\pdl\drivers\peripheral\scb/cy_scb_spi.h **** }
 1525              		.loc 2 1212 0
 1526 0010 C046     		nop
 1527 0012 BD46     		mov	sp, r7
 1528 0014 02B0     		add	sp, sp, #8
 1529              		@ sp needed
ARM GAS  C:\Users\salaz\AppData\Local\Temp\ccynHHO7.s 			page 79


 1530 0016 80BD     		pop	{r7, pc}
 1531              		.cfi_endproc
 1532              	.LFE133:
 1533              		.size	Cy_SCB_SPI_ClearTxFifo, .-Cy_SCB_SPI_ClearTxFifo
 1534              		.section	.text.Cy_SCB_SPI_Read,"ax",%progbits
 1535              		.align	2
 1536              		.code	16
 1537              		.thumb_func
 1538              		.type	Cy_SCB_SPI_Read, %function
 1539              	Cy_SCB_SPI_Read:
 1540              	.LFB136:
1213:Generated_Source\PSoC6\pdl\drivers\peripheral\scb/cy_scb_spi.h **** 
1214:Generated_Source\PSoC6\pdl\drivers\peripheral\scb/cy_scb_spi.h **** 
1215:Generated_Source\PSoC6\pdl\drivers\peripheral\scb/cy_scb_spi.h **** /*******************************************************************************
1216:Generated_Source\PSoC6\pdl\drivers\peripheral\scb/cy_scb_spi.h **** * Function Name: Cy_SCB_SPI_GetSlaveMasterStatus
1217:Generated_Source\PSoC6\pdl\drivers\peripheral\scb/cy_scb_spi.h **** ****************************************************************************//**
1218:Generated_Source\PSoC6\pdl\drivers\peripheral\scb/cy_scb_spi.h **** *
1219:Generated_Source\PSoC6\pdl\drivers\peripheral\scb/cy_scb_spi.h **** * Returns the current status of either the slave or the master, depending
1220:Generated_Source\PSoC6\pdl\drivers\peripheral\scb/cy_scb_spi.h **** * on the configured SPI mode.
1221:Generated_Source\PSoC6\pdl\drivers\peripheral\scb/cy_scb_spi.h **** * Clear the active statuses to let the SCB hardware update them.
1222:Generated_Source\PSoC6\pdl\drivers\peripheral\scb/cy_scb_spi.h **** *
1223:Generated_Source\PSoC6\pdl\drivers\peripheral\scb/cy_scb_spi.h **** * \param base
1224:Generated_Source\PSoC6\pdl\drivers\peripheral\scb/cy_scb_spi.h **** * The pointer to the SPI SCB instance.
1225:Generated_Source\PSoC6\pdl\drivers\peripheral\scb/cy_scb_spi.h **** *
1226:Generated_Source\PSoC6\pdl\drivers\peripheral\scb/cy_scb_spi.h **** * \return
1227:Generated_Source\PSoC6\pdl\drivers\peripheral\scb/cy_scb_spi.h **** * \ref group_scb_spi_macros_master_slave_status
1228:Generated_Source\PSoC6\pdl\drivers\peripheral\scb/cy_scb_spi.h **** *
1229:Generated_Source\PSoC6\pdl\drivers\peripheral\scb/cy_scb_spi.h **** *******************************************************************************/
1230:Generated_Source\PSoC6\pdl\drivers\peripheral\scb/cy_scb_spi.h **** __STATIC_INLINE uint32_t Cy_SCB_SPI_GetSlaveMasterStatus(CySCB_Type const *base)
1231:Generated_Source\PSoC6\pdl\drivers\peripheral\scb/cy_scb_spi.h **** {
1232:Generated_Source\PSoC6\pdl\drivers\peripheral\scb/cy_scb_spi.h ****     uint32_t retStatus;
1233:Generated_Source\PSoC6\pdl\drivers\peripheral\scb/cy_scb_spi.h **** 
1234:Generated_Source\PSoC6\pdl\drivers\peripheral\scb/cy_scb_spi.h ****     if (_FLD2BOOL(SCB_SPI_CTRL_MASTER_MODE, base->SPI_CTRL))
1235:Generated_Source\PSoC6\pdl\drivers\peripheral\scb/cy_scb_spi.h ****     {
1236:Generated_Source\PSoC6\pdl\drivers\peripheral\scb/cy_scb_spi.h ****         retStatus = (Cy_SCB_GetMasterInterruptStatus(base) & CY_SCB_MASTER_INTR_SPI_DONE);
1237:Generated_Source\PSoC6\pdl\drivers\peripheral\scb/cy_scb_spi.h ****     }
1238:Generated_Source\PSoC6\pdl\drivers\peripheral\scb/cy_scb_spi.h ****     else
1239:Generated_Source\PSoC6\pdl\drivers\peripheral\scb/cy_scb_spi.h ****     {
1240:Generated_Source\PSoC6\pdl\drivers\peripheral\scb/cy_scb_spi.h ****         retStatus = (Cy_SCB_GetSlaveInterruptStatus(base) & CY_SCB_SLAVE_INTR_SPI_BUS_ERROR);
1241:Generated_Source\PSoC6\pdl\drivers\peripheral\scb/cy_scb_spi.h ****     }
1242:Generated_Source\PSoC6\pdl\drivers\peripheral\scb/cy_scb_spi.h **** 
1243:Generated_Source\PSoC6\pdl\drivers\peripheral\scb/cy_scb_spi.h ****     return (retStatus);
1244:Generated_Source\PSoC6\pdl\drivers\peripheral\scb/cy_scb_spi.h **** }
1245:Generated_Source\PSoC6\pdl\drivers\peripheral\scb/cy_scb_spi.h **** 
1246:Generated_Source\PSoC6\pdl\drivers\peripheral\scb/cy_scb_spi.h **** 
1247:Generated_Source\PSoC6\pdl\drivers\peripheral\scb/cy_scb_spi.h **** /*******************************************************************************
1248:Generated_Source\PSoC6\pdl\drivers\peripheral\scb/cy_scb_spi.h **** * Function Name: Cy_SCB_SPI_ClearSlaveMasterStatus
1249:Generated_Source\PSoC6\pdl\drivers\peripheral\scb/cy_scb_spi.h **** ****************************************************************************//**
1250:Generated_Source\PSoC6\pdl\drivers\peripheral\scb/cy_scb_spi.h **** *
1251:Generated_Source\PSoC6\pdl\drivers\peripheral\scb/cy_scb_spi.h **** * Clears the selected statuses of either the slave or the master.
1252:Generated_Source\PSoC6\pdl\drivers\peripheral\scb/cy_scb_spi.h **** *
1253:Generated_Source\PSoC6\pdl\drivers\peripheral\scb/cy_scb_spi.h **** * \param base
1254:Generated_Source\PSoC6\pdl\drivers\peripheral\scb/cy_scb_spi.h **** * The pointer to the SPI SCB instance.
1255:Generated_Source\PSoC6\pdl\drivers\peripheral\scb/cy_scb_spi.h **** *
1256:Generated_Source\PSoC6\pdl\drivers\peripheral\scb/cy_scb_spi.h **** * \param clearMask
1257:Generated_Source\PSoC6\pdl\drivers\peripheral\scb/cy_scb_spi.h **** * The mask of which statuses to clear.
1258:Generated_Source\PSoC6\pdl\drivers\peripheral\scb/cy_scb_spi.h **** * See \ref group_scb_spi_macros_master_slave_status for the set of constants.
ARM GAS  C:\Users\salaz\AppData\Local\Temp\ccynHHO7.s 			page 80


1259:Generated_Source\PSoC6\pdl\drivers\peripheral\scb/cy_scb_spi.h **** *
1260:Generated_Source\PSoC6\pdl\drivers\peripheral\scb/cy_scb_spi.h **** *******************************************************************************/
1261:Generated_Source\PSoC6\pdl\drivers\peripheral\scb/cy_scb_spi.h **** __STATIC_INLINE void Cy_SCB_SPI_ClearSlaveMasterStatus(CySCB_Type *base, uint32_t clearMask)
1262:Generated_Source\PSoC6\pdl\drivers\peripheral\scb/cy_scb_spi.h **** {
1263:Generated_Source\PSoC6\pdl\drivers\peripheral\scb/cy_scb_spi.h ****     if (_FLD2BOOL(SCB_SPI_CTRL_MASTER_MODE, base->SPI_CTRL))
1264:Generated_Source\PSoC6\pdl\drivers\peripheral\scb/cy_scb_spi.h ****     {
1265:Generated_Source\PSoC6\pdl\drivers\peripheral\scb/cy_scb_spi.h ****         CY_ASSERT_L2(CY_SCB_IS_INTR_VALID(clearMask, CY_SCB_MASTER_INTR_SPI_DONE));
1266:Generated_Source\PSoC6\pdl\drivers\peripheral\scb/cy_scb_spi.h **** 
1267:Generated_Source\PSoC6\pdl\drivers\peripheral\scb/cy_scb_spi.h ****         Cy_SCB_ClearMasterInterrupt(base, clearMask);
1268:Generated_Source\PSoC6\pdl\drivers\peripheral\scb/cy_scb_spi.h ****     }
1269:Generated_Source\PSoC6\pdl\drivers\peripheral\scb/cy_scb_spi.h ****     else
1270:Generated_Source\PSoC6\pdl\drivers\peripheral\scb/cy_scb_spi.h ****     {
1271:Generated_Source\PSoC6\pdl\drivers\peripheral\scb/cy_scb_spi.h ****         CY_ASSERT_L2(CY_SCB_IS_INTR_VALID(clearMask, CY_SCB_SLAVE_INTR_SPI_BUS_ERROR));
1272:Generated_Source\PSoC6\pdl\drivers\peripheral\scb/cy_scb_spi.h **** 
1273:Generated_Source\PSoC6\pdl\drivers\peripheral\scb/cy_scb_spi.h ****         Cy_SCB_ClearSlaveInterrupt(base, clearMask);
1274:Generated_Source\PSoC6\pdl\drivers\peripheral\scb/cy_scb_spi.h ****     }
1275:Generated_Source\PSoC6\pdl\drivers\peripheral\scb/cy_scb_spi.h **** }
1276:Generated_Source\PSoC6\pdl\drivers\peripheral\scb/cy_scb_spi.h **** 
1277:Generated_Source\PSoC6\pdl\drivers\peripheral\scb/cy_scb_spi.h **** 
1278:Generated_Source\PSoC6\pdl\drivers\peripheral\scb/cy_scb_spi.h **** /*******************************************************************************
1279:Generated_Source\PSoC6\pdl\drivers\peripheral\scb/cy_scb_spi.h **** * Function Name: Cy_SCB_SPI_Read
1280:Generated_Source\PSoC6\pdl\drivers\peripheral\scb/cy_scb_spi.h **** ****************************************************************************//**
1281:Generated_Source\PSoC6\pdl\drivers\peripheral\scb/cy_scb_spi.h **** *
1282:Generated_Source\PSoC6\pdl\drivers\peripheral\scb/cy_scb_spi.h **** * Reads a single data element from the SPI RX FIFO.
1283:Generated_Source\PSoC6\pdl\drivers\peripheral\scb/cy_scb_spi.h **** * This function does not check whether the RX FIFO has data before reading it.
1284:Generated_Source\PSoC6\pdl\drivers\peripheral\scb/cy_scb_spi.h **** * If the RX FIFO is empty, the function returns \ref CY_SCB_SPI_RX_NO_DATA.
1285:Generated_Source\PSoC6\pdl\drivers\peripheral\scb/cy_scb_spi.h **** *
1286:Generated_Source\PSoC6\pdl\drivers\peripheral\scb/cy_scb_spi.h **** * \param base
1287:Generated_Source\PSoC6\pdl\drivers\peripheral\scb/cy_scb_spi.h **** * The pointer to the SPI SCB instance.
1288:Generated_Source\PSoC6\pdl\drivers\peripheral\scb/cy_scb_spi.h **** *
1289:Generated_Source\PSoC6\pdl\drivers\peripheral\scb/cy_scb_spi.h **** * \return
1290:Generated_Source\PSoC6\pdl\drivers\peripheral\scb/cy_scb_spi.h **** * Data from the RX FIFO.
1291:Generated_Source\PSoC6\pdl\drivers\peripheral\scb/cy_scb_spi.h **** * The data element size is defined by the configured RX data width.
1292:Generated_Source\PSoC6\pdl\drivers\peripheral\scb/cy_scb_spi.h **** *
1293:Generated_Source\PSoC6\pdl\drivers\peripheral\scb/cy_scb_spi.h **** * \note
1294:Generated_Source\PSoC6\pdl\drivers\peripheral\scb/cy_scb_spi.h **** * * This function only reads data available in the RX FIFO. It does not
1295:Generated_Source\PSoC6\pdl\drivers\peripheral\scb/cy_scb_spi.h **** *   initiate an SPI transfer.
1296:Generated_Source\PSoC6\pdl\drivers\peripheral\scb/cy_scb_spi.h **** * * When in the master mode, writes data into the TX FIFO and waits until
1297:Generated_Source\PSoC6\pdl\drivers\peripheral\scb/cy_scb_spi.h **** *   the transfer is completed before getting data from the RX FIFO.
1298:Generated_Source\PSoC6\pdl\drivers\peripheral\scb/cy_scb_spi.h **** *
1299:Generated_Source\PSoC6\pdl\drivers\peripheral\scb/cy_scb_spi.h **** *******************************************************************************/
1300:Generated_Source\PSoC6\pdl\drivers\peripheral\scb/cy_scb_spi.h **** __STATIC_INLINE uint32_t Cy_SCB_SPI_Read(CySCB_Type const *base)
1301:Generated_Source\PSoC6\pdl\drivers\peripheral\scb/cy_scb_spi.h **** {
 1541              		.loc 2 1301 0
 1542              		.cfi_startproc
 1543              		@ args = 0, pretend = 0, frame = 8
 1544              		@ frame_needed = 1, uses_anonymous_args = 0
 1545 0000 80B5     		push	{r7, lr}
 1546              		.cfi_def_cfa_offset 8
 1547              		.cfi_offset 7, -8
 1548              		.cfi_offset 14, -4
 1549 0002 82B0     		sub	sp, sp, #8
 1550              		.cfi_def_cfa_offset 16
 1551 0004 00AF     		add	r7, sp, #0
 1552              		.cfi_def_cfa_register 7
 1553 0006 7860     		str	r0, [r7, #4]
1302:Generated_Source\PSoC6\pdl\drivers\peripheral\scb/cy_scb_spi.h ****     return Cy_SCB_ReadRxFifo(base);
ARM GAS  C:\Users\salaz\AppData\Local\Temp\ccynHHO7.s 			page 81


 1554              		.loc 2 1302 0
 1555 0008 7B68     		ldr	r3, [r7, #4]
 1556 000a 1800     		movs	r0, r3
 1557 000c FFF7FEFF 		bl	Cy_SCB_ReadRxFifo
 1558 0010 0300     		movs	r3, r0
1303:Generated_Source\PSoC6\pdl\drivers\peripheral\scb/cy_scb_spi.h **** }
 1559              		.loc 2 1303 0
 1560 0012 1800     		movs	r0, r3
 1561 0014 BD46     		mov	sp, r7
 1562 0016 02B0     		add	sp, sp, #8
 1563              		@ sp needed
 1564 0018 80BD     		pop	{r7, pc}
 1565              		.cfi_endproc
 1566              	.LFE136:
 1567              		.size	Cy_SCB_SPI_Read, .-Cy_SCB_SPI_Read
 1568 001a C046     		.section	.text.CY_SCB_SPI_GetSclkMode,"ax",%progbits
 1569              		.align	2
 1570              		.code	16
 1571              		.thumb_func
 1572              		.type	CY_SCB_SPI_GetSclkMode, %function
 1573              	CY_SCB_SPI_GetSclkMode:
 1574              	.LFB142:
1304:Generated_Source\PSoC6\pdl\drivers\peripheral\scb/cy_scb_spi.h **** 
1305:Generated_Source\PSoC6\pdl\drivers\peripheral\scb/cy_scb_spi.h **** 
1306:Generated_Source\PSoC6\pdl\drivers\peripheral\scb/cy_scb_spi.h **** /*******************************************************************************
1307:Generated_Source\PSoC6\pdl\drivers\peripheral\scb/cy_scb_spi.h **** * Function Name: Cy_SCB_SPI_ReadArray
1308:Generated_Source\PSoC6\pdl\drivers\peripheral\scb/cy_scb_spi.h **** ****************************************************************************//**
1309:Generated_Source\PSoC6\pdl\drivers\peripheral\scb/cy_scb_spi.h **** *
1310:Generated_Source\PSoC6\pdl\drivers\peripheral\scb/cy_scb_spi.h **** * Reads an array of data out of the SPI RX FIFO.
1311:Generated_Source\PSoC6\pdl\drivers\peripheral\scb/cy_scb_spi.h **** * This function does not block. It returns how many data elements were read
1312:Generated_Source\PSoC6\pdl\drivers\peripheral\scb/cy_scb_spi.h **** * from the RX FIFO.
1313:Generated_Source\PSoC6\pdl\drivers\peripheral\scb/cy_scb_spi.h **** *
1314:Generated_Source\PSoC6\pdl\drivers\peripheral\scb/cy_scb_spi.h **** * \param base
1315:Generated_Source\PSoC6\pdl\drivers\peripheral\scb/cy_scb_spi.h **** * The pointer to the SPI SCB instance.
1316:Generated_Source\PSoC6\pdl\drivers\peripheral\scb/cy_scb_spi.h **** *
1317:Generated_Source\PSoC6\pdl\drivers\peripheral\scb/cy_scb_spi.h **** * \param buffer
1318:Generated_Source\PSoC6\pdl\drivers\peripheral\scb/cy_scb_spi.h **** * The pointer to the location to place data read from the RX FIFO.
1319:Generated_Source\PSoC6\pdl\drivers\peripheral\scb/cy_scb_spi.h **** * The item size is defined by the data type, which depends on the configured
1320:Generated_Source\PSoC6\pdl\drivers\peripheral\scb/cy_scb_spi.h **** * RX data width.
1321:Generated_Source\PSoC6\pdl\drivers\peripheral\scb/cy_scb_spi.h **** *
1322:Generated_Source\PSoC6\pdl\drivers\peripheral\scb/cy_scb_spi.h **** * \param size
1323:Generated_Source\PSoC6\pdl\drivers\peripheral\scb/cy_scb_spi.h **** * The number of data elements to read from the RX FIFO.
1324:Generated_Source\PSoC6\pdl\drivers\peripheral\scb/cy_scb_spi.h **** *
1325:Generated_Source\PSoC6\pdl\drivers\peripheral\scb/cy_scb_spi.h **** * \return
1326:Generated_Source\PSoC6\pdl\drivers\peripheral\scb/cy_scb_spi.h **** * The number of data elements read from the RX FIFO.
1327:Generated_Source\PSoC6\pdl\drivers\peripheral\scb/cy_scb_spi.h **** *
1328:Generated_Source\PSoC6\pdl\drivers\peripheral\scb/cy_scb_spi.h **** * \note
1329:Generated_Source\PSoC6\pdl\drivers\peripheral\scb/cy_scb_spi.h **** * * This function only reads data available in the RX FIFO. It does not
1330:Generated_Source\PSoC6\pdl\drivers\peripheral\scb/cy_scb_spi.h **** *   initiate an SPI transfer.
1331:Generated_Source\PSoC6\pdl\drivers\peripheral\scb/cy_scb_spi.h **** * * When in the master mode, writes data into the TX FIFO and waits until
1332:Generated_Source\PSoC6\pdl\drivers\peripheral\scb/cy_scb_spi.h **** *   the transfer is completed before getting data from the RX FIFO.
1333:Generated_Source\PSoC6\pdl\drivers\peripheral\scb/cy_scb_spi.h **** *
1334:Generated_Source\PSoC6\pdl\drivers\peripheral\scb/cy_scb_spi.h **** *******************************************************************************/
1335:Generated_Source\PSoC6\pdl\drivers\peripheral\scb/cy_scb_spi.h **** __STATIC_INLINE uint32_t Cy_SCB_SPI_ReadArray(CySCB_Type const *base, void *buffer, uint32_t size)
1336:Generated_Source\PSoC6\pdl\drivers\peripheral\scb/cy_scb_spi.h **** {
1337:Generated_Source\PSoC6\pdl\drivers\peripheral\scb/cy_scb_spi.h ****     CY_ASSERT_L1(CY_SCB_IS_BUFFER_VALID(buffer, size));
1338:Generated_Source\PSoC6\pdl\drivers\peripheral\scb/cy_scb_spi.h **** 
ARM GAS  C:\Users\salaz\AppData\Local\Temp\ccynHHO7.s 			page 82


1339:Generated_Source\PSoC6\pdl\drivers\peripheral\scb/cy_scb_spi.h ****     return Cy_SCB_ReadArray(base, buffer, size);
1340:Generated_Source\PSoC6\pdl\drivers\peripheral\scb/cy_scb_spi.h **** }
1341:Generated_Source\PSoC6\pdl\drivers\peripheral\scb/cy_scb_spi.h **** 
1342:Generated_Source\PSoC6\pdl\drivers\peripheral\scb/cy_scb_spi.h **** 
1343:Generated_Source\PSoC6\pdl\drivers\peripheral\scb/cy_scb_spi.h **** /*******************************************************************************
1344:Generated_Source\PSoC6\pdl\drivers\peripheral\scb/cy_scb_spi.h **** * Function Name: Cy_SCB_SPI_Write
1345:Generated_Source\PSoC6\pdl\drivers\peripheral\scb/cy_scb_spi.h **** ****************************************************************************//**
1346:Generated_Source\PSoC6\pdl\drivers\peripheral\scb/cy_scb_spi.h **** *
1347:Generated_Source\PSoC6\pdl\drivers\peripheral\scb/cy_scb_spi.h **** * Places a single data element in the SPI TX FIFO.
1348:Generated_Source\PSoC6\pdl\drivers\peripheral\scb/cy_scb_spi.h **** * This function does not block. It returns how many data elements were placed
1349:Generated_Source\PSoC6\pdl\drivers\peripheral\scb/cy_scb_spi.h **** * in the TX FIFO.
1350:Generated_Source\PSoC6\pdl\drivers\peripheral\scb/cy_scb_spi.h **** *
1351:Generated_Source\PSoC6\pdl\drivers\peripheral\scb/cy_scb_spi.h **** * \param base
1352:Generated_Source\PSoC6\pdl\drivers\peripheral\scb/cy_scb_spi.h **** * The pointer to the SPI SCB instance.
1353:Generated_Source\PSoC6\pdl\drivers\peripheral\scb/cy_scb_spi.h **** *
1354:Generated_Source\PSoC6\pdl\drivers\peripheral\scb/cy_scb_spi.h **** * \param data
1355:Generated_Source\PSoC6\pdl\drivers\peripheral\scb/cy_scb_spi.h **** * Data to put in the TX FIFO.
1356:Generated_Source\PSoC6\pdl\drivers\peripheral\scb/cy_scb_spi.h **** * The item size is defined by the data type, which depends on the configured
1357:Generated_Source\PSoC6\pdl\drivers\peripheral\scb/cy_scb_spi.h **** * TX data width.
1358:Generated_Source\PSoC6\pdl\drivers\peripheral\scb/cy_scb_spi.h **** *
1359:Generated_Source\PSoC6\pdl\drivers\peripheral\scb/cy_scb_spi.h **** * \return
1360:Generated_Source\PSoC6\pdl\drivers\peripheral\scb/cy_scb_spi.h **** * The number of data elements placed in the TX FIFO: 0 or 1.
1361:Generated_Source\PSoC6\pdl\drivers\peripheral\scb/cy_scb_spi.h **** *
1362:Generated_Source\PSoC6\pdl\drivers\peripheral\scb/cy_scb_spi.h **** * \note
1363:Generated_Source\PSoC6\pdl\drivers\peripheral\scb/cy_scb_spi.h **** * * When in the master mode, writing data into the TX FIFO starts an SPI
1364:Generated_Source\PSoC6\pdl\drivers\peripheral\scb/cy_scb_spi.h **** *   transfer.
1365:Generated_Source\PSoC6\pdl\drivers\peripheral\scb/cy_scb_spi.h **** * * When in the slave mode, writing data into the TX FIFO does not start
1366:Generated_Source\PSoC6\pdl\drivers\peripheral\scb/cy_scb_spi.h **** *   an SPI transfer. The data is loaded in the TX FIFO and will be sent
1367:Generated_Source\PSoC6\pdl\drivers\peripheral\scb/cy_scb_spi.h **** *   to the master on its request.
1368:Generated_Source\PSoC6\pdl\drivers\peripheral\scb/cy_scb_spi.h **** * * The SPI interface is full-duplex, therefore reads and writes occur
1369:Generated_Source\PSoC6\pdl\drivers\peripheral\scb/cy_scb_spi.h **** *   at the same time. Thus for every data element transferred out of the
1370:Generated_Source\PSoC6\pdl\drivers\peripheral\scb/cy_scb_spi.h **** *   TX FIFO, one is transferred into the RX FIFO.
1371:Generated_Source\PSoC6\pdl\drivers\peripheral\scb/cy_scb_spi.h **** *
1372:Generated_Source\PSoC6\pdl\drivers\peripheral\scb/cy_scb_spi.h **** *******************************************************************************/
1373:Generated_Source\PSoC6\pdl\drivers\peripheral\scb/cy_scb_spi.h **** __STATIC_INLINE uint32_t Cy_SCB_SPI_Write(CySCB_Type *base, uint32_t data)
1374:Generated_Source\PSoC6\pdl\drivers\peripheral\scb/cy_scb_spi.h **** {
1375:Generated_Source\PSoC6\pdl\drivers\peripheral\scb/cy_scb_spi.h ****     return Cy_SCB_Write(base, data);
1376:Generated_Source\PSoC6\pdl\drivers\peripheral\scb/cy_scb_spi.h **** }
1377:Generated_Source\PSoC6\pdl\drivers\peripheral\scb/cy_scb_spi.h **** 
1378:Generated_Source\PSoC6\pdl\drivers\peripheral\scb/cy_scb_spi.h **** 
1379:Generated_Source\PSoC6\pdl\drivers\peripheral\scb/cy_scb_spi.h **** /*******************************************************************************
1380:Generated_Source\PSoC6\pdl\drivers\peripheral\scb/cy_scb_spi.h **** * Function Name: Cy_SCB_SPI_WriteArray
1381:Generated_Source\PSoC6\pdl\drivers\peripheral\scb/cy_scb_spi.h **** ****************************************************************************//**
1382:Generated_Source\PSoC6\pdl\drivers\peripheral\scb/cy_scb_spi.h **** *
1383:Generated_Source\PSoC6\pdl\drivers\peripheral\scb/cy_scb_spi.h **** * Places an array of data in the SPI TX FIFO. This function does not
1384:Generated_Source\PSoC6\pdl\drivers\peripheral\scb/cy_scb_spi.h **** * block. It returns how many data elements were placed in the TX FIFO.
1385:Generated_Source\PSoC6\pdl\drivers\peripheral\scb/cy_scb_spi.h **** *
1386:Generated_Source\PSoC6\pdl\drivers\peripheral\scb/cy_scb_spi.h **** * \param base
1387:Generated_Source\PSoC6\pdl\drivers\peripheral\scb/cy_scb_spi.h **** * The pointer to the SPI SCB instance.
1388:Generated_Source\PSoC6\pdl\drivers\peripheral\scb/cy_scb_spi.h **** *
1389:Generated_Source\PSoC6\pdl\drivers\peripheral\scb/cy_scb_spi.h **** * \param buffer
1390:Generated_Source\PSoC6\pdl\drivers\peripheral\scb/cy_scb_spi.h **** * The pointer to the data to place in the TX FIFO.
1391:Generated_Source\PSoC6\pdl\drivers\peripheral\scb/cy_scb_spi.h **** * The item size is defined by the data type, which depends on the configured
1392:Generated_Source\PSoC6\pdl\drivers\peripheral\scb/cy_scb_spi.h **** * TX data width.
1393:Generated_Source\PSoC6\pdl\drivers\peripheral\scb/cy_scb_spi.h **** *
1394:Generated_Source\PSoC6\pdl\drivers\peripheral\scb/cy_scb_spi.h **** * \param size
1395:Generated_Source\PSoC6\pdl\drivers\peripheral\scb/cy_scb_spi.h **** * The number of data elements to transmit.
ARM GAS  C:\Users\salaz\AppData\Local\Temp\ccynHHO7.s 			page 83


1396:Generated_Source\PSoC6\pdl\drivers\peripheral\scb/cy_scb_spi.h **** *
1397:Generated_Source\PSoC6\pdl\drivers\peripheral\scb/cy_scb_spi.h **** * \return
1398:Generated_Source\PSoC6\pdl\drivers\peripheral\scb/cy_scb_spi.h **** * The number of data elements placed in the TX FIFO.
1399:Generated_Source\PSoC6\pdl\drivers\peripheral\scb/cy_scb_spi.h **** *
1400:Generated_Source\PSoC6\pdl\drivers\peripheral\scb/cy_scb_spi.h **** * \note
1401:Generated_Source\PSoC6\pdl\drivers\peripheral\scb/cy_scb_spi.h **** * * When in the master mode, writing data into the TX FIFO starts an SPI
1402:Generated_Source\PSoC6\pdl\drivers\peripheral\scb/cy_scb_spi.h **** *   transfer.
1403:Generated_Source\PSoC6\pdl\drivers\peripheral\scb/cy_scb_spi.h **** * * When in the slave mode, writing data into the TX FIFO does not start
1404:Generated_Source\PSoC6\pdl\drivers\peripheral\scb/cy_scb_spi.h **** *   an SPI transfer. The data is loaded in the TX FIFO and will be sent to
1405:Generated_Source\PSoC6\pdl\drivers\peripheral\scb/cy_scb_spi.h **** *   the master on its request.
1406:Generated_Source\PSoC6\pdl\drivers\peripheral\scb/cy_scb_spi.h **** * * The SPI interface is full-duplex, therefore reads and writes occur
1407:Generated_Source\PSoC6\pdl\drivers\peripheral\scb/cy_scb_spi.h **** *   at the same time. Thus for every data element transferred out of the
1408:Generated_Source\PSoC6\pdl\drivers\peripheral\scb/cy_scb_spi.h **** *   TX FIFO, one is transferred into the RX FIFO.
1409:Generated_Source\PSoC6\pdl\drivers\peripheral\scb/cy_scb_spi.h **** *
1410:Generated_Source\PSoC6\pdl\drivers\peripheral\scb/cy_scb_spi.h **** *******************************************************************************/
1411:Generated_Source\PSoC6\pdl\drivers\peripheral\scb/cy_scb_spi.h **** __STATIC_INLINE uint32_t Cy_SCB_SPI_WriteArray(CySCB_Type *base, void *buffer, uint32_t size)
1412:Generated_Source\PSoC6\pdl\drivers\peripheral\scb/cy_scb_spi.h **** {
1413:Generated_Source\PSoC6\pdl\drivers\peripheral\scb/cy_scb_spi.h ****     CY_ASSERT_L1(CY_SCB_IS_BUFFER_VALID(buffer, size));
1414:Generated_Source\PSoC6\pdl\drivers\peripheral\scb/cy_scb_spi.h **** 
1415:Generated_Source\PSoC6\pdl\drivers\peripheral\scb/cy_scb_spi.h ****     return Cy_SCB_WriteArray(base, buffer, size);
1416:Generated_Source\PSoC6\pdl\drivers\peripheral\scb/cy_scb_spi.h **** }
1417:Generated_Source\PSoC6\pdl\drivers\peripheral\scb/cy_scb_spi.h **** 
1418:Generated_Source\PSoC6\pdl\drivers\peripheral\scb/cy_scb_spi.h **** 
1419:Generated_Source\PSoC6\pdl\drivers\peripheral\scb/cy_scb_spi.h **** /*******************************************************************************
1420:Generated_Source\PSoC6\pdl\drivers\peripheral\scb/cy_scb_spi.h **** * Function Name: Cy_SCB_SPI_WriteArrayBlocking
1421:Generated_Source\PSoC6\pdl\drivers\peripheral\scb/cy_scb_spi.h **** ****************************************************************************//**
1422:Generated_Source\PSoC6\pdl\drivers\peripheral\scb/cy_scb_spi.h **** *
1423:Generated_Source\PSoC6\pdl\drivers\peripheral\scb/cy_scb_spi.h **** * Places an array of data in the SPI TX FIFO. This function blocks
1424:Generated_Source\PSoC6\pdl\drivers\peripheral\scb/cy_scb_spi.h **** * until the number of data elements specified by size is placed in the SPI
1425:Generated_Source\PSoC6\pdl\drivers\peripheral\scb/cy_scb_spi.h **** * TX FIFO.
1426:Generated_Source\PSoC6\pdl\drivers\peripheral\scb/cy_scb_spi.h **** *
1427:Generated_Source\PSoC6\pdl\drivers\peripheral\scb/cy_scb_spi.h **** * \param base
1428:Generated_Source\PSoC6\pdl\drivers\peripheral\scb/cy_scb_spi.h **** * The pointer to the SPI SCB instance.
1429:Generated_Source\PSoC6\pdl\drivers\peripheral\scb/cy_scb_spi.h **** *
1430:Generated_Source\PSoC6\pdl\drivers\peripheral\scb/cy_scb_spi.h **** * \param buffer
1431:Generated_Source\PSoC6\pdl\drivers\peripheral\scb/cy_scb_spi.h **** * The pointer to data to place in the TX FIFO.
1432:Generated_Source\PSoC6\pdl\drivers\peripheral\scb/cy_scb_spi.h **** * The item size is defined by the data type, which depends on the configured
1433:Generated_Source\PSoC6\pdl\drivers\peripheral\scb/cy_scb_spi.h **** * TX data width.
1434:Generated_Source\PSoC6\pdl\drivers\peripheral\scb/cy_scb_spi.h **** *
1435:Generated_Source\PSoC6\pdl\drivers\peripheral\scb/cy_scb_spi.h **** * \param size
1436:Generated_Source\PSoC6\pdl\drivers\peripheral\scb/cy_scb_spi.h **** * The number of data elements to write into the TX FIFO.
1437:Generated_Source\PSoC6\pdl\drivers\peripheral\scb/cy_scb_spi.h **** *
1438:Generated_Source\PSoC6\pdl\drivers\peripheral\scb/cy_scb_spi.h **** * \note
1439:Generated_Source\PSoC6\pdl\drivers\peripheral\scb/cy_scb_spi.h **** * * When in the master mode, writing data into the TX FIFO starts an SPI
1440:Generated_Source\PSoC6\pdl\drivers\peripheral\scb/cy_scb_spi.h **** *   transfer.
1441:Generated_Source\PSoC6\pdl\drivers\peripheral\scb/cy_scb_spi.h **** * * When in the slave mode, writing data into the TX FIFO does not start
1442:Generated_Source\PSoC6\pdl\drivers\peripheral\scb/cy_scb_spi.h **** *   an SPI transfer. The data is loaded in the TX FIFO and will be sent to
1443:Generated_Source\PSoC6\pdl\drivers\peripheral\scb/cy_scb_spi.h **** *   the master on its request.
1444:Generated_Source\PSoC6\pdl\drivers\peripheral\scb/cy_scb_spi.h **** * * The SPI interface is full-duplex, therefore reads and writes occur
1445:Generated_Source\PSoC6\pdl\drivers\peripheral\scb/cy_scb_spi.h **** *   at the same time. Thus for every data element transferred out of the
1446:Generated_Source\PSoC6\pdl\drivers\peripheral\scb/cy_scb_spi.h **** *   TX FIFO, one is transferred into the RX FIFO.
1447:Generated_Source\PSoC6\pdl\drivers\peripheral\scb/cy_scb_spi.h **** *
1448:Generated_Source\PSoC6\pdl\drivers\peripheral\scb/cy_scb_spi.h **** *******************************************************************************/
1449:Generated_Source\PSoC6\pdl\drivers\peripheral\scb/cy_scb_spi.h **** __STATIC_INLINE void Cy_SCB_SPI_WriteArrayBlocking(CySCB_Type *base, void *buffer, uint32_t size)
1450:Generated_Source\PSoC6\pdl\drivers\peripheral\scb/cy_scb_spi.h **** {
1451:Generated_Source\PSoC6\pdl\drivers\peripheral\scb/cy_scb_spi.h ****     CY_ASSERT_L1(CY_SCB_IS_BUFFER_VALID(buffer, size));
1452:Generated_Source\PSoC6\pdl\drivers\peripheral\scb/cy_scb_spi.h **** 
ARM GAS  C:\Users\salaz\AppData\Local\Temp\ccynHHO7.s 			page 84


1453:Generated_Source\PSoC6\pdl\drivers\peripheral\scb/cy_scb_spi.h ****     Cy_SCB_WriteArrayBlocking(base, buffer, size);
1454:Generated_Source\PSoC6\pdl\drivers\peripheral\scb/cy_scb_spi.h **** }
1455:Generated_Source\PSoC6\pdl\drivers\peripheral\scb/cy_scb_spi.h **** /** \} group_scb_spi_low_level_functions */
1456:Generated_Source\PSoC6\pdl\drivers\peripheral\scb/cy_scb_spi.h **** 
1457:Generated_Source\PSoC6\pdl\drivers\peripheral\scb/cy_scb_spi.h **** 
1458:Generated_Source\PSoC6\pdl\drivers\peripheral\scb/cy_scb_spi.h **** /**
1459:Generated_Source\PSoC6\pdl\drivers\peripheral\scb/cy_scb_spi.h **** * \addtogroup group_scb_spi_interrupt_functions
1460:Generated_Source\PSoC6\pdl\drivers\peripheral\scb/cy_scb_spi.h **** * \{
1461:Generated_Source\PSoC6\pdl\drivers\peripheral\scb/cy_scb_spi.h **** */
1462:Generated_Source\PSoC6\pdl\drivers\peripheral\scb/cy_scb_spi.h **** /*******************************************************************************
1463:Generated_Source\PSoC6\pdl\drivers\peripheral\scb/cy_scb_spi.h **** * Function Name: Cy_SCB_SPI_RegisterCallback
1464:Generated_Source\PSoC6\pdl\drivers\peripheral\scb/cy_scb_spi.h **** ****************************************************************************//**
1465:Generated_Source\PSoC6\pdl\drivers\peripheral\scb/cy_scb_spi.h **** *
1466:Generated_Source\PSoC6\pdl\drivers\peripheral\scb/cy_scb_spi.h **** * Registers a callback function, which notifies that
1467:Generated_Source\PSoC6\pdl\drivers\peripheral\scb/cy_scb_spi.h **** * \ref group_scb_spi_macros_callback_events occurred in the
1468:Generated_Source\PSoC6\pdl\drivers\peripheral\scb/cy_scb_spi.h **** * \ref Cy_SCB_SPI_Interrupt.
1469:Generated_Source\PSoC6\pdl\drivers\peripheral\scb/cy_scb_spi.h **** *
1470:Generated_Source\PSoC6\pdl\drivers\peripheral\scb/cy_scb_spi.h **** * \param base
1471:Generated_Source\PSoC6\pdl\drivers\peripheral\scb/cy_scb_spi.h **** * The pointer to the SPI SCB instance.
1472:Generated_Source\PSoC6\pdl\drivers\peripheral\scb/cy_scb_spi.h **** *
1473:Generated_Source\PSoC6\pdl\drivers\peripheral\scb/cy_scb_spi.h **** * \param callback
1474:Generated_Source\PSoC6\pdl\drivers\peripheral\scb/cy_scb_spi.h **** * The pointer to the callback function.
1475:Generated_Source\PSoC6\pdl\drivers\peripheral\scb/cy_scb_spi.h **** * See \ref cy_cb_scb_spi_handle_events_t for the function prototype.
1476:Generated_Source\PSoC6\pdl\drivers\peripheral\scb/cy_scb_spi.h **** *
1477:Generated_Source\PSoC6\pdl\drivers\peripheral\scb/cy_scb_spi.h **** * \param context
1478:Generated_Source\PSoC6\pdl\drivers\peripheral\scb/cy_scb_spi.h **** * The pointer to the context structure \ref cy_stc_scb_spi_context_t allocated
1479:Generated_Source\PSoC6\pdl\drivers\peripheral\scb/cy_scb_spi.h **** * by the user. The structure is used during the SPI operation for internal
1480:Generated_Source\PSoC6\pdl\drivers\peripheral\scb/cy_scb_spi.h **** * configuration and data retention. The user should not modify anything
1481:Generated_Source\PSoC6\pdl\drivers\peripheral\scb/cy_scb_spi.h **** * in this structure.
1482:Generated_Source\PSoC6\pdl\drivers\peripheral\scb/cy_scb_spi.h **** *
1483:Generated_Source\PSoC6\pdl\drivers\peripheral\scb/cy_scb_spi.h **** * \note
1484:Generated_Source\PSoC6\pdl\drivers\peripheral\scb/cy_scb_spi.h **** * To remove the callback, pass NULL as the pointer to the callback function.
1485:Generated_Source\PSoC6\pdl\drivers\peripheral\scb/cy_scb_spi.h **** *
1486:Generated_Source\PSoC6\pdl\drivers\peripheral\scb/cy_scb_spi.h **** *******************************************************************************/
1487:Generated_Source\PSoC6\pdl\drivers\peripheral\scb/cy_scb_spi.h **** __STATIC_INLINE void Cy_SCB_SPI_RegisterCallback(CySCB_Type const *base,
1488:Generated_Source\PSoC6\pdl\drivers\peripheral\scb/cy_scb_spi.h ****             cy_cb_scb_spi_handle_events_t callback, cy_stc_scb_spi_context_t *context)
1489:Generated_Source\PSoC6\pdl\drivers\peripheral\scb/cy_scb_spi.h **** {
1490:Generated_Source\PSoC6\pdl\drivers\peripheral\scb/cy_scb_spi.h ****     /* Suppress a compiler warning about unused variables */
1491:Generated_Source\PSoC6\pdl\drivers\peripheral\scb/cy_scb_spi.h ****     (void) base;
1492:Generated_Source\PSoC6\pdl\drivers\peripheral\scb/cy_scb_spi.h **** 
1493:Generated_Source\PSoC6\pdl\drivers\peripheral\scb/cy_scb_spi.h ****     context->cbEvents = callback;
1494:Generated_Source\PSoC6\pdl\drivers\peripheral\scb/cy_scb_spi.h **** }
1495:Generated_Source\PSoC6\pdl\drivers\peripheral\scb/cy_scb_spi.h **** 
1496:Generated_Source\PSoC6\pdl\drivers\peripheral\scb/cy_scb_spi.h **** /** \cond INTERNAL */
1497:Generated_Source\PSoC6\pdl\drivers\peripheral\scb/cy_scb_spi.h **** /*******************************************************************************
1498:Generated_Source\PSoC6\pdl\drivers\peripheral\scb/cy_scb_spi.h **** * Function Name: CY_SCB_SPI_GetSclkMode
1499:Generated_Source\PSoC6\pdl\drivers\peripheral\scb/cy_scb_spi.h **** ****************************************************************************//**
1500:Generated_Source\PSoC6\pdl\drivers\peripheral\scb/cy_scb_spi.h **** *
1501:Generated_Source\PSoC6\pdl\drivers\peripheral\scb/cy_scb_spi.h **** * Return correct SCLK mode depends on selected sub mode.
1502:Generated_Source\PSoC6\pdl\drivers\peripheral\scb/cy_scb_spi.h **** *
1503:Generated_Source\PSoC6\pdl\drivers\peripheral\scb/cy_scb_spi.h **** * \param subMode
1504:Generated_Source\PSoC6\pdl\drivers\peripheral\scb/cy_scb_spi.h **** * \ref cy_en_scb_spi_sub_mode_t
1505:Generated_Source\PSoC6\pdl\drivers\peripheral\scb/cy_scb_spi.h **** *
1506:Generated_Source\PSoC6\pdl\drivers\peripheral\scb/cy_scb_spi.h **** * \param sclkMode
1507:Generated_Source\PSoC6\pdl\drivers\peripheral\scb/cy_scb_spi.h **** * \ref cy_en_scb_spi_sclk_mode_t
1508:Generated_Source\PSoC6\pdl\drivers\peripheral\scb/cy_scb_spi.h **** *
1509:Generated_Source\PSoC6\pdl\drivers\peripheral\scb/cy_scb_spi.h **** * \return
ARM GAS  C:\Users\salaz\AppData\Local\Temp\ccynHHO7.s 			page 85


1510:Generated_Source\PSoC6\pdl\drivers\peripheral\scb/cy_scb_spi.h **** * \ref cy_en_scb_spi_sclk_mode_t
1511:Generated_Source\PSoC6\pdl\drivers\peripheral\scb/cy_scb_spi.h **** *
1512:Generated_Source\PSoC6\pdl\drivers\peripheral\scb/cy_scb_spi.h **** *******************************************************************************/
1513:Generated_Source\PSoC6\pdl\drivers\peripheral\scb/cy_scb_spi.h **** __STATIC_INLINE uint32_t CY_SCB_SPI_GetSclkMode(cy_en_scb_spi_sub_mode_t subMode , cy_en_scb_spi_sc
1514:Generated_Source\PSoC6\pdl\drivers\peripheral\scb/cy_scb_spi.h **** {
 1575              		.loc 2 1514 0
 1576              		.cfi_startproc
 1577              		@ args = 0, pretend = 0, frame = 8
 1578              		@ frame_needed = 1, uses_anonymous_args = 0
 1579 0000 80B5     		push	{r7, lr}
 1580              		.cfi_def_cfa_offset 8
 1581              		.cfi_offset 7, -8
 1582              		.cfi_offset 14, -4
 1583 0002 82B0     		sub	sp, sp, #8
 1584              		.cfi_def_cfa_offset 16
 1585 0004 00AF     		add	r7, sp, #0
 1586              		.cfi_def_cfa_register 7
 1587 0006 0200     		movs	r2, r0
 1588 0008 FB1D     		adds	r3, r7, #7
 1589 000a 1A70     		strb	r2, [r3]
 1590 000c BB1D     		adds	r3, r7, #6
 1591 000e 0A1C     		adds	r2, r1, #0
 1592 0010 1A70     		strb	r2, [r3]
1515:Generated_Source\PSoC6\pdl\drivers\peripheral\scb/cy_scb_spi.h ****     switch (subMode)
 1593              		.loc 2 1515 0
 1594 0012 FB1D     		adds	r3, r7, #7
 1595 0014 1B78     		ldrb	r3, [r3]
 1596 0016 012B     		cmp	r3, #1
 1597 0018 07D0     		beq	.L106
 1598 001a 02DC     		bgt	.L107
 1599 001c 002B     		cmp	r3, #0
 1600 001e 08D0     		beq	.L108
 1601 0020 0AE0     		b	.L105
 1602              	.L107:
 1603 0022 022B     		cmp	r3, #2
 1604 0024 03D0     		beq	.L109
 1605 0026 052B     		cmp	r3, #5
 1606 0028 06D1     		bne	.L105
 1607              	.L106:
1516:Generated_Source\PSoC6\pdl\drivers\peripheral\scb/cy_scb_spi.h ****     {
1517:Generated_Source\PSoC6\pdl\drivers\peripheral\scb/cy_scb_spi.h ****         case CY_SCB_SPI_TI_PRECEDES:
1518:Generated_Source\PSoC6\pdl\drivers\peripheral\scb/cy_scb_spi.h ****         case CY_SCB_SPI_TI_COINCIDES:
1519:Generated_Source\PSoC6\pdl\drivers\peripheral\scb/cy_scb_spi.h ****             return (uint32_t) CY_SCB_SPI_CPHA1_CPOL0;
 1608              		.loc 2 1519 0
 1609 002a 0223     		movs	r3, #2
 1610 002c 06E0     		b	.L110
 1611              	.L109:
1520:Generated_Source\PSoC6\pdl\drivers\peripheral\scb/cy_scb_spi.h **** 
1521:Generated_Source\PSoC6\pdl\drivers\peripheral\scb/cy_scb_spi.h ****         case CY_SCB_SPI_NATIONAL:
1522:Generated_Source\PSoC6\pdl\drivers\peripheral\scb/cy_scb_spi.h ****             return (uint32_t) CY_SCB_SPI_CPHA0_CPOL0;
 1612              		.loc 2 1522 0
 1613 002e 0023     		movs	r3, #0
 1614 0030 04E0     		b	.L110
 1615              	.L108:
1523:Generated_Source\PSoC6\pdl\drivers\peripheral\scb/cy_scb_spi.h **** 
1524:Generated_Source\PSoC6\pdl\drivers\peripheral\scb/cy_scb_spi.h ****         case CY_SCB_SPI_MOTOROLA:
1525:Generated_Source\PSoC6\pdl\drivers\peripheral\scb/cy_scb_spi.h ****             return (uint32_t) sclkMode;
ARM GAS  C:\Users\salaz\AppData\Local\Temp\ccynHHO7.s 			page 86


 1616              		.loc 2 1525 0
 1617 0032 BB1D     		adds	r3, r7, #6
 1618 0034 1B78     		ldrb	r3, [r3]
 1619 0036 01E0     		b	.L110
 1620              	.L105:
1526:Generated_Source\PSoC6\pdl\drivers\peripheral\scb/cy_scb_spi.h **** 
1527:Generated_Source\PSoC6\pdl\drivers\peripheral\scb/cy_scb_spi.h ****         default:
1528:Generated_Source\PSoC6\pdl\drivers\peripheral\scb/cy_scb_spi.h ****             return (uint32_t) sclkMode;
 1621              		.loc 2 1528 0
 1622 0038 BB1D     		adds	r3, r7, #6
 1623 003a 1B78     		ldrb	r3, [r3]
 1624              	.L110:
1529:Generated_Source\PSoC6\pdl\drivers\peripheral\scb/cy_scb_spi.h ****     }
1530:Generated_Source\PSoC6\pdl\drivers\peripheral\scb/cy_scb_spi.h **** }
 1625              		.loc 2 1530 0
 1626 003c 1800     		movs	r0, r3
 1627 003e BD46     		mov	sp, r7
 1628 0040 02B0     		add	sp, sp, #8
 1629              		@ sp needed
 1630 0042 80BD     		pop	{r7, pc}
 1631              		.cfi_endproc
 1632              	.LFE142:
 1633              		.size	CY_SCB_SPI_GetSclkMode, .-CY_SCB_SPI_GetSclkMode
 1634              		.section	.rodata
 1635 0042 0000     		.align	2
 1636              	.LC12:
 1637 0044 47656E65 		.ascii	"Generated_Source\\PSoC6\\pdl\\drivers\\peripheral\\"
 1637      72617465 
 1637      645F536F 
 1637      75726365 
 1637      5C50536F 
 1638 0072 7363625C 		.ascii	"scb\\cy_scb_spi.c\000"
 1638      63795F73 
 1638      63625F73 
 1638      70692E63 
 1638      00
 1639              		.section	.text.Cy_SCB_SPI_Init,"ax",%progbits
 1640              		.align	2
 1641              		.global	Cy_SCB_SPI_Init
 1642              		.code	16
 1643              		.thumb_func
 1644              		.type	Cy_SCB_SPI_Init, %function
 1645              	Cy_SCB_SPI_Init:
 1646              	.LFB143:
 1647              		.file 3 "Generated_Source\\PSoC6\\pdl\\drivers\\peripheral\\scb\\cy_scb_spi.c"
   1:Generated_Source\PSoC6\pdl\drivers\peripheral\scb/cy_scb_spi.c **** /***************************************************************************//**
   2:Generated_Source\PSoC6\pdl\drivers\peripheral\scb/cy_scb_spi.c **** * \file cy_scb_spi.c
   3:Generated_Source\PSoC6\pdl\drivers\peripheral\scb/cy_scb_spi.c **** * \version 2.10
   4:Generated_Source\PSoC6\pdl\drivers\peripheral\scb/cy_scb_spi.c **** *
   5:Generated_Source\PSoC6\pdl\drivers\peripheral\scb/cy_scb_spi.c **** * Provides SPI API implementation of the SCB driver.
   6:Generated_Source\PSoC6\pdl\drivers\peripheral\scb/cy_scb_spi.c **** *
   7:Generated_Source\PSoC6\pdl\drivers\peripheral\scb/cy_scb_spi.c **** ********************************************************************************
   8:Generated_Source\PSoC6\pdl\drivers\peripheral\scb/cy_scb_spi.c **** * \copyright
   9:Generated_Source\PSoC6\pdl\drivers\peripheral\scb/cy_scb_spi.c **** * Copyright 2016-2018, Cypress Semiconductor Corporation. All rights reserved.
  10:Generated_Source\PSoC6\pdl\drivers\peripheral\scb/cy_scb_spi.c **** * You may use this file only in accordance with the license, terms, conditions,
  11:Generated_Source\PSoC6\pdl\drivers\peripheral\scb/cy_scb_spi.c **** * disclaimers, and limitations in the end user license agreement accompanying
  12:Generated_Source\PSoC6\pdl\drivers\peripheral\scb/cy_scb_spi.c **** * the software package with which this file was provided.
ARM GAS  C:\Users\salaz\AppData\Local\Temp\ccynHHO7.s 			page 87


  13:Generated_Source\PSoC6\pdl\drivers\peripheral\scb/cy_scb_spi.c **** *******************************************************************************/
  14:Generated_Source\PSoC6\pdl\drivers\peripheral\scb/cy_scb_spi.c **** 
  15:Generated_Source\PSoC6\pdl\drivers\peripheral\scb/cy_scb_spi.c **** #include "cy_scb_spi.h"
  16:Generated_Source\PSoC6\pdl\drivers\peripheral\scb/cy_scb_spi.c **** 
  17:Generated_Source\PSoC6\pdl\drivers\peripheral\scb/cy_scb_spi.c **** #if defined(__cplusplus)
  18:Generated_Source\PSoC6\pdl\drivers\peripheral\scb/cy_scb_spi.c **** extern "C" {
  19:Generated_Source\PSoC6\pdl\drivers\peripheral\scb/cy_scb_spi.c **** #endif
  20:Generated_Source\PSoC6\pdl\drivers\peripheral\scb/cy_scb_spi.c **** 
  21:Generated_Source\PSoC6\pdl\drivers\peripheral\scb/cy_scb_spi.c **** /* Static functions */
  22:Generated_Source\PSoC6\pdl\drivers\peripheral\scb/cy_scb_spi.c **** static void HandleTransmit(CySCB_Type *base, cy_stc_scb_spi_context_t *context);
  23:Generated_Source\PSoC6\pdl\drivers\peripheral\scb/cy_scb_spi.c **** static void HandleReceive (CySCB_Type *base, cy_stc_scb_spi_context_t *context);
  24:Generated_Source\PSoC6\pdl\drivers\peripheral\scb/cy_scb_spi.c **** static void DiscardArrayNoCheck(CySCB_Type const *base, uint32_t size);
  25:Generated_Source\PSoC6\pdl\drivers\peripheral\scb/cy_scb_spi.c **** 
  26:Generated_Source\PSoC6\pdl\drivers\peripheral\scb/cy_scb_spi.c **** /*******************************************************************************
  27:Generated_Source\PSoC6\pdl\drivers\peripheral\scb/cy_scb_spi.c **** * Function Name: Cy_SCB_SPI_Init
  28:Generated_Source\PSoC6\pdl\drivers\peripheral\scb/cy_scb_spi.c **** ****************************************************************************//**
  29:Generated_Source\PSoC6\pdl\drivers\peripheral\scb/cy_scb_spi.c **** *
  30:Generated_Source\PSoC6\pdl\drivers\peripheral\scb/cy_scb_spi.c **** * Initializes the SCB for SPI operation.
  31:Generated_Source\PSoC6\pdl\drivers\peripheral\scb/cy_scb_spi.c **** *
  32:Generated_Source\PSoC6\pdl\drivers\peripheral\scb/cy_scb_spi.c **** * \param base
  33:Generated_Source\PSoC6\pdl\drivers\peripheral\scb/cy_scb_spi.c **** * The pointer to the SPI SCB instance.
  34:Generated_Source\PSoC6\pdl\drivers\peripheral\scb/cy_scb_spi.c **** *
  35:Generated_Source\PSoC6\pdl\drivers\peripheral\scb/cy_scb_spi.c **** * \param config
  36:Generated_Source\PSoC6\pdl\drivers\peripheral\scb/cy_scb_spi.c **** * The pointer to the configuration structure \ref cy_stc_scb_spi_config_t.
  37:Generated_Source\PSoC6\pdl\drivers\peripheral\scb/cy_scb_spi.c **** *
  38:Generated_Source\PSoC6\pdl\drivers\peripheral\scb/cy_scb_spi.c **** * \param context
  39:Generated_Source\PSoC6\pdl\drivers\peripheral\scb/cy_scb_spi.c **** * The pointer to the context structure \ref cy_stc_scb_spi_context_t allocated
  40:Generated_Source\PSoC6\pdl\drivers\peripheral\scb/cy_scb_spi.c **** * by the user. The structure is used during the SPI operation for internal
  41:Generated_Source\PSoC6\pdl\drivers\peripheral\scb/cy_scb_spi.c **** * configuration and data retention. The user must not modify anything
  42:Generated_Source\PSoC6\pdl\drivers\peripheral\scb/cy_scb_spi.c **** * in this structure.
  43:Generated_Source\PSoC6\pdl\drivers\peripheral\scb/cy_scb_spi.c **** * If only SPI functions that do not require context will be used to pass NULL
  44:Generated_Source\PSoC6\pdl\drivers\peripheral\scb/cy_scb_spi.c **** * as pointer to context.
  45:Generated_Source\PSoC6\pdl\drivers\peripheral\scb/cy_scb_spi.c **** *
  46:Generated_Source\PSoC6\pdl\drivers\peripheral\scb/cy_scb_spi.c **** * \return
  47:Generated_Source\PSoC6\pdl\drivers\peripheral\scb/cy_scb_spi.c **** * \ref cy_en_scb_spi_status_t
  48:Generated_Source\PSoC6\pdl\drivers\peripheral\scb/cy_scb_spi.c **** *
  49:Generated_Source\PSoC6\pdl\drivers\peripheral\scb/cy_scb_spi.c **** * \note
  50:Generated_Source\PSoC6\pdl\drivers\peripheral\scb/cy_scb_spi.c **** * Ensure that the SCB block is disabled before calling this function.
  51:Generated_Source\PSoC6\pdl\drivers\peripheral\scb/cy_scb_spi.c **** *
  52:Generated_Source\PSoC6\pdl\drivers\peripheral\scb/cy_scb_spi.c **** *******************************************************************************/
  53:Generated_Source\PSoC6\pdl\drivers\peripheral\scb/cy_scb_spi.c **** cy_en_scb_spi_status_t Cy_SCB_SPI_Init(CySCB_Type *base, cy_stc_scb_spi_config_t const *config, cy_
  54:Generated_Source\PSoC6\pdl\drivers\peripheral\scb/cy_scb_spi.c **** {
 1648              		.loc 3 54 0
 1649              		.cfi_startproc
 1650              		@ args = 0, pretend = 0, frame = 24
 1651              		@ frame_needed = 1, uses_anonymous_args = 0
 1652 0000 90B5     		push	{r4, r7, lr}
 1653              		.cfi_def_cfa_offset 12
 1654              		.cfi_offset 4, -12
 1655              		.cfi_offset 7, -8
 1656              		.cfi_offset 14, -4
 1657 0002 87B0     		sub	sp, sp, #28
 1658              		.cfi_def_cfa_offset 40
 1659 0004 00AF     		add	r7, sp, #0
 1660              		.cfi_def_cfa_register 7
 1661 0006 F860     		str	r0, [r7, #12]
 1662 0008 B960     		str	r1, [r7, #8]
ARM GAS  C:\Users\salaz\AppData\Local\Temp\ccynHHO7.s 			page 88


 1663 000a 7A60     		str	r2, [r7, #4]
  55:Generated_Source\PSoC6\pdl\drivers\peripheral\scb/cy_scb_spi.c ****     /* Input parameters verification */
  56:Generated_Source\PSoC6\pdl\drivers\peripheral\scb/cy_scb_spi.c ****     if ((NULL == base) || (NULL == config))
 1664              		.loc 3 56 0
 1665 000c FB68     		ldr	r3, [r7, #12]
 1666 000e 002B     		cmp	r3, #0
 1667 0010 02D0     		beq	.L112
 1668              		.loc 3 56 0 is_stmt 0 discriminator 1
 1669 0012 BB68     		ldr	r3, [r7, #8]
 1670 0014 002B     		cmp	r3, #0
 1671 0016 01D1     		bne	.L113
 1672              	.L112:
  57:Generated_Source\PSoC6\pdl\drivers\peripheral\scb/cy_scb_spi.c ****     {
  58:Generated_Source\PSoC6\pdl\drivers\peripheral\scb/cy_scb_spi.c ****         return CY_SCB_SPI_BAD_PARAM;
 1673              		.loc 3 58 0 is_stmt 1
 1674 0018 B74B     		ldr	r3, .L156
 1675 001a C3E1     		b	.L114
 1676              	.L113:
  59:Generated_Source\PSoC6\pdl\drivers\peripheral\scb/cy_scb_spi.c ****     }
  60:Generated_Source\PSoC6\pdl\drivers\peripheral\scb/cy_scb_spi.c **** 
  61:Generated_Source\PSoC6\pdl\drivers\peripheral\scb/cy_scb_spi.c ****     if ((config->spiMode == CY_SCB_SPI_SLAVE) && (!SCB_IS_SPI_SLAVE_CAPABLE(base)))
  62:Generated_Source\PSoC6\pdl\drivers\peripheral\scb/cy_scb_spi.c ****     {
  63:Generated_Source\PSoC6\pdl\drivers\peripheral\scb/cy_scb_spi.c ****         return CY_SCB_SPI_BAD_PARAM;
  64:Generated_Source\PSoC6\pdl\drivers\peripheral\scb/cy_scb_spi.c ****     }
  65:Generated_Source\PSoC6\pdl\drivers\peripheral\scb/cy_scb_spi.c **** 
  66:Generated_Source\PSoC6\pdl\drivers\peripheral\scb/cy_scb_spi.c ****     if ((config->spiMode == CY_SCB_SPI_MASTER) && (!SCB_IS_SPI_MASTER_CAPABLE(base)))
 1677              		.loc 3 66 0
 1678 001c BB68     		ldr	r3, [r7, #8]
 1679 001e 1B78     		ldrb	r3, [r3]
 1680 0020 012B     		cmp	r3, #1
 1681 0022 05D1     		bne	.L115
 1682              		.loc 3 66 0 is_stmt 0 discriminator 1
 1683 0024 FB68     		ldr	r3, [r7, #12]
 1684 0026 B54A     		ldr	r2, .L156+4
 1685 0028 9342     		cmp	r3, r2
 1686 002a 01D1     		bne	.L115
  67:Generated_Source\PSoC6\pdl\drivers\peripheral\scb/cy_scb_spi.c ****     {
  68:Generated_Source\PSoC6\pdl\drivers\peripheral\scb/cy_scb_spi.c ****         return CY_SCB_SPI_BAD_PARAM;
 1687              		.loc 3 68 0 is_stmt 1
 1688 002c B24B     		ldr	r3, .L156
 1689 002e B9E1     		b	.L114
 1690              	.L115:
  69:Generated_Source\PSoC6\pdl\drivers\peripheral\scb/cy_scb_spi.c ****     }
  70:Generated_Source\PSoC6\pdl\drivers\peripheral\scb/cy_scb_spi.c **** 
  71:Generated_Source\PSoC6\pdl\drivers\peripheral\scb/cy_scb_spi.c ****     if ((config->enableWakeFromSleep) && (!SCB_IS_SPI_DS_CAPABLE(base)))
 1691              		.loc 3 71 0
 1692 0030 BB68     		ldr	r3, [r7, #8]
 1693 0032 1B7F     		ldrb	r3, [r3, #28]
 1694 0034 002B     		cmp	r3, #0
 1695 0036 05D0     		beq	.L116
 1696              		.loc 3 71 0 is_stmt 0 discriminator 1
 1697 0038 FB68     		ldr	r3, [r7, #12]
 1698 003a B04A     		ldr	r2, .L156+4
 1699 003c 9342     		cmp	r3, r2
 1700 003e 01D0     		beq	.L116
  72:Generated_Source\PSoC6\pdl\drivers\peripheral\scb/cy_scb_spi.c ****     {
  73:Generated_Source\PSoC6\pdl\drivers\peripheral\scb/cy_scb_spi.c ****         return CY_SCB_SPI_BAD_PARAM;
ARM GAS  C:\Users\salaz\AppData\Local\Temp\ccynHHO7.s 			page 89


 1701              		.loc 3 73 0 is_stmt 1
 1702 0040 AD4B     		ldr	r3, .L156
 1703 0042 AFE1     		b	.L114
 1704              	.L116:
  74:Generated_Source\PSoC6\pdl\drivers\peripheral\scb/cy_scb_spi.c ****     }
  75:Generated_Source\PSoC6\pdl\drivers\peripheral\scb/cy_scb_spi.c **** 
  76:Generated_Source\PSoC6\pdl\drivers\peripheral\scb/cy_scb_spi.c ****     CY_ASSERT_L3(CY_SCB_SPI_IS_MODE_VALID     (config->spiMode));
 1705              		.loc 3 76 0
 1706 0044 BB68     		ldr	r3, [r7, #8]
 1707 0046 1B78     		ldrb	r3, [r3]
 1708 0048 002B     		cmp	r3, #0
 1709 004a 08D0     		beq	.L117
 1710              		.loc 3 76 0 is_stmt 0 discriminator 1
 1711 004c BB68     		ldr	r3, [r7, #8]
 1712 004e 1B78     		ldrb	r3, [r3]
 1713 0050 012B     		cmp	r3, #1
 1714 0052 04D0     		beq	.L117
 1715              		.loc 3 76 0 discriminator 2
 1716 0054 AA4B     		ldr	r3, .L156+8
 1717 0056 4C21     		movs	r1, #76
 1718 0058 1800     		movs	r0, r3
 1719 005a FFF7FEFF 		bl	Cy_SysLib_AssertFailed
 1720              	.L117:
  77:Generated_Source\PSoC6\pdl\drivers\peripheral\scb/cy_scb_spi.c ****     CY_ASSERT_L3(CY_SCB_SPI_IS_SUB_MODE_VALID (config->subMode));
 1721              		.loc 3 77 0 is_stmt 1
 1722 005e BB68     		ldr	r3, [r7, #8]
 1723 0060 5B78     		ldrb	r3, [r3, #1]
 1724 0062 002B     		cmp	r3, #0
 1725 0064 10D0     		beq	.L118
 1726              		.loc 3 77 0 is_stmt 0 discriminator 1
 1727 0066 BB68     		ldr	r3, [r7, #8]
 1728 0068 5B78     		ldrb	r3, [r3, #1]
 1729 006a 012B     		cmp	r3, #1
 1730 006c 0CD0     		beq	.L118
 1731              		.loc 3 77 0 discriminator 2
 1732 006e BB68     		ldr	r3, [r7, #8]
 1733 0070 5B78     		ldrb	r3, [r3, #1]
 1734 0072 052B     		cmp	r3, #5
 1735 0074 08D0     		beq	.L118
 1736              		.loc 3 77 0 discriminator 3
 1737 0076 BB68     		ldr	r3, [r7, #8]
 1738 0078 5B78     		ldrb	r3, [r3, #1]
 1739 007a 022B     		cmp	r3, #2
 1740 007c 04D0     		beq	.L118
 1741              		.loc 3 77 0 discriminator 4
 1742 007e A04B     		ldr	r3, .L156+8
 1743 0080 4D21     		movs	r1, #77
 1744 0082 1800     		movs	r0, r3
 1745 0084 FFF7FEFF 		bl	Cy_SysLib_AssertFailed
 1746              	.L118:
  78:Generated_Source\PSoC6\pdl\drivers\peripheral\scb/cy_scb_spi.c ****     CY_ASSERT_L3(CY_SCB_SPI_IS_SCLK_MODE_VALID(config->sclkMode));
 1747              		.loc 3 78 0 is_stmt 1
 1748 0088 BB68     		ldr	r3, [r7, #8]
 1749 008a 9B78     		ldrb	r3, [r3, #2]
 1750 008c 002B     		cmp	r3, #0
 1751 008e 10D0     		beq	.L119
 1752              		.loc 3 78 0 is_stmt 0 discriminator 1
ARM GAS  C:\Users\salaz\AppData\Local\Temp\ccynHHO7.s 			page 90


 1753 0090 BB68     		ldr	r3, [r7, #8]
 1754 0092 9B78     		ldrb	r3, [r3, #2]
 1755 0094 012B     		cmp	r3, #1
 1756 0096 0CD0     		beq	.L119
 1757              		.loc 3 78 0 discriminator 2
 1758 0098 BB68     		ldr	r3, [r7, #8]
 1759 009a 9B78     		ldrb	r3, [r3, #2]
 1760 009c 022B     		cmp	r3, #2
 1761 009e 08D0     		beq	.L119
 1762              		.loc 3 78 0 discriminator 3
 1763 00a0 BB68     		ldr	r3, [r7, #8]
 1764 00a2 9B78     		ldrb	r3, [r3, #2]
 1765 00a4 032B     		cmp	r3, #3
 1766 00a6 04D0     		beq	.L119
 1767              		.loc 3 78 0 discriminator 4
 1768 00a8 954B     		ldr	r3, .L156+8
 1769 00aa 4E21     		movs	r1, #78
 1770 00ac 1800     		movs	r0, r3
 1771 00ae FFF7FEFF 		bl	Cy_SysLib_AssertFailed
 1772              	.L119:
  79:Generated_Source\PSoC6\pdl\drivers\peripheral\scb/cy_scb_spi.c **** 
  80:Generated_Source\PSoC6\pdl\drivers\peripheral\scb/cy_scb_spi.c ****     CY_ASSERT_L2(CY_SCB_SPI_IS_OVERSAMPLE_VALID (config->oversample, config->spiMode));
 1773              		.loc 3 80 0 is_stmt 1
 1774 00b2 BB68     		ldr	r3, [r7, #8]
 1775 00b4 1B78     		ldrb	r3, [r3]
 1776 00b6 012B     		cmp	r3, #1
 1777 00b8 0CD1     		bne	.L120
 1778              		.loc 3 80 0 is_stmt 0 discriminator 1
 1779 00ba BB68     		ldr	r3, [r7, #8]
 1780 00bc 5B68     		ldr	r3, [r3, #4]
 1781 00be 012B     		cmp	r3, #1
 1782 00c0 03D9     		bls	.L121
 1783              		.loc 3 80 0 discriminator 3
 1784 00c2 BB68     		ldr	r3, [r7, #8]
 1785 00c4 5B68     		ldr	r3, [r3, #4]
 1786 00c6 102B     		cmp	r3, #16
 1787 00c8 04D9     		bls	.L120
 1788              	.L121:
 1789              		.loc 3 80 0 discriminator 4
 1790 00ca 8D4B     		ldr	r3, .L156+8
 1791 00cc 5021     		movs	r1, #80
 1792 00ce 1800     		movs	r0, r3
 1793 00d0 FFF7FEFF 		bl	Cy_SysLib_AssertFailed
 1794              	.L120:
  81:Generated_Source\PSoC6\pdl\drivers\peripheral\scb/cy_scb_spi.c ****     CY_ASSERT_L2(CY_SCB_SPI_IS_SS_POLARITY_VALID(config->ssPolarity));
 1795              		.loc 3 81 0 is_stmt 1
 1796 00d4 BB68     		ldr	r3, [r7, #8]
 1797 00d6 9B69     		ldr	r3, [r3, #24]
 1798 00d8 0F22     		movs	r2, #15
 1799 00da 9343     		bics	r3, r2
 1800 00dc 04D0     		beq	.L122
 1801              		.loc 3 81 0 is_stmt 0 discriminator 1
 1802 00de 884B     		ldr	r3, .L156+8
 1803 00e0 5121     		movs	r1, #81
 1804 00e2 1800     		movs	r0, r3
 1805 00e4 FFF7FEFF 		bl	Cy_SysLib_AssertFailed
 1806              	.L122:
ARM GAS  C:\Users\salaz\AppData\Local\Temp\ccynHHO7.s 			page 91


  82:Generated_Source\PSoC6\pdl\drivers\peripheral\scb/cy_scb_spi.c ****     CY_ASSERT_L2(CY_SCB_SPI_IS_DATA_WIDTH_VALID (config->rxDataWidth));
 1807              		.loc 3 82 0 is_stmt 1
 1808 00e8 BB68     		ldr	r3, [r7, #8]
 1809 00ea 9B68     		ldr	r3, [r3, #8]
 1810 00ec 032B     		cmp	r3, #3
 1811 00ee 03D9     		bls	.L123
 1812              		.loc 3 82 0 is_stmt 0 discriminator 2
 1813 00f0 BB68     		ldr	r3, [r7, #8]
 1814 00f2 9B68     		ldr	r3, [r3, #8]
 1815 00f4 102B     		cmp	r3, #16
 1816 00f6 04D9     		bls	.L124
 1817              	.L123:
 1818              		.loc 3 82 0 discriminator 3
 1819 00f8 814B     		ldr	r3, .L156+8
 1820 00fa 5221     		movs	r1, #82
 1821 00fc 1800     		movs	r0, r3
 1822 00fe FFF7FEFF 		bl	Cy_SysLib_AssertFailed
 1823              	.L124:
  83:Generated_Source\PSoC6\pdl\drivers\peripheral\scb/cy_scb_spi.c ****     CY_ASSERT_L2(CY_SCB_SPI_IS_DATA_WIDTH_VALID (config->txDataWidth));
 1824              		.loc 3 83 0 is_stmt 1
 1825 0102 BB68     		ldr	r3, [r7, #8]
 1826 0104 DB68     		ldr	r3, [r3, #12]
 1827 0106 032B     		cmp	r3, #3
 1828 0108 03D9     		bls	.L125
 1829              		.loc 3 83 0 is_stmt 0 discriminator 2
 1830 010a BB68     		ldr	r3, [r7, #8]
 1831 010c DB68     		ldr	r3, [r3, #12]
 1832 010e 102B     		cmp	r3, #16
 1833 0110 04D9     		bls	.L126
 1834              	.L125:
 1835              		.loc 3 83 0 discriminator 3
 1836 0112 7B4B     		ldr	r3, .L156+8
 1837 0114 5321     		movs	r1, #83
 1838 0116 1800     		movs	r0, r3
 1839 0118 FFF7FEFF 		bl	Cy_SysLib_AssertFailed
 1840              	.L126:
  84:Generated_Source\PSoC6\pdl\drivers\peripheral\scb/cy_scb_spi.c ****     CY_ASSERT_L2(CY_SCB_SPI_IS_BOTH_DATA_WIDTH_VALID(config->subMode, config->rxDataWidth, config->
 1841              		.loc 3 84 0 is_stmt 1
 1842 011c BB68     		ldr	r3, [r7, #8]
 1843 011e 5B78     		ldrb	r3, [r3, #1]
 1844 0120 022B     		cmp	r3, #2
 1845 0122 0AD0     		beq	.L127
 1846              		.loc 3 84 0 is_stmt 0 discriminator 1
 1847 0124 BB68     		ldr	r3, [r7, #8]
 1848 0126 9A68     		ldr	r2, [r3, #8]
 1849 0128 BB68     		ldr	r3, [r7, #8]
 1850 012a DB68     		ldr	r3, [r3, #12]
 1851 012c 9A42     		cmp	r2, r3
 1852 012e 04D0     		beq	.L127
 1853              		.loc 3 84 0 discriminator 2
 1854 0130 734B     		ldr	r3, .L156+8
 1855 0132 5421     		movs	r1, #84
 1856 0134 1800     		movs	r0, r3
 1857 0136 FFF7FEFF 		bl	Cy_SysLib_AssertFailed
 1858              	.L127:
  85:Generated_Source\PSoC6\pdl\drivers\peripheral\scb/cy_scb_spi.c **** 
  86:Generated_Source\PSoC6\pdl\drivers\peripheral\scb/cy_scb_spi.c ****     CY_ASSERT_L2(CY_SCB_IS_INTR_VALID(config->rxFifoIntEnableMask, CY_SCB_SPI_RX_INTR_MASK));
ARM GAS  C:\Users\salaz\AppData\Local\Temp\ccynHHO7.s 			page 92


 1859              		.loc 3 86 0 is_stmt 1
 1860 013a BB68     		ldr	r3, [r7, #8]
 1861 013c 5B6A     		ldr	r3, [r3, #36]
 1862 013e 6D22     		movs	r2, #109
 1863 0140 9343     		bics	r3, r2
 1864 0142 04D0     		beq	.L128
 1865              		.loc 3 86 0 is_stmt 0 discriminator 1
 1866 0144 6E4B     		ldr	r3, .L156+8
 1867 0146 5621     		movs	r1, #86
 1868 0148 1800     		movs	r0, r3
 1869 014a FFF7FEFF 		bl	Cy_SysLib_AssertFailed
 1870              	.L128:
  87:Generated_Source\PSoC6\pdl\drivers\peripheral\scb/cy_scb_spi.c ****     CY_ASSERT_L2(CY_SCB_IS_INTR_VALID(config->txFifoIntEnableMask, CY_SCB_SPI_TX_INTR_MASK));
 1871              		.loc 3 87 0 is_stmt 1
 1872 014e BB68     		ldr	r3, [r7, #8]
 1873 0150 DB6A     		ldr	r3, [r3, #44]
 1874 0152 7322     		movs	r2, #115
 1875 0154 9343     		bics	r3, r2
 1876 0156 04D0     		beq	.L129
 1877              		.loc 3 87 0 is_stmt 0 discriminator 1
 1878 0158 694B     		ldr	r3, .L156+8
 1879 015a 5721     		movs	r1, #87
 1880 015c 1800     		movs	r0, r3
 1881 015e FFF7FEFF 		bl	Cy_SysLib_AssertFailed
 1882              	.L129:
  88:Generated_Source\PSoC6\pdl\drivers\peripheral\scb/cy_scb_spi.c ****     CY_ASSERT_L2(CY_SCB_IS_INTR_VALID(config->masterSlaveIntEnableMask, CY_SCB_SPI_MASTER_SLAVE_INT
 1883              		.loc 3 88 0 is_stmt 1
 1884 0162 BB68     		ldr	r3, [r7, #8]
 1885 0164 1B6B     		ldr	r3, [r3, #48]
 1886 0166 674A     		ldr	r2, .L156+12
 1887 0168 1340     		ands	r3, r2
 1888 016a 04D0     		beq	.L130
 1889              		.loc 3 88 0 is_stmt 0 discriminator 1
 1890 016c 644B     		ldr	r3, .L156+8
 1891 016e 5821     		movs	r1, #88
 1892 0170 1800     		movs	r0, r3
 1893 0172 FFF7FEFF 		bl	Cy_SysLib_AssertFailed
 1894              	.L130:
  89:Generated_Source\PSoC6\pdl\drivers\peripheral\scb/cy_scb_spi.c **** 
  90:Generated_Source\PSoC6\pdl\drivers\peripheral\scb/cy_scb_spi.c ****     uint32_t locSclkMode = CY_SCB_SPI_GetSclkMode(config->subMode, config->sclkMode);
 1895              		.loc 3 90 0 is_stmt 1
 1896 0176 BB68     		ldr	r3, [r7, #8]
 1897 0178 5A78     		ldrb	r2, [r3, #1]
 1898 017a BB68     		ldr	r3, [r7, #8]
 1899 017c 9B78     		ldrb	r3, [r3, #2]
 1900 017e 1900     		movs	r1, r3
 1901 0180 1000     		movs	r0, r2
 1902 0182 FFF7FEFF 		bl	CY_SCB_SPI_GetSclkMode
 1903 0186 0300     		movs	r3, r0
 1904 0188 7B61     		str	r3, [r7, #20]
  91:Generated_Source\PSoC6\pdl\drivers\peripheral\scb/cy_scb_spi.c **** 
  92:Generated_Source\PSoC6\pdl\drivers\peripheral\scb/cy_scb_spi.c ****     bool byteMode = (config->rxDataWidth <= CY_SCB_BYTE_WIDTH) && (config->txDataWidth <= CY_SCB_BY
 1905              		.loc 3 92 0
 1906 018a BB68     		ldr	r3, [r7, #8]
 1907 018c 9B68     		ldr	r3, [r3, #8]
 1908 018e 082B     		cmp	r3, #8
 1909 0190 05D8     		bhi	.L131
ARM GAS  C:\Users\salaz\AppData\Local\Temp\ccynHHO7.s 			page 93


 1910              		.loc 3 92 0 is_stmt 0 discriminator 1
 1911 0192 BB68     		ldr	r3, [r7, #8]
 1912 0194 DB68     		ldr	r3, [r3, #12]
 1913 0196 082B     		cmp	r3, #8
 1914 0198 01D8     		bhi	.L131
 1915              		.loc 3 92 0 discriminator 3
 1916 019a 0122     		movs	r2, #1
 1917 019c 00E0     		b	.L132
 1918              	.L131:
 1919              		.loc 3 92 0 discriminator 4
 1920 019e 0022     		movs	r2, #0
 1921              	.L132:
 1922              		.loc 3 92 0 discriminator 6
 1923 01a0 1323     		movs	r3, #19
 1924 01a2 FB18     		adds	r3, r7, r3
 1925 01a4 1A70     		strb	r2, [r3]
 1926 01a6 1A78     		ldrb	r2, [r3]
 1927 01a8 0121     		movs	r1, #1
 1928 01aa 0A40     		ands	r2, r1
 1929 01ac 1A70     		strb	r2, [r3]
  93:Generated_Source\PSoC6\pdl\drivers\peripheral\scb/cy_scb_spi.c **** 
  94:Generated_Source\PSoC6\pdl\drivers\peripheral\scb/cy_scb_spi.c ****     /* Configure an SPI interface */
  95:Generated_Source\PSoC6\pdl\drivers\peripheral\scb/cy_scb_spi.c ****     base->CTRL = _BOOL2FLD(SCB_CTRL_BYTE_MODE, byteMode)                     |
 1930              		.loc 3 95 0 is_stmt 1 discriminator 6
 1931 01ae 1323     		movs	r3, #19
 1932 01b0 FB18     		adds	r3, r7, r3
 1933 01b2 1B78     		ldrb	r3, [r3]
 1934 01b4 002B     		cmp	r3, #0
 1935 01b6 02D0     		beq	.L133
 1936              		.loc 3 95 0 is_stmt 0 discriminator 1
 1937 01b8 8023     		movs	r3, #128
 1938 01ba 1A01     		lsls	r2, r3, #4
 1939 01bc 00E0     		b	.L134
 1940              	.L133:
 1941              		.loc 3 95 0 discriminator 2
 1942 01be 0022     		movs	r2, #0
 1943              	.L134:
  96:Generated_Source\PSoC6\pdl\drivers\peripheral\scb/cy_scb_spi.c ****                  _BOOL2FLD(SCB_CTRL_EC_AM_MODE, config->enableWakeFromSleep) |
 1944              		.loc 3 96 0 is_stmt 1
 1945 01c0 BB68     		ldr	r3, [r7, #8]
 1946 01c2 1B7F     		ldrb	r3, [r3, #28]
 1947 01c4 002B     		cmp	r3, #0
 1948 01c6 02D0     		beq	.L135
 1949              		.loc 3 96 0 is_stmt 0 discriminator 1
 1950 01c8 8023     		movs	r3, #128
 1951 01ca 5B00     		lsls	r3, r3, #1
 1952 01cc 00E0     		b	.L136
 1953              	.L135:
 1954              		.loc 3 96 0 discriminator 2
 1955 01ce 0023     		movs	r3, #0
 1956              	.L136:
  95:Generated_Source\PSoC6\pdl\drivers\peripheral\scb/cy_scb_spi.c ****                  _BOOL2FLD(SCB_CTRL_EC_AM_MODE, config->enableWakeFromSleep) |
 1957              		.loc 3 95 0 is_stmt 1
 1958 01d0 1A43     		orrs	r2, r3
  97:Generated_Source\PSoC6\pdl\drivers\peripheral\scb/cy_scb_spi.c ****                  _VAL2FLD(SCB_CTRL_OVS, (config->oversample - 1UL))          |
 1959              		.loc 3 97 0
 1960 01d2 BB68     		ldr	r3, [r7, #8]
ARM GAS  C:\Users\salaz\AppData\Local\Temp\ccynHHO7.s 			page 94


 1961 01d4 5B68     		ldr	r3, [r3, #4]
 1962 01d6 013B     		subs	r3, r3, #1
 1963 01d8 0F21     		movs	r1, #15
 1964 01da 0B40     		ands	r3, r1
  96:Generated_Source\PSoC6\pdl\drivers\peripheral\scb/cy_scb_spi.c ****                  _BOOL2FLD(SCB_CTRL_EC_AM_MODE, config->enableWakeFromSleep) |
 1965              		.loc 3 96 0
 1966 01dc 1343     		orrs	r3, r2
 1967              		.loc 3 97 0
 1968 01de 8022     		movs	r2, #128
 1969 01e0 5204     		lsls	r2, r2, #17
 1970 01e2 1A43     		orrs	r2, r3
  95:Generated_Source\PSoC6\pdl\drivers\peripheral\scb/cy_scb_spi.c ****                  _BOOL2FLD(SCB_CTRL_EC_AM_MODE, config->enableWakeFromSleep) |
 1971              		.loc 3 95 0
 1972 01e4 FB68     		ldr	r3, [r7, #12]
 1973 01e6 1A60     		str	r2, [r3]
  98:Generated_Source\PSoC6\pdl\drivers\peripheral\scb/cy_scb_spi.c ****                  _VAL2FLD(SCB_CTRL_MODE, CY_SCB_CTRL_MODE_SPI);
  99:Generated_Source\PSoC6\pdl\drivers\peripheral\scb/cy_scb_spi.c **** 
 100:Generated_Source\PSoC6\pdl\drivers\peripheral\scb/cy_scb_spi.c ****     /* Configure SCB_CTRL.BYTE_MODE then verify levels */
 101:Generated_Source\PSoC6\pdl\drivers\peripheral\scb/cy_scb_spi.c ****     CY_ASSERT_L2(CY_SCB_IS_TRIGGER_LEVEL_VALID(base, config->rxFifoTriggerLevel));
 1974              		.loc 3 101 0
 1975 01e8 BB68     		ldr	r3, [r7, #8]
 1976 01ea 1C6A     		ldr	r4, [r3, #32]
 1977 01ec FB68     		ldr	r3, [r7, #12]
 1978 01ee 1800     		movs	r0, r3
 1979 01f0 FFF7FEFF 		bl	Cy_SCB_GetFifoSize
 1980 01f4 0300     		movs	r3, r0
 1981 01f6 9C42     		cmp	r4, r3
 1982 01f8 04D3     		bcc	.L137
 1983              		.loc 3 101 0 is_stmt 0 discriminator 1
 1984 01fa 414B     		ldr	r3, .L156+8
 1985 01fc 6521     		movs	r1, #101
 1986 01fe 1800     		movs	r0, r3
 1987 0200 FFF7FEFF 		bl	Cy_SysLib_AssertFailed
 1988              	.L137:
 102:Generated_Source\PSoC6\pdl\drivers\peripheral\scb/cy_scb_spi.c ****     CY_ASSERT_L2(CY_SCB_IS_TRIGGER_LEVEL_VALID(base, config->txFifoTriggerLevel));
 1989              		.loc 3 102 0 is_stmt 1
 1990 0204 BB68     		ldr	r3, [r7, #8]
 1991 0206 9C6A     		ldr	r4, [r3, #40]
 1992 0208 FB68     		ldr	r3, [r7, #12]
 1993 020a 1800     		movs	r0, r3
 1994 020c FFF7FEFF 		bl	Cy_SCB_GetFifoSize
 1995 0210 0300     		movs	r3, r0
 1996 0212 9C42     		cmp	r4, r3
 1997 0214 04D3     		bcc	.L138
 1998              		.loc 3 102 0 is_stmt 0 discriminator 1
 1999 0216 3A4B     		ldr	r3, .L156+8
 2000 0218 6621     		movs	r1, #102
 2001 021a 1800     		movs	r0, r3
 2002 021c FFF7FEFF 		bl	Cy_SysLib_AssertFailed
 2003              	.L138:
 103:Generated_Source\PSoC6\pdl\drivers\peripheral\scb/cy_scb_spi.c **** 
 104:Generated_Source\PSoC6\pdl\drivers\peripheral\scb/cy_scb_spi.c ****     base->SPI_CTRL = _BOOL2FLD(SCB_SPI_CTRL_SSEL_CONTINUOUS, (!config->enableTransferSeperation)) |
 2004              		.loc 3 104 0 is_stmt 1
 2005 0220 BB68     		ldr	r3, [r7, #8]
 2006 0222 1B7D     		ldrb	r3, [r3, #20]
 2007 0224 0122     		movs	r2, #1
 2008 0226 5340     		eors	r3, r2
ARM GAS  C:\Users\salaz\AppData\Local\Temp\ccynHHO7.s 			page 95


 2009 0228 DBB2     		uxtb	r3, r3
 2010 022a 002B     		cmp	r3, #0
 2011 022c 01D0     		beq	.L139
 2012              		.loc 3 104 0 is_stmt 0 discriminator 1
 2013 022e 0122     		movs	r2, #1
 2014 0230 00E0     		b	.L140
 2015              	.L139:
 2016              		.loc 3 104 0 discriminator 2
 2017 0232 0022     		movs	r2, #0
 2018              	.L140:
 105:Generated_Source\PSoC6\pdl\drivers\peripheral\scb/cy_scb_spi.c ****                      _BOOL2FLD(SCB_SPI_CTRL_SELECT_PRECEDE,  (CY_SCB_SPI_TI_PRECEDES == config->sub
 2019              		.loc 3 105 0 is_stmt 1
 2020 0234 BB68     		ldr	r3, [r7, #8]
 2021 0236 5B78     		ldrb	r3, [r3, #1]
 2022 0238 052B     		cmp	r3, #5
 2023 023a 01D1     		bne	.L141
 2024              		.loc 3 105 0 is_stmt 0 discriminator 1
 2025 023c 0223     		movs	r3, #2
 2026 023e 00E0     		b	.L142
 2027              	.L141:
 2028              		.loc 3 105 0 discriminator 2
 2029 0240 0023     		movs	r3, #0
 2030              	.L142:
 104:Generated_Source\PSoC6\pdl\drivers\peripheral\scb/cy_scb_spi.c ****                      _BOOL2FLD(SCB_SPI_CTRL_SELECT_PRECEDE,  (CY_SCB_SPI_TI_PRECEDES == config->sub
 2031              		.loc 3 104 0 is_stmt 1
 2032 0242 1A43     		orrs	r2, r3
 106:Generated_Source\PSoC6\pdl\drivers\peripheral\scb/cy_scb_spi.c ****                      _BOOL2FLD(SCB_SPI_CTRL_LATE_MISO_SAMPLE, config->enableMisoLateSample)       |
 2033              		.loc 3 106 0
 2034 0244 BB68     		ldr	r3, [r7, #8]
 2035 0246 DB7C     		ldrb	r3, [r3, #19]
 2036 0248 002B     		cmp	r3, #0
 2037 024a 01D0     		beq	.L143
 2038              		.loc 3 106 0 is_stmt 0 discriminator 1
 2039 024c 1023     		movs	r3, #16
 2040 024e 00E0     		b	.L144
 2041              	.L143:
 2042              		.loc 3 106 0 discriminator 2
 2043 0250 0023     		movs	r3, #0
 2044              	.L144:
 105:Generated_Source\PSoC6\pdl\drivers\peripheral\scb/cy_scb_spi.c ****                      _BOOL2FLD(SCB_SPI_CTRL_SELECT_PRECEDE,  (CY_SCB_SPI_TI_PRECEDES == config->sub
 2045              		.loc 3 105 0 is_stmt 1
 2046 0252 1A43     		orrs	r2, r3
 107:Generated_Source\PSoC6\pdl\drivers\peripheral\scb/cy_scb_spi.c ****                      _BOOL2FLD(SCB_SPI_CTRL_SCLK_CONTINUOUS,  config->enableFreeRunSclk)          |
 2047              		.loc 3 107 0
 2048 0254 BB68     		ldr	r3, [r7, #8]
 2049 0256 5B7C     		ldrb	r3, [r3, #17]
 2050 0258 002B     		cmp	r3, #0
 2051 025a 01D0     		beq	.L145
 2052              		.loc 3 107 0 is_stmt 0 discriminator 1
 2053 025c 2023     		movs	r3, #32
 2054 025e 00E0     		b	.L146
 2055              	.L145:
 2056              		.loc 3 107 0 discriminator 2
 2057 0260 0023     		movs	r3, #0
 2058              	.L146:
 106:Generated_Source\PSoC6\pdl\drivers\peripheral\scb/cy_scb_spi.c ****                      _BOOL2FLD(SCB_SPI_CTRL_LATE_MISO_SAMPLE, config->enableMisoLateSample)       |
 2059              		.loc 3 106 0 is_stmt 1
ARM GAS  C:\Users\salaz\AppData\Local\Temp\ccynHHO7.s 			page 96


 2060 0262 1A43     		orrs	r2, r3
 108:Generated_Source\PSoC6\pdl\drivers\peripheral\scb/cy_scb_spi.c ****                      _BOOL2FLD(SCB_SPI_CTRL_MASTER_MODE,     (CY_SCB_SPI_MASTER == config->spiMode)
 2061              		.loc 3 108 0
 2062 0264 BB68     		ldr	r3, [r7, #8]
 2063 0266 1B78     		ldrb	r3, [r3]
 2064 0268 012B     		cmp	r3, #1
 2065 026a 02D1     		bne	.L147
 2066              		.loc 3 108 0 is_stmt 0 discriminator 1
 2067 026c 8023     		movs	r3, #128
 2068 026e 1B06     		lsls	r3, r3, #24
 2069 0270 00E0     		b	.L148
 2070              	.L147:
 2071              		.loc 3 108 0 discriminator 2
 2072 0272 0023     		movs	r3, #0
 2073              	.L148:
 107:Generated_Source\PSoC6\pdl\drivers\peripheral\scb/cy_scb_spi.c ****                      _BOOL2FLD(SCB_SPI_CTRL_SCLK_CONTINUOUS,  config->enableFreeRunSclk)          |
 2074              		.loc 3 107 0 is_stmt 1
 2075 0274 1A43     		orrs	r2, r3
 109:Generated_Source\PSoC6\pdl\drivers\peripheral\scb/cy_scb_spi.c ****                      _VAL2FLD(CY_SCB_SPI_CTRL_CLK_MODE,      locSclkMode)                         |
 2076              		.loc 3 109 0
 2077 0276 7B69     		ldr	r3, [r7, #20]
 2078 0278 9B00     		lsls	r3, r3, #2
 2079 027a 0C21     		movs	r1, #12
 2080 027c 0B40     		ands	r3, r1
 108:Generated_Source\PSoC6\pdl\drivers\peripheral\scb/cy_scb_spi.c ****                      _BOOL2FLD(SCB_SPI_CTRL_MASTER_MODE,     (CY_SCB_SPI_MASTER == config->spiMode)
 2081              		.loc 3 108 0
 2082 027e 1A43     		orrs	r2, r3
 110:Generated_Source\PSoC6\pdl\drivers\peripheral\scb/cy_scb_spi.c ****                      _VAL2FLD(CY_SCB_SPI_CTRL_SSEL_POLARITY, config->ssPolarity)                  |
 2083              		.loc 3 110 0
 2084 0280 BB68     		ldr	r3, [r7, #8]
 2085 0282 9B69     		ldr	r3, [r3, #24]
 2086 0284 1902     		lsls	r1, r3, #8
 2087 0286 F023     		movs	r3, #240
 2088 0288 1B01     		lsls	r3, r3, #4
 2089 028a 0B40     		ands	r3, r1
 109:Generated_Source\PSoC6\pdl\drivers\peripheral\scb/cy_scb_spi.c ****                      _VAL2FLD(CY_SCB_SPI_CTRL_CLK_MODE,      locSclkMode)                         |
 2090              		.loc 3 109 0
 2091 028c 1A43     		orrs	r2, r3
 111:Generated_Source\PSoC6\pdl\drivers\peripheral\scb/cy_scb_spi.c ****                      _VAL2FLD(SCB_SPI_CTRL_MODE,  (uint32_t) config->subMode);
 2092              		.loc 3 111 0
 2093 028e BB68     		ldr	r3, [r7, #8]
 2094 0290 5B78     		ldrb	r3, [r3, #1]
 2095 0292 1906     		lsls	r1, r3, #24
 2096 0294 C023     		movs	r3, #192
 2097 0296 9B04     		lsls	r3, r3, #18
 2098 0298 0B40     		ands	r3, r1
 110:Generated_Source\PSoC6\pdl\drivers\peripheral\scb/cy_scb_spi.c ****                      _VAL2FLD(CY_SCB_SPI_CTRL_SSEL_POLARITY, config->ssPolarity)                  |
 2099              		.loc 3 110 0
 2100 029a 1A43     		orrs	r2, r3
 104:Generated_Source\PSoC6\pdl\drivers\peripheral\scb/cy_scb_spi.c ****                      _BOOL2FLD(SCB_SPI_CTRL_SELECT_PRECEDE,  (CY_SCB_SPI_TI_PRECEDES == config->sub
 2101              		.loc 3 104 0
 2102 029c FB68     		ldr	r3, [r7, #12]
 2103 029e 1A62     		str	r2, [r3, #32]
 112:Generated_Source\PSoC6\pdl\drivers\peripheral\scb/cy_scb_spi.c **** 
 113:Generated_Source\PSoC6\pdl\drivers\peripheral\scb/cy_scb_spi.c ****     /* Configure the RX direction */
 114:Generated_Source\PSoC6\pdl\drivers\peripheral\scb/cy_scb_spi.c ****     base->RX_CTRL = _BOOL2FLD(SCB_RX_CTRL_MSB_FIRST, config->enableMsbFirst) |
 2104              		.loc 3 114 0
ARM GAS  C:\Users\salaz\AppData\Local\Temp\ccynHHO7.s 			page 97


 2105 02a0 BB68     		ldr	r3, [r7, #8]
 2106 02a2 1B7C     		ldrb	r3, [r3, #16]
 2107 02a4 002B     		cmp	r3, #0
 2108 02a6 02D0     		beq	.L149
 2109              		.loc 3 114 0 is_stmt 0 discriminator 1
 2110 02a8 8023     		movs	r3, #128
 2111 02aa 5A00     		lsls	r2, r3, #1
 2112 02ac 00E0     		b	.L150
 2113              	.L149:
 2114              		.loc 3 114 0 discriminator 2
 2115 02ae 0022     		movs	r2, #0
 2116              	.L150:
 115:Generated_Source\PSoC6\pdl\drivers\peripheral\scb/cy_scb_spi.c ****                     _BOOL2FLD(SCB_RX_CTRL_MEDIAN, config->enableInputFilter) |
 2117              		.loc 3 115 0 is_stmt 1
 2118 02b0 BB68     		ldr	r3, [r7, #8]
 2119 02b2 9B7C     		ldrb	r3, [r3, #18]
 2120 02b4 002B     		cmp	r3, #0
 2121 02b6 02D0     		beq	.L151
 2122              		.loc 3 115 0 is_stmt 0 discriminator 1
 2123 02b8 8023     		movs	r3, #128
 2124 02ba 9B00     		lsls	r3, r3, #2
 2125 02bc 00E0     		b	.L152
 2126              	.L151:
 2127              		.loc 3 115 0 discriminator 2
 2128 02be 0023     		movs	r3, #0
 2129              	.L152:
 114:Generated_Source\PSoC6\pdl\drivers\peripheral\scb/cy_scb_spi.c ****                     _BOOL2FLD(SCB_RX_CTRL_MEDIAN, config->enableInputFilter) |
 2130              		.loc 3 114 0 is_stmt 1
 2131 02c0 1A43     		orrs	r2, r3
 116:Generated_Source\PSoC6\pdl\drivers\peripheral\scb/cy_scb_spi.c ****                     _VAL2FLD(SCB_RX_CTRL_DATA_WIDTH, (config->rxDataWidth - 1UL));
 2132              		.loc 3 116 0
 2133 02c2 BB68     		ldr	r3, [r7, #8]
 2134 02c4 9B68     		ldr	r3, [r3, #8]
 2135 02c6 013B     		subs	r3, r3, #1
 2136 02c8 0F21     		movs	r1, #15
 2137 02ca 0B40     		ands	r3, r1
 115:Generated_Source\PSoC6\pdl\drivers\peripheral\scb/cy_scb_spi.c ****                     _BOOL2FLD(SCB_RX_CTRL_MEDIAN, config->enableInputFilter) |
 2138              		.loc 3 115 0
 2139 02cc 1A43     		orrs	r2, r3
 2140 02ce 1100     		movs	r1, r2
 114:Generated_Source\PSoC6\pdl\drivers\peripheral\scb/cy_scb_spi.c ****                     _BOOL2FLD(SCB_RX_CTRL_MEDIAN, config->enableInputFilter) |
 2141              		.loc 3 114 0
 2142 02d0 FA68     		ldr	r2, [r7, #12]
 2143 02d2 C023     		movs	r3, #192
 2144 02d4 9B00     		lsls	r3, r3, #2
 2145 02d6 D150     		str	r1, [r2, r3]
 117:Generated_Source\PSoC6\pdl\drivers\peripheral\scb/cy_scb_spi.c **** 
 118:Generated_Source\PSoC6\pdl\drivers\peripheral\scb/cy_scb_spi.c ****     base->RX_FIFO_CTRL = _VAL2FLD(SCB_RX_FIFO_CTRL_TRIGGER_LEVEL, config->rxFifoTriggerLevel);
 2146              		.loc 3 118 0
 2147 02d8 BB68     		ldr	r3, [r7, #8]
 2148 02da 1B6A     		ldr	r3, [r3, #32]
 2149 02dc FF22     		movs	r2, #255
 2150 02de 1340     		ands	r3, r2
 2151 02e0 1900     		movs	r1, r3
 2152 02e2 FA68     		ldr	r2, [r7, #12]
 2153 02e4 C123     		movs	r3, #193
 2154 02e6 9B00     		lsls	r3, r3, #2
ARM GAS  C:\Users\salaz\AppData\Local\Temp\ccynHHO7.s 			page 98


 2155 02e8 D150     		str	r1, [r2, r3]
 119:Generated_Source\PSoC6\pdl\drivers\peripheral\scb/cy_scb_spi.c **** 
 120:Generated_Source\PSoC6\pdl\drivers\peripheral\scb/cy_scb_spi.c ****     /* Configure the TX direction */
 121:Generated_Source\PSoC6\pdl\drivers\peripheral\scb/cy_scb_spi.c ****     base->TX_CTRL = _BOOL2FLD(SCB_TX_CTRL_MSB_FIRST, config->enableMsbFirst) |
 2156              		.loc 3 121 0
 2157 02ea BB68     		ldr	r3, [r7, #8]
 2158 02ec 1B7C     		ldrb	r3, [r3, #16]
 2159 02ee 002B     		cmp	r3, #0
 2160 02f0 0AD0     		beq	.L153
 2161              		.loc 3 121 0 is_stmt 0 discriminator 1
 2162 02f2 8023     		movs	r3, #128
 2163 02f4 5A00     		lsls	r2, r3, #1
 2164 02f6 08E0     		b	.L154
 2165              	.L157:
 2166              		.align	2
 2167              	.L156:
 2168 02f8 0140AA00 		.word	11157505
 2169 02fc 00006940 		.word	1080623104
 2170 0300 44000000 		.word	.LC12
 2171 0304 FFF5FFFF 		.word	-2561
 2172              	.L153:
 2173              		.loc 3 121 0 discriminator 2
 2174 0308 0022     		movs	r2, #0
 2175              	.L154:
 122:Generated_Source\PSoC6\pdl\drivers\peripheral\scb/cy_scb_spi.c ****                     _VAL2FLD(SCB_TX_CTRL_DATA_WIDTH, (config->txDataWidth - 1UL));
 2176              		.loc 3 122 0 is_stmt 1
 2177 030a BB68     		ldr	r3, [r7, #8]
 2178 030c DB68     		ldr	r3, [r3, #12]
 2179 030e 013B     		subs	r3, r3, #1
 2180 0310 0F21     		movs	r1, #15
 2181 0312 0B40     		ands	r3, r1
 121:Generated_Source\PSoC6\pdl\drivers\peripheral\scb/cy_scb_spi.c ****                     _VAL2FLD(SCB_TX_CTRL_DATA_WIDTH, (config->txDataWidth - 1UL));
 2182              		.loc 3 121 0
 2183 0314 1A43     		orrs	r2, r3
 2184 0316 1100     		movs	r1, r2
 2185 0318 FA68     		ldr	r2, [r7, #12]
 2186 031a 8023     		movs	r3, #128
 2187 031c 9B00     		lsls	r3, r3, #2
 2188 031e D150     		str	r1, [r2, r3]
 123:Generated_Source\PSoC6\pdl\drivers\peripheral\scb/cy_scb_spi.c **** 
 124:Generated_Source\PSoC6\pdl\drivers\peripheral\scb/cy_scb_spi.c ****     base->TX_FIFO_CTRL = _VAL2FLD(SCB_TX_FIFO_CTRL_TRIGGER_LEVEL, config->txFifoTriggerLevel);
 2189              		.loc 3 124 0
 2190 0320 BB68     		ldr	r3, [r7, #8]
 2191 0322 9B6A     		ldr	r3, [r3, #40]
 2192 0324 FF22     		movs	r2, #255
 2193 0326 1340     		ands	r3, r2
 2194 0328 1900     		movs	r1, r3
 2195 032a FA68     		ldr	r2, [r7, #12]
 2196 032c 8123     		movs	r3, #129
 2197 032e 9B00     		lsls	r3, r3, #2
 2198 0330 D150     		str	r1, [r2, r3]
 125:Generated_Source\PSoC6\pdl\drivers\peripheral\scb/cy_scb_spi.c **** 
 126:Generated_Source\PSoC6\pdl\drivers\peripheral\scb/cy_scb_spi.c ****     /* Set up interrupt sources */
 127:Generated_Source\PSoC6\pdl\drivers\peripheral\scb/cy_scb_spi.c ****     base->INTR_RX_MASK = (config->rxFifoIntEnableMask & CY_SCB_SPI_RX_INTR_MASK);
 2199              		.loc 3 127 0
 2200 0332 BB68     		ldr	r3, [r7, #8]
 2201 0334 5B6A     		ldr	r3, [r3, #36]
ARM GAS  C:\Users\salaz\AppData\Local\Temp\ccynHHO7.s 			page 99


 2202 0336 6D22     		movs	r2, #109
 2203 0338 1A40     		ands	r2, r3
 2204 033a FB68     		ldr	r3, [r7, #12]
 2205 033c 1B49     		ldr	r1, .L158
 2206 033e 5A50     		str	r2, [r3, r1]
 128:Generated_Source\PSoC6\pdl\drivers\peripheral\scb/cy_scb_spi.c ****     base->INTR_TX_MASK = (config->txFifoIntEnableMask & CY_SCB_SPI_TX_INTR_MASK);
 2207              		.loc 3 128 0
 2208 0340 BB68     		ldr	r3, [r7, #8]
 2209 0342 DB6A     		ldr	r3, [r3, #44]
 2210 0344 7322     		movs	r2, #115
 2211 0346 1A40     		ands	r2, r3
 2212 0348 FB68     		ldr	r3, [r7, #12]
 2213 034a 1949     		ldr	r1, .L158+4
 2214 034c 5A50     		str	r2, [r3, r1]
 129:Generated_Source\PSoC6\pdl\drivers\peripheral\scb/cy_scb_spi.c ****     base->INTR_M       = (config->masterSlaveIntEnableMask & CY_SCB_SPI_MASTER_DONE);
 2215              		.loc 3 129 0
 2216 034e BB68     		ldr	r3, [r7, #8]
 2217 0350 1A6B     		ldr	r2, [r3, #48]
 2218 0352 8023     		movs	r3, #128
 2219 0354 9B00     		lsls	r3, r3, #2
 2220 0356 1A40     		ands	r2, r3
 2221 0358 1100     		movs	r1, r2
 2222 035a FA68     		ldr	r2, [r7, #12]
 2223 035c F023     		movs	r3, #240
 2224 035e 1B01     		lsls	r3, r3, #4
 2225 0360 D150     		str	r1, [r2, r3]
 130:Generated_Source\PSoC6\pdl\drivers\peripheral\scb/cy_scb_spi.c ****     base->INTR_S       = (config->masterSlaveIntEnableMask & CY_SCB_SPI_SLAVE_ERR);
 2226              		.loc 3 130 0
 2227 0362 BB68     		ldr	r3, [r7, #8]
 2228 0364 1A6B     		ldr	r2, [r3, #48]
 2229 0366 8023     		movs	r3, #128
 2230 0368 1B01     		lsls	r3, r3, #4
 2231 036a 1A40     		ands	r2, r3
 2232 036c 1100     		movs	r1, r2
 2233 036e FA68     		ldr	r2, [r7, #12]
 2234 0370 F423     		movs	r3, #244
 2235 0372 1B01     		lsls	r3, r3, #4
 2236 0374 D150     		str	r1, [r2, r3]
 131:Generated_Source\PSoC6\pdl\drivers\peripheral\scb/cy_scb_spi.c ****     base->INTR_SPI_EC_MASK = 0UL;
 2237              		.loc 3 131 0
 2238 0376 FB68     		ldr	r3, [r7, #12]
 2239 0378 0E4A     		ldr	r2, .L158+8
 2240 037a 0021     		movs	r1, #0
 2241 037c 9950     		str	r1, [r3, r2]
 132:Generated_Source\PSoC6\pdl\drivers\peripheral\scb/cy_scb_spi.c **** 
 133:Generated_Source\PSoC6\pdl\drivers\peripheral\scb/cy_scb_spi.c ****     /* Initialize the context */
 134:Generated_Source\PSoC6\pdl\drivers\peripheral\scb/cy_scb_spi.c ****     if (NULL != context)
 2242              		.loc 3 134 0
 2243 037e 7B68     		ldr	r3, [r7, #4]
 2244 0380 002B     		cmp	r3, #0
 2245 0382 0ED0     		beq	.L155
 135:Generated_Source\PSoC6\pdl\drivers\peripheral\scb/cy_scb_spi.c ****     {
 136:Generated_Source\PSoC6\pdl\drivers\peripheral\scb/cy_scb_spi.c ****         context->status    = 0UL;
 2246              		.loc 3 136 0
 2247 0384 7B68     		ldr	r3, [r7, #4]
 2248 0386 0022     		movs	r2, #0
 2249 0388 1A60     		str	r2, [r3]
ARM GAS  C:\Users\salaz\AppData\Local\Temp\ccynHHO7.s 			page 100


 137:Generated_Source\PSoC6\pdl\drivers\peripheral\scb/cy_scb_spi.c **** 
 138:Generated_Source\PSoC6\pdl\drivers\peripheral\scb/cy_scb_spi.c ****         context->txBufIdx  = 0UL;
 2250              		.loc 3 138 0
 2251 038a 7B68     		ldr	r3, [r7, #4]
 2252 038c 0022     		movs	r2, #0
 2253 038e 9A61     		str	r2, [r3, #24]
 139:Generated_Source\PSoC6\pdl\drivers\peripheral\scb/cy_scb_spi.c ****         context->rxBufIdx  = 0UL;
 2254              		.loc 3 139 0
 2255 0390 7B68     		ldr	r3, [r7, #4]
 2256 0392 0022     		movs	r2, #0
 2257 0394 DA60     		str	r2, [r3, #12]
 140:Generated_Source\PSoC6\pdl\drivers\peripheral\scb/cy_scb_spi.c **** 
 141:Generated_Source\PSoC6\pdl\drivers\peripheral\scb/cy_scb_spi.c ****         context->cbEvents = NULL;
 2258              		.loc 3 141 0
 2259 0396 7B68     		ldr	r3, [r7, #4]
 2260 0398 0022     		movs	r2, #0
 2261 039a DA61     		str	r2, [r3, #28]
 142:Generated_Source\PSoC6\pdl\drivers\peripheral\scb/cy_scb_spi.c **** 
 143:Generated_Source\PSoC6\pdl\drivers\peripheral\scb/cy_scb_spi.c ****     #if !defined(NDEBUG)
 144:Generated_Source\PSoC6\pdl\drivers\peripheral\scb/cy_scb_spi.c ****         /* Put an initialization key into the initKey variable to verify
 145:Generated_Source\PSoC6\pdl\drivers\peripheral\scb/cy_scb_spi.c ****         * context initialization in the transfer API.
 146:Generated_Source\PSoC6\pdl\drivers\peripheral\scb/cy_scb_spi.c ****         */
 147:Generated_Source\PSoC6\pdl\drivers\peripheral\scb/cy_scb_spi.c ****         context->initKey = CY_SCB_SPI_INIT_KEY;
 2262              		.loc 3 147 0
 2263 039c 7B68     		ldr	r3, [r7, #4]
 2264 039e 064A     		ldr	r2, .L158+12
 2265 03a0 1A62     		str	r2, [r3, #32]
 2266              	.L155:
 148:Generated_Source\PSoC6\pdl\drivers\peripheral\scb/cy_scb_spi.c ****     #endif /* !(NDEBUG) */
 149:Generated_Source\PSoC6\pdl\drivers\peripheral\scb/cy_scb_spi.c ****     }
 150:Generated_Source\PSoC6\pdl\drivers\peripheral\scb/cy_scb_spi.c **** 
 151:Generated_Source\PSoC6\pdl\drivers\peripheral\scb/cy_scb_spi.c ****     return CY_SCB_SPI_SUCCESS;
 2267              		.loc 3 151 0
 2268 03a2 0023     		movs	r3, #0
 2269              	.L114:
 152:Generated_Source\PSoC6\pdl\drivers\peripheral\scb/cy_scb_spi.c **** }
 2270              		.loc 3 152 0
 2271 03a4 1800     		movs	r0, r3
 2272 03a6 BD46     		mov	sp, r7
 2273 03a8 07B0     		add	sp, sp, #28
 2274              		@ sp needed
 2275 03aa 90BD     		pop	{r4, r7, pc}
 2276              	.L159:
 2277              		.align	2
 2278              	.L158:
 2279 03ac C80F0000 		.word	4040
 2280 03b0 880F0000 		.word	3976
 2281 03b4 C80E0000 		.word	3784
 2282 03b8 EFCDAB00 		.word	11259375
 2283              		.cfi_endproc
 2284              	.LFE143:
 2285              		.size	Cy_SCB_SPI_Init, .-Cy_SCB_SPI_Init
 2286              		.section	.text.Cy_SCB_SPI_DeInit,"ax",%progbits
 2287              		.align	2
 2288              		.global	Cy_SCB_SPI_DeInit
 2289              		.code	16
 2290              		.thumb_func
ARM GAS  C:\Users\salaz\AppData\Local\Temp\ccynHHO7.s 			page 101


 2291              		.type	Cy_SCB_SPI_DeInit, %function
 2292              	Cy_SCB_SPI_DeInit:
 2293              	.LFB144:
 153:Generated_Source\PSoC6\pdl\drivers\peripheral\scb/cy_scb_spi.c **** 
 154:Generated_Source\PSoC6\pdl\drivers\peripheral\scb/cy_scb_spi.c **** 
 155:Generated_Source\PSoC6\pdl\drivers\peripheral\scb/cy_scb_spi.c **** /*******************************************************************************
 156:Generated_Source\PSoC6\pdl\drivers\peripheral\scb/cy_scb_spi.c **** * Function Name: Cy_SCB_SPI_DeInit
 157:Generated_Source\PSoC6\pdl\drivers\peripheral\scb/cy_scb_spi.c **** ****************************************************************************//**
 158:Generated_Source\PSoC6\pdl\drivers\peripheral\scb/cy_scb_spi.c **** *
 159:Generated_Source\PSoC6\pdl\drivers\peripheral\scb/cy_scb_spi.c **** * De-initializes the SCB block; returns the register values to default.
 160:Generated_Source\PSoC6\pdl\drivers\peripheral\scb/cy_scb_spi.c **** *
 161:Generated_Source\PSoC6\pdl\drivers\peripheral\scb/cy_scb_spi.c **** * \param base
 162:Generated_Source\PSoC6\pdl\drivers\peripheral\scb/cy_scb_spi.c **** * The pointer to the SPI SCB instance.
 163:Generated_Source\PSoC6\pdl\drivers\peripheral\scb/cy_scb_spi.c **** *
 164:Generated_Source\PSoC6\pdl\drivers\peripheral\scb/cy_scb_spi.c **** * \note
 165:Generated_Source\PSoC6\pdl\drivers\peripheral\scb/cy_scb_spi.c **** * Ensure that the SCB block is disabled before calling this function.
 166:Generated_Source\PSoC6\pdl\drivers\peripheral\scb/cy_scb_spi.c **** *
 167:Generated_Source\PSoC6\pdl\drivers\peripheral\scb/cy_scb_spi.c **** *******************************************************************************/
 168:Generated_Source\PSoC6\pdl\drivers\peripheral\scb/cy_scb_spi.c **** void Cy_SCB_SPI_DeInit(CySCB_Type *base)
 169:Generated_Source\PSoC6\pdl\drivers\peripheral\scb/cy_scb_spi.c **** {
 2294              		.loc 3 169 0
 2295              		.cfi_startproc
 2296              		@ args = 0, pretend = 0, frame = 8
 2297              		@ frame_needed = 1, uses_anonymous_args = 0
 2298 0000 80B5     		push	{r7, lr}
 2299              		.cfi_def_cfa_offset 8
 2300              		.cfi_offset 7, -8
 2301              		.cfi_offset 14, -4
 2302 0002 82B0     		sub	sp, sp, #8
 2303              		.cfi_def_cfa_offset 16
 2304 0004 00AF     		add	r7, sp, #0
 2305              		.cfi_def_cfa_register 7
 2306 0006 7860     		str	r0, [r7, #4]
 170:Generated_Source\PSoC6\pdl\drivers\peripheral\scb/cy_scb_spi.c ****     /* SPI interface */
 171:Generated_Source\PSoC6\pdl\drivers\peripheral\scb/cy_scb_spi.c ****     base->CTRL         = CY_SCB_CTRL_DEF_VAL;
 2307              		.loc 3 171 0
 2308 0008 7B68     		ldr	r3, [r7, #4]
 2309 000a 1C4A     		ldr	r2, .L161
 2310 000c 1A60     		str	r2, [r3]
 172:Generated_Source\PSoC6\pdl\drivers\peripheral\scb/cy_scb_spi.c ****     base->SPI_CTRL     = CY_SCB_SPI_CTRL_DEF_VAL;
 2311              		.loc 3 172 0
 2312 000e 7B68     		ldr	r3, [r7, #4]
 2313 0010 C022     		movs	r2, #192
 2314 0012 9204     		lsls	r2, r2, #18
 2315 0014 1A62     		str	r2, [r3, #32]
 173:Generated_Source\PSoC6\pdl\drivers\peripheral\scb/cy_scb_spi.c **** 
 174:Generated_Source\PSoC6\pdl\drivers\peripheral\scb/cy_scb_spi.c ****     /* RX direction */
 175:Generated_Source\PSoC6\pdl\drivers\peripheral\scb/cy_scb_spi.c ****     base->RX_CTRL      = CY_SCB_RX_CTRL_DEF_VAL;
 2316              		.loc 3 175 0
 2317 0016 7A68     		ldr	r2, [r7, #4]
 2318 0018 C023     		movs	r3, #192
 2319 001a 9B00     		lsls	r3, r3, #2
 2320 001c 0821     		movs	r1, #8
 2321 001e FF31     		adds	r1, r1, #255
 2322 0020 D150     		str	r1, [r2, r3]
 176:Generated_Source\PSoC6\pdl\drivers\peripheral\scb/cy_scb_spi.c ****     base->RX_FIFO_CTRL = 0UL;
 2323              		.loc 3 176 0
ARM GAS  C:\Users\salaz\AppData\Local\Temp\ccynHHO7.s 			page 102


 2324 0022 7A68     		ldr	r2, [r7, #4]
 2325 0024 C123     		movs	r3, #193
 2326 0026 9B00     		lsls	r3, r3, #2
 2327 0028 0021     		movs	r1, #0
 2328 002a D150     		str	r1, [r2, r3]
 177:Generated_Source\PSoC6\pdl\drivers\peripheral\scb/cy_scb_spi.c **** 
 178:Generated_Source\PSoC6\pdl\drivers\peripheral\scb/cy_scb_spi.c ****     /* TX direction */
 179:Generated_Source\PSoC6\pdl\drivers\peripheral\scb/cy_scb_spi.c ****     base->TX_CTRL      = CY_SCB_TX_CTRL_DEF_VAL;
 2329              		.loc 3 179 0
 2330 002c 7A68     		ldr	r2, [r7, #4]
 2331 002e 8023     		movs	r3, #128
 2332 0030 9B00     		lsls	r3, r3, #2
 2333 0032 0821     		movs	r1, #8
 2334 0034 FF31     		adds	r1, r1, #255
 2335 0036 D150     		str	r1, [r2, r3]
 180:Generated_Source\PSoC6\pdl\drivers\peripheral\scb/cy_scb_spi.c ****     base->TX_FIFO_CTRL = 0UL;
 2336              		.loc 3 180 0
 2337 0038 7A68     		ldr	r2, [r7, #4]
 2338 003a 8123     		movs	r3, #129
 2339 003c 9B00     		lsls	r3, r3, #2
 2340 003e 0021     		movs	r1, #0
 2341 0040 D150     		str	r1, [r2, r3]
 181:Generated_Source\PSoC6\pdl\drivers\peripheral\scb/cy_scb_spi.c **** 
 182:Generated_Source\PSoC6\pdl\drivers\peripheral\scb/cy_scb_spi.c ****     /* Disable all interrupt sources */
 183:Generated_Source\PSoC6\pdl\drivers\peripheral\scb/cy_scb_spi.c ****     base->INTR_SPI_EC_MASK = 0UL;
 2342              		.loc 3 183 0
 2343 0042 7B68     		ldr	r3, [r7, #4]
 2344 0044 0E4A     		ldr	r2, .L161+4
 2345 0046 0021     		movs	r1, #0
 2346 0048 9950     		str	r1, [r3, r2]
 184:Generated_Source\PSoC6\pdl\drivers\peripheral\scb/cy_scb_spi.c ****     base->INTR_I2C_EC_MASK = 0UL;
 2347              		.loc 3 184 0
 2348 004a 7B68     		ldr	r3, [r7, #4]
 2349 004c 0D4A     		ldr	r2, .L161+8
 2350 004e 0021     		movs	r1, #0
 2351 0050 9950     		str	r1, [r3, r2]
 185:Generated_Source\PSoC6\pdl\drivers\peripheral\scb/cy_scb_spi.c ****     base->INTR_RX_MASK     = 0UL;
 2352              		.loc 3 185 0
 2353 0052 7B68     		ldr	r3, [r7, #4]
 2354 0054 0C4A     		ldr	r2, .L161+12
 2355 0056 0021     		movs	r1, #0
 2356 0058 9950     		str	r1, [r3, r2]
 186:Generated_Source\PSoC6\pdl\drivers\peripheral\scb/cy_scb_spi.c ****     base->INTR_TX_MASK     = 0UL;
 2357              		.loc 3 186 0
 2358 005a 7B68     		ldr	r3, [r7, #4]
 2359 005c 0B4A     		ldr	r2, .L161+16
 2360 005e 0021     		movs	r1, #0
 2361 0060 9950     		str	r1, [r3, r2]
 187:Generated_Source\PSoC6\pdl\drivers\peripheral\scb/cy_scb_spi.c ****     base->INTR_M_MASK      = 0UL;
 2362              		.loc 3 187 0
 2363 0062 7B68     		ldr	r3, [r7, #4]
 2364 0064 0A4A     		ldr	r2, .L161+20
 2365 0066 0021     		movs	r1, #0
 2366 0068 9950     		str	r1, [r3, r2]
 188:Generated_Source\PSoC6\pdl\drivers\peripheral\scb/cy_scb_spi.c ****     base->INTR_S_MASK      = 0UL;
 2367              		.loc 3 188 0
 2368 006a 7B68     		ldr	r3, [r7, #4]
ARM GAS  C:\Users\salaz\AppData\Local\Temp\ccynHHO7.s 			page 103


 2369 006c 094A     		ldr	r2, .L161+24
 2370 006e 0021     		movs	r1, #0
 2371 0070 9950     		str	r1, [r3, r2]
 189:Generated_Source\PSoC6\pdl\drivers\peripheral\scb/cy_scb_spi.c **** }
 2372              		.loc 3 189 0
 2373 0072 C046     		nop
 2374 0074 BD46     		mov	sp, r7
 2375 0076 02B0     		add	sp, sp, #8
 2376              		@ sp needed
 2377 0078 80BD     		pop	{r7, pc}
 2378              	.L162:
 2379 007a C046     		.align	2
 2380              	.L161:
 2381 007c 0F000003 		.word	50331663
 2382 0080 C80E0000 		.word	3784
 2383 0084 880E0000 		.word	3720
 2384 0088 C80F0000 		.word	4040
 2385 008c 880F0000 		.word	3976
 2386 0090 080F0000 		.word	3848
 2387 0094 480F0000 		.word	3912
 2388              		.cfi_endproc
 2389              	.LFE144:
 2390              		.size	Cy_SCB_SPI_DeInit, .-Cy_SCB_SPI_DeInit
 2391              		.section	.text.Cy_SCB_SPI_Disable,"ax",%progbits
 2392              		.align	2
 2393              		.global	Cy_SCB_SPI_Disable
 2394              		.code	16
 2395              		.thumb_func
 2396              		.type	Cy_SCB_SPI_Disable, %function
 2397              	Cy_SCB_SPI_Disable:
 2398              	.LFB145:
 190:Generated_Source\PSoC6\pdl\drivers\peripheral\scb/cy_scb_spi.c **** 
 191:Generated_Source\PSoC6\pdl\drivers\peripheral\scb/cy_scb_spi.c **** 
 192:Generated_Source\PSoC6\pdl\drivers\peripheral\scb/cy_scb_spi.c **** /*******************************************************************************
 193:Generated_Source\PSoC6\pdl\drivers\peripheral\scb/cy_scb_spi.c **** * Function Name: Cy_SCB_SPI_Disable
 194:Generated_Source\PSoC6\pdl\drivers\peripheral\scb/cy_scb_spi.c **** ****************************************************************************//**
 195:Generated_Source\PSoC6\pdl\drivers\peripheral\scb/cy_scb_spi.c **** *
 196:Generated_Source\PSoC6\pdl\drivers\peripheral\scb/cy_scb_spi.c **** * Disables the SCB block, clears context statuses, and disables
 197:Generated_Source\PSoC6\pdl\drivers\peripheral\scb/cy_scb_spi.c **** * TX and RX interrupt sources.
 198:Generated_Source\PSoC6\pdl\drivers\peripheral\scb/cy_scb_spi.c **** * Note that after the block is disabled, the TX and RX FIFOs and
 199:Generated_Source\PSoC6\pdl\drivers\peripheral\scb/cy_scb_spi.c **** * hardware statuses are cleared. Also, the hardware stops driving the output
 200:Generated_Source\PSoC6\pdl\drivers\peripheral\scb/cy_scb_spi.c **** * and ignores the input.
 201:Generated_Source\PSoC6\pdl\drivers\peripheral\scb/cy_scb_spi.c **** *
 202:Generated_Source\PSoC6\pdl\drivers\peripheral\scb/cy_scb_spi.c **** * \param base
 203:Generated_Source\PSoC6\pdl\drivers\peripheral\scb/cy_scb_spi.c **** * The pointer to the SPI SCB instance.
 204:Generated_Source\PSoC6\pdl\drivers\peripheral\scb/cy_scb_spi.c **** *
 205:Generated_Source\PSoC6\pdl\drivers\peripheral\scb/cy_scb_spi.c **** * \param context
 206:Generated_Source\PSoC6\pdl\drivers\peripheral\scb/cy_scb_spi.c **** * The pointer to the context structure \ref cy_stc_scb_spi_context_t allocated
 207:Generated_Source\PSoC6\pdl\drivers\peripheral\scb/cy_scb_spi.c **** * by the user. The structure is used during the SPI operation for internal
 208:Generated_Source\PSoC6\pdl\drivers\peripheral\scb/cy_scb_spi.c **** * configuration and data retention. The user must not modify anything
 209:Generated_Source\PSoC6\pdl\drivers\peripheral\scb/cy_scb_spi.c **** * in this structure.
 210:Generated_Source\PSoC6\pdl\drivers\peripheral\scb/cy_scb_spi.c **** * If only SPI functions that do not require context will be used to pass NULL
 211:Generated_Source\PSoC6\pdl\drivers\peripheral\scb/cy_scb_spi.c **** * as pointer to context.
 212:Generated_Source\PSoC6\pdl\drivers\peripheral\scb/cy_scb_spi.c **** *
 213:Generated_Source\PSoC6\pdl\drivers\peripheral\scb/cy_scb_spi.c **** * \note
 214:Generated_Source\PSoC6\pdl\drivers\peripheral\scb/cy_scb_spi.c **** * Calling this function when the SPI is busy (master preforms data transfer or
 215:Generated_Source\PSoC6\pdl\drivers\peripheral\scb/cy_scb_spi.c **** * slave communicates with the master) may cause transfer corruption because the
ARM GAS  C:\Users\salaz\AppData\Local\Temp\ccynHHO7.s 			page 104


 216:Generated_Source\PSoC6\pdl\drivers\peripheral\scb/cy_scb_spi.c **** * hardware stops driving the outputs and ignores the inputs.
 217:Generated_Source\PSoC6\pdl\drivers\peripheral\scb/cy_scb_spi.c **** * Ensure that the SPI is not busy before calling this
 218:Generated_Source\PSoC6\pdl\drivers\peripheral\scb/cy_scb_spi.c **** * function.
 219:Generated_Source\PSoC6\pdl\drivers\peripheral\scb/cy_scb_spi.c **** *
 220:Generated_Source\PSoC6\pdl\drivers\peripheral\scb/cy_scb_spi.c **** *******************************************************************************/
 221:Generated_Source\PSoC6\pdl\drivers\peripheral\scb/cy_scb_spi.c **** void Cy_SCB_SPI_Disable(CySCB_Type *base, cy_stc_scb_spi_context_t *context)
 222:Generated_Source\PSoC6\pdl\drivers\peripheral\scb/cy_scb_spi.c **** {
 2399              		.loc 3 222 0
 2400              		.cfi_startproc
 2401              		@ args = 0, pretend = 0, frame = 8
 2402              		@ frame_needed = 1, uses_anonymous_args = 0
 2403 0000 80B5     		push	{r7, lr}
 2404              		.cfi_def_cfa_offset 8
 2405              		.cfi_offset 7, -8
 2406              		.cfi_offset 14, -4
 2407 0002 82B0     		sub	sp, sp, #8
 2408              		.cfi_def_cfa_offset 16
 2409 0004 00AF     		add	r7, sp, #0
 2410              		.cfi_def_cfa_register 7
 2411 0006 7860     		str	r0, [r7, #4]
 2412 0008 3960     		str	r1, [r7]
 223:Generated_Source\PSoC6\pdl\drivers\peripheral\scb/cy_scb_spi.c ****     base->CTRL &= (uint32_t) ~SCB_CTRL_ENABLED_Msk;
 2413              		.loc 3 223 0
 2414 000a 7B68     		ldr	r3, [r7, #4]
 2415 000c 1B68     		ldr	r3, [r3]
 2416 000e 5B00     		lsls	r3, r3, #1
 2417 0010 5A08     		lsrs	r2, r3, #1
 2418 0012 7B68     		ldr	r3, [r7, #4]
 2419 0014 1A60     		str	r2, [r3]
 224:Generated_Source\PSoC6\pdl\drivers\peripheral\scb/cy_scb_spi.c **** 
 225:Generated_Source\PSoC6\pdl\drivers\peripheral\scb/cy_scb_spi.c ****     if (NULL != context)
 2420              		.loc 3 225 0
 2421 0016 3B68     		ldr	r3, [r7]
 2422 0018 002B     		cmp	r3, #0
 2423 001a 08D0     		beq	.L164
 226:Generated_Source\PSoC6\pdl\drivers\peripheral\scb/cy_scb_spi.c ****     {
 227:Generated_Source\PSoC6\pdl\drivers\peripheral\scb/cy_scb_spi.c ****         context->status    = 0UL;
 2424              		.loc 3 227 0
 2425 001c 3B68     		ldr	r3, [r7]
 2426 001e 0022     		movs	r2, #0
 2427 0020 1A60     		str	r2, [r3]
 228:Generated_Source\PSoC6\pdl\drivers\peripheral\scb/cy_scb_spi.c **** 
 229:Generated_Source\PSoC6\pdl\drivers\peripheral\scb/cy_scb_spi.c ****         context->rxBufIdx  = 0UL;
 2428              		.loc 3 229 0
 2429 0022 3B68     		ldr	r3, [r7]
 2430 0024 0022     		movs	r2, #0
 2431 0026 DA60     		str	r2, [r3, #12]
 230:Generated_Source\PSoC6\pdl\drivers\peripheral\scb/cy_scb_spi.c ****         context->txBufIdx  = 0UL;
 2432              		.loc 3 230 0
 2433 0028 3B68     		ldr	r3, [r7]
 2434 002a 0022     		movs	r2, #0
 2435 002c 9A61     		str	r2, [r3, #24]
 2436              	.L164:
 231:Generated_Source\PSoC6\pdl\drivers\peripheral\scb/cy_scb_spi.c ****     }
 232:Generated_Source\PSoC6\pdl\drivers\peripheral\scb/cy_scb_spi.c **** 
 233:Generated_Source\PSoC6\pdl\drivers\peripheral\scb/cy_scb_spi.c ****     /* Disable RX and TX interrupt sources for the slave because
 234:Generated_Source\PSoC6\pdl\drivers\peripheral\scb/cy_scb_spi.c ****     * RX overflow and TX underflow are kept enabled after the 1st call of
ARM GAS  C:\Users\salaz\AppData\Local\Temp\ccynHHO7.s 			page 105


 235:Generated_Source\PSoC6\pdl\drivers\peripheral\scb/cy_scb_spi.c ****     * Cy_SCB_SPI_Transfer().
 236:Generated_Source\PSoC6\pdl\drivers\peripheral\scb/cy_scb_spi.c ****     */
 237:Generated_Source\PSoC6\pdl\drivers\peripheral\scb/cy_scb_spi.c ****     if (!_FLD2BOOL(SCB_SPI_CTRL_MASTER_MODE, base->SPI_CTRL))
 2437              		.loc 3 237 0
 2438 002e 7B68     		ldr	r3, [r7, #4]
 2439 0030 1B6A     		ldr	r3, [r3, #32]
 2440 0032 002B     		cmp	r3, #0
 2441 0034 09DB     		blt	.L166
 238:Generated_Source\PSoC6\pdl\drivers\peripheral\scb/cy_scb_spi.c ****     {
 239:Generated_Source\PSoC6\pdl\drivers\peripheral\scb/cy_scb_spi.c ****         Cy_SCB_SetRxInterruptMask(base, CY_SCB_CLEAR_ALL_INTR_SRC);
 2442              		.loc 3 239 0
 2443 0036 7B68     		ldr	r3, [r7, #4]
 2444 0038 0021     		movs	r1, #0
 2445 003a 1800     		movs	r0, r3
 2446 003c FFF7FEFF 		bl	Cy_SCB_SetRxInterruptMask
 240:Generated_Source\PSoC6\pdl\drivers\peripheral\scb/cy_scb_spi.c ****         Cy_SCB_SetTxInterruptMask(base, CY_SCB_CLEAR_ALL_INTR_SRC);
 2447              		.loc 3 240 0
 2448 0040 7B68     		ldr	r3, [r7, #4]
 2449 0042 0021     		movs	r1, #0
 2450 0044 1800     		movs	r0, r3
 2451 0046 FFF7FEFF 		bl	Cy_SCB_SetTxInterruptMask
 2452              	.L166:
 241:Generated_Source\PSoC6\pdl\drivers\peripheral\scb/cy_scb_spi.c ****     }
 242:Generated_Source\PSoC6\pdl\drivers\peripheral\scb/cy_scb_spi.c **** }
 2453              		.loc 3 242 0
 2454 004a C046     		nop
 2455 004c BD46     		mov	sp, r7
 2456 004e 02B0     		add	sp, sp, #8
 2457              		@ sp needed
 2458 0050 80BD     		pop	{r7, pc}
 2459              		.cfi_endproc
 2460              	.LFE145:
 2461              		.size	Cy_SCB_SPI_Disable, .-Cy_SCB_SPI_Disable
 2462 0052 C046     		.section	.text.Cy_SCB_SPI_DeepSleepCallback,"ax",%progbits
 2463              		.align	2
 2464              		.global	Cy_SCB_SPI_DeepSleepCallback
 2465              		.code	16
 2466              		.thumb_func
 2467              		.type	Cy_SCB_SPI_DeepSleepCallback, %function
 2468              	Cy_SCB_SPI_DeepSleepCallback:
 2469              	.LFB146:
 243:Generated_Source\PSoC6\pdl\drivers\peripheral\scb/cy_scb_spi.c **** 
 244:Generated_Source\PSoC6\pdl\drivers\peripheral\scb/cy_scb_spi.c **** 
 245:Generated_Source\PSoC6\pdl\drivers\peripheral\scb/cy_scb_spi.c **** /*******************************************************************************
 246:Generated_Source\PSoC6\pdl\drivers\peripheral\scb/cy_scb_spi.c **** * Function Name: Cy_SCB_SPI_DeepSleepCallback
 247:Generated_Source\PSoC6\pdl\drivers\peripheral\scb/cy_scb_spi.c **** ****************************************************************************//**
 248:Generated_Source\PSoC6\pdl\drivers\peripheral\scb/cy_scb_spi.c **** *
 249:Generated_Source\PSoC6\pdl\drivers\peripheral\scb/cy_scb_spi.c **** * This function handles the transition of the SCB SPI into and out of
 250:Generated_Source\PSoC6\pdl\drivers\peripheral\scb/cy_scb_spi.c **** * Deep Sleep mode. It prevents the device from entering Deep Sleep mode
 251:Generated_Source\PSoC6\pdl\drivers\peripheral\scb/cy_scb_spi.c **** * if the SPI slave or master is actively communicating, or there is any data 
 252:Generated_Source\PSoC6\pdl\drivers\peripheral\scb/cy_scb_spi.c **** * in the TX or RX FIFOs.
 253:Generated_Source\PSoC6\pdl\drivers\peripheral\scb/cy_scb_spi.c **** * The following behavior of the SPI SCB depends on whether the SCB block is
 254:Generated_Source\PSoC6\pdl\drivers\peripheral\scb/cy_scb_spi.c **** * wakeup-capable or not:
 255:Generated_Source\PSoC6\pdl\drivers\peripheral\scb/cy_scb_spi.c **** * * The SCB is <b>wakeup-capable</b>: any transfer intended to the slave wakes up 
 256:Generated_Source\PSoC6\pdl\drivers\peripheral\scb/cy_scb_spi.c **** *   the device from Deep Sleep mode. The slave responds with 0xFF to the transfer 
 257:Generated_Source\PSoC6\pdl\drivers\peripheral\scb/cy_scb_spi.c **** *   and incoming data is ignored.   
 258:Generated_Source\PSoC6\pdl\drivers\peripheral\scb/cy_scb_spi.c **** *   If the transfer occurs before the device enters Deep Sleep mode, the device
ARM GAS  C:\Users\salaz\AppData\Local\Temp\ccynHHO7.s 			page 106


 259:Generated_Source\PSoC6\pdl\drivers\peripheral\scb/cy_scb_spi.c **** *   will not enter Deep Sleep mode and incoming data is stored in the RX FIFO.
 260:Generated_Source\PSoC6\pdl\drivers\peripheral\scb/cy_scb_spi.c **** *   The SCB clock is disabled before entering Deep Sleep and enabled after the 
 261:Generated_Source\PSoC6\pdl\drivers\peripheral\scb/cy_scb_spi.c **** *   device exits Deep Sleep mode. The SCB clock must be enabled after exiting 
 262:Generated_Source\PSoC6\pdl\drivers\peripheral\scb/cy_scb_spi.c **** *   Deep Sleep mode and after the source of hf_clk[0] gets stable, this includes 
 263:Generated_Source\PSoC6\pdl\drivers\peripheral\scb/cy_scb_spi.c **** *   the FLL/PLL. The SysClk callback ensures that hf_clk[0] gets stable and 
 264:Generated_Source\PSoC6\pdl\drivers\peripheral\scb/cy_scb_spi.c **** *   it must be called before Cy_SCB_SPI_DeepSleepCallback. The SCB clock 
 265:Generated_Source\PSoC6\pdl\drivers\peripheral\scb/cy_scb_spi.c **** *   disabling may lead to corrupted data in the RX FIFO. Clear the RX FIFO 
 266:Generated_Source\PSoC6\pdl\drivers\peripheral\scb/cy_scb_spi.c **** *   after this callback is executed. If the transfer occurs before the device 
 267:Generated_Source\PSoC6\pdl\drivers\peripheral\scb/cy_scb_spi.c **** *   enters Deep Sleep mode, the device will not enter Deep Sleep mode and 
 268:Generated_Source\PSoC6\pdl\drivers\peripheral\scb/cy_scb_spi.c **** *   incoming data will be stored in the RX FIFO. \n
 269:Generated_Source\PSoC6\pdl\drivers\peripheral\scb/cy_scb_spi.c **** *   Only the SPI slave can be configured to be a wakeup source from Deep Sleep
 270:Generated_Source\PSoC6\pdl\drivers\peripheral\scb/cy_scb_spi.c **** *   mode.
 271:Generated_Source\PSoC6\pdl\drivers\peripheral\scb/cy_scb_spi.c **** * * The SCB is not <b>wakeup-capable</b>: the SPI is disabled. It is enabled when 
 272:Generated_Source\PSoC6\pdl\drivers\peripheral\scb/cy_scb_spi.c **** *   the device fails to enter Deep Sleep mode or it is awakened from Deep Sleep 
 273:Generated_Source\PSoC6\pdl\drivers\peripheral\scb/cy_scb_spi.c **** *   mode. While the SPI is disabled, it stops driving the outputs and ignores the
 274:Generated_Source\PSoC6\pdl\drivers\peripheral\scb/cy_scb_spi.c **** *   inputs. Any incoming data is ignored.
 275:Generated_Source\PSoC6\pdl\drivers\peripheral\scb/cy_scb_spi.c **** *
 276:Generated_Source\PSoC6\pdl\drivers\peripheral\scb/cy_scb_spi.c **** * This function must be called during execution of \ref Cy_SysPm_DeepSleep.
 277:Generated_Source\PSoC6\pdl\drivers\peripheral\scb/cy_scb_spi.c **** * To do it, register this function as a callback before calling
 278:Generated_Source\PSoC6\pdl\drivers\peripheral\scb/cy_scb_spi.c **** * \ref Cy_SysPm_DeepSleep : specify \ref CY_SYSPM_DEEPSLEEP as the callback
 279:Generated_Source\PSoC6\pdl\drivers\peripheral\scb/cy_scb_spi.c **** * type and call \ref Cy_SysPm_RegisterCallback.
 280:Generated_Source\PSoC6\pdl\drivers\peripheral\scb/cy_scb_spi.c **** *
 281:Generated_Source\PSoC6\pdl\drivers\peripheral\scb/cy_scb_spi.c **** * \param callbackParams
 282:Generated_Source\PSoC6\pdl\drivers\peripheral\scb/cy_scb_spi.c **** * The pointer to the callback parameters structure
 283:Generated_Source\PSoC6\pdl\drivers\peripheral\scb/cy_scb_spi.c **** * \ref cy_stc_syspm_callback_params_t.
 284:Generated_Source\PSoC6\pdl\drivers\peripheral\scb/cy_scb_spi.c **** *
 285:Generated_Source\PSoC6\pdl\drivers\peripheral\scb/cy_scb_spi.c **** * \return
 286:Generated_Source\PSoC6\pdl\drivers\peripheral\scb/cy_scb_spi.c **** * \ref cy_en_syspm_status_t
 287:Generated_Source\PSoC6\pdl\drivers\peripheral\scb/cy_scb_spi.c **** *
 288:Generated_Source\PSoC6\pdl\drivers\peripheral\scb/cy_scb_spi.c **** * \note
 289:Generated_Source\PSoC6\pdl\drivers\peripheral\scb/cy_scb_spi.c **** * Only applicable for <b>rev-08 of the CY8CKIT-062-BLE</b>.
 290:Generated_Source\PSoC6\pdl\drivers\peripheral\scb/cy_scb_spi.c **** * For proper operation, when the SPI slave is configured to be a wakeup source
 291:Generated_Source\PSoC6\pdl\drivers\peripheral\scb/cy_scb_spi.c **** * from Deep Sleep mode, this function must be copied and modified by the user.
 292:Generated_Source\PSoC6\pdl\drivers\peripheral\scb/cy_scb_spi.c **** * The SPI clock disable code must be inserted in the \ref CY_SYSPM_BEFORE_TRANSITION
 293:Generated_Source\PSoC6\pdl\drivers\peripheral\scb/cy_scb_spi.c **** * and clock enable code in the \ref CY_SYSPM_AFTER_TRANSITION mode processing.
 294:Generated_Source\PSoC6\pdl\drivers\peripheral\scb/cy_scb_spi.c **** *
 295:Generated_Source\PSoC6\pdl\drivers\peripheral\scb/cy_scb_spi.c **** *******************************************************************************/
 296:Generated_Source\PSoC6\pdl\drivers\peripheral\scb/cy_scb_spi.c **** cy_en_syspm_status_t Cy_SCB_SPI_DeepSleepCallback(cy_stc_syspm_callback_params_t *callbackParams)
 297:Generated_Source\PSoC6\pdl\drivers\peripheral\scb/cy_scb_spi.c **** {
 2470              		.loc 3 297 0
 2471              		.cfi_startproc
 2472              		@ args = 0, pretend = 0, frame = 24
 2473              		@ frame_needed = 1, uses_anonymous_args = 0
 2474 0000 80B5     		push	{r7, lr}
 2475              		.cfi_def_cfa_offset 8
 2476              		.cfi_offset 7, -8
 2477              		.cfi_offset 14, -4
 2478 0002 86B0     		sub	sp, sp, #24
 2479              		.cfi_def_cfa_offset 32
 2480 0004 00AF     		add	r7, sp, #0
 2481              		.cfi_def_cfa_register 7
 2482 0006 7860     		str	r0, [r7, #4]
 298:Generated_Source\PSoC6\pdl\drivers\peripheral\scb/cy_scb_spi.c ****     CySCB_Type *locBase = (CySCB_Type *) callbackParams->base;
 2483              		.loc 3 298 0
 2484 0008 7B68     		ldr	r3, [r7, #4]
 2485 000a 5B68     		ldr	r3, [r3, #4]
 2486 000c 3B61     		str	r3, [r7, #16]
ARM GAS  C:\Users\salaz\AppData\Local\Temp\ccynHHO7.s 			page 107


 299:Generated_Source\PSoC6\pdl\drivers\peripheral\scb/cy_scb_spi.c ****     cy_stc_scb_spi_context_t *locContext = (cy_stc_scb_spi_context_t *) callbackParams->context;
 2487              		.loc 3 299 0
 2488 000e 7B68     		ldr	r3, [r7, #4]
 2489 0010 9B68     		ldr	r3, [r3, #8]
 2490 0012 FB60     		str	r3, [r7, #12]
 300:Generated_Source\PSoC6\pdl\drivers\peripheral\scb/cy_scb_spi.c **** 
 301:Generated_Source\PSoC6\pdl\drivers\peripheral\scb/cy_scb_spi.c ****     cy_en_syspm_status_t retStatus = CY_SYSPM_FAIL;
 2491              		.loc 3 301 0
 2492 0014 4A4B     		ldr	r3, .L184
 2493 0016 7B61     		str	r3, [r7, #20]
 302:Generated_Source\PSoC6\pdl\drivers\peripheral\scb/cy_scb_spi.c **** 
 303:Generated_Source\PSoC6\pdl\drivers\peripheral\scb/cy_scb_spi.c ****     switch(callbackParams->mode)
 2494              		.loc 3 303 0
 2495 0018 7B68     		ldr	r3, [r7, #4]
 2496 001a 1B78     		ldrb	r3, [r3]
 2497 001c 022B     		cmp	r3, #2
 2498 001e 4ED0     		beq	.L169
 2499 0020 02DC     		bgt	.L170
 2500 0022 012B     		cmp	r3, #1
 2501 0024 06D0     		beq	.L171
 304:Generated_Source\PSoC6\pdl\drivers\peripheral\scb/cy_scb_spi.c ****     {
 305:Generated_Source\PSoC6\pdl\drivers\peripheral\scb/cy_scb_spi.c ****         case CY_SYSPM_CHECK_READY:
 306:Generated_Source\PSoC6\pdl\drivers\peripheral\scb/cy_scb_spi.c ****         {
 307:Generated_Source\PSoC6\pdl\drivers\peripheral\scb/cy_scb_spi.c ****             /* Check whether the High-level API is not busy executing the transfer
 308:Generated_Source\PSoC6\pdl\drivers\peripheral\scb/cy_scb_spi.c ****             * operation.
 309:Generated_Source\PSoC6\pdl\drivers\peripheral\scb/cy_scb_spi.c ****             */
 310:Generated_Source\PSoC6\pdl\drivers\peripheral\scb/cy_scb_spi.c ****             if (0UL == (CY_SCB_SPI_TRANSFER_ACTIVE & Cy_SCB_SPI_GetTransferStatus(locBase, locConte
 311:Generated_Source\PSoC6\pdl\drivers\peripheral\scb/cy_scb_spi.c ****             {
 312:Generated_Source\PSoC6\pdl\drivers\peripheral\scb/cy_scb_spi.c ****                 /* If the SPI bus is not busy, all data elements are transferred
 313:Generated_Source\PSoC6\pdl\drivers\peripheral\scb/cy_scb_spi.c ****                 * on the bus from the TX FIFO and shifter and the RX FIFOs are
 314:Generated_Source\PSoC6\pdl\drivers\peripheral\scb/cy_scb_spi.c ****                 * empty - the SPI is ready to enter Deep Sleep mode.
 315:Generated_Source\PSoC6\pdl\drivers\peripheral\scb/cy_scb_spi.c ****                 */
 316:Generated_Source\PSoC6\pdl\drivers\peripheral\scb/cy_scb_spi.c ****                 if (!Cy_SCB_SPI_IsBusBusy(locBase))
 317:Generated_Source\PSoC6\pdl\drivers\peripheral\scb/cy_scb_spi.c ****                 {
 318:Generated_Source\PSoC6\pdl\drivers\peripheral\scb/cy_scb_spi.c ****                     if (Cy_SCB_SPI_IsTxComplete(locBase))
 319:Generated_Source\PSoC6\pdl\drivers\peripheral\scb/cy_scb_spi.c ****                     {
 320:Generated_Source\PSoC6\pdl\drivers\peripheral\scb/cy_scb_spi.c ****                         if (0UL == Cy_SCB_SPI_GetNumInRxFifo(locBase))
 321:Generated_Source\PSoC6\pdl\drivers\peripheral\scb/cy_scb_spi.c ****                         {
 322:Generated_Source\PSoC6\pdl\drivers\peripheral\scb/cy_scb_spi.c ****                             if (_FLD2BOOL(SCB_CTRL_EC_AM_MODE, locBase->CTRL))
 323:Generated_Source\PSoC6\pdl\drivers\peripheral\scb/cy_scb_spi.c ****                             {
 324:Generated_Source\PSoC6\pdl\drivers\peripheral\scb/cy_scb_spi.c ****                                 /* The SCB is wakeup-capable: clear the SPI
 325:Generated_Source\PSoC6\pdl\drivers\peripheral\scb/cy_scb_spi.c ****                                 * wakeup interrupt source because it triggers
 326:Generated_Source\PSoC6\pdl\drivers\peripheral\scb/cy_scb_spi.c ****                                 * during Active mode communication and make
 327:Generated_Source\PSoC6\pdl\drivers\peripheral\scb/cy_scb_spi.c ****                                 * sure that a new transfer is not started after
 328:Generated_Source\PSoC6\pdl\drivers\peripheral\scb/cy_scb_spi.c ****                                 * clearing.
 329:Generated_Source\PSoC6\pdl\drivers\peripheral\scb/cy_scb_spi.c ****                                 */
 330:Generated_Source\PSoC6\pdl\drivers\peripheral\scb/cy_scb_spi.c ****                                 Cy_SCB_ClearSpiInterrupt(locBase, CY_SCB_SPI_INTR_WAKEUP);
 331:Generated_Source\PSoC6\pdl\drivers\peripheral\scb/cy_scb_spi.c **** 
 332:Generated_Source\PSoC6\pdl\drivers\peripheral\scb/cy_scb_spi.c ****                                 if (!Cy_SCB_SPI_IsBusBusy(locBase))
 333:Generated_Source\PSoC6\pdl\drivers\peripheral\scb/cy_scb_spi.c ****                                 {
 334:Generated_Source\PSoC6\pdl\drivers\peripheral\scb/cy_scb_spi.c ****                                     retStatus = CY_SYSPM_SUCCESS;
 335:Generated_Source\PSoC6\pdl\drivers\peripheral\scb/cy_scb_spi.c ****                                 }
 336:Generated_Source\PSoC6\pdl\drivers\peripheral\scb/cy_scb_spi.c ****                             }
 337:Generated_Source\PSoC6\pdl\drivers\peripheral\scb/cy_scb_spi.c ****                             else
 338:Generated_Source\PSoC6\pdl\drivers\peripheral\scb/cy_scb_spi.c ****                             {
 339:Generated_Source\PSoC6\pdl\drivers\peripheral\scb/cy_scb_spi.c ****                                 /* The SCB is NOT wakeup-capable: disable the
 340:Generated_Source\PSoC6\pdl\drivers\peripheral\scb/cy_scb_spi.c ****                                 * SPI. The master and slave stop driving the
ARM GAS  C:\Users\salaz\AppData\Local\Temp\ccynHHO7.s 			page 108


 341:Generated_Source\PSoC6\pdl\drivers\peripheral\scb/cy_scb_spi.c ****                                 * bus until the SPI is enabled. This happens
 342:Generated_Source\PSoC6\pdl\drivers\peripheral\scb/cy_scb_spi.c ****                                 * when the device fails to enter Deep Sleep
 343:Generated_Source\PSoC6\pdl\drivers\peripheral\scb/cy_scb_spi.c ****                                 * mode or it is awakened from Deep Sleep mode.
 344:Generated_Source\PSoC6\pdl\drivers\peripheral\scb/cy_scb_spi.c ****                                 */
 345:Generated_Source\PSoC6\pdl\drivers\peripheral\scb/cy_scb_spi.c ****                                 Cy_SCB_SPI_Disable(locBase, locContext);
 346:Generated_Source\PSoC6\pdl\drivers\peripheral\scb/cy_scb_spi.c **** 
 347:Generated_Source\PSoC6\pdl\drivers\peripheral\scb/cy_scb_spi.c ****                                 retStatus = CY_SYSPM_SUCCESS;
 348:Generated_Source\PSoC6\pdl\drivers\peripheral\scb/cy_scb_spi.c ****                             }
 349:Generated_Source\PSoC6\pdl\drivers\peripheral\scb/cy_scb_spi.c ****                         }
 350:Generated_Source\PSoC6\pdl\drivers\peripheral\scb/cy_scb_spi.c ****                     }
 351:Generated_Source\PSoC6\pdl\drivers\peripheral\scb/cy_scb_spi.c ****                 }
 352:Generated_Source\PSoC6\pdl\drivers\peripheral\scb/cy_scb_spi.c ****             }
 353:Generated_Source\PSoC6\pdl\drivers\peripheral\scb/cy_scb_spi.c ****         }
 354:Generated_Source\PSoC6\pdl\drivers\peripheral\scb/cy_scb_spi.c ****         break;
 355:Generated_Source\PSoC6\pdl\drivers\peripheral\scb/cy_scb_spi.c **** 
 356:Generated_Source\PSoC6\pdl\drivers\peripheral\scb/cy_scb_spi.c ****         case CY_SYSPM_CHECK_FAIL:
 357:Generated_Source\PSoC6\pdl\drivers\peripheral\scb/cy_scb_spi.c ****         {
 358:Generated_Source\PSoC6\pdl\drivers\peripheral\scb/cy_scb_spi.c ****             /* The other driver is not ready for Deep Sleep mode. Restore
 359:Generated_Source\PSoC6\pdl\drivers\peripheral\scb/cy_scb_spi.c ****             * Active mode configuration.
 360:Generated_Source\PSoC6\pdl\drivers\peripheral\scb/cy_scb_spi.c ****             */
 361:Generated_Source\PSoC6\pdl\drivers\peripheral\scb/cy_scb_spi.c **** 
 362:Generated_Source\PSoC6\pdl\drivers\peripheral\scb/cy_scb_spi.c ****             if (!_FLD2BOOL(SCB_CTRL_EC_AM_MODE, locBase->CTRL))
 363:Generated_Source\PSoC6\pdl\drivers\peripheral\scb/cy_scb_spi.c ****             {
 364:Generated_Source\PSoC6\pdl\drivers\peripheral\scb/cy_scb_spi.c ****                 /* The SCB is NOT wakeup-capable: enable the SPI to operate */
 365:Generated_Source\PSoC6\pdl\drivers\peripheral\scb/cy_scb_spi.c ****                 Cy_SCB_SPI_Enable(locBase);
 366:Generated_Source\PSoC6\pdl\drivers\peripheral\scb/cy_scb_spi.c ****             }
 367:Generated_Source\PSoC6\pdl\drivers\peripheral\scb/cy_scb_spi.c **** 
 368:Generated_Source\PSoC6\pdl\drivers\peripheral\scb/cy_scb_spi.c ****             retStatus = CY_SYSPM_SUCCESS;
 369:Generated_Source\PSoC6\pdl\drivers\peripheral\scb/cy_scb_spi.c ****         }
 370:Generated_Source\PSoC6\pdl\drivers\peripheral\scb/cy_scb_spi.c ****         break;
 371:Generated_Source\PSoC6\pdl\drivers\peripheral\scb/cy_scb_spi.c **** 
 372:Generated_Source\PSoC6\pdl\drivers\peripheral\scb/cy_scb_spi.c ****         case CY_SYSPM_BEFORE_TRANSITION:
 373:Generated_Source\PSoC6\pdl\drivers\peripheral\scb/cy_scb_spi.c ****         {
 374:Generated_Source\PSoC6\pdl\drivers\peripheral\scb/cy_scb_spi.c ****             /* This code executes inside the critical section and enabling the
 375:Generated_Source\PSoC6\pdl\drivers\peripheral\scb/cy_scb_spi.c ****             * active interrupt source makes the interrupt pending in the NVIC.
 376:Generated_Source\PSoC6\pdl\drivers\peripheral\scb/cy_scb_spi.c ****             * However, the interrupt processing is delayed until the code exits
 377:Generated_Source\PSoC6\pdl\drivers\peripheral\scb/cy_scb_spi.c ****             * the critical section. The pending interrupt force WFI instruction
 378:Generated_Source\PSoC6\pdl\drivers\peripheral\scb/cy_scb_spi.c ****             * does nothing and the device remains in Active mode.
 379:Generated_Source\PSoC6\pdl\drivers\peripheral\scb/cy_scb_spi.c ****             */
 380:Generated_Source\PSoC6\pdl\drivers\peripheral\scb/cy_scb_spi.c **** 
 381:Generated_Source\PSoC6\pdl\drivers\peripheral\scb/cy_scb_spi.c ****             if (_FLD2BOOL(SCB_CTRL_EC_AM_MODE, locBase->CTRL))
 382:Generated_Source\PSoC6\pdl\drivers\peripheral\scb/cy_scb_spi.c ****             {
 383:Generated_Source\PSoC6\pdl\drivers\peripheral\scb/cy_scb_spi.c ****                 /* The SCB is wakeup-capable: enable the SPI wakeup interrupt
 384:Generated_Source\PSoC6\pdl\drivers\peripheral\scb/cy_scb_spi.c ****                 * source. If any transaction happens, the wakeup interrupt
 385:Generated_Source\PSoC6\pdl\drivers\peripheral\scb/cy_scb_spi.c ****                 * becomes pending and prevents entering Deep Sleep mode.
 386:Generated_Source\PSoC6\pdl\drivers\peripheral\scb/cy_scb_spi.c ****                 */
 387:Generated_Source\PSoC6\pdl\drivers\peripheral\scb/cy_scb_spi.c ****                 Cy_SCB_SetSpiInterruptMask(locBase, CY_SCB_I2C_INTR_WAKEUP);
 388:Generated_Source\PSoC6\pdl\drivers\peripheral\scb/cy_scb_spi.c ****                 
 389:Generated_Source\PSoC6\pdl\drivers\peripheral\scb/cy_scb_spi.c ****                 /* Disable SCB clock */
 390:Generated_Source\PSoC6\pdl\drivers\peripheral\scb/cy_scb_spi.c ****                 locBase->I2C_CFG &= (uint32_t) ~CY_SCB_I2C_CFG_CLK_ENABLE_Msk;
 391:Generated_Source\PSoC6\pdl\drivers\peripheral\scb/cy_scb_spi.c ****                             
 392:Generated_Source\PSoC6\pdl\drivers\peripheral\scb/cy_scb_spi.c ****                 /* IMPORTANT (replace line above for the CY8CKIT-062 rev-08): 
 393:Generated_Source\PSoC6\pdl\drivers\peripheral\scb/cy_scb_spi.c ****                 * for proper entering Deep Sleep mode the SPI clock must be disabled. 
 394:Generated_Source\PSoC6\pdl\drivers\peripheral\scb/cy_scb_spi.c ****                 * This code must be inserted by the user because the driver 
 395:Generated_Source\PSoC6\pdl\drivers\peripheral\scb/cy_scb_spi.c ****                 * does not have access to the clock.
 396:Generated_Source\PSoC6\pdl\drivers\peripheral\scb/cy_scb_spi.c ****                 */
 397:Generated_Source\PSoC6\pdl\drivers\peripheral\scb/cy_scb_spi.c ****             }
ARM GAS  C:\Users\salaz\AppData\Local\Temp\ccynHHO7.s 			page 109


 398:Generated_Source\PSoC6\pdl\drivers\peripheral\scb/cy_scb_spi.c **** 
 399:Generated_Source\PSoC6\pdl\drivers\peripheral\scb/cy_scb_spi.c ****             retStatus = CY_SYSPM_SUCCESS;
 400:Generated_Source\PSoC6\pdl\drivers\peripheral\scb/cy_scb_spi.c ****         }
 401:Generated_Source\PSoC6\pdl\drivers\peripheral\scb/cy_scb_spi.c ****         break;
 402:Generated_Source\PSoC6\pdl\drivers\peripheral\scb/cy_scb_spi.c **** 
 403:Generated_Source\PSoC6\pdl\drivers\peripheral\scb/cy_scb_spi.c ****         case CY_SYSPM_AFTER_TRANSITION:
 404:Generated_Source\PSoC6\pdl\drivers\peripheral\scb/cy_scb_spi.c ****         {
 405:Generated_Source\PSoC6\pdl\drivers\peripheral\scb/cy_scb_spi.c ****             if (_FLD2BOOL(SCB_CTRL_EC_AM_MODE, locBase->CTRL))
 406:Generated_Source\PSoC6\pdl\drivers\peripheral\scb/cy_scb_spi.c ****             {
 407:Generated_Source\PSoC6\pdl\drivers\peripheral\scb/cy_scb_spi.c ****                 /* Enable SCB clock */
 408:Generated_Source\PSoC6\pdl\drivers\peripheral\scb/cy_scb_spi.c ****                 locBase->I2C_CFG |= CY_SCB_I2C_CFG_CLK_ENABLE_Msk;
 409:Generated_Source\PSoC6\pdl\drivers\peripheral\scb/cy_scb_spi.c ****                 
 410:Generated_Source\PSoC6\pdl\drivers\peripheral\scb/cy_scb_spi.c ****                 /* IMPORTANT (replace line above for the CY8CKIT-062 rev-08): 
 411:Generated_Source\PSoC6\pdl\drivers\peripheral\scb/cy_scb_spi.c ****                 * for proper exiting Deep Sleep mode, the SPI clock must be enabled. 
 412:Generated_Source\PSoC6\pdl\drivers\peripheral\scb/cy_scb_spi.c ****                 * This code must be inserted by the user because the driver 
 413:Generated_Source\PSoC6\pdl\drivers\peripheral\scb/cy_scb_spi.c ****                 * does not have access to the clock.
 414:Generated_Source\PSoC6\pdl\drivers\peripheral\scb/cy_scb_spi.c ****                 */
 415:Generated_Source\PSoC6\pdl\drivers\peripheral\scb/cy_scb_spi.c ****                 
 416:Generated_Source\PSoC6\pdl\drivers\peripheral\scb/cy_scb_spi.c ****                 /* The SCB is wakeup-capable: disable the SPI wakeup interrupt
 417:Generated_Source\PSoC6\pdl\drivers\peripheral\scb/cy_scb_spi.c ****                 * source
 418:Generated_Source\PSoC6\pdl\drivers\peripheral\scb/cy_scb_spi.c ****                 */
 419:Generated_Source\PSoC6\pdl\drivers\peripheral\scb/cy_scb_spi.c ****                 Cy_SCB_SetSpiInterruptMask(locBase, CY_SCB_CLEAR_ALL_INTR_SRC);
 420:Generated_Source\PSoC6\pdl\drivers\peripheral\scb/cy_scb_spi.c ****             }
 421:Generated_Source\PSoC6\pdl\drivers\peripheral\scb/cy_scb_spi.c ****             else
 422:Generated_Source\PSoC6\pdl\drivers\peripheral\scb/cy_scb_spi.c ****             {
 423:Generated_Source\PSoC6\pdl\drivers\peripheral\scb/cy_scb_spi.c ****                 /* The SCB is NOT wakeup-capable: enable the SPI to operate */
 424:Generated_Source\PSoC6\pdl\drivers\peripheral\scb/cy_scb_spi.c ****                 Cy_SCB_SPI_Enable(locBase);
 425:Generated_Source\PSoC6\pdl\drivers\peripheral\scb/cy_scb_spi.c ****             }
 426:Generated_Source\PSoC6\pdl\drivers\peripheral\scb/cy_scb_spi.c **** 
 427:Generated_Source\PSoC6\pdl\drivers\peripheral\scb/cy_scb_spi.c ****             retStatus = CY_SYSPM_SUCCESS;
 428:Generated_Source\PSoC6\pdl\drivers\peripheral\scb/cy_scb_spi.c ****         }
 429:Generated_Source\PSoC6\pdl\drivers\peripheral\scb/cy_scb_spi.c ****         break;
 430:Generated_Source\PSoC6\pdl\drivers\peripheral\scb/cy_scb_spi.c **** 
 431:Generated_Source\PSoC6\pdl\drivers\peripheral\scb/cy_scb_spi.c ****         default:
 432:Generated_Source\PSoC6\pdl\drivers\peripheral\scb/cy_scb_spi.c ****             break;
 2502              		.loc 3 432 0
 2503 0026 86E0     		b	.L177
 2504              	.L170:
 303:Generated_Source\PSoC6\pdl\drivers\peripheral\scb/cy_scb_spi.c ****     {
 2505              		.loc 3 303 0
 2506 0028 042B     		cmp	r3, #4
 2507 002a 55D0     		beq	.L172
 2508 002c 082B     		cmp	r3, #8
 2509 002e 00D1     		bne	.LCB2198
 2510 0030 67E0     		b	.L173	@long jump
 2511              	.LCB2198:
 2512              		.loc 3 432 0
 2513 0032 80E0     		b	.L177
 2514              	.L171:
 310:Generated_Source\PSoC6\pdl\drivers\peripheral\scb/cy_scb_spi.c ****             {
 2515              		.loc 3 310 0
 2516 0034 FA68     		ldr	r2, [r7, #12]
 2517 0036 3B69     		ldr	r3, [r7, #16]
 2518 0038 1100     		movs	r1, r2
 2519 003a 1800     		movs	r0, r3
 2520 003c FFF7FEFF 		bl	Cy_SCB_SPI_GetTransferStatus
 2521 0040 0200     		movs	r2, r0
ARM GAS  C:\Users\salaz\AppData\Local\Temp\ccynHHO7.s 			page 110


 2522 0042 0123     		movs	r3, #1
 2523 0044 1340     		ands	r3, r2
 2524 0046 00D0     		beq	.LCB2212
 2525 0048 74E0     		b	.L183	@long jump
 2526              	.LCB2212:
 316:Generated_Source\PSoC6\pdl\drivers\peripheral\scb/cy_scb_spi.c ****                 {
 2527              		.loc 3 316 0
 2528 004a 3B69     		ldr	r3, [r7, #16]
 2529 004c 1800     		movs	r0, r3
 2530 004e FFF7FEFF 		bl	Cy_SCB_SPI_IsBusBusy
 2531 0052 0300     		movs	r3, r0
 2532 0054 1A00     		movs	r2, r3
 2533 0056 0123     		movs	r3, #1
 2534 0058 5340     		eors	r3, r2
 2535 005a DBB2     		uxtb	r3, r3
 2536 005c 002B     		cmp	r3, #0
 2537 005e 00D1     		bne	.LCB2222
 2538 0060 68E0     		b	.L183	@long jump
 2539              	.LCB2222:
 318:Generated_Source\PSoC6\pdl\drivers\peripheral\scb/cy_scb_spi.c ****                     {
 2540              		.loc 3 318 0
 2541 0062 3B69     		ldr	r3, [r7, #16]
 2542 0064 1800     		movs	r0, r3
 2543 0066 FFF7FEFF 		bl	Cy_SCB_SPI_IsTxComplete
 2544 006a 031E     		subs	r3, r0, #0
 2545 006c 62D0     		beq	.L183
 320:Generated_Source\PSoC6\pdl\drivers\peripheral\scb/cy_scb_spi.c ****                         {
 2546              		.loc 3 320 0
 2547 006e 3B69     		ldr	r3, [r7, #16]
 2548 0070 1800     		movs	r0, r3
 2549 0072 FFF7FEFF 		bl	Cy_SCB_SPI_GetNumInRxFifo
 2550 0076 031E     		subs	r3, r0, #0
 2551 0078 5CD1     		bne	.L183
 322:Generated_Source\PSoC6\pdl\drivers\peripheral\scb/cy_scb_spi.c ****                             {
 2552              		.loc 3 322 0
 2553 007a 3B69     		ldr	r3, [r7, #16]
 2554 007c 1A68     		ldr	r2, [r3]
 2555 007e 8023     		movs	r3, #128
 2556 0080 5B00     		lsls	r3, r3, #1
 2557 0082 1340     		ands	r3, r2
 2558 0084 12D0     		beq	.L175
 330:Generated_Source\PSoC6\pdl\drivers\peripheral\scb/cy_scb_spi.c **** 
 2559              		.loc 3 330 0
 2560 0086 3B69     		ldr	r3, [r7, #16]
 2561 0088 0121     		movs	r1, #1
 2562 008a 1800     		movs	r0, r3
 2563 008c FFF7FEFF 		bl	Cy_SCB_ClearSpiInterrupt
 332:Generated_Source\PSoC6\pdl\drivers\peripheral\scb/cy_scb_spi.c ****                                 {
 2564              		.loc 3 332 0
 2565 0090 3B69     		ldr	r3, [r7, #16]
 2566 0092 1800     		movs	r0, r3
 2567 0094 FFF7FEFF 		bl	Cy_SCB_SPI_IsBusBusy
 2568 0098 0300     		movs	r3, r0
 2569 009a 1A00     		movs	r2, r3
 2570 009c 0123     		movs	r3, #1
 2571 009e 5340     		eors	r3, r2
 2572 00a0 DBB2     		uxtb	r3, r3
ARM GAS  C:\Users\salaz\AppData\Local\Temp\ccynHHO7.s 			page 111


 2573 00a2 002B     		cmp	r3, #0
 2574 00a4 46D0     		beq	.L183
 334:Generated_Source\PSoC6\pdl\drivers\peripheral\scb/cy_scb_spi.c ****                                 }
 2575              		.loc 3 334 0
 2576 00a6 0023     		movs	r3, #0
 2577 00a8 7B61     		str	r3, [r7, #20]
 354:Generated_Source\PSoC6\pdl\drivers\peripheral\scb/cy_scb_spi.c **** 
 2578              		.loc 3 354 0
 2579 00aa 43E0     		b	.L183
 2580              	.L175:
 345:Generated_Source\PSoC6\pdl\drivers\peripheral\scb/cy_scb_spi.c **** 
 2581              		.loc 3 345 0
 2582 00ac FA68     		ldr	r2, [r7, #12]
 2583 00ae 3B69     		ldr	r3, [r7, #16]
 2584 00b0 1100     		movs	r1, r2
 2585 00b2 1800     		movs	r0, r3
 2586 00b4 FFF7FEFF 		bl	Cy_SCB_SPI_Disable
 347:Generated_Source\PSoC6\pdl\drivers\peripheral\scb/cy_scb_spi.c ****                             }
 2587              		.loc 3 347 0
 2588 00b8 0023     		movs	r3, #0
 2589 00ba 7B61     		str	r3, [r7, #20]
 354:Generated_Source\PSoC6\pdl\drivers\peripheral\scb/cy_scb_spi.c **** 
 2590              		.loc 3 354 0
 2591 00bc 3AE0     		b	.L183
 2592              	.L169:
 362:Generated_Source\PSoC6\pdl\drivers\peripheral\scb/cy_scb_spi.c ****             {
 2593              		.loc 3 362 0
 2594 00be 3B69     		ldr	r3, [r7, #16]
 2595 00c0 1A68     		ldr	r2, [r3]
 2596 00c2 8023     		movs	r3, #128
 2597 00c4 5B00     		lsls	r3, r3, #1
 2598 00c6 1340     		ands	r3, r2
 2599 00c8 03D1     		bne	.L178
 365:Generated_Source\PSoC6\pdl\drivers\peripheral\scb/cy_scb_spi.c ****             }
 2600              		.loc 3 365 0
 2601 00ca 3B69     		ldr	r3, [r7, #16]
 2602 00cc 1800     		movs	r0, r3
 2603 00ce FFF7FEFF 		bl	Cy_SCB_SPI_Enable
 2604              	.L178:
 368:Generated_Source\PSoC6\pdl\drivers\peripheral\scb/cy_scb_spi.c ****         }
 2605              		.loc 3 368 0
 2606 00d2 0023     		movs	r3, #0
 2607 00d4 7B61     		str	r3, [r7, #20]
 370:Generated_Source\PSoC6\pdl\drivers\peripheral\scb/cy_scb_spi.c **** 
 2608              		.loc 3 370 0
 2609 00d6 2EE0     		b	.L177
 2610              	.L172:
 381:Generated_Source\PSoC6\pdl\drivers\peripheral\scb/cy_scb_spi.c ****             {
 2611              		.loc 3 381 0
 2612 00d8 3B69     		ldr	r3, [r7, #16]
 2613 00da 1A68     		ldr	r2, [r3]
 2614 00dc 8023     		movs	r3, #128
 2615 00de 5B00     		lsls	r3, r3, #1
 2616 00e0 1340     		ands	r3, r2
 2617 00e2 0BD0     		beq	.L179
 387:Generated_Source\PSoC6\pdl\drivers\peripheral\scb/cy_scb_spi.c ****                 
 2618              		.loc 3 387 0
ARM GAS  C:\Users\salaz\AppData\Local\Temp\ccynHHO7.s 			page 112


 2619 00e4 3B69     		ldr	r3, [r7, #16]
 2620 00e6 0121     		movs	r1, #1
 2621 00e8 1800     		movs	r0, r3
 2622 00ea FFF7FEFF 		bl	Cy_SCB_SetSpiInterruptMask
 390:Generated_Source\PSoC6\pdl\drivers\peripheral\scb/cy_scb_spi.c ****                             
 2623              		.loc 3 390 0
 2624 00ee 3B69     		ldr	r3, [r7, #16]
 2625 00f0 1B6F     		ldr	r3, [r3, #112]
 2626 00f2 0222     		movs	r2, #2
 2627 00f4 9343     		bics	r3, r2
 2628 00f6 1A00     		movs	r2, r3
 2629 00f8 3B69     		ldr	r3, [r7, #16]
 2630 00fa 1A67     		str	r2, [r3, #112]
 2631              	.L179:
 399:Generated_Source\PSoC6\pdl\drivers\peripheral\scb/cy_scb_spi.c ****         }
 2632              		.loc 3 399 0
 2633 00fc 0023     		movs	r3, #0
 2634 00fe 7B61     		str	r3, [r7, #20]
 401:Generated_Source\PSoC6\pdl\drivers\peripheral\scb/cy_scb_spi.c **** 
 2635              		.loc 3 401 0
 2636 0100 19E0     		b	.L177
 2637              	.L173:
 405:Generated_Source\PSoC6\pdl\drivers\peripheral\scb/cy_scb_spi.c ****             {
 2638              		.loc 3 405 0
 2639 0102 3B69     		ldr	r3, [r7, #16]
 2640 0104 1A68     		ldr	r2, [r3]
 2641 0106 8023     		movs	r3, #128
 2642 0108 5B00     		lsls	r3, r3, #1
 2643 010a 1340     		ands	r3, r2
 2644 010c 0BD0     		beq	.L180
 408:Generated_Source\PSoC6\pdl\drivers\peripheral\scb/cy_scb_spi.c ****                 
 2645              		.loc 3 408 0
 2646 010e 3B69     		ldr	r3, [r7, #16]
 2647 0110 1B6F     		ldr	r3, [r3, #112]
 2648 0112 0222     		movs	r2, #2
 2649 0114 1A43     		orrs	r2, r3
 2650 0116 3B69     		ldr	r3, [r7, #16]
 2651 0118 1A67     		str	r2, [r3, #112]
 419:Generated_Source\PSoC6\pdl\drivers\peripheral\scb/cy_scb_spi.c ****             }
 2652              		.loc 3 419 0
 2653 011a 3B69     		ldr	r3, [r7, #16]
 2654 011c 0021     		movs	r1, #0
 2655 011e 1800     		movs	r0, r3
 2656 0120 FFF7FEFF 		bl	Cy_SCB_SetSpiInterruptMask
 2657 0124 03E0     		b	.L181
 2658              	.L180:
 424:Generated_Source\PSoC6\pdl\drivers\peripheral\scb/cy_scb_spi.c ****             }
 2659              		.loc 3 424 0
 2660 0126 3B69     		ldr	r3, [r7, #16]
 2661 0128 1800     		movs	r0, r3
 2662 012a FFF7FEFF 		bl	Cy_SCB_SPI_Enable
 2663              	.L181:
 427:Generated_Source\PSoC6\pdl\drivers\peripheral\scb/cy_scb_spi.c ****         }
 2664              		.loc 3 427 0
 2665 012e 0023     		movs	r3, #0
 2666 0130 7B61     		str	r3, [r7, #20]
 429:Generated_Source\PSoC6\pdl\drivers\peripheral\scb/cy_scb_spi.c **** 
ARM GAS  C:\Users\salaz\AppData\Local\Temp\ccynHHO7.s 			page 113


 2667              		.loc 3 429 0
 2668 0132 00E0     		b	.L177
 2669              	.L183:
 354:Generated_Source\PSoC6\pdl\drivers\peripheral\scb/cy_scb_spi.c **** 
 2670              		.loc 3 354 0
 2671 0134 C046     		nop
 2672              	.L177:
 433:Generated_Source\PSoC6\pdl\drivers\peripheral\scb/cy_scb_spi.c ****     }
 434:Generated_Source\PSoC6\pdl\drivers\peripheral\scb/cy_scb_spi.c **** 
 435:Generated_Source\PSoC6\pdl\drivers\peripheral\scb/cy_scb_spi.c ****     return (retStatus);
 2673              		.loc 3 435 0
 2674 0136 7B69     		ldr	r3, [r7, #20]
 436:Generated_Source\PSoC6\pdl\drivers\peripheral\scb/cy_scb_spi.c **** }
 2675              		.loc 3 436 0
 2676 0138 1800     		movs	r0, r3
 2677 013a BD46     		mov	sp, r7
 2678 013c 06B0     		add	sp, sp, #24
 2679              		@ sp needed
 2680 013e 80BD     		pop	{r7, pc}
 2681              	.L185:
 2682              		.align	2
 2683              	.L184:
 2684 0140 FF004200 		.word	4325631
 2685              		.cfi_endproc
 2686              	.LFE146:
 2687              		.size	Cy_SCB_SPI_DeepSleepCallback, .-Cy_SCB_SPI_DeepSleepCallback
 2688              		.section	.text.Cy_SCB_SPI_HibernateCallback,"ax",%progbits
 2689              		.align	2
 2690              		.global	Cy_SCB_SPI_HibernateCallback
 2691              		.code	16
 2692              		.thumb_func
 2693              		.type	Cy_SCB_SPI_HibernateCallback, %function
 2694              	Cy_SCB_SPI_HibernateCallback:
 2695              	.LFB147:
 437:Generated_Source\PSoC6\pdl\drivers\peripheral\scb/cy_scb_spi.c **** 
 438:Generated_Source\PSoC6\pdl\drivers\peripheral\scb/cy_scb_spi.c **** 
 439:Generated_Source\PSoC6\pdl\drivers\peripheral\scb/cy_scb_spi.c **** /*******************************************************************************
 440:Generated_Source\PSoC6\pdl\drivers\peripheral\scb/cy_scb_spi.c **** * Function Name: Cy_SCB_SPI_HibernateCallback
 441:Generated_Source\PSoC6\pdl\drivers\peripheral\scb/cy_scb_spi.c **** ****************************************************************************//**
 442:Generated_Source\PSoC6\pdl\drivers\peripheral\scb/cy_scb_spi.c **** *
 443:Generated_Source\PSoC6\pdl\drivers\peripheral\scb/cy_scb_spi.c **** * This function handles the transition of the SCB SPI into Hibernate mode.
 444:Generated_Source\PSoC6\pdl\drivers\peripheral\scb/cy_scb_spi.c **** * It prevents the device from entering Hibernate mode if the SPI slave or 
 445:Generated_Source\PSoC6\pdl\drivers\peripheral\scb/cy_scb_spi.c **** * master is actively communicating, or there is any data in the TX or RX FIFOs.
 446:Generated_Source\PSoC6\pdl\drivers\peripheral\scb/cy_scb_spi.c **** * If the SPI is ready to enter Hibernate mode, it is disabled. If the device
 447:Generated_Source\PSoC6\pdl\drivers\peripheral\scb/cy_scb_spi.c **** * failed to enter Hibernate mode, the SPI is enabled. While the SPI is
 448:Generated_Source\PSoC6\pdl\drivers\peripheral\scb/cy_scb_spi.c **** * disabled, it stops driving the outputs and ignores the inputs.
 449:Generated_Source\PSoC6\pdl\drivers\peripheral\scb/cy_scb_spi.c **** * Any incoming data is ignored.
 450:Generated_Source\PSoC6\pdl\drivers\peripheral\scb/cy_scb_spi.c **** *
 451:Generated_Source\PSoC6\pdl\drivers\peripheral\scb/cy_scb_spi.c **** * This function must be called during execution of \ref Cy_SysPm_Hibernate.
 452:Generated_Source\PSoC6\pdl\drivers\peripheral\scb/cy_scb_spi.c **** * To do it, register this function as a callback before calling
 453:Generated_Source\PSoC6\pdl\drivers\peripheral\scb/cy_scb_spi.c **** * \ref Cy_SysPm_Hibernate : specify \ref CY_SYSPM_HIBERNATE as the callback
 454:Generated_Source\PSoC6\pdl\drivers\peripheral\scb/cy_scb_spi.c **** * type and call \ref Cy_SysPm_RegisterCallback.
 455:Generated_Source\PSoC6\pdl\drivers\peripheral\scb/cy_scb_spi.c **** *
 456:Generated_Source\PSoC6\pdl\drivers\peripheral\scb/cy_scb_spi.c **** * \param callbackParams
 457:Generated_Source\PSoC6\pdl\drivers\peripheral\scb/cy_scb_spi.c **** * The pointer to the callback parameters structure
 458:Generated_Source\PSoC6\pdl\drivers\peripheral\scb/cy_scb_spi.c **** * \ref cy_stc_syspm_callback_params_t.
 459:Generated_Source\PSoC6\pdl\drivers\peripheral\scb/cy_scb_spi.c **** *
ARM GAS  C:\Users\salaz\AppData\Local\Temp\ccynHHO7.s 			page 114


 460:Generated_Source\PSoC6\pdl\drivers\peripheral\scb/cy_scb_spi.c **** * \return
 461:Generated_Source\PSoC6\pdl\drivers\peripheral\scb/cy_scb_spi.c **** * \ref cy_en_syspm_status_t
 462:Generated_Source\PSoC6\pdl\drivers\peripheral\scb/cy_scb_spi.c **** *
 463:Generated_Source\PSoC6\pdl\drivers\peripheral\scb/cy_scb_spi.c **** *******************************************************************************/
 464:Generated_Source\PSoC6\pdl\drivers\peripheral\scb/cy_scb_spi.c **** cy_en_syspm_status_t Cy_SCB_SPI_HibernateCallback(cy_stc_syspm_callback_params_t *callbackParams)
 465:Generated_Source\PSoC6\pdl\drivers\peripheral\scb/cy_scb_spi.c **** {
 2696              		.loc 3 465 0
 2697              		.cfi_startproc
 2698              		@ args = 0, pretend = 0, frame = 24
 2699              		@ frame_needed = 1, uses_anonymous_args = 0
 2700 0000 80B5     		push	{r7, lr}
 2701              		.cfi_def_cfa_offset 8
 2702              		.cfi_offset 7, -8
 2703              		.cfi_offset 14, -4
 2704 0002 86B0     		sub	sp, sp, #24
 2705              		.cfi_def_cfa_offset 32
 2706 0004 00AF     		add	r7, sp, #0
 2707              		.cfi_def_cfa_register 7
 2708 0006 7860     		str	r0, [r7, #4]
 466:Generated_Source\PSoC6\pdl\drivers\peripheral\scb/cy_scb_spi.c ****     CySCB_Type *locBase = (CySCB_Type *) callbackParams->base;
 2709              		.loc 3 466 0
 2710 0008 7B68     		ldr	r3, [r7, #4]
 2711 000a 5B68     		ldr	r3, [r3, #4]
 2712 000c 3B61     		str	r3, [r7, #16]
 467:Generated_Source\PSoC6\pdl\drivers\peripheral\scb/cy_scb_spi.c ****     cy_stc_scb_spi_context_t *locContext = (cy_stc_scb_spi_context_t *) callbackParams->context;
 2713              		.loc 3 467 0
 2714 000e 7B68     		ldr	r3, [r7, #4]
 2715 0010 9B68     		ldr	r3, [r3, #8]
 2716 0012 FB60     		str	r3, [r7, #12]
 468:Generated_Source\PSoC6\pdl\drivers\peripheral\scb/cy_scb_spi.c **** 
 469:Generated_Source\PSoC6\pdl\drivers\peripheral\scb/cy_scb_spi.c ****     cy_en_syspm_status_t  retStatus = CY_SYSPM_FAIL;
 2717              		.loc 3 469 0
 2718 0014 244B     		ldr	r3, .L196
 2719 0016 7B61     		str	r3, [r7, #20]
 470:Generated_Source\PSoC6\pdl\drivers\peripheral\scb/cy_scb_spi.c **** 
 471:Generated_Source\PSoC6\pdl\drivers\peripheral\scb/cy_scb_spi.c ****     switch(callbackParams->mode)
 2720              		.loc 3 471 0
 2721 0018 7B68     		ldr	r3, [r7, #4]
 2722 001a 1B78     		ldrb	r3, [r3]
 2723 001c 022B     		cmp	r3, #2
 2724 001e 32D0     		beq	.L188
 2725 0020 02DC     		bgt	.L189
 2726 0022 012B     		cmp	r3, #1
 2727 0024 05D0     		beq	.L190
 472:Generated_Source\PSoC6\pdl\drivers\peripheral\scb/cy_scb_spi.c ****     {
 473:Generated_Source\PSoC6\pdl\drivers\peripheral\scb/cy_scb_spi.c ****         case CY_SYSPM_CHECK_READY:
 474:Generated_Source\PSoC6\pdl\drivers\peripheral\scb/cy_scb_spi.c ****         {
 475:Generated_Source\PSoC6\pdl\drivers\peripheral\scb/cy_scb_spi.c ****             /* Check whether the High-level API is not busy executing the transfer
 476:Generated_Source\PSoC6\pdl\drivers\peripheral\scb/cy_scb_spi.c ****             * operation.
 477:Generated_Source\PSoC6\pdl\drivers\peripheral\scb/cy_scb_spi.c ****             */
 478:Generated_Source\PSoC6\pdl\drivers\peripheral\scb/cy_scb_spi.c ****             if (0UL == (CY_SCB_SPI_TRANSFER_ACTIVE & Cy_SCB_SPI_GetTransferStatus(locBase, locConte
 479:Generated_Source\PSoC6\pdl\drivers\peripheral\scb/cy_scb_spi.c ****             {
 480:Generated_Source\PSoC6\pdl\drivers\peripheral\scb/cy_scb_spi.c ****                 /* If the SPI bus is not busy, all data elements are transferred
 481:Generated_Source\PSoC6\pdl\drivers\peripheral\scb/cy_scb_spi.c ****                 * on the bus from the TX FIFO and shifter and the RX FIFOs are
 482:Generated_Source\PSoC6\pdl\drivers\peripheral\scb/cy_scb_spi.c ****                 * empty - the SPI is ready to enter Hibernate mode.
 483:Generated_Source\PSoC6\pdl\drivers\peripheral\scb/cy_scb_spi.c ****                 */
 484:Generated_Source\PSoC6\pdl\drivers\peripheral\scb/cy_scb_spi.c ****                 if (!Cy_SCB_SPI_IsBusBusy(locBase))
ARM GAS  C:\Users\salaz\AppData\Local\Temp\ccynHHO7.s 			page 115


 485:Generated_Source\PSoC6\pdl\drivers\peripheral\scb/cy_scb_spi.c ****                 {
 486:Generated_Source\PSoC6\pdl\drivers\peripheral\scb/cy_scb_spi.c ****                     if (Cy_SCB_SPI_IsTxComplete(locBase))
 487:Generated_Source\PSoC6\pdl\drivers\peripheral\scb/cy_scb_spi.c ****                     {
 488:Generated_Source\PSoC6\pdl\drivers\peripheral\scb/cy_scb_spi.c ****                         if (0UL == Cy_SCB_SPI_GetNumInRxFifo(locBase))
 489:Generated_Source\PSoC6\pdl\drivers\peripheral\scb/cy_scb_spi.c ****                         {
 490:Generated_Source\PSoC6\pdl\drivers\peripheral\scb/cy_scb_spi.c ****                             /* Disable the SPI. The master or slave stops
 491:Generated_Source\PSoC6\pdl\drivers\peripheral\scb/cy_scb_spi.c ****                             * driving the bus until the SPI is enabled.
 492:Generated_Source\PSoC6\pdl\drivers\peripheral\scb/cy_scb_spi.c ****                             * This happens if the device failed to enter
 493:Generated_Source\PSoC6\pdl\drivers\peripheral\scb/cy_scb_spi.c ****                             * Hibernate mode.
 494:Generated_Source\PSoC6\pdl\drivers\peripheral\scb/cy_scb_spi.c ****                             */
 495:Generated_Source\PSoC6\pdl\drivers\peripheral\scb/cy_scb_spi.c ****                             Cy_SCB_SPI_Disable(locBase, locContext);
 496:Generated_Source\PSoC6\pdl\drivers\peripheral\scb/cy_scb_spi.c **** 
 497:Generated_Source\PSoC6\pdl\drivers\peripheral\scb/cy_scb_spi.c ****                             retStatus = CY_SYSPM_SUCCESS;
 498:Generated_Source\PSoC6\pdl\drivers\peripheral\scb/cy_scb_spi.c ****                         }
 499:Generated_Source\PSoC6\pdl\drivers\peripheral\scb/cy_scb_spi.c ****                     }
 500:Generated_Source\PSoC6\pdl\drivers\peripheral\scb/cy_scb_spi.c ****                 }
 501:Generated_Source\PSoC6\pdl\drivers\peripheral\scb/cy_scb_spi.c ****             }
 502:Generated_Source\PSoC6\pdl\drivers\peripheral\scb/cy_scb_spi.c ****         }
 503:Generated_Source\PSoC6\pdl\drivers\peripheral\scb/cy_scb_spi.c ****         break;
 504:Generated_Source\PSoC6\pdl\drivers\peripheral\scb/cy_scb_spi.c **** 
 505:Generated_Source\PSoC6\pdl\drivers\peripheral\scb/cy_scb_spi.c ****         case CY_SYSPM_CHECK_FAIL:
 506:Generated_Source\PSoC6\pdl\drivers\peripheral\scb/cy_scb_spi.c ****         {
 507:Generated_Source\PSoC6\pdl\drivers\peripheral\scb/cy_scb_spi.c ****             /* The other driver is not ready for Hibernate mode. Restore Active
 508:Generated_Source\PSoC6\pdl\drivers\peripheral\scb/cy_scb_spi.c ****             * mode configuration.
 509:Generated_Source\PSoC6\pdl\drivers\peripheral\scb/cy_scb_spi.c ****             */
 510:Generated_Source\PSoC6\pdl\drivers\peripheral\scb/cy_scb_spi.c **** 
 511:Generated_Source\PSoC6\pdl\drivers\peripheral\scb/cy_scb_spi.c ****             /* Enable the SPI to operate */
 512:Generated_Source\PSoC6\pdl\drivers\peripheral\scb/cy_scb_spi.c ****             Cy_SCB_SPI_Enable(locBase);
 513:Generated_Source\PSoC6\pdl\drivers\peripheral\scb/cy_scb_spi.c **** 
 514:Generated_Source\PSoC6\pdl\drivers\peripheral\scb/cy_scb_spi.c ****             retStatus = CY_SYSPM_SUCCESS;
 515:Generated_Source\PSoC6\pdl\drivers\peripheral\scb/cy_scb_spi.c ****         }
 516:Generated_Source\PSoC6\pdl\drivers\peripheral\scb/cy_scb_spi.c ****         break;
 517:Generated_Source\PSoC6\pdl\drivers\peripheral\scb/cy_scb_spi.c **** 
 518:Generated_Source\PSoC6\pdl\drivers\peripheral\scb/cy_scb_spi.c ****         case CY_SYSPM_BEFORE_TRANSITION:
 519:Generated_Source\PSoC6\pdl\drivers\peripheral\scb/cy_scb_spi.c ****         case CY_SYSPM_AFTER_TRANSITION:
 520:Generated_Source\PSoC6\pdl\drivers\peripheral\scb/cy_scb_spi.c ****         {
 521:Generated_Source\PSoC6\pdl\drivers\peripheral\scb/cy_scb_spi.c ****             /* The SCB is not capable of waking up from Hibernate mode:
 522:Generated_Source\PSoC6\pdl\drivers\peripheral\scb/cy_scb_spi.c ****             * do nothing.
 523:Generated_Source\PSoC6\pdl\drivers\peripheral\scb/cy_scb_spi.c ****             */
 524:Generated_Source\PSoC6\pdl\drivers\peripheral\scb/cy_scb_spi.c ****             retStatus = CY_SYSPM_SUCCESS;
 525:Generated_Source\PSoC6\pdl\drivers\peripheral\scb/cy_scb_spi.c ****         }
 526:Generated_Source\PSoC6\pdl\drivers\peripheral\scb/cy_scb_spi.c ****         break;
 527:Generated_Source\PSoC6\pdl\drivers\peripheral\scb/cy_scb_spi.c **** 
 528:Generated_Source\PSoC6\pdl\drivers\peripheral\scb/cy_scb_spi.c ****         default:
 529:Generated_Source\PSoC6\pdl\drivers\peripheral\scb/cy_scb_spi.c ****             break;
 2728              		.loc 3 529 0
 2729 0026 39E0     		b	.L193
 2730              	.L189:
 471:Generated_Source\PSoC6\pdl\drivers\peripheral\scb/cy_scb_spi.c ****     {
 2731              		.loc 3 471 0
 2732 0028 042B     		cmp	r3, #4
 2733 002a 33D0     		beq	.L191
 2734 002c 082B     		cmp	r3, #8
 2735 002e 31D0     		beq	.L191
 2736              		.loc 3 529 0
 2737 0030 34E0     		b	.L193
 2738              	.L190:
ARM GAS  C:\Users\salaz\AppData\Local\Temp\ccynHHO7.s 			page 116


 478:Generated_Source\PSoC6\pdl\drivers\peripheral\scb/cy_scb_spi.c ****             {
 2739              		.loc 3 478 0
 2740 0032 FA68     		ldr	r2, [r7, #12]
 2741 0034 3B69     		ldr	r3, [r7, #16]
 2742 0036 1100     		movs	r1, r2
 2743 0038 1800     		movs	r0, r3
 2744 003a FFF7FEFF 		bl	Cy_SCB_SPI_GetTransferStatus
 2745 003e 0200     		movs	r2, r0
 2746 0040 0123     		movs	r3, #1
 2747 0042 1340     		ands	r3, r2
 2748 0044 29D1     		bne	.L195
 484:Generated_Source\PSoC6\pdl\drivers\peripheral\scb/cy_scb_spi.c ****                 {
 2749              		.loc 3 484 0
 2750 0046 3B69     		ldr	r3, [r7, #16]
 2751 0048 1800     		movs	r0, r3
 2752 004a FFF7FEFF 		bl	Cy_SCB_SPI_IsBusBusy
 2753 004e 0300     		movs	r3, r0
 2754 0050 1A00     		movs	r2, r3
 2755 0052 0123     		movs	r3, #1
 2756 0054 5340     		eors	r3, r2
 2757 0056 DBB2     		uxtb	r3, r3
 2758 0058 002B     		cmp	r3, #0
 2759 005a 1ED0     		beq	.L195
 486:Generated_Source\PSoC6\pdl\drivers\peripheral\scb/cy_scb_spi.c ****                     {
 2760              		.loc 3 486 0
 2761 005c 3B69     		ldr	r3, [r7, #16]
 2762 005e 1800     		movs	r0, r3
 2763 0060 FFF7FEFF 		bl	Cy_SCB_SPI_IsTxComplete
 2764 0064 031E     		subs	r3, r0, #0
 2765 0066 18D0     		beq	.L195
 488:Generated_Source\PSoC6\pdl\drivers\peripheral\scb/cy_scb_spi.c ****                         {
 2766              		.loc 3 488 0
 2767 0068 3B69     		ldr	r3, [r7, #16]
 2768 006a 1800     		movs	r0, r3
 2769 006c FFF7FEFF 		bl	Cy_SCB_SPI_GetNumInRxFifo
 2770 0070 031E     		subs	r3, r0, #0
 2771 0072 12D1     		bne	.L195
 495:Generated_Source\PSoC6\pdl\drivers\peripheral\scb/cy_scb_spi.c **** 
 2772              		.loc 3 495 0
 2773 0074 FA68     		ldr	r2, [r7, #12]
 2774 0076 3B69     		ldr	r3, [r7, #16]
 2775 0078 1100     		movs	r1, r2
 2776 007a 1800     		movs	r0, r3
 2777 007c FFF7FEFF 		bl	Cy_SCB_SPI_Disable
 497:Generated_Source\PSoC6\pdl\drivers\peripheral\scb/cy_scb_spi.c ****                         }
 2778              		.loc 3 497 0
 2779 0080 0023     		movs	r3, #0
 2780 0082 7B61     		str	r3, [r7, #20]
 503:Generated_Source\PSoC6\pdl\drivers\peripheral\scb/cy_scb_spi.c **** 
 2781              		.loc 3 503 0
 2782 0084 09E0     		b	.L195
 2783              	.L188:
 512:Generated_Source\PSoC6\pdl\drivers\peripheral\scb/cy_scb_spi.c **** 
 2784              		.loc 3 512 0
 2785 0086 3B69     		ldr	r3, [r7, #16]
 2786 0088 1800     		movs	r0, r3
 2787 008a FFF7FEFF 		bl	Cy_SCB_SPI_Enable
ARM GAS  C:\Users\salaz\AppData\Local\Temp\ccynHHO7.s 			page 117


 514:Generated_Source\PSoC6\pdl\drivers\peripheral\scb/cy_scb_spi.c ****         }
 2788              		.loc 3 514 0
 2789 008e 0023     		movs	r3, #0
 2790 0090 7B61     		str	r3, [r7, #20]
 516:Generated_Source\PSoC6\pdl\drivers\peripheral\scb/cy_scb_spi.c **** 
 2791              		.loc 3 516 0
 2792 0092 03E0     		b	.L193
 2793              	.L191:
 524:Generated_Source\PSoC6\pdl\drivers\peripheral\scb/cy_scb_spi.c ****         }
 2794              		.loc 3 524 0
 2795 0094 0023     		movs	r3, #0
 2796 0096 7B61     		str	r3, [r7, #20]
 526:Generated_Source\PSoC6\pdl\drivers\peripheral\scb/cy_scb_spi.c **** 
 2797              		.loc 3 526 0
 2798 0098 00E0     		b	.L193
 2799              	.L195:
 503:Generated_Source\PSoC6\pdl\drivers\peripheral\scb/cy_scb_spi.c **** 
 2800              		.loc 3 503 0
 2801 009a C046     		nop
 2802              	.L193:
 530:Generated_Source\PSoC6\pdl\drivers\peripheral\scb/cy_scb_spi.c ****     }
 531:Generated_Source\PSoC6\pdl\drivers\peripheral\scb/cy_scb_spi.c **** 
 532:Generated_Source\PSoC6\pdl\drivers\peripheral\scb/cy_scb_spi.c ****     return (retStatus);
 2803              		.loc 3 532 0
 2804 009c 7B69     		ldr	r3, [r7, #20]
 533:Generated_Source\PSoC6\pdl\drivers\peripheral\scb/cy_scb_spi.c **** }
 2805              		.loc 3 533 0
 2806 009e 1800     		movs	r0, r3
 2807 00a0 BD46     		mov	sp, r7
 2808 00a2 06B0     		add	sp, sp, #24
 2809              		@ sp needed
 2810 00a4 80BD     		pop	{r7, pc}
 2811              	.L197:
 2812 00a6 C046     		.align	2
 2813              	.L196:
 2814 00a8 FF004200 		.word	4325631
 2815              		.cfi_endproc
 2816              	.LFE147:
 2817              		.size	Cy_SCB_SPI_HibernateCallback, .-Cy_SCB_SPI_HibernateCallback
 2818              		.section	.text.Cy_SCB_SPI_Transfer,"ax",%progbits
 2819              		.align	2
 2820              		.global	Cy_SCB_SPI_Transfer
 2821              		.code	16
 2822              		.thumb_func
 2823              		.type	Cy_SCB_SPI_Transfer, %function
 2824              	Cy_SCB_SPI_Transfer:
 2825              	.LFB148:
 534:Generated_Source\PSoC6\pdl\drivers\peripheral\scb/cy_scb_spi.c **** 
 535:Generated_Source\PSoC6\pdl\drivers\peripheral\scb/cy_scb_spi.c **** 
 536:Generated_Source\PSoC6\pdl\drivers\peripheral\scb/cy_scb_spi.c **** /************************* High-Level Functions ********************************
 537:Generated_Source\PSoC6\pdl\drivers\peripheral\scb/cy_scb_spi.c **** * The following functions are considered high-level. They provide the layer of
 538:Generated_Source\PSoC6\pdl\drivers\peripheral\scb/cy_scb_spi.c **** * intelligence to the SCB. These functions require interrupts.
 539:Generated_Source\PSoC6\pdl\drivers\peripheral\scb/cy_scb_spi.c **** * Low-level and high-level functions must not be mixed because low-level API
 540:Generated_Source\PSoC6\pdl\drivers\peripheral\scb/cy_scb_spi.c **** * can adversely affect the operation of high-level functions.
 541:Generated_Source\PSoC6\pdl\drivers\peripheral\scb/cy_scb_spi.c **** *******************************************************************************/
 542:Generated_Source\PSoC6\pdl\drivers\peripheral\scb/cy_scb_spi.c **** 
 543:Generated_Source\PSoC6\pdl\drivers\peripheral\scb/cy_scb_spi.c **** 
ARM GAS  C:\Users\salaz\AppData\Local\Temp\ccynHHO7.s 			page 118


 544:Generated_Source\PSoC6\pdl\drivers\peripheral\scb/cy_scb_spi.c **** /*******************************************************************************
 545:Generated_Source\PSoC6\pdl\drivers\peripheral\scb/cy_scb_spi.c **** * Function Name: Cy_SCB_SPI_Transfer
 546:Generated_Source\PSoC6\pdl\drivers\peripheral\scb/cy_scb_spi.c **** ****************************************************************************//**
 547:Generated_Source\PSoC6\pdl\drivers\peripheral\scb/cy_scb_spi.c **** *
 548:Generated_Source\PSoC6\pdl\drivers\peripheral\scb/cy_scb_spi.c **** * This function starts an SPI transfer operation.
 549:Generated_Source\PSoC6\pdl\drivers\peripheral\scb/cy_scb_spi.c **** * It configures transmit and receive buffers for an SPI transfer.
 550:Generated_Source\PSoC6\pdl\drivers\peripheral\scb/cy_scb_spi.c **** * If the data that will be received is not important, pass NULL as rxBuffer.
 551:Generated_Source\PSoC6\pdl\drivers\peripheral\scb/cy_scb_spi.c **** * If the data that will be transmitted is not important, pass NULL as txBuffer
 552:Generated_Source\PSoC6\pdl\drivers\peripheral\scb/cy_scb_spi.c **** * and then the \ref CY_SCB_SPI_DEFAULT_TX is sent out as each data element.
 553:Generated_Source\PSoC6\pdl\drivers\peripheral\scb/cy_scb_spi.c **** * Note that passing NULL as rxBuffer and txBuffer are considered invalid cases.
 554:Generated_Source\PSoC6\pdl\drivers\peripheral\scb/cy_scb_spi.c **** *
 555:Generated_Source\PSoC6\pdl\drivers\peripheral\scb/cy_scb_spi.c **** * After the function configures TX and RX interrupt sources, it returns and
 556:Generated_Source\PSoC6\pdl\drivers\peripheral\scb/cy_scb_spi.c **** * \ref Cy_SCB_SPI_Interrupt manages further data transfer.
 557:Generated_Source\PSoC6\pdl\drivers\peripheral\scb/cy_scb_spi.c **** *
 558:Generated_Source\PSoC6\pdl\drivers\peripheral\scb/cy_scb_spi.c **** * * In the master mode, the transfer operation starts after calling this
 559:Generated_Source\PSoC6\pdl\drivers\peripheral\scb/cy_scb_spi.c **** *   function
 560:Generated_Source\PSoC6\pdl\drivers\peripheral\scb/cy_scb_spi.c **** * * In the slave mode, the transfer registers and will start when
 561:Generated_Source\PSoC6\pdl\drivers\peripheral\scb/cy_scb_spi.c **** *   the master request arrives.
 562:Generated_Source\PSoC6\pdl\drivers\peripheral\scb/cy_scb_spi.c **** *
 563:Generated_Source\PSoC6\pdl\drivers\peripheral\scb/cy_scb_spi.c **** * When the transfer operation is completed (requested number of data elements
 564:Generated_Source\PSoC6\pdl\drivers\peripheral\scb/cy_scb_spi.c **** * sent and received), the \ref CY_SCB_SPI_TRANSFER_ACTIVE status is cleared
 565:Generated_Source\PSoC6\pdl\drivers\peripheral\scb/cy_scb_spi.c **** * and the \ref CY_SCB_SPI_TRANSFER_CMPLT_EVENT event is generated.
 566:Generated_Source\PSoC6\pdl\drivers\peripheral\scb/cy_scb_spi.c **** *
 567:Generated_Source\PSoC6\pdl\drivers\peripheral\scb/cy_scb_spi.c **** * \param base
 568:Generated_Source\PSoC6\pdl\drivers\peripheral\scb/cy_scb_spi.c **** * The pointer to the SPI SCB instance.
 569:Generated_Source\PSoC6\pdl\drivers\peripheral\scb/cy_scb_spi.c **** *
 570:Generated_Source\PSoC6\pdl\drivers\peripheral\scb/cy_scb_spi.c **** * \param txBuffer
 571:Generated_Source\PSoC6\pdl\drivers\peripheral\scb/cy_scb_spi.c **** * The pointer of the buffer with data to transmit.
 572:Generated_Source\PSoC6\pdl\drivers\peripheral\scb/cy_scb_spi.c **** * The item size is defined by the data type that depends on the configured
 573:Generated_Source\PSoC6\pdl\drivers\peripheral\scb/cy_scb_spi.c **** * TX data width.
 574:Generated_Source\PSoC6\pdl\drivers\peripheral\scb/cy_scb_spi.c **** *
 575:Generated_Source\PSoC6\pdl\drivers\peripheral\scb/cy_scb_spi.c **** * \param rxBuffer
 576:Generated_Source\PSoC6\pdl\drivers\peripheral\scb/cy_scb_spi.c **** * The pointer to the buffer to store received data.
 577:Generated_Source\PSoC6\pdl\drivers\peripheral\scb/cy_scb_spi.c **** * The item size is defined by the data type that depends on the configured
 578:Generated_Source\PSoC6\pdl\drivers\peripheral\scb/cy_scb_spi.c **** * RX data width.
 579:Generated_Source\PSoC6\pdl\drivers\peripheral\scb/cy_scb_spi.c **** *
 580:Generated_Source\PSoC6\pdl\drivers\peripheral\scb/cy_scb_spi.c **** * \param size
 581:Generated_Source\PSoC6\pdl\drivers\peripheral\scb/cy_scb_spi.c **** * The number of data elements to transmit and receive.
 582:Generated_Source\PSoC6\pdl\drivers\peripheral\scb/cy_scb_spi.c **** *
 583:Generated_Source\PSoC6\pdl\drivers\peripheral\scb/cy_scb_spi.c **** * \param context
 584:Generated_Source\PSoC6\pdl\drivers\peripheral\scb/cy_scb_spi.c **** * The pointer to the context structure \ref cy_stc_scb_spi_context_t allocated
 585:Generated_Source\PSoC6\pdl\drivers\peripheral\scb/cy_scb_spi.c **** * by the user. The structure is used during the SPI operation for internal
 586:Generated_Source\PSoC6\pdl\drivers\peripheral\scb/cy_scb_spi.c **** * configuration and data retention. The user must not modify anything
 587:Generated_Source\PSoC6\pdl\drivers\peripheral\scb/cy_scb_spi.c **** * in this structure.
 588:Generated_Source\PSoC6\pdl\drivers\peripheral\scb/cy_scb_spi.c **** *
 589:Generated_Source\PSoC6\pdl\drivers\peripheral\scb/cy_scb_spi.c **** * \return
 590:Generated_Source\PSoC6\pdl\drivers\peripheral\scb/cy_scb_spi.c **** * \ref cy_en_scb_spi_status_t
 591:Generated_Source\PSoC6\pdl\drivers\peripheral\scb/cy_scb_spi.c **** *
 592:Generated_Source\PSoC6\pdl\drivers\peripheral\scb/cy_scb_spi.c **** * \note
 593:Generated_Source\PSoC6\pdl\drivers\peripheral\scb/cy_scb_spi.c **** * * The buffers must not be modified and must stay allocated until the end of the
 594:Generated_Source\PSoC6\pdl\drivers\peripheral\scb/cy_scb_spi.c **** *   transfer.
 595:Generated_Source\PSoC6\pdl\drivers\peripheral\scb/cy_scb_spi.c **** * * This function overrides all RX and TX FIFO interrupt sources and changes
 596:Generated_Source\PSoC6\pdl\drivers\peripheral\scb/cy_scb_spi.c **** *   the RX and TX FIFO level.
 597:Generated_Source\PSoC6\pdl\drivers\peripheral\scb/cy_scb_spi.c **** *
 598:Generated_Source\PSoC6\pdl\drivers\peripheral\scb/cy_scb_spi.c **** *******************************************************************************/
 599:Generated_Source\PSoC6\pdl\drivers\peripheral\scb/cy_scb_spi.c **** cy_en_scb_spi_status_t Cy_SCB_SPI_Transfer(CySCB_Type *base, void *txBuffer, void *rxBuffer, uint32
 600:Generated_Source\PSoC6\pdl\drivers\peripheral\scb/cy_scb_spi.c ****                                            cy_stc_scb_spi_context_t *context)
ARM GAS  C:\Users\salaz\AppData\Local\Temp\ccynHHO7.s 			page 119


 601:Generated_Source\PSoC6\pdl\drivers\peripheral\scb/cy_scb_spi.c **** {
 2826              		.loc 3 601 0
 2827              		.cfi_startproc
 2828              		@ args = 4, pretend = 0, frame = 24
 2829              		@ frame_needed = 1, uses_anonymous_args = 0
 2830 0000 80B5     		push	{r7, lr}
 2831              		.cfi_def_cfa_offset 8
 2832              		.cfi_offset 7, -8
 2833              		.cfi_offset 14, -4
 2834 0002 86B0     		sub	sp, sp, #24
 2835              		.cfi_def_cfa_offset 32
 2836 0004 00AF     		add	r7, sp, #0
 2837              		.cfi_def_cfa_register 7
 2838 0006 F860     		str	r0, [r7, #12]
 2839 0008 B960     		str	r1, [r7, #8]
 2840 000a 7A60     		str	r2, [r7, #4]
 2841 000c 3B60     		str	r3, [r7]
 602:Generated_Source\PSoC6\pdl\drivers\peripheral\scb/cy_scb_spi.c ****     CY_ASSERT_L1(NULL != context);
 2842              		.loc 3 602 0
 2843 000e 3B6A     		ldr	r3, [r7, #32]
 2844 0010 002B     		cmp	r3, #0
 2845 0012 05D1     		bne	.L199
 2846              		.loc 3 602 0 is_stmt 0 discriminator 1
 2847 0014 4C4A     		ldr	r2, .L213
 2848 0016 4D4B     		ldr	r3, .L213+4
 2849 0018 1100     		movs	r1, r2
 2850 001a 1800     		movs	r0, r3
 2851 001c FFF7FEFF 		bl	Cy_SysLib_AssertFailed
 2852              	.L199:
 603:Generated_Source\PSoC6\pdl\drivers\peripheral\scb/cy_scb_spi.c ****     CY_ASSERT_L1(CY_SCB_SPI_INIT_KEY == context->initKey);
 2853              		.loc 3 603 0 is_stmt 1
 2854 0020 3B6A     		ldr	r3, [r7, #32]
 2855 0022 1B6A     		ldr	r3, [r3, #32]
 2856 0024 4A4A     		ldr	r2, .L213+8
 2857 0026 9342     		cmp	r3, r2
 2858 0028 05D0     		beq	.L200
 2859              		.loc 3 603 0 is_stmt 0 discriminator 1
 2860 002a 4A4A     		ldr	r2, .L213+12
 2861 002c 474B     		ldr	r3, .L213+4
 2862 002e 1100     		movs	r1, r2
 2863 0030 1800     		movs	r0, r3
 2864 0032 FFF7FEFF 		bl	Cy_SysLib_AssertFailed
 2865              	.L200:
 604:Generated_Source\PSoC6\pdl\drivers\peripheral\scb/cy_scb_spi.c ****     CY_ASSERT_L1(CY_SCB_SPI_IS_BUFFER_VALID(txBuffer, rxBuffer, size));
 2866              		.loc 3 604 0 is_stmt 1
 2867 0036 3B68     		ldr	r3, [r7]
 2868 0038 002B     		cmp	r3, #0
 2869 003a 0AD0     		beq	.L201
 2870              		.loc 3 604 0 is_stmt 0 discriminator 2
 2871 003c BB68     		ldr	r3, [r7, #8]
 2872 003e 002B     		cmp	r3, #0
 2873 0040 04D1     		bne	.L202
 2874              		.loc 3 604 0 discriminator 3
 2875 0042 7B68     		ldr	r3, [r7, #4]
 2876 0044 002B     		cmp	r3, #0
 2877 0046 01D1     		bne	.L202
 2878              		.loc 3 604 0 discriminator 5
ARM GAS  C:\Users\salaz\AppData\Local\Temp\ccynHHO7.s 			page 120


 2879 0048 0123     		movs	r3, #1
 2880 004a 00E0     		b	.L203
 2881              	.L202:
 2882              		.loc 3 604 0 discriminator 6
 2883 004c 0023     		movs	r3, #0
 2884              	.L203:
 2885              		.loc 3 604 0 discriminator 8
 2886 004e 002B     		cmp	r3, #0
 2887 0050 06D0     		beq	.L204
 2888              	.L201:
 2889              		.loc 3 604 0 discriminator 9
 2890 0052 9723     		movs	r3, #151
 2891 0054 9A00     		lsls	r2, r3, #2
 2892 0056 3D4B     		ldr	r3, .L213+4
 2893 0058 1100     		movs	r1, r2
 2894 005a 1800     		movs	r0, r3
 2895 005c FFF7FEFF 		bl	Cy_SysLib_AssertFailed
 2896              	.L204:
 605:Generated_Source\PSoC6\pdl\drivers\peripheral\scb/cy_scb_spi.c **** 
 606:Generated_Source\PSoC6\pdl\drivers\peripheral\scb/cy_scb_spi.c ****     cy_en_scb_spi_status_t retStatus = CY_SCB_SPI_TRANSFER_BUSY;
 2897              		.loc 3 606 0 is_stmt 1
 2898 0060 3D4B     		ldr	r3, .L213+16
 2899 0062 7B61     		str	r3, [r7, #20]
 607:Generated_Source\PSoC6\pdl\drivers\peripheral\scb/cy_scb_spi.c **** 
 608:Generated_Source\PSoC6\pdl\drivers\peripheral\scb/cy_scb_spi.c ****     /* Check whether there are no active transfer requests */
 609:Generated_Source\PSoC6\pdl\drivers\peripheral\scb/cy_scb_spi.c ****     if (0UL == (CY_SCB_SPI_TRANSFER_ACTIVE & context->status))
 2900              		.loc 3 609 0
 2901 0064 3B6A     		ldr	r3, [r7, #32]
 2902 0066 1B68     		ldr	r3, [r3]
 2903 0068 0122     		movs	r2, #1
 2904 006a 1340     		ands	r3, r2
 2905 006c 67D1     		bne	.L205
 2906              	.LBB2:
 610:Generated_Source\PSoC6\pdl\drivers\peripheral\scb/cy_scb_spi.c ****     {
 611:Generated_Source\PSoC6\pdl\drivers\peripheral\scb/cy_scb_spi.c ****         uint32_t fifoSize = Cy_SCB_GetFifoSize(base);
 2907              		.loc 3 611 0
 2908 006e FB68     		ldr	r3, [r7, #12]
 2909 0070 1800     		movs	r0, r3
 2910 0072 FFF7FEFF 		bl	Cy_SCB_GetFifoSize
 2911 0076 0300     		movs	r3, r0
 2912 0078 3B61     		str	r3, [r7, #16]
 612:Generated_Source\PSoC6\pdl\drivers\peripheral\scb/cy_scb_spi.c **** 
 613:Generated_Source\PSoC6\pdl\drivers\peripheral\scb/cy_scb_spi.c ****         /* Set up the context */
 614:Generated_Source\PSoC6\pdl\drivers\peripheral\scb/cy_scb_spi.c ****         context->status    = CY_SCB_SPI_TRANSFER_ACTIVE;
 2913              		.loc 3 614 0
 2914 007a 3B6A     		ldr	r3, [r7, #32]
 2915 007c 0122     		movs	r2, #1
 2916 007e 1A60     		str	r2, [r3]
 615:Generated_Source\PSoC6\pdl\drivers\peripheral\scb/cy_scb_spi.c **** 
 616:Generated_Source\PSoC6\pdl\drivers\peripheral\scb/cy_scb_spi.c ****         context->txBuf     = txBuffer;
 2917              		.loc 3 616 0
 2918 0080 3B6A     		ldr	r3, [r7, #32]
 2919 0082 BA68     		ldr	r2, [r7, #8]
 2920 0084 1A61     		str	r2, [r3, #16]
 617:Generated_Source\PSoC6\pdl\drivers\peripheral\scb/cy_scb_spi.c ****         context->txBufSize = size;
 2921              		.loc 3 617 0
 2922 0086 3B6A     		ldr	r3, [r7, #32]
ARM GAS  C:\Users\salaz\AppData\Local\Temp\ccynHHO7.s 			page 121


 2923 0088 3A68     		ldr	r2, [r7]
 2924 008a 5A61     		str	r2, [r3, #20]
 618:Generated_Source\PSoC6\pdl\drivers\peripheral\scb/cy_scb_spi.c ****         context->txBufIdx =  0UL;
 2925              		.loc 3 618 0
 2926 008c 3B6A     		ldr	r3, [r7, #32]
 2927 008e 0022     		movs	r2, #0
 2928 0090 9A61     		str	r2, [r3, #24]
 619:Generated_Source\PSoC6\pdl\drivers\peripheral\scb/cy_scb_spi.c **** 
 620:Generated_Source\PSoC6\pdl\drivers\peripheral\scb/cy_scb_spi.c ****         context->rxBuf     = rxBuffer;
 2929              		.loc 3 620 0
 2930 0092 3B6A     		ldr	r3, [r7, #32]
 2931 0094 7A68     		ldr	r2, [r7, #4]
 2932 0096 5A60     		str	r2, [r3, #4]
 621:Generated_Source\PSoC6\pdl\drivers\peripheral\scb/cy_scb_spi.c ****         context->rxBufSize = size;
 2933              		.loc 3 621 0
 2934 0098 3B6A     		ldr	r3, [r7, #32]
 2935 009a 3A68     		ldr	r2, [r7]
 2936 009c 9A60     		str	r2, [r3, #8]
 622:Generated_Source\PSoC6\pdl\drivers\peripheral\scb/cy_scb_spi.c ****         context->rxBufIdx  = 0UL;
 2937              		.loc 3 622 0
 2938 009e 3B6A     		ldr	r3, [r7, #32]
 2939 00a0 0022     		movs	r2, #0
 2940 00a2 DA60     		str	r2, [r3, #12]
 623:Generated_Source\PSoC6\pdl\drivers\peripheral\scb/cy_scb_spi.c **** 
 624:Generated_Source\PSoC6\pdl\drivers\peripheral\scb/cy_scb_spi.c ****         /* Set the TX interrupt when half of FIFO was transmitted */
 625:Generated_Source\PSoC6\pdl\drivers\peripheral\scb/cy_scb_spi.c ****         Cy_SCB_SetTxFifoLevel(base, fifoSize / 2UL);
 2941              		.loc 3 625 0
 2942 00a4 3B69     		ldr	r3, [r7, #16]
 2943 00a6 5A08     		lsrs	r2, r3, #1
 2944 00a8 FB68     		ldr	r3, [r7, #12]
 2945 00aa 1100     		movs	r1, r2
 2946 00ac 1800     		movs	r0, r3
 2947 00ae FFF7FEFF 		bl	Cy_SCB_SetTxFifoLevel
 626:Generated_Source\PSoC6\pdl\drivers\peripheral\scb/cy_scb_spi.c **** 
 627:Generated_Source\PSoC6\pdl\drivers\peripheral\scb/cy_scb_spi.c ****         if (_FLD2BOOL(SCB_SPI_CTRL_MASTER_MODE, base->SPI_CTRL))
 2948              		.loc 3 627 0
 2949 00b2 FB68     		ldr	r3, [r7, #12]
 2950 00b4 1B6A     		ldr	r3, [r3, #32]
 2951 00b6 002B     		cmp	r3, #0
 2952 00b8 1EDA     		bge	.L206
 628:Generated_Source\PSoC6\pdl\drivers\peripheral\scb/cy_scb_spi.c ****         {
 629:Generated_Source\PSoC6\pdl\drivers\peripheral\scb/cy_scb_spi.c ****             /* Trigger an RX interrupt:
 630:Generated_Source\PSoC6\pdl\drivers\peripheral\scb/cy_scb_spi.c ****             * - If the transfer size is equal to or less than FIFO, trigger at the end of the trans
 631:Generated_Source\PSoC6\pdl\drivers\peripheral\scb/cy_scb_spi.c ****             * - If the transfer size is greater than FIFO, trigger 1 byte earlier than the TX inter
 632:Generated_Source\PSoC6\pdl\drivers\peripheral\scb/cy_scb_spi.c ****             */
 633:Generated_Source\PSoC6\pdl\drivers\peripheral\scb/cy_scb_spi.c ****             Cy_SCB_SetRxFifoLevel(base, (size > fifoSize) ? ((fifoSize / 2UL) - 2UL) : (size - 1UL)
 2953              		.loc 3 633 0
 2954 00ba 3A68     		ldr	r2, [r7]
 2955 00bc 3B69     		ldr	r3, [r7, #16]
 2956 00be 9A42     		cmp	r2, r3
 2957 00c0 03D9     		bls	.L207
 2958              		.loc 3 633 0 is_stmt 0 discriminator 1
 2959 00c2 3B69     		ldr	r3, [r7, #16]
 2960 00c4 5B08     		lsrs	r3, r3, #1
 2961 00c6 023B     		subs	r3, r3, #2
 2962 00c8 01E0     		b	.L208
 2963              	.L207:
ARM GAS  C:\Users\salaz\AppData\Local\Temp\ccynHHO7.s 			page 122


 2964              		.loc 3 633 0 discriminator 2
 2965 00ca 3B68     		ldr	r3, [r7]
 2966 00cc 013B     		subs	r3, r3, #1
 2967              	.L208:
 2968              		.loc 3 633 0 discriminator 4
 2969 00ce FA68     		ldr	r2, [r7, #12]
 2970 00d0 1900     		movs	r1, r3
 2971 00d2 1000     		movs	r0, r2
 2972 00d4 FFF7FEFF 		bl	Cy_SCB_SetRxFifoLevel
 634:Generated_Source\PSoC6\pdl\drivers\peripheral\scb/cy_scb_spi.c **** 
 635:Generated_Source\PSoC6\pdl\drivers\peripheral\scb/cy_scb_spi.c ****             Cy_SCB_SetMasterInterruptMask(base, CY_SCB_CLEAR_ALL_INTR_SRC);
 2973              		.loc 3 635 0 is_stmt 1 discriminator 4
 2974 00d8 FB68     		ldr	r3, [r7, #12]
 2975 00da 0021     		movs	r1, #0
 2976 00dc 1800     		movs	r0, r3
 2977 00de FFF7FEFF 		bl	Cy_SCB_SetMasterInterruptMask
 636:Generated_Source\PSoC6\pdl\drivers\peripheral\scb/cy_scb_spi.c **** 
 637:Generated_Source\PSoC6\pdl\drivers\peripheral\scb/cy_scb_spi.c ****             /* Enable interrupt sources to perform a transfer */
 638:Generated_Source\PSoC6\pdl\drivers\peripheral\scb/cy_scb_spi.c ****             Cy_SCB_SetRxInterruptMask(base, CY_SCB_RX_INTR_LEVEL);
 2978              		.loc 3 638 0 discriminator 4
 2979 00e2 FB68     		ldr	r3, [r7, #12]
 2980 00e4 0121     		movs	r1, #1
 2981 00e6 1800     		movs	r0, r3
 2982 00e8 FFF7FEFF 		bl	Cy_SCB_SetRxInterruptMask
 639:Generated_Source\PSoC6\pdl\drivers\peripheral\scb/cy_scb_spi.c ****             Cy_SCB_SetTxInterruptMask(base, CY_SCB_TX_INTR_LEVEL);
 2983              		.loc 3 639 0 discriminator 4
 2984 00ec FB68     		ldr	r3, [r7, #12]
 2985 00ee 0121     		movs	r1, #1
 2986 00f0 1800     		movs	r0, r3
 2987 00f2 FFF7FEFF 		bl	Cy_SCB_SetTxInterruptMask
 2988 00f6 20E0     		b	.L209
 2989              	.L206:
 640:Generated_Source\PSoC6\pdl\drivers\peripheral\scb/cy_scb_spi.c ****         }
 641:Generated_Source\PSoC6\pdl\drivers\peripheral\scb/cy_scb_spi.c ****         else
 642:Generated_Source\PSoC6\pdl\drivers\peripheral\scb/cy_scb_spi.c ****         {
 643:Generated_Source\PSoC6\pdl\drivers\peripheral\scb/cy_scb_spi.c ****             /* Trigger an RX interrupt:
 644:Generated_Source\PSoC6\pdl\drivers\peripheral\scb/cy_scb_spi.c ****             * - If the transfer size is equal to or less than half of FIFO, trigger ??at the end of
 645:Generated_Source\PSoC6\pdl\drivers\peripheral\scb/cy_scb_spi.c ****             * - If the transfer size is greater than half of FIFO, trigger 1 byte earlier than a TX
 646:Generated_Source\PSoC6\pdl\drivers\peripheral\scb/cy_scb_spi.c ****             */
 647:Generated_Source\PSoC6\pdl\drivers\peripheral\scb/cy_scb_spi.c ****             Cy_SCB_SetRxFifoLevel(base, (size > (fifoSize / 2UL)) ? ((fifoSize / 2UL) - 2UL) : (siz
 2990              		.loc 3 647 0
 2991 00f8 3B69     		ldr	r3, [r7, #16]
 2992 00fa 5A08     		lsrs	r2, r3, #1
 2993 00fc 3B68     		ldr	r3, [r7]
 2994 00fe 9A42     		cmp	r2, r3
 2995 0100 03D2     		bcs	.L210
 2996              		.loc 3 647 0 is_stmt 0 discriminator 1
 2997 0102 3B69     		ldr	r3, [r7, #16]
 2998 0104 5B08     		lsrs	r3, r3, #1
 2999 0106 023B     		subs	r3, r3, #2
 3000 0108 01E0     		b	.L211
 3001              	.L210:
 3002              		.loc 3 647 0 discriminator 2
 3003 010a 3B68     		ldr	r3, [r7]
 3004 010c 013B     		subs	r3, r3, #1
 3005              	.L211:
 3006              		.loc 3 647 0 discriminator 4
ARM GAS  C:\Users\salaz\AppData\Local\Temp\ccynHHO7.s 			page 123


 3007 010e FA68     		ldr	r2, [r7, #12]
 3008 0110 1900     		movs	r1, r3
 3009 0112 1000     		movs	r0, r2
 3010 0114 FFF7FEFF 		bl	Cy_SCB_SetRxFifoLevel
 648:Generated_Source\PSoC6\pdl\drivers\peripheral\scb/cy_scb_spi.c **** 
 649:Generated_Source\PSoC6\pdl\drivers\peripheral\scb/cy_scb_spi.c ****             Cy_SCB_SetSlaveInterruptMask(base, CY_SCB_SLAVE_INTR_SPI_BUS_ERROR);
 3011              		.loc 3 649 0 is_stmt 1 discriminator 4
 3012 0118 8023     		movs	r3, #128
 3013 011a 1A01     		lsls	r2, r3, #4
 3014 011c FB68     		ldr	r3, [r7, #12]
 3015 011e 1100     		movs	r1, r2
 3016 0120 1800     		movs	r0, r3
 3017 0122 FFF7FEFF 		bl	Cy_SCB_SetSlaveInterruptMask
 650:Generated_Source\PSoC6\pdl\drivers\peripheral\scb/cy_scb_spi.c **** 
 651:Generated_Source\PSoC6\pdl\drivers\peripheral\scb/cy_scb_spi.c ****             /* Enable interrupt sources to perform a transfer */
 652:Generated_Source\PSoC6\pdl\drivers\peripheral\scb/cy_scb_spi.c ****             Cy_SCB_SetRxInterruptMask(base, CY_SCB_RX_INTR_LEVEL | CY_SCB_RX_INTR_OVERFLOW);
 3018              		.loc 3 652 0 discriminator 4
 3019 0126 FB68     		ldr	r3, [r7, #12]
 3020 0128 2121     		movs	r1, #33
 3021 012a 1800     		movs	r0, r3
 3022 012c FFF7FEFF 		bl	Cy_SCB_SetRxInterruptMask
 653:Generated_Source\PSoC6\pdl\drivers\peripheral\scb/cy_scb_spi.c ****             Cy_SCB_SetTxInterruptMask(base, CY_SCB_TX_INTR_LEVEL | CY_SCB_TX_INTR_UNDERFLOW);
 3023              		.loc 3 653 0 discriminator 4
 3024 0130 FB68     		ldr	r3, [r7, #12]
 3025 0132 4121     		movs	r1, #65
 3026 0134 1800     		movs	r0, r3
 3027 0136 FFF7FEFF 		bl	Cy_SCB_SetTxInterruptMask
 3028              	.L209:
 654:Generated_Source\PSoC6\pdl\drivers\peripheral\scb/cy_scb_spi.c ****         }
 655:Generated_Source\PSoC6\pdl\drivers\peripheral\scb/cy_scb_spi.c **** 
 656:Generated_Source\PSoC6\pdl\drivers\peripheral\scb/cy_scb_spi.c ****         retStatus = CY_SCB_SPI_SUCCESS;
 3029              		.loc 3 656 0
 3030 013a 0023     		movs	r3, #0
 3031 013c 7B61     		str	r3, [r7, #20]
 3032              	.L205:
 3033              	.LBE2:
 657:Generated_Source\PSoC6\pdl\drivers\peripheral\scb/cy_scb_spi.c ****     }
 658:Generated_Source\PSoC6\pdl\drivers\peripheral\scb/cy_scb_spi.c **** 
 659:Generated_Source\PSoC6\pdl\drivers\peripheral\scb/cy_scb_spi.c ****     return (retStatus);
 3034              		.loc 3 659 0
 3035 013e 7B69     		ldr	r3, [r7, #20]
 660:Generated_Source\PSoC6\pdl\drivers\peripheral\scb/cy_scb_spi.c **** }
 3036              		.loc 3 660 0
 3037 0140 1800     		movs	r0, r3
 3038 0142 BD46     		mov	sp, r7
 3039 0144 06B0     		add	sp, sp, #24
 3040              		@ sp needed
 3041 0146 80BD     		pop	{r7, pc}
 3042              	.L214:
 3043              		.align	2
 3044              	.L213:
 3045 0148 5A020000 		.word	602
 3046 014c 44000000 		.word	.LC12
 3047 0150 EFCDAB00 		.word	11259375
 3048 0154 5B020000 		.word	603
 3049 0158 0240AA00 		.word	11157506
 3050              		.cfi_endproc
ARM GAS  C:\Users\salaz\AppData\Local\Temp\ccynHHO7.s 			page 124


 3051              	.LFE148:
 3052              		.size	Cy_SCB_SPI_Transfer, .-Cy_SCB_SPI_Transfer
 3053              		.section	.text.Cy_SCB_SPI_AbortTransfer,"ax",%progbits
 3054              		.align	2
 3055              		.global	Cy_SCB_SPI_AbortTransfer
 3056              		.code	16
 3057              		.thumb_func
 3058              		.type	Cy_SCB_SPI_AbortTransfer, %function
 3059              	Cy_SCB_SPI_AbortTransfer:
 3060              	.LFB149:
 661:Generated_Source\PSoC6\pdl\drivers\peripheral\scb/cy_scb_spi.c **** 
 662:Generated_Source\PSoC6\pdl\drivers\peripheral\scb/cy_scb_spi.c **** 
 663:Generated_Source\PSoC6\pdl\drivers\peripheral\scb/cy_scb_spi.c **** /*******************************************************************************
 664:Generated_Source\PSoC6\pdl\drivers\peripheral\scb/cy_scb_spi.c **** * Function Name: Cy_SCB_SPI_AbortTransfer
 665:Generated_Source\PSoC6\pdl\drivers\peripheral\scb/cy_scb_spi.c **** ****************************************************************************//**
 666:Generated_Source\PSoC6\pdl\drivers\peripheral\scb/cy_scb_spi.c **** *
 667:Generated_Source\PSoC6\pdl\drivers\peripheral\scb/cy_scb_spi.c **** * Aborts the current SPI transfer.
 668:Generated_Source\PSoC6\pdl\drivers\peripheral\scb/cy_scb_spi.c **** * It disables the transmit and RX interrupt sources, clears the TX
 669:Generated_Source\PSoC6\pdl\drivers\peripheral\scb/cy_scb_spi.c **** * and RX FIFOs and the status.
 670:Generated_Source\PSoC6\pdl\drivers\peripheral\scb/cy_scb_spi.c **** *
 671:Generated_Source\PSoC6\pdl\drivers\peripheral\scb/cy_scb_spi.c **** * \param base
 672:Generated_Source\PSoC6\pdl\drivers\peripheral\scb/cy_scb_spi.c **** * The pointer to the SPI SCB instance.
 673:Generated_Source\PSoC6\pdl\drivers\peripheral\scb/cy_scb_spi.c **** *
 674:Generated_Source\PSoC6\pdl\drivers\peripheral\scb/cy_scb_spi.c **** * \param context
 675:Generated_Source\PSoC6\pdl\drivers\peripheral\scb/cy_scb_spi.c **** * The pointer to the context structure \ref cy_stc_scb_spi_context_t allocated
 676:Generated_Source\PSoC6\pdl\drivers\peripheral\scb/cy_scb_spi.c **** * by the user. The structure is used during the SPI operation for internal
 677:Generated_Source\PSoC6\pdl\drivers\peripheral\scb/cy_scb_spi.c **** * configuration and data retention. The user must not modify anything
 678:Generated_Source\PSoC6\pdl\drivers\peripheral\scb/cy_scb_spi.c **** * in this structure.
 679:Generated_Source\PSoC6\pdl\drivers\peripheral\scb/cy_scb_spi.c **** *
 680:Generated_Source\PSoC6\pdl\drivers\peripheral\scb/cy_scb_spi.c **** * \note
 681:Generated_Source\PSoC6\pdl\drivers\peripheral\scb/cy_scb_spi.c **** * In the slave mode and after abort of transfer operation master continue
 682:Generated_Source\PSoC6\pdl\drivers\peripheral\scb/cy_scb_spi.c **** * sending data it gets into RX FIFO and TX FIFO is underflow as there is
 683:Generated_Source\PSoC6\pdl\drivers\peripheral\scb/cy_scb_spi.c **** * nothing to send. To drop this data, RX FIFO must be cleared when
 684:Generated_Source\PSoC6\pdl\drivers\peripheral\scb/cy_scb_spi.c **** * the transfer is complete. Otherwise, received data will be kept and
 685:Generated_Source\PSoC6\pdl\drivers\peripheral\scb/cy_scb_spi.c **** * copied to the buffer when \ref Cy_SCB_SPI_Transfer is called.
 686:Generated_Source\PSoC6\pdl\drivers\peripheral\scb/cy_scb_spi.c **** *
 687:Generated_Source\PSoC6\pdl\drivers\peripheral\scb/cy_scb_spi.c **** * \sideeffect
 688:Generated_Source\PSoC6\pdl\drivers\peripheral\scb/cy_scb_spi.c **** * The transmit FIFO clear operation also clears the shift register, so that
 689:Generated_Source\PSoC6\pdl\drivers\peripheral\scb/cy_scb_spi.c **** * the shifter can be cleared in the middle of a data element transfer,
 690:Generated_Source\PSoC6\pdl\drivers\peripheral\scb/cy_scb_spi.c **** * corrupting it. The data element corruption means that all bits that have
 691:Generated_Source\PSoC6\pdl\drivers\peripheral\scb/cy_scb_spi.c **** * not been transmitted are transmitted as "ones" on the bus.
 692:Generated_Source\PSoC6\pdl\drivers\peripheral\scb/cy_scb_spi.c **** *
 693:Generated_Source\PSoC6\pdl\drivers\peripheral\scb/cy_scb_spi.c **** *******************************************************************************/
 694:Generated_Source\PSoC6\pdl\drivers\peripheral\scb/cy_scb_spi.c **** void Cy_SCB_SPI_AbortTransfer(CySCB_Type *base, cy_stc_scb_spi_context_t *context)
 695:Generated_Source\PSoC6\pdl\drivers\peripheral\scb/cy_scb_spi.c **** {
 3061              		.loc 3 695 0
 3062              		.cfi_startproc
 3063              		@ args = 0, pretend = 0, frame = 8
 3064              		@ frame_needed = 1, uses_anonymous_args = 0
 3065 0000 80B5     		push	{r7, lr}
 3066              		.cfi_def_cfa_offset 8
 3067              		.cfi_offset 7, -8
 3068              		.cfi_offset 14, -4
 3069 0002 82B0     		sub	sp, sp, #8
 3070              		.cfi_def_cfa_offset 16
 3071 0004 00AF     		add	r7, sp, #0
 3072              		.cfi_def_cfa_register 7
ARM GAS  C:\Users\salaz\AppData\Local\Temp\ccynHHO7.s 			page 125


 3073 0006 7860     		str	r0, [r7, #4]
 3074 0008 3960     		str	r1, [r7]
 696:Generated_Source\PSoC6\pdl\drivers\peripheral\scb/cy_scb_spi.c ****     /* Disable interrupt sources */
 697:Generated_Source\PSoC6\pdl\drivers\peripheral\scb/cy_scb_spi.c ****     Cy_SCB_SetSlaveInterruptMask(base, CY_SCB_CLEAR_ALL_INTR_SRC);
 3075              		.loc 3 697 0
 3076 000a 7B68     		ldr	r3, [r7, #4]
 3077 000c 0021     		movs	r1, #0
 3078 000e 1800     		movs	r0, r3
 3079 0010 FFF7FEFF 		bl	Cy_SCB_SetSlaveInterruptMask
 698:Generated_Source\PSoC6\pdl\drivers\peripheral\scb/cy_scb_spi.c **** 
 699:Generated_Source\PSoC6\pdl\drivers\peripheral\scb/cy_scb_spi.c ****     if (_FLD2BOOL(SCB_SPI_CTRL_MASTER_MODE, base->SPI_CTRL))
 3080              		.loc 3 699 0
 3081 0014 7B68     		ldr	r3, [r7, #4]
 3082 0016 1B6A     		ldr	r3, [r3, #32]
 3083 0018 002B     		cmp	r3, #0
 3084 001a 0ADA     		bge	.L216
 700:Generated_Source\PSoC6\pdl\drivers\peripheral\scb/cy_scb_spi.c ****     {
 701:Generated_Source\PSoC6\pdl\drivers\peripheral\scb/cy_scb_spi.c ****         Cy_SCB_SetRxInterruptMask(base, CY_SCB_CLEAR_ALL_INTR_SRC);
 3085              		.loc 3 701 0
 3086 001c 7B68     		ldr	r3, [r7, #4]
 3087 001e 0021     		movs	r1, #0
 3088 0020 1800     		movs	r0, r3
 3089 0022 FFF7FEFF 		bl	Cy_SCB_SetRxInterruptMask
 702:Generated_Source\PSoC6\pdl\drivers\peripheral\scb/cy_scb_spi.c ****         Cy_SCB_SetTxInterruptMask(base, CY_SCB_CLEAR_ALL_INTR_SRC);
 3090              		.loc 3 702 0
 3091 0026 7B68     		ldr	r3, [r7, #4]
 3092 0028 0021     		movs	r1, #0
 3093 002a 1800     		movs	r0, r3
 3094 002c FFF7FEFF 		bl	Cy_SCB_SetTxInterruptMask
 3095 0030 09E0     		b	.L217
 3096              	.L216:
 703:Generated_Source\PSoC6\pdl\drivers\peripheral\scb/cy_scb_spi.c ****     }
 704:Generated_Source\PSoC6\pdl\drivers\peripheral\scb/cy_scb_spi.c ****     else
 705:Generated_Source\PSoC6\pdl\drivers\peripheral\scb/cy_scb_spi.c ****     {
 706:Generated_Source\PSoC6\pdl\drivers\peripheral\scb/cy_scb_spi.c ****         Cy_SCB_SetRxInterruptMask(base, CY_SCB_RX_INTR_OVERFLOW);
 3097              		.loc 3 706 0
 3098 0032 7B68     		ldr	r3, [r7, #4]
 3099 0034 2021     		movs	r1, #32
 3100 0036 1800     		movs	r0, r3
 3101 0038 FFF7FEFF 		bl	Cy_SCB_SetRxInterruptMask
 707:Generated_Source\PSoC6\pdl\drivers\peripheral\scb/cy_scb_spi.c ****         Cy_SCB_SetTxInterruptMask(base, CY_SCB_TX_INTR_UNDERFLOW);
 3102              		.loc 3 707 0
 3103 003c 7B68     		ldr	r3, [r7, #4]
 3104 003e 4021     		movs	r1, #64
 3105 0040 1800     		movs	r0, r3
 3106 0042 FFF7FEFF 		bl	Cy_SCB_SetTxInterruptMask
 3107              	.L217:
 708:Generated_Source\PSoC6\pdl\drivers\peripheral\scb/cy_scb_spi.c ****     }
 709:Generated_Source\PSoC6\pdl\drivers\peripheral\scb/cy_scb_spi.c **** 
 710:Generated_Source\PSoC6\pdl\drivers\peripheral\scb/cy_scb_spi.c ****     /* Clear FIFOs */
 711:Generated_Source\PSoC6\pdl\drivers\peripheral\scb/cy_scb_spi.c ****     Cy_SCB_SPI_ClearTxFifo(base);
 3108              		.loc 3 711 0
 3109 0046 7B68     		ldr	r3, [r7, #4]
 3110 0048 1800     		movs	r0, r3
 3111 004a FFF7FEFF 		bl	Cy_SCB_SPI_ClearTxFifo
 712:Generated_Source\PSoC6\pdl\drivers\peripheral\scb/cy_scb_spi.c ****     Cy_SCB_SPI_ClearRxFifo(base);
 3112              		.loc 3 712 0
ARM GAS  C:\Users\salaz\AppData\Local\Temp\ccynHHO7.s 			page 126


 3113 004e 7B68     		ldr	r3, [r7, #4]
 3114 0050 1800     		movs	r0, r3
 3115 0052 FFF7FEFF 		bl	Cy_SCB_SPI_ClearRxFifo
 713:Generated_Source\PSoC6\pdl\drivers\peripheral\scb/cy_scb_spi.c **** 
 714:Generated_Source\PSoC6\pdl\drivers\peripheral\scb/cy_scb_spi.c ****     /* Clear the status to allow a new transfer */
 715:Generated_Source\PSoC6\pdl\drivers\peripheral\scb/cy_scb_spi.c ****     context->status = 0UL;
 3116              		.loc 3 715 0
 3117 0056 3B68     		ldr	r3, [r7]
 3118 0058 0022     		movs	r2, #0
 3119 005a 1A60     		str	r2, [r3]
 716:Generated_Source\PSoC6\pdl\drivers\peripheral\scb/cy_scb_spi.c **** }
 3120              		.loc 3 716 0
 3121 005c C046     		nop
 3122 005e BD46     		mov	sp, r7
 3123 0060 02B0     		add	sp, sp, #8
 3124              		@ sp needed
 3125 0062 80BD     		pop	{r7, pc}
 3126              		.cfi_endproc
 3127              	.LFE149:
 3128              		.size	Cy_SCB_SPI_AbortTransfer, .-Cy_SCB_SPI_AbortTransfer
 3129              		.section	.text.Cy_SCB_SPI_GetNumTransfered,"ax",%progbits
 3130              		.align	2
 3131              		.global	Cy_SCB_SPI_GetNumTransfered
 3132              		.code	16
 3133              		.thumb_func
 3134              		.type	Cy_SCB_SPI_GetNumTransfered, %function
 3135              	Cy_SCB_SPI_GetNumTransfered:
 3136              	.LFB150:
 717:Generated_Source\PSoC6\pdl\drivers\peripheral\scb/cy_scb_spi.c **** 
 718:Generated_Source\PSoC6\pdl\drivers\peripheral\scb/cy_scb_spi.c **** 
 719:Generated_Source\PSoC6\pdl\drivers\peripheral\scb/cy_scb_spi.c **** /*******************************************************************************
 720:Generated_Source\PSoC6\pdl\drivers\peripheral\scb/cy_scb_spi.c **** * Function Name: Cy_SCB_SPI_GetNumTransfered
 721:Generated_Source\PSoC6\pdl\drivers\peripheral\scb/cy_scb_spi.c **** ****************************************************************************//**
 722:Generated_Source\PSoC6\pdl\drivers\peripheral\scb/cy_scb_spi.c **** *
 723:Generated_Source\PSoC6\pdl\drivers\peripheral\scb/cy_scb_spi.c **** * Returns the number of data elements transferred since the last call to \ref
 724:Generated_Source\PSoC6\pdl\drivers\peripheral\scb/cy_scb_spi.c **** * Cy_SCB_SPI_Transfer.
 725:Generated_Source\PSoC6\pdl\drivers\peripheral\scb/cy_scb_spi.c **** *
 726:Generated_Source\PSoC6\pdl\drivers\peripheral\scb/cy_scb_spi.c **** * \param base
 727:Generated_Source\PSoC6\pdl\drivers\peripheral\scb/cy_scb_spi.c **** * The pointer to the SPI SCB instance.
 728:Generated_Source\PSoC6\pdl\drivers\peripheral\scb/cy_scb_spi.c **** *
 729:Generated_Source\PSoC6\pdl\drivers\peripheral\scb/cy_scb_spi.c **** * \param context
 730:Generated_Source\PSoC6\pdl\drivers\peripheral\scb/cy_scb_spi.c **** * The pointer to the context structure \ref cy_stc_scb_spi_context_t allocated
 731:Generated_Source\PSoC6\pdl\drivers\peripheral\scb/cy_scb_spi.c **** * by the user. The structure is used during the SPI operation for internal
 732:Generated_Source\PSoC6\pdl\drivers\peripheral\scb/cy_scb_spi.c **** * configuration and data retention. The user must not modify anything
 733:Generated_Source\PSoC6\pdl\drivers\peripheral\scb/cy_scb_spi.c **** * in this structure.
 734:Generated_Source\PSoC6\pdl\drivers\peripheral\scb/cy_scb_spi.c **** *
 735:Generated_Source\PSoC6\pdl\drivers\peripheral\scb/cy_scb_spi.c **** * \return
 736:Generated_Source\PSoC6\pdl\drivers\peripheral\scb/cy_scb_spi.c **** * The number of data elements transferred.
 737:Generated_Source\PSoC6\pdl\drivers\peripheral\scb/cy_scb_spi.c **** *
 738:Generated_Source\PSoC6\pdl\drivers\peripheral\scb/cy_scb_spi.c **** *******************************************************************************/
 739:Generated_Source\PSoC6\pdl\drivers\peripheral\scb/cy_scb_spi.c **** uint32_t Cy_SCB_SPI_GetNumTransfered(CySCB_Type const *base, cy_stc_scb_spi_context_t const *contex
 740:Generated_Source\PSoC6\pdl\drivers\peripheral\scb/cy_scb_spi.c **** {
 3137              		.loc 3 740 0
 3138              		.cfi_startproc
 3139              		@ args = 0, pretend = 0, frame = 8
 3140              		@ frame_needed = 1, uses_anonymous_args = 0
 3141 0000 80B5     		push	{r7, lr}
ARM GAS  C:\Users\salaz\AppData\Local\Temp\ccynHHO7.s 			page 127


 3142              		.cfi_def_cfa_offset 8
 3143              		.cfi_offset 7, -8
 3144              		.cfi_offset 14, -4
 3145 0002 82B0     		sub	sp, sp, #8
 3146              		.cfi_def_cfa_offset 16
 3147 0004 00AF     		add	r7, sp, #0
 3148              		.cfi_def_cfa_register 7
 3149 0006 7860     		str	r0, [r7, #4]
 3150 0008 3960     		str	r1, [r7]
 741:Generated_Source\PSoC6\pdl\drivers\peripheral\scb/cy_scb_spi.c ****     /* Suppress a compiler warning about unused variables */
 742:Generated_Source\PSoC6\pdl\drivers\peripheral\scb/cy_scb_spi.c ****     (void) base;
 743:Generated_Source\PSoC6\pdl\drivers\peripheral\scb/cy_scb_spi.c **** 
 744:Generated_Source\PSoC6\pdl\drivers\peripheral\scb/cy_scb_spi.c ****     return (context->rxBufIdx);
 3151              		.loc 3 744 0
 3152 000a 3B68     		ldr	r3, [r7]
 3153 000c DB68     		ldr	r3, [r3, #12]
 745:Generated_Source\PSoC6\pdl\drivers\peripheral\scb/cy_scb_spi.c **** }
 3154              		.loc 3 745 0
 3155 000e 1800     		movs	r0, r3
 3156 0010 BD46     		mov	sp, r7
 3157 0012 02B0     		add	sp, sp, #8
 3158              		@ sp needed
 3159 0014 80BD     		pop	{r7, pc}
 3160              		.cfi_endproc
 3161              	.LFE150:
 3162              		.size	Cy_SCB_SPI_GetNumTransfered, .-Cy_SCB_SPI_GetNumTransfered
 3163 0016 C046     		.section	.text.Cy_SCB_SPI_GetTransferStatus,"ax",%progbits
 3164              		.align	2
 3165              		.global	Cy_SCB_SPI_GetTransferStatus
 3166              		.code	16
 3167              		.thumb_func
 3168              		.type	Cy_SCB_SPI_GetTransferStatus, %function
 3169              	Cy_SCB_SPI_GetTransferStatus:
 3170              	.LFB151:
 746:Generated_Source\PSoC6\pdl\drivers\peripheral\scb/cy_scb_spi.c **** 
 747:Generated_Source\PSoC6\pdl\drivers\peripheral\scb/cy_scb_spi.c **** 
 748:Generated_Source\PSoC6\pdl\drivers\peripheral\scb/cy_scb_spi.c **** /*******************************************************************************
 749:Generated_Source\PSoC6\pdl\drivers\peripheral\scb/cy_scb_spi.c **** * Function Name: Cy_SCB_SPI_GetTransferStatus
 750:Generated_Source\PSoC6\pdl\drivers\peripheral\scb/cy_scb_spi.c **** ****************************************************************************//**
 751:Generated_Source\PSoC6\pdl\drivers\peripheral\scb/cy_scb_spi.c **** *
 752:Generated_Source\PSoC6\pdl\drivers\peripheral\scb/cy_scb_spi.c **** * Returns the status of the transfer operation started by
 753:Generated_Source\PSoC6\pdl\drivers\peripheral\scb/cy_scb_spi.c **** * \ref Cy_SCB_SPI_Transfer.
 754:Generated_Source\PSoC6\pdl\drivers\peripheral\scb/cy_scb_spi.c **** * This status is a bit mask and the value returned may have a multiple-bit set.
 755:Generated_Source\PSoC6\pdl\drivers\peripheral\scb/cy_scb_spi.c **** *
 756:Generated_Source\PSoC6\pdl\drivers\peripheral\scb/cy_scb_spi.c **** * \param base
 757:Generated_Source\PSoC6\pdl\drivers\peripheral\scb/cy_scb_spi.c **** * The pointer to the SPI SCB instance.
 758:Generated_Source\PSoC6\pdl\drivers\peripheral\scb/cy_scb_spi.c **** *
 759:Generated_Source\PSoC6\pdl\drivers\peripheral\scb/cy_scb_spi.c **** * \param context
 760:Generated_Source\PSoC6\pdl\drivers\peripheral\scb/cy_scb_spi.c **** * The pointer to the context structure \ref cy_stc_scb_spi_context_t allocated
 761:Generated_Source\PSoC6\pdl\drivers\peripheral\scb/cy_scb_spi.c **** * by the user. The structure is used during the SPI operation for internal
 762:Generated_Source\PSoC6\pdl\drivers\peripheral\scb/cy_scb_spi.c **** * configuration and data retention. The user must not modify anything
 763:Generated_Source\PSoC6\pdl\drivers\peripheral\scb/cy_scb_spi.c **** * in this structure.
 764:Generated_Source\PSoC6\pdl\drivers\peripheral\scb/cy_scb_spi.c **** *
 765:Generated_Source\PSoC6\pdl\drivers\peripheral\scb/cy_scb_spi.c **** * \return
 766:Generated_Source\PSoC6\pdl\drivers\peripheral\scb/cy_scb_spi.c **** * \ref group_scb_spi_macros_xfer_status.
 767:Generated_Source\PSoC6\pdl\drivers\peripheral\scb/cy_scb_spi.c **** *
 768:Generated_Source\PSoC6\pdl\drivers\peripheral\scb/cy_scb_spi.c **** * \note
ARM GAS  C:\Users\salaz\AppData\Local\Temp\ccynHHO7.s 			page 128


 769:Generated_Source\PSoC6\pdl\drivers\peripheral\scb/cy_scb_spi.c **** * The status is cleared by calling \ref Cy_SCB_SPI_Transfer or
 770:Generated_Source\PSoC6\pdl\drivers\peripheral\scb/cy_scb_spi.c **** * \ref Cy_SCB_SPI_AbortTransfer.
 771:Generated_Source\PSoC6\pdl\drivers\peripheral\scb/cy_scb_spi.c **** *
 772:Generated_Source\PSoC6\pdl\drivers\peripheral\scb/cy_scb_spi.c **** *******************************************************************************/
 773:Generated_Source\PSoC6\pdl\drivers\peripheral\scb/cy_scb_spi.c **** uint32_t Cy_SCB_SPI_GetTransferStatus(CySCB_Type const *base, cy_stc_scb_spi_context_t const *conte
 774:Generated_Source\PSoC6\pdl\drivers\peripheral\scb/cy_scb_spi.c **** {
 3171              		.loc 3 774 0
 3172              		.cfi_startproc
 3173              		@ args = 0, pretend = 0, frame = 8
 3174              		@ frame_needed = 1, uses_anonymous_args = 0
 3175 0000 80B5     		push	{r7, lr}
 3176              		.cfi_def_cfa_offset 8
 3177              		.cfi_offset 7, -8
 3178              		.cfi_offset 14, -4
 3179 0002 82B0     		sub	sp, sp, #8
 3180              		.cfi_def_cfa_offset 16
 3181 0004 00AF     		add	r7, sp, #0
 3182              		.cfi_def_cfa_register 7
 3183 0006 7860     		str	r0, [r7, #4]
 3184 0008 3960     		str	r1, [r7]
 775:Generated_Source\PSoC6\pdl\drivers\peripheral\scb/cy_scb_spi.c ****     /* Suppress a compiler warning about unused variables */
 776:Generated_Source\PSoC6\pdl\drivers\peripheral\scb/cy_scb_spi.c ****     (void) base;
 777:Generated_Source\PSoC6\pdl\drivers\peripheral\scb/cy_scb_spi.c **** 
 778:Generated_Source\PSoC6\pdl\drivers\peripheral\scb/cy_scb_spi.c ****     return (context->status);
 3185              		.loc 3 778 0
 3186 000a 3B68     		ldr	r3, [r7]
 3187 000c 1B68     		ldr	r3, [r3]
 779:Generated_Source\PSoC6\pdl\drivers\peripheral\scb/cy_scb_spi.c **** }
 3188              		.loc 3 779 0
 3189 000e 1800     		movs	r0, r3
 3190 0010 BD46     		mov	sp, r7
 3191 0012 02B0     		add	sp, sp, #8
 3192              		@ sp needed
 3193 0014 80BD     		pop	{r7, pc}
 3194              		.cfi_endproc
 3195              	.LFE151:
 3196              		.size	Cy_SCB_SPI_GetTransferStatus, .-Cy_SCB_SPI_GetTransferStatus
 3197 0016 C046     		.section	.text.Cy_SCB_SPI_Interrupt,"ax",%progbits
 3198              		.align	2
 3199              		.global	Cy_SCB_SPI_Interrupt
 3200              		.code	16
 3201              		.thumb_func
 3202              		.type	Cy_SCB_SPI_Interrupt, %function
 3203              	Cy_SCB_SPI_Interrupt:
 3204              	.LFB152:
 780:Generated_Source\PSoC6\pdl\drivers\peripheral\scb/cy_scb_spi.c **** 
 781:Generated_Source\PSoC6\pdl\drivers\peripheral\scb/cy_scb_spi.c **** 
 782:Generated_Source\PSoC6\pdl\drivers\peripheral\scb/cy_scb_spi.c **** /*******************************************************************************
 783:Generated_Source\PSoC6\pdl\drivers\peripheral\scb/cy_scb_spi.c **** * Function Name: Cy_SCB_SPI_Interrupt
 784:Generated_Source\PSoC6\pdl\drivers\peripheral\scb/cy_scb_spi.c **** ****************************************************************************//**
 785:Generated_Source\PSoC6\pdl\drivers\peripheral\scb/cy_scb_spi.c **** *
 786:Generated_Source\PSoC6\pdl\drivers\peripheral\scb/cy_scb_spi.c **** * This is the interrupt function for the SCB configured in the SPI mode.
 787:Generated_Source\PSoC6\pdl\drivers\peripheral\scb/cy_scb_spi.c **** * This function must be called inside the  user-defined interrupt service
 788:Generated_Source\PSoC6\pdl\drivers\peripheral\scb/cy_scb_spi.c **** * routine for \ref Cy_SCB_SPI_Transfer to work.
 789:Generated_Source\PSoC6\pdl\drivers\peripheral\scb/cy_scb_spi.c **** *
 790:Generated_Source\PSoC6\pdl\drivers\peripheral\scb/cy_scb_spi.c **** * \param base
 791:Generated_Source\PSoC6\pdl\drivers\peripheral\scb/cy_scb_spi.c **** * The pointer to the SPI SCB instance.
ARM GAS  C:\Users\salaz\AppData\Local\Temp\ccynHHO7.s 			page 129


 792:Generated_Source\PSoC6\pdl\drivers\peripheral\scb/cy_scb_spi.c **** *
 793:Generated_Source\PSoC6\pdl\drivers\peripheral\scb/cy_scb_spi.c **** * \param context
 794:Generated_Source\PSoC6\pdl\drivers\peripheral\scb/cy_scb_spi.c **** * The pointer to the context structure \ref cy_stc_scb_spi_context_t allocated
 795:Generated_Source\PSoC6\pdl\drivers\peripheral\scb/cy_scb_spi.c **** * by the user. The structure is used during the SPI operation for internal
 796:Generated_Source\PSoC6\pdl\drivers\peripheral\scb/cy_scb_spi.c **** * configuration and data retention. The user must not modify anything
 797:Generated_Source\PSoC6\pdl\drivers\peripheral\scb/cy_scb_spi.c **** * in this structure.
 798:Generated_Source\PSoC6\pdl\drivers\peripheral\scb/cy_scb_spi.c **** *
 799:Generated_Source\PSoC6\pdl\drivers\peripheral\scb/cy_scb_spi.c **** *******************************************************************************/
 800:Generated_Source\PSoC6\pdl\drivers\peripheral\scb/cy_scb_spi.c **** void Cy_SCB_SPI_Interrupt(CySCB_Type *base, cy_stc_scb_spi_context_t *context)
 801:Generated_Source\PSoC6\pdl\drivers\peripheral\scb/cy_scb_spi.c **** {
 3205              		.loc 3 801 0
 3206              		.cfi_startproc
 3207              		@ args = 0, pretend = 0, frame = 16
 3208              		@ frame_needed = 1, uses_anonymous_args = 0
 3209 0000 80B5     		push	{r7, lr}
 3210              		.cfi_def_cfa_offset 8
 3211              		.cfi_offset 7, -8
 3212              		.cfi_offset 14, -4
 3213 0002 84B0     		sub	sp, sp, #16
 3214              		.cfi_def_cfa_offset 24
 3215 0004 00AF     		add	r7, sp, #0
 3216              		.cfi_def_cfa_register 7
 3217 0006 7860     		str	r0, [r7, #4]
 3218 0008 3960     		str	r1, [r7]
 802:Generated_Source\PSoC6\pdl\drivers\peripheral\scb/cy_scb_spi.c ****      bool locXferErr = false;
 3219              		.loc 3 802 0
 3220 000a 0F23     		movs	r3, #15
 3221 000c FB18     		adds	r3, r7, r3
 3222 000e 0022     		movs	r2, #0
 3223 0010 1A70     		strb	r2, [r3]
 803:Generated_Source\PSoC6\pdl\drivers\peripheral\scb/cy_scb_spi.c **** 
 804:Generated_Source\PSoC6\pdl\drivers\peripheral\scb/cy_scb_spi.c ****     /* Wake up on the slave select condition */
 805:Generated_Source\PSoC6\pdl\drivers\peripheral\scb/cy_scb_spi.c ****     if (0UL != (CY_SCB_SPI_INTR_WAKEUP & Cy_SCB_GetSpiInterruptStatusMasked(base)))
 3224              		.loc 3 805 0
 3225 0012 7B68     		ldr	r3, [r7, #4]
 3226 0014 1800     		movs	r0, r3
 3227 0016 FFF7FEFF 		bl	Cy_SCB_GetSpiInterruptStatusMasked
 3228 001a 0200     		movs	r2, r0
 3229 001c 0123     		movs	r3, #1
 3230 001e 1340     		ands	r3, r2
 3231 0020 04D0     		beq	.L223
 806:Generated_Source\PSoC6\pdl\drivers\peripheral\scb/cy_scb_spi.c ****     {
 807:Generated_Source\PSoC6\pdl\drivers\peripheral\scb/cy_scb_spi.c ****         Cy_SCB_ClearSpiInterrupt(base, CY_SCB_SPI_INTR_WAKEUP);
 3232              		.loc 3 807 0
 3233 0022 7B68     		ldr	r3, [r7, #4]
 3234 0024 0121     		movs	r1, #1
 3235 0026 1800     		movs	r0, r3
 3236 0028 FFF7FEFF 		bl	Cy_SCB_ClearSpiInterrupt
 3237              	.L223:
 808:Generated_Source\PSoC6\pdl\drivers\peripheral\scb/cy_scb_spi.c ****     }
 809:Generated_Source\PSoC6\pdl\drivers\peripheral\scb/cy_scb_spi.c **** 
 810:Generated_Source\PSoC6\pdl\drivers\peripheral\scb/cy_scb_spi.c ****     /* The slave error condition */
 811:Generated_Source\PSoC6\pdl\drivers\peripheral\scb/cy_scb_spi.c ****     if (0UL != (CY_SCB_SLAVE_INTR_SPI_BUS_ERROR & Cy_SCB_GetSlaveInterruptStatusMasked(base)))
 3238              		.loc 3 811 0
 3239 002c 7B68     		ldr	r3, [r7, #4]
 3240 002e 1800     		movs	r0, r3
 3241 0030 FFF7FEFF 		bl	Cy_SCB_GetSlaveInterruptStatusMasked
ARM GAS  C:\Users\salaz\AppData\Local\Temp\ccynHHO7.s 			page 130


 3242 0034 0200     		movs	r2, r0
 3243 0036 8023     		movs	r3, #128
 3244 0038 1B01     		lsls	r3, r3, #4
 3245 003a 1340     		ands	r3, r2
 3246 003c 11D0     		beq	.L224
 812:Generated_Source\PSoC6\pdl\drivers\peripheral\scb/cy_scb_spi.c ****     {
 813:Generated_Source\PSoC6\pdl\drivers\peripheral\scb/cy_scb_spi.c ****         locXferErr       = true;
 3247              		.loc 3 813 0
 3248 003e 0F23     		movs	r3, #15
 3249 0040 FB18     		adds	r3, r7, r3
 3250 0042 0122     		movs	r2, #1
 3251 0044 1A70     		strb	r2, [r3]
 814:Generated_Source\PSoC6\pdl\drivers\peripheral\scb/cy_scb_spi.c ****         context->status |= CY_SCB_SPI_SLAVE_TRANSFER_ERR;
 3252              		.loc 3 814 0
 3253 0046 3B68     		ldr	r3, [r7]
 3254 0048 1B68     		ldr	r3, [r3]
 3255 004a 8022     		movs	r2, #128
 3256 004c 1201     		lsls	r2, r2, #4
 3257 004e 1A43     		orrs	r2, r3
 3258 0050 3B68     		ldr	r3, [r7]
 3259 0052 1A60     		str	r2, [r3]
 815:Generated_Source\PSoC6\pdl\drivers\peripheral\scb/cy_scb_spi.c **** 
 816:Generated_Source\PSoC6\pdl\drivers\peripheral\scb/cy_scb_spi.c ****         Cy_SCB_ClearSlaveInterrupt(base, CY_SCB_SLAVE_INTR_SPI_BUS_ERROR);
 3260              		.loc 3 816 0
 3261 0054 8023     		movs	r3, #128
 3262 0056 1A01     		lsls	r2, r3, #4
 3263 0058 7B68     		ldr	r3, [r7, #4]
 3264 005a 1100     		movs	r1, r2
 3265 005c 1800     		movs	r0, r3
 3266 005e FFF7FEFF 		bl	Cy_SCB_ClearSlaveInterrupt
 3267              	.L224:
 817:Generated_Source\PSoC6\pdl\drivers\peripheral\scb/cy_scb_spi.c ****     }
 818:Generated_Source\PSoC6\pdl\drivers\peripheral\scb/cy_scb_spi.c **** 
 819:Generated_Source\PSoC6\pdl\drivers\peripheral\scb/cy_scb_spi.c ****     /* The RX overflow error condition */
 820:Generated_Source\PSoC6\pdl\drivers\peripheral\scb/cy_scb_spi.c ****     if (0UL != (CY_SCB_RX_INTR_OVERFLOW & Cy_SCB_GetRxInterruptStatusMasked(base)))
 3268              		.loc 3 820 0
 3269 0062 7B68     		ldr	r3, [r7, #4]
 3270 0064 1800     		movs	r0, r3
 3271 0066 FFF7FEFF 		bl	Cy_SCB_GetRxInterruptStatusMasked
 3272 006a 0200     		movs	r2, r0
 3273 006c 2023     		movs	r3, #32
 3274 006e 1340     		ands	r3, r2
 3275 0070 0ED0     		beq	.L225
 821:Generated_Source\PSoC6\pdl\drivers\peripheral\scb/cy_scb_spi.c ****     {
 822:Generated_Source\PSoC6\pdl\drivers\peripheral\scb/cy_scb_spi.c ****         locXferErr       = true;
 3276              		.loc 3 822 0
 3277 0072 0F23     		movs	r3, #15
 3278 0074 FB18     		adds	r3, r7, r3
 3279 0076 0122     		movs	r2, #1
 3280 0078 1A70     		strb	r2, [r3]
 823:Generated_Source\PSoC6\pdl\drivers\peripheral\scb/cy_scb_spi.c ****         context->status |= CY_SCB_SPI_TRANSFER_OVERFLOW;
 3281              		.loc 3 823 0
 3282 007a 3B68     		ldr	r3, [r7]
 3283 007c 1B68     		ldr	r3, [r3]
 3284 007e 2022     		movs	r2, #32
 3285 0080 1A43     		orrs	r2, r3
 3286 0082 3B68     		ldr	r3, [r7]
ARM GAS  C:\Users\salaz\AppData\Local\Temp\ccynHHO7.s 			page 131


 3287 0084 1A60     		str	r2, [r3]
 824:Generated_Source\PSoC6\pdl\drivers\peripheral\scb/cy_scb_spi.c **** 
 825:Generated_Source\PSoC6\pdl\drivers\peripheral\scb/cy_scb_spi.c ****         Cy_SCB_ClearRxInterrupt(base, CY_SCB_RX_INTR_OVERFLOW);
 3288              		.loc 3 825 0
 3289 0086 7B68     		ldr	r3, [r7, #4]
 3290 0088 2021     		movs	r1, #32
 3291 008a 1800     		movs	r0, r3
 3292 008c FFF7FEFF 		bl	Cy_SCB_ClearRxInterrupt
 3293              	.L225:
 826:Generated_Source\PSoC6\pdl\drivers\peripheral\scb/cy_scb_spi.c ****     }
 827:Generated_Source\PSoC6\pdl\drivers\peripheral\scb/cy_scb_spi.c **** 
 828:Generated_Source\PSoC6\pdl\drivers\peripheral\scb/cy_scb_spi.c ****     /* The TX underflow error condition or slave complete data transfer */
 829:Generated_Source\PSoC6\pdl\drivers\peripheral\scb/cy_scb_spi.c ****     if (0UL != (CY_SCB_TX_INTR_UNDERFLOW & Cy_SCB_GetTxInterruptStatusMasked(base)))
 3294              		.loc 3 829 0
 3295 0090 7B68     		ldr	r3, [r7, #4]
 3296 0092 1800     		movs	r0, r3
 3297 0094 FFF7FEFF 		bl	Cy_SCB_GetTxInterruptStatusMasked
 3298 0098 0200     		movs	r2, r0
 3299 009a 4023     		movs	r3, #64
 3300 009c 1340     		ands	r3, r2
 3301 009e 0ED0     		beq	.L226
 830:Generated_Source\PSoC6\pdl\drivers\peripheral\scb/cy_scb_spi.c ****     {
 831:Generated_Source\PSoC6\pdl\drivers\peripheral\scb/cy_scb_spi.c ****         locXferErr       = true;
 3302              		.loc 3 831 0
 3303 00a0 0F23     		movs	r3, #15
 3304 00a2 FB18     		adds	r3, r7, r3
 3305 00a4 0122     		movs	r2, #1
 3306 00a6 1A70     		strb	r2, [r3]
 832:Generated_Source\PSoC6\pdl\drivers\peripheral\scb/cy_scb_spi.c ****         context->status |= CY_SCB_SPI_TRANSFER_UNDERFLOW;
 3307              		.loc 3 832 0
 3308 00a8 3B68     		ldr	r3, [r7]
 3309 00aa 1B68     		ldr	r3, [r3]
 3310 00ac 4022     		movs	r2, #64
 3311 00ae 1A43     		orrs	r2, r3
 3312 00b0 3B68     		ldr	r3, [r7]
 3313 00b2 1A60     		str	r2, [r3]
 833:Generated_Source\PSoC6\pdl\drivers\peripheral\scb/cy_scb_spi.c **** 
 834:Generated_Source\PSoC6\pdl\drivers\peripheral\scb/cy_scb_spi.c ****         Cy_SCB_ClearTxInterrupt(base, CY_SCB_TX_INTR_UNDERFLOW);
 3314              		.loc 3 834 0
 3315 00b4 7B68     		ldr	r3, [r7, #4]
 3316 00b6 4021     		movs	r1, #64
 3317 00b8 1800     		movs	r0, r3
 3318 00ba FFF7FEFF 		bl	Cy_SCB_ClearTxInterrupt
 3319              	.L226:
 835:Generated_Source\PSoC6\pdl\drivers\peripheral\scb/cy_scb_spi.c ****     }
 836:Generated_Source\PSoC6\pdl\drivers\peripheral\scb/cy_scb_spi.c **** 
 837:Generated_Source\PSoC6\pdl\drivers\peripheral\scb/cy_scb_spi.c ****     /* Report an error, use a callback */
 838:Generated_Source\PSoC6\pdl\drivers\peripheral\scb/cy_scb_spi.c ****     if (locXferErr)
 3320              		.loc 3 838 0
 3321 00be 0F23     		movs	r3, #15
 3322 00c0 FB18     		adds	r3, r7, r3
 3323 00c2 1B78     		ldrb	r3, [r3]
 3324 00c4 002B     		cmp	r3, #0
 3325 00c6 07D0     		beq	.L227
 839:Generated_Source\PSoC6\pdl\drivers\peripheral\scb/cy_scb_spi.c ****     {
 840:Generated_Source\PSoC6\pdl\drivers\peripheral\scb/cy_scb_spi.c ****         if (NULL != context->cbEvents)
 3326              		.loc 3 840 0
ARM GAS  C:\Users\salaz\AppData\Local\Temp\ccynHHO7.s 			page 132


 3327 00c8 3B68     		ldr	r3, [r7]
 3328 00ca DB69     		ldr	r3, [r3, #28]
 3329 00cc 002B     		cmp	r3, #0
 3330 00ce 03D0     		beq	.L227
 841:Generated_Source\PSoC6\pdl\drivers\peripheral\scb/cy_scb_spi.c ****         {
 842:Generated_Source\PSoC6\pdl\drivers\peripheral\scb/cy_scb_spi.c ****             context->cbEvents(CY_SCB_SPI_TRANSFER_ERR_EVENT);
 3331              		.loc 3 842 0
 3332 00d0 3B68     		ldr	r3, [r7]
 3333 00d2 DB69     		ldr	r3, [r3, #28]
 3334 00d4 0420     		movs	r0, #4
 3335 00d6 9847     		blx	r3
 3336              	.L227:
 843:Generated_Source\PSoC6\pdl\drivers\peripheral\scb/cy_scb_spi.c ****         }
 844:Generated_Source\PSoC6\pdl\drivers\peripheral\scb/cy_scb_spi.c ****     }
 845:Generated_Source\PSoC6\pdl\drivers\peripheral\scb/cy_scb_spi.c **** 
 846:Generated_Source\PSoC6\pdl\drivers\peripheral\scb/cy_scb_spi.c ****     /* RX direction */
 847:Generated_Source\PSoC6\pdl\drivers\peripheral\scb/cy_scb_spi.c ****     if (0UL != (CY_SCB_RX_INTR_LEVEL & Cy_SCB_GetRxInterruptStatusMasked(base)))
 3337              		.loc 3 847 0
 3338 00d8 7B68     		ldr	r3, [r7, #4]
 3339 00da 1800     		movs	r0, r3
 3340 00dc FFF7FEFF 		bl	Cy_SCB_GetRxInterruptStatusMasked
 3341 00e0 0200     		movs	r2, r0
 3342 00e2 0123     		movs	r3, #1
 3343 00e4 1340     		ands	r3, r2
 3344 00e6 0AD0     		beq	.L228
 848:Generated_Source\PSoC6\pdl\drivers\peripheral\scb/cy_scb_spi.c ****     {
 849:Generated_Source\PSoC6\pdl\drivers\peripheral\scb/cy_scb_spi.c ****         HandleReceive(base, context);
 3345              		.loc 3 849 0
 3346 00e8 3A68     		ldr	r2, [r7]
 3347 00ea 7B68     		ldr	r3, [r7, #4]
 3348 00ec 1100     		movs	r1, r2
 3349 00ee 1800     		movs	r0, r3
 3350 00f0 FFF7FEFF 		bl	HandleReceive
 850:Generated_Source\PSoC6\pdl\drivers\peripheral\scb/cy_scb_spi.c **** 
 851:Generated_Source\PSoC6\pdl\drivers\peripheral\scb/cy_scb_spi.c ****         Cy_SCB_ClearRxInterrupt(base, CY_SCB_RX_INTR_LEVEL);
 3351              		.loc 3 851 0
 3352 00f4 7B68     		ldr	r3, [r7, #4]
 3353 00f6 0121     		movs	r1, #1
 3354 00f8 1800     		movs	r0, r3
 3355 00fa FFF7FEFF 		bl	Cy_SCB_ClearRxInterrupt
 3356              	.L228:
 852:Generated_Source\PSoC6\pdl\drivers\peripheral\scb/cy_scb_spi.c ****     }
 853:Generated_Source\PSoC6\pdl\drivers\peripheral\scb/cy_scb_spi.c **** 
 854:Generated_Source\PSoC6\pdl\drivers\peripheral\scb/cy_scb_spi.c ****     /* TX direction */
 855:Generated_Source\PSoC6\pdl\drivers\peripheral\scb/cy_scb_spi.c ****     if (0UL != (CY_SCB_TX_INTR_LEVEL & Cy_SCB_GetTxInterruptStatusMasked(base)))
 3357              		.loc 3 855 0
 3358 00fe 7B68     		ldr	r3, [r7, #4]
 3359 0100 1800     		movs	r0, r3
 3360 0102 FFF7FEFF 		bl	Cy_SCB_GetTxInterruptStatusMasked
 3361 0106 0200     		movs	r2, r0
 3362 0108 0123     		movs	r3, #1
 3363 010a 1340     		ands	r3, r2
 3364 010c 0AD0     		beq	.L229
 856:Generated_Source\PSoC6\pdl\drivers\peripheral\scb/cy_scb_spi.c ****     {
 857:Generated_Source\PSoC6\pdl\drivers\peripheral\scb/cy_scb_spi.c ****         HandleTransmit(base, context);
 3365              		.loc 3 857 0
 3366 010e 3A68     		ldr	r2, [r7]
ARM GAS  C:\Users\salaz\AppData\Local\Temp\ccynHHO7.s 			page 133


 3367 0110 7B68     		ldr	r3, [r7, #4]
 3368 0112 1100     		movs	r1, r2
 3369 0114 1800     		movs	r0, r3
 3370 0116 FFF7FEFF 		bl	HandleTransmit
 858:Generated_Source\PSoC6\pdl\drivers\peripheral\scb/cy_scb_spi.c **** 
 859:Generated_Source\PSoC6\pdl\drivers\peripheral\scb/cy_scb_spi.c ****         Cy_SCB_ClearTxInterrupt(base, CY_SCB_TX_INTR_LEVEL);
 3371              		.loc 3 859 0
 3372 011a 7B68     		ldr	r3, [r7, #4]
 3373 011c 0121     		movs	r1, #1
 3374 011e 1800     		movs	r0, r3
 3375 0120 FFF7FEFF 		bl	Cy_SCB_ClearTxInterrupt
 3376              	.L229:
 860:Generated_Source\PSoC6\pdl\drivers\peripheral\scb/cy_scb_spi.c ****     }
 861:Generated_Source\PSoC6\pdl\drivers\peripheral\scb/cy_scb_spi.c **** 
 862:Generated_Source\PSoC6\pdl\drivers\peripheral\scb/cy_scb_spi.c ****     /* The transfer is complete: all data is loaded in the TX FIFO
 863:Generated_Source\PSoC6\pdl\drivers\peripheral\scb/cy_scb_spi.c ****     * and all data is read from the RX FIFO
 864:Generated_Source\PSoC6\pdl\drivers\peripheral\scb/cy_scb_spi.c ****     */
 865:Generated_Source\PSoC6\pdl\drivers\peripheral\scb/cy_scb_spi.c ****     if ((0UL != (context->status & CY_SCB_SPI_TRANSFER_ACTIVE)) &&
 3377              		.loc 3 865 0
 3378 0124 3B68     		ldr	r3, [r7]
 3379 0126 1B68     		ldr	r3, [r3]
 3380 0128 0122     		movs	r2, #1
 3381 012a 1340     		ands	r3, r2
 3382 012c 16D0     		beq	.L231
 866:Generated_Source\PSoC6\pdl\drivers\peripheral\scb/cy_scb_spi.c ****         (0UL == context->rxBufSize) && (0UL == context->txBufSize))
 3383              		.loc 3 866 0 discriminator 1
 3384 012e 3B68     		ldr	r3, [r7]
 3385 0130 9B68     		ldr	r3, [r3, #8]
 865:Generated_Source\PSoC6\pdl\drivers\peripheral\scb/cy_scb_spi.c ****         (0UL == context->rxBufSize) && (0UL == context->txBufSize))
 3386              		.loc 3 865 0 discriminator 1
 3387 0132 002B     		cmp	r3, #0
 3388 0134 12D1     		bne	.L231
 3389              		.loc 3 866 0
 3390 0136 3B68     		ldr	r3, [r7]
 3391 0138 5B69     		ldr	r3, [r3, #20]
 3392 013a 002B     		cmp	r3, #0
 3393 013c 0ED1     		bne	.L231
 867:Generated_Source\PSoC6\pdl\drivers\peripheral\scb/cy_scb_spi.c ****     {
 868:Generated_Source\PSoC6\pdl\drivers\peripheral\scb/cy_scb_spi.c ****         /* The transfer is complete */
 869:Generated_Source\PSoC6\pdl\drivers\peripheral\scb/cy_scb_spi.c ****         context->status &= (uint32_t) ~CY_SCB_SPI_TRANSFER_ACTIVE;
 3394              		.loc 3 869 0
 3395 013e 3B68     		ldr	r3, [r7]
 3396 0140 1B68     		ldr	r3, [r3]
 3397 0142 0122     		movs	r2, #1
 3398 0144 9343     		bics	r3, r2
 3399 0146 1A00     		movs	r2, r3
 3400 0148 3B68     		ldr	r3, [r7]
 3401 014a 1A60     		str	r2, [r3]
 870:Generated_Source\PSoC6\pdl\drivers\peripheral\scb/cy_scb_spi.c **** 
 871:Generated_Source\PSoC6\pdl\drivers\peripheral\scb/cy_scb_spi.c ****         if (NULL != context->cbEvents)
 3402              		.loc 3 871 0
 3403 014c 3B68     		ldr	r3, [r7]
 3404 014e DB69     		ldr	r3, [r3, #28]
 3405 0150 002B     		cmp	r3, #0
 3406 0152 03D0     		beq	.L231
 872:Generated_Source\PSoC6\pdl\drivers\peripheral\scb/cy_scb_spi.c ****         {
 873:Generated_Source\PSoC6\pdl\drivers\peripheral\scb/cy_scb_spi.c ****             context->cbEvents(CY_SCB_SPI_TRANSFER_CMPLT_EVENT);
ARM GAS  C:\Users\salaz\AppData\Local\Temp\ccynHHO7.s 			page 134


 3407              		.loc 3 873 0
 3408 0154 3B68     		ldr	r3, [r7]
 3409 0156 DB69     		ldr	r3, [r3, #28]
 3410 0158 0220     		movs	r0, #2
 3411 015a 9847     		blx	r3
 3412              	.L231:
 874:Generated_Source\PSoC6\pdl\drivers\peripheral\scb/cy_scb_spi.c ****         }
 875:Generated_Source\PSoC6\pdl\drivers\peripheral\scb/cy_scb_spi.c ****     }
 876:Generated_Source\PSoC6\pdl\drivers\peripheral\scb/cy_scb_spi.c **** }
 3413              		.loc 3 876 0
 3414 015c C046     		nop
 3415 015e BD46     		mov	sp, r7
 3416 0160 04B0     		add	sp, sp, #16
 3417              		@ sp needed
 3418 0162 80BD     		pop	{r7, pc}
 3419              		.cfi_endproc
 3420              	.LFE152:
 3421              		.size	Cy_SCB_SPI_Interrupt, .-Cy_SCB_SPI_Interrupt
 3422              		.section	.text.HandleReceive,"ax",%progbits
 3423              		.align	2
 3424              		.code	16
 3425              		.thumb_func
 3426              		.type	HandleReceive, %function
 3427              	HandleReceive:
 3428              	.LFB153:
 877:Generated_Source\PSoC6\pdl\drivers\peripheral\scb/cy_scb_spi.c **** 
 878:Generated_Source\PSoC6\pdl\drivers\peripheral\scb/cy_scb_spi.c **** 
 879:Generated_Source\PSoC6\pdl\drivers\peripheral\scb/cy_scb_spi.c **** /*******************************************************************************
 880:Generated_Source\PSoC6\pdl\drivers\peripheral\scb/cy_scb_spi.c **** * Function Name: HandleReceive
 881:Generated_Source\PSoC6\pdl\drivers\peripheral\scb/cy_scb_spi.c **** ****************************************************************************//**
 882:Generated_Source\PSoC6\pdl\drivers\peripheral\scb/cy_scb_spi.c **** *
 883:Generated_Source\PSoC6\pdl\drivers\peripheral\scb/cy_scb_spi.c **** * Reads data from RX FIFO into the buffer provided by \ref Cy_SCB_SPI_Transfer.
 884:Generated_Source\PSoC6\pdl\drivers\peripheral\scb/cy_scb_spi.c **** *
 885:Generated_Source\PSoC6\pdl\drivers\peripheral\scb/cy_scb_spi.c **** * \param base
 886:Generated_Source\PSoC6\pdl\drivers\peripheral\scb/cy_scb_spi.c **** * The pointer to the SPI SCB instance.
 887:Generated_Source\PSoC6\pdl\drivers\peripheral\scb/cy_scb_spi.c **** *
 888:Generated_Source\PSoC6\pdl\drivers\peripheral\scb/cy_scb_spi.c **** * \param context
 889:Generated_Source\PSoC6\pdl\drivers\peripheral\scb/cy_scb_spi.c **** * The pointer to the context structure \ref cy_stc_scb_spi_context_t allocated
 890:Generated_Source\PSoC6\pdl\drivers\peripheral\scb/cy_scb_spi.c **** * by the user. The structure is used during the SPI operation for internal
 891:Generated_Source\PSoC6\pdl\drivers\peripheral\scb/cy_scb_spi.c **** * configuration and data retention. The user must not modify anything
 892:Generated_Source\PSoC6\pdl\drivers\peripheral\scb/cy_scb_spi.c **** * in this structure.
 893:Generated_Source\PSoC6\pdl\drivers\peripheral\scb/cy_scb_spi.c **** *
 894:Generated_Source\PSoC6\pdl\drivers\peripheral\scb/cy_scb_spi.c **** *******************************************************************************/
 895:Generated_Source\PSoC6\pdl\drivers\peripheral\scb/cy_scb_spi.c **** static void HandleReceive(CySCB_Type *base, cy_stc_scb_spi_context_t *context)
 896:Generated_Source\PSoC6\pdl\drivers\peripheral\scb/cy_scb_spi.c **** {
 3429              		.loc 3 896 0
 3430              		.cfi_startproc
 3431              		@ args = 0, pretend = 0, frame = 24
 3432              		@ frame_needed = 1, uses_anonymous_args = 0
 3433 0000 80B5     		push	{r7, lr}
 3434              		.cfi_def_cfa_offset 8
 3435              		.cfi_offset 7, -8
 3436              		.cfi_offset 14, -4
 3437 0002 86B0     		sub	sp, sp, #24
 3438              		.cfi_def_cfa_offset 32
 3439 0004 00AF     		add	r7, sp, #0
 3440              		.cfi_def_cfa_register 7
ARM GAS  C:\Users\salaz\AppData\Local\Temp\ccynHHO7.s 			page 135


 3441 0006 7860     		str	r0, [r7, #4]
 3442 0008 3960     		str	r1, [r7]
 897:Generated_Source\PSoC6\pdl\drivers\peripheral\scb/cy_scb_spi.c ****     /* Get data in RX FIFO */
 898:Generated_Source\PSoC6\pdl\drivers\peripheral\scb/cy_scb_spi.c ****     uint32_t numToCopy = Cy_SCB_GetNumInRxFifo(base);
 3443              		.loc 3 898 0
 3444 000a 7B68     		ldr	r3, [r7, #4]
 3445 000c 1800     		movs	r0, r3
 3446 000e FFF7FEFF 		bl	Cy_SCB_GetNumInRxFifo
 3447 0012 0300     		movs	r3, r0
 3448 0014 7B61     		str	r3, [r7, #20]
 899:Generated_Source\PSoC6\pdl\drivers\peripheral\scb/cy_scb_spi.c **** 
 900:Generated_Source\PSoC6\pdl\drivers\peripheral\scb/cy_scb_spi.c ****     /* Adjust the number to read */
 901:Generated_Source\PSoC6\pdl\drivers\peripheral\scb/cy_scb_spi.c ****     if (numToCopy > context->rxBufSize)
 3449              		.loc 3 901 0
 3450 0016 3B68     		ldr	r3, [r7]
 3451 0018 9A68     		ldr	r2, [r3, #8]
 3452 001a 7B69     		ldr	r3, [r7, #20]
 3453 001c 9A42     		cmp	r2, r3
 3454 001e 02D2     		bcs	.L233
 902:Generated_Source\PSoC6\pdl\drivers\peripheral\scb/cy_scb_spi.c ****     {
 903:Generated_Source\PSoC6\pdl\drivers\peripheral\scb/cy_scb_spi.c ****         numToCopy = context->rxBufSize;
 3455              		.loc 3 903 0
 3456 0020 3B68     		ldr	r3, [r7]
 3457 0022 9B68     		ldr	r3, [r3, #8]
 3458 0024 7B61     		str	r3, [r7, #20]
 3459              	.L233:
 904:Generated_Source\PSoC6\pdl\drivers\peripheral\scb/cy_scb_spi.c ****     }
 905:Generated_Source\PSoC6\pdl\drivers\peripheral\scb/cy_scb_spi.c **** 
 906:Generated_Source\PSoC6\pdl\drivers\peripheral\scb/cy_scb_spi.c ****     /* Move the buffer */
 907:Generated_Source\PSoC6\pdl\drivers\peripheral\scb/cy_scb_spi.c ****     context->rxBufIdx  += numToCopy;
 3460              		.loc 3 907 0
 3461 0026 3B68     		ldr	r3, [r7]
 3462 0028 DA68     		ldr	r2, [r3, #12]
 3463 002a 7B69     		ldr	r3, [r7, #20]
 3464 002c D218     		adds	r2, r2, r3
 3465 002e 3B68     		ldr	r3, [r7]
 3466 0030 DA60     		str	r2, [r3, #12]
 908:Generated_Source\PSoC6\pdl\drivers\peripheral\scb/cy_scb_spi.c ****     context->rxBufSize -= numToCopy;
 3467              		.loc 3 908 0
 3468 0032 3B68     		ldr	r3, [r7]
 3469 0034 9A68     		ldr	r2, [r3, #8]
 3470 0036 7B69     		ldr	r3, [r7, #20]
 3471 0038 D21A     		subs	r2, r2, r3
 3472 003a 3B68     		ldr	r3, [r7]
 3473 003c 9A60     		str	r2, [r3, #8]
 909:Generated_Source\PSoC6\pdl\drivers\peripheral\scb/cy_scb_spi.c **** 
 910:Generated_Source\PSoC6\pdl\drivers\peripheral\scb/cy_scb_spi.c ****     /* Read data from RX FIFO */
 911:Generated_Source\PSoC6\pdl\drivers\peripheral\scb/cy_scb_spi.c ****     if (NULL != context->rxBuf)
 3474              		.loc 3 911 0
 3475 003e 3B68     		ldr	r3, [r7]
 3476 0040 5B68     		ldr	r3, [r3, #4]
 3477 0042 002B     		cmp	r3, #0
 3478 0044 1AD0     		beq	.L234
 3479              	.LBB3:
 912:Generated_Source\PSoC6\pdl\drivers\peripheral\scb/cy_scb_spi.c ****     {
 913:Generated_Source\PSoC6\pdl\drivers\peripheral\scb/cy_scb_spi.c ****         uint8_t *buf = (uint8_t *) context->rxBuf;
 3480              		.loc 3 913 0
ARM GAS  C:\Users\salaz\AppData\Local\Temp\ccynHHO7.s 			page 136


 3481 0046 3B68     		ldr	r3, [r7]
 3482 0048 5B68     		ldr	r3, [r3, #4]
 3483 004a 3B61     		str	r3, [r7, #16]
 914:Generated_Source\PSoC6\pdl\drivers\peripheral\scb/cy_scb_spi.c **** 
 915:Generated_Source\PSoC6\pdl\drivers\peripheral\scb/cy_scb_spi.c ****         Cy_SCB_ReadArrayNoCheck(base, context->rxBuf, numToCopy);
 3484              		.loc 3 915 0
 3485 004c 3B68     		ldr	r3, [r7]
 3486 004e 5968     		ldr	r1, [r3, #4]
 3487 0050 7A69     		ldr	r2, [r7, #20]
 3488 0052 7B68     		ldr	r3, [r7, #4]
 3489 0054 1800     		movs	r0, r3
 3490 0056 FFF7FEFF 		bl	Cy_SCB_ReadArrayNoCheck
 916:Generated_Source\PSoC6\pdl\drivers\peripheral\scb/cy_scb_spi.c **** 
 917:Generated_Source\PSoC6\pdl\drivers\peripheral\scb/cy_scb_spi.c ****         buf = &buf[(Cy_SCB_IsRxDataWidthByte(base) ? (numToCopy) : (2UL * numToCopy))];
 3491              		.loc 3 917 0
 3492 005a 7B68     		ldr	r3, [r7, #4]
 3493 005c 1800     		movs	r0, r3
 3494 005e FFF7FEFF 		bl	Cy_SCB_IsRxDataWidthByte
 3495 0062 031E     		subs	r3, r0, #0
 3496 0064 01D0     		beq	.L235
 3497              		.loc 3 917 0 is_stmt 0 discriminator 1
 3498 0066 7B69     		ldr	r3, [r7, #20]
 3499 0068 01E0     		b	.L236
 3500              	.L235:
 3501              		.loc 3 917 0 discriminator 2
 3502 006a 7B69     		ldr	r3, [r7, #20]
 3503 006c 5B00     		lsls	r3, r3, #1
 3504              	.L236:
 3505              		.loc 3 917 0 discriminator 4
 3506 006e 3A69     		ldr	r2, [r7, #16]
 3507 0070 D318     		adds	r3, r2, r3
 3508 0072 3B61     		str	r3, [r7, #16]
 918:Generated_Source\PSoC6\pdl\drivers\peripheral\scb/cy_scb_spi.c ****         context->rxBuf = (void *) buf;
 3509              		.loc 3 918 0 is_stmt 1 discriminator 4
 3510 0074 3B68     		ldr	r3, [r7]
 3511 0076 3A69     		ldr	r2, [r7, #16]
 3512 0078 5A60     		str	r2, [r3, #4]
 3513              	.LBE3:
 3514 007a 05E0     		b	.L237
 3515              	.L234:
 919:Generated_Source\PSoC6\pdl\drivers\peripheral\scb/cy_scb_spi.c ****     }
 920:Generated_Source\PSoC6\pdl\drivers\peripheral\scb/cy_scb_spi.c ****     else
 921:Generated_Source\PSoC6\pdl\drivers\peripheral\scb/cy_scb_spi.c ****     {
 922:Generated_Source\PSoC6\pdl\drivers\peripheral\scb/cy_scb_spi.c ****         /* Discard read data. */
 923:Generated_Source\PSoC6\pdl\drivers\peripheral\scb/cy_scb_spi.c ****         DiscardArrayNoCheck(base, numToCopy);
 3516              		.loc 3 923 0
 3517 007c 7A69     		ldr	r2, [r7, #20]
 3518 007e 7B68     		ldr	r3, [r7, #4]
 3519 0080 1100     		movs	r1, r2
 3520 0082 1800     		movs	r0, r3
 3521 0084 FFF7FEFF 		bl	DiscardArrayNoCheck
 3522              	.L237:
 924:Generated_Source\PSoC6\pdl\drivers\peripheral\scb/cy_scb_spi.c ****     }
 925:Generated_Source\PSoC6\pdl\drivers\peripheral\scb/cy_scb_spi.c **** 
 926:Generated_Source\PSoC6\pdl\drivers\peripheral\scb/cy_scb_spi.c ****     if (0UL == context->rxBufSize)
 3523              		.loc 3 926 0
 3524 0088 3B68     		ldr	r3, [r7]
ARM GAS  C:\Users\salaz\AppData\Local\Temp\ccynHHO7.s 			page 137


 3525 008a 9B68     		ldr	r3, [r3, #8]
 3526 008c 002B     		cmp	r3, #0
 3527 008e 0CD1     		bne	.L238
 927:Generated_Source\PSoC6\pdl\drivers\peripheral\scb/cy_scb_spi.c ****     {
 928:Generated_Source\PSoC6\pdl\drivers\peripheral\scb/cy_scb_spi.c ****         /* Disable the RX level interrupt */
 929:Generated_Source\PSoC6\pdl\drivers\peripheral\scb/cy_scb_spi.c ****         Cy_SCB_SetRxInterruptMask(base, (Cy_SCB_GetRxInterruptMask(base) & (uint32_t) ~CY_SCB_RX_IN
 3528              		.loc 3 929 0
 3529 0090 7B68     		ldr	r3, [r7, #4]
 3530 0092 1800     		movs	r0, r3
 3531 0094 FFF7FEFF 		bl	Cy_SCB_GetRxInterruptMask
 3532 0098 0200     		movs	r2, r0
 3533 009a 0123     		movs	r3, #1
 3534 009c 9A43     		bics	r2, r3
 3535 009e 7B68     		ldr	r3, [r7, #4]
 3536 00a0 1100     		movs	r1, r2
 3537 00a2 1800     		movs	r0, r3
 3538 00a4 FFF7FEFF 		bl	Cy_SCB_SetRxInterruptMask
 930:Generated_Source\PSoC6\pdl\drivers\peripheral\scb/cy_scb_spi.c ****     }
 931:Generated_Source\PSoC6\pdl\drivers\peripheral\scb/cy_scb_spi.c ****     else
 932:Generated_Source\PSoC6\pdl\drivers\peripheral\scb/cy_scb_spi.c ****     {
 933:Generated_Source\PSoC6\pdl\drivers\peripheral\scb/cy_scb_spi.c ****         uint32_t level = (_FLD2BOOL(SCB_SPI_CTRL_MASTER_MODE, base->SPI_CTRL)) ?
 934:Generated_Source\PSoC6\pdl\drivers\peripheral\scb/cy_scb_spi.c ****                                     Cy_SCB_GetFifoSize(base) : (Cy_SCB_GetFifoSize(base) / 2UL);
 935:Generated_Source\PSoC6\pdl\drivers\peripheral\scb/cy_scb_spi.c **** 
 936:Generated_Source\PSoC6\pdl\drivers\peripheral\scb/cy_scb_spi.c ****         if (context->rxBufSize < level)
 937:Generated_Source\PSoC6\pdl\drivers\peripheral\scb/cy_scb_spi.c ****         {
 938:Generated_Source\PSoC6\pdl\drivers\peripheral\scb/cy_scb_spi.c ****             Cy_SCB_SetRxFifoLevel(base, (context->rxBufSize - 1UL));
 939:Generated_Source\PSoC6\pdl\drivers\peripheral\scb/cy_scb_spi.c ****         }
 940:Generated_Source\PSoC6\pdl\drivers\peripheral\scb/cy_scb_spi.c ****     }
 941:Generated_Source\PSoC6\pdl\drivers\peripheral\scb/cy_scb_spi.c **** }
 3539              		.loc 3 941 0
 3540 00a8 1DE0     		b	.L242
 3541              	.L238:
 3542              	.LBB4:
 933:Generated_Source\PSoC6\pdl\drivers\peripheral\scb/cy_scb_spi.c ****                                     Cy_SCB_GetFifoSize(base) : (Cy_SCB_GetFifoSize(base) / 2UL);
 3543              		.loc 3 933 0
 3544 00aa 7B68     		ldr	r3, [r7, #4]
 3545 00ac 1B6A     		ldr	r3, [r3, #32]
 934:Generated_Source\PSoC6\pdl\drivers\peripheral\scb/cy_scb_spi.c **** 
 3546              		.loc 3 934 0
 3547 00ae 002B     		cmp	r3, #0
 3548 00b0 05DA     		bge	.L240
 934:Generated_Source\PSoC6\pdl\drivers\peripheral\scb/cy_scb_spi.c **** 
 3549              		.loc 3 934 0 is_stmt 0 discriminator 1
 3550 00b2 7B68     		ldr	r3, [r7, #4]
 3551 00b4 1800     		movs	r0, r3
 3552 00b6 FFF7FEFF 		bl	Cy_SCB_GetFifoSize
 3553 00ba 0300     		movs	r3, r0
 3554 00bc 05E0     		b	.L241
 3555              	.L240:
 934:Generated_Source\PSoC6\pdl\drivers\peripheral\scb/cy_scb_spi.c **** 
 3556              		.loc 3 934 0 discriminator 2
 3557 00be 7B68     		ldr	r3, [r7, #4]
 3558 00c0 1800     		movs	r0, r3
 3559 00c2 FFF7FEFF 		bl	Cy_SCB_GetFifoSize
 3560 00c6 0300     		movs	r3, r0
 3561 00c8 5B08     		lsrs	r3, r3, #1
 3562              	.L241:
ARM GAS  C:\Users\salaz\AppData\Local\Temp\ccynHHO7.s 			page 138


 933:Generated_Source\PSoC6\pdl\drivers\peripheral\scb/cy_scb_spi.c ****                                     Cy_SCB_GetFifoSize(base) : (Cy_SCB_GetFifoSize(base) / 2UL);
 3563              		.loc 3 933 0 is_stmt 1
 3564 00ca FB60     		str	r3, [r7, #12]
 936:Generated_Source\PSoC6\pdl\drivers\peripheral\scb/cy_scb_spi.c ****         {
 3565              		.loc 3 936 0
 3566 00cc 3B68     		ldr	r3, [r7]
 3567 00ce 9A68     		ldr	r2, [r3, #8]
 3568 00d0 FB68     		ldr	r3, [r7, #12]
 3569 00d2 9A42     		cmp	r2, r3
 3570 00d4 07D2     		bcs	.L242
 938:Generated_Source\PSoC6\pdl\drivers\peripheral\scb/cy_scb_spi.c ****         }
 3571              		.loc 3 938 0
 3572 00d6 3B68     		ldr	r3, [r7]
 3573 00d8 9B68     		ldr	r3, [r3, #8]
 3574 00da 5A1E     		subs	r2, r3, #1
 3575 00dc 7B68     		ldr	r3, [r7, #4]
 3576 00de 1100     		movs	r1, r2
 3577 00e0 1800     		movs	r0, r3
 3578 00e2 FFF7FEFF 		bl	Cy_SCB_SetRxFifoLevel
 3579              	.L242:
 3580              	.LBE4:
 3581              		.loc 3 941 0
 3582 00e6 C046     		nop
 3583 00e8 BD46     		mov	sp, r7
 3584 00ea 06B0     		add	sp, sp, #24
 3585              		@ sp needed
 3586 00ec 80BD     		pop	{r7, pc}
 3587              		.cfi_endproc
 3588              	.LFE153:
 3589              		.size	HandleReceive, .-HandleReceive
 3590 00ee C046     		.section	.text.HandleTransmit,"ax",%progbits
 3591              		.align	2
 3592              		.code	16
 3593              		.thumb_func
 3594              		.type	HandleTransmit, %function
 3595              	HandleTransmit:
 3596              	.LFB154:
 942:Generated_Source\PSoC6\pdl\drivers\peripheral\scb/cy_scb_spi.c **** 
 943:Generated_Source\PSoC6\pdl\drivers\peripheral\scb/cy_scb_spi.c **** 
 944:Generated_Source\PSoC6\pdl\drivers\peripheral\scb/cy_scb_spi.c **** /*******************************************************************************
 945:Generated_Source\PSoC6\pdl\drivers\peripheral\scb/cy_scb_spi.c **** * Function Name: HandleTransmit
 946:Generated_Source\PSoC6\pdl\drivers\peripheral\scb/cy_scb_spi.c **** ****************************************************************************//**
 947:Generated_Source\PSoC6\pdl\drivers\peripheral\scb/cy_scb_spi.c **** *
 948:Generated_Source\PSoC6\pdl\drivers\peripheral\scb/cy_scb_spi.c **** * Loads TX FIFO with data provided by \ref Cy_SCB_SPI_Transfer.
 949:Generated_Source\PSoC6\pdl\drivers\peripheral\scb/cy_scb_spi.c **** *
 950:Generated_Source\PSoC6\pdl\drivers\peripheral\scb/cy_scb_spi.c **** * \param base
 951:Generated_Source\PSoC6\pdl\drivers\peripheral\scb/cy_scb_spi.c **** * The pointer to the SPI SCB instance.
 952:Generated_Source\PSoC6\pdl\drivers\peripheral\scb/cy_scb_spi.c **** *
 953:Generated_Source\PSoC6\pdl\drivers\peripheral\scb/cy_scb_spi.c **** * \param context
 954:Generated_Source\PSoC6\pdl\drivers\peripheral\scb/cy_scb_spi.c **** * The pointer to the context structure \ref cy_stc_scb_spi_context_t allocated
 955:Generated_Source\PSoC6\pdl\drivers\peripheral\scb/cy_scb_spi.c **** * by the user. The structure is used during the SPI operation for internal
 956:Generated_Source\PSoC6\pdl\drivers\peripheral\scb/cy_scb_spi.c **** * configuration and data retention. The user must not modify anything
 957:Generated_Source\PSoC6\pdl\drivers\peripheral\scb/cy_scb_spi.c **** * in this structure.
 958:Generated_Source\PSoC6\pdl\drivers\peripheral\scb/cy_scb_spi.c **** *
 959:Generated_Source\PSoC6\pdl\drivers\peripheral\scb/cy_scb_spi.c **** *******************************************************************************/
 960:Generated_Source\PSoC6\pdl\drivers\peripheral\scb/cy_scb_spi.c **** static void HandleTransmit(CySCB_Type *base, cy_stc_scb_spi_context_t *context)
 961:Generated_Source\PSoC6\pdl\drivers\peripheral\scb/cy_scb_spi.c **** {
ARM GAS  C:\Users\salaz\AppData\Local\Temp\ccynHHO7.s 			page 139


 3597              		.loc 3 961 0
 3598              		.cfi_startproc
 3599              		@ args = 0, pretend = 0, frame = 24
 3600              		@ frame_needed = 1, uses_anonymous_args = 0
 3601 0000 80B5     		push	{r7, lr}
 3602              		.cfi_def_cfa_offset 8
 3603              		.cfi_offset 7, -8
 3604              		.cfi_offset 14, -4
 3605 0002 86B0     		sub	sp, sp, #24
 3606              		.cfi_def_cfa_offset 32
 3607 0004 00AF     		add	r7, sp, #0
 3608              		.cfi_def_cfa_register 7
 3609 0006 7860     		str	r0, [r7, #4]
 3610 0008 3960     		str	r1, [r7]
 962:Generated_Source\PSoC6\pdl\drivers\peripheral\scb/cy_scb_spi.c ****     uint32_t numToCopy;
 963:Generated_Source\PSoC6\pdl\drivers\peripheral\scb/cy_scb_spi.c ****     uint32_t fifoSize = Cy_SCB_GetFifoSize(base);
 3611              		.loc 3 963 0
 3612 000a 7B68     		ldr	r3, [r7, #4]
 3613 000c 1800     		movs	r0, r3
 3614 000e FFF7FEFF 		bl	Cy_SCB_GetFifoSize
 3615 0012 0300     		movs	r3, r0
 3616 0014 3B61     		str	r3, [r7, #16]
 964:Generated_Source\PSoC6\pdl\drivers\peripheral\scb/cy_scb_spi.c **** 
 965:Generated_Source\PSoC6\pdl\drivers\peripheral\scb/cy_scb_spi.c ****     numToCopy = fifoSize - Cy_SCB_GetNumInTxFifo(base);
 3617              		.loc 3 965 0
 3618 0016 7B68     		ldr	r3, [r7, #4]
 3619 0018 1800     		movs	r0, r3
 3620 001a FFF7FEFF 		bl	Cy_SCB_GetNumInTxFifo
 3621 001e 0200     		movs	r2, r0
 3622 0020 3B69     		ldr	r3, [r7, #16]
 3623 0022 9B1A     		subs	r3, r3, r2
 3624 0024 7B61     		str	r3, [r7, #20]
 966:Generated_Source\PSoC6\pdl\drivers\peripheral\scb/cy_scb_spi.c **** 
 967:Generated_Source\PSoC6\pdl\drivers\peripheral\scb/cy_scb_spi.c ****     /* Adjust the number to load */
 968:Generated_Source\PSoC6\pdl\drivers\peripheral\scb/cy_scb_spi.c ****     if (numToCopy > context->txBufSize)
 3625              		.loc 3 968 0
 3626 0026 3B68     		ldr	r3, [r7]
 3627 0028 5A69     		ldr	r2, [r3, #20]
 3628 002a 7B69     		ldr	r3, [r7, #20]
 3629 002c 9A42     		cmp	r2, r3
 3630 002e 02D2     		bcs	.L244
 969:Generated_Source\PSoC6\pdl\drivers\peripheral\scb/cy_scb_spi.c ****     {
 970:Generated_Source\PSoC6\pdl\drivers\peripheral\scb/cy_scb_spi.c ****         numToCopy = context->txBufSize;
 3631              		.loc 3 970 0
 3632 0030 3B68     		ldr	r3, [r7]
 3633 0032 5B69     		ldr	r3, [r3, #20]
 3634 0034 7B61     		str	r3, [r7, #20]
 3635              	.L244:
 971:Generated_Source\PSoC6\pdl\drivers\peripheral\scb/cy_scb_spi.c ****     }
 972:Generated_Source\PSoC6\pdl\drivers\peripheral\scb/cy_scb_spi.c **** 
 973:Generated_Source\PSoC6\pdl\drivers\peripheral\scb/cy_scb_spi.c ****     /* Move the buffer */
 974:Generated_Source\PSoC6\pdl\drivers\peripheral\scb/cy_scb_spi.c ****     context->txBufIdx  += numToCopy;
 3636              		.loc 3 974 0
 3637 0036 3B68     		ldr	r3, [r7]
 3638 0038 9A69     		ldr	r2, [r3, #24]
 3639 003a 7B69     		ldr	r3, [r7, #20]
 3640 003c D218     		adds	r2, r2, r3
ARM GAS  C:\Users\salaz\AppData\Local\Temp\ccynHHO7.s 			page 140


 3641 003e 3B68     		ldr	r3, [r7]
 3642 0040 9A61     		str	r2, [r3, #24]
 975:Generated_Source\PSoC6\pdl\drivers\peripheral\scb/cy_scb_spi.c ****     context->txBufSize -= numToCopy;
 3643              		.loc 3 975 0
 3644 0042 3B68     		ldr	r3, [r7]
 3645 0044 5A69     		ldr	r2, [r3, #20]
 3646 0046 7B69     		ldr	r3, [r7, #20]
 3647 0048 D21A     		subs	r2, r2, r3
 3648 004a 3B68     		ldr	r3, [r7]
 3649 004c 5A61     		str	r2, [r3, #20]
 976:Generated_Source\PSoC6\pdl\drivers\peripheral\scb/cy_scb_spi.c **** 
 977:Generated_Source\PSoC6\pdl\drivers\peripheral\scb/cy_scb_spi.c ****     /* Load TX FIFO with data */
 978:Generated_Source\PSoC6\pdl\drivers\peripheral\scb/cy_scb_spi.c ****     if (NULL != context->txBuf)
 3650              		.loc 3 978 0
 3651 004e 3B68     		ldr	r3, [r7]
 3652 0050 1B69     		ldr	r3, [r3, #16]
 3653 0052 002B     		cmp	r3, #0
 3654 0054 1AD0     		beq	.L245
 3655              	.LBB5:
 979:Generated_Source\PSoC6\pdl\drivers\peripheral\scb/cy_scb_spi.c ****     {
 980:Generated_Source\PSoC6\pdl\drivers\peripheral\scb/cy_scb_spi.c ****         uint8_t *buf = (uint8_t *) context->txBuf;
 3656              		.loc 3 980 0
 3657 0056 3B68     		ldr	r3, [r7]
 3658 0058 1B69     		ldr	r3, [r3, #16]
 3659 005a FB60     		str	r3, [r7, #12]
 981:Generated_Source\PSoC6\pdl\drivers\peripheral\scb/cy_scb_spi.c **** 
 982:Generated_Source\PSoC6\pdl\drivers\peripheral\scb/cy_scb_spi.c ****         Cy_SCB_WriteArrayNoCheck(base, context->txBuf, numToCopy);
 3660              		.loc 3 982 0
 3661 005c 3B68     		ldr	r3, [r7]
 3662 005e 1969     		ldr	r1, [r3, #16]
 3663 0060 7A69     		ldr	r2, [r7, #20]
 3664 0062 7B68     		ldr	r3, [r7, #4]
 3665 0064 1800     		movs	r0, r3
 3666 0066 FFF7FEFF 		bl	Cy_SCB_WriteArrayNoCheck
 983:Generated_Source\PSoC6\pdl\drivers\peripheral\scb/cy_scb_spi.c **** 
 984:Generated_Source\PSoC6\pdl\drivers\peripheral\scb/cy_scb_spi.c ****         buf = &buf[(Cy_SCB_IsTxDataWidthByte(base) ? (numToCopy) : (2UL * numToCopy))];
 3667              		.loc 3 984 0
 3668 006a 7B68     		ldr	r3, [r7, #4]
 3669 006c 1800     		movs	r0, r3
 3670 006e FFF7FEFF 		bl	Cy_SCB_IsTxDataWidthByte
 3671 0072 031E     		subs	r3, r0, #0
 3672 0074 01D0     		beq	.L246
 3673              		.loc 3 984 0 is_stmt 0 discriminator 1
 3674 0076 7B69     		ldr	r3, [r7, #20]
 3675 0078 01E0     		b	.L247
 3676              	.L246:
 3677              		.loc 3 984 0 discriminator 2
 3678 007a 7B69     		ldr	r3, [r7, #20]
 3679 007c 5B00     		lsls	r3, r3, #1
 3680              	.L247:
 3681              		.loc 3 984 0 discriminator 4
 3682 007e FA68     		ldr	r2, [r7, #12]
 3683 0080 D318     		adds	r3, r2, r3
 3684 0082 FB60     		str	r3, [r7, #12]
 985:Generated_Source\PSoC6\pdl\drivers\peripheral\scb/cy_scb_spi.c ****         context->txBuf = (void *) buf;
 3685              		.loc 3 985 0 is_stmt 1 discriminator 4
 3686 0084 3B68     		ldr	r3, [r7]
ARM GAS  C:\Users\salaz\AppData\Local\Temp\ccynHHO7.s 			page 141


 3687 0086 FA68     		ldr	r2, [r7, #12]
 3688 0088 1A61     		str	r2, [r3, #16]
 3689              	.LBE5:
 3690 008a 05E0     		b	.L248
 3691              	.L245:
 986:Generated_Source\PSoC6\pdl\drivers\peripheral\scb/cy_scb_spi.c ****     }
 987:Generated_Source\PSoC6\pdl\drivers\peripheral\scb/cy_scb_spi.c ****     else
 988:Generated_Source\PSoC6\pdl\drivers\peripheral\scb/cy_scb_spi.c ****     {
 989:Generated_Source\PSoC6\pdl\drivers\peripheral\scb/cy_scb_spi.c ****         Cy_SCB_WriteDefaultArrayNoCheck(base, CY_SCB_SPI_DEFAULT_TX, numToCopy);
 3692              		.loc 3 989 0
 3693 008c 7A69     		ldr	r2, [r7, #20]
 3694 008e 1349     		ldr	r1, .L251
 3695 0090 7B68     		ldr	r3, [r7, #4]
 3696 0092 1800     		movs	r0, r3
 3697 0094 FFF7FEFF 		bl	Cy_SCB_WriteDefaultArrayNoCheck
 3698              	.L248:
 990:Generated_Source\PSoC6\pdl\drivers\peripheral\scb/cy_scb_spi.c ****     }
 991:Generated_Source\PSoC6\pdl\drivers\peripheral\scb/cy_scb_spi.c **** 
 992:Generated_Source\PSoC6\pdl\drivers\peripheral\scb/cy_scb_spi.c ****     if (0UL == context->txBufSize)
 3699              		.loc 3 992 0
 3700 0098 3B68     		ldr	r3, [r7]
 3701 009a 5B69     		ldr	r3, [r3, #20]
 3702 009c 002B     		cmp	r3, #0
 3703 009e 19D1     		bne	.L250
 993:Generated_Source\PSoC6\pdl\drivers\peripheral\scb/cy_scb_spi.c ****     {
 994:Generated_Source\PSoC6\pdl\drivers\peripheral\scb/cy_scb_spi.c ****         /* Data is transferred into TX FIFO */
 995:Generated_Source\PSoC6\pdl\drivers\peripheral\scb/cy_scb_spi.c ****         context->status |= CY_SCB_SPI_TRANSFER_IN_FIFO;
 3704              		.loc 3 995 0
 3705 00a0 3B68     		ldr	r3, [r7]
 3706 00a2 1B68     		ldr	r3, [r3]
 3707 00a4 0222     		movs	r2, #2
 3708 00a6 1A43     		orrs	r2, r3
 3709 00a8 3B68     		ldr	r3, [r7]
 3710 00aa 1A60     		str	r2, [r3]
 996:Generated_Source\PSoC6\pdl\drivers\peripheral\scb/cy_scb_spi.c **** 
 997:Generated_Source\PSoC6\pdl\drivers\peripheral\scb/cy_scb_spi.c ****         /* Disable the TX level interrupt */
 998:Generated_Source\PSoC6\pdl\drivers\peripheral\scb/cy_scb_spi.c ****         Cy_SCB_SetTxInterruptMask(base, (Cy_SCB_GetTxInterruptMask(base) & (uint32_t) ~CY_SCB_TX_IN
 3711              		.loc 3 998 0
 3712 00ac 7B68     		ldr	r3, [r7, #4]
 3713 00ae 1800     		movs	r0, r3
 3714 00b0 FFF7FEFF 		bl	Cy_SCB_GetTxInterruptMask
 3715 00b4 0200     		movs	r2, r0
 3716 00b6 0123     		movs	r3, #1
 3717 00b8 9A43     		bics	r2, r3
 3718 00ba 7B68     		ldr	r3, [r7, #4]
 3719 00bc 1100     		movs	r1, r2
 3720 00be 1800     		movs	r0, r3
 3721 00c0 FFF7FEFF 		bl	Cy_SCB_SetTxInterruptMask
 999:Generated_Source\PSoC6\pdl\drivers\peripheral\scb/cy_scb_spi.c **** 
1000:Generated_Source\PSoC6\pdl\drivers\peripheral\scb/cy_scb_spi.c ****         if (NULL != context->cbEvents)
 3722              		.loc 3 1000 0
 3723 00c4 3B68     		ldr	r3, [r7]
 3724 00c6 DB69     		ldr	r3, [r3, #28]
 3725 00c8 002B     		cmp	r3, #0
 3726 00ca 03D0     		beq	.L250
1001:Generated_Source\PSoC6\pdl\drivers\peripheral\scb/cy_scb_spi.c ****         {
1002:Generated_Source\PSoC6\pdl\drivers\peripheral\scb/cy_scb_spi.c ****             context->cbEvents(CY_SCB_SPI_TRANSFER_IN_FIFO_EVENT);
ARM GAS  C:\Users\salaz\AppData\Local\Temp\ccynHHO7.s 			page 142


 3727              		.loc 3 1002 0
 3728 00cc 3B68     		ldr	r3, [r7]
 3729 00ce DB69     		ldr	r3, [r3, #28]
 3730 00d0 0120     		movs	r0, #1
 3731 00d2 9847     		blx	r3
 3732              	.L250:
1003:Generated_Source\PSoC6\pdl\drivers\peripheral\scb/cy_scb_spi.c ****         }
1004:Generated_Source\PSoC6\pdl\drivers\peripheral\scb/cy_scb_spi.c ****     }
1005:Generated_Source\PSoC6\pdl\drivers\peripheral\scb/cy_scb_spi.c **** }
 3733              		.loc 3 1005 0
 3734 00d4 C046     		nop
 3735 00d6 BD46     		mov	sp, r7
 3736 00d8 06B0     		add	sp, sp, #24
 3737              		@ sp needed
 3738 00da 80BD     		pop	{r7, pc}
 3739              	.L252:
 3740              		.align	2
 3741              	.L251:
 3742 00dc FFFF0000 		.word	65535
 3743              		.cfi_endproc
 3744              	.LFE154:
 3745              		.size	HandleTransmit, .-HandleTransmit
 3746              		.section	.text.DiscardArrayNoCheck,"ax",%progbits
 3747              		.align	2
 3748              		.code	16
 3749              		.thumb_func
 3750              		.type	DiscardArrayNoCheck, %function
 3751              	DiscardArrayNoCheck:
 3752              	.LFB155:
1006:Generated_Source\PSoC6\pdl\drivers\peripheral\scb/cy_scb_spi.c **** 
1007:Generated_Source\PSoC6\pdl\drivers\peripheral\scb/cy_scb_spi.c **** 
1008:Generated_Source\PSoC6\pdl\drivers\peripheral\scb/cy_scb_spi.c **** /*******************************************************************************
1009:Generated_Source\PSoC6\pdl\drivers\peripheral\scb/cy_scb_spi.c **** * Function Name: DiscardArrayNoCheck
1010:Generated_Source\PSoC6\pdl\drivers\peripheral\scb/cy_scb_spi.c **** ****************************************************************************//**
1011:Generated_Source\PSoC6\pdl\drivers\peripheral\scb/cy_scb_spi.c **** *
1012:Generated_Source\PSoC6\pdl\drivers\peripheral\scb/cy_scb_spi.c **** * Reads the number of data elements from the SPI RX FIFO. The read data is
1013:Generated_Source\PSoC6\pdl\drivers\peripheral\scb/cy_scb_spi.c **** * discarded. Before calling this function, make sure that RX FIFO has
1014:Generated_Source\PSoC6\pdl\drivers\peripheral\scb/cy_scb_spi.c **** * enough data elements to read.
1015:Generated_Source\PSoC6\pdl\drivers\peripheral\scb/cy_scb_spi.c **** *
1016:Generated_Source\PSoC6\pdl\drivers\peripheral\scb/cy_scb_spi.c **** * \param base
1017:Generated_Source\PSoC6\pdl\drivers\peripheral\scb/cy_scb_spi.c **** * The pointer to the SPI SCB instance.
1018:Generated_Source\PSoC6\pdl\drivers\peripheral\scb/cy_scb_spi.c **** *
1019:Generated_Source\PSoC6\pdl\drivers\peripheral\scb/cy_scb_spi.c **** * \param size
1020:Generated_Source\PSoC6\pdl\drivers\peripheral\scb/cy_scb_spi.c **** * The number of data elements to read.
1021:Generated_Source\PSoC6\pdl\drivers\peripheral\scb/cy_scb_spi.c **** *
1022:Generated_Source\PSoC6\pdl\drivers\peripheral\scb/cy_scb_spi.c **** *******************************************************************************/
1023:Generated_Source\PSoC6\pdl\drivers\peripheral\scb/cy_scb_spi.c **** static void DiscardArrayNoCheck(CySCB_Type const *base, uint32_t size)
1024:Generated_Source\PSoC6\pdl\drivers\peripheral\scb/cy_scb_spi.c **** {
 3753              		.loc 3 1024 0
 3754              		.cfi_startproc
 3755              		@ args = 0, pretend = 0, frame = 8
 3756              		@ frame_needed = 1, uses_anonymous_args = 0
 3757 0000 80B5     		push	{r7, lr}
 3758              		.cfi_def_cfa_offset 8
 3759              		.cfi_offset 7, -8
 3760              		.cfi_offset 14, -4
 3761 0002 82B0     		sub	sp, sp, #8
ARM GAS  C:\Users\salaz\AppData\Local\Temp\ccynHHO7.s 			page 143


 3762              		.cfi_def_cfa_offset 16
 3763 0004 00AF     		add	r7, sp, #0
 3764              		.cfi_def_cfa_register 7
 3765 0006 7860     		str	r0, [r7, #4]
 3766 0008 3960     		str	r1, [r7]
1025:Generated_Source\PSoC6\pdl\drivers\peripheral\scb/cy_scb_spi.c ****     while (size > 0UL)
 3767              		.loc 3 1025 0
 3768 000a 06E0     		b	.L254
 3769              	.L255:
1026:Generated_Source\PSoC6\pdl\drivers\peripheral\scb/cy_scb_spi.c ****     {
1027:Generated_Source\PSoC6\pdl\drivers\peripheral\scb/cy_scb_spi.c ****         (void) Cy_SCB_SPI_Read(base);
 3770              		.loc 3 1027 0
 3771 000c 7B68     		ldr	r3, [r7, #4]
 3772 000e 1800     		movs	r0, r3
 3773 0010 FFF7FEFF 		bl	Cy_SCB_SPI_Read
1028:Generated_Source\PSoC6\pdl\drivers\peripheral\scb/cy_scb_spi.c ****         --size;
 3774              		.loc 3 1028 0
 3775 0014 3B68     		ldr	r3, [r7]
 3776 0016 013B     		subs	r3, r3, #1
 3777 0018 3B60     		str	r3, [r7]
 3778              	.L254:
1025:Generated_Source\PSoC6\pdl\drivers\peripheral\scb/cy_scb_spi.c ****     while (size > 0UL)
 3779              		.loc 3 1025 0
 3780 001a 3B68     		ldr	r3, [r7]
 3781 001c 002B     		cmp	r3, #0
 3782 001e F5D1     		bne	.L255
1029:Generated_Source\PSoC6\pdl\drivers\peripheral\scb/cy_scb_spi.c ****     }
1030:Generated_Source\PSoC6\pdl\drivers\peripheral\scb/cy_scb_spi.c **** }
 3783              		.loc 3 1030 0
 3784 0020 C046     		nop
 3785 0022 BD46     		mov	sp, r7
 3786 0024 02B0     		add	sp, sp, #8
 3787              		@ sp needed
 3788 0026 80BD     		pop	{r7, pc}
 3789              		.cfi_endproc
 3790              	.LFE155:
 3791              		.size	DiscardArrayNoCheck, .-DiscardArrayNoCheck
 3792              		.text
 3793              	.Letext0:
 3794              		.file 4 "c:\\program files (x86)\\cypress\\psoc creator\\4.2\\psoc creator\\import\\gnu\\arm\\5.4.
 3795              		.file 5 "c:\\program files (x86)\\cypress\\psoc creator\\4.2\\psoc creator\\import\\gnu\\arm\\5.4.
 3796              		.file 6 "Generated_Source\\PSoC6\\pdl\\devices/psoc6/ip/cyip_scb.h"
 3797              		.file 7 "Generated_Source\\PSoC6\\pdl\\drivers/peripheral/syslib/cy_syslib.h"
 3798              		.file 8 "Generated_Source\\PSoC6\\pdl\\drivers/peripheral/syspm/cy_syspm.h"
 3799              		.section	.debug_info,"",%progbits
 3800              	.Ldebug_info0:
 3801 0000 62130000 		.4byte	0x1362
 3802 0004 0400     		.2byte	0x4
 3803 0006 00000000 		.4byte	.Ldebug_abbrev0
 3804 000a 04       		.byte	0x4
 3805 000b 01       		.uleb128 0x1
 3806 000c F4050000 		.4byte	.LASF218
 3807 0010 0C       		.byte	0xc
 3808 0011 8A070000 		.4byte	.LASF219
 3809 0015 56010000 		.4byte	.LASF220
 3810 0019 00000000 		.4byte	.Ldebug_ranges0+0
 3811 001d 00000000 		.4byte	0
ARM GAS  C:\Users\salaz\AppData\Local\Temp\ccynHHO7.s 			page 144


 3812 0021 00000000 		.4byte	.Ldebug_line0
 3813 0025 02       		.uleb128 0x2
 3814 0026 01       		.byte	0x1
 3815 0027 06       		.byte	0x6
 3816 0028 08010000 		.4byte	.LASF0
 3817 002c 03       		.uleb128 0x3
 3818 002d 14010000 		.4byte	.LASF5
 3819 0031 04       		.byte	0x4
 3820 0032 1D       		.byte	0x1d
 3821 0033 37000000 		.4byte	0x37
 3822 0037 02       		.uleb128 0x2
 3823 0038 01       		.byte	0x1
 3824 0039 08       		.byte	0x8
 3825 003a F8090000 		.4byte	.LASF1
 3826 003e 02       		.uleb128 0x2
 3827 003f 02       		.byte	0x2
 3828 0040 05       		.byte	0x5
 3829 0041 150A0000 		.4byte	.LASF2
 3830 0045 02       		.uleb128 0x2
 3831 0046 02       		.byte	0x2
 3832 0047 07       		.byte	0x7
 3833 0048 9D050000 		.4byte	.LASF3
 3834 004c 02       		.uleb128 0x2
 3835 004d 04       		.byte	0x4
 3836 004e 05       		.byte	0x5
 3837 004f BF020000 		.4byte	.LASF4
 3838 0053 03       		.uleb128 0x3
 3839 0054 F5030000 		.4byte	.LASF6
 3840 0058 04       		.byte	0x4
 3841 0059 41       		.byte	0x41
 3842 005a 5E000000 		.4byte	0x5e
 3843 005e 02       		.uleb128 0x2
 3844 005f 04       		.byte	0x4
 3845 0060 07       		.byte	0x7
 3846 0061 28050000 		.4byte	.LASF7
 3847 0065 02       		.uleb128 0x2
 3848 0066 08       		.byte	0x8
 3849 0067 05       		.byte	0x5
 3850 0068 D4010000 		.4byte	.LASF8
 3851 006c 02       		.uleb128 0x2
 3852 006d 08       		.byte	0x8
 3853 006e 07       		.byte	0x7
 3854 006f 3F010000 		.4byte	.LASF9
 3855 0073 04       		.uleb128 0x4
 3856 0074 04       		.byte	0x4
 3857 0075 05       		.byte	0x5
 3858 0076 696E7400 		.ascii	"int\000"
 3859 007a 02       		.uleb128 0x2
 3860 007b 04       		.byte	0x4
 3861 007c 07       		.byte	0x7
 3862 007d DB040000 		.4byte	.LASF10
 3863 0081 03       		.uleb128 0x3
 3864 0082 560D0000 		.4byte	.LASF11
 3865 0086 05       		.byte	0x5
 3866 0087 18       		.byte	0x18
 3867 0088 2C000000 		.4byte	0x2c
 3868 008c 03       		.uleb128 0x3
ARM GAS  C:\Users\salaz\AppData\Local\Temp\ccynHHO7.s 			page 145


 3869 008d 260B0000 		.4byte	.LASF12
 3870 0091 05       		.byte	0x5
 3871 0092 30       		.byte	0x30
 3872 0093 53000000 		.4byte	0x53
 3873 0097 02       		.uleb128 0x2
 3874 0098 08       		.byte	0x8
 3875 0099 04       		.byte	0x4
 3876 009a 6C0B0000 		.4byte	.LASF13
 3877 009e 02       		.uleb128 0x2
 3878 009f 04       		.byte	0x4
 3879 00a0 07       		.byte	0x7
 3880 00a1 13080000 		.4byte	.LASF14
 3881 00a5 05       		.uleb128 0x5
 3882 00a6 8C000000 		.4byte	0x8c
 3883 00aa 06       		.uleb128 0x6
 3884 00ab A5000000 		.4byte	0xa5
 3885 00af 07       		.uleb128 0x7
 3886 00b0 AA000000 		.4byte	0xaa
 3887 00b4 BF000000 		.4byte	0xbf
 3888 00b8 08       		.uleb128 0x8
 3889 00b9 9E000000 		.4byte	0x9e
 3890 00bd 05       		.byte	0x5
 3891 00be 00       		.byte	0
 3892 00bf 07       		.uleb128 0x7
 3893 00c0 AA000000 		.4byte	0xaa
 3894 00c4 CF000000 		.4byte	0xcf
 3895 00c8 08       		.uleb128 0x8
 3896 00c9 9E000000 		.4byte	0x9e
 3897 00cd 7F       		.byte	0x7f
 3898 00ce 00       		.byte	0
 3899 00cf 07       		.uleb128 0x7
 3900 00d0 AA000000 		.4byte	0xaa
 3901 00d4 DF000000 		.4byte	0xdf
 3902 00d8 08       		.uleb128 0x8
 3903 00d9 9E000000 		.4byte	0x9e
 3904 00dd 02       		.byte	0x2
 3905 00de 00       		.byte	0
 3906 00df 07       		.uleb128 0x7
 3907 00e0 AA000000 		.4byte	0xaa
 3908 00e4 EF000000 		.4byte	0xef
 3909 00e8 08       		.uleb128 0x8
 3910 00e9 9E000000 		.4byte	0x9e
 3911 00ed 03       		.byte	0x3
 3912 00ee 00       		.byte	0
 3913 00ef 07       		.uleb128 0x7
 3914 00f0 AA000000 		.4byte	0xaa
 3915 00f4 FF000000 		.4byte	0xff
 3916 00f8 08       		.uleb128 0x8
 3917 00f9 9E000000 		.4byte	0x9e
 3918 00fd 3E       		.byte	0x3e
 3919 00fe 00       		.byte	0
 3920 00ff 07       		.uleb128 0x7
 3921 0100 AA000000 		.4byte	0xaa
 3922 0104 0F010000 		.4byte	0x10f
 3923 0108 08       		.uleb128 0x8
 3924 0109 9E000000 		.4byte	0x9e
 3925 010d 1E       		.byte	0x1e
ARM GAS  C:\Users\salaz\AppData\Local\Temp\ccynHHO7.s 			page 146


 3926 010e 00       		.byte	0
 3927 010f 07       		.uleb128 0x7
 3928 0110 AA000000 		.4byte	0xaa
 3929 0114 1F010000 		.4byte	0x11f
 3930 0118 08       		.uleb128 0x8
 3931 0119 9E000000 		.4byte	0x9e
 3932 011d 0B       		.byte	0xb
 3933 011e 00       		.byte	0
 3934 011f 07       		.uleb128 0x7
 3935 0120 AA000000 		.4byte	0xaa
 3936 0124 2F010000 		.4byte	0x12f
 3937 0128 08       		.uleb128 0x8
 3938 0129 9E000000 		.4byte	0x9e
 3939 012d 0C       		.byte	0xc
 3940 012e 00       		.byte	0
 3941 012f 07       		.uleb128 0x7
 3942 0130 AA000000 		.4byte	0xaa
 3943 0134 3F010000 		.4byte	0x13f
 3944 0138 08       		.uleb128 0x8
 3945 0139 9E000000 		.4byte	0x9e
 3946 013d 0A       		.byte	0xa
 3947 013e 00       		.byte	0
 3948 013f 07       		.uleb128 0x7
 3949 0140 AA000000 		.4byte	0xaa
 3950 0144 4F010000 		.4byte	0x14f
 3951 0148 08       		.uleb128 0x8
 3952 0149 9E000000 		.4byte	0x9e
 3953 014d 2E       		.byte	0x2e
 3954 014e 00       		.byte	0
 3955 014f 07       		.uleb128 0x7
 3956 0150 AA000000 		.4byte	0xaa
 3957 0154 5F010000 		.4byte	0x15f
 3958 0158 08       		.uleb128 0x8
 3959 0159 9E000000 		.4byte	0x9e
 3960 015d 2D       		.byte	0x2d
 3961 015e 00       		.byte	0
 3962 015f 09       		.uleb128 0x9
 3963 0160 D00F     		.2byte	0xfd0
 3964 0162 06       		.byte	0x6
 3965 0163 21       		.byte	0x21
 3966 0164 E3040000 		.4byte	0x4e3
 3967 0168 0A       		.uleb128 0xa
 3968 0169 A00C0000 		.4byte	.LASF15
 3969 016d 06       		.byte	0x6
 3970 016e 22       		.byte	0x22
 3971 016f A5000000 		.4byte	0xa5
 3972 0173 00       		.byte	0
 3973 0174 0A       		.uleb128 0xa
 3974 0175 CE0C0000 		.4byte	.LASF16
 3975 0179 06       		.byte	0x6
 3976 017a 23       		.byte	0x23
 3977 017b AA000000 		.4byte	0xaa
 3978 017f 04       		.byte	0x4
 3979 0180 0A       		.uleb128 0xa
 3980 0181 D7070000 		.4byte	.LASF17
 3981 0185 06       		.byte	0x6
 3982 0186 24       		.byte	0x24
ARM GAS  C:\Users\salaz\AppData\Local\Temp\ccynHHO7.s 			page 147


 3983 0187 A5000000 		.4byte	0xa5
 3984 018b 08       		.byte	0x8
 3985 018c 0A       		.uleb128 0xa
 3986 018d 3A050000 		.4byte	.LASF18
 3987 0191 06       		.byte	0x6
 3988 0192 25       		.byte	0x25
 3989 0193 AA000000 		.4byte	0xaa
 3990 0197 0C       		.byte	0xc
 3991 0198 0A       		.uleb128 0xa
 3992 0199 DC0B0000 		.4byte	.LASF19
 3993 019d 06       		.byte	0x6
 3994 019e 26       		.byte	0x26
 3995 019f E8040000 		.4byte	0x4e8
 3996 01a3 10       		.byte	0x10
 3997 01a4 0A       		.uleb128 0xa
 3998 01a5 92040000 		.4byte	.LASF20
 3999 01a9 06       		.byte	0x6
 4000 01aa 27       		.byte	0x27
 4001 01ab A5000000 		.4byte	0xa5
 4002 01af 20       		.byte	0x20
 4003 01b0 0A       		.uleb128 0xa
 4004 01b1 5B0B0000 		.4byte	.LASF21
 4005 01b5 06       		.byte	0x6
 4006 01b6 28       		.byte	0x28
 4007 01b7 AA000000 		.4byte	0xaa
 4008 01bb 24       		.byte	0x24
 4009 01bc 0A       		.uleb128 0xa
 4010 01bd 5D090000 		.4byte	.LASF22
 4011 01c1 06       		.byte	0x6
 4012 01c2 29       		.byte	0x29
 4013 01c3 F2040000 		.4byte	0x4f2
 4014 01c7 28       		.byte	0x28
 4015 01c8 0A       		.uleb128 0xa
 4016 01c9 87080000 		.4byte	.LASF23
 4017 01cd 06       		.byte	0x6
 4018 01ce 2A       		.byte	0x2a
 4019 01cf A5000000 		.4byte	0xa5
 4020 01d3 40       		.byte	0x40
 4021 01d4 0A       		.uleb128 0xa
 4022 01d5 85050000 		.4byte	.LASF24
 4023 01d9 06       		.byte	0x6
 4024 01da 2B       		.byte	0x2b
 4025 01db A5000000 		.4byte	0xa5
 4026 01df 44       		.byte	0x44
 4027 01e0 0A       		.uleb128 0xa
 4028 01e1 01050000 		.4byte	.LASF25
 4029 01e5 06       		.byte	0x6
 4030 01e6 2C       		.byte	0x2c
 4031 01e7 A5000000 		.4byte	0xa5
 4032 01eb 48       		.byte	0x48
 4033 01ec 0A       		.uleb128 0xa
 4034 01ed D4050000 		.4byte	.LASF26
 4035 01f1 06       		.byte	0x6
 4036 01f2 2D       		.byte	0x2d
 4037 01f3 AA000000 		.4byte	0xaa
 4038 01f7 4C       		.byte	0x4c
 4039 01f8 0A       		.uleb128 0xa
ARM GAS  C:\Users\salaz\AppData\Local\Temp\ccynHHO7.s 			page 148


 4040 01f9 21030000 		.4byte	.LASF27
 4041 01fd 06       		.byte	0x6
 4042 01fe 2E       		.byte	0x2e
 4043 01ff A5000000 		.4byte	0xa5
 4044 0203 50       		.byte	0x50
 4045 0204 0A       		.uleb128 0xa
 4046 0205 67090000 		.4byte	.LASF28
 4047 0209 06       		.byte	0x6
 4048 020a 2F       		.byte	0x2f
 4049 020b FC040000 		.4byte	0x4fc
 4050 020f 54       		.byte	0x54
 4051 0210 0A       		.uleb128 0xa
 4052 0211 EF090000 		.4byte	.LASF29
 4053 0215 06       		.byte	0x6
 4054 0216 30       		.byte	0x30
 4055 0217 A5000000 		.4byte	0xa5
 4056 021b 60       		.byte	0x60
 4057 021c 0A       		.uleb128 0xa
 4058 021d FD000000 		.4byte	.LASF30
 4059 0221 06       		.byte	0x6
 4060 0222 31       		.byte	0x31
 4061 0223 AA000000 		.4byte	0xaa
 4062 0227 64       		.byte	0x64
 4063 0228 0A       		.uleb128 0xa
 4064 0229 8C0D0000 		.4byte	.LASF31
 4065 022d 06       		.byte	0x6
 4066 022e 32       		.byte	0x32
 4067 022f A5000000 		.4byte	0xa5
 4068 0233 68       		.byte	0x68
 4069 0234 0A       		.uleb128 0xa
 4070 0235 360A0000 		.4byte	.LASF32
 4071 0239 06       		.byte	0x6
 4072 023a 33       		.byte	0x33
 4073 023b A5000000 		.4byte	0xa5
 4074 023f 6C       		.byte	0x6c
 4075 0240 0A       		.uleb128 0xa
 4076 0241 CC050000 		.4byte	.LASF33
 4077 0245 06       		.byte	0x6
 4078 0246 34       		.byte	0x34
 4079 0247 A5000000 		.4byte	0xa5
 4080 024b 70       		.byte	0x70
 4081 024c 0A       		.uleb128 0xa
 4082 024d 71090000 		.4byte	.LASF34
 4083 0251 06       		.byte	0x6
 4084 0252 35       		.byte	0x35
 4085 0253 16050000 		.4byte	0x516
 4086 0257 74       		.byte	0x74
 4087 0258 0B       		.uleb128 0xb
 4088 0259 E7080000 		.4byte	.LASF35
 4089 025d 06       		.byte	0x6
 4090 025e 36       		.byte	0x36
 4091 025f A5000000 		.4byte	0xa5
 4092 0263 0001     		.2byte	0x100
 4093 0265 0B       		.uleb128 0xb
 4094 0266 7B090000 		.4byte	.LASF36
 4095 026a 06       		.byte	0x6
 4096 026b 37       		.byte	0x37
ARM GAS  C:\Users\salaz\AppData\Local\Temp\ccynHHO7.s 			page 149


 4097 026c 20050000 		.4byte	0x520
 4098 0270 0401     		.2byte	0x104
 4099 0272 0B       		.uleb128 0xb
 4100 0273 8C0C0000 		.4byte	.LASF37
 4101 0277 06       		.byte	0x6
 4102 0278 38       		.byte	0x38
 4103 0279 A5000000 		.4byte	0xa5
 4104 027d 0002     		.2byte	0x200
 4105 027f 0B       		.uleb128 0xb
 4106 0280 C10C0000 		.4byte	.LASF38
 4107 0284 06       		.byte	0x6
 4108 0285 39       		.byte	0x39
 4109 0286 A5000000 		.4byte	0xa5
 4110 028a 0402     		.2byte	0x204
 4111 028c 0B       		.uleb128 0xb
 4112 028d 1E010000 		.4byte	.LASF39
 4113 0291 06       		.byte	0x6
 4114 0292 3A       		.byte	0x3a
 4115 0293 AA000000 		.4byte	0xaa
 4116 0297 0802     		.2byte	0x208
 4117 0299 0B       		.uleb128 0xb
 4118 029a 85090000 		.4byte	.LASF40
 4119 029e 06       		.byte	0x6
 4120 029f 3B       		.byte	0x3b
 4121 02a0 2A050000 		.4byte	0x52a
 4122 02a4 0C02     		.2byte	0x20c
 4123 02a6 0B       		.uleb128 0xb
 4124 02a7 56030000 		.4byte	.LASF41
 4125 02ab 06       		.byte	0x6
 4126 02ac 3C       		.byte	0x3c
 4127 02ad A5000000 		.4byte	0xa5
 4128 02b1 4002     		.2byte	0x240
 4129 02b3 0B       		.uleb128 0xb
 4130 02b4 8F090000 		.4byte	.LASF42
 4131 02b8 06       		.byte	0x6
 4132 02b9 3D       		.byte	0x3d
 4133 02ba 34050000 		.4byte	0x534
 4134 02be 4402     		.2byte	0x244
 4135 02c0 0B       		.uleb128 0xb
 4136 02c1 010C0000 		.4byte	.LASF43
 4137 02c5 06       		.byte	0x6
 4138 02c6 3E       		.byte	0x3e
 4139 02c7 A5000000 		.4byte	0xa5
 4140 02cb 0003     		.2byte	0x300
 4141 02cd 0B       		.uleb128 0xb
 4142 02ce 490D0000 		.4byte	.LASF44
 4143 02d2 06       		.byte	0x6
 4144 02d3 3F       		.byte	0x3f
 4145 02d4 A5000000 		.4byte	0xa5
 4146 02d8 0403     		.2byte	0x304
 4147 02da 0B       		.uleb128 0xb
 4148 02db E50B0000 		.4byte	.LASF45
 4149 02df 06       		.byte	0x6
 4150 02e0 40       		.byte	0x40
 4151 02e1 AA000000 		.4byte	0xaa
 4152 02e5 0803     		.2byte	0x308
 4153 02e7 0B       		.uleb128 0xb
ARM GAS  C:\Users\salaz\AppData\Local\Temp\ccynHHO7.s 			page 150


 4154 02e8 99090000 		.4byte	.LASF46
 4155 02ec 06       		.byte	0x6
 4156 02ed 41       		.byte	0x41
 4157 02ee AA000000 		.4byte	0xaa
 4158 02f2 0C03     		.2byte	0x30c
 4159 02f4 0B       		.uleb128 0xb
 4160 02f5 B7060000 		.4byte	.LASF47
 4161 02f9 06       		.byte	0x6
 4162 02fa 42       		.byte	0x42
 4163 02fb A5000000 		.4byte	0xa5
 4164 02ff 1003     		.2byte	0x310
 4165 0301 0B       		.uleb128 0xb
 4166 0302 A3090000 		.4byte	.LASF48
 4167 0306 06       		.byte	0x6
 4168 0307 43       		.byte	0x43
 4169 0308 3E050000 		.4byte	0x53e
 4170 030c 1403     		.2byte	0x314
 4171 030e 0B       		.uleb128 0xb
 4172 030f 090C0000 		.4byte	.LASF49
 4173 0313 06       		.byte	0x6
 4174 0314 44       		.byte	0x44
 4175 0315 AA000000 		.4byte	0xaa
 4176 0319 4003     		.2byte	0x340
 4177 031b 0B       		.uleb128 0xb
 4178 031c 4A050000 		.4byte	.LASF50
 4179 0320 06       		.byte	0x6
 4180 0321 45       		.byte	0x45
 4181 0322 AA000000 		.4byte	0xaa
 4182 0326 4403     		.2byte	0x344
 4183 0328 0B       		.uleb128 0xb
 4184 0329 3A0B0000 		.4byte	.LASF51
 4185 032d 06       		.byte	0x6
 4186 032e 46       		.byte	0x46
 4187 032f 48050000 		.4byte	0x548
 4188 0333 4803     		.2byte	0x348
 4189 0335 0B       		.uleb128 0xb
 4190 0336 EC050000 		.4byte	.LASF52
 4191 033a 06       		.byte	0x6
 4192 033b 47       		.byte	0x47
 4193 033c 5E050000 		.4byte	0x55e
 4194 0340 0004     		.2byte	0x400
 4195 0342 0B       		.uleb128 0xb
 4196 0343 5C020000 		.4byte	.LASF53
 4197 0347 06       		.byte	0x6
 4198 0348 48       		.byte	0x48
 4199 0349 68050000 		.4byte	0x568
 4200 034d 000C     		.2byte	0xc00
 4201 034f 0B       		.uleb128 0xb
 4202 0350 F7020000 		.4byte	.LASF54
 4203 0354 06       		.byte	0x6
 4204 0355 49       		.byte	0x49
 4205 0356 AA000000 		.4byte	0xaa
 4206 035a 000E     		.2byte	0xe00
 4207 035c 0B       		.uleb128 0xb
 4208 035d 67020000 		.4byte	.LASF55
 4209 0361 06       		.byte	0x6
 4210 0362 4A       		.byte	0x4a
ARM GAS  C:\Users\salaz\AppData\Local\Temp\ccynHHO7.s 			page 151


 4211 0363 72050000 		.4byte	0x572
 4212 0367 040E     		.2byte	0xe04
 4213 0369 0B       		.uleb128 0xb
 4214 036a 840A0000 		.4byte	.LASF56
 4215 036e 06       		.byte	0x6
 4216 036f 4B       		.byte	0x4b
 4217 0370 A5000000 		.4byte	0xa5
 4218 0374 800E     		.2byte	0xe80
 4219 0376 0B       		.uleb128 0xb
 4220 0377 72020000 		.4byte	.LASF57
 4221 037b 06       		.byte	0x6
 4222 037c 4C       		.byte	0x4c
 4223 037d AA000000 		.4byte	0xaa
 4224 0381 840E     		.2byte	0xe84
 4225 0383 0B       		.uleb128 0xb
 4226 0384 D00D0000 		.4byte	.LASF58
 4227 0388 06       		.byte	0x6
 4228 0389 4D       		.byte	0x4d
 4229 038a A5000000 		.4byte	0xa5
 4230 038e 880E     		.2byte	0xe88
 4231 0390 0B       		.uleb128 0xb
 4232 0391 EE070000 		.4byte	.LASF59
 4233 0395 06       		.byte	0x6
 4234 0396 4E       		.byte	0x4e
 4235 0397 AA000000 		.4byte	0xaa
 4236 039b 8C0E     		.2byte	0xe8c
 4237 039d 0B       		.uleb128 0xb
 4238 039e 7D020000 		.4byte	.LASF60
 4239 03a2 06       		.byte	0x6
 4240 03a3 4F       		.byte	0x4f
 4241 03a4 7C050000 		.4byte	0x57c
 4242 03a8 900E     		.2byte	0xe90
 4243 03aa 0B       		.uleb128 0xb
 4244 03ab 940C0000 		.4byte	.LASF61
 4245 03af 06       		.byte	0x6
 4246 03b0 50       		.byte	0x50
 4247 03b1 A5000000 		.4byte	0xa5
 4248 03b5 C00E     		.2byte	0xec0
 4249 03b7 0B       		.uleb128 0xb
 4250 03b8 88020000 		.4byte	.LASF62
 4251 03bc 06       		.byte	0x6
 4252 03bd 51       		.byte	0x51
 4253 03be AA000000 		.4byte	0xaa
 4254 03c2 C40E     		.2byte	0xec4
 4255 03c4 0B       		.uleb128 0xb
 4256 03c5 150B0000 		.4byte	.LASF63
 4257 03c9 06       		.byte	0x6
 4258 03ca 52       		.byte	0x52
 4259 03cb A5000000 		.4byte	0xa5
 4260 03cf C80E     		.2byte	0xec8
 4261 03d1 0B       		.uleb128 0xb
 4262 03d2 6A040000 		.4byte	.LASF64
 4263 03d6 06       		.byte	0x6
 4264 03d7 53       		.byte	0x53
 4265 03d8 AA000000 		.4byte	0xaa
 4266 03dc CC0E     		.2byte	0xecc
 4267 03de 0B       		.uleb128 0xb
ARM GAS  C:\Users\salaz\AppData\Local\Temp\ccynHHO7.s 			page 152


 4268 03df 93020000 		.4byte	.LASF65
 4269 03e3 06       		.byte	0x6
 4270 03e4 54       		.byte	0x54
 4271 03e5 86050000 		.4byte	0x586
 4272 03e9 D00E     		.2byte	0xed0
 4273 03eb 0B       		.uleb128 0xb
 4274 03ec 91080000 		.4byte	.LASF66
 4275 03f0 06       		.byte	0x6
 4276 03f1 55       		.byte	0x55
 4277 03f2 A5000000 		.4byte	0xa5
 4278 03f6 000F     		.2byte	0xf00
 4279 03f8 0B       		.uleb128 0xb
 4280 03f9 2F0B0000 		.4byte	.LASF67
 4281 03fd 06       		.byte	0x6
 4282 03fe 56       		.byte	0x56
 4283 03ff A5000000 		.4byte	0xa5
 4284 0403 040F     		.2byte	0xf04
 4285 0405 0B       		.uleb128 0xb
 4286 0406 AF0B0000 		.4byte	.LASF68
 4287 040a 06       		.byte	0x6
 4288 040b 57       		.byte	0x57
 4289 040c A5000000 		.4byte	0xa5
 4290 0410 080F     		.2byte	0xf08
 4291 0412 0B       		.uleb128 0xb
 4292 0413 C9070000 		.4byte	.LASF69
 4293 0417 06       		.byte	0x6
 4294 0418 58       		.byte	0x58
 4295 0419 AA000000 		.4byte	0xaa
 4296 041d 0C0F     		.2byte	0xf0c
 4297 041f 0B       		.uleb128 0xb
 4298 0420 9E020000 		.4byte	.LASF70
 4299 0424 06       		.byte	0x6
 4300 0425 59       		.byte	0x59
 4301 0426 90050000 		.4byte	0x590
 4302 042a 100F     		.2byte	0xf10
 4303 042c 0B       		.uleb128 0xb
 4304 042d B3080000 		.4byte	.LASF71
 4305 0431 06       		.byte	0x6
 4306 0432 5A       		.byte	0x5a
 4307 0433 A5000000 		.4byte	0xa5
 4308 0437 400F     		.2byte	0xf40
 4309 0439 0B       		.uleb128 0xb
 4310 043a 530C0000 		.4byte	.LASF72
 4311 043e 06       		.byte	0x6
 4312 043f 5B       		.byte	0x5b
 4313 0440 A5000000 		.4byte	0xa5
 4314 0444 440F     		.2byte	0xf44
 4315 0446 0B       		.uleb128 0xb
 4316 0447 9C010000 		.4byte	.LASF73
 4317 044b 06       		.byte	0x6
 4318 044c 5C       		.byte	0x5c
 4319 044d A5000000 		.4byte	0xa5
 4320 0451 480F     		.2byte	0xf48
 4321 0453 0B       		.uleb128 0xb
 4322 0454 FF0D0000 		.4byte	.LASF74
 4323 0458 06       		.byte	0x6
 4324 0459 5D       		.byte	0x5d
ARM GAS  C:\Users\salaz\AppData\Local\Temp\ccynHHO7.s 			page 153


 4325 045a AA000000 		.4byte	0xaa
 4326 045e 4C0F     		.2byte	0xf4c
 4327 0460 0B       		.uleb128 0xb
 4328 0461 A9020000 		.4byte	.LASF75
 4329 0465 06       		.byte	0x6
 4330 0466 5E       		.byte	0x5e
 4331 0467 9A050000 		.4byte	0x59a
 4332 046b 500F     		.2byte	0xf50
 4333 046d 0B       		.uleb128 0xb
 4334 046e 7D070000 		.4byte	.LASF76
 4335 0472 06       		.byte	0x6
 4336 0473 5F       		.byte	0x5f
 4337 0474 A5000000 		.4byte	0xa5
 4338 0478 800F     		.2byte	0xf80
 4339 047a 0B       		.uleb128 0xb
 4340 047b A30B0000 		.4byte	.LASF77
 4341 047f 06       		.byte	0x6
 4342 0480 60       		.byte	0x60
 4343 0481 A5000000 		.4byte	0xa5
 4344 0485 840F     		.2byte	0xf84
 4345 0487 0B       		.uleb128 0xb
 4346 0488 F40B0000 		.4byte	.LASF78
 4347 048c 06       		.byte	0x6
 4348 048d 61       		.byte	0x61
 4349 048e A5000000 		.4byte	0xa5
 4350 0492 880F     		.2byte	0xf88
 4351 0494 0B       		.uleb128 0xb
 4352 0495 060A0000 		.4byte	.LASF79
 4353 0499 06       		.byte	0x6
 4354 049a 62       		.byte	0x62
 4355 049b AA000000 		.4byte	0xaa
 4356 049f 8C0F     		.2byte	0xf8c
 4357 04a1 0B       		.uleb128 0xb
 4358 04a2 B4020000 		.4byte	.LASF80
 4359 04a6 06       		.byte	0x6
 4360 04a7 63       		.byte	0x63
 4361 04a8 A4050000 		.4byte	0x5a4
 4362 04ac 900F     		.2byte	0xf90
 4363 04ae 0B       		.uleb128 0xb
 4364 04af 19030000 		.4byte	.LASF81
 4365 04b3 06       		.byte	0x6
 4366 04b4 64       		.byte	0x64
 4367 04b5 A5000000 		.4byte	0xa5
 4368 04b9 C00F     		.2byte	0xfc0
 4369 04bb 0B       		.uleb128 0xb
 4370 04bc 30030000 		.4byte	.LASF82
 4371 04c0 06       		.byte	0x6
 4372 04c1 65       		.byte	0x65
 4373 04c2 A5000000 		.4byte	0xa5
 4374 04c6 C40F     		.2byte	0xfc4
 4375 04c8 0B       		.uleb128 0xb
 4376 04c9 F20D0000 		.4byte	.LASF83
 4377 04cd 06       		.byte	0x6
 4378 04ce 66       		.byte	0x66
 4379 04cf A5000000 		.4byte	0xa5
 4380 04d3 C80F     		.2byte	0xfc8
 4381 04d5 0B       		.uleb128 0xb
ARM GAS  C:\Users\salaz\AppData\Local\Temp\ccynHHO7.s 			page 154


 4382 04d6 F2060000 		.4byte	.LASF84
 4383 04da 06       		.byte	0x6
 4384 04db 67       		.byte	0x67
 4385 04dc AA000000 		.4byte	0xaa
 4386 04e0 CC0F     		.2byte	0xfcc
 4387 04e2 00       		.byte	0
 4388 04e3 05       		.uleb128 0x5
 4389 04e4 DF000000 		.4byte	0xdf
 4390 04e8 06       		.uleb128 0x6
 4391 04e9 E3040000 		.4byte	0x4e3
 4392 04ed 05       		.uleb128 0x5
 4393 04ee AF000000 		.4byte	0xaf
 4394 04f2 06       		.uleb128 0x6
 4395 04f3 ED040000 		.4byte	0x4ed
 4396 04f7 05       		.uleb128 0x5
 4397 04f8 CF000000 		.4byte	0xcf
 4398 04fc 06       		.uleb128 0x6
 4399 04fd F7040000 		.4byte	0x4f7
 4400 0501 07       		.uleb128 0x7
 4401 0502 AA000000 		.4byte	0xaa
 4402 0506 11050000 		.4byte	0x511
 4403 050a 08       		.uleb128 0x8
 4404 050b 9E000000 		.4byte	0x9e
 4405 050f 22       		.byte	0x22
 4406 0510 00       		.byte	0
 4407 0511 05       		.uleb128 0x5
 4408 0512 01050000 		.4byte	0x501
 4409 0516 06       		.uleb128 0x6
 4410 0517 11050000 		.4byte	0x511
 4411 051b 05       		.uleb128 0x5
 4412 051c EF000000 		.4byte	0xef
 4413 0520 06       		.uleb128 0x6
 4414 0521 1B050000 		.4byte	0x51b
 4415 0525 05       		.uleb128 0x5
 4416 0526 1F010000 		.4byte	0x11f
 4417 052a 06       		.uleb128 0x6
 4418 052b 25050000 		.4byte	0x525
 4419 052f 05       		.uleb128 0x5
 4420 0530 3F010000 		.4byte	0x13f
 4421 0534 06       		.uleb128 0x6
 4422 0535 2F050000 		.4byte	0x52f
 4423 0539 05       		.uleb128 0x5
 4424 053a 2F010000 		.4byte	0x12f
 4425 053e 06       		.uleb128 0x6
 4426 053f 39050000 		.4byte	0x539
 4427 0543 05       		.uleb128 0x5
 4428 0544 4F010000 		.4byte	0x14f
 4429 0548 06       		.uleb128 0x6
 4430 0549 43050000 		.4byte	0x543
 4431 054d 07       		.uleb128 0x7
 4432 054e A5000000 		.4byte	0xa5
 4433 0552 5E050000 		.4byte	0x55e
 4434 0556 0C       		.uleb128 0xc
 4435 0557 9E000000 		.4byte	0x9e
 4436 055b FF01     		.2byte	0x1ff
 4437 055d 00       		.byte	0
 4438 055e 05       		.uleb128 0x5
ARM GAS  C:\Users\salaz\AppData\Local\Temp\ccynHHO7.s 			page 155


 4439 055f 4D050000 		.4byte	0x54d
 4440 0563 05       		.uleb128 0x5
 4441 0564 BF000000 		.4byte	0xbf
 4442 0568 06       		.uleb128 0x6
 4443 0569 63050000 		.4byte	0x563
 4444 056d 05       		.uleb128 0x5
 4445 056e FF000000 		.4byte	0xff
 4446 0572 06       		.uleb128 0x6
 4447 0573 6D050000 		.4byte	0x56d
 4448 0577 05       		.uleb128 0x5
 4449 0578 0F010000 		.4byte	0x10f
 4450 057c 06       		.uleb128 0x6
 4451 057d 77050000 		.4byte	0x577
 4452 0581 05       		.uleb128 0x5
 4453 0582 0F010000 		.4byte	0x10f
 4454 0586 06       		.uleb128 0x6
 4455 0587 81050000 		.4byte	0x581
 4456 058b 05       		.uleb128 0x5
 4457 058c 0F010000 		.4byte	0x10f
 4458 0590 06       		.uleb128 0x6
 4459 0591 8B050000 		.4byte	0x58b
 4460 0595 05       		.uleb128 0x5
 4461 0596 0F010000 		.4byte	0x10f
 4462 059a 06       		.uleb128 0x6
 4463 059b 95050000 		.4byte	0x595
 4464 059f 05       		.uleb128 0x5
 4465 05a0 0F010000 		.4byte	0x10f
 4466 05a4 06       		.uleb128 0x6
 4467 05a5 9F050000 		.4byte	0x59f
 4468 05a9 03       		.uleb128 0x3
 4469 05aa 36080000 		.4byte	.LASF85
 4470 05ae 06       		.byte	0x6
 4471 05af 68       		.byte	0x68
 4472 05b0 5F010000 		.4byte	0x15f
 4473 05b4 0D       		.uleb128 0xd
 4474 05b5 FA040000 		.4byte	.LASF86
 4475 05b9 07       		.byte	0x7
 4476 05ba C401     		.2byte	0x1c4
 4477 05bc C0050000 		.4byte	0x5c0
 4478 05c0 02       		.uleb128 0x2
 4479 05c1 01       		.byte	0x1
 4480 05c2 08       		.byte	0x8
 4481 05c3 780B0000 		.4byte	.LASF87
 4482 05c7 02       		.uleb128 0x2
 4483 05c8 04       		.byte	0x4
 4484 05c9 04       		.byte	0x4
 4485 05ca 35090000 		.4byte	.LASF88
 4486 05ce 02       		.uleb128 0x2
 4487 05cf 08       		.byte	0x8
 4488 05d0 04       		.byte	0x4
 4489 05d1 6D030000 		.4byte	.LASF89
 4490 05d5 0E       		.uleb128 0xe
 4491 05d6 04       		.byte	0x4
 4492 05d7 7A000000 		.4byte	0x7a
 4493 05db 08       		.byte	0x8
 4494 05dc BF03     		.2byte	0x3bf
 4495 05de 16060000 		.4byte	0x616
ARM GAS  C:\Users\salaz\AppData\Local\Temp\ccynHHO7.s 			page 156


 4496 05e2 0F       		.uleb128 0xf
 4497 05e3 8B0B0000 		.4byte	.LASF90
 4498 05e7 00       		.byte	0
 4499 05e8 10       		.uleb128 0x10
 4500 05e9 7E000000 		.4byte	.LASF91
 4501 05ed 01004200 		.4byte	0x420001
 4502 05f1 10       		.uleb128 0x10
 4503 05f2 1E000000 		.4byte	.LASF92
 4504 05f6 02004200 		.4byte	0x420002
 4505 05fa 10       		.uleb128 0x10
 4506 05fb 960D0000 		.4byte	.LASF93
 4507 05ff 03004200 		.4byte	0x420003
 4508 0603 10       		.uleb128 0x10
 4509 0604 35040000 		.4byte	.LASF94
 4510 0608 04004200 		.4byte	0x420004
 4511 060c 10       		.uleb128 0x10
 4512 060d A50C0000 		.4byte	.LASF95
 4513 0611 FF004200 		.4byte	0x4200ff
 4514 0615 00       		.byte	0
 4515 0616 0D       		.uleb128 0xd
 4516 0617 140C0000 		.4byte	.LASF96
 4517 061b 08       		.byte	0x8
 4518 061c C703     		.2byte	0x3c7
 4519 061e D5050000 		.4byte	0x5d5
 4520 0622 0E       		.uleb128 0xe
 4521 0623 01       		.byte	0x1
 4522 0624 37000000 		.4byte	0x37
 4523 0628 08       		.byte	0x8
 4524 0629 6304     		.2byte	0x463
 4525 062b 48060000 		.4byte	0x648
 4526 062f 0F       		.uleb128 0xf
 4527 0630 BB0D0000 		.4byte	.LASF97
 4528 0634 01       		.byte	0x1
 4529 0635 0F       		.uleb128 0xf
 4530 0636 290C0000 		.4byte	.LASF98
 4531 063a 02       		.byte	0x2
 4532 063b 0F       		.uleb128 0xf
 4533 063c 98080000 		.4byte	.LASF99
 4534 0640 04       		.byte	0x4
 4535 0641 0F       		.uleb128 0xf
 4536 0642 4F070000 		.4byte	.LASF100
 4537 0646 08       		.byte	0x8
 4538 0647 00       		.byte	0
 4539 0648 0D       		.uleb128 0xd
 4540 0649 F1080000 		.4byte	.LASF101
 4541 064d 08       		.byte	0x8
 4542 064e 6D04     		.2byte	0x46d
 4543 0650 22060000 		.4byte	0x622
 4544 0654 11       		.uleb128 0x11
 4545 0655 0C       		.byte	0xc
 4546 0656 08       		.byte	0x8
 4547 0657 8904     		.2byte	0x489
 4548 0659 85060000 		.4byte	0x685
 4549 065d 12       		.uleb128 0x12
 4550 065e 860B0000 		.4byte	.LASF102
 4551 0662 08       		.byte	0x8
 4552 0663 8B04     		.2byte	0x48b
ARM GAS  C:\Users\salaz\AppData\Local\Temp\ccynHHO7.s 			page 157


 4553 0665 48060000 		.4byte	0x648
 4554 0669 00       		.byte	0
 4555 066a 12       		.uleb128 0x12
 4556 066b 85070000 		.4byte	.LASF103
 4557 066f 08       		.byte	0x8
 4558 0670 8F04     		.2byte	0x48f
 4559 0672 85060000 		.4byte	0x685
 4560 0676 04       		.byte	0x4
 4561 0677 12       		.uleb128 0x12
 4562 0678 5E0C0000 		.4byte	.LASF104
 4563 067c 08       		.byte	0x8
 4564 067d 9104     		.2byte	0x491
 4565 067f 85060000 		.4byte	0x685
 4566 0683 08       		.byte	0x8
 4567 0684 00       		.byte	0
 4568 0685 13       		.uleb128 0x13
 4569 0686 04       		.byte	0x4
 4570 0687 0D       		.uleb128 0xd
 4571 0688 B9030000 		.4byte	.LASF105
 4572 068c 08       		.byte	0x8
 4573 068d 9404     		.2byte	0x494
 4574 068f 54060000 		.4byte	0x654
 4575 0693 14       		.uleb128 0x14
 4576 0694 04       		.byte	0x4
 4577 0695 87060000 		.4byte	0x687
 4578 0699 0E       		.uleb128 0xe
 4579 069a 04       		.byte	0x4
 4580 069b 7A000000 		.4byte	0x7a
 4581 069f 02       		.byte	0x2
 4582 06a0 6701     		.2byte	0x167
 4583 06a2 BF060000 		.4byte	0x6bf
 4584 06a6 0F       		.uleb128 0xf
 4585 06a7 A8010000 		.4byte	.LASF106
 4586 06ab 00       		.byte	0
 4587 06ac 10       		.uleb128 0x10
 4588 06ad 7D040000 		.4byte	.LASF107
 4589 06b1 0140AA00 		.4byte	0xaa4001
 4590 06b5 10       		.uleb128 0x10
 4591 06b6 E2010000 		.4byte	.LASF108
 4592 06ba 0240AA00 		.4byte	0xaa4002
 4593 06be 00       		.byte	0
 4594 06bf 0D       		.uleb128 0xd
 4595 06c0 440B0000 		.4byte	.LASF109
 4596 06c4 02       		.byte	0x2
 4597 06c5 7301     		.2byte	0x173
 4598 06c7 99060000 		.4byte	0x699
 4599 06cb 0E       		.uleb128 0xe
 4600 06cc 01       		.byte	0x1
 4601 06cd 37000000 		.4byte	0x37
 4602 06d1 02       		.byte	0x2
 4603 06d2 7701     		.2byte	0x177
 4604 06d4 E5060000 		.4byte	0x6e5
 4605 06d8 0F       		.uleb128 0xf
 4606 06d9 E10D0000 		.4byte	.LASF110
 4607 06dd 00       		.byte	0
 4608 06de 0F       		.uleb128 0xf
 4609 06df E8040000 		.4byte	.LASF111
ARM GAS  C:\Users\salaz\AppData\Local\Temp\ccynHHO7.s 			page 158


 4610 06e3 01       		.byte	0x1
 4611 06e4 00       		.byte	0
 4612 06e5 0D       		.uleb128 0xd
 4613 06e6 01070000 		.4byte	.LASF112
 4614 06ea 02       		.byte	0x2
 4615 06eb 7A01     		.2byte	0x17a
 4616 06ed CB060000 		.4byte	0x6cb
 4617 06f1 0E       		.uleb128 0xe
 4618 06f2 01       		.byte	0x1
 4619 06f3 37000000 		.4byte	0x37
 4620 06f7 02       		.byte	0x2
 4621 06f8 7E01     		.2byte	0x17e
 4622 06fa 17070000 		.4byte	0x717
 4623 06fe 0F       		.uleb128 0xf
 4624 06ff 73080000 		.4byte	.LASF113
 4625 0703 00       		.byte	0
 4626 0704 0F       		.uleb128 0xf
 4627 0705 DF020000 		.4byte	.LASF114
 4628 0709 01       		.byte	0x1
 4629 070a 0F       		.uleb128 0xf
 4630 070b 660C0000 		.4byte	.LASF115
 4631 070f 02       		.byte	0x2
 4632 0710 0F       		.uleb128 0xf
 4633 0711 1F0A0000 		.4byte	.LASF116
 4634 0715 05       		.byte	0x5
 4635 0716 00       		.byte	0
 4636 0717 0D       		.uleb128 0xd
 4637 0718 0D0E0000 		.4byte	.LASF117
 4638 071c 02       		.byte	0x2
 4639 071d 9301     		.2byte	0x193
 4640 071f F1060000 		.4byte	0x6f1
 4641 0723 0E       		.uleb128 0xe
 4642 0724 01       		.byte	0x1
 4643 0725 37000000 		.4byte	0x37
 4644 0729 02       		.byte	0x2
 4645 072a 9701     		.2byte	0x197
 4646 072c 49070000 		.4byte	0x749
 4647 0730 0F       		.uleb128 0xf
 4648 0731 D0080000 		.4byte	.LASF118
 4649 0735 00       		.byte	0
 4650 0736 0F       		.uleb128 0xf
 4651 0737 02030000 		.4byte	.LASF119
 4652 073b 01       		.byte	0x1
 4653 073c 0F       		.uleb128 0xf
 4654 073d BB0A0000 		.4byte	.LASF120
 4655 0741 02       		.byte	0x2
 4656 0742 0F       		.uleb128 0xf
 4657 0743 D20A0000 		.4byte	.LASF121
 4658 0747 03       		.byte	0x3
 4659 0748 00       		.byte	0
 4660 0749 0D       		.uleb128 0xd
 4661 074a 1C080000 		.4byte	.LASF122
 4662 074e 02       		.byte	0x2
 4663 074f 9C01     		.2byte	0x19c
 4664 0751 23070000 		.4byte	0x723
 4665 0755 0D       		.uleb128 0xd
 4666 0756 3E020000 		.4byte	.LASF123
ARM GAS  C:\Users\salaz\AppData\Local\Temp\ccynHHO7.s 			page 159


 4667 075a 02       		.byte	0x2
 4668 075b BF01     		.2byte	0x1bf
 4669 075d 61070000 		.4byte	0x761
 4670 0761 14       		.uleb128 0x14
 4671 0762 04       		.byte	0x4
 4672 0763 67070000 		.4byte	0x767
 4673 0767 15       		.uleb128 0x15
 4674 0768 72070000 		.4byte	0x772
 4675 076c 16       		.uleb128 0x16
 4676 076d 8C000000 		.4byte	0x8c
 4677 0771 00       		.byte	0
 4678 0772 17       		.uleb128 0x17
 4679 0773 86060000 		.4byte	.LASF144
 4680 0777 34       		.byte	0x34
 4681 0778 02       		.byte	0x2
 4682 0779 C301     		.2byte	0x1c3
 4683 077b 6A080000 		.4byte	0x86a
 4684 077f 12       		.uleb128 0x12
 4685 0780 14020000 		.4byte	.LASF124
 4686 0784 02       		.byte	0x2
 4687 0785 C601     		.2byte	0x1c6
 4688 0787 E5060000 		.4byte	0x6e5
 4689 078b 00       		.byte	0
 4690 078c 12       		.uleb128 0x12
 4691 078d C4050000 		.4byte	.LASF125
 4692 0791 02       		.byte	0x2
 4693 0792 C901     		.2byte	0x1c9
 4694 0794 17070000 		.4byte	0x717
 4695 0798 01       		.byte	0x1
 4696 0799 12       		.uleb128 0x12
 4697 079a E5070000 		.4byte	.LASF126
 4698 079e 02       		.byte	0x2
 4699 079f CF01     		.2byte	0x1cf
 4700 07a1 49070000 		.4byte	0x749
 4701 07a5 02       		.byte	0x2
 4702 07a6 12       		.uleb128 0x12
 4703 07a7 00000000 		.4byte	.LASF127
 4704 07ab 02       		.byte	0x2
 4705 07ac D901     		.2byte	0x1d9
 4706 07ae 8C000000 		.4byte	0x8c
 4707 07b2 04       		.byte	0x4
 4708 07b3 12       		.uleb128 0x12
 4709 07b4 91000000 		.4byte	.LASF128
 4710 07b8 02       		.byte	0x2
 4711 07b9 DF01     		.2byte	0x1df
 4712 07bb 8C000000 		.4byte	0x8c
 4713 07bf 08       		.byte	0x8
 4714 07c0 12       		.uleb128 0x12
 4715 07c1 61030000 		.4byte	.LASF129
 4716 07c5 02       		.byte	0x2
 4717 07c6 E501     		.2byte	0x1e5
 4718 07c8 8C000000 		.4byte	0x8c
 4719 07cc 0C       		.byte	0xc
 4720 07cd 12       		.uleb128 0x12
 4721 07ce 56000000 		.4byte	.LASF130
 4722 07d2 02       		.byte	0x2
 4723 07d3 EB01     		.2byte	0x1eb
ARM GAS  C:\Users\salaz\AppData\Local\Temp\ccynHHO7.s 			page 160


 4724 07d5 6A080000 		.4byte	0x86a
 4725 07d9 10       		.byte	0x10
 4726 07da 12       		.uleb128 0x12
 4727 07db C0090000 		.4byte	.LASF131
 4728 07df 02       		.byte	0x2
 4729 07e0 F101     		.2byte	0x1f1
 4730 07e2 6A080000 		.4byte	0x86a
 4731 07e6 11       		.byte	0x11
 4732 07e7 12       		.uleb128 0x12
 4733 07e8 41080000 		.4byte	.LASF132
 4734 07ec 02       		.byte	0x2
 4735 07ed F701     		.2byte	0x1f7
 4736 07ef 6A080000 		.4byte	0x86a
 4737 07f3 12       		.byte	0x12
 4738 07f4 12       		.uleb128 0x12
 4739 07f5 5E080000 		.4byte	.LASF133
 4740 07f9 02       		.byte	0x2
 4741 07fa FD01     		.2byte	0x1fd
 4742 07fc 6A080000 		.4byte	0x86a
 4743 0800 13       		.byte	0x13
 4744 0801 12       		.uleb128 0x12
 4745 0802 D9060000 		.4byte	.LASF134
 4746 0806 02       		.byte	0x2
 4747 0807 0402     		.2byte	0x204
 4748 0809 6A080000 		.4byte	0x86a
 4749 080d 14       		.byte	0x14
 4750 080e 12       		.uleb128 0x12
 4751 080f 53080000 		.4byte	.LASF135
 4752 0813 02       		.byte	0x2
 4753 0814 0B02     		.2byte	0x20b
 4754 0816 8C000000 		.4byte	0x8c
 4755 081a 18       		.byte	0x18
 4756 081b 12       		.uleb128 0x12
 4757 081c 8B030000 		.4byte	.LASF136
 4758 0820 02       		.byte	0x2
 4759 0821 1302     		.2byte	0x213
 4760 0823 6A080000 		.4byte	0x86a
 4761 0827 1C       		.byte	0x1c
 4762 0828 12       		.uleb128 0x12
 4763 0829 0B000000 		.4byte	.LASF137
 4764 082d 02       		.byte	0x2
 4765 082e 1B02     		.2byte	0x21b
 4766 0830 8C000000 		.4byte	0x8c
 4767 0834 20       		.byte	0x20
 4768 0835 12       		.uleb128 0x12
 4769 0836 350D0000 		.4byte	.LASF138
 4770 083a 02       		.byte	0x2
 4771 083b 2102     		.2byte	0x221
 4772 083d 8C000000 		.4byte	0x8c
 4773 0841 24       		.byte	0x24
 4774 0842 12       		.uleb128 0x12
 4775 0843 AD090000 		.4byte	.LASF139
 4776 0847 02       		.byte	0x2
 4777 0848 2902     		.2byte	0x229
 4778 084a 8C000000 		.4byte	0x8c
 4779 084e 28       		.byte	0x28
 4780 084f 12       		.uleb128 0x12
ARM GAS  C:\Users\salaz\AppData\Local\Temp\ccynHHO7.s 			page 161


 4781 0850 B0050000 		.4byte	.LASF140
 4782 0854 02       		.byte	0x2
 4783 0855 2F02     		.2byte	0x22f
 4784 0857 8C000000 		.4byte	0x8c
 4785 085b 2C       		.byte	0x2c
 4786 085c 12       		.uleb128 0x12
 4787 085d FB010000 		.4byte	.LASF141
 4788 0861 02       		.byte	0x2
 4789 0862 3602     		.2byte	0x236
 4790 0864 8C000000 		.4byte	0x8c
 4791 0868 30       		.byte	0x30
 4792 0869 00       		.byte	0
 4793 086a 02       		.uleb128 0x2
 4794 086b 01       		.byte	0x1
 4795 086c 02       		.byte	0x2
 4796 086d 660B0000 		.4byte	.LASF142
 4797 0871 0D       		.uleb128 0xd
 4798 0872 00040000 		.4byte	.LASF143
 4799 0876 02       		.byte	0x2
 4800 0877 3802     		.2byte	0x238
 4801 0879 72070000 		.4byte	0x772
 4802 087d 17       		.uleb128 0x17
 4803 087e C8020000 		.4byte	.LASF145
 4804 0882 24       		.byte	0x24
 4805 0883 02       		.byte	0x2
 4806 0884 4102     		.2byte	0x241
 4807 0886 00090000 		.4byte	0x900
 4808 088a 12       		.uleb128 0x12
 4809 088b F10C0000 		.4byte	.LASF146
 4810 088f 02       		.byte	0x2
 4811 0890 4402     		.2byte	0x244
 4812 0892 A5000000 		.4byte	0xa5
 4813 0896 00       		.byte	0
 4814 0897 12       		.uleb128 0x12
 4815 0898 BB0C0000 		.4byte	.LASF147
 4816 089c 02       		.byte	0x2
 4817 089d 4602     		.2byte	0x246
 4818 089f 85060000 		.4byte	0x685
 4819 08a3 04       		.byte	0x4
 4820 08a4 12       		.uleb128 0x12
 4821 08a5 38000000 		.4byte	.LASF148
 4822 08a9 02       		.byte	0x2
 4823 08aa 4702     		.2byte	0x247
 4824 08ac 8C000000 		.4byte	0x8c
 4825 08b0 08       		.byte	0x8
 4826 08b1 12       		.uleb128 0x12
 4827 08b2 61040000 		.4byte	.LASF149
 4828 08b6 02       		.byte	0x2
 4829 08b7 4802     		.2byte	0x248
 4830 08b9 A5000000 		.4byte	0xa5
 4831 08bd 0C       		.byte	0xc
 4832 08be 12       		.uleb128 0x12
 4833 08bf BB010000 		.4byte	.LASF150
 4834 08c3 02       		.byte	0x2
 4835 08c4 4A02     		.2byte	0x24a
 4836 08c6 85060000 		.4byte	0x685
 4837 08ca 10       		.byte	0x10
ARM GAS  C:\Users\salaz\AppData\Local\Temp\ccynHHO7.s 			page 162


 4838 08cb 12       		.uleb128 0x12
 4839 08cc AB040000 		.4byte	.LASF151
 4840 08d0 02       		.byte	0x2
 4841 08d1 4B02     		.2byte	0x24b
 4842 08d3 8C000000 		.4byte	0x8c
 4843 08d7 14       		.byte	0x14
 4844 08d8 12       		.uleb128 0x12
 4845 08d9 920E0000 		.4byte	.LASF152
 4846 08dd 02       		.byte	0x2
 4847 08de 4C02     		.2byte	0x24c
 4848 08e0 A5000000 		.4byte	0xa5
 4849 08e4 18       		.byte	0x18
 4850 08e5 12       		.uleb128 0x12
 4851 08e6 E3050000 		.4byte	.LASF153
 4852 08ea 02       		.byte	0x2
 4853 08eb 5202     		.2byte	0x252
 4854 08ed 55070000 		.4byte	0x755
 4855 08f1 1C       		.byte	0x1c
 4856 08f2 12       		.uleb128 0x12
 4857 08f3 B30C0000 		.4byte	.LASF154
 4858 08f7 02       		.byte	0x2
 4859 08f8 5502     		.2byte	0x255
 4860 08fa 8C000000 		.4byte	0x8c
 4861 08fe 20       		.byte	0x20
 4862 08ff 00       		.byte	0
 4863 0900 0D       		.uleb128 0xd
 4864 0901 C0060000 		.4byte	.LASF155
 4865 0905 02       		.byte	0x2
 4866 0906 5802     		.2byte	0x258
 4867 0908 7D080000 		.4byte	0x87d
 4868 090c 18       		.uleb128 0x18
 4869 090d 7A0C0000 		.4byte	.LASF157
 4870 0911 01       		.byte	0x1
 4871 0912 4802     		.2byte	0x248
 4872 0914 8C000000 		.4byte	0x8c
 4873 0918 00000000 		.4byte	.LFB69
 4874 091c 18000000 		.4byte	.LFE69-.LFB69
 4875 0920 01       		.uleb128 0x1
 4876 0921 9C       		.byte	0x9c
 4877 0922 36090000 		.4byte	0x936
 4878 0926 19       		.uleb128 0x19
 4879 0927 85070000 		.4byte	.LASF103
 4880 092b 01       		.byte	0x1
 4881 092c 4802     		.2byte	0x248
 4882 092e 36090000 		.4byte	0x936
 4883 0932 02       		.uleb128 0x2
 4884 0933 91       		.byte	0x91
 4885 0934 74       		.sleb128 -12
 4886 0935 00       		.byte	0
 4887 0936 14       		.uleb128 0x14
 4888 0937 04       		.byte	0x4
 4889 0938 3C090000 		.4byte	0x93c
 4890 093c 06       		.uleb128 0x6
 4891 093d A9050000 		.4byte	0x5a9
 4892 0941 1A       		.uleb128 0x1a
 4893 0942 39070000 		.4byte	.LASF159
 4894 0946 01       		.byte	0x1
ARM GAS  C:\Users\salaz\AppData\Local\Temp\ccynHHO7.s 			page 163


 4895 0947 5C02     		.2byte	0x25c
 4896 0949 00000000 		.4byte	.LFB70
 4897 094d 58000000 		.4byte	.LFE70-.LFB70
 4898 0951 01       		.uleb128 0x1
 4899 0952 9C       		.byte	0x9c
 4900 0953 76090000 		.4byte	0x976
 4901 0957 19       		.uleb128 0x19
 4902 0958 85070000 		.4byte	.LASF103
 4903 095c 01       		.byte	0x1
 4904 095d 5C02     		.2byte	0x25c
 4905 095f 76090000 		.4byte	0x976
 4906 0963 02       		.uleb128 0x2
 4907 0964 91       		.byte	0x91
 4908 0965 74       		.sleb128 -12
 4909 0966 19       		.uleb128 0x19
 4910 0967 92050000 		.4byte	.LASF156
 4911 096b 01       		.byte	0x1
 4912 096c 5C02     		.2byte	0x25c
 4913 096e 8C000000 		.4byte	0x8c
 4914 0972 02       		.uleb128 0x2
 4915 0973 91       		.byte	0x91
 4916 0974 70       		.sleb128 -16
 4917 0975 00       		.byte	0
 4918 0976 14       		.uleb128 0x14
 4919 0977 04       		.byte	0x4
 4920 0978 A9050000 		.4byte	0x5a9
 4921 097c 18       		.uleb128 0x18
 4922 097d 300E0000 		.4byte	.LASF158
 4923 0981 01       		.byte	0x1
 4924 0982 7102     		.2byte	0x271
 4925 0984 8C000000 		.4byte	0x8c
 4926 0988 00000000 		.4byte	.LFB71
 4927 098c 1C000000 		.4byte	.LFE71-.LFB71
 4928 0990 01       		.uleb128 0x1
 4929 0991 9C       		.byte	0x9c
 4930 0992 A6090000 		.4byte	0x9a6
 4931 0996 19       		.uleb128 0x19
 4932 0997 85070000 		.4byte	.LASF103
 4933 099b 01       		.byte	0x1
 4934 099c 7102     		.2byte	0x271
 4935 099e 36090000 		.4byte	0x936
 4936 09a2 02       		.uleb128 0x2
 4937 09a3 91       		.byte	0x91
 4938 09a4 74       		.sleb128 -12
 4939 09a5 00       		.byte	0
 4940 09a6 1B       		.uleb128 0x1b
 4941 09a7 DE0C0000 		.4byte	.LASF160
 4942 09ab 01       		.byte	0x1
 4943 09ac 9702     		.2byte	0x297
 4944 09ae 00000000 		.4byte	.LFB73
 4945 09b2 4C000000 		.4byte	.LFE73-.LFB73
 4946 09b6 01       		.uleb128 0x1
 4947 09b7 9C       		.byte	0x9c
 4948 09b8 CC090000 		.4byte	0x9cc
 4949 09bc 19       		.uleb128 0x19
 4950 09bd 85070000 		.4byte	.LASF103
 4951 09c1 01       		.byte	0x1
ARM GAS  C:\Users\salaz\AppData\Local\Temp\ccynHHO7.s 			page 164


 4952 09c2 9702     		.2byte	0x297
 4953 09c4 76090000 		.4byte	0x976
 4954 09c8 02       		.uleb128 0x2
 4955 09c9 91       		.byte	0x91
 4956 09ca 74       		.sleb128 -12
 4957 09cb 00       		.byte	0
 4958 09cc 1A       		.uleb128 0x1a
 4959 09cd 3D0C0000 		.4byte	.LASF161
 4960 09d1 01       		.byte	0x1
 4961 09d2 C402     		.2byte	0x2c4
 4962 09d4 00000000 		.4byte	.LFB75
 4963 09d8 58000000 		.4byte	.LFE75-.LFB75
 4964 09dc 01       		.uleb128 0x1
 4965 09dd 9C       		.byte	0x9c
 4966 09de 010A0000 		.4byte	0xa01
 4967 09e2 19       		.uleb128 0x19
 4968 09e3 85070000 		.4byte	.LASF103
 4969 09e7 01       		.byte	0x1
 4970 09e8 C402     		.2byte	0x2c4
 4971 09ea 76090000 		.4byte	0x976
 4972 09ee 02       		.uleb128 0x2
 4973 09ef 91       		.byte	0x91
 4974 09f0 74       		.sleb128 -12
 4975 09f1 19       		.uleb128 0x19
 4976 09f2 92050000 		.4byte	.LASF156
 4977 09f6 01       		.byte	0x1
 4978 09f7 C402     		.2byte	0x2c4
 4979 09f9 8C000000 		.4byte	0x8c
 4980 09fd 02       		.uleb128 0x2
 4981 09fe 91       		.byte	0x91
 4982 09ff 70       		.sleb128 -16
 4983 0a00 00       		.byte	0
 4984 0a01 18       		.uleb128 0x18
 4985 0a02 BA080000 		.4byte	.LASF162
 4986 0a06 01       		.byte	0x1
 4987 0a07 D902     		.2byte	0x2d9
 4988 0a09 8C000000 		.4byte	0x8c
 4989 0a0d 00000000 		.4byte	.LFB76
 4990 0a11 1C000000 		.4byte	.LFE76-.LFB76
 4991 0a15 01       		.uleb128 0x1
 4992 0a16 9C       		.byte	0x9c
 4993 0a17 2B0A0000 		.4byte	0xa2b
 4994 0a1b 19       		.uleb128 0x19
 4995 0a1c 85070000 		.4byte	.LASF103
 4996 0a20 01       		.byte	0x1
 4997 0a21 D902     		.2byte	0x2d9
 4998 0a23 36090000 		.4byte	0x936
 4999 0a27 02       		.uleb128 0x2
 5000 0a28 91       		.byte	0x91
 5001 0a29 74       		.sleb128 -12
 5002 0a2a 00       		.byte	0
 5003 0a2b 18       		.uleb128 0x18
 5004 0a2c 69070000 		.4byte	.LASF163
 5005 0a30 01       		.byte	0x1
 5006 0a31 EC02     		.2byte	0x2ec
 5007 0a33 8C000000 		.4byte	0x8c
 5008 0a37 00000000 		.4byte	.LFB77
ARM GAS  C:\Users\salaz\AppData\Local\Temp\ccynHHO7.s 			page 165


 5009 0a3b 20000000 		.4byte	.LFE77-.LFB77
 5010 0a3f 01       		.uleb128 0x1
 5011 0a40 9C       		.byte	0x9c
 5012 0a41 550A0000 		.4byte	0xa55
 5013 0a45 19       		.uleb128 0x19
 5014 0a46 85070000 		.4byte	.LASF103
 5015 0a4a 01       		.byte	0x1
 5016 0a4b EC02     		.2byte	0x2ec
 5017 0a4d 36090000 		.4byte	0x936
 5018 0a51 02       		.uleb128 0x2
 5019 0a52 91       		.byte	0x91
 5020 0a53 74       		.sleb128 -12
 5021 0a54 00       		.byte	0
 5022 0a55 1C       		.uleb128 0x1c
 5023 0a56 900A0000 		.4byte	.LASF164
 5024 0a5a 01       		.byte	0x1
 5025 0a5b FF02     		.2byte	0x2ff
 5026 0a5d 6A080000 		.4byte	0x86a
 5027 0a61 00000000 		.4byte	.LFB78
 5028 0a65 2C000000 		.4byte	.LFE78-.LFB78
 5029 0a69 01       		.uleb128 0x1
 5030 0a6a 9C       		.byte	0x9c
 5031 0a6b 7F0A0000 		.4byte	0xa7f
 5032 0a6f 19       		.uleb128 0x19
 5033 0a70 85070000 		.4byte	.LASF103
 5034 0a74 01       		.byte	0x1
 5035 0a75 FF02     		.2byte	0x2ff
 5036 0a77 36090000 		.4byte	0x936
 5037 0a7b 02       		.uleb128 0x2
 5038 0a7c 91       		.byte	0x91
 5039 0a7d 6C       		.sleb128 -20
 5040 0a7e 00       		.byte	0
 5041 0a7f 1B       		.uleb128 0x1b
 5042 0a80 C1010000 		.4byte	.LASF165
 5043 0a84 01       		.byte	0x1
 5044 0a85 1403     		.2byte	0x314
 5045 0a87 00000000 		.4byte	.LFB79
 5046 0a8b 4C000000 		.4byte	.LFE79-.LFB79
 5047 0a8f 01       		.uleb128 0x1
 5048 0a90 9C       		.byte	0x9c
 5049 0a91 A50A0000 		.4byte	0xaa5
 5050 0a95 19       		.uleb128 0x19
 5051 0a96 85070000 		.4byte	.LASF103
 5052 0a9a 01       		.byte	0x1
 5053 0a9b 1403     		.2byte	0x314
 5054 0a9d 76090000 		.4byte	0x976
 5055 0aa1 02       		.uleb128 0x2
 5056 0aa2 91       		.byte	0x91
 5057 0aa3 74       		.sleb128 -12
 5058 0aa4 00       		.byte	0
 5059 0aa5 1A       		.uleb128 0x1a
 5060 0aa6 47040000 		.4byte	.LASF166
 5061 0aaa 01       		.byte	0x1
 5062 0aab 7603     		.2byte	0x376
 5063 0aad 00000000 		.4byte	.LFB83
 5064 0ab1 3C000000 		.4byte	.LFE83-.LFB83
 5065 0ab5 01       		.uleb128 0x1
ARM GAS  C:\Users\salaz\AppData\Local\Temp\ccynHHO7.s 			page 166


 5066 0ab6 9C       		.byte	0x9c
 5067 0ab7 DA0A0000 		.4byte	0xada
 5068 0abb 19       		.uleb128 0x19
 5069 0abc 85070000 		.4byte	.LASF103
 5070 0ac0 01       		.byte	0x1
 5071 0ac1 7603     		.2byte	0x376
 5072 0ac3 76090000 		.4byte	0x976
 5073 0ac7 02       		.uleb128 0x2
 5074 0ac8 91       		.byte	0x91
 5075 0ac9 74       		.sleb128 -12
 5076 0aca 19       		.uleb128 0x19
 5077 0acb 500A0000 		.4byte	.LASF167
 5078 0acf 01       		.byte	0x1
 5079 0ad0 7603     		.2byte	0x376
 5080 0ad2 8C000000 		.4byte	0x8c
 5081 0ad6 02       		.uleb128 0x2
 5082 0ad7 91       		.byte	0x91
 5083 0ad8 70       		.sleb128 -16
 5084 0ad9 00       		.byte	0
 5085 0ada 18       		.uleb128 0x18
 5086 0adb 9F030000 		.4byte	.LASF168
 5087 0adf 01       		.byte	0x1
 5088 0ae0 8D03     		.2byte	0x38d
 5089 0ae2 8C000000 		.4byte	0x8c
 5090 0ae6 00000000 		.4byte	.LFB84
 5091 0aea 1C000000 		.4byte	.LFE84-.LFB84
 5092 0aee 01       		.uleb128 0x1
 5093 0aef 9C       		.byte	0x9c
 5094 0af0 040B0000 		.4byte	0xb04
 5095 0af4 19       		.uleb128 0x19
 5096 0af5 85070000 		.4byte	.LASF103
 5097 0af9 01       		.byte	0x1
 5098 0afa 8D03     		.2byte	0x38d
 5099 0afc 36090000 		.4byte	0x936
 5100 0b00 02       		.uleb128 0x2
 5101 0b01 91       		.byte	0x91
 5102 0b02 74       		.sleb128 -12
 5103 0b03 00       		.byte	0
 5104 0b04 18       		.uleb128 0x18
 5105 0b05 1C020000 		.4byte	.LASF169
 5106 0b09 01       		.byte	0x1
 5107 0b0a A503     		.2byte	0x3a5
 5108 0b0c 8C000000 		.4byte	0x8c
 5109 0b10 00000000 		.4byte	.LFB85
 5110 0b14 1C000000 		.4byte	.LFE85-.LFB85
 5111 0b18 01       		.uleb128 0x1
 5112 0b19 9C       		.byte	0x9c
 5113 0b1a 2E0B0000 		.4byte	0xb2e
 5114 0b1e 19       		.uleb128 0x19
 5115 0b1f 85070000 		.4byte	.LASF103
 5116 0b23 01       		.byte	0x1
 5117 0b24 A503     		.2byte	0x3a5
 5118 0b26 36090000 		.4byte	0x936
 5119 0b2a 02       		.uleb128 0x2
 5120 0b2b 91       		.byte	0x91
 5121 0b2c 74       		.sleb128 -12
 5122 0b2d 00       		.byte	0
ARM GAS  C:\Users\salaz\AppData\Local\Temp\ccynHHO7.s 			page 167


 5123 0b2e 1A       		.uleb128 0x1a
 5124 0b2f 610E0000 		.4byte	.LASF170
 5125 0b33 01       		.byte	0x1
 5126 0b34 C103     		.2byte	0x3c1
 5127 0b36 00000000 		.4byte	.LFB86
 5128 0b3a 44000000 		.4byte	.LFE86-.LFB86
 5129 0b3e 01       		.uleb128 0x1
 5130 0b3f 9C       		.byte	0x9c
 5131 0b40 630B0000 		.4byte	0xb63
 5132 0b44 19       		.uleb128 0x19
 5133 0b45 85070000 		.4byte	.LASF103
 5134 0b49 01       		.byte	0x1
 5135 0b4a C103     		.2byte	0x3c1
 5136 0b4c 76090000 		.4byte	0x976
 5137 0b50 02       		.uleb128 0x2
 5138 0b51 91       		.byte	0x91
 5139 0b52 74       		.sleb128 -12
 5140 0b53 19       		.uleb128 0x19
 5141 0b54 500A0000 		.4byte	.LASF167
 5142 0b58 01       		.byte	0x1
 5143 0b59 C103     		.2byte	0x3c1
 5144 0b5b 8C000000 		.4byte	0x8c
 5145 0b5f 02       		.uleb128 0x2
 5146 0b60 91       		.byte	0x91
 5147 0b61 70       		.sleb128 -16
 5148 0b62 00       		.byte	0
 5149 0b63 1A       		.uleb128 0x1a
 5150 0b64 0E050000 		.4byte	.LASF171
 5151 0b68 01       		.byte	0x1
 5152 0b69 0604     		.2byte	0x406
 5153 0b6b 00000000 		.4byte	.LFB89
 5154 0b6f 3C000000 		.4byte	.LFE89-.LFB89
 5155 0b73 01       		.uleb128 0x1
 5156 0b74 9C       		.byte	0x9c
 5157 0b75 980B0000 		.4byte	0xb98
 5158 0b79 19       		.uleb128 0x19
 5159 0b7a 85070000 		.4byte	.LASF103
 5160 0b7e 01       		.byte	0x1
 5161 0b7f 0604     		.2byte	0x406
 5162 0b81 76090000 		.4byte	0x976
 5163 0b85 02       		.uleb128 0x2
 5164 0b86 91       		.byte	0x91
 5165 0b87 74       		.sleb128 -12
 5166 0b88 19       		.uleb128 0x19
 5167 0b89 500A0000 		.4byte	.LASF167
 5168 0b8d 01       		.byte	0x1
 5169 0b8e 0604     		.2byte	0x406
 5170 0b90 8C000000 		.4byte	0x8c
 5171 0b94 02       		.uleb128 0x2
 5172 0b95 91       		.byte	0x91
 5173 0b96 70       		.sleb128 -16
 5174 0b97 00       		.byte	0
 5175 0b98 18       		.uleb128 0x18
 5176 0b99 C1040000 		.4byte	.LASF172
 5177 0b9d 01       		.byte	0x1
 5178 0b9e 1D04     		.2byte	0x41d
 5179 0ba0 8C000000 		.4byte	0x8c
ARM GAS  C:\Users\salaz\AppData\Local\Temp\ccynHHO7.s 			page 168


 5180 0ba4 00000000 		.4byte	.LFB90
 5181 0ba8 1C000000 		.4byte	.LFE90-.LFB90
 5182 0bac 01       		.uleb128 0x1
 5183 0bad 9C       		.byte	0x9c
 5184 0bae C20B0000 		.4byte	0xbc2
 5185 0bb2 19       		.uleb128 0x19
 5186 0bb3 85070000 		.4byte	.LASF103
 5187 0bb7 01       		.byte	0x1
 5188 0bb8 1D04     		.2byte	0x41d
 5189 0bba 36090000 		.4byte	0x936
 5190 0bbe 02       		.uleb128 0x2
 5191 0bbf 91       		.byte	0x91
 5192 0bc0 74       		.sleb128 -12
 5193 0bc1 00       		.byte	0
 5194 0bc2 18       		.uleb128 0x18
 5195 0bc3 3B090000 		.4byte	.LASF173
 5196 0bc7 01       		.byte	0x1
 5197 0bc8 3504     		.2byte	0x435
 5198 0bca 8C000000 		.4byte	0x8c
 5199 0bce 00000000 		.4byte	.LFB91
 5200 0bd2 1C000000 		.4byte	.LFE91-.LFB91
 5201 0bd6 01       		.uleb128 0x1
 5202 0bd7 9C       		.byte	0x9c
 5203 0bd8 EC0B0000 		.4byte	0xbec
 5204 0bdc 19       		.uleb128 0x19
 5205 0bdd 85070000 		.4byte	.LASF103
 5206 0be1 01       		.byte	0x1
 5207 0be2 3504     		.2byte	0x435
 5208 0be4 36090000 		.4byte	0x936
 5209 0be8 02       		.uleb128 0x2
 5210 0be9 91       		.byte	0x91
 5211 0bea 74       		.sleb128 -12
 5212 0beb 00       		.byte	0
 5213 0bec 1A       		.uleb128 0x1a
 5214 0bed 1D0D0000 		.4byte	.LASF174
 5215 0bf1 01       		.byte	0x1
 5216 0bf2 5304     		.2byte	0x453
 5217 0bf4 00000000 		.4byte	.LFB92
 5218 0bf8 44000000 		.4byte	.LFE92-.LFB92
 5219 0bfc 01       		.uleb128 0x1
 5220 0bfd 9C       		.byte	0x9c
 5221 0bfe 210C0000 		.4byte	0xc21
 5222 0c02 19       		.uleb128 0x19
 5223 0c03 85070000 		.4byte	.LASF103
 5224 0c07 01       		.byte	0x1
 5225 0c08 5304     		.2byte	0x453
 5226 0c0a 76090000 		.4byte	0x976
 5227 0c0e 02       		.uleb128 0x2
 5228 0c0f 91       		.byte	0x91
 5229 0c10 74       		.sleb128 -12
 5230 0c11 19       		.uleb128 0x19
 5231 0c12 500A0000 		.4byte	.LASF167
 5232 0c16 01       		.byte	0x1
 5233 0c17 5304     		.2byte	0x453
 5234 0c19 8C000000 		.4byte	0x8c
 5235 0c1d 02       		.uleb128 0x2
 5236 0c1e 91       		.byte	0x91
ARM GAS  C:\Users\salaz\AppData\Local\Temp\ccynHHO7.s 			page 169


 5237 0c1f 70       		.sleb128 -16
 5238 0c20 00       		.byte	0
 5239 0c21 1A       		.uleb128 0x1a
 5240 0c22 5C050000 		.4byte	.LASF175
 5241 0c26 01       		.byte	0x1
 5242 0c27 9804     		.2byte	0x498
 5243 0c29 00000000 		.4byte	.LFB95
 5244 0c2d 40000000 		.4byte	.LFE95-.LFB95
 5245 0c31 01       		.uleb128 0x1
 5246 0c32 9C       		.byte	0x9c
 5247 0c33 560C0000 		.4byte	0xc56
 5248 0c37 19       		.uleb128 0x19
 5249 0c38 85070000 		.4byte	.LASF103
 5250 0c3c 01       		.byte	0x1
 5251 0c3d 9804     		.2byte	0x498
 5252 0c3f 76090000 		.4byte	0x976
 5253 0c43 02       		.uleb128 0x2
 5254 0c44 91       		.byte	0x91
 5255 0c45 74       		.sleb128 -12
 5256 0c46 19       		.uleb128 0x19
 5257 0c47 500A0000 		.4byte	.LASF167
 5258 0c4b 01       		.byte	0x1
 5259 0c4c 9804     		.2byte	0x498
 5260 0c4e 8C000000 		.4byte	0x8c
 5261 0c52 02       		.uleb128 0x2
 5262 0c53 91       		.byte	0x91
 5263 0c54 70       		.sleb128 -16
 5264 0c55 00       		.byte	0
 5265 0c56 1A       		.uleb128 0x1a
 5266 0c57 5E0A0000 		.4byte	.LASF176
 5267 0c5b 01       		.byte	0x1
 5268 0c5c 2205     		.2byte	0x522
 5269 0c5e 00000000 		.4byte	.LFB101
 5270 0c62 40000000 		.4byte	.LFE101-.LFB101
 5271 0c66 01       		.uleb128 0x1
 5272 0c67 9C       		.byte	0x9c
 5273 0c68 8B0C0000 		.4byte	0xc8b
 5274 0c6c 19       		.uleb128 0x19
 5275 0c6d 85070000 		.4byte	.LASF103
 5276 0c71 01       		.byte	0x1
 5277 0c72 2205     		.2byte	0x522
 5278 0c74 76090000 		.4byte	0x976
 5279 0c78 02       		.uleb128 0x2
 5280 0c79 91       		.byte	0x91
 5281 0c7a 74       		.sleb128 -12
 5282 0c7b 19       		.uleb128 0x19
 5283 0c7c 500A0000 		.4byte	.LASF167
 5284 0c80 01       		.byte	0x1
 5285 0c81 2205     		.2byte	0x522
 5286 0c83 8C000000 		.4byte	0x8c
 5287 0c87 02       		.uleb128 0x2
 5288 0c88 91       		.byte	0x91
 5289 0c89 70       		.sleb128 -16
 5290 0c8a 00       		.byte	0
 5291 0c8b 18       		.uleb128 0x18
 5292 0c8c F80C0000 		.4byte	.LASF177
 5293 0c90 01       		.byte	0x1
ARM GAS  C:\Users\salaz\AppData\Local\Temp\ccynHHO7.s 			page 170


 5294 0c91 5305     		.2byte	0x553
 5295 0c93 8C000000 		.4byte	0x8c
 5296 0c97 00000000 		.4byte	.LFB103
 5297 0c9b 1C000000 		.4byte	.LFE103-.LFB103
 5298 0c9f 01       		.uleb128 0x1
 5299 0ca0 9C       		.byte	0x9c
 5300 0ca1 B50C0000 		.4byte	0xcb5
 5301 0ca5 19       		.uleb128 0x19
 5302 0ca6 85070000 		.4byte	.LASF103
 5303 0caa 01       		.byte	0x1
 5304 0cab 5305     		.2byte	0x553
 5305 0cad 36090000 		.4byte	0x936
 5306 0cb1 02       		.uleb128 0x2
 5307 0cb2 91       		.byte	0x91
 5308 0cb3 74       		.sleb128 -12
 5309 0cb4 00       		.byte	0
 5310 0cb5 1A       		.uleb128 0x1a
 5311 0cb6 9C060000 		.4byte	.LASF178
 5312 0cba 01       		.byte	0x1
 5313 0cbb 6705     		.2byte	0x567
 5314 0cbd 00000000 		.4byte	.LFB104
 5315 0cc1 44000000 		.4byte	.LFE104-.LFB104
 5316 0cc5 01       		.uleb128 0x1
 5317 0cc6 9C       		.byte	0x9c
 5318 0cc7 EA0C0000 		.4byte	0xcea
 5319 0ccb 19       		.uleb128 0x19
 5320 0ccc 85070000 		.4byte	.LASF103
 5321 0cd0 01       		.byte	0x1
 5322 0cd1 6705     		.2byte	0x567
 5323 0cd3 76090000 		.4byte	0x976
 5324 0cd7 02       		.uleb128 0x2
 5325 0cd8 91       		.byte	0x91
 5326 0cd9 74       		.sleb128 -12
 5327 0cda 19       		.uleb128 0x19
 5328 0cdb 500A0000 		.4byte	.LASF167
 5329 0cdf 01       		.byte	0x1
 5330 0ce0 6705     		.2byte	0x567
 5331 0ce2 8C000000 		.4byte	0x8c
 5332 0ce6 02       		.uleb128 0x2
 5333 0ce7 91       		.byte	0x91
 5334 0ce8 70       		.sleb128 -16
 5335 0ce9 00       		.byte	0
 5336 0cea 1A       		.uleb128 0x1a
 5337 0ceb 460E0000 		.4byte	.LASF179
 5338 0cef 01       		.byte	0x1
 5339 0cf0 1D06     		.2byte	0x61d
 5340 0cf2 00000000 		.4byte	.LFB112
 5341 0cf6 3C000000 		.4byte	.LFE112-.LFB112
 5342 0cfa 01       		.uleb128 0x1
 5343 0cfb 9C       		.byte	0x9c
 5344 0cfc 1F0D0000 		.4byte	0xd1f
 5345 0d00 19       		.uleb128 0x19
 5346 0d01 85070000 		.4byte	.LASF103
 5347 0d05 01       		.byte	0x1
 5348 0d06 1D06     		.2byte	0x61d
 5349 0d08 76090000 		.4byte	0x976
 5350 0d0c 02       		.uleb128 0x2
ARM GAS  C:\Users\salaz\AppData\Local\Temp\ccynHHO7.s 			page 171


 5351 0d0d 91       		.byte	0x91
 5352 0d0e 74       		.sleb128 -12
 5353 0d0f 19       		.uleb128 0x19
 5354 0d10 500A0000 		.4byte	.LASF167
 5355 0d14 01       		.byte	0x1
 5356 0d15 1D06     		.2byte	0x61d
 5357 0d17 8C000000 		.4byte	0x8c
 5358 0d1b 02       		.uleb128 0x2
 5359 0d1c 91       		.byte	0x91
 5360 0d1d 70       		.sleb128 -16
 5361 0d1e 00       		.byte	0
 5362 0d1f 18       		.uleb128 0x18
 5363 0d20 690D0000 		.4byte	.LASF180
 5364 0d24 01       		.byte	0x1
 5365 0d25 4C06     		.2byte	0x64c
 5366 0d27 8C000000 		.4byte	0x8c
 5367 0d2b 00000000 		.4byte	.LFB114
 5368 0d2f 1C000000 		.4byte	.LFE114-.LFB114
 5369 0d33 01       		.uleb128 0x1
 5370 0d34 9C       		.byte	0x9c
 5371 0d35 490D0000 		.4byte	0xd49
 5372 0d39 19       		.uleb128 0x19
 5373 0d3a 85070000 		.4byte	.LASF103
 5374 0d3e 01       		.byte	0x1
 5375 0d3f 4C06     		.2byte	0x64c
 5376 0d41 36090000 		.4byte	0x936
 5377 0d45 02       		.uleb128 0x2
 5378 0d46 91       		.byte	0x91
 5379 0d47 74       		.sleb128 -12
 5380 0d48 00       		.byte	0
 5381 0d49 1A       		.uleb128 0x1a
 5382 0d4a 790E0000 		.4byte	.LASF181
 5383 0d4e 01       		.byte	0x1
 5384 0d4f 6006     		.2byte	0x660
 5385 0d51 00000000 		.4byte	.LFB115
 5386 0d55 40000000 		.4byte	.LFE115-.LFB115
 5387 0d59 01       		.uleb128 0x1
 5388 0d5a 9C       		.byte	0x9c
 5389 0d5b 7E0D0000 		.4byte	0xd7e
 5390 0d5f 19       		.uleb128 0x19
 5391 0d60 85070000 		.4byte	.LASF103
 5392 0d64 01       		.byte	0x1
 5393 0d65 6006     		.2byte	0x660
 5394 0d67 76090000 		.4byte	0x976
 5395 0d6b 02       		.uleb128 0x2
 5396 0d6c 91       		.byte	0x91
 5397 0d6d 74       		.sleb128 -12
 5398 0d6e 19       		.uleb128 0x19
 5399 0d6f 500A0000 		.4byte	.LASF167
 5400 0d73 01       		.byte	0x1
 5401 0d74 6006     		.2byte	0x660
 5402 0d76 8C000000 		.4byte	0x8c
 5403 0d7a 02       		.uleb128 0x2
 5404 0d7b 91       		.byte	0x91
 5405 0d7c 70       		.sleb128 -16
 5406 0d7d 00       		.byte	0
 5407 0d7e 18       		.uleb128 0x18
ARM GAS  C:\Users\salaz\AppData\Local\Temp\ccynHHO7.s 			page 172


 5408 0d7f 0D090000 		.4byte	.LASF182
 5409 0d83 01       		.byte	0x1
 5410 0d84 7606     		.2byte	0x676
 5411 0d86 8C000000 		.4byte	0x8c
 5412 0d8a 00000000 		.4byte	.LFB116
 5413 0d8e 22000000 		.4byte	.LFE116-.LFB116
 5414 0d92 01       		.uleb128 0x1
 5415 0d93 9C       		.byte	0x9c
 5416 0d94 A80D0000 		.4byte	0xda8
 5417 0d98 19       		.uleb128 0x19
 5418 0d99 85070000 		.4byte	.LASF103
 5419 0d9d 01       		.byte	0x1
 5420 0d9e 7606     		.2byte	0x676
 5421 0da0 36090000 		.4byte	0x936
 5422 0da4 02       		.uleb128 0x2
 5423 0da5 91       		.byte	0x91
 5424 0da6 74       		.sleb128 -12
 5425 0da7 00       		.byte	0
 5426 0da8 18       		.uleb128 0x18
 5427 0da9 FC0A0000 		.4byte	.LASF183
 5428 0dad 01       		.byte	0x1
 5429 0dae 8A06     		.2byte	0x68a
 5430 0db0 6A080000 		.4byte	0x86a
 5431 0db4 00000000 		.4byte	.LFB117
 5432 0db8 26000000 		.4byte	.LFE117-.LFB117
 5433 0dbc 01       		.uleb128 0x1
 5434 0dbd 9C       		.byte	0x9c
 5435 0dbe D20D0000 		.4byte	0xdd2
 5436 0dc2 19       		.uleb128 0x19
 5437 0dc3 85070000 		.4byte	.LASF103
 5438 0dc7 01       		.byte	0x1
 5439 0dc8 8A06     		.2byte	0x68a
 5440 0dca 36090000 		.4byte	0x936
 5441 0dce 02       		.uleb128 0x2
 5442 0dcf 91       		.byte	0x91
 5443 0dd0 74       		.sleb128 -12
 5444 0dd1 00       		.byte	0
 5445 0dd2 18       		.uleb128 0x18
 5446 0dd3 65000000 		.4byte	.LASF184
 5447 0dd7 01       		.byte	0x1
 5448 0dd8 9D06     		.2byte	0x69d
 5449 0dda 6A080000 		.4byte	0x86a
 5450 0dde 00000000 		.4byte	.LFB118
 5451 0de2 26000000 		.4byte	.LFE118-.LFB118
 5452 0de6 01       		.uleb128 0x1
 5453 0de7 9C       		.byte	0x9c
 5454 0de8 FC0D0000 		.4byte	0xdfc
 5455 0dec 19       		.uleb128 0x19
 5456 0ded 85070000 		.4byte	.LASF103
 5457 0df1 01       		.byte	0x1
 5458 0df2 9D06     		.2byte	0x69d
 5459 0df4 36090000 		.4byte	0x936
 5460 0df8 02       		.uleb128 0x2
 5461 0df9 91       		.byte	0x91
 5462 0dfa 74       		.sleb128 -12
 5463 0dfb 00       		.byte	0
 5464 0dfc 1B       		.uleb128 0x1b
ARM GAS  C:\Users\salaz\AppData\Local\Temp\ccynHHO7.s 			page 173


 5465 0dfd 01080000 		.4byte	.LASF185
 5466 0e01 02       		.byte	0x2
 5467 0e02 8403     		.2byte	0x384
 5468 0e04 00000000 		.4byte	.LFB121
 5469 0e08 1E000000 		.4byte	.LFE121-.LFB121
 5470 0e0c 01       		.uleb128 0x1
 5471 0e0d 9C       		.byte	0x9c
 5472 0e0e 220E0000 		.4byte	0xe22
 5473 0e12 19       		.uleb128 0x19
 5474 0e13 85070000 		.4byte	.LASF103
 5475 0e17 02       		.byte	0x2
 5476 0e18 8403     		.2byte	0x384
 5477 0e1a 76090000 		.4byte	0x976
 5478 0e1e 02       		.uleb128 0x2
 5479 0e1f 91       		.byte	0x91
 5480 0e20 74       		.sleb128 -12
 5481 0e21 00       		.byte	0
 5482 0e22 18       		.uleb128 0x18
 5483 0e23 E8000000 		.4byte	.LASF186
 5484 0e27 02       		.byte	0x2
 5485 0e28 A503     		.2byte	0x3a5
 5486 0e2a 6A080000 		.4byte	0x86a
 5487 0e2e 00000000 		.4byte	.LFB122
 5488 0e32 1E000000 		.4byte	.LFE122-.LFB122
 5489 0e36 01       		.uleb128 0x1
 5490 0e37 9C       		.byte	0x9c
 5491 0e38 4C0E0000 		.4byte	0xe4c
 5492 0e3c 19       		.uleb128 0x19
 5493 0e3d 85070000 		.4byte	.LASF103
 5494 0e41 02       		.byte	0x2
 5495 0e42 A503     		.2byte	0x3a5
 5496 0e44 36090000 		.4byte	0x936
 5497 0e48 02       		.uleb128 0x2
 5498 0e49 91       		.byte	0x91
 5499 0e4a 74       		.sleb128 -12
 5500 0e4b 00       		.byte	0
 5501 0e4c 1C       		.uleb128 0x1c
 5502 0e4d 3C030000 		.4byte	.LASF187
 5503 0e51 02       		.byte	0x2
 5504 0e52 3504     		.2byte	0x435
 5505 0e54 8C000000 		.4byte	0x8c
 5506 0e58 00000000 		.4byte	.LFB127
 5507 0e5c 1A000000 		.4byte	.LFE127-.LFB127
 5508 0e60 01       		.uleb128 0x1
 5509 0e61 9C       		.byte	0x9c
 5510 0e62 760E0000 		.4byte	0xe76
 5511 0e66 19       		.uleb128 0x19
 5512 0e67 85070000 		.4byte	.LASF103
 5513 0e6b 02       		.byte	0x2
 5514 0e6c 3504     		.2byte	0x435
 5515 0e6e 36090000 		.4byte	0x936
 5516 0e72 02       		.uleb128 0x2
 5517 0e73 91       		.byte	0x91
 5518 0e74 74       		.sleb128 -12
 5519 0e75 00       		.byte	0
 5520 0e76 1A       		.uleb128 0x1a
 5521 0e77 D1000000 		.4byte	.LASF188
ARM GAS  C:\Users\salaz\AppData\Local\Temp\ccynHHO7.s 			page 174


 5522 0e7b 02       		.byte	0x2
 5523 0e7c 4804     		.2byte	0x448
 5524 0e7e 00000000 		.4byte	.LFB128
 5525 0e82 18000000 		.4byte	.LFE128-.LFB128
 5526 0e86 01       		.uleb128 0x1
 5527 0e87 9C       		.byte	0x9c
 5528 0e88 9C0E0000 		.4byte	0xe9c
 5529 0e8c 19       		.uleb128 0x19
 5530 0e8d 85070000 		.4byte	.LASF103
 5531 0e91 02       		.byte	0x2
 5532 0e92 4804     		.2byte	0x448
 5533 0e94 76090000 		.4byte	0x976
 5534 0e98 02       		.uleb128 0x2
 5535 0e99 91       		.byte	0x91
 5536 0e9a 74       		.sleb128 -12
 5537 0e9b 00       		.byte	0
 5538 0e9c 1C       		.uleb128 0x1c
 5539 0e9d 9D000000 		.4byte	.LASF189
 5540 0ea1 02       		.byte	0x2
 5541 0ea2 A304     		.2byte	0x4a3
 5542 0ea4 6A080000 		.4byte	0x86a
 5543 0ea8 00000000 		.4byte	.LFB132
 5544 0eac 1A000000 		.4byte	.LFE132-.LFB132
 5545 0eb0 01       		.uleb128 0x1
 5546 0eb1 9C       		.byte	0x9c
 5547 0eb2 C60E0000 		.4byte	0xec6
 5548 0eb6 19       		.uleb128 0x19
 5549 0eb7 85070000 		.4byte	.LASF103
 5550 0ebb 02       		.byte	0x2
 5551 0ebc A304     		.2byte	0x4a3
 5552 0ebe 36090000 		.4byte	0x936
 5553 0ec2 02       		.uleb128 0x2
 5554 0ec3 91       		.byte	0x91
 5555 0ec4 74       		.sleb128 -12
 5556 0ec5 00       		.byte	0
 5557 0ec6 1A       		.uleb128 0x1a
 5558 0ec7 74030000 		.4byte	.LASF190
 5559 0ecb 02       		.byte	0x2
 5560 0ecc B904     		.2byte	0x4b9
 5561 0ece 00000000 		.4byte	.LFB133
 5562 0ed2 18000000 		.4byte	.LFE133-.LFB133
 5563 0ed6 01       		.uleb128 0x1
 5564 0ed7 9C       		.byte	0x9c
 5565 0ed8 EC0E0000 		.4byte	0xeec
 5566 0edc 19       		.uleb128 0x19
 5567 0edd 85070000 		.4byte	.LASF103
 5568 0ee1 02       		.byte	0x2
 5569 0ee2 B904     		.2byte	0x4b9
 5570 0ee4 76090000 		.4byte	0x976
 5571 0ee8 02       		.uleb128 0x2
 5572 0ee9 91       		.byte	0x91
 5573 0eea 74       		.sleb128 -12
 5574 0eeb 00       		.byte	0
 5575 0eec 1C       		.uleb128 0x1c
 5576 0eed 9B040000 		.4byte	.LASF191
 5577 0ef1 02       		.byte	0x2
 5578 0ef2 1405     		.2byte	0x514
ARM GAS  C:\Users\salaz\AppData\Local\Temp\ccynHHO7.s 			page 175


 5579 0ef4 8C000000 		.4byte	0x8c
 5580 0ef8 00000000 		.4byte	.LFB136
 5581 0efc 1A000000 		.4byte	.LFE136-.LFB136
 5582 0f00 01       		.uleb128 0x1
 5583 0f01 9C       		.byte	0x9c
 5584 0f02 160F0000 		.4byte	0xf16
 5585 0f06 19       		.uleb128 0x19
 5586 0f07 85070000 		.4byte	.LASF103
 5587 0f0b 02       		.byte	0x2
 5588 0f0c 1405     		.2byte	0x514
 5589 0f0e 36090000 		.4byte	0x936
 5590 0f12 02       		.uleb128 0x2
 5591 0f13 91       		.byte	0x91
 5592 0f14 74       		.sleb128 -12
 5593 0f15 00       		.byte	0
 5594 0f16 18       		.uleb128 0x18
 5595 0f17 A40A0000 		.4byte	.LASF192
 5596 0f1b 02       		.byte	0x2
 5597 0f1c E905     		.2byte	0x5e9
 5598 0f1e 8C000000 		.4byte	0x8c
 5599 0f22 00000000 		.4byte	.LFB142
 5600 0f26 44000000 		.4byte	.LFE142-.LFB142
 5601 0f2a 01       		.uleb128 0x1
 5602 0f2b 9C       		.byte	0x9c
 5603 0f2c 4F0F0000 		.4byte	0xf4f
 5604 0f30 19       		.uleb128 0x19
 5605 0f31 C4050000 		.4byte	.LASF125
 5606 0f35 02       		.byte	0x2
 5607 0f36 E905     		.2byte	0x5e9
 5608 0f38 17070000 		.4byte	0x717
 5609 0f3c 02       		.uleb128 0x2
 5610 0f3d 91       		.byte	0x91
 5611 0f3e 77       		.sleb128 -9
 5612 0f3f 19       		.uleb128 0x19
 5613 0f40 E5070000 		.4byte	.LASF126
 5614 0f44 02       		.byte	0x2
 5615 0f45 E905     		.2byte	0x5e9
 5616 0f47 49070000 		.4byte	0x749
 5617 0f4b 02       		.uleb128 0x2
 5618 0f4c 91       		.byte	0x91
 5619 0f4d 76       		.sleb128 -10
 5620 0f4e 00       		.byte	0
 5621 0f4f 1D       		.uleb128 0x1d
 5622 0f50 400A0000 		.4byte	.LASF198
 5623 0f54 03       		.byte	0x3
 5624 0f55 35       		.byte	0x35
 5625 0f56 BF060000 		.4byte	0x6bf
 5626 0f5a 00000000 		.4byte	.LFB143
 5627 0f5e BC030000 		.4byte	.LFE143-.LFB143
 5628 0f62 01       		.uleb128 0x1
 5629 0f63 9C       		.byte	0x9c
 5630 0f64 AF0F0000 		.4byte	0xfaf
 5631 0f68 1E       		.uleb128 0x1e
 5632 0f69 85070000 		.4byte	.LASF103
 5633 0f6d 03       		.byte	0x3
 5634 0f6e 35       		.byte	0x35
 5635 0f6f 76090000 		.4byte	0x976
ARM GAS  C:\Users\salaz\AppData\Local\Temp\ccynHHO7.s 			page 176


 5636 0f73 02       		.uleb128 0x2
 5637 0f74 91       		.byte	0x91
 5638 0f75 64       		.sleb128 -28
 5639 0f76 1E       		.uleb128 0x1e
 5640 0f77 9C0B0000 		.4byte	.LASF193
 5641 0f7b 03       		.byte	0x3
 5642 0f7c 35       		.byte	0x35
 5643 0f7d AF0F0000 		.4byte	0xfaf
 5644 0f81 02       		.uleb128 0x2
 5645 0f82 91       		.byte	0x91
 5646 0f83 60       		.sleb128 -32
 5647 0f84 1E       		.uleb128 0x1e
 5648 0f85 5E0C0000 		.4byte	.LASF104
 5649 0f89 03       		.byte	0x3
 5650 0f8a 35       		.byte	0x35
 5651 0f8b BA0F0000 		.4byte	0xfba
 5652 0f8f 02       		.uleb128 0x2
 5653 0f90 91       		.byte	0x91
 5654 0f91 5C       		.sleb128 -36
 5655 0f92 1F       		.uleb128 0x1f
 5656 0f93 B5040000 		.4byte	.LASF194
 5657 0f97 03       		.byte	0x3
 5658 0f98 5A       		.byte	0x5a
 5659 0f99 8C000000 		.4byte	0x8c
 5660 0f9d 02       		.uleb128 0x2
 5661 0f9e 91       		.byte	0x91
 5662 0f9f 6C       		.sleb128 -20
 5663 0fa0 1F       		.uleb128 0x1f
 5664 0fa1 7D0B0000 		.4byte	.LASF195
 5665 0fa5 03       		.byte	0x3
 5666 0fa6 5C       		.byte	0x5c
 5667 0fa7 6A080000 		.4byte	0x86a
 5668 0fab 02       		.uleb128 0x2
 5669 0fac 91       		.byte	0x91
 5670 0fad 6B       		.sleb128 -21
 5671 0fae 00       		.byte	0
 5672 0faf 14       		.uleb128 0x14
 5673 0fb0 04       		.byte	0x4
 5674 0fb1 B50F0000 		.4byte	0xfb5
 5675 0fb5 06       		.uleb128 0x6
 5676 0fb6 71080000 		.4byte	0x871
 5677 0fba 14       		.uleb128 0x14
 5678 0fbb 04       		.byte	0x4
 5679 0fbc 00090000 		.4byte	0x900
 5680 0fc0 20       		.uleb128 0x20
 5681 0fc1 CA0B0000 		.4byte	.LASF196
 5682 0fc5 03       		.byte	0x3
 5683 0fc6 A8       		.byte	0xa8
 5684 0fc7 00000000 		.4byte	.LFB144
 5685 0fcb 98000000 		.4byte	.LFE144-.LFB144
 5686 0fcf 01       		.uleb128 0x1
 5687 0fd0 9C       		.byte	0x9c
 5688 0fd1 E40F0000 		.4byte	0xfe4
 5689 0fd5 1E       		.uleb128 0x1e
 5690 0fd6 85070000 		.4byte	.LASF103
 5691 0fda 03       		.byte	0x3
 5692 0fdb A8       		.byte	0xa8
ARM GAS  C:\Users\salaz\AppData\Local\Temp\ccynHHO7.s 			page 177


 5693 0fdc 76090000 		.4byte	0x976
 5694 0fe0 02       		.uleb128 0x2
 5695 0fe1 91       		.byte	0x91
 5696 0fe2 74       		.sleb128 -12
 5697 0fe3 00       		.byte	0
 5698 0fe4 21       		.uleb128 0x21
 5699 0fe5 E90A0000 		.4byte	.LASF197
 5700 0fe9 03       		.byte	0x3
 5701 0fea DD       		.byte	0xdd
 5702 0feb 00000000 		.4byte	.LFB145
 5703 0fef 52000000 		.4byte	.LFE145-.LFB145
 5704 0ff3 01       		.uleb128 0x1
 5705 0ff4 9C       		.byte	0x9c
 5706 0ff5 16100000 		.4byte	0x1016
 5707 0ff9 1E       		.uleb128 0x1e
 5708 0ffa 85070000 		.4byte	.LASF103
 5709 0ffe 03       		.byte	0x3
 5710 0fff DD       		.byte	0xdd
 5711 1000 76090000 		.4byte	0x976
 5712 1004 02       		.uleb128 0x2
 5713 1005 91       		.byte	0x91
 5714 1006 74       		.sleb128 -12
 5715 1007 1E       		.uleb128 0x1e
 5716 1008 5E0C0000 		.4byte	.LASF104
 5717 100c 03       		.byte	0x3
 5718 100d DD       		.byte	0xdd
 5719 100e BA0F0000 		.4byte	0xfba
 5720 1012 02       		.uleb128 0x2
 5721 1013 91       		.byte	0x91
 5722 1014 70       		.sleb128 -16
 5723 1015 00       		.byte	0
 5724 1016 22       		.uleb128 0x22
 5725 1017 D8030000 		.4byte	.LASF199
 5726 101b 03       		.byte	0x3
 5727 101c 2801     		.2byte	0x128
 5728 101e 16060000 		.4byte	0x616
 5729 1022 00000000 		.4byte	.LFB146
 5730 1026 44010000 		.4byte	.LFE146-.LFB146
 5731 102a 01       		.uleb128 0x1
 5732 102b 9C       		.byte	0x9c
 5733 102c 6D100000 		.4byte	0x106d
 5734 1030 19       		.uleb128 0x19
 5735 1031 16070000 		.4byte	.LASF200
 5736 1035 03       		.byte	0x3
 5737 1036 2801     		.2byte	0x128
 5738 1038 93060000 		.4byte	0x693
 5739 103c 02       		.uleb128 0x2
 5740 103d 91       		.byte	0x91
 5741 103e 64       		.sleb128 -28
 5742 103f 23       		.uleb128 0x23
 5743 1040 37010000 		.4byte	.LASF201
 5744 1044 03       		.byte	0x3
 5745 1045 2A01     		.2byte	0x12a
 5746 1047 76090000 		.4byte	0x976
 5747 104b 02       		.uleb128 0x2
 5748 104c 91       		.byte	0x91
 5749 104d 70       		.sleb128 -16
ARM GAS  C:\Users\salaz\AppData\Local\Temp\ccynHHO7.s 			page 178


 5750 104e 23       		.uleb128 0x23
 5751 104f 7A050000 		.4byte	.LASF202
 5752 1053 03       		.byte	0x3
 5753 1054 2B01     		.2byte	0x12b
 5754 1056 BA0F0000 		.4byte	0xfba
 5755 105a 02       		.uleb128 0x2
 5756 105b 91       		.byte	0x91
 5757 105c 6C       		.sleb128 -20
 5758 105d 23       		.uleb128 0x23
 5759 105e 260E0000 		.4byte	.LASF203
 5760 1062 03       		.byte	0x3
 5761 1063 2D01     		.2byte	0x12d
 5762 1065 16060000 		.4byte	0x616
 5763 1069 02       		.uleb128 0x2
 5764 106a 91       		.byte	0x91
 5765 106b 74       		.sleb128 -12
 5766 106c 00       		.byte	0
 5767 106d 22       		.uleb128 0x22
 5768 106e 18040000 		.4byte	.LASF204
 5769 1072 03       		.byte	0x3
 5770 1073 D001     		.2byte	0x1d0
 5771 1075 16060000 		.4byte	0x616
 5772 1079 00000000 		.4byte	.LFB147
 5773 107d AC000000 		.4byte	.LFE147-.LFB147
 5774 1081 01       		.uleb128 0x1
 5775 1082 9C       		.byte	0x9c
 5776 1083 C4100000 		.4byte	0x10c4
 5777 1087 19       		.uleb128 0x19
 5778 1088 16070000 		.4byte	.LASF200
 5779 108c 03       		.byte	0x3
 5780 108d D001     		.2byte	0x1d0
 5781 108f 93060000 		.4byte	0x693
 5782 1093 02       		.uleb128 0x2
 5783 1094 91       		.byte	0x91
 5784 1095 64       		.sleb128 -28
 5785 1096 23       		.uleb128 0x23
 5786 1097 37010000 		.4byte	.LASF201
 5787 109b 03       		.byte	0x3
 5788 109c D201     		.2byte	0x1d2
 5789 109e 76090000 		.4byte	0x976
 5790 10a2 02       		.uleb128 0x2
 5791 10a3 91       		.byte	0x91
 5792 10a4 70       		.sleb128 -16
 5793 10a5 23       		.uleb128 0x23
 5794 10a6 7A050000 		.4byte	.LASF202
 5795 10aa 03       		.byte	0x3
 5796 10ab D301     		.2byte	0x1d3
 5797 10ad BA0F0000 		.4byte	0xfba
 5798 10b1 02       		.uleb128 0x2
 5799 10b2 91       		.byte	0x91
 5800 10b3 6C       		.sleb128 -20
 5801 10b4 23       		.uleb128 0x23
 5802 10b5 260E0000 		.4byte	.LASF203
 5803 10b9 03       		.byte	0x3
 5804 10ba D501     		.2byte	0x1d5
 5805 10bc 16060000 		.4byte	0x616
 5806 10c0 02       		.uleb128 0x2
ARM GAS  C:\Users\salaz\AppData\Local\Temp\ccynHHO7.s 			page 179


 5807 10c1 91       		.byte	0x91
 5808 10c2 74       		.sleb128 -12
 5809 10c3 00       		.byte	0
 5810 10c4 22       		.uleb128 0x22
 5811 10c5 25070000 		.4byte	.LASF205
 5812 10c9 03       		.byte	0x3
 5813 10ca 5702     		.2byte	0x257
 5814 10cc BF060000 		.4byte	0x6bf
 5815 10d0 00000000 		.4byte	.LFB148
 5816 10d4 5C010000 		.4byte	.LFE148-.LFB148
 5817 10d8 01       		.uleb128 0x1
 5818 10d9 9C       		.byte	0x9c
 5819 10da 52110000 		.4byte	0x1152
 5820 10de 19       		.uleb128 0x19
 5821 10df 85070000 		.4byte	.LASF103
 5822 10e3 03       		.byte	0x3
 5823 10e4 5702     		.2byte	0x257
 5824 10e6 76090000 		.4byte	0x976
 5825 10ea 02       		.uleb128 0x2
 5826 10eb 91       		.byte	0x91
 5827 10ec 6C       		.sleb128 -20
 5828 10ed 19       		.uleb128 0x19
 5829 10ee D50C0000 		.4byte	.LASF206
 5830 10f2 03       		.byte	0x3
 5831 10f3 5702     		.2byte	0x257
 5832 10f5 85060000 		.4byte	0x685
 5833 10f9 02       		.uleb128 0x2
 5834 10fa 91       		.byte	0x91
 5835 10fb 68       		.sleb128 -24
 5836 10fc 19       		.uleb128 0x19
 5837 10fd 2F000000 		.4byte	.LASF207
 5838 1101 03       		.byte	0x3
 5839 1102 5702     		.2byte	0x257
 5840 1104 85060000 		.4byte	0x685
 5841 1108 02       		.uleb128 0x2
 5842 1109 91       		.byte	0x91
 5843 110a 64       		.sleb128 -28
 5844 110b 19       		.uleb128 0x19
 5845 110c 98050000 		.4byte	.LASF208
 5846 1110 03       		.byte	0x3
 5847 1111 5702     		.2byte	0x257
 5848 1113 8C000000 		.4byte	0x8c
 5849 1117 02       		.uleb128 0x2
 5850 1118 91       		.byte	0x91
 5851 1119 60       		.sleb128 -32
 5852 111a 19       		.uleb128 0x19
 5853 111b 5E0C0000 		.4byte	.LASF104
 5854 111f 03       		.byte	0x3
 5855 1120 5802     		.2byte	0x258
 5856 1122 BA0F0000 		.4byte	0xfba
 5857 1126 02       		.uleb128 0x2
 5858 1127 91       		.byte	0x91
 5859 1128 00       		.sleb128 0
 5860 1129 23       		.uleb128 0x23
 5861 112a 260E0000 		.4byte	.LASF203
 5862 112e 03       		.byte	0x3
 5863 112f 5E02     		.2byte	0x25e
ARM GAS  C:\Users\salaz\AppData\Local\Temp\ccynHHO7.s 			page 180


 5864 1131 BF060000 		.4byte	0x6bf
 5865 1135 02       		.uleb128 0x2
 5866 1136 91       		.byte	0x91
 5867 1137 74       		.sleb128 -12
 5868 1138 24       		.uleb128 0x24
 5869 1139 6E000000 		.4byte	.LBB2
 5870 113d D0000000 		.4byte	.LBE2-.LBB2
 5871 1141 23       		.uleb128 0x23
 5872 1142 7B0A0000 		.4byte	.LASF209
 5873 1146 03       		.byte	0x3
 5874 1147 6302     		.2byte	0x263
 5875 1149 8C000000 		.4byte	0x8c
 5876 114d 02       		.uleb128 0x2
 5877 114e 91       		.byte	0x91
 5878 114f 70       		.sleb128 -16
 5879 1150 00       		.byte	0
 5880 1151 00       		.byte	0
 5881 1152 25       		.uleb128 0x25
 5882 1153 83010000 		.4byte	.LASF210
 5883 1157 03       		.byte	0x3
 5884 1158 B602     		.2byte	0x2b6
 5885 115a 00000000 		.4byte	.LFB149
 5886 115e 64000000 		.4byte	.LFE149-.LFB149
 5887 1162 01       		.uleb128 0x1
 5888 1163 9C       		.byte	0x9c
 5889 1164 87110000 		.4byte	0x1187
 5890 1168 19       		.uleb128 0x19
 5891 1169 85070000 		.4byte	.LASF103
 5892 116d 03       		.byte	0x3
 5893 116e B602     		.2byte	0x2b6
 5894 1170 76090000 		.4byte	0x976
 5895 1174 02       		.uleb128 0x2
 5896 1175 91       		.byte	0x91
 5897 1176 74       		.sleb128 -12
 5898 1177 19       		.uleb128 0x19
 5899 1178 5E0C0000 		.4byte	.LASF104
 5900 117c 03       		.byte	0x3
 5901 117d B602     		.2byte	0x2b6
 5902 117f BA0F0000 		.4byte	0xfba
 5903 1183 02       		.uleb128 0x2
 5904 1184 91       		.byte	0x91
 5905 1185 70       		.sleb128 -16
 5906 1186 00       		.byte	0
 5907 1187 26       		.uleb128 0x26
 5908 1188 B5000000 		.4byte	.LASF211
 5909 118c 03       		.byte	0x3
 5910 118d E302     		.2byte	0x2e3
 5911 118f 8C000000 		.4byte	0x8c
 5912 1193 00000000 		.4byte	.LFB150
 5913 1197 16000000 		.4byte	.LFE150-.LFB150
 5914 119b 01       		.uleb128 0x1
 5915 119c 9C       		.byte	0x9c
 5916 119d C0110000 		.4byte	0x11c0
 5917 11a1 19       		.uleb128 0x19
 5918 11a2 85070000 		.4byte	.LASF103
 5919 11a6 03       		.byte	0x3
 5920 11a7 E302     		.2byte	0x2e3
ARM GAS  C:\Users\salaz\AppData\Local\Temp\ccynHHO7.s 			page 181


 5921 11a9 36090000 		.4byte	0x936
 5922 11ad 02       		.uleb128 0x2
 5923 11ae 91       		.byte	0x91
 5924 11af 74       		.sleb128 -12
 5925 11b0 19       		.uleb128 0x19
 5926 11b1 5E0C0000 		.4byte	.LASF104
 5927 11b5 03       		.byte	0x3
 5928 11b6 E302     		.2byte	0x2e3
 5929 11b8 C0110000 		.4byte	0x11c0
 5930 11bc 02       		.uleb128 0x2
 5931 11bd 91       		.byte	0x91
 5932 11be 70       		.sleb128 -16
 5933 11bf 00       		.byte	0
 5934 11c0 14       		.uleb128 0x14
 5935 11c1 04       		.byte	0x4
 5936 11c2 C6110000 		.4byte	0x11c6
 5937 11c6 06       		.uleb128 0x6
 5938 11c7 00090000 		.4byte	0x900
 5939 11cb 26       		.uleb128 0x26
 5940 11cc D2090000 		.4byte	.LASF212
 5941 11d0 03       		.byte	0x3
 5942 11d1 0503     		.2byte	0x305
 5943 11d3 8C000000 		.4byte	0x8c
 5944 11d7 00000000 		.4byte	.LFB151
 5945 11db 16000000 		.4byte	.LFE151-.LFB151
 5946 11df 01       		.uleb128 0x1
 5947 11e0 9C       		.byte	0x9c
 5948 11e1 04120000 		.4byte	0x1204
 5949 11e5 19       		.uleb128 0x19
 5950 11e6 85070000 		.4byte	.LASF103
 5951 11ea 03       		.byte	0x3
 5952 11eb 0503     		.2byte	0x305
 5953 11ed 36090000 		.4byte	0x936
 5954 11f1 02       		.uleb128 0x2
 5955 11f2 91       		.byte	0x91
 5956 11f3 74       		.sleb128 -12
 5957 11f4 19       		.uleb128 0x19
 5958 11f5 5E0C0000 		.4byte	.LASF104
 5959 11f9 03       		.byte	0x3
 5960 11fa 0503     		.2byte	0x305
 5961 11fc C0110000 		.4byte	0x11c0
 5962 1200 02       		.uleb128 0x2
 5963 1201 91       		.byte	0x91
 5964 1202 70       		.sleb128 -16
 5965 1203 00       		.byte	0
 5966 1204 25       		.uleb128 0x25
 5967 1205 20090000 		.4byte	.LASF213
 5968 1209 03       		.byte	0x3
 5969 120a 2003     		.2byte	0x320
 5970 120c 00000000 		.4byte	.LFB152
 5971 1210 64010000 		.4byte	.LFE152-.LFB152
 5972 1214 01       		.uleb128 0x1
 5973 1215 9C       		.byte	0x9c
 5974 1216 48120000 		.4byte	0x1248
 5975 121a 19       		.uleb128 0x19
 5976 121b 85070000 		.4byte	.LASF103
 5977 121f 03       		.byte	0x3
ARM GAS  C:\Users\salaz\AppData\Local\Temp\ccynHHO7.s 			page 182


 5978 1220 2003     		.2byte	0x320
 5979 1222 76090000 		.4byte	0x976
 5980 1226 02       		.uleb128 0x2
 5981 1227 91       		.byte	0x91
 5982 1228 6C       		.sleb128 -20
 5983 1229 19       		.uleb128 0x19
 5984 122a 5E0C0000 		.4byte	.LASF104
 5985 122e 03       		.byte	0x3
 5986 122f 2003     		.2byte	0x320
 5987 1231 BA0F0000 		.4byte	0xfba
 5988 1235 02       		.uleb128 0x2
 5989 1236 91       		.byte	0x91
 5990 1237 68       		.sleb128 -24
 5991 1238 23       		.uleb128 0x23
 5992 1239 5E0D0000 		.4byte	.LASF214
 5993 123d 03       		.byte	0x3
 5994 123e 2203     		.2byte	0x322
 5995 1240 6A080000 		.4byte	0x86a
 5996 1244 02       		.uleb128 0x2
 5997 1245 91       		.byte	0x91
 5998 1246 77       		.sleb128 -9
 5999 1247 00       		.byte	0
 6000 1248 1A       		.uleb128 0x1a
 6001 1249 AD0D0000 		.4byte	.LASF215
 6002 124d 03       		.byte	0x3
 6003 124e 7F03     		.2byte	0x37f
 6004 1250 00000000 		.4byte	.LFB153
 6005 1254 EE000000 		.4byte	.LFE153-.LFB153
 6006 1258 01       		.uleb128 0x1
 6007 1259 9C       		.byte	0x9c
 6008 125a C2120000 		.4byte	0x12c2
 6009 125e 19       		.uleb128 0x19
 6010 125f 85070000 		.4byte	.LASF103
 6011 1263 03       		.byte	0x3
 6012 1264 7F03     		.2byte	0x37f
 6013 1266 76090000 		.4byte	0x976
 6014 126a 02       		.uleb128 0x2
 6015 126b 91       		.byte	0x91
 6016 126c 64       		.sleb128 -28
 6017 126d 19       		.uleb128 0x19
 6018 126e 5E0C0000 		.4byte	.LASF104
 6019 1272 03       		.byte	0x3
 6020 1273 7F03     		.2byte	0x37f
 6021 1275 BA0F0000 		.4byte	0xfba
 6022 1279 02       		.uleb128 0x2
 6023 127a 91       		.byte	0x91
 6024 127b 60       		.sleb128 -32
 6025 127c 23       		.uleb128 0x23
 6026 127d 2D010000 		.4byte	.LASF216
 6027 1281 03       		.byte	0x3
 6028 1282 8203     		.2byte	0x382
 6029 1284 8C000000 		.4byte	0x8c
 6030 1288 02       		.uleb128 0x2
 6031 1289 91       		.byte	0x91
 6032 128a 74       		.sleb128 -12
 6033 128b 27       		.uleb128 0x27
 6034 128c 46000000 		.4byte	.LBB3
ARM GAS  C:\Users\salaz\AppData\Local\Temp\ccynHHO7.s 			page 183


 6035 1290 34000000 		.4byte	.LBE3-.LBB3
 6036 1294 A8120000 		.4byte	0x12a8
 6037 1298 28       		.uleb128 0x28
 6038 1299 62756600 		.ascii	"buf\000"
 6039 129d 03       		.byte	0x3
 6040 129e 9103     		.2byte	0x391
 6041 12a0 C2120000 		.4byte	0x12c2
 6042 12a4 02       		.uleb128 0x2
 6043 12a5 91       		.byte	0x91
 6044 12a6 70       		.sleb128 -16
 6045 12a7 00       		.byte	0
 6046 12a8 24       		.uleb128 0x24
 6047 12a9 AA000000 		.4byte	.LBB4
 6048 12ad 3C000000 		.4byte	.LBE4-.LBB4
 6049 12b1 23       		.uleb128 0x23
 6050 12b2 92050000 		.4byte	.LASF156
 6051 12b6 03       		.byte	0x3
 6052 12b7 A503     		.2byte	0x3a5
 6053 12b9 8C000000 		.4byte	0x8c
 6054 12bd 02       		.uleb128 0x2
 6055 12be 91       		.byte	0x91
 6056 12bf 6C       		.sleb128 -20
 6057 12c0 00       		.byte	0
 6058 12c1 00       		.byte	0
 6059 12c2 14       		.uleb128 0x14
 6060 12c3 04       		.byte	0x4
 6061 12c4 81000000 		.4byte	0x81
 6062 12c8 1A       		.uleb128 0x1a
 6063 12c9 BB0B0000 		.4byte	.LASF217
 6064 12cd 03       		.byte	0x3
 6065 12ce C003     		.2byte	0x3c0
 6066 12d0 00000000 		.4byte	.LFB154
 6067 12d4 E0000000 		.4byte	.LFE154-.LFB154
 6068 12d8 01       		.uleb128 0x1
 6069 12d9 9C       		.byte	0x9c
 6070 12da 34130000 		.4byte	0x1334
 6071 12de 19       		.uleb128 0x19
 6072 12df 85070000 		.4byte	.LASF103
 6073 12e3 03       		.byte	0x3
 6074 12e4 C003     		.2byte	0x3c0
 6075 12e6 76090000 		.4byte	0x976
 6076 12ea 02       		.uleb128 0x2
 6077 12eb 91       		.byte	0x91
 6078 12ec 64       		.sleb128 -28
 6079 12ed 19       		.uleb128 0x19
 6080 12ee 5E0C0000 		.4byte	.LASF104
 6081 12f2 03       		.byte	0x3
 6082 12f3 C003     		.2byte	0x3c0
 6083 12f5 BA0F0000 		.4byte	0xfba
 6084 12f9 02       		.uleb128 0x2
 6085 12fa 91       		.byte	0x91
 6086 12fb 60       		.sleb128 -32
 6087 12fc 23       		.uleb128 0x23
 6088 12fd 2D010000 		.4byte	.LASF216
 6089 1301 03       		.byte	0x3
 6090 1302 C203     		.2byte	0x3c2
 6091 1304 8C000000 		.4byte	0x8c
ARM GAS  C:\Users\salaz\AppData\Local\Temp\ccynHHO7.s 			page 184


 6092 1308 02       		.uleb128 0x2
 6093 1309 91       		.byte	0x91
 6094 130a 74       		.sleb128 -12
 6095 130b 23       		.uleb128 0x23
 6096 130c 7B0A0000 		.4byte	.LASF209
 6097 1310 03       		.byte	0x3
 6098 1311 C303     		.2byte	0x3c3
 6099 1313 8C000000 		.4byte	0x8c
 6100 1317 02       		.uleb128 0x2
 6101 1318 91       		.byte	0x91
 6102 1319 70       		.sleb128 -16
 6103 131a 24       		.uleb128 0x24
 6104 131b 56000000 		.4byte	.LBB5
 6105 131f 34000000 		.4byte	.LBE5-.LBB5
 6106 1323 28       		.uleb128 0x28
 6107 1324 62756600 		.ascii	"buf\000"
 6108 1328 03       		.byte	0x3
 6109 1329 D403     		.2byte	0x3d4
 6110 132b C2120000 		.4byte	0x12c2
 6111 132f 02       		.uleb128 0x2
 6112 1330 91       		.byte	0x91
 6113 1331 6C       		.sleb128 -20
 6114 1332 00       		.byte	0
 6115 1333 00       		.byte	0
 6116 1334 29       		.uleb128 0x29
 6117 1335 42000000 		.4byte	.LASF221
 6118 1339 03       		.byte	0x3
 6119 133a FF03     		.2byte	0x3ff
 6120 133c 00000000 		.4byte	.LFB155
 6121 1340 28000000 		.4byte	.LFE155-.LFB155
 6122 1344 01       		.uleb128 0x1
 6123 1345 9C       		.byte	0x9c
 6124 1346 19       		.uleb128 0x19
 6125 1347 85070000 		.4byte	.LASF103
 6126 134b 03       		.byte	0x3
 6127 134c FF03     		.2byte	0x3ff
 6128 134e 36090000 		.4byte	0x936
 6129 1352 02       		.uleb128 0x2
 6130 1353 91       		.byte	0x91
 6131 1354 74       		.sleb128 -12
 6132 1355 19       		.uleb128 0x19
 6133 1356 98050000 		.4byte	.LASF208
 6134 135a 03       		.byte	0x3
 6135 135b FF03     		.2byte	0x3ff
 6136 135d 8C000000 		.4byte	0x8c
 6137 1361 02       		.uleb128 0x2
 6138 1362 91       		.byte	0x91
 6139 1363 70       		.sleb128 -16
 6140 1364 00       		.byte	0
 6141 1365 00       		.byte	0
 6142              		.section	.debug_abbrev,"",%progbits
 6143              	.Ldebug_abbrev0:
 6144 0000 01       		.uleb128 0x1
 6145 0001 11       		.uleb128 0x11
 6146 0002 01       		.byte	0x1
 6147 0003 25       		.uleb128 0x25
 6148 0004 0E       		.uleb128 0xe
ARM GAS  C:\Users\salaz\AppData\Local\Temp\ccynHHO7.s 			page 185


 6149 0005 13       		.uleb128 0x13
 6150 0006 0B       		.uleb128 0xb
 6151 0007 03       		.uleb128 0x3
 6152 0008 0E       		.uleb128 0xe
 6153 0009 1B       		.uleb128 0x1b
 6154 000a 0E       		.uleb128 0xe
 6155 000b 55       		.uleb128 0x55
 6156 000c 17       		.uleb128 0x17
 6157 000d 11       		.uleb128 0x11
 6158 000e 01       		.uleb128 0x1
 6159 000f 10       		.uleb128 0x10
 6160 0010 17       		.uleb128 0x17
 6161 0011 00       		.byte	0
 6162 0012 00       		.byte	0
 6163 0013 02       		.uleb128 0x2
 6164 0014 24       		.uleb128 0x24
 6165 0015 00       		.byte	0
 6166 0016 0B       		.uleb128 0xb
 6167 0017 0B       		.uleb128 0xb
 6168 0018 3E       		.uleb128 0x3e
 6169 0019 0B       		.uleb128 0xb
 6170 001a 03       		.uleb128 0x3
 6171 001b 0E       		.uleb128 0xe
 6172 001c 00       		.byte	0
 6173 001d 00       		.byte	0
 6174 001e 03       		.uleb128 0x3
 6175 001f 16       		.uleb128 0x16
 6176 0020 00       		.byte	0
 6177 0021 03       		.uleb128 0x3
 6178 0022 0E       		.uleb128 0xe
 6179 0023 3A       		.uleb128 0x3a
 6180 0024 0B       		.uleb128 0xb
 6181 0025 3B       		.uleb128 0x3b
 6182 0026 0B       		.uleb128 0xb
 6183 0027 49       		.uleb128 0x49
 6184 0028 13       		.uleb128 0x13
 6185 0029 00       		.byte	0
 6186 002a 00       		.byte	0
 6187 002b 04       		.uleb128 0x4
 6188 002c 24       		.uleb128 0x24
 6189 002d 00       		.byte	0
 6190 002e 0B       		.uleb128 0xb
 6191 002f 0B       		.uleb128 0xb
 6192 0030 3E       		.uleb128 0x3e
 6193 0031 0B       		.uleb128 0xb
 6194 0032 03       		.uleb128 0x3
 6195 0033 08       		.uleb128 0x8
 6196 0034 00       		.byte	0
 6197 0035 00       		.byte	0
 6198 0036 05       		.uleb128 0x5
 6199 0037 35       		.uleb128 0x35
 6200 0038 00       		.byte	0
 6201 0039 49       		.uleb128 0x49
 6202 003a 13       		.uleb128 0x13
 6203 003b 00       		.byte	0
 6204 003c 00       		.byte	0
 6205 003d 06       		.uleb128 0x6
ARM GAS  C:\Users\salaz\AppData\Local\Temp\ccynHHO7.s 			page 186


 6206 003e 26       		.uleb128 0x26
 6207 003f 00       		.byte	0
 6208 0040 49       		.uleb128 0x49
 6209 0041 13       		.uleb128 0x13
 6210 0042 00       		.byte	0
 6211 0043 00       		.byte	0
 6212 0044 07       		.uleb128 0x7
 6213 0045 01       		.uleb128 0x1
 6214 0046 01       		.byte	0x1
 6215 0047 49       		.uleb128 0x49
 6216 0048 13       		.uleb128 0x13
 6217 0049 01       		.uleb128 0x1
 6218 004a 13       		.uleb128 0x13
 6219 004b 00       		.byte	0
 6220 004c 00       		.byte	0
 6221 004d 08       		.uleb128 0x8
 6222 004e 21       		.uleb128 0x21
 6223 004f 00       		.byte	0
 6224 0050 49       		.uleb128 0x49
 6225 0051 13       		.uleb128 0x13
 6226 0052 2F       		.uleb128 0x2f
 6227 0053 0B       		.uleb128 0xb
 6228 0054 00       		.byte	0
 6229 0055 00       		.byte	0
 6230 0056 09       		.uleb128 0x9
 6231 0057 13       		.uleb128 0x13
 6232 0058 01       		.byte	0x1
 6233 0059 0B       		.uleb128 0xb
 6234 005a 05       		.uleb128 0x5
 6235 005b 3A       		.uleb128 0x3a
 6236 005c 0B       		.uleb128 0xb
 6237 005d 3B       		.uleb128 0x3b
 6238 005e 0B       		.uleb128 0xb
 6239 005f 01       		.uleb128 0x1
 6240 0060 13       		.uleb128 0x13
 6241 0061 00       		.byte	0
 6242 0062 00       		.byte	0
 6243 0063 0A       		.uleb128 0xa
 6244 0064 0D       		.uleb128 0xd
 6245 0065 00       		.byte	0
 6246 0066 03       		.uleb128 0x3
 6247 0067 0E       		.uleb128 0xe
 6248 0068 3A       		.uleb128 0x3a
 6249 0069 0B       		.uleb128 0xb
 6250 006a 3B       		.uleb128 0x3b
 6251 006b 0B       		.uleb128 0xb
 6252 006c 49       		.uleb128 0x49
 6253 006d 13       		.uleb128 0x13
 6254 006e 38       		.uleb128 0x38
 6255 006f 0B       		.uleb128 0xb
 6256 0070 00       		.byte	0
 6257 0071 00       		.byte	0
 6258 0072 0B       		.uleb128 0xb
 6259 0073 0D       		.uleb128 0xd
 6260 0074 00       		.byte	0
 6261 0075 03       		.uleb128 0x3
 6262 0076 0E       		.uleb128 0xe
ARM GAS  C:\Users\salaz\AppData\Local\Temp\ccynHHO7.s 			page 187


 6263 0077 3A       		.uleb128 0x3a
 6264 0078 0B       		.uleb128 0xb
 6265 0079 3B       		.uleb128 0x3b
 6266 007a 0B       		.uleb128 0xb
 6267 007b 49       		.uleb128 0x49
 6268 007c 13       		.uleb128 0x13
 6269 007d 38       		.uleb128 0x38
 6270 007e 05       		.uleb128 0x5
 6271 007f 00       		.byte	0
 6272 0080 00       		.byte	0
 6273 0081 0C       		.uleb128 0xc
 6274 0082 21       		.uleb128 0x21
 6275 0083 00       		.byte	0
 6276 0084 49       		.uleb128 0x49
 6277 0085 13       		.uleb128 0x13
 6278 0086 2F       		.uleb128 0x2f
 6279 0087 05       		.uleb128 0x5
 6280 0088 00       		.byte	0
 6281 0089 00       		.byte	0
 6282 008a 0D       		.uleb128 0xd
 6283 008b 16       		.uleb128 0x16
 6284 008c 00       		.byte	0
 6285 008d 03       		.uleb128 0x3
 6286 008e 0E       		.uleb128 0xe
 6287 008f 3A       		.uleb128 0x3a
 6288 0090 0B       		.uleb128 0xb
 6289 0091 3B       		.uleb128 0x3b
 6290 0092 05       		.uleb128 0x5
 6291 0093 49       		.uleb128 0x49
 6292 0094 13       		.uleb128 0x13
 6293 0095 00       		.byte	0
 6294 0096 00       		.byte	0
 6295 0097 0E       		.uleb128 0xe
 6296 0098 04       		.uleb128 0x4
 6297 0099 01       		.byte	0x1
 6298 009a 0B       		.uleb128 0xb
 6299 009b 0B       		.uleb128 0xb
 6300 009c 49       		.uleb128 0x49
 6301 009d 13       		.uleb128 0x13
 6302 009e 3A       		.uleb128 0x3a
 6303 009f 0B       		.uleb128 0xb
 6304 00a0 3B       		.uleb128 0x3b
 6305 00a1 05       		.uleb128 0x5
 6306 00a2 01       		.uleb128 0x1
 6307 00a3 13       		.uleb128 0x13
 6308 00a4 00       		.byte	0
 6309 00a5 00       		.byte	0
 6310 00a6 0F       		.uleb128 0xf
 6311 00a7 28       		.uleb128 0x28
 6312 00a8 00       		.byte	0
 6313 00a9 03       		.uleb128 0x3
 6314 00aa 0E       		.uleb128 0xe
 6315 00ab 1C       		.uleb128 0x1c
 6316 00ac 0B       		.uleb128 0xb
 6317 00ad 00       		.byte	0
 6318 00ae 00       		.byte	0
 6319 00af 10       		.uleb128 0x10
ARM GAS  C:\Users\salaz\AppData\Local\Temp\ccynHHO7.s 			page 188


 6320 00b0 28       		.uleb128 0x28
 6321 00b1 00       		.byte	0
 6322 00b2 03       		.uleb128 0x3
 6323 00b3 0E       		.uleb128 0xe
 6324 00b4 1C       		.uleb128 0x1c
 6325 00b5 06       		.uleb128 0x6
 6326 00b6 00       		.byte	0
 6327 00b7 00       		.byte	0
 6328 00b8 11       		.uleb128 0x11
 6329 00b9 13       		.uleb128 0x13
 6330 00ba 01       		.byte	0x1
 6331 00bb 0B       		.uleb128 0xb
 6332 00bc 0B       		.uleb128 0xb
 6333 00bd 3A       		.uleb128 0x3a
 6334 00be 0B       		.uleb128 0xb
 6335 00bf 3B       		.uleb128 0x3b
 6336 00c0 05       		.uleb128 0x5
 6337 00c1 01       		.uleb128 0x1
 6338 00c2 13       		.uleb128 0x13
 6339 00c3 00       		.byte	0
 6340 00c4 00       		.byte	0
 6341 00c5 12       		.uleb128 0x12
 6342 00c6 0D       		.uleb128 0xd
 6343 00c7 00       		.byte	0
 6344 00c8 03       		.uleb128 0x3
 6345 00c9 0E       		.uleb128 0xe
 6346 00ca 3A       		.uleb128 0x3a
 6347 00cb 0B       		.uleb128 0xb
 6348 00cc 3B       		.uleb128 0x3b
 6349 00cd 05       		.uleb128 0x5
 6350 00ce 49       		.uleb128 0x49
 6351 00cf 13       		.uleb128 0x13
 6352 00d0 38       		.uleb128 0x38
 6353 00d1 0B       		.uleb128 0xb
 6354 00d2 00       		.byte	0
 6355 00d3 00       		.byte	0
 6356 00d4 13       		.uleb128 0x13
 6357 00d5 0F       		.uleb128 0xf
 6358 00d6 00       		.byte	0
 6359 00d7 0B       		.uleb128 0xb
 6360 00d8 0B       		.uleb128 0xb
 6361 00d9 00       		.byte	0
 6362 00da 00       		.byte	0
 6363 00db 14       		.uleb128 0x14
 6364 00dc 0F       		.uleb128 0xf
 6365 00dd 00       		.byte	0
 6366 00de 0B       		.uleb128 0xb
 6367 00df 0B       		.uleb128 0xb
 6368 00e0 49       		.uleb128 0x49
 6369 00e1 13       		.uleb128 0x13
 6370 00e2 00       		.byte	0
 6371 00e3 00       		.byte	0
 6372 00e4 15       		.uleb128 0x15
 6373 00e5 15       		.uleb128 0x15
 6374 00e6 01       		.byte	0x1
 6375 00e7 27       		.uleb128 0x27
 6376 00e8 19       		.uleb128 0x19
ARM GAS  C:\Users\salaz\AppData\Local\Temp\ccynHHO7.s 			page 189


 6377 00e9 01       		.uleb128 0x1
 6378 00ea 13       		.uleb128 0x13
 6379 00eb 00       		.byte	0
 6380 00ec 00       		.byte	0
 6381 00ed 16       		.uleb128 0x16
 6382 00ee 05       		.uleb128 0x5
 6383 00ef 00       		.byte	0
 6384 00f0 49       		.uleb128 0x49
 6385 00f1 13       		.uleb128 0x13
 6386 00f2 00       		.byte	0
 6387 00f3 00       		.byte	0
 6388 00f4 17       		.uleb128 0x17
 6389 00f5 13       		.uleb128 0x13
 6390 00f6 01       		.byte	0x1
 6391 00f7 03       		.uleb128 0x3
 6392 00f8 0E       		.uleb128 0xe
 6393 00f9 0B       		.uleb128 0xb
 6394 00fa 0B       		.uleb128 0xb
 6395 00fb 3A       		.uleb128 0x3a
 6396 00fc 0B       		.uleb128 0xb
 6397 00fd 3B       		.uleb128 0x3b
 6398 00fe 05       		.uleb128 0x5
 6399 00ff 01       		.uleb128 0x1
 6400 0100 13       		.uleb128 0x13
 6401 0101 00       		.byte	0
 6402 0102 00       		.byte	0
 6403 0103 18       		.uleb128 0x18
 6404 0104 2E       		.uleb128 0x2e
 6405 0105 01       		.byte	0x1
 6406 0106 03       		.uleb128 0x3
 6407 0107 0E       		.uleb128 0xe
 6408 0108 3A       		.uleb128 0x3a
 6409 0109 0B       		.uleb128 0xb
 6410 010a 3B       		.uleb128 0x3b
 6411 010b 05       		.uleb128 0x5
 6412 010c 27       		.uleb128 0x27
 6413 010d 19       		.uleb128 0x19
 6414 010e 49       		.uleb128 0x49
 6415 010f 13       		.uleb128 0x13
 6416 0110 11       		.uleb128 0x11
 6417 0111 01       		.uleb128 0x1
 6418 0112 12       		.uleb128 0x12
 6419 0113 06       		.uleb128 0x6
 6420 0114 40       		.uleb128 0x40
 6421 0115 18       		.uleb128 0x18
 6422 0116 9742     		.uleb128 0x2117
 6423 0118 19       		.uleb128 0x19
 6424 0119 01       		.uleb128 0x1
 6425 011a 13       		.uleb128 0x13
 6426 011b 00       		.byte	0
 6427 011c 00       		.byte	0
 6428 011d 19       		.uleb128 0x19
 6429 011e 05       		.uleb128 0x5
 6430 011f 00       		.byte	0
 6431 0120 03       		.uleb128 0x3
 6432 0121 0E       		.uleb128 0xe
 6433 0122 3A       		.uleb128 0x3a
ARM GAS  C:\Users\salaz\AppData\Local\Temp\ccynHHO7.s 			page 190


 6434 0123 0B       		.uleb128 0xb
 6435 0124 3B       		.uleb128 0x3b
 6436 0125 05       		.uleb128 0x5
 6437 0126 49       		.uleb128 0x49
 6438 0127 13       		.uleb128 0x13
 6439 0128 02       		.uleb128 0x2
 6440 0129 18       		.uleb128 0x18
 6441 012a 00       		.byte	0
 6442 012b 00       		.byte	0
 6443 012c 1A       		.uleb128 0x1a
 6444 012d 2E       		.uleb128 0x2e
 6445 012e 01       		.byte	0x1
 6446 012f 03       		.uleb128 0x3
 6447 0130 0E       		.uleb128 0xe
 6448 0131 3A       		.uleb128 0x3a
 6449 0132 0B       		.uleb128 0xb
 6450 0133 3B       		.uleb128 0x3b
 6451 0134 05       		.uleb128 0x5
 6452 0135 27       		.uleb128 0x27
 6453 0136 19       		.uleb128 0x19
 6454 0137 11       		.uleb128 0x11
 6455 0138 01       		.uleb128 0x1
 6456 0139 12       		.uleb128 0x12
 6457 013a 06       		.uleb128 0x6
 6458 013b 40       		.uleb128 0x40
 6459 013c 18       		.uleb128 0x18
 6460 013d 9642     		.uleb128 0x2116
 6461 013f 19       		.uleb128 0x19
 6462 0140 01       		.uleb128 0x1
 6463 0141 13       		.uleb128 0x13
 6464 0142 00       		.byte	0
 6465 0143 00       		.byte	0
 6466 0144 1B       		.uleb128 0x1b
 6467 0145 2E       		.uleb128 0x2e
 6468 0146 01       		.byte	0x1
 6469 0147 03       		.uleb128 0x3
 6470 0148 0E       		.uleb128 0xe
 6471 0149 3A       		.uleb128 0x3a
 6472 014a 0B       		.uleb128 0xb
 6473 014b 3B       		.uleb128 0x3b
 6474 014c 05       		.uleb128 0x5
 6475 014d 27       		.uleb128 0x27
 6476 014e 19       		.uleb128 0x19
 6477 014f 11       		.uleb128 0x11
 6478 0150 01       		.uleb128 0x1
 6479 0151 12       		.uleb128 0x12
 6480 0152 06       		.uleb128 0x6
 6481 0153 40       		.uleb128 0x40
 6482 0154 18       		.uleb128 0x18
 6483 0155 9742     		.uleb128 0x2117
 6484 0157 19       		.uleb128 0x19
 6485 0158 01       		.uleb128 0x1
 6486 0159 13       		.uleb128 0x13
 6487 015a 00       		.byte	0
 6488 015b 00       		.byte	0
 6489 015c 1C       		.uleb128 0x1c
 6490 015d 2E       		.uleb128 0x2e
ARM GAS  C:\Users\salaz\AppData\Local\Temp\ccynHHO7.s 			page 191


 6491 015e 01       		.byte	0x1
 6492 015f 03       		.uleb128 0x3
 6493 0160 0E       		.uleb128 0xe
 6494 0161 3A       		.uleb128 0x3a
 6495 0162 0B       		.uleb128 0xb
 6496 0163 3B       		.uleb128 0x3b
 6497 0164 05       		.uleb128 0x5
 6498 0165 27       		.uleb128 0x27
 6499 0166 19       		.uleb128 0x19
 6500 0167 49       		.uleb128 0x49
 6501 0168 13       		.uleb128 0x13
 6502 0169 11       		.uleb128 0x11
 6503 016a 01       		.uleb128 0x1
 6504 016b 12       		.uleb128 0x12
 6505 016c 06       		.uleb128 0x6
 6506 016d 40       		.uleb128 0x40
 6507 016e 18       		.uleb128 0x18
 6508 016f 9642     		.uleb128 0x2116
 6509 0171 19       		.uleb128 0x19
 6510 0172 01       		.uleb128 0x1
 6511 0173 13       		.uleb128 0x13
 6512 0174 00       		.byte	0
 6513 0175 00       		.byte	0
 6514 0176 1D       		.uleb128 0x1d
 6515 0177 2E       		.uleb128 0x2e
 6516 0178 01       		.byte	0x1
 6517 0179 3F       		.uleb128 0x3f
 6518 017a 19       		.uleb128 0x19
 6519 017b 03       		.uleb128 0x3
 6520 017c 0E       		.uleb128 0xe
 6521 017d 3A       		.uleb128 0x3a
 6522 017e 0B       		.uleb128 0xb
 6523 017f 3B       		.uleb128 0x3b
 6524 0180 0B       		.uleb128 0xb
 6525 0181 27       		.uleb128 0x27
 6526 0182 19       		.uleb128 0x19
 6527 0183 49       		.uleb128 0x49
 6528 0184 13       		.uleb128 0x13
 6529 0185 11       		.uleb128 0x11
 6530 0186 01       		.uleb128 0x1
 6531 0187 12       		.uleb128 0x12
 6532 0188 06       		.uleb128 0x6
 6533 0189 40       		.uleb128 0x40
 6534 018a 18       		.uleb128 0x18
 6535 018b 9642     		.uleb128 0x2116
 6536 018d 19       		.uleb128 0x19
 6537 018e 01       		.uleb128 0x1
 6538 018f 13       		.uleb128 0x13
 6539 0190 00       		.byte	0
 6540 0191 00       		.byte	0
 6541 0192 1E       		.uleb128 0x1e
 6542 0193 05       		.uleb128 0x5
 6543 0194 00       		.byte	0
 6544 0195 03       		.uleb128 0x3
 6545 0196 0E       		.uleb128 0xe
 6546 0197 3A       		.uleb128 0x3a
 6547 0198 0B       		.uleb128 0xb
ARM GAS  C:\Users\salaz\AppData\Local\Temp\ccynHHO7.s 			page 192


 6548 0199 3B       		.uleb128 0x3b
 6549 019a 0B       		.uleb128 0xb
 6550 019b 49       		.uleb128 0x49
 6551 019c 13       		.uleb128 0x13
 6552 019d 02       		.uleb128 0x2
 6553 019e 18       		.uleb128 0x18
 6554 019f 00       		.byte	0
 6555 01a0 00       		.byte	0
 6556 01a1 1F       		.uleb128 0x1f
 6557 01a2 34       		.uleb128 0x34
 6558 01a3 00       		.byte	0
 6559 01a4 03       		.uleb128 0x3
 6560 01a5 0E       		.uleb128 0xe
 6561 01a6 3A       		.uleb128 0x3a
 6562 01a7 0B       		.uleb128 0xb
 6563 01a8 3B       		.uleb128 0x3b
 6564 01a9 0B       		.uleb128 0xb
 6565 01aa 49       		.uleb128 0x49
 6566 01ab 13       		.uleb128 0x13
 6567 01ac 02       		.uleb128 0x2
 6568 01ad 18       		.uleb128 0x18
 6569 01ae 00       		.byte	0
 6570 01af 00       		.byte	0
 6571 01b0 20       		.uleb128 0x20
 6572 01b1 2E       		.uleb128 0x2e
 6573 01b2 01       		.byte	0x1
 6574 01b3 3F       		.uleb128 0x3f
 6575 01b4 19       		.uleb128 0x19
 6576 01b5 03       		.uleb128 0x3
 6577 01b6 0E       		.uleb128 0xe
 6578 01b7 3A       		.uleb128 0x3a
 6579 01b8 0B       		.uleb128 0xb
 6580 01b9 3B       		.uleb128 0x3b
 6581 01ba 0B       		.uleb128 0xb
 6582 01bb 27       		.uleb128 0x27
 6583 01bc 19       		.uleb128 0x19
 6584 01bd 11       		.uleb128 0x11
 6585 01be 01       		.uleb128 0x1
 6586 01bf 12       		.uleb128 0x12
 6587 01c0 06       		.uleb128 0x6
 6588 01c1 40       		.uleb128 0x40
 6589 01c2 18       		.uleb128 0x18
 6590 01c3 9742     		.uleb128 0x2117
 6591 01c5 19       		.uleb128 0x19
 6592 01c6 01       		.uleb128 0x1
 6593 01c7 13       		.uleb128 0x13
 6594 01c8 00       		.byte	0
 6595 01c9 00       		.byte	0
 6596 01ca 21       		.uleb128 0x21
 6597 01cb 2E       		.uleb128 0x2e
 6598 01cc 01       		.byte	0x1
 6599 01cd 3F       		.uleb128 0x3f
 6600 01ce 19       		.uleb128 0x19
 6601 01cf 03       		.uleb128 0x3
 6602 01d0 0E       		.uleb128 0xe
 6603 01d1 3A       		.uleb128 0x3a
 6604 01d2 0B       		.uleb128 0xb
ARM GAS  C:\Users\salaz\AppData\Local\Temp\ccynHHO7.s 			page 193


 6605 01d3 3B       		.uleb128 0x3b
 6606 01d4 0B       		.uleb128 0xb
 6607 01d5 27       		.uleb128 0x27
 6608 01d6 19       		.uleb128 0x19
 6609 01d7 11       		.uleb128 0x11
 6610 01d8 01       		.uleb128 0x1
 6611 01d9 12       		.uleb128 0x12
 6612 01da 06       		.uleb128 0x6
 6613 01db 40       		.uleb128 0x40
 6614 01dc 18       		.uleb128 0x18
 6615 01dd 9642     		.uleb128 0x2116
 6616 01df 19       		.uleb128 0x19
 6617 01e0 01       		.uleb128 0x1
 6618 01e1 13       		.uleb128 0x13
 6619 01e2 00       		.byte	0
 6620 01e3 00       		.byte	0
 6621 01e4 22       		.uleb128 0x22
 6622 01e5 2E       		.uleb128 0x2e
 6623 01e6 01       		.byte	0x1
 6624 01e7 3F       		.uleb128 0x3f
 6625 01e8 19       		.uleb128 0x19
 6626 01e9 03       		.uleb128 0x3
 6627 01ea 0E       		.uleb128 0xe
 6628 01eb 3A       		.uleb128 0x3a
 6629 01ec 0B       		.uleb128 0xb
 6630 01ed 3B       		.uleb128 0x3b
 6631 01ee 05       		.uleb128 0x5
 6632 01ef 27       		.uleb128 0x27
 6633 01f0 19       		.uleb128 0x19
 6634 01f1 49       		.uleb128 0x49
 6635 01f2 13       		.uleb128 0x13
 6636 01f3 11       		.uleb128 0x11
 6637 01f4 01       		.uleb128 0x1
 6638 01f5 12       		.uleb128 0x12
 6639 01f6 06       		.uleb128 0x6
 6640 01f7 40       		.uleb128 0x40
 6641 01f8 18       		.uleb128 0x18
 6642 01f9 9642     		.uleb128 0x2116
 6643 01fb 19       		.uleb128 0x19
 6644 01fc 01       		.uleb128 0x1
 6645 01fd 13       		.uleb128 0x13
 6646 01fe 00       		.byte	0
 6647 01ff 00       		.byte	0
 6648 0200 23       		.uleb128 0x23
 6649 0201 34       		.uleb128 0x34
 6650 0202 00       		.byte	0
 6651 0203 03       		.uleb128 0x3
 6652 0204 0E       		.uleb128 0xe
 6653 0205 3A       		.uleb128 0x3a
 6654 0206 0B       		.uleb128 0xb
 6655 0207 3B       		.uleb128 0x3b
 6656 0208 05       		.uleb128 0x5
 6657 0209 49       		.uleb128 0x49
 6658 020a 13       		.uleb128 0x13
 6659 020b 02       		.uleb128 0x2
 6660 020c 18       		.uleb128 0x18
 6661 020d 00       		.byte	0
ARM GAS  C:\Users\salaz\AppData\Local\Temp\ccynHHO7.s 			page 194


 6662 020e 00       		.byte	0
 6663 020f 24       		.uleb128 0x24
 6664 0210 0B       		.uleb128 0xb
 6665 0211 01       		.byte	0x1
 6666 0212 11       		.uleb128 0x11
 6667 0213 01       		.uleb128 0x1
 6668 0214 12       		.uleb128 0x12
 6669 0215 06       		.uleb128 0x6
 6670 0216 00       		.byte	0
 6671 0217 00       		.byte	0
 6672 0218 25       		.uleb128 0x25
 6673 0219 2E       		.uleb128 0x2e
 6674 021a 01       		.byte	0x1
 6675 021b 3F       		.uleb128 0x3f
 6676 021c 19       		.uleb128 0x19
 6677 021d 03       		.uleb128 0x3
 6678 021e 0E       		.uleb128 0xe
 6679 021f 3A       		.uleb128 0x3a
 6680 0220 0B       		.uleb128 0xb
 6681 0221 3B       		.uleb128 0x3b
 6682 0222 05       		.uleb128 0x5
 6683 0223 27       		.uleb128 0x27
 6684 0224 19       		.uleb128 0x19
 6685 0225 11       		.uleb128 0x11
 6686 0226 01       		.uleb128 0x1
 6687 0227 12       		.uleb128 0x12
 6688 0228 06       		.uleb128 0x6
 6689 0229 40       		.uleb128 0x40
 6690 022a 18       		.uleb128 0x18
 6691 022b 9642     		.uleb128 0x2116
 6692 022d 19       		.uleb128 0x19
 6693 022e 01       		.uleb128 0x1
 6694 022f 13       		.uleb128 0x13
 6695 0230 00       		.byte	0
 6696 0231 00       		.byte	0
 6697 0232 26       		.uleb128 0x26
 6698 0233 2E       		.uleb128 0x2e
 6699 0234 01       		.byte	0x1
 6700 0235 3F       		.uleb128 0x3f
 6701 0236 19       		.uleb128 0x19
 6702 0237 03       		.uleb128 0x3
 6703 0238 0E       		.uleb128 0xe
 6704 0239 3A       		.uleb128 0x3a
 6705 023a 0B       		.uleb128 0xb
 6706 023b 3B       		.uleb128 0x3b
 6707 023c 05       		.uleb128 0x5
 6708 023d 27       		.uleb128 0x27
 6709 023e 19       		.uleb128 0x19
 6710 023f 49       		.uleb128 0x49
 6711 0240 13       		.uleb128 0x13
 6712 0241 11       		.uleb128 0x11
 6713 0242 01       		.uleb128 0x1
 6714 0243 12       		.uleb128 0x12
 6715 0244 06       		.uleb128 0x6
 6716 0245 40       		.uleb128 0x40
 6717 0246 18       		.uleb128 0x18
 6718 0247 9742     		.uleb128 0x2117
ARM GAS  C:\Users\salaz\AppData\Local\Temp\ccynHHO7.s 			page 195


 6719 0249 19       		.uleb128 0x19
 6720 024a 01       		.uleb128 0x1
 6721 024b 13       		.uleb128 0x13
 6722 024c 00       		.byte	0
 6723 024d 00       		.byte	0
 6724 024e 27       		.uleb128 0x27
 6725 024f 0B       		.uleb128 0xb
 6726 0250 01       		.byte	0x1
 6727 0251 11       		.uleb128 0x11
 6728 0252 01       		.uleb128 0x1
 6729 0253 12       		.uleb128 0x12
 6730 0254 06       		.uleb128 0x6
 6731 0255 01       		.uleb128 0x1
 6732 0256 13       		.uleb128 0x13
 6733 0257 00       		.byte	0
 6734 0258 00       		.byte	0
 6735 0259 28       		.uleb128 0x28
 6736 025a 34       		.uleb128 0x34
 6737 025b 00       		.byte	0
 6738 025c 03       		.uleb128 0x3
 6739 025d 08       		.uleb128 0x8
 6740 025e 3A       		.uleb128 0x3a
 6741 025f 0B       		.uleb128 0xb
 6742 0260 3B       		.uleb128 0x3b
 6743 0261 05       		.uleb128 0x5
 6744 0262 49       		.uleb128 0x49
 6745 0263 13       		.uleb128 0x13
 6746 0264 02       		.uleb128 0x2
 6747 0265 18       		.uleb128 0x18
 6748 0266 00       		.byte	0
 6749 0267 00       		.byte	0
 6750 0268 29       		.uleb128 0x29
 6751 0269 2E       		.uleb128 0x2e
 6752 026a 01       		.byte	0x1
 6753 026b 03       		.uleb128 0x3
 6754 026c 0E       		.uleb128 0xe
 6755 026d 3A       		.uleb128 0x3a
 6756 026e 0B       		.uleb128 0xb
 6757 026f 3B       		.uleb128 0x3b
 6758 0270 05       		.uleb128 0x5
 6759 0271 27       		.uleb128 0x27
 6760 0272 19       		.uleb128 0x19
 6761 0273 11       		.uleb128 0x11
 6762 0274 01       		.uleb128 0x1
 6763 0275 12       		.uleb128 0x12
 6764 0276 06       		.uleb128 0x6
 6765 0277 40       		.uleb128 0x40
 6766 0278 18       		.uleb128 0x18
 6767 0279 9642     		.uleb128 0x2116
 6768 027b 19       		.uleb128 0x19
 6769 027c 00       		.byte	0
 6770 027d 00       		.byte	0
 6771 027e 00       		.byte	0
 6772              		.section	.debug_aranges,"",%progbits
 6773 0000 94010000 		.4byte	0x194
 6774 0004 0200     		.2byte	0x2
 6775 0006 00000000 		.4byte	.Ldebug_info0
ARM GAS  C:\Users\salaz\AppData\Local\Temp\ccynHHO7.s 			page 196


 6776 000a 04       		.byte	0x4
 6777 000b 00       		.byte	0
 6778 000c 0000     		.2byte	0
 6779 000e 0000     		.2byte	0
 6780 0010 00000000 		.4byte	.LFB69
 6781 0014 18000000 		.4byte	.LFE69-.LFB69
 6782 0018 00000000 		.4byte	.LFB70
 6783 001c 58000000 		.4byte	.LFE70-.LFB70
 6784 0020 00000000 		.4byte	.LFB71
 6785 0024 1C000000 		.4byte	.LFE71-.LFB71
 6786 0028 00000000 		.4byte	.LFB73
 6787 002c 4C000000 		.4byte	.LFE73-.LFB73
 6788 0030 00000000 		.4byte	.LFB75
 6789 0034 58000000 		.4byte	.LFE75-.LFB75
 6790 0038 00000000 		.4byte	.LFB76
 6791 003c 1C000000 		.4byte	.LFE76-.LFB76
 6792 0040 00000000 		.4byte	.LFB77
 6793 0044 20000000 		.4byte	.LFE77-.LFB77
 6794 0048 00000000 		.4byte	.LFB78
 6795 004c 2C000000 		.4byte	.LFE78-.LFB78
 6796 0050 00000000 		.4byte	.LFB79
 6797 0054 4C000000 		.4byte	.LFE79-.LFB79
 6798 0058 00000000 		.4byte	.LFB83
 6799 005c 3C000000 		.4byte	.LFE83-.LFB83
 6800 0060 00000000 		.4byte	.LFB84
 6801 0064 1C000000 		.4byte	.LFE84-.LFB84
 6802 0068 00000000 		.4byte	.LFB85
 6803 006c 1C000000 		.4byte	.LFE85-.LFB85
 6804 0070 00000000 		.4byte	.LFB86
 6805 0074 44000000 		.4byte	.LFE86-.LFB86
 6806 0078 00000000 		.4byte	.LFB89
 6807 007c 3C000000 		.4byte	.LFE89-.LFB89
 6808 0080 00000000 		.4byte	.LFB90
 6809 0084 1C000000 		.4byte	.LFE90-.LFB90
 6810 0088 00000000 		.4byte	.LFB91
 6811 008c 1C000000 		.4byte	.LFE91-.LFB91
 6812 0090 00000000 		.4byte	.LFB92
 6813 0094 44000000 		.4byte	.LFE92-.LFB92
 6814 0098 00000000 		.4byte	.LFB95
 6815 009c 40000000 		.4byte	.LFE95-.LFB95
 6816 00a0 00000000 		.4byte	.LFB101
 6817 00a4 40000000 		.4byte	.LFE101-.LFB101
 6818 00a8 00000000 		.4byte	.LFB103
 6819 00ac 1C000000 		.4byte	.LFE103-.LFB103
 6820 00b0 00000000 		.4byte	.LFB104
 6821 00b4 44000000 		.4byte	.LFE104-.LFB104
 6822 00b8 00000000 		.4byte	.LFB112
 6823 00bc 3C000000 		.4byte	.LFE112-.LFB112
 6824 00c0 00000000 		.4byte	.LFB114
 6825 00c4 1C000000 		.4byte	.LFE114-.LFB114
 6826 00c8 00000000 		.4byte	.LFB115
 6827 00cc 40000000 		.4byte	.LFE115-.LFB115
 6828 00d0 00000000 		.4byte	.LFB116
 6829 00d4 22000000 		.4byte	.LFE116-.LFB116
 6830 00d8 00000000 		.4byte	.LFB117
 6831 00dc 26000000 		.4byte	.LFE117-.LFB117
 6832 00e0 00000000 		.4byte	.LFB118
ARM GAS  C:\Users\salaz\AppData\Local\Temp\ccynHHO7.s 			page 197


 6833 00e4 26000000 		.4byte	.LFE118-.LFB118
 6834 00e8 00000000 		.4byte	.LFB121
 6835 00ec 1E000000 		.4byte	.LFE121-.LFB121
 6836 00f0 00000000 		.4byte	.LFB122
 6837 00f4 1E000000 		.4byte	.LFE122-.LFB122
 6838 00f8 00000000 		.4byte	.LFB127
 6839 00fc 1A000000 		.4byte	.LFE127-.LFB127
 6840 0100 00000000 		.4byte	.LFB128
 6841 0104 18000000 		.4byte	.LFE128-.LFB128
 6842 0108 00000000 		.4byte	.LFB132
 6843 010c 1A000000 		.4byte	.LFE132-.LFB132
 6844 0110 00000000 		.4byte	.LFB133
 6845 0114 18000000 		.4byte	.LFE133-.LFB133
 6846 0118 00000000 		.4byte	.LFB136
 6847 011c 1A000000 		.4byte	.LFE136-.LFB136
 6848 0120 00000000 		.4byte	.LFB142
 6849 0124 44000000 		.4byte	.LFE142-.LFB142
 6850 0128 00000000 		.4byte	.LFB143
 6851 012c BC030000 		.4byte	.LFE143-.LFB143
 6852 0130 00000000 		.4byte	.LFB144
 6853 0134 98000000 		.4byte	.LFE144-.LFB144
 6854 0138 00000000 		.4byte	.LFB145
 6855 013c 52000000 		.4byte	.LFE145-.LFB145
 6856 0140 00000000 		.4byte	.LFB146
 6857 0144 44010000 		.4byte	.LFE146-.LFB146
 6858 0148 00000000 		.4byte	.LFB147
 6859 014c AC000000 		.4byte	.LFE147-.LFB147
 6860 0150 00000000 		.4byte	.LFB148
 6861 0154 5C010000 		.4byte	.LFE148-.LFB148
 6862 0158 00000000 		.4byte	.LFB149
 6863 015c 64000000 		.4byte	.LFE149-.LFB149
 6864 0160 00000000 		.4byte	.LFB150
 6865 0164 16000000 		.4byte	.LFE150-.LFB150
 6866 0168 00000000 		.4byte	.LFB151
 6867 016c 16000000 		.4byte	.LFE151-.LFB151
 6868 0170 00000000 		.4byte	.LFB152
 6869 0174 64010000 		.4byte	.LFE152-.LFB152
 6870 0178 00000000 		.4byte	.LFB153
 6871 017c EE000000 		.4byte	.LFE153-.LFB153
 6872 0180 00000000 		.4byte	.LFB154
 6873 0184 E0000000 		.4byte	.LFE154-.LFB154
 6874 0188 00000000 		.4byte	.LFB155
 6875 018c 28000000 		.4byte	.LFE155-.LFB155
 6876 0190 00000000 		.4byte	0
 6877 0194 00000000 		.4byte	0
 6878              		.section	.debug_ranges,"",%progbits
 6879              	.Ldebug_ranges0:
 6880 0000 00000000 		.4byte	.LFB69
 6881 0004 18000000 		.4byte	.LFE69
 6882 0008 00000000 		.4byte	.LFB70
 6883 000c 58000000 		.4byte	.LFE70
 6884 0010 00000000 		.4byte	.LFB71
 6885 0014 1C000000 		.4byte	.LFE71
 6886 0018 00000000 		.4byte	.LFB73
 6887 001c 4C000000 		.4byte	.LFE73
 6888 0020 00000000 		.4byte	.LFB75
 6889 0024 58000000 		.4byte	.LFE75
ARM GAS  C:\Users\salaz\AppData\Local\Temp\ccynHHO7.s 			page 198


 6890 0028 00000000 		.4byte	.LFB76
 6891 002c 1C000000 		.4byte	.LFE76
 6892 0030 00000000 		.4byte	.LFB77
 6893 0034 20000000 		.4byte	.LFE77
 6894 0038 00000000 		.4byte	.LFB78
 6895 003c 2C000000 		.4byte	.LFE78
 6896 0040 00000000 		.4byte	.LFB79
 6897 0044 4C000000 		.4byte	.LFE79
 6898 0048 00000000 		.4byte	.LFB83
 6899 004c 3C000000 		.4byte	.LFE83
 6900 0050 00000000 		.4byte	.LFB84
 6901 0054 1C000000 		.4byte	.LFE84
 6902 0058 00000000 		.4byte	.LFB85
 6903 005c 1C000000 		.4byte	.LFE85
 6904 0060 00000000 		.4byte	.LFB86
 6905 0064 44000000 		.4byte	.LFE86
 6906 0068 00000000 		.4byte	.LFB89
 6907 006c 3C000000 		.4byte	.LFE89
 6908 0070 00000000 		.4byte	.LFB90
 6909 0074 1C000000 		.4byte	.LFE90
 6910 0078 00000000 		.4byte	.LFB91
 6911 007c 1C000000 		.4byte	.LFE91
 6912 0080 00000000 		.4byte	.LFB92
 6913 0084 44000000 		.4byte	.LFE92
 6914 0088 00000000 		.4byte	.LFB95
 6915 008c 40000000 		.4byte	.LFE95
 6916 0090 00000000 		.4byte	.LFB101
 6917 0094 40000000 		.4byte	.LFE101
 6918 0098 00000000 		.4byte	.LFB103
 6919 009c 1C000000 		.4byte	.LFE103
 6920 00a0 00000000 		.4byte	.LFB104
 6921 00a4 44000000 		.4byte	.LFE104
 6922 00a8 00000000 		.4byte	.LFB112
 6923 00ac 3C000000 		.4byte	.LFE112
 6924 00b0 00000000 		.4byte	.LFB114
 6925 00b4 1C000000 		.4byte	.LFE114
 6926 00b8 00000000 		.4byte	.LFB115
 6927 00bc 40000000 		.4byte	.LFE115
 6928 00c0 00000000 		.4byte	.LFB116
 6929 00c4 22000000 		.4byte	.LFE116
 6930 00c8 00000000 		.4byte	.LFB117
 6931 00cc 26000000 		.4byte	.LFE117
 6932 00d0 00000000 		.4byte	.LFB118
 6933 00d4 26000000 		.4byte	.LFE118
 6934 00d8 00000000 		.4byte	.LFB121
 6935 00dc 1E000000 		.4byte	.LFE121
 6936 00e0 00000000 		.4byte	.LFB122
 6937 00e4 1E000000 		.4byte	.LFE122
 6938 00e8 00000000 		.4byte	.LFB127
 6939 00ec 1A000000 		.4byte	.LFE127
 6940 00f0 00000000 		.4byte	.LFB128
 6941 00f4 18000000 		.4byte	.LFE128
 6942 00f8 00000000 		.4byte	.LFB132
 6943 00fc 1A000000 		.4byte	.LFE132
 6944 0100 00000000 		.4byte	.LFB133
 6945 0104 18000000 		.4byte	.LFE133
 6946 0108 00000000 		.4byte	.LFB136
ARM GAS  C:\Users\salaz\AppData\Local\Temp\ccynHHO7.s 			page 199


 6947 010c 1A000000 		.4byte	.LFE136
 6948 0110 00000000 		.4byte	.LFB142
 6949 0114 44000000 		.4byte	.LFE142
 6950 0118 00000000 		.4byte	.LFB143
 6951 011c BC030000 		.4byte	.LFE143
 6952 0120 00000000 		.4byte	.LFB144
 6953 0124 98000000 		.4byte	.LFE144
 6954 0128 00000000 		.4byte	.LFB145
 6955 012c 52000000 		.4byte	.LFE145
 6956 0130 00000000 		.4byte	.LFB146
 6957 0134 44010000 		.4byte	.LFE146
 6958 0138 00000000 		.4byte	.LFB147
 6959 013c AC000000 		.4byte	.LFE147
 6960 0140 00000000 		.4byte	.LFB148
 6961 0144 5C010000 		.4byte	.LFE148
 6962 0148 00000000 		.4byte	.LFB149
 6963 014c 64000000 		.4byte	.LFE149
 6964 0150 00000000 		.4byte	.LFB150
 6965 0154 16000000 		.4byte	.LFE150
 6966 0158 00000000 		.4byte	.LFB151
 6967 015c 16000000 		.4byte	.LFE151
 6968 0160 00000000 		.4byte	.LFB152
 6969 0164 64010000 		.4byte	.LFE152
 6970 0168 00000000 		.4byte	.LFB153
 6971 016c EE000000 		.4byte	.LFE153
 6972 0170 00000000 		.4byte	.LFB154
 6973 0174 E0000000 		.4byte	.LFE154
 6974 0178 00000000 		.4byte	.LFB155
 6975 017c 28000000 		.4byte	.LFE155
 6976 0180 00000000 		.4byte	0
 6977 0184 00000000 		.4byte	0
 6978              		.section	.debug_line,"",%progbits
 6979              	.Ldebug_line0:
 6980 0000 42090000 		.section	.debug_str,"MS",%progbits,1
 6980      02003502 
 6980      00000201 
 6980      FB0E0D00 
 6980      01010101 
 6981              	.LASF127:
 6982 0000 6F766572 		.ascii	"oversample\000"
 6982      73616D70 
 6982      6C6500
 6983              	.LASF137:
 6984 000b 72784669 		.ascii	"rxFifoTriggerLevel\000"
 6984      666F5472 
 6984      69676765 
 6984      724C6576 
 6984      656C00
 6985              	.LASF92:
 6986 001e 43595F53 		.ascii	"CY_SYSPM_TIMEOUT\000"
 6986      5953504D 
 6986      5F54494D 
 6986      454F5554 
 6986      00
 6987              	.LASF207:
 6988 002f 72784275 		.ascii	"rxBuffer\000"
 6988      66666572 
ARM GAS  C:\Users\salaz\AppData\Local\Temp\ccynHHO7.s 			page 200


 6988      00
 6989              	.LASF148:
 6990 0038 72784275 		.ascii	"rxBufSize\000"
 6990      6653697A 
 6990      6500
 6991              	.LASF221:
 6992 0042 44697363 		.ascii	"DiscardArrayNoCheck\000"
 6992      61726441 
 6992      72726179 
 6992      4E6F4368 
 6992      65636B00 
 6993              	.LASF130:
 6994 0056 656E6162 		.ascii	"enableMsbFirst\000"
 6994      6C654D73 
 6994      62466972 
 6994      737400
 6995              	.LASF184:
 6996 0065 43795F53 		.ascii	"Cy_SCB_IsTxDataWidthByte\000"
 6996      43425F49 
 6996      73547844 
 6996      61746157 
 6996      69647468 
 6997              	.LASF91:
 6998 007e 43595F53 		.ascii	"CY_SYSPM_BAD_PARAM\000"
 6998      5953504D 
 6998      5F424144 
 6998      5F504152 
 6998      414D00
 6999              	.LASF128:
 7000 0091 72784461 		.ascii	"rxDataWidth\000"
 7000      74615769 
 7000      64746800 
 7001              	.LASF189:
 7002 009d 43795F53 		.ascii	"Cy_SCB_SPI_IsTxComplete\000"
 7002      43425F53 
 7002      50495F49 
 7002      73547843 
 7002      6F6D706C 
 7003              	.LASF211:
 7004 00b5 43795F53 		.ascii	"Cy_SCB_SPI_GetNumTransfered\000"
 7004      43425F53 
 7004      50495F47 
 7004      65744E75 
 7004      6D547261 
 7005              	.LASF188:
 7006 00d1 43795F53 		.ascii	"Cy_SCB_SPI_ClearRxFifo\000"
 7006      43425F53 
 7006      50495F43 
 7006      6C656172 
 7006      52784669 
 7007              	.LASF186:
 7008 00e8 43795F53 		.ascii	"Cy_SCB_SPI_IsBusBusy\000"
 7008      43425F53 
 7008      50495F49 
 7008      73427573 
 7008      42757379 
 7009              	.LASF30:
ARM GAS  C:\Users\salaz\AppData\Local\Temp\ccynHHO7.s 			page 201


 7010 00fd 4932435F 		.ascii	"I2C_STATUS\000"
 7010      53544154 
 7010      555300
 7011              	.LASF0:
 7012 0108 7369676E 		.ascii	"signed char\000"
 7012      65642063 
 7012      68617200 
 7013              	.LASF5:
 7014 0114 5F5F7569 		.ascii	"__uint8_t\000"
 7014      6E74385F 
 7014      7400
 7015              	.LASF39:
 7016 011e 54585F46 		.ascii	"TX_FIFO_STATUS\000"
 7016      49464F5F 
 7016      53544154 
 7016      555300
 7017              	.LASF216:
 7018 012d 6E756D54 		.ascii	"numToCopy\000"
 7018      6F436F70 
 7018      7900
 7019              	.LASF201:
 7020 0137 6C6F6342 		.ascii	"locBase\000"
 7020      61736500 
 7021              	.LASF9:
 7022 013f 6C6F6E67 		.ascii	"long long unsigned int\000"
 7022      206C6F6E 
 7022      6720756E 
 7022      7369676E 
 7022      65642069 
 7023              	.LASF220:
 7024 0156 433A5C55 		.ascii	"C:\\Users\\salaz\\Desktop\\UART\\UART_debug.cydsn\000"
 7024      73657273 
 7024      5C73616C 
 7024      617A5C44 
 7024      65736B74 
 7025              	.LASF210:
 7026 0183 43795F53 		.ascii	"Cy_SCB_SPI_AbortTransfer\000"
 7026      43425F53 
 7026      50495F41 
 7026      626F7274 
 7026      5472616E 
 7027              	.LASF73:
 7028 019c 494E5452 		.ascii	"INTR_S_MASK\000"
 7028      5F535F4D 
 7028      41534B00 
 7029              	.LASF106:
 7030 01a8 43595F53 		.ascii	"CY_SCB_SPI_SUCCESS\000"
 7030      43425F53 
 7030      50495F53 
 7030      55434345 
 7030      535300
 7031              	.LASF150:
 7032 01bb 74784275 		.ascii	"txBuf\000"
 7032      6600
 7033              	.LASF165:
 7034 01c1 43795F53 		.ascii	"Cy_SCB_ClearTxFifo\000"
 7034      43425F43 
ARM GAS  C:\Users\salaz\AppData\Local\Temp\ccynHHO7.s 			page 202


 7034      6C656172 
 7034      54784669 
 7034      666F00
 7035              	.LASF8:
 7036 01d4 6C6F6E67 		.ascii	"long long int\000"
 7036      206C6F6E 
 7036      6720696E 
 7036      7400
 7037              	.LASF108:
 7038 01e2 43595F53 		.ascii	"CY_SCB_SPI_TRANSFER_BUSY\000"
 7038      43425F53 
 7038      50495F54 
 7038      52414E53 
 7038      4645525F 
 7039              	.LASF141:
 7040 01fb 6D617374 		.ascii	"masterSlaveIntEnableMask\000"
 7040      6572536C 
 7040      61766549 
 7040      6E74456E 
 7040      61626C65 
 7041              	.LASF124:
 7042 0214 7370694D 		.ascii	"spiMode\000"
 7042      6F646500 
 7043              	.LASF169:
 7044 021c 43795F53 		.ascii	"Cy_SCB_GetRxInterruptStatusMasked\000"
 7044      43425F47 
 7044      65745278 
 7044      496E7465 
 7044      72727570 
 7045              	.LASF123:
 7046 023e 63795F63 		.ascii	"cy_cb_scb_spi_handle_events_t\000"
 7046      625F7363 
 7046      625F7370 
 7046      695F6861 
 7046      6E646C65 
 7047              	.LASF53:
 7048 025c 52455345 		.ascii	"RESERVED10\000"
 7048      52564544 
 7048      313000
 7049              	.LASF55:
 7050 0267 52455345 		.ascii	"RESERVED11\000"
 7050      52564544 
 7050      313100
 7051              	.LASF57:
 7052 0272 52455345 		.ascii	"RESERVED12\000"
 7052      52564544 
 7052      313200
 7053              	.LASF60:
 7054 027d 52455345 		.ascii	"RESERVED13\000"
 7054      52564544 
 7054      313300
 7055              	.LASF62:
 7056 0288 52455345 		.ascii	"RESERVED14\000"
 7056      52564544 
 7056      313400
 7057              	.LASF65:
 7058 0293 52455345 		.ascii	"RESERVED15\000"
ARM GAS  C:\Users\salaz\AppData\Local\Temp\ccynHHO7.s 			page 203


 7058      52564544 
 7058      313500
 7059              	.LASF70:
 7060 029e 52455345 		.ascii	"RESERVED16\000"
 7060      52564544 
 7060      313600
 7061              	.LASF75:
 7062 02a9 52455345 		.ascii	"RESERVED17\000"
 7062      52564544 
 7062      313700
 7063              	.LASF80:
 7064 02b4 52455345 		.ascii	"RESERVED18\000"
 7064      52564544 
 7064      313800
 7065              	.LASF4:
 7066 02bf 6C6F6E67 		.ascii	"long int\000"
 7066      20696E74 
 7066      00
 7067              	.LASF145:
 7068 02c8 63795F73 		.ascii	"cy_stc_scb_spi_context\000"
 7068      74635F73 
 7068      63625F73 
 7068      70695F63 
 7068      6F6E7465 
 7069              	.LASF114:
 7070 02df 43595F53 		.ascii	"CY_SCB_SPI_TI_COINCIDES\000"
 7070      43425F53 
 7070      50495F54 
 7070      495F434F 
 7070      494E4349 
 7071              	.LASF54:
 7072 02f7 494E5452 		.ascii	"INTR_CAUSE\000"
 7072      5F434155 
 7072      534500
 7073              	.LASF119:
 7074 0302 43595F53 		.ascii	"CY_SCB_SPI_CPHA0_CPOL1\000"
 7074      43425F53 
 7074      50495F43 
 7074      50484130 
 7074      5F43504F 
 7075              	.LASF81:
 7076 0319 494E5452 		.ascii	"INTR_RX\000"
 7076      5F525800 
 7077              	.LASF27:
 7078 0321 55415254 		.ascii	"UART_FLOW_CTRL\000"
 7078      5F464C4F 
 7078      575F4354 
 7078      524C00
 7079              	.LASF82:
 7080 0330 494E5452 		.ascii	"INTR_RX_SET\000"
 7080      5F52585F 
 7080      53455400 
 7081              	.LASF187:
 7082 033c 43795F53 		.ascii	"Cy_SCB_SPI_GetNumInRxFifo\000"
 7082      43425F53 
 7082      50495F47 
 7082      65744E75 
ARM GAS  C:\Users\salaz\AppData\Local\Temp\ccynHHO7.s 			page 204


 7082      6D496E52 
 7083              	.LASF41:
 7084 0356 54585F46 		.ascii	"TX_FIFO_WR\000"
 7084      49464F5F 
 7084      575200
 7085              	.LASF129:
 7086 0361 74784461 		.ascii	"txDataWidth\000"
 7086      74615769 
 7086      64746800 
 7087              	.LASF89:
 7088 036d 646F7562 		.ascii	"double\000"
 7088      6C6500
 7089              	.LASF190:
 7090 0374 43795F53 		.ascii	"Cy_SCB_SPI_ClearTxFifo\000"
 7090      43425F53 
 7090      50495F43 
 7090      6C656172 
 7090      54784669 
 7091              	.LASF136:
 7092 038b 656E6162 		.ascii	"enableWakeFromSleep\000"
 7092      6C655761 
 7092      6B654672 
 7092      6F6D536C 
 7092      65657000 
 7093              	.LASF168:
 7094 039f 43795F53 		.ascii	"Cy_SCB_GetRxInterruptMask\000"
 7094      43425F47 
 7094      65745278 
 7094      496E7465 
 7094      72727570 
 7095              	.LASF105:
 7096 03b9 63795F73 		.ascii	"cy_stc_syspm_callback_params_t\000"
 7096      74635F73 
 7096      7973706D 
 7096      5F63616C 
 7096      6C626163 
 7097              	.LASF199:
 7098 03d8 43795F53 		.ascii	"Cy_SCB_SPI_DeepSleepCallback\000"
 7098      43425F53 
 7098      50495F44 
 7098      65657053 
 7098      6C656570 
 7099              	.LASF6:
 7100 03f5 5F5F7569 		.ascii	"__uint32_t\000"
 7100      6E743332 
 7100      5F7400
 7101              	.LASF143:
 7102 0400 63795F73 		.ascii	"cy_stc_scb_spi_config_t\000"
 7102      74635F73 
 7102      63625F73 
 7102      70695F63 
 7102      6F6E6669 
 7103              	.LASF204:
 7104 0418 43795F53 		.ascii	"Cy_SCB_SPI_HibernateCallback\000"
 7104      43425F53 
 7104      50495F48 
 7104      69626572 
ARM GAS  C:\Users\salaz\AppData\Local\Temp\ccynHHO7.s 			page 205


 7104      6E617465 
 7105              	.LASF94:
 7106 0435 43595F53 		.ascii	"CY_SYSPM_CANCELED\000"
 7106      5953504D 
 7106      5F43414E 
 7106      43454C45 
 7106      4400
 7107              	.LASF166:
 7108 0447 43795F53 		.ascii	"Cy_SCB_SetRxInterruptMask\000"
 7108      43425F53 
 7108      65745278 
 7108      496E7465 
 7108      72727570 
 7109              	.LASF149:
 7110 0461 72784275 		.ascii	"rxBufIdx\000"
 7110      66496478 
 7110      00
 7111              	.LASF64:
 7112 046a 494E5452 		.ascii	"INTR_SPI_EC_MASKED\000"
 7112      5F535049 
 7112      5F45435F 
 7112      4D41534B 
 7112      454400
 7113              	.LASF107:
 7114 047d 43595F53 		.ascii	"CY_SCB_SPI_BAD_PARAM\000"
 7114      43425F53 
 7114      50495F42 
 7114      41445F50 
 7114      4152414D 
 7115              	.LASF20:
 7116 0492 5350495F 		.ascii	"SPI_CTRL\000"
 7116      4354524C 
 7116      00
 7117              	.LASF191:
 7118 049b 43795F53 		.ascii	"Cy_SCB_SPI_Read\000"
 7118      43425F53 
 7118      50495F52 
 7118      65616400 
 7119              	.LASF151:
 7120 04ab 74784275 		.ascii	"txBufSize\000"
 7120      6653697A 
 7120      6500
 7121              	.LASF194:
 7122 04b5 6C6F6353 		.ascii	"locSclkMode\000"
 7122      636C6B4D 
 7122      6F646500 
 7123              	.LASF172:
 7124 04c1 43795F53 		.ascii	"Cy_SCB_GetTxInterruptMask\000"
 7124      43425F47 
 7124      65745478 
 7124      496E7465 
 7124      72727570 
 7125              	.LASF10:
 7126 04db 756E7369 		.ascii	"unsigned int\000"
 7126      676E6564 
 7126      20696E74 
 7126      00
ARM GAS  C:\Users\salaz\AppData\Local\Temp\ccynHHO7.s 			page 206


 7127              	.LASF111:
 7128 04e8 43595F53 		.ascii	"CY_SCB_SPI_MASTER\000"
 7128      43425F53 
 7128      50495F4D 
 7128      41535445 
 7128      5200
 7129              	.LASF86:
 7130 04fa 63686172 		.ascii	"char_t\000"
 7130      5F7400
 7131              	.LASF25:
 7132 0501 55415254 		.ascii	"UART_RX_CTRL\000"
 7132      5F52585F 
 7132      4354524C 
 7132      00
 7133              	.LASF171:
 7134 050e 43795F53 		.ascii	"Cy_SCB_SetTxInterruptMask\000"
 7134      43425F53 
 7134      65745478 
 7134      496E7465 
 7134      72727570 
 7135              	.LASF7:
 7136 0528 6C6F6E67 		.ascii	"long unsigned int\000"
 7136      20756E73 
 7136      69676E65 
 7136      6420696E 
 7136      7400
 7137              	.LASF18:
 7138 053a 434D445F 		.ascii	"CMD_RESP_STATUS\000"
 7138      52455350 
 7138      5F535441 
 7138      54555300 
 7139              	.LASF50:
 7140 054a 52585F46 		.ascii	"RX_FIFO_RD_SILENT\000"
 7140      49464F5F 
 7140      52445F53 
 7140      494C454E 
 7140      5400
 7141              	.LASF175:
 7142 055c 43795F53 		.ascii	"Cy_SCB_SetMasterInterruptMask\000"
 7142      43425F53 
 7142      65744D61 
 7142      73746572 
 7142      496E7465 
 7143              	.LASF202:
 7144 057a 6C6F6343 		.ascii	"locContext\000"
 7144      6F6E7465 
 7144      787400
 7145              	.LASF24:
 7146 0585 55415254 		.ascii	"UART_TX_CTRL\000"
 7146      5F54585F 
 7146      4354524C 
 7146      00
 7147              	.LASF156:
 7148 0592 6C657665 		.ascii	"level\000"
 7148      6C00
 7149              	.LASF208:
 7150 0598 73697A65 		.ascii	"size\000"
ARM GAS  C:\Users\salaz\AppData\Local\Temp\ccynHHO7.s 			page 207


 7150      00
 7151              	.LASF3:
 7152 059d 73686F72 		.ascii	"short unsigned int\000"
 7152      7420756E 
 7152      7369676E 
 7152      65642069 
 7152      6E7400
 7153              	.LASF140:
 7154 05b0 74784669 		.ascii	"txFifoIntEnableMask\000"
 7154      666F496E 
 7154      74456E61 
 7154      626C654D 
 7154      61736B00 
 7155              	.LASF125:
 7156 05c4 7375624D 		.ascii	"subMode\000"
 7156      6F646500 
 7157              	.LASF33:
 7158 05cc 4932435F 		.ascii	"I2C_CFG\000"
 7158      43464700 
 7159              	.LASF26:
 7160 05d4 55415254 		.ascii	"UART_RX_STATUS\000"
 7160      5F52585F 
 7160      53544154 
 7160      555300
 7161              	.LASF153:
 7162 05e3 63624576 		.ascii	"cbEvents\000"
 7162      656E7473 
 7162      00
 7163              	.LASF52:
 7164 05ec 455A5F44 		.ascii	"EZ_DATA\000"
 7164      41544100 
 7165              	.LASF218:
 7166 05f4 474E5520 		.ascii	"GNU C11 5.4.1 20160609 (release) [ARM/embedded-5-br"
 7166      43313120 
 7166      352E342E 
 7166      31203230 
 7166      31363036 
 7167 0627 616E6368 		.ascii	"anch revision 237715] -mcpu=cortex-m0plus -mthumb -"
 7167      20726576 
 7167      6973696F 
 7167      6E203233 
 7167      37373135 
 7168 065a 67202D4F 		.ascii	"g -O0 -ffunction-sections -ffat-lto-objects\000"
 7168      30202D66 
 7168      66756E63 
 7168      74696F6E 
 7168      2D736563 
 7169              	.LASF144:
 7170 0686 63795F73 		.ascii	"cy_stc_scb_spi_config\000"
 7170      74635F73 
 7170      63625F73 
 7170      70695F63 
 7170      6F6E6669 
 7171              	.LASF178:
 7172 069c 43795F53 		.ascii	"Cy_SCB_ClearSlaveInterrupt\000"
 7172      43425F43 
 7172      6C656172 
ARM GAS  C:\Users\salaz\AppData\Local\Temp\ccynHHO7.s 			page 208


 7172      536C6176 
 7172      65496E74 
 7173              	.LASF47:
 7174 06b7 52585F4D 		.ascii	"RX_MATCH\000"
 7174      41544348 
 7174      00
 7175              	.LASF155:
 7176 06c0 63795F73 		.ascii	"cy_stc_scb_spi_context_t\000"
 7176      74635F73 
 7176      63625F73 
 7176      70695F63 
 7176      6F6E7465 
 7177              	.LASF134:
 7178 06d9 656E6162 		.ascii	"enableTransferSeperation\000"
 7178      6C655472 
 7178      616E7366 
 7178      65725365 
 7178      70657261 
 7179              	.LASF84:
 7180 06f2 494E5452 		.ascii	"INTR_RX_MASKED\000"
 7180      5F52585F 
 7180      4D41534B 
 7180      454400
 7181              	.LASF112:
 7182 0701 63795F65 		.ascii	"cy_en_scb_spi_mode_t\000"
 7182      6E5F7363 
 7182      625F7370 
 7182      695F6D6F 
 7182      64655F74 
 7183              	.LASF200:
 7184 0716 63616C6C 		.ascii	"callbackParams\000"
 7184      6261636B 
 7184      50617261 
 7184      6D7300
 7185              	.LASF205:
 7186 0725 43795F53 		.ascii	"Cy_SCB_SPI_Transfer\000"
 7186      43425F53 
 7186      50495F54 
 7186      72616E73 
 7186      66657200 
 7187              	.LASF159:
 7188 0739 43795F53 		.ascii	"Cy_SCB_SetRxFifoLevel\000"
 7188      43425F53 
 7188      65745278 
 7188      4669666F 
 7188      4C657665 
 7189              	.LASF100:
 7190 074f 43595F53 		.ascii	"CY_SYSPM_AFTER_TRANSITION\000"
 7190      5953504D 
 7190      5F414654 
 7190      45525F54 
 7190      52414E53 
 7191              	.LASF163:
 7192 0769 43795F53 		.ascii	"Cy_SCB_GetTxSrValid\000"
 7192      43425F47 
 7192      65745478 
 7192      53725661 
ARM GAS  C:\Users\salaz\AppData\Local\Temp\ccynHHO7.s 			page 209


 7192      6C696400 
 7193              	.LASF76:
 7194 077d 494E5452 		.ascii	"INTR_TX\000"
 7194      5F545800 
 7195              	.LASF103:
 7196 0785 62617365 		.ascii	"base\000"
 7196      00
 7197              	.LASF219:
 7198 078a 47656E65 		.ascii	"Generated_Source\\PSoC6\\pdl\\drivers\\peripheral\\"
 7198      72617465 
 7198      645F536F 
 7198      75726365 
 7198      5C50536F 
 7199 07b8 7363625C 		.ascii	"scb\\cy_scb_spi.c\000"
 7199      63795F73 
 7199      63625F73 
 7199      70692E63 
 7199      00
 7200              	.LASF69:
 7201 07c9 494E5452 		.ascii	"INTR_M_MASKED\000"
 7201      5F4D5F4D 
 7201      41534B45 
 7201      4400
 7202              	.LASF17:
 7203 07d7 434D445F 		.ascii	"CMD_RESP_CTRL\000"
 7203      52455350 
 7203      5F435452 
 7203      4C00
 7204              	.LASF126:
 7205 07e5 73636C6B 		.ascii	"sclkMode\000"
 7205      4D6F6465 
 7205      00
 7206              	.LASF59:
 7207 07ee 494E5452 		.ascii	"INTR_I2C_EC_MASKED\000"
 7207      5F493243 
 7207      5F45435F 
 7207      4D41534B 
 7207      454400
 7208              	.LASF185:
 7209 0801 43795F53 		.ascii	"Cy_SCB_SPI_Enable\000"
 7209      43425F53 
 7209      50495F45 
 7209      6E61626C 
 7209      6500
 7210              	.LASF14:
 7211 0813 73697A65 		.ascii	"sizetype\000"
 7211      74797065 
 7211      00
 7212              	.LASF122:
 7213 081c 63795F65 		.ascii	"cy_en_scb_spi_sclk_mode_t\000"
 7213      6E5F7363 
 7213      625F7370 
 7213      695F7363 
 7213      6C6B5F6D 
 7214              	.LASF85:
 7215 0836 43795343 		.ascii	"CySCB_Type\000"
 7215      425F5479 
ARM GAS  C:\Users\salaz\AppData\Local\Temp\ccynHHO7.s 			page 210


 7215      706500
 7216              	.LASF132:
 7217 0841 656E6162 		.ascii	"enableInputFilter\000"
 7217      6C65496E 
 7217      70757446 
 7217      696C7465 
 7217      7200
 7218              	.LASF135:
 7219 0853 7373506F 		.ascii	"ssPolarity\000"
 7219      6C617269 
 7219      747900
 7220              	.LASF133:
 7221 085e 656E6162 		.ascii	"enableMisoLateSample\000"
 7221      6C654D69 
 7221      736F4C61 
 7221      74655361 
 7221      6D706C65 
 7222              	.LASF113:
 7223 0873 43595F53 		.ascii	"CY_SCB_SPI_MOTOROLA\000"
 7223      43425F53 
 7223      50495F4D 
 7223      4F544F52 
 7223      4F4C4100 
 7224              	.LASF23:
 7225 0887 55415254 		.ascii	"UART_CTRL\000"
 7225      5F435452 
 7225      4C00
 7226              	.LASF66:
 7227 0891 494E5452 		.ascii	"INTR_M\000"
 7227      5F4D00
 7228              	.LASF99:
 7229 0898 43595F53 		.ascii	"CY_SYSPM_BEFORE_TRANSITION\000"
 7229      5953504D 
 7229      5F424546 
 7229      4F52455F 
 7229      5452414E 
 7230              	.LASF71:
 7231 08b3 494E5452 		.ascii	"INTR_S\000"
 7231      5F5300
 7232              	.LASF162:
 7233 08ba 43795F53 		.ascii	"Cy_SCB_GetNumInTxFifo\000"
 7233      43425F47 
 7233      65744E75 
 7233      6D496E54 
 7233      78466966 
 7234              	.LASF118:
 7235 08d0 43595F53 		.ascii	"CY_SCB_SPI_CPHA0_CPOL0\000"
 7235      43425F53 
 7235      50495F43 
 7235      50484130 
 7235      5F43504F 
 7236              	.LASF35:
 7237 08e7 44444654 		.ascii	"DDFT_CTRL\000"
 7237      5F435452 
 7237      4C00
 7238              	.LASF101:
 7239 08f1 63795F65 		.ascii	"cy_en_syspm_callback_mode_t\000"
ARM GAS  C:\Users\salaz\AppData\Local\Temp\ccynHHO7.s 			page 211


 7239      6E5F7379 
 7239      73706D5F 
 7239      63616C6C 
 7239      6261636B 
 7240              	.LASF182:
 7241 090d 43795F53 		.ascii	"Cy_SCB_GetFifoSize\000"
 7241      43425F47 
 7241      65744669 
 7241      666F5369 
 7241      7A6500
 7242              	.LASF213:
 7243 0920 43795F53 		.ascii	"Cy_SCB_SPI_Interrupt\000"
 7243      43425F53 
 7243      50495F49 
 7243      6E746572 
 7243      72757074 
 7244              	.LASF88:
 7245 0935 666C6F61 		.ascii	"float\000"
 7245      7400
 7246              	.LASF173:
 7247 093b 43795F53 		.ascii	"Cy_SCB_GetTxInterruptStatusMasked\000"
 7247      43425F47 
 7247      65745478 
 7247      496E7465 
 7247      72727570 
 7248              	.LASF22:
 7249 095d 52455345 		.ascii	"RESERVED1\000"
 7249      52564544 
 7249      3100
 7250              	.LASF28:
 7251 0967 52455345 		.ascii	"RESERVED2\000"
 7251      52564544 
 7251      3200
 7252              	.LASF34:
 7253 0971 52455345 		.ascii	"RESERVED3\000"
 7253      52564544 
 7253      3300
 7254              	.LASF36:
 7255 097b 52455345 		.ascii	"RESERVED4\000"
 7255      52564544 
 7255      3400
 7256              	.LASF40:
 7257 0985 52455345 		.ascii	"RESERVED5\000"
 7257      52564544 
 7257      3500
 7258              	.LASF42:
 7259 098f 52455345 		.ascii	"RESERVED6\000"
 7259      52564544 
 7259      3600
 7260              	.LASF46:
 7261 0999 52455345 		.ascii	"RESERVED7\000"
 7261      52564544 
 7261      3700
 7262              	.LASF48:
 7263 09a3 52455345 		.ascii	"RESERVED8\000"
 7263      52564544 
 7263      3800
ARM GAS  C:\Users\salaz\AppData\Local\Temp\ccynHHO7.s 			page 212


 7264              	.LASF139:
 7265 09ad 74784669 		.ascii	"txFifoTriggerLevel\000"
 7265      666F5472 
 7265      69676765 
 7265      724C6576 
 7265      656C00
 7266              	.LASF131:
 7267 09c0 656E6162 		.ascii	"enableFreeRunSclk\000"
 7267      6C654672 
 7267      65655275 
 7267      6E53636C 
 7267      6B00
 7268              	.LASF212:
 7269 09d2 43795F53 		.ascii	"Cy_SCB_SPI_GetTransferStatus\000"
 7269      43425F53 
 7269      50495F47 
 7269      65745472 
 7269      616E7366 
 7270              	.LASF29:
 7271 09ef 4932435F 		.ascii	"I2C_CTRL\000"
 7271      4354524C 
 7271      00
 7272              	.LASF1:
 7273 09f8 756E7369 		.ascii	"unsigned char\000"
 7273      676E6564 
 7273      20636861 
 7273      7200
 7274              	.LASF79:
 7275 0a06 494E5452 		.ascii	"INTR_TX_MASKED\000"
 7275      5F54585F 
 7275      4D41534B 
 7275      454400
 7276              	.LASF2:
 7277 0a15 73686F72 		.ascii	"short int\000"
 7277      7420696E 
 7277      7400
 7278              	.LASF116:
 7279 0a1f 43595F53 		.ascii	"CY_SCB_SPI_TI_PRECEDES\000"
 7279      43425F53 
 7279      50495F54 
 7279      495F5052 
 7279      45434544 
 7280              	.LASF32:
 7281 0a36 4932435F 		.ascii	"I2C_S_CMD\000"
 7281      535F434D 
 7281      4400
 7282              	.LASF198:
 7283 0a40 43795F53 		.ascii	"Cy_SCB_SPI_Init\000"
 7283      43425F53 
 7283      50495F49 
 7283      6E697400 
 7284              	.LASF167:
 7285 0a50 696E7465 		.ascii	"interruptMask\000"
 7285      72727570 
 7285      744D6173 
 7285      6B00
 7286              	.LASF176:
ARM GAS  C:\Users\salaz\AppData\Local\Temp\ccynHHO7.s 			page 213


 7287 0a5e 43795F53 		.ascii	"Cy_SCB_SetSlaveInterruptMask\000"
 7287      43425F53 
 7287      6574536C 
 7287      61766549 
 7287      6E746572 
 7288              	.LASF209:
 7289 0a7b 6669666F 		.ascii	"fifoSize\000"
 7289      53697A65 
 7289      00
 7290              	.LASF56:
 7291 0a84 494E5452 		.ascii	"INTR_I2C_EC\000"
 7291      5F493243 
 7291      5F454300 
 7292              	.LASF164:
 7293 0a90 43795F53 		.ascii	"Cy_SCB_IsTxComplete\000"
 7293      43425F49 
 7293      73547843 
 7293      6F6D706C 
 7293      65746500 
 7294              	.LASF192:
 7295 0aa4 43595F53 		.ascii	"CY_SCB_SPI_GetSclkMode\000"
 7295      43425F53 
 7295      50495F47 
 7295      65745363 
 7295      6C6B4D6F 
 7296              	.LASF120:
 7297 0abb 43595F53 		.ascii	"CY_SCB_SPI_CPHA1_CPOL0\000"
 7297      43425F53 
 7297      50495F43 
 7297      50484131 
 7297      5F43504F 
 7298              	.LASF121:
 7299 0ad2 43595F53 		.ascii	"CY_SCB_SPI_CPHA1_CPOL1\000"
 7299      43425F53 
 7299      50495F43 
 7299      50484131 
 7299      5F43504F 
 7300              	.LASF197:
 7301 0ae9 43795F53 		.ascii	"Cy_SCB_SPI_Disable\000"
 7301      43425F53 
 7301      50495F44 
 7301      69736162 
 7301      6C6500
 7302              	.LASF183:
 7303 0afc 43795F53 		.ascii	"Cy_SCB_IsRxDataWidthByte\000"
 7303      43425F49 
 7303      73527844 
 7303      61746157 
 7303      69647468 
 7304              	.LASF63:
 7305 0b15 494E5452 		.ascii	"INTR_SPI_EC_MASK\000"
 7305      5F535049 
 7305      5F45435F 
 7305      4D41534B 
 7305      00
 7306              	.LASF12:
 7307 0b26 75696E74 		.ascii	"uint32_t\000"
ARM GAS  C:\Users\salaz\AppData\Local\Temp\ccynHHO7.s 			page 214


 7307      33325F74 
 7307      00
 7308              	.LASF67:
 7309 0b2f 494E5452 		.ascii	"INTR_M_SET\000"
 7309      5F4D5F53 
 7309      455400
 7310              	.LASF51:
 7311 0b3a 52455345 		.ascii	"RESERVED9\000"
 7311      52564544 
 7311      3900
 7312              	.LASF109:
 7313 0b44 63795F65 		.ascii	"cy_en_scb_spi_status_t\000"
 7313      6E5F7363 
 7313      625F7370 
 7313      695F7374 
 7313      61747573 
 7314              	.LASF21:
 7315 0b5b 5350495F 		.ascii	"SPI_STATUS\000"
 7315      53544154 
 7315      555300
 7316              	.LASF142:
 7317 0b66 5F426F6F 		.ascii	"_Bool\000"
 7317      6C00
 7318              	.LASF13:
 7319 0b6c 6C6F6E67 		.ascii	"long double\000"
 7319      20646F75 
 7319      626C6500 
 7320              	.LASF87:
 7321 0b78 63686172 		.ascii	"char\000"
 7321      00
 7322              	.LASF195:
 7323 0b7d 62797465 		.ascii	"byteMode\000"
 7323      4D6F6465 
 7323      00
 7324              	.LASF102:
 7325 0b86 6D6F6465 		.ascii	"mode\000"
 7325      00
 7326              	.LASF90:
 7327 0b8b 43595F53 		.ascii	"CY_SYSPM_SUCCESS\000"
 7327      5953504D 
 7327      5F535543 
 7327      43455353 
 7327      00
 7328              	.LASF193:
 7329 0b9c 636F6E66 		.ascii	"config\000"
 7329      696700
 7330              	.LASF77:
 7331 0ba3 494E5452 		.ascii	"INTR_TX_SET\000"
 7331      5F54585F 
 7331      53455400 
 7332              	.LASF68:
 7333 0baf 494E5452 		.ascii	"INTR_M_MASK\000"
 7333      5F4D5F4D 
 7333      41534B00 
 7334              	.LASF217:
 7335 0bbb 48616E64 		.ascii	"HandleTransmit\000"
 7335      6C655472 
ARM GAS  C:\Users\salaz\AppData\Local\Temp\ccynHHO7.s 			page 215


 7335      616E736D 
 7335      697400
 7336              	.LASF196:
 7337 0bca 43795F53 		.ascii	"Cy_SCB_SPI_DeInit\000"
 7337      43425F53 
 7337      50495F44 
 7337      65496E69 
 7337      7400
 7338              	.LASF19:
 7339 0bdc 52455345 		.ascii	"RESERVED\000"
 7339      52564544 
 7339      00
 7340              	.LASF45:
 7341 0be5 52585F46 		.ascii	"RX_FIFO_STATUS\000"
 7341      49464F5F 
 7341      53544154 
 7341      555300
 7342              	.LASF78:
 7343 0bf4 494E5452 		.ascii	"INTR_TX_MASK\000"
 7343      5F54585F 
 7343      4D41534B 
 7343      00
 7344              	.LASF43:
 7345 0c01 52585F43 		.ascii	"RX_CTRL\000"
 7345      54524C00 
 7346              	.LASF49:
 7347 0c09 52585F46 		.ascii	"RX_FIFO_RD\000"
 7347      49464F5F 
 7347      524400
 7348              	.LASF96:
 7349 0c14 63795F65 		.ascii	"cy_en_syspm_status_t\000"
 7349      6E5F7379 
 7349      73706D5F 
 7349      73746174 
 7349      75735F74 
 7350              	.LASF98:
 7351 0c29 43595F53 		.ascii	"CY_SYSPM_CHECK_FAIL\000"
 7351      5953504D 
 7351      5F434845 
 7351      434B5F46 
 7351      41494C00 
 7352              	.LASF161:
 7353 0c3d 43795F53 		.ascii	"Cy_SCB_SetTxFifoLevel\000"
 7353      43425F53 
 7353      65745478 
 7353      4669666F 
 7353      4C657665 
 7354              	.LASF72:
 7355 0c53 494E5452 		.ascii	"INTR_S_SET\000"
 7355      5F535F53 
 7355      455400
 7356              	.LASF104:
 7357 0c5e 636F6E74 		.ascii	"context\000"
 7357      65787400 
 7358              	.LASF115:
 7359 0c66 43595F53 		.ascii	"CY_SCB_SPI_NATIONAL\000"
 7359      43425F53 
ARM GAS  C:\Users\salaz\AppData\Local\Temp\ccynHHO7.s 			page 216


 7359      50495F4E 
 7359      4154494F 
 7359      4E414C00 
 7360              	.LASF157:
 7361 0c7a 43795F53 		.ascii	"Cy_SCB_ReadRxFifo\000"
 7361      43425F52 
 7361      65616452 
 7361      78466966 
 7361      6F00
 7362              	.LASF37:
 7363 0c8c 54585F43 		.ascii	"TX_CTRL\000"
 7363      54524C00 
 7364              	.LASF61:
 7365 0c94 494E5452 		.ascii	"INTR_SPI_EC\000"
 7365      5F535049 
 7365      5F454300 
 7366              	.LASF15:
 7367 0ca0 4354524C 		.ascii	"CTRL\000"
 7367      00
 7368              	.LASF95:
 7369 0ca5 43595F53 		.ascii	"CY_SYSPM_FAIL\000"
 7369      5953504D 
 7369      5F464149 
 7369      4C00
 7370              	.LASF154:
 7371 0cb3 696E6974 		.ascii	"initKey\000"
 7371      4B657900 
 7372              	.LASF147:
 7373 0cbb 72784275 		.ascii	"rxBuf\000"
 7373      6600
 7374              	.LASF38:
 7375 0cc1 54585F46 		.ascii	"TX_FIFO_CTRL\000"
 7375      49464F5F 
 7375      4354524C 
 7375      00
 7376              	.LASF16:
 7377 0cce 53544154 		.ascii	"STATUS\000"
 7377      555300
 7378              	.LASF206:
 7379 0cd5 74784275 		.ascii	"txBuffer\000"
 7379      66666572 
 7379      00
 7380              	.LASF160:
 7381 0cde 43795F53 		.ascii	"Cy_SCB_ClearRxFifo\000"
 7381      43425F43 
 7381      6C656172 
 7381      52784669 
 7381      666F00
 7382              	.LASF146:
 7383 0cf1 73746174 		.ascii	"status\000"
 7383      757300
 7384              	.LASF177:
 7385 0cf8 43795F53 		.ascii	"Cy_SCB_GetSlaveInterruptStatusMasked\000"
 7385      43425F47 
 7385      6574536C 
 7385      61766549 
 7385      6E746572 
ARM GAS  C:\Users\salaz\AppData\Local\Temp\ccynHHO7.s 			page 217


 7386              	.LASF174:
 7387 0d1d 43795F53 		.ascii	"Cy_SCB_ClearTxInterrupt\000"
 7387      43425F43 
 7387      6C656172 
 7387      5478496E 
 7387      74657272 
 7388              	.LASF138:
 7389 0d35 72784669 		.ascii	"rxFifoIntEnableMask\000"
 7389      666F496E 
 7389      74456E61 
 7389      626C654D 
 7389      61736B00 
 7390              	.LASF44:
 7391 0d49 52585F46 		.ascii	"RX_FIFO_CTRL\000"
 7391      49464F5F 
 7391      4354524C 
 7391      00
 7392              	.LASF11:
 7393 0d56 75696E74 		.ascii	"uint8_t\000"
 7393      385F7400 
 7394              	.LASF214:
 7395 0d5e 6C6F6358 		.ascii	"locXferErr\000"
 7395      66657245 
 7395      727200
 7396              	.LASF180:
 7397 0d69 43795F53 		.ascii	"Cy_SCB_GetSpiInterruptStatusMasked\000"
 7397      43425F47 
 7397      65745370 
 7397      69496E74 
 7397      65727275 
 7398              	.LASF31:
 7399 0d8c 4932435F 		.ascii	"I2C_M_CMD\000"
 7399      4D5F434D 
 7399      4400
 7400              	.LASF93:
 7401 0d96 43595F53 		.ascii	"CY_SYSPM_INVALID_STATE\000"
 7401      5953504D 
 7401      5F494E56 
 7401      414C4944 
 7401      5F535441 
 7402              	.LASF215:
 7403 0dad 48616E64 		.ascii	"HandleReceive\000"
 7403      6C655265 
 7403      63656976 
 7403      6500
 7404              	.LASF97:
 7405 0dbb 43595F53 		.ascii	"CY_SYSPM_CHECK_READY\000"
 7405      5953504D 
 7405      5F434845 
 7405      434B5F52 
 7405      45414459 
 7406              	.LASF58:
 7407 0dd0 494E5452 		.ascii	"INTR_I2C_EC_MASK\000"
 7407      5F493243 
 7407      5F45435F 
 7407      4D41534B 
 7407      00
ARM GAS  C:\Users\salaz\AppData\Local\Temp\ccynHHO7.s 			page 218


 7408              	.LASF110:
 7409 0de1 43595F53 		.ascii	"CY_SCB_SPI_SLAVE\000"
 7409      43425F53 
 7409      50495F53 
 7409      4C415645 
 7409      00
 7410              	.LASF83:
 7411 0df2 494E5452 		.ascii	"INTR_RX_MASK\000"
 7411      5F52585F 
 7411      4D41534B 
 7411      00
 7412              	.LASF74:
 7413 0dff 494E5452 		.ascii	"INTR_S_MASKED\000"
 7413      5F535F4D 
 7413      41534B45 
 7413      4400
 7414              	.LASF117:
 7415 0e0d 63795F65 		.ascii	"cy_en_scb_spi_sub_mode_t\000"
 7415      6E5F7363 
 7415      625F7370 
 7415      695F7375 
 7415      625F6D6F 
 7416              	.LASF203:
 7417 0e26 72657453 		.ascii	"retStatus\000"
 7417      74617475 
 7417      7300
 7418              	.LASF158:
 7419 0e30 43795F53 		.ascii	"Cy_SCB_GetNumInRxFifo\000"
 7419      43425F47 
 7419      65744E75 
 7419      6D496E52 
 7419      78466966 
 7420              	.LASF179:
 7421 0e46 43795F53 		.ascii	"Cy_SCB_SetSpiInterruptMask\000"
 7421      43425F53 
 7421      65745370 
 7421      69496E74 
 7421      65727275 
 7422              	.LASF170:
 7423 0e61 43795F53 		.ascii	"Cy_SCB_ClearRxInterrupt\000"
 7423      43425F43 
 7423      6C656172 
 7423      5278496E 
 7423      74657272 
 7424              	.LASF181:
 7425 0e79 43795F53 		.ascii	"Cy_SCB_ClearSpiInterrupt\000"
 7425      43425F43 
 7425      6C656172 
 7425      53706949 
 7425      6E746572 
 7426              	.LASF152:
 7427 0e92 74784275 		.ascii	"txBufIdx\000"
 7427      66496478 
 7427      00
 7428              		.ident	"GCC: (GNU Tools for ARM Embedded Processors) 5.4.1 20160609 (release) [ARM/embedded-5-bran
