ARM GAS  C:\Users\salaz\AppData\Local\Temp\ccU0pQaU.s 			page 1


   1              		.syntax unified
   2              		.cpu cortex-m0plus
   3              		.fpu softvfp
   4              		.eabi_attribute 20, 1
   5              		.eabi_attribute 21, 1
   6              		.eabi_attribute 23, 3
   7              		.eabi_attribute 24, 1
   8              		.eabi_attribute 25, 1
   9              		.eabi_attribute 26, 1
  10              		.eabi_attribute 30, 6
  11              		.eabi_attribute 34, 0
  12              		.eabi_attribute 18, 4
  13              		.thumb
  14              		.syntax unified
  15              		.file	"cy_scb_ezi2c.c"
  16              		.text
  17              	.Ltext0:
  18              		.cfi_sections	.debug_frame
  19              		.section	.text.Cy_SCB_ReadRxFifo,"ax",%progbits
  20              		.align	2
  21              		.code	16
  22              		.thumb_func
  23              		.type	Cy_SCB_ReadRxFifo, %function
  24              	Cy_SCB_ReadRxFifo:
  25              	.LFB69:
  26              		.file 1 "Generated_Source\\PSoC6\\pdl\\drivers\\peripheral\\scb\\cy_scb_common.h"
   1:Generated_Source\PSoC6\pdl\drivers\peripheral\scb/cy_scb_common.h **** /***************************************************************************//**
   2:Generated_Source\PSoC6\pdl\drivers\peripheral\scb/cy_scb_common.h **** * \file cy_scb_common.h
   3:Generated_Source\PSoC6\pdl\drivers\peripheral\scb/cy_scb_common.h **** * \version 2.10
   4:Generated_Source\PSoC6\pdl\drivers\peripheral\scb/cy_scb_common.h **** *
   5:Generated_Source\PSoC6\pdl\drivers\peripheral\scb/cy_scb_common.h **** * Provides common API declarations of the SCB driver.
   6:Generated_Source\PSoC6\pdl\drivers\peripheral\scb/cy_scb_common.h **** *
   7:Generated_Source\PSoC6\pdl\drivers\peripheral\scb/cy_scb_common.h **** ********************************************************************************
   8:Generated_Source\PSoC6\pdl\drivers\peripheral\scb/cy_scb_common.h **** * \copyright
   9:Generated_Source\PSoC6\pdl\drivers\peripheral\scb/cy_scb_common.h **** * Copyright 2016-2018, Cypress Semiconductor Corporation.  All rights reserved.
  10:Generated_Source\PSoC6\pdl\drivers\peripheral\scb/cy_scb_common.h **** * You may use this file only in accordance with the license, terms, conditions,
  11:Generated_Source\PSoC6\pdl\drivers\peripheral\scb/cy_scb_common.h **** * disclaimers, and limitations in the end user license agreement accompanying
  12:Generated_Source\PSoC6\pdl\drivers\peripheral\scb/cy_scb_common.h **** * the software package with which this file was provided.
  13:Generated_Source\PSoC6\pdl\drivers\peripheral\scb/cy_scb_common.h **** *******************************************************************************/
  14:Generated_Source\PSoC6\pdl\drivers\peripheral\scb/cy_scb_common.h **** 
  15:Generated_Source\PSoC6\pdl\drivers\peripheral\scb/cy_scb_common.h **** /**
  16:Generated_Source\PSoC6\pdl\drivers\peripheral\scb/cy_scb_common.h **** * \defgroup group_scb Serial Communication Block (SCB)
  17:Generated_Source\PSoC6\pdl\drivers\peripheral\scb/cy_scb_common.h **** * \{
  18:Generated_Source\PSoC6\pdl\drivers\peripheral\scb/cy_scb_common.h **** * \defgroup group_scb_common Common
  19:Generated_Source\PSoC6\pdl\drivers\peripheral\scb/cy_scb_common.h **** * \defgroup group_scb_ezi2c  EZI2C (SCB)
  20:Generated_Source\PSoC6\pdl\drivers\peripheral\scb/cy_scb_common.h **** * \defgroup group_scb_i2c    I2C (SCB)
  21:Generated_Source\PSoC6\pdl\drivers\peripheral\scb/cy_scb_common.h **** * \defgroup group_scb_spi    SPI (SCB)
  22:Generated_Source\PSoC6\pdl\drivers\peripheral\scb/cy_scb_common.h **** * \defgroup group_scb_uart   UART (SCB)
  23:Generated_Source\PSoC6\pdl\drivers\peripheral\scb/cy_scb_common.h **** * \} */
  24:Generated_Source\PSoC6\pdl\drivers\peripheral\scb/cy_scb_common.h **** 
  25:Generated_Source\PSoC6\pdl\drivers\peripheral\scb/cy_scb_common.h **** /**
  26:Generated_Source\PSoC6\pdl\drivers\peripheral\scb/cy_scb_common.h **** * \addtogroup group_scb_common
  27:Generated_Source\PSoC6\pdl\drivers\peripheral\scb/cy_scb_common.h **** * \{
  28:Generated_Source\PSoC6\pdl\drivers\peripheral\scb/cy_scb_common.h **** *
  29:Generated_Source\PSoC6\pdl\drivers\peripheral\scb/cy_scb_common.h **** * Common API for the Serial Communication Block.
  30:Generated_Source\PSoC6\pdl\drivers\peripheral\scb/cy_scb_common.h **** *
  31:Generated_Source\PSoC6\pdl\drivers\peripheral\scb/cy_scb_common.h **** * This is the common API that provides an interface to the SCB hardware.
ARM GAS  C:\Users\salaz\AppData\Local\Temp\ccU0pQaU.s 			page 2


  32:Generated_Source\PSoC6\pdl\drivers\peripheral\scb/cy_scb_common.h **** * The I2C, SPI, and UART drivers use this common API.
  33:Generated_Source\PSoC6\pdl\drivers\peripheral\scb/cy_scb_common.h **** * Most users will use individual drivers and do not need to use the common
  34:Generated_Source\PSoC6\pdl\drivers\peripheral\scb/cy_scb_common.h **** * API for the SCB. However, you can use the common SCB API to implement
  35:Generated_Source\PSoC6\pdl\drivers\peripheral\scb/cy_scb_common.h **** * a custom driver based on the SCB hardware.
  36:Generated_Source\PSoC6\pdl\drivers\peripheral\scb/cy_scb_common.h **** *
  37:Generated_Source\PSoC6\pdl\drivers\peripheral\scb/cy_scb_common.h **** * \section group_scb_common_configuration Configuration Considerations
  38:Generated_Source\PSoC6\pdl\drivers\peripheral\scb/cy_scb_common.h **** *
  39:Generated_Source\PSoC6\pdl\drivers\peripheral\scb/cy_scb_common.h **** * This is not a driver and it does not require configuration.
  40:Generated_Source\PSoC6\pdl\drivers\peripheral\scb/cy_scb_common.h **** *
  41:Generated_Source\PSoC6\pdl\drivers\peripheral\scb/cy_scb_common.h **** * \section group_scb_common_more_information More Information
  42:Generated_Source\PSoC6\pdl\drivers\peripheral\scb/cy_scb_common.h **** *
  43:Generated_Source\PSoC6\pdl\drivers\peripheral\scb/cy_scb_common.h **** * Refer to the SCB chapter of the technical reference manual (TRM).
  44:Generated_Source\PSoC6\pdl\drivers\peripheral\scb/cy_scb_common.h **** *
  45:Generated_Source\PSoC6\pdl\drivers\peripheral\scb/cy_scb_common.h **** * \section group_scb_common_MISRA MISRA-C Compliance
  46:Generated_Source\PSoC6\pdl\drivers\peripheral\scb/cy_scb_common.h **** * <table class="doxtable">
  47:Generated_Source\PSoC6\pdl\drivers\peripheral\scb/cy_scb_common.h **** *   <tr>
  48:Generated_Source\PSoC6\pdl\drivers\peripheral\scb/cy_scb_common.h **** *     <th>MISRA rule</th>
  49:Generated_Source\PSoC6\pdl\drivers\peripheral\scb/cy_scb_common.h **** *     <th>Rule Class (Required/Advisory)</th>
  50:Generated_Source\PSoC6\pdl\drivers\peripheral\scb/cy_scb_common.h **** *     <th>Rule Description</th>
  51:Generated_Source\PSoC6\pdl\drivers\peripheral\scb/cy_scb_common.h **** *     <th>Description of Deviation(s)</th>
  52:Generated_Source\PSoC6\pdl\drivers\peripheral\scb/cy_scb_common.h **** *   </tr>
  53:Generated_Source\PSoC6\pdl\drivers\peripheral\scb/cy_scb_common.h **** *   <tr>
  54:Generated_Source\PSoC6\pdl\drivers\peripheral\scb/cy_scb_common.h **** *     <td>11.4</td>
  55:Generated_Source\PSoC6\pdl\drivers\peripheral\scb/cy_scb_common.h **** *     <td>A</td>
  56:Generated_Source\PSoC6\pdl\drivers\peripheral\scb/cy_scb_common.h **** *     <td>A cast should not be performed between a pointer to object type and
  57:Generated_Source\PSoC6\pdl\drivers\peripheral\scb/cy_scb_common.h **** *         a different pointer to object type.</td>
  58:Generated_Source\PSoC6\pdl\drivers\peripheral\scb/cy_scb_common.h **** *     <td>The pointer to the buffer memory is void to allow handling of
  59:Generated_Source\PSoC6\pdl\drivers\peripheral\scb/cy_scb_common.h **** *         different data types: uint8_t (4-8 bits) or uint16_t (9-16 bits).
  60:Generated_Source\PSoC6\pdl\drivers\peripheral\scb/cy_scb_common.h **** *         The cast operation is safe because the configuration is verified
  61:Generated_Source\PSoC6\pdl\drivers\peripheral\scb/cy_scb_common.h **** *         before operation is performed.
  62:Generated_Source\PSoC6\pdl\drivers\peripheral\scb/cy_scb_common.h **** *         </td>
  63:Generated_Source\PSoC6\pdl\drivers\peripheral\scb/cy_scb_common.h **** *   </tr>
  64:Generated_Source\PSoC6\pdl\drivers\peripheral\scb/cy_scb_common.h **** * </table>
  65:Generated_Source\PSoC6\pdl\drivers\peripheral\scb/cy_scb_common.h **** *
  66:Generated_Source\PSoC6\pdl\drivers\peripheral\scb/cy_scb_common.h **** * \section group_scb_common_changelog Changelog
  67:Generated_Source\PSoC6\pdl\drivers\peripheral\scb/cy_scb_common.h **** * <table class="doxtable">
  68:Generated_Source\PSoC6\pdl\drivers\peripheral\scb/cy_scb_common.h **** *   <tr><th>Version</th><th>Changes</th><th>Reason for Change</th></tr>
  69:Generated_Source\PSoC6\pdl\drivers\peripheral\scb/cy_scb_common.h **** *   <tr>
  70:Generated_Source\PSoC6\pdl\drivers\peripheral\scb/cy_scb_common.h **** *     <td>2.10</td>
  71:Generated_Source\PSoC6\pdl\drivers\peripheral\scb/cy_scb_common.h **** *     <td>None.</td>
  72:Generated_Source\PSoC6\pdl\drivers\peripheral\scb/cy_scb_common.h **** *     <td>SCB I2C driver updated.</td>
  73:Generated_Source\PSoC6\pdl\drivers\peripheral\scb/cy_scb_common.h **** *   </tr>
  74:Generated_Source\PSoC6\pdl\drivers\peripheral\scb/cy_scb_common.h **** *   <tr>
  75:Generated_Source\PSoC6\pdl\drivers\peripheral\scb/cy_scb_common.h **** *     <td rowspan="2"> 2.0</td>
  76:Generated_Source\PSoC6\pdl\drivers\peripheral\scb/cy_scb_common.h **** *     <td>Added parameters validation for public API.
  77:Generated_Source\PSoC6\pdl\drivers\peripheral\scb/cy_scb_common.h **** *     <td></td>
  78:Generated_Source\PSoC6\pdl\drivers\peripheral\scb/cy_scb_common.h **** *   </tr>
  79:Generated_Source\PSoC6\pdl\drivers\peripheral\scb/cy_scb_common.h **** *   <tr>
  80:Generated_Source\PSoC6\pdl\drivers\peripheral\scb/cy_scb_common.h **** *     <td>Fixed functions which return interrupt status to return only defined
  81:Generated_Source\PSoC6\pdl\drivers\peripheral\scb/cy_scb_common.h **** *         set of interrupt statuses.</td>
  82:Generated_Source\PSoC6\pdl\drivers\peripheral\scb/cy_scb_common.h **** *     <td></td>
  83:Generated_Source\PSoC6\pdl\drivers\peripheral\scb/cy_scb_common.h **** *   </tr>
  84:Generated_Source\PSoC6\pdl\drivers\peripheral\scb/cy_scb_common.h **** *   <tr>
  85:Generated_Source\PSoC6\pdl\drivers\peripheral\scb/cy_scb_common.h **** *     <td>1.0</td>
  86:Generated_Source\PSoC6\pdl\drivers\peripheral\scb/cy_scb_common.h **** *     <td>Initial version.</td>
  87:Generated_Source\PSoC6\pdl\drivers\peripheral\scb/cy_scb_common.h **** *     <td></td>
  88:Generated_Source\PSoC6\pdl\drivers\peripheral\scb/cy_scb_common.h **** *   </tr>
ARM GAS  C:\Users\salaz\AppData\Local\Temp\ccU0pQaU.s 			page 3


  89:Generated_Source\PSoC6\pdl\drivers\peripheral\scb/cy_scb_common.h **** * </table>
  90:Generated_Source\PSoC6\pdl\drivers\peripheral\scb/cy_scb_common.h **** *
  91:Generated_Source\PSoC6\pdl\drivers\peripheral\scb/cy_scb_common.h **** * \defgroup group_scb_common_macros Macros
  92:Generated_Source\PSoC6\pdl\drivers\peripheral\scb/cy_scb_common.h **** * \defgroup group_scb_common_functions Functions
  93:Generated_Source\PSoC6\pdl\drivers\peripheral\scb/cy_scb_common.h **** * \defgroup group_scb_common_data_structures Data Structures
  94:Generated_Source\PSoC6\pdl\drivers\peripheral\scb/cy_scb_common.h **** *
  95:Generated_Source\PSoC6\pdl\drivers\peripheral\scb/cy_scb_common.h **** */
  96:Generated_Source\PSoC6\pdl\drivers\peripheral\scb/cy_scb_common.h **** 
  97:Generated_Source\PSoC6\pdl\drivers\peripheral\scb/cy_scb_common.h **** #if !defined(CY_SCB_COMMON_H)
  98:Generated_Source\PSoC6\pdl\drivers\peripheral\scb/cy_scb_common.h **** #define CY_SCB_COMMON_H
  99:Generated_Source\PSoC6\pdl\drivers\peripheral\scb/cy_scb_common.h **** 
 100:Generated_Source\PSoC6\pdl\drivers\peripheral\scb/cy_scb_common.h **** #include <stdint.h>
 101:Generated_Source\PSoC6\pdl\drivers\peripheral\scb/cy_scb_common.h **** #include <stddef.h>
 102:Generated_Source\PSoC6\pdl\drivers\peripheral\scb/cy_scb_common.h **** #include <stdbool.h>
 103:Generated_Source\PSoC6\pdl\drivers\peripheral\scb/cy_scb_common.h **** #include "cy_device_headers.h"
 104:Generated_Source\PSoC6\pdl\drivers\peripheral\scb/cy_scb_common.h **** #include "syslib/cy_syslib.h"
 105:Generated_Source\PSoC6\pdl\drivers\peripheral\scb/cy_scb_common.h **** #include "syspm/cy_syspm.h"
 106:Generated_Source\PSoC6\pdl\drivers\peripheral\scb/cy_scb_common.h **** 
 107:Generated_Source\PSoC6\pdl\drivers\peripheral\scb/cy_scb_common.h **** #ifndef CY_IP_MXSCB
 108:Generated_Source\PSoC6\pdl\drivers\peripheral\scb/cy_scb_common.h ****     #error "The SCB driver is not supported on this device"
 109:Generated_Source\PSoC6\pdl\drivers\peripheral\scb/cy_scb_common.h **** #endif
 110:Generated_Source\PSoC6\pdl\drivers\peripheral\scb/cy_scb_common.h **** 
 111:Generated_Source\PSoC6\pdl\drivers\peripheral\scb/cy_scb_common.h **** #if defined(__cplusplus)
 112:Generated_Source\PSoC6\pdl\drivers\peripheral\scb/cy_scb_common.h **** extern "C" {
 113:Generated_Source\PSoC6\pdl\drivers\peripheral\scb/cy_scb_common.h **** #endif
 114:Generated_Source\PSoC6\pdl\drivers\peripheral\scb/cy_scb_common.h **** 
 115:Generated_Source\PSoC6\pdl\drivers\peripheral\scb/cy_scb_common.h **** 
 116:Generated_Source\PSoC6\pdl\drivers\peripheral\scb/cy_scb_common.h **** /***************************************
 117:Generated_Source\PSoC6\pdl\drivers\peripheral\scb/cy_scb_common.h **** *        Function Prototypes
 118:Generated_Source\PSoC6\pdl\drivers\peripheral\scb/cy_scb_common.h **** ***************************************/
 119:Generated_Source\PSoC6\pdl\drivers\peripheral\scb/cy_scb_common.h **** 
 120:Generated_Source\PSoC6\pdl\drivers\peripheral\scb/cy_scb_common.h **** /**
 121:Generated_Source\PSoC6\pdl\drivers\peripheral\scb/cy_scb_common.h **** * \addtogroup group_scb_common_functions
 122:Generated_Source\PSoC6\pdl\drivers\peripheral\scb/cy_scb_common.h **** * \{
 123:Generated_Source\PSoC6\pdl\drivers\peripheral\scb/cy_scb_common.h **** */
 124:Generated_Source\PSoC6\pdl\drivers\peripheral\scb/cy_scb_common.h **** __STATIC_INLINE uint32_t Cy_SCB_ReadRxFifo    (CySCB_Type const *base);
 125:Generated_Source\PSoC6\pdl\drivers\peripheral\scb/cy_scb_common.h **** __STATIC_INLINE void     Cy_SCB_SetRxFifoLevel(CySCB_Type *base, uint32_t level);
 126:Generated_Source\PSoC6\pdl\drivers\peripheral\scb/cy_scb_common.h **** __STATIC_INLINE uint32_t Cy_SCB_GetNumInRxFifo(CySCB_Type const *base);
 127:Generated_Source\PSoC6\pdl\drivers\peripheral\scb/cy_scb_common.h **** __STATIC_INLINE uint32_t Cy_SCB_GetRxSrValid  (CySCB_Type const *base);
 128:Generated_Source\PSoC6\pdl\drivers\peripheral\scb/cy_scb_common.h **** __STATIC_INLINE void     Cy_SCB_ClearRxFifo   (CySCB_Type *base);
 129:Generated_Source\PSoC6\pdl\drivers\peripheral\scb/cy_scb_common.h **** 
 130:Generated_Source\PSoC6\pdl\drivers\peripheral\scb/cy_scb_common.h **** __STATIC_INLINE void     Cy_SCB_WriteTxFifo   (CySCB_Type *base, uint32_t data);
 131:Generated_Source\PSoC6\pdl\drivers\peripheral\scb/cy_scb_common.h **** __STATIC_INLINE void     Cy_SCB_SetTxFifoLevel(CySCB_Type *base, uint32_t level);
 132:Generated_Source\PSoC6\pdl\drivers\peripheral\scb/cy_scb_common.h **** __STATIC_INLINE uint32_t Cy_SCB_GetNumInTxFifo(CySCB_Type const *base);
 133:Generated_Source\PSoC6\pdl\drivers\peripheral\scb/cy_scb_common.h **** __STATIC_INLINE uint32_t Cy_SCB_GetTxSrValid  (CySCB_Type const *base);
 134:Generated_Source\PSoC6\pdl\drivers\peripheral\scb/cy_scb_common.h **** __STATIC_INLINE bool     Cy_SCB_IsTxComplete  (CySCB_Type const *base);
 135:Generated_Source\PSoC6\pdl\drivers\peripheral\scb/cy_scb_common.h **** __STATIC_INLINE void     Cy_SCB_ClearTxFifo   (CySCB_Type *base);
 136:Generated_Source\PSoC6\pdl\drivers\peripheral\scb/cy_scb_common.h **** 
 137:Generated_Source\PSoC6\pdl\drivers\peripheral\scb/cy_scb_common.h **** __STATIC_INLINE void     Cy_SCB_SetByteMode(CySCB_Type *base, bool byteMode);
 138:Generated_Source\PSoC6\pdl\drivers\peripheral\scb/cy_scb_common.h **** 
 139:Generated_Source\PSoC6\pdl\drivers\peripheral\scb/cy_scb_common.h **** __STATIC_INLINE uint32_t Cy_SCB_GetInterruptCause(CySCB_Type const *base);
 140:Generated_Source\PSoC6\pdl\drivers\peripheral\scb/cy_scb_common.h **** 
 141:Generated_Source\PSoC6\pdl\drivers\peripheral\scb/cy_scb_common.h **** __STATIC_INLINE uint32_t Cy_SCB_GetRxInterruptStatus(CySCB_Type const *base);
 142:Generated_Source\PSoC6\pdl\drivers\peripheral\scb/cy_scb_common.h **** __STATIC_INLINE void     Cy_SCB_SetRxInterruptMask  (CySCB_Type *base, uint32_t interruptMask);
 143:Generated_Source\PSoC6\pdl\drivers\peripheral\scb/cy_scb_common.h **** __STATIC_INLINE uint32_t Cy_SCB_GetRxInterruptMask  (CySCB_Type const *base);
 144:Generated_Source\PSoC6\pdl\drivers\peripheral\scb/cy_scb_common.h **** __STATIC_INLINE uint32_t Cy_SCB_GetRxInterruptStatusMasked(CySCB_Type const *base);
 145:Generated_Source\PSoC6\pdl\drivers\peripheral\scb/cy_scb_common.h **** __STATIC_INLINE void     Cy_SCB_ClearRxInterrupt    (CySCB_Type *base, uint32_t interruptMask);
ARM GAS  C:\Users\salaz\AppData\Local\Temp\ccU0pQaU.s 			page 4


 146:Generated_Source\PSoC6\pdl\drivers\peripheral\scb/cy_scb_common.h **** __STATIC_INLINE void     Cy_SCB_SetRxInterrupt      (CySCB_Type *base, uint32_t interruptMask);
 147:Generated_Source\PSoC6\pdl\drivers\peripheral\scb/cy_scb_common.h **** 
 148:Generated_Source\PSoC6\pdl\drivers\peripheral\scb/cy_scb_common.h **** __STATIC_INLINE uint32_t Cy_SCB_GetTxInterruptStatus(CySCB_Type const *base);
 149:Generated_Source\PSoC6\pdl\drivers\peripheral\scb/cy_scb_common.h **** __STATIC_INLINE void     Cy_SCB_SetTxInterruptMask  (CySCB_Type *base, uint32_t interruptMask);
 150:Generated_Source\PSoC6\pdl\drivers\peripheral\scb/cy_scb_common.h **** __STATIC_INLINE uint32_t Cy_SCB_GetTxInterruptMask  (CySCB_Type const *base);
 151:Generated_Source\PSoC6\pdl\drivers\peripheral\scb/cy_scb_common.h **** __STATIC_INLINE uint32_t Cy_SCB_GetTxInterruptStatusMasked(CySCB_Type const *base);
 152:Generated_Source\PSoC6\pdl\drivers\peripheral\scb/cy_scb_common.h **** __STATIC_INLINE void     Cy_SCB_ClearTxInterrupt    (CySCB_Type *base, uint32_t interruptMask);
 153:Generated_Source\PSoC6\pdl\drivers\peripheral\scb/cy_scb_common.h **** __STATIC_INLINE void     Cy_SCB_SetTxInterrupt      (CySCB_Type *base, uint32_t interruptMask);
 154:Generated_Source\PSoC6\pdl\drivers\peripheral\scb/cy_scb_common.h **** 
 155:Generated_Source\PSoC6\pdl\drivers\peripheral\scb/cy_scb_common.h **** __STATIC_INLINE uint32_t Cy_SCB_GetMasterInterruptStatus(CySCB_Type const *base);
 156:Generated_Source\PSoC6\pdl\drivers\peripheral\scb/cy_scb_common.h **** __STATIC_INLINE void     Cy_SCB_SetMasterInterruptMask  (CySCB_Type *base, uint32_t interruptMask);
 157:Generated_Source\PSoC6\pdl\drivers\peripheral\scb/cy_scb_common.h **** __STATIC_INLINE uint32_t Cy_SCB_GetMasterInterruptMask  (CySCB_Type const *base);
 158:Generated_Source\PSoC6\pdl\drivers\peripheral\scb/cy_scb_common.h **** __STATIC_INLINE uint32_t Cy_SCB_GetMasterInterruptStatusMasked(CySCB_Type const *base);
 159:Generated_Source\PSoC6\pdl\drivers\peripheral\scb/cy_scb_common.h **** __STATIC_INLINE void     Cy_SCB_ClearMasterInterrupt    (CySCB_Type *base, uint32_t interruptMask);
 160:Generated_Source\PSoC6\pdl\drivers\peripheral\scb/cy_scb_common.h **** __STATIC_INLINE void     Cy_SCB_SetMasterInterrupt      (CySCB_Type *base, uint32_t interruptMask);
 161:Generated_Source\PSoC6\pdl\drivers\peripheral\scb/cy_scb_common.h **** 
 162:Generated_Source\PSoC6\pdl\drivers\peripheral\scb/cy_scb_common.h **** __STATIC_INLINE uint32_t Cy_SCB_GetSlaveInterruptStatus(CySCB_Type const *base);
 163:Generated_Source\PSoC6\pdl\drivers\peripheral\scb/cy_scb_common.h **** __STATIC_INLINE void     Cy_SCB_SetSlaveInterruptMask  (CySCB_Type *base, uint32_t interruptMask);
 164:Generated_Source\PSoC6\pdl\drivers\peripheral\scb/cy_scb_common.h **** __STATIC_INLINE uint32_t Cy_SCB_GetSlaveInterruptMask  (CySCB_Type const *base);
 165:Generated_Source\PSoC6\pdl\drivers\peripheral\scb/cy_scb_common.h **** __STATIC_INLINE uint32_t Cy_SCB_GetSlaveInterruptStatusMasked(CySCB_Type const *base);
 166:Generated_Source\PSoC6\pdl\drivers\peripheral\scb/cy_scb_common.h **** __STATIC_INLINE void     Cy_SCB_ClearSlaveInterrupt    (CySCB_Type *base, uint32_t interruptMask);
 167:Generated_Source\PSoC6\pdl\drivers\peripheral\scb/cy_scb_common.h **** __STATIC_INLINE void     Cy_SCB_SetSlaveInterrupt      (CySCB_Type *base, uint32_t interruptMask);
 168:Generated_Source\PSoC6\pdl\drivers\peripheral\scb/cy_scb_common.h **** 
 169:Generated_Source\PSoC6\pdl\drivers\peripheral\scb/cy_scb_common.h **** __STATIC_INLINE uint32_t Cy_SCB_GetI2CInterruptStatus(CySCB_Type const *base);
 170:Generated_Source\PSoC6\pdl\drivers\peripheral\scb/cy_scb_common.h **** __STATIC_INLINE void     Cy_SCB_SetI2CInterruptMask  (CySCB_Type *base, uint32_t interruptMask);
 171:Generated_Source\PSoC6\pdl\drivers\peripheral\scb/cy_scb_common.h **** __STATIC_INLINE uint32_t Cy_SCB_GetI2CInterruptMask  (CySCB_Type const *base);
 172:Generated_Source\PSoC6\pdl\drivers\peripheral\scb/cy_scb_common.h **** __STATIC_INLINE uint32_t Cy_SCB_GetI2CInterruptStatusMasked(CySCB_Type const *base);
 173:Generated_Source\PSoC6\pdl\drivers\peripheral\scb/cy_scb_common.h **** __STATIC_INLINE void     Cy_SCB_ClearI2CInterrupt    (CySCB_Type *base, uint32_t interruptMask);
 174:Generated_Source\PSoC6\pdl\drivers\peripheral\scb/cy_scb_common.h **** 
 175:Generated_Source\PSoC6\pdl\drivers\peripheral\scb/cy_scb_common.h **** __STATIC_INLINE uint32_t Cy_SCB_GetSpiInterruptStatus(CySCB_Type const *base);
 176:Generated_Source\PSoC6\pdl\drivers\peripheral\scb/cy_scb_common.h **** __STATIC_INLINE void     Cy_SCB_SetSpiInterruptMask  (CySCB_Type *base, uint32_t interruptMask);
 177:Generated_Source\PSoC6\pdl\drivers\peripheral\scb/cy_scb_common.h **** __STATIC_INLINE uint32_t Cy_SCB_GetSpiInterruptMask  (CySCB_Type const *base);
 178:Generated_Source\PSoC6\pdl\drivers\peripheral\scb/cy_scb_common.h **** __STATIC_INLINE uint32_t Cy_SCB_GetSpiInterruptStatusMasked(CySCB_Type const *base);
 179:Generated_Source\PSoC6\pdl\drivers\peripheral\scb/cy_scb_common.h **** __STATIC_INLINE void     Cy_SCB_ClearSpiInterrupt    (CySCB_Type *base, uint32_t interruptMask);
 180:Generated_Source\PSoC6\pdl\drivers\peripheral\scb/cy_scb_common.h **** 
 181:Generated_Source\PSoC6\pdl\drivers\peripheral\scb/cy_scb_common.h **** 
 182:Generated_Source\PSoC6\pdl\drivers\peripheral\scb/cy_scb_common.h **** /***************************************
 183:Generated_Source\PSoC6\pdl\drivers\peripheral\scb/cy_scb_common.h **** *     Internal Function Prototypes
 184:Generated_Source\PSoC6\pdl\drivers\peripheral\scb/cy_scb_common.h **** ***************************************/
 185:Generated_Source\PSoC6\pdl\drivers\peripheral\scb/cy_scb_common.h **** 
 186:Generated_Source\PSoC6\pdl\drivers\peripheral\scb/cy_scb_common.h **** /** \cond INTERNAL */
 187:Generated_Source\PSoC6\pdl\drivers\peripheral\scb/cy_scb_common.h **** void     Cy_SCB_ReadArrayNoCheck  (CySCB_Type const *base, void *buffer, uint32_t size);
 188:Generated_Source\PSoC6\pdl\drivers\peripheral\scb/cy_scb_common.h **** uint32_t Cy_SCB_ReadArray         (CySCB_Type const *base, void *buffer, uint32_t size);
 189:Generated_Source\PSoC6\pdl\drivers\peripheral\scb/cy_scb_common.h **** void     Cy_SCB_ReadArrayBlocking (CySCB_Type const *base, void *buffer, uint32_t size);
 190:Generated_Source\PSoC6\pdl\drivers\peripheral\scb/cy_scb_common.h **** uint32_t Cy_SCB_Write             (CySCB_Type *base, uint32_t data);
 191:Generated_Source\PSoC6\pdl\drivers\peripheral\scb/cy_scb_common.h **** void     Cy_SCB_WriteArrayNoCheck (CySCB_Type *base, void *buffer, uint32_t size);
 192:Generated_Source\PSoC6\pdl\drivers\peripheral\scb/cy_scb_common.h **** uint32_t Cy_SCB_WriteArray        (CySCB_Type *base, void *buffer, uint32_t size);
 193:Generated_Source\PSoC6\pdl\drivers\peripheral\scb/cy_scb_common.h **** void     Cy_SCB_WriteArrayBlocking(CySCB_Type *base, void *buffer, uint32_t size);
 194:Generated_Source\PSoC6\pdl\drivers\peripheral\scb/cy_scb_common.h **** void     Cy_SCB_WriteString       (CySCB_Type *base, char_t const string[]);
 195:Generated_Source\PSoC6\pdl\drivers\peripheral\scb/cy_scb_common.h **** void     Cy_SCB_WriteDefaultArrayNoCheck(CySCB_Type *base, uint32_t txData, uint32_t size);
 196:Generated_Source\PSoC6\pdl\drivers\peripheral\scb/cy_scb_common.h **** uint32_t Cy_SCB_WriteDefaultArray (CySCB_Type *base, uint32_t txData, uint32_t size);
 197:Generated_Source\PSoC6\pdl\drivers\peripheral\scb/cy_scb_common.h **** 
 198:Generated_Source\PSoC6\pdl\drivers\peripheral\scb/cy_scb_common.h **** __STATIC_INLINE uint32_t Cy_SCB_GetFifoSize (CySCB_Type const *base);
 199:Generated_Source\PSoC6\pdl\drivers\peripheral\scb/cy_scb_common.h **** __STATIC_INLINE void     Cy_SCB_FwBlockReset(CySCB_Type *base);
 200:Generated_Source\PSoC6\pdl\drivers\peripheral\scb/cy_scb_common.h **** __STATIC_INLINE bool     Cy_SCB_IsRxDataWidthByte(CySCB_Type const *base);
 201:Generated_Source\PSoC6\pdl\drivers\peripheral\scb/cy_scb_common.h **** __STATIC_INLINE bool     Cy_SCB_IsTxDataWidthByte(CySCB_Type const *base);
 202:Generated_Source\PSoC6\pdl\drivers\peripheral\scb/cy_scb_common.h **** __STATIC_INLINE uint32_t Cy_SCB_GetRxFifoLevel   (CySCB_Type const *base);
ARM GAS  C:\Users\salaz\AppData\Local\Temp\ccU0pQaU.s 			page 5


 203:Generated_Source\PSoC6\pdl\drivers\peripheral\scb/cy_scb_common.h **** /** \endcond */
 204:Generated_Source\PSoC6\pdl\drivers\peripheral\scb/cy_scb_common.h **** 
 205:Generated_Source\PSoC6\pdl\drivers\peripheral\scb/cy_scb_common.h **** /** \} group_scb_common_functions */
 206:Generated_Source\PSoC6\pdl\drivers\peripheral\scb/cy_scb_common.h **** 
 207:Generated_Source\PSoC6\pdl\drivers\peripheral\scb/cy_scb_common.h **** /***************************************
 208:Generated_Source\PSoC6\pdl\drivers\peripheral\scb/cy_scb_common.h **** *            API Constants
 209:Generated_Source\PSoC6\pdl\drivers\peripheral\scb/cy_scb_common.h **** ***************************************/
 210:Generated_Source\PSoC6\pdl\drivers\peripheral\scb/cy_scb_common.h **** 
 211:Generated_Source\PSoC6\pdl\drivers\peripheral\scb/cy_scb_common.h **** /**
 212:Generated_Source\PSoC6\pdl\drivers\peripheral\scb/cy_scb_common.h **** * \addtogroup group_scb_common_macros
 213:Generated_Source\PSoC6\pdl\drivers\peripheral\scb/cy_scb_common.h **** * \{
 214:Generated_Source\PSoC6\pdl\drivers\peripheral\scb/cy_scb_common.h **** */
 215:Generated_Source\PSoC6\pdl\drivers\peripheral\scb/cy_scb_common.h **** 
 216:Generated_Source\PSoC6\pdl\drivers\peripheral\scb/cy_scb_common.h **** /** Driver major version */
 217:Generated_Source\PSoC6\pdl\drivers\peripheral\scb/cy_scb_common.h **** #define CY_SCB_DRV_VERSION_MAJOR    (2)
 218:Generated_Source\PSoC6\pdl\drivers\peripheral\scb/cy_scb_common.h **** 
 219:Generated_Source\PSoC6\pdl\drivers\peripheral\scb/cy_scb_common.h **** /** Driver minor version */
 220:Generated_Source\PSoC6\pdl\drivers\peripheral\scb/cy_scb_common.h **** #define CY_SCB_DRV_VERSION_MINOR    (10)
 221:Generated_Source\PSoC6\pdl\drivers\peripheral\scb/cy_scb_common.h **** 
 222:Generated_Source\PSoC6\pdl\drivers\peripheral\scb/cy_scb_common.h **** /** SCB driver identifier */
 223:Generated_Source\PSoC6\pdl\drivers\peripheral\scb/cy_scb_common.h **** #define CY_SCB_ID           CY_PDL_DRV_ID(0x2AU)
 224:Generated_Source\PSoC6\pdl\drivers\peripheral\scb/cy_scb_common.h **** 
 225:Generated_Source\PSoC6\pdl\drivers\peripheral\scb/cy_scb_common.h **** /** Position for SCB driver sub mode */
 226:Generated_Source\PSoC6\pdl\drivers\peripheral\scb/cy_scb_common.h **** #define CY_SCB_SUB_MODE_Pos (13UL)
 227:Generated_Source\PSoC6\pdl\drivers\peripheral\scb/cy_scb_common.h **** 
 228:Generated_Source\PSoC6\pdl\drivers\peripheral\scb/cy_scb_common.h **** /** EZI2C mode identifier */
 229:Generated_Source\PSoC6\pdl\drivers\peripheral\scb/cy_scb_common.h **** #define CY_SCB_EZI2C_ID     (0x0UL << CY_SCB_SUB_MODE_Pos)
 230:Generated_Source\PSoC6\pdl\drivers\peripheral\scb/cy_scb_common.h **** 
 231:Generated_Source\PSoC6\pdl\drivers\peripheral\scb/cy_scb_common.h **** /** EZI2C mode identifier */
 232:Generated_Source\PSoC6\pdl\drivers\peripheral\scb/cy_scb_common.h **** #define CY_SCB_I2C_ID       (0x1UL << CY_SCB_SUB_MODE_Pos)
 233:Generated_Source\PSoC6\pdl\drivers\peripheral\scb/cy_scb_common.h **** 
 234:Generated_Source\PSoC6\pdl\drivers\peripheral\scb/cy_scb_common.h **** /** EZI2C mode identifier */
 235:Generated_Source\PSoC6\pdl\drivers\peripheral\scb/cy_scb_common.h **** #define CY_SCB_SPI_ID       (0x2UL << CY_SCB_SUB_MODE_Pos)
 236:Generated_Source\PSoC6\pdl\drivers\peripheral\scb/cy_scb_common.h **** 
 237:Generated_Source\PSoC6\pdl\drivers\peripheral\scb/cy_scb_common.h **** /** EZI2C mode identifier */
 238:Generated_Source\PSoC6\pdl\drivers\peripheral\scb/cy_scb_common.h **** #define CY_SCB_UART_ID      (0x3UL << CY_SCB_SUB_MODE_Pos)
 239:Generated_Source\PSoC6\pdl\drivers\peripheral\scb/cy_scb_common.h **** 
 240:Generated_Source\PSoC6\pdl\drivers\peripheral\scb/cy_scb_common.h **** /**
 241:Generated_Source\PSoC6\pdl\drivers\peripheral\scb/cy_scb_common.h **** * \defgroup group_scb_common_macros_intr_cause SCB Interrupt Causes
 242:Generated_Source\PSoC6\pdl\drivers\peripheral\scb/cy_scb_common.h **** * \{
 243:Generated_Source\PSoC6\pdl\drivers\peripheral\scb/cy_scb_common.h **** */
 244:Generated_Source\PSoC6\pdl\drivers\peripheral\scb/cy_scb_common.h **** /** Interrupt from Master interrupt sources */
 245:Generated_Source\PSoC6\pdl\drivers\peripheral\scb/cy_scb_common.h **** #define CY_SCB_MASTER_INTR SCB_INTR_CAUSE_M_Msk
 246:Generated_Source\PSoC6\pdl\drivers\peripheral\scb/cy_scb_common.h **** 
 247:Generated_Source\PSoC6\pdl\drivers\peripheral\scb/cy_scb_common.h **** /** Interrupt from Slave interrupt sources  */
 248:Generated_Source\PSoC6\pdl\drivers\peripheral\scb/cy_scb_common.h **** #define CY_SCB_SLAVE_INTR  SCB_INTR_CAUSE_S_Msk
 249:Generated_Source\PSoC6\pdl\drivers\peripheral\scb/cy_scb_common.h **** 
 250:Generated_Source\PSoC6\pdl\drivers\peripheral\scb/cy_scb_common.h **** /** Interrupt from TX interrupt sources */
 251:Generated_Source\PSoC6\pdl\drivers\peripheral\scb/cy_scb_common.h **** #define CY_SCB_TX_INTR     SCB_INTR_CAUSE_TX_Msk
 252:Generated_Source\PSoC6\pdl\drivers\peripheral\scb/cy_scb_common.h **** 
 253:Generated_Source\PSoC6\pdl\drivers\peripheral\scb/cy_scb_common.h **** /** Interrupt from RX interrupt sources */
 254:Generated_Source\PSoC6\pdl\drivers\peripheral\scb/cy_scb_common.h **** #define CY_SCB_RX_INTR     SCB_INTR_CAUSE_RX_Msk
 255:Generated_Source\PSoC6\pdl\drivers\peripheral\scb/cy_scb_common.h **** 
 256:Generated_Source\PSoC6\pdl\drivers\peripheral\scb/cy_scb_common.h **** /** Interrupt from I2C externally clocked interrupt sources */
 257:Generated_Source\PSoC6\pdl\drivers\peripheral\scb/cy_scb_common.h **** #define CY_SCB_I2C_INTR    SCB_INTR_CAUSE_I2C_EC_Msk
 258:Generated_Source\PSoC6\pdl\drivers\peripheral\scb/cy_scb_common.h **** 
 259:Generated_Source\PSoC6\pdl\drivers\peripheral\scb/cy_scb_common.h **** /** Interrupt from SPI externally clocked interrupt sources */
ARM GAS  C:\Users\salaz\AppData\Local\Temp\ccU0pQaU.s 			page 6


 260:Generated_Source\PSoC6\pdl\drivers\peripheral\scb/cy_scb_common.h **** #define CY_SCB_SPI_INTR    SCB_INTR_CAUSE_SPI_EC_Msk
 261:Generated_Source\PSoC6\pdl\drivers\peripheral\scb/cy_scb_common.h **** /** \} group_scb_common_macros_intr_cause */
 262:Generated_Source\PSoC6\pdl\drivers\peripheral\scb/cy_scb_common.h **** 
 263:Generated_Source\PSoC6\pdl\drivers\peripheral\scb/cy_scb_common.h **** /**
 264:Generated_Source\PSoC6\pdl\drivers\peripheral\scb/cy_scb_common.h **** * \defgroup group_scb_common_macros_tx_intr TX Interrupt Statuses
 265:Generated_Source\PSoC6\pdl\drivers\peripheral\scb/cy_scb_common.h **** * \{
 266:Generated_Source\PSoC6\pdl\drivers\peripheral\scb/cy_scb_common.h **** */
 267:Generated_Source\PSoC6\pdl\drivers\peripheral\scb/cy_scb_common.h **** /**
 268:Generated_Source\PSoC6\pdl\drivers\peripheral\scb/cy_scb_common.h **** * The number of data elements in the TX FIFO is less than the value
 269:Generated_Source\PSoC6\pdl\drivers\peripheral\scb/cy_scb_common.h **** * of the TX FIFO level
 270:Generated_Source\PSoC6\pdl\drivers\peripheral\scb/cy_scb_common.h **** */
 271:Generated_Source\PSoC6\pdl\drivers\peripheral\scb/cy_scb_common.h **** #define CY_SCB_TX_INTR_LEVEL           SCB_INTR_TX_TRIGGER_Msk
 272:Generated_Source\PSoC6\pdl\drivers\peripheral\scb/cy_scb_common.h **** 
 273:Generated_Source\PSoC6\pdl\drivers\peripheral\scb/cy_scb_common.h **** /** The TX FIFO is not full */
 274:Generated_Source\PSoC6\pdl\drivers\peripheral\scb/cy_scb_common.h **** #define CY_SCB_TX_INTR_NOT_FULL        SCB_INTR_TX_NOT_FULL_Msk
 275:Generated_Source\PSoC6\pdl\drivers\peripheral\scb/cy_scb_common.h **** 
 276:Generated_Source\PSoC6\pdl\drivers\peripheral\scb/cy_scb_common.h **** /** The TX FIFO is empty */
 277:Generated_Source\PSoC6\pdl\drivers\peripheral\scb/cy_scb_common.h **** #define CY_SCB_TX_INTR_EMPTY           SCB_INTR_TX_EMPTY_Msk
 278:Generated_Source\PSoC6\pdl\drivers\peripheral\scb/cy_scb_common.h **** 
 279:Generated_Source\PSoC6\pdl\drivers\peripheral\scb/cy_scb_common.h **** /** An attempt to write to a full TX FIFO */
 280:Generated_Source\PSoC6\pdl\drivers\peripheral\scb/cy_scb_common.h **** #define CY_SCB_TX_INTR_OVERFLOW        SCB_INTR_TX_OVERFLOW_Msk
 281:Generated_Source\PSoC6\pdl\drivers\peripheral\scb/cy_scb_common.h **** 
 282:Generated_Source\PSoC6\pdl\drivers\peripheral\scb/cy_scb_common.h **** /** An attempt to read from an empty TX FIFO */
 283:Generated_Source\PSoC6\pdl\drivers\peripheral\scb/cy_scb_common.h **** #define CY_SCB_TX_INTR_UNDERFLOW       SCB_INTR_TX_UNDERFLOW_Msk
 284:Generated_Source\PSoC6\pdl\drivers\peripheral\scb/cy_scb_common.h **** 
 285:Generated_Source\PSoC6\pdl\drivers\peripheral\scb/cy_scb_common.h **** /** The UART transfer is complete: all data elements from the TX FIFO are sent
 286:Generated_Source\PSoC6\pdl\drivers\peripheral\scb/cy_scb_common.h **** */
 287:Generated_Source\PSoC6\pdl\drivers\peripheral\scb/cy_scb_common.h **** #define CY_SCB_TX_INTR_UART_DONE       SCB_INTR_TX_UART_DONE_Msk
 288:Generated_Source\PSoC6\pdl\drivers\peripheral\scb/cy_scb_common.h **** 
 289:Generated_Source\PSoC6\pdl\drivers\peripheral\scb/cy_scb_common.h **** /** SmartCard only: UART received a NACK */
 290:Generated_Source\PSoC6\pdl\drivers\peripheral\scb/cy_scb_common.h **** #define CY_SCB_TX_INTR_UART_NACK       SCB_INTR_TX_UART_NACK_Msk
 291:Generated_Source\PSoC6\pdl\drivers\peripheral\scb/cy_scb_common.h **** 
 292:Generated_Source\PSoC6\pdl\drivers\peripheral\scb/cy_scb_common.h **** /**
 293:Generated_Source\PSoC6\pdl\drivers\peripheral\scb/cy_scb_common.h **** * SmartCard only: the value on the TX line of the UART does not match the
 294:Generated_Source\PSoC6\pdl\drivers\peripheral\scb/cy_scb_common.h **** * value on the RX line
 295:Generated_Source\PSoC6\pdl\drivers\peripheral\scb/cy_scb_common.h **** */
 296:Generated_Source\PSoC6\pdl\drivers\peripheral\scb/cy_scb_common.h **** #define CY_SCB_TX_INTR_UART_ARB_LOST   SCB_INTR_TX_UART_ARB_LOST_Msk
 297:Generated_Source\PSoC6\pdl\drivers\peripheral\scb/cy_scb_common.h **** /** \} group_scb_common_macros_tx_intr */
 298:Generated_Source\PSoC6\pdl\drivers\peripheral\scb/cy_scb_common.h **** 
 299:Generated_Source\PSoC6\pdl\drivers\peripheral\scb/cy_scb_common.h **** /**
 300:Generated_Source\PSoC6\pdl\drivers\peripheral\scb/cy_scb_common.h **** * \defgroup group_scb_common_macros_rx_intr RX Interrupt Statuses
 301:Generated_Source\PSoC6\pdl\drivers\peripheral\scb/cy_scb_common.h **** * \{
 302:Generated_Source\PSoC6\pdl\drivers\peripheral\scb/cy_scb_common.h **** */
 303:Generated_Source\PSoC6\pdl\drivers\peripheral\scb/cy_scb_common.h **** /**
 304:Generated_Source\PSoC6\pdl\drivers\peripheral\scb/cy_scb_common.h **** * The number of data elements in the RX FIFO is greater than the value of the
 305:Generated_Source\PSoC6\pdl\drivers\peripheral\scb/cy_scb_common.h **** * RX FIFO level
 306:Generated_Source\PSoC6\pdl\drivers\peripheral\scb/cy_scb_common.h **** */
 307:Generated_Source\PSoC6\pdl\drivers\peripheral\scb/cy_scb_common.h **** #define CY_SCB_RX_INTR_LEVEL             SCB_INTR_RX_TRIGGER_Msk
 308:Generated_Source\PSoC6\pdl\drivers\peripheral\scb/cy_scb_common.h **** 
 309:Generated_Source\PSoC6\pdl\drivers\peripheral\scb/cy_scb_common.h **** /** The RX FIFO is not empty */
 310:Generated_Source\PSoC6\pdl\drivers\peripheral\scb/cy_scb_common.h **** #define CY_SCB_RX_INTR_NOT_EMPTY         SCB_INTR_RX_NOT_EMPTY_Msk
 311:Generated_Source\PSoC6\pdl\drivers\peripheral\scb/cy_scb_common.h **** 
 312:Generated_Source\PSoC6\pdl\drivers\peripheral\scb/cy_scb_common.h **** /** The RX FIFO is full */
 313:Generated_Source\PSoC6\pdl\drivers\peripheral\scb/cy_scb_common.h **** #define CY_SCB_RX_INTR_FULL              SCB_INTR_RX_FULL_Msk
 314:Generated_Source\PSoC6\pdl\drivers\peripheral\scb/cy_scb_common.h **** 
 315:Generated_Source\PSoC6\pdl\drivers\peripheral\scb/cy_scb_common.h **** /** An attempt to write to a full RX FIFO */
 316:Generated_Source\PSoC6\pdl\drivers\peripheral\scb/cy_scb_common.h **** #define CY_SCB_RX_INTR_OVERFLOW          SCB_INTR_RX_OVERFLOW_Msk
ARM GAS  C:\Users\salaz\AppData\Local\Temp\ccU0pQaU.s 			page 7


 317:Generated_Source\PSoC6\pdl\drivers\peripheral\scb/cy_scb_common.h **** 
 318:Generated_Source\PSoC6\pdl\drivers\peripheral\scb/cy_scb_common.h **** /** An attempt to read from an empty RX FIFO */
 319:Generated_Source\PSoC6\pdl\drivers\peripheral\scb/cy_scb_common.h **** #define CY_SCB_RX_INTR_UNDERFLOW         SCB_INTR_RX_UNDERFLOW_Msk
 320:Generated_Source\PSoC6\pdl\drivers\peripheral\scb/cy_scb_common.h **** 
 321:Generated_Source\PSoC6\pdl\drivers\peripheral\scb/cy_scb_common.h **** /** A UART framing error detected */
 322:Generated_Source\PSoC6\pdl\drivers\peripheral\scb/cy_scb_common.h **** #define CY_SCB_RX_INTR_UART_FRAME_ERROR  SCB_INTR_RX_FRAME_ERROR_Msk
 323:Generated_Source\PSoC6\pdl\drivers\peripheral\scb/cy_scb_common.h **** 
 324:Generated_Source\PSoC6\pdl\drivers\peripheral\scb/cy_scb_common.h **** /** A UART parity error detected  */
 325:Generated_Source\PSoC6\pdl\drivers\peripheral\scb/cy_scb_common.h **** #define CY_SCB_RX_INTR_UART_PARITY_ERROR SCB_INTR_RX_PARITY_ERROR_Msk
 326:Generated_Source\PSoC6\pdl\drivers\peripheral\scb/cy_scb_common.h **** 
 327:Generated_Source\PSoC6\pdl\drivers\peripheral\scb/cy_scb_common.h **** /** A UART break detected */
 328:Generated_Source\PSoC6\pdl\drivers\peripheral\scb/cy_scb_common.h **** #define CY_SCB_RX_INTR_UART_BREAK_DETECT SCB_INTR_RX_BREAK_DETECT_Msk
 329:Generated_Source\PSoC6\pdl\drivers\peripheral\scb/cy_scb_common.h **** /** \} group_scb_common_macros_rx_intr */
 330:Generated_Source\PSoC6\pdl\drivers\peripheral\scb/cy_scb_common.h **** 
 331:Generated_Source\PSoC6\pdl\drivers\peripheral\scb/cy_scb_common.h **** /**
 332:Generated_Source\PSoC6\pdl\drivers\peripheral\scb/cy_scb_common.h **** * \defgroup group_scb_common_macros_slave_intr Slave Interrupt Statuses
 333:Generated_Source\PSoC6\pdl\drivers\peripheral\scb/cy_scb_common.h **** * \{
 334:Generated_Source\PSoC6\pdl\drivers\peripheral\scb/cy_scb_common.h **** */
 335:Generated_Source\PSoC6\pdl\drivers\peripheral\scb/cy_scb_common.h **** /**
 336:Generated_Source\PSoC6\pdl\drivers\peripheral\scb/cy_scb_common.h **** * I2C slave lost arbitration: the value driven on the SDA line is not the same
 337:Generated_Source\PSoC6\pdl\drivers\peripheral\scb/cy_scb_common.h **** * as the value observed on the SDA line
 338:Generated_Source\PSoC6\pdl\drivers\peripheral\scb/cy_scb_common.h **** */
 339:Generated_Source\PSoC6\pdl\drivers\peripheral\scb/cy_scb_common.h **** #define CY_SCB_SLAVE_INTR_I2C_ARB_LOST      SCB_INTR_S_I2C_ARB_LOST_Msk
 340:Generated_Source\PSoC6\pdl\drivers\peripheral\scb/cy_scb_common.h **** 
 341:Generated_Source\PSoC6\pdl\drivers\peripheral\scb/cy_scb_common.h **** /** The I2C slave received a NAK */
 342:Generated_Source\PSoC6\pdl\drivers\peripheral\scb/cy_scb_common.h **** #define CY_SCB_SLAVE_INTR_I2C_NACK          SCB_INTR_S_I2C_NACK_Msk
 343:Generated_Source\PSoC6\pdl\drivers\peripheral\scb/cy_scb_common.h **** 
 344:Generated_Source\PSoC6\pdl\drivers\peripheral\scb/cy_scb_common.h **** /** The I2C slave received  an ACK */
 345:Generated_Source\PSoC6\pdl\drivers\peripheral\scb/cy_scb_common.h **** #define CY_SCB_SLAVE_INTR_I2C_ACK           SCB_INTR_S_I2C_ACK_Msk
 346:Generated_Source\PSoC6\pdl\drivers\peripheral\scb/cy_scb_common.h **** 
 347:Generated_Source\PSoC6\pdl\drivers\peripheral\scb/cy_scb_common.h **** /**
 348:Generated_Source\PSoC6\pdl\drivers\peripheral\scb/cy_scb_common.h **** * A Stop or Repeated Start event for a write transfer intended for this slave
 349:Generated_Source\PSoC6\pdl\drivers\peripheral\scb/cy_scb_common.h **** * was detected.
 350:Generated_Source\PSoC6\pdl\drivers\peripheral\scb/cy_scb_common.h **** */
 351:Generated_Source\PSoC6\pdl\drivers\peripheral\scb/cy_scb_common.h **** #define CY_SCB_SLAVE_INTR_I2C_WRITE_STOP    SCB_INTR_S_I2C_WRITE_STOP_Msk
 352:Generated_Source\PSoC6\pdl\drivers\peripheral\scb/cy_scb_common.h **** 
 353:Generated_Source\PSoC6\pdl\drivers\peripheral\scb/cy_scb_common.h **** /** A Stop or Repeated Start event intended for this slave was detected */
 354:Generated_Source\PSoC6\pdl\drivers\peripheral\scb/cy_scb_common.h **** #define CY_SCB_SLAVE_INTR_I2C_STOP          SCB_INTR_S_I2C_STOP_Msk
 355:Generated_Source\PSoC6\pdl\drivers\peripheral\scb/cy_scb_common.h **** 
 356:Generated_Source\PSoC6\pdl\drivers\peripheral\scb/cy_scb_common.h **** /** The I2C slave received a Start condition */
 357:Generated_Source\PSoC6\pdl\drivers\peripheral\scb/cy_scb_common.h **** #define CY_SCB_SLAVE_INTR_I2C_START         SCB_INTR_S_I2C_START_Msk
 358:Generated_Source\PSoC6\pdl\drivers\peripheral\scb/cy_scb_common.h **** 
 359:Generated_Source\PSoC6\pdl\drivers\peripheral\scb/cy_scb_common.h **** /** The I2C slave received the matching address */
 360:Generated_Source\PSoC6\pdl\drivers\peripheral\scb/cy_scb_common.h **** #define CY_SCB_SLAVE_INTR_I2C_ADDR_MATCH    SCB_INTR_S_I2C_ADDR_MATCH_Msk
 361:Generated_Source\PSoC6\pdl\drivers\peripheral\scb/cy_scb_common.h **** 
 362:Generated_Source\PSoC6\pdl\drivers\peripheral\scb/cy_scb_common.h **** /** The I2C Slave received the general call address */
 363:Generated_Source\PSoC6\pdl\drivers\peripheral\scb/cy_scb_common.h **** #define CY_SCB_SLAVE_INTR_I2C_GENERAL_ADDR  SCB_INTR_S_I2C_GENERAL_Msk
 364:Generated_Source\PSoC6\pdl\drivers\peripheral\scb/cy_scb_common.h **** 
 365:Generated_Source\PSoC6\pdl\drivers\peripheral\scb/cy_scb_common.h **** /** The I2C slave bus error (detection of unexpected Start or Stop condition) */
 366:Generated_Source\PSoC6\pdl\drivers\peripheral\scb/cy_scb_common.h **** #define CY_SCB_SLAVE_INTR_I2C_BUS_ERROR     SCB_INTR_S_I2C_BUS_ERROR_Msk
 367:Generated_Source\PSoC6\pdl\drivers\peripheral\scb/cy_scb_common.h **** 
 368:Generated_Source\PSoC6\pdl\drivers\peripheral\scb/cy_scb_common.h **** /**
 369:Generated_Source\PSoC6\pdl\drivers\peripheral\scb/cy_scb_common.h **** * The SPI slave select line is deselected at an expected time during an
 370:Generated_Source\PSoC6\pdl\drivers\peripheral\scb/cy_scb_common.h **** * SPI transfer.
 371:Generated_Source\PSoC6\pdl\drivers\peripheral\scb/cy_scb_common.h **** */
 372:Generated_Source\PSoC6\pdl\drivers\peripheral\scb/cy_scb_common.h **** #define CY_SCB_SLAVE_INTR_SPI_BUS_ERROR     SCB_INTR_S_SPI_BUS_ERROR_Msk
 373:Generated_Source\PSoC6\pdl\drivers\peripheral\scb/cy_scb_common.h **** /** \} group_scb_common_macros_slave_intr */
ARM GAS  C:\Users\salaz\AppData\Local\Temp\ccU0pQaU.s 			page 8


 374:Generated_Source\PSoC6\pdl\drivers\peripheral\scb/cy_scb_common.h **** 
 375:Generated_Source\PSoC6\pdl\drivers\peripheral\scb/cy_scb_common.h **** /**
 376:Generated_Source\PSoC6\pdl\drivers\peripheral\scb/cy_scb_common.h **** * \defgroup group_scb_common_macros_master_intr Master Interrupt Statuses
 377:Generated_Source\PSoC6\pdl\drivers\peripheral\scb/cy_scb_common.h **** * \{
 378:Generated_Source\PSoC6\pdl\drivers\peripheral\scb/cy_scb_common.h **** */
 379:Generated_Source\PSoC6\pdl\drivers\peripheral\scb/cy_scb_common.h **** /** The I2C master lost arbitration */
 380:Generated_Source\PSoC6\pdl\drivers\peripheral\scb/cy_scb_common.h **** #define CY_SCB_MASTER_INTR_I2C_ARB_LOST    SCB_INTR_M_I2C_ARB_LOST_Msk
 381:Generated_Source\PSoC6\pdl\drivers\peripheral\scb/cy_scb_common.h **** 
 382:Generated_Source\PSoC6\pdl\drivers\peripheral\scb/cy_scb_common.h **** /** The I2C master received a NACK */
 383:Generated_Source\PSoC6\pdl\drivers\peripheral\scb/cy_scb_common.h **** #define CY_SCB_MASTER_INTR_I2C_NACK        SCB_INTR_M_I2C_NACK_Msk
 384:Generated_Source\PSoC6\pdl\drivers\peripheral\scb/cy_scb_common.h **** 
 385:Generated_Source\PSoC6\pdl\drivers\peripheral\scb/cy_scb_common.h **** /** The I2C master received an ACK */
 386:Generated_Source\PSoC6\pdl\drivers\peripheral\scb/cy_scb_common.h **** #define CY_SCB_MASTER_INTR_I2C_ACK         SCB_INTR_M_I2C_ACK_Msk
 387:Generated_Source\PSoC6\pdl\drivers\peripheral\scb/cy_scb_common.h **** 
 388:Generated_Source\PSoC6\pdl\drivers\peripheral\scb/cy_scb_common.h **** /** The I2C master generated a Stop */
 389:Generated_Source\PSoC6\pdl\drivers\peripheral\scb/cy_scb_common.h **** #define CY_SCB_MASTER_INTR_I2C_STOP        SCB_INTR_M_I2C_STOP_Msk
 390:Generated_Source\PSoC6\pdl\drivers\peripheral\scb/cy_scb_common.h **** 
 391:Generated_Source\PSoC6\pdl\drivers\peripheral\scb/cy_scb_common.h **** /** The I2C master bus error (detection of unexpected START or STOP condition)
 392:Generated_Source\PSoC6\pdl\drivers\peripheral\scb/cy_scb_common.h **** */
 393:Generated_Source\PSoC6\pdl\drivers\peripheral\scb/cy_scb_common.h **** #define CY_SCB_MASTER_INTR_I2C_BUS_ERROR   SCB_INTR_M_I2C_BUS_ERROR_Msk
 394:Generated_Source\PSoC6\pdl\drivers\peripheral\scb/cy_scb_common.h **** 
 395:Generated_Source\PSoC6\pdl\drivers\peripheral\scb/cy_scb_common.h **** /**
 396:Generated_Source\PSoC6\pdl\drivers\peripheral\scb/cy_scb_common.h **** * The SPI master transfer is complete: all data elements transferred from the
 397:Generated_Source\PSoC6\pdl\drivers\peripheral\scb/cy_scb_common.h **** * TX FIFO and TX shift register.
 398:Generated_Source\PSoC6\pdl\drivers\peripheral\scb/cy_scb_common.h **** */
 399:Generated_Source\PSoC6\pdl\drivers\peripheral\scb/cy_scb_common.h **** #define CY_SCB_MASTER_INTR_SPI_DONE        SCB_INTR_M_SPI_DONE_Msk
 400:Generated_Source\PSoC6\pdl\drivers\peripheral\scb/cy_scb_common.h **** /** \} group_scb_common_macros_master_intr */
 401:Generated_Source\PSoC6\pdl\drivers\peripheral\scb/cy_scb_common.h **** 
 402:Generated_Source\PSoC6\pdl\drivers\peripheral\scb/cy_scb_common.h **** /**
 403:Generated_Source\PSoC6\pdl\drivers\peripheral\scb/cy_scb_common.h **** * \defgroup group_scb_common_macros_i2c_intr I2C Interrupt Statuses
 404:Generated_Source\PSoC6\pdl\drivers\peripheral\scb/cy_scb_common.h **** * \{
 405:Generated_Source\PSoC6\pdl\drivers\peripheral\scb/cy_scb_common.h **** */
 406:Generated_Source\PSoC6\pdl\drivers\peripheral\scb/cy_scb_common.h **** /**
 407:Generated_Source\PSoC6\pdl\drivers\peripheral\scb/cy_scb_common.h **** * Wake up request: the I2C slave received the matching address.
 408:Generated_Source\PSoC6\pdl\drivers\peripheral\scb/cy_scb_common.h **** * Note that this interrupt source triggers in active mode.
 409:Generated_Source\PSoC6\pdl\drivers\peripheral\scb/cy_scb_common.h **** */
 410:Generated_Source\PSoC6\pdl\drivers\peripheral\scb/cy_scb_common.h **** #define CY_SCB_I2C_INTR_WAKEUP     SCB_INTR_I2C_EC_WAKE_UP_Msk
 411:Generated_Source\PSoC6\pdl\drivers\peripheral\scb/cy_scb_common.h **** /** \} group_scb_common_macros_i2c_intr */
 412:Generated_Source\PSoC6\pdl\drivers\peripheral\scb/cy_scb_common.h **** 
 413:Generated_Source\PSoC6\pdl\drivers\peripheral\scb/cy_scb_common.h **** /**
 414:Generated_Source\PSoC6\pdl\drivers\peripheral\scb/cy_scb_common.h **** * \defgroup group_scb_common_macros_SpiIntrStatuses SPI Interrupt Statuses
 415:Generated_Source\PSoC6\pdl\drivers\peripheral\scb/cy_scb_common.h **** * \{
 416:Generated_Source\PSoC6\pdl\drivers\peripheral\scb/cy_scb_common.h **** */
 417:Generated_Source\PSoC6\pdl\drivers\peripheral\scb/cy_scb_common.h **** /**
 418:Generated_Source\PSoC6\pdl\drivers\peripheral\scb/cy_scb_common.h **** * Wake up request: the SPI slave detects an active edge of the slave select
 419:Generated_Source\PSoC6\pdl\drivers\peripheral\scb/cy_scb_common.h **** * signal. Note that this interrupt source triggers in active mode.
 420:Generated_Source\PSoC6\pdl\drivers\peripheral\scb/cy_scb_common.h **** */
 421:Generated_Source\PSoC6\pdl\drivers\peripheral\scb/cy_scb_common.h **** #define CY_SCB_SPI_INTR_WAKEUP     SCB_INTR_SPI_EC_WAKE_UP_Msk
 422:Generated_Source\PSoC6\pdl\drivers\peripheral\scb/cy_scb_common.h **** /** \} group_scb_common_macros_SpiIntrStatuses */
 423:Generated_Source\PSoC6\pdl\drivers\peripheral\scb/cy_scb_common.h **** 
 424:Generated_Source\PSoC6\pdl\drivers\peripheral\scb/cy_scb_common.h **** 
 425:Generated_Source\PSoC6\pdl\drivers\peripheral\scb/cy_scb_common.h **** /***************************************
 426:Generated_Source\PSoC6\pdl\drivers\peripheral\scb/cy_scb_common.h **** *         Internal Constants
 427:Generated_Source\PSoC6\pdl\drivers\peripheral\scb/cy_scb_common.h **** ***************************************/
 428:Generated_Source\PSoC6\pdl\drivers\peripheral\scb/cy_scb_common.h **** 
 429:Generated_Source\PSoC6\pdl\drivers\peripheral\scb/cy_scb_common.h **** /** \cond INTERNAL */
 430:Generated_Source\PSoC6\pdl\drivers\peripheral\scb/cy_scb_common.h **** 
ARM GAS  C:\Users\salaz\AppData\Local\Temp\ccU0pQaU.s 			page 9


 431:Generated_Source\PSoC6\pdl\drivers\peripheral\scb/cy_scb_common.h **** /* Default registers values */
 432:Generated_Source\PSoC6\pdl\drivers\peripheral\scb/cy_scb_common.h **** #define CY_SCB_CTRL_DEF_VAL         (_VAL2FLD(SCB_CTRL_OVS, 15UL) | \
 433:Generated_Source\PSoC6\pdl\drivers\peripheral\scb/cy_scb_common.h ****                                      _VAL2FLD(SCB_CTRL_MODE, 3UL))
 434:Generated_Source\PSoC6\pdl\drivers\peripheral\scb/cy_scb_common.h **** 
 435:Generated_Source\PSoC6\pdl\drivers\peripheral\scb/cy_scb_common.h **** #define CY_SCB_I2C_CTRL_DEF_VAL     (_VAL2FLD(SCB_I2C_CTRL_HIGH_PHASE_OVS, 8UL)        | \
 436:Generated_Source\PSoC6\pdl\drivers\peripheral\scb/cy_scb_common.h ****                                      _VAL2FLD(SCB_I2C_CTRL_HIGH_PHASE_OVS, 8UL)        | \
 437:Generated_Source\PSoC6\pdl\drivers\peripheral\scb/cy_scb_common.h ****                                      _VAL2FLD(SCB_I2C_CTRL_M_READY_DATA_ACK, 1UL)      | \
 438:Generated_Source\PSoC6\pdl\drivers\peripheral\scb/cy_scb_common.h ****                                      _VAL2FLD(SCB_I2C_CTRL_M_NOT_READY_DATA_NACK, 1UL) | \
 439:Generated_Source\PSoC6\pdl\drivers\peripheral\scb/cy_scb_common.h ****                                      _VAL2FLD(SCB_I2C_CTRL_S_GENERAL_IGNORE, 1UL)      | \
 440:Generated_Source\PSoC6\pdl\drivers\peripheral\scb/cy_scb_common.h ****                                      _VAL2FLD(SCB_I2C_CTRL_S_READY_ADDR_ACK, 1UL)      | \
 441:Generated_Source\PSoC6\pdl\drivers\peripheral\scb/cy_scb_common.h ****                                      _VAL2FLD(SCB_I2C_CTRL_S_READY_DATA_ACK, 1UL)      | \
 442:Generated_Source\PSoC6\pdl\drivers\peripheral\scb/cy_scb_common.h ****                                      _VAL2FLD(SCB_I2C_CTRL_S_NOT_READY_ADDR_NACK, 1UL) | \
 443:Generated_Source\PSoC6\pdl\drivers\peripheral\scb/cy_scb_common.h ****                                      _VAL2FLD(SCB_I2C_CTRL_S_NOT_READY_DATA_NACK, 1UL))
 444:Generated_Source\PSoC6\pdl\drivers\peripheral\scb/cy_scb_common.h **** 
 445:Generated_Source\PSoC6\pdl\drivers\peripheral\scb/cy_scb_common.h **** #define CY_SCB_I2C_CFG_DEF_VAL      (_VAL2FLD(SCB_I2C_CFG_SDA_IN_FILT_TRIM, 3UL)   | \
 446:Generated_Source\PSoC6\pdl\drivers\peripheral\scb/cy_scb_common.h ****                                      _VAL2FLD(SCB_I2C_CFG_SDA_IN_FILT_SEL, 1UL)    | \
 447:Generated_Source\PSoC6\pdl\drivers\peripheral\scb/cy_scb_common.h ****                                      _VAL2FLD(SCB_I2C_CFG_SCL_IN_FILT_SEL, 1UL)    | \
 448:Generated_Source\PSoC6\pdl\drivers\peripheral\scb/cy_scb_common.h ****                                      _VAL2FLD(SCB_I2C_CFG_SDA_OUT_FILT0_TRIM, 2UL) | \
 449:Generated_Source\PSoC6\pdl\drivers\peripheral\scb/cy_scb_common.h ****                                      _VAL2FLD(SCB_I2C_CFG_SDA_OUT_FILT1_TRIM, 2UL) | \
 450:Generated_Source\PSoC6\pdl\drivers\peripheral\scb/cy_scb_common.h ****                                      _VAL2FLD(SCB_I2C_CFG_SDA_OUT_FILT2_TRIM, 2UL))
 451:Generated_Source\PSoC6\pdl\drivers\peripheral\scb/cy_scb_common.h **** 
 452:Generated_Source\PSoC6\pdl\drivers\peripheral\scb/cy_scb_common.h **** #define CY_SCB_SPI_CTRL_DEF_VAL     _VAL2FLD(SCB_SPI_CTRL_MODE, 3UL)
 453:Generated_Source\PSoC6\pdl\drivers\peripheral\scb/cy_scb_common.h **** #define CY_SCB_UART_CTRL_DEF_VAL    _VAL2FLD(SCB_UART_CTRL_MODE, 3UL)
 454:Generated_Source\PSoC6\pdl\drivers\peripheral\scb/cy_scb_common.h **** 
 455:Generated_Source\PSoC6\pdl\drivers\peripheral\scb/cy_scb_common.h **** #define CY_SCB_UART_RX_CTRL_DEF_VAL (_VAL2FLD(SCB_UART_RX_CTRL_STOP_BITS, 2UL) | \
 456:Generated_Source\PSoC6\pdl\drivers\peripheral\scb/cy_scb_common.h ****                                      _VAL2FLD(SCB_UART_RX_CTRL_BREAK_WIDTH, 10UL))
 457:Generated_Source\PSoC6\pdl\drivers\peripheral\scb/cy_scb_common.h **** 
 458:Generated_Source\PSoC6\pdl\drivers\peripheral\scb/cy_scb_common.h **** #define CY_SCB_UART_TX_CTRL_DEF_VAL _VAL2FLD(SCB_UART_TX_CTRL_STOP_BITS, 2UL)
 459:Generated_Source\PSoC6\pdl\drivers\peripheral\scb/cy_scb_common.h **** 
 460:Generated_Source\PSoC6\pdl\drivers\peripheral\scb/cy_scb_common.h **** #define CY_SCB_RX_CTRL_DEF_VAL      (_VAL2FLD(SCB_RX_CTRL_DATA_WIDTH, 7UL) | \
 461:Generated_Source\PSoC6\pdl\drivers\peripheral\scb/cy_scb_common.h ****                                      _VAL2FLD(SCB_RX_CTRL_MSB_FIRST,  1UL))
 462:Generated_Source\PSoC6\pdl\drivers\peripheral\scb/cy_scb_common.h **** 
 463:Generated_Source\PSoC6\pdl\drivers\peripheral\scb/cy_scb_common.h **** #define CY_SCB_TX_CTRL_DEF_VAL      (_VAL2FLD(SCB_TX_CTRL_DATA_WIDTH, 7UL) | \
 464:Generated_Source\PSoC6\pdl\drivers\peripheral\scb/cy_scb_common.h ****                                      _VAL2FLD(SCB_TX_CTRL_MSB_FIRST,  1UL))
 465:Generated_Source\PSoC6\pdl\drivers\peripheral\scb/cy_scb_common.h **** 
 466:Generated_Source\PSoC6\pdl\drivers\peripheral\scb/cy_scb_common.h **** /* SCB CTRL modes */
 467:Generated_Source\PSoC6\pdl\drivers\peripheral\scb/cy_scb_common.h **** #define CY_SCB_CTRL_MODE_I2C   (0UL)
 468:Generated_Source\PSoC6\pdl\drivers\peripheral\scb/cy_scb_common.h **** #define CY_SCB_CTRL_MODE_SPI   (1UL)
 469:Generated_Source\PSoC6\pdl\drivers\peripheral\scb/cy_scb_common.h **** #define CY_SCB_CTRL_MODE_UART  (2UL)
 470:Generated_Source\PSoC6\pdl\drivers\peripheral\scb/cy_scb_common.h **** 
 471:Generated_Source\PSoC6\pdl\drivers\peripheral\scb/cy_scb_common.h **** /* The position and mask to set the I2C mode */
 472:Generated_Source\PSoC6\pdl\drivers\peripheral\scb/cy_scb_common.h **** #define CY_SCB_I2C_CTRL_MODE_Pos    SCB_I2C_CTRL_SLAVE_MODE_Pos
 473:Generated_Source\PSoC6\pdl\drivers\peripheral\scb/cy_scb_common.h **** #define CY_SCB_I2C_CTRL_MODE_Msk    (SCB_I2C_CTRL_SLAVE_MODE_Msk | \
 474:Generated_Source\PSoC6\pdl\drivers\peripheral\scb/cy_scb_common.h ****                                      SCB_I2C_CTRL_MASTER_MODE_Msk)
 475:Generated_Source\PSoC6\pdl\drivers\peripheral\scb/cy_scb_common.h **** 
 476:Generated_Source\PSoC6\pdl\drivers\peripheral\scb/cy_scb_common.h **** /* Cypress ID #282226:
 477:Generated_Source\PSoC6\pdl\drivers\peripheral\scb/cy_scb_common.h **** * SCB_I2C_CFG_SDA_IN_FILT_TRIM[1]: SCB clock enable (1), clock disable (0).
 478:Generated_Source\PSoC6\pdl\drivers\peripheral\scb/cy_scb_common.h **** */
 479:Generated_Source\PSoC6\pdl\drivers\peripheral\scb/cy_scb_common.h **** #define CY_SCB_I2C_CFG_CLK_ENABLE_Msk  (_VAL2FLD(SCB_I2C_CFG_SDA_IN_FILT_TRIM, 2UL))
 480:Generated_Source\PSoC6\pdl\drivers\peripheral\scb/cy_scb_common.h **** 
 481:Generated_Source\PSoC6\pdl\drivers\peripheral\scb/cy_scb_common.h **** /* I2C has fixed data width */
 482:Generated_Source\PSoC6\pdl\drivers\peripheral\scb/cy_scb_common.h **** #define CY_SCB_I2C_DATA_WIDTH   (7UL)
 483:Generated_Source\PSoC6\pdl\drivers\peripheral\scb/cy_scb_common.h **** 
 484:Generated_Source\PSoC6\pdl\drivers\peripheral\scb/cy_scb_common.h **** /* RX and TX control register values */
 485:Generated_Source\PSoC6\pdl\drivers\peripheral\scb/cy_scb_common.h **** #define CY_SCB_I2C_RX_CTRL      (_VAL2FLD(SCB_RX_CTRL_DATA_WIDTH, CY_SCB_I2C_DATA_WIDTH) | \
 486:Generated_Source\PSoC6\pdl\drivers\peripheral\scb/cy_scb_common.h ****                                  SCB_RX_CTRL_MSB_FIRST_Msk)
 487:Generated_Source\PSoC6\pdl\drivers\peripheral\scb/cy_scb_common.h **** #define CY_SCB_I2C_TX_CTRL      (_VAL2FLD(SCB_TX_CTRL_DATA_WIDTH, CY_SCB_I2C_DATA_WIDTH) | \
ARM GAS  C:\Users\salaz\AppData\Local\Temp\ccU0pQaU.s 			page 10


 488:Generated_Source\PSoC6\pdl\drivers\peripheral\scb/cy_scb_common.h ****                                  SCB_TX_CTRL_MSB_FIRST_Msk | SCB_TX_CTRL_OPEN_DRAIN_Msk)
 489:Generated_Source\PSoC6\pdl\drivers\peripheral\scb/cy_scb_common.h **** 
 490:Generated_Source\PSoC6\pdl\drivers\peripheral\scb/cy_scb_common.h **** /* The position and mask to make an address byte */
 491:Generated_Source\PSoC6\pdl\drivers\peripheral\scb/cy_scb_common.h **** #define CY_SCB_I2C_ADDRESS_Pos  (1UL)
 492:Generated_Source\PSoC6\pdl\drivers\peripheral\scb/cy_scb_common.h **** #define CY_SCB_I2C_ADDRESS_Msk  (0xFEUL)
 493:Generated_Source\PSoC6\pdl\drivers\peripheral\scb/cy_scb_common.h **** 
 494:Generated_Source\PSoC6\pdl\drivers\peripheral\scb/cy_scb_common.h **** /* SPI slave select polarity */
 495:Generated_Source\PSoC6\pdl\drivers\peripheral\scb/cy_scb_common.h **** #define CY_SCB_SPI_CTRL_SSEL_POLARITY_Pos   SCB_SPI_CTRL_SSEL_POLARITY0_Pos
 496:Generated_Source\PSoC6\pdl\drivers\peripheral\scb/cy_scb_common.h **** #define CY_SCB_SPI_CTRL_SSEL_POLARITY_Msk   (SCB_SPI_CTRL_SSEL_POLARITY0_Msk | \
 497:Generated_Source\PSoC6\pdl\drivers\peripheral\scb/cy_scb_common.h ****                                              SCB_SPI_CTRL_SSEL_POLARITY1_Msk | \
 498:Generated_Source\PSoC6\pdl\drivers\peripheral\scb/cy_scb_common.h ****                                              SCB_SPI_CTRL_SSEL_POLARITY2_Msk | \
 499:Generated_Source\PSoC6\pdl\drivers\peripheral\scb/cy_scb_common.h ****                                              SCB_SPI_CTRL_SSEL_POLARITY3_Msk)
 500:Generated_Source\PSoC6\pdl\drivers\peripheral\scb/cy_scb_common.h **** 
 501:Generated_Source\PSoC6\pdl\drivers\peripheral\scb/cy_scb_common.h **** /* SPI clock modes: CPHA and CPOL */
 502:Generated_Source\PSoC6\pdl\drivers\peripheral\scb/cy_scb_common.h **** #define CY_SCB_SPI_CTRL_CLK_MODE_Pos    SCB_SPI_CTRL_CPHA_Pos
 503:Generated_Source\PSoC6\pdl\drivers\peripheral\scb/cy_scb_common.h **** #define CY_SCB_SPI_CTRL_CLK_MODE_Msk    (SCB_SPI_CTRL_CPHA_Msk | SCB_SPI_CTRL_CPOL_Msk)
 504:Generated_Source\PSoC6\pdl\drivers\peripheral\scb/cy_scb_common.h **** 
 505:Generated_Source\PSoC6\pdl\drivers\peripheral\scb/cy_scb_common.h **** /* UART parity and parity enable combination */
 506:Generated_Source\PSoC6\pdl\drivers\peripheral\scb/cy_scb_common.h **** #define CY_SCB_UART_RX_CTRL_SET_PARITY_Msk      (SCB_UART_RX_CTRL_PARITY_ENABLED_Msk | \
 507:Generated_Source\PSoC6\pdl\drivers\peripheral\scb/cy_scb_common.h ****                                                  SCB_UART_RX_CTRL_PARITY_Msk)
 508:Generated_Source\PSoC6\pdl\drivers\peripheral\scb/cy_scb_common.h **** #define CY_SCB_UART_RX_CTRL_SET_PARITY_Pos      SCB_UART_RX_CTRL_PARITY_Pos
 509:Generated_Source\PSoC6\pdl\drivers\peripheral\scb/cy_scb_common.h **** 
 510:Generated_Source\PSoC6\pdl\drivers\peripheral\scb/cy_scb_common.h **** #define CY_SCB_UART_TX_CTRL_SET_PARITY_Msk      (SCB_UART_TX_CTRL_PARITY_ENABLED_Msk | \
 511:Generated_Source\PSoC6\pdl\drivers\peripheral\scb/cy_scb_common.h ****                                                  SCB_UART_TX_CTRL_PARITY_Msk)
 512:Generated_Source\PSoC6\pdl\drivers\peripheral\scb/cy_scb_common.h **** #define CY_SCB_UART_TX_CTRL_SET_PARITY_Pos      SCB_UART_TX_CTRL_PARITY_Pos
 513:Generated_Source\PSoC6\pdl\drivers\peripheral\scb/cy_scb_common.h **** 
 514:Generated_Source\PSoC6\pdl\drivers\peripheral\scb/cy_scb_common.h **** /* Max number of bits for byte mode */
 515:Generated_Source\PSoC6\pdl\drivers\peripheral\scb/cy_scb_common.h **** #define CY_SCB_BYTE_WIDTH   (8UL)
 516:Generated_Source\PSoC6\pdl\drivers\peripheral\scb/cy_scb_common.h **** 
 517:Generated_Source\PSoC6\pdl\drivers\peripheral\scb/cy_scb_common.h **** /* Single unit to wait */
 518:Generated_Source\PSoC6\pdl\drivers\peripheral\scb/cy_scb_common.h **** #define CY_SCB_WAIT_1_UNIT  (1U)
 519:Generated_Source\PSoC6\pdl\drivers\peripheral\scb/cy_scb_common.h **** 
 520:Generated_Source\PSoC6\pdl\drivers\peripheral\scb/cy_scb_common.h **** /* Clear interrupt sources */
 521:Generated_Source\PSoC6\pdl\drivers\peripheral\scb/cy_scb_common.h **** #define CY_SCB_CLEAR_ALL_INTR_SRC   (0UL)
 522:Generated_Source\PSoC6\pdl\drivers\peripheral\scb/cy_scb_common.h **** 
 523:Generated_Source\PSoC6\pdl\drivers\peripheral\scb/cy_scb_common.h **** /* Hardware FIFO size */
 524:Generated_Source\PSoC6\pdl\drivers\peripheral\scb/cy_scb_common.h **** #define CY_SCB_FIFO_SIZE(base)    (SCB_GET_EZ_DATA_NR(base) / 2UL)
 525:Generated_Source\PSoC6\pdl\drivers\peripheral\scb/cy_scb_common.h **** 
 526:Generated_Source\PSoC6\pdl\drivers\peripheral\scb/cy_scb_common.h **** /* Provides a list of allowed sources */
 527:Generated_Source\PSoC6\pdl\drivers\peripheral\scb/cy_scb_common.h **** #define CY_SCB_TX_INTR_MASK     (CY_SCB_TX_INTR_LEVEL     | CY_SCB_TX_INTR_NOT_FULL  | CY_SCB_TX_IN
 528:Generated_Source\PSoC6\pdl\drivers\peripheral\scb/cy_scb_common.h ****                                  CY_SCB_TX_INTR_OVERFLOW  | CY_SCB_TX_INTR_UNDERFLOW | CY_SCB_TX_IN
 529:Generated_Source\PSoC6\pdl\drivers\peripheral\scb/cy_scb_common.h ****                                  CY_SCB_TX_INTR_UART_NACK | CY_SCB_TX_INTR_UART_ARB_LOST)
 530:Generated_Source\PSoC6\pdl\drivers\peripheral\scb/cy_scb_common.h **** 
 531:Generated_Source\PSoC6\pdl\drivers\peripheral\scb/cy_scb_common.h **** #define CY_SCB_RX_INTR_MASK     (CY_SCB_RX_INTR_LEVEL             | CY_SCB_RX_INTR_NOT_EMPTY | CY_S
 532:Generated_Source\PSoC6\pdl\drivers\peripheral\scb/cy_scb_common.h ****                                  CY_SCB_RX_INTR_OVERFLOW          | CY_SCB_RX_INTR_UNDERFLOW       
 533:Generated_Source\PSoC6\pdl\drivers\peripheral\scb/cy_scb_common.h ****                                  CY_SCB_RX_INTR_UART_FRAME_ERROR  | CY_SCB_RX_INTR_UART_PARITY_ERRO
 534:Generated_Source\PSoC6\pdl\drivers\peripheral\scb/cy_scb_common.h ****                                  CY_SCB_RX_INTR_UART_BREAK_DETECT)
 535:Generated_Source\PSoC6\pdl\drivers\peripheral\scb/cy_scb_common.h **** 
 536:Generated_Source\PSoC6\pdl\drivers\peripheral\scb/cy_scb_common.h **** 
 537:Generated_Source\PSoC6\pdl\drivers\peripheral\scb/cy_scb_common.h **** #define CY_SCB_SLAVE_INTR_MASK  (CY_SCB_SLAVE_INTR_I2C_ARB_LOST   | CY_SCB_SLAVE_INTR_I2C_NACK | CY
 538:Generated_Source\PSoC6\pdl\drivers\peripheral\scb/cy_scb_common.h ****                                  CY_SCB_SLAVE_INTR_I2C_WRITE_STOP | CY_SCB_SLAVE_INTR_I2C_STOP | CY
 539:Generated_Source\PSoC6\pdl\drivers\peripheral\scb/cy_scb_common.h ****                                  CY_SCB_SLAVE_INTR_I2C_ADDR_MATCH | CY_SCB_SLAVE_INTR_I2C_GENERAL_A
 540:Generated_Source\PSoC6\pdl\drivers\peripheral\scb/cy_scb_common.h ****                                  CY_SCB_SLAVE_INTR_I2C_BUS_ERROR  | CY_SCB_SLAVE_INTR_SPI_BUS_ERROR
 541:Generated_Source\PSoC6\pdl\drivers\peripheral\scb/cy_scb_common.h **** 
 542:Generated_Source\PSoC6\pdl\drivers\peripheral\scb/cy_scb_common.h **** #define CY_SCB_MASTER_INTR_MASK (CY_SCB_MASTER_INTR_I2C_ARB_LOST  | CY_SCB_MASTER_INTR_I2C_NACK | \
 543:Generated_Source\PSoC6\pdl\drivers\peripheral\scb/cy_scb_common.h ****                                  CY_SCB_MASTER_INTR_I2C_ACK       | CY_SCB_MASTER_INTR_I2C_STOP | \
 544:Generated_Source\PSoC6\pdl\drivers\peripheral\scb/cy_scb_common.h ****                                  CY_SCB_MASTER_INTR_I2C_BUS_ERROR | CY_SCB_MASTER_INTR_SPI_DONE)
ARM GAS  C:\Users\salaz\AppData\Local\Temp\ccU0pQaU.s 			page 11


 545:Generated_Source\PSoC6\pdl\drivers\peripheral\scb/cy_scb_common.h **** 
 546:Generated_Source\PSoC6\pdl\drivers\peripheral\scb/cy_scb_common.h **** #define CY_SCB_I2C_INTR_MASK    CY_SCB_I2C_INTR_WAKEUP
 547:Generated_Source\PSoC6\pdl\drivers\peripheral\scb/cy_scb_common.h **** 
 548:Generated_Source\PSoC6\pdl\drivers\peripheral\scb/cy_scb_common.h **** #define CY_SCB_SPI_INTR_MASK    CY_SCB_SPI_INTR_WAKEUP
 549:Generated_Source\PSoC6\pdl\drivers\peripheral\scb/cy_scb_common.h **** 
 550:Generated_Source\PSoC6\pdl\drivers\peripheral\scb/cy_scb_common.h **** #define CY_SCB_IS_INTR_VALID(intr, mask)            ( 0UL == ((intr) & ((uint32_t) ~(mask))) )
 551:Generated_Source\PSoC6\pdl\drivers\peripheral\scb/cy_scb_common.h **** #define CY_SCB_IS_TRIGGER_LEVEL_VALID(base, level)  ((level) < Cy_SCB_GetFifoSize(base))
 552:Generated_Source\PSoC6\pdl\drivers\peripheral\scb/cy_scb_common.h **** 
 553:Generated_Source\PSoC6\pdl\drivers\peripheral\scb/cy_scb_common.h **** #define CY_SCB_IS_I2C_ADDR_VALID(addr)              ( (0U == ((addr) & 0x80U)) )
 554:Generated_Source\PSoC6\pdl\drivers\peripheral\scb/cy_scb_common.h **** #define CY_SCB_IS_BUFFER_VALID(buffer, size)        ( (NULL != (buffer)) && ((size) > 0UL) )
 555:Generated_Source\PSoC6\pdl\drivers\peripheral\scb/cy_scb_common.h **** #define CY_SCB_IS_I2C_BUFFER_VALID(buffer, size)    ( (0UL == (size)) ? true : (NULL != (buffer)) )
 556:Generated_Source\PSoC6\pdl\drivers\peripheral\scb/cy_scb_common.h **** /** \endcond */
 557:Generated_Source\PSoC6\pdl\drivers\peripheral\scb/cy_scb_common.h **** 
 558:Generated_Source\PSoC6\pdl\drivers\peripheral\scb/cy_scb_common.h **** /** \} group_scb_common_macros */
 559:Generated_Source\PSoC6\pdl\drivers\peripheral\scb/cy_scb_common.h **** 
 560:Generated_Source\PSoC6\pdl\drivers\peripheral\scb/cy_scb_common.h **** 
 561:Generated_Source\PSoC6\pdl\drivers\peripheral\scb/cy_scb_common.h **** /***************************************
 562:Generated_Source\PSoC6\pdl\drivers\peripheral\scb/cy_scb_common.h **** * Inline Function Implementation
 563:Generated_Source\PSoC6\pdl\drivers\peripheral\scb/cy_scb_common.h **** ***************************************/
 564:Generated_Source\PSoC6\pdl\drivers\peripheral\scb/cy_scb_common.h **** 
 565:Generated_Source\PSoC6\pdl\drivers\peripheral\scb/cy_scb_common.h **** /**
 566:Generated_Source\PSoC6\pdl\drivers\peripheral\scb/cy_scb_common.h **** * \addtogroup group_scb_common_functions
 567:Generated_Source\PSoC6\pdl\drivers\peripheral\scb/cy_scb_common.h **** * \{
 568:Generated_Source\PSoC6\pdl\drivers\peripheral\scb/cy_scb_common.h **** */
 569:Generated_Source\PSoC6\pdl\drivers\peripheral\scb/cy_scb_common.h **** 
 570:Generated_Source\PSoC6\pdl\drivers\peripheral\scb/cy_scb_common.h **** /*******************************************************************************
 571:Generated_Source\PSoC6\pdl\drivers\peripheral\scb/cy_scb_common.h **** * Function Name: Cy_SCB_ReadRxFifo
 572:Generated_Source\PSoC6\pdl\drivers\peripheral\scb/cy_scb_common.h **** ****************************************************************************//**
 573:Generated_Source\PSoC6\pdl\drivers\peripheral\scb/cy_scb_common.h **** *
 574:Generated_Source\PSoC6\pdl\drivers\peripheral\scb/cy_scb_common.h **** * Reads a data element directly out of the RX FIFO.
 575:Generated_Source\PSoC6\pdl\drivers\peripheral\scb/cy_scb_common.h **** * This function does not check whether the RX FIFO has data before reading it.
 576:Generated_Source\PSoC6\pdl\drivers\peripheral\scb/cy_scb_common.h **** *
 577:Generated_Source\PSoC6\pdl\drivers\peripheral\scb/cy_scb_common.h **** * \param base
 578:Generated_Source\PSoC6\pdl\drivers\peripheral\scb/cy_scb_common.h **** * The pointer to the SCB instance.
 579:Generated_Source\PSoC6\pdl\drivers\peripheral\scb/cy_scb_common.h **** *
 580:Generated_Source\PSoC6\pdl\drivers\peripheral\scb/cy_scb_common.h **** * \return
 581:Generated_Source\PSoC6\pdl\drivers\peripheral\scb/cy_scb_common.h **** * Data from RX FIFO.
 582:Generated_Source\PSoC6\pdl\drivers\peripheral\scb/cy_scb_common.h **** *
 583:Generated_Source\PSoC6\pdl\drivers\peripheral\scb/cy_scb_common.h **** *******************************************************************************/
 584:Generated_Source\PSoC6\pdl\drivers\peripheral\scb/cy_scb_common.h **** __STATIC_INLINE uint32_t Cy_SCB_ReadRxFifo(CySCB_Type const *base)
 585:Generated_Source\PSoC6\pdl\drivers\peripheral\scb/cy_scb_common.h **** {
  27              		.loc 1 585 0
  28              		.cfi_startproc
  29              		@ args = 0, pretend = 0, frame = 8
  30              		@ frame_needed = 1, uses_anonymous_args = 0
  31 0000 80B5     		push	{r7, lr}
  32              		.cfi_def_cfa_offset 8
  33              		.cfi_offset 7, -8
  34              		.cfi_offset 14, -4
  35 0002 82B0     		sub	sp, sp, #8
  36              		.cfi_def_cfa_offset 16
  37 0004 00AF     		add	r7, sp, #0
  38              		.cfi_def_cfa_register 7
  39 0006 7860     		str	r0, [r7, #4]
 586:Generated_Source\PSoC6\pdl\drivers\peripheral\scb/cy_scb_common.h ****     return (base->RX_FIFO_RD);
  40              		.loc 1 586 0
  41 0008 7A68     		ldr	r2, [r7, #4]
ARM GAS  C:\Users\salaz\AppData\Local\Temp\ccU0pQaU.s 			page 12


  42 000a D023     		movs	r3, #208
  43 000c 9B00     		lsls	r3, r3, #2
  44 000e D358     		ldr	r3, [r2, r3]
 587:Generated_Source\PSoC6\pdl\drivers\peripheral\scb/cy_scb_common.h **** }
  45              		.loc 1 587 0
  46 0010 1800     		movs	r0, r3
  47 0012 BD46     		mov	sp, r7
  48 0014 02B0     		add	sp, sp, #8
  49              		@ sp needed
  50 0016 80BD     		pop	{r7, pc}
  51              		.cfi_endproc
  52              	.LFE69:
  53              		.size	Cy_SCB_ReadRxFifo, .-Cy_SCB_ReadRxFifo
  54              		.section	.rodata
  55              		.align	2
  56              	.LC0:
  57 0000 47656E65 		.ascii	"Generated_Source\\PSoC6\\pdl\\drivers\\peripheral\\"
  57      72617465 
  57      645F536F 
  57      75726365 
  57      5C50536F 
  58 002e 7363625C 		.ascii	"scb\\cy_scb_common.h\000"
  58      63795F73 
  58      63625F63 
  58      6F6D6D6F 
  58      6E2E6800 
  59              		.section	.text.Cy_SCB_SetRxFifoLevel,"ax",%progbits
  60              		.align	2
  61              		.code	16
  62              		.thumb_func
  63              		.type	Cy_SCB_SetRxFifoLevel, %function
  64              	Cy_SCB_SetRxFifoLevel:
  65              	.LFB70:
 588:Generated_Source\PSoC6\pdl\drivers\peripheral\scb/cy_scb_common.h **** 
 589:Generated_Source\PSoC6\pdl\drivers\peripheral\scb/cy_scb_common.h **** /*******************************************************************************
 590:Generated_Source\PSoC6\pdl\drivers\peripheral\scb/cy_scb_common.h **** * Function Name: Cy_SCB_SetRxFifoLevel
 591:Generated_Source\PSoC6\pdl\drivers\peripheral\scb/cy_scb_common.h **** ****************************************************************************//**
 592:Generated_Source\PSoC6\pdl\drivers\peripheral\scb/cy_scb_common.h **** *
 593:Generated_Source\PSoC6\pdl\drivers\peripheral\scb/cy_scb_common.h **** * Sets the RX FIFO level. When there are more data elements in the RX FIFO than
 594:Generated_Source\PSoC6\pdl\drivers\peripheral\scb/cy_scb_common.h **** * this level, the RX FIFO level interrupt is triggered.
 595:Generated_Source\PSoC6\pdl\drivers\peripheral\scb/cy_scb_common.h **** *
 596:Generated_Source\PSoC6\pdl\drivers\peripheral\scb/cy_scb_common.h **** * \param base
 597:Generated_Source\PSoC6\pdl\drivers\peripheral\scb/cy_scb_common.h **** * The pointer to the SCB instance.
 598:Generated_Source\PSoC6\pdl\drivers\peripheral\scb/cy_scb_common.h **** *
 599:Generated_Source\PSoC6\pdl\drivers\peripheral\scb/cy_scb_common.h **** * \param level
 600:Generated_Source\PSoC6\pdl\drivers\peripheral\scb/cy_scb_common.h **** * When there are more data elements in the FIFO than this level, the RX level
 601:Generated_Source\PSoC6\pdl\drivers\peripheral\scb/cy_scb_common.h **** * interrupt is triggered.
 602:Generated_Source\PSoC6\pdl\drivers\peripheral\scb/cy_scb_common.h **** *
 603:Generated_Source\PSoC6\pdl\drivers\peripheral\scb/cy_scb_common.h **** *******************************************************************************/
 604:Generated_Source\PSoC6\pdl\drivers\peripheral\scb/cy_scb_common.h **** __STATIC_INLINE void Cy_SCB_SetRxFifoLevel(CySCB_Type *base, uint32_t level)
 605:Generated_Source\PSoC6\pdl\drivers\peripheral\scb/cy_scb_common.h **** {
  66              		.loc 1 605 0
  67              		.cfi_startproc
  68              		@ args = 0, pretend = 0, frame = 8
  69              		@ frame_needed = 1, uses_anonymous_args = 0
  70 0000 80B5     		push	{r7, lr}
  71              		.cfi_def_cfa_offset 8
ARM GAS  C:\Users\salaz\AppData\Local\Temp\ccU0pQaU.s 			page 13


  72              		.cfi_offset 7, -8
  73              		.cfi_offset 14, -4
  74 0002 82B0     		sub	sp, sp, #8
  75              		.cfi_def_cfa_offset 16
  76 0004 00AF     		add	r7, sp, #0
  77              		.cfi_def_cfa_register 7
  78 0006 7860     		str	r0, [r7, #4]
  79 0008 3960     		str	r1, [r7]
 606:Generated_Source\PSoC6\pdl\drivers\peripheral\scb/cy_scb_common.h ****     CY_ASSERT_L2(CY_SCB_IS_TRIGGER_LEVEL_VALID(base, level));
  80              		.loc 1 606 0
  81 000a 7B68     		ldr	r3, [r7, #4]
  82 000c 1800     		movs	r0, r3
  83 000e FFF7FEFF 		bl	Cy_SCB_GetFifoSize
  84 0012 0200     		movs	r2, r0
  85 0014 3B68     		ldr	r3, [r7]
  86 0016 9A42     		cmp	r2, r3
  87 0018 05D8     		bhi	.L4
  88              		.loc 1 606 0 is_stmt 0 discriminator 1
  89 001a 0D4A     		ldr	r2, .L5
  90 001c 0D4B     		ldr	r3, .L5+4
  91 001e 1100     		movs	r1, r2
  92 0020 1800     		movs	r0, r3
  93 0022 FFF7FEFF 		bl	Cy_SysLib_AssertFailed
  94              	.L4:
 607:Generated_Source\PSoC6\pdl\drivers\peripheral\scb/cy_scb_common.h **** 
 608:Generated_Source\PSoC6\pdl\drivers\peripheral\scb/cy_scb_common.h ****     base->RX_FIFO_CTRL = _CLR_SET_FLD32U(base->RX_FIFO_CTRL, SCB_RX_FIFO_CTRL_TRIGGER_LEVEL, level)
  95              		.loc 1 608 0 is_stmt 1
  96 0026 7A68     		ldr	r2, [r7, #4]
  97 0028 C123     		movs	r3, #193
  98 002a 9B00     		lsls	r3, r3, #2
  99 002c D358     		ldr	r3, [r2, r3]
 100 002e FF22     		movs	r2, #255
 101 0030 9343     		bics	r3, r2
 102 0032 1A00     		movs	r2, r3
 103 0034 3B68     		ldr	r3, [r7]
 104 0036 FF21     		movs	r1, #255
 105 0038 0B40     		ands	r3, r1
 106 003a 1A43     		orrs	r2, r3
 107 003c 1100     		movs	r1, r2
 108 003e 7A68     		ldr	r2, [r7, #4]
 109 0040 C123     		movs	r3, #193
 110 0042 9B00     		lsls	r3, r3, #2
 111 0044 D150     		str	r1, [r2, r3]
 609:Generated_Source\PSoC6\pdl\drivers\peripheral\scb/cy_scb_common.h **** }
 112              		.loc 1 609 0
 113 0046 C046     		nop
 114 0048 BD46     		mov	sp, r7
 115 004a 02B0     		add	sp, sp, #8
 116              		@ sp needed
 117 004c 80BD     		pop	{r7, pc}
 118              	.L6:
 119 004e C046     		.align	2
 120              	.L5:
 121 0050 5E020000 		.word	606
 122 0054 00000000 		.word	.LC0
 123              		.cfi_endproc
 124              	.LFE70:
ARM GAS  C:\Users\salaz\AppData\Local\Temp\ccU0pQaU.s 			page 14


 125              		.size	Cy_SCB_SetRxFifoLevel, .-Cy_SCB_SetRxFifoLevel
 126              		.section	.text.Cy_SCB_ClearRxFifo,"ax",%progbits
 127              		.align	2
 128              		.code	16
 129              		.thumb_func
 130              		.type	Cy_SCB_ClearRxFifo, %function
 131              	Cy_SCB_ClearRxFifo:
 132              	.LFB73:
 610:Generated_Source\PSoC6\pdl\drivers\peripheral\scb/cy_scb_common.h **** 
 611:Generated_Source\PSoC6\pdl\drivers\peripheral\scb/cy_scb_common.h **** 
 612:Generated_Source\PSoC6\pdl\drivers\peripheral\scb/cy_scb_common.h **** /*******************************************************************************
 613:Generated_Source\PSoC6\pdl\drivers\peripheral\scb/cy_scb_common.h **** * Function Name: Cy_SCB_GetNumInRxFifo
 614:Generated_Source\PSoC6\pdl\drivers\peripheral\scb/cy_scb_common.h **** ****************************************************************************//**
 615:Generated_Source\PSoC6\pdl\drivers\peripheral\scb/cy_scb_common.h **** *
 616:Generated_Source\PSoC6\pdl\drivers\peripheral\scb/cy_scb_common.h **** * Returns the number of data elements currently in the RX FIFO.
 617:Generated_Source\PSoC6\pdl\drivers\peripheral\scb/cy_scb_common.h **** *
 618:Generated_Source\PSoC6\pdl\drivers\peripheral\scb/cy_scb_common.h **** * \param base
 619:Generated_Source\PSoC6\pdl\drivers\peripheral\scb/cy_scb_common.h **** * The pointer to the SCB instance.
 620:Generated_Source\PSoC6\pdl\drivers\peripheral\scb/cy_scb_common.h **** *
 621:Generated_Source\PSoC6\pdl\drivers\peripheral\scb/cy_scb_common.h **** * \return
 622:Generated_Source\PSoC6\pdl\drivers\peripheral\scb/cy_scb_common.h **** * The number or data elements in RX FIFO.
 623:Generated_Source\PSoC6\pdl\drivers\peripheral\scb/cy_scb_common.h **** *
 624:Generated_Source\PSoC6\pdl\drivers\peripheral\scb/cy_scb_common.h **** *******************************************************************************/
 625:Generated_Source\PSoC6\pdl\drivers\peripheral\scb/cy_scb_common.h **** __STATIC_INLINE uint32_t Cy_SCB_GetNumInRxFifo(CySCB_Type const *base)
 626:Generated_Source\PSoC6\pdl\drivers\peripheral\scb/cy_scb_common.h **** {
 627:Generated_Source\PSoC6\pdl\drivers\peripheral\scb/cy_scb_common.h ****     return _FLD2VAL(SCB_RX_FIFO_STATUS_USED, base->RX_FIFO_STATUS);
 628:Generated_Source\PSoC6\pdl\drivers\peripheral\scb/cy_scb_common.h **** }
 629:Generated_Source\PSoC6\pdl\drivers\peripheral\scb/cy_scb_common.h **** 
 630:Generated_Source\PSoC6\pdl\drivers\peripheral\scb/cy_scb_common.h **** 
 631:Generated_Source\PSoC6\pdl\drivers\peripheral\scb/cy_scb_common.h **** /*******************************************************************************
 632:Generated_Source\PSoC6\pdl\drivers\peripheral\scb/cy_scb_common.h **** * Function Name: Cy_SCB_GetRxSrValid
 633:Generated_Source\PSoC6\pdl\drivers\peripheral\scb/cy_scb_common.h **** ****************************************************************************//**
 634:Generated_Source\PSoC6\pdl\drivers\peripheral\scb/cy_scb_common.h **** *
 635:Generated_Source\PSoC6\pdl\drivers\peripheral\scb/cy_scb_common.h **** * Returns the status of the RX FIFO Shift Register valid bit.
 636:Generated_Source\PSoC6\pdl\drivers\peripheral\scb/cy_scb_common.h **** *
 637:Generated_Source\PSoC6\pdl\drivers\peripheral\scb/cy_scb_common.h **** * \param base
 638:Generated_Source\PSoC6\pdl\drivers\peripheral\scb/cy_scb_common.h **** * The pointer to the SCB instance.
 639:Generated_Source\PSoC6\pdl\drivers\peripheral\scb/cy_scb_common.h **** *
 640:Generated_Source\PSoC6\pdl\drivers\peripheral\scb/cy_scb_common.h **** * \return
 641:Generated_Source\PSoC6\pdl\drivers\peripheral\scb/cy_scb_common.h **** * 1 - RX shift register valid; 0 - RX shift register not valid.
 642:Generated_Source\PSoC6\pdl\drivers\peripheral\scb/cy_scb_common.h **** *
 643:Generated_Source\PSoC6\pdl\drivers\peripheral\scb/cy_scb_common.h **** *******************************************************************************/
 644:Generated_Source\PSoC6\pdl\drivers\peripheral\scb/cy_scb_common.h **** __STATIC_INLINE uint32_t Cy_SCB_GetRxSrValid(CySCB_Type const *base)
 645:Generated_Source\PSoC6\pdl\drivers\peripheral\scb/cy_scb_common.h **** {
 646:Generated_Source\PSoC6\pdl\drivers\peripheral\scb/cy_scb_common.h ****     return _FLD2VAL(SCB_RX_FIFO_STATUS_SR_VALID, base->RX_FIFO_STATUS);
 647:Generated_Source\PSoC6\pdl\drivers\peripheral\scb/cy_scb_common.h **** }
 648:Generated_Source\PSoC6\pdl\drivers\peripheral\scb/cy_scb_common.h **** 
 649:Generated_Source\PSoC6\pdl\drivers\peripheral\scb/cy_scb_common.h **** 
 650:Generated_Source\PSoC6\pdl\drivers\peripheral\scb/cy_scb_common.h **** /*******************************************************************************
 651:Generated_Source\PSoC6\pdl\drivers\peripheral\scb/cy_scb_common.h **** * Function Name: Cy_SCB_ClearRxFifo
 652:Generated_Source\PSoC6\pdl\drivers\peripheral\scb/cy_scb_common.h **** ****************************************************************************//**
 653:Generated_Source\PSoC6\pdl\drivers\peripheral\scb/cy_scb_common.h **** *
 654:Generated_Source\PSoC6\pdl\drivers\peripheral\scb/cy_scb_common.h **** * Clears the RX FIFO and shifter.
 655:Generated_Source\PSoC6\pdl\drivers\peripheral\scb/cy_scb_common.h **** *
 656:Generated_Source\PSoC6\pdl\drivers\peripheral\scb/cy_scb_common.h **** * \param base
 657:Generated_Source\PSoC6\pdl\drivers\peripheral\scb/cy_scb_common.h **** * The pointer to the SCB instance.
 658:Generated_Source\PSoC6\pdl\drivers\peripheral\scb/cy_scb_common.h **** *
ARM GAS  C:\Users\salaz\AppData\Local\Temp\ccU0pQaU.s 			page 15


 659:Generated_Source\PSoC6\pdl\drivers\peripheral\scb/cy_scb_common.h **** * \note
 660:Generated_Source\PSoC6\pdl\drivers\peripheral\scb/cy_scb_common.h **** * If there is partial data in the shifter, it is cleared and lost.
 661:Generated_Source\PSoC6\pdl\drivers\peripheral\scb/cy_scb_common.h **** *
 662:Generated_Source\PSoC6\pdl\drivers\peripheral\scb/cy_scb_common.h **** *******************************************************************************/
 663:Generated_Source\PSoC6\pdl\drivers\peripheral\scb/cy_scb_common.h **** __STATIC_INLINE void Cy_SCB_ClearRxFifo(CySCB_Type* base)
 664:Generated_Source\PSoC6\pdl\drivers\peripheral\scb/cy_scb_common.h **** {
 133              		.loc 1 664 0
 134              		.cfi_startproc
 135              		@ args = 0, pretend = 0, frame = 8
 136              		@ frame_needed = 1, uses_anonymous_args = 0
 137 0000 80B5     		push	{r7, lr}
 138              		.cfi_def_cfa_offset 8
 139              		.cfi_offset 7, -8
 140              		.cfi_offset 14, -4
 141 0002 82B0     		sub	sp, sp, #8
 142              		.cfi_def_cfa_offset 16
 143 0004 00AF     		add	r7, sp, #0
 144              		.cfi_def_cfa_register 7
 145 0006 7860     		str	r0, [r7, #4]
 665:Generated_Source\PSoC6\pdl\drivers\peripheral\scb/cy_scb_common.h ****     base->RX_FIFO_CTRL |= (uint32_t)  SCB_RX_FIFO_CTRL_CLEAR_Msk;
 146              		.loc 1 665 0
 147 0008 7A68     		ldr	r2, [r7, #4]
 148 000a C123     		movs	r3, #193
 149 000c 9B00     		lsls	r3, r3, #2
 150 000e D358     		ldr	r3, [r2, r3]
 151 0010 8022     		movs	r2, #128
 152 0012 5202     		lsls	r2, r2, #9
 153 0014 1A43     		orrs	r2, r3
 154 0016 1100     		movs	r1, r2
 155 0018 7A68     		ldr	r2, [r7, #4]
 156 001a C123     		movs	r3, #193
 157 001c 9B00     		lsls	r3, r3, #2
 158 001e D150     		str	r1, [r2, r3]
 666:Generated_Source\PSoC6\pdl\drivers\peripheral\scb/cy_scb_common.h ****     base->RX_FIFO_CTRL &= (uint32_t) ~SCB_RX_FIFO_CTRL_CLEAR_Msk;
 159              		.loc 1 666 0
 160 0020 7A68     		ldr	r2, [r7, #4]
 161 0022 C123     		movs	r3, #193
 162 0024 9B00     		lsls	r3, r3, #2
 163 0026 D358     		ldr	r3, [r2, r3]
 164 0028 074A     		ldr	r2, .L8
 165 002a 1340     		ands	r3, r2
 166 002c 1900     		movs	r1, r3
 167 002e 7A68     		ldr	r2, [r7, #4]
 168 0030 C123     		movs	r3, #193
 169 0032 9B00     		lsls	r3, r3, #2
 170 0034 D150     		str	r1, [r2, r3]
 667:Generated_Source\PSoC6\pdl\drivers\peripheral\scb/cy_scb_common.h **** 
 668:Generated_Source\PSoC6\pdl\drivers\peripheral\scb/cy_scb_common.h ****     (void) base->RX_FIFO_CTRL;
 171              		.loc 1 668 0
 172 0036 7A68     		ldr	r2, [r7, #4]
 173 0038 C123     		movs	r3, #193
 174 003a 9B00     		lsls	r3, r3, #2
 175 003c D358     		ldr	r3, [r2, r3]
 669:Generated_Source\PSoC6\pdl\drivers\peripheral\scb/cy_scb_common.h **** }
 176              		.loc 1 669 0
 177 003e C046     		nop
 178 0040 BD46     		mov	sp, r7
ARM GAS  C:\Users\salaz\AppData\Local\Temp\ccU0pQaU.s 			page 16


 179 0042 02B0     		add	sp, sp, #8
 180              		@ sp needed
 181 0044 80BD     		pop	{r7, pc}
 182              	.L9:
 183 0046 C046     		.align	2
 184              	.L8:
 185 0048 FFFFFEFF 		.word	-65537
 186              		.cfi_endproc
 187              	.LFE73:
 188              		.size	Cy_SCB_ClearRxFifo, .-Cy_SCB_ClearRxFifo
 189              		.section	.text.Cy_SCB_ClearTxFifo,"ax",%progbits
 190              		.align	2
 191              		.code	16
 192              		.thumb_func
 193              		.type	Cy_SCB_ClearTxFifo, %function
 194              	Cy_SCB_ClearTxFifo:
 195              	.LFB79:
 670:Generated_Source\PSoC6\pdl\drivers\peripheral\scb/cy_scb_common.h **** 
 671:Generated_Source\PSoC6\pdl\drivers\peripheral\scb/cy_scb_common.h **** 
 672:Generated_Source\PSoC6\pdl\drivers\peripheral\scb/cy_scb_common.h **** /*******************************************************************************
 673:Generated_Source\PSoC6\pdl\drivers\peripheral\scb/cy_scb_common.h **** * Function Name: Cy_SCB_WriteTxFifo
 674:Generated_Source\PSoC6\pdl\drivers\peripheral\scb/cy_scb_common.h **** ****************************************************************************//**
 675:Generated_Source\PSoC6\pdl\drivers\peripheral\scb/cy_scb_common.h **** *
 676:Generated_Source\PSoC6\pdl\drivers\peripheral\scb/cy_scb_common.h **** * Writes data directly into the TX FIFO.
 677:Generated_Source\PSoC6\pdl\drivers\peripheral\scb/cy_scb_common.h **** * This function does not check whether the TX FIFO is not full before writing
 678:Generated_Source\PSoC6\pdl\drivers\peripheral\scb/cy_scb_common.h **** * into it.
 679:Generated_Source\PSoC6\pdl\drivers\peripheral\scb/cy_scb_common.h **** *
 680:Generated_Source\PSoC6\pdl\drivers\peripheral\scb/cy_scb_common.h **** * \param base
 681:Generated_Source\PSoC6\pdl\drivers\peripheral\scb/cy_scb_common.h **** * The pointer to the SCB instance.
 682:Generated_Source\PSoC6\pdl\drivers\peripheral\scb/cy_scb_common.h **** *
 683:Generated_Source\PSoC6\pdl\drivers\peripheral\scb/cy_scb_common.h **** * \param data
 684:Generated_Source\PSoC6\pdl\drivers\peripheral\scb/cy_scb_common.h **** * Data to write to the TX FIFO.
 685:Generated_Source\PSoC6\pdl\drivers\peripheral\scb/cy_scb_common.h **** *
 686:Generated_Source\PSoC6\pdl\drivers\peripheral\scb/cy_scb_common.h **** *******************************************************************************/
 687:Generated_Source\PSoC6\pdl\drivers\peripheral\scb/cy_scb_common.h **** __STATIC_INLINE void Cy_SCB_WriteTxFifo(CySCB_Type* base, uint32_t data)
 688:Generated_Source\PSoC6\pdl\drivers\peripheral\scb/cy_scb_common.h **** {
 689:Generated_Source\PSoC6\pdl\drivers\peripheral\scb/cy_scb_common.h ****     base->TX_FIFO_WR = data;
 690:Generated_Source\PSoC6\pdl\drivers\peripheral\scb/cy_scb_common.h **** }
 691:Generated_Source\PSoC6\pdl\drivers\peripheral\scb/cy_scb_common.h **** 
 692:Generated_Source\PSoC6\pdl\drivers\peripheral\scb/cy_scb_common.h **** 
 693:Generated_Source\PSoC6\pdl\drivers\peripheral\scb/cy_scb_common.h **** /*******************************************************************************
 694:Generated_Source\PSoC6\pdl\drivers\peripheral\scb/cy_scb_common.h **** * Function Name: Cy_SCB_SetTxFifoLevel
 695:Generated_Source\PSoC6\pdl\drivers\peripheral\scb/cy_scb_common.h **** ****************************************************************************//**
 696:Generated_Source\PSoC6\pdl\drivers\peripheral\scb/cy_scb_common.h **** *
 697:Generated_Source\PSoC6\pdl\drivers\peripheral\scb/cy_scb_common.h **** * Sets the TX FIFO level. When there are fewer data elements in the TX FIFO than
 698:Generated_Source\PSoC6\pdl\drivers\peripheral\scb/cy_scb_common.h **** * this level, the TX FIFO level interrupt is triggered.
 699:Generated_Source\PSoC6\pdl\drivers\peripheral\scb/cy_scb_common.h **** *
 700:Generated_Source\PSoC6\pdl\drivers\peripheral\scb/cy_scb_common.h **** * \param base
 701:Generated_Source\PSoC6\pdl\drivers\peripheral\scb/cy_scb_common.h **** * The pointer to the SCB instance.
 702:Generated_Source\PSoC6\pdl\drivers\peripheral\scb/cy_scb_common.h **** *
 703:Generated_Source\PSoC6\pdl\drivers\peripheral\scb/cy_scb_common.h **** * \param level
 704:Generated_Source\PSoC6\pdl\drivers\peripheral\scb/cy_scb_common.h **** * When there are fewer data elements in the FIFO than this level, the TX level
 705:Generated_Source\PSoC6\pdl\drivers\peripheral\scb/cy_scb_common.h **** * interrupt is triggered.
 706:Generated_Source\PSoC6\pdl\drivers\peripheral\scb/cy_scb_common.h **** *
 707:Generated_Source\PSoC6\pdl\drivers\peripheral\scb/cy_scb_common.h **** *******************************************************************************/
 708:Generated_Source\PSoC6\pdl\drivers\peripheral\scb/cy_scb_common.h **** __STATIC_INLINE void Cy_SCB_SetTxFifoLevel(CySCB_Type *base, uint32_t level)
 709:Generated_Source\PSoC6\pdl\drivers\peripheral\scb/cy_scb_common.h **** {
ARM GAS  C:\Users\salaz\AppData\Local\Temp\ccU0pQaU.s 			page 17


 710:Generated_Source\PSoC6\pdl\drivers\peripheral\scb/cy_scb_common.h ****     CY_ASSERT_L2(CY_SCB_IS_TRIGGER_LEVEL_VALID(base, level));
 711:Generated_Source\PSoC6\pdl\drivers\peripheral\scb/cy_scb_common.h **** 
 712:Generated_Source\PSoC6\pdl\drivers\peripheral\scb/cy_scb_common.h ****     base->TX_FIFO_CTRL = _CLR_SET_FLD32U(base->TX_FIFO_CTRL, SCB_TX_FIFO_CTRL_TRIGGER_LEVEL, level)
 713:Generated_Source\PSoC6\pdl\drivers\peripheral\scb/cy_scb_common.h **** }
 714:Generated_Source\PSoC6\pdl\drivers\peripheral\scb/cy_scb_common.h **** 
 715:Generated_Source\PSoC6\pdl\drivers\peripheral\scb/cy_scb_common.h **** 
 716:Generated_Source\PSoC6\pdl\drivers\peripheral\scb/cy_scb_common.h **** /*******************************************************************************
 717:Generated_Source\PSoC6\pdl\drivers\peripheral\scb/cy_scb_common.h **** * Function Name: Cy_SCB_GetNumInTxFifo
 718:Generated_Source\PSoC6\pdl\drivers\peripheral\scb/cy_scb_common.h **** ****************************************************************************//**
 719:Generated_Source\PSoC6\pdl\drivers\peripheral\scb/cy_scb_common.h **** *
 720:Generated_Source\PSoC6\pdl\drivers\peripheral\scb/cy_scb_common.h **** * Returns the number of data elements currently in the TX FIFO.
 721:Generated_Source\PSoC6\pdl\drivers\peripheral\scb/cy_scb_common.h **** *
 722:Generated_Source\PSoC6\pdl\drivers\peripheral\scb/cy_scb_common.h **** * \param base
 723:Generated_Source\PSoC6\pdl\drivers\peripheral\scb/cy_scb_common.h **** * The pointer to the SCB instance.
 724:Generated_Source\PSoC6\pdl\drivers\peripheral\scb/cy_scb_common.h **** *
 725:Generated_Source\PSoC6\pdl\drivers\peripheral\scb/cy_scb_common.h **** * \return
 726:Generated_Source\PSoC6\pdl\drivers\peripheral\scb/cy_scb_common.h **** * The number or data elements in the TX FIFO.
 727:Generated_Source\PSoC6\pdl\drivers\peripheral\scb/cy_scb_common.h **** *
 728:Generated_Source\PSoC6\pdl\drivers\peripheral\scb/cy_scb_common.h **** *******************************************************************************/
 729:Generated_Source\PSoC6\pdl\drivers\peripheral\scb/cy_scb_common.h **** __STATIC_INLINE uint32_t Cy_SCB_GetNumInTxFifo(CySCB_Type const *base)
 730:Generated_Source\PSoC6\pdl\drivers\peripheral\scb/cy_scb_common.h **** {
 731:Generated_Source\PSoC6\pdl\drivers\peripheral\scb/cy_scb_common.h ****     return _FLD2VAL(SCB_TX_FIFO_STATUS_USED, base->TX_FIFO_STATUS);
 732:Generated_Source\PSoC6\pdl\drivers\peripheral\scb/cy_scb_common.h **** }
 733:Generated_Source\PSoC6\pdl\drivers\peripheral\scb/cy_scb_common.h **** 
 734:Generated_Source\PSoC6\pdl\drivers\peripheral\scb/cy_scb_common.h **** 
 735:Generated_Source\PSoC6\pdl\drivers\peripheral\scb/cy_scb_common.h **** /*******************************************************************************
 736:Generated_Source\PSoC6\pdl\drivers\peripheral\scb/cy_scb_common.h **** * Function Name: Cy_SCB_GetTxSrValid
 737:Generated_Source\PSoC6\pdl\drivers\peripheral\scb/cy_scb_common.h **** ****************************************************************************//**
 738:Generated_Source\PSoC6\pdl\drivers\peripheral\scb/cy_scb_common.h **** *
 739:Generated_Source\PSoC6\pdl\drivers\peripheral\scb/cy_scb_common.h **** * Returns the status of the TX FIFO Shift Register valid bit.
 740:Generated_Source\PSoC6\pdl\drivers\peripheral\scb/cy_scb_common.h **** *
 741:Generated_Source\PSoC6\pdl\drivers\peripheral\scb/cy_scb_common.h **** * \param base
 742:Generated_Source\PSoC6\pdl\drivers\peripheral\scb/cy_scb_common.h **** * The pointer to the SCB instance.
 743:Generated_Source\PSoC6\pdl\drivers\peripheral\scb/cy_scb_common.h **** *
 744:Generated_Source\PSoC6\pdl\drivers\peripheral\scb/cy_scb_common.h **** * \return
 745:Generated_Source\PSoC6\pdl\drivers\peripheral\scb/cy_scb_common.h **** * 1 - TX shift register valid; 0 - TX shift register not valid.
 746:Generated_Source\PSoC6\pdl\drivers\peripheral\scb/cy_scb_common.h **** *
 747:Generated_Source\PSoC6\pdl\drivers\peripheral\scb/cy_scb_common.h **** *******************************************************************************/
 748:Generated_Source\PSoC6\pdl\drivers\peripheral\scb/cy_scb_common.h **** __STATIC_INLINE uint32_t Cy_SCB_GetTxSrValid(CySCB_Type const *base)
 749:Generated_Source\PSoC6\pdl\drivers\peripheral\scb/cy_scb_common.h **** {
 750:Generated_Source\PSoC6\pdl\drivers\peripheral\scb/cy_scb_common.h ****     return _FLD2VAL(SCB_TX_FIFO_STATUS_SR_VALID, base->TX_FIFO_STATUS);
 751:Generated_Source\PSoC6\pdl\drivers\peripheral\scb/cy_scb_common.h **** }
 752:Generated_Source\PSoC6\pdl\drivers\peripheral\scb/cy_scb_common.h **** 
 753:Generated_Source\PSoC6\pdl\drivers\peripheral\scb/cy_scb_common.h **** 
 754:Generated_Source\PSoC6\pdl\drivers\peripheral\scb/cy_scb_common.h **** /*******************************************************************************
 755:Generated_Source\PSoC6\pdl\drivers\peripheral\scb/cy_scb_common.h **** * Function Name: Cy_SCB_IsTxComplete
 756:Generated_Source\PSoC6\pdl\drivers\peripheral\scb/cy_scb_common.h **** ****************************************************************************//**
 757:Generated_Source\PSoC6\pdl\drivers\peripheral\scb/cy_scb_common.h **** *
 758:Generated_Source\PSoC6\pdl\drivers\peripheral\scb/cy_scb_common.h **** * Checks whether the TX FIFO and Shifter are empty and there is no more data to send.
 759:Generated_Source\PSoC6\pdl\drivers\peripheral\scb/cy_scb_common.h **** *
 760:Generated_Source\PSoC6\pdl\drivers\peripheral\scb/cy_scb_common.h **** * \param base
 761:Generated_Source\PSoC6\pdl\drivers\peripheral\scb/cy_scb_common.h **** * Pointer to SPI the SCB instance.
 762:Generated_Source\PSoC6\pdl\drivers\peripheral\scb/cy_scb_common.h **** *
 763:Generated_Source\PSoC6\pdl\drivers\peripheral\scb/cy_scb_common.h **** * \return
 764:Generated_Source\PSoC6\pdl\drivers\peripheral\scb/cy_scb_common.h **** * If true, transmission complete. If false, transmission is not complete.
 765:Generated_Source\PSoC6\pdl\drivers\peripheral\scb/cy_scb_common.h **** *
 766:Generated_Source\PSoC6\pdl\drivers\peripheral\scb/cy_scb_common.h **** *******************************************************************************/
ARM GAS  C:\Users\salaz\AppData\Local\Temp\ccU0pQaU.s 			page 18


 767:Generated_Source\PSoC6\pdl\drivers\peripheral\scb/cy_scb_common.h **** __STATIC_INLINE bool Cy_SCB_IsTxComplete(CySCB_Type const *base)
 768:Generated_Source\PSoC6\pdl\drivers\peripheral\scb/cy_scb_common.h **** {
 769:Generated_Source\PSoC6\pdl\drivers\peripheral\scb/cy_scb_common.h ****      return (0UL == (Cy_SCB_GetNumInTxFifo(base) + Cy_SCB_GetTxSrValid(base)));
 770:Generated_Source\PSoC6\pdl\drivers\peripheral\scb/cy_scb_common.h **** }
 771:Generated_Source\PSoC6\pdl\drivers\peripheral\scb/cy_scb_common.h **** 
 772:Generated_Source\PSoC6\pdl\drivers\peripheral\scb/cy_scb_common.h **** 
 773:Generated_Source\PSoC6\pdl\drivers\peripheral\scb/cy_scb_common.h **** /*******************************************************************************
 774:Generated_Source\PSoC6\pdl\drivers\peripheral\scb/cy_scb_common.h **** * Function Name: Cy_SCB_ClearTxFifo
 775:Generated_Source\PSoC6\pdl\drivers\peripheral\scb/cy_scb_common.h **** ****************************************************************************//**
 776:Generated_Source\PSoC6\pdl\drivers\peripheral\scb/cy_scb_common.h **** *
 777:Generated_Source\PSoC6\pdl\drivers\peripheral\scb/cy_scb_common.h **** * Clears the TX FIFO.
 778:Generated_Source\PSoC6\pdl\drivers\peripheral\scb/cy_scb_common.h **** *
 779:Generated_Source\PSoC6\pdl\drivers\peripheral\scb/cy_scb_common.h **** * \param base
 780:Generated_Source\PSoC6\pdl\drivers\peripheral\scb/cy_scb_common.h **** * The pointer to the SCB instance.
 781:Generated_Source\PSoC6\pdl\drivers\peripheral\scb/cy_scb_common.h **** *
 782:Generated_Source\PSoC6\pdl\drivers\peripheral\scb/cy_scb_common.h **** * \note
 783:Generated_Source\PSoC6\pdl\drivers\peripheral\scb/cy_scb_common.h **** * The TX FIFO clear operation also clears the shift register. Thus the shifter
 784:Generated_Source\PSoC6\pdl\drivers\peripheral\scb/cy_scb_common.h **** * could be cleared in the middle of a data element transfer. Thia results in
 785:Generated_Source\PSoC6\pdl\drivers\peripheral\scb/cy_scb_common.h **** * "ones" being sent on the bus for the remainder of the transfer.
 786:Generated_Source\PSoC6\pdl\drivers\peripheral\scb/cy_scb_common.h **** *
 787:Generated_Source\PSoC6\pdl\drivers\peripheral\scb/cy_scb_common.h **** *******************************************************************************/
 788:Generated_Source\PSoC6\pdl\drivers\peripheral\scb/cy_scb_common.h **** __STATIC_INLINE void Cy_SCB_ClearTxFifo(CySCB_Type *base)
 789:Generated_Source\PSoC6\pdl\drivers\peripheral\scb/cy_scb_common.h **** {
 196              		.loc 1 789 0
 197              		.cfi_startproc
 198              		@ args = 0, pretend = 0, frame = 8
 199              		@ frame_needed = 1, uses_anonymous_args = 0
 200 0000 80B5     		push	{r7, lr}
 201              		.cfi_def_cfa_offset 8
 202              		.cfi_offset 7, -8
 203              		.cfi_offset 14, -4
 204 0002 82B0     		sub	sp, sp, #8
 205              		.cfi_def_cfa_offset 16
 206 0004 00AF     		add	r7, sp, #0
 207              		.cfi_def_cfa_register 7
 208 0006 7860     		str	r0, [r7, #4]
 790:Generated_Source\PSoC6\pdl\drivers\peripheral\scb/cy_scb_common.h ****     base->TX_FIFO_CTRL |= (uint32_t)  SCB_TX_FIFO_CTRL_CLEAR_Msk;
 209              		.loc 1 790 0
 210 0008 7A68     		ldr	r2, [r7, #4]
 211 000a 8123     		movs	r3, #129
 212 000c 9B00     		lsls	r3, r3, #2
 213 000e D358     		ldr	r3, [r2, r3]
 214 0010 8022     		movs	r2, #128
 215 0012 5202     		lsls	r2, r2, #9
 216 0014 1A43     		orrs	r2, r3
 217 0016 1100     		movs	r1, r2
 218 0018 7A68     		ldr	r2, [r7, #4]
 219 001a 8123     		movs	r3, #129
 220 001c 9B00     		lsls	r3, r3, #2
 221 001e D150     		str	r1, [r2, r3]
 791:Generated_Source\PSoC6\pdl\drivers\peripheral\scb/cy_scb_common.h ****     base->TX_FIFO_CTRL &= (uint32_t) ~SCB_TX_FIFO_CTRL_CLEAR_Msk;
 222              		.loc 1 791 0
 223 0020 7A68     		ldr	r2, [r7, #4]
 224 0022 8123     		movs	r3, #129
 225 0024 9B00     		lsls	r3, r3, #2
 226 0026 D358     		ldr	r3, [r2, r3]
 227 0028 074A     		ldr	r2, .L11
ARM GAS  C:\Users\salaz\AppData\Local\Temp\ccU0pQaU.s 			page 19


 228 002a 1340     		ands	r3, r2
 229 002c 1900     		movs	r1, r3
 230 002e 7A68     		ldr	r2, [r7, #4]
 231 0030 8123     		movs	r3, #129
 232 0032 9B00     		lsls	r3, r3, #2
 233 0034 D150     		str	r1, [r2, r3]
 792:Generated_Source\PSoC6\pdl\drivers\peripheral\scb/cy_scb_common.h **** 
 793:Generated_Source\PSoC6\pdl\drivers\peripheral\scb/cy_scb_common.h ****     (void) base->TX_FIFO_CTRL;
 234              		.loc 1 793 0
 235 0036 7A68     		ldr	r2, [r7, #4]
 236 0038 8123     		movs	r3, #129
 237 003a 9B00     		lsls	r3, r3, #2
 238 003c D358     		ldr	r3, [r2, r3]
 794:Generated_Source\PSoC6\pdl\drivers\peripheral\scb/cy_scb_common.h **** }
 239              		.loc 1 794 0
 240 003e C046     		nop
 241 0040 BD46     		mov	sp, r7
 242 0042 02B0     		add	sp, sp, #8
 243              		@ sp needed
 244 0044 80BD     		pop	{r7, pc}
 245              	.L12:
 246 0046 C046     		.align	2
 247              	.L11:
 248 0048 FFFFFEFF 		.word	-65537
 249              		.cfi_endproc
 250              	.LFE79:
 251              		.size	Cy_SCB_ClearTxFifo, .-Cy_SCB_ClearTxFifo
 252              		.section	.text.Cy_SCB_SetRxInterruptMask,"ax",%progbits
 253              		.align	2
 254              		.code	16
 255              		.thumb_func
 256              		.type	Cy_SCB_SetRxInterruptMask, %function
 257              	Cy_SCB_SetRxInterruptMask:
 258              	.LFB83:
 795:Generated_Source\PSoC6\pdl\drivers\peripheral\scb/cy_scb_common.h **** 
 796:Generated_Source\PSoC6\pdl\drivers\peripheral\scb/cy_scb_common.h **** 
 797:Generated_Source\PSoC6\pdl\drivers\peripheral\scb/cy_scb_common.h **** /*******************************************************************************
 798:Generated_Source\PSoC6\pdl\drivers\peripheral\scb/cy_scb_common.h **** * Function Name: Cy_SCB_SetByteMode
 799:Generated_Source\PSoC6\pdl\drivers\peripheral\scb/cy_scb_common.h **** ****************************************************************************//**
 800:Generated_Source\PSoC6\pdl\drivers\peripheral\scb/cy_scb_common.h **** *
 801:Generated_Source\PSoC6\pdl\drivers\peripheral\scb/cy_scb_common.h **** * Sets whether the RX and TX FIFOs are in byte mode.
 802:Generated_Source\PSoC6\pdl\drivers\peripheral\scb/cy_scb_common.h **** * The FIFOs are either 16-bit wide or 8-bit wide (byte mode).
 803:Generated_Source\PSoC6\pdl\drivers\peripheral\scb/cy_scb_common.h **** * When the FIFO is in byte mode it is twice as deep. See the device datasheet
 804:Generated_Source\PSoC6\pdl\drivers\peripheral\scb/cy_scb_common.h **** * for FIFO depths.
 805:Generated_Source\PSoC6\pdl\drivers\peripheral\scb/cy_scb_common.h **** *
 806:Generated_Source\PSoC6\pdl\drivers\peripheral\scb/cy_scb_common.h **** * \param base
 807:Generated_Source\PSoC6\pdl\drivers\peripheral\scb/cy_scb_common.h **** * The pointer to the SCB instance.
 808:Generated_Source\PSoC6\pdl\drivers\peripheral\scb/cy_scb_common.h **** *
 809:Generated_Source\PSoC6\pdl\drivers\peripheral\scb/cy_scb_common.h **** * \param byteMode
 810:Generated_Source\PSoC6\pdl\drivers\peripheral\scb/cy_scb_common.h **** * If true, TX and RX FIFOs are 8-bit wide. If false, the FIFOs are 16-bit wide.
 811:Generated_Source\PSoC6\pdl\drivers\peripheral\scb/cy_scb_common.h **** *
 812:Generated_Source\PSoC6\pdl\drivers\peripheral\scb/cy_scb_common.h **** *******************************************************************************/
 813:Generated_Source\PSoC6\pdl\drivers\peripheral\scb/cy_scb_common.h **** __STATIC_INLINE void Cy_SCB_SetByteMode(CySCB_Type *base, bool byteMode)
 814:Generated_Source\PSoC6\pdl\drivers\peripheral\scb/cy_scb_common.h **** {
 815:Generated_Source\PSoC6\pdl\drivers\peripheral\scb/cy_scb_common.h ****     if (byteMode)
 816:Generated_Source\PSoC6\pdl\drivers\peripheral\scb/cy_scb_common.h ****     {
 817:Generated_Source\PSoC6\pdl\drivers\peripheral\scb/cy_scb_common.h ****         base->CTRL |=  SCB_CTRL_BYTE_MODE_Msk;
ARM GAS  C:\Users\salaz\AppData\Local\Temp\ccU0pQaU.s 			page 20


 818:Generated_Source\PSoC6\pdl\drivers\peripheral\scb/cy_scb_common.h ****     }
 819:Generated_Source\PSoC6\pdl\drivers\peripheral\scb/cy_scb_common.h ****     else
 820:Generated_Source\PSoC6\pdl\drivers\peripheral\scb/cy_scb_common.h ****     {
 821:Generated_Source\PSoC6\pdl\drivers\peripheral\scb/cy_scb_common.h ****         base->CTRL &= ~SCB_CTRL_BYTE_MODE_Msk;
 822:Generated_Source\PSoC6\pdl\drivers\peripheral\scb/cy_scb_common.h ****     }
 823:Generated_Source\PSoC6\pdl\drivers\peripheral\scb/cy_scb_common.h **** }
 824:Generated_Source\PSoC6\pdl\drivers\peripheral\scb/cy_scb_common.h **** 
 825:Generated_Source\PSoC6\pdl\drivers\peripheral\scb/cy_scb_common.h **** 
 826:Generated_Source\PSoC6\pdl\drivers\peripheral\scb/cy_scb_common.h **** /*******************************************************************************
 827:Generated_Source\PSoC6\pdl\drivers\peripheral\scb/cy_scb_common.h **** * Function Name: Cy_SCB_GetInterruptCause
 828:Generated_Source\PSoC6\pdl\drivers\peripheral\scb/cy_scb_common.h **** ****************************************************************************//**
 829:Generated_Source\PSoC6\pdl\drivers\peripheral\scb/cy_scb_common.h **** *
 830:Generated_Source\PSoC6\pdl\drivers\peripheral\scb/cy_scb_common.h **** * Returns the mask of bits showing the source of the current triggered
 831:Generated_Source\PSoC6\pdl\drivers\peripheral\scb/cy_scb_common.h **** * interrupt. This is useful for modes of operation where an interrupt can
 832:Generated_Source\PSoC6\pdl\drivers\peripheral\scb/cy_scb_common.h **** * be generated by conditions in multiple interrupt source registers.
 833:Generated_Source\PSoC6\pdl\drivers\peripheral\scb/cy_scb_common.h **** *
 834:Generated_Source\PSoC6\pdl\drivers\peripheral\scb/cy_scb_common.h **** * \param base
 835:Generated_Source\PSoC6\pdl\drivers\peripheral\scb/cy_scb_common.h **** * The pointer to the SCB instance.
 836:Generated_Source\PSoC6\pdl\drivers\peripheral\scb/cy_scb_common.h **** *
 837:Generated_Source\PSoC6\pdl\drivers\peripheral\scb/cy_scb_common.h **** * \return
 838:Generated_Source\PSoC6\pdl\drivers\peripheral\scb/cy_scb_common.h **** * The mask with the OR of the following conditions that have been triggered.
 839:Generated_Source\PSoC6\pdl\drivers\peripheral\scb/cy_scb_common.h **** * See \ref group_scb_common_macros_intr_cause for the set of constants.
 840:Generated_Source\PSoC6\pdl\drivers\peripheral\scb/cy_scb_common.h **** *
 841:Generated_Source\PSoC6\pdl\drivers\peripheral\scb/cy_scb_common.h **** *******************************************************************************/
 842:Generated_Source\PSoC6\pdl\drivers\peripheral\scb/cy_scb_common.h **** __STATIC_INLINE uint32_t Cy_SCB_GetInterruptCause(CySCB_Type const *base)
 843:Generated_Source\PSoC6\pdl\drivers\peripheral\scb/cy_scb_common.h **** {
 844:Generated_Source\PSoC6\pdl\drivers\peripheral\scb/cy_scb_common.h ****     return (base->INTR_CAUSE);
 845:Generated_Source\PSoC6\pdl\drivers\peripheral\scb/cy_scb_common.h **** }
 846:Generated_Source\PSoC6\pdl\drivers\peripheral\scb/cy_scb_common.h **** 
 847:Generated_Source\PSoC6\pdl\drivers\peripheral\scb/cy_scb_common.h **** 
 848:Generated_Source\PSoC6\pdl\drivers\peripheral\scb/cy_scb_common.h **** /*******************************************************************************
 849:Generated_Source\PSoC6\pdl\drivers\peripheral\scb/cy_scb_common.h **** * Function Name: Cy_SCB_GetRxInterruptStatus
 850:Generated_Source\PSoC6\pdl\drivers\peripheral\scb/cy_scb_common.h **** ****************************************************************************//**
 851:Generated_Source\PSoC6\pdl\drivers\peripheral\scb/cy_scb_common.h **** *
 852:Generated_Source\PSoC6\pdl\drivers\peripheral\scb/cy_scb_common.h **** * Returns the RX interrupt request register. This register contains the current
 853:Generated_Source\PSoC6\pdl\drivers\peripheral\scb/cy_scb_common.h **** * status of the RX interrupt sources.
 854:Generated_Source\PSoC6\pdl\drivers\peripheral\scb/cy_scb_common.h **** *
 855:Generated_Source\PSoC6\pdl\drivers\peripheral\scb/cy_scb_common.h **** * \param base
 856:Generated_Source\PSoC6\pdl\drivers\peripheral\scb/cy_scb_common.h **** * The pointer to the SCB instance.
 857:Generated_Source\PSoC6\pdl\drivers\peripheral\scb/cy_scb_common.h **** *
 858:Generated_Source\PSoC6\pdl\drivers\peripheral\scb/cy_scb_common.h **** * \return
 859:Generated_Source\PSoC6\pdl\drivers\peripheral\scb/cy_scb_common.h **** * The current status of the RX interrupt sources. Each constant is a bit field
 860:Generated_Source\PSoC6\pdl\drivers\peripheral\scb/cy_scb_common.h **** * value. The value returned may have multiple bits set to indicate the
 861:Generated_Source\PSoC6\pdl\drivers\peripheral\scb/cy_scb_common.h **** * current status.
 862:Generated_Source\PSoC6\pdl\drivers\peripheral\scb/cy_scb_common.h **** * See \ref group_scb_common_macros_rx_intr for the set of constants.
 863:Generated_Source\PSoC6\pdl\drivers\peripheral\scb/cy_scb_common.h **** *
 864:Generated_Source\PSoC6\pdl\drivers\peripheral\scb/cy_scb_common.h **** *******************************************************************************/
 865:Generated_Source\PSoC6\pdl\drivers\peripheral\scb/cy_scb_common.h **** __STATIC_INLINE uint32_t Cy_SCB_GetRxInterruptStatus(CySCB_Type const *base)
 866:Generated_Source\PSoC6\pdl\drivers\peripheral\scb/cy_scb_common.h **** {
 867:Generated_Source\PSoC6\pdl\drivers\peripheral\scb/cy_scb_common.h ****     return (base->INTR_RX & CY_SCB_RX_INTR_MASK);
 868:Generated_Source\PSoC6\pdl\drivers\peripheral\scb/cy_scb_common.h **** }
 869:Generated_Source\PSoC6\pdl\drivers\peripheral\scb/cy_scb_common.h **** 
 870:Generated_Source\PSoC6\pdl\drivers\peripheral\scb/cy_scb_common.h **** 
 871:Generated_Source\PSoC6\pdl\drivers\peripheral\scb/cy_scb_common.h **** /*******************************************************************************
 872:Generated_Source\PSoC6\pdl\drivers\peripheral\scb/cy_scb_common.h **** * Function Name: Cy_SCB_SetRxInterruptMask
 873:Generated_Source\PSoC6\pdl\drivers\peripheral\scb/cy_scb_common.h **** ****************************************************************************//**
 874:Generated_Source\PSoC6\pdl\drivers\peripheral\scb/cy_scb_common.h **** *
ARM GAS  C:\Users\salaz\AppData\Local\Temp\ccU0pQaU.s 			page 21


 875:Generated_Source\PSoC6\pdl\drivers\peripheral\scb/cy_scb_common.h **** * Writes the RX interrupt mask register. This register configures which bits
 876:Generated_Source\PSoC6\pdl\drivers\peripheral\scb/cy_scb_common.h **** * from the RX interrupt request register can trigger an interrupt event.
 877:Generated_Source\PSoC6\pdl\drivers\peripheral\scb/cy_scb_common.h **** *
 878:Generated_Source\PSoC6\pdl\drivers\peripheral\scb/cy_scb_common.h **** * \param base
 879:Generated_Source\PSoC6\pdl\drivers\peripheral\scb/cy_scb_common.h **** * The pointer to the SCB instance.
 880:Generated_Source\PSoC6\pdl\drivers\peripheral\scb/cy_scb_common.h **** *
 881:Generated_Source\PSoC6\pdl\drivers\peripheral\scb/cy_scb_common.h **** * \param interruptMask
 882:Generated_Source\PSoC6\pdl\drivers\peripheral\scb/cy_scb_common.h **** * Enabled RX interrupt sources.
 883:Generated_Source\PSoC6\pdl\drivers\peripheral\scb/cy_scb_common.h **** * See \ref group_scb_common_macros_rx_intr.
 884:Generated_Source\PSoC6\pdl\drivers\peripheral\scb/cy_scb_common.h **** *
 885:Generated_Source\PSoC6\pdl\drivers\peripheral\scb/cy_scb_common.h **** *******************************************************************************/
 886:Generated_Source\PSoC6\pdl\drivers\peripheral\scb/cy_scb_common.h **** __STATIC_INLINE void Cy_SCB_SetRxInterruptMask(CySCB_Type *base, uint32_t interruptMask)
 887:Generated_Source\PSoC6\pdl\drivers\peripheral\scb/cy_scb_common.h **** {
 259              		.loc 1 887 0
 260              		.cfi_startproc
 261              		@ args = 0, pretend = 0, frame = 8
 262              		@ frame_needed = 1, uses_anonymous_args = 0
 263 0000 80B5     		push	{r7, lr}
 264              		.cfi_def_cfa_offset 8
 265              		.cfi_offset 7, -8
 266              		.cfi_offset 14, -4
 267 0002 82B0     		sub	sp, sp, #8
 268              		.cfi_def_cfa_offset 16
 269 0004 00AF     		add	r7, sp, #0
 270              		.cfi_def_cfa_register 7
 271 0006 7860     		str	r0, [r7, #4]
 272 0008 3960     		str	r1, [r7]
 888:Generated_Source\PSoC6\pdl\drivers\peripheral\scb/cy_scb_common.h ****     CY_ASSERT_L2(CY_SCB_IS_INTR_VALID(interruptMask, CY_SCB_RX_INTR_MASK));
 273              		.loc 1 888 0
 274 000a 3B68     		ldr	r3, [r7]
 275 000c 084A     		ldr	r2, .L15
 276 000e 1340     		ands	r3, r2
 277 0010 06D0     		beq	.L14
 278              		.loc 1 888 0 is_stmt 0 discriminator 1
 279 0012 DE23     		movs	r3, #222
 280 0014 9A00     		lsls	r2, r3, #2
 281 0016 074B     		ldr	r3, .L15+4
 282 0018 1100     		movs	r1, r2
 283 001a 1800     		movs	r0, r3
 284 001c FFF7FEFF 		bl	Cy_SysLib_AssertFailed
 285              	.L14:
 889:Generated_Source\PSoC6\pdl\drivers\peripheral\scb/cy_scb_common.h **** 
 890:Generated_Source\PSoC6\pdl\drivers\peripheral\scb/cy_scb_common.h ****     base->INTR_RX_MASK = interruptMask;
 286              		.loc 1 890 0 is_stmt 1
 287 0020 7B68     		ldr	r3, [r7, #4]
 288 0022 0549     		ldr	r1, .L15+8
 289 0024 3A68     		ldr	r2, [r7]
 290 0026 5A50     		str	r2, [r3, r1]
 891:Generated_Source\PSoC6\pdl\drivers\peripheral\scb/cy_scb_common.h **** }
 291              		.loc 1 891 0
 292 0028 C046     		nop
 293 002a BD46     		mov	sp, r7
 294 002c 02B0     		add	sp, sp, #8
 295              		@ sp needed
 296 002e 80BD     		pop	{r7, pc}
 297              	.L16:
 298              		.align	2
ARM GAS  C:\Users\salaz\AppData\Local\Temp\ccU0pQaU.s 			page 22


 299              	.L15:
 300 0030 92F4FFFF 		.word	-2926
 301 0034 00000000 		.word	.LC0
 302 0038 C80F0000 		.word	4040
 303              		.cfi_endproc
 304              	.LFE83:
 305              		.size	Cy_SCB_SetRxInterruptMask, .-Cy_SCB_SetRxInterruptMask
 306              		.section	.text.Cy_SCB_GetRxInterruptStatusMasked,"ax",%progbits
 307              		.align	2
 308              		.code	16
 309              		.thumb_func
 310              		.type	Cy_SCB_GetRxInterruptStatusMasked, %function
 311              	Cy_SCB_GetRxInterruptStatusMasked:
 312              	.LFB85:
 892:Generated_Source\PSoC6\pdl\drivers\peripheral\scb/cy_scb_common.h **** 
 893:Generated_Source\PSoC6\pdl\drivers\peripheral\scb/cy_scb_common.h **** 
 894:Generated_Source\PSoC6\pdl\drivers\peripheral\scb/cy_scb_common.h **** /*******************************************************************************
 895:Generated_Source\PSoC6\pdl\drivers\peripheral\scb/cy_scb_common.h **** * Function Name: Cy_SCB_GetRxInterruptMask
 896:Generated_Source\PSoC6\pdl\drivers\peripheral\scb/cy_scb_common.h **** ****************************************************************************//**
 897:Generated_Source\PSoC6\pdl\drivers\peripheral\scb/cy_scb_common.h **** *
 898:Generated_Source\PSoC6\pdl\drivers\peripheral\scb/cy_scb_common.h **** * Returns the RX interrupt mask register. This register specifies which bits
 899:Generated_Source\PSoC6\pdl\drivers\peripheral\scb/cy_scb_common.h **** * from the RX interrupt request register trigger can an interrupt event.
 900:Generated_Source\PSoC6\pdl\drivers\peripheral\scb/cy_scb_common.h **** *
 901:Generated_Source\PSoC6\pdl\drivers\peripheral\scb/cy_scb_common.h **** * \param base
 902:Generated_Source\PSoC6\pdl\drivers\peripheral\scb/cy_scb_common.h **** * The pointer to the SCB instance.
 903:Generated_Source\PSoC6\pdl\drivers\peripheral\scb/cy_scb_common.h **** *
 904:Generated_Source\PSoC6\pdl\drivers\peripheral\scb/cy_scb_common.h **** * \return
 905:Generated_Source\PSoC6\pdl\drivers\peripheral\scb/cy_scb_common.h **** * Enabled RX interrupt sources.
 906:Generated_Source\PSoC6\pdl\drivers\peripheral\scb/cy_scb_common.h **** * See \ref group_scb_common_macros_rx_intr for the set of constants.
 907:Generated_Source\PSoC6\pdl\drivers\peripheral\scb/cy_scb_common.h **** *
 908:Generated_Source\PSoC6\pdl\drivers\peripheral\scb/cy_scb_common.h **** *******************************************************************************/
 909:Generated_Source\PSoC6\pdl\drivers\peripheral\scb/cy_scb_common.h **** __STATIC_INLINE uint32_t Cy_SCB_GetRxInterruptMask(CySCB_Type const *base)
 910:Generated_Source\PSoC6\pdl\drivers\peripheral\scb/cy_scb_common.h **** {
 911:Generated_Source\PSoC6\pdl\drivers\peripheral\scb/cy_scb_common.h ****     return (base->INTR_RX_MASK);
 912:Generated_Source\PSoC6\pdl\drivers\peripheral\scb/cy_scb_common.h **** }
 913:Generated_Source\PSoC6\pdl\drivers\peripheral\scb/cy_scb_common.h **** 
 914:Generated_Source\PSoC6\pdl\drivers\peripheral\scb/cy_scb_common.h **** 
 915:Generated_Source\PSoC6\pdl\drivers\peripheral\scb/cy_scb_common.h **** /*******************************************************************************
 916:Generated_Source\PSoC6\pdl\drivers\peripheral\scb/cy_scb_common.h **** * Function Name: Cy_SCB_GetRxInterruptStatusMasked
 917:Generated_Source\PSoC6\pdl\drivers\peripheral\scb/cy_scb_common.h **** ****************************************************************************//**
 918:Generated_Source\PSoC6\pdl\drivers\peripheral\scb/cy_scb_common.h **** *
 919:Generated_Source\PSoC6\pdl\drivers\peripheral\scb/cy_scb_common.h **** * Returns the RX interrupt masked request register. This register contains
 920:Generated_Source\PSoC6\pdl\drivers\peripheral\scb/cy_scb_common.h **** * a logical AND of corresponding bits from the RX interrupt request and
 921:Generated_Source\PSoC6\pdl\drivers\peripheral\scb/cy_scb_common.h **** * mask registers.
 922:Generated_Source\PSoC6\pdl\drivers\peripheral\scb/cy_scb_common.h **** * This function is intended to be used in the interrupt service routine to
 923:Generated_Source\PSoC6\pdl\drivers\peripheral\scb/cy_scb_common.h **** * identify which of the enabled RX interrupt sources caused the interrupt event.
 924:Generated_Source\PSoC6\pdl\drivers\peripheral\scb/cy_scb_common.h **** *
 925:Generated_Source\PSoC6\pdl\drivers\peripheral\scb/cy_scb_common.h **** * \param base
 926:Generated_Source\PSoC6\pdl\drivers\peripheral\scb/cy_scb_common.h **** * The pointer to the SCB instance.
 927:Generated_Source\PSoC6\pdl\drivers\peripheral\scb/cy_scb_common.h **** *
 928:Generated_Source\PSoC6\pdl\drivers\peripheral\scb/cy_scb_common.h **** * \return
 929:Generated_Source\PSoC6\pdl\drivers\peripheral\scb/cy_scb_common.h **** * The current status of enabled RX interrupt sources.
 930:Generated_Source\PSoC6\pdl\drivers\peripheral\scb/cy_scb_common.h **** * See \ref group_scb_common_macros_rx_intr for the set of constants.
 931:Generated_Source\PSoC6\pdl\drivers\peripheral\scb/cy_scb_common.h **** *
 932:Generated_Source\PSoC6\pdl\drivers\peripheral\scb/cy_scb_common.h **** *******************************************************************************/
 933:Generated_Source\PSoC6\pdl\drivers\peripheral\scb/cy_scb_common.h **** __STATIC_INLINE uint32_t Cy_SCB_GetRxInterruptStatusMasked(CySCB_Type const *base)
 934:Generated_Source\PSoC6\pdl\drivers\peripheral\scb/cy_scb_common.h **** {
ARM GAS  C:\Users\salaz\AppData\Local\Temp\ccU0pQaU.s 			page 23


 313              		.loc 1 934 0
 314              		.cfi_startproc
 315              		@ args = 0, pretend = 0, frame = 8
 316              		@ frame_needed = 1, uses_anonymous_args = 0
 317 0000 80B5     		push	{r7, lr}
 318              		.cfi_def_cfa_offset 8
 319              		.cfi_offset 7, -8
 320              		.cfi_offset 14, -4
 321 0002 82B0     		sub	sp, sp, #8
 322              		.cfi_def_cfa_offset 16
 323 0004 00AF     		add	r7, sp, #0
 324              		.cfi_def_cfa_register 7
 325 0006 7860     		str	r0, [r7, #4]
 935:Generated_Source\PSoC6\pdl\drivers\peripheral\scb/cy_scb_common.h ****     return (base->INTR_RX_MASKED);
 326              		.loc 1 935 0
 327 0008 7B68     		ldr	r3, [r7, #4]
 328 000a 034A     		ldr	r2, .L19
 329 000c 9B58     		ldr	r3, [r3, r2]
 936:Generated_Source\PSoC6\pdl\drivers\peripheral\scb/cy_scb_common.h **** }
 330              		.loc 1 936 0
 331 000e 1800     		movs	r0, r3
 332 0010 BD46     		mov	sp, r7
 333 0012 02B0     		add	sp, sp, #8
 334              		@ sp needed
 335 0014 80BD     		pop	{r7, pc}
 336              	.L20:
 337 0016 C046     		.align	2
 338              	.L19:
 339 0018 CC0F0000 		.word	4044
 340              		.cfi_endproc
 341              	.LFE85:
 342              		.size	Cy_SCB_GetRxInterruptStatusMasked, .-Cy_SCB_GetRxInterruptStatusMasked
 343              		.section	.text.Cy_SCB_ClearRxInterrupt,"ax",%progbits
 344              		.align	2
 345              		.code	16
 346              		.thumb_func
 347              		.type	Cy_SCB_ClearRxInterrupt, %function
 348              	Cy_SCB_ClearRxInterrupt:
 349              	.LFB86:
 937:Generated_Source\PSoC6\pdl\drivers\peripheral\scb/cy_scb_common.h **** 
 938:Generated_Source\PSoC6\pdl\drivers\peripheral\scb/cy_scb_common.h **** 
 939:Generated_Source\PSoC6\pdl\drivers\peripheral\scb/cy_scb_common.h **** /*******************************************************************************
 940:Generated_Source\PSoC6\pdl\drivers\peripheral\scb/cy_scb_common.h **** * Function Name: Cy_SCB_ClearRxInterrupt
 941:Generated_Source\PSoC6\pdl\drivers\peripheral\scb/cy_scb_common.h **** ****************************************************************************//**
 942:Generated_Source\PSoC6\pdl\drivers\peripheral\scb/cy_scb_common.h **** *
 943:Generated_Source\PSoC6\pdl\drivers\peripheral\scb/cy_scb_common.h **** * Clears the RX interrupt sources in the interrupt request register.
 944:Generated_Source\PSoC6\pdl\drivers\peripheral\scb/cy_scb_common.h **** *
 945:Generated_Source\PSoC6\pdl\drivers\peripheral\scb/cy_scb_common.h **** * \param base
 946:Generated_Source\PSoC6\pdl\drivers\peripheral\scb/cy_scb_common.h **** * The pointer to the SCB instance.
 947:Generated_Source\PSoC6\pdl\drivers\peripheral\scb/cy_scb_common.h **** *
 948:Generated_Source\PSoC6\pdl\drivers\peripheral\scb/cy_scb_common.h **** * \param interruptMask
 949:Generated_Source\PSoC6\pdl\drivers\peripheral\scb/cy_scb_common.h **** * The RX interrupt sources to be cleared.
 950:Generated_Source\PSoC6\pdl\drivers\peripheral\scb/cy_scb_common.h **** * See \ref group_scb_common_macros_rx_intr for the set of constants.
 951:Generated_Source\PSoC6\pdl\drivers\peripheral\scb/cy_scb_common.h **** *
 952:Generated_Source\PSoC6\pdl\drivers\peripheral\scb/cy_scb_common.h **** * \note
 953:Generated_Source\PSoC6\pdl\drivers\peripheral\scb/cy_scb_common.h **** *  - CY_SCB_INTR_RX_FIFO_LEVEL interrupt source is not cleared when
 954:Generated_Source\PSoC6\pdl\drivers\peripheral\scb/cy_scb_common.h **** *    the RX FIFO has more entries than the level.
ARM GAS  C:\Users\salaz\AppData\Local\Temp\ccU0pQaU.s 			page 24


 955:Generated_Source\PSoC6\pdl\drivers\peripheral\scb/cy_scb_common.h **** *  - CY_SCB_INTR_RX_NOT_EMPTY interrupt source is not cleared when the
 956:Generated_Source\PSoC6\pdl\drivers\peripheral\scb/cy_scb_common.h **** *    RX FIFO is not empty.
 957:Generated_Source\PSoC6\pdl\drivers\peripheral\scb/cy_scb_common.h **** *  - CY_SCB_INTR_RX_FULL interrupt source is not cleared when the
 958:Generated_Source\PSoC6\pdl\drivers\peripheral\scb/cy_scb_common.h **** *    RX FIFO is full.
 959:Generated_Source\PSoC6\pdl\drivers\peripheral\scb/cy_scb_common.h **** *
 960:Generated_Source\PSoC6\pdl\drivers\peripheral\scb/cy_scb_common.h **** *******************************************************************************/
 961:Generated_Source\PSoC6\pdl\drivers\peripheral\scb/cy_scb_common.h **** __STATIC_INLINE void Cy_SCB_ClearRxInterrupt(CySCB_Type *base, uint32_t interruptMask)
 962:Generated_Source\PSoC6\pdl\drivers\peripheral\scb/cy_scb_common.h **** {
 350              		.loc 1 962 0
 351              		.cfi_startproc
 352              		@ args = 0, pretend = 0, frame = 8
 353              		@ frame_needed = 1, uses_anonymous_args = 0
 354 0000 80B5     		push	{r7, lr}
 355              		.cfi_def_cfa_offset 8
 356              		.cfi_offset 7, -8
 357              		.cfi_offset 14, -4
 358 0002 82B0     		sub	sp, sp, #8
 359              		.cfi_def_cfa_offset 16
 360 0004 00AF     		add	r7, sp, #0
 361              		.cfi_def_cfa_register 7
 362 0006 7860     		str	r0, [r7, #4]
 363 0008 3960     		str	r1, [r7]
 963:Generated_Source\PSoC6\pdl\drivers\peripheral\scb/cy_scb_common.h ****     CY_ASSERT_L2(CY_SCB_IS_INTR_VALID(interruptMask, CY_SCB_RX_INTR_MASK));
 364              		.loc 1 963 0
 365 000a 3B68     		ldr	r3, [r7]
 366 000c 0A4A     		ldr	r2, .L23
 367 000e 1340     		ands	r3, r2
 368 0010 05D0     		beq	.L22
 369              		.loc 1 963 0 is_stmt 0 discriminator 1
 370 0012 0A4A     		ldr	r2, .L23+4
 371 0014 0A4B     		ldr	r3, .L23+8
 372 0016 1100     		movs	r1, r2
 373 0018 1800     		movs	r0, r3
 374 001a FFF7FEFF 		bl	Cy_SysLib_AssertFailed
 375              	.L22:
 964:Generated_Source\PSoC6\pdl\drivers\peripheral\scb/cy_scb_common.h **** 
 965:Generated_Source\PSoC6\pdl\drivers\peripheral\scb/cy_scb_common.h ****     base->INTR_RX = interruptMask;
 376              		.loc 1 965 0 is_stmt 1
 377 001e 7A68     		ldr	r2, [r7, #4]
 378 0020 FC23     		movs	r3, #252
 379 0022 1B01     		lsls	r3, r3, #4
 380 0024 3968     		ldr	r1, [r7]
 381 0026 D150     		str	r1, [r2, r3]
 966:Generated_Source\PSoC6\pdl\drivers\peripheral\scb/cy_scb_common.h ****     (void) base->INTR_RX;
 382              		.loc 1 966 0
 383 0028 7A68     		ldr	r2, [r7, #4]
 384 002a FC23     		movs	r3, #252
 385 002c 1B01     		lsls	r3, r3, #4
 386 002e D358     		ldr	r3, [r2, r3]
 967:Generated_Source\PSoC6\pdl\drivers\peripheral\scb/cy_scb_common.h **** }
 387              		.loc 1 967 0
 388 0030 C046     		nop
 389 0032 BD46     		mov	sp, r7
 390 0034 02B0     		add	sp, sp, #8
 391              		@ sp needed
 392 0036 80BD     		pop	{r7, pc}
 393              	.L24:
ARM GAS  C:\Users\salaz\AppData\Local\Temp\ccU0pQaU.s 			page 25


 394              		.align	2
 395              	.L23:
 396 0038 92F4FFFF 		.word	-2926
 397 003c C3030000 		.word	963
 398 0040 00000000 		.word	.LC0
 399              		.cfi_endproc
 400              	.LFE86:
 401              		.size	Cy_SCB_ClearRxInterrupt, .-Cy_SCB_ClearRxInterrupt
 402              		.section	.text.Cy_SCB_SetRxInterrupt,"ax",%progbits
 403              		.align	2
 404              		.code	16
 405              		.thumb_func
 406              		.type	Cy_SCB_SetRxInterrupt, %function
 407              	Cy_SCB_SetRxInterrupt:
 408              	.LFB87:
 968:Generated_Source\PSoC6\pdl\drivers\peripheral\scb/cy_scb_common.h **** 
 969:Generated_Source\PSoC6\pdl\drivers\peripheral\scb/cy_scb_common.h **** 
 970:Generated_Source\PSoC6\pdl\drivers\peripheral\scb/cy_scb_common.h **** /*******************************************************************************
 971:Generated_Source\PSoC6\pdl\drivers\peripheral\scb/cy_scb_common.h **** * Function Name: Cy_SCB_SetRxInterrupt
 972:Generated_Source\PSoC6\pdl\drivers\peripheral\scb/cy_scb_common.h **** ****************************************************************************//**
 973:Generated_Source\PSoC6\pdl\drivers\peripheral\scb/cy_scb_common.h **** *
 974:Generated_Source\PSoC6\pdl\drivers\peripheral\scb/cy_scb_common.h **** * Sets the RX interrupt sources in the interrupt request register.
 975:Generated_Source\PSoC6\pdl\drivers\peripheral\scb/cy_scb_common.h **** *
 976:Generated_Source\PSoC6\pdl\drivers\peripheral\scb/cy_scb_common.h **** * \param base
 977:Generated_Source\PSoC6\pdl\drivers\peripheral\scb/cy_scb_common.h **** * The pointer to the SCB instance.
 978:Generated_Source\PSoC6\pdl\drivers\peripheral\scb/cy_scb_common.h **** *
 979:Generated_Source\PSoC6\pdl\drivers\peripheral\scb/cy_scb_common.h **** * \param interruptMask
 980:Generated_Source\PSoC6\pdl\drivers\peripheral\scb/cy_scb_common.h **** * The RX interrupt sources to set in the RX interrupt request register.
 981:Generated_Source\PSoC6\pdl\drivers\peripheral\scb/cy_scb_common.h **** * See \ref group_scb_common_macros_rx_intr for the set of constants.
 982:Generated_Source\PSoC6\pdl\drivers\peripheral\scb/cy_scb_common.h **** *
 983:Generated_Source\PSoC6\pdl\drivers\peripheral\scb/cy_scb_common.h **** *******************************************************************************/
 984:Generated_Source\PSoC6\pdl\drivers\peripheral\scb/cy_scb_common.h **** __STATIC_INLINE void Cy_SCB_SetRxInterrupt(CySCB_Type *base, uint32_t interruptMask)
 985:Generated_Source\PSoC6\pdl\drivers\peripheral\scb/cy_scb_common.h **** {
 409              		.loc 1 985 0
 410              		.cfi_startproc
 411              		@ args = 0, pretend = 0, frame = 8
 412              		@ frame_needed = 1, uses_anonymous_args = 0
 413 0000 80B5     		push	{r7, lr}
 414              		.cfi_def_cfa_offset 8
 415              		.cfi_offset 7, -8
 416              		.cfi_offset 14, -4
 417 0002 82B0     		sub	sp, sp, #8
 418              		.cfi_def_cfa_offset 16
 419 0004 00AF     		add	r7, sp, #0
 420              		.cfi_def_cfa_register 7
 421 0006 7860     		str	r0, [r7, #4]
 422 0008 3960     		str	r1, [r7]
 986:Generated_Source\PSoC6\pdl\drivers\peripheral\scb/cy_scb_common.h ****     CY_ASSERT_L2(CY_SCB_IS_INTR_VALID(interruptMask, CY_SCB_RX_INTR_MASK));
 423              		.loc 1 986 0
 424 000a 3B68     		ldr	r3, [r7]
 425 000c 084A     		ldr	r2, .L27
 426 000e 1340     		ands	r3, r2
 427 0010 05D0     		beq	.L26
 428              		.loc 1 986 0 is_stmt 0 discriminator 1
 429 0012 084A     		ldr	r2, .L27+4
 430 0014 084B     		ldr	r3, .L27+8
 431 0016 1100     		movs	r1, r2
ARM GAS  C:\Users\salaz\AppData\Local\Temp\ccU0pQaU.s 			page 26


 432 0018 1800     		movs	r0, r3
 433 001a FFF7FEFF 		bl	Cy_SysLib_AssertFailed
 434              	.L26:
 987:Generated_Source\PSoC6\pdl\drivers\peripheral\scb/cy_scb_common.h **** 
 988:Generated_Source\PSoC6\pdl\drivers\peripheral\scb/cy_scb_common.h ****     base->INTR_RX_SET = interruptMask;
 435              		.loc 1 988 0 is_stmt 1
 436 001e 7B68     		ldr	r3, [r7, #4]
 437 0020 0649     		ldr	r1, .L27+12
 438 0022 3A68     		ldr	r2, [r7]
 439 0024 5A50     		str	r2, [r3, r1]
 989:Generated_Source\PSoC6\pdl\drivers\peripheral\scb/cy_scb_common.h **** }
 440              		.loc 1 989 0
 441 0026 C046     		nop
 442 0028 BD46     		mov	sp, r7
 443 002a 02B0     		add	sp, sp, #8
 444              		@ sp needed
 445 002c 80BD     		pop	{r7, pc}
 446              	.L28:
 447 002e C046     		.align	2
 448              	.L27:
 449 0030 92F4FFFF 		.word	-2926
 450 0034 DA030000 		.word	986
 451 0038 00000000 		.word	.LC0
 452 003c C40F0000 		.word	4036
 453              		.cfi_endproc
 454              	.LFE87:
 455              		.size	Cy_SCB_SetRxInterrupt, .-Cy_SCB_SetRxInterrupt
 456              		.section	.text.Cy_SCB_SetTxInterruptMask,"ax",%progbits
 457              		.align	2
 458              		.code	16
 459              		.thumb_func
 460              		.type	Cy_SCB_SetTxInterruptMask, %function
 461              	Cy_SCB_SetTxInterruptMask:
 462              	.LFB89:
 990:Generated_Source\PSoC6\pdl\drivers\peripheral\scb/cy_scb_common.h **** 
 991:Generated_Source\PSoC6\pdl\drivers\peripheral\scb/cy_scb_common.h **** 
 992:Generated_Source\PSoC6\pdl\drivers\peripheral\scb/cy_scb_common.h **** /*******************************************************************************
 993:Generated_Source\PSoC6\pdl\drivers\peripheral\scb/cy_scb_common.h **** * Function Name: Cy_SCB_GetTxInterruptStatus
 994:Generated_Source\PSoC6\pdl\drivers\peripheral\scb/cy_scb_common.h **** ****************************************************************************//**
 995:Generated_Source\PSoC6\pdl\drivers\peripheral\scb/cy_scb_common.h **** *
 996:Generated_Source\PSoC6\pdl\drivers\peripheral\scb/cy_scb_common.h **** * Returns the TX interrupt request register. This register contains the current
 997:Generated_Source\PSoC6\pdl\drivers\peripheral\scb/cy_scb_common.h **** * status of the TX interrupt sources.
 998:Generated_Source\PSoC6\pdl\drivers\peripheral\scb/cy_scb_common.h **** *
 999:Generated_Source\PSoC6\pdl\drivers\peripheral\scb/cy_scb_common.h **** * \param base
1000:Generated_Source\PSoC6\pdl\drivers\peripheral\scb/cy_scb_common.h **** * The pointer to the SCB instance.
1001:Generated_Source\PSoC6\pdl\drivers\peripheral\scb/cy_scb_common.h **** *
1002:Generated_Source\PSoC6\pdl\drivers\peripheral\scb/cy_scb_common.h **** * \return
1003:Generated_Source\PSoC6\pdl\drivers\peripheral\scb/cy_scb_common.h **** * The current status of TX interrupt sources.
1004:Generated_Source\PSoC6\pdl\drivers\peripheral\scb/cy_scb_common.h **** * Each constant is a bit field value. The value returned may have multiple
1005:Generated_Source\PSoC6\pdl\drivers\peripheral\scb/cy_scb_common.h **** * bits set to indicate the current status.
1006:Generated_Source\PSoC6\pdl\drivers\peripheral\scb/cy_scb_common.h **** * See \ref group_scb_common_macros_tx_intr for the set of constants.
1007:Generated_Source\PSoC6\pdl\drivers\peripheral\scb/cy_scb_common.h **** *
1008:Generated_Source\PSoC6\pdl\drivers\peripheral\scb/cy_scb_common.h **** *******************************************************************************/
1009:Generated_Source\PSoC6\pdl\drivers\peripheral\scb/cy_scb_common.h **** __STATIC_INLINE uint32_t Cy_SCB_GetTxInterruptStatus(CySCB_Type const *base)
1010:Generated_Source\PSoC6\pdl\drivers\peripheral\scb/cy_scb_common.h **** {
1011:Generated_Source\PSoC6\pdl\drivers\peripheral\scb/cy_scb_common.h ****     return (base->INTR_TX & CY_SCB_TX_INTR_MASK);
1012:Generated_Source\PSoC6\pdl\drivers\peripheral\scb/cy_scb_common.h **** }
ARM GAS  C:\Users\salaz\AppData\Local\Temp\ccU0pQaU.s 			page 27


1013:Generated_Source\PSoC6\pdl\drivers\peripheral\scb/cy_scb_common.h **** 
1014:Generated_Source\PSoC6\pdl\drivers\peripheral\scb/cy_scb_common.h **** 
1015:Generated_Source\PSoC6\pdl\drivers\peripheral\scb/cy_scb_common.h **** /*******************************************************************************
1016:Generated_Source\PSoC6\pdl\drivers\peripheral\scb/cy_scb_common.h **** * Function Name: Cy_SCB_SetTxInterruptMask
1017:Generated_Source\PSoC6\pdl\drivers\peripheral\scb/cy_scb_common.h **** ****************************************************************************//**
1018:Generated_Source\PSoC6\pdl\drivers\peripheral\scb/cy_scb_common.h **** *
1019:Generated_Source\PSoC6\pdl\drivers\peripheral\scb/cy_scb_common.h **** * Writes the TX interrupt mask register. This register configures which bits
1020:Generated_Source\PSoC6\pdl\drivers\peripheral\scb/cy_scb_common.h **** * from the TX interrupt request register can trigger an interrupt event.
1021:Generated_Source\PSoC6\pdl\drivers\peripheral\scb/cy_scb_common.h **** *
1022:Generated_Source\PSoC6\pdl\drivers\peripheral\scb/cy_scb_common.h **** * \param base
1023:Generated_Source\PSoC6\pdl\drivers\peripheral\scb/cy_scb_common.h **** * The pointer to the SCB instance.
1024:Generated_Source\PSoC6\pdl\drivers\peripheral\scb/cy_scb_common.h **** *
1025:Generated_Source\PSoC6\pdl\drivers\peripheral\scb/cy_scb_common.h **** * \param interruptMask
1026:Generated_Source\PSoC6\pdl\drivers\peripheral\scb/cy_scb_common.h **** * Enabled TX interrupt sources.
1027:Generated_Source\PSoC6\pdl\drivers\peripheral\scb/cy_scb_common.h **** * See \ref group_scb_common_macros_tx_intr for the set of constants.
1028:Generated_Source\PSoC6\pdl\drivers\peripheral\scb/cy_scb_common.h **** *
1029:Generated_Source\PSoC6\pdl\drivers\peripheral\scb/cy_scb_common.h **** *******************************************************************************/
1030:Generated_Source\PSoC6\pdl\drivers\peripheral\scb/cy_scb_common.h **** __STATIC_INLINE void Cy_SCB_SetTxInterruptMask(CySCB_Type *base, uint32_t interruptMask)
1031:Generated_Source\PSoC6\pdl\drivers\peripheral\scb/cy_scb_common.h **** {
 463              		.loc 1 1031 0
 464              		.cfi_startproc
 465              		@ args = 0, pretend = 0, frame = 8
 466              		@ frame_needed = 1, uses_anonymous_args = 0
 467 0000 80B5     		push	{r7, lr}
 468              		.cfi_def_cfa_offset 8
 469              		.cfi_offset 7, -8
 470              		.cfi_offset 14, -4
 471 0002 82B0     		sub	sp, sp, #8
 472              		.cfi_def_cfa_offset 16
 473 0004 00AF     		add	r7, sp, #0
 474              		.cfi_def_cfa_register 7
 475 0006 7860     		str	r0, [r7, #4]
 476 0008 3960     		str	r1, [r7]
1032:Generated_Source\PSoC6\pdl\drivers\peripheral\scb/cy_scb_common.h ****     CY_ASSERT_L2(CY_SCB_IS_INTR_VALID(interruptMask, CY_SCB_TX_INTR_MASK));
 477              		.loc 1 1032 0
 478 000a 3B68     		ldr	r3, [r7]
 479 000c 084A     		ldr	r2, .L31
 480 000e 1340     		ands	r3, r2
 481 0010 06D0     		beq	.L30
 482              		.loc 1 1032 0 is_stmt 0 discriminator 1
 483 0012 8123     		movs	r3, #129
 484 0014 DA00     		lsls	r2, r3, #3
 485 0016 074B     		ldr	r3, .L31+4
 486 0018 1100     		movs	r1, r2
 487 001a 1800     		movs	r0, r3
 488 001c FFF7FEFF 		bl	Cy_SysLib_AssertFailed
 489              	.L30:
1033:Generated_Source\PSoC6\pdl\drivers\peripheral\scb/cy_scb_common.h **** 
1034:Generated_Source\PSoC6\pdl\drivers\peripheral\scb/cy_scb_common.h ****     base->INTR_TX_MASK = interruptMask;
 490              		.loc 1 1034 0 is_stmt 1
 491 0020 7B68     		ldr	r3, [r7, #4]
 492 0022 0549     		ldr	r1, .L31+8
 493 0024 3A68     		ldr	r2, [r7]
 494 0026 5A50     		str	r2, [r3, r1]
1035:Generated_Source\PSoC6\pdl\drivers\peripheral\scb/cy_scb_common.h **** }
 495              		.loc 1 1035 0
 496 0028 C046     		nop
ARM GAS  C:\Users\salaz\AppData\Local\Temp\ccU0pQaU.s 			page 28


 497 002a BD46     		mov	sp, r7
 498 002c 02B0     		add	sp, sp, #8
 499              		@ sp needed
 500 002e 80BD     		pop	{r7, pc}
 501              	.L32:
 502              		.align	2
 503              	.L31:
 504 0030 8CF8FFFF 		.word	-1908
 505 0034 00000000 		.word	.LC0
 506 0038 880F0000 		.word	3976
 507              		.cfi_endproc
 508              	.LFE89:
 509              		.size	Cy_SCB_SetTxInterruptMask, .-Cy_SCB_SetTxInterruptMask
 510              		.section	.text.Cy_SCB_GetTxInterruptStatusMasked,"ax",%progbits
 511              		.align	2
 512              		.code	16
 513              		.thumb_func
 514              		.type	Cy_SCB_GetTxInterruptStatusMasked, %function
 515              	Cy_SCB_GetTxInterruptStatusMasked:
 516              	.LFB91:
1036:Generated_Source\PSoC6\pdl\drivers\peripheral\scb/cy_scb_common.h **** 
1037:Generated_Source\PSoC6\pdl\drivers\peripheral\scb/cy_scb_common.h **** 
1038:Generated_Source\PSoC6\pdl\drivers\peripheral\scb/cy_scb_common.h **** /*******************************************************************************
1039:Generated_Source\PSoC6\pdl\drivers\peripheral\scb/cy_scb_common.h **** * Function Name: Cy_SCB_GetTxInterruptMask
1040:Generated_Source\PSoC6\pdl\drivers\peripheral\scb/cy_scb_common.h **** ****************************************************************************//**
1041:Generated_Source\PSoC6\pdl\drivers\peripheral\scb/cy_scb_common.h **** *
1042:Generated_Source\PSoC6\pdl\drivers\peripheral\scb/cy_scb_common.h **** * Returns the TX interrupt mask register. This register specifies which
1043:Generated_Source\PSoC6\pdl\drivers\peripheral\scb/cy_scb_common.h **** * bits from the TX interrupt request register can trigger an interrupt event.
1044:Generated_Source\PSoC6\pdl\drivers\peripheral\scb/cy_scb_common.h **** *
1045:Generated_Source\PSoC6\pdl\drivers\peripheral\scb/cy_scb_common.h **** * \param base
1046:Generated_Source\PSoC6\pdl\drivers\peripheral\scb/cy_scb_common.h **** * The pointer to the SCB instance.
1047:Generated_Source\PSoC6\pdl\drivers\peripheral\scb/cy_scb_common.h **** *
1048:Generated_Source\PSoC6\pdl\drivers\peripheral\scb/cy_scb_common.h **** * \return
1049:Generated_Source\PSoC6\pdl\drivers\peripheral\scb/cy_scb_common.h **** * Enabled TX interrupt sources.
1050:Generated_Source\PSoC6\pdl\drivers\peripheral\scb/cy_scb_common.h **** * See \ref group_scb_common_macros_tx_intr for the set of constants.
1051:Generated_Source\PSoC6\pdl\drivers\peripheral\scb/cy_scb_common.h **** *
1052:Generated_Source\PSoC6\pdl\drivers\peripheral\scb/cy_scb_common.h **** *******************************************************************************/
1053:Generated_Source\PSoC6\pdl\drivers\peripheral\scb/cy_scb_common.h **** __STATIC_INLINE uint32_t Cy_SCB_GetTxInterruptMask(CySCB_Type const *base)
1054:Generated_Source\PSoC6\pdl\drivers\peripheral\scb/cy_scb_common.h **** {
1055:Generated_Source\PSoC6\pdl\drivers\peripheral\scb/cy_scb_common.h ****     return (base->INTR_TX_MASK);
1056:Generated_Source\PSoC6\pdl\drivers\peripheral\scb/cy_scb_common.h **** }
1057:Generated_Source\PSoC6\pdl\drivers\peripheral\scb/cy_scb_common.h **** 
1058:Generated_Source\PSoC6\pdl\drivers\peripheral\scb/cy_scb_common.h **** 
1059:Generated_Source\PSoC6\pdl\drivers\peripheral\scb/cy_scb_common.h **** /*******************************************************************************
1060:Generated_Source\PSoC6\pdl\drivers\peripheral\scb/cy_scb_common.h **** * Function Name: Cy_SCB_GetTxInterruptStatusMasked
1061:Generated_Source\PSoC6\pdl\drivers\peripheral\scb/cy_scb_common.h **** ****************************************************************************//**
1062:Generated_Source\PSoC6\pdl\drivers\peripheral\scb/cy_scb_common.h **** *
1063:Generated_Source\PSoC6\pdl\drivers\peripheral\scb/cy_scb_common.h **** * Returns the TX interrupt masked request register. This register contains
1064:Generated_Source\PSoC6\pdl\drivers\peripheral\scb/cy_scb_common.h **** * a logical AND of corresponding bits from the TX interrupt request and
1065:Generated_Source\PSoC6\pdl\drivers\peripheral\scb/cy_scb_common.h **** * mask registers.
1066:Generated_Source\PSoC6\pdl\drivers\peripheral\scb/cy_scb_common.h **** * This function is intended to be used in the interrupt service routine to
1067:Generated_Source\PSoC6\pdl\drivers\peripheral\scb/cy_scb_common.h **** * identify which of enabled TX interrupt sources caused the interrupt event.
1068:Generated_Source\PSoC6\pdl\drivers\peripheral\scb/cy_scb_common.h **** *
1069:Generated_Source\PSoC6\pdl\drivers\peripheral\scb/cy_scb_common.h **** * \param base
1070:Generated_Source\PSoC6\pdl\drivers\peripheral\scb/cy_scb_common.h **** * The pointer to the SCB instance.
1071:Generated_Source\PSoC6\pdl\drivers\peripheral\scb/cy_scb_common.h **** *
1072:Generated_Source\PSoC6\pdl\drivers\peripheral\scb/cy_scb_common.h **** * \return
ARM GAS  C:\Users\salaz\AppData\Local\Temp\ccU0pQaU.s 			page 29


1073:Generated_Source\PSoC6\pdl\drivers\peripheral\scb/cy_scb_common.h **** * The current status of enabled TX interrupt sources.
1074:Generated_Source\PSoC6\pdl\drivers\peripheral\scb/cy_scb_common.h **** * See \ref group_scb_common_macros_tx_intr for the set of constants.
1075:Generated_Source\PSoC6\pdl\drivers\peripheral\scb/cy_scb_common.h **** *
1076:Generated_Source\PSoC6\pdl\drivers\peripheral\scb/cy_scb_common.h **** *******************************************************************************/
1077:Generated_Source\PSoC6\pdl\drivers\peripheral\scb/cy_scb_common.h **** __STATIC_INLINE uint32_t Cy_SCB_GetTxInterruptStatusMasked(CySCB_Type const *base)
1078:Generated_Source\PSoC6\pdl\drivers\peripheral\scb/cy_scb_common.h **** {
 517              		.loc 1 1078 0
 518              		.cfi_startproc
 519              		@ args = 0, pretend = 0, frame = 8
 520              		@ frame_needed = 1, uses_anonymous_args = 0
 521 0000 80B5     		push	{r7, lr}
 522              		.cfi_def_cfa_offset 8
 523              		.cfi_offset 7, -8
 524              		.cfi_offset 14, -4
 525 0002 82B0     		sub	sp, sp, #8
 526              		.cfi_def_cfa_offset 16
 527 0004 00AF     		add	r7, sp, #0
 528              		.cfi_def_cfa_register 7
 529 0006 7860     		str	r0, [r7, #4]
1079:Generated_Source\PSoC6\pdl\drivers\peripheral\scb/cy_scb_common.h ****     return (base->INTR_TX_MASKED);
 530              		.loc 1 1079 0
 531 0008 7B68     		ldr	r3, [r7, #4]
 532 000a 034A     		ldr	r2, .L35
 533 000c 9B58     		ldr	r3, [r3, r2]
1080:Generated_Source\PSoC6\pdl\drivers\peripheral\scb/cy_scb_common.h **** }
 534              		.loc 1 1080 0
 535 000e 1800     		movs	r0, r3
 536 0010 BD46     		mov	sp, r7
 537 0012 02B0     		add	sp, sp, #8
 538              		@ sp needed
 539 0014 80BD     		pop	{r7, pc}
 540              	.L36:
 541 0016 C046     		.align	2
 542              	.L35:
 543 0018 8C0F0000 		.word	3980
 544              		.cfi_endproc
 545              	.LFE91:
 546              		.size	Cy_SCB_GetTxInterruptStatusMasked, .-Cy_SCB_GetTxInterruptStatusMasked
 547              		.section	.text.Cy_SCB_ClearTxInterrupt,"ax",%progbits
 548              		.align	2
 549              		.code	16
 550              		.thumb_func
 551              		.type	Cy_SCB_ClearTxInterrupt, %function
 552              	Cy_SCB_ClearTxInterrupt:
 553              	.LFB92:
1081:Generated_Source\PSoC6\pdl\drivers\peripheral\scb/cy_scb_common.h **** 
1082:Generated_Source\PSoC6\pdl\drivers\peripheral\scb/cy_scb_common.h **** 
1083:Generated_Source\PSoC6\pdl\drivers\peripheral\scb/cy_scb_common.h **** /*******************************************************************************
1084:Generated_Source\PSoC6\pdl\drivers\peripheral\scb/cy_scb_common.h **** * Function Name: Cy_SCB_ClearTxInterrupt
1085:Generated_Source\PSoC6\pdl\drivers\peripheral\scb/cy_scb_common.h **** ****************************************************************************//**
1086:Generated_Source\PSoC6\pdl\drivers\peripheral\scb/cy_scb_common.h **** *
1087:Generated_Source\PSoC6\pdl\drivers\peripheral\scb/cy_scb_common.h **** * Clears the TX interrupt sources in the interrupt request register.
1088:Generated_Source\PSoC6\pdl\drivers\peripheral\scb/cy_scb_common.h **** *
1089:Generated_Source\PSoC6\pdl\drivers\peripheral\scb/cy_scb_common.h **** * \param base
1090:Generated_Source\PSoC6\pdl\drivers\peripheral\scb/cy_scb_common.h **** * The pointer to the SCB instance.
1091:Generated_Source\PSoC6\pdl\drivers\peripheral\scb/cy_scb_common.h **** *
1092:Generated_Source\PSoC6\pdl\drivers\peripheral\scb/cy_scb_common.h **** * \param interruptMask
ARM GAS  C:\Users\salaz\AppData\Local\Temp\ccU0pQaU.s 			page 30


1093:Generated_Source\PSoC6\pdl\drivers\peripheral\scb/cy_scb_common.h **** * The TX interrupt sources to be cleared.
1094:Generated_Source\PSoC6\pdl\drivers\peripheral\scb/cy_scb_common.h **** * See \ref group_scb_common_macros_tx_intr for the set of constants.
1095:Generated_Source\PSoC6\pdl\drivers\peripheral\scb/cy_scb_common.h **** *
1096:Generated_Source\PSoC6\pdl\drivers\peripheral\scb/cy_scb_common.h **** * \note
1097:Generated_Source\PSoC6\pdl\drivers\peripheral\scb/cy_scb_common.h **** *  - CY_SCB_INTR_TX_FIFO_LEVEL interrupt source is not cleared when the
1098:Generated_Source\PSoC6\pdl\drivers\peripheral\scb/cy_scb_common.h **** *    TX FIFO has fewer entries than the TX level.
1099:Generated_Source\PSoC6\pdl\drivers\peripheral\scb/cy_scb_common.h **** *  - CY_SCB_INTR_TX_NOT_FULL interrupt source is not cleared when the
1100:Generated_Source\PSoC6\pdl\drivers\peripheral\scb/cy_scb_common.h **** *    TX FIFO has empty entries in the TX FIFO.
1101:Generated_Source\PSoC6\pdl\drivers\peripheral\scb/cy_scb_common.h **** *  - CY_SCB_INTR_TX_EMPTY interrupt source is not cleared when the
1102:Generated_Source\PSoC6\pdl\drivers\peripheral\scb/cy_scb_common.h **** *    TX FIFO is empty.
1103:Generated_Source\PSoC6\pdl\drivers\peripheral\scb/cy_scb_common.h **** *  - CY_SCB_INTR_TX_UNDERFLOW interrupt source is not cleared when the
1104:Generated_Source\PSoC6\pdl\drivers\peripheral\scb/cy_scb_common.h **** *    TX FIFO is empty. Put data into the TX FIFO before clearing it.
1105:Generated_Source\PSoC6\pdl\drivers\peripheral\scb/cy_scb_common.h **** *
1106:Generated_Source\PSoC6\pdl\drivers\peripheral\scb/cy_scb_common.h **** *******************************************************************************/
1107:Generated_Source\PSoC6\pdl\drivers\peripheral\scb/cy_scb_common.h **** __STATIC_INLINE void Cy_SCB_ClearTxInterrupt(CySCB_Type *base, uint32_t interruptMask)
1108:Generated_Source\PSoC6\pdl\drivers\peripheral\scb/cy_scb_common.h **** {
 554              		.loc 1 1108 0
 555              		.cfi_startproc
 556              		@ args = 0, pretend = 0, frame = 8
 557              		@ frame_needed = 1, uses_anonymous_args = 0
 558 0000 80B5     		push	{r7, lr}
 559              		.cfi_def_cfa_offset 8
 560              		.cfi_offset 7, -8
 561              		.cfi_offset 14, -4
 562 0002 82B0     		sub	sp, sp, #8
 563              		.cfi_def_cfa_offset 16
 564 0004 00AF     		add	r7, sp, #0
 565              		.cfi_def_cfa_register 7
 566 0006 7860     		str	r0, [r7, #4]
 567 0008 3960     		str	r1, [r7]
1109:Generated_Source\PSoC6\pdl\drivers\peripheral\scb/cy_scb_common.h ****     CY_ASSERT_L2(CY_SCB_IS_INTR_VALID(interruptMask, CY_SCB_TX_INTR_MASK));
 568              		.loc 1 1109 0
 569 000a 3B68     		ldr	r3, [r7]
 570 000c 0A4A     		ldr	r2, .L39
 571 000e 1340     		ands	r3, r2
 572 0010 05D0     		beq	.L38
 573              		.loc 1 1109 0 is_stmt 0 discriminator 1
 574 0012 0A4A     		ldr	r2, .L39+4
 575 0014 0A4B     		ldr	r3, .L39+8
 576 0016 1100     		movs	r1, r2
 577 0018 1800     		movs	r0, r3
 578 001a FFF7FEFF 		bl	Cy_SysLib_AssertFailed
 579              	.L38:
1110:Generated_Source\PSoC6\pdl\drivers\peripheral\scb/cy_scb_common.h **** 
1111:Generated_Source\PSoC6\pdl\drivers\peripheral\scb/cy_scb_common.h ****     base->INTR_TX = interruptMask;
 580              		.loc 1 1111 0 is_stmt 1
 581 001e 7A68     		ldr	r2, [r7, #4]
 582 0020 F823     		movs	r3, #248
 583 0022 1B01     		lsls	r3, r3, #4
 584 0024 3968     		ldr	r1, [r7]
 585 0026 D150     		str	r1, [r2, r3]
1112:Generated_Source\PSoC6\pdl\drivers\peripheral\scb/cy_scb_common.h ****     (void) base->INTR_TX;
 586              		.loc 1 1112 0
 587 0028 7A68     		ldr	r2, [r7, #4]
 588 002a F823     		movs	r3, #248
 589 002c 1B01     		lsls	r3, r3, #4
 590 002e D358     		ldr	r3, [r2, r3]
ARM GAS  C:\Users\salaz\AppData\Local\Temp\ccU0pQaU.s 			page 31


1113:Generated_Source\PSoC6\pdl\drivers\peripheral\scb/cy_scb_common.h **** }
 591              		.loc 1 1113 0
 592 0030 C046     		nop
 593 0032 BD46     		mov	sp, r7
 594 0034 02B0     		add	sp, sp, #8
 595              		@ sp needed
 596 0036 80BD     		pop	{r7, pc}
 597              	.L40:
 598              		.align	2
 599              	.L39:
 600 0038 8CF8FFFF 		.word	-1908
 601 003c 55040000 		.word	1109
 602 0040 00000000 		.word	.LC0
 603              		.cfi_endproc
 604              	.LFE92:
 605              		.size	Cy_SCB_ClearTxInterrupt, .-Cy_SCB_ClearTxInterrupt
 606              		.section	.text.Cy_SCB_SetSlaveInterruptMask,"ax",%progbits
 607              		.align	2
 608              		.code	16
 609              		.thumb_func
 610              		.type	Cy_SCB_SetSlaveInterruptMask, %function
 611              	Cy_SCB_SetSlaveInterruptMask:
 612              	.LFB101:
1114:Generated_Source\PSoC6\pdl\drivers\peripheral\scb/cy_scb_common.h **** 
1115:Generated_Source\PSoC6\pdl\drivers\peripheral\scb/cy_scb_common.h **** 
1116:Generated_Source\PSoC6\pdl\drivers\peripheral\scb/cy_scb_common.h **** /*******************************************************************************
1117:Generated_Source\PSoC6\pdl\drivers\peripheral\scb/cy_scb_common.h **** * Function Name: Cy_SCB_SetTxInterrupt
1118:Generated_Source\PSoC6\pdl\drivers\peripheral\scb/cy_scb_common.h **** ****************************************************************************//**
1119:Generated_Source\PSoC6\pdl\drivers\peripheral\scb/cy_scb_common.h **** *
1120:Generated_Source\PSoC6\pdl\drivers\peripheral\scb/cy_scb_common.h **** * Sets TX interrupt sources in the interrupt request register.
1121:Generated_Source\PSoC6\pdl\drivers\peripheral\scb/cy_scb_common.h **** *
1122:Generated_Source\PSoC6\pdl\drivers\peripheral\scb/cy_scb_common.h **** * \param base
1123:Generated_Source\PSoC6\pdl\drivers\peripheral\scb/cy_scb_common.h **** * The pointer to the SCB instance.
1124:Generated_Source\PSoC6\pdl\drivers\peripheral\scb/cy_scb_common.h **** *
1125:Generated_Source\PSoC6\pdl\drivers\peripheral\scb/cy_scb_common.h **** * \param interruptMask
1126:Generated_Source\PSoC6\pdl\drivers\peripheral\scb/cy_scb_common.h **** * The TX interrupt sources to set in the TX interrupt request register.
1127:Generated_Source\PSoC6\pdl\drivers\peripheral\scb/cy_scb_common.h **** * See \ref group_scb_common_macros_tx_intr for the set of constants.
1128:Generated_Source\PSoC6\pdl\drivers\peripheral\scb/cy_scb_common.h **** *
1129:Generated_Source\PSoC6\pdl\drivers\peripheral\scb/cy_scb_common.h **** *******************************************************************************/
1130:Generated_Source\PSoC6\pdl\drivers\peripheral\scb/cy_scb_common.h **** __STATIC_INLINE void Cy_SCB_SetTxInterrupt(CySCB_Type *base, uint32_t interruptMask)
1131:Generated_Source\PSoC6\pdl\drivers\peripheral\scb/cy_scb_common.h **** {
1132:Generated_Source\PSoC6\pdl\drivers\peripheral\scb/cy_scb_common.h ****     CY_ASSERT_L2(CY_SCB_IS_INTR_VALID(interruptMask, CY_SCB_TX_INTR_MASK));
1133:Generated_Source\PSoC6\pdl\drivers\peripheral\scb/cy_scb_common.h **** 
1134:Generated_Source\PSoC6\pdl\drivers\peripheral\scb/cy_scb_common.h ****     base->INTR_TX_SET = interruptMask;
1135:Generated_Source\PSoC6\pdl\drivers\peripheral\scb/cy_scb_common.h **** }
1136:Generated_Source\PSoC6\pdl\drivers\peripheral\scb/cy_scb_common.h **** 
1137:Generated_Source\PSoC6\pdl\drivers\peripheral\scb/cy_scb_common.h **** 
1138:Generated_Source\PSoC6\pdl\drivers\peripheral\scb/cy_scb_common.h **** /*******************************************************************************
1139:Generated_Source\PSoC6\pdl\drivers\peripheral\scb/cy_scb_common.h **** * Function Name: Cy_SCB_GetMasterInterruptStatus
1140:Generated_Source\PSoC6\pdl\drivers\peripheral\scb/cy_scb_common.h **** ****************************************************************************//**
1141:Generated_Source\PSoC6\pdl\drivers\peripheral\scb/cy_scb_common.h **** *
1142:Generated_Source\PSoC6\pdl\drivers\peripheral\scb/cy_scb_common.h **** * Returns the master interrupt request register. This register contains the current
1143:Generated_Source\PSoC6\pdl\drivers\peripheral\scb/cy_scb_common.h **** * status of the master interrupt sources.
1144:Generated_Source\PSoC6\pdl\drivers\peripheral\scb/cy_scb_common.h **** *
1145:Generated_Source\PSoC6\pdl\drivers\peripheral\scb/cy_scb_common.h **** * \param base
1146:Generated_Source\PSoC6\pdl\drivers\peripheral\scb/cy_scb_common.h **** * The pointer to the SCB instance.
1147:Generated_Source\PSoC6\pdl\drivers\peripheral\scb/cy_scb_common.h **** *
ARM GAS  C:\Users\salaz\AppData\Local\Temp\ccU0pQaU.s 			page 32


1148:Generated_Source\PSoC6\pdl\drivers\peripheral\scb/cy_scb_common.h **** * \return
1149:Generated_Source\PSoC6\pdl\drivers\peripheral\scb/cy_scb_common.h **** * The current status of the master interrupt sources.
1150:Generated_Source\PSoC6\pdl\drivers\peripheral\scb/cy_scb_common.h **** * Each constant is a bit field value. The value returned may have multiple
1151:Generated_Source\PSoC6\pdl\drivers\peripheral\scb/cy_scb_common.h **** * bits set to indicate the current status.
1152:Generated_Source\PSoC6\pdl\drivers\peripheral\scb/cy_scb_common.h **** * See \ref group_scb_common_macros_master_intr for the set of constants.
1153:Generated_Source\PSoC6\pdl\drivers\peripheral\scb/cy_scb_common.h **** *
1154:Generated_Source\PSoC6\pdl\drivers\peripheral\scb/cy_scb_common.h **** *******************************************************************************/
1155:Generated_Source\PSoC6\pdl\drivers\peripheral\scb/cy_scb_common.h **** __STATIC_INLINE uint32_t Cy_SCB_GetMasterInterruptStatus(CySCB_Type const *base)
1156:Generated_Source\PSoC6\pdl\drivers\peripheral\scb/cy_scb_common.h **** {
1157:Generated_Source\PSoC6\pdl\drivers\peripheral\scb/cy_scb_common.h ****     return (base->INTR_M & CY_SCB_MASTER_INTR_MASK);
1158:Generated_Source\PSoC6\pdl\drivers\peripheral\scb/cy_scb_common.h **** }
1159:Generated_Source\PSoC6\pdl\drivers\peripheral\scb/cy_scb_common.h **** 
1160:Generated_Source\PSoC6\pdl\drivers\peripheral\scb/cy_scb_common.h **** 
1161:Generated_Source\PSoC6\pdl\drivers\peripheral\scb/cy_scb_common.h **** /*******************************************************************************
1162:Generated_Source\PSoC6\pdl\drivers\peripheral\scb/cy_scb_common.h **** * Function Name: Cy_SCB_SetMasterInterruptMask
1163:Generated_Source\PSoC6\pdl\drivers\peripheral\scb/cy_scb_common.h **** ****************************************************************************//**
1164:Generated_Source\PSoC6\pdl\drivers\peripheral\scb/cy_scb_common.h **** *
1165:Generated_Source\PSoC6\pdl\drivers\peripheral\scb/cy_scb_common.h **** * Writes the master interrupt mask register. This register specifies which bits
1166:Generated_Source\PSoC6\pdl\drivers\peripheral\scb/cy_scb_common.h **** * from the master interrupt request register can trigger an interrupt event.
1167:Generated_Source\PSoC6\pdl\drivers\peripheral\scb/cy_scb_common.h **** *
1168:Generated_Source\PSoC6\pdl\drivers\peripheral\scb/cy_scb_common.h **** * \param base
1169:Generated_Source\PSoC6\pdl\drivers\peripheral\scb/cy_scb_common.h **** * The pointer to the SCB instance.
1170:Generated_Source\PSoC6\pdl\drivers\peripheral\scb/cy_scb_common.h **** *
1171:Generated_Source\PSoC6\pdl\drivers\peripheral\scb/cy_scb_common.h **** * \param interruptMask
1172:Generated_Source\PSoC6\pdl\drivers\peripheral\scb/cy_scb_common.h **** * The master interrupt sources to be enable.
1173:Generated_Source\PSoC6\pdl\drivers\peripheral\scb/cy_scb_common.h **** * See \ref group_scb_common_macros_master_intr for the set of constants.
1174:Generated_Source\PSoC6\pdl\drivers\peripheral\scb/cy_scb_common.h **** *
1175:Generated_Source\PSoC6\pdl\drivers\peripheral\scb/cy_scb_common.h **** *******************************************************************************/
1176:Generated_Source\PSoC6\pdl\drivers\peripheral\scb/cy_scb_common.h **** __STATIC_INLINE void Cy_SCB_SetMasterInterruptMask(CySCB_Type *base, uint32_t interruptMask)
1177:Generated_Source\PSoC6\pdl\drivers\peripheral\scb/cy_scb_common.h **** {
1178:Generated_Source\PSoC6\pdl\drivers\peripheral\scb/cy_scb_common.h ****     CY_ASSERT_L2(CY_SCB_IS_INTR_VALID(interruptMask, CY_SCB_MASTER_INTR_MASK));
1179:Generated_Source\PSoC6\pdl\drivers\peripheral\scb/cy_scb_common.h **** 
1180:Generated_Source\PSoC6\pdl\drivers\peripheral\scb/cy_scb_common.h ****     base->INTR_M_MASK = interruptMask;
1181:Generated_Source\PSoC6\pdl\drivers\peripheral\scb/cy_scb_common.h **** }
1182:Generated_Source\PSoC6\pdl\drivers\peripheral\scb/cy_scb_common.h **** 
1183:Generated_Source\PSoC6\pdl\drivers\peripheral\scb/cy_scb_common.h **** 
1184:Generated_Source\PSoC6\pdl\drivers\peripheral\scb/cy_scb_common.h **** /*******************************************************************************
1185:Generated_Source\PSoC6\pdl\drivers\peripheral\scb/cy_scb_common.h **** * Function Name: Cy_SCB_GetMasterInterruptMask
1186:Generated_Source\PSoC6\pdl\drivers\peripheral\scb/cy_scb_common.h **** ****************************************************************************//**
1187:Generated_Source\PSoC6\pdl\drivers\peripheral\scb/cy_scb_common.h **** *
1188:Generated_Source\PSoC6\pdl\drivers\peripheral\scb/cy_scb_common.h **** * Returns the master interrupt mask register. This register specifies which bits
1189:Generated_Source\PSoC6\pdl\drivers\peripheral\scb/cy_scb_common.h **** * from the master interrupt request register can trigger an interrupt event.
1190:Generated_Source\PSoC6\pdl\drivers\peripheral\scb/cy_scb_common.h **** *
1191:Generated_Source\PSoC6\pdl\drivers\peripheral\scb/cy_scb_common.h **** * \param base
1192:Generated_Source\PSoC6\pdl\drivers\peripheral\scb/cy_scb_common.h **** * The pointer to the SCB instance.
1193:Generated_Source\PSoC6\pdl\drivers\peripheral\scb/cy_scb_common.h **** *
1194:Generated_Source\PSoC6\pdl\drivers\peripheral\scb/cy_scb_common.h **** * \return
1195:Generated_Source\PSoC6\pdl\drivers\peripheral\scb/cy_scb_common.h **** * Enabled master interrupt sources.
1196:Generated_Source\PSoC6\pdl\drivers\peripheral\scb/cy_scb_common.h **** * See \ref group_scb_common_macros_master_intr for the set of constants.
1197:Generated_Source\PSoC6\pdl\drivers\peripheral\scb/cy_scb_common.h **** *
1198:Generated_Source\PSoC6\pdl\drivers\peripheral\scb/cy_scb_common.h **** *******************************************************************************/
1199:Generated_Source\PSoC6\pdl\drivers\peripheral\scb/cy_scb_common.h **** __STATIC_INLINE uint32_t Cy_SCB_GetMasterInterruptMask(CySCB_Type const *base)
1200:Generated_Source\PSoC6\pdl\drivers\peripheral\scb/cy_scb_common.h **** {
1201:Generated_Source\PSoC6\pdl\drivers\peripheral\scb/cy_scb_common.h ****     return (base->INTR_M_MASK);
1202:Generated_Source\PSoC6\pdl\drivers\peripheral\scb/cy_scb_common.h **** }
1203:Generated_Source\PSoC6\pdl\drivers\peripheral\scb/cy_scb_common.h **** 
1204:Generated_Source\PSoC6\pdl\drivers\peripheral\scb/cy_scb_common.h **** 
ARM GAS  C:\Users\salaz\AppData\Local\Temp\ccU0pQaU.s 			page 33


1205:Generated_Source\PSoC6\pdl\drivers\peripheral\scb/cy_scb_common.h **** /*******************************************************************************
1206:Generated_Source\PSoC6\pdl\drivers\peripheral\scb/cy_scb_common.h **** * Function Name: Cy_SCB_GetMasterInterruptStatusMasked
1207:Generated_Source\PSoC6\pdl\drivers\peripheral\scb/cy_scb_common.h **** ****************************************************************************//**
1208:Generated_Source\PSoC6\pdl\drivers\peripheral\scb/cy_scb_common.h **** *
1209:Generated_Source\PSoC6\pdl\drivers\peripheral\scb/cy_scb_common.h **** * Returns the master interrupt masked request register. This register contains a
1210:Generated_Source\PSoC6\pdl\drivers\peripheral\scb/cy_scb_common.h **** * logical AND of corresponding bits from the master interrupt request and mask
1211:Generated_Source\PSoC6\pdl\drivers\peripheral\scb/cy_scb_common.h **** * registers.
1212:Generated_Source\PSoC6\pdl\drivers\peripheral\scb/cy_scb_common.h **** * This function is intended to be used in the interrupt service routine to
1213:Generated_Source\PSoC6\pdl\drivers\peripheral\scb/cy_scb_common.h **** * identify which of the enabled master interrupt sources caused the interrupt
1214:Generated_Source\PSoC6\pdl\drivers\peripheral\scb/cy_scb_common.h **** * event.
1215:Generated_Source\PSoC6\pdl\drivers\peripheral\scb/cy_scb_common.h **** *
1216:Generated_Source\PSoC6\pdl\drivers\peripheral\scb/cy_scb_common.h **** * \param base
1217:Generated_Source\PSoC6\pdl\drivers\peripheral\scb/cy_scb_common.h **** * The pointer to the SCB instance.
1218:Generated_Source\PSoC6\pdl\drivers\peripheral\scb/cy_scb_common.h **** *
1219:Generated_Source\PSoC6\pdl\drivers\peripheral\scb/cy_scb_common.h **** * \return
1220:Generated_Source\PSoC6\pdl\drivers\peripheral\scb/cy_scb_common.h **** * The current status of enabled master interrupt sources.
1221:Generated_Source\PSoC6\pdl\drivers\peripheral\scb/cy_scb_common.h **** * See \ref group_scb_common_macros_master_intr for the set of constants.
1222:Generated_Source\PSoC6\pdl\drivers\peripheral\scb/cy_scb_common.h **** *
1223:Generated_Source\PSoC6\pdl\drivers\peripheral\scb/cy_scb_common.h **** *******************************************************************************/
1224:Generated_Source\PSoC6\pdl\drivers\peripheral\scb/cy_scb_common.h **** __STATIC_INLINE uint32_t Cy_SCB_GetMasterInterruptStatusMasked(CySCB_Type const *base)
1225:Generated_Source\PSoC6\pdl\drivers\peripheral\scb/cy_scb_common.h **** {
1226:Generated_Source\PSoC6\pdl\drivers\peripheral\scb/cy_scb_common.h ****     return (base->INTR_M_MASKED);
1227:Generated_Source\PSoC6\pdl\drivers\peripheral\scb/cy_scb_common.h **** }
1228:Generated_Source\PSoC6\pdl\drivers\peripheral\scb/cy_scb_common.h **** 
1229:Generated_Source\PSoC6\pdl\drivers\peripheral\scb/cy_scb_common.h **** 
1230:Generated_Source\PSoC6\pdl\drivers\peripheral\scb/cy_scb_common.h **** /*******************************************************************************
1231:Generated_Source\PSoC6\pdl\drivers\peripheral\scb/cy_scb_common.h **** * Function Name: Cy_SCB_ClearMasterInterrupt
1232:Generated_Source\PSoC6\pdl\drivers\peripheral\scb/cy_scb_common.h **** ****************************************************************************//**
1233:Generated_Source\PSoC6\pdl\drivers\peripheral\scb/cy_scb_common.h **** *
1234:Generated_Source\PSoC6\pdl\drivers\peripheral\scb/cy_scb_common.h **** * Clears master interrupt sources in the interrupt request register.
1235:Generated_Source\PSoC6\pdl\drivers\peripheral\scb/cy_scb_common.h **** *
1236:Generated_Source\PSoC6\pdl\drivers\peripheral\scb/cy_scb_common.h **** * \param base
1237:Generated_Source\PSoC6\pdl\drivers\peripheral\scb/cy_scb_common.h **** * The pointer to the SCB instance.
1238:Generated_Source\PSoC6\pdl\drivers\peripheral\scb/cy_scb_common.h **** *
1239:Generated_Source\PSoC6\pdl\drivers\peripheral\scb/cy_scb_common.h **** * \param interruptMask
1240:Generated_Source\PSoC6\pdl\drivers\peripheral\scb/cy_scb_common.h **** * The master interrupt sources to be cleared.
1241:Generated_Source\PSoC6\pdl\drivers\peripheral\scb/cy_scb_common.h **** * See \ref group_scb_common_macros_master_intr for the set of constants.
1242:Generated_Source\PSoC6\pdl\drivers\peripheral\scb/cy_scb_common.h **** *
1243:Generated_Source\PSoC6\pdl\drivers\peripheral\scb/cy_scb_common.h **** *******************************************************************************/
1244:Generated_Source\PSoC6\pdl\drivers\peripheral\scb/cy_scb_common.h **** __STATIC_INLINE void Cy_SCB_ClearMasterInterrupt(CySCB_Type *base, uint32_t interruptMask)
1245:Generated_Source\PSoC6\pdl\drivers\peripheral\scb/cy_scb_common.h **** {
1246:Generated_Source\PSoC6\pdl\drivers\peripheral\scb/cy_scb_common.h ****     CY_ASSERT_L2(CY_SCB_IS_INTR_VALID(interruptMask, CY_SCB_MASTER_INTR_MASK));
1247:Generated_Source\PSoC6\pdl\drivers\peripheral\scb/cy_scb_common.h **** 
1248:Generated_Source\PSoC6\pdl\drivers\peripheral\scb/cy_scb_common.h ****     base->INTR_M = interruptMask;
1249:Generated_Source\PSoC6\pdl\drivers\peripheral\scb/cy_scb_common.h ****     (void) base->INTR_M;
1250:Generated_Source\PSoC6\pdl\drivers\peripheral\scb/cy_scb_common.h **** }
1251:Generated_Source\PSoC6\pdl\drivers\peripheral\scb/cy_scb_common.h **** 
1252:Generated_Source\PSoC6\pdl\drivers\peripheral\scb/cy_scb_common.h **** 
1253:Generated_Source\PSoC6\pdl\drivers\peripheral\scb/cy_scb_common.h **** /*******************************************************************************
1254:Generated_Source\PSoC6\pdl\drivers\peripheral\scb/cy_scb_common.h **** * Function Name: Cy_SCB_SetMasterInterrupt
1255:Generated_Source\PSoC6\pdl\drivers\peripheral\scb/cy_scb_common.h **** ****************************************************************************//**
1256:Generated_Source\PSoC6\pdl\drivers\peripheral\scb/cy_scb_common.h **** *
1257:Generated_Source\PSoC6\pdl\drivers\peripheral\scb/cy_scb_common.h **** * Sets master interrupt sources in the interrupt request register.
1258:Generated_Source\PSoC6\pdl\drivers\peripheral\scb/cy_scb_common.h **** *
1259:Generated_Source\PSoC6\pdl\drivers\peripheral\scb/cy_scb_common.h **** * \param base
1260:Generated_Source\PSoC6\pdl\drivers\peripheral\scb/cy_scb_common.h **** * The pointer to the SCB instance.
1261:Generated_Source\PSoC6\pdl\drivers\peripheral\scb/cy_scb_common.h **** *
ARM GAS  C:\Users\salaz\AppData\Local\Temp\ccU0pQaU.s 			page 34


1262:Generated_Source\PSoC6\pdl\drivers\peripheral\scb/cy_scb_common.h **** * \param interruptMask
1263:Generated_Source\PSoC6\pdl\drivers\peripheral\scb/cy_scb_common.h **** * The master interrupt sources to set in the master interrupt request register.
1264:Generated_Source\PSoC6\pdl\drivers\peripheral\scb/cy_scb_common.h **** * See \ref group_scb_common_macros_master_intr for the set of constants.
1265:Generated_Source\PSoC6\pdl\drivers\peripheral\scb/cy_scb_common.h **** *
1266:Generated_Source\PSoC6\pdl\drivers\peripheral\scb/cy_scb_common.h **** *******************************************************************************/
1267:Generated_Source\PSoC6\pdl\drivers\peripheral\scb/cy_scb_common.h **** __STATIC_INLINE void Cy_SCB_SetMasterInterrupt(CySCB_Type *base, uint32_t interruptMask)
1268:Generated_Source\PSoC6\pdl\drivers\peripheral\scb/cy_scb_common.h **** {
1269:Generated_Source\PSoC6\pdl\drivers\peripheral\scb/cy_scb_common.h ****     CY_ASSERT_L2(CY_SCB_IS_INTR_VALID(interruptMask, CY_SCB_MASTER_INTR_MASK));
1270:Generated_Source\PSoC6\pdl\drivers\peripheral\scb/cy_scb_common.h **** 
1271:Generated_Source\PSoC6\pdl\drivers\peripheral\scb/cy_scb_common.h ****     base->INTR_M_SET = interruptMask;
1272:Generated_Source\PSoC6\pdl\drivers\peripheral\scb/cy_scb_common.h **** }
1273:Generated_Source\PSoC6\pdl\drivers\peripheral\scb/cy_scb_common.h **** 
1274:Generated_Source\PSoC6\pdl\drivers\peripheral\scb/cy_scb_common.h **** 
1275:Generated_Source\PSoC6\pdl\drivers\peripheral\scb/cy_scb_common.h **** /*******************************************************************************
1276:Generated_Source\PSoC6\pdl\drivers\peripheral\scb/cy_scb_common.h **** * Function Name: Cy_SCB_GetSlaveInterruptStatus
1277:Generated_Source\PSoC6\pdl\drivers\peripheral\scb/cy_scb_common.h **** ****************************************************************************//**
1278:Generated_Source\PSoC6\pdl\drivers\peripheral\scb/cy_scb_common.h **** *
1279:Generated_Source\PSoC6\pdl\drivers\peripheral\scb/cy_scb_common.h **** * Returns the slave interrupt request register. This register contains the current
1280:Generated_Source\PSoC6\pdl\drivers\peripheral\scb/cy_scb_common.h **** * status of the slave interrupt sources.
1281:Generated_Source\PSoC6\pdl\drivers\peripheral\scb/cy_scb_common.h **** *
1282:Generated_Source\PSoC6\pdl\drivers\peripheral\scb/cy_scb_common.h **** * \param base
1283:Generated_Source\PSoC6\pdl\drivers\peripheral\scb/cy_scb_common.h **** * The pointer to the SCB instance.
1284:Generated_Source\PSoC6\pdl\drivers\peripheral\scb/cy_scb_common.h **** *
1285:Generated_Source\PSoC6\pdl\drivers\peripheral\scb/cy_scb_common.h **** * \return
1286:Generated_Source\PSoC6\pdl\drivers\peripheral\scb/cy_scb_common.h **** * The current status of the slave interrupt sources.
1287:Generated_Source\PSoC6\pdl\drivers\peripheral\scb/cy_scb_common.h **** * Each constant is a bit field value. The value returned may have multiple
1288:Generated_Source\PSoC6\pdl\drivers\peripheral\scb/cy_scb_common.h **** * bits set to indicate the current status.
1289:Generated_Source\PSoC6\pdl\drivers\peripheral\scb/cy_scb_common.h **** * See \ref group_scb_common_macros_slave_intr for the set of constants.
1290:Generated_Source\PSoC6\pdl\drivers\peripheral\scb/cy_scb_common.h **** *
1291:Generated_Source\PSoC6\pdl\drivers\peripheral\scb/cy_scb_common.h **** *******************************************************************************/
1292:Generated_Source\PSoC6\pdl\drivers\peripheral\scb/cy_scb_common.h **** __STATIC_INLINE uint32_t Cy_SCB_GetSlaveInterruptStatus(CySCB_Type const *base)
1293:Generated_Source\PSoC6\pdl\drivers\peripheral\scb/cy_scb_common.h **** {
1294:Generated_Source\PSoC6\pdl\drivers\peripheral\scb/cy_scb_common.h ****     return (base->INTR_S & CY_SCB_SLAVE_INTR_MASK);
1295:Generated_Source\PSoC6\pdl\drivers\peripheral\scb/cy_scb_common.h **** }
1296:Generated_Source\PSoC6\pdl\drivers\peripheral\scb/cy_scb_common.h **** 
1297:Generated_Source\PSoC6\pdl\drivers\peripheral\scb/cy_scb_common.h **** 
1298:Generated_Source\PSoC6\pdl\drivers\peripheral\scb/cy_scb_common.h **** /*******************************************************************************
1299:Generated_Source\PSoC6\pdl\drivers\peripheral\scb/cy_scb_common.h **** * Function Name: Cy_SCB_SetSlaveInterruptMask
1300:Generated_Source\PSoC6\pdl\drivers\peripheral\scb/cy_scb_common.h **** ****************************************************************************//**
1301:Generated_Source\PSoC6\pdl\drivers\peripheral\scb/cy_scb_common.h **** *
1302:Generated_Source\PSoC6\pdl\drivers\peripheral\scb/cy_scb_common.h **** * Writes slave interrupt mask register.
1303:Generated_Source\PSoC6\pdl\drivers\peripheral\scb/cy_scb_common.h **** * This register specifies which bits from the slave interrupt request register
1304:Generated_Source\PSoC6\pdl\drivers\peripheral\scb/cy_scb_common.h **** * can trigger an interrupt event.
1305:Generated_Source\PSoC6\pdl\drivers\peripheral\scb/cy_scb_common.h **** *
1306:Generated_Source\PSoC6\pdl\drivers\peripheral\scb/cy_scb_common.h **** * \param base
1307:Generated_Source\PSoC6\pdl\drivers\peripheral\scb/cy_scb_common.h **** * The pointer to the SCB instance.
1308:Generated_Source\PSoC6\pdl\drivers\peripheral\scb/cy_scb_common.h **** *
1309:Generated_Source\PSoC6\pdl\drivers\peripheral\scb/cy_scb_common.h **** * \param interruptMask
1310:Generated_Source\PSoC6\pdl\drivers\peripheral\scb/cy_scb_common.h **** * Enabled slave interrupt sources.
1311:Generated_Source\PSoC6\pdl\drivers\peripheral\scb/cy_scb_common.h **** * See \ref group_scb_common_macros_slave_intr for the set of constants.
1312:Generated_Source\PSoC6\pdl\drivers\peripheral\scb/cy_scb_common.h **** *
1313:Generated_Source\PSoC6\pdl\drivers\peripheral\scb/cy_scb_common.h **** *******************************************************************************/
1314:Generated_Source\PSoC6\pdl\drivers\peripheral\scb/cy_scb_common.h **** __STATIC_INLINE void Cy_SCB_SetSlaveInterruptMask(CySCB_Type *base, uint32_t interruptMask)
1315:Generated_Source\PSoC6\pdl\drivers\peripheral\scb/cy_scb_common.h **** {
 613              		.loc 1 1315 0
 614              		.cfi_startproc
 615              		@ args = 0, pretend = 0, frame = 8
ARM GAS  C:\Users\salaz\AppData\Local\Temp\ccU0pQaU.s 			page 35


 616              		@ frame_needed = 1, uses_anonymous_args = 0
 617 0000 80B5     		push	{r7, lr}
 618              		.cfi_def_cfa_offset 8
 619              		.cfi_offset 7, -8
 620              		.cfi_offset 14, -4
 621 0002 82B0     		sub	sp, sp, #8
 622              		.cfi_def_cfa_offset 16
 623 0004 00AF     		add	r7, sp, #0
 624              		.cfi_def_cfa_register 7
 625 0006 7860     		str	r0, [r7, #4]
 626 0008 3960     		str	r1, [r7]
1316:Generated_Source\PSoC6\pdl\drivers\peripheral\scb/cy_scb_common.h ****     CY_ASSERT_L2(CY_SCB_IS_INTR_VALID(interruptMask, CY_SCB_SLAVE_INTR_MASK));
 627              		.loc 1 1316 0
 628 000a 3B68     		ldr	r3, [r7]
 629 000c 084A     		ldr	r2, .L43
 630 000e 1340     		ands	r3, r2
 631 0010 05D0     		beq	.L42
 632              		.loc 1 1316 0 is_stmt 0 discriminator 1
 633 0012 084A     		ldr	r2, .L43+4
 634 0014 084B     		ldr	r3, .L43+8
 635 0016 1100     		movs	r1, r2
 636 0018 1800     		movs	r0, r3
 637 001a FFF7FEFF 		bl	Cy_SysLib_AssertFailed
 638              	.L42:
1317:Generated_Source\PSoC6\pdl\drivers\peripheral\scb/cy_scb_common.h **** 
1318:Generated_Source\PSoC6\pdl\drivers\peripheral\scb/cy_scb_common.h ****     base->INTR_S_MASK = interruptMask;
 639              		.loc 1 1318 0 is_stmt 1
 640 001e 7B68     		ldr	r3, [r7, #4]
 641 0020 0649     		ldr	r1, .L43+12
 642 0022 3A68     		ldr	r2, [r7]
 643 0024 5A50     		str	r2, [r3, r1]
1319:Generated_Source\PSoC6\pdl\drivers\peripheral\scb/cy_scb_common.h **** }
 644              		.loc 1 1319 0
 645 0026 C046     		nop
 646 0028 BD46     		mov	sp, r7
 647 002a 02B0     		add	sp, sp, #8
 648              		@ sp needed
 649 002c 80BD     		pop	{r7, pc}
 650              	.L44:
 651 002e C046     		.align	2
 652              	.L43:
 653 0030 00F6FFFF 		.word	-2560
 654 0034 24050000 		.word	1316
 655 0038 00000000 		.word	.LC0
 656 003c 480F0000 		.word	3912
 657              		.cfi_endproc
 658              	.LFE101:
 659              		.size	Cy_SCB_SetSlaveInterruptMask, .-Cy_SCB_SetSlaveInterruptMask
 660              		.section	.text.Cy_SCB_GetSlaveInterruptStatusMasked,"ax",%progbits
 661              		.align	2
 662              		.code	16
 663              		.thumb_func
 664              		.type	Cy_SCB_GetSlaveInterruptStatusMasked, %function
 665              	Cy_SCB_GetSlaveInterruptStatusMasked:
 666              	.LFB103:
1320:Generated_Source\PSoC6\pdl\drivers\peripheral\scb/cy_scb_common.h **** 
1321:Generated_Source\PSoC6\pdl\drivers\peripheral\scb/cy_scb_common.h **** 
ARM GAS  C:\Users\salaz\AppData\Local\Temp\ccU0pQaU.s 			page 36


1322:Generated_Source\PSoC6\pdl\drivers\peripheral\scb/cy_scb_common.h **** /*******************************************************************************
1323:Generated_Source\PSoC6\pdl\drivers\peripheral\scb/cy_scb_common.h **** * Function Name: Cy_SCB_GetSlaveInterruptMask
1324:Generated_Source\PSoC6\pdl\drivers\peripheral\scb/cy_scb_common.h **** ****************************************************************************//**
1325:Generated_Source\PSoC6\pdl\drivers\peripheral\scb/cy_scb_common.h **** *
1326:Generated_Source\PSoC6\pdl\drivers\peripheral\scb/cy_scb_common.h **** * Returns the slave interrupt mask register.
1327:Generated_Source\PSoC6\pdl\drivers\peripheral\scb/cy_scb_common.h **** * This register specifies which bits from the slave interrupt request register
1328:Generated_Source\PSoC6\pdl\drivers\peripheral\scb/cy_scb_common.h **** * can trigger an interrupt event.
1329:Generated_Source\PSoC6\pdl\drivers\peripheral\scb/cy_scb_common.h **** *
1330:Generated_Source\PSoC6\pdl\drivers\peripheral\scb/cy_scb_common.h **** * \param base
1331:Generated_Source\PSoC6\pdl\drivers\peripheral\scb/cy_scb_common.h **** * The pointer to the SCB instance.
1332:Generated_Source\PSoC6\pdl\drivers\peripheral\scb/cy_scb_common.h **** *
1333:Generated_Source\PSoC6\pdl\drivers\peripheral\scb/cy_scb_common.h **** * \return
1334:Generated_Source\PSoC6\pdl\drivers\peripheral\scb/cy_scb_common.h **** * Enabled slave interrupt sources.
1335:Generated_Source\PSoC6\pdl\drivers\peripheral\scb/cy_scb_common.h **** * See \ref group_scb_common_macros_slave_intr for the set of constants.
1336:Generated_Source\PSoC6\pdl\drivers\peripheral\scb/cy_scb_common.h **** *
1337:Generated_Source\PSoC6\pdl\drivers\peripheral\scb/cy_scb_common.h **** *******************************************************************************/
1338:Generated_Source\PSoC6\pdl\drivers\peripheral\scb/cy_scb_common.h **** __STATIC_INLINE uint32_t Cy_SCB_GetSlaveInterruptMask(CySCB_Type const *base)
1339:Generated_Source\PSoC6\pdl\drivers\peripheral\scb/cy_scb_common.h **** {
1340:Generated_Source\PSoC6\pdl\drivers\peripheral\scb/cy_scb_common.h ****     return (base->INTR_S_MASK);
1341:Generated_Source\PSoC6\pdl\drivers\peripheral\scb/cy_scb_common.h **** }
1342:Generated_Source\PSoC6\pdl\drivers\peripheral\scb/cy_scb_common.h **** 
1343:Generated_Source\PSoC6\pdl\drivers\peripheral\scb/cy_scb_common.h **** 
1344:Generated_Source\PSoC6\pdl\drivers\peripheral\scb/cy_scb_common.h **** /*******************************************************************************
1345:Generated_Source\PSoC6\pdl\drivers\peripheral\scb/cy_scb_common.h **** * Function Name: Cy_SCB_GetSlaveInterruptStatusMasked
1346:Generated_Source\PSoC6\pdl\drivers\peripheral\scb/cy_scb_common.h **** ****************************************************************************//**
1347:Generated_Source\PSoC6\pdl\drivers\peripheral\scb/cy_scb_common.h **** *
1348:Generated_Source\PSoC6\pdl\drivers\peripheral\scb/cy_scb_common.h **** * Returns the slave interrupt masked request register. This register contains a
1349:Generated_Source\PSoC6\pdl\drivers\peripheral\scb/cy_scb_common.h **** * logical AND of corresponding bits from the slave interrupt request and mask
1350:Generated_Source\PSoC6\pdl\drivers\peripheral\scb/cy_scb_common.h **** * registers.
1351:Generated_Source\PSoC6\pdl\drivers\peripheral\scb/cy_scb_common.h **** * This function is intended to be used in the interrupt service routine to
1352:Generated_Source\PSoC6\pdl\drivers\peripheral\scb/cy_scb_common.h **** * identify which of enabled slave interrupt sources caused the interrupt
1353:Generated_Source\PSoC6\pdl\drivers\peripheral\scb/cy_scb_common.h **** * event.
1354:Generated_Source\PSoC6\pdl\drivers\peripheral\scb/cy_scb_common.h **** *
1355:Generated_Source\PSoC6\pdl\drivers\peripheral\scb/cy_scb_common.h **** * \param base
1356:Generated_Source\PSoC6\pdl\drivers\peripheral\scb/cy_scb_common.h **** * The pointer to the SCB instance.
1357:Generated_Source\PSoC6\pdl\drivers\peripheral\scb/cy_scb_common.h **** *
1358:Generated_Source\PSoC6\pdl\drivers\peripheral\scb/cy_scb_common.h **** * \return
1359:Generated_Source\PSoC6\pdl\drivers\peripheral\scb/cy_scb_common.h **** * The current status of enabled slave interrupt sources.
1360:Generated_Source\PSoC6\pdl\drivers\peripheral\scb/cy_scb_common.h **** * See \ref group_scb_common_macros_slave_intr for the set of constants.
1361:Generated_Source\PSoC6\pdl\drivers\peripheral\scb/cy_scb_common.h **** *
1362:Generated_Source\PSoC6\pdl\drivers\peripheral\scb/cy_scb_common.h **** *******************************************************************************/
1363:Generated_Source\PSoC6\pdl\drivers\peripheral\scb/cy_scb_common.h **** __STATIC_INLINE uint32_t Cy_SCB_GetSlaveInterruptStatusMasked(CySCB_Type const *base)
1364:Generated_Source\PSoC6\pdl\drivers\peripheral\scb/cy_scb_common.h **** {
 667              		.loc 1 1364 0
 668              		.cfi_startproc
 669              		@ args = 0, pretend = 0, frame = 8
 670              		@ frame_needed = 1, uses_anonymous_args = 0
 671 0000 80B5     		push	{r7, lr}
 672              		.cfi_def_cfa_offset 8
 673              		.cfi_offset 7, -8
 674              		.cfi_offset 14, -4
 675 0002 82B0     		sub	sp, sp, #8
 676              		.cfi_def_cfa_offset 16
 677 0004 00AF     		add	r7, sp, #0
 678              		.cfi_def_cfa_register 7
 679 0006 7860     		str	r0, [r7, #4]
1365:Generated_Source\PSoC6\pdl\drivers\peripheral\scb/cy_scb_common.h ****     return (base->INTR_S_MASKED);
ARM GAS  C:\Users\salaz\AppData\Local\Temp\ccU0pQaU.s 			page 37


 680              		.loc 1 1365 0
 681 0008 7B68     		ldr	r3, [r7, #4]
 682 000a 034A     		ldr	r2, .L47
 683 000c 9B58     		ldr	r3, [r3, r2]
1366:Generated_Source\PSoC6\pdl\drivers\peripheral\scb/cy_scb_common.h **** }
 684              		.loc 1 1366 0
 685 000e 1800     		movs	r0, r3
 686 0010 BD46     		mov	sp, r7
 687 0012 02B0     		add	sp, sp, #8
 688              		@ sp needed
 689 0014 80BD     		pop	{r7, pc}
 690              	.L48:
 691 0016 C046     		.align	2
 692              	.L47:
 693 0018 4C0F0000 		.word	3916
 694              		.cfi_endproc
 695              	.LFE103:
 696              		.size	Cy_SCB_GetSlaveInterruptStatusMasked, .-Cy_SCB_GetSlaveInterruptStatusMasked
 697              		.section	.text.Cy_SCB_ClearSlaveInterrupt,"ax",%progbits
 698              		.align	2
 699              		.code	16
 700              		.thumb_func
 701              		.type	Cy_SCB_ClearSlaveInterrupt, %function
 702              	Cy_SCB_ClearSlaveInterrupt:
 703              	.LFB104:
1367:Generated_Source\PSoC6\pdl\drivers\peripheral\scb/cy_scb_common.h **** 
1368:Generated_Source\PSoC6\pdl\drivers\peripheral\scb/cy_scb_common.h **** 
1369:Generated_Source\PSoC6\pdl\drivers\peripheral\scb/cy_scb_common.h **** /*******************************************************************************
1370:Generated_Source\PSoC6\pdl\drivers\peripheral\scb/cy_scb_common.h **** * Function Name: Cy_SCB_ClearSlaveInterrupt
1371:Generated_Source\PSoC6\pdl\drivers\peripheral\scb/cy_scb_common.h **** ****************************************************************************//**
1372:Generated_Source\PSoC6\pdl\drivers\peripheral\scb/cy_scb_common.h **** *
1373:Generated_Source\PSoC6\pdl\drivers\peripheral\scb/cy_scb_common.h **** * Clears the slave interrupt sources in the interrupt request register.
1374:Generated_Source\PSoC6\pdl\drivers\peripheral\scb/cy_scb_common.h **** *
1375:Generated_Source\PSoC6\pdl\drivers\peripheral\scb/cy_scb_common.h **** * \param base
1376:Generated_Source\PSoC6\pdl\drivers\peripheral\scb/cy_scb_common.h **** * The pointer to the SCB instance.
1377:Generated_Source\PSoC6\pdl\drivers\peripheral\scb/cy_scb_common.h **** *
1378:Generated_Source\PSoC6\pdl\drivers\peripheral\scb/cy_scb_common.h **** * \param interruptMask
1379:Generated_Source\PSoC6\pdl\drivers\peripheral\scb/cy_scb_common.h **** * Slave interrupt sources to be cleared.
1380:Generated_Source\PSoC6\pdl\drivers\peripheral\scb/cy_scb_common.h **** * See \ref group_scb_common_macros_slave_intr for the set of constants.
1381:Generated_Source\PSoC6\pdl\drivers\peripheral\scb/cy_scb_common.h **** *
1382:Generated_Source\PSoC6\pdl\drivers\peripheral\scb/cy_scb_common.h **** *******************************************************************************/
1383:Generated_Source\PSoC6\pdl\drivers\peripheral\scb/cy_scb_common.h **** __STATIC_INLINE void Cy_SCB_ClearSlaveInterrupt(CySCB_Type *base, uint32_t interruptMask)
1384:Generated_Source\PSoC6\pdl\drivers\peripheral\scb/cy_scb_common.h **** {
 704              		.loc 1 1384 0
 705              		.cfi_startproc
 706              		@ args = 0, pretend = 0, frame = 8
 707              		@ frame_needed = 1, uses_anonymous_args = 0
 708 0000 80B5     		push	{r7, lr}
 709              		.cfi_def_cfa_offset 8
 710              		.cfi_offset 7, -8
 711              		.cfi_offset 14, -4
 712 0002 82B0     		sub	sp, sp, #8
 713              		.cfi_def_cfa_offset 16
 714 0004 00AF     		add	r7, sp, #0
 715              		.cfi_def_cfa_register 7
 716 0006 7860     		str	r0, [r7, #4]
 717 0008 3960     		str	r1, [r7]
ARM GAS  C:\Users\salaz\AppData\Local\Temp\ccU0pQaU.s 			page 38


1385:Generated_Source\PSoC6\pdl\drivers\peripheral\scb/cy_scb_common.h ****     CY_ASSERT_L2(CY_SCB_IS_INTR_VALID(interruptMask, CY_SCB_SLAVE_INTR_MASK));
 718              		.loc 1 1385 0
 719 000a 3B68     		ldr	r3, [r7]
 720 000c 0A4A     		ldr	r2, .L51
 721 000e 1340     		ands	r3, r2
 722 0010 05D0     		beq	.L50
 723              		.loc 1 1385 0 is_stmt 0 discriminator 1
 724 0012 0A4A     		ldr	r2, .L51+4
 725 0014 0A4B     		ldr	r3, .L51+8
 726 0016 1100     		movs	r1, r2
 727 0018 1800     		movs	r0, r3
 728 001a FFF7FEFF 		bl	Cy_SysLib_AssertFailed
 729              	.L50:
1386:Generated_Source\PSoC6\pdl\drivers\peripheral\scb/cy_scb_common.h **** 
1387:Generated_Source\PSoC6\pdl\drivers\peripheral\scb/cy_scb_common.h ****     base->INTR_S = interruptMask;
 730              		.loc 1 1387 0 is_stmt 1
 731 001e 7A68     		ldr	r2, [r7, #4]
 732 0020 F423     		movs	r3, #244
 733 0022 1B01     		lsls	r3, r3, #4
 734 0024 3968     		ldr	r1, [r7]
 735 0026 D150     		str	r1, [r2, r3]
1388:Generated_Source\PSoC6\pdl\drivers\peripheral\scb/cy_scb_common.h ****     (void) base->INTR_S;
 736              		.loc 1 1388 0
 737 0028 7A68     		ldr	r2, [r7, #4]
 738 002a F423     		movs	r3, #244
 739 002c 1B01     		lsls	r3, r3, #4
 740 002e D358     		ldr	r3, [r2, r3]
1389:Generated_Source\PSoC6\pdl\drivers\peripheral\scb/cy_scb_common.h **** }
 741              		.loc 1 1389 0
 742 0030 C046     		nop
 743 0032 BD46     		mov	sp, r7
 744 0034 02B0     		add	sp, sp, #8
 745              		@ sp needed
 746 0036 80BD     		pop	{r7, pc}
 747              	.L52:
 748              		.align	2
 749              	.L51:
 750 0038 00F6FFFF 		.word	-2560
 751 003c 69050000 		.word	1385
 752 0040 00000000 		.word	.LC0
 753              		.cfi_endproc
 754              	.LFE104:
 755              		.size	Cy_SCB_ClearSlaveInterrupt, .-Cy_SCB_ClearSlaveInterrupt
 756              		.section	.text.Cy_SCB_SetI2CInterruptMask,"ax",%progbits
 757              		.align	2
 758              		.code	16
 759              		.thumb_func
 760              		.type	Cy_SCB_SetI2CInterruptMask, %function
 761              	Cy_SCB_SetI2CInterruptMask:
 762              	.LFB107:
1390:Generated_Source\PSoC6\pdl\drivers\peripheral\scb/cy_scb_common.h **** 
1391:Generated_Source\PSoC6\pdl\drivers\peripheral\scb/cy_scb_common.h **** 
1392:Generated_Source\PSoC6\pdl\drivers\peripheral\scb/cy_scb_common.h **** /*******************************************************************************
1393:Generated_Source\PSoC6\pdl\drivers\peripheral\scb/cy_scb_common.h **** * Function Name: Cy_SCB_SetSlaveInterrupt
1394:Generated_Source\PSoC6\pdl\drivers\peripheral\scb/cy_scb_common.h **** ****************************************************************************//**
1395:Generated_Source\PSoC6\pdl\drivers\peripheral\scb/cy_scb_common.h **** *
1396:Generated_Source\PSoC6\pdl\drivers\peripheral\scb/cy_scb_common.h **** * Sets slave interrupt sources in the interrupt request register.
ARM GAS  C:\Users\salaz\AppData\Local\Temp\ccU0pQaU.s 			page 39


1397:Generated_Source\PSoC6\pdl\drivers\peripheral\scb/cy_scb_common.h **** *
1398:Generated_Source\PSoC6\pdl\drivers\peripheral\scb/cy_scb_common.h **** * \param base
1399:Generated_Source\PSoC6\pdl\drivers\peripheral\scb/cy_scb_common.h **** * The pointer to the SCB instance.
1400:Generated_Source\PSoC6\pdl\drivers\peripheral\scb/cy_scb_common.h **** *
1401:Generated_Source\PSoC6\pdl\drivers\peripheral\scb/cy_scb_common.h **** * \param interruptMask
1402:Generated_Source\PSoC6\pdl\drivers\peripheral\scb/cy_scb_common.h **** * The slave interrupt sources to set in the slave interrupt request register
1403:Generated_Source\PSoC6\pdl\drivers\peripheral\scb/cy_scb_common.h **** * See \ref group_scb_common_macros_slave_intr for the set of constants.
1404:Generated_Source\PSoC6\pdl\drivers\peripheral\scb/cy_scb_common.h **** *
1405:Generated_Source\PSoC6\pdl\drivers\peripheral\scb/cy_scb_common.h **** *******************************************************************************/
1406:Generated_Source\PSoC6\pdl\drivers\peripheral\scb/cy_scb_common.h **** __STATIC_INLINE void Cy_SCB_SetSlaveInterrupt(CySCB_Type *base, uint32_t interruptMask)
1407:Generated_Source\PSoC6\pdl\drivers\peripheral\scb/cy_scb_common.h **** {
1408:Generated_Source\PSoC6\pdl\drivers\peripheral\scb/cy_scb_common.h ****     CY_ASSERT_L2(CY_SCB_IS_INTR_VALID(interruptMask, CY_SCB_SLAVE_INTR_MASK));
1409:Generated_Source\PSoC6\pdl\drivers\peripheral\scb/cy_scb_common.h **** 
1410:Generated_Source\PSoC6\pdl\drivers\peripheral\scb/cy_scb_common.h ****     base->INTR_S_SET = interruptMask;
1411:Generated_Source\PSoC6\pdl\drivers\peripheral\scb/cy_scb_common.h **** }
1412:Generated_Source\PSoC6\pdl\drivers\peripheral\scb/cy_scb_common.h **** 
1413:Generated_Source\PSoC6\pdl\drivers\peripheral\scb/cy_scb_common.h **** 
1414:Generated_Source\PSoC6\pdl\drivers\peripheral\scb/cy_scb_common.h **** /*******************************************************************************
1415:Generated_Source\PSoC6\pdl\drivers\peripheral\scb/cy_scb_common.h **** * Function Name: Cy_SCB_GetI2CInterruptStatus
1416:Generated_Source\PSoC6\pdl\drivers\peripheral\scb/cy_scb_common.h **** ****************************************************************************//**
1417:Generated_Source\PSoC6\pdl\drivers\peripheral\scb/cy_scb_common.h **** *
1418:Generated_Source\PSoC6\pdl\drivers\peripheral\scb/cy_scb_common.h **** * Returns the I2C interrupt request register. This register contains the
1419:Generated_Source\PSoC6\pdl\drivers\peripheral\scb/cy_scb_common.h **** * current status of the I2C interrupt sources.
1420:Generated_Source\PSoC6\pdl\drivers\peripheral\scb/cy_scb_common.h **** *
1421:Generated_Source\PSoC6\pdl\drivers\peripheral\scb/cy_scb_common.h **** * \param base
1422:Generated_Source\PSoC6\pdl\drivers\peripheral\scb/cy_scb_common.h **** * The pointer to the SCB instance.
1423:Generated_Source\PSoC6\pdl\drivers\peripheral\scb/cy_scb_common.h **** *
1424:Generated_Source\PSoC6\pdl\drivers\peripheral\scb/cy_scb_common.h **** * \return
1425:Generated_Source\PSoC6\pdl\drivers\peripheral\scb/cy_scb_common.h **** * The current status of the I2C interrupt sources. Each constant is a bit
1426:Generated_Source\PSoC6\pdl\drivers\peripheral\scb/cy_scb_common.h **** * field value.
1427:Generated_Source\PSoC6\pdl\drivers\peripheral\scb/cy_scb_common.h **** * The value returned may have multiple bits set to indicate the current status.
1428:Generated_Source\PSoC6\pdl\drivers\peripheral\scb/cy_scb_common.h **** * See \ref group_scb_common_macros_slave_intr for the set of constants.
1429:Generated_Source\PSoC6\pdl\drivers\peripheral\scb/cy_scb_common.h **** *
1430:Generated_Source\PSoC6\pdl\drivers\peripheral\scb/cy_scb_common.h **** *******************************************************************************/
1431:Generated_Source\PSoC6\pdl\drivers\peripheral\scb/cy_scb_common.h **** __STATIC_INLINE uint32_t Cy_SCB_GetI2CInterruptStatus(CySCB_Type const *base)
1432:Generated_Source\PSoC6\pdl\drivers\peripheral\scb/cy_scb_common.h **** {
1433:Generated_Source\PSoC6\pdl\drivers\peripheral\scb/cy_scb_common.h ****     return (base->INTR_I2C_EC & CY_SCB_I2C_INTR_MASK);
1434:Generated_Source\PSoC6\pdl\drivers\peripheral\scb/cy_scb_common.h **** }
1435:Generated_Source\PSoC6\pdl\drivers\peripheral\scb/cy_scb_common.h **** 
1436:Generated_Source\PSoC6\pdl\drivers\peripheral\scb/cy_scb_common.h **** 
1437:Generated_Source\PSoC6\pdl\drivers\peripheral\scb/cy_scb_common.h **** /*******************************************************************************
1438:Generated_Source\PSoC6\pdl\drivers\peripheral\scb/cy_scb_common.h **** * Function Name: Cy_SCB_SetI2CInterruptMask
1439:Generated_Source\PSoC6\pdl\drivers\peripheral\scb/cy_scb_common.h **** ****************************************************************************//**
1440:Generated_Source\PSoC6\pdl\drivers\peripheral\scb/cy_scb_common.h **** *
1441:Generated_Source\PSoC6\pdl\drivers\peripheral\scb/cy_scb_common.h **** * Writes the I2C interrupt mask register. This register specifies which bits
1442:Generated_Source\PSoC6\pdl\drivers\peripheral\scb/cy_scb_common.h **** * from the I2C interrupt request register can trigger an interrupt event.
1443:Generated_Source\PSoC6\pdl\drivers\peripheral\scb/cy_scb_common.h **** *
1444:Generated_Source\PSoC6\pdl\drivers\peripheral\scb/cy_scb_common.h **** * \param base
1445:Generated_Source\PSoC6\pdl\drivers\peripheral\scb/cy_scb_common.h **** * The pointer to the SCB instance.
1446:Generated_Source\PSoC6\pdl\drivers\peripheral\scb/cy_scb_common.h **** *
1447:Generated_Source\PSoC6\pdl\drivers\peripheral\scb/cy_scb_common.h **** * \param interruptMask
1448:Generated_Source\PSoC6\pdl\drivers\peripheral\scb/cy_scb_common.h **** * Enabled I2C interrupt sources.
1449:Generated_Source\PSoC6\pdl\drivers\peripheral\scb/cy_scb_common.h **** * See \ref group_scb_common_macros_i2c_intr for the set of constants.
1450:Generated_Source\PSoC6\pdl\drivers\peripheral\scb/cy_scb_common.h **** *
1451:Generated_Source\PSoC6\pdl\drivers\peripheral\scb/cy_scb_common.h **** *******************************************************************************/
1452:Generated_Source\PSoC6\pdl\drivers\peripheral\scb/cy_scb_common.h **** __STATIC_INLINE void Cy_SCB_SetI2CInterruptMask(CySCB_Type *base, uint32_t interruptMask)
1453:Generated_Source\PSoC6\pdl\drivers\peripheral\scb/cy_scb_common.h **** {
ARM GAS  C:\Users\salaz\AppData\Local\Temp\ccU0pQaU.s 			page 40


 763              		.loc 1 1453 0
 764              		.cfi_startproc
 765              		@ args = 0, pretend = 0, frame = 8
 766              		@ frame_needed = 1, uses_anonymous_args = 0
 767 0000 80B5     		push	{r7, lr}
 768              		.cfi_def_cfa_offset 8
 769              		.cfi_offset 7, -8
 770              		.cfi_offset 14, -4
 771 0002 82B0     		sub	sp, sp, #8
 772              		.cfi_def_cfa_offset 16
 773 0004 00AF     		add	r7, sp, #0
 774              		.cfi_def_cfa_register 7
 775 0006 7860     		str	r0, [r7, #4]
 776 0008 3960     		str	r1, [r7]
1454:Generated_Source\PSoC6\pdl\drivers\peripheral\scb/cy_scb_common.h ****     CY_ASSERT_L2(CY_SCB_IS_INTR_VALID(interruptMask, CY_SCB_I2C_INTR_MASK));
 777              		.loc 1 1454 0
 778 000a 3B68     		ldr	r3, [r7]
 779 000c 0122     		movs	r2, #1
 780 000e 9343     		bics	r3, r2
 781 0010 05D0     		beq	.L54
 782              		.loc 1 1454 0 is_stmt 0 discriminator 1
 783 0012 074A     		ldr	r2, .L55
 784 0014 074B     		ldr	r3, .L55+4
 785 0016 1100     		movs	r1, r2
 786 0018 1800     		movs	r0, r3
 787 001a FFF7FEFF 		bl	Cy_SysLib_AssertFailed
 788              	.L54:
1455:Generated_Source\PSoC6\pdl\drivers\peripheral\scb/cy_scb_common.h **** 
1456:Generated_Source\PSoC6\pdl\drivers\peripheral\scb/cy_scb_common.h ****     base->INTR_I2C_EC_MASK = interruptMask;
 789              		.loc 1 1456 0 is_stmt 1
 790 001e 7B68     		ldr	r3, [r7, #4]
 791 0020 0549     		ldr	r1, .L55+8
 792 0022 3A68     		ldr	r2, [r7]
 793 0024 5A50     		str	r2, [r3, r1]
1457:Generated_Source\PSoC6\pdl\drivers\peripheral\scb/cy_scb_common.h **** }
 794              		.loc 1 1457 0
 795 0026 C046     		nop
 796 0028 BD46     		mov	sp, r7
 797 002a 02B0     		add	sp, sp, #8
 798              		@ sp needed
 799 002c 80BD     		pop	{r7, pc}
 800              	.L56:
 801 002e C046     		.align	2
 802              	.L55:
 803 0030 AE050000 		.word	1454
 804 0034 00000000 		.word	.LC0
 805 0038 880E0000 		.word	3720
 806              		.cfi_endproc
 807              	.LFE107:
 808              		.size	Cy_SCB_SetI2CInterruptMask, .-Cy_SCB_SetI2CInterruptMask
 809              		.section	.text.Cy_SCB_GetI2CInterruptStatusMasked,"ax",%progbits
 810              		.align	2
 811              		.code	16
 812              		.thumb_func
 813              		.type	Cy_SCB_GetI2CInterruptStatusMasked, %function
 814              	Cy_SCB_GetI2CInterruptStatusMasked:
 815              	.LFB109:
ARM GAS  C:\Users\salaz\AppData\Local\Temp\ccU0pQaU.s 			page 41


1458:Generated_Source\PSoC6\pdl\drivers\peripheral\scb/cy_scb_common.h **** 
1459:Generated_Source\PSoC6\pdl\drivers\peripheral\scb/cy_scb_common.h **** 
1460:Generated_Source\PSoC6\pdl\drivers\peripheral\scb/cy_scb_common.h **** /*******************************************************************************
1461:Generated_Source\PSoC6\pdl\drivers\peripheral\scb/cy_scb_common.h **** * Function Name: Cy_SCB_GetI2CInterruptMask
1462:Generated_Source\PSoC6\pdl\drivers\peripheral\scb/cy_scb_common.h **** ****************************************************************************//**
1463:Generated_Source\PSoC6\pdl\drivers\peripheral\scb/cy_scb_common.h **** *
1464:Generated_Source\PSoC6\pdl\drivers\peripheral\scb/cy_scb_common.h **** * Returns the I2C interrupt mask register. This register specifies which bits
1465:Generated_Source\PSoC6\pdl\drivers\peripheral\scb/cy_scb_common.h **** * from the I2C interrupt request register can trigger an interrupt event.
1466:Generated_Source\PSoC6\pdl\drivers\peripheral\scb/cy_scb_common.h **** *
1467:Generated_Source\PSoC6\pdl\drivers\peripheral\scb/cy_scb_common.h **** * \param base
1468:Generated_Source\PSoC6\pdl\drivers\peripheral\scb/cy_scb_common.h **** * The pointer to the SCB instance.
1469:Generated_Source\PSoC6\pdl\drivers\peripheral\scb/cy_scb_common.h **** *
1470:Generated_Source\PSoC6\pdl\drivers\peripheral\scb/cy_scb_common.h **** * \return
1471:Generated_Source\PSoC6\pdl\drivers\peripheral\scb/cy_scb_common.h **** * Enabled I2C interrupt sources.
1472:Generated_Source\PSoC6\pdl\drivers\peripheral\scb/cy_scb_common.h **** * See \ref group_scb_common_macros_i2c_intr.
1473:Generated_Source\PSoC6\pdl\drivers\peripheral\scb/cy_scb_common.h **** *
1474:Generated_Source\PSoC6\pdl\drivers\peripheral\scb/cy_scb_common.h **** *******************************************************************************/
1475:Generated_Source\PSoC6\pdl\drivers\peripheral\scb/cy_scb_common.h **** __STATIC_INLINE uint32_t Cy_SCB_GetI2CInterruptMask(CySCB_Type const *base)
1476:Generated_Source\PSoC6\pdl\drivers\peripheral\scb/cy_scb_common.h **** {
1477:Generated_Source\PSoC6\pdl\drivers\peripheral\scb/cy_scb_common.h ****     return (base->INTR_I2C_EC_MASK);
1478:Generated_Source\PSoC6\pdl\drivers\peripheral\scb/cy_scb_common.h **** }
1479:Generated_Source\PSoC6\pdl\drivers\peripheral\scb/cy_scb_common.h **** 
1480:Generated_Source\PSoC6\pdl\drivers\peripheral\scb/cy_scb_common.h **** 
1481:Generated_Source\PSoC6\pdl\drivers\peripheral\scb/cy_scb_common.h **** /*******************************************************************************
1482:Generated_Source\PSoC6\pdl\drivers\peripheral\scb/cy_scb_common.h **** * Function Name: Cy_SCB_GetI2CInterruptStatusMasked
1483:Generated_Source\PSoC6\pdl\drivers\peripheral\scb/cy_scb_common.h **** ****************************************************************************//**
1484:Generated_Source\PSoC6\pdl\drivers\peripheral\scb/cy_scb_common.h **** *
1485:Generated_Source\PSoC6\pdl\drivers\peripheral\scb/cy_scb_common.h **** * Returns the I2C interrupt masked request register. This register contains
1486:Generated_Source\PSoC6\pdl\drivers\peripheral\scb/cy_scb_common.h **** * a logical AND of corresponding bits from I2C interrupt request and mask
1487:Generated_Source\PSoC6\pdl\drivers\peripheral\scb/cy_scb_common.h **** * registers.
1488:Generated_Source\PSoC6\pdl\drivers\peripheral\scb/cy_scb_common.h **** * This function is intended to be used in the interrupt service routine to
1489:Generated_Source\PSoC6\pdl\drivers\peripheral\scb/cy_scb_common.h **** * identify which of enabled I2C interrupt sources caused the interrupt event.
1490:Generated_Source\PSoC6\pdl\drivers\peripheral\scb/cy_scb_common.h **** *
1491:Generated_Source\PSoC6\pdl\drivers\peripheral\scb/cy_scb_common.h **** * \param base
1492:Generated_Source\PSoC6\pdl\drivers\peripheral\scb/cy_scb_common.h **** * The pointer to the SCB instance.
1493:Generated_Source\PSoC6\pdl\drivers\peripheral\scb/cy_scb_common.h **** *
1494:Generated_Source\PSoC6\pdl\drivers\peripheral\scb/cy_scb_common.h **** * \return
1495:Generated_Source\PSoC6\pdl\drivers\peripheral\scb/cy_scb_common.h **** * The current status of enabled I2C interrupt sources.
1496:Generated_Source\PSoC6\pdl\drivers\peripheral\scb/cy_scb_common.h **** * See \ref group_scb_common_macros_i2c_intr for the set of constants.
1497:Generated_Source\PSoC6\pdl\drivers\peripheral\scb/cy_scb_common.h **** *
1498:Generated_Source\PSoC6\pdl\drivers\peripheral\scb/cy_scb_common.h **** *******************************************************************************/
1499:Generated_Source\PSoC6\pdl\drivers\peripheral\scb/cy_scb_common.h **** __STATIC_INLINE uint32_t Cy_SCB_GetI2CInterruptStatusMasked(CySCB_Type const *base)
1500:Generated_Source\PSoC6\pdl\drivers\peripheral\scb/cy_scb_common.h **** {
 816              		.loc 1 1500 0
 817              		.cfi_startproc
 818              		@ args = 0, pretend = 0, frame = 8
 819              		@ frame_needed = 1, uses_anonymous_args = 0
 820 0000 80B5     		push	{r7, lr}
 821              		.cfi_def_cfa_offset 8
 822              		.cfi_offset 7, -8
 823              		.cfi_offset 14, -4
 824 0002 82B0     		sub	sp, sp, #8
 825              		.cfi_def_cfa_offset 16
 826 0004 00AF     		add	r7, sp, #0
 827              		.cfi_def_cfa_register 7
 828 0006 7860     		str	r0, [r7, #4]
1501:Generated_Source\PSoC6\pdl\drivers\peripheral\scb/cy_scb_common.h ****     return (base->INTR_I2C_EC_MASKED);
ARM GAS  C:\Users\salaz\AppData\Local\Temp\ccU0pQaU.s 			page 42


 829              		.loc 1 1501 0
 830 0008 7B68     		ldr	r3, [r7, #4]
 831 000a 034A     		ldr	r2, .L59
 832 000c 9B58     		ldr	r3, [r3, r2]
1502:Generated_Source\PSoC6\pdl\drivers\peripheral\scb/cy_scb_common.h **** }
 833              		.loc 1 1502 0
 834 000e 1800     		movs	r0, r3
 835 0010 BD46     		mov	sp, r7
 836 0012 02B0     		add	sp, sp, #8
 837              		@ sp needed
 838 0014 80BD     		pop	{r7, pc}
 839              	.L60:
 840 0016 C046     		.align	2
 841              	.L59:
 842 0018 8C0E0000 		.word	3724
 843              		.cfi_endproc
 844              	.LFE109:
 845              		.size	Cy_SCB_GetI2CInterruptStatusMasked, .-Cy_SCB_GetI2CInterruptStatusMasked
 846              		.section	.text.Cy_SCB_ClearI2CInterrupt,"ax",%progbits
 847              		.align	2
 848              		.code	16
 849              		.thumb_func
 850              		.type	Cy_SCB_ClearI2CInterrupt, %function
 851              	Cy_SCB_ClearI2CInterrupt:
 852              	.LFB110:
1503:Generated_Source\PSoC6\pdl\drivers\peripheral\scb/cy_scb_common.h **** 
1504:Generated_Source\PSoC6\pdl\drivers\peripheral\scb/cy_scb_common.h **** 
1505:Generated_Source\PSoC6\pdl\drivers\peripheral\scb/cy_scb_common.h **** /*******************************************************************************
1506:Generated_Source\PSoC6\pdl\drivers\peripheral\scb/cy_scb_common.h **** * Function Name: Cy_SCB_ClearI2CInterrupt
1507:Generated_Source\PSoC6\pdl\drivers\peripheral\scb/cy_scb_common.h **** ****************************************************************************//**
1508:Generated_Source\PSoC6\pdl\drivers\peripheral\scb/cy_scb_common.h **** *
1509:Generated_Source\PSoC6\pdl\drivers\peripheral\scb/cy_scb_common.h **** * Clears I2C interrupt sources in the interrupt request register.
1510:Generated_Source\PSoC6\pdl\drivers\peripheral\scb/cy_scb_common.h **** *
1511:Generated_Source\PSoC6\pdl\drivers\peripheral\scb/cy_scb_common.h **** * \param base
1512:Generated_Source\PSoC6\pdl\drivers\peripheral\scb/cy_scb_common.h **** * The pointer to the SCB instance.
1513:Generated_Source\PSoC6\pdl\drivers\peripheral\scb/cy_scb_common.h **** *
1514:Generated_Source\PSoC6\pdl\drivers\peripheral\scb/cy_scb_common.h **** * \param interruptMask
1515:Generated_Source\PSoC6\pdl\drivers\peripheral\scb/cy_scb_common.h **** * The I2C interrupt sources to be cleared.
1516:Generated_Source\PSoC6\pdl\drivers\peripheral\scb/cy_scb_common.h **** * See \ref group_scb_common_macros_i2c_intr for the set of constants.
1517:Generated_Source\PSoC6\pdl\drivers\peripheral\scb/cy_scb_common.h **** *
1518:Generated_Source\PSoC6\pdl\drivers\peripheral\scb/cy_scb_common.h **** *******************************************************************************/
1519:Generated_Source\PSoC6\pdl\drivers\peripheral\scb/cy_scb_common.h **** __STATIC_INLINE void Cy_SCB_ClearI2CInterrupt(CySCB_Type *base, uint32_t interruptMask)
1520:Generated_Source\PSoC6\pdl\drivers\peripheral\scb/cy_scb_common.h **** {
 853              		.loc 1 1520 0
 854              		.cfi_startproc
 855              		@ args = 0, pretend = 0, frame = 8
 856              		@ frame_needed = 1, uses_anonymous_args = 0
 857 0000 80B5     		push	{r7, lr}
 858              		.cfi_def_cfa_offset 8
 859              		.cfi_offset 7, -8
 860              		.cfi_offset 14, -4
 861 0002 82B0     		sub	sp, sp, #8
 862              		.cfi_def_cfa_offset 16
 863 0004 00AF     		add	r7, sp, #0
 864              		.cfi_def_cfa_register 7
 865 0006 7860     		str	r0, [r7, #4]
 866 0008 3960     		str	r1, [r7]
ARM GAS  C:\Users\salaz\AppData\Local\Temp\ccU0pQaU.s 			page 43


1521:Generated_Source\PSoC6\pdl\drivers\peripheral\scb/cy_scb_common.h ****     CY_ASSERT_L2(CY_SCB_IS_INTR_VALID(interruptMask, CY_SCB_I2C_INTR_MASK));
 867              		.loc 1 1521 0
 868 000a 3B68     		ldr	r3, [r7]
 869 000c 0122     		movs	r2, #1
 870 000e 9343     		bics	r3, r2
 871 0010 05D0     		beq	.L62
 872              		.loc 1 1521 0 is_stmt 0 discriminator 1
 873 0012 094A     		ldr	r2, .L63
 874 0014 094B     		ldr	r3, .L63+4
 875 0016 1100     		movs	r1, r2
 876 0018 1800     		movs	r0, r3
 877 001a FFF7FEFF 		bl	Cy_SysLib_AssertFailed
 878              	.L62:
1522:Generated_Source\PSoC6\pdl\drivers\peripheral\scb/cy_scb_common.h **** 
1523:Generated_Source\PSoC6\pdl\drivers\peripheral\scb/cy_scb_common.h ****     base->INTR_I2C_EC = interruptMask;
 879              		.loc 1 1523 0 is_stmt 1
 880 001e 7A68     		ldr	r2, [r7, #4]
 881 0020 E823     		movs	r3, #232
 882 0022 1B01     		lsls	r3, r3, #4
 883 0024 3968     		ldr	r1, [r7]
 884 0026 D150     		str	r1, [r2, r3]
1524:Generated_Source\PSoC6\pdl\drivers\peripheral\scb/cy_scb_common.h ****     (void) base->INTR_I2C_EC;
 885              		.loc 1 1524 0
 886 0028 7A68     		ldr	r2, [r7, #4]
 887 002a E823     		movs	r3, #232
 888 002c 1B01     		lsls	r3, r3, #4
 889 002e D358     		ldr	r3, [r2, r3]
1525:Generated_Source\PSoC6\pdl\drivers\peripheral\scb/cy_scb_common.h **** }
 890              		.loc 1 1525 0
 891 0030 C046     		nop
 892 0032 BD46     		mov	sp, r7
 893 0034 02B0     		add	sp, sp, #8
 894              		@ sp needed
 895 0036 80BD     		pop	{r7, pc}
 896              	.L64:
 897              		.align	2
 898              	.L63:
 899 0038 F1050000 		.word	1521
 900 003c 00000000 		.word	.LC0
 901              		.cfi_endproc
 902              	.LFE110:
 903              		.size	Cy_SCB_ClearI2CInterrupt, .-Cy_SCB_ClearI2CInterrupt
 904              		.section	.text.Cy_SCB_GetFifoSize,"ax",%progbits
 905              		.align	2
 906              		.code	16
 907              		.thumb_func
 908              		.type	Cy_SCB_GetFifoSize, %function
 909              	Cy_SCB_GetFifoSize:
 910              	.LFB116:
1526:Generated_Source\PSoC6\pdl\drivers\peripheral\scb/cy_scb_common.h **** 
1527:Generated_Source\PSoC6\pdl\drivers\peripheral\scb/cy_scb_common.h **** 
1528:Generated_Source\PSoC6\pdl\drivers\peripheral\scb/cy_scb_common.h **** /*******************************************************************************
1529:Generated_Source\PSoC6\pdl\drivers\peripheral\scb/cy_scb_common.h **** * Function Name: Cy_SCB_GetSpiInterruptStatus
1530:Generated_Source\PSoC6\pdl\drivers\peripheral\scb/cy_scb_common.h **** ****************************************************************************//**
1531:Generated_Source\PSoC6\pdl\drivers\peripheral\scb/cy_scb_common.h **** *
1532:Generated_Source\PSoC6\pdl\drivers\peripheral\scb/cy_scb_common.h **** * Returns the SPI interrupt request register. This register contains the current
1533:Generated_Source\PSoC6\pdl\drivers\peripheral\scb/cy_scb_common.h **** * status of the SPI interrupt sources.
ARM GAS  C:\Users\salaz\AppData\Local\Temp\ccU0pQaU.s 			page 44


1534:Generated_Source\PSoC6\pdl\drivers\peripheral\scb/cy_scb_common.h **** *
1535:Generated_Source\PSoC6\pdl\drivers\peripheral\scb/cy_scb_common.h **** * \param base
1536:Generated_Source\PSoC6\pdl\drivers\peripheral\scb/cy_scb_common.h **** * The pointer to the SCB instance.
1537:Generated_Source\PSoC6\pdl\drivers\peripheral\scb/cy_scb_common.h **** *
1538:Generated_Source\PSoC6\pdl\drivers\peripheral\scb/cy_scb_common.h **** * \return
1539:Generated_Source\PSoC6\pdl\drivers\peripheral\scb/cy_scb_common.h **** * The current status of SPI interrupt sources. Each constant is a bit field value.
1540:Generated_Source\PSoC6\pdl\drivers\peripheral\scb/cy_scb_common.h **** * The value returned may have multiple bits set to indicate the current status
1541:Generated_Source\PSoC6\pdl\drivers\peripheral\scb/cy_scb_common.h **** * See \ref group_scb_common_macros_SpiIntrStatuses for the set of constants.
1542:Generated_Source\PSoC6\pdl\drivers\peripheral\scb/cy_scb_common.h **** *
1543:Generated_Source\PSoC6\pdl\drivers\peripheral\scb/cy_scb_common.h **** *******************************************************************************/
1544:Generated_Source\PSoC6\pdl\drivers\peripheral\scb/cy_scb_common.h **** __STATIC_INLINE uint32_t Cy_SCB_GetSpiInterruptStatus(CySCB_Type const *base)
1545:Generated_Source\PSoC6\pdl\drivers\peripheral\scb/cy_scb_common.h **** {
1546:Generated_Source\PSoC6\pdl\drivers\peripheral\scb/cy_scb_common.h ****     return (base->INTR_SPI_EC & CY_SCB_SPI_INTR_MASK);
1547:Generated_Source\PSoC6\pdl\drivers\peripheral\scb/cy_scb_common.h **** }
1548:Generated_Source\PSoC6\pdl\drivers\peripheral\scb/cy_scb_common.h **** 
1549:Generated_Source\PSoC6\pdl\drivers\peripheral\scb/cy_scb_common.h **** 
1550:Generated_Source\PSoC6\pdl\drivers\peripheral\scb/cy_scb_common.h **** /*******************************************************************************
1551:Generated_Source\PSoC6\pdl\drivers\peripheral\scb/cy_scb_common.h **** * Function Name: Cy_SCB_SetSpiInterruptMask
1552:Generated_Source\PSoC6\pdl\drivers\peripheral\scb/cy_scb_common.h **** ****************************************************************************//**
1553:Generated_Source\PSoC6\pdl\drivers\peripheral\scb/cy_scb_common.h **** *
1554:Generated_Source\PSoC6\pdl\drivers\peripheral\scb/cy_scb_common.h **** * Writes the SPI interrupt mask register. This register specifies which
1555:Generated_Source\PSoC6\pdl\drivers\peripheral\scb/cy_scb_common.h **** * bits from the SPI interrupt request register can trigger an interrupt event.
1556:Generated_Source\PSoC6\pdl\drivers\peripheral\scb/cy_scb_common.h **** *
1557:Generated_Source\PSoC6\pdl\drivers\peripheral\scb/cy_scb_common.h **** * \param base
1558:Generated_Source\PSoC6\pdl\drivers\peripheral\scb/cy_scb_common.h **** * The pointer to the SCB instance.
1559:Generated_Source\PSoC6\pdl\drivers\peripheral\scb/cy_scb_common.h **** *
1560:Generated_Source\PSoC6\pdl\drivers\peripheral\scb/cy_scb_common.h **** * \param interruptMask
1561:Generated_Source\PSoC6\pdl\drivers\peripheral\scb/cy_scb_common.h **** * Enabled SPI interrupt sources.
1562:Generated_Source\PSoC6\pdl\drivers\peripheral\scb/cy_scb_common.h **** * See \ref group_scb_common_macros_SpiIntrStatuses for the set of constants.
1563:Generated_Source\PSoC6\pdl\drivers\peripheral\scb/cy_scb_common.h **** *
1564:Generated_Source\PSoC6\pdl\drivers\peripheral\scb/cy_scb_common.h **** *******************************************************************************/
1565:Generated_Source\PSoC6\pdl\drivers\peripheral\scb/cy_scb_common.h **** __STATIC_INLINE void Cy_SCB_SetSpiInterruptMask(CySCB_Type *base, uint32_t interruptMask)
1566:Generated_Source\PSoC6\pdl\drivers\peripheral\scb/cy_scb_common.h **** {
1567:Generated_Source\PSoC6\pdl\drivers\peripheral\scb/cy_scb_common.h ****     CY_ASSERT_L2(CY_SCB_IS_INTR_VALID(interruptMask, CY_SCB_SPI_INTR_MASK));
1568:Generated_Source\PSoC6\pdl\drivers\peripheral\scb/cy_scb_common.h **** 
1569:Generated_Source\PSoC6\pdl\drivers\peripheral\scb/cy_scb_common.h ****     base->INTR_SPI_EC_MASK = interruptMask;
1570:Generated_Source\PSoC6\pdl\drivers\peripheral\scb/cy_scb_common.h **** }
1571:Generated_Source\PSoC6\pdl\drivers\peripheral\scb/cy_scb_common.h **** 
1572:Generated_Source\PSoC6\pdl\drivers\peripheral\scb/cy_scb_common.h **** 
1573:Generated_Source\PSoC6\pdl\drivers\peripheral\scb/cy_scb_common.h **** /*******************************************************************************
1574:Generated_Source\PSoC6\pdl\drivers\peripheral\scb/cy_scb_common.h **** * Function Name: Cy_SCB_GetSpiInterruptMask
1575:Generated_Source\PSoC6\pdl\drivers\peripheral\scb/cy_scb_common.h **** ****************************************************************************//**
1576:Generated_Source\PSoC6\pdl\drivers\peripheral\scb/cy_scb_common.h **** *
1577:Generated_Source\PSoC6\pdl\drivers\peripheral\scb/cy_scb_common.h **** * Returns the SPI interrupt mask register. This register specifies which bits
1578:Generated_Source\PSoC6\pdl\drivers\peripheral\scb/cy_scb_common.h **** * from the SPI interrupt request register can trigger an interrupt event.
1579:Generated_Source\PSoC6\pdl\drivers\peripheral\scb/cy_scb_common.h **** *
1580:Generated_Source\PSoC6\pdl\drivers\peripheral\scb/cy_scb_common.h **** * \param base
1581:Generated_Source\PSoC6\pdl\drivers\peripheral\scb/cy_scb_common.h **** * The pointer to the SCB instance.
1582:Generated_Source\PSoC6\pdl\drivers\peripheral\scb/cy_scb_common.h **** *
1583:Generated_Source\PSoC6\pdl\drivers\peripheral\scb/cy_scb_common.h **** * \return
1584:Generated_Source\PSoC6\pdl\drivers\peripheral\scb/cy_scb_common.h **** * Enabled SPI interrupt sources.
1585:Generated_Source\PSoC6\pdl\drivers\peripheral\scb/cy_scb_common.h **** * See \ref group_scb_common_macros_SpiIntrStatuses for the set of constants.
1586:Generated_Source\PSoC6\pdl\drivers\peripheral\scb/cy_scb_common.h **** *
1587:Generated_Source\PSoC6\pdl\drivers\peripheral\scb/cy_scb_common.h **** *******************************************************************************/
1588:Generated_Source\PSoC6\pdl\drivers\peripheral\scb/cy_scb_common.h **** __STATIC_INLINE uint32_t Cy_SCB_GetSpiInterruptMask(CySCB_Type const *base)
1589:Generated_Source\PSoC6\pdl\drivers\peripheral\scb/cy_scb_common.h **** {
1590:Generated_Source\PSoC6\pdl\drivers\peripheral\scb/cy_scb_common.h ****     return (base->INTR_SPI_EC_MASK);
ARM GAS  C:\Users\salaz\AppData\Local\Temp\ccU0pQaU.s 			page 45


1591:Generated_Source\PSoC6\pdl\drivers\peripheral\scb/cy_scb_common.h **** }
1592:Generated_Source\PSoC6\pdl\drivers\peripheral\scb/cy_scb_common.h **** 
1593:Generated_Source\PSoC6\pdl\drivers\peripheral\scb/cy_scb_common.h **** 
1594:Generated_Source\PSoC6\pdl\drivers\peripheral\scb/cy_scb_common.h **** /*******************************************************************************
1595:Generated_Source\PSoC6\pdl\drivers\peripheral\scb/cy_scb_common.h **** * Function Name: Cy_SCB_GetSpiInterruptStatusMasked
1596:Generated_Source\PSoC6\pdl\drivers\peripheral\scb/cy_scb_common.h **** ****************************************************************************//**
1597:Generated_Source\PSoC6\pdl\drivers\peripheral\scb/cy_scb_common.h **** *
1598:Generated_Source\PSoC6\pdl\drivers\peripheral\scb/cy_scb_common.h **** * Returns the SPI interrupt masked request register. This register contains
1599:Generated_Source\PSoC6\pdl\drivers\peripheral\scb/cy_scb_common.h **** * a logical AND of corresponding bits from the SPI interrupt request and
1600:Generated_Source\PSoC6\pdl\drivers\peripheral\scb/cy_scb_common.h **** * mask registers.
1601:Generated_Source\PSoC6\pdl\drivers\peripheral\scb/cy_scb_common.h **** * This function is intended to be used in the interrupt service routine to
1602:Generated_Source\PSoC6\pdl\drivers\peripheral\scb/cy_scb_common.h **** * identify which of enabled SPI interrupt sources caused the interrupt event.
1603:Generated_Source\PSoC6\pdl\drivers\peripheral\scb/cy_scb_common.h **** *
1604:Generated_Source\PSoC6\pdl\drivers\peripheral\scb/cy_scb_common.h **** * \param base
1605:Generated_Source\PSoC6\pdl\drivers\peripheral\scb/cy_scb_common.h **** * The pointer to the SCB instance.
1606:Generated_Source\PSoC6\pdl\drivers\peripheral\scb/cy_scb_common.h **** *
1607:Generated_Source\PSoC6\pdl\drivers\peripheral\scb/cy_scb_common.h **** * \return
1608:Generated_Source\PSoC6\pdl\drivers\peripheral\scb/cy_scb_common.h **** * The current status of enabled SPI interrupt sources.
1609:Generated_Source\PSoC6\pdl\drivers\peripheral\scb/cy_scb_common.h **** * See \ref group_scb_common_macros_SpiIntrStatuses for the set of constants.
1610:Generated_Source\PSoC6\pdl\drivers\peripheral\scb/cy_scb_common.h **** *
1611:Generated_Source\PSoC6\pdl\drivers\peripheral\scb/cy_scb_common.h **** *******************************************************************************/
1612:Generated_Source\PSoC6\pdl\drivers\peripheral\scb/cy_scb_common.h **** __STATIC_INLINE uint32_t Cy_SCB_GetSpiInterruptStatusMasked(CySCB_Type const *base)
1613:Generated_Source\PSoC6\pdl\drivers\peripheral\scb/cy_scb_common.h **** {
1614:Generated_Source\PSoC6\pdl\drivers\peripheral\scb/cy_scb_common.h ****     return (base->INTR_SPI_EC_MASKED);
1615:Generated_Source\PSoC6\pdl\drivers\peripheral\scb/cy_scb_common.h **** }
1616:Generated_Source\PSoC6\pdl\drivers\peripheral\scb/cy_scb_common.h **** 
1617:Generated_Source\PSoC6\pdl\drivers\peripheral\scb/cy_scb_common.h **** 
1618:Generated_Source\PSoC6\pdl\drivers\peripheral\scb/cy_scb_common.h **** /*******************************************************************************
1619:Generated_Source\PSoC6\pdl\drivers\peripheral\scb/cy_scb_common.h **** * Function Name: Cy_SCB_ClearSpiInterrupt
1620:Generated_Source\PSoC6\pdl\drivers\peripheral\scb/cy_scb_common.h **** ****************************************************************************//**
1621:Generated_Source\PSoC6\pdl\drivers\peripheral\scb/cy_scb_common.h **** *
1622:Generated_Source\PSoC6\pdl\drivers\peripheral\scb/cy_scb_common.h **** * Clears SPI interrupt sources in the interrupt request register.
1623:Generated_Source\PSoC6\pdl\drivers\peripheral\scb/cy_scb_common.h **** *
1624:Generated_Source\PSoC6\pdl\drivers\peripheral\scb/cy_scb_common.h **** * \param base
1625:Generated_Source\PSoC6\pdl\drivers\peripheral\scb/cy_scb_common.h **** * The pointer to the SCB instance.
1626:Generated_Source\PSoC6\pdl\drivers\peripheral\scb/cy_scb_common.h **** *
1627:Generated_Source\PSoC6\pdl\drivers\peripheral\scb/cy_scb_common.h **** * \param interruptMask
1628:Generated_Source\PSoC6\pdl\drivers\peripheral\scb/cy_scb_common.h **** * The SPI interrupt sources to be cleared.
1629:Generated_Source\PSoC6\pdl\drivers\peripheral\scb/cy_scb_common.h **** * See \ref group_scb_common_macros_SpiIntrStatuses for the set of constants.
1630:Generated_Source\PSoC6\pdl\drivers\peripheral\scb/cy_scb_common.h **** *
1631:Generated_Source\PSoC6\pdl\drivers\peripheral\scb/cy_scb_common.h **** *******************************************************************************/
1632:Generated_Source\PSoC6\pdl\drivers\peripheral\scb/cy_scb_common.h **** __STATIC_INLINE void Cy_SCB_ClearSpiInterrupt(CySCB_Type *base, uint32_t interruptMask)
1633:Generated_Source\PSoC6\pdl\drivers\peripheral\scb/cy_scb_common.h **** {
1634:Generated_Source\PSoC6\pdl\drivers\peripheral\scb/cy_scb_common.h ****     CY_ASSERT_L2(CY_SCB_IS_INTR_VALID(interruptMask, CY_SCB_SPI_INTR_MASK));
1635:Generated_Source\PSoC6\pdl\drivers\peripheral\scb/cy_scb_common.h **** 
1636:Generated_Source\PSoC6\pdl\drivers\peripheral\scb/cy_scb_common.h ****     base->INTR_SPI_EC = interruptMask;
1637:Generated_Source\PSoC6\pdl\drivers\peripheral\scb/cy_scb_common.h ****     (void) base->INTR_SPI_EC;
1638:Generated_Source\PSoC6\pdl\drivers\peripheral\scb/cy_scb_common.h **** }
1639:Generated_Source\PSoC6\pdl\drivers\peripheral\scb/cy_scb_common.h **** 
1640:Generated_Source\PSoC6\pdl\drivers\peripheral\scb/cy_scb_common.h **** /** \cond INTERNAL */
1641:Generated_Source\PSoC6\pdl\drivers\peripheral\scb/cy_scb_common.h **** /*******************************************************************************
1642:Generated_Source\PSoC6\pdl\drivers\peripheral\scb/cy_scb_common.h **** * Function Name: Cy_SCB_GetFifoSize
1643:Generated_Source\PSoC6\pdl\drivers\peripheral\scb/cy_scb_common.h **** ****************************************************************************//**
1644:Generated_Source\PSoC6\pdl\drivers\peripheral\scb/cy_scb_common.h **** *
1645:Generated_Source\PSoC6\pdl\drivers\peripheral\scb/cy_scb_common.h **** * Returns the RX and TX FIFO depth.
1646:Generated_Source\PSoC6\pdl\drivers\peripheral\scb/cy_scb_common.h **** *
1647:Generated_Source\PSoC6\pdl\drivers\peripheral\scb/cy_scb_common.h **** * \param base
ARM GAS  C:\Users\salaz\AppData\Local\Temp\ccU0pQaU.s 			page 46


1648:Generated_Source\PSoC6\pdl\drivers\peripheral\scb/cy_scb_common.h **** * The pointer to the SCB instance.
1649:Generated_Source\PSoC6\pdl\drivers\peripheral\scb/cy_scb_common.h **** *
1650:Generated_Source\PSoC6\pdl\drivers\peripheral\scb/cy_scb_common.h **** * \return
1651:Generated_Source\PSoC6\pdl\drivers\peripheral\scb/cy_scb_common.h **** * FIFO depth.
1652:Generated_Source\PSoC6\pdl\drivers\peripheral\scb/cy_scb_common.h **** *
1653:Generated_Source\PSoC6\pdl\drivers\peripheral\scb/cy_scb_common.h **** *******************************************************************************/
1654:Generated_Source\PSoC6\pdl\drivers\peripheral\scb/cy_scb_common.h **** __STATIC_INLINE uint32_t Cy_SCB_GetFifoSize(CySCB_Type const *base)
1655:Generated_Source\PSoC6\pdl\drivers\peripheral\scb/cy_scb_common.h **** {
 911              		.loc 1 1655 0
 912              		.cfi_startproc
 913              		@ args = 0, pretend = 0, frame = 8
 914              		@ frame_needed = 1, uses_anonymous_args = 0
 915 0000 80B5     		push	{r7, lr}
 916              		.cfi_def_cfa_offset 8
 917              		.cfi_offset 7, -8
 918              		.cfi_offset 14, -4
 919 0002 82B0     		sub	sp, sp, #8
 920              		.cfi_def_cfa_offset 16
 921 0004 00AF     		add	r7, sp, #0
 922              		.cfi_def_cfa_register 7
 923 0006 7860     		str	r0, [r7, #4]
1656:Generated_Source\PSoC6\pdl\drivers\peripheral\scb/cy_scb_common.h ****     return (_FLD2BOOL(SCB_CTRL_BYTE_MODE, base->CTRL) ?
 924              		.loc 1 1656 0
 925 0008 7B68     		ldr	r3, [r7, #4]
 926 000a 1A68     		ldr	r2, [r3]
 927 000c 8023     		movs	r3, #128
 928 000e 1B01     		lsls	r3, r3, #4
 929 0010 1340     		ands	r3, r2
1657:Generated_Source\PSoC6\pdl\drivers\peripheral\scb/cy_scb_common.h ****                 (CY_SCB_FIFO_SIZE(base)) : (CY_SCB_FIFO_SIZE(base) / 2UL));
 930              		.loc 1 1657 0
 931 0012 01D0     		beq	.L66
 932              		.loc 1 1657 0 is_stmt 0 discriminator 1
 933 0014 8023     		movs	r3, #128
1656:Generated_Source\PSoC6\pdl\drivers\peripheral\scb/cy_scb_common.h ****     return (_FLD2BOOL(SCB_CTRL_BYTE_MODE, base->CTRL) ?
 934              		.loc 1 1656 0 is_stmt 1 discriminator 1
 935 0016 00E0     		b	.L68
 936              	.L66:
 937              		.loc 1 1657 0 discriminator 2
 938 0018 4023     		movs	r3, #64
 939              	.L68:
1658:Generated_Source\PSoC6\pdl\drivers\peripheral\scb/cy_scb_common.h **** }
 940              		.loc 1 1658 0 discriminator 1
 941 001a 1800     		movs	r0, r3
 942 001c BD46     		mov	sp, r7
 943 001e 02B0     		add	sp, sp, #8
 944              		@ sp needed
 945 0020 80BD     		pop	{r7, pc}
 946              		.cfi_endproc
 947              	.LFE116:
 948              		.size	Cy_SCB_GetFifoSize, .-Cy_SCB_GetFifoSize
 949 0022 C046     		.section	.text.Cy_SCB_FwBlockReset,"ax",%progbits
 950              		.align	2
 951              		.code	16
 952              		.thumb_func
 953              		.type	Cy_SCB_FwBlockReset, %function
 954              	Cy_SCB_FwBlockReset:
 955              	.LFB119:
ARM GAS  C:\Users\salaz\AppData\Local\Temp\ccU0pQaU.s 			page 47


1659:Generated_Source\PSoC6\pdl\drivers\peripheral\scb/cy_scb_common.h **** 
1660:Generated_Source\PSoC6\pdl\drivers\peripheral\scb/cy_scb_common.h **** 
1661:Generated_Source\PSoC6\pdl\drivers\peripheral\scb/cy_scb_common.h **** /*******************************************************************************
1662:Generated_Source\PSoC6\pdl\drivers\peripheral\scb/cy_scb_common.h **** * Function Name: Cy_SCB_IsRxDataWidthByte
1663:Generated_Source\PSoC6\pdl\drivers\peripheral\scb/cy_scb_common.h **** ****************************************************************************//**
1664:Generated_Source\PSoC6\pdl\drivers\peripheral\scb/cy_scb_common.h **** *
1665:Generated_Source\PSoC6\pdl\drivers\peripheral\scb/cy_scb_common.h **** * Returns true if the RX data width is a byte (8 bits).
1666:Generated_Source\PSoC6\pdl\drivers\peripheral\scb/cy_scb_common.h **** *
1667:Generated_Source\PSoC6\pdl\drivers\peripheral\scb/cy_scb_common.h **** * \param base
1668:Generated_Source\PSoC6\pdl\drivers\peripheral\scb/cy_scb_common.h **** * The pointer to the SCB instance.
1669:Generated_Source\PSoC6\pdl\drivers\peripheral\scb/cy_scb_common.h **** *
1670:Generated_Source\PSoC6\pdl\drivers\peripheral\scb/cy_scb_common.h **** * \return
1671:Generated_Source\PSoC6\pdl\drivers\peripheral\scb/cy_scb_common.h **** * True if the RX data width is a byte (8 bits).
1672:Generated_Source\PSoC6\pdl\drivers\peripheral\scb/cy_scb_common.h **** *
1673:Generated_Source\PSoC6\pdl\drivers\peripheral\scb/cy_scb_common.h **** *******************************************************************************/
1674:Generated_Source\PSoC6\pdl\drivers\peripheral\scb/cy_scb_common.h **** __STATIC_INLINE bool Cy_SCB_IsRxDataWidthByte(CySCB_Type const *base)
1675:Generated_Source\PSoC6\pdl\drivers\peripheral\scb/cy_scb_common.h **** {
1676:Generated_Source\PSoC6\pdl\drivers\peripheral\scb/cy_scb_common.h ****     return (_FLD2VAL(SCB_RX_CTRL_DATA_WIDTH, base->RX_CTRL) < CY_SCB_BYTE_WIDTH);
1677:Generated_Source\PSoC6\pdl\drivers\peripheral\scb/cy_scb_common.h **** }
1678:Generated_Source\PSoC6\pdl\drivers\peripheral\scb/cy_scb_common.h **** 
1679:Generated_Source\PSoC6\pdl\drivers\peripheral\scb/cy_scb_common.h **** 
1680:Generated_Source\PSoC6\pdl\drivers\peripheral\scb/cy_scb_common.h **** /*******************************************************************************
1681:Generated_Source\PSoC6\pdl\drivers\peripheral\scb/cy_scb_common.h **** * Function Name: Cy_SCB_IsTxDataWidthByte
1682:Generated_Source\PSoC6\pdl\drivers\peripheral\scb/cy_scb_common.h **** ****************************************************************************//**
1683:Generated_Source\PSoC6\pdl\drivers\peripheral\scb/cy_scb_common.h **** *
1684:Generated_Source\PSoC6\pdl\drivers\peripheral\scb/cy_scb_common.h **** * Returns true if the TX data width is a byte (8 bits).
1685:Generated_Source\PSoC6\pdl\drivers\peripheral\scb/cy_scb_common.h **** *
1686:Generated_Source\PSoC6\pdl\drivers\peripheral\scb/cy_scb_common.h **** * \param base
1687:Generated_Source\PSoC6\pdl\drivers\peripheral\scb/cy_scb_common.h **** * The pointer to the SCB instance.
1688:Generated_Source\PSoC6\pdl\drivers\peripheral\scb/cy_scb_common.h **** *
1689:Generated_Source\PSoC6\pdl\drivers\peripheral\scb/cy_scb_common.h **** * \return
1690:Generated_Source\PSoC6\pdl\drivers\peripheral\scb/cy_scb_common.h **** * If true, the TX data width is a byte (8 bits). Otherwise, false.
1691:Generated_Source\PSoC6\pdl\drivers\peripheral\scb/cy_scb_common.h **** *
1692:Generated_Source\PSoC6\pdl\drivers\peripheral\scb/cy_scb_common.h **** *******************************************************************************/
1693:Generated_Source\PSoC6\pdl\drivers\peripheral\scb/cy_scb_common.h **** __STATIC_INLINE bool Cy_SCB_IsTxDataWidthByte(CySCB_Type const *base)
1694:Generated_Source\PSoC6\pdl\drivers\peripheral\scb/cy_scb_common.h **** {
1695:Generated_Source\PSoC6\pdl\drivers\peripheral\scb/cy_scb_common.h ****     return (_FLD2VAL(SCB_TX_CTRL_DATA_WIDTH, base->TX_CTRL) < CY_SCB_BYTE_WIDTH);
1696:Generated_Source\PSoC6\pdl\drivers\peripheral\scb/cy_scb_common.h **** }
1697:Generated_Source\PSoC6\pdl\drivers\peripheral\scb/cy_scb_common.h **** 
1698:Generated_Source\PSoC6\pdl\drivers\peripheral\scb/cy_scb_common.h **** 
1699:Generated_Source\PSoC6\pdl\drivers\peripheral\scb/cy_scb_common.h **** /*******************************************************************************
1700:Generated_Source\PSoC6\pdl\drivers\peripheral\scb/cy_scb_common.h **** * Function Name: Cy_SCB_FwBlockReset
1701:Generated_Source\PSoC6\pdl\drivers\peripheral\scb/cy_scb_common.h **** ****************************************************************************//**
1702:Generated_Source\PSoC6\pdl\drivers\peripheral\scb/cy_scb_common.h **** *
1703:Generated_Source\PSoC6\pdl\drivers\peripheral\scb/cy_scb_common.h **** * Disables and enables the block to return it into the known state (default):
1704:Generated_Source\PSoC6\pdl\drivers\peripheral\scb/cy_scb_common.h **** * FIFOs and interrupt statuses are cleared.
1705:Generated_Source\PSoC6\pdl\drivers\peripheral\scb/cy_scb_common.h **** *
1706:Generated_Source\PSoC6\pdl\drivers\peripheral\scb/cy_scb_common.h **** * \param base
1707:Generated_Source\PSoC6\pdl\drivers\peripheral\scb/cy_scb_common.h **** * The pointer to the SCB instance.
1708:Generated_Source\PSoC6\pdl\drivers\peripheral\scb/cy_scb_common.h **** *
1709:Generated_Source\PSoC6\pdl\drivers\peripheral\scb/cy_scb_common.h **** *******************************************************************************/
1710:Generated_Source\PSoC6\pdl\drivers\peripheral\scb/cy_scb_common.h **** __STATIC_INLINE void Cy_SCB_FwBlockReset(CySCB_Type *base)
1711:Generated_Source\PSoC6\pdl\drivers\peripheral\scb/cy_scb_common.h **** {
 956              		.loc 1 1711 0
 957              		.cfi_startproc
 958              		@ args = 0, pretend = 0, frame = 8
 959              		@ frame_needed = 1, uses_anonymous_args = 0
ARM GAS  C:\Users\salaz\AppData\Local\Temp\ccU0pQaU.s 			page 48


 960 0000 80B5     		push	{r7, lr}
 961              		.cfi_def_cfa_offset 8
 962              		.cfi_offset 7, -8
 963              		.cfi_offset 14, -4
 964 0002 82B0     		sub	sp, sp, #8
 965              		.cfi_def_cfa_offset 16
 966 0004 00AF     		add	r7, sp, #0
 967              		.cfi_def_cfa_register 7
 968 0006 7860     		str	r0, [r7, #4]
1712:Generated_Source\PSoC6\pdl\drivers\peripheral\scb/cy_scb_common.h ****     base->CTRL &= (uint32_t) ~SCB_CTRL_ENABLED_Msk;
 969              		.loc 1 1712 0
 970 0008 7B68     		ldr	r3, [r7, #4]
 971 000a 1B68     		ldr	r3, [r3]
 972 000c 5B00     		lsls	r3, r3, #1
 973 000e 5A08     		lsrs	r2, r3, #1
 974 0010 7B68     		ldr	r3, [r7, #4]
 975 0012 1A60     		str	r2, [r3]
1713:Generated_Source\PSoC6\pdl\drivers\peripheral\scb/cy_scb_common.h **** 
1714:Generated_Source\PSoC6\pdl\drivers\peripheral\scb/cy_scb_common.h ****     /* Clean-up command registers */
1715:Generated_Source\PSoC6\pdl\drivers\peripheral\scb/cy_scb_common.h ****     base->I2C_M_CMD = 0UL;
 976              		.loc 1 1715 0
 977 0014 7B68     		ldr	r3, [r7, #4]
 978 0016 0022     		movs	r2, #0
 979 0018 9A66     		str	r2, [r3, #104]
1716:Generated_Source\PSoC6\pdl\drivers\peripheral\scb/cy_scb_common.h ****     base->I2C_S_CMD = 0UL;
 980              		.loc 1 1716 0
 981 001a 7B68     		ldr	r3, [r7, #4]
 982 001c 0022     		movs	r2, #0
 983 001e DA66     		str	r2, [r3, #108]
1717:Generated_Source\PSoC6\pdl\drivers\peripheral\scb/cy_scb_common.h **** 
1718:Generated_Source\PSoC6\pdl\drivers\peripheral\scb/cy_scb_common.h ****     base->CTRL |= (uint32_t)  SCB_CTRL_ENABLED_Msk;
 984              		.loc 1 1718 0
 985 0020 7B68     		ldr	r3, [r7, #4]
 986 0022 1B68     		ldr	r3, [r3]
 987 0024 8022     		movs	r2, #128
 988 0026 1206     		lsls	r2, r2, #24
 989 0028 1A43     		orrs	r2, r3
 990 002a 7B68     		ldr	r3, [r7, #4]
 991 002c 1A60     		str	r2, [r3]
1719:Generated_Source\PSoC6\pdl\drivers\peripheral\scb/cy_scb_common.h **** 
1720:Generated_Source\PSoC6\pdl\drivers\peripheral\scb/cy_scb_common.h ****     (void) base->CTRL;
 992              		.loc 1 1720 0
 993 002e 7B68     		ldr	r3, [r7, #4]
 994 0030 1B68     		ldr	r3, [r3]
1721:Generated_Source\PSoC6\pdl\drivers\peripheral\scb/cy_scb_common.h **** }
 995              		.loc 1 1721 0
 996 0032 C046     		nop
 997 0034 BD46     		mov	sp, r7
 998 0036 02B0     		add	sp, sp, #8
 999              		@ sp needed
 1000 0038 80BD     		pop	{r7, pc}
 1001              		.cfi_endproc
 1002              	.LFE119:
 1003              		.size	Cy_SCB_FwBlockReset, .-Cy_SCB_FwBlockReset
 1004 003a C046     		.section	.text.Cy_SCB_GetRxFifoLevel,"ax",%progbits
 1005              		.align	2
 1006              		.code	16
ARM GAS  C:\Users\salaz\AppData\Local\Temp\ccU0pQaU.s 			page 49


 1007              		.thumb_func
 1008              		.type	Cy_SCB_GetRxFifoLevel, %function
 1009              	Cy_SCB_GetRxFifoLevel:
 1010              	.LFB120:
1722:Generated_Source\PSoC6\pdl\drivers\peripheral\scb/cy_scb_common.h **** 
1723:Generated_Source\PSoC6\pdl\drivers\peripheral\scb/cy_scb_common.h **** 
1724:Generated_Source\PSoC6\pdl\drivers\peripheral\scb/cy_scb_common.h **** /*******************************************************************************
1725:Generated_Source\PSoC6\pdl\drivers\peripheral\scb/cy_scb_common.h **** * Function Name: Cy_SCB_GetRxFifoLevel
1726:Generated_Source\PSoC6\pdl\drivers\peripheral\scb/cy_scb_common.h **** ****************************************************************************//**
1727:Generated_Source\PSoC6\pdl\drivers\peripheral\scb/cy_scb_common.h **** *
1728:Generated_Source\PSoC6\pdl\drivers\peripheral\scb/cy_scb_common.h **** * Returns the RX FIFO level when there are more words in the RX FIFO than the
1729:Generated_Source\PSoC6\pdl\drivers\peripheral\scb/cy_scb_common.h **** * level, the RX FIFO level interrupt is triggered.
1730:Generated_Source\PSoC6\pdl\drivers\peripheral\scb/cy_scb_common.h **** *
1731:Generated_Source\PSoC6\pdl\drivers\peripheral\scb/cy_scb_common.h **** * \param base
1732:Generated_Source\PSoC6\pdl\drivers\peripheral\scb/cy_scb_common.h **** * The pointer to the SCB instance.
1733:Generated_Source\PSoC6\pdl\drivers\peripheral\scb/cy_scb_common.h **** *
1734:Generated_Source\PSoC6\pdl\drivers\peripheral\scb/cy_scb_common.h **** * \return
1735:Generated_Source\PSoC6\pdl\drivers\peripheral\scb/cy_scb_common.h **** * RX FIFO level.
1736:Generated_Source\PSoC6\pdl\drivers\peripheral\scb/cy_scb_common.h **** *
1737:Generated_Source\PSoC6\pdl\drivers\peripheral\scb/cy_scb_common.h **** *******************************************************************************/
1738:Generated_Source\PSoC6\pdl\drivers\peripheral\scb/cy_scb_common.h **** __STATIC_INLINE uint32_t Cy_SCB_GetRxFifoLevel(CySCB_Type const *base)
1739:Generated_Source\PSoC6\pdl\drivers\peripheral\scb/cy_scb_common.h **** {
 1011              		.loc 1 1739 0
 1012              		.cfi_startproc
 1013              		@ args = 0, pretend = 0, frame = 8
 1014              		@ frame_needed = 1, uses_anonymous_args = 0
 1015 0000 80B5     		push	{r7, lr}
 1016              		.cfi_def_cfa_offset 8
 1017              		.cfi_offset 7, -8
 1018              		.cfi_offset 14, -4
 1019 0002 82B0     		sub	sp, sp, #8
 1020              		.cfi_def_cfa_offset 16
 1021 0004 00AF     		add	r7, sp, #0
 1022              		.cfi_def_cfa_register 7
 1023 0006 7860     		str	r0, [r7, #4]
1740:Generated_Source\PSoC6\pdl\drivers\peripheral\scb/cy_scb_common.h ****     return _FLD2VAL(SCB_RX_FIFO_CTRL_TRIGGER_LEVEL, base->RX_FIFO_CTRL);
 1024              		.loc 1 1740 0
 1025 0008 7A68     		ldr	r2, [r7, #4]
 1026 000a C123     		movs	r3, #193
 1027 000c 9B00     		lsls	r3, r3, #2
 1028 000e D358     		ldr	r3, [r2, r3]
 1029 0010 FF22     		movs	r2, #255
 1030 0012 1340     		ands	r3, r2
1741:Generated_Source\PSoC6\pdl\drivers\peripheral\scb/cy_scb_common.h **** }
 1031              		.loc 1 1741 0
 1032 0014 1800     		movs	r0, r3
 1033 0016 BD46     		mov	sp, r7
 1034 0018 02B0     		add	sp, sp, #8
 1035              		@ sp needed
 1036 001a 80BD     		pop	{r7, pc}
 1037              		.cfi_endproc
 1038              	.LFE120:
 1039              		.size	Cy_SCB_GetRxFifoLevel, .-Cy_SCB_GetRxFifoLevel
 1040              		.section	.text.Cy_SCB_EZI2C_Enable,"ax",%progbits
 1041              		.align	2
 1042              		.code	16
 1043              		.thumb_func
ARM GAS  C:\Users\salaz\AppData\Local\Temp\ccU0pQaU.s 			page 50


 1044              		.type	Cy_SCB_EZI2C_Enable, %function
 1045              	Cy_SCB_EZI2C_Enable:
 1046              	.LFB121:
 1047              		.file 2 "Generated_Source\\PSoC6\\pdl\\drivers\\peripheral\\scb\\cy_scb_ezi2c.h"
   1:Generated_Source\PSoC6\pdl\drivers\peripheral\scb/cy_scb_ezi2c.h **** /***************************************************************************//**
   2:Generated_Source\PSoC6\pdl\drivers\peripheral\scb/cy_scb_ezi2c.h **** * \file cy_scb_ezi2c.h
   3:Generated_Source\PSoC6\pdl\drivers\peripheral\scb/cy_scb_ezi2c.h **** * \version 2.10
   4:Generated_Source\PSoC6\pdl\drivers\peripheral\scb/cy_scb_ezi2c.h **** *
   5:Generated_Source\PSoC6\pdl\drivers\peripheral\scb/cy_scb_ezi2c.h **** * Provides EZI2C API declarations of the SCB driver.
   6:Generated_Source\PSoC6\pdl\drivers\peripheral\scb/cy_scb_ezi2c.h **** *
   7:Generated_Source\PSoC6\pdl\drivers\peripheral\scb/cy_scb_ezi2c.h **** ********************************************************************************
   8:Generated_Source\PSoC6\pdl\drivers\peripheral\scb/cy_scb_ezi2c.h **** * \copyright
   9:Generated_Source\PSoC6\pdl\drivers\peripheral\scb/cy_scb_ezi2c.h **** * Copyright 2016-2018, Cypress Semiconductor Corporation.  All rights reserved.
  10:Generated_Source\PSoC6\pdl\drivers\peripheral\scb/cy_scb_ezi2c.h **** * You may use this file only in accordance with the license, terms, conditions,
  11:Generated_Source\PSoC6\pdl\drivers\peripheral\scb/cy_scb_ezi2c.h **** * disclaimers, and limitations in the end user license agreement accompanying
  12:Generated_Source\PSoC6\pdl\drivers\peripheral\scb/cy_scb_ezi2c.h **** * the software package with which this file was provided.
  13:Generated_Source\PSoC6\pdl\drivers\peripheral\scb/cy_scb_ezi2c.h **** *******************************************************************************/
  14:Generated_Source\PSoC6\pdl\drivers\peripheral\scb/cy_scb_ezi2c.h **** 
  15:Generated_Source\PSoC6\pdl\drivers\peripheral\scb/cy_scb_ezi2c.h **** /**
  16:Generated_Source\PSoC6\pdl\drivers\peripheral\scb/cy_scb_ezi2c.h **** * \addtogroup group_scb_ezi2c
  17:Generated_Source\PSoC6\pdl\drivers\peripheral\scb/cy_scb_ezi2c.h **** * \{
  18:Generated_Source\PSoC6\pdl\drivers\peripheral\scb/cy_scb_ezi2c.h **** * Driver API for EZI2C Slave Peripheral
  19:Generated_Source\PSoC6\pdl\drivers\peripheral\scb/cy_scb_ezi2c.h **** *
  20:Generated_Source\PSoC6\pdl\drivers\peripheral\scb/cy_scb_ezi2c.h **** * I2C - The Inter-Integrated Circuit (I2C) bus is an industry-standard.
  21:Generated_Source\PSoC6\pdl\drivers\peripheral\scb/cy_scb_ezi2c.h **** * The two-wire hardware interface was developed by Philips Semiconductors
  22:Generated_Source\PSoC6\pdl\drivers\peripheral\scb/cy_scb_ezi2c.h **** * (now NXP Semiconductors).
  23:Generated_Source\PSoC6\pdl\drivers\peripheral\scb/cy_scb_ezi2c.h **** *
  24:Generated_Source\PSoC6\pdl\drivers\peripheral\scb/cy_scb_ezi2c.h **** * The EZI2C slave peripheral driver provides an API to implement the I2C slave
  25:Generated_Source\PSoC6\pdl\drivers\peripheral\scb/cy_scb_ezi2c.h **** * device based on the SCB hardware block. This slave device emulates a common
  26:Generated_Source\PSoC6\pdl\drivers\peripheral\scb/cy_scb_ezi2c.h **** * I2C EEPROM interface that acts like dual-port memory between the external
  27:Generated_Source\PSoC6\pdl\drivers\peripheral\scb/cy_scb_ezi2c.h **** * master and your code. I2C devices based on the SCB hardware are compatible
  28:Generated_Source\PSoC6\pdl\drivers\peripheral\scb/cy_scb_ezi2c.h **** * with the I2C Standard mode, Fast mode, and Fast mode Plus specifications, as
  29:Generated_Source\PSoC6\pdl\drivers\peripheral\scb/cy_scb_ezi2c.h **** * defined in the I2C bus specification.
  30:Generated_Source\PSoC6\pdl\drivers\peripheral\scb/cy_scb_ezi2c.h **** *
  31:Generated_Source\PSoC6\pdl\drivers\peripheral\scb/cy_scb_ezi2c.h **** * Features:
  32:Generated_Source\PSoC6\pdl\drivers\peripheral\scb/cy_scb_ezi2c.h **** * * An industry-standard I2C bus interface
  33:Generated_Source\PSoC6\pdl\drivers\peripheral\scb/cy_scb_ezi2c.h **** * * Supports standard data rates of 100/400/1000 kbps
  34:Generated_Source\PSoC6\pdl\drivers\peripheral\scb/cy_scb_ezi2c.h **** * * Emulates a common I2C EEPROM Interface
  35:Generated_Source\PSoC6\pdl\drivers\peripheral\scb/cy_scb_ezi2c.h **** * * Acts like dual-port memory between the external master and your code
  36:Generated_Source\PSoC6\pdl\drivers\peripheral\scb/cy_scb_ezi2c.h **** * * Supports Hardware Address Match
  37:Generated_Source\PSoC6\pdl\drivers\peripheral\scb/cy_scb_ezi2c.h **** * * Supports two hardware addresses with separate buffers
  38:Generated_Source\PSoC6\pdl\drivers\peripheral\scb/cy_scb_ezi2c.h **** * * Supports Wake from Deep Sleep on address match
  39:Generated_Source\PSoC6\pdl\drivers\peripheral\scb/cy_scb_ezi2c.h **** * * Simple to set up and use; does not require calling EZI2C API
  40:Generated_Source\PSoC6\pdl\drivers\peripheral\scb/cy_scb_ezi2c.h **** *   at run time.
  41:Generated_Source\PSoC6\pdl\drivers\peripheral\scb/cy_scb_ezi2c.h **** *
  42:Generated_Source\PSoC6\pdl\drivers\peripheral\scb/cy_scb_ezi2c.h **** * \section group_scb_ezi2c_configuration Configuration Considerations
  43:Generated_Source\PSoC6\pdl\drivers\peripheral\scb/cy_scb_ezi2c.h **** * The EZI2C slave driver configuration can be divided to number of sequential 
  44:Generated_Source\PSoC6\pdl\drivers\peripheral\scb/cy_scb_ezi2c.h **** * steps listed below: 
  45:Generated_Source\PSoC6\pdl\drivers\peripheral\scb/cy_scb_ezi2c.h **** * * \ref group_scb_ezi2c_config
  46:Generated_Source\PSoC6\pdl\drivers\peripheral\scb/cy_scb_ezi2c.h **** * * \ref group_scb_ezi2c_pins
  47:Generated_Source\PSoC6\pdl\drivers\peripheral\scb/cy_scb_ezi2c.h **** * * \ref group_scb_ezi2c_clock
  48:Generated_Source\PSoC6\pdl\drivers\peripheral\scb/cy_scb_ezi2c.h **** * * \ref group_scb_ezi2c_data_rate
  49:Generated_Source\PSoC6\pdl\drivers\peripheral\scb/cy_scb_ezi2c.h **** * * \ref group_scb_ezi2c_intr
  50:Generated_Source\PSoC6\pdl\drivers\peripheral\scb/cy_scb_ezi2c.h **** * * \ref group_scb_ezi2c_enable
  51:Generated_Source\PSoC6\pdl\drivers\peripheral\scb/cy_scb_ezi2c.h **** * 
  52:Generated_Source\PSoC6\pdl\drivers\peripheral\scb/cy_scb_ezi2c.h **** * \note 
  53:Generated_Source\PSoC6\pdl\drivers\peripheral\scb/cy_scb_ezi2c.h **** * EZI2C slave driver is built on top of the SCB hardware block. The SCB3 
ARM GAS  C:\Users\salaz\AppData\Local\Temp\ccU0pQaU.s 			page 51


  54:Generated_Source\PSoC6\pdl\drivers\peripheral\scb/cy_scb_ezi2c.h **** * instance is used as an example for all code snippets. Modify the code to 
  55:Generated_Source\PSoC6\pdl\drivers\peripheral\scb/cy_scb_ezi2c.h **** * match your design.
  56:Generated_Source\PSoC6\pdl\drivers\peripheral\scb/cy_scb_ezi2c.h **** *
