ARM GAS  C:\Users\salaz\AppData\Local\Temp\ccU0pQaU.s 			page 1


   1              		.syntax unified
   2              		.cpu cortex-m0plus
   3              		.fpu softvfp
   4              		.eabi_attribute 20, 1
   5              		.eabi_attribute 21, 1
   6              		.eabi_attribute 23, 3
   7              		.eabi_attribute 24, 1
   8              		.eabi_attribute 25, 1
   9              		.eabi_attribute 26, 1
  10              		.eabi_attribute 30, 6
  11              		.eabi_attribute 34, 0
  12              		.eabi_attribute 18, 4
  13              		.thumb
  14              		.syntax unified
  15              		.file	"cy_scb_ezi2c.c"
  16              		.text
  17              	.Ltext0:
  18              		.cfi_sections	.debug_frame
  19              		.section	.text.Cy_SCB_ReadRxFifo,"ax",%progbits
  20              		.align	2
  21              		.code	16
  22              		.thumb_func
  23              		.type	Cy_SCB_ReadRxFifo, %function
  24              	Cy_SCB_ReadRxFifo:
  25              	.LFB69:
  26              		.file 1 "Generated_Source\\PSoC6\\pdl\\drivers\\peripheral\\scb\\cy_scb_common.h"
   1:Generated_Source\PSoC6\pdl\drivers\peripheral\scb/cy_scb_common.h **** /***************************************************************************//**
   2:Generated_Source\PSoC6\pdl\drivers\peripheral\scb/cy_scb_common.h **** * \file cy_scb_common.h
   3:Generated_Source\PSoC6\pdl\drivers\peripheral\scb/cy_scb_common.h **** * \version 2.10
   4:Generated_Source\PSoC6\pdl\drivers\peripheral\scb/cy_scb_common.h **** *
   5:Generated_Source\PSoC6\pdl\drivers\peripheral\scb/cy_scb_common.h **** * Provides common API declarations of the SCB driver.
   6:Generated_Source\PSoC6\pdl\drivers\peripheral\scb/cy_scb_common.h **** *
   7:Generated_Source\PSoC6\pdl\drivers\peripheral\scb/cy_scb_common.h **** ********************************************************************************
   8:Generated_Source\PSoC6\pdl\drivers\peripheral\scb/cy_scb_common.h **** * \copyright
   9:Generated_Source\PSoC6\pdl\drivers\peripheral\scb/cy_scb_common.h **** * Copyright 2016-2018, Cypress Semiconductor Corporation.  All rights reserved.
  10:Generated_Source\PSoC6\pdl\drivers\peripheral\scb/cy_scb_common.h **** * You may use this file only in accordance with the license, terms, conditions,
  11:Generated_Source\PSoC6\pdl\drivers\peripheral\scb/cy_scb_common.h **** * disclaimers, and limitations in the end user license agreement accompanying
  12:Generated_Source\PSoC6\pdl\drivers\peripheral\scb/cy_scb_common.h **** * the software package with which this file was provided.
  13:Generated_Source\PSoC6\pdl\drivers\peripheral\scb/cy_scb_common.h **** *******************************************************************************/
  14:Generated_Source\PSoC6\pdl\drivers\peripheral\scb/cy_scb_common.h **** 
  15:Generated_Source\PSoC6\pdl\drivers\peripheral\scb/cy_scb_common.h **** /**
  16:Generated_Source\PSoC6\pdl\drivers\peripheral\scb/cy_scb_common.h **** * \defgroup group_scb Serial Communication Block (SCB)
  17:Generated_Source\PSoC6\pdl\drivers\peripheral\scb/cy_scb_common.h **** * \{
  18:Generated_Source\PSoC6\pdl\drivers\peripheral\scb/cy_scb_common.h **** * \defgroup group_scb_common Common
  19:Generated_Source\PSoC6\pdl\drivers\peripheral\scb/cy_scb_common.h **** * \defgroup group_scb_ezi2c  EZI2C (SCB)
  20:Generated_Source\PSoC6\pdl\drivers\peripheral\scb/cy_scb_common.h **** * \defgroup group_scb_i2c    I2C (SCB)
  21:Generated_Source\PSoC6\pdl\drivers\peripheral\scb/cy_scb_common.h **** * \defgroup group_scb_spi    SPI (SCB)
  22:Generated_Source\PSoC6\pdl\drivers\peripheral\scb/cy_scb_common.h **** * \defgroup group_scb_uart   UART (SCB)
  23:Generated_Source\PSoC6\pdl\drivers\peripheral\scb/cy_scb_common.h **** * \} */
  24:Generated_Source\PSoC6\pdl\drivers\peripheral\scb/cy_scb_common.h **** 
  25:Generated_Source\PSoC6\pdl\drivers\peripheral\scb/cy_scb_common.h **** /**
  26:Generated_Source\PSoC6\pdl\drivers\peripheral\scb/cy_scb_common.h **** * \addtogroup group_scb_common
  27:Generated_Source\PSoC6\pdl\drivers\peripheral\scb/cy_scb_common.h **** * \{
  28:Generated_Source\PSoC6\pdl\drivers\peripheral\scb/cy_scb_common.h **** *
  29:Generated_Source\PSoC6\pdl\drivers\peripheral\scb/cy_scb_common.h **** * Common API for the Serial Communication Block.
  30:Generated_Source\PSoC6\pdl\drivers\peripheral\scb/cy_scb_common.h **** *
  31:Generated_Source\PSoC6\pdl\drivers\peripheral\scb/cy_scb_common.h **** * This is the common API that provides an interface to the SCB hardware.
ARM GAS  C:\Users\salaz\AppData\Local\Temp\ccU0pQaU.s 			page 2


  32:Generated_Source\PSoC6\pdl\drivers\peripheral\scb/cy_scb_common.h **** * The I2C, SPI, and UART drivers use this common API.
  33:Generated_Source\PSoC6\pdl\drivers\peripheral\scb/cy_scb_common.h **** * Most users will use individual drivers and do not need to use the common
  34:Generated_Source\PSoC6\pdl\drivers\peripheral\scb/cy_scb_common.h **** * API for the SCB. However, you can use the common SCB API to implement
  35:Generated_Source\PSoC6\pdl\drivers\peripheral\scb/cy_scb_common.h **** * a custom driver based on the SCB hardware.
  36:Generated_Source\PSoC6\pdl\drivers\peripheral\scb/cy_scb_common.h **** *
  37:Generated_Source\PSoC6\pdl\drivers\peripheral\scb/cy_scb_common.h **** * \section group_scb_common_configuration Configuration Considerations
  38:Generated_Source\PSoC6\pdl\drivers\peripheral\scb/cy_scb_common.h **** *
  39:Generated_Source\PSoC6\pdl\drivers\peripheral\scb/cy_scb_common.h **** * This is not a driver and it does not require configuration.
  40:Generated_Source\PSoC6\pdl\drivers\peripheral\scb/cy_scb_common.h **** *
  41:Generated_Source\PSoC6\pdl\drivers\peripheral\scb/cy_scb_common.h **** * \section group_scb_common_more_information More Information
  42:Generated_Source\PSoC6\pdl\drivers\peripheral\scb/cy_scb_common.h **** *
  43:Generated_Source\PSoC6\pdl\drivers\peripheral\scb/cy_scb_common.h **** * Refer to the SCB chapter of the technical reference manual (TRM).
  44:Generated_Source\PSoC6\pdl\drivers\peripheral\scb/cy_scb_common.h **** *
  45:Generated_Source\PSoC6\pdl\drivers\peripheral\scb/cy_scb_common.h **** * \section group_scb_common_MISRA MISRA-C Compliance
  46:Generated_Source\PSoC6\pdl\drivers\peripheral\scb/cy_scb_common.h **** * <table class="doxtable">
  47:Generated_Source\PSoC6\pdl\drivers\peripheral\scb/cy_scb_common.h **** *   <tr>
  48:Generated_Source\PSoC6\pdl\drivers\peripheral\scb/cy_scb_common.h **** *     <th>MISRA rule</th>
  49:Generated_Source\PSoC6\pdl\drivers\peripheral\scb/cy_scb_common.h **** *     <th>Rule Class (Required/Advisory)</th>
  50:Generated_Source\PSoC6\pdl\drivers\peripheral\scb/cy_scb_common.h **** *     <th>Rule Description</th>
  51:Generated_Source\PSoC6\pdl\drivers\peripheral\scb/cy_scb_common.h **** *     <th>Description of Deviation(s)</th>
  52:Generated_Source\PSoC6\pdl\drivers\peripheral\scb/cy_scb_common.h **** *   </tr>
  53:Generated_Source\PSoC6\pdl\drivers\peripheral\scb/cy_scb_common.h **** *   <tr>
  54:Generated_Source\PSoC6\pdl\drivers\peripheral\scb/cy_scb_common.h **** *     <td>11.4</td>
  55:Generated_Source\PSoC6\pdl\drivers\peripheral\scb/cy_scb_common.h **** *     <td>A</td>
  56:Generated_Source\PSoC6\pdl\drivers\peripheral\scb/cy_scb_common.h **** *     <td>A cast should not be performed between a pointer to object type and
  57:Generated_Source\PSoC6\pdl\drivers\peripheral\scb/cy_scb_common.h **** *         a different pointer to object type.</td>
  58:Generated_Source\PSoC6\pdl\drivers\peripheral\scb/cy_scb_common.h **** *     <td>The pointer to the buffer memory is void to allow handling of
  59:Generated_Source\PSoC6\pdl\drivers\peripheral\scb/cy_scb_common.h **** *         different data types: uint8_t (4-8 bits) or uint16_t (9-16 bits).
  60:Generated_Source\PSoC6\pdl\drivers\peripheral\scb/cy_scb_common.h **** *         The cast operation is safe because the configuration is verified
  61:Generated_Source\PSoC6\pdl\drivers\peripheral\scb/cy_scb_common.h **** *         before operation is performed.
  62:Generated_Source\PSoC6\pdl\drivers\peripheral\scb/cy_scb_common.h **** *         </td>
  63:Generated_Source\PSoC6\pdl\drivers\peripheral\scb/cy_scb_common.h **** *   </tr>
  64:Generated_Source\PSoC6\pdl\drivers\peripheral\scb/cy_scb_common.h **** * </table>
  65:Generated_Source\PSoC6\pdl\drivers\peripheral\scb/cy_scb_common.h **** *
  66:Generated_Source\PSoC6\pdl\drivers\peripheral\scb/cy_scb_common.h **** * \section group_scb_common_changelog Changelog
  67:Generated_Source\PSoC6\pdl\drivers\peripheral\scb/cy_scb_common.h **** * <table class="doxtable">
  68:Generated_Source\PSoC6\pdl\drivers\peripheral\scb/cy_scb_common.h **** *   <tr><th>Version</th><th>Changes</th><th>Reason for Change</th></tr>
  69:Generated_Source\PSoC6\pdl\drivers\peripheral\scb/cy_scb_common.h **** *   <tr>
  70:Generated_Source\PSoC6\pdl\drivers\peripheral\scb/cy_scb_common.h **** *     <td>2.10</td>
  71:Generated_Source\PSoC6\pdl\drivers\peripheral\scb/cy_scb_common.h **** *     <td>None.</td>
  72:Generated_Source\PSoC6\pdl\drivers\peripheral\scb/cy_scb_common.h **** *     <td>SCB I2C driver updated.</td>
  73:Generated_Source\PSoC6\pdl\drivers\peripheral\scb/cy_scb_common.h **** *   </tr>
  74:Generated_Source\PSoC6\pdl\drivers\peripheral\scb/cy_scb_common.h **** *   <tr>
  75:Generated_Source\PSoC6\pdl\drivers\peripheral\scb/cy_scb_common.h **** *     <td rowspan="2"> 2.0</td>
  76:Generated_Source\PSoC6\pdl\drivers\peripheral\scb/cy_scb_common.h **** *     <td>Added parameters validation for public API.
  77:Generated_Source\PSoC6\pdl\drivers\peripheral\scb/cy_scb_common.h **** *     <td></td>
  78:Generated_Source\PSoC6\pdl\drivers\peripheral\scb/cy_scb_common.h **** *   </tr>
  79:Generated_Source\PSoC6\pdl\drivers\peripheral\scb/cy_scb_common.h **** *   <tr>
  80:Generated_Source\PSoC6\pdl\drivers\peripheral\scb/cy_scb_common.h **** *     <td>Fixed functions which return interrupt status to return only defined
  81:Generated_Source\PSoC6\pdl\drivers\peripheral\scb/cy_scb_common.h **** *         set of interrupt statuses.</td>
  82:Generated_Source\PSoC6\pdl\drivers\peripheral\scb/cy_scb_common.h **** *     <td></td>
  83:Generated_Source\PSoC6\pdl\drivers\peripheral\scb/cy_scb_common.h **** *   </tr>
  84:Generated_Source\PSoC6\pdl\drivers\peripheral\scb/cy_scb_common.h **** *   <tr>
  85:Generated_Source\PSoC6\pdl\drivers\peripheral\scb/cy_scb_common.h **** *     <td>1.0</td>
  86:Generated_Source\PSoC6\pdl\drivers\peripheral\scb/cy_scb_common.h **** *     <td>Initial version.</td>
  87:Generated_Source\PSoC6\pdl\drivers\peripheral\scb/cy_scb_common.h **** *     <td></td>
  88:Generated_Source\PSoC6\pdl\drivers\peripheral\scb/cy_scb_common.h **** *   </tr>
ARM GAS  C:\Users\salaz\AppData\Local\Temp\ccU0pQaU.s 			page 3


  89:Generated_Source\PSoC6\pdl\drivers\peripheral\scb/cy_scb_common.h **** * </table>
  90:Generated_Source\PSoC6\pdl\drivers\peripheral\scb/cy_scb_common.h **** *
  91:Generated_Source\PSoC6\pdl\drivers\peripheral\scb/cy_scb_common.h **** * \defgroup group_scb_common_macros Macros
  92:Generated_Source\PSoC6\pdl\drivers\peripheral\scb/cy_scb_common.h **** * \defgroup group_scb_common_functions Functions
  93:Generated_Source\PSoC6\pdl\drivers\peripheral\scb/cy_scb_common.h **** * \defgroup group_scb_common_data_structures Data Structures
  94:Generated_Source\PSoC6\pdl\drivers\peripheral\scb/cy_scb_common.h **** *
  95:Generated_Source\PSoC6\pdl\drivers\peripheral\scb/cy_scb_common.h **** */
  96:Generated_Source\PSoC6\pdl\drivers\peripheral\scb/cy_scb_common.h **** 
  97:Generated_Source\PSoC6\pdl\drivers\peripheral\scb/cy_scb_common.h **** #if !defined(CY_SCB_COMMON_H)
  98:Generated_Source\PSoC6\pdl\drivers\peripheral\scb/cy_scb_common.h **** #define CY_SCB_COMMON_H
  99:Generated_Source\PSoC6\pdl\drivers\peripheral\scb/cy_scb_common.h **** 
 100:Generated_Source\PSoC6\pdl\drivers\peripheral\scb/cy_scb_common.h **** #include <stdint.h>
 101:Generated_Source\PSoC6\pdl\drivers\peripheral\scb/cy_scb_common.h **** #include <stddef.h>
 102:Generated_Source\PSoC6\pdl\drivers\peripheral\scb/cy_scb_common.h **** #include <stdbool.h>
 103:Generated_Source\PSoC6\pdl\drivers\peripheral\scb/cy_scb_common.h **** #include "cy_device_headers.h"
 104:Generated_Source\PSoC6\pdl\drivers\peripheral\scb/cy_scb_common.h **** #include "syslib/cy_syslib.h"
 105:Generated_Source\PSoC6\pdl\drivers\peripheral\scb/cy_scb_common.h **** #include "syspm/cy_syspm.h"
 106:Generated_Source\PSoC6\pdl\drivers\peripheral\scb/cy_scb_common.h **** 
 107:Generated_Source\PSoC6\pdl\drivers\peripheral\scb/cy_scb_common.h **** #ifndef CY_IP_MXSCB
 108:Generated_Source\PSoC6\pdl\drivers\peripheral\scb/cy_scb_common.h ****     #error "The SCB driver is not supported on this device"
 109:Generated_Source\PSoC6\pdl\drivers\peripheral\scb/cy_scb_common.h **** #endif
 110:Generated_Source\PSoC6\pdl\drivers\peripheral\scb/cy_scb_common.h **** 
 111:Generated_Source\PSoC6\pdl\drivers\peripheral\scb/cy_scb_common.h **** #if defined(__cplusplus)
 112:Generated_Source\PSoC6\pdl\drivers\peripheral\scb/cy_scb_common.h **** extern "C" {
 113:Generated_Source\PSoC6\pdl\drivers\peripheral\scb/cy_scb_common.h **** #endif
 114:Generated_Source\PSoC6\pdl\drivers\peripheral\scb/cy_scb_common.h **** 
 115:Generated_Source\PSoC6\pdl\drivers\peripheral\scb/cy_scb_common.h **** 
 116:Generated_Source\PSoC6\pdl\drivers\peripheral\scb/cy_scb_common.h **** /***************************************
 117:Generated_Source\PSoC6\pdl\drivers\peripheral\scb/cy_scb_common.h **** *        Function Prototypes
 118:Generated_Source\PSoC6\pdl\drivers\peripheral\scb/cy_scb_common.h **** ***************************************/
 119:Generated_Source\PSoC6\pdl\drivers\peripheral\scb/cy_scb_common.h **** 
 120:Generated_Source\PSoC6\pdl\drivers\peripheral\scb/cy_scb_common.h **** /**
 121:Generated_Source\PSoC6\pdl\drivers\peripheral\scb/cy_scb_common.h **** * \addtogroup group_scb_common_functions
 122:Generated_Source\PSoC6\pdl\drivers\peripheral\scb/cy_scb_common.h **** * \{
 123:Generated_Source\PSoC6\pdl\drivers\peripheral\scb/cy_scb_common.h **** */
 124:Generated_Source\PSoC6\pdl\drivers\peripheral\scb/cy_scb_common.h **** __STATIC_INLINE uint32_t Cy_SCB_ReadRxFifo    (CySCB_Type const *base);
 125:Generated_Source\PSoC6\pdl\drivers\peripheral\scb/cy_scb_common.h **** __STATIC_INLINE void     Cy_SCB_SetRxFifoLevel(CySCB_Type *base, uint32_t level);
 126:Generated_Source\PSoC6\pdl\drivers\peripheral\scb/cy_scb_common.h **** __STATIC_INLINE uint32_t Cy_SCB_GetNumInRxFifo(CySCB_Type const *base);
 127:Generated_Source\PSoC6\pdl\drivers\peripheral\scb/cy_scb_common.h **** __STATIC_INLINE uint32_t Cy_SCB_GetRxSrValid  (CySCB_Type const *base);
 128:Generated_Source\PSoC6\pdl\drivers\peripheral\scb/cy_scb_common.h **** __STATIC_INLINE void     Cy_SCB_ClearRxFifo   (CySCB_Type *base);
 129:Generated_Source\PSoC6\pdl\drivers\peripheral\scb/cy_scb_common.h **** 
 130:Generated_Source\PSoC6\pdl\drivers\peripheral\scb/cy_scb_common.h **** __STATIC_INLINE void     Cy_SCB_WriteTxFifo   (CySCB_Type *base, uint32_t data);
 131:Generated_Source\PSoC6\pdl\drivers\peripheral\scb/cy_scb_common.h **** __STATIC_INLINE void     Cy_SCB_SetTxFifoLevel(CySCB_Type *base, uint32_t level);
 132:Generated_Source\PSoC6\pdl\drivers\peripheral\scb/cy_scb_common.h **** __STATIC_INLINE uint32_t Cy_SCB_GetNumInTxFifo(CySCB_Type const *base);
 133:Generated_Source\PSoC6\pdl\drivers\peripheral\scb/cy_scb_common.h **** __STATIC_INLINE uint32_t Cy_SCB_GetTxSrValid  (CySCB_Type const *base);
 134:Generated_Source\PSoC6\pdl\drivers\peripheral\scb/cy_scb_common.h **** __STATIC_INLINE bool     Cy_SCB_IsTxComplete  (CySCB_Type const *base);
 135:Generated_Source\PSoC6\pdl\drivers\peripheral\scb/cy_scb_common.h **** __STATIC_INLINE void     Cy_SCB_ClearTxFifo   (CySCB_Type *base);
 136:Generated_Source\PSoC6\pdl\drivers\peripheral\scb/cy_scb_common.h **** 
 137:Generated_Source\PSoC6\pdl\drivers\peripheral\scb/cy_scb_common.h **** __STATIC_INLINE void     Cy_SCB_SetByteMode(CySCB_Type *base, bool byteMode);
 138:Generated_Source\PSoC6\pdl\drivers\peripheral\scb/cy_scb_common.h **** 
 139:Generated_Source\PSoC6\pdl\drivers\peripheral\scb/cy_scb_common.h **** __STATIC_INLINE uint32_t Cy_SCB_GetInterruptCause(CySCB_Type const *base);
 140:Generated_Source\PSoC6\pdl\drivers\peripheral\scb/cy_scb_common.h **** 
 141:Generated_Source\PSoC6\pdl\drivers\peripheral\scb/cy_scb_common.h **** __STATIC_INLINE uint32_t Cy_SCB_GetRxInterruptStatus(CySCB_Type const *base);
 142:Generated_Source\PSoC6\pdl\drivers\peripheral\scb/cy_scb_common.h **** __STATIC_INLINE void     Cy_SCB_SetRxInterruptMask  (CySCB_Type *base, uint32_t interruptMask);
 143:Generated_Source\PSoC6\pdl\drivers\peripheral\scb/cy_scb_common.h **** __STATIC_INLINE uint32_t Cy_SCB_GetRxInterruptMask  (CySCB_Type const *base);
 144:Generated_Source\PSoC6\pdl\drivers\peripheral\scb/cy_scb_common.h **** __STATIC_INLINE uint32_t Cy_SCB_GetRxInterruptStatusMasked(CySCB_Type const *base);
 145:Generated_Source\PSoC6\pdl\drivers\peripheral\scb/cy_scb_common.h **** __STATIC_INLINE void     Cy_SCB_ClearRxInterrupt    (CySCB_Type *base, uint32_t interruptMask);
ARM GAS  C:\Users\salaz\AppData\Local\Temp\ccU0pQaU.s 			page 4


 146:Generated_Source\PSoC6\pdl\drivers\peripheral\scb/cy_scb_common.h **** __STATIC_INLINE void     Cy_SCB_SetRxInterrupt      (CySCB_Type *base, uint32_t interruptMask);
 147:Generated_Source\PSoC6\pdl\drivers\peripheral\scb/cy_scb_common.h **** 
 148:Generated_Source\PSoC6\pdl\drivers\peripheral\scb/cy_scb_common.h **** __STATIC_INLINE uint32_t Cy_SCB_GetTxInterruptStatus(CySCB_Type const *base);
 149:Generated_Source\PSoC6\pdl\drivers\peripheral\scb/cy_scb_common.h **** __STATIC_INLINE void     Cy_SCB_SetTxInterruptMask  (CySCB_Type *base, uint32_t interruptMask);
 150:Generated_Source\PSoC6\pdl\drivers\peripheral\scb/cy_scb_common.h **** __STATIC_INLINE uint32_t Cy_SCB_GetTxInterruptMask  (CySCB_Type const *base);
 151:Generated_Source\PSoC6\pdl\drivers\peripheral\scb/cy_scb_common.h **** __STATIC_INLINE uint32_t Cy_SCB_GetTxInterruptStatusMasked(CySCB_Type const *base);
 152:Generated_Source\PSoC6\pdl\drivers\peripheral\scb/cy_scb_common.h **** __STATIC_INLINE void     Cy_SCB_ClearTxInterrupt    (CySCB_Type *base, uint32_t interruptMask);
 153:Generated_Source\PSoC6\pdl\drivers\peripheral\scb/cy_scb_common.h **** __STATIC_INLINE void     Cy_SCB_SetTxInterrupt      (CySCB_Type *base, uint32_t interruptMask);
 154:Generated_Source\PSoC6\pdl\drivers\peripheral\scb/cy_scb_common.h **** 
 155:Generated_Source\PSoC6\pdl\drivers\peripheral\scb/cy_scb_common.h **** __STATIC_INLINE uint32_t Cy_SCB_GetMasterInterruptStatus(CySCB_Type const *base);
 156:Generated_Source\PSoC6\pdl\drivers\peripheral\scb/cy_scb_common.h **** __STATIC_INLINE void     Cy_SCB_SetMasterInterruptMask  (CySCB_Type *base, uint32_t interruptMask);
 157:Generated_Source\PSoC6\pdl\drivers\peripheral\scb/cy_scb_common.h **** __STATIC_INLINE uint32_t Cy_SCB_GetMasterInterruptMask  (CySCB_Type const *base);
 158:Generated_Source\PSoC6\pdl\drivers\peripheral\scb/cy_scb_common.h **** __STATIC_INLINE uint32_t Cy_SCB_GetMasterInterruptStatusMasked(CySCB_Type const *base);
 159:Generated_Source\PSoC6\pdl\drivers\peripheral\scb/cy_scb_common.h **** __STATIC_INLINE void     Cy_SCB_ClearMasterInterrupt    (CySCB_Type *base, uint32_t interruptMask);
 160:Generated_Source\PSoC6\pdl\drivers\peripheral\scb/cy_scb_common.h **** __STATIC_INLINE void     Cy_SCB_SetMasterInterrupt      (CySCB_Type *base, uint32_t interruptMask);
 161:Generated_Source\PSoC6\pdl\drivers\peripheral\scb/cy_scb_common.h **** 
 162:Generated_Source\PSoC6\pdl\drivers\peripheral\scb/cy_scb_common.h **** __STATIC_INLINE uint32_t Cy_SCB_GetSlaveInterruptStatus(CySCB_Type const *base);
 163:Generated_Source\PSoC6\pdl\drivers\peripheral\scb/cy_scb_common.h **** __STATIC_INLINE void     Cy_SCB_SetSlaveInterruptMask  (CySCB_Type *base, uint32_t interruptMask);
 164:Generated_Source\PSoC6\pdl\drivers\peripheral\scb/cy_scb_common.h **** __STATIC_INLINE uint32_t Cy_SCB_GetSlaveInterruptMask  (CySCB_Type const *base);
 165:Generated_Source\PSoC6\pdl\drivers\peripheral\scb/cy_scb_common.h **** __STATIC_INLINE uint32_t Cy_SCB_GetSlaveInterruptStatusMasked(CySCB_Type const *base);
 166:Generated_Source\PSoC6\pdl\drivers\peripheral\scb/cy_scb_common.h **** __STATIC_INLINE void     Cy_SCB_ClearSlaveInterrupt    (CySCB_Type *base, uint32_t interruptMask);
 167:Generated_Source\PSoC6\pdl\drivers\peripheral\scb/cy_scb_common.h **** __STATIC_INLINE void     Cy_SCB_SetSlaveInterrupt      (CySCB_Type *base, uint32_t interruptMask);
 168:Generated_Source\PSoC6\pdl\drivers\peripheral\scb/cy_scb_common.h **** 
 169:Generated_Source\PSoC6\pdl\drivers\peripheral\scb/cy_scb_common.h **** __STATIC_INLINE uint32_t Cy_SCB_GetI2CInterruptStatus(CySCB_Type const *base);
 170:Generated_Source\PSoC6\pdl\drivers\peripheral\scb/cy_scb_common.h **** __STATIC_INLINE void     Cy_SCB_SetI2CInterruptMask  (CySCB_Type *base, uint32_t interruptMask);
 171:Generated_Source\PSoC6\pdl\drivers\peripheral\scb/cy_scb_common.h **** __STATIC_INLINE uint32_t Cy_SCB_GetI2CInterruptMask  (CySCB_Type const *base);
 172:Generated_Source\PSoC6\pdl\drivers\peripheral\scb/cy_scb_common.h **** __STATIC_INLINE uint32_t Cy_SCB_GetI2CInterruptStatusMasked(CySCB_Type const *base);
 173:Generated_Source\PSoC6\pdl\drivers\peripheral\scb/cy_scb_common.h **** __STATIC_INLINE void     Cy_SCB_ClearI2CInterrupt    (CySCB_Type *base, uint32_t interruptMask);
 174:Generated_Source\PSoC6\pdl\drivers\peripheral\scb/cy_scb_common.h **** 
 175:Generated_Source\PSoC6\pdl\drivers\peripheral\scb/cy_scb_common.h **** __STATIC_INLINE uint32_t Cy_SCB_GetSpiInterruptStatus(CySCB_Type const *base);
 176:Generated_Source\PSoC6\pdl\drivers\peripheral\scb/cy_scb_common.h **** __STATIC_INLINE void     Cy_SCB_SetSpiInterruptMask  (CySCB_Type *base, uint32_t interruptMask);
 177:Generated_Source\PSoC6\pdl\drivers\peripheral\scb/cy_scb_common.h **** __STATIC_INLINE uint32_t Cy_SCB_GetSpiInterruptMask  (CySCB_Type const *base);
 178:Generated_Source\PSoC6\pdl\drivers\peripheral\scb/cy_scb_common.h **** __STATIC_INLINE uint32_t Cy_SCB_GetSpiInterruptStatusMasked(CySCB_Type const *base);
 179:Generated_Source\PSoC6\pdl\drivers\peripheral\scb/cy_scb_common.h **** __STATIC_INLINE void     Cy_SCB_ClearSpiInterrupt    (CySCB_Type *base, uint32_t interruptMask);
 180:Generated_Source\PSoC6\pdl\drivers\peripheral\scb/cy_scb_common.h **** 
 181:Generated_Source\PSoC6\pdl\drivers\peripheral\scb/cy_scb_common.h **** 
 182:Generated_Source\PSoC6\pdl\drivers\peripheral\scb/cy_scb_common.h **** /***************************************
 183:Generated_Source\PSoC6\pdl\drivers\peripheral\scb/cy_scb_common.h **** *     Internal Function Prototypes
 184:Generated_Source\PSoC6\pdl\drivers\peripheral\scb/cy_scb_common.h **** ***************************************/
 185:Generated_Source\PSoC6\pdl\drivers\peripheral\scb/cy_scb_common.h **** 
 186:Generated_Source\PSoC6\pdl\drivers\peripheral\scb/cy_scb_common.h **** /** \cond INTERNAL */
 187:Generated_Source\PSoC6\pdl\drivers\peripheral\scb/cy_scb_common.h **** void     Cy_SCB_ReadArrayNoCheck  (CySCB_Type const *base, void *buffer, uint32_t size);
 188:Generated_Source\PSoC6\pdl\drivers\peripheral\scb/cy_scb_common.h **** uint32_t Cy_SCB_ReadArray         (CySCB_Type const *base, void *buffer, uint32_t size);
 189:Generated_Source\PSoC6\pdl\drivers\peripheral\scb/cy_scb_common.h **** void     Cy_SCB_ReadArrayBlocking (CySCB_Type const *base, void *buffer, uint32_t size);
 190:Generated_Source\PSoC6\pdl\drivers\peripheral\scb/cy_scb_common.h **** uint32_t Cy_SCB_Write             (CySCB_Type *base, uint32_t data);
 191:Generated_Source\PSoC6\pdl\drivers\peripheral\scb/cy_scb_common.h **** void     Cy_SCB_WriteArrayNoCheck (CySCB_Type *base, void *buffer, uint32_t size);
 192:Generated_Source\PSoC6\pdl\drivers\peripheral\scb/cy_scb_common.h **** uint32_t Cy_SCB_WriteArray        (CySCB_Type *base, void *buffer, uint32_t size);
 193:Generated_Source\PSoC6\pdl\drivers\peripheral\scb/cy_scb_common.h **** void     Cy_SCB_WriteArrayBlocking(CySCB_Type *base, void *buffer, uint32_t size);
 194:Generated_Source\PSoC6\pdl\drivers\peripheral\scb/cy_scb_common.h **** void     Cy_SCB_WriteString       (CySCB_Type *base, char_t const string[]);
 195:Generated_Source\PSoC6\pdl\drivers\peripheral\scb/cy_scb_common.h **** void     Cy_SCB_WriteDefaultArrayNoCheck(CySCB_Type *base, uint32_t txData, uint32_t size);
 196:Generated_Source\PSoC6\pdl\drivers\peripheral\scb/cy_scb_common.h **** uint32_t Cy_SCB_WriteDefaultArray (CySCB_Type *base, uint32_t txData, uint32_t size);
 197:Generated_Source\PSoC6\pdl\drivers\peripheral\scb/cy_scb_common.h **** 
 198:Generated_Source\PSoC6\pdl\drivers\peripheral\scb/cy_scb_common.h **** __STATIC_INLINE uint32_t Cy_SCB_GetFifoSize (CySCB_Type const *base);
 199:Generated_Source\PSoC6\pdl\drivers\peripheral\scb/cy_scb_common.h **** __STATIC_INLINE void     Cy_SCB_FwBlockReset(CySCB_Type *base);
 200:Generated_Source\PSoC6\pdl\drivers\peripheral\scb/cy_scb_common.h **** __STATIC_INLINE bool     Cy_SCB_IsRxDataWidthByte(CySCB_Type const *base);
 201:Generated_Source\PSoC6\pdl\drivers\peripheral\scb/cy_scb_common.h **** __STATIC_INLINE bool     Cy_SCB_IsTxDataWidthByte(CySCB_Type const *base);
 202:Generated_Source\PSoC6\pdl\drivers\peripheral\scb/cy_scb_common.h **** __STATIC_INLINE uint32_t Cy_SCB_GetRxFifoLevel   (CySCB_Type const *base);
ARM GAS  C:\Users\salaz\AppData\Local\Temp\ccU0pQaU.s 			page 5


 203:Generated_Source\PSoC6\pdl\drivers\peripheral\scb/cy_scb_common.h **** /** \endcond */
 204:Generated_Source\PSoC6\pdl\drivers\peripheral\scb/cy_scb_common.h **** 
 205:Generated_Source\PSoC6\pdl\drivers\peripheral\scb/cy_scb_common.h **** /** \} group_scb_common_functions */
 206:Generated_Source\PSoC6\pdl\drivers\peripheral\scb/cy_scb_common.h **** 
 207:Generated_Source\PSoC6\pdl\drivers\peripheral\scb/cy_scb_common.h **** /***************************************
 208:Generated_Source\PSoC6\pdl\drivers\peripheral\scb/cy_scb_common.h **** *            API Constants
 209:Generated_Source\PSoC6\pdl\drivers\peripheral\scb/cy_scb_common.h **** ***************************************/
 210:Generated_Source\PSoC6\pdl\drivers\peripheral\scb/cy_scb_common.h **** 
 211:Generated_Source\PSoC6\pdl\drivers\peripheral\scb/cy_scb_common.h **** /**
 212:Generated_Source\PSoC6\pdl\drivers\peripheral\scb/cy_scb_common.h **** * \addtogroup group_scb_common_macros
 213:Generated_Source\PSoC6\pdl\drivers\peripheral\scb/cy_scb_common.h **** * \{
 214:Generated_Source\PSoC6\pdl\drivers\peripheral\scb/cy_scb_common.h **** */
 215:Generated_Source\PSoC6\pdl\drivers\peripheral\scb/cy_scb_common.h **** 
 216:Generated_Source\PSoC6\pdl\drivers\peripheral\scb/cy_scb_common.h **** /** Driver major version */
 217:Generated_Source\PSoC6\pdl\drivers\peripheral\scb/cy_scb_common.h **** #define CY_SCB_DRV_VERSION_MAJOR    (2)
 218:Generated_Source\PSoC6\pdl\drivers\peripheral\scb/cy_scb_common.h **** 
 219:Generated_Source\PSoC6\pdl\drivers\peripheral\scb/cy_scb_common.h **** /** Driver minor version */
 220:Generated_Source\PSoC6\pdl\drivers\peripheral\scb/cy_scb_common.h **** #define CY_SCB_DRV_VERSION_MINOR    (10)
 221:Generated_Source\PSoC6\pdl\drivers\peripheral\scb/cy_scb_common.h **** 
 222:Generated_Source\PSoC6\pdl\drivers\peripheral\scb/cy_scb_common.h **** /** SCB driver identifier */
 223:Generated_Source\PSoC6\pdl\drivers\peripheral\scb/cy_scb_common.h **** #define CY_SCB_ID           CY_PDL_DRV_ID(0x2AU)
 224:Generated_Source\PSoC6\pdl\drivers\peripheral\scb/cy_scb_common.h **** 
 225:Generated_Source\PSoC6\pdl\drivers\peripheral\scb/cy_scb_common.h **** /** Position for SCB driver sub mode */
 226:Generated_Source\PSoC6\pdl\drivers\peripheral\scb/cy_scb_common.h **** #define CY_SCB_SUB_MODE_Pos (13UL)
 227:Generated_Source\PSoC6\pdl\drivers\peripheral\scb/cy_scb_common.h **** 
 228:Generated_Source\PSoC6\pdl\drivers\peripheral\scb/cy_scb_common.h **** /** EZI2C mode identifier */
 229:Generated_Source\PSoC6\pdl\drivers\peripheral\scb/cy_scb_common.h **** #define CY_SCB_EZI2C_ID     (0x0UL << CY_SCB_SUB_MODE_Pos)
 230:Generated_Source\PSoC6\pdl\drivers\peripheral\scb/cy_scb_common.h **** 
 231:Generated_Source\PSoC6\pdl\drivers\peripheral\scb/cy_scb_common.h **** /** EZI2C mode identifier */
 232:Generated_Source\PSoC6\pdl\drivers\peripheral\scb/cy_scb_common.h **** #define CY_SCB_I2C_ID       (0x1UL << CY_SCB_SUB_MODE_Pos)
 233:Generated_Source\PSoC6\pdl\drivers\peripheral\scb/cy_scb_common.h **** 
 234:Generated_Source\PSoC6\pdl\drivers\peripheral\scb/cy_scb_common.h **** /** EZI2C mode identifier */
 235:Generated_Source\PSoC6\pdl\drivers\peripheral\scb/cy_scb_common.h **** #define CY_SCB_SPI_ID       (0x2UL << CY_SCB_SUB_MODE_Pos)
 236:Generated_Source\PSoC6\pdl\drivers\peripheral\scb/cy_scb_common.h **** 
 237:Generated_Source\PSoC6\pdl\drivers\peripheral\scb/cy_scb_common.h **** /** EZI2C mode identifier */
 238:Generated_Source\PSoC6\pdl\drivers\peripheral\scb/cy_scb_common.h **** #define CY_SCB_UART_ID      (0x3UL << CY_SCB_SUB_MODE_Pos)
 239:Generated_Source\PSoC6\pdl\drivers\peripheral\scb/cy_scb_common.h **** 
 240:Generated_Source\PSoC6\pdl\drivers\peripheral\scb/cy_scb_common.h **** /**
 241:Generated_Source\PSoC6\pdl\drivers\peripheral\scb/cy_scb_common.h **** * \defgroup group_scb_common_macros_intr_cause SCB Interrupt Causes
 242:Generated_Source\PSoC6\pdl\drivers\peripheral\scb/cy_scb_common.h **** * \{
 243:Generated_Source\PSoC6\pdl\drivers\peripheral\scb/cy_scb_common.h **** */
 244:Generated_Source\PSoC6\pdl\drivers\peripheral\scb/cy_scb_common.h **** /** Interrupt from Master interrupt sources */
 245:Generated_Source\PSoC6\pdl\drivers\peripheral\scb/cy_scb_common.h **** #define CY_SCB_MASTER_INTR SCB_INTR_CAUSE_M_Msk
 246:Generated_Source\PSoC6\pdl\drivers\peripheral\scb/cy_scb_common.h **** 
 247:Generated_Source\PSoC6\pdl\drivers\peripheral\scb/cy_scb_common.h **** /** Interrupt from Slave interrupt sources  */
 248:Generated_Source\PSoC6\pdl\drivers\peripheral\scb/cy_scb_common.h **** #define CY_SCB_SLAVE_INTR  SCB_INTR_CAUSE_S_Msk
 249:Generated_Source\PSoC6\pdl\drivers\peripheral\scb/cy_scb_common.h **** 
 250:Generated_Source\PSoC6\pdl\drivers\peripheral\scb/cy_scb_common.h **** /** Interrupt from TX interrupt sources */
 251:Generated_Source\PSoC6\pdl\drivers\peripheral\scb/cy_scb_common.h **** #define CY_SCB_TX_INTR     SCB_INTR_CAUSE_TX_Msk
 252:Generated_Source\PSoC6\pdl\drivers\peripheral\scb/cy_scb_common.h **** 
 253:Generated_Source\PSoC6\pdl\drivers\peripheral\scb/cy_scb_common.h **** /** Interrupt from RX interrupt sources */
 254:Generated_Source\PSoC6\pdl\drivers\peripheral\scb/cy_scb_common.h **** #define CY_SCB_RX_INTR     SCB_INTR_CAUSE_RX_Msk
 255:Generated_Source\PSoC6\pdl\drivers\peripheral\scb/cy_scb_common.h **** 
 256:Generated_Source\PSoC6\pdl\drivers\peripheral\scb/cy_scb_common.h **** /** Interrupt from I2C externally clocked interrupt sources */
 257:Generated_Source\PSoC6\pdl\drivers\peripheral\scb/cy_scb_common.h **** #define CY_SCB_I2C_INTR    SCB_INTR_CAUSE_I2C_EC_Msk
 258:Generated_Source\PSoC6\pdl\drivers\peripheral\scb/cy_scb_common.h **** 
 259:Generated_Source\PSoC6\pdl\drivers\peripheral\scb/cy_scb_common.h **** /** Interrupt from SPI externally clocked interrupt sources */
ARM GAS  C:\Users\salaz\AppData\Local\Temp\ccU0pQaU.s 			page 6


 260:Generated_Source\PSoC6\pdl\drivers\peripheral\scb/cy_scb_common.h **** #define CY_SCB_SPI_INTR    SCB_INTR_CAUSE_SPI_EC_Msk
 261:Generated_Source\PSoC6\pdl\drivers\peripheral\scb/cy_scb_common.h **** /** \} group_scb_common_macros_intr_cause */
 262:Generated_Source\PSoC6\pdl\drivers\peripheral\scb/cy_scb_common.h **** 
 263:Generated_Source\PSoC6\pdl\drivers\peripheral\scb/cy_scb_common.h **** /**
 264:Generated_Source\PSoC6\pdl\drivers\peripheral\scb/cy_scb_common.h **** * \defgroup group_scb_common_macros_tx_intr TX Interrupt Statuses
 265:Generated_Source\PSoC6\pdl\drivers\peripheral\scb/cy_scb_common.h **** * \{
 266:Generated_Source\PSoC6\pdl\drivers\peripheral\scb/cy_scb_common.h **** */
 267:Generated_Source\PSoC6\pdl\drivers\peripheral\scb/cy_scb_common.h **** /**
 268:Generated_Source\PSoC6\pdl\drivers\peripheral\scb/cy_scb_common.h **** * The number of data elements in the TX FIFO is less than the value
 269:Generated_Source\PSoC6\pdl\drivers\peripheral\scb/cy_scb_common.h **** * of the TX FIFO level
 270:Generated_Source\PSoC6\pdl\drivers\peripheral\scb/cy_scb_common.h **** */
 271:Generated_Source\PSoC6\pdl\drivers\peripheral\scb/cy_scb_common.h **** #define CY_SCB_TX_INTR_LEVEL           SCB_INTR_TX_TRIGGER_Msk
 272:Generated_Source\PSoC6\pdl\drivers\peripheral\scb/cy_scb_common.h **** 
 273:Generated_Source\PSoC6\pdl\drivers\peripheral\scb/cy_scb_common.h **** /** The TX FIFO is not full */
 274:Generated_Source\PSoC6\pdl\drivers\peripheral\scb/cy_scb_common.h **** #define CY_SCB_TX_INTR_NOT_FULL        SCB_INTR_TX_NOT_FULL_Msk
 275:Generated_Source\PSoC6\pdl\drivers\peripheral\scb/cy_scb_common.h **** 
 276:Generated_Source\PSoC6\pdl\drivers\peripheral\scb/cy_scb_common.h **** /** The TX FIFO is empty */
 277:Generated_Source\PSoC6\pdl\drivers\peripheral\scb/cy_scb_common.h **** #define CY_SCB_TX_INTR_EMPTY           SCB_INTR_TX_EMPTY_Msk
 278:Generated_Source\PSoC6\pdl\drivers\peripheral\scb/cy_scb_common.h **** 
 279:Generated_Source\PSoC6\pdl\drivers\peripheral\scb/cy_scb_common.h **** /** An attempt to write to a full TX FIFO */
 280:Generated_Source\PSoC6\pdl\drivers\peripheral\scb/cy_scb_common.h **** #define CY_SCB_TX_INTR_OVERFLOW        SCB_INTR_TX_OVERFLOW_Msk
 281:Generated_Source\PSoC6\pdl\drivers\peripheral\scb/cy_scb_common.h **** 
 282:Generated_Source\PSoC6\pdl\drivers\peripheral\scb/cy_scb_common.h **** /** An attempt to read from an empty TX FIFO */
 283:Generated_Source\PSoC6\pdl\drivers\peripheral\scb/cy_scb_common.h **** #define CY_SCB_TX_INTR_UNDERFLOW       SCB_INTR_TX_UNDERFLOW_Msk
 284:Generated_Source\PSoC6\pdl\drivers\peripheral\scb/cy_scb_common.h **** 
 285:Generated_Source\PSoC6\pdl\drivers\peripheral\scb/cy_scb_common.h **** /** The UART transfer is complete: all data elements from the TX FIFO are sent
 286:Generated_Source\PSoC6\pdl\drivers\peripheral\scb/cy_scb_common.h **** */
 287:Generated_Source\PSoC6\pdl\drivers\peripheral\scb/cy_scb_common.h **** #define CY_SCB_TX_INTR_UART_DONE       SCB_INTR_TX_UART_DONE_Msk
 288:Generated_Source\PSoC6\pdl\drivers\peripheral\scb/cy_scb_common.h **** 
 289:Generated_Source\PSoC6\pdl\drivers\peripheral\scb/cy_scb_common.h **** /** SmartCard only: UART received a NACK */
 290:Generated_Source\PSoC6\pdl\drivers\peripheral\scb/cy_scb_common.h **** #define CY_SCB_TX_INTR_UART_NACK       SCB_INTR_TX_UART_NACK_Msk
 291:Generated_Source\PSoC6\pdl\drivers\peripheral\scb/cy_scb_common.h **** 
 292:Generated_Source\PSoC6\pdl\drivers\peripheral\scb/cy_scb_common.h **** /**
 293:Generated_Source\PSoC6\pdl\drivers\peripheral\scb/cy_scb_common.h **** * SmartCard only: the value on the TX line of the UART does not match the
 294:Generated_Source\PSoC6\pdl\drivers\peripheral\scb/cy_scb_common.h **** * value on the RX line
 295:Generated_Source\PSoC6\pdl\drivers\peripheral\scb/cy_scb_common.h **** */
 296:Generated_Source\PSoC6\pdl\drivers\peripheral\scb/cy_scb_common.h **** #define CY_SCB_TX_INTR_UART_ARB_LOST   SCB_INTR_TX_UART_ARB_LOST_Msk
 297:Generated_Source\PSoC6\pdl\drivers\peripheral\scb/cy_scb_common.h **** /** \} group_scb_common_macros_tx_intr */
 298:Generated_Source\PSoC6\pdl\drivers\peripheral\scb/cy_scb_common.h **** 
 299:Generated_Source\PSoC6\pdl\drivers\peripheral\scb/cy_scb_common.h **** /**
 300:Generated_Source\PSoC6\pdl\drivers\peripheral\scb/cy_scb_common.h **** * \defgroup group_scb_common_macros_rx_intr RX Interrupt Statuses
 301:Generated_Source\PSoC6\pdl\drivers\peripheral\scb/cy_scb_common.h **** * \{
 302:Generated_Source\PSoC6\pdl\drivers\peripheral\scb/cy_scb_common.h **** */
 303:Generated_Source\PSoC6\pdl\drivers\peripheral\scb/cy_scb_common.h **** /**
 304:Generated_Source\PSoC6\pdl\drivers\peripheral\scb/cy_scb_common.h **** * The number of data elements in the RX FIFO is greater than the value of the
 305:Generated_Source\PSoC6\pdl\drivers\peripheral\scb/cy_scb_common.h **** * RX FIFO level
 306:Generated_Source\PSoC6\pdl\drivers\peripheral\scb/cy_scb_common.h **** */
 307:Generated_Source\PSoC6\pdl\drivers\peripheral\scb/cy_scb_common.h **** #define CY_SCB_RX_INTR_LEVEL             SCB_INTR_RX_TRIGGER_Msk
 308:Generated_Source\PSoC6\pdl\drivers\peripheral\scb/cy_scb_common.h **** 
 309:Generated_Source\PSoC6\pdl\drivers\peripheral\scb/cy_scb_common.h **** /** The RX FIFO is not empty */
 310:Generated_Source\PSoC6\pdl\drivers\peripheral\scb/cy_scb_common.h **** #define CY_SCB_RX_INTR_NOT_EMPTY         SCB_INTR_RX_NOT_EMPTY_Msk
 311:Generated_Source\PSoC6\pdl\drivers\peripheral\scb/cy_scb_common.h **** 
 312:Generated_Source\PSoC6\pdl\drivers\peripheral\scb/cy_scb_common.h **** /** The RX FIFO is full */
 313:Generated_Source\PSoC6\pdl\drivers\peripheral\scb/cy_scb_common.h **** #define CY_SCB_RX_INTR_FULL              SCB_INTR_RX_FULL_Msk
 314:Generated_Source\PSoC6\pdl\drivers\peripheral\scb/cy_scb_common.h **** 
 315:Generated_Source\PSoC6\pdl\drivers\peripheral\scb/cy_scb_common.h **** /** An attempt to write to a full RX FIFO */
 316:Generated_Source\PSoC6\pdl\drivers\peripheral\scb/cy_scb_common.h **** #define CY_SCB_RX_INTR_OVERFLOW          SCB_INTR_RX_OVERFLOW_Msk
ARM GAS  C:\Users\salaz\AppData\Local\Temp\ccU0pQaU.s 			page 7


 317:Generated_Source\PSoC6\pdl\drivers\peripheral\scb/cy_scb_common.h **** 
 318:Generated_Source\PSoC6\pdl\drivers\peripheral\scb/cy_scb_common.h **** /** An attempt to read from an empty RX FIFO */
 319:Generated_Source\PSoC6\pdl\drivers\peripheral\scb/cy_scb_common.h **** #define CY_SCB_RX_INTR_UNDERFLOW         SCB_INTR_RX_UNDERFLOW_Msk
 320:Generated_Source\PSoC6\pdl\drivers\peripheral\scb/cy_scb_common.h **** 
 321:Generated_Source\PSoC6\pdl\drivers\peripheral\scb/cy_scb_common.h **** /** A UART framing error detected */
 322:Generated_Source\PSoC6\pdl\drivers\peripheral\scb/cy_scb_common.h **** #define CY_SCB_RX_INTR_UART_FRAME_ERROR  SCB_INTR_RX_FRAME_ERROR_Msk
 323:Generated_Source\PSoC6\pdl\drivers\peripheral\scb/cy_scb_common.h **** 
 324:Generated_Source\PSoC6\pdl\drivers\peripheral\scb/cy_scb_common.h **** /** A UART parity error detected  */
 325:Generated_Source\PSoC6\pdl\drivers\peripheral\scb/cy_scb_common.h **** #define CY_SCB_RX_INTR_UART_PARITY_ERROR SCB_INTR_RX_PARITY_ERROR_Msk
 326:Generated_Source\PSoC6\pdl\drivers\peripheral\scb/cy_scb_common.h **** 
 327:Generated_Source\PSoC6\pdl\drivers\peripheral\scb/cy_scb_common.h **** /** A UART break detected */
 328:Generated_Source\PSoC6\pdl\drivers\peripheral\scb/cy_scb_common.h **** #define CY_SCB_RX_INTR_UART_BREAK_DETECT SCB_INTR_RX_BREAK_DETECT_Msk
 329:Generated_Source\PSoC6\pdl\drivers\peripheral\scb/cy_scb_common.h **** /** \} group_scb_common_macros_rx_intr */
 330:Generated_Source\PSoC6\pdl\drivers\peripheral\scb/cy_scb_common.h **** 
 331:Generated_Source\PSoC6\pdl\drivers\peripheral\scb/cy_scb_common.h **** /**
 332:Generated_Source\PSoC6\pdl\drivers\peripheral\scb/cy_scb_common.h **** * \defgroup group_scb_common_macros_slave_intr Slave Interrupt Statuses
 333:Generated_Source\PSoC6\pdl\drivers\peripheral\scb/cy_scb_common.h **** * \{
 334:Generated_Source\PSoC6\pdl\drivers\peripheral\scb/cy_scb_common.h **** */
 335:Generated_Source\PSoC6\pdl\drivers\peripheral\scb/cy_scb_common.h **** /**
 336:Generated_Source\PSoC6\pdl\drivers\peripheral\scb/cy_scb_common.h **** * I2C slave lost arbitration: the value driven on the SDA line is not the same
 337:Generated_Source\PSoC6\pdl\drivers\peripheral\scb/cy_scb_common.h **** * as the value observed on the SDA line
 338:Generated_Source\PSoC6\pdl\drivers\peripheral\scb/cy_scb_common.h **** */
 339:Generated_Source\PSoC6\pdl\drivers\peripheral\scb/cy_scb_common.h **** #define CY_SCB_SLAVE_INTR_I2C_ARB_LOST      SCB_INTR_S_I2C_ARB_LOST_Msk
 340:Generated_Source\PSoC6\pdl\drivers\peripheral\scb/cy_scb_common.h **** 
 341:Generated_Source\PSoC6\pdl\drivers\peripheral\scb/cy_scb_common.h **** /** The I2C slave received a NAK */
 342:Generated_Source\PSoC6\pdl\drivers\peripheral\scb/cy_scb_common.h **** #define CY_SCB_SLAVE_INTR_I2C_NACK          SCB_INTR_S_I2C_NACK_Msk
 343:Generated_Source\PSoC6\pdl\drivers\peripheral\scb/cy_scb_common.h **** 
 344:Generated_Source\PSoC6\pdl\drivers\peripheral\scb/cy_scb_common.h **** /** The I2C slave received  an ACK */
 345:Generated_Source\PSoC6\pdl\drivers\peripheral\scb/cy_scb_common.h **** #define CY_SCB_SLAVE_INTR_I2C_ACK           SCB_INTR_S_I2C_ACK_Msk
 346:Generated_Source\PSoC6\pdl\drivers\peripheral\scb/cy_scb_common.h **** 
 347:Generated_Source\PSoC6\pdl\drivers\peripheral\scb/cy_scb_common.h **** /**
 348:Generated_Source\PSoC6\pdl\drivers\peripheral\scb/cy_scb_common.h **** * A Stop or Repeated Start event for a write transfer intended for this slave
 349:Generated_Source\PSoC6\pdl\drivers\peripheral\scb/cy_scb_common.h **** * was detected.
 350:Generated_Source\PSoC6\pdl\drivers\peripheral\scb/cy_scb_common.h **** */
 351:Generated_Source\PSoC6\pdl\drivers\peripheral\scb/cy_scb_common.h **** #define CY_SCB_SLAVE_INTR_I2C_WRITE_STOP    SCB_INTR_S_I2C_WRITE_STOP_Msk
 352:Generated_Source\PSoC6\pdl\drivers\peripheral\scb/cy_scb_common.h **** 
 353:Generated_Source\PSoC6\pdl\drivers\peripheral\scb/cy_scb_common.h **** /** A Stop or Repeated Start event intended for this slave was detected */
 354:Generated_Source\PSoC6\pdl\drivers\peripheral\scb/cy_scb_common.h **** #define CY_SCB_SLAVE_INTR_I2C_STOP          SCB_INTR_S_I2C_STOP_Msk
 355:Generated_Source\PSoC6\pdl\drivers\peripheral\scb/cy_scb_common.h **** 
 356:Generated_Source\PSoC6\pdl\drivers\peripheral\scb/cy_scb_common.h **** /** The I2C slave received a Start condition */
 357:Generated_Source\PSoC6\pdl\drivers\peripheral\scb/cy_scb_common.h **** #define CY_SCB_SLAVE_INTR_I2C_START         SCB_INTR_S_I2C_START_Msk
 358:Generated_Source\PSoC6\pdl\drivers\peripheral\scb/cy_scb_common.h **** 
 359:Generated_Source\PSoC6\pdl\drivers\peripheral\scb/cy_scb_common.h **** /** The I2C slave received the matching address */
 360:Generated_Source\PSoC6\pdl\drivers\peripheral\scb/cy_scb_common.h **** #define CY_SCB_SLAVE_INTR_I2C_ADDR_MATCH    SCB_INTR_S_I2C_ADDR_MATCH_Msk
 361:Generated_Source\PSoC6\pdl\drivers\peripheral\scb/cy_scb_common.h **** 
 362:Generated_Source\PSoC6\pdl\drivers\peripheral\scb/cy_scb_common.h **** /** The I2C Slave received the general call address */
 363:Generated_Source\PSoC6\pdl\drivers\peripheral\scb/cy_scb_common.h **** #define CY_SCB_SLAVE_INTR_I2C_GENERAL_ADDR  SCB_INTR_S_I2C_GENERAL_Msk
 364:Generated_Source\PSoC6\pdl\drivers\peripheral\scb/cy_scb_common.h **** 
 365:Generated_Source\PSoC6\pdl\drivers\peripheral\scb/cy_scb_common.h **** /** The I2C slave bus error (detection of unexpected Start or Stop condition) */
 366:Generated_Source\PSoC6\pdl\drivers\peripheral\scb/cy_scb_common.h **** #define CY_SCB_SLAVE_INTR_I2C_BUS_ERROR     SCB_INTR_S_I2C_BUS_ERROR_Msk
 367:Generated_Source\PSoC6\pdl\drivers\peripheral\scb/cy_scb_common.h **** 
 368:Generated_Source\PSoC6\pdl\drivers\peripheral\scb/cy_scb_common.h **** /**
 369:Generated_Source\PSoC6\pdl\drivers\peripheral\scb/cy_scb_common.h **** * The SPI slave select line is deselected at an expected time during an
 370:Generated_Source\PSoC6\pdl\drivers\peripheral\scb/cy_scb_common.h **** * SPI transfer.
 371:Generated_Source\PSoC6\pdl\drivers\peripheral\scb/cy_scb_common.h **** */
 372:Generated_Source\PSoC6\pdl\drivers\peripheral\scb/cy_scb_common.h **** #define CY_SCB_SLAVE_INTR_SPI_BUS_ERROR     SCB_INTR_S_SPI_BUS_ERROR_Msk
 373:Generated_Source\PSoC6\pdl\drivers\peripheral\scb/cy_scb_common.h **** /** \} group_scb_common_macros_slave_intr */
ARM GAS  C:\Users\salaz\AppData\Local\Temp\ccU0pQaU.s 			page 8


 374:Generated_Source\PSoC6\pdl\drivers\peripheral\scb/cy_scb_common.h **** 
 375:Generated_Source\PSoC6\pdl\drivers\peripheral\scb/cy_scb_common.h **** /**
 376:Generated_Source\PSoC6\pdl\drivers\peripheral\scb/cy_scb_common.h **** * \defgroup group_scb_common_macros_master_intr Master Interrupt Statuses
 377:Generated_Source\PSoC6\pdl\drivers\peripheral\scb/cy_scb_common.h **** * \{
 378:Generated_Source\PSoC6\pdl\drivers\peripheral\scb/cy_scb_common.h **** */
 379:Generated_Source\PSoC6\pdl\drivers\peripheral\scb/cy_scb_common.h **** /** The I2C master lost arbitration */
 380:Generated_Source\PSoC6\pdl\drivers\peripheral\scb/cy_scb_common.h **** #define CY_SCB_MASTER_INTR_I2C_ARB_LOST    SCB_INTR_M_I2C_ARB_LOST_Msk
 381:Generated_Source\PSoC6\pdl\drivers\peripheral\scb/cy_scb_common.h **** 
 382:Generated_Source\PSoC6\pdl\drivers\peripheral\scb/cy_scb_common.h **** /** The I2C master received a NACK */
 383:Generated_Source\PSoC6\pdl\drivers\peripheral\scb/cy_scb_common.h **** #define CY_SCB_MASTER_INTR_I2C_NACK        SCB_INTR_M_I2C_NACK_Msk
 384:Generated_Source\PSoC6\pdl\drivers\peripheral\scb/cy_scb_common.h **** 
 385:Generated_Source\PSoC6\pdl\drivers\peripheral\scb/cy_scb_common.h **** /** The I2C master received an ACK */
 386:Generated_Source\PSoC6\pdl\drivers\peripheral\scb/cy_scb_common.h **** #define CY_SCB_MASTER_INTR_I2C_ACK         SCB_INTR_M_I2C_ACK_Msk
 387:Generated_Source\PSoC6\pdl\drivers\peripheral\scb/cy_scb_common.h **** 
 388:Generated_Source\PSoC6\pdl\drivers\peripheral\scb/cy_scb_common.h **** /** The I2C master generated a Stop */
 389:Generated_Source\PSoC6\pdl\drivers\peripheral\scb/cy_scb_common.h **** #define CY_SCB_MASTER_INTR_I2C_STOP        SCB_INTR_M_I2C_STOP_Msk
 390:Generated_Source\PSoC6\pdl\drivers\peripheral\scb/cy_scb_common.h **** 
 391:Generated_Source\PSoC6\pdl\drivers\peripheral\scb/cy_scb_common.h **** /** The I2C master bus error (detection of unexpected START or STOP condition)
 392:Generated_Source\PSoC6\pdl\drivers\peripheral\scb/cy_scb_common.h **** */
 393:Generated_Source\PSoC6\pdl\drivers\peripheral\scb/cy_scb_common.h **** #define CY_SCB_MASTER_INTR_I2C_BUS_ERROR   SCB_INTR_M_I2C_BUS_ERROR_Msk
 394:Generated_Source\PSoC6\pdl\drivers\peripheral\scb/cy_scb_common.h **** 
 395:Generated_Source\PSoC6\pdl\drivers\peripheral\scb/cy_scb_common.h **** /**
 396:Generated_Source\PSoC6\pdl\drivers\peripheral\scb/cy_scb_common.h **** * The SPI master transfer is complete: all data elements transferred from the
 397:Generated_Source\PSoC6\pdl\drivers\peripheral\scb/cy_scb_common.h **** * TX FIFO and TX shift register.
 398:Generated_Source\PSoC6\pdl\drivers\peripheral\scb/cy_scb_common.h **** */
 399:Generated_Source\PSoC6\pdl\drivers\peripheral\scb/cy_scb_common.h **** #define CY_SCB_MASTER_INTR_SPI_DONE        SCB_INTR_M_SPI_DONE_Msk
 400:Generated_Source\PSoC6\pdl\drivers\peripheral\scb/cy_scb_common.h **** /** \} group_scb_common_macros_master_intr */
 401:Generated_Source\PSoC6\pdl\drivers\peripheral\scb/cy_scb_common.h **** 
 402:Generated_Source\PSoC6\pdl\drivers\peripheral\scb/cy_scb_common.h **** /**
 403:Generated_Source\PSoC6\pdl\drivers\peripheral\scb/cy_scb_common.h **** * \defgroup group_scb_common_macros_i2c_intr I2C Interrupt Statuses
 404:Generated_Source\PSoC6\pdl\drivers\peripheral\scb/cy_scb_common.h **** * \{
 405:Generated_Source\PSoC6\pdl\drivers\peripheral\scb/cy_scb_common.h **** */
 406:Generated_Source\PSoC6\pdl\drivers\peripheral\scb/cy_scb_common.h **** /**
 407:Generated_Source\PSoC6\pdl\drivers\peripheral\scb/cy_scb_common.h **** * Wake up request: the I2C slave received the matching address.
 408:Generated_Source\PSoC6\pdl\drivers\peripheral\scb/cy_scb_common.h **** * Note that this interrupt source triggers in active mode.
 409:Generated_Source\PSoC6\pdl\drivers\peripheral\scb/cy_scb_common.h **** */
 410:Generated_Source\PSoC6\pdl\drivers\peripheral\scb/cy_scb_common.h **** #define CY_SCB_I2C_INTR_WAKEUP     SCB_INTR_I2C_EC_WAKE_UP_Msk
 411:Generated_Source\PSoC6\pdl\drivers\peripheral\scb/cy_scb_common.h **** /** \} group_scb_common_macros_i2c_intr */
 412:Generated_Source\PSoC6\pdl\drivers\peripheral\scb/cy_scb_common.h **** 
 413:Generated_Source\PSoC6\pdl\drivers\peripheral\scb/cy_scb_common.h **** /**
 414:Generated_Source\PSoC6\pdl\drivers\peripheral\scb/cy_scb_common.h **** * \defgroup group_scb_common_macros_SpiIntrStatuses SPI Interrupt Statuses
 415:Generated_Source\PSoC6\pdl\drivers\peripheral\scb/cy_scb_common.h **** * \{
 416:Generated_Source\PSoC6\pdl\drivers\peripheral\scb/cy_scb_common.h **** */
 417:Generated_Source\PSoC6\pdl\drivers\peripheral\scb/cy_scb_common.h **** /**
 418:Generated_Source\PSoC6\pdl\drivers\peripheral\scb/cy_scb_common.h **** * Wake up request: the SPI slave detects an active edge of the slave select
 419:Generated_Source\PSoC6\pdl\drivers\peripheral\scb/cy_scb_common.h **** * signal. Note that this interrupt source triggers in active mode.
 420:Generated_Source\PSoC6\pdl\drivers\peripheral\scb/cy_scb_common.h **** */
 421:Generated_Source\PSoC6\pdl\drivers\peripheral\scb/cy_scb_common.h **** #define CY_SCB_SPI_INTR_WAKEUP     SCB_INTR_SPI_EC_WAKE_UP_Msk
 422:Generated_Source\PSoC6\pdl\drivers\peripheral\scb/cy_scb_common.h **** /** \} group_scb_common_macros_SpiIntrStatuses */
 423:Generated_Source\PSoC6\pdl\drivers\peripheral\scb/cy_scb_common.h **** 
 424:Generated_Source\PSoC6\pdl\drivers\peripheral\scb/cy_scb_common.h **** 
 425:Generated_Source\PSoC6\pdl\drivers\peripheral\scb/cy_scb_common.h **** /***************************************
 426:Generated_Source\PSoC6\pdl\drivers\peripheral\scb/cy_scb_common.h **** *         Internal Constants
 427:Generated_Source\PSoC6\pdl\drivers\peripheral\scb/cy_scb_common.h **** ***************************************/
 428:Generated_Source\PSoC6\pdl\drivers\peripheral\scb/cy_scb_common.h **** 
 429:Generated_Source\PSoC6\pdl\drivers\peripheral\scb/cy_scb_common.h **** /** \cond INTERNAL */
 430:Generated_Source\PSoC6\pdl\drivers\peripheral\scb/cy_scb_common.h **** 
ARM GAS  C:\Users\salaz\AppData\Local\Temp\ccU0pQaU.s 			page 9


 431:Generated_Source\PSoC6\pdl\drivers\peripheral\scb/cy_scb_common.h **** /* Default registers values */
 432:Generated_Source\PSoC6\pdl\drivers\peripheral\scb/cy_scb_common.h **** #define CY_SCB_CTRL_DEF_VAL         (_VAL2FLD(SCB_CTRL_OVS, 15UL) | \
 433:Generated_Source\PSoC6\pdl\drivers\peripheral\scb/cy_scb_common.h ****                                      _VAL2FLD(SCB_CTRL_MODE, 3UL))
 434:Generated_Source\PSoC6\pdl\drivers\peripheral\scb/cy_scb_common.h **** 
 435:Generated_Source\PSoC6\pdl\drivers\peripheral\scb/cy_scb_common.h **** #define CY_SCB_I2C_CTRL_DEF_VAL     (_VAL2FLD(SCB_I2C_CTRL_HIGH_PHASE_OVS, 8UL)        | \
 436:Generated_Source\PSoC6\pdl\drivers\peripheral\scb/cy_scb_common.h ****                                      _VAL2FLD(SCB_I2C_CTRL_HIGH_PHASE_OVS, 8UL)        | \
 437:Generated_Source\PSoC6\pdl\drivers\peripheral\scb/cy_scb_common.h ****                                      _VAL2FLD(SCB_I2C_CTRL_M_READY_DATA_ACK, 1UL)      | \
 438:Generated_Source\PSoC6\pdl\drivers\peripheral\scb/cy_scb_common.h ****                                      _VAL2FLD(SCB_I2C_CTRL_M_NOT_READY_DATA_NACK, 1UL) | \
 439:Generated_Source\PSoC6\pdl\drivers\peripheral\scb/cy_scb_common.h ****                                      _VAL2FLD(SCB_I2C_CTRL_S_GENERAL_IGNORE, 1UL)      | \
 440:Generated_Source\PSoC6\pdl\drivers\peripheral\scb/cy_scb_common.h ****                                      _VAL2FLD(SCB_I2C_CTRL_S_READY_ADDR_ACK, 1UL)      | \
 441:Generated_Source\PSoC6\pdl\drivers\peripheral\scb/cy_scb_common.h ****                                      _VAL2FLD(SCB_I2C_CTRL_S_READY_DATA_ACK, 1UL)      | \
 442:Generated_Source\PSoC6\pdl\drivers\peripheral\scb/cy_scb_common.h ****                                      _VAL2FLD(SCB_I2C_CTRL_S_NOT_READY_ADDR_NACK, 1UL) | \
 443:Generated_Source\PSoC6\pdl\drivers\peripheral\scb/cy_scb_common.h ****                                      _VAL2FLD(SCB_I2C_CTRL_S_NOT_READY_DATA_NACK, 1UL))
 444:Generated_Source\PSoC6\pdl\drivers\peripheral\scb/cy_scb_common.h **** 
 445:Generated_Source\PSoC6\pdl\drivers\peripheral\scb/cy_scb_common.h **** #define CY_SCB_I2C_CFG_DEF_VAL      (_VAL2FLD(SCB_I2C_CFG_SDA_IN_FILT_TRIM, 3UL)   | \
 446:Generated_Source\PSoC6\pdl\drivers\peripheral\scb/cy_scb_common.h ****                                      _VAL2FLD(SCB_I2C_CFG_SDA_IN_FILT_SEL, 1UL)    | \
 447:Generated_Source\PSoC6\pdl\drivers\peripheral\scb/cy_scb_common.h ****                                      _VAL2FLD(SCB_I2C_CFG_SCL_IN_FILT_SEL, 1UL)    | \
 448:Generated_Source\PSoC6\pdl\drivers\peripheral\scb/cy_scb_common.h ****                                      _VAL2FLD(SCB_I2C_CFG_SDA_OUT_FILT0_TRIM, 2UL) | \
 449:Generated_Source\PSoC6\pdl\drivers\peripheral\scb/cy_scb_common.h ****                                      _VAL2FLD(SCB_I2C_CFG_SDA_OUT_FILT1_TRIM, 2UL) | \
 450:Generated_Source\PSoC6\pdl\drivers\peripheral\scb/cy_scb_common.h ****                                      _VAL2FLD(SCB_I2C_CFG_SDA_OUT_FILT2_TRIM, 2UL))
 451:Generated_Source\PSoC6\pdl\drivers\peripheral\scb/cy_scb_common.h **** 
 452:Generated_Source\PSoC6\pdl\drivers\peripheral\scb/cy_scb_common.h **** #define CY_SCB_SPI_CTRL_DEF_VAL     _VAL2FLD(SCB_SPI_CTRL_MODE, 3UL)
 453:Generated_Source\PSoC6\pdl\drivers\peripheral\scb/cy_scb_common.h **** #define CY_SCB_UART_CTRL_DEF_VAL    _VAL2FLD(SCB_UART_CTRL_MODE, 3UL)
 454:Generated_Source\PSoC6\pdl\drivers\peripheral\scb/cy_scb_common.h **** 
 455:Generated_Source\PSoC6\pdl\drivers\peripheral\scb/cy_scb_common.h **** #define CY_SCB_UART_RX_CTRL_DEF_VAL (_VAL2FLD(SCB_UART_RX_CTRL_STOP_BITS, 2UL) | \
 456:Generated_Source\PSoC6\pdl\drivers\peripheral\scb/cy_scb_common.h ****                                      _VAL2FLD(SCB_UART_RX_CTRL_BREAK_WIDTH, 10UL))
 457:Generated_Source\PSoC6\pdl\drivers\peripheral\scb/cy_scb_common.h **** 
 458:Generated_Source\PSoC6\pdl\drivers\peripheral\scb/cy_scb_common.h **** #define CY_SCB_UART_TX_CTRL_DEF_VAL _VAL2FLD(SCB_UART_TX_CTRL_STOP_BITS, 2UL)
 459:Generated_Source\PSoC6\pdl\drivers\peripheral\scb/cy_scb_common.h **** 
 460:Generated_Source\PSoC6\pdl\drivers\peripheral\scb/cy_scb_common.h **** #define CY_SCB_RX_CTRL_DEF_VAL      (_VAL2FLD(SCB_RX_CTRL_DATA_WIDTH, 7UL) | \
 461:Generated_Source\PSoC6\pdl\drivers\peripheral\scb/cy_scb_common.h ****                                      _VAL2FLD(SCB_RX_CTRL_MSB_FIRST,  1UL))
 462:Generated_Source\PSoC6\pdl\drivers\peripheral\scb/cy_scb_common.h **** 
 463:Generated_Source\PSoC6\pdl\drivers\peripheral\scb/cy_scb_common.h **** #define CY_SCB_TX_CTRL_DEF_VAL      (_VAL2FLD(SCB_TX_CTRL_DATA_WIDTH, 7UL) | \
 464:Generated_Source\PSoC6\pdl\drivers\peripheral\scb/cy_scb_common.h ****                                      _VAL2FLD(SCB_TX_CTRL_MSB_FIRST,  1UL))
 465:Generated_Source\PSoC6\pdl\drivers\peripheral\scb/cy_scb_common.h **** 
 466:Generated_Source\PSoC6\pdl\drivers\peripheral\scb/cy_scb_common.h **** /* SCB CTRL modes */
 467:Generated_Source\PSoC6\pdl\drivers\peripheral\scb/cy_scb_common.h **** #define CY_SCB_CTRL_MODE_I2C   (0UL)
 468:Generated_Source\PSoC6\pdl\drivers\peripheral\scb/cy_scb_common.h **** #define CY_SCB_CTRL_MODE_SPI   (1UL)
 469:Generated_Source\PSoC6\pdl\drivers\peripheral\scb/cy_scb_common.h **** #define CY_SCB_CTRL_MODE_UART  (2UL)
 470:Generated_Source\PSoC6\pdl\drivers\peripheral\scb/cy_scb_common.h **** 
 471:Generated_Source\PSoC6\pdl\drivers\peripheral\scb/cy_scb_common.h **** /* The position and mask to set the I2C mode */
 472:Generated_Source\PSoC6\pdl\drivers\peripheral\scb/cy_scb_common.h **** #define CY_SCB_I2C_CTRL_MODE_Pos    SCB_I2C_CTRL_SLAVE_MODE_Pos
 473:Generated_Source\PSoC6\pdl\drivers\peripheral\scb/cy_scb_common.h **** #define CY_SCB_I2C_CTRL_MODE_Msk    (SCB_I2C_CTRL_SLAVE_MODE_Msk | \
 474:Generated_Source\PSoC6\pdl\drivers\peripheral\scb/cy_scb_common.h ****                                      SCB_I2C_CTRL_MASTER_MODE_Msk)
 475:Generated_Source\PSoC6\pdl\drivers\peripheral\scb/cy_scb_common.h **** 
 476:Generated_Source\PSoC6\pdl\drivers\peripheral\scb/cy_scb_common.h **** /* Cypress ID #282226:
 477:Generated_Source\PSoC6\pdl\drivers\peripheral\scb/cy_scb_common.h **** * SCB_I2C_CFG_SDA_IN_FILT_TRIM[1]: SCB clock enable (1), clock disable (0).
 478:Generated_Source\PSoC6\pdl\drivers\peripheral\scb/cy_scb_common.h **** */
 479:Generated_Source\PSoC6\pdl\drivers\peripheral\scb/cy_scb_common.h **** #define CY_SCB_I2C_CFG_CLK_ENABLE_Msk  (_VAL2FLD(SCB_I2C_CFG_SDA_IN_FILT_TRIM, 2UL))
 480:Generated_Source\PSoC6\pdl\drivers\peripheral\scb/cy_scb_common.h **** 
 481:Generated_Source\PSoC6\pdl\drivers\peripheral\scb/cy_scb_common.h **** /* I2C has fixed data width */
 482:Generated_Source\PSoC6\pdl\drivers\peripheral\scb/cy_scb_common.h **** #define CY_SCB_I2C_DATA_WIDTH   (7UL)
 483:Generated_Source\PSoC6\pdl\drivers\peripheral\scb/cy_scb_common.h **** 
 484:Generated_Source\PSoC6\pdl\drivers\peripheral\scb/cy_scb_common.h **** /* RX and TX control register values */
 485:Generated_Source\PSoC6\pdl\drivers\peripheral\scb/cy_scb_common.h **** #define CY_SCB_I2C_RX_CTRL      (_VAL2FLD(SCB_RX_CTRL_DATA_WIDTH, CY_SCB_I2C_DATA_WIDTH) | \
 486:Generated_Source\PSoC6\pdl\drivers\peripheral\scb/cy_scb_common.h ****                                  SCB_RX_CTRL_MSB_FIRST_Msk)
 487:Generated_Source\PSoC6\pdl\drivers\peripheral\scb/cy_scb_common.h **** #define CY_SCB_I2C_TX_CTRL      (_VAL2FLD(SCB_TX_CTRL_DATA_WIDTH, CY_SCB_I2C_DATA_WIDTH) | \
ARM GAS  C:\Users\salaz\AppData\Local\Temp\ccU0pQaU.s 			page 10


 488:Generated_Source\PSoC6\pdl\drivers\peripheral\scb/cy_scb_common.h ****                                  SCB_TX_CTRL_MSB_FIRST_Msk | SCB_TX_CTRL_OPEN_DRAIN_Msk)
 489:Generated_Source\PSoC6\pdl\drivers\peripheral\scb/cy_scb_common.h **** 
 490:Generated_Source\PSoC6\pdl\drivers\peripheral\scb/cy_scb_common.h **** /* The position and mask to make an address byte */
 491:Generated_Source\PSoC6\pdl\drivers\peripheral\scb/cy_scb_common.h **** #define CY_SCB_I2C_ADDRESS_Pos  (1UL)
 492:Generated_Source\PSoC6\pdl\drivers\peripheral\scb/cy_scb_common.h **** #define CY_SCB_I2C_ADDRESS_Msk  (0xFEUL)
 493:Generated_Source\PSoC6\pdl\drivers\peripheral\scb/cy_scb_common.h **** 
 494:Generated_Source\PSoC6\pdl\drivers\peripheral\scb/cy_scb_common.h **** /* SPI slave select polarity */
 495:Generated_Source\PSoC6\pdl\drivers\peripheral\scb/cy_scb_common.h **** #define CY_SCB_SPI_CTRL_SSEL_POLARITY_Pos   SCB_SPI_CTRL_SSEL_POLARITY0_Pos
 496:Generated_Source\PSoC6\pdl\drivers\peripheral\scb/cy_scb_common.h **** #define CY_SCB_SPI_CTRL_SSEL_POLARITY_Msk   (SCB_SPI_CTRL_SSEL_POLARITY0_Msk | \
 497:Generated_Source\PSoC6\pdl\drivers\peripheral\scb/cy_scb_common.h ****                                              SCB_SPI_CTRL_SSEL_POLARITY1_Msk | \
 498:Generated_Source\PSoC6\pdl\drivers\peripheral\scb/cy_scb_common.h ****                                              SCB_SPI_CTRL_SSEL_POLARITY2_Msk | \
 499:Generated_Source\PSoC6\pdl\drivers\peripheral\scb/cy_scb_common.h ****                                              SCB_SPI_CTRL_SSEL_POLARITY3_Msk)
 500:Generated_Source\PSoC6\pdl\drivers\peripheral\scb/cy_scb_common.h **** 
 501:Generated_Source\PSoC6\pdl\drivers\peripheral\scb/cy_scb_common.h **** /* SPI clock modes: CPHA and CPOL */
 502:Generated_Source\PSoC6\pdl\drivers\peripheral\scb/cy_scb_common.h **** #define CY_SCB_SPI_CTRL_CLK_MODE_Pos    SCB_SPI_CTRL_CPHA_Pos
 503:Generated_Source\PSoC6\pdl\drivers\peripheral\scb/cy_scb_common.h **** #define CY_SCB_SPI_CTRL_CLK_MODE_Msk    (SCB_SPI_CTRL_CPHA_Msk | SCB_SPI_CTRL_CPOL_Msk)
 504:Generated_Source\PSoC6\pdl\drivers\peripheral\scb/cy_scb_common.h **** 
 505:Generated_Source\PSoC6\pdl\drivers\peripheral\scb/cy_scb_common.h **** /* UART parity and parity enable combination */
 506:Generated_Source\PSoC6\pdl\drivers\peripheral\scb/cy_scb_common.h **** #define CY_SCB_UART_RX_CTRL_SET_PARITY_Msk      (SCB_UART_RX_CTRL_PARITY_ENABLED_Msk | \
 507:Generated_Source\PSoC6\pdl\drivers\peripheral\scb/cy_scb_common.h ****                                                  SCB_UART_RX_CTRL_PARITY_Msk)
 508:Generated_Source\PSoC6\pdl\drivers\peripheral\scb/cy_scb_common.h **** #define CY_SCB_UART_RX_CTRL_SET_PARITY_Pos      SCB_UART_RX_CTRL_PARITY_Pos
 509:Generated_Source\PSoC6\pdl\drivers\peripheral\scb/cy_scb_common.h **** 
 510:Generated_Source\PSoC6\pdl\drivers\peripheral\scb/cy_scb_common.h **** #define CY_SCB_UART_TX_CTRL_SET_PARITY_Msk      (SCB_UART_TX_CTRL_PARITY_ENABLED_Msk | \
 511:Generated_Source\PSoC6\pdl\drivers\peripheral\scb/cy_scb_common.h ****                                                  SCB_UART_TX_CTRL_PARITY_Msk)
 512:Generated_Source\PSoC6\pdl\drivers\peripheral\scb/cy_scb_common.h **** #define CY_SCB_UART_TX_CTRL_SET_PARITY_Pos      SCB_UART_TX_CTRL_PARITY_Pos
 513:Generated_Source\PSoC6\pdl\drivers\peripheral\scb/cy_scb_common.h **** 
 514:Generated_Source\PSoC6\pdl\drivers\peripheral\scb/cy_scb_common.h **** /* Max number of bits for byte mode */
 515:Generated_Source\PSoC6\pdl\drivers\peripheral\scb/cy_scb_common.h **** #define CY_SCB_BYTE_WIDTH   (8UL)
 516:Generated_Source\PSoC6\pdl\drivers\peripheral\scb/cy_scb_common.h **** 
 517:Generated_Source\PSoC6\pdl\drivers\peripheral\scb/cy_scb_common.h **** /* Single unit to wait */
 518:Generated_Source\PSoC6\pdl\drivers\peripheral\scb/cy_scb_common.h **** #define CY_SCB_WAIT_1_UNIT  (1U)
 519:Generated_Source\PSoC6\pdl\drivers\peripheral\scb/cy_scb_common.h **** 
 520:Generated_Source\PSoC6\pdl\drivers\peripheral\scb/cy_scb_common.h **** /* Clear interrupt sources */
 521:Generated_Source\PSoC6\pdl\drivers\peripheral\scb/cy_scb_common.h **** #define CY_SCB_CLEAR_ALL_INTR_SRC   (0UL)
 522:Generated_Source\PSoC6\pdl\drivers\peripheral\scb/cy_scb_common.h **** 
 523:Generated_Source\PSoC6\pdl\drivers\peripheral\scb/cy_scb_common.h **** /* Hardware FIFO size */
 524:Generated_Source\PSoC6\pdl\drivers\peripheral\scb/cy_scb_common.h **** #define CY_SCB_FIFO_SIZE(base)    (SCB_GET_EZ_DATA_NR(base) / 2UL)
 525:Generated_Source\PSoC6\pdl\drivers\peripheral\scb/cy_scb_common.h **** 
 526:Generated_Source\PSoC6\pdl\drivers\peripheral\scb/cy_scb_common.h **** /* Provides a list of allowed sources */
 527:Generated_Source\PSoC6\pdl\drivers\peripheral\scb/cy_scb_common.h **** #define CY_SCB_TX_INTR_MASK     (CY_SCB_TX_INTR_LEVEL     | CY_SCB_TX_INTR_NOT_FULL  | CY_SCB_TX_IN
 528:Generated_Source\PSoC6\pdl\drivers\peripheral\scb/cy_scb_common.h ****                                  CY_SCB_TX_INTR_OVERFLOW  | CY_SCB_TX_INTR_UNDERFLOW | CY_SCB_TX_IN
 529:Generated_Source\PSoC6\pdl\drivers\peripheral\scb/cy_scb_common.h ****                                  CY_SCB_TX_INTR_UART_NACK | CY_SCB_TX_INTR_UART_ARB_LOST)
 530:Generated_Source\PSoC6\pdl\drivers\peripheral\scb/cy_scb_common.h **** 
 531:Generated_Source\PSoC6\pdl\drivers\peripheral\scb/cy_scb_common.h **** #define CY_SCB_RX_INTR_MASK     (CY_SCB_RX_INTR_LEVEL             | CY_SCB_RX_INTR_NOT_EMPTY | CY_S
 532:Generated_Source\PSoC6\pdl\drivers\peripheral\scb/cy_scb_common.h ****                                  CY_SCB_RX_INTR_OVERFLOW          | CY_SCB_RX_INTR_UNDERFLOW       
 533:Generated_Source\PSoC6\pdl\drivers\peripheral\scb/cy_scb_common.h ****                                  CY_SCB_RX_INTR_UART_FRAME_ERROR  | CY_SCB_RX_INTR_UART_PARITY_ERRO
 534:Generated_Source\PSoC6\pdl\drivers\peripheral\scb/cy_scb_common.h ****                                  CY_SCB_RX_INTR_UART_BREAK_DETECT)
 535:Generated_Source\PSoC6\pdl\drivers\peripheral\scb/cy_scb_common.h **** 
 536:Generated_Source\PSoC6\pdl\drivers\peripheral\scb/cy_scb_common.h **** 
 537:Generated_Source\PSoC6\pdl\drivers\peripheral\scb/cy_scb_common.h **** #define CY_SCB_SLAVE_INTR_MASK  (CY_SCB_SLAVE_INTR_I2C_ARB_LOST   | CY_SCB_SLAVE_INTR_I2C_NACK | CY
 538:Generated_Source\PSoC6\pdl\drivers\peripheral\scb/cy_scb_common.h ****                                  CY_SCB_SLAVE_INTR_I2C_WRITE_STOP | CY_SCB_SLAVE_INTR_I2C_STOP | CY
 539:Generated_Source\PSoC6\pdl\drivers\peripheral\scb/cy_scb_common.h ****                                  CY_SCB_SLAVE_INTR_I2C_ADDR_MATCH | CY_SCB_SLAVE_INTR_I2C_GENERAL_A
 540:Generated_Source\PSoC6\pdl\drivers\peripheral\scb/cy_scb_common.h ****                                  CY_SCB_SLAVE_INTR_I2C_BUS_ERROR  | CY_SCB_SLAVE_INTR_SPI_BUS_ERROR
 541:Generated_Source\PSoC6\pdl\drivers\peripheral\scb/cy_scb_common.h **** 
 542:Generated_Source\PSoC6\pdl\drivers\peripheral\scb/cy_scb_common.h **** #define CY_SCB_MASTER_INTR_MASK (CY_SCB_MASTER_INTR_I2C_ARB_LOST  | CY_SCB_MASTER_INTR_I2C_NACK | \
 543:Generated_Source\PSoC6\pdl\drivers\peripheral\scb/cy_scb_common.h ****                                  CY_SCB_MASTER_INTR_I2C_ACK       | CY_SCB_MASTER_INTR_I2C_STOP | \
 544:Generated_Source\PSoC6\pdl\drivers\peripheral\scb/cy_scb_common.h ****                                  CY_SCB_MASTER_INTR_I2C_BUS_ERROR | CY_SCB_MASTER_INTR_SPI_DONE)
ARM GAS  C:\Users\salaz\AppData\Local\Temp\ccU0pQaU.s 			page 11


 545:Generated_Source\PSoC6\pdl\drivers\peripheral\scb/cy_scb_common.h **** 
 546:Generated_Source\PSoC6\pdl\drivers\peripheral\scb/cy_scb_common.h **** #define CY_SCB_I2C_INTR_MASK    CY_SCB_I2C_INTR_WAKEUP
 547:Generated_Source\PSoC6\pdl\drivers\peripheral\scb/cy_scb_common.h **** 
 548:Generated_Source\PSoC6\pdl\drivers\peripheral\scb/cy_scb_common.h **** #define CY_SCB_SPI_INTR_MASK    CY_SCB_SPI_INTR_WAKEUP
 549:Generated_Source\PSoC6\pdl\drivers\peripheral\scb/cy_scb_common.h **** 
 550:Generated_Source\PSoC6\pdl\drivers\peripheral\scb/cy_scb_common.h **** #define CY_SCB_IS_INTR_VALID(intr, mask)            ( 0UL == ((intr) & ((uint32_t) ~(mask))) )
 551:Generated_Source\PSoC6\pdl\drivers\peripheral\scb/cy_scb_common.h **** #define CY_SCB_IS_TRIGGER_LEVEL_VALID(base, level)  ((level) < Cy_SCB_GetFifoSize(base))
 552:Generated_Source\PSoC6\pdl\drivers\peripheral\scb/cy_scb_common.h **** 
 553:Generated_Source\PSoC6\pdl\drivers\peripheral\scb/cy_scb_common.h **** #define CY_SCB_IS_I2C_ADDR_VALID(addr)              ( (0U == ((addr) & 0x80U)) )
 554:Generated_Source\PSoC6\pdl\drivers\peripheral\scb/cy_scb_common.h **** #define CY_SCB_IS_BUFFER_VALID(buffer, size)        ( (NULL != (buffer)) && ((size) > 0UL) )
 555:Generated_Source\PSoC6\pdl\drivers\peripheral\scb/cy_scb_common.h **** #define CY_SCB_IS_I2C_BUFFER_VALID(buffer, size)    ( (0UL == (size)) ? true : (NULL != (buffer)) )
 556:Generated_Source\PSoC6\pdl\drivers\peripheral\scb/cy_scb_common.h **** /** \endcond */
 557:Generated_Source\PSoC6\pdl\drivers\peripheral\scb/cy_scb_common.h **** 
 558:Generated_Source\PSoC6\pdl\drivers\peripheral\scb/cy_scb_common.h **** /** \} group_scb_common_macros */
 559:Generated_Source\PSoC6\pdl\drivers\peripheral\scb/cy_scb_common.h **** 
 560:Generated_Source\PSoC6\pdl\drivers\peripheral\scb/cy_scb_common.h **** 
 561:Generated_Source\PSoC6\pdl\drivers\peripheral\scb/cy_scb_common.h **** /***************************************
 562:Generated_Source\PSoC6\pdl\drivers\peripheral\scb/cy_scb_common.h **** * Inline Function Implementation
 563:Generated_Source\PSoC6\pdl\drivers\peripheral\scb/cy_scb_common.h **** ***************************************/
 564:Generated_Source\PSoC6\pdl\drivers\peripheral\scb/cy_scb_common.h **** 
 565:Generated_Source\PSoC6\pdl\drivers\peripheral\scb/cy_scb_common.h **** /**
 566:Generated_Source\PSoC6\pdl\drivers\peripheral\scb/cy_scb_common.h **** * \addtogroup group_scb_common_functions
 567:Generated_Source\PSoC6\pdl\drivers\peripheral\scb/cy_scb_common.h **** * \{
 568:Generated_Source\PSoC6\pdl\drivers\peripheral\scb/cy_scb_common.h **** */
 569:Generated_Source\PSoC6\pdl\drivers\peripheral\scb/cy_scb_common.h **** 
 570:Generated_Source\PSoC6\pdl\drivers\peripheral\scb/cy_scb_common.h **** /*******************************************************************************
 571:Generated_Source\PSoC6\pdl\drivers\peripheral\scb/cy_scb_common.h **** * Function Name: Cy_SCB_ReadRxFifo
 572:Generated_Source\PSoC6\pdl\drivers\peripheral\scb/cy_scb_common.h **** ****************************************************************************//**
 573:Generated_Source\PSoC6\pdl\drivers\peripheral\scb/cy_scb_common.h **** *
 574:Generated_Source\PSoC6\pdl\drivers\peripheral\scb/cy_scb_common.h **** * Reads a data element directly out of the RX FIFO.
 575:Generated_Source\PSoC6\pdl\drivers\peripheral\scb/cy_scb_common.h **** * This function does not check whether the RX FIFO has data before reading it.
 576:Generated_Source\PSoC6\pdl\drivers\peripheral\scb/cy_scb_common.h **** *
 577:Generated_Source\PSoC6\pdl\drivers\peripheral\scb/cy_scb_common.h **** * \param base
 578:Generated_Source\PSoC6\pdl\drivers\peripheral\scb/cy_scb_common.h **** * The pointer to the SCB instance.
 579:Generated_Source\PSoC6\pdl\drivers\peripheral\scb/cy_scb_common.h **** *
 580:Generated_Source\PSoC6\pdl\drivers\peripheral\scb/cy_scb_common.h **** * \return
 581:Generated_Source\PSoC6\pdl\drivers\peripheral\scb/cy_scb_common.h **** * Data from RX FIFO.
 582:Generated_Source\PSoC6\pdl\drivers\peripheral\scb/cy_scb_common.h **** *
 583:Generated_Source\PSoC6\pdl\drivers\peripheral\scb/cy_scb_common.h **** *******************************************************************************/
 584:Generated_Source\PSoC6\pdl\drivers\peripheral\scb/cy_scb_common.h **** __STATIC_INLINE uint32_t Cy_SCB_ReadRxFifo(CySCB_Type const *base)
 585:Generated_Source\PSoC6\pdl\drivers\peripheral\scb/cy_scb_common.h **** {
  27              		.loc 1 585 0
  28              		.cfi_startproc
  29              		@ args = 0, pretend = 0, frame = 8
  30              		@ frame_needed = 1, uses_anonymous_args = 0
  31 0000 80B5     		push	{r7, lr}
  32              		.cfi_def_cfa_offset 8
  33              		.cfi_offset 7, -8
  34              		.cfi_offset 14, -4
  35 0002 82B0     		sub	sp, sp, #8
  36              		.cfi_def_cfa_offset 16
  37 0004 00AF     		add	r7, sp, #0
  38              		.cfi_def_cfa_register 7
  39 0006 7860     		str	r0, [r7, #4]
 586:Generated_Source\PSoC6\pdl\drivers\peripheral\scb/cy_scb_common.h ****     return (base->RX_FIFO_RD);
  40              		.loc 1 586 0
  41 0008 7A68     		ldr	r2, [r7, #4]
ARM GAS  C:\Users\salaz\AppData\Local\Temp\ccU0pQaU.s 			page 12


  42 000a D023     		movs	r3, #208
  43 000c 9B00     		lsls	r3, r3, #2
  44 000e D358     		ldr	r3, [r2, r3]
 587:Generated_Source\PSoC6\pdl\drivers\peripheral\scb/cy_scb_common.h **** }
  45              		.loc 1 587 0
  46 0010 1800     		movs	r0, r3
  47 0012 BD46     		mov	sp, r7
  48 0014 02B0     		add	sp, sp, #8
  49              		@ sp needed
  50 0016 80BD     		pop	{r7, pc}
  51              		.cfi_endproc
  52              	.LFE69:
  53              		.size	Cy_SCB_ReadRxFifo, .-Cy_SCB_ReadRxFifo
  54              		.section	.rodata
  55              		.align	2
  56              	.LC0:
  57 0000 47656E65 		.ascii	"Generated_Source\\PSoC6\\pdl\\drivers\\peripheral\\"
  57      72617465 
  57      645F536F 
  57      75726365 
  57      5C50536F 
  58 002e 7363625C 		.ascii	"scb\\cy_scb_common.h\000"
  58      63795F73 
  58      63625F63 
  58      6F6D6D6F 
  58      6E2E6800 
  59              		.section	.text.Cy_SCB_SetRxFifoLevel,"ax",%progbits
  60              		.align	2
  61              		.code	16
  62              		.thumb_func
  63              		.type	Cy_SCB_SetRxFifoLevel, %function
  64              	Cy_SCB_SetRxFifoLevel:
  65              	.LFB70:
 588:Generated_Source\PSoC6\pdl\drivers\peripheral\scb/cy_scb_common.h **** 
 589:Generated_Source\PSoC6\pdl\drivers\peripheral\scb/cy_scb_common.h **** /*******************************************************************************
 590:Generated_Source\PSoC6\pdl\drivers\peripheral\scb/cy_scb_common.h **** * Function Name: Cy_SCB_SetRxFifoLevel
 591:Generated_Source\PSoC6\pdl\drivers\peripheral\scb/cy_scb_common.h **** ****************************************************************************//**
 592:Generated_Source\PSoC6\pdl\drivers\peripheral\scb/cy_scb_common.h **** *
 593:Generated_Source\PSoC6\pdl\drivers\peripheral\scb/cy_scb_common.h **** * Sets the RX FIFO level. When there are more data elements in the RX FIFO than
 594:Generated_Source\PSoC6\pdl\drivers\peripheral\scb/cy_scb_common.h **** * this level, the RX FIFO level interrupt is triggered.
 595:Generated_Source\PSoC6\pdl\drivers\peripheral\scb/cy_scb_common.h **** *
 596:Generated_Source\PSoC6\pdl\drivers\peripheral\scb/cy_scb_common.h **** * \param base
 597:Generated_Source\PSoC6\pdl\drivers\peripheral\scb/cy_scb_common.h **** * The pointer to the SCB instance.
 598:Generated_Source\PSoC6\pdl\drivers\peripheral\scb/cy_scb_common.h **** *
 599:Generated_Source\PSoC6\pdl\drivers\peripheral\scb/cy_scb_common.h **** * \param level
 600:Generated_Source\PSoC6\pdl\drivers\peripheral\scb/cy_scb_common.h **** * When there are more data elements in the FIFO than this level, the RX level
 601:Generated_Source\PSoC6\pdl\drivers\peripheral\scb/cy_scb_common.h **** * interrupt is triggered.
 602:Generated_Source\PSoC6\pdl\drivers\peripheral\scb/cy_scb_common.h **** *
 603:Generated_Source\PSoC6\pdl\drivers\peripheral\scb/cy_scb_common.h **** *******************************************************************************/
 604:Generated_Source\PSoC6\pdl\drivers\peripheral\scb/cy_scb_common.h **** __STATIC_INLINE void Cy_SCB_SetRxFifoLevel(CySCB_Type *base, uint32_t level)
 605:Generated_Source\PSoC6\pdl\drivers\peripheral\scb/cy_scb_common.h **** {
  66              		.loc 1 605 0
  67              		.cfi_startproc
  68              		@ args = 0, pretend = 0, frame = 8
  69              		@ frame_needed = 1, uses_anonymous_args = 0
  70 0000 80B5     		push	{r7, lr}
  71              		.cfi_def_cfa_offset 8
ARM GAS  C:\Users\salaz\AppData\Local\Temp\ccU0pQaU.s 			page 13


  72              		.cfi_offset 7, -8
  73              		.cfi_offset 14, -4
  74 0002 82B0     		sub	sp, sp, #8
  75              		.cfi_def_cfa_offset 16
  76 0004 00AF     		add	r7, sp, #0
  77              		.cfi_def_cfa_register 7
  78 0006 7860     		str	r0, [r7, #4]
  79 0008 3960     		str	r1, [r7]
 606:Generated_Source\PSoC6\pdl\drivers\peripheral\scb/cy_scb_common.h ****     CY_ASSERT_L2(CY_SCB_IS_TRIGGER_LEVEL_VALID(base, level));
  80              		.loc 1 606 0
  81 000a 7B68     		ldr	r3, [r7, #4]
  82 000c 1800     		movs	r0, r3
  83 000e FFF7FEFF 		bl	Cy_SCB_GetFifoSize
  84 0012 0200     		movs	r2, r0
  85 0014 3B68     		ldr	r3, [r7]
  86 0016 9A42     		cmp	r2, r3
  87 0018 05D8     		bhi	.L4
  88              		.loc 1 606 0 is_stmt 0 discriminator 1
  89 001a 0D4A     		ldr	r2, .L5
  90 001c 0D4B     		ldr	r3, .L5+4
  91 001e 1100     		movs	r1, r2
  92 0020 1800     		movs	r0, r3
  93 0022 FFF7FEFF 		bl	Cy_SysLib_AssertFailed
  94              	.L4:
 607:Generated_Source\PSoC6\pdl\drivers\peripheral\scb/cy_scb_common.h **** 
 608:Generated_Source\PSoC6\pdl\drivers\peripheral\scb/cy_scb_common.h ****     base->RX_FIFO_CTRL = _CLR_SET_FLD32U(base->RX_FIFO_CTRL, SCB_RX_FIFO_CTRL_TRIGGER_LEVEL, level)
  95              		.loc 1 608 0 is_stmt 1
  96 0026 7A68     		ldr	r2, [r7, #4]
  97 0028 C123     		movs	r3, #193
  98 002a 9B00     		lsls	r3, r3, #2
  99 002c D358     		ldr	r3, [r2, r3]
 100 002e FF22     		movs	r2, #255
 101 0030 9343     		bics	r3, r2
 102 0032 1A00     		movs	r2, r3
 103 0034 3B68     		ldr	r3, [r7]
 104 0036 FF21     		movs	r1, #255
 105 0038 0B40     		ands	r3, r1
 106 003a 1A43     		orrs	r2, r3
 107 003c 1100     		movs	r1, r2
 108 003e 7A68     		ldr	r2, [r7, #4]
 109 0040 C123     		movs	r3, #193
 110 0042 9B00     		lsls	r3, r3, #2
 111 0044 D150     		str	r1, [r2, r3]
 609:Generated_Source\PSoC6\pdl\drivers\peripheral\scb/cy_scb_common.h **** }
 112              		.loc 1 609 0
 113 0046 C046     		nop
 114 0048 BD46     		mov	sp, r7
 115 004a 02B0     		add	sp, sp, #8
 116              		@ sp needed
 117 004c 80BD     		pop	{r7, pc}
 118              	.L6:
 119 004e C046     		.align	2
 120              	.L5:
 121 0050 5E020000 		.word	606
 122 0054 00000000 		.word	.LC0
 123              		.cfi_endproc
 124              	.LFE70:
ARM GAS  C:\Users\salaz\AppData\Local\Temp\ccU0pQaU.s 			page 14


 125              		.size	Cy_SCB_SetRxFifoLevel, .-Cy_SCB_SetRxFifoLevel
 126              		.section	.text.Cy_SCB_ClearRxFifo,"ax",%progbits
 127              		.align	2
 128              		.code	16
 129              		.thumb_func
 130              		.type	Cy_SCB_ClearRxFifo, %function
 131              	Cy_SCB_ClearRxFifo:
 132              	.LFB73:
 610:Generated_Source\PSoC6\pdl\drivers\peripheral\scb/cy_scb_common.h **** 
 611:Generated_Source\PSoC6\pdl\drivers\peripheral\scb/cy_scb_common.h **** 
 612:Generated_Source\PSoC6\pdl\drivers\peripheral\scb/cy_scb_common.h **** /*******************************************************************************
 613:Generated_Source\PSoC6\pdl\drivers\peripheral\scb/cy_scb_common.h **** * Function Name: Cy_SCB_GetNumInRxFifo
 614:Generated_Source\PSoC6\pdl\drivers\peripheral\scb/cy_scb_common.h **** ****************************************************************************//**
 615:Generated_Source\PSoC6\pdl\drivers\peripheral\scb/cy_scb_common.h **** *
 616:Generated_Source\PSoC6\pdl\drivers\peripheral\scb/cy_scb_common.h **** * Returns the number of data elements currently in the RX FIFO.
 617:Generated_Source\PSoC6\pdl\drivers\peripheral\scb/cy_scb_common.h **** *
 618:Generated_Source\PSoC6\pdl\drivers\peripheral\scb/cy_scb_common.h **** * \param base
 619:Generated_Source\PSoC6\pdl\drivers\peripheral\scb/cy_scb_common.h **** * The pointer to the SCB instance.
 620:Generated_Source\PSoC6\pdl\drivers\peripheral\scb/cy_scb_common.h **** *
 621:Generated_Source\PSoC6\pdl\drivers\peripheral\scb/cy_scb_common.h **** * \return
 622:Generated_Source\PSoC6\pdl\drivers\peripheral\scb/cy_scb_common.h **** * The number or data elements in RX FIFO.
 623:Generated_Source\PSoC6\pdl\drivers\peripheral\scb/cy_scb_common.h **** *
 624:Generated_Source\PSoC6\pdl\drivers\peripheral\scb/cy_scb_common.h **** *******************************************************************************/
 625:Generated_Source\PSoC6\pdl\drivers\peripheral\scb/cy_scb_common.h **** __STATIC_INLINE uint32_t Cy_SCB_GetNumInRxFifo(CySCB_Type const *base)
 626:Generated_Source\PSoC6\pdl\drivers\peripheral\scb/cy_scb_common.h **** {
 627:Generated_Source\PSoC6\pdl\drivers\peripheral\scb/cy_scb_common.h ****     return _FLD2VAL(SCB_RX_FIFO_STATUS_USED, base->RX_FIFO_STATUS);
 628:Generated_Source\PSoC6\pdl\drivers\peripheral\scb/cy_scb_common.h **** }
 629:Generated_Source\PSoC6\pdl\drivers\peripheral\scb/cy_scb_common.h **** 
 630:Generated_Source\PSoC6\pdl\drivers\peripheral\scb/cy_scb_common.h **** 
 631:Generated_Source\PSoC6\pdl\drivers\peripheral\scb/cy_scb_common.h **** /*******************************************************************************
 632:Generated_Source\PSoC6\pdl\drivers\peripheral\scb/cy_scb_common.h **** * Function Name: Cy_SCB_GetRxSrValid
 633:Generated_Source\PSoC6\pdl\drivers\peripheral\scb/cy_scb_common.h **** ****************************************************************************//**
 634:Generated_Source\PSoC6\pdl\drivers\peripheral\scb/cy_scb_common.h **** *
 635:Generated_Source\PSoC6\pdl\drivers\peripheral\scb/cy_scb_common.h **** * Returns the status of the RX FIFO Shift Register valid bit.
 636:Generated_Source\PSoC6\pdl\drivers\peripheral\scb/cy_scb_common.h **** *
 637:Generated_Source\PSoC6\pdl\drivers\peripheral\scb/cy_scb_common.h **** * \param base
 638:Generated_Source\PSoC6\pdl\drivers\peripheral\scb/cy_scb_common.h **** * The pointer to the SCB instance.
 639:Generated_Source\PSoC6\pdl\drivers\peripheral\scb/cy_scb_common.h **** *
 640:Generated_Source\PSoC6\pdl\drivers\peripheral\scb/cy_scb_common.h **** * \return
 641:Generated_Source\PSoC6\pdl\drivers\peripheral\scb/cy_scb_common.h **** * 1 - RX shift register valid; 0 - RX shift register not valid.
 642:Generated_Source\PSoC6\pdl\drivers\peripheral\scb/cy_scb_common.h **** *
 643:Generated_Source\PSoC6\pdl\drivers\peripheral\scb/cy_scb_common.h **** *******************************************************************************/
 644:Generated_Source\PSoC6\pdl\drivers\peripheral\scb/cy_scb_common.h **** __STATIC_INLINE uint32_t Cy_SCB_GetRxSrValid(CySCB_Type const *base)
 645:Generated_Source\PSoC6\pdl\drivers\peripheral\scb/cy_scb_common.h **** {
 646:Generated_Source\PSoC6\pdl\drivers\peripheral\scb/cy_scb_common.h ****     return _FLD2VAL(SCB_RX_FIFO_STATUS_SR_VALID, base->RX_FIFO_STATUS);
 647:Generated_Source\PSoC6\pdl\drivers\peripheral\scb/cy_scb_common.h **** }
 648:Generated_Source\PSoC6\pdl\drivers\peripheral\scb/cy_scb_common.h **** 
 649:Generated_Source\PSoC6\pdl\drivers\peripheral\scb/cy_scb_common.h **** 
 650:Generated_Source\PSoC6\pdl\drivers\peripheral\scb/cy_scb_common.h **** /*******************************************************************************
 651:Generated_Source\PSoC6\pdl\drivers\peripheral\scb/cy_scb_common.h **** * Function Name: Cy_SCB_ClearRxFifo
 652:Generated_Source\PSoC6\pdl\drivers\peripheral\scb/cy_scb_common.h **** ****************************************************************************//**
 653:Generated_Source\PSoC6\pdl\drivers\peripheral\scb/cy_scb_common.h **** *
 654:Generated_Source\PSoC6\pdl\drivers\peripheral\scb/cy_scb_common.h **** * Clears the RX FIFO and shifter.
 655:Generated_Source\PSoC6\pdl\drivers\peripheral\scb/cy_scb_common.h **** *
 656:Generated_Source\PSoC6\pdl\drivers\peripheral\scb/cy_scb_common.h **** * \param base
 657:Generated_Source\PSoC6\pdl\drivers\peripheral\scb/cy_scb_common.h **** * The pointer to the SCB instance.
 658:Generated_Source\PSoC6\pdl\drivers\peripheral\scb/cy_scb_common.h **** *
ARM GAS  C:\Users\salaz\AppData\Local\Temp\ccU0pQaU.s 			page 15


 659:Generated_Source\PSoC6\pdl\drivers\peripheral\scb/cy_scb_common.h **** * \note
 660:Generated_Source\PSoC6\pdl\drivers\peripheral\scb/cy_scb_common.h **** * If there is partial data in the shifter, it is cleared and lost.
 661:Generated_Source\PSoC6\pdl\drivers\peripheral\scb/cy_scb_common.h **** *
 662:Generated_Source\PSoC6\pdl\drivers\peripheral\scb/cy_scb_common.h **** *******************************************************************************/
 663:Generated_Source\PSoC6\pdl\drivers\peripheral\scb/cy_scb_common.h **** __STATIC_INLINE void Cy_SCB_ClearRxFifo(CySCB_Type* base)
 664:Generated_Source\PSoC6\pdl\drivers\peripheral\scb/cy_scb_common.h **** {
 133              		.loc 1 664 0
 134              		.cfi_startproc
 135              		@ args = 0, pretend = 0, frame = 8
 136              		@ frame_needed = 1, uses_anonymous_args = 0
 137 0000 80B5     		push	{r7, lr}
 138              		.cfi_def_cfa_offset 8
 139              		.cfi_offset 7, -8
 140              		.cfi_offset 14, -4
 141 0002 82B0     		sub	sp, sp, #8
 142              		.cfi_def_cfa_offset 16
 143 0004 00AF     		add	r7, sp, #0
 144              		.cfi_def_cfa_register 7
 145 0006 7860     		str	r0, [r7, #4]
 665:Generated_Source\PSoC6\pdl\drivers\peripheral\scb/cy_scb_common.h ****     base->RX_FIFO_CTRL |= (uint32_t)  SCB_RX_FIFO_CTRL_CLEAR_Msk;
 146              		.loc 1 665 0
 147 0008 7A68     		ldr	r2, [r7, #4]
 148 000a C123     		movs	r3, #193
 149 000c 9B00     		lsls	r3, r3, #2
 150 000e D358     		ldr	r3, [r2, r3]
 151 0010 8022     		movs	r2, #128
 152 0012 5202     		lsls	r2, r2, #9
 153 0014 1A43     		orrs	r2, r3
 154 0016 1100     		movs	r1, r2
 155 0018 7A68     		ldr	r2, [r7, #4]
 156 001a C123     		movs	r3, #193
 157 001c 9B00     		lsls	r3, r3, #2
 158 001e D150     		str	r1, [r2, r3]
 666:Generated_Source\PSoC6\pdl\drivers\peripheral\scb/cy_scb_common.h ****     base->RX_FIFO_CTRL &= (uint32_t) ~SCB_RX_FIFO_CTRL_CLEAR_Msk;
 159              		.loc 1 666 0
 160 0020 7A68     		ldr	r2, [r7, #4]
 161 0022 C123     		movs	r3, #193
 162 0024 9B00     		lsls	r3, r3, #2
 163 0026 D358     		ldr	r3, [r2, r3]
 164 0028 074A     		ldr	r2, .L8
 165 002a 1340     		ands	r3, r2
 166 002c 1900     		movs	r1, r3
 167 002e 7A68     		ldr	r2, [r7, #4]
 168 0030 C123     		movs	r3, #193
 169 0032 9B00     		lsls	r3, r3, #2
 170 0034 D150     		str	r1, [r2, r3]
 667:Generated_Source\PSoC6\pdl\drivers\peripheral\scb/cy_scb_common.h **** 
 668:Generated_Source\PSoC6\pdl\drivers\peripheral\scb/cy_scb_common.h ****     (void) base->RX_FIFO_CTRL;
 171              		.loc 1 668 0
 172 0036 7A68     		ldr	r2, [r7, #4]
 173 0038 C123     		movs	r3, #193
 174 003a 9B00     		lsls	r3, r3, #2
 175 003c D358     		ldr	r3, [r2, r3]
 669:Generated_Source\PSoC6\pdl\drivers\peripheral\scb/cy_scb_common.h **** }
 176              		.loc 1 669 0
 177 003e C046     		nop
 178 0040 BD46     		mov	sp, r7
ARM GAS  C:\Users\salaz\AppData\Local\Temp\ccU0pQaU.s 			page 16


 179 0042 02B0     		add	sp, sp, #8
 180              		@ sp needed
 181 0044 80BD     		pop	{r7, pc}
 182              	.L9:
 183 0046 C046     		.align	2
 184              	.L8:
 185 0048 FFFFFEFF 		.word	-65537
 186              		.cfi_endproc
 187              	.LFE73:
 188              		.size	Cy_SCB_ClearRxFifo, .-Cy_SCB_ClearRxFifo
 189              		.section	.text.Cy_SCB_ClearTxFifo,"ax",%progbits
 190              		.align	2
 191              		.code	16
 192              		.thumb_func
 193              		.type	Cy_SCB_ClearTxFifo, %function
 194              	Cy_SCB_ClearTxFifo:
 195              	.LFB79:
 670:Generated_Source\PSoC6\pdl\drivers\peripheral\scb/cy_scb_common.h **** 
 671:Generated_Source\PSoC6\pdl\drivers\peripheral\scb/cy_scb_common.h **** 
 672:Generated_Source\PSoC6\pdl\drivers\peripheral\scb/cy_scb_common.h **** /*******************************************************************************
 673:Generated_Source\PSoC6\pdl\drivers\peripheral\scb/cy_scb_common.h **** * Function Name: Cy_SCB_WriteTxFifo
 674:Generated_Source\PSoC6\pdl\drivers\peripheral\scb/cy_scb_common.h **** ****************************************************************************//**
 675:Generated_Source\PSoC6\pdl\drivers\peripheral\scb/cy_scb_common.h **** *
 676:Generated_Source\PSoC6\pdl\drivers\peripheral\scb/cy_scb_common.h **** * Writes data directly into the TX FIFO.
 677:Generated_Source\PSoC6\pdl\drivers\peripheral\scb/cy_scb_common.h **** * This function does not check whether the TX FIFO is not full before writing
 678:Generated_Source\PSoC6\pdl\drivers\peripheral\scb/cy_scb_common.h **** * into it.
 679:Generated_Source\PSoC6\pdl\drivers\peripheral\scb/cy_scb_common.h **** *
 680:Generated_Source\PSoC6\pdl\drivers\peripheral\scb/cy_scb_common.h **** * \param base
 681:Generated_Source\PSoC6\pdl\drivers\peripheral\scb/cy_scb_common.h **** * The pointer to the SCB instance.
 682:Generated_Source\PSoC6\pdl\drivers\peripheral\scb/cy_scb_common.h **** *
 683:Generated_Source\PSoC6\pdl\drivers\peripheral\scb/cy_scb_common.h **** * \param data
 684:Generated_Source\PSoC6\pdl\drivers\peripheral\scb/cy_scb_common.h **** * Data to write to the TX FIFO.
 685:Generated_Source\PSoC6\pdl\drivers\peripheral\scb/cy_scb_common.h **** *
 686:Generated_Source\PSoC6\pdl\drivers\peripheral\scb/cy_scb_common.h **** *******************************************************************************/
 687:Generated_Source\PSoC6\pdl\drivers\peripheral\scb/cy_scb_common.h **** __STATIC_INLINE void Cy_SCB_WriteTxFifo(CySCB_Type* base, uint32_t data)
 688:Generated_Source\PSoC6\pdl\drivers\peripheral\scb/cy_scb_common.h **** {
 689:Generated_Source\PSoC6\pdl\drivers\peripheral\scb/cy_scb_common.h ****     base->TX_FIFO_WR = data;
 690:Generated_Source\PSoC6\pdl\drivers\peripheral\scb/cy_scb_common.h **** }
 691:Generated_Source\PSoC6\pdl\drivers\peripheral\scb/cy_scb_common.h **** 
 692:Generated_Source\PSoC6\pdl\drivers\peripheral\scb/cy_scb_common.h **** 
 693:Generated_Source\PSoC6\pdl\drivers\peripheral\scb/cy_scb_common.h **** /*******************************************************************************
 694:Generated_Source\PSoC6\pdl\drivers\peripheral\scb/cy_scb_common.h **** * Function Name: Cy_SCB_SetTxFifoLevel
 695:Generated_Source\PSoC6\pdl\drivers\peripheral\scb/cy_scb_common.h **** ****************************************************************************//**
 696:Generated_Source\PSoC6\pdl\drivers\peripheral\scb/cy_scb_common.h **** *
 697:Generated_Source\PSoC6\pdl\drivers\peripheral\scb/cy_scb_common.h **** * Sets the TX FIFO level. When there are fewer data elements in the TX FIFO than
 698:Generated_Source\PSoC6\pdl\drivers\peripheral\scb/cy_scb_common.h **** * this level, the TX FIFO level interrupt is triggered.
 699:Generated_Source\PSoC6\pdl\drivers\peripheral\scb/cy_scb_common.h **** *
 700:Generated_Source\PSoC6\pdl\drivers\peripheral\scb/cy_scb_common.h **** * \param base
 701:Generated_Source\PSoC6\pdl\drivers\peripheral\scb/cy_scb_common.h **** * The pointer to the SCB instance.
 702:Generated_Source\PSoC6\pdl\drivers\peripheral\scb/cy_scb_common.h **** *
 703:Generated_Source\PSoC6\pdl\drivers\peripheral\scb/cy_scb_common.h **** * \param level
 704:Generated_Source\PSoC6\pdl\drivers\peripheral\scb/cy_scb_common.h **** * When there are fewer data elements in the FIFO than this level, the TX level
 705:Generated_Source\PSoC6\pdl\drivers\peripheral\scb/cy_scb_common.h **** * interrupt is triggered.
 706:Generated_Source\PSoC6\pdl\drivers\peripheral\scb/cy_scb_common.h **** *
 707:Generated_Source\PSoC6\pdl\drivers\peripheral\scb/cy_scb_common.h **** *******************************************************************************/
 708:Generated_Source\PSoC6\pdl\drivers\peripheral\scb/cy_scb_common.h **** __STATIC_INLINE void Cy_SCB_SetTxFifoLevel(CySCB_Type *base, uint32_t level)
 709:Generated_Source\PSoC6\pdl\drivers\peripheral\scb/cy_scb_common.h **** {
ARM GAS  C:\Users\salaz\AppData\Local\Temp\ccU0pQaU.s 			page 17


 710:Generated_Source\PSoC6\pdl\drivers\peripheral\scb/cy_scb_common.h ****     CY_ASSERT_L2(CY_SCB_IS_TRIGGER_LEVEL_VALID(base, level));
 711:Generated_Source\PSoC6\pdl\drivers\peripheral\scb/cy_scb_common.h **** 
 712:Generated_Source\PSoC6\pdl\drivers\peripheral\scb/cy_scb_common.h ****     base->TX_FIFO_CTRL = _CLR_SET_FLD32U(base->TX_FIFO_CTRL, SCB_TX_FIFO_CTRL_TRIGGER_LEVEL, level)
 713:Generated_Source\PSoC6\pdl\drivers\peripheral\scb/cy_scb_common.h **** }
 714:Generated_Source\PSoC6\pdl\drivers\peripheral\scb/cy_scb_common.h **** 
 715:Generated_Source\PSoC6\pdl\drivers\peripheral\scb/cy_scb_common.h **** 
 716:Generated_Source\PSoC6\pdl\drivers\peripheral\scb/cy_scb_common.h **** /*******************************************************************************
 717:Generated_Source\PSoC6\pdl\drivers\peripheral\scb/cy_scb_common.h **** * Function Name: Cy_SCB_GetNumInTxFifo
 718:Generated_Source\PSoC6\pdl\drivers\peripheral\scb/cy_scb_common.h **** ****************************************************************************//**
 719:Generated_Source\PSoC6\pdl\drivers\peripheral\scb/cy_scb_common.h **** *
 720:Generated_Source\PSoC6\pdl\drivers\peripheral\scb/cy_scb_common.h **** * Returns the number of data elements currently in the TX FIFO.
 721:Generated_Source\PSoC6\pdl\drivers\peripheral\scb/cy_scb_common.h **** *
 722:Generated_Source\PSoC6\pdl\drivers\peripheral\scb/cy_scb_common.h **** * \param base
 723:Generated_Source\PSoC6\pdl\drivers\peripheral\scb/cy_scb_common.h **** * The pointer to the SCB instance.
 724:Generated_Source\PSoC6\pdl\drivers\peripheral\scb/cy_scb_common.h **** *
 725:Generated_Source\PSoC6\pdl\drivers\peripheral\scb/cy_scb_common.h **** * \return
 726:Generated_Source\PSoC6\pdl\drivers\peripheral\scb/cy_scb_common.h **** * The number or data elements in the TX FIFO.
 727:Generated_Source\PSoC6\pdl\drivers\peripheral\scb/cy_scb_common.h **** *
 728:Generated_Source\PSoC6\pdl\drivers\peripheral\scb/cy_scb_common.h **** *******************************************************************************/
 729:Generated_Source\PSoC6\pdl\drivers\peripheral\scb/cy_scb_common.h **** __STATIC_INLINE uint32_t Cy_SCB_GetNumInTxFifo(CySCB_Type const *base)
 730:Generated_Source\PSoC6\pdl\drivers\peripheral\scb/cy_scb_common.h **** {
 731:Generated_Source\PSoC6\pdl\drivers\peripheral\scb/cy_scb_common.h ****     return _FLD2VAL(SCB_TX_FIFO_STATUS_USED, base->TX_FIFO_STATUS);
 732:Generated_Source\PSoC6\pdl\drivers\peripheral\scb/cy_scb_common.h **** }
 733:Generated_Source\PSoC6\pdl\drivers\peripheral\scb/cy_scb_common.h **** 
 734:Generated_Source\PSoC6\pdl\drivers\peripheral\scb/cy_scb_common.h **** 
 735:Generated_Source\PSoC6\pdl\drivers\peripheral\scb/cy_scb_common.h **** /*******************************************************************************
 736:Generated_Source\PSoC6\pdl\drivers\peripheral\scb/cy_scb_common.h **** * Function Name: Cy_SCB_GetTxSrValid
 737:Generated_Source\PSoC6\pdl\drivers\peripheral\scb/cy_scb_common.h **** ****************************************************************************//**
 738:Generated_Source\PSoC6\pdl\drivers\peripheral\scb/cy_scb_common.h **** *
 739:Generated_Source\PSoC6\pdl\drivers\peripheral\scb/cy_scb_common.h **** * Returns the status of the TX FIFO Shift Register valid bit.
 740:Generated_Source\PSoC6\pdl\drivers\peripheral\scb/cy_scb_common.h **** *
 741:Generated_Source\PSoC6\pdl\drivers\peripheral\scb/cy_scb_common.h **** * \param base
 742:Generated_Source\PSoC6\pdl\drivers\peripheral\scb/cy_scb_common.h **** * The pointer to the SCB instance.
 743:Generated_Source\PSoC6\pdl\drivers\peripheral\scb/cy_scb_common.h **** *
 744:Generated_Source\PSoC6\pdl\drivers\peripheral\scb/cy_scb_common.h **** * \return
 745:Generated_Source\PSoC6\pdl\drivers\peripheral\scb/cy_scb_common.h **** * 1 - TX shift register valid; 0 - TX shift register not valid.
 746:Generated_Source\PSoC6\pdl\drivers\peripheral\scb/cy_scb_common.h **** *
 747:Generated_Source\PSoC6\pdl\drivers\peripheral\scb/cy_scb_common.h **** *******************************************************************************/
 748:Generated_Source\PSoC6\pdl\drivers\peripheral\scb/cy_scb_common.h **** __STATIC_INLINE uint32_t Cy_SCB_GetTxSrValid(CySCB_Type const *base)
 749:Generated_Source\PSoC6\pdl\drivers\peripheral\scb/cy_scb_common.h **** {
 750:Generated_Source\PSoC6\pdl\drivers\peripheral\scb/cy_scb_common.h ****     return _FLD2VAL(SCB_TX_FIFO_STATUS_SR_VALID, base->TX_FIFO_STATUS);
 751:Generated_Source\PSoC6\pdl\drivers\peripheral\scb/cy_scb_common.h **** }
 752:Generated_Source\PSoC6\pdl\drivers\peripheral\scb/cy_scb_common.h **** 
 753:Generated_Source\PSoC6\pdl\drivers\peripheral\scb/cy_scb_common.h **** 
 754:Generated_Source\PSoC6\pdl\drivers\peripheral\scb/cy_scb_common.h **** /*******************************************************************************
 755:Generated_Source\PSoC6\pdl\drivers\peripheral\scb/cy_scb_common.h **** * Function Name: Cy_SCB_IsTxComplete
 756:Generated_Source\PSoC6\pdl\drivers\peripheral\scb/cy_scb_common.h **** ****************************************************************************//**
 757:Generated_Source\PSoC6\pdl\drivers\peripheral\scb/cy_scb_common.h **** *
 758:Generated_Source\PSoC6\pdl\drivers\peripheral\scb/cy_scb_common.h **** * Checks whether the TX FIFO and Shifter are empty and there is no more data to send.
 759:Generated_Source\PSoC6\pdl\drivers\peripheral\scb/cy_scb_common.h **** *
 760:Generated_Source\PSoC6\pdl\drivers\peripheral\scb/cy_scb_common.h **** * \param base
 761:Generated_Source\PSoC6\pdl\drivers\peripheral\scb/cy_scb_common.h **** * Pointer to SPI the SCB instance.
 762:Generated_Source\PSoC6\pdl\drivers\peripheral\scb/cy_scb_common.h **** *
 763:Generated_Source\PSoC6\pdl\drivers\peripheral\scb/cy_scb_common.h **** * \return
 764:Generated_Source\PSoC6\pdl\drivers\peripheral\scb/cy_scb_common.h **** * If true, transmission complete. If false, transmission is not complete.
 765:Generated_Source\PSoC6\pdl\drivers\peripheral\scb/cy_scb_common.h **** *
 766:Generated_Source\PSoC6\pdl\drivers\peripheral\scb/cy_scb_common.h **** *******************************************************************************/
ARM GAS  C:\Users\salaz\AppData\Local\Temp\ccU0pQaU.s 			page 18


 767:Generated_Source\PSoC6\pdl\drivers\peripheral\scb/cy_scb_common.h **** __STATIC_INLINE bool Cy_SCB_IsTxComplete(CySCB_Type const *base)
 768:Generated_Source\PSoC6\pdl\drivers\peripheral\scb/cy_scb_common.h **** {
 769:Generated_Source\PSoC6\pdl\drivers\peripheral\scb/cy_scb_common.h ****      return (0UL == (Cy_SCB_GetNumInTxFifo(base) + Cy_SCB_GetTxSrValid(base)));
 770:Generated_Source\PSoC6\pdl\drivers\peripheral\scb/cy_scb_common.h **** }
 771:Generated_Source\PSoC6\pdl\drivers\peripheral\scb/cy_scb_common.h **** 
 772:Generated_Source\PSoC6\pdl\drivers\peripheral\scb/cy_scb_common.h **** 
 773:Generated_Source\PSoC6\pdl\drivers\peripheral\scb/cy_scb_common.h **** /*******************************************************************************
 774:Generated_Source\PSoC6\pdl\drivers\peripheral\scb/cy_scb_common.h **** * Function Name: Cy_SCB_ClearTxFifo
 775:Generated_Source\PSoC6\pdl\drivers\peripheral\scb/cy_scb_common.h **** ****************************************************************************//**
 776:Generated_Source\PSoC6\pdl\drivers\peripheral\scb/cy_scb_common.h **** *
 777:Generated_Source\PSoC6\pdl\drivers\peripheral\scb/cy_scb_common.h **** * Clears the TX FIFO.
 778:Generated_Source\PSoC6\pdl\drivers\peripheral\scb/cy_scb_common.h **** *
 779:Generated_Source\PSoC6\pdl\drivers\peripheral\scb/cy_scb_common.h **** * \param base
 780:Generated_Source\PSoC6\pdl\drivers\peripheral\scb/cy_scb_common.h **** * The pointer to the SCB instance.
 781:Generated_Source\PSoC6\pdl\drivers\peripheral\scb/cy_scb_common.h **** *
 782:Generated_Source\PSoC6\pdl\drivers\peripheral\scb/cy_scb_common.h **** * \note
 783:Generated_Source\PSoC6\pdl\drivers\peripheral\scb/cy_scb_common.h **** * The TX FIFO clear operation also clears the shift register. Thus the shifter
 784:Generated_Source\PSoC6\pdl\drivers\peripheral\scb/cy_scb_common.h **** * could be cleared in the middle of a data element transfer. Thia results in
 785:Generated_Source\PSoC6\pdl\drivers\peripheral\scb/cy_scb_common.h **** * "ones" being sent on the bus for the remainder of the transfer.
 786:Generated_Source\PSoC6\pdl\drivers\peripheral\scb/cy_scb_common.h **** *
 787:Generated_Source\PSoC6\pdl\drivers\peripheral\scb/cy_scb_common.h **** *******************************************************************************/
 788:Generated_Source\PSoC6\pdl\drivers\peripheral\scb/cy_scb_common.h **** __STATIC_INLINE void Cy_SCB_ClearTxFifo(CySCB_Type *base)
 789:Generated_Source\PSoC6\pdl\drivers\peripheral\scb/cy_scb_common.h **** {
 196              		.loc 1 789 0
 197              		.cfi_startproc
 198              		@ args = 0, pretend = 0, frame = 8
 199              		@ frame_needed = 1, uses_anonymous_args = 0
 200 0000 80B5     		push	{r7, lr}
 201              		.cfi_def_cfa_offset 8
 202              		.cfi_offset 7, -8
 203              		.cfi_offset 14, -4
 204 0002 82B0     		sub	sp, sp, #8
 205              		.cfi_def_cfa_offset 16
 206 0004 00AF     		add	r7, sp, #0
 207              		.cfi_def_cfa_register 7
 208 0006 7860     		str	r0, [r7, #4]
 790:Generated_Source\PSoC6\pdl\drivers\peripheral\scb/cy_scb_common.h ****     base->TX_FIFO_CTRL |= (uint32_t)  SCB_TX_FIFO_CTRL_CLEAR_Msk;
 209              		.loc 1 790 0
 210 0008 7A68     		ldr	r2, [r7, #4]
 211 000a 8123     		movs	r3, #129
 212 000c 9B00     		lsls	r3, r3, #2
 213 000e D358     		ldr	r3, [r2, r3]
 214 0010 8022     		movs	r2, #128
 215 0012 5202     		lsls	r2, r2, #9
 216 0014 1A43     		orrs	r2, r3
 217 0016 1100     		movs	r1, r2
 218 0018 7A68     		ldr	r2, [r7, #4]
 219 001a 8123     		movs	r3, #129
 220 001c 9B00     		lsls	r3, r3, #2
 221 001e D150     		str	r1, [r2, r3]
 791:Generated_Source\PSoC6\pdl\drivers\peripheral\scb/cy_scb_common.h ****     base->TX_FIFO_CTRL &= (uint32_t) ~SCB_TX_FIFO_CTRL_CLEAR_Msk;
 222              		.loc 1 791 0
 223 0020 7A68     		ldr	r2, [r7, #4]
 224 0022 8123     		movs	r3, #129
 225 0024 9B00     		lsls	r3, r3, #2
 226 0026 D358     		ldr	r3, [r2, r3]
 227 0028 074A     		ldr	r2, .L11
ARM GAS  C:\Users\salaz\AppData\Local\Temp\ccU0pQaU.s 			page 19


 228 002a 1340     		ands	r3, r2
 229 002c 1900     		movs	r1, r3
 230 002e 7A68     		ldr	r2, [r7, #4]
 231 0030 8123     		movs	r3, #129
 232 0032 9B00     		lsls	r3, r3, #2
 233 0034 D150     		str	r1, [r2, r3]
 792:Generated_Source\PSoC6\pdl\drivers\peripheral\scb/cy_scb_common.h **** 
 793:Generated_Source\PSoC6\pdl\drivers\peripheral\scb/cy_scb_common.h ****     (void) base->TX_FIFO_CTRL;
 234              		.loc 1 793 0
 235 0036 7A68     		ldr	r2, [r7, #4]
 236 0038 8123     		movs	r3, #129
 237 003a 9B00     		lsls	r3, r3, #2
 238 003c D358     		ldr	r3, [r2, r3]
 794:Generated_Source\PSoC6\pdl\drivers\peripheral\scb/cy_scb_common.h **** }
 239              		.loc 1 794 0
 240 003e C046     		nop
 241 0040 BD46     		mov	sp, r7
 242 0042 02B0     		add	sp, sp, #8
 243              		@ sp needed
 244 0044 80BD     		pop	{r7, pc}
 245              	.L12:
 246 0046 C046     		.align	2
 247              	.L11:
 248 0048 FFFFFEFF 		.word	-65537
 249              		.cfi_endproc
 250              	.LFE79:
 251              		.size	Cy_SCB_ClearTxFifo, .-Cy_SCB_ClearTxFifo
 252              		.section	.text.Cy_SCB_SetRxInterruptMask,"ax",%progbits
 253              		.align	2
 254              		.code	16
 255              		.thumb_func
 256              		.type	Cy_SCB_SetRxInterruptMask, %function
 257              	Cy_SCB_SetRxInterruptMask:
 258              	.LFB83:
 795:Generated_Source\PSoC6\pdl\drivers\peripheral\scb/cy_scb_common.h **** 
 796:Generated_Source\PSoC6\pdl\drivers\peripheral\scb/cy_scb_common.h **** 
 797:Generated_Source\PSoC6\pdl\drivers\peripheral\scb/cy_scb_common.h **** /*******************************************************************************
 798:Generated_Source\PSoC6\pdl\drivers\peripheral\scb/cy_scb_common.h **** * Function Name: Cy_SCB_SetByteMode
 799:Generated_Source\PSoC6\pdl\drivers\peripheral\scb/cy_scb_common.h **** ****************************************************************************//**
 800:Generated_Source\PSoC6\pdl\drivers\peripheral\scb/cy_scb_common.h **** *
 801:Generated_Source\PSoC6\pdl\drivers\peripheral\scb/cy_scb_common.h **** * Sets whether the RX and TX FIFOs are in byte mode.
 802:Generated_Source\PSoC6\pdl\drivers\peripheral\scb/cy_scb_common.h **** * The FIFOs are either 16-bit wide or 8-bit wide (byte mode).
 803:Generated_Source\PSoC6\pdl\drivers\peripheral\scb/cy_scb_common.h **** * When the FIFO is in byte mode it is twice as deep. See the device datasheet
 804:Generated_Source\PSoC6\pdl\drivers\peripheral\scb/cy_scb_common.h **** * for FIFO depths.
 805:Generated_Source\PSoC6\pdl\drivers\peripheral\scb/cy_scb_common.h **** *
 806:Generated_Source\PSoC6\pdl\drivers\peripheral\scb/cy_scb_common.h **** * \param base
 807:Generated_Source\PSoC6\pdl\drivers\peripheral\scb/cy_scb_common.h **** * The pointer to the SCB instance.
 808:Generated_Source\PSoC6\pdl\drivers\peripheral\scb/cy_scb_common.h **** *
 809:Generated_Source\PSoC6\pdl\drivers\peripheral\scb/cy_scb_common.h **** * \param byteMode
 810:Generated_Source\PSoC6\pdl\drivers\peripheral\scb/cy_scb_common.h **** * If true, TX and RX FIFOs are 8-bit wide. If false, the FIFOs are 16-bit wide.
 811:Generated_Source\PSoC6\pdl\drivers\peripheral\scb/cy_scb_common.h **** *
 812:Generated_Source\PSoC6\pdl\drivers\peripheral\scb/cy_scb_common.h **** *******************************************************************************/
 813:Generated_Source\PSoC6\pdl\drivers\peripheral\scb/cy_scb_common.h **** __STATIC_INLINE void Cy_SCB_SetByteMode(CySCB_Type *base, bool byteMode)
 814:Generated_Source\PSoC6\pdl\drivers\peripheral\scb/cy_scb_common.h **** {
 815:Generated_Source\PSoC6\pdl\drivers\peripheral\scb/cy_scb_common.h ****     if (byteMode)
 816:Generated_Source\PSoC6\pdl\drivers\peripheral\scb/cy_scb_common.h ****     {
 817:Generated_Source\PSoC6\pdl\drivers\peripheral\scb/cy_scb_common.h ****         base->CTRL |=  SCB_CTRL_BYTE_MODE_Msk;
ARM GAS  C:\Users\salaz\AppData\Local\Temp\ccU0pQaU.s 			page 20


 818:Generated_Source\PSoC6\pdl\drivers\peripheral\scb/cy_scb_common.h ****     }
 819:Generated_Source\PSoC6\pdl\drivers\peripheral\scb/cy_scb_common.h ****     else
 820:Generated_Source\PSoC6\pdl\drivers\peripheral\scb/cy_scb_common.h ****     {
 821:Generated_Source\PSoC6\pdl\drivers\peripheral\scb/cy_scb_common.h ****         base->CTRL &= ~SCB_CTRL_BYTE_MODE_Msk;
 822:Generated_Source\PSoC6\pdl\drivers\peripheral\scb/cy_scb_common.h ****     }
 823:Generated_Source\PSoC6\pdl\drivers\peripheral\scb/cy_scb_common.h **** }
 824:Generated_Source\PSoC6\pdl\drivers\peripheral\scb/cy_scb_common.h **** 
 825:Generated_Source\PSoC6\pdl\drivers\peripheral\scb/cy_scb_common.h **** 
 826:Generated_Source\PSoC6\pdl\drivers\peripheral\scb/cy_scb_common.h **** /*******************************************************************************
 827:Generated_Source\PSoC6\pdl\drivers\peripheral\scb/cy_scb_common.h **** * Function Name: Cy_SCB_GetInterruptCause
 828:Generated_Source\PSoC6\pdl\drivers\peripheral\scb/cy_scb_common.h **** ****************************************************************************//**
 829:Generated_Source\PSoC6\pdl\drivers\peripheral\scb/cy_scb_common.h **** *
 830:Generated_Source\PSoC6\pdl\drivers\peripheral\scb/cy_scb_common.h **** * Returns the mask of bits showing the source of the current triggered
 831:Generated_Source\PSoC6\pdl\drivers\peripheral\scb/cy_scb_common.h **** * interrupt. This is useful for modes of operation where an interrupt can
 832:Generated_Source\PSoC6\pdl\drivers\peripheral\scb/cy_scb_common.h **** * be generated by conditions in multiple interrupt source registers.
 833:Generated_Source\PSoC6\pdl\drivers\peripheral\scb/cy_scb_common.h **** *
 834:Generated_Source\PSoC6\pdl\drivers\peripheral\scb/cy_scb_common.h **** * \param base
 835:Generated_Source\PSoC6\pdl\drivers\peripheral\scb/cy_scb_common.h **** * The pointer to the SCB instance.
 836:Generated_Source\PSoC6\pdl\drivers\peripheral\scb/cy_scb_common.h **** *
 837:Generated_Source\PSoC6\pdl\drivers\peripheral\scb/cy_scb_common.h **** * \return
 838:Generated_Source\PSoC6\pdl\drivers\peripheral\scb/cy_scb_common.h **** * The mask with the OR of the following conditions that have been triggered.
 839:Generated_Source\PSoC6\pdl\drivers\peripheral\scb/cy_scb_common.h **** * See \ref group_scb_common_macros_intr_cause for the set of constants.
 840:Generated_Source\PSoC6\pdl\drivers\peripheral\scb/cy_scb_common.h **** *
 841:Generated_Source\PSoC6\pdl\drivers\peripheral\scb/cy_scb_common.h **** *******************************************************************************/
 842:Generated_Source\PSoC6\pdl\drivers\peripheral\scb/cy_scb_common.h **** __STATIC_INLINE uint32_t Cy_SCB_GetInterruptCause(CySCB_Type const *base)
 843:Generated_Source\PSoC6\pdl\drivers\peripheral\scb/cy_scb_common.h **** {
 844:Generated_Source\PSoC6\pdl\drivers\peripheral\scb/cy_scb_common.h ****     return (base->INTR_CAUSE);
 845:Generated_Source\PSoC6\pdl\drivers\peripheral\scb/cy_scb_common.h **** }
 846:Generated_Source\PSoC6\pdl\drivers\peripheral\scb/cy_scb_common.h **** 
 847:Generated_Source\PSoC6\pdl\drivers\peripheral\scb/cy_scb_common.h **** 
 848:Generated_Source\PSoC6\pdl\drivers\peripheral\scb/cy_scb_common.h **** /*******************************************************************************
 849:Generated_Source\PSoC6\pdl\drivers\peripheral\scb/cy_scb_common.h **** * Function Name: Cy_SCB_GetRxInterruptStatus
 850:Generated_Source\PSoC6\pdl\drivers\peripheral\scb/cy_scb_common.h **** ****************************************************************************//**
 851:Generated_Source\PSoC6\pdl\drivers\peripheral\scb/cy_scb_common.h **** *
 852:Generated_Source\PSoC6\pdl\drivers\peripheral\scb/cy_scb_common.h **** * Returns the RX interrupt request register. This register contains the current
 853:Generated_Source\PSoC6\pdl\drivers\peripheral\scb/cy_scb_common.h **** * status of the RX interrupt sources.
 854:Generated_Source\PSoC6\pdl\drivers\peripheral\scb/cy_scb_common.h **** *
 855:Generated_Source\PSoC6\pdl\drivers\peripheral\scb/cy_scb_common.h **** * \param base
 856:Generated_Source\PSoC6\pdl\drivers\peripheral\scb/cy_scb_common.h **** * The pointer to the SCB instance.
 857:Generated_Source\PSoC6\pdl\drivers\peripheral\scb/cy_scb_common.h **** *
 858:Generated_Source\PSoC6\pdl\drivers\peripheral\scb/cy_scb_common.h **** * \return
 859:Generated_Source\PSoC6\pdl\drivers\peripheral\scb/cy_scb_common.h **** * The current status of the RX interrupt sources. Each constant is a bit field
 860:Generated_Source\PSoC6\pdl\drivers\peripheral\scb/cy_scb_common.h **** * value. The value returned may have multiple bits set to indicate the
 861:Generated_Source\PSoC6\pdl\drivers\peripheral\scb/cy_scb_common.h **** * current status.
 862:Generated_Source\PSoC6\pdl\drivers\peripheral\scb/cy_scb_common.h **** * See \ref group_scb_common_macros_rx_intr for the set of constants.
 863:Generated_Source\PSoC6\pdl\drivers\peripheral\scb/cy_scb_common.h **** *
 864:Generated_Source\PSoC6\pdl\drivers\peripheral\scb/cy_scb_common.h **** *******************************************************************************/
 865:Generated_Source\PSoC6\pdl\drivers\peripheral\scb/cy_scb_common.h **** __STATIC_INLINE uint32_t Cy_SCB_GetRxInterruptStatus(CySCB_Type const *base)
 866:Generated_Source\PSoC6\pdl\drivers\peripheral\scb/cy_scb_common.h **** {
 867:Generated_Source\PSoC6\pdl\drivers\peripheral\scb/cy_scb_common.h ****     return (base->INTR_RX & CY_SCB_RX_INTR_MASK);
 868:Generated_Source\PSoC6\pdl\drivers\peripheral\scb/cy_scb_common.h **** }
 869:Generated_Source\PSoC6\pdl\drivers\peripheral\scb/cy_scb_common.h **** 
 870:Generated_Source\PSoC6\pdl\drivers\peripheral\scb/cy_scb_common.h **** 
 871:Generated_Source\PSoC6\pdl\drivers\peripheral\scb/cy_scb_common.h **** /*******************************************************************************
 872:Generated_Source\PSoC6\pdl\drivers\peripheral\scb/cy_scb_common.h **** * Function Name: Cy_SCB_SetRxInterruptMask
 873:Generated_Source\PSoC6\pdl\drivers\peripheral\scb/cy_scb_common.h **** ****************************************************************************//**
 874:Generated_Source\PSoC6\pdl\drivers\peripheral\scb/cy_scb_common.h **** *
ARM GAS  C:\Users\salaz\AppData\Local\Temp\ccU0pQaU.s 			page 21


 875:Generated_Source\PSoC6\pdl\drivers\peripheral\scb/cy_scb_common.h **** * Writes the RX interrupt mask register. This register configures which bits
 876:Generated_Source\PSoC6\pdl\drivers\peripheral\scb/cy_scb_common.h **** * from the RX interrupt request register can trigger an interrupt event.
 877:Generated_Source\PSoC6\pdl\drivers\peripheral\scb/cy_scb_common.h **** *
 878:Generated_Source\PSoC6\pdl\drivers\peripheral\scb/cy_scb_common.h **** * \param base
 879:Generated_Source\PSoC6\pdl\drivers\peripheral\scb/cy_scb_common.h **** * The pointer to the SCB instance.
 880:Generated_Source\PSoC6\pdl\drivers\peripheral\scb/cy_scb_common.h **** *
 881:Generated_Source\PSoC6\pdl\drivers\peripheral\scb/cy_scb_common.h **** * \param interruptMask
 882:Generated_Source\PSoC6\pdl\drivers\peripheral\scb/cy_scb_common.h **** * Enabled RX interrupt sources.
 883:Generated_Source\PSoC6\pdl\drivers\peripheral\scb/cy_scb_common.h **** * See \ref group_scb_common_macros_rx_intr.
 884:Generated_Source\PSoC6\pdl\drivers\peripheral\scb/cy_scb_common.h **** *
 885:Generated_Source\PSoC6\pdl\drivers\peripheral\scb/cy_scb_common.h **** *******************************************************************************/
 886:Generated_Source\PSoC6\pdl\drivers\peripheral\scb/cy_scb_common.h **** __STATIC_INLINE void Cy_SCB_SetRxInterruptMask(CySCB_Type *base, uint32_t interruptMask)
 887:Generated_Source\PSoC6\pdl\drivers\peripheral\scb/cy_scb_common.h **** {
 259              		.loc 1 887 0
 260              		.cfi_startproc
 261              		@ args = 0, pretend = 0, frame = 8
 262              		@ frame_needed = 1, uses_anonymous_args = 0
 263 0000 80B5     		push	{r7, lr}
 264              		.cfi_def_cfa_offset 8
 265              		.cfi_offset 7, -8
 266              		.cfi_offset 14, -4
 267 0002 82B0     		sub	sp, sp, #8
 268              		.cfi_def_cfa_offset 16
 269 0004 00AF     		add	r7, sp, #0
 270              		.cfi_def_cfa_register 7
 271 0006 7860     		str	r0, [r7, #4]
 272 0008 3960     		str	r1, [r7]
 888:Generated_Source\PSoC6\pdl\drivers\peripheral\scb/cy_scb_common.h ****     CY_ASSERT_L2(CY_SCB_IS_INTR_VALID(interruptMask, CY_SCB_RX_INTR_MASK));
 273              		.loc 1 888 0
 274 000a 3B68     		ldr	r3, [r7]
 275 000c 084A     		ldr	r2, .L15
 276 000e 1340     		ands	r3, r2
 277 0010 06D0     		beq	.L14
 278              		.loc 1 888 0 is_stmt 0 discriminator 1
 279 0012 DE23     		movs	r3, #222
 280 0014 9A00     		lsls	r2, r3, #2
 281 0016 074B     		ldr	r3, .L15+4
 282 0018 1100     		movs	r1, r2
 283 001a 1800     		movs	r0, r3
 284 001c FFF7FEFF 		bl	Cy_SysLib_AssertFailed
 285              	.L14:
 889:Generated_Source\PSoC6\pdl\drivers\peripheral\scb/cy_scb_common.h **** 
 890:Generated_Source\PSoC6\pdl\drivers\peripheral\scb/cy_scb_common.h ****     base->INTR_RX_MASK = interruptMask;
 286              		.loc 1 890 0 is_stmt 1
 287 0020 7B68     		ldr	r3, [r7, #4]
 288 0022 0549     		ldr	r1, .L15+8
 289 0024 3A68     		ldr	r2, [r7]
 290 0026 5A50     		str	r2, [r3, r1]
 891:Generated_Source\PSoC6\pdl\drivers\peripheral\scb/cy_scb_common.h **** }
 291              		.loc 1 891 0
 292 0028 C046     		nop
 293 002a BD46     		mov	sp, r7
 294 002c 02B0     		add	sp, sp, #8
 295              		@ sp needed
 296 002e 80BD     		pop	{r7, pc}
 297              	.L16:
 298              		.align	2
ARM GAS  C:\Users\salaz\AppData\Local\Temp\ccU0pQaU.s 			page 22


 299              	.L15:
 300 0030 92F4FFFF 		.word	-2926
 301 0034 00000000 		.word	.LC0
 302 0038 C80F0000 		.word	4040
 303              		.cfi_endproc
 304              	.LFE83:
 305              		.size	Cy_SCB_SetRxInterruptMask, .-Cy_SCB_SetRxInterruptMask
 306              		.section	.text.Cy_SCB_GetRxInterruptStatusMasked,"ax",%progbits
 307              		.align	2
 308              		.code	16
 309              		.thumb_func
 310              		.type	Cy_SCB_GetRxInterruptStatusMasked, %function
 311              	Cy_SCB_GetRxInterruptStatusMasked:
 312              	.LFB85:
 892:Generated_Source\PSoC6\pdl\drivers\peripheral\scb/cy_scb_common.h **** 
 893:Generated_Source\PSoC6\pdl\drivers\peripheral\scb/cy_scb_common.h **** 
 894:Generated_Source\PSoC6\pdl\drivers\peripheral\scb/cy_scb_common.h **** /*******************************************************************************
 895:Generated_Source\PSoC6\pdl\drivers\peripheral\scb/cy_scb_common.h **** * Function Name: Cy_SCB_GetRxInterruptMask
 896:Generated_Source\PSoC6\pdl\drivers\peripheral\scb/cy_scb_common.h **** ****************************************************************************//**
 897:Generated_Source\PSoC6\pdl\drivers\peripheral\scb/cy_scb_common.h **** *
 898:Generated_Source\PSoC6\pdl\drivers\peripheral\scb/cy_scb_common.h **** * Returns the RX interrupt mask register. This register specifies which bits
 899:Generated_Source\PSoC6\pdl\drivers\peripheral\scb/cy_scb_common.h **** * from the RX interrupt request register trigger can an interrupt event.
 900:Generated_Source\PSoC6\pdl\drivers\peripheral\scb/cy_scb_common.h **** *
 901:Generated_Source\PSoC6\pdl\drivers\peripheral\scb/cy_scb_common.h **** * \param base
 902:Generated_Source\PSoC6\pdl\drivers\peripheral\scb/cy_scb_common.h **** * The pointer to the SCB instance.
 903:Generated_Source\PSoC6\pdl\drivers\peripheral\scb/cy_scb_common.h **** *
 904:Generated_Source\PSoC6\pdl\drivers\peripheral\scb/cy_scb_common.h **** * \return
 905:Generated_Source\PSoC6\pdl\drivers\peripheral\scb/cy_scb_common.h **** * Enabled RX interrupt sources.
 906:Generated_Source\PSoC6\pdl\drivers\peripheral\scb/cy_scb_common.h **** * See \ref group_scb_common_macros_rx_intr for the set of constants.
 907:Generated_Source\PSoC6\pdl\drivers\peripheral\scb/cy_scb_common.h **** *
 908:Generated_Source\PSoC6\pdl\drivers\peripheral\scb/cy_scb_common.h **** *******************************************************************************/
 909:Generated_Source\PSoC6\pdl\drivers\peripheral\scb/cy_scb_common.h **** __STATIC_INLINE uint32_t Cy_SCB_GetRxInterruptMask(CySCB_Type const *base)
 910:Generated_Source\PSoC6\pdl\drivers\peripheral\scb/cy_scb_common.h **** {
 911:Generated_Source\PSoC6\pdl\drivers\peripheral\scb/cy_scb_common.h ****     return (base->INTR_RX_MASK);
 912:Generated_Source\PSoC6\pdl\drivers\peripheral\scb/cy_scb_common.h **** }
 913:Generated_Source\PSoC6\pdl\drivers\peripheral\scb/cy_scb_common.h **** 
 914:Generated_Source\PSoC6\pdl\drivers\peripheral\scb/cy_scb_common.h **** 
 915:Generated_Source\PSoC6\pdl\drivers\peripheral\scb/cy_scb_common.h **** /*******************************************************************************
 916:Generated_Source\PSoC6\pdl\drivers\peripheral\scb/cy_scb_common.h **** * Function Name: Cy_SCB_GetRxInterruptStatusMasked
 917:Generated_Source\PSoC6\pdl\drivers\peripheral\scb/cy_scb_common.h **** ****************************************************************************//**
 918:Generated_Source\PSoC6\pdl\drivers\peripheral\scb/cy_scb_common.h **** *
 919:Generated_Source\PSoC6\pdl\drivers\peripheral\scb/cy_scb_common.h **** * Returns the RX interrupt masked request register. This register contains
 920:Generated_Source\PSoC6\pdl\drivers\peripheral\scb/cy_scb_common.h **** * a logical AND of corresponding bits from the RX interrupt request and
 921:Generated_Source\PSoC6\pdl\drivers\peripheral\scb/cy_scb_common.h **** * mask registers.
 922:Generated_Source\PSoC6\pdl\drivers\peripheral\scb/cy_scb_common.h **** * This function is intended to be used in the interrupt service routine to
 923:Generated_Source\PSoC6\pdl\drivers\peripheral\scb/cy_scb_common.h **** * identify which of the enabled RX interrupt sources caused the interrupt event.
 924:Generated_Source\PSoC6\pdl\drivers\peripheral\scb/cy_scb_common.h **** *
 925:Generated_Source\PSoC6\pdl\drivers\peripheral\scb/cy_scb_common.h **** * \param base
 926:Generated_Source\PSoC6\pdl\drivers\peripheral\scb/cy_scb_common.h **** * The pointer to the SCB instance.
 927:Generated_Source\PSoC6\pdl\drivers\peripheral\scb/cy_scb_common.h **** *
 928:Generated_Source\PSoC6\pdl\drivers\peripheral\scb/cy_scb_common.h **** * \return
 929:Generated_Source\PSoC6\pdl\drivers\peripheral\scb/cy_scb_common.h **** * The current status of enabled RX interrupt sources.
 930:Generated_Source\PSoC6\pdl\drivers\peripheral\scb/cy_scb_common.h **** * See \ref group_scb_common_macros_rx_intr for the set of constants.
 931:Generated_Source\PSoC6\pdl\drivers\peripheral\scb/cy_scb_common.h **** *
 932:Generated_Source\PSoC6\pdl\drivers\peripheral\scb/cy_scb_common.h **** *******************************************************************************/
 933:Generated_Source\PSoC6\pdl\drivers\peripheral\scb/cy_scb_common.h **** __STATIC_INLINE uint32_t Cy_SCB_GetRxInterruptStatusMasked(CySCB_Type const *base)
 934:Generated_Source\PSoC6\pdl\drivers\peripheral\scb/cy_scb_common.h **** {
ARM GAS  C:\Users\salaz\AppData\Local\Temp\ccU0pQaU.s 			page 23


 313              		.loc 1 934 0
 314              		.cfi_startproc
 315              		@ args = 0, pretend = 0, frame = 8
 316              		@ frame_needed = 1, uses_anonymous_args = 0
 317 0000 80B5     		push	{r7, lr}
 318              		.cfi_def_cfa_offset 8
 319              		.cfi_offset 7, -8
 320              		.cfi_offset 14, -4
 321 0002 82B0     		sub	sp, sp, #8
 322              		.cfi_def_cfa_offset 16
 323 0004 00AF     		add	r7, sp, #0
 324              		.cfi_def_cfa_register 7
 325 0006 7860     		str	r0, [r7, #4]
 935:Generated_Source\PSoC6\pdl\drivers\peripheral\scb/cy_scb_common.h ****     return (base->INTR_RX_MASKED);
 326              		.loc 1 935 0
 327 0008 7B68     		ldr	r3, [r7, #4]
 328 000a 034A     		ldr	r2, .L19
 329 000c 9B58     		ldr	r3, [r3, r2]
 936:Generated_Source\PSoC6\pdl\drivers\peripheral\scb/cy_scb_common.h **** }
 330              		.loc 1 936 0
 331 000e 1800     		movs	r0, r3
 332 0010 BD46     		mov	sp, r7
 333 0012 02B0     		add	sp, sp, #8
 334              		@ sp needed
 335 0014 80BD     		pop	{r7, pc}
 336              	.L20:
 337 0016 C046     		.align	2
 338              	.L19:
 339 0018 CC0F0000 		.word	4044
 340              		.cfi_endproc
 341              	.LFE85:
 342              		.size	Cy_SCB_GetRxInterruptStatusMasked, .-Cy_SCB_GetRxInterruptStatusMasked
 343              		.section	.text.Cy_SCB_ClearRxInterrupt,"ax",%progbits
 344              		.align	2
 345              		.code	16
 346              		.thumb_func
 347              		.type	Cy_SCB_ClearRxInterrupt, %function
 348              	Cy_SCB_ClearRxInterrupt:
 349              	.LFB86:
 937:Generated_Source\PSoC6\pdl\drivers\peripheral\scb/cy_scb_common.h **** 
 938:Generated_Source\PSoC6\pdl\drivers\peripheral\scb/cy_scb_common.h **** 
 939:Generated_Source\PSoC6\pdl\drivers\peripheral\scb/cy_scb_common.h **** /*******************************************************************************
 940:Generated_Source\PSoC6\pdl\drivers\peripheral\scb/cy_scb_common.h **** * Function Name: Cy_SCB_ClearRxInterrupt
 941:Generated_Source\PSoC6\pdl\drivers\peripheral\scb/cy_scb_common.h **** ****************************************************************************//**
 942:Generated_Source\PSoC6\pdl\drivers\peripheral\scb/cy_scb_common.h **** *
 943:Generated_Source\PSoC6\pdl\drivers\peripheral\scb/cy_scb_common.h **** * Clears the RX interrupt sources in the interrupt request register.
 944:Generated_Source\PSoC6\pdl\drivers\peripheral\scb/cy_scb_common.h **** *
 945:Generated_Source\PSoC6\pdl\drivers\peripheral\scb/cy_scb_common.h **** * \param base
 946:Generated_Source\PSoC6\pdl\drivers\peripheral\scb/cy_scb_common.h **** * The pointer to the SCB instance.
 947:Generated_Source\PSoC6\pdl\drivers\peripheral\scb/cy_scb_common.h **** *
 948:Generated_Source\PSoC6\pdl\drivers\peripheral\scb/cy_scb_common.h **** * \param interruptMask
 949:Generated_Source\PSoC6\pdl\drivers\peripheral\scb/cy_scb_common.h **** * The RX interrupt sources to be cleared.
 950:Generated_Source\PSoC6\pdl\drivers\peripheral\scb/cy_scb_common.h **** * See \ref group_scb_common_macros_rx_intr for the set of constants.
 951:Generated_Source\PSoC6\pdl\drivers\peripheral\scb/cy_scb_common.h **** *
 952:Generated_Source\PSoC6\pdl\drivers\peripheral\scb/cy_scb_common.h **** * \note
 953:Generated_Source\PSoC6\pdl\drivers\peripheral\scb/cy_scb_common.h **** *  - CY_SCB_INTR_RX_FIFO_LEVEL interrupt source is not cleared when
 954:Generated_Source\PSoC6\pdl\drivers\peripheral\scb/cy_scb_common.h **** *    the RX FIFO has more entries than the level.
ARM GAS  C:\Users\salaz\AppData\Local\Temp\ccU0pQaU.s 			page 24


 955:Generated_Source\PSoC6\pdl\drivers\peripheral\scb/cy_scb_common.h **** *  - CY_SCB_INTR_RX_NOT_EMPTY interrupt source is not cleared when the
 956:Generated_Source\PSoC6\pdl\drivers\peripheral\scb/cy_scb_common.h **** *    RX FIFO is not empty.
 957:Generated_Source\PSoC6\pdl\drivers\peripheral\scb/cy_scb_common.h **** *  - CY_SCB_INTR_RX_FULL interrupt source is not cleared when the
 958:Generated_Source\PSoC6\pdl\drivers\peripheral\scb/cy_scb_common.h **** *    RX FIFO is full.
 959:Generated_Source\PSoC6\pdl\drivers\peripheral\scb/cy_scb_common.h **** *
 960:Generated_Source\PSoC6\pdl\drivers\peripheral\scb/cy_scb_common.h **** *******************************************************************************/
 961:Generated_Source\PSoC6\pdl\drivers\peripheral\scb/cy_scb_common.h **** __STATIC_INLINE void Cy_SCB_ClearRxInterrupt(CySCB_Type *base, uint32_t interruptMask)
 962:Generated_Source\PSoC6\pdl\drivers\peripheral\scb/cy_scb_common.h **** {
 350              		.loc 1 962 0
 351              		.cfi_startproc
 352              		@ args = 0, pretend = 0, frame = 8
 353              		@ frame_needed = 1, uses_anonymous_args = 0
 354 0000 80B5     		push	{r7, lr}
 355              		.cfi_def_cfa_offset 8
 356              		.cfi_offset 7, -8
 357              		.cfi_offset 14, -4
 358 0002 82B0     		sub	sp, sp, #8
 359              		.cfi_def_cfa_offset 16
 360 0004 00AF     		add	r7, sp, #0
 361              		.cfi_def_cfa_register 7
 362 0006 7860     		str	r0, [r7, #4]
 363 0008 3960     		str	r1, [r7]
 963:Generated_Source\PSoC6\pdl\drivers\peripheral\scb/cy_scb_common.h ****     CY_ASSERT_L2(CY_SCB_IS_INTR_VALID(interruptMask, CY_SCB_RX_INTR_MASK));
 364              		.loc 1 963 0
 365 000a 3B68     		ldr	r3, [r7]
 366 000c 0A4A     		ldr	r2, .L23
 367 000e 1340     		ands	r3, r2
 368 0010 05D0     		beq	.L22
 369              		.loc 1 963 0 is_stmt 0 discriminator 1
 370 0012 0A4A     		ldr	r2, .L23+4
 371 0014 0A4B     		ldr	r3, .L23+8
 372 0016 1100     		movs	r1, r2
 373 0018 1800     		movs	r0, r3
 374 001a FFF7FEFF 		bl	Cy_SysLib_AssertFailed
 375              	.L22:
 964:Generated_Source\PSoC6\pdl\drivers\peripheral\scb/cy_scb_common.h **** 
 965:Generated_Source\PSoC6\pdl\drivers\peripheral\scb/cy_scb_common.h ****     base->INTR_RX = interruptMask;
 376              		.loc 1 965 0 is_stmt 1
 377 001e 7A68     		ldr	r2, [r7, #4]
 378 0020 FC23     		movs	r3, #252
 379 0022 1B01     		lsls	r3, r3, #4
 380 0024 3968     		ldr	r1, [r7]
 381 0026 D150     		str	r1, [r2, r3]
 966:Generated_Source\PSoC6\pdl\drivers\peripheral\scb/cy_scb_common.h ****     (void) base->INTR_RX;
 382              		.loc 1 966 0
 383 0028 7A68     		ldr	r2, [r7, #4]
 384 002a FC23     		movs	r3, #252
 385 002c 1B01     		lsls	r3, r3, #4
 386 002e D358     		ldr	r3, [r2, r3]
 967:Generated_Source\PSoC6\pdl\drivers\peripheral\scb/cy_scb_common.h **** }
 387              		.loc 1 967 0
 388 0030 C046     		nop
 389 0032 BD46     		mov	sp, r7
 390 0034 02B0     		add	sp, sp, #8
 391              		@ sp needed
 392 0036 80BD     		pop	{r7, pc}
 393              	.L24:
ARM GAS  C:\Users\salaz\AppData\Local\Temp\ccU0pQaU.s 			page 25


 394              		.align	2
 395              	.L23:
 396 0038 92F4FFFF 		.word	-2926
 397 003c C3030000 		.word	963
 398 0040 00000000 		.word	.LC0
 399              		.cfi_endproc
 400              	.LFE86:
 401              		.size	Cy_SCB_ClearRxInterrupt, .-Cy_SCB_ClearRxInterrupt
 402              		.section	.text.Cy_SCB_SetRxInterrupt,"ax",%progbits
 403              		.align	2
 404              		.code	16
 405              		.thumb_func
 406              		.type	Cy_SCB_SetRxInterrupt, %function
 407              	Cy_SCB_SetRxInterrupt:
 408              	.LFB87:
 968:Generated_Source\PSoC6\pdl\drivers\peripheral\scb/cy_scb_common.h **** 
 969:Generated_Source\PSoC6\pdl\drivers\peripheral\scb/cy_scb_common.h **** 
 970:Generated_Source\PSoC6\pdl\drivers\peripheral\scb/cy_scb_common.h **** /*******************************************************************************
 971:Generated_Source\PSoC6\pdl\drivers\peripheral\scb/cy_scb_common.h **** * Function Name: Cy_SCB_SetRxInterrupt
 972:Generated_Source\PSoC6\pdl\drivers\peripheral\scb/cy_scb_common.h **** ****************************************************************************//**
 973:Generated_Source\PSoC6\pdl\drivers\peripheral\scb/cy_scb_common.h **** *
 974:Generated_Source\PSoC6\pdl\drivers\peripheral\scb/cy_scb_common.h **** * Sets the RX interrupt sources in the interrupt request register.
 975:Generated_Source\PSoC6\pdl\drivers\peripheral\scb/cy_scb_common.h **** *
 976:Generated_Source\PSoC6\pdl\drivers\peripheral\scb/cy_scb_common.h **** * \param base
 977:Generated_Source\PSoC6\pdl\drivers\peripheral\scb/cy_scb_common.h **** * The pointer to the SCB instance.
 978:Generated_Source\PSoC6\pdl\drivers\peripheral\scb/cy_scb_common.h **** *
 979:Generated_Source\PSoC6\pdl\drivers\peripheral\scb/cy_scb_common.h **** * \param interruptMask
 980:Generated_Source\PSoC6\pdl\drivers\peripheral\scb/cy_scb_common.h **** * The RX interrupt sources to set in the RX interrupt request register.
 981:Generated_Source\PSoC6\pdl\drivers\peripheral\scb/cy_scb_common.h **** * See \ref group_scb_common_macros_rx_intr for the set of constants.
 982:Generated_Source\PSoC6\pdl\drivers\peripheral\scb/cy_scb_common.h **** *
 983:Generated_Source\PSoC6\pdl\drivers\peripheral\scb/cy_scb_common.h **** *******************************************************************************/
 984:Generated_Source\PSoC6\pdl\drivers\peripheral\scb/cy_scb_common.h **** __STATIC_INLINE void Cy_SCB_SetRxInterrupt(CySCB_Type *base, uint32_t interruptMask)
 985:Generated_Source\PSoC6\pdl\drivers\peripheral\scb/cy_scb_common.h **** {
 409              		.loc 1 985 0
 410              		.cfi_startproc
 411              		@ args = 0, pretend = 0, frame = 8
 412              		@ frame_needed = 1, uses_anonymous_args = 0
 413 0000 80B5     		push	{r7, lr}
 414              		.cfi_def_cfa_offset 8
 415              		.cfi_offset 7, -8
 416              		.cfi_offset 14, -4
 417 0002 82B0     		sub	sp, sp, #8
 418              		.cfi_def_cfa_offset 16
 419 0004 00AF     		add	r7, sp, #0
 420              		.cfi_def_cfa_register 7
 421 0006 7860     		str	r0, [r7, #4]
 422 0008 3960     		str	r1, [r7]
 986:Generated_Source\PSoC6\pdl\drivers\peripheral\scb/cy_scb_common.h ****     CY_ASSERT_L2(CY_SCB_IS_INTR_VALID(interruptMask, CY_SCB_RX_INTR_MASK));
 423              		.loc 1 986 0
 424 000a 3B68     		ldr	r3, [r7]
 425 000c 084A     		ldr	r2, .L27
 426 000e 1340     		ands	r3, r2
 427 0010 05D0     		beq	.L26
 428              		.loc 1 986 0 is_stmt 0 discriminator 1
 429 0012 084A     		ldr	r2, .L27+4
 430 0014 084B     		ldr	r3, .L27+8
 431 0016 1100     		movs	r1, r2
ARM GAS  C:\Users\salaz\AppData\Local\Temp\ccU0pQaU.s 			page 26


 432 0018 1800     		movs	r0, r3
 433 001a FFF7FEFF 		bl	Cy_SysLib_AssertFailed
 434              	.L26:
 987:Generated_Source\PSoC6\pdl\drivers\peripheral\scb/cy_scb_common.h **** 
 988:Generated_Source\PSoC6\pdl\drivers\peripheral\scb/cy_scb_common.h ****     base->INTR_RX_SET = interruptMask;
 435              		.loc 1 988 0 is_stmt 1
 436 001e 7B68     		ldr	r3, [r7, #4]
 437 0020 0649     		ldr	r1, .L27+12
 438 0022 3A68     		ldr	r2, [r7]
 439 0024 5A50     		str	r2, [r3, r1]
 989:Generated_Source\PSoC6\pdl\drivers\peripheral\scb/cy_scb_common.h **** }
 440              		.loc 1 989 0
 441 0026 C046     		nop
 442 0028 BD46     		mov	sp, r7
 443 002a 02B0     		add	sp, sp, #8
 444              		@ sp needed
 445 002c 80BD     		pop	{r7, pc}
 446              	.L28:
 447 002e C046     		.align	2
 448              	.L27:
 449 0030 92F4FFFF 		.word	-2926
 450 0034 DA030000 		.word	986
 451 0038 00000000 		.word	.LC0
 452 003c C40F0000 		.word	4036
 453              		.cfi_endproc
 454              	.LFE87:
 455              		.size	Cy_SCB_SetRxInterrupt, .-Cy_SCB_SetRxInterrupt
 456              		.section	.text.Cy_SCB_SetTxInterruptMask,"ax",%progbits
 457              		.align	2
 458              		.code	16
 459              		.thumb_func
 460              		.type	Cy_SCB_SetTxInterruptMask, %function
 461              	Cy_SCB_SetTxInterruptMask:
 462              	.LFB89:
 990:Generated_Source\PSoC6\pdl\drivers\peripheral\scb/cy_scb_common.h **** 
 991:Generated_Source\PSoC6\pdl\drivers\peripheral\scb/cy_scb_common.h **** 
 992:Generated_Source\PSoC6\pdl\drivers\peripheral\scb/cy_scb_common.h **** /*******************************************************************************
 993:Generated_Source\PSoC6\pdl\drivers\peripheral\scb/cy_scb_common.h **** * Function Name: Cy_SCB_GetTxInterruptStatus
 994:Generated_Source\PSoC6\pdl\drivers\peripheral\scb/cy_scb_common.h **** ****************************************************************************//**
 995:Generated_Source\PSoC6\pdl\drivers\peripheral\scb/cy_scb_common.h **** *
 996:Generated_Source\PSoC6\pdl\drivers\peripheral\scb/cy_scb_common.h **** * Returns the TX interrupt request register. This register contains the current
 997:Generated_Source\PSoC6\pdl\drivers\peripheral\scb/cy_scb_common.h **** * status of the TX interrupt sources.
 998:Generated_Source\PSoC6\pdl\drivers\peripheral\scb/cy_scb_common.h **** *
 999:Generated_Source\PSoC6\pdl\drivers\peripheral\scb/cy_scb_common.h **** * \param base
1000:Generated_Source\PSoC6\pdl\drivers\peripheral\scb/cy_scb_common.h **** * The pointer to the SCB instance.
1001:Generated_Source\PSoC6\pdl\drivers\peripheral\scb/cy_scb_common.h **** *
1002:Generated_Source\PSoC6\pdl\drivers\peripheral\scb/cy_scb_common.h **** * \return
1003:Generated_Source\PSoC6\pdl\drivers\peripheral\scb/cy_scb_common.h **** * The current status of TX interrupt sources.
1004:Generated_Source\PSoC6\pdl\drivers\peripheral\scb/cy_scb_common.h **** * Each constant is a bit field value. The value returned may have multiple
1005:Generated_Source\PSoC6\pdl\drivers\peripheral\scb/cy_scb_common.h **** * bits set to indicate the current status.
1006:Generated_Source\PSoC6\pdl\drivers\peripheral\scb/cy_scb_common.h **** * See \ref group_scb_common_macros_tx_intr for the set of constants.
1007:Generated_Source\PSoC6\pdl\drivers\peripheral\scb/cy_scb_common.h **** *
1008:Generated_Source\PSoC6\pdl\drivers\peripheral\scb/cy_scb_common.h **** *******************************************************************************/
1009:Generated_Source\PSoC6\pdl\drivers\peripheral\scb/cy_scb_common.h **** __STATIC_INLINE uint32_t Cy_SCB_GetTxInterruptStatus(CySCB_Type const *base)
1010:Generated_Source\PSoC6\pdl\drivers\peripheral\scb/cy_scb_common.h **** {
1011:Generated_Source\PSoC6\pdl\drivers\peripheral\scb/cy_scb_common.h ****     return (base->INTR_TX & CY_SCB_TX_INTR_MASK);
1012:Generated_Source\PSoC6\pdl\drivers\peripheral\scb/cy_scb_common.h **** }
ARM GAS  C:\Users\salaz\AppData\Local\Temp\ccU0pQaU.s 			page 27


1013:Generated_Source\PSoC6\pdl\drivers\peripheral\scb/cy_scb_common.h **** 
1014:Generated_Source\PSoC6\pdl\drivers\peripheral\scb/cy_scb_common.h **** 
1015:Generated_Source\PSoC6\pdl\drivers\peripheral\scb/cy_scb_common.h **** /*******************************************************************************
1016:Generated_Source\PSoC6\pdl\drivers\peripheral\scb/cy_scb_common.h **** * Function Name: Cy_SCB_SetTxInterruptMask
1017:Generated_Source\PSoC6\pdl\drivers\peripheral\scb/cy_scb_common.h **** ****************************************************************************//**
1018:Generated_Source\PSoC6\pdl\drivers\peripheral\scb/cy_scb_common.h **** *
1019:Generated_Source\PSoC6\pdl\drivers\peripheral\scb/cy_scb_common.h **** * Writes the TX interrupt mask register. This register configures which bits
1020:Generated_Source\PSoC6\pdl\drivers\peripheral\scb/cy_scb_common.h **** * from the TX interrupt request register can trigger an interrupt event.
1021:Generated_Source\PSoC6\pdl\drivers\peripheral\scb/cy_scb_common.h **** *
1022:Generated_Source\PSoC6\pdl\drivers\peripheral\scb/cy_scb_common.h **** * \param base
1023:Generated_Source\PSoC6\pdl\drivers\peripheral\scb/cy_scb_common.h **** * The pointer to the SCB instance.
1024:Generated_Source\PSoC6\pdl\drivers\peripheral\scb/cy_scb_common.h **** *
1025:Generated_Source\PSoC6\pdl\drivers\peripheral\scb/cy_scb_common.h **** * \param interruptMask
1026:Generated_Source\PSoC6\pdl\drivers\peripheral\scb/cy_scb_common.h **** * Enabled TX interrupt sources.
1027:Generated_Source\PSoC6\pdl\drivers\peripheral\scb/cy_scb_common.h **** * See \ref group_scb_common_macros_tx_intr for the set of constants.
1028:Generated_Source\PSoC6\pdl\drivers\peripheral\scb/cy_scb_common.h **** *
1029:Generated_Source\PSoC6\pdl\drivers\peripheral\scb/cy_scb_common.h **** *******************************************************************************/
1030:Generated_Source\PSoC6\pdl\drivers\peripheral\scb/cy_scb_common.h **** __STATIC_INLINE void Cy_SCB_SetTxInterruptMask(CySCB_Type *base, uint32_t interruptMask)
1031:Generated_Source\PSoC6\pdl\drivers\peripheral\scb/cy_scb_common.h **** {
 463              		.loc 1 1031 0
 464              		.cfi_startproc
 465              		@ args = 0, pretend = 0, frame = 8
 466              		@ frame_needed = 1, uses_anonymous_args = 0
 467 0000 80B5     		push	{r7, lr}
 468              		.cfi_def_cfa_offset 8
 469              		.cfi_offset 7, -8
 470              		.cfi_offset 14, -4
 471 0002 82B0     		sub	sp, sp, #8
 472              		.cfi_def_cfa_offset 16
 473 0004 00AF     		add	r7, sp, #0
 474              		.cfi_def_cfa_register 7
 475 0006 7860     		str	r0, [r7, #4]
 476 0008 3960     		str	r1, [r7]
1032:Generated_Source\PSoC6\pdl\drivers\peripheral\scb/cy_scb_common.h ****     CY_ASSERT_L2(CY_SCB_IS_INTR_VALID(interruptMask, CY_SCB_TX_INTR_MASK));
 477              		.loc 1 1032 0
 478 000a 3B68     		ldr	r3, [r7]
 479 000c 084A     		ldr	r2, .L31
 480 000e 1340     		ands	r3, r2
 481 0010 06D0     		beq	.L30
 482              		.loc 1 1032 0 is_stmt 0 discriminator 1
 483 0012 8123     		movs	r3, #129
 484 0014 DA00     		lsls	r2, r3, #3
 485 0016 074B     		ldr	r3, .L31+4
 486 0018 1100     		movs	r1, r2
 487 001a 1800     		movs	r0, r3
 488 001c FFF7FEFF 		bl	Cy_SysLib_AssertFailed
 489              	.L30:
1033:Generated_Source\PSoC6\pdl\drivers\peripheral\scb/cy_scb_common.h **** 
1034:Generated_Source\PSoC6\pdl\drivers\peripheral\scb/cy_scb_common.h ****     base->INTR_TX_MASK = interruptMask;
 490              		.loc 1 1034 0 is_stmt 1
 491 0020 7B68     		ldr	r3, [r7, #4]
 492 0022 0549     		ldr	r1, .L31+8
 493 0024 3A68     		ldr	r2, [r7]
 494 0026 5A50     		str	r2, [r3, r1]
1035:Generated_Source\PSoC6\pdl\drivers\peripheral\scb/cy_scb_common.h **** }
 495              		.loc 1 1035 0
 496 0028 C046     		nop
ARM GAS  C:\Users\salaz\AppData\Local\Temp\ccU0pQaU.s 			page 28


 497 002a BD46     		mov	sp, r7
 498 002c 02B0     		add	sp, sp, #8
 499              		@ sp needed
 500 002e 80BD     		pop	{r7, pc}
 501              	.L32:
 502              		.align	2
 503              	.L31:
 504 0030 8CF8FFFF 		.word	-1908
 505 0034 00000000 		.word	.LC0
 506 0038 880F0000 		.word	3976
 507              		.cfi_endproc
 508              	.LFE89:
 509              		.size	Cy_SCB_SetTxInterruptMask, .-Cy_SCB_SetTxInterruptMask
 510              		.section	.text.Cy_SCB_GetTxInterruptStatusMasked,"ax",%progbits
 511              		.align	2
 512              		.code	16
 513              		.thumb_func
 514              		.type	Cy_SCB_GetTxInterruptStatusMasked, %function
 515              	Cy_SCB_GetTxInterruptStatusMasked:
 516              	.LFB91:
1036:Generated_Source\PSoC6\pdl\drivers\peripheral\scb/cy_scb_common.h **** 
1037:Generated_Source\PSoC6\pdl\drivers\peripheral\scb/cy_scb_common.h **** 
1038:Generated_Source\PSoC6\pdl\drivers\peripheral\scb/cy_scb_common.h **** /*******************************************************************************
1039:Generated_Source\PSoC6\pdl\drivers\peripheral\scb/cy_scb_common.h **** * Function Name: Cy_SCB_GetTxInterruptMask
1040:Generated_Source\PSoC6\pdl\drivers\peripheral\scb/cy_scb_common.h **** ****************************************************************************//**
1041:Generated_Source\PSoC6\pdl\drivers\peripheral\scb/cy_scb_common.h **** *
1042:Generated_Source\PSoC6\pdl\drivers\peripheral\scb/cy_scb_common.h **** * Returns the TX interrupt mask register. This register specifies which
1043:Generated_Source\PSoC6\pdl\drivers\peripheral\scb/cy_scb_common.h **** * bits from the TX interrupt request register can trigger an interrupt event.
1044:Generated_Source\PSoC6\pdl\drivers\peripheral\scb/cy_scb_common.h **** *
1045:Generated_Source\PSoC6\pdl\drivers\peripheral\scb/cy_scb_common.h **** * \param base
1046:Generated_Source\PSoC6\pdl\drivers\peripheral\scb/cy_scb_common.h **** * The pointer to the SCB instance.
1047:Generated_Source\PSoC6\pdl\drivers\peripheral\scb/cy_scb_common.h **** *
1048:Generated_Source\PSoC6\pdl\drivers\peripheral\scb/cy_scb_common.h **** * \return
1049:Generated_Source\PSoC6\pdl\drivers\peripheral\scb/cy_scb_common.h **** * Enabled TX interrupt sources.
1050:Generated_Source\PSoC6\pdl\drivers\peripheral\scb/cy_scb_common.h **** * See \ref group_scb_common_macros_tx_intr for the set of constants.
1051:Generated_Source\PSoC6\pdl\drivers\peripheral\scb/cy_scb_common.h **** *
1052:Generated_Source\PSoC6\pdl\drivers\peripheral\scb/cy_scb_common.h **** *******************************************************************************/
1053:Generated_Source\PSoC6\pdl\drivers\peripheral\scb/cy_scb_common.h **** __STATIC_INLINE uint32_t Cy_SCB_GetTxInterruptMask(CySCB_Type const *base)
1054:Generated_Source\PSoC6\pdl\drivers\peripheral\scb/cy_scb_common.h **** {
1055:Generated_Source\PSoC6\pdl\drivers\peripheral\scb/cy_scb_common.h ****     return (base->INTR_TX_MASK);
1056:Generated_Source\PSoC6\pdl\drivers\peripheral\scb/cy_scb_common.h **** }
1057:Generated_Source\PSoC6\pdl\drivers\peripheral\scb/cy_scb_common.h **** 
1058:Generated_Source\PSoC6\pdl\drivers\peripheral\scb/cy_scb_common.h **** 
1059:Generated_Source\PSoC6\pdl\drivers\peripheral\scb/cy_scb_common.h **** /*******************************************************************************
1060:Generated_Source\PSoC6\pdl\drivers\peripheral\scb/cy_scb_common.h **** * Function Name: Cy_SCB_GetTxInterruptStatusMasked
1061:Generated_Source\PSoC6\pdl\drivers\peripheral\scb/cy_scb_common.h **** ****************************************************************************//**
1062:Generated_Source\PSoC6\pdl\drivers\peripheral\scb/cy_scb_common.h **** *
1063:Generated_Source\PSoC6\pdl\drivers\peripheral\scb/cy_scb_common.h **** * Returns the TX interrupt masked request register. This register contains
1064:Generated_Source\PSoC6\pdl\drivers\peripheral\scb/cy_scb_common.h **** * a logical AND of corresponding bits from the TX interrupt request and
1065:Generated_Source\PSoC6\pdl\drivers\peripheral\scb/cy_scb_common.h **** * mask registers.
1066:Generated_Source\PSoC6\pdl\drivers\peripheral\scb/cy_scb_common.h **** * This function is intended to be used in the interrupt service routine to
1067:Generated_Source\PSoC6\pdl\drivers\peripheral\scb/cy_scb_common.h **** * identify which of enabled TX interrupt sources caused the interrupt event.
1068:Generated_Source\PSoC6\pdl\drivers\peripheral\scb/cy_scb_common.h **** *
1069:Generated_Source\PSoC6\pdl\drivers\peripheral\scb/cy_scb_common.h **** * \param base
1070:Generated_Source\PSoC6\pdl\drivers\peripheral\scb/cy_scb_common.h **** * The pointer to the SCB instance.
1071:Generated_Source\PSoC6\pdl\drivers\peripheral\scb/cy_scb_common.h **** *
1072:Generated_Source\PSoC6\pdl\drivers\peripheral\scb/cy_scb_common.h **** * \return
ARM GAS  C:\Users\salaz\AppData\Local\Temp\ccU0pQaU.s 			page 29


1073:Generated_Source\PSoC6\pdl\drivers\peripheral\scb/cy_scb_common.h **** * The current status of enabled TX interrupt sources.
1074:Generated_Source\PSoC6\pdl\drivers\peripheral\scb/cy_scb_common.h **** * See \ref group_scb_common_macros_tx_intr for the set of constants.
1075:Generated_Source\PSoC6\pdl\drivers\peripheral\scb/cy_scb_common.h **** *
1076:Generated_Source\PSoC6\pdl\drivers\peripheral\scb/cy_scb_common.h **** *******************************************************************************/
1077:Generated_Source\PSoC6\pdl\drivers\peripheral\scb/cy_scb_common.h **** __STATIC_INLINE uint32_t Cy_SCB_GetTxInterruptStatusMasked(CySCB_Type const *base)
1078:Generated_Source\PSoC6\pdl\drivers\peripheral\scb/cy_scb_common.h **** {
 517              		.loc 1 1078 0
 518              		.cfi_startproc
 519              		@ args = 0, pretend = 0, frame = 8
 520              		@ frame_needed = 1, uses_anonymous_args = 0
 521 0000 80B5     		push	{r7, lr}
 522              		.cfi_def_cfa_offset 8
 523              		.cfi_offset 7, -8
 524              		.cfi_offset 14, -4
 525 0002 82B0     		sub	sp, sp, #8
 526              		.cfi_def_cfa_offset 16
 527 0004 00AF     		add	r7, sp, #0
 528              		.cfi_def_cfa_register 7
 529 0006 7860     		str	r0, [r7, #4]
1079:Generated_Source\PSoC6\pdl\drivers\peripheral\scb/cy_scb_common.h ****     return (base->INTR_TX_MASKED);
 530              		.loc 1 1079 0
 531 0008 7B68     		ldr	r3, [r7, #4]
 532 000a 034A     		ldr	r2, .L35
 533 000c 9B58     		ldr	r3, [r3, r2]
1080:Generated_Source\PSoC6\pdl\drivers\peripheral\scb/cy_scb_common.h **** }
 534              		.loc 1 1080 0
 535 000e 1800     		movs	r0, r3
 536 0010 BD46     		mov	sp, r7
 537 0012 02B0     		add	sp, sp, #8
 538              		@ sp needed
 539 0014 80BD     		pop	{r7, pc}
 540              	.L36:
 541 0016 C046     		.align	2
 542              	.L35:
 543 0018 8C0F0000 		.word	3980
 544              		.cfi_endproc
 545              	.LFE91:
 546              		.size	Cy_SCB_GetTxInterruptStatusMasked, .-Cy_SCB_GetTxInterruptStatusMasked
 547              		.section	.text.Cy_SCB_ClearTxInterrupt,"ax",%progbits
 548              		.align	2
 549              		.code	16
 550              		.thumb_func
 551              		.type	Cy_SCB_ClearTxInterrupt, %function
 552              	Cy_SCB_ClearTxInterrupt:
 553              	.LFB92:
1081:Generated_Source\PSoC6\pdl\drivers\peripheral\scb/cy_scb_common.h **** 
1082:Generated_Source\PSoC6\pdl\drivers\peripheral\scb/cy_scb_common.h **** 
1083:Generated_Source\PSoC6\pdl\drivers\peripheral\scb/cy_scb_common.h **** /*******************************************************************************
1084:Generated_Source\PSoC6\pdl\drivers\peripheral\scb/cy_scb_common.h **** * Function Name: Cy_SCB_ClearTxInterrupt
1085:Generated_Source\PSoC6\pdl\drivers\peripheral\scb/cy_scb_common.h **** ****************************************************************************//**
1086:Generated_Source\PSoC6\pdl\drivers\peripheral\scb/cy_scb_common.h **** *
1087:Generated_Source\PSoC6\pdl\drivers\peripheral\scb/cy_scb_common.h **** * Clears the TX interrupt sources in the interrupt request register.
1088:Generated_Source\PSoC6\pdl\drivers\peripheral\scb/cy_scb_common.h **** *
1089:Generated_Source\PSoC6\pdl\drivers\peripheral\scb/cy_scb_common.h **** * \param base
1090:Generated_Source\PSoC6\pdl\drivers\peripheral\scb/cy_scb_common.h **** * The pointer to the SCB instance.
1091:Generated_Source\PSoC6\pdl\drivers\peripheral\scb/cy_scb_common.h **** *
1092:Generated_Source\PSoC6\pdl\drivers\peripheral\scb/cy_scb_common.h **** * \param interruptMask
ARM GAS  C:\Users\salaz\AppData\Local\Temp\ccU0pQaU.s 			page 30


1093:Generated_Source\PSoC6\pdl\drivers\peripheral\scb/cy_scb_common.h **** * The TX interrupt sources to be cleared.
1094:Generated_Source\PSoC6\pdl\drivers\peripheral\scb/cy_scb_common.h **** * See \ref group_scb_common_macros_tx_intr for the set of constants.
1095:Generated_Source\PSoC6\pdl\drivers\peripheral\scb/cy_scb_common.h **** *
1096:Generated_Source\PSoC6\pdl\drivers\peripheral\scb/cy_scb_common.h **** * \note
1097:Generated_Source\PSoC6\pdl\drivers\peripheral\scb/cy_scb_common.h **** *  - CY_SCB_INTR_TX_FIFO_LEVEL interrupt source is not cleared when the
1098:Generated_Source\PSoC6\pdl\drivers\peripheral\scb/cy_scb_common.h **** *    TX FIFO has fewer entries than the TX level.
1099:Generated_Source\PSoC6\pdl\drivers\peripheral\scb/cy_scb_common.h **** *  - CY_SCB_INTR_TX_NOT_FULL interrupt source is not cleared when the
1100:Generated_Source\PSoC6\pdl\drivers\peripheral\scb/cy_scb_common.h **** *    TX FIFO has empty entries in the TX FIFO.
1101:Generated_Source\PSoC6\pdl\drivers\peripheral\scb/cy_scb_common.h **** *  - CY_SCB_INTR_TX_EMPTY interrupt source is not cleared when the
1102:Generated_Source\PSoC6\pdl\drivers\peripheral\scb/cy_scb_common.h **** *    TX FIFO is empty.
1103:Generated_Source\PSoC6\pdl\drivers\peripheral\scb/cy_scb_common.h **** *  - CY_SCB_INTR_TX_UNDERFLOW interrupt source is not cleared when the
1104:Generated_Source\PSoC6\pdl\drivers\peripheral\scb/cy_scb_common.h **** *    TX FIFO is empty. Put data into the TX FIFO before clearing it.
1105:Generated_Source\PSoC6\pdl\drivers\peripheral\scb/cy_scb_common.h **** *
1106:Generated_Source\PSoC6\pdl\drivers\peripheral\scb/cy_scb_common.h **** *******************************************************************************/
1107:Generated_Source\PSoC6\pdl\drivers\peripheral\scb/cy_scb_common.h **** __STATIC_INLINE void Cy_SCB_ClearTxInterrupt(CySCB_Type *base, uint32_t interruptMask)
1108:Generated_Source\PSoC6\pdl\drivers\peripheral\scb/cy_scb_common.h **** {
 554              		.loc 1 1108 0
 555              		.cfi_startproc
 556              		@ args = 0, pretend = 0, frame = 8
 557              		@ frame_needed = 1, uses_anonymous_args = 0
 558 0000 80B5     		push	{r7, lr}
 559              		.cfi_def_cfa_offset 8
 560              		.cfi_offset 7, -8
 561              		.cfi_offset 14, -4
 562 0002 82B0     		sub	sp, sp, #8
 563              		.cfi_def_cfa_offset 16
 564 0004 00AF     		add	r7, sp, #0
 565              		.cfi_def_cfa_register 7
 566 0006 7860     		str	r0, [r7, #4]
 567 0008 3960     		str	r1, [r7]
1109:Generated_Source\PSoC6\pdl\drivers\peripheral\scb/cy_scb_common.h ****     CY_ASSERT_L2(CY_SCB_IS_INTR_VALID(interruptMask, CY_SCB_TX_INTR_MASK));
 568              		.loc 1 1109 0
 569 000a 3B68     		ldr	r3, [r7]
 570 000c 0A4A     		ldr	r2, .L39
 571 000e 1340     		ands	r3, r2
 572 0010 05D0     		beq	.L38
 573              		.loc 1 1109 0 is_stmt 0 discriminator 1
 574 0012 0A4A     		ldr	r2, .L39+4
 575 0014 0A4B     		ldr	r3, .L39+8
 576 0016 1100     		movs	r1, r2
 577 0018 1800     		movs	r0, r3
 578 001a FFF7FEFF 		bl	Cy_SysLib_AssertFailed
 579              	.L38:
1110:Generated_Source\PSoC6\pdl\drivers\peripheral\scb/cy_scb_common.h **** 
1111:Generated_Source\PSoC6\pdl\drivers\peripheral\scb/cy_scb_common.h ****     base->INTR_TX = interruptMask;
 580              		.loc 1 1111 0 is_stmt 1
 581 001e 7A68     		ldr	r2, [r7, #4]
 582 0020 F823     		movs	r3, #248
 583 0022 1B01     		lsls	r3, r3, #4
 584 0024 3968     		ldr	r1, [r7]
 585 0026 D150     		str	r1, [r2, r3]
1112:Generated_Source\PSoC6\pdl\drivers\peripheral\scb/cy_scb_common.h ****     (void) base->INTR_TX;
 586              		.loc 1 1112 0
 587 0028 7A68     		ldr	r2, [r7, #4]
 588 002a F823     		movs	r3, #248
 589 002c 1B01     		lsls	r3, r3, #4
 590 002e D358     		ldr	r3, [r2, r3]
ARM GAS  C:\Users\salaz\AppData\Local\Temp\ccU0pQaU.s 			page 31


1113:Generated_Source\PSoC6\pdl\drivers\peripheral\scb/cy_scb_common.h **** }
 591              		.loc 1 1113 0
 592 0030 C046     		nop
 593 0032 BD46     		mov	sp, r7
 594 0034 02B0     		add	sp, sp, #8
 595              		@ sp needed
 596 0036 80BD     		pop	{r7, pc}
 597              	.L40:
 598              		.align	2
 599              	.L39:
 600 0038 8CF8FFFF 		.word	-1908
 601 003c 55040000 		.word	1109
 602 0040 00000000 		.word	.LC0
 603              		.cfi_endproc
 604              	.LFE92:
 605              		.size	Cy_SCB_ClearTxInterrupt, .-Cy_SCB_ClearTxInterrupt
 606              		.section	.text.Cy_SCB_SetSlaveInterruptMask,"ax",%progbits
 607              		.align	2
 608              		.code	16
 609              		.thumb_func
 610              		.type	Cy_SCB_SetSlaveInterruptMask, %function
 611              	Cy_SCB_SetSlaveInterruptMask:
 612              	.LFB101:
1114:Generated_Source\PSoC6\pdl\drivers\peripheral\scb/cy_scb_common.h **** 
1115:Generated_Source\PSoC6\pdl\drivers\peripheral\scb/cy_scb_common.h **** 
1116:Generated_Source\PSoC6\pdl\drivers\peripheral\scb/cy_scb_common.h **** /*******************************************************************************
1117:Generated_Source\PSoC6\pdl\drivers\peripheral\scb/cy_scb_common.h **** * Function Name: Cy_SCB_SetTxInterrupt
1118:Generated_Source\PSoC6\pdl\drivers\peripheral\scb/cy_scb_common.h **** ****************************************************************************//**
1119:Generated_Source\PSoC6\pdl\drivers\peripheral\scb/cy_scb_common.h **** *
1120:Generated_Source\PSoC6\pdl\drivers\peripheral\scb/cy_scb_common.h **** * Sets TX interrupt sources in the interrupt request register.
1121:Generated_Source\PSoC6\pdl\drivers\peripheral\scb/cy_scb_common.h **** *
1122:Generated_Source\PSoC6\pdl\drivers\peripheral\scb/cy_scb_common.h **** * \param base
1123:Generated_Source\PSoC6\pdl\drivers\peripheral\scb/cy_scb_common.h **** * The pointer to the SCB instance.
1124:Generated_Source\PSoC6\pdl\drivers\peripheral\scb/cy_scb_common.h **** *
1125:Generated_Source\PSoC6\pdl\drivers\peripheral\scb/cy_scb_common.h **** * \param interruptMask
1126:Generated_Source\PSoC6\pdl\drivers\peripheral\scb/cy_scb_common.h **** * The TX interrupt sources to set in the TX interrupt request register.
1127:Generated_Source\PSoC6\pdl\drivers\peripheral\scb/cy_scb_common.h **** * See \ref group_scb_common_macros_tx_intr for the set of constants.
1128:Generated_Source\PSoC6\pdl\drivers\peripheral\scb/cy_scb_common.h **** *
1129:Generated_Source\PSoC6\pdl\drivers\peripheral\scb/cy_scb_common.h **** *******************************************************************************/
1130:Generated_Source\PSoC6\pdl\drivers\peripheral\scb/cy_scb_common.h **** __STATIC_INLINE void Cy_SCB_SetTxInterrupt(CySCB_Type *base, uint32_t interruptMask)
1131:Generated_Source\PSoC6\pdl\drivers\peripheral\scb/cy_scb_common.h **** {
1132:Generated_Source\PSoC6\pdl\drivers\peripheral\scb/cy_scb_common.h ****     CY_ASSERT_L2(CY_SCB_IS_INTR_VALID(interruptMask, CY_SCB_TX_INTR_MASK));
1133:Generated_Source\PSoC6\pdl\drivers\peripheral\scb/cy_scb_common.h **** 
1134:Generated_Source\PSoC6\pdl\drivers\peripheral\scb/cy_scb_common.h ****     base->INTR_TX_SET = interruptMask;
1135:Generated_Source\PSoC6\pdl\drivers\peripheral\scb/cy_scb_common.h **** }
1136:Generated_Source\PSoC6\pdl\drivers\peripheral\scb/cy_scb_common.h **** 
1137:Generated_Source\PSoC6\pdl\drivers\peripheral\scb/cy_scb_common.h **** 
1138:Generated_Source\PSoC6\pdl\drivers\peripheral\scb/cy_scb_common.h **** /*******************************************************************************
1139:Generated_Source\PSoC6\pdl\drivers\peripheral\scb/cy_scb_common.h **** * Function Name: Cy_SCB_GetMasterInterruptStatus
1140:Generated_Source\PSoC6\pdl\drivers\peripheral\scb/cy_scb_common.h **** ****************************************************************************//**
1141:Generated_Source\PSoC6\pdl\drivers\peripheral\scb/cy_scb_common.h **** *
1142:Generated_Source\PSoC6\pdl\drivers\peripheral\scb/cy_scb_common.h **** * Returns the master interrupt request register. This register contains the current
1143:Generated_Source\PSoC6\pdl\drivers\peripheral\scb/cy_scb_common.h **** * status of the master interrupt sources.
1144:Generated_Source\PSoC6\pdl\drivers\peripheral\scb/cy_scb_common.h **** *
1145:Generated_Source\PSoC6\pdl\drivers\peripheral\scb/cy_scb_common.h **** * \param base
1146:Generated_Source\PSoC6\pdl\drivers\peripheral\scb/cy_scb_common.h **** * The pointer to the SCB instance.
1147:Generated_Source\PSoC6\pdl\drivers\peripheral\scb/cy_scb_common.h **** *
ARM GAS  C:\Users\salaz\AppData\Local\Temp\ccU0pQaU.s 			page 32


1148:Generated_Source\PSoC6\pdl\drivers\peripheral\scb/cy_scb_common.h **** * \return
1149:Generated_Source\PSoC6\pdl\drivers\peripheral\scb/cy_scb_common.h **** * The current status of the master interrupt sources.
1150:Generated_Source\PSoC6\pdl\drivers\peripheral\scb/cy_scb_common.h **** * Each constant is a bit field value. The value returned may have multiple
1151:Generated_Source\PSoC6\pdl\drivers\peripheral\scb/cy_scb_common.h **** * bits set to indicate the current status.
1152:Generated_Source\PSoC6\pdl\drivers\peripheral\scb/cy_scb_common.h **** * See \ref group_scb_common_macros_master_intr for the set of constants.
1153:Generated_Source\PSoC6\pdl\drivers\peripheral\scb/cy_scb_common.h **** *
1154:Generated_Source\PSoC6\pdl\drivers\peripheral\scb/cy_scb_common.h **** *******************************************************************************/
1155:Generated_Source\PSoC6\pdl\drivers\peripheral\scb/cy_scb_common.h **** __STATIC_INLINE uint32_t Cy_SCB_GetMasterInterruptStatus(CySCB_Type const *base)
1156:Generated_Source\PSoC6\pdl\drivers\peripheral\scb/cy_scb_common.h **** {
1157:Generated_Source\PSoC6\pdl\drivers\peripheral\scb/cy_scb_common.h ****     return (base->INTR_M & CY_SCB_MASTER_INTR_MASK);
1158:Generated_Source\PSoC6\pdl\drivers\peripheral\scb/cy_scb_common.h **** }
1159:Generated_Source\PSoC6\pdl\drivers\peripheral\scb/cy_scb_common.h **** 
1160:Generated_Source\PSoC6\pdl\drivers\peripheral\scb/cy_scb_common.h **** 
1161:Generated_Source\PSoC6\pdl\drivers\peripheral\scb/cy_scb_common.h **** /*******************************************************************************
1162:Generated_Source\PSoC6\pdl\drivers\peripheral\scb/cy_scb_common.h **** * Function Name: Cy_SCB_SetMasterInterruptMask
1163:Generated_Source\PSoC6\pdl\drivers\peripheral\scb/cy_scb_common.h **** ****************************************************************************//**
1164:Generated_Source\PSoC6\pdl\drivers\peripheral\scb/cy_scb_common.h **** *
1165:Generated_Source\PSoC6\pdl\drivers\peripheral\scb/cy_scb_common.h **** * Writes the master interrupt mask register. This register specifies which bits
1166:Generated_Source\PSoC6\pdl\drivers\peripheral\scb/cy_scb_common.h **** * from the master interrupt request register can trigger an interrupt event.
1167:Generated_Source\PSoC6\pdl\drivers\peripheral\scb/cy_scb_common.h **** *
1168:Generated_Source\PSoC6\pdl\drivers\peripheral\scb/cy_scb_common.h **** * \param base
1169:Generated_Source\PSoC6\pdl\drivers\peripheral\scb/cy_scb_common.h **** * The pointer to the SCB instance.
1170:Generated_Source\PSoC6\pdl\drivers\peripheral\scb/cy_scb_common.h **** *
1171:Generated_Source\PSoC6\pdl\drivers\peripheral\scb/cy_scb_common.h **** * \param interruptMask
1172:Generated_Source\PSoC6\pdl\drivers\peripheral\scb/cy_scb_common.h **** * The master interrupt sources to be enable.
1173:Generated_Source\PSoC6\pdl\drivers\peripheral\scb/cy_scb_common.h **** * See \ref group_scb_common_macros_master_intr for the set of constants.
1174:Generated_Source\PSoC6\pdl\drivers\peripheral\scb/cy_scb_common.h **** *
1175:Generated_Source\PSoC6\pdl\drivers\peripheral\scb/cy_scb_common.h **** *******************************************************************************/
1176:Generated_Source\PSoC6\pdl\drivers\peripheral\scb/cy_scb_common.h **** __STATIC_INLINE void Cy_SCB_SetMasterInterruptMask(CySCB_Type *base, uint32_t interruptMask)
1177:Generated_Source\PSoC6\pdl\drivers\peripheral\scb/cy_scb_common.h **** {
1178:Generated_Source\PSoC6\pdl\drivers\peripheral\scb/cy_scb_common.h ****     CY_ASSERT_L2(CY_SCB_IS_INTR_VALID(interruptMask, CY_SCB_MASTER_INTR_MASK));
1179:Generated_Source\PSoC6\pdl\drivers\peripheral\scb/cy_scb_common.h **** 
1180:Generated_Source\PSoC6\pdl\drivers\peripheral\scb/cy_scb_common.h ****     base->INTR_M_MASK = interruptMask;
1181:Generated_Source\PSoC6\pdl\drivers\peripheral\scb/cy_scb_common.h **** }
1182:Generated_Source\PSoC6\pdl\drivers\peripheral\scb/cy_scb_common.h **** 
1183:Generated_Source\PSoC6\pdl\drivers\peripheral\scb/cy_scb_common.h **** 
1184:Generated_Source\PSoC6\pdl\drivers\peripheral\scb/cy_scb_common.h **** /*******************************************************************************
1185:Generated_Source\PSoC6\pdl\drivers\peripheral\scb/cy_scb_common.h **** * Function Name: Cy_SCB_GetMasterInterruptMask
1186:Generated_Source\PSoC6\pdl\drivers\peripheral\scb/cy_scb_common.h **** ****************************************************************************//**
1187:Generated_Source\PSoC6\pdl\drivers\peripheral\scb/cy_scb_common.h **** *
1188:Generated_Source\PSoC6\pdl\drivers\peripheral\scb/cy_scb_common.h **** * Returns the master interrupt mask register. This register specifies which bits
1189:Generated_Source\PSoC6\pdl\drivers\peripheral\scb/cy_scb_common.h **** * from the master interrupt request register can trigger an interrupt event.
1190:Generated_Source\PSoC6\pdl\drivers\peripheral\scb/cy_scb_common.h **** *
1191:Generated_Source\PSoC6\pdl\drivers\peripheral\scb/cy_scb_common.h **** * \param base
1192:Generated_Source\PSoC6\pdl\drivers\peripheral\scb/cy_scb_common.h **** * The pointer to the SCB instance.
1193:Generated_Source\PSoC6\pdl\drivers\peripheral\scb/cy_scb_common.h **** *
1194:Generated_Source\PSoC6\pdl\drivers\peripheral\scb/cy_scb_common.h **** * \return
1195:Generated_Source\PSoC6\pdl\drivers\peripheral\scb/cy_scb_common.h **** * Enabled master interrupt sources.
1196:Generated_Source\PSoC6\pdl\drivers\peripheral\scb/cy_scb_common.h **** * See \ref group_scb_common_macros_master_intr for the set of constants.
1197:Generated_Source\PSoC6\pdl\drivers\peripheral\scb/cy_scb_common.h **** *
1198:Generated_Source\PSoC6\pdl\drivers\peripheral\scb/cy_scb_common.h **** *******************************************************************************/
1199:Generated_Source\PSoC6\pdl\drivers\peripheral\scb/cy_scb_common.h **** __STATIC_INLINE uint32_t Cy_SCB_GetMasterInterruptMask(CySCB_Type const *base)
1200:Generated_Source\PSoC6\pdl\drivers\peripheral\scb/cy_scb_common.h **** {
1201:Generated_Source\PSoC6\pdl\drivers\peripheral\scb/cy_scb_common.h ****     return (base->INTR_M_MASK);
1202:Generated_Source\PSoC6\pdl\drivers\peripheral\scb/cy_scb_common.h **** }
1203:Generated_Source\PSoC6\pdl\drivers\peripheral\scb/cy_scb_common.h **** 
1204:Generated_Source\PSoC6\pdl\drivers\peripheral\scb/cy_scb_common.h **** 
ARM GAS  C:\Users\salaz\AppData\Local\Temp\ccU0pQaU.s 			page 33


1205:Generated_Source\PSoC6\pdl\drivers\peripheral\scb/cy_scb_common.h **** /*******************************************************************************
1206:Generated_Source\PSoC6\pdl\drivers\peripheral\scb/cy_scb_common.h **** * Function Name: Cy_SCB_GetMasterInterruptStatusMasked
1207:Generated_Source\PSoC6\pdl\drivers\peripheral\scb/cy_scb_common.h **** ****************************************************************************//**
1208:Generated_Source\PSoC6\pdl\drivers\peripheral\scb/cy_scb_common.h **** *
1209:Generated_Source\PSoC6\pdl\drivers\peripheral\scb/cy_scb_common.h **** * Returns the master interrupt masked request register. This register contains a
1210:Generated_Source\PSoC6\pdl\drivers\peripheral\scb/cy_scb_common.h **** * logical AND of corresponding bits from the master interrupt request and mask
1211:Generated_Source\PSoC6\pdl\drivers\peripheral\scb/cy_scb_common.h **** * registers.
1212:Generated_Source\PSoC6\pdl\drivers\peripheral\scb/cy_scb_common.h **** * This function is intended to be used in the interrupt service routine to
1213:Generated_Source\PSoC6\pdl\drivers\peripheral\scb/cy_scb_common.h **** * identify which of the enabled master interrupt sources caused the interrupt
1214:Generated_Source\PSoC6\pdl\drivers\peripheral\scb/cy_scb_common.h **** * event.
1215:Generated_Source\PSoC6\pdl\drivers\peripheral\scb/cy_scb_common.h **** *
1216:Generated_Source\PSoC6\pdl\drivers\peripheral\scb/cy_scb_common.h **** * \param base
1217:Generated_Source\PSoC6\pdl\drivers\peripheral\scb/cy_scb_common.h **** * The pointer to the SCB instance.
1218:Generated_Source\PSoC6\pdl\drivers\peripheral\scb/cy_scb_common.h **** *
1219:Generated_Source\PSoC6\pdl\drivers\peripheral\scb/cy_scb_common.h **** * \return
1220:Generated_Source\PSoC6\pdl\drivers\peripheral\scb/cy_scb_common.h **** * The current status of enabled master interrupt sources.
1221:Generated_Source\PSoC6\pdl\drivers\peripheral\scb/cy_scb_common.h **** * See \ref group_scb_common_macros_master_intr for the set of constants.
1222:Generated_Source\PSoC6\pdl\drivers\peripheral\scb/cy_scb_common.h **** *
1223:Generated_Source\PSoC6\pdl\drivers\peripheral\scb/cy_scb_common.h **** *******************************************************************************/
1224:Generated_Source\PSoC6\pdl\drivers\peripheral\scb/cy_scb_common.h **** __STATIC_INLINE uint32_t Cy_SCB_GetMasterInterruptStatusMasked(CySCB_Type const *base)
1225:Generated_Source\PSoC6\pdl\drivers\peripheral\scb/cy_scb_common.h **** {
1226:Generated_Source\PSoC6\pdl\drivers\peripheral\scb/cy_scb_common.h ****     return (base->INTR_M_MASKED);
1227:Generated_Source\PSoC6\pdl\drivers\peripheral\scb/cy_scb_common.h **** }
1228:Generated_Source\PSoC6\pdl\drivers\peripheral\scb/cy_scb_common.h **** 
1229:Generated_Source\PSoC6\pdl\drivers\peripheral\scb/cy_scb_common.h **** 
1230:Generated_Source\PSoC6\pdl\drivers\peripheral\scb/cy_scb_common.h **** /*******************************************************************************
1231:Generated_Source\PSoC6\pdl\drivers\peripheral\scb/cy_scb_common.h **** * Function Name: Cy_SCB_ClearMasterInterrupt
1232:Generated_Source\PSoC6\pdl\drivers\peripheral\scb/cy_scb_common.h **** ****************************************************************************//**
1233:Generated_Source\PSoC6\pdl\drivers\peripheral\scb/cy_scb_common.h **** *
1234:Generated_Source\PSoC6\pdl\drivers\peripheral\scb/cy_scb_common.h **** * Clears master interrupt sources in the interrupt request register.
1235:Generated_Source\PSoC6\pdl\drivers\peripheral\scb/cy_scb_common.h **** *
1236:Generated_Source\PSoC6\pdl\drivers\peripheral\scb/cy_scb_common.h **** * \param base
1237:Generated_Source\PSoC6\pdl\drivers\peripheral\scb/cy_scb_common.h **** * The pointer to the SCB instance.
1238:Generated_Source\PSoC6\pdl\drivers\peripheral\scb/cy_scb_common.h **** *
1239:Generated_Source\PSoC6\pdl\drivers\peripheral\scb/cy_scb_common.h **** * \param interruptMask
1240:Generated_Source\PSoC6\pdl\drivers\peripheral\scb/cy_scb_common.h **** * The master interrupt sources to be cleared.
1241:Generated_Source\PSoC6\pdl\drivers\peripheral\scb/cy_scb_common.h **** * See \ref group_scb_common_macros_master_intr for the set of constants.
1242:Generated_Source\PSoC6\pdl\drivers\peripheral\scb/cy_scb_common.h **** *
1243:Generated_Source\PSoC6\pdl\drivers\peripheral\scb/cy_scb_common.h **** *******************************************************************************/
1244:Generated_Source\PSoC6\pdl\drivers\peripheral\scb/cy_scb_common.h **** __STATIC_INLINE void Cy_SCB_ClearMasterInterrupt(CySCB_Type *base, uint32_t interruptMask)
1245:Generated_Source\PSoC6\pdl\drivers\peripheral\scb/cy_scb_common.h **** {
1246:Generated_Source\PSoC6\pdl\drivers\peripheral\scb/cy_scb_common.h ****     CY_ASSERT_L2(CY_SCB_IS_INTR_VALID(interruptMask, CY_SCB_MASTER_INTR_MASK));
1247:Generated_Source\PSoC6\pdl\drivers\peripheral\scb/cy_scb_common.h **** 
1248:Generated_Source\PSoC6\pdl\drivers\peripheral\scb/cy_scb_common.h ****     base->INTR_M = interruptMask;
1249:Generated_Source\PSoC6\pdl\drivers\peripheral\scb/cy_scb_common.h ****     (void) base->INTR_M;
1250:Generated_Source\PSoC6\pdl\drivers\peripheral\scb/cy_scb_common.h **** }
1251:Generated_Source\PSoC6\pdl\drivers\peripheral\scb/cy_scb_common.h **** 
1252:Generated_Source\PSoC6\pdl\drivers\peripheral\scb/cy_scb_common.h **** 
1253:Generated_Source\PSoC6\pdl\drivers\peripheral\scb/cy_scb_common.h **** /*******************************************************************************
1254:Generated_Source\PSoC6\pdl\drivers\peripheral\scb/cy_scb_common.h **** * Function Name: Cy_SCB_SetMasterInterrupt
1255:Generated_Source\PSoC6\pdl\drivers\peripheral\scb/cy_scb_common.h **** ****************************************************************************//**
1256:Generated_Source\PSoC6\pdl\drivers\peripheral\scb/cy_scb_common.h **** *
1257:Generated_Source\PSoC6\pdl\drivers\peripheral\scb/cy_scb_common.h **** * Sets master interrupt sources in the interrupt request register.
1258:Generated_Source\PSoC6\pdl\drivers\peripheral\scb/cy_scb_common.h **** *
1259:Generated_Source\PSoC6\pdl\drivers\peripheral\scb/cy_scb_common.h **** * \param base
1260:Generated_Source\PSoC6\pdl\drivers\peripheral\scb/cy_scb_common.h **** * The pointer to the SCB instance.
1261:Generated_Source\PSoC6\pdl\drivers\peripheral\scb/cy_scb_common.h **** *
ARM GAS  C:\Users\salaz\AppData\Local\Temp\ccU0pQaU.s 			page 34


1262:Generated_Source\PSoC6\pdl\drivers\peripheral\scb/cy_scb_common.h **** * \param interruptMask
1263:Generated_Source\PSoC6\pdl\drivers\peripheral\scb/cy_scb_common.h **** * The master interrupt sources to set in the master interrupt request register.
1264:Generated_Source\PSoC6\pdl\drivers\peripheral\scb/cy_scb_common.h **** * See \ref group_scb_common_macros_master_intr for the set of constants.
1265:Generated_Source\PSoC6\pdl\drivers\peripheral\scb/cy_scb_common.h **** *
1266:Generated_Source\PSoC6\pdl\drivers\peripheral\scb/cy_scb_common.h **** *******************************************************************************/
1267:Generated_Source\PSoC6\pdl\drivers\peripheral\scb/cy_scb_common.h **** __STATIC_INLINE void Cy_SCB_SetMasterInterrupt(CySCB_Type *base, uint32_t interruptMask)
1268:Generated_Source\PSoC6\pdl\drivers\peripheral\scb/cy_scb_common.h **** {
1269:Generated_Source\PSoC6\pdl\drivers\peripheral\scb/cy_scb_common.h ****     CY_ASSERT_L2(CY_SCB_IS_INTR_VALID(interruptMask, CY_SCB_MASTER_INTR_MASK));
1270:Generated_Source\PSoC6\pdl\drivers\peripheral\scb/cy_scb_common.h **** 
1271:Generated_Source\PSoC6\pdl\drivers\peripheral\scb/cy_scb_common.h ****     base->INTR_M_SET = interruptMask;
1272:Generated_Source\PSoC6\pdl\drivers\peripheral\scb/cy_scb_common.h **** }
1273:Generated_Source\PSoC6\pdl\drivers\peripheral\scb/cy_scb_common.h **** 
1274:Generated_Source\PSoC6\pdl\drivers\peripheral\scb/cy_scb_common.h **** 
1275:Generated_Source\PSoC6\pdl\drivers\peripheral\scb/cy_scb_common.h **** /*******************************************************************************
1276:Generated_Source\PSoC6\pdl\drivers\peripheral\scb/cy_scb_common.h **** * Function Name: Cy_SCB_GetSlaveInterruptStatus
1277:Generated_Source\PSoC6\pdl\drivers\peripheral\scb/cy_scb_common.h **** ****************************************************************************//**
1278:Generated_Source\PSoC6\pdl\drivers\peripheral\scb/cy_scb_common.h **** *
1279:Generated_Source\PSoC6\pdl\drivers\peripheral\scb/cy_scb_common.h **** * Returns the slave interrupt request register. This register contains the current
1280:Generated_Source\PSoC6\pdl\drivers\peripheral\scb/cy_scb_common.h **** * status of the slave interrupt sources.
1281:Generated_Source\PSoC6\pdl\drivers\peripheral\scb/cy_scb_common.h **** *
1282:Generated_Source\PSoC6\pdl\drivers\peripheral\scb/cy_scb_common.h **** * \param base
1283:Generated_Source\PSoC6\pdl\drivers\peripheral\scb/cy_scb_common.h **** * The pointer to the SCB instance.
1284:Generated_Source\PSoC6\pdl\drivers\peripheral\scb/cy_scb_common.h **** *
1285:Generated_Source\PSoC6\pdl\drivers\peripheral\scb/cy_scb_common.h **** * \return
1286:Generated_Source\PSoC6\pdl\drivers\peripheral\scb/cy_scb_common.h **** * The current status of the slave interrupt sources.
1287:Generated_Source\PSoC6\pdl\drivers\peripheral\scb/cy_scb_common.h **** * Each constant is a bit field value. The value returned may have multiple
1288:Generated_Source\PSoC6\pdl\drivers\peripheral\scb/cy_scb_common.h **** * bits set to indicate the current status.
1289:Generated_Source\PSoC6\pdl\drivers\peripheral\scb/cy_scb_common.h **** * See \ref group_scb_common_macros_slave_intr for the set of constants.
1290:Generated_Source\PSoC6\pdl\drivers\peripheral\scb/cy_scb_common.h **** *
1291:Generated_Source\PSoC6\pdl\drivers\peripheral\scb/cy_scb_common.h **** *******************************************************************************/
1292:Generated_Source\PSoC6\pdl\drivers\peripheral\scb/cy_scb_common.h **** __STATIC_INLINE uint32_t Cy_SCB_GetSlaveInterruptStatus(CySCB_Type const *base)
1293:Generated_Source\PSoC6\pdl\drivers\peripheral\scb/cy_scb_common.h **** {
1294:Generated_Source\PSoC6\pdl\drivers\peripheral\scb/cy_scb_common.h ****     return (base->INTR_S & CY_SCB_SLAVE_INTR_MASK);
1295:Generated_Source\PSoC6\pdl\drivers\peripheral\scb/cy_scb_common.h **** }
1296:Generated_Source\PSoC6\pdl\drivers\peripheral\scb/cy_scb_common.h **** 
1297:Generated_Source\PSoC6\pdl\drivers\peripheral\scb/cy_scb_common.h **** 
1298:Generated_Source\PSoC6\pdl\drivers\peripheral\scb/cy_scb_common.h **** /*******************************************************************************
1299:Generated_Source\PSoC6\pdl\drivers\peripheral\scb/cy_scb_common.h **** * Function Name: Cy_SCB_SetSlaveInterruptMask
1300:Generated_Source\PSoC6\pdl\drivers\peripheral\scb/cy_scb_common.h **** ****************************************************************************//**
1301:Generated_Source\PSoC6\pdl\drivers\peripheral\scb/cy_scb_common.h **** *
1302:Generated_Source\PSoC6\pdl\drivers\peripheral\scb/cy_scb_common.h **** * Writes slave interrupt mask register.
1303:Generated_Source\PSoC6\pdl\drivers\peripheral\scb/cy_scb_common.h **** * This register specifies which bits from the slave interrupt request register
1304:Generated_Source\PSoC6\pdl\drivers\peripheral\scb/cy_scb_common.h **** * can trigger an interrupt event.
1305:Generated_Source\PSoC6\pdl\drivers\peripheral\scb/cy_scb_common.h **** *
1306:Generated_Source\PSoC6\pdl\drivers\peripheral\scb/cy_scb_common.h **** * \param base
1307:Generated_Source\PSoC6\pdl\drivers\peripheral\scb/cy_scb_common.h **** * The pointer to the SCB instance.
1308:Generated_Source\PSoC6\pdl\drivers\peripheral\scb/cy_scb_common.h **** *
1309:Generated_Source\PSoC6\pdl\drivers\peripheral\scb/cy_scb_common.h **** * \param interruptMask
1310:Generated_Source\PSoC6\pdl\drivers\peripheral\scb/cy_scb_common.h **** * Enabled slave interrupt sources.
1311:Generated_Source\PSoC6\pdl\drivers\peripheral\scb/cy_scb_common.h **** * See \ref group_scb_common_macros_slave_intr for the set of constants.
1312:Generated_Source\PSoC6\pdl\drivers\peripheral\scb/cy_scb_common.h **** *
1313:Generated_Source\PSoC6\pdl\drivers\peripheral\scb/cy_scb_common.h **** *******************************************************************************/
1314:Generated_Source\PSoC6\pdl\drivers\peripheral\scb/cy_scb_common.h **** __STATIC_INLINE void Cy_SCB_SetSlaveInterruptMask(CySCB_Type *base, uint32_t interruptMask)
1315:Generated_Source\PSoC6\pdl\drivers\peripheral\scb/cy_scb_common.h **** {
 613              		.loc 1 1315 0
 614              		.cfi_startproc
 615              		@ args = 0, pretend = 0, frame = 8
ARM GAS  C:\Users\salaz\AppData\Local\Temp\ccU0pQaU.s 			page 35


 616              		@ frame_needed = 1, uses_anonymous_args = 0
 617 0000 80B5     		push	{r7, lr}
 618              		.cfi_def_cfa_offset 8
 619              		.cfi_offset 7, -8
 620              		.cfi_offset 14, -4
 621 0002 82B0     		sub	sp, sp, #8
 622              		.cfi_def_cfa_offset 16
 623 0004 00AF     		add	r7, sp, #0
 624              		.cfi_def_cfa_register 7
 625 0006 7860     		str	r0, [r7, #4]
 626 0008 3960     		str	r1, [r7]
1316:Generated_Source\PSoC6\pdl\drivers\peripheral\scb/cy_scb_common.h ****     CY_ASSERT_L2(CY_SCB_IS_INTR_VALID(interruptMask, CY_SCB_SLAVE_INTR_MASK));
 627              		.loc 1 1316 0
 628 000a 3B68     		ldr	r3, [r7]
 629 000c 084A     		ldr	r2, .L43
 630 000e 1340     		ands	r3, r2
 631 0010 05D0     		beq	.L42
 632              		.loc 1 1316 0 is_stmt 0 discriminator 1
 633 0012 084A     		ldr	r2, .L43+4
 634 0014 084B     		ldr	r3, .L43+8
 635 0016 1100     		movs	r1, r2
 636 0018 1800     		movs	r0, r3
 637 001a FFF7FEFF 		bl	Cy_SysLib_AssertFailed
 638              	.L42:
1317:Generated_Source\PSoC6\pdl\drivers\peripheral\scb/cy_scb_common.h **** 
1318:Generated_Source\PSoC6\pdl\drivers\peripheral\scb/cy_scb_common.h ****     base->INTR_S_MASK = interruptMask;
 639              		.loc 1 1318 0 is_stmt 1
 640 001e 7B68     		ldr	r3, [r7, #4]
 641 0020 0649     		ldr	r1, .L43+12
 642 0022 3A68     		ldr	r2, [r7]
 643 0024 5A50     		str	r2, [r3, r1]
1319:Generated_Source\PSoC6\pdl\drivers\peripheral\scb/cy_scb_common.h **** }
 644              		.loc 1 1319 0
 645 0026 C046     		nop
 646 0028 BD46     		mov	sp, r7
 647 002a 02B0     		add	sp, sp, #8
 648              		@ sp needed
 649 002c 80BD     		pop	{r7, pc}
 650              	.L44:
 651 002e C046     		.align	2
 652              	.L43:
 653 0030 00F6FFFF 		.word	-2560
 654 0034 24050000 		.word	1316
 655 0038 00000000 		.word	.LC0
 656 003c 480F0000 		.word	3912
 657              		.cfi_endproc
 658              	.LFE101:
 659              		.size	Cy_SCB_SetSlaveInterruptMask, .-Cy_SCB_SetSlaveInterruptMask
 660              		.section	.text.Cy_SCB_GetSlaveInterruptStatusMasked,"ax",%progbits
 661              		.align	2
 662              		.code	16
 663              		.thumb_func
 664              		.type	Cy_SCB_GetSlaveInterruptStatusMasked, %function
 665              	Cy_SCB_GetSlaveInterruptStatusMasked:
 666              	.LFB103:
1320:Generated_Source\PSoC6\pdl\drivers\peripheral\scb/cy_scb_common.h **** 
1321:Generated_Source\PSoC6\pdl\drivers\peripheral\scb/cy_scb_common.h **** 
ARM GAS  C:\Users\salaz\AppData\Local\Temp\ccU0pQaU.s 			page 36


1322:Generated_Source\PSoC6\pdl\drivers\peripheral\scb/cy_scb_common.h **** /*******************************************************************************
1323:Generated_Source\PSoC6\pdl\drivers\peripheral\scb/cy_scb_common.h **** * Function Name: Cy_SCB_GetSlaveInterruptMask
1324:Generated_Source\PSoC6\pdl\drivers\peripheral\scb/cy_scb_common.h **** ****************************************************************************//**
1325:Generated_Source\PSoC6\pdl\drivers\peripheral\scb/cy_scb_common.h **** *
1326:Generated_Source\PSoC6\pdl\drivers\peripheral\scb/cy_scb_common.h **** * Returns the slave interrupt mask register.
1327:Generated_Source\PSoC6\pdl\drivers\peripheral\scb/cy_scb_common.h **** * This register specifies which bits from the slave interrupt request register
1328:Generated_Source\PSoC6\pdl\drivers\peripheral\scb/cy_scb_common.h **** * can trigger an interrupt event.
1329:Generated_Source\PSoC6\pdl\drivers\peripheral\scb/cy_scb_common.h **** *
1330:Generated_Source\PSoC6\pdl\drivers\peripheral\scb/cy_scb_common.h **** * \param base
1331:Generated_Source\PSoC6\pdl\drivers\peripheral\scb/cy_scb_common.h **** * The pointer to the SCB instance.
1332:Generated_Source\PSoC6\pdl\drivers\peripheral\scb/cy_scb_common.h **** *
1333:Generated_Source\PSoC6\pdl\drivers\peripheral\scb/cy_scb_common.h **** * \return
1334:Generated_Source\PSoC6\pdl\drivers\peripheral\scb/cy_scb_common.h **** * Enabled slave interrupt sources.
1335:Generated_Source\PSoC6\pdl\drivers\peripheral\scb/cy_scb_common.h **** * See \ref group_scb_common_macros_slave_intr for the set of constants.
1336:Generated_Source\PSoC6\pdl\drivers\peripheral\scb/cy_scb_common.h **** *
1337:Generated_Source\PSoC6\pdl\drivers\peripheral\scb/cy_scb_common.h **** *******************************************************************************/
1338:Generated_Source\PSoC6\pdl\drivers\peripheral\scb/cy_scb_common.h **** __STATIC_INLINE uint32_t Cy_SCB_GetSlaveInterruptMask(CySCB_Type const *base)
1339:Generated_Source\PSoC6\pdl\drivers\peripheral\scb/cy_scb_common.h **** {
1340:Generated_Source\PSoC6\pdl\drivers\peripheral\scb/cy_scb_common.h ****     return (base->INTR_S_MASK);
1341:Generated_Source\PSoC6\pdl\drivers\peripheral\scb/cy_scb_common.h **** }
1342:Generated_Source\PSoC6\pdl\drivers\peripheral\scb/cy_scb_common.h **** 
1343:Generated_Source\PSoC6\pdl\drivers\peripheral\scb/cy_scb_common.h **** 
1344:Generated_Source\PSoC6\pdl\drivers\peripheral\scb/cy_scb_common.h **** /*******************************************************************************
1345:Generated_Source\PSoC6\pdl\drivers\peripheral\scb/cy_scb_common.h **** * Function Name: Cy_SCB_GetSlaveInterruptStatusMasked
1346:Generated_Source\PSoC6\pdl\drivers\peripheral\scb/cy_scb_common.h **** ****************************************************************************//**
1347:Generated_Source\PSoC6\pdl\drivers\peripheral\scb/cy_scb_common.h **** *
1348:Generated_Source\PSoC6\pdl\drivers\peripheral\scb/cy_scb_common.h **** * Returns the slave interrupt masked request register. This register contains a
1349:Generated_Source\PSoC6\pdl\drivers\peripheral\scb/cy_scb_common.h **** * logical AND of corresponding bits from the slave interrupt request and mask
1350:Generated_Source\PSoC6\pdl\drivers\peripheral\scb/cy_scb_common.h **** * registers.
1351:Generated_Source\PSoC6\pdl\drivers\peripheral\scb/cy_scb_common.h **** * This function is intended to be used in the interrupt service routine to
1352:Generated_Source\PSoC6\pdl\drivers\peripheral\scb/cy_scb_common.h **** * identify which of enabled slave interrupt sources caused the interrupt
1353:Generated_Source\PSoC6\pdl\drivers\peripheral\scb/cy_scb_common.h **** * event.
1354:Generated_Source\PSoC6\pdl\drivers\peripheral\scb/cy_scb_common.h **** *
1355:Generated_Source\PSoC6\pdl\drivers\peripheral\scb/cy_scb_common.h **** * \param base
1356:Generated_Source\PSoC6\pdl\drivers\peripheral\scb/cy_scb_common.h **** * The pointer to the SCB instance.
1357:Generated_Source\PSoC6\pdl\drivers\peripheral\scb/cy_scb_common.h **** *
1358:Generated_Source\PSoC6\pdl\drivers\peripheral\scb/cy_scb_common.h **** * \return
1359:Generated_Source\PSoC6\pdl\drivers\peripheral\scb/cy_scb_common.h **** * The current status of enabled slave interrupt sources.
1360:Generated_Source\PSoC6\pdl\drivers\peripheral\scb/cy_scb_common.h **** * See \ref group_scb_common_macros_slave_intr for the set of constants.
1361:Generated_Source\PSoC6\pdl\drivers\peripheral\scb/cy_scb_common.h **** *
1362:Generated_Source\PSoC6\pdl\drivers\peripheral\scb/cy_scb_common.h **** *******************************************************************************/
1363:Generated_Source\PSoC6\pdl\drivers\peripheral\scb/cy_scb_common.h **** __STATIC_INLINE uint32_t Cy_SCB_GetSlaveInterruptStatusMasked(CySCB_Type const *base)
1364:Generated_Source\PSoC6\pdl\drivers\peripheral\scb/cy_scb_common.h **** {
 667              		.loc 1 1364 0
 668              		.cfi_startproc
 669              		@ args = 0, pretend = 0, frame = 8
 670              		@ frame_needed = 1, uses_anonymous_args = 0
 671 0000 80B5     		push	{r7, lr}
 672              		.cfi_def_cfa_offset 8
 673              		.cfi_offset 7, -8
 674              		.cfi_offset 14, -4
 675 0002 82B0     		sub	sp, sp, #8
 676              		.cfi_def_cfa_offset 16
 677 0004 00AF     		add	r7, sp, #0
 678              		.cfi_def_cfa_register 7
 679 0006 7860     		str	r0, [r7, #4]
1365:Generated_Source\PSoC6\pdl\drivers\peripheral\scb/cy_scb_common.h ****     return (base->INTR_S_MASKED);
ARM GAS  C:\Users\salaz\AppData\Local\Temp\ccU0pQaU.s 			page 37


 680              		.loc 1 1365 0
 681 0008 7B68     		ldr	r3, [r7, #4]
 682 000a 034A     		ldr	r2, .L47
 683 000c 9B58     		ldr	r3, [r3, r2]
1366:Generated_Source\PSoC6\pdl\drivers\peripheral\scb/cy_scb_common.h **** }
 684              		.loc 1 1366 0
 685 000e 1800     		movs	r0, r3
 686 0010 BD46     		mov	sp, r7
 687 0012 02B0     		add	sp, sp, #8
 688              		@ sp needed
 689 0014 80BD     		pop	{r7, pc}
 690              	.L48:
 691 0016 C046     		.align	2
 692              	.L47:
 693 0018 4C0F0000 		.word	3916
 694              		.cfi_endproc
 695              	.LFE103:
 696              		.size	Cy_SCB_GetSlaveInterruptStatusMasked, .-Cy_SCB_GetSlaveInterruptStatusMasked
 697              		.section	.text.Cy_SCB_ClearSlaveInterrupt,"ax",%progbits
 698              		.align	2
 699              		.code	16
 700              		.thumb_func
 701              		.type	Cy_SCB_ClearSlaveInterrupt, %function
 702              	Cy_SCB_ClearSlaveInterrupt:
 703              	.LFB104:
1367:Generated_Source\PSoC6\pdl\drivers\peripheral\scb/cy_scb_common.h **** 
1368:Generated_Source\PSoC6\pdl\drivers\peripheral\scb/cy_scb_common.h **** 
1369:Generated_Source\PSoC6\pdl\drivers\peripheral\scb/cy_scb_common.h **** /*******************************************************************************
1370:Generated_Source\PSoC6\pdl\drivers\peripheral\scb/cy_scb_common.h **** * Function Name: Cy_SCB_ClearSlaveInterrupt
1371:Generated_Source\PSoC6\pdl\drivers\peripheral\scb/cy_scb_common.h **** ****************************************************************************//**
1372:Generated_Source\PSoC6\pdl\drivers\peripheral\scb/cy_scb_common.h **** *
1373:Generated_Source\PSoC6\pdl\drivers\peripheral\scb/cy_scb_common.h **** * Clears the slave interrupt sources in the interrupt request register.
1374:Generated_Source\PSoC6\pdl\drivers\peripheral\scb/cy_scb_common.h **** *
1375:Generated_Source\PSoC6\pdl\drivers\peripheral\scb/cy_scb_common.h **** * \param base
1376:Generated_Source\PSoC6\pdl\drivers\peripheral\scb/cy_scb_common.h **** * The pointer to the SCB instance.
1377:Generated_Source\PSoC6\pdl\drivers\peripheral\scb/cy_scb_common.h **** *
1378:Generated_Source\PSoC6\pdl\drivers\peripheral\scb/cy_scb_common.h **** * \param interruptMask
1379:Generated_Source\PSoC6\pdl\drivers\peripheral\scb/cy_scb_common.h **** * Slave interrupt sources to be cleared.
1380:Generated_Source\PSoC6\pdl\drivers\peripheral\scb/cy_scb_common.h **** * See \ref group_scb_common_macros_slave_intr for the set of constants.
1381:Generated_Source\PSoC6\pdl\drivers\peripheral\scb/cy_scb_common.h **** *
1382:Generated_Source\PSoC6\pdl\drivers\peripheral\scb/cy_scb_common.h **** *******************************************************************************/
1383:Generated_Source\PSoC6\pdl\drivers\peripheral\scb/cy_scb_common.h **** __STATIC_INLINE void Cy_SCB_ClearSlaveInterrupt(CySCB_Type *base, uint32_t interruptMask)
1384:Generated_Source\PSoC6\pdl\drivers\peripheral\scb/cy_scb_common.h **** {
 704              		.loc 1 1384 0
 705              		.cfi_startproc
 706              		@ args = 0, pretend = 0, frame = 8
 707              		@ frame_needed = 1, uses_anonymous_args = 0
 708 0000 80B5     		push	{r7, lr}
 709              		.cfi_def_cfa_offset 8
 710              		.cfi_offset 7, -8
 711              		.cfi_offset 14, -4
 712 0002 82B0     		sub	sp, sp, #8
 713              		.cfi_def_cfa_offset 16
 714 0004 00AF     		add	r7, sp, #0
 715              		.cfi_def_cfa_register 7
 716 0006 7860     		str	r0, [r7, #4]
 717 0008 3960     		str	r1, [r7]
ARM GAS  C:\Users\salaz\AppData\Local\Temp\ccU0pQaU.s 			page 38


1385:Generated_Source\PSoC6\pdl\drivers\peripheral\scb/cy_scb_common.h ****     CY_ASSERT_L2(CY_SCB_IS_INTR_VALID(interruptMask, CY_SCB_SLAVE_INTR_MASK));
 718              		.loc 1 1385 0
 719 000a 3B68     		ldr	r3, [r7]
 720 000c 0A4A     		ldr	r2, .L51
 721 000e 1340     		ands	r3, r2
 722 0010 05D0     		beq	.L50
 723              		.loc 1 1385 0 is_stmt 0 discriminator 1
 724 0012 0A4A     		ldr	r2, .L51+4
 725 0014 0A4B     		ldr	r3, .L51+8
 726 0016 1100     		movs	r1, r2
 727 0018 1800     		movs	r0, r3
 728 001a FFF7FEFF 		bl	Cy_SysLib_AssertFailed
 729              	.L50:
1386:Generated_Source\PSoC6\pdl\drivers\peripheral\scb/cy_scb_common.h **** 
1387:Generated_Source\PSoC6\pdl\drivers\peripheral\scb/cy_scb_common.h ****     base->INTR_S = interruptMask;
 730              		.loc 1 1387 0 is_stmt 1
 731 001e 7A68     		ldr	r2, [r7, #4]
 732 0020 F423     		movs	r3, #244
 733 0022 1B01     		lsls	r3, r3, #4
 734 0024 3968     		ldr	r1, [r7]
 735 0026 D150     		str	r1, [r2, r3]
1388:Generated_Source\PSoC6\pdl\drivers\peripheral\scb/cy_scb_common.h ****     (void) base->INTR_S;
 736              		.loc 1 1388 0
 737 0028 7A68     		ldr	r2, [r7, #4]
 738 002a F423     		movs	r3, #244
 739 002c 1B01     		lsls	r3, r3, #4
 740 002e D358     		ldr	r3, [r2, r3]
1389:Generated_Source\PSoC6\pdl\drivers\peripheral\scb/cy_scb_common.h **** }
 741              		.loc 1 1389 0
 742 0030 C046     		nop
 743 0032 BD46     		mov	sp, r7
 744 0034 02B0     		add	sp, sp, #8
 745              		@ sp needed
 746 0036 80BD     		pop	{r7, pc}
 747              	.L52:
 748              		.align	2
 749              	.L51:
 750 0038 00F6FFFF 		.word	-2560
 751 003c 69050000 		.word	1385
 752 0040 00000000 		.word	.LC0
 753              		.cfi_endproc
 754              	.LFE104:
 755              		.size	Cy_SCB_ClearSlaveInterrupt, .-Cy_SCB_ClearSlaveInterrupt
 756              		.section	.text.Cy_SCB_SetI2CInterruptMask,"ax",%progbits
 757              		.align	2
 758              		.code	16
 759              		.thumb_func
 760              		.type	Cy_SCB_SetI2CInterruptMask, %function
 761              	Cy_SCB_SetI2CInterruptMask:
 762              	.LFB107:
1390:Generated_Source\PSoC6\pdl\drivers\peripheral\scb/cy_scb_common.h **** 
1391:Generated_Source\PSoC6\pdl\drivers\peripheral\scb/cy_scb_common.h **** 
1392:Generated_Source\PSoC6\pdl\drivers\peripheral\scb/cy_scb_common.h **** /*******************************************************************************
1393:Generated_Source\PSoC6\pdl\drivers\peripheral\scb/cy_scb_common.h **** * Function Name: Cy_SCB_SetSlaveInterrupt
1394:Generated_Source\PSoC6\pdl\drivers\peripheral\scb/cy_scb_common.h **** ****************************************************************************//**
1395:Generated_Source\PSoC6\pdl\drivers\peripheral\scb/cy_scb_common.h **** *
1396:Generated_Source\PSoC6\pdl\drivers\peripheral\scb/cy_scb_common.h **** * Sets slave interrupt sources in the interrupt request register.
ARM GAS  C:\Users\salaz\AppData\Local\Temp\ccU0pQaU.s 			page 39


1397:Generated_Source\PSoC6\pdl\drivers\peripheral\scb/cy_scb_common.h **** *
1398:Generated_Source\PSoC6\pdl\drivers\peripheral\scb/cy_scb_common.h **** * \param base
1399:Generated_Source\PSoC6\pdl\drivers\peripheral\scb/cy_scb_common.h **** * The pointer to the SCB instance.
1400:Generated_Source\PSoC6\pdl\drivers\peripheral\scb/cy_scb_common.h **** *
1401:Generated_Source\PSoC6\pdl\drivers\peripheral\scb/cy_scb_common.h **** * \param interruptMask
1402:Generated_Source\PSoC6\pdl\drivers\peripheral\scb/cy_scb_common.h **** * The slave interrupt sources to set in the slave interrupt request register
1403:Generated_Source\PSoC6\pdl\drivers\peripheral\scb/cy_scb_common.h **** * See \ref group_scb_common_macros_slave_intr for the set of constants.
1404:Generated_Source\PSoC6\pdl\drivers\peripheral\scb/cy_scb_common.h **** *
1405:Generated_Source\PSoC6\pdl\drivers\peripheral\scb/cy_scb_common.h **** *******************************************************************************/
1406:Generated_Source\PSoC6\pdl\drivers\peripheral\scb/cy_scb_common.h **** __STATIC_INLINE void Cy_SCB_SetSlaveInterrupt(CySCB_Type *base, uint32_t interruptMask)
1407:Generated_Source\PSoC6\pdl\drivers\peripheral\scb/cy_scb_common.h **** {
1408:Generated_Source\PSoC6\pdl\drivers\peripheral\scb/cy_scb_common.h ****     CY_ASSERT_L2(CY_SCB_IS_INTR_VALID(interruptMask, CY_SCB_SLAVE_INTR_MASK));
1409:Generated_Source\PSoC6\pdl\drivers\peripheral\scb/cy_scb_common.h **** 
1410:Generated_Source\PSoC6\pdl\drivers\peripheral\scb/cy_scb_common.h ****     base->INTR_S_SET = interruptMask;
1411:Generated_Source\PSoC6\pdl\drivers\peripheral\scb/cy_scb_common.h **** }
1412:Generated_Source\PSoC6\pdl\drivers\peripheral\scb/cy_scb_common.h **** 
1413:Generated_Source\PSoC6\pdl\drivers\peripheral\scb/cy_scb_common.h **** 
1414:Generated_Source\PSoC6\pdl\drivers\peripheral\scb/cy_scb_common.h **** /*******************************************************************************
1415:Generated_Source\PSoC6\pdl\drivers\peripheral\scb/cy_scb_common.h **** * Function Name: Cy_SCB_GetI2CInterruptStatus
1416:Generated_Source\PSoC6\pdl\drivers\peripheral\scb/cy_scb_common.h **** ****************************************************************************//**
1417:Generated_Source\PSoC6\pdl\drivers\peripheral\scb/cy_scb_common.h **** *
1418:Generated_Source\PSoC6\pdl\drivers\peripheral\scb/cy_scb_common.h **** * Returns the I2C interrupt request register. This register contains the
1419:Generated_Source\PSoC6\pdl\drivers\peripheral\scb/cy_scb_common.h **** * current status of the I2C interrupt sources.
1420:Generated_Source\PSoC6\pdl\drivers\peripheral\scb/cy_scb_common.h **** *
1421:Generated_Source\PSoC6\pdl\drivers\peripheral\scb/cy_scb_common.h **** * \param base
1422:Generated_Source\PSoC6\pdl\drivers\peripheral\scb/cy_scb_common.h **** * The pointer to the SCB instance.
1423:Generated_Source\PSoC6\pdl\drivers\peripheral\scb/cy_scb_common.h **** *
1424:Generated_Source\PSoC6\pdl\drivers\peripheral\scb/cy_scb_common.h **** * \return
1425:Generated_Source\PSoC6\pdl\drivers\peripheral\scb/cy_scb_common.h **** * The current status of the I2C interrupt sources. Each constant is a bit
1426:Generated_Source\PSoC6\pdl\drivers\peripheral\scb/cy_scb_common.h **** * field value.
1427:Generated_Source\PSoC6\pdl\drivers\peripheral\scb/cy_scb_common.h **** * The value returned may have multiple bits set to indicate the current status.
1428:Generated_Source\PSoC6\pdl\drivers\peripheral\scb/cy_scb_common.h **** * See \ref group_scb_common_macros_slave_intr for the set of constants.
1429:Generated_Source\PSoC6\pdl\drivers\peripheral\scb/cy_scb_common.h **** *
1430:Generated_Source\PSoC6\pdl\drivers\peripheral\scb/cy_scb_common.h **** *******************************************************************************/
1431:Generated_Source\PSoC6\pdl\drivers\peripheral\scb/cy_scb_common.h **** __STATIC_INLINE uint32_t Cy_SCB_GetI2CInterruptStatus(CySCB_Type const *base)
1432:Generated_Source\PSoC6\pdl\drivers\peripheral\scb/cy_scb_common.h **** {
1433:Generated_Source\PSoC6\pdl\drivers\peripheral\scb/cy_scb_common.h ****     return (base->INTR_I2C_EC & CY_SCB_I2C_INTR_MASK);
1434:Generated_Source\PSoC6\pdl\drivers\peripheral\scb/cy_scb_common.h **** }
1435:Generated_Source\PSoC6\pdl\drivers\peripheral\scb/cy_scb_common.h **** 
1436:Generated_Source\PSoC6\pdl\drivers\peripheral\scb/cy_scb_common.h **** 
1437:Generated_Source\PSoC6\pdl\drivers\peripheral\scb/cy_scb_common.h **** /*******************************************************************************
1438:Generated_Source\PSoC6\pdl\drivers\peripheral\scb/cy_scb_common.h **** * Function Name: Cy_SCB_SetI2CInterruptMask
1439:Generated_Source\PSoC6\pdl\drivers\peripheral\scb/cy_scb_common.h **** ****************************************************************************//**
1440:Generated_Source\PSoC6\pdl\drivers\peripheral\scb/cy_scb_common.h **** *
1441:Generated_Source\PSoC6\pdl\drivers\peripheral\scb/cy_scb_common.h **** * Writes the I2C interrupt mask register. This register specifies which bits
1442:Generated_Source\PSoC6\pdl\drivers\peripheral\scb/cy_scb_common.h **** * from the I2C interrupt request register can trigger an interrupt event.
1443:Generated_Source\PSoC6\pdl\drivers\peripheral\scb/cy_scb_common.h **** *
1444:Generated_Source\PSoC6\pdl\drivers\peripheral\scb/cy_scb_common.h **** * \param base
1445:Generated_Source\PSoC6\pdl\drivers\peripheral\scb/cy_scb_common.h **** * The pointer to the SCB instance.
1446:Generated_Source\PSoC6\pdl\drivers\peripheral\scb/cy_scb_common.h **** *
1447:Generated_Source\PSoC6\pdl\drivers\peripheral\scb/cy_scb_common.h **** * \param interruptMask
1448:Generated_Source\PSoC6\pdl\drivers\peripheral\scb/cy_scb_common.h **** * Enabled I2C interrupt sources.
1449:Generated_Source\PSoC6\pdl\drivers\peripheral\scb/cy_scb_common.h **** * See \ref group_scb_common_macros_i2c_intr for the set of constants.
1450:Generated_Source\PSoC6\pdl\drivers\peripheral\scb/cy_scb_common.h **** *
1451:Generated_Source\PSoC6\pdl\drivers\peripheral\scb/cy_scb_common.h **** *******************************************************************************/
1452:Generated_Source\PSoC6\pdl\drivers\peripheral\scb/cy_scb_common.h **** __STATIC_INLINE void Cy_SCB_SetI2CInterruptMask(CySCB_Type *base, uint32_t interruptMask)
1453:Generated_Source\PSoC6\pdl\drivers\peripheral\scb/cy_scb_common.h **** {
ARM GAS  C:\Users\salaz\AppData\Local\Temp\ccU0pQaU.s 			page 40


 763              		.loc 1 1453 0
 764              		.cfi_startproc
 765              		@ args = 0, pretend = 0, frame = 8
 766              		@ frame_needed = 1, uses_anonymous_args = 0
 767 0000 80B5     		push	{r7, lr}
 768              		.cfi_def_cfa_offset 8
 769              		.cfi_offset 7, -8
 770              		.cfi_offset 14, -4
 771 0002 82B0     		sub	sp, sp, #8
 772              		.cfi_def_cfa_offset 16
 773 0004 00AF     		add	r7, sp, #0
 774              		.cfi_def_cfa_register 7
 775 0006 7860     		str	r0, [r7, #4]
 776 0008 3960     		str	r1, [r7]
1454:Generated_Source\PSoC6\pdl\drivers\peripheral\scb/cy_scb_common.h ****     CY_ASSERT_L2(CY_SCB_IS_INTR_VALID(interruptMask, CY_SCB_I2C_INTR_MASK));
 777              		.loc 1 1454 0
 778 000a 3B68     		ldr	r3, [r7]
 779 000c 0122     		movs	r2, #1
 780 000e 9343     		bics	r3, r2
 781 0010 05D0     		beq	.L54
 782              		.loc 1 1454 0 is_stmt 0 discriminator 1
 783 0012 074A     		ldr	r2, .L55
 784 0014 074B     		ldr	r3, .L55+4
 785 0016 1100     		movs	r1, r2
 786 0018 1800     		movs	r0, r3
 787 001a FFF7FEFF 		bl	Cy_SysLib_AssertFailed
 788              	.L54:
1455:Generated_Source\PSoC6\pdl\drivers\peripheral\scb/cy_scb_common.h **** 
1456:Generated_Source\PSoC6\pdl\drivers\peripheral\scb/cy_scb_common.h ****     base->INTR_I2C_EC_MASK = interruptMask;
 789              		.loc 1 1456 0 is_stmt 1
 790 001e 7B68     		ldr	r3, [r7, #4]
 791 0020 0549     		ldr	r1, .L55+8
 792 0022 3A68     		ldr	r2, [r7]
 793 0024 5A50     		str	r2, [r3, r1]
1457:Generated_Source\PSoC6\pdl\drivers\peripheral\scb/cy_scb_common.h **** }
 794              		.loc 1 1457 0
 795 0026 C046     		nop
 796 0028 BD46     		mov	sp, r7
 797 002a 02B0     		add	sp, sp, #8
 798              		@ sp needed
 799 002c 80BD     		pop	{r7, pc}
 800              	.L56:
 801 002e C046     		.align	2
 802              	.L55:
 803 0030 AE050000 		.word	1454
 804 0034 00000000 		.word	.LC0
 805 0038 880E0000 		.word	3720
 806              		.cfi_endproc
 807              	.LFE107:
 808              		.size	Cy_SCB_SetI2CInterruptMask, .-Cy_SCB_SetI2CInterruptMask
 809              		.section	.text.Cy_SCB_GetI2CInterruptStatusMasked,"ax",%progbits
 810              		.align	2
 811              		.code	16
 812              		.thumb_func
 813              		.type	Cy_SCB_GetI2CInterruptStatusMasked, %function
 814              	Cy_SCB_GetI2CInterruptStatusMasked:
 815              	.LFB109:
ARM GAS  C:\Users\salaz\AppData\Local\Temp\ccU0pQaU.s 			page 41


1458:Generated_Source\PSoC6\pdl\drivers\peripheral\scb/cy_scb_common.h **** 
1459:Generated_Source\PSoC6\pdl\drivers\peripheral\scb/cy_scb_common.h **** 
1460:Generated_Source\PSoC6\pdl\drivers\peripheral\scb/cy_scb_common.h **** /*******************************************************************************
1461:Generated_Source\PSoC6\pdl\drivers\peripheral\scb/cy_scb_common.h **** * Function Name: Cy_SCB_GetI2CInterruptMask
1462:Generated_Source\PSoC6\pdl\drivers\peripheral\scb/cy_scb_common.h **** ****************************************************************************//**
1463:Generated_Source\PSoC6\pdl\drivers\peripheral\scb/cy_scb_common.h **** *
1464:Generated_Source\PSoC6\pdl\drivers\peripheral\scb/cy_scb_common.h **** * Returns the I2C interrupt mask register. This register specifies which bits
1465:Generated_Source\PSoC6\pdl\drivers\peripheral\scb/cy_scb_common.h **** * from the I2C interrupt request register can trigger an interrupt event.
1466:Generated_Source\PSoC6\pdl\drivers\peripheral\scb/cy_scb_common.h **** *
1467:Generated_Source\PSoC6\pdl\drivers\peripheral\scb/cy_scb_common.h **** * \param base
1468:Generated_Source\PSoC6\pdl\drivers\peripheral\scb/cy_scb_common.h **** * The pointer to the SCB instance.
1469:Generated_Source\PSoC6\pdl\drivers\peripheral\scb/cy_scb_common.h **** *
1470:Generated_Source\PSoC6\pdl\drivers\peripheral\scb/cy_scb_common.h **** * \return
1471:Generated_Source\PSoC6\pdl\drivers\peripheral\scb/cy_scb_common.h **** * Enabled I2C interrupt sources.
1472:Generated_Source\PSoC6\pdl\drivers\peripheral\scb/cy_scb_common.h **** * See \ref group_scb_common_macros_i2c_intr.
1473:Generated_Source\PSoC6\pdl\drivers\peripheral\scb/cy_scb_common.h **** *
1474:Generated_Source\PSoC6\pdl\drivers\peripheral\scb/cy_scb_common.h **** *******************************************************************************/
1475:Generated_Source\PSoC6\pdl\drivers\peripheral\scb/cy_scb_common.h **** __STATIC_INLINE uint32_t Cy_SCB_GetI2CInterruptMask(CySCB_Type const *base)
1476:Generated_Source\PSoC6\pdl\drivers\peripheral\scb/cy_scb_common.h **** {
1477:Generated_Source\PSoC6\pdl\drivers\peripheral\scb/cy_scb_common.h ****     return (base->INTR_I2C_EC_MASK);
1478:Generated_Source\PSoC6\pdl\drivers\peripheral\scb/cy_scb_common.h **** }
1479:Generated_Source\PSoC6\pdl\drivers\peripheral\scb/cy_scb_common.h **** 
1480:Generated_Source\PSoC6\pdl\drivers\peripheral\scb/cy_scb_common.h **** 
1481:Generated_Source\PSoC6\pdl\drivers\peripheral\scb/cy_scb_common.h **** /*******************************************************************************
1482:Generated_Source\PSoC6\pdl\drivers\peripheral\scb/cy_scb_common.h **** * Function Name: Cy_SCB_GetI2CInterruptStatusMasked
1483:Generated_Source\PSoC6\pdl\drivers\peripheral\scb/cy_scb_common.h **** ****************************************************************************//**
1484:Generated_Source\PSoC6\pdl\drivers\peripheral\scb/cy_scb_common.h **** *
1485:Generated_Source\PSoC6\pdl\drivers\peripheral\scb/cy_scb_common.h **** * Returns the I2C interrupt masked request register. This register contains
1486:Generated_Source\PSoC6\pdl\drivers\peripheral\scb/cy_scb_common.h **** * a logical AND of corresponding bits from I2C interrupt request and mask
1487:Generated_Source\PSoC6\pdl\drivers\peripheral\scb/cy_scb_common.h **** * registers.
1488:Generated_Source\PSoC6\pdl\drivers\peripheral\scb/cy_scb_common.h **** * This function is intended to be used in the interrupt service routine to
1489:Generated_Source\PSoC6\pdl\drivers\peripheral\scb/cy_scb_common.h **** * identify which of enabled I2C interrupt sources caused the interrupt event.
1490:Generated_Source\PSoC6\pdl\drivers\peripheral\scb/cy_scb_common.h **** *
1491:Generated_Source\PSoC6\pdl\drivers\peripheral\scb/cy_scb_common.h **** * \param base
1492:Generated_Source\PSoC6\pdl\drivers\peripheral\scb/cy_scb_common.h **** * The pointer to the SCB instance.
1493:Generated_Source\PSoC6\pdl\drivers\peripheral\scb/cy_scb_common.h **** *
1494:Generated_Source\PSoC6\pdl\drivers\peripheral\scb/cy_scb_common.h **** * \return
1495:Generated_Source\PSoC6\pdl\drivers\peripheral\scb/cy_scb_common.h **** * The current status of enabled I2C interrupt sources.
1496:Generated_Source\PSoC6\pdl\drivers\peripheral\scb/cy_scb_common.h **** * See \ref group_scb_common_macros_i2c_intr for the set of constants.
1497:Generated_Source\PSoC6\pdl\drivers\peripheral\scb/cy_scb_common.h **** *
1498:Generated_Source\PSoC6\pdl\drivers\peripheral\scb/cy_scb_common.h **** *******************************************************************************/
1499:Generated_Source\PSoC6\pdl\drivers\peripheral\scb/cy_scb_common.h **** __STATIC_INLINE uint32_t Cy_SCB_GetI2CInterruptStatusMasked(CySCB_Type const *base)
1500:Generated_Source\PSoC6\pdl\drivers\peripheral\scb/cy_scb_common.h **** {
 816              		.loc 1 1500 0
 817              		.cfi_startproc
 818              		@ args = 0, pretend = 0, frame = 8
 819              		@ frame_needed = 1, uses_anonymous_args = 0
 820 0000 80B5     		push	{r7, lr}
 821              		.cfi_def_cfa_offset 8
 822              		.cfi_offset 7, -8
 823              		.cfi_offset 14, -4
 824 0002 82B0     		sub	sp, sp, #8
 825              		.cfi_def_cfa_offset 16
 826 0004 00AF     		add	r7, sp, #0
 827              		.cfi_def_cfa_register 7
 828 0006 7860     		str	r0, [r7, #4]
1501:Generated_Source\PSoC6\pdl\drivers\peripheral\scb/cy_scb_common.h ****     return (base->INTR_I2C_EC_MASKED);
ARM GAS  C:\Users\salaz\AppData\Local\Temp\ccU0pQaU.s 			page 42


 829              		.loc 1 1501 0
 830 0008 7B68     		ldr	r3, [r7, #4]
 831 000a 034A     		ldr	r2, .L59
 832 000c 9B58     		ldr	r3, [r3, r2]
1502:Generated_Source\PSoC6\pdl\drivers\peripheral\scb/cy_scb_common.h **** }
 833              		.loc 1 1502 0
 834 000e 1800     		movs	r0, r3
 835 0010 BD46     		mov	sp, r7
 836 0012 02B0     		add	sp, sp, #8
 837              		@ sp needed
 838 0014 80BD     		pop	{r7, pc}
 839              	.L60:
 840 0016 C046     		.align	2
 841              	.L59:
 842 0018 8C0E0000 		.word	3724
 843              		.cfi_endproc
 844              	.LFE109:
 845              		.size	Cy_SCB_GetI2CInterruptStatusMasked, .-Cy_SCB_GetI2CInterruptStatusMasked
 846              		.section	.text.Cy_SCB_ClearI2CInterrupt,"ax",%progbits
 847              		.align	2
 848              		.code	16
 849              		.thumb_func
 850              		.type	Cy_SCB_ClearI2CInterrupt, %function
 851              	Cy_SCB_ClearI2CInterrupt:
 852              	.LFB110:
1503:Generated_Source\PSoC6\pdl\drivers\peripheral\scb/cy_scb_common.h **** 
1504:Generated_Source\PSoC6\pdl\drivers\peripheral\scb/cy_scb_common.h **** 
1505:Generated_Source\PSoC6\pdl\drivers\peripheral\scb/cy_scb_common.h **** /*******************************************************************************
1506:Generated_Source\PSoC6\pdl\drivers\peripheral\scb/cy_scb_common.h **** * Function Name: Cy_SCB_ClearI2CInterrupt
1507:Generated_Source\PSoC6\pdl\drivers\peripheral\scb/cy_scb_common.h **** ****************************************************************************//**
1508:Generated_Source\PSoC6\pdl\drivers\peripheral\scb/cy_scb_common.h **** *
1509:Generated_Source\PSoC6\pdl\drivers\peripheral\scb/cy_scb_common.h **** * Clears I2C interrupt sources in the interrupt request register.
1510:Generated_Source\PSoC6\pdl\drivers\peripheral\scb/cy_scb_common.h **** *
1511:Generated_Source\PSoC6\pdl\drivers\peripheral\scb/cy_scb_common.h **** * \param base
1512:Generated_Source\PSoC6\pdl\drivers\peripheral\scb/cy_scb_common.h **** * The pointer to the SCB instance.
1513:Generated_Source\PSoC6\pdl\drivers\peripheral\scb/cy_scb_common.h **** *
1514:Generated_Source\PSoC6\pdl\drivers\peripheral\scb/cy_scb_common.h **** * \param interruptMask
1515:Generated_Source\PSoC6\pdl\drivers\peripheral\scb/cy_scb_common.h **** * The I2C interrupt sources to be cleared.
1516:Generated_Source\PSoC6\pdl\drivers\peripheral\scb/cy_scb_common.h **** * See \ref group_scb_common_macros_i2c_intr for the set of constants.
1517:Generated_Source\PSoC6\pdl\drivers\peripheral\scb/cy_scb_common.h **** *
1518:Generated_Source\PSoC6\pdl\drivers\peripheral\scb/cy_scb_common.h **** *******************************************************************************/
1519:Generated_Source\PSoC6\pdl\drivers\peripheral\scb/cy_scb_common.h **** __STATIC_INLINE void Cy_SCB_ClearI2CInterrupt(CySCB_Type *base, uint32_t interruptMask)
1520:Generated_Source\PSoC6\pdl\drivers\peripheral\scb/cy_scb_common.h **** {
 853              		.loc 1 1520 0
 854              		.cfi_startproc
 855              		@ args = 0, pretend = 0, frame = 8
 856              		@ frame_needed = 1, uses_anonymous_args = 0
 857 0000 80B5     		push	{r7, lr}
 858              		.cfi_def_cfa_offset 8
 859              		.cfi_offset 7, -8
 860              		.cfi_offset 14, -4
 861 0002 82B0     		sub	sp, sp, #8
 862              		.cfi_def_cfa_offset 16
 863 0004 00AF     		add	r7, sp, #0
 864              		.cfi_def_cfa_register 7
 865 0006 7860     		str	r0, [r7, #4]
 866 0008 3960     		str	r1, [r7]
ARM GAS  C:\Users\salaz\AppData\Local\Temp\ccU0pQaU.s 			page 43


1521:Generated_Source\PSoC6\pdl\drivers\peripheral\scb/cy_scb_common.h ****     CY_ASSERT_L2(CY_SCB_IS_INTR_VALID(interruptMask, CY_SCB_I2C_INTR_MASK));
 867              		.loc 1 1521 0
 868 000a 3B68     		ldr	r3, [r7]
 869 000c 0122     		movs	r2, #1
 870 000e 9343     		bics	r3, r2
 871 0010 05D0     		beq	.L62
 872              		.loc 1 1521 0 is_stmt 0 discriminator 1
 873 0012 094A     		ldr	r2, .L63
 874 0014 094B     		ldr	r3, .L63+4
 875 0016 1100     		movs	r1, r2
 876 0018 1800     		movs	r0, r3
 877 001a FFF7FEFF 		bl	Cy_SysLib_AssertFailed
 878              	.L62:
1522:Generated_Source\PSoC6\pdl\drivers\peripheral\scb/cy_scb_common.h **** 
1523:Generated_Source\PSoC6\pdl\drivers\peripheral\scb/cy_scb_common.h ****     base->INTR_I2C_EC = interruptMask;
 879              		.loc 1 1523 0 is_stmt 1
 880 001e 7A68     		ldr	r2, [r7, #4]
 881 0020 E823     		movs	r3, #232
 882 0022 1B01     		lsls	r3, r3, #4
 883 0024 3968     		ldr	r1, [r7]
 884 0026 D150     		str	r1, [r2, r3]
1524:Generated_Source\PSoC6\pdl\drivers\peripheral\scb/cy_scb_common.h ****     (void) base->INTR_I2C_EC;
 885              		.loc 1 1524 0
 886 0028 7A68     		ldr	r2, [r7, #4]
 887 002a E823     		movs	r3, #232
 888 002c 1B01     		lsls	r3, r3, #4
 889 002e D358     		ldr	r3, [r2, r3]
1525:Generated_Source\PSoC6\pdl\drivers\peripheral\scb/cy_scb_common.h **** }
 890              		.loc 1 1525 0
 891 0030 C046     		nop
 892 0032 BD46     		mov	sp, r7
 893 0034 02B0     		add	sp, sp, #8
 894              		@ sp needed
 895 0036 80BD     		pop	{r7, pc}
 896              	.L64:
 897              		.align	2
 898              	.L63:
 899 0038 F1050000 		.word	1521
 900 003c 00000000 		.word	.LC0
 901              		.cfi_endproc
 902              	.LFE110:
 903              		.size	Cy_SCB_ClearI2CInterrupt, .-Cy_SCB_ClearI2CInterrupt
 904              		.section	.text.Cy_SCB_GetFifoSize,"ax",%progbits
 905              		.align	2
 906              		.code	16
 907              		.thumb_func
 908              		.type	Cy_SCB_GetFifoSize, %function
 909              	Cy_SCB_GetFifoSize:
 910              	.LFB116:
1526:Generated_Source\PSoC6\pdl\drivers\peripheral\scb/cy_scb_common.h **** 
1527:Generated_Source\PSoC6\pdl\drivers\peripheral\scb/cy_scb_common.h **** 
1528:Generated_Source\PSoC6\pdl\drivers\peripheral\scb/cy_scb_common.h **** /*******************************************************************************
1529:Generated_Source\PSoC6\pdl\drivers\peripheral\scb/cy_scb_common.h **** * Function Name: Cy_SCB_GetSpiInterruptStatus
1530:Generated_Source\PSoC6\pdl\drivers\peripheral\scb/cy_scb_common.h **** ****************************************************************************//**
1531:Generated_Source\PSoC6\pdl\drivers\peripheral\scb/cy_scb_common.h **** *
1532:Generated_Source\PSoC6\pdl\drivers\peripheral\scb/cy_scb_common.h **** * Returns the SPI interrupt request register. This register contains the current
1533:Generated_Source\PSoC6\pdl\drivers\peripheral\scb/cy_scb_common.h **** * status of the SPI interrupt sources.
ARM GAS  C:\Users\salaz\AppData\Local\Temp\ccU0pQaU.s 			page 44


1534:Generated_Source\PSoC6\pdl\drivers\peripheral\scb/cy_scb_common.h **** *
1535:Generated_Source\PSoC6\pdl\drivers\peripheral\scb/cy_scb_common.h **** * \param base
1536:Generated_Source\PSoC6\pdl\drivers\peripheral\scb/cy_scb_common.h **** * The pointer to the SCB instance.
1537:Generated_Source\PSoC6\pdl\drivers\peripheral\scb/cy_scb_common.h **** *
1538:Generated_Source\PSoC6\pdl\drivers\peripheral\scb/cy_scb_common.h **** * \return
1539:Generated_Source\PSoC6\pdl\drivers\peripheral\scb/cy_scb_common.h **** * The current status of SPI interrupt sources. Each constant is a bit field value.
1540:Generated_Source\PSoC6\pdl\drivers\peripheral\scb/cy_scb_common.h **** * The value returned may have multiple bits set to indicate the current status
1541:Generated_Source\PSoC6\pdl\drivers\peripheral\scb/cy_scb_common.h **** * See \ref group_scb_common_macros_SpiIntrStatuses for the set of constants.
1542:Generated_Source\PSoC6\pdl\drivers\peripheral\scb/cy_scb_common.h **** *
1543:Generated_Source\PSoC6\pdl\drivers\peripheral\scb/cy_scb_common.h **** *******************************************************************************/
1544:Generated_Source\PSoC6\pdl\drivers\peripheral\scb/cy_scb_common.h **** __STATIC_INLINE uint32_t Cy_SCB_GetSpiInterruptStatus(CySCB_Type const *base)
1545:Generated_Source\PSoC6\pdl\drivers\peripheral\scb/cy_scb_common.h **** {
1546:Generated_Source\PSoC6\pdl\drivers\peripheral\scb/cy_scb_common.h ****     return (base->INTR_SPI_EC & CY_SCB_SPI_INTR_MASK);
1547:Generated_Source\PSoC6\pdl\drivers\peripheral\scb/cy_scb_common.h **** }
1548:Generated_Source\PSoC6\pdl\drivers\peripheral\scb/cy_scb_common.h **** 
1549:Generated_Source\PSoC6\pdl\drivers\peripheral\scb/cy_scb_common.h **** 
1550:Generated_Source\PSoC6\pdl\drivers\peripheral\scb/cy_scb_common.h **** /*******************************************************************************
1551:Generated_Source\PSoC6\pdl\drivers\peripheral\scb/cy_scb_common.h **** * Function Name: Cy_SCB_SetSpiInterruptMask
1552:Generated_Source\PSoC6\pdl\drivers\peripheral\scb/cy_scb_common.h **** ****************************************************************************//**
1553:Generated_Source\PSoC6\pdl\drivers\peripheral\scb/cy_scb_common.h **** *
1554:Generated_Source\PSoC6\pdl\drivers\peripheral\scb/cy_scb_common.h **** * Writes the SPI interrupt mask register. This register specifies which
1555:Generated_Source\PSoC6\pdl\drivers\peripheral\scb/cy_scb_common.h **** * bits from the SPI interrupt request register can trigger an interrupt event.
1556:Generated_Source\PSoC6\pdl\drivers\peripheral\scb/cy_scb_common.h **** *
1557:Generated_Source\PSoC6\pdl\drivers\peripheral\scb/cy_scb_common.h **** * \param base
1558:Generated_Source\PSoC6\pdl\drivers\peripheral\scb/cy_scb_common.h **** * The pointer to the SCB instance.
1559:Generated_Source\PSoC6\pdl\drivers\peripheral\scb/cy_scb_common.h **** *
1560:Generated_Source\PSoC6\pdl\drivers\peripheral\scb/cy_scb_common.h **** * \param interruptMask
1561:Generated_Source\PSoC6\pdl\drivers\peripheral\scb/cy_scb_common.h **** * Enabled SPI interrupt sources.
1562:Generated_Source\PSoC6\pdl\drivers\peripheral\scb/cy_scb_common.h **** * See \ref group_scb_common_macros_SpiIntrStatuses for the set of constants.
1563:Generated_Source\PSoC6\pdl\drivers\peripheral\scb/cy_scb_common.h **** *
1564:Generated_Source\PSoC6\pdl\drivers\peripheral\scb/cy_scb_common.h **** *******************************************************************************/
1565:Generated_Source\PSoC6\pdl\drivers\peripheral\scb/cy_scb_common.h **** __STATIC_INLINE void Cy_SCB_SetSpiInterruptMask(CySCB_Type *base, uint32_t interruptMask)
1566:Generated_Source\PSoC6\pdl\drivers\peripheral\scb/cy_scb_common.h **** {
1567:Generated_Source\PSoC6\pdl\drivers\peripheral\scb/cy_scb_common.h ****     CY_ASSERT_L2(CY_SCB_IS_INTR_VALID(interruptMask, CY_SCB_SPI_INTR_MASK));
1568:Generated_Source\PSoC6\pdl\drivers\peripheral\scb/cy_scb_common.h **** 
1569:Generated_Source\PSoC6\pdl\drivers\peripheral\scb/cy_scb_common.h ****     base->INTR_SPI_EC_MASK = interruptMask;
1570:Generated_Source\PSoC6\pdl\drivers\peripheral\scb/cy_scb_common.h **** }
1571:Generated_Source\PSoC6\pdl\drivers\peripheral\scb/cy_scb_common.h **** 
1572:Generated_Source\PSoC6\pdl\drivers\peripheral\scb/cy_scb_common.h **** 
1573:Generated_Source\PSoC6\pdl\drivers\peripheral\scb/cy_scb_common.h **** /*******************************************************************************
1574:Generated_Source\PSoC6\pdl\drivers\peripheral\scb/cy_scb_common.h **** * Function Name: Cy_SCB_GetSpiInterruptMask
1575:Generated_Source\PSoC6\pdl\drivers\peripheral\scb/cy_scb_common.h **** ****************************************************************************//**
1576:Generated_Source\PSoC6\pdl\drivers\peripheral\scb/cy_scb_common.h **** *
1577:Generated_Source\PSoC6\pdl\drivers\peripheral\scb/cy_scb_common.h **** * Returns the SPI interrupt mask register. This register specifies which bits
1578:Generated_Source\PSoC6\pdl\drivers\peripheral\scb/cy_scb_common.h **** * from the SPI interrupt request register can trigger an interrupt event.
1579:Generated_Source\PSoC6\pdl\drivers\peripheral\scb/cy_scb_common.h **** *
1580:Generated_Source\PSoC6\pdl\drivers\peripheral\scb/cy_scb_common.h **** * \param base
1581:Generated_Source\PSoC6\pdl\drivers\peripheral\scb/cy_scb_common.h **** * The pointer to the SCB instance.
1582:Generated_Source\PSoC6\pdl\drivers\peripheral\scb/cy_scb_common.h **** *
1583:Generated_Source\PSoC6\pdl\drivers\peripheral\scb/cy_scb_common.h **** * \return
1584:Generated_Source\PSoC6\pdl\drivers\peripheral\scb/cy_scb_common.h **** * Enabled SPI interrupt sources.
1585:Generated_Source\PSoC6\pdl\drivers\peripheral\scb/cy_scb_common.h **** * See \ref group_scb_common_macros_SpiIntrStatuses for the set of constants.
1586:Generated_Source\PSoC6\pdl\drivers\peripheral\scb/cy_scb_common.h **** *
1587:Generated_Source\PSoC6\pdl\drivers\peripheral\scb/cy_scb_common.h **** *******************************************************************************/
1588:Generated_Source\PSoC6\pdl\drivers\peripheral\scb/cy_scb_common.h **** __STATIC_INLINE uint32_t Cy_SCB_GetSpiInterruptMask(CySCB_Type const *base)
1589:Generated_Source\PSoC6\pdl\drivers\peripheral\scb/cy_scb_common.h **** {
1590:Generated_Source\PSoC6\pdl\drivers\peripheral\scb/cy_scb_common.h ****     return (base->INTR_SPI_EC_MASK);
ARM GAS  C:\Users\salaz\AppData\Local\Temp\ccU0pQaU.s 			page 45


1591:Generated_Source\PSoC6\pdl\drivers\peripheral\scb/cy_scb_common.h **** }
1592:Generated_Source\PSoC6\pdl\drivers\peripheral\scb/cy_scb_common.h **** 
1593:Generated_Source\PSoC6\pdl\drivers\peripheral\scb/cy_scb_common.h **** 
1594:Generated_Source\PSoC6\pdl\drivers\peripheral\scb/cy_scb_common.h **** /*******************************************************************************
1595:Generated_Source\PSoC6\pdl\drivers\peripheral\scb/cy_scb_common.h **** * Function Name: Cy_SCB_GetSpiInterruptStatusMasked
1596:Generated_Source\PSoC6\pdl\drivers\peripheral\scb/cy_scb_common.h **** ****************************************************************************//**
1597:Generated_Source\PSoC6\pdl\drivers\peripheral\scb/cy_scb_common.h **** *
1598:Generated_Source\PSoC6\pdl\drivers\peripheral\scb/cy_scb_common.h **** * Returns the SPI interrupt masked request register. This register contains
1599:Generated_Source\PSoC6\pdl\drivers\peripheral\scb/cy_scb_common.h **** * a logical AND of corresponding bits from the SPI interrupt request and
1600:Generated_Source\PSoC6\pdl\drivers\peripheral\scb/cy_scb_common.h **** * mask registers.
1601:Generated_Source\PSoC6\pdl\drivers\peripheral\scb/cy_scb_common.h **** * This function is intended to be used in the interrupt service routine to
1602:Generated_Source\PSoC6\pdl\drivers\peripheral\scb/cy_scb_common.h **** * identify which of enabled SPI interrupt sources caused the interrupt event.
1603:Generated_Source\PSoC6\pdl\drivers\peripheral\scb/cy_scb_common.h **** *
1604:Generated_Source\PSoC6\pdl\drivers\peripheral\scb/cy_scb_common.h **** * \param base
1605:Generated_Source\PSoC6\pdl\drivers\peripheral\scb/cy_scb_common.h **** * The pointer to the SCB instance.
1606:Generated_Source\PSoC6\pdl\drivers\peripheral\scb/cy_scb_common.h **** *
1607:Generated_Source\PSoC6\pdl\drivers\peripheral\scb/cy_scb_common.h **** * \return
1608:Generated_Source\PSoC6\pdl\drivers\peripheral\scb/cy_scb_common.h **** * The current status of enabled SPI interrupt sources.
1609:Generated_Source\PSoC6\pdl\drivers\peripheral\scb/cy_scb_common.h **** * See \ref group_scb_common_macros_SpiIntrStatuses for the set of constants.
1610:Generated_Source\PSoC6\pdl\drivers\peripheral\scb/cy_scb_common.h **** *
1611:Generated_Source\PSoC6\pdl\drivers\peripheral\scb/cy_scb_common.h **** *******************************************************************************/
1612:Generated_Source\PSoC6\pdl\drivers\peripheral\scb/cy_scb_common.h **** __STATIC_INLINE uint32_t Cy_SCB_GetSpiInterruptStatusMasked(CySCB_Type const *base)
1613:Generated_Source\PSoC6\pdl\drivers\peripheral\scb/cy_scb_common.h **** {
1614:Generated_Source\PSoC6\pdl\drivers\peripheral\scb/cy_scb_common.h ****     return (base->INTR_SPI_EC_MASKED);
1615:Generated_Source\PSoC6\pdl\drivers\peripheral\scb/cy_scb_common.h **** }
1616:Generated_Source\PSoC6\pdl\drivers\peripheral\scb/cy_scb_common.h **** 
1617:Generated_Source\PSoC6\pdl\drivers\peripheral\scb/cy_scb_common.h **** 
1618:Generated_Source\PSoC6\pdl\drivers\peripheral\scb/cy_scb_common.h **** /*******************************************************************************
1619:Generated_Source\PSoC6\pdl\drivers\peripheral\scb/cy_scb_common.h **** * Function Name: Cy_SCB_ClearSpiInterrupt
1620:Generated_Source\PSoC6\pdl\drivers\peripheral\scb/cy_scb_common.h **** ****************************************************************************//**
1621:Generated_Source\PSoC6\pdl\drivers\peripheral\scb/cy_scb_common.h **** *
1622:Generated_Source\PSoC6\pdl\drivers\peripheral\scb/cy_scb_common.h **** * Clears SPI interrupt sources in the interrupt request register.
1623:Generated_Source\PSoC6\pdl\drivers\peripheral\scb/cy_scb_common.h **** *
1624:Generated_Source\PSoC6\pdl\drivers\peripheral\scb/cy_scb_common.h **** * \param base
1625:Generated_Source\PSoC6\pdl\drivers\peripheral\scb/cy_scb_common.h **** * The pointer to the SCB instance.
1626:Generated_Source\PSoC6\pdl\drivers\peripheral\scb/cy_scb_common.h **** *
1627:Generated_Source\PSoC6\pdl\drivers\peripheral\scb/cy_scb_common.h **** * \param interruptMask
1628:Generated_Source\PSoC6\pdl\drivers\peripheral\scb/cy_scb_common.h **** * The SPI interrupt sources to be cleared.
1629:Generated_Source\PSoC6\pdl\drivers\peripheral\scb/cy_scb_common.h **** * See \ref group_scb_common_macros_SpiIntrStatuses for the set of constants.
1630:Generated_Source\PSoC6\pdl\drivers\peripheral\scb/cy_scb_common.h **** *
1631:Generated_Source\PSoC6\pdl\drivers\peripheral\scb/cy_scb_common.h **** *******************************************************************************/
1632:Generated_Source\PSoC6\pdl\drivers\peripheral\scb/cy_scb_common.h **** __STATIC_INLINE void Cy_SCB_ClearSpiInterrupt(CySCB_Type *base, uint32_t interruptMask)
1633:Generated_Source\PSoC6\pdl\drivers\peripheral\scb/cy_scb_common.h **** {
1634:Generated_Source\PSoC6\pdl\drivers\peripheral\scb/cy_scb_common.h ****     CY_ASSERT_L2(CY_SCB_IS_INTR_VALID(interruptMask, CY_SCB_SPI_INTR_MASK));
1635:Generated_Source\PSoC6\pdl\drivers\peripheral\scb/cy_scb_common.h **** 
1636:Generated_Source\PSoC6\pdl\drivers\peripheral\scb/cy_scb_common.h ****     base->INTR_SPI_EC = interruptMask;
1637:Generated_Source\PSoC6\pdl\drivers\peripheral\scb/cy_scb_common.h ****     (void) base->INTR_SPI_EC;
1638:Generated_Source\PSoC6\pdl\drivers\peripheral\scb/cy_scb_common.h **** }
1639:Generated_Source\PSoC6\pdl\drivers\peripheral\scb/cy_scb_common.h **** 
1640:Generated_Source\PSoC6\pdl\drivers\peripheral\scb/cy_scb_common.h **** /** \cond INTERNAL */
1641:Generated_Source\PSoC6\pdl\drivers\peripheral\scb/cy_scb_common.h **** /*******************************************************************************
1642:Generated_Source\PSoC6\pdl\drivers\peripheral\scb/cy_scb_common.h **** * Function Name: Cy_SCB_GetFifoSize
1643:Generated_Source\PSoC6\pdl\drivers\peripheral\scb/cy_scb_common.h **** ****************************************************************************//**
1644:Generated_Source\PSoC6\pdl\drivers\peripheral\scb/cy_scb_common.h **** *
1645:Generated_Source\PSoC6\pdl\drivers\peripheral\scb/cy_scb_common.h **** * Returns the RX and TX FIFO depth.
1646:Generated_Source\PSoC6\pdl\drivers\peripheral\scb/cy_scb_common.h **** *
1647:Generated_Source\PSoC6\pdl\drivers\peripheral\scb/cy_scb_common.h **** * \param base
ARM GAS  C:\Users\salaz\AppData\Local\Temp\ccU0pQaU.s 			page 46


1648:Generated_Source\PSoC6\pdl\drivers\peripheral\scb/cy_scb_common.h **** * The pointer to the SCB instance.
1649:Generated_Source\PSoC6\pdl\drivers\peripheral\scb/cy_scb_common.h **** *
1650:Generated_Source\PSoC6\pdl\drivers\peripheral\scb/cy_scb_common.h **** * \return
1651:Generated_Source\PSoC6\pdl\drivers\peripheral\scb/cy_scb_common.h **** * FIFO depth.
1652:Generated_Source\PSoC6\pdl\drivers\peripheral\scb/cy_scb_common.h **** *
1653:Generated_Source\PSoC6\pdl\drivers\peripheral\scb/cy_scb_common.h **** *******************************************************************************/
1654:Generated_Source\PSoC6\pdl\drivers\peripheral\scb/cy_scb_common.h **** __STATIC_INLINE uint32_t Cy_SCB_GetFifoSize(CySCB_Type const *base)
1655:Generated_Source\PSoC6\pdl\drivers\peripheral\scb/cy_scb_common.h **** {
 911              		.loc 1 1655 0
 912              		.cfi_startproc
 913              		@ args = 0, pretend = 0, frame = 8
 914              		@ frame_needed = 1, uses_anonymous_args = 0
 915 0000 80B5     		push	{r7, lr}
 916              		.cfi_def_cfa_offset 8
 917              		.cfi_offset 7, -8
 918              		.cfi_offset 14, -4
 919 0002 82B0     		sub	sp, sp, #8
 920              		.cfi_def_cfa_offset 16
 921 0004 00AF     		add	r7, sp, #0
 922              		.cfi_def_cfa_register 7
 923 0006 7860     		str	r0, [r7, #4]
1656:Generated_Source\PSoC6\pdl\drivers\peripheral\scb/cy_scb_common.h ****     return (_FLD2BOOL(SCB_CTRL_BYTE_MODE, base->CTRL) ?
 924              		.loc 1 1656 0
 925 0008 7B68     		ldr	r3, [r7, #4]
 926 000a 1A68     		ldr	r2, [r3]
 927 000c 8023     		movs	r3, #128
 928 000e 1B01     		lsls	r3, r3, #4
 929 0010 1340     		ands	r3, r2
1657:Generated_Source\PSoC6\pdl\drivers\peripheral\scb/cy_scb_common.h ****                 (CY_SCB_FIFO_SIZE(base)) : (CY_SCB_FIFO_SIZE(base) / 2UL));
 930              		.loc 1 1657 0
 931 0012 01D0     		beq	.L66
 932              		.loc 1 1657 0 is_stmt 0 discriminator 1
 933 0014 8023     		movs	r3, #128
1656:Generated_Source\PSoC6\pdl\drivers\peripheral\scb/cy_scb_common.h ****     return (_FLD2BOOL(SCB_CTRL_BYTE_MODE, base->CTRL) ?
 934              		.loc 1 1656 0 is_stmt 1 discriminator 1
 935 0016 00E0     		b	.L68
 936              	.L66:
 937              		.loc 1 1657 0 discriminator 2
 938 0018 4023     		movs	r3, #64
 939              	.L68:
1658:Generated_Source\PSoC6\pdl\drivers\peripheral\scb/cy_scb_common.h **** }
 940              		.loc 1 1658 0 discriminator 1
 941 001a 1800     		movs	r0, r3
 942 001c BD46     		mov	sp, r7
 943 001e 02B0     		add	sp, sp, #8
 944              		@ sp needed
 945 0020 80BD     		pop	{r7, pc}
 946              		.cfi_endproc
 947              	.LFE116:
 948              		.size	Cy_SCB_GetFifoSize, .-Cy_SCB_GetFifoSize
 949 0022 C046     		.section	.text.Cy_SCB_FwBlockReset,"ax",%progbits
 950              		.align	2
 951              		.code	16
 952              		.thumb_func
 953              		.type	Cy_SCB_FwBlockReset, %function
 954              	Cy_SCB_FwBlockReset:
 955              	.LFB119:
ARM GAS  C:\Users\salaz\AppData\Local\Temp\ccU0pQaU.s 			page 47


1659:Generated_Source\PSoC6\pdl\drivers\peripheral\scb/cy_scb_common.h **** 
1660:Generated_Source\PSoC6\pdl\drivers\peripheral\scb/cy_scb_common.h **** 
1661:Generated_Source\PSoC6\pdl\drivers\peripheral\scb/cy_scb_common.h **** /*******************************************************************************
1662:Generated_Source\PSoC6\pdl\drivers\peripheral\scb/cy_scb_common.h **** * Function Name: Cy_SCB_IsRxDataWidthByte
1663:Generated_Source\PSoC6\pdl\drivers\peripheral\scb/cy_scb_common.h **** ****************************************************************************//**
1664:Generated_Source\PSoC6\pdl\drivers\peripheral\scb/cy_scb_common.h **** *
1665:Generated_Source\PSoC6\pdl\drivers\peripheral\scb/cy_scb_common.h **** * Returns true if the RX data width is a byte (8 bits).
1666:Generated_Source\PSoC6\pdl\drivers\peripheral\scb/cy_scb_common.h **** *
1667:Generated_Source\PSoC6\pdl\drivers\peripheral\scb/cy_scb_common.h **** * \param base
1668:Generated_Source\PSoC6\pdl\drivers\peripheral\scb/cy_scb_common.h **** * The pointer to the SCB instance.
1669:Generated_Source\PSoC6\pdl\drivers\peripheral\scb/cy_scb_common.h **** *
1670:Generated_Source\PSoC6\pdl\drivers\peripheral\scb/cy_scb_common.h **** * \return
1671:Generated_Source\PSoC6\pdl\drivers\peripheral\scb/cy_scb_common.h **** * True if the RX data width is a byte (8 bits).
1672:Generated_Source\PSoC6\pdl\drivers\peripheral\scb/cy_scb_common.h **** *
1673:Generated_Source\PSoC6\pdl\drivers\peripheral\scb/cy_scb_common.h **** *******************************************************************************/
1674:Generated_Source\PSoC6\pdl\drivers\peripheral\scb/cy_scb_common.h **** __STATIC_INLINE bool Cy_SCB_IsRxDataWidthByte(CySCB_Type const *base)
1675:Generated_Source\PSoC6\pdl\drivers\peripheral\scb/cy_scb_common.h **** {
1676:Generated_Source\PSoC6\pdl\drivers\peripheral\scb/cy_scb_common.h ****     return (_FLD2VAL(SCB_RX_CTRL_DATA_WIDTH, base->RX_CTRL) < CY_SCB_BYTE_WIDTH);
1677:Generated_Source\PSoC6\pdl\drivers\peripheral\scb/cy_scb_common.h **** }
1678:Generated_Source\PSoC6\pdl\drivers\peripheral\scb/cy_scb_common.h **** 
1679:Generated_Source\PSoC6\pdl\drivers\peripheral\scb/cy_scb_common.h **** 
1680:Generated_Source\PSoC6\pdl\drivers\peripheral\scb/cy_scb_common.h **** /*******************************************************************************
1681:Generated_Source\PSoC6\pdl\drivers\peripheral\scb/cy_scb_common.h **** * Function Name: Cy_SCB_IsTxDataWidthByte
1682:Generated_Source\PSoC6\pdl\drivers\peripheral\scb/cy_scb_common.h **** ****************************************************************************//**
1683:Generated_Source\PSoC6\pdl\drivers\peripheral\scb/cy_scb_common.h **** *
1684:Generated_Source\PSoC6\pdl\drivers\peripheral\scb/cy_scb_common.h **** * Returns true if the TX data width is a byte (8 bits).
1685:Generated_Source\PSoC6\pdl\drivers\peripheral\scb/cy_scb_common.h **** *
1686:Generated_Source\PSoC6\pdl\drivers\peripheral\scb/cy_scb_common.h **** * \param base
1687:Generated_Source\PSoC6\pdl\drivers\peripheral\scb/cy_scb_common.h **** * The pointer to the SCB instance.
1688:Generated_Source\PSoC6\pdl\drivers\peripheral\scb/cy_scb_common.h **** *
1689:Generated_Source\PSoC6\pdl\drivers\peripheral\scb/cy_scb_common.h **** * \return
1690:Generated_Source\PSoC6\pdl\drivers\peripheral\scb/cy_scb_common.h **** * If true, the TX data width is a byte (8 bits). Otherwise, false.
1691:Generated_Source\PSoC6\pdl\drivers\peripheral\scb/cy_scb_common.h **** *
1692:Generated_Source\PSoC6\pdl\drivers\peripheral\scb/cy_scb_common.h **** *******************************************************************************/
1693:Generated_Source\PSoC6\pdl\drivers\peripheral\scb/cy_scb_common.h **** __STATIC_INLINE bool Cy_SCB_IsTxDataWidthByte(CySCB_Type const *base)
1694:Generated_Source\PSoC6\pdl\drivers\peripheral\scb/cy_scb_common.h **** {
1695:Generated_Source\PSoC6\pdl\drivers\peripheral\scb/cy_scb_common.h ****     return (_FLD2VAL(SCB_TX_CTRL_DATA_WIDTH, base->TX_CTRL) < CY_SCB_BYTE_WIDTH);
1696:Generated_Source\PSoC6\pdl\drivers\peripheral\scb/cy_scb_common.h **** }
1697:Generated_Source\PSoC6\pdl\drivers\peripheral\scb/cy_scb_common.h **** 
1698:Generated_Source\PSoC6\pdl\drivers\peripheral\scb/cy_scb_common.h **** 
1699:Generated_Source\PSoC6\pdl\drivers\peripheral\scb/cy_scb_common.h **** /*******************************************************************************
1700:Generated_Source\PSoC6\pdl\drivers\peripheral\scb/cy_scb_common.h **** * Function Name: Cy_SCB_FwBlockReset
1701:Generated_Source\PSoC6\pdl\drivers\peripheral\scb/cy_scb_common.h **** ****************************************************************************//**
1702:Generated_Source\PSoC6\pdl\drivers\peripheral\scb/cy_scb_common.h **** *
1703:Generated_Source\PSoC6\pdl\drivers\peripheral\scb/cy_scb_common.h **** * Disables and enables the block to return it into the known state (default):
1704:Generated_Source\PSoC6\pdl\drivers\peripheral\scb/cy_scb_common.h **** * FIFOs and interrupt statuses are cleared.
1705:Generated_Source\PSoC6\pdl\drivers\peripheral\scb/cy_scb_common.h **** *
1706:Generated_Source\PSoC6\pdl\drivers\peripheral\scb/cy_scb_common.h **** * \param base
1707:Generated_Source\PSoC6\pdl\drivers\peripheral\scb/cy_scb_common.h **** * The pointer to the SCB instance.
1708:Generated_Source\PSoC6\pdl\drivers\peripheral\scb/cy_scb_common.h **** *
1709:Generated_Source\PSoC6\pdl\drivers\peripheral\scb/cy_scb_common.h **** *******************************************************************************/
1710:Generated_Source\PSoC6\pdl\drivers\peripheral\scb/cy_scb_common.h **** __STATIC_INLINE void Cy_SCB_FwBlockReset(CySCB_Type *base)
1711:Generated_Source\PSoC6\pdl\drivers\peripheral\scb/cy_scb_common.h **** {
 956              		.loc 1 1711 0
 957              		.cfi_startproc
 958              		@ args = 0, pretend = 0, frame = 8
 959              		@ frame_needed = 1, uses_anonymous_args = 0
ARM GAS  C:\Users\salaz\AppData\Local\Temp\ccU0pQaU.s 			page 48


 960 0000 80B5     		push	{r7, lr}
 961              		.cfi_def_cfa_offset 8
 962              		.cfi_offset 7, -8
 963              		.cfi_offset 14, -4
 964 0002 82B0     		sub	sp, sp, #8
 965              		.cfi_def_cfa_offset 16
 966 0004 00AF     		add	r7, sp, #0
 967              		.cfi_def_cfa_register 7
 968 0006 7860     		str	r0, [r7, #4]
1712:Generated_Source\PSoC6\pdl\drivers\peripheral\scb/cy_scb_common.h ****     base->CTRL &= (uint32_t) ~SCB_CTRL_ENABLED_Msk;
 969              		.loc 1 1712 0
 970 0008 7B68     		ldr	r3, [r7, #4]
 971 000a 1B68     		ldr	r3, [r3]
 972 000c 5B00     		lsls	r3, r3, #1
 973 000e 5A08     		lsrs	r2, r3, #1
 974 0010 7B68     		ldr	r3, [r7, #4]
 975 0012 1A60     		str	r2, [r3]
1713:Generated_Source\PSoC6\pdl\drivers\peripheral\scb/cy_scb_common.h **** 
1714:Generated_Source\PSoC6\pdl\drivers\peripheral\scb/cy_scb_common.h ****     /* Clean-up command registers */
1715:Generated_Source\PSoC6\pdl\drivers\peripheral\scb/cy_scb_common.h ****     base->I2C_M_CMD = 0UL;
 976              		.loc 1 1715 0
 977 0014 7B68     		ldr	r3, [r7, #4]
 978 0016 0022     		movs	r2, #0
 979 0018 9A66     		str	r2, [r3, #104]
1716:Generated_Source\PSoC6\pdl\drivers\peripheral\scb/cy_scb_common.h ****     base->I2C_S_CMD = 0UL;
 980              		.loc 1 1716 0
 981 001a 7B68     		ldr	r3, [r7, #4]
 982 001c 0022     		movs	r2, #0
 983 001e DA66     		str	r2, [r3, #108]
1717:Generated_Source\PSoC6\pdl\drivers\peripheral\scb/cy_scb_common.h **** 
1718:Generated_Source\PSoC6\pdl\drivers\peripheral\scb/cy_scb_common.h ****     base->CTRL |= (uint32_t)  SCB_CTRL_ENABLED_Msk;
 984              		.loc 1 1718 0
 985 0020 7B68     		ldr	r3, [r7, #4]
 986 0022 1B68     		ldr	r3, [r3]
 987 0024 8022     		movs	r2, #128
 988 0026 1206     		lsls	r2, r2, #24
 989 0028 1A43     		orrs	r2, r3
 990 002a 7B68     		ldr	r3, [r7, #4]
 991 002c 1A60     		str	r2, [r3]
1719:Generated_Source\PSoC6\pdl\drivers\peripheral\scb/cy_scb_common.h **** 
1720:Generated_Source\PSoC6\pdl\drivers\peripheral\scb/cy_scb_common.h ****     (void) base->CTRL;
 992              		.loc 1 1720 0
 993 002e 7B68     		ldr	r3, [r7, #4]
 994 0030 1B68     		ldr	r3, [r3]
1721:Generated_Source\PSoC6\pdl\drivers\peripheral\scb/cy_scb_common.h **** }
 995              		.loc 1 1721 0
 996 0032 C046     		nop
 997 0034 BD46     		mov	sp, r7
 998 0036 02B0     		add	sp, sp, #8
 999              		@ sp needed
 1000 0038 80BD     		pop	{r7, pc}
 1001              		.cfi_endproc
 1002              	.LFE119:
 1003              		.size	Cy_SCB_FwBlockReset, .-Cy_SCB_FwBlockReset
 1004 003a C046     		.section	.text.Cy_SCB_GetRxFifoLevel,"ax",%progbits
 1005              		.align	2
 1006              		.code	16
ARM GAS  C:\Users\salaz\AppData\Local\Temp\ccU0pQaU.s 			page 49


 1007              		.thumb_func
 1008              		.type	Cy_SCB_GetRxFifoLevel, %function
 1009              	Cy_SCB_GetRxFifoLevel:
 1010              	.LFB120:
1722:Generated_Source\PSoC6\pdl\drivers\peripheral\scb/cy_scb_common.h **** 
1723:Generated_Source\PSoC6\pdl\drivers\peripheral\scb/cy_scb_common.h **** 
1724:Generated_Source\PSoC6\pdl\drivers\peripheral\scb/cy_scb_common.h **** /*******************************************************************************
1725:Generated_Source\PSoC6\pdl\drivers\peripheral\scb/cy_scb_common.h **** * Function Name: Cy_SCB_GetRxFifoLevel
1726:Generated_Source\PSoC6\pdl\drivers\peripheral\scb/cy_scb_common.h **** ****************************************************************************//**
1727:Generated_Source\PSoC6\pdl\drivers\peripheral\scb/cy_scb_common.h **** *
1728:Generated_Source\PSoC6\pdl\drivers\peripheral\scb/cy_scb_common.h **** * Returns the RX FIFO level when there are more words in the RX FIFO than the
1729:Generated_Source\PSoC6\pdl\drivers\peripheral\scb/cy_scb_common.h **** * level, the RX FIFO level interrupt is triggered.
1730:Generated_Source\PSoC6\pdl\drivers\peripheral\scb/cy_scb_common.h **** *
1731:Generated_Source\PSoC6\pdl\drivers\peripheral\scb/cy_scb_common.h **** * \param base
1732:Generated_Source\PSoC6\pdl\drivers\peripheral\scb/cy_scb_common.h **** * The pointer to the SCB instance.
1733:Generated_Source\PSoC6\pdl\drivers\peripheral\scb/cy_scb_common.h **** *
1734:Generated_Source\PSoC6\pdl\drivers\peripheral\scb/cy_scb_common.h **** * \return
1735:Generated_Source\PSoC6\pdl\drivers\peripheral\scb/cy_scb_common.h **** * RX FIFO level.
1736:Generated_Source\PSoC6\pdl\drivers\peripheral\scb/cy_scb_common.h **** *
1737:Generated_Source\PSoC6\pdl\drivers\peripheral\scb/cy_scb_common.h **** *******************************************************************************/
1738:Generated_Source\PSoC6\pdl\drivers\peripheral\scb/cy_scb_common.h **** __STATIC_INLINE uint32_t Cy_SCB_GetRxFifoLevel(CySCB_Type const *base)
1739:Generated_Source\PSoC6\pdl\drivers\peripheral\scb/cy_scb_common.h **** {
 1011              		.loc 1 1739 0
 1012              		.cfi_startproc
 1013              		@ args = 0, pretend = 0, frame = 8
 1014              		@ frame_needed = 1, uses_anonymous_args = 0
 1015 0000 80B5     		push	{r7, lr}
 1016              		.cfi_def_cfa_offset 8
 1017              		.cfi_offset 7, -8
 1018              		.cfi_offset 14, -4
 1019 0002 82B0     		sub	sp, sp, #8
 1020              		.cfi_def_cfa_offset 16
 1021 0004 00AF     		add	r7, sp, #0
 1022              		.cfi_def_cfa_register 7
 1023 0006 7860     		str	r0, [r7, #4]
1740:Generated_Source\PSoC6\pdl\drivers\peripheral\scb/cy_scb_common.h ****     return _FLD2VAL(SCB_RX_FIFO_CTRL_TRIGGER_LEVEL, base->RX_FIFO_CTRL);
 1024              		.loc 1 1740 0
 1025 0008 7A68     		ldr	r2, [r7, #4]
 1026 000a C123     		movs	r3, #193
 1027 000c 9B00     		lsls	r3, r3, #2
 1028 000e D358     		ldr	r3, [r2, r3]
 1029 0010 FF22     		movs	r2, #255
 1030 0012 1340     		ands	r3, r2
1741:Generated_Source\PSoC6\pdl\drivers\peripheral\scb/cy_scb_common.h **** }
 1031              		.loc 1 1741 0
 1032 0014 1800     		movs	r0, r3
 1033 0016 BD46     		mov	sp, r7
 1034 0018 02B0     		add	sp, sp, #8
 1035              		@ sp needed
 1036 001a 80BD     		pop	{r7, pc}
 1037              		.cfi_endproc
 1038              	.LFE120:
 1039              		.size	Cy_SCB_GetRxFifoLevel, .-Cy_SCB_GetRxFifoLevel
 1040              		.section	.text.Cy_SCB_EZI2C_Enable,"ax",%progbits
 1041              		.align	2
 1042              		.code	16
 1043              		.thumb_func
ARM GAS  C:\Users\salaz\AppData\Local\Temp\ccU0pQaU.s 			page 50


 1044              		.type	Cy_SCB_EZI2C_Enable, %function
 1045              	Cy_SCB_EZI2C_Enable:
 1046              	.LFB121:
 1047              		.file 2 "Generated_Source\\PSoC6\\pdl\\drivers\\peripheral\\scb\\cy_scb_ezi2c.h"
   1:Generated_Source\PSoC6\pdl\drivers\peripheral\scb/cy_scb_ezi2c.h **** /***************************************************************************//**
   2:Generated_Source\PSoC6\pdl\drivers\peripheral\scb/cy_scb_ezi2c.h **** * \file cy_scb_ezi2c.h
   3:Generated_Source\PSoC6\pdl\drivers\peripheral\scb/cy_scb_ezi2c.h **** * \version 2.10
   4:Generated_Source\PSoC6\pdl\drivers\peripheral\scb/cy_scb_ezi2c.h **** *
   5:Generated_Source\PSoC6\pdl\drivers\peripheral\scb/cy_scb_ezi2c.h **** * Provides EZI2C API declarations of the SCB driver.
   6:Generated_Source\PSoC6\pdl\drivers\peripheral\scb/cy_scb_ezi2c.h **** *
   7:Generated_Source\PSoC6\pdl\drivers\peripheral\scb/cy_scb_ezi2c.h **** ********************************************************************************
   8:Generated_Source\PSoC6\pdl\drivers\peripheral\scb/cy_scb_ezi2c.h **** * \copyright
   9:Generated_Source\PSoC6\pdl\drivers\peripheral\scb/cy_scb_ezi2c.h **** * Copyright 2016-2018, Cypress Semiconductor Corporation.  All rights reserved.
  10:Generated_Source\PSoC6\pdl\drivers\peripheral\scb/cy_scb_ezi2c.h **** * You may use this file only in accordance with the license, terms, conditions,
  11:Generated_Source\PSoC6\pdl\drivers\peripheral\scb/cy_scb_ezi2c.h **** * disclaimers, and limitations in the end user license agreement accompanying
  12:Generated_Source\PSoC6\pdl\drivers\peripheral\scb/cy_scb_ezi2c.h **** * the software package with which this file was provided.
  13:Generated_Source\PSoC6\pdl\drivers\peripheral\scb/cy_scb_ezi2c.h **** *******************************************************************************/
  14:Generated_Source\PSoC6\pdl\drivers\peripheral\scb/cy_scb_ezi2c.h **** 
  15:Generated_Source\PSoC6\pdl\drivers\peripheral\scb/cy_scb_ezi2c.h **** /**
  16:Generated_Source\PSoC6\pdl\drivers\peripheral\scb/cy_scb_ezi2c.h **** * \addtogroup group_scb_ezi2c
  17:Generated_Source\PSoC6\pdl\drivers\peripheral\scb/cy_scb_ezi2c.h **** * \{
  18:Generated_Source\PSoC6\pdl\drivers\peripheral\scb/cy_scb_ezi2c.h **** * Driver API for EZI2C Slave Peripheral
  19:Generated_Source\PSoC6\pdl\drivers\peripheral\scb/cy_scb_ezi2c.h **** *
  20:Generated_Source\PSoC6\pdl\drivers\peripheral\scb/cy_scb_ezi2c.h **** * I2C - The Inter-Integrated Circuit (I2C) bus is an industry-standard.
  21:Generated_Source\PSoC6\pdl\drivers\peripheral\scb/cy_scb_ezi2c.h **** * The two-wire hardware interface was developed by Philips Semiconductors
  22:Generated_Source\PSoC6\pdl\drivers\peripheral\scb/cy_scb_ezi2c.h **** * (now NXP Semiconductors).
  23:Generated_Source\PSoC6\pdl\drivers\peripheral\scb/cy_scb_ezi2c.h **** *
  24:Generated_Source\PSoC6\pdl\drivers\peripheral\scb/cy_scb_ezi2c.h **** * The EZI2C slave peripheral driver provides an API to implement the I2C slave
  25:Generated_Source\PSoC6\pdl\drivers\peripheral\scb/cy_scb_ezi2c.h **** * device based on the SCB hardware block. This slave device emulates a common
  26:Generated_Source\PSoC6\pdl\drivers\peripheral\scb/cy_scb_ezi2c.h **** * I2C EEPROM interface that acts like dual-port memory between the external
  27:Generated_Source\PSoC6\pdl\drivers\peripheral\scb/cy_scb_ezi2c.h **** * master and your code. I2C devices based on the SCB hardware are compatible
  28:Generated_Source\PSoC6\pdl\drivers\peripheral\scb/cy_scb_ezi2c.h **** * with the I2C Standard mode, Fast mode, and Fast mode Plus specifications, as
  29:Generated_Source\PSoC6\pdl\drivers\peripheral\scb/cy_scb_ezi2c.h **** * defined in the I2C bus specification.
  30:Generated_Source\PSoC6\pdl\drivers\peripheral\scb/cy_scb_ezi2c.h **** *
  31:Generated_Source\PSoC6\pdl\drivers\peripheral\scb/cy_scb_ezi2c.h **** * Features:
  32:Generated_Source\PSoC6\pdl\drivers\peripheral\scb/cy_scb_ezi2c.h **** * * An industry-standard I2C bus interface
  33:Generated_Source\PSoC6\pdl\drivers\peripheral\scb/cy_scb_ezi2c.h **** * * Supports standard data rates of 100/400/1000 kbps
  34:Generated_Source\PSoC6\pdl\drivers\peripheral\scb/cy_scb_ezi2c.h **** * * Emulates a common I2C EEPROM Interface
  35:Generated_Source\PSoC6\pdl\drivers\peripheral\scb/cy_scb_ezi2c.h **** * * Acts like dual-port memory between the external master and your code
  36:Generated_Source\PSoC6\pdl\drivers\peripheral\scb/cy_scb_ezi2c.h **** * * Supports Hardware Address Match
  37:Generated_Source\PSoC6\pdl\drivers\peripheral\scb/cy_scb_ezi2c.h **** * * Supports two hardware addresses with separate buffers
  38:Generated_Source\PSoC6\pdl\drivers\peripheral\scb/cy_scb_ezi2c.h **** * * Supports Wake from Deep Sleep on address match
  39:Generated_Source\PSoC6\pdl\drivers\peripheral\scb/cy_scb_ezi2c.h **** * * Simple to set up and use; does not require calling EZI2C API
  40:Generated_Source\PSoC6\pdl\drivers\peripheral\scb/cy_scb_ezi2c.h **** *   at run time.
  41:Generated_Source\PSoC6\pdl\drivers\peripheral\scb/cy_scb_ezi2c.h **** *
  42:Generated_Source\PSoC6\pdl\drivers\peripheral\scb/cy_scb_ezi2c.h **** * \section group_scb_ezi2c_configuration Configuration Considerations
  43:Generated_Source\PSoC6\pdl\drivers\peripheral\scb/cy_scb_ezi2c.h **** * The EZI2C slave driver configuration can be divided to number of sequential 
  44:Generated_Source\PSoC6\pdl\drivers\peripheral\scb/cy_scb_ezi2c.h **** * steps listed below: 
  45:Generated_Source\PSoC6\pdl\drivers\peripheral\scb/cy_scb_ezi2c.h **** * * \ref group_scb_ezi2c_config
  46:Generated_Source\PSoC6\pdl\drivers\peripheral\scb/cy_scb_ezi2c.h **** * * \ref group_scb_ezi2c_pins
  47:Generated_Source\PSoC6\pdl\drivers\peripheral\scb/cy_scb_ezi2c.h **** * * \ref group_scb_ezi2c_clock
  48:Generated_Source\PSoC6\pdl\drivers\peripheral\scb/cy_scb_ezi2c.h **** * * \ref group_scb_ezi2c_data_rate
  49:Generated_Source\PSoC6\pdl\drivers\peripheral\scb/cy_scb_ezi2c.h **** * * \ref group_scb_ezi2c_intr
  50:Generated_Source\PSoC6\pdl\drivers\peripheral\scb/cy_scb_ezi2c.h **** * * \ref group_scb_ezi2c_enable
  51:Generated_Source\PSoC6\pdl\drivers\peripheral\scb/cy_scb_ezi2c.h **** * 
  52:Generated_Source\PSoC6\pdl\drivers\peripheral\scb/cy_scb_ezi2c.h **** * \note 
  53:Generated_Source\PSoC6\pdl\drivers\peripheral\scb/cy_scb_ezi2c.h **** * EZI2C slave driver is built on top of the SCB hardware block. The SCB3 
ARM GAS  C:\Users\salaz\AppData\Local\Temp\ccU0pQaU.s 			page 51


  54:Generated_Source\PSoC6\pdl\drivers\peripheral\scb/cy_scb_ezi2c.h **** * instance is used as an example for all code snippets. Modify the code to 
  55:Generated_Source\PSoC6\pdl\drivers\peripheral\scb/cy_scb_ezi2c.h **** * match your design.
  56:Generated_Source\PSoC6\pdl\drivers\peripheral\scb/cy_scb_ezi2c.h **** *
  57:Generated_Source\PSoC6\pdl\drivers\peripheral\scb/cy_scb_ezi2c.h **** * \subsection group_scb_ezi2c_config Configure EZI2C slave
  58:Generated_Source\PSoC6\pdl\drivers\peripheral\scb/cy_scb_ezi2c.h **** * To set up the EZI2C slave driver, provide the configuration parameters in the 
  59:Generated_Source\PSoC6\pdl\drivers\peripheral\scb/cy_scb_ezi2c.h **** * \ref cy_stc_scb_ezi2c_config_t structure. The primary slave address 
  60:Generated_Source\PSoC6\pdl\drivers\peripheral\scb/cy_scb_ezi2c.h **** * slaveAddress1 must be provided. The other parameters are optional for 
  61:Generated_Source\PSoC6\pdl\drivers\peripheral\scb/cy_scb_ezi2c.h **** * operation. To initialize the driver, call \ref Cy_SCB_EZI2C_Init 
  62:Generated_Source\PSoC6\pdl\drivers\peripheral\scb/cy_scb_ezi2c.h **** * function providing a pointer to the filled \ref cy_stc_scb_ezi2c_config_t 
  63:Generated_Source\PSoC6\pdl\drivers\peripheral\scb/cy_scb_ezi2c.h **** * structure and allocated \ref cy_stc_scb_ezi2c_context_t.
  64:Generated_Source\PSoC6\pdl\drivers\peripheral\scb/cy_scb_ezi2c.h **** *
  65:Generated_Source\PSoC6\pdl\drivers\peripheral\scb/cy_scb_ezi2c.h **** * \snippet SCB_CompDatasheet_sut_01_revA.cydsn\ezi2c_snippets.c EZI2C_CFG
  66:Generated_Source\PSoC6\pdl\drivers\peripheral\scb/cy_scb_ezi2c.h **** *
  67:Generated_Source\PSoC6\pdl\drivers\peripheral\scb/cy_scb_ezi2c.h **** * Set up the EZI2C slave buffer before enabling its 
  68:Generated_Source\PSoC6\pdl\drivers\peripheral\scb/cy_scb_ezi2c.h **** * operation by using \ref Cy_SCB_EZI2C_SetBuffer1 for the primary slave address  
  69:Generated_Source\PSoC6\pdl\drivers\peripheral\scb/cy_scb_ezi2c.h **** * and \ref Cy_SCB_EZI2C_SetBuffer2 for the secondary (if the secondary is enabled).
  70:Generated_Source\PSoC6\pdl\drivers\peripheral\scb/cy_scb_ezi2c.h **** *
  71:Generated_Source\PSoC6\pdl\drivers\peripheral\scb/cy_scb_ezi2c.h **** * \snippet SCB_CompDatasheet_sut_01_revA.cydsn\ezi2c_snippets.c EZI2C_CFG_BUFFER
  72:Generated_Source\PSoC6\pdl\drivers\peripheral\scb/cy_scb_ezi2c.h **** *
  73:Generated_Source\PSoC6\pdl\drivers\peripheral\scb/cy_scb_ezi2c.h **** * \subsection group_scb_ezi2c_pins Assign and Configure Pins
  74:Generated_Source\PSoC6\pdl\drivers\peripheral\scb/cy_scb_ezi2c.h **** * Only dedicated SCB pins can be used for I2C operation. The HSIOM 
  75:Generated_Source\PSoC6\pdl\drivers\peripheral\scb/cy_scb_ezi2c.h **** * register must be configured to connect the block to the pins. Also the I2C pins 
  76:Generated_Source\PSoC6\pdl\drivers\peripheral\scb/cy_scb_ezi2c.h **** * must be configured in Open-Drain, Drives Low mode (this pin configuration 
  77:Generated_Source\PSoC6\pdl\drivers\peripheral\scb/cy_scb_ezi2c.h **** * implies usage of external pull-up resistors):
  78:Generated_Source\PSoC6\pdl\drivers\peripheral\scb/cy_scb_ezi2c.h **** *
  79:Generated_Source\PSoC6\pdl\drivers\peripheral\scb/cy_scb_ezi2c.h **** * \snippet SCB_CompDatasheet_sut_01_revA.cydsn\ezi2c_snippets.c EZI2C_CFG_PINS
  80:Generated_Source\PSoC6\pdl\drivers\peripheral\scb/cy_scb_ezi2c.h **** *
  81:Generated_Source\PSoC6\pdl\drivers\peripheral\scb/cy_scb_ezi2c.h **** * \note
  82:Generated_Source\PSoC6\pdl\drivers\peripheral\scb/cy_scb_ezi2c.h **** * The alternative pins configuration is Resistive Pull-ups which implies usage 
  83:Generated_Source\PSoC6\pdl\drivers\peripheral\scb/cy_scb_ezi2c.h **** * internal pull-up resistors. This configuration is not recommended because 
  84:Generated_Source\PSoC6\pdl\drivers\peripheral\scb/cy_scb_ezi2c.h **** * resistor value is fixed and cannot be used for all supported data rates. 
  85:Generated_Source\PSoC6\pdl\drivers\peripheral\scb/cy_scb_ezi2c.h **** * Refer to device datasheet parameter RPULLUP for resistor value specifications.
  86:Generated_Source\PSoC6\pdl\drivers\peripheral\scb/cy_scb_ezi2c.h **** *
  87:Generated_Source\PSoC6\pdl\drivers\peripheral\scb/cy_scb_ezi2c.h **** * \subsection group_scb_ezi2c_clock Assign Clock Divider
  88:Generated_Source\PSoC6\pdl\drivers\peripheral\scb/cy_scb_ezi2c.h **** * The clock source must be connected to the SCB block to oversample input and 
  89:Generated_Source\PSoC6\pdl\drivers\peripheral\scb/cy_scb_ezi2c.h **** * output signals. You must use one of the 8-bit or 16-bit dividers <em><b>(the  
  90:Generated_Source\PSoC6\pdl\drivers\peripheral\scb/cy_scb_ezi2c.h **** * source clock of this divider must be Clk_Peri)</b></em>. Use the  
  91:Generated_Source\PSoC6\pdl\drivers\peripheral\scb/cy_scb_ezi2c.h **** * \ref group_sysclk driver API to do that.
  92:Generated_Source\PSoC6\pdl\drivers\peripheral\scb/cy_scb_ezi2c.h **** *
  93:Generated_Source\PSoC6\pdl\drivers\peripheral\scb/cy_scb_ezi2c.h **** * \snippet SCB_CompDatasheet_sut_01_revA.cydsn\ezi2c_snippets.c EZI2C_CFG_ASSIGN_CLOCK
  94:Generated_Source\PSoC6\pdl\drivers\peripheral\scb/cy_scb_ezi2c.h **** *
  95:Generated_Source\PSoC6\pdl\drivers\peripheral\scb/cy_scb_ezi2c.h **** * \subsection group_scb_ezi2c_data_rate Configure Data Rate
  96:Generated_Source\PSoC6\pdl\drivers\peripheral\scb/cy_scb_ezi2c.h **** * To get EZI2C slave to operate at the desired data rate, the source clock must be 
  97:Generated_Source\PSoC6\pdl\drivers\peripheral\scb/cy_scb_ezi2c.h **** * fast enough to provide sufficient oversampling. Therefore, the clock divider 
  98:Generated_Source\PSoC6\pdl\drivers\peripheral\scb/cy_scb_ezi2c.h **** * must be configured to provide desired clock frequency. Use the 
  99:Generated_Source\PSoC6\pdl\drivers\peripheral\scb/cy_scb_ezi2c.h **** * \ref group_sysclk driver API to do that. 
 100:Generated_Source\PSoC6\pdl\drivers\peripheral\scb/cy_scb_ezi2c.h **** * Refer to the technical reference manual (TRM) section I2C sub-section 
 101:Generated_Source\PSoC6\pdl\drivers\peripheral\scb/cy_scb_ezi2c.h **** * Oversampling and Bit Rate to get information about how to configure the I2C to run 
 102:Generated_Source\PSoC6\pdl\drivers\peripheral\scb/cy_scb_ezi2c.h **** * at the desired data rate.
 103:Generated_Source\PSoC6\pdl\drivers\peripheral\scb/cy_scb_ezi2c.h **** *
 104:Generated_Source\PSoC6\pdl\drivers\peripheral\scb/cy_scb_ezi2c.h **** * \snippet SCB_CompDatasheet_sut_01_revA.cydsn\ezi2c_snippets.c EZI2C_CFG_DATA_RATE
 105:Generated_Source\PSoC6\pdl\drivers\peripheral\scb/cy_scb_ezi2c.h **** *
 106:Generated_Source\PSoC6\pdl\drivers\peripheral\scb/cy_scb_ezi2c.h **** * \subsection group_scb_ezi2c_intr Configure Interrupt
 107:Generated_Source\PSoC6\pdl\drivers\peripheral\scb/cy_scb_ezi2c.h **** * The interrupt is mandatory for the EZI2C slave operation. 
 108:Generated_Source\PSoC6\pdl\drivers\peripheral\scb/cy_scb_ezi2c.h **** * The \ref Cy_SCB_EZI2C_Interrupt function must be called in the interrupt 
 109:Generated_Source\PSoC6\pdl\drivers\peripheral\scb/cy_scb_ezi2c.h **** * handler for the selected SCB instance. Also, this interrupt must be enabled 
 110:Generated_Source\PSoC6\pdl\drivers\peripheral\scb/cy_scb_ezi2c.h **** * in the NVIC or it will not work.
ARM GAS  C:\Users\salaz\AppData\Local\Temp\ccU0pQaU.s 			page 52


 111:Generated_Source\PSoC6\pdl\drivers\peripheral\scb/cy_scb_ezi2c.h **** *
 112:Generated_Source\PSoC6\pdl\drivers\peripheral\scb/cy_scb_ezi2c.h **** * \snippet SCB_CompDatasheet_sut_01_revA.cydsn\ezi2c_snippets.c EZI2C_INTR_A
 113:Generated_Source\PSoC6\pdl\drivers\peripheral\scb/cy_scb_ezi2c.h **** * \snippet SCB_CompDatasheet_sut_01_revA.cydsn\ezi2c_snippets.c EZI2C_INTR_B
 114:Generated_Source\PSoC6\pdl\drivers\peripheral\scb/cy_scb_ezi2c.h **** *
 115:Generated_Source\PSoC6\pdl\drivers\peripheral\scb/cy_scb_ezi2c.h **** * \subsection group_scb_ezi2c_enable Enable EZI2C slave
 116:Generated_Source\PSoC6\pdl\drivers\peripheral\scb/cy_scb_ezi2c.h **** * Finally, enable the EZI2C slave operation by calling \ref Cy_SCB_EZI2C_Enable. 
 117:Generated_Source\PSoC6\pdl\drivers\peripheral\scb/cy_scb_ezi2c.h **** * Now the I2C device responds to the assigned address.
 118:Generated_Source\PSoC6\pdl\drivers\peripheral\scb/cy_scb_ezi2c.h **** * \snippet SCB_CompDatasheet_sut_01_revA.cydsn\ezi2c_snippets.c EZI2C_ENABLE
 119:Generated_Source\PSoC6\pdl\drivers\peripheral\scb/cy_scb_ezi2c.h **** *
 120:Generated_Source\PSoC6\pdl\drivers\peripheral\scb/cy_scb_ezi2c.h **** * \section group_scb_ezi2c_use_cases Common Use Cases 
 121:Generated_Source\PSoC6\pdl\drivers\peripheral\scb/cy_scb_ezi2c.h **** * The EZI2C slave operation might not require calling any EZI2C slave function
 122:Generated_Source\PSoC6\pdl\drivers\peripheral\scb/cy_scb_ezi2c.h **** * because the I2C master is able to access the slave buffer. The application
 123:Generated_Source\PSoC6\pdl\drivers\peripheral\scb/cy_scb_ezi2c.h **** * can directly access it as well. Note that this is an application-level task
 124:Generated_Source\PSoC6\pdl\drivers\peripheral\scb/cy_scb_ezi2c.h **** * to ensure the buffer content integrity.
 125:Generated_Source\PSoC6\pdl\drivers\peripheral\scb/cy_scb_ezi2c.h **** * 
 126:Generated_Source\PSoC6\pdl\drivers\peripheral\scb/cy_scb_ezi2c.h **** * \subsection group_scb_ezi2c_master_wr Master Write operation
 127:Generated_Source\PSoC6\pdl\drivers\peripheral\scb/cy_scb_ezi2c.h **** * This operation starts with sending a base address that is one
 128:Generated_Source\PSoC6\pdl\drivers\peripheral\scb/cy_scb_ezi2c.h **** * or two bytes, depending on the sub-address size configuration. This base
 129:Generated_Source\PSoC6\pdl\drivers\peripheral\scb/cy_scb_ezi2c.h **** * address is retained and will be used for later read operations. Following
 130:Generated_Source\PSoC6\pdl\drivers\peripheral\scb/cy_scb_ezi2c.h **** * the base address, there is a sequence of bytes written into the buffer
 131:Generated_Source\PSoC6\pdl\drivers\peripheral\scb/cy_scb_ezi2c.h **** * starting from the base address location. The buffer index is incremented
 132:Generated_Source\PSoC6\pdl\drivers\peripheral\scb/cy_scb_ezi2c.h **** * for each written byte, but this does not affect the base address that is
 133:Generated_Source\PSoC6\pdl\drivers\peripheral\scb/cy_scb_ezi2c.h **** * retained. The length of a write operation is limited by the maximum buffer
 134:Generated_Source\PSoC6\pdl\drivers\peripheral\scb/cy_scb_ezi2c.h **** * read/write region size.\n
 135:Generated_Source\PSoC6\pdl\drivers\peripheral\scb/cy_scb_ezi2c.h **** * When a master attempts to write outside the read/write region or past the
 136:Generated_Source\PSoC6\pdl\drivers\peripheral\scb/cy_scb_ezi2c.h **** * end of the buffer, the last byte is NACKed.
 137:Generated_Source\PSoC6\pdl\drivers\peripheral\scb/cy_scb_ezi2c.h **** * 
 138:Generated_Source\PSoC6\pdl\drivers\peripheral\scb/cy_scb_ezi2c.h **** * \image html scb_ezi2c_write.png
 139:Generated_Source\PSoC6\pdl\drivers\peripheral\scb/cy_scb_ezi2c.h **** * 
 140:Generated_Source\PSoC6\pdl\drivers\peripheral\scb/cy_scb_ezi2c.h **** * \subsection group_scb_ezi2c_master_rd Master Read operation
 141:Generated_Source\PSoC6\pdl\drivers\peripheral\scb/cy_scb_ezi2c.h **** * This operation always starts from the base address set by the most
 142:Generated_Source\PSoC6\pdl\drivers\peripheral\scb/cy_scb_ezi2c.h **** * recent write operation. The buffer index is incremented for each read byte.
 143:Generated_Source\PSoC6\pdl\drivers\peripheral\scb/cy_scb_ezi2c.h **** * Two sequential read operations start from the same base address no matter
 144:Generated_Source\PSoC6\pdl\drivers\peripheral\scb/cy_scb_ezi2c.h **** * how many bytes are read. The length of a read operation is not limited by
 145:Generated_Source\PSoC6\pdl\drivers\peripheral\scb/cy_scb_ezi2c.h **** * the maximum size of the data buffer. The EZI2C slave returns 0xFF bytes
 146:Generated_Source\PSoC6\pdl\drivers\peripheral\scb/cy_scb_ezi2c.h **** * if the read operation passes the end of the buffer.\n
 147:Generated_Source\PSoC6\pdl\drivers\peripheral\scb/cy_scb_ezi2c.h **** * Typically, a read operation requires the base address to be updated before
 148:Generated_Source\PSoC6\pdl\drivers\peripheral\scb/cy_scb_ezi2c.h **** * starting the read. In this case, the write and read operations must be
 149:Generated_Source\PSoC6\pdl\drivers\peripheral\scb/cy_scb_ezi2c.h **** * combined together.
 150:Generated_Source\PSoC6\pdl\drivers\peripheral\scb/cy_scb_ezi2c.h **** *
 151:Generated_Source\PSoC6\pdl\drivers\peripheral\scb/cy_scb_ezi2c.h **** * \image html scb_ezi2c_read.png
 152:Generated_Source\PSoC6\pdl\drivers\peripheral\scb/cy_scb_ezi2c.h **** *
 153:Generated_Source\PSoC6\pdl\drivers\peripheral\scb/cy_scb_ezi2c.h **** * The I2C master may use the ReStart or Stop/Start conditions to combine the 
 154:Generated_Source\PSoC6\pdl\drivers\peripheral\scb/cy_scb_ezi2c.h **** * operations. The write operation sets only the base address and the following
 155:Generated_Source\PSoC6\pdl\drivers\peripheral\scb/cy_scb_ezi2c.h **** * read operation will start from the new base address. In cases where the base
 156:Generated_Source\PSoC6\pdl\drivers\peripheral\scb/cy_scb_ezi2c.h **** * address remains the same, there is no need for a write operation.
 157:Generated_Source\PSoC6\pdl\drivers\peripheral\scb/cy_scb_ezi2c.h **** * \image html scb_ezi2c_set_ba_read.png
 158:Generated_Source\PSoC6\pdl\drivers\peripheral\scb/cy_scb_ezi2c.h **** *
 159:Generated_Source\PSoC6\pdl\drivers\peripheral\scb/cy_scb_ezi2c.h **** * \section group_scb_ezi2c_lp Low Power Support
 160:Generated_Source\PSoC6\pdl\drivers\peripheral\scb/cy_scb_ezi2c.h **** * The EZI2C slave provides the callback functions to handle power mode 
 161:Generated_Source\PSoC6\pdl\drivers\peripheral\scb/cy_scb_ezi2c.h **** * transition. The callback \ref Cy_SCB_EZI2C_DeepSleepCallback must be called 
 162:Generated_Source\PSoC6\pdl\drivers\peripheral\scb/cy_scb_ezi2c.h **** * during execution of \ref Cy_SysPm_DeepSleep; 
 163:Generated_Source\PSoC6\pdl\drivers\peripheral\scb/cy_scb_ezi2c.h **** * \ref Cy_SCB_EZI2C_HibernateCallback must be called during execution of 
 164:Generated_Source\PSoC6\pdl\drivers\peripheral\scb/cy_scb_ezi2c.h **** * \ref Cy_SysPm_Hibernate. To trigger the callback execution, the callback must 
 165:Generated_Source\PSoC6\pdl\drivers\peripheral\scb/cy_scb_ezi2c.h **** * be registered before calling the power mode transition function. Refer to 
 166:Generated_Source\PSoC6\pdl\drivers\peripheral\scb/cy_scb_ezi2c.h **** * \ref group_syspm driver for more information about power mode transitions and 
 167:Generated_Source\PSoC6\pdl\drivers\peripheral\scb/cy_scb_ezi2c.h **** * callback registration.
ARM GAS  C:\Users\salaz\AppData\Local\Temp\ccU0pQaU.s 			page 53


 168:Generated_Source\PSoC6\pdl\drivers\peripheral\scb/cy_scb_ezi2c.h **** *
 169:Generated_Source\PSoC6\pdl\drivers\peripheral\scb/cy_scb_ezi2c.h **** * \note
 170:Generated_Source\PSoC6\pdl\drivers\peripheral\scb/cy_scb_ezi2c.h **** * Only applicable for <b>rev-08 of the CY8CKIT-062-BLE</b>.
 171:Generated_Source\PSoC6\pdl\drivers\peripheral\scb/cy_scb_ezi2c.h **** * For proper operation, when the EZI2C slave is configured to be a wakeup 
 172:Generated_Source\PSoC6\pdl\drivers\peripheral\scb/cy_scb_ezi2c.h **** * source from Deep Sleep mode, the \ref Cy_SCB_EZI2C_DeepSleepCallback must 
 173:Generated_Source\PSoC6\pdl\drivers\peripheral\scb/cy_scb_ezi2c.h **** * be copied and modified. Refer to the function description to get the details.
 174:Generated_Source\PSoC6\pdl\drivers\peripheral\scb/cy_scb_ezi2c.h **** *
 175:Generated_Source\PSoC6\pdl\drivers\peripheral\scb/cy_scb_ezi2c.h **** * \section group_scb_ezi2c_more_information More Information
 176:Generated_Source\PSoC6\pdl\drivers\peripheral\scb/cy_scb_ezi2c.h **** *
 177:Generated_Source\PSoC6\pdl\drivers\peripheral\scb/cy_scb_ezi2c.h **** * For more information on the SCB peripheral, refer to the technical reference
 178:Generated_Source\PSoC6\pdl\drivers\peripheral\scb/cy_scb_ezi2c.h **** * manual (TRM).
 179:Generated_Source\PSoC6\pdl\drivers\peripheral\scb/cy_scb_ezi2c.h **** *
 180:Generated_Source\PSoC6\pdl\drivers\peripheral\scb/cy_scb_ezi2c.h **** * \section group_scb_ezi2c_MISRA MISRA-C Compliance
 181:Generated_Source\PSoC6\pdl\drivers\peripheral\scb/cy_scb_ezi2c.h **** * <table class="doxtable">
 182:Generated_Source\PSoC6\pdl\drivers\peripheral\scb/cy_scb_ezi2c.h **** *   <tr>
 183:Generated_Source\PSoC6\pdl\drivers\peripheral\scb/cy_scb_ezi2c.h **** *     <th>MISRA Rule</th>
 184:Generated_Source\PSoC6\pdl\drivers\peripheral\scb/cy_scb_ezi2c.h **** *     <th>Rule Class (Required/Advisory)</th>
 185:Generated_Source\PSoC6\pdl\drivers\peripheral\scb/cy_scb_ezi2c.h **** *     <th>Rule Description</th>
 186:Generated_Source\PSoC6\pdl\drivers\peripheral\scb/cy_scb_ezi2c.h **** *     <th>Description of Deviation(s)</th>
 187:Generated_Source\PSoC6\pdl\drivers\peripheral\scb/cy_scb_ezi2c.h **** *   </tr>
 188:Generated_Source\PSoC6\pdl\drivers\peripheral\scb/cy_scb_ezi2c.h **** *   <tr>
 189:Generated_Source\PSoC6\pdl\drivers\peripheral\scb/cy_scb_ezi2c.h **** *     <td>11.4</td>
 190:Generated_Source\PSoC6\pdl\drivers\peripheral\scb/cy_scb_ezi2c.h **** *     <td>A</td>
 191:Generated_Source\PSoC6\pdl\drivers\peripheral\scb/cy_scb_ezi2c.h **** *     <td>A cast should not be performed between a pointer to object type and
 192:Generated_Source\PSoC6\pdl\drivers\peripheral\scb/cy_scb_ezi2c.h **** *         a different pointer to object type.</td>
 193:Generated_Source\PSoC6\pdl\drivers\peripheral\scb/cy_scb_ezi2c.h **** *     <td>The functions \ref Cy_SCB_EZI2C_DeepSleepCallback and
 194:Generated_Source\PSoC6\pdl\drivers\peripheral\scb/cy_scb_ezi2c.h **** *         \ref Cy_SCB_EZI2C_HibernateCallback are callback of
 195:Generated_Source\PSoC6\pdl\drivers\peripheral\scb/cy_scb_ezi2c.h **** *         \ref cy_en_syspm_status_t type. The cast operation safety in these
 196:Generated_Source\PSoC6\pdl\drivers\peripheral\scb/cy_scb_ezi2c.h **** *         functions becomes the user's responsibility because pointers are
 197:Generated_Source\PSoC6\pdl\drivers\peripheral\scb/cy_scb_ezi2c.h **** *         initialized when callback is registered in SysPm driver.</td>
 198:Generated_Source\PSoC6\pdl\drivers\peripheral\scb/cy_scb_ezi2c.h **** *   </tr>
 199:Generated_Source\PSoC6\pdl\drivers\peripheral\scb/cy_scb_ezi2c.h **** *   <tr>
 200:Generated_Source\PSoC6\pdl\drivers\peripheral\scb/cy_scb_ezi2c.h **** *     <td>14.1</td>
 201:Generated_Source\PSoC6\pdl\drivers\peripheral\scb/cy_scb_ezi2c.h **** *     <td>R</td>
 202:Generated_Source\PSoC6\pdl\drivers\peripheral\scb/cy_scb_ezi2c.h **** *     <td>There shall be no unreachable code.</td>
 203:Generated_Source\PSoC6\pdl\drivers\peripheral\scb/cy_scb_ezi2c.h **** *     <td>The SCB block parameters can be a constant false or true depending on
 204:Generated_Source\PSoC6\pdl\drivers\peripheral\scb/cy_scb_ezi2c.h **** *         the selected device and cause code to be unreachable.</td>
 205:Generated_Source\PSoC6\pdl\drivers\peripheral\scb/cy_scb_ezi2c.h **** *   </tr>
 206:Generated_Source\PSoC6\pdl\drivers\peripheral\scb/cy_scb_ezi2c.h **** *   <tr>
 207:Generated_Source\PSoC6\pdl\drivers\peripheral\scb/cy_scb_ezi2c.h **** *     <td>14.2</td>
 208:Generated_Source\PSoC6\pdl\drivers\peripheral\scb/cy_scb_ezi2c.h **** *     <td>R</td>
 209:Generated_Source\PSoC6\pdl\drivers\peripheral\scb/cy_scb_ezi2c.h **** *     <td>All non-null statements shall either: a) have at least one side-effect
 210:Generated_Source\PSoC6\pdl\drivers\peripheral\scb/cy_scb_ezi2c.h **** *         however executed, or b) cause control flow to change.</td>
 211:Generated_Source\PSoC6\pdl\drivers\peripheral\scb/cy_scb_ezi2c.h **** *     <td>The unused function parameters are cast to void. This statement
 212:Generated_Source\PSoC6\pdl\drivers\peripheral\scb/cy_scb_ezi2c.h **** *         has no side-effect and is used to suppress a compiler warning.</td>
 213:Generated_Source\PSoC6\pdl\drivers\peripheral\scb/cy_scb_ezi2c.h **** *   </tr>
 214:Generated_Source\PSoC6\pdl\drivers\peripheral\scb/cy_scb_ezi2c.h **** *   <tr>
 215:Generated_Source\PSoC6\pdl\drivers\peripheral\scb/cy_scb_ezi2c.h **** *     <td>14.7</td>
 216:Generated_Source\PSoC6\pdl\drivers\peripheral\scb/cy_scb_ezi2c.h **** *     <td>R</td>
 217:Generated_Source\PSoC6\pdl\drivers\peripheral\scb/cy_scb_ezi2c.h **** *     <td>A function shall have a single point of exit at the end of the
 218:Generated_Source\PSoC6\pdl\drivers\peripheral\scb/cy_scb_ezi2c.h **** *         function.</td>
 219:Generated_Source\PSoC6\pdl\drivers\peripheral\scb/cy_scb_ezi2c.h **** *     <td>The functions can return from several points. This is done to improve
 220:Generated_Source\PSoC6\pdl\drivers\peripheral\scb/cy_scb_ezi2c.h **** *         code clarity when returning error status code if input parameter
 221:Generated_Source\PSoC6\pdl\drivers\peripheral\scb/cy_scb_ezi2c.h **** *         validation fails.</td>
 222:Generated_Source\PSoC6\pdl\drivers\peripheral\scb/cy_scb_ezi2c.h **** *   </tr>
 223:Generated_Source\PSoC6\pdl\drivers\peripheral\scb/cy_scb_ezi2c.h **** * </table>
 224:Generated_Source\PSoC6\pdl\drivers\peripheral\scb/cy_scb_ezi2c.h **** *
ARM GAS  C:\Users\salaz\AppData\Local\Temp\ccU0pQaU.s 			page 54


 225:Generated_Source\PSoC6\pdl\drivers\peripheral\scb/cy_scb_ezi2c.h **** * \section group_scb_ezi2c_changelog Changelog
 226:Generated_Source\PSoC6\pdl\drivers\peripheral\scb/cy_scb_ezi2c.h **** * <table class="doxtable">
 227:Generated_Source\PSoC6\pdl\drivers\peripheral\scb/cy_scb_ezi2c.h **** *   <tr><th>Version</th><th>Changes</th><th>Reason for Change</th></tr>
 228:Generated_Source\PSoC6\pdl\drivers\peripheral\scb/cy_scb_ezi2c.h **** *   <tr>
 229:Generated_Source\PSoC6\pdl\drivers\peripheral\scb/cy_scb_ezi2c.h **** *     <td>2.10</td>
 230:Generated_Source\PSoC6\pdl\drivers\peripheral\scb/cy_scb_ezi2c.h **** *     <td>None.</td>
 231:Generated_Source\PSoC6\pdl\drivers\peripheral\scb/cy_scb_ezi2c.h **** *     <td>SCB I2C driver updated.</td>
 232:Generated_Source\PSoC6\pdl\drivers\peripheral\scb/cy_scb_ezi2c.h **** *   </tr>
 233:Generated_Source\PSoC6\pdl\drivers\peripheral\scb/cy_scb_ezi2c.h **** *   <tr>
 234:Generated_Source\PSoC6\pdl\drivers\peripheral\scb/cy_scb_ezi2c.h **** *     <td rowspan="2"> 2.0</td>
 235:Generated_Source\PSoC6\pdl\drivers\peripheral\scb/cy_scb_ezi2c.h **** *     <td>Added parameters validation for public API.</td>
 236:Generated_Source\PSoC6\pdl\drivers\peripheral\scb/cy_scb_ezi2c.h **** *     <td></td>
 237:Generated_Source\PSoC6\pdl\drivers\peripheral\scb/cy_scb_ezi2c.h **** *   </tr>
 238:Generated_Source\PSoC6\pdl\drivers\peripheral\scb/cy_scb_ezi2c.h **** *   <tr>
 239:Generated_Source\PSoC6\pdl\drivers\peripheral\scb/cy_scb_ezi2c.h **** *     <td>Replaced variables that have limited range of values with enumerated
 240:Generated_Source\PSoC6\pdl\drivers\peripheral\scb/cy_scb_ezi2c.h **** *         types.</td>
 241:Generated_Source\PSoC6\pdl\drivers\peripheral\scb/cy_scb_ezi2c.h **** *     <td></td>
 242:Generated_Source\PSoC6\pdl\drivers\peripheral\scb/cy_scb_ezi2c.h **** *   </tr>
 243:Generated_Source\PSoC6\pdl\drivers\peripheral\scb/cy_scb_ezi2c.h **** *   <tr>
 244:Generated_Source\PSoC6\pdl\drivers\peripheral\scb/cy_scb_ezi2c.h **** *     <td>1.0</td>
 245:Generated_Source\PSoC6\pdl\drivers\peripheral\scb/cy_scb_ezi2c.h **** *     <td>Initial version.</td>
 246:Generated_Source\PSoC6\pdl\drivers\peripheral\scb/cy_scb_ezi2c.h **** *     <td></td>
 247:Generated_Source\PSoC6\pdl\drivers\peripheral\scb/cy_scb_ezi2c.h **** *   </tr>
 248:Generated_Source\PSoC6\pdl\drivers\peripheral\scb/cy_scb_ezi2c.h **** * </table>
 249:Generated_Source\PSoC6\pdl\drivers\peripheral\scb/cy_scb_ezi2c.h **** *
 250:Generated_Source\PSoC6\pdl\drivers\peripheral\scb/cy_scb_ezi2c.h **** * \defgroup group_scb_ezi2c_macros Macros
 251:Generated_Source\PSoC6\pdl\drivers\peripheral\scb/cy_scb_ezi2c.h **** * \defgroup group_scb_ezi2c_functions Functions
 252:Generated_Source\PSoC6\pdl\drivers\peripheral\scb/cy_scb_ezi2c.h **** * \{
 253:Generated_Source\PSoC6\pdl\drivers\peripheral\scb/cy_scb_ezi2c.h **** * \defgroup group_scb_ezi2c_general_functions General
 254:Generated_Source\PSoC6\pdl\drivers\peripheral\scb/cy_scb_ezi2c.h **** * \defgroup group_scb_ezi2c_slave_functions Slave
 255:Generated_Source\PSoC6\pdl\drivers\peripheral\scb/cy_scb_ezi2c.h **** * \defgroup group_scb_ezi2c_low_power_functions Low Power Callbacks
 256:Generated_Source\PSoC6\pdl\drivers\peripheral\scb/cy_scb_ezi2c.h **** * \}
 257:Generated_Source\PSoC6\pdl\drivers\peripheral\scb/cy_scb_ezi2c.h **** * \defgroup group_scb_ezi2c_data_structures Data Structures
 258:Generated_Source\PSoC6\pdl\drivers\peripheral\scb/cy_scb_ezi2c.h **** * \defgroup group_scb_ezi2c_enums Enumerated Types
 259:Generated_Source\PSoC6\pdl\drivers\peripheral\scb/cy_scb_ezi2c.h **** */
 260:Generated_Source\PSoC6\pdl\drivers\peripheral\scb/cy_scb_ezi2c.h **** 
 261:Generated_Source\PSoC6\pdl\drivers\peripheral\scb/cy_scb_ezi2c.h **** #if !defined(CY_SCB_EZI2C_H)
 262:Generated_Source\PSoC6\pdl\drivers\peripheral\scb/cy_scb_ezi2c.h **** #define CY_SCB_EZI2C_H
 263:Generated_Source\PSoC6\pdl\drivers\peripheral\scb/cy_scb_ezi2c.h **** 
 264:Generated_Source\PSoC6\pdl\drivers\peripheral\scb/cy_scb_ezi2c.h **** #include "cy_scb_common.h"
 265:Generated_Source\PSoC6\pdl\drivers\peripheral\scb/cy_scb_ezi2c.h **** 
 266:Generated_Source\PSoC6\pdl\drivers\peripheral\scb/cy_scb_ezi2c.h **** #if defined(__cplusplus)
 267:Generated_Source\PSoC6\pdl\drivers\peripheral\scb/cy_scb_ezi2c.h **** extern "C" {
 268:Generated_Source\PSoC6\pdl\drivers\peripheral\scb/cy_scb_ezi2c.h **** #endif
 269:Generated_Source\PSoC6\pdl\drivers\peripheral\scb/cy_scb_ezi2c.h **** 
 270:Generated_Source\PSoC6\pdl\drivers\peripheral\scb/cy_scb_ezi2c.h **** /***************************************
 271:Generated_Source\PSoC6\pdl\drivers\peripheral\scb/cy_scb_ezi2c.h **** *       Enumerated Types
 272:Generated_Source\PSoC6\pdl\drivers\peripheral\scb/cy_scb_ezi2c.h **** ***************************************/
 273:Generated_Source\PSoC6\pdl\drivers\peripheral\scb/cy_scb_ezi2c.h **** 
 274:Generated_Source\PSoC6\pdl\drivers\peripheral\scb/cy_scb_ezi2c.h **** /**
 275:Generated_Source\PSoC6\pdl\drivers\peripheral\scb/cy_scb_ezi2c.h **** * \addtogroup group_scb_ezi2c_enums
 276:Generated_Source\PSoC6\pdl\drivers\peripheral\scb/cy_scb_ezi2c.h **** * \{
 277:Generated_Source\PSoC6\pdl\drivers\peripheral\scb/cy_scb_ezi2c.h **** */
 278:Generated_Source\PSoC6\pdl\drivers\peripheral\scb/cy_scb_ezi2c.h **** 
 279:Generated_Source\PSoC6\pdl\drivers\peripheral\scb/cy_scb_ezi2c.h **** /** EZI2C slave status codes */
 280:Generated_Source\PSoC6\pdl\drivers\peripheral\scb/cy_scb_ezi2c.h **** typedef enum
 281:Generated_Source\PSoC6\pdl\drivers\peripheral\scb/cy_scb_ezi2c.h **** {
ARM GAS  C:\Users\salaz\AppData\Local\Temp\ccU0pQaU.s 			page 55


 282:Generated_Source\PSoC6\pdl\drivers\peripheral\scb/cy_scb_ezi2c.h ****     /** Operation completed successfully */
 283:Generated_Source\PSoC6\pdl\drivers\peripheral\scb/cy_scb_ezi2c.h ****     CY_SCB_EZI2C_SUCCESS = 0U,
 284:Generated_Source\PSoC6\pdl\drivers\peripheral\scb/cy_scb_ezi2c.h **** 
 285:Generated_Source\PSoC6\pdl\drivers\peripheral\scb/cy_scb_ezi2c.h ****     /** One or more of input parameters are invalid */
 286:Generated_Source\PSoC6\pdl\drivers\peripheral\scb/cy_scb_ezi2c.h ****     CY_SCB_EZI2C_BAD_PARAM = (CY_SCB_ID | CY_PDL_STATUS_ERROR | CY_SCB_EZI2C_ID | 1U),
 287:Generated_Source\PSoC6\pdl\drivers\peripheral\scb/cy_scb_ezi2c.h **** } cy_en_scb_ezi2c_status_t;
 288:Generated_Source\PSoC6\pdl\drivers\peripheral\scb/cy_scb_ezi2c.h **** 
 289:Generated_Source\PSoC6\pdl\drivers\peripheral\scb/cy_scb_ezi2c.h **** /** Number of Addresses */
 290:Generated_Source\PSoC6\pdl\drivers\peripheral\scb/cy_scb_ezi2c.h **** typedef enum
 291:Generated_Source\PSoC6\pdl\drivers\peripheral\scb/cy_scb_ezi2c.h **** {
 292:Generated_Source\PSoC6\pdl\drivers\peripheral\scb/cy_scb_ezi2c.h ****     CY_SCB_EZI2C_ONE_ADDRESS,   /**< Only one address */
 293:Generated_Source\PSoC6\pdl\drivers\peripheral\scb/cy_scb_ezi2c.h ****     CY_SCB_EZI2C_TWO_ADDRESSES  /**< Two addresses */
 294:Generated_Source\PSoC6\pdl\drivers\peripheral\scb/cy_scb_ezi2c.h **** } cy_en_scb_ezi2c_num_of_addr_t;
 295:Generated_Source\PSoC6\pdl\drivers\peripheral\scb/cy_scb_ezi2c.h **** 
 296:Generated_Source\PSoC6\pdl\drivers\peripheral\scb/cy_scb_ezi2c.h **** /** Size of Sub-Address */
 297:Generated_Source\PSoC6\pdl\drivers\peripheral\scb/cy_scb_ezi2c.h **** typedef enum
 298:Generated_Source\PSoC6\pdl\drivers\peripheral\scb/cy_scb_ezi2c.h **** {
 299:Generated_Source\PSoC6\pdl\drivers\peripheral\scb/cy_scb_ezi2c.h ****     CY_SCB_EZI2C_SUB_ADDR8_BITS,    /**< Sub-address is 8 bits  */
 300:Generated_Source\PSoC6\pdl\drivers\peripheral\scb/cy_scb_ezi2c.h ****     CY_SCB_EZI2C_SUB_ADDR16_BITS    /**< Sub-address is 16 bits */
 301:Generated_Source\PSoC6\pdl\drivers\peripheral\scb/cy_scb_ezi2c.h **** } cy_en_scb_ezi2c_sub_addr_size_t;
 302:Generated_Source\PSoC6\pdl\drivers\peripheral\scb/cy_scb_ezi2c.h **** 
 303:Generated_Source\PSoC6\pdl\drivers\peripheral\scb/cy_scb_ezi2c.h **** /** \cond INTERNAL */
 304:Generated_Source\PSoC6\pdl\drivers\peripheral\scb/cy_scb_ezi2c.h **** /** EZI2C slave FSM states */
 305:Generated_Source\PSoC6\pdl\drivers\peripheral\scb/cy_scb_ezi2c.h **** typedef enum
 306:Generated_Source\PSoC6\pdl\drivers\peripheral\scb/cy_scb_ezi2c.h **** {
 307:Generated_Source\PSoC6\pdl\drivers\peripheral\scb/cy_scb_ezi2c.h ****     CY_SCB_EZI2C_STATE_IDLE,
 308:Generated_Source\PSoC6\pdl\drivers\peripheral\scb/cy_scb_ezi2c.h ****     CY_SCB_EZI2C_STATE_ADDR,
 309:Generated_Source\PSoC6\pdl\drivers\peripheral\scb/cy_scb_ezi2c.h ****     CY_SCB_EZI2C_STATE_RX_OFFSET_MSB,
 310:Generated_Source\PSoC6\pdl\drivers\peripheral\scb/cy_scb_ezi2c.h ****     CY_SCB_EZI2C_STATE_RX_OFFSET_LSB,
 311:Generated_Source\PSoC6\pdl\drivers\peripheral\scb/cy_scb_ezi2c.h ****     CY_SCB_EZI2C_STATE_RX_DATA0,
 312:Generated_Source\PSoC6\pdl\drivers\peripheral\scb/cy_scb_ezi2c.h ****     CY_SCB_EZI2C_STATE_RX_DATA1,
 313:Generated_Source\PSoC6\pdl\drivers\peripheral\scb/cy_scb_ezi2c.h ****     CY_SCB_EZI2C_STATE_TX_DATA
 314:Generated_Source\PSoC6\pdl\drivers\peripheral\scb/cy_scb_ezi2c.h **** } cy_en_scb_ezi2c_state_t;
 315:Generated_Source\PSoC6\pdl\drivers\peripheral\scb/cy_scb_ezi2c.h **** /** \endcond */
 316:Generated_Source\PSoC6\pdl\drivers\peripheral\scb/cy_scb_ezi2c.h **** /** \} group_scb_ezi2c_enums */
 317:Generated_Source\PSoC6\pdl\drivers\peripheral\scb/cy_scb_ezi2c.h **** 
 318:Generated_Source\PSoC6\pdl\drivers\peripheral\scb/cy_scb_ezi2c.h **** 
 319:Generated_Source\PSoC6\pdl\drivers\peripheral\scb/cy_scb_ezi2c.h **** /***************************************
 320:Generated_Source\PSoC6\pdl\drivers\peripheral\scb/cy_scb_ezi2c.h **** *       Type Definitions
 321:Generated_Source\PSoC6\pdl\drivers\peripheral\scb/cy_scb_ezi2c.h **** ***************************************/
 322:Generated_Source\PSoC6\pdl\drivers\peripheral\scb/cy_scb_ezi2c.h **** 
 323:Generated_Source\PSoC6\pdl\drivers\peripheral\scb/cy_scb_ezi2c.h **** /**
 324:Generated_Source\PSoC6\pdl\drivers\peripheral\scb/cy_scb_ezi2c.h **** * \addtogroup group_scb_ezi2c_data_structures
 325:Generated_Source\PSoC6\pdl\drivers\peripheral\scb/cy_scb_ezi2c.h **** * \{
 326:Generated_Source\PSoC6\pdl\drivers\peripheral\scb/cy_scb_ezi2c.h **** */
 327:Generated_Source\PSoC6\pdl\drivers\peripheral\scb/cy_scb_ezi2c.h **** 
 328:Generated_Source\PSoC6\pdl\drivers\peripheral\scb/cy_scb_ezi2c.h **** /** EZI2C slave configuration structure */
 329:Generated_Source\PSoC6\pdl\drivers\peripheral\scb/cy_scb_ezi2c.h **** typedef struct cy_stc_scb_ezi2c_config
 330:Generated_Source\PSoC6\pdl\drivers\peripheral\scb/cy_scb_ezi2c.h **** {
 331:Generated_Source\PSoC6\pdl\drivers\peripheral\scb/cy_scb_ezi2c.h ****     /** The number of supported addresses either */
 332:Generated_Source\PSoC6\pdl\drivers\peripheral\scb/cy_scb_ezi2c.h ****     cy_en_scb_ezi2c_num_of_addr_t numberOfAddresses;
 333:Generated_Source\PSoC6\pdl\drivers\peripheral\scb/cy_scb_ezi2c.h **** 
 334:Generated_Source\PSoC6\pdl\drivers\peripheral\scb/cy_scb_ezi2c.h ****     /** The 7-bit right justified primary slave address */
 335:Generated_Source\PSoC6\pdl\drivers\peripheral\scb/cy_scb_ezi2c.h ****     uint8_t slaveAddress1;
 336:Generated_Source\PSoC6\pdl\drivers\peripheral\scb/cy_scb_ezi2c.h **** 
 337:Generated_Source\PSoC6\pdl\drivers\peripheral\scb/cy_scb_ezi2c.h ****     /** The 7-bit right justified secondary slave address */
 338:Generated_Source\PSoC6\pdl\drivers\peripheral\scb/cy_scb_ezi2c.h ****     uint8_t slaveAddress2;
ARM GAS  C:\Users\salaz\AppData\Local\Temp\ccU0pQaU.s 			page 56


 339:Generated_Source\PSoC6\pdl\drivers\peripheral\scb/cy_scb_ezi2c.h **** 
 340:Generated_Source\PSoC6\pdl\drivers\peripheral\scb/cy_scb_ezi2c.h ****     /** The size of the sub-address, can either be 8 or 16 bits */
 341:Generated_Source\PSoC6\pdl\drivers\peripheral\scb/cy_scb_ezi2c.h ****     cy_en_scb_ezi2c_sub_addr_size_t subAddressSize;
 342:Generated_Source\PSoC6\pdl\drivers\peripheral\scb/cy_scb_ezi2c.h **** 
 343:Generated_Source\PSoC6\pdl\drivers\peripheral\scb/cy_scb_ezi2c.h ****     /**
 344:Generated_Source\PSoC6\pdl\drivers\peripheral\scb/cy_scb_ezi2c.h ****     * When set, the slave will wake the device from Deep Sleep on an address
 345:Generated_Source\PSoC6\pdl\drivers\peripheral\scb/cy_scb_ezi2c.h ****     * match (The device datasheet must be consulted to determine which SCBs
 346:Generated_Source\PSoC6\pdl\drivers\peripheral\scb/cy_scb_ezi2c.h ****     * support this mode)
 347:Generated_Source\PSoC6\pdl\drivers\peripheral\scb/cy_scb_ezi2c.h ****     */
 348:Generated_Source\PSoC6\pdl\drivers\peripheral\scb/cy_scb_ezi2c.h ****     bool enableWakeFromSleep;
 349:Generated_Source\PSoC6\pdl\drivers\peripheral\scb/cy_scb_ezi2c.h **** } cy_stc_scb_ezi2c_config_t;
 350:Generated_Source\PSoC6\pdl\drivers\peripheral\scb/cy_scb_ezi2c.h **** 
 351:Generated_Source\PSoC6\pdl\drivers\peripheral\scb/cy_scb_ezi2c.h **** /** EZI2C slave context structure.
 352:Generated_Source\PSoC6\pdl\drivers\peripheral\scb/cy_scb_ezi2c.h **** * All fields for the context structure are internal. Firmware never reads or 
 353:Generated_Source\PSoC6\pdl\drivers\peripheral\scb/cy_scb_ezi2c.h **** * writes these values. Firmware allocates the structure and provides the 
 354:Generated_Source\PSoC6\pdl\drivers\peripheral\scb/cy_scb_ezi2c.h **** * address of the structure to the driver in function calls. Firmware must 
 355:Generated_Source\PSoC6\pdl\drivers\peripheral\scb/cy_scb_ezi2c.h **** * ensure that the defined instance of this structure remains in scope 
 356:Generated_Source\PSoC6\pdl\drivers\peripheral\scb/cy_scb_ezi2c.h **** * while the drive is in use.
 357:Generated_Source\PSoC6\pdl\drivers\peripheral\scb/cy_scb_ezi2c.h **** */
 358:Generated_Source\PSoC6\pdl\drivers\peripheral\scb/cy_scb_ezi2c.h **** typedef struct cy_stc_scb_ezi2c_context
 359:Generated_Source\PSoC6\pdl\drivers\peripheral\scb/cy_scb_ezi2c.h **** {
 360:Generated_Source\PSoC6\pdl\drivers\peripheral\scb/cy_scb_ezi2c.h ****     /** \cond INTERNAL */
 361:Generated_Source\PSoC6\pdl\drivers\peripheral\scb/cy_scb_ezi2c.h ****     volatile cy_en_scb_ezi2c_state_t state;  /**< The driver state */
 362:Generated_Source\PSoC6\pdl\drivers\peripheral\scb/cy_scb_ezi2c.h ****     volatile uint32_t status;                /**< The slave status */
 363:Generated_Source\PSoC6\pdl\drivers\peripheral\scb/cy_scb_ezi2c.h **** 
 364:Generated_Source\PSoC6\pdl\drivers\peripheral\scb/cy_scb_ezi2c.h ****     uint8_t  address1;      /**< The primary slave address (7-bits right justified) */
 365:Generated_Source\PSoC6\pdl\drivers\peripheral\scb/cy_scb_ezi2c.h ****     uint8_t  address2;      /**< The secondary slave address (7-bits right justified) */
 366:Generated_Source\PSoC6\pdl\drivers\peripheral\scb/cy_scb_ezi2c.h ****     cy_en_scb_ezi2c_sub_addr_size_t subAddrSize;   /**< The sub-address size */
 367:Generated_Source\PSoC6\pdl\drivers\peripheral\scb/cy_scb_ezi2c.h **** 
 368:Generated_Source\PSoC6\pdl\drivers\peripheral\scb/cy_scb_ezi2c.h ****     uint32_t idx;       /**< The index within the buffer during operation */
 369:Generated_Source\PSoC6\pdl\drivers\peripheral\scb/cy_scb_ezi2c.h ****     uint32_t baseAddr1; /**< The valid base address for the primary slave address */
 370:Generated_Source\PSoC6\pdl\drivers\peripheral\scb/cy_scb_ezi2c.h ****     uint32_t baseAddr2; /**< The valid base address for the secondary slave address */
 371:Generated_Source\PSoC6\pdl\drivers\peripheral\scb/cy_scb_ezi2c.h **** 
 372:Generated_Source\PSoC6\pdl\drivers\peripheral\scb/cy_scb_ezi2c.h ****     bool     addr1Active; /**< Defines whether the request is intended for the primary slave addres
 373:Generated_Source\PSoC6\pdl\drivers\peripheral\scb/cy_scb_ezi2c.h ****     uint8_t  *curBuf;     /**< The pointer to the current location in the buffer (while it is acces
 374:Generated_Source\PSoC6\pdl\drivers\peripheral\scb/cy_scb_ezi2c.h ****     uint32_t bufSize;     /**< Specifies how many bytes are left in the current buffer */
 375:Generated_Source\PSoC6\pdl\drivers\peripheral\scb/cy_scb_ezi2c.h **** 
 376:Generated_Source\PSoC6\pdl\drivers\peripheral\scb/cy_scb_ezi2c.h ****     uint8_t *buf1;          /**< The pointer to the buffer exposed  on the request intended for the
 377:Generated_Source\PSoC6\pdl\drivers\peripheral\scb/cy_scb_ezi2c.h ****     uint32_t buf1Size;      /**< The buffer size assigned to the primary slave address */
 378:Generated_Source\PSoC6\pdl\drivers\peripheral\scb/cy_scb_ezi2c.h ****     uint32_t buf1rwBondary; /**< The Read/Write boundary within the buffer assigned to the primary 
 379:Generated_Source\PSoC6\pdl\drivers\peripheral\scb/cy_scb_ezi2c.h **** 
 380:Generated_Source\PSoC6\pdl\drivers\peripheral\scb/cy_scb_ezi2c.h ****     uint8_t *buf2;          /**< The pointer to the buffer exposed on the request intended for the 
 381:Generated_Source\PSoC6\pdl\drivers\peripheral\scb/cy_scb_ezi2c.h ****     uint32_t buf2Size;      /**< The buffer size assigned to the secondary slave address */
 382:Generated_Source\PSoC6\pdl\drivers\peripheral\scb/cy_scb_ezi2c.h ****     uint32_t buf2rwBondary; /**< The Read/Write boundary within the buffer assigned for the seconda
 383:Generated_Source\PSoC6\pdl\drivers\peripheral\scb/cy_scb_ezi2c.h ****     /** \endcond */
 384:Generated_Source\PSoC6\pdl\drivers\peripheral\scb/cy_scb_ezi2c.h **** } cy_stc_scb_ezi2c_context_t;
 385:Generated_Source\PSoC6\pdl\drivers\peripheral\scb/cy_scb_ezi2c.h **** /** \} group_scb_ezi2c_data_structures */
 386:Generated_Source\PSoC6\pdl\drivers\peripheral\scb/cy_scb_ezi2c.h **** 
 387:Generated_Source\PSoC6\pdl\drivers\peripheral\scb/cy_scb_ezi2c.h **** 
 388:Generated_Source\PSoC6\pdl\drivers\peripheral\scb/cy_scb_ezi2c.h **** /***************************************
 389:Generated_Source\PSoC6\pdl\drivers\peripheral\scb/cy_scb_ezi2c.h **** *        Function Prototypes
 390:Generated_Source\PSoC6\pdl\drivers\peripheral\scb/cy_scb_ezi2c.h **** ***************************************/
 391:Generated_Source\PSoC6\pdl\drivers\peripheral\scb/cy_scb_ezi2c.h **** 
 392:Generated_Source\PSoC6\pdl\drivers\peripheral\scb/cy_scb_ezi2c.h **** /**
 393:Generated_Source\PSoC6\pdl\drivers\peripheral\scb/cy_scb_ezi2c.h **** * \addtogroup group_scb_ezi2c_general_functions
 394:Generated_Source\PSoC6\pdl\drivers\peripheral\scb/cy_scb_ezi2c.h **** * \{
 395:Generated_Source\PSoC6\pdl\drivers\peripheral\scb/cy_scb_ezi2c.h **** */
ARM GAS  C:\Users\salaz\AppData\Local\Temp\ccU0pQaU.s 			page 57


 396:Generated_Source\PSoC6\pdl\drivers\peripheral\scb/cy_scb_ezi2c.h **** cy_en_scb_ezi2c_status_t Cy_SCB_EZI2C_Init(CySCB_Type *base, cy_stc_scb_ezi2c_config_t const *confi
 397:Generated_Source\PSoC6\pdl\drivers\peripheral\scb/cy_scb_ezi2c.h ****                                            cy_stc_scb_ezi2c_context_t *context);
 398:Generated_Source\PSoC6\pdl\drivers\peripheral\scb/cy_scb_ezi2c.h **** void     Cy_SCB_EZI2C_DeInit(CySCB_Type *base);
 399:Generated_Source\PSoC6\pdl\drivers\peripheral\scb/cy_scb_ezi2c.h **** __STATIC_INLINE void Cy_SCB_EZI2C_Enable(CySCB_Type *base);
 400:Generated_Source\PSoC6\pdl\drivers\peripheral\scb/cy_scb_ezi2c.h **** void     Cy_SCB_EZI2C_Disable(CySCB_Type *base, cy_stc_scb_ezi2c_context_t *context);
 401:Generated_Source\PSoC6\pdl\drivers\peripheral\scb/cy_scb_ezi2c.h **** 
 402:Generated_Source\PSoC6\pdl\drivers\peripheral\scb/cy_scb_ezi2c.h **** void     Cy_SCB_EZI2C_SetAddress1(CySCB_Type *base, uint8_t addr, cy_stc_scb_ezi2c_context_t *conte
 403:Generated_Source\PSoC6\pdl\drivers\peripheral\scb/cy_scb_ezi2c.h **** uint32_t Cy_SCB_EZI2C_GetAddress1(CySCB_Type const *base, cy_stc_scb_ezi2c_context_t const *context
 404:Generated_Source\PSoC6\pdl\drivers\peripheral\scb/cy_scb_ezi2c.h **** 
 405:Generated_Source\PSoC6\pdl\drivers\peripheral\scb/cy_scb_ezi2c.h **** void     Cy_SCB_EZI2C_SetAddress2(CySCB_Type *base, uint8_t addr, cy_stc_scb_ezi2c_context_t *conte
 406:Generated_Source\PSoC6\pdl\drivers\peripheral\scb/cy_scb_ezi2c.h **** uint32_t Cy_SCB_EZI2C_GetAddress2(CySCB_Type const *base, cy_stc_scb_ezi2c_context_t const *context
 407:Generated_Source\PSoC6\pdl\drivers\peripheral\scb/cy_scb_ezi2c.h **** /** \} group_scb_ezi2c_general_functions */
 408:Generated_Source\PSoC6\pdl\drivers\peripheral\scb/cy_scb_ezi2c.h **** 
 409:Generated_Source\PSoC6\pdl\drivers\peripheral\scb/cy_scb_ezi2c.h **** /**
 410:Generated_Source\PSoC6\pdl\drivers\peripheral\scb/cy_scb_ezi2c.h **** * \addtogroup group_scb_ezi2c_slave_functions
 411:Generated_Source\PSoC6\pdl\drivers\peripheral\scb/cy_scb_ezi2c.h **** * \{
 412:Generated_Source\PSoC6\pdl\drivers\peripheral\scb/cy_scb_ezi2c.h **** */
 413:Generated_Source\PSoC6\pdl\drivers\peripheral\scb/cy_scb_ezi2c.h **** void Cy_SCB_EZI2C_SetBuffer1(CySCB_Type const *base, uint8_t *buffer, uint32_t size, uint32_t rwBou
 414:Generated_Source\PSoC6\pdl\drivers\peripheral\scb/cy_scb_ezi2c.h ****                              cy_stc_scb_ezi2c_context_t *context);
 415:Generated_Source\PSoC6\pdl\drivers\peripheral\scb/cy_scb_ezi2c.h **** void Cy_SCB_EZI2C_SetBuffer2(CySCB_Type const *base, uint8_t *buffer, uint32_t size, uint32_t rwBou
 416:Generated_Source\PSoC6\pdl\drivers\peripheral\scb/cy_scb_ezi2c.h ****                              cy_stc_scb_ezi2c_context_t *context);
 417:Generated_Source\PSoC6\pdl\drivers\peripheral\scb/cy_scb_ezi2c.h **** 
 418:Generated_Source\PSoC6\pdl\drivers\peripheral\scb/cy_scb_ezi2c.h **** uint32_t Cy_SCB_EZI2C_GetActivity(CySCB_Type const *base, cy_stc_scb_ezi2c_context_t *context);
 419:Generated_Source\PSoC6\pdl\drivers\peripheral\scb/cy_scb_ezi2c.h **** 
 420:Generated_Source\PSoC6\pdl\drivers\peripheral\scb/cy_scb_ezi2c.h **** void Cy_SCB_EZI2C_Interrupt(CySCB_Type *base, cy_stc_scb_ezi2c_context_t *context);
 421:Generated_Source\PSoC6\pdl\drivers\peripheral\scb/cy_scb_ezi2c.h **** /** \} group_scb_ezi2c_slave_functions */
 422:Generated_Source\PSoC6\pdl\drivers\peripheral\scb/cy_scb_ezi2c.h **** 
 423:Generated_Source\PSoC6\pdl\drivers\peripheral\scb/cy_scb_ezi2c.h **** /**
 424:Generated_Source\PSoC6\pdl\drivers\peripheral\scb/cy_scb_ezi2c.h **** * \addtogroup group_scb_ezi2c_low_power_functions
 425:Generated_Source\PSoC6\pdl\drivers\peripheral\scb/cy_scb_ezi2c.h **** * \{
 426:Generated_Source\PSoC6\pdl\drivers\peripheral\scb/cy_scb_ezi2c.h **** */
 427:Generated_Source\PSoC6\pdl\drivers\peripheral\scb/cy_scb_ezi2c.h **** cy_en_syspm_status_t Cy_SCB_EZI2C_DeepSleepCallback(cy_stc_syspm_callback_params_t *callbackParams)
 428:Generated_Source\PSoC6\pdl\drivers\peripheral\scb/cy_scb_ezi2c.h **** cy_en_syspm_status_t Cy_SCB_EZI2C_HibernateCallback(cy_stc_syspm_callback_params_t *callbackParams)
 429:Generated_Source\PSoC6\pdl\drivers\peripheral\scb/cy_scb_ezi2c.h **** /** \} group_scb_ezi2c_low_power_functions */
 430:Generated_Source\PSoC6\pdl\drivers\peripheral\scb/cy_scb_ezi2c.h **** 
 431:Generated_Source\PSoC6\pdl\drivers\peripheral\scb/cy_scb_ezi2c.h **** 
 432:Generated_Source\PSoC6\pdl\drivers\peripheral\scb/cy_scb_ezi2c.h **** /***************************************
 433:Generated_Source\PSoC6\pdl\drivers\peripheral\scb/cy_scb_ezi2c.h **** *            API Constants
 434:Generated_Source\PSoC6\pdl\drivers\peripheral\scb/cy_scb_ezi2c.h **** ***************************************/
 435:Generated_Source\PSoC6\pdl\drivers\peripheral\scb/cy_scb_ezi2c.h **** 
 436:Generated_Source\PSoC6\pdl\drivers\peripheral\scb/cy_scb_ezi2c.h **** /**
 437:Generated_Source\PSoC6\pdl\drivers\peripheral\scb/cy_scb_ezi2c.h **** * \addtogroup group_scb_ezi2c_macros
 438:Generated_Source\PSoC6\pdl\drivers\peripheral\scb/cy_scb_ezi2c.h **** * \{
 439:Generated_Source\PSoC6\pdl\drivers\peripheral\scb/cy_scb_ezi2c.h **** */
 440:Generated_Source\PSoC6\pdl\drivers\peripheral\scb/cy_scb_ezi2c.h **** 
 441:Generated_Source\PSoC6\pdl\drivers\peripheral\scb/cy_scb_ezi2c.h **** /**
 442:Generated_Source\PSoC6\pdl\drivers\peripheral\scb/cy_scb_ezi2c.h **** * \defgroup group_scb_ezi2c_macros_get_activity EZI2C Activity Status
 443:Generated_Source\PSoC6\pdl\drivers\peripheral\scb/cy_scb_ezi2c.h **** * Each EZI2C slave status is encoded in a separate bit, therefore multiple bits
 444:Generated_Source\PSoC6\pdl\drivers\peripheral\scb/cy_scb_ezi2c.h **** * may be set to indicate the current status.
 445:Generated_Source\PSoC6\pdl\drivers\peripheral\scb/cy_scb_ezi2c.h **** * \{
 446:Generated_Source\PSoC6\pdl\drivers\peripheral\scb/cy_scb_ezi2c.h **** */
 447:Generated_Source\PSoC6\pdl\drivers\peripheral\scb/cy_scb_ezi2c.h **** 
 448:Generated_Source\PSoC6\pdl\drivers\peripheral\scb/cy_scb_ezi2c.h **** /**
 449:Generated_Source\PSoC6\pdl\drivers\peripheral\scb/cy_scb_ezi2c.h **** * The Read transfer intended for the primary slave address is complete.
 450:Generated_Source\PSoC6\pdl\drivers\peripheral\scb/cy_scb_ezi2c.h **** * The error condition status bit must be checked to ensure that the Read
 451:Generated_Source\PSoC6\pdl\drivers\peripheral\scb/cy_scb_ezi2c.h **** * transfer was completed successfully.
 452:Generated_Source\PSoC6\pdl\drivers\peripheral\scb/cy_scb_ezi2c.h **** */
ARM GAS  C:\Users\salaz\AppData\Local\Temp\ccU0pQaU.s 			page 58


 453:Generated_Source\PSoC6\pdl\drivers\peripheral\scb/cy_scb_ezi2c.h **** #define CY_SCB_EZI2C_STATUS_READ1       (0x01UL)
 454:Generated_Source\PSoC6\pdl\drivers\peripheral\scb/cy_scb_ezi2c.h **** 
 455:Generated_Source\PSoC6\pdl\drivers\peripheral\scb/cy_scb_ezi2c.h **** /**
 456:Generated_Source\PSoC6\pdl\drivers\peripheral\scb/cy_scb_ezi2c.h **** * The Write transfer intended for the primary slave address is complete.
 457:Generated_Source\PSoC6\pdl\drivers\peripheral\scb/cy_scb_ezi2c.h **** * The buffer content was modified.
 458:Generated_Source\PSoC6\pdl\drivers\peripheral\scb/cy_scb_ezi2c.h **** * The error condition status bit must be checked to ensure that the Write
 459:Generated_Source\PSoC6\pdl\drivers\peripheral\scb/cy_scb_ezi2c.h **** * transfer was completed successfully.
 460:Generated_Source\PSoC6\pdl\drivers\peripheral\scb/cy_scb_ezi2c.h **** */
 461:Generated_Source\PSoC6\pdl\drivers\peripheral\scb/cy_scb_ezi2c.h **** #define CY_SCB_EZI2C_STATUS_WRITE1      (0x02UL)
 462:Generated_Source\PSoC6\pdl\drivers\peripheral\scb/cy_scb_ezi2c.h **** 
 463:Generated_Source\PSoC6\pdl\drivers\peripheral\scb/cy_scb_ezi2c.h **** /**
 464:Generated_Source\PSoC6\pdl\drivers\peripheral\scb/cy_scb_ezi2c.h **** * The Read transfer intended for the secondary slave address is complete.
 465:Generated_Source\PSoC6\pdl\drivers\peripheral\scb/cy_scb_ezi2c.h **** * The error condition status bit must be checked to ensure that the Read
 466:Generated_Source\PSoC6\pdl\drivers\peripheral\scb/cy_scb_ezi2c.h **** * transfer was completed successfully.
 467:Generated_Source\PSoC6\pdl\drivers\peripheral\scb/cy_scb_ezi2c.h **** */
 468:Generated_Source\PSoC6\pdl\drivers\peripheral\scb/cy_scb_ezi2c.h **** #define CY_SCB_EZI2C_STATUS_READ2       (0x04UL)
 469:Generated_Source\PSoC6\pdl\drivers\peripheral\scb/cy_scb_ezi2c.h **** 
 470:Generated_Source\PSoC6\pdl\drivers\peripheral\scb/cy_scb_ezi2c.h **** /**
 471:Generated_Source\PSoC6\pdl\drivers\peripheral\scb/cy_scb_ezi2c.h **** * The Write transfer intended for the secondary slave address is complete.
 472:Generated_Source\PSoC6\pdl\drivers\peripheral\scb/cy_scb_ezi2c.h **** * The buffer content was modified.
 473:Generated_Source\PSoC6\pdl\drivers\peripheral\scb/cy_scb_ezi2c.h **** * The error condition status bit must be checked to ensure that the Write
 474:Generated_Source\PSoC6\pdl\drivers\peripheral\scb/cy_scb_ezi2c.h **** * transfer was completed successfully.
 475:Generated_Source\PSoC6\pdl\drivers\peripheral\scb/cy_scb_ezi2c.h **** */
 476:Generated_Source\PSoC6\pdl\drivers\peripheral\scb/cy_scb_ezi2c.h **** #define CY_SCB_EZI2C_STATUS_WRITE2       (0x08UL)
 477:Generated_Source\PSoC6\pdl\drivers\peripheral\scb/cy_scb_ezi2c.h **** 
 478:Generated_Source\PSoC6\pdl\drivers\peripheral\scb/cy_scb_ezi2c.h **** /**
 479:Generated_Source\PSoC6\pdl\drivers\peripheral\scb/cy_scb_ezi2c.h **** * A transfer intended for the primary address or secondary address is in
 480:Generated_Source\PSoC6\pdl\drivers\peripheral\scb/cy_scb_ezi2c.h **** * progress. The status bit is set after an address match and cleared
 481:Generated_Source\PSoC6\pdl\drivers\peripheral\scb/cy_scb_ezi2c.h **** * on a Stop or ReStart condition.
 482:Generated_Source\PSoC6\pdl\drivers\peripheral\scb/cy_scb_ezi2c.h **** */
 483:Generated_Source\PSoC6\pdl\drivers\peripheral\scb/cy_scb_ezi2c.h **** #define CY_SCB_EZI2C_STATUS_BUSY        (0x10UL)
 484:Generated_Source\PSoC6\pdl\drivers\peripheral\scb/cy_scb_ezi2c.h **** 
 485:Generated_Source\PSoC6\pdl\drivers\peripheral\scb/cy_scb_ezi2c.h **** /**
 486:Generated_Source\PSoC6\pdl\drivers\peripheral\scb/cy_scb_ezi2c.h **** * An error occurred during a transfer intended for the primary or secondary
 487:Generated_Source\PSoC6\pdl\drivers\peripheral\scb/cy_scb_ezi2c.h **** * slave address. The sources of the error are: a misplaced Start or Stop
 488:Generated_Source\PSoC6\pdl\drivers\peripheral\scb/cy_scb_ezi2c.h **** * condition or lost arbitration while the slave drives SDA.
 489:Generated_Source\PSoC6\pdl\drivers\peripheral\scb/cy_scb_ezi2c.h **** * When CY_SCB_EZI2C_STATUS_ERR is set, the slave buffer may contain an
 490:Generated_Source\PSoC6\pdl\drivers\peripheral\scb/cy_scb_ezi2c.h **** * invalid byte. Discard the buffer content in this case.
 491:Generated_Source\PSoC6\pdl\drivers\peripheral\scb/cy_scb_ezi2c.h **** */
 492:Generated_Source\PSoC6\pdl\drivers\peripheral\scb/cy_scb_ezi2c.h **** #define CY_SCB_EZI2C_STATUS_ERR         (0x20UL)
 493:Generated_Source\PSoC6\pdl\drivers\peripheral\scb/cy_scb_ezi2c.h **** /** \} group_scb_ezi2c_macros_get_activity */
 494:Generated_Source\PSoC6\pdl\drivers\peripheral\scb/cy_scb_ezi2c.h **** 
 495:Generated_Source\PSoC6\pdl\drivers\peripheral\scb/cy_scb_ezi2c.h **** /**
 496:Generated_Source\PSoC6\pdl\drivers\peripheral\scb/cy_scb_ezi2c.h **** * This value is returned by the slave when the buffer is not configured or
 497:Generated_Source\PSoC6\pdl\drivers\peripheral\scb/cy_scb_ezi2c.h **** * the master requests more bytes than are available in the buffer.
 498:Generated_Source\PSoC6\pdl\drivers\peripheral\scb/cy_scb_ezi2c.h **** */
 499:Generated_Source\PSoC6\pdl\drivers\peripheral\scb/cy_scb_ezi2c.h **** #define CY_SCB_EZI2C_DEFAULT_TX  (0xFFUL)
 500:Generated_Source\PSoC6\pdl\drivers\peripheral\scb/cy_scb_ezi2c.h **** 
 501:Generated_Source\PSoC6\pdl\drivers\peripheral\scb/cy_scb_ezi2c.h **** 
 502:Generated_Source\PSoC6\pdl\drivers\peripheral\scb/cy_scb_ezi2c.h **** /***************************************
 503:Generated_Source\PSoC6\pdl\drivers\peripheral\scb/cy_scb_ezi2c.h **** *         Internal Constants
 504:Generated_Source\PSoC6\pdl\drivers\peripheral\scb/cy_scb_ezi2c.h **** ***************************************/
 505:Generated_Source\PSoC6\pdl\drivers\peripheral\scb/cy_scb_ezi2c.h **** 
 506:Generated_Source\PSoC6\pdl\drivers\peripheral\scb/cy_scb_ezi2c.h **** /** \cond INTERNAL */
 507:Generated_Source\PSoC6\pdl\drivers\peripheral\scb/cy_scb_ezi2c.h **** /* Default registers values */
 508:Generated_Source\PSoC6\pdl\drivers\peripheral\scb/cy_scb_ezi2c.h **** #define CY_SCB_EZI2C_I2C_CTRL   (SCB_I2C_CTRL_S_GENERAL_IGNORE_Msk | SCB_I2C_CTRL_SLAVE_MODE_Msk)
 509:Generated_Source\PSoC6\pdl\drivers\peripheral\scb/cy_scb_ezi2c.h **** #define CY_SCB_EZI2C_RX_CTRL    (CY_SCB_I2C_RX_CTRL)
ARM GAS  C:\Users\salaz\AppData\Local\Temp\ccU0pQaU.s 			page 59


 510:Generated_Source\PSoC6\pdl\drivers\peripheral\scb/cy_scb_ezi2c.h **** #define CY_SCB_EZI2C_TX_CTRL    (CY_SCB_I2C_TX_CTRL)
 511:Generated_Source\PSoC6\pdl\drivers\peripheral\scb/cy_scb_ezi2c.h **** 
 512:Generated_Source\PSoC6\pdl\drivers\peripheral\scb/cy_scb_ezi2c.h **** #define CY_SCB_EZI2C_SLAVE_INTR     (CY_SCB_SLAVE_INTR_I2C_ADDR_MATCH | CY_SCB_SLAVE_INTR_I2C_STOP 
 513:Generated_Source\PSoC6\pdl\drivers\peripheral\scb/cy_scb_ezi2c.h ****                                      CY_SCB_SLAVE_INTR_I2C_BUS_ERROR  | CY_SCB_SLAVE_INTR_I2C_ARB_L
 514:Generated_Source\PSoC6\pdl\drivers\peripheral\scb/cy_scb_ezi2c.h **** /* Error interrupt sources */
 515:Generated_Source\PSoC6\pdl\drivers\peripheral\scb/cy_scb_ezi2c.h **** #define CY_SCB_EZI2C_SLAVE_INTR_ERROR   (CY_SCB_SLAVE_INTR_I2C_BUS_ERROR  | CY_SCB_SLAVE_INTR_I2C_A
 516:Generated_Source\PSoC6\pdl\drivers\peripheral\scb/cy_scb_ezi2c.h **** 
 517:Generated_Source\PSoC6\pdl\drivers\peripheral\scb/cy_scb_ezi2c.h **** /* Disables Stop interrupt source */
 518:Generated_Source\PSoC6\pdl\drivers\peripheral\scb/cy_scb_ezi2c.h **** #define CY_SCB_EZI2C_SLAVE_INTR_NO_STOP (CY_SCB_EZI2C_SLAVE_INTR & ((uint32_t) ~CY_SCB_SLAVE_INTR_I
 519:Generated_Source\PSoC6\pdl\drivers\peripheral\scb/cy_scb_ezi2c.h **** 
 520:Generated_Source\PSoC6\pdl\drivers\peripheral\scb/cy_scb_ezi2c.h **** /* Disable Address interrupt source */
 521:Generated_Source\PSoC6\pdl\drivers\peripheral\scb/cy_scb_ezi2c.h **** #define CY_SCB_EZI2C_SLAVE_INTR_NO_ADDR (CY_SCB_EZI2C_SLAVE_INTR & ((uint32_t) ~CY_SCB_SLAVE_INTR_I
 522:Generated_Source\PSoC6\pdl\drivers\peripheral\scb/cy_scb_ezi2c.h **** 
 523:Generated_Source\PSoC6\pdl\drivers\peripheral\scb/cy_scb_ezi2c.h **** /* FIFO size */
 524:Generated_Source\PSoC6\pdl\drivers\peripheral\scb/cy_scb_ezi2c.h **** #define CY_SCB_EZI2C_FIFO_SIZE(base)          CY_SCB_FIFO_SIZE(base)
 525:Generated_Source\PSoC6\pdl\drivers\peripheral\scb/cy_scb_ezi2c.h **** #define CY_SCB_EZI2C_HALF_FIFO_SIZE(base)    (CY_SCB_FIFO_SIZE(base) / 2UL)
 526:Generated_Source\PSoC6\pdl\drivers\peripheral\scb/cy_scb_ezi2c.h **** 
 527:Generated_Source\PSoC6\pdl\drivers\peripheral\scb/cy_scb_ezi2c.h **** #define CY_SCB_EZI2C_ONE_ADDRESS_MASK   (0xFFUL)
 528:Generated_Source\PSoC6\pdl\drivers\peripheral\scb/cy_scb_ezi2c.h **** 
 529:Generated_Source\PSoC6\pdl\drivers\peripheral\scb/cy_scb_ezi2c.h **** #define CY_SCB_EZI2C_IS_NUM_OF_ADDR_VALID(numAddr)  ( (CY_SCB_EZI2C_ONE_ADDRESS   == (numAddr)) || 
 530:Generated_Source\PSoC6\pdl\drivers\peripheral\scb/cy_scb_ezi2c.h ****                                                       (CY_SCB_EZI2C_TWO_ADDRESSES == (numAddr)) )
 531:Generated_Source\PSoC6\pdl\drivers\peripheral\scb/cy_scb_ezi2c.h **** 
 532:Generated_Source\PSoC6\pdl\drivers\peripheral\scb/cy_scb_ezi2c.h **** #define CY_SCB_EZI2C_IS_SUB_ADDR_SIZE_VALID(subAddrSize)    ( (CY_SCB_EZI2C_SUB_ADDR8_BITS  == (sub
 533:Generated_Source\PSoC6\pdl\drivers\peripheral\scb/cy_scb_ezi2c.h ****                                                               (CY_SCB_EZI2C_SUB_ADDR16_BITS == (sub
 534:Generated_Source\PSoC6\pdl\drivers\peripheral\scb/cy_scb_ezi2c.h **** /** \endcond */
 535:Generated_Source\PSoC6\pdl\drivers\peripheral\scb/cy_scb_ezi2c.h **** /** \} group_scb_ezi2c_macros */
 536:Generated_Source\PSoC6\pdl\drivers\peripheral\scb/cy_scb_ezi2c.h **** 
 537:Generated_Source\PSoC6\pdl\drivers\peripheral\scb/cy_scb_ezi2c.h **** 
 538:Generated_Source\PSoC6\pdl\drivers\peripheral\scb/cy_scb_ezi2c.h **** /***************************************
 539:Generated_Source\PSoC6\pdl\drivers\peripheral\scb/cy_scb_ezi2c.h **** *    Inline Function Implementation
 540:Generated_Source\PSoC6\pdl\drivers\peripheral\scb/cy_scb_ezi2c.h **** ***************************************/
 541:Generated_Source\PSoC6\pdl\drivers\peripheral\scb/cy_scb_ezi2c.h **** 
 542:Generated_Source\PSoC6\pdl\drivers\peripheral\scb/cy_scb_ezi2c.h **** /**
 543:Generated_Source\PSoC6\pdl\drivers\peripheral\scb/cy_scb_ezi2c.h **** * \addtogroup group_scb_ezi2c_general_functions
 544:Generated_Source\PSoC6\pdl\drivers\peripheral\scb/cy_scb_ezi2c.h **** * \{
 545:Generated_Source\PSoC6\pdl\drivers\peripheral\scb/cy_scb_ezi2c.h **** */
 546:Generated_Source\PSoC6\pdl\drivers\peripheral\scb/cy_scb_ezi2c.h **** /*******************************************************************************
 547:Generated_Source\PSoC6\pdl\drivers\peripheral\scb/cy_scb_ezi2c.h **** * Function Name: Cy_SCB_EZI2C_Enable
 548:Generated_Source\PSoC6\pdl\drivers\peripheral\scb/cy_scb_ezi2c.h **** ****************************************************************************//**
 549:Generated_Source\PSoC6\pdl\drivers\peripheral\scb/cy_scb_ezi2c.h **** *
 550:Generated_Source\PSoC6\pdl\drivers\peripheral\scb/cy_scb_ezi2c.h **** * Enables the SCB block for the EZI2C operation
 551:Generated_Source\PSoC6\pdl\drivers\peripheral\scb/cy_scb_ezi2c.h **** *
 552:Generated_Source\PSoC6\pdl\drivers\peripheral\scb/cy_scb_ezi2c.h **** * \param base
 553:Generated_Source\PSoC6\pdl\drivers\peripheral\scb/cy_scb_ezi2c.h **** * The pointer to the EZI2C SCB instance.
 554:Generated_Source\PSoC6\pdl\drivers\peripheral\scb/cy_scb_ezi2c.h **** *
 555:Generated_Source\PSoC6\pdl\drivers\peripheral\scb/cy_scb_ezi2c.h **** *******************************************************************************/
 556:Generated_Source\PSoC6\pdl\drivers\peripheral\scb/cy_scb_ezi2c.h **** __STATIC_INLINE void Cy_SCB_EZI2C_Enable(CySCB_Type *base)
 557:Generated_Source\PSoC6\pdl\drivers\peripheral\scb/cy_scb_ezi2c.h **** {
 1048              		.loc 2 557 0
 1049              		.cfi_startproc
 1050              		@ args = 0, pretend = 0, frame = 8
 1051              		@ frame_needed = 1, uses_anonymous_args = 0
 1052 0000 80B5     		push	{r7, lr}
 1053              		.cfi_def_cfa_offset 8
 1054              		.cfi_offset 7, -8
 1055              		.cfi_offset 14, -4
 1056 0002 82B0     		sub	sp, sp, #8
ARM GAS  C:\Users\salaz\AppData\Local\Temp\ccU0pQaU.s 			page 60


 1057              		.cfi_def_cfa_offset 16
 1058 0004 00AF     		add	r7, sp, #0
 1059              		.cfi_def_cfa_register 7
 1060 0006 7860     		str	r0, [r7, #4]
 558:Generated_Source\PSoC6\pdl\drivers\peripheral\scb/cy_scb_ezi2c.h ****     base->CTRL |= SCB_CTRL_ENABLED_Msk;
 1061              		.loc 2 558 0
 1062 0008 7B68     		ldr	r3, [r7, #4]
 1063 000a 1B68     		ldr	r3, [r3]
 1064 000c 8022     		movs	r2, #128
 1065 000e 1206     		lsls	r2, r2, #24
 1066 0010 1A43     		orrs	r2, r3
 1067 0012 7B68     		ldr	r3, [r7, #4]
 1068 0014 1A60     		str	r2, [r3]
 559:Generated_Source\PSoC6\pdl\drivers\peripheral\scb/cy_scb_ezi2c.h **** }
 1069              		.loc 2 559 0
 1070 0016 C046     		nop
 1071 0018 BD46     		mov	sp, r7
 1072 001a 02B0     		add	sp, sp, #8
 1073              		@ sp needed
 1074 001c 80BD     		pop	{r7, pc}
 1075              		.cfi_endproc
 1076              	.LFE121:
 1077              		.size	Cy_SCB_EZI2C_Enable, .-Cy_SCB_EZI2C_Enable
 1078 001e C046     		.section	.rodata
 1079 0042 0000     		.align	2
 1080              	.LC11:
 1081 0044 47656E65 		.ascii	"Generated_Source\\PSoC6\\pdl\\drivers\\peripheral\\"
 1081      72617465 
 1081      645F536F 
 1081      75726365 
 1081      5C50536F 
 1082 0072 7363625C 		.ascii	"scb\\cy_scb_ezi2c.c\000"
 1082      63795F73 
 1082      63625F65 
 1082      7A693263 
 1082      2E6300
 1083              		.section	.text.Cy_SCB_EZI2C_Init,"ax",%progbits
 1084              		.align	2
 1085              		.global	Cy_SCB_EZI2C_Init
 1086              		.code	16
 1087              		.thumb_func
 1088              		.type	Cy_SCB_EZI2C_Init, %function
 1089              	Cy_SCB_EZI2C_Init:
 1090              	.LFB122:
 1091              		.file 3 "Generated_Source\\PSoC6\\pdl\\drivers\\peripheral\\scb\\cy_scb_ezi2c.c"
   1:Generated_Source\PSoC6\pdl\drivers\peripheral\scb/cy_scb_ezi2c.c **** /***************************************************************************//**
   2:Generated_Source\PSoC6\pdl\drivers\peripheral\scb/cy_scb_ezi2c.c **** * \file cy_scb_ezi2c.c
   3:Generated_Source\PSoC6\pdl\drivers\peripheral\scb/cy_scb_ezi2c.c **** * \version 2.10
   4:Generated_Source\PSoC6\pdl\drivers\peripheral\scb/cy_scb_ezi2c.c **** *
   5:Generated_Source\PSoC6\pdl\drivers\peripheral\scb/cy_scb_ezi2c.c **** * Provides EZI2C API implementation of the SCB driver.
   6:Generated_Source\PSoC6\pdl\drivers\peripheral\scb/cy_scb_ezi2c.c **** *
   7:Generated_Source\PSoC6\pdl\drivers\peripheral\scb/cy_scb_ezi2c.c **** ********************************************************************************
   8:Generated_Source\PSoC6\pdl\drivers\peripheral\scb/cy_scb_ezi2c.c **** * \copyright
   9:Generated_Source\PSoC6\pdl\drivers\peripheral\scb/cy_scb_ezi2c.c **** * Copyright 2016-2018, Cypress Semiconductor Corporation. All rights reserved.
  10:Generated_Source\PSoC6\pdl\drivers\peripheral\scb/cy_scb_ezi2c.c **** * You may use this file only in accordance with the license, terms, conditions,
  11:Generated_Source\PSoC6\pdl\drivers\peripheral\scb/cy_scb_ezi2c.c **** * disclaimers, and limitations in the end user license agreement accompanying
  12:Generated_Source\PSoC6\pdl\drivers\peripheral\scb/cy_scb_ezi2c.c **** * the software package with which this file was provided.
ARM GAS  C:\Users\salaz\AppData\Local\Temp\ccU0pQaU.s 			page 61


  13:Generated_Source\PSoC6\pdl\drivers\peripheral\scb/cy_scb_ezi2c.c **** *******************************************************************************/
  14:Generated_Source\PSoC6\pdl\drivers\peripheral\scb/cy_scb_ezi2c.c **** 
  15:Generated_Source\PSoC6\pdl\drivers\peripheral\scb/cy_scb_ezi2c.c **** #include "cy_scb_ezi2c.h"
  16:Generated_Source\PSoC6\pdl\drivers\peripheral\scb/cy_scb_ezi2c.c **** 
  17:Generated_Source\PSoC6\pdl\drivers\peripheral\scb/cy_scb_ezi2c.c **** #if defined(__cplusplus)
  18:Generated_Source\PSoC6\pdl\drivers\peripheral\scb/cy_scb_ezi2c.c **** extern "C" {
  19:Generated_Source\PSoC6\pdl\drivers\peripheral\scb/cy_scb_ezi2c.c **** #endif
  20:Generated_Source\PSoC6\pdl\drivers\peripheral\scb/cy_scb_ezi2c.c **** 
  21:Generated_Source\PSoC6\pdl\drivers\peripheral\scb/cy_scb_ezi2c.c **** 
  22:Generated_Source\PSoC6\pdl\drivers\peripheral\scb/cy_scb_ezi2c.c **** /***************************************
  23:Generated_Source\PSoC6\pdl\drivers\peripheral\scb/cy_scb_ezi2c.c **** *        Function Prototypes
  24:Generated_Source\PSoC6\pdl\drivers\peripheral\scb/cy_scb_ezi2c.c **** ***************************************/
  25:Generated_Source\PSoC6\pdl\drivers\peripheral\scb/cy_scb_ezi2c.c **** 
  26:Generated_Source\PSoC6\pdl\drivers\peripheral\scb/cy_scb_ezi2c.c **** static void HandleErrors      (CySCB_Type *base, cy_stc_scb_ezi2c_context_t *context);
  27:Generated_Source\PSoC6\pdl\drivers\peripheral\scb/cy_scb_ezi2c.c **** static void HandleAddress     (CySCB_Type *base, cy_stc_scb_ezi2c_context_t *context);
  28:Generated_Source\PSoC6\pdl\drivers\peripheral\scb/cy_scb_ezi2c.c **** static void UpdateRxFifoLevel (CySCB_Type *base, uint32_t bufSize);
  29:Generated_Source\PSoC6\pdl\drivers\peripheral\scb/cy_scb_ezi2c.c **** static void HandleDataReceive (CySCB_Type *base, cy_stc_scb_ezi2c_context_t *context);
  30:Generated_Source\PSoC6\pdl\drivers\peripheral\scb/cy_scb_ezi2c.c **** static void HandleDataTransmit(CySCB_Type *base, cy_stc_scb_ezi2c_context_t *context);
  31:Generated_Source\PSoC6\pdl\drivers\peripheral\scb/cy_scb_ezi2c.c **** static void HandleStop        (CySCB_Type *base, cy_stc_scb_ezi2c_context_t *context);
  32:Generated_Source\PSoC6\pdl\drivers\peripheral\scb/cy_scb_ezi2c.c **** static void UpdateAddressMask (CySCB_Type *base, cy_stc_scb_ezi2c_context_t const *context);
  33:Generated_Source\PSoC6\pdl\drivers\peripheral\scb/cy_scb_ezi2c.c **** 
  34:Generated_Source\PSoC6\pdl\drivers\peripheral\scb/cy_scb_ezi2c.c **** 
  35:Generated_Source\PSoC6\pdl\drivers\peripheral\scb/cy_scb_ezi2c.c **** /*******************************************************************************
  36:Generated_Source\PSoC6\pdl\drivers\peripheral\scb/cy_scb_ezi2c.c **** * Function Name: Cy_SCB_EZI2C_Init
  37:Generated_Source\PSoC6\pdl\drivers\peripheral\scb/cy_scb_ezi2c.c **** ****************************************************************************//**
  38:Generated_Source\PSoC6\pdl\drivers\peripheral\scb/cy_scb_ezi2c.c **** *
  39:Generated_Source\PSoC6\pdl\drivers\peripheral\scb/cy_scb_ezi2c.c **** * Initializes the SCB for the EZI2C operation.
  40:Generated_Source\PSoC6\pdl\drivers\peripheral\scb/cy_scb_ezi2c.c **** *
  41:Generated_Source\PSoC6\pdl\drivers\peripheral\scb/cy_scb_ezi2c.c **** * \param base
  42:Generated_Source\PSoC6\pdl\drivers\peripheral\scb/cy_scb_ezi2c.c **** * The pointer to the EZI2C SCB instance.
  43:Generated_Source\PSoC6\pdl\drivers\peripheral\scb/cy_scb_ezi2c.c **** *
  44:Generated_Source\PSoC6\pdl\drivers\peripheral\scb/cy_scb_ezi2c.c **** * \param config
  45:Generated_Source\PSoC6\pdl\drivers\peripheral\scb/cy_scb_ezi2c.c **** * The pointer to the configuration structure \ref cy_stc_scb_ezi2c_config_t.
  46:Generated_Source\PSoC6\pdl\drivers\peripheral\scb/cy_scb_ezi2c.c **** *
  47:Generated_Source\PSoC6\pdl\drivers\peripheral\scb/cy_scb_ezi2c.c **** * \param context
  48:Generated_Source\PSoC6\pdl\drivers\peripheral\scb/cy_scb_ezi2c.c **** * The pointer to the context structure \ref cy_stc_scb_ezi2c_context_t
  49:Generated_Source\PSoC6\pdl\drivers\peripheral\scb/cy_scb_ezi2c.c **** * allocated by the user. The structure is used during the EZI2C operation for
  50:Generated_Source\PSoC6\pdl\drivers\peripheral\scb/cy_scb_ezi2c.c **** * internal configuration and data retention. The user must not modify anything
  51:Generated_Source\PSoC6\pdl\drivers\peripheral\scb/cy_scb_ezi2c.c **** * in this structure.
  52:Generated_Source\PSoC6\pdl\drivers\peripheral\scb/cy_scb_ezi2c.c **** *
  53:Generated_Source\PSoC6\pdl\drivers\peripheral\scb/cy_scb_ezi2c.c **** * \return
  54:Generated_Source\PSoC6\pdl\drivers\peripheral\scb/cy_scb_ezi2c.c **** * \ref cy_en_scb_ezi2c_status_t
  55:Generated_Source\PSoC6\pdl\drivers\peripheral\scb/cy_scb_ezi2c.c **** *
  56:Generated_Source\PSoC6\pdl\drivers\peripheral\scb/cy_scb_ezi2c.c **** * \note
  57:Generated_Source\PSoC6\pdl\drivers\peripheral\scb/cy_scb_ezi2c.c **** * Ensure that the SCB block is disabled before calling this function.
  58:Generated_Source\PSoC6\pdl\drivers\peripheral\scb/cy_scb_ezi2c.c **** *
  59:Generated_Source\PSoC6\pdl\drivers\peripheral\scb/cy_scb_ezi2c.c **** *******************************************************************************/
  60:Generated_Source\PSoC6\pdl\drivers\peripheral\scb/cy_scb_ezi2c.c **** cy_en_scb_ezi2c_status_t Cy_SCB_EZI2C_Init(CySCB_Type *base, cy_stc_scb_ezi2c_config_t const *confi
  61:Generated_Source\PSoC6\pdl\drivers\peripheral\scb/cy_scb_ezi2c.c ****                                            cy_stc_scb_ezi2c_context_t *context)
  62:Generated_Source\PSoC6\pdl\drivers\peripheral\scb/cy_scb_ezi2c.c **** {
 1092              		.loc 3 62 0
 1093              		.cfi_startproc
 1094              		@ args = 0, pretend = 0, frame = 16
 1095              		@ frame_needed = 1, uses_anonymous_args = 0
 1096 0000 80B5     		push	{r7, lr}
 1097              		.cfi_def_cfa_offset 8
 1098              		.cfi_offset 7, -8
ARM GAS  C:\Users\salaz\AppData\Local\Temp\ccU0pQaU.s 			page 62


 1099              		.cfi_offset 14, -4
 1100 0002 84B0     		sub	sp, sp, #16
 1101              		.cfi_def_cfa_offset 24
 1102 0004 00AF     		add	r7, sp, #0
 1103              		.cfi_def_cfa_register 7
 1104 0006 F860     		str	r0, [r7, #12]
 1105 0008 B960     		str	r1, [r7, #8]
 1106 000a 7A60     		str	r2, [r7, #4]
  63:Generated_Source\PSoC6\pdl\drivers\peripheral\scb/cy_scb_ezi2c.c ****     /* Input parameters verification */
  64:Generated_Source\PSoC6\pdl\drivers\peripheral\scb/cy_scb_ezi2c.c ****     if ((NULL == base) || (NULL == config) || (NULL == context))
 1107              		.loc 3 64 0
 1108 000c FB68     		ldr	r3, [r7, #12]
 1109 000e 002B     		cmp	r3, #0
 1110 0010 05D0     		beq	.L74
 1111              		.loc 3 64 0 is_stmt 0 discriminator 1
 1112 0012 BB68     		ldr	r3, [r7, #8]
 1113 0014 002B     		cmp	r3, #0
 1114 0016 02D0     		beq	.L74
 1115              		.loc 3 64 0 discriminator 2
 1116 0018 7B68     		ldr	r3, [r7, #4]
 1117 001a 002B     		cmp	r3, #0
 1118 001c 01D1     		bne	.L75
 1119              	.L74:
  65:Generated_Source\PSoC6\pdl\drivers\peripheral\scb/cy_scb_ezi2c.c ****     {
  66:Generated_Source\PSoC6\pdl\drivers\peripheral\scb/cy_scb_ezi2c.c ****         return CY_SCB_EZI2C_BAD_PARAM;
 1120              		.loc 3 66 0 is_stmt 1
 1121 001e 654B     		ldr	r3, .L89
 1122 0020 C3E0     		b	.L76
 1123              	.L75:
  67:Generated_Source\PSoC6\pdl\drivers\peripheral\scb/cy_scb_ezi2c.c ****     }
  68:Generated_Source\PSoC6\pdl\drivers\peripheral\scb/cy_scb_ezi2c.c **** 
  69:Generated_Source\PSoC6\pdl\drivers\peripheral\scb/cy_scb_ezi2c.c ****     if (!SCB_IS_I2C_SLAVE_CAPABLE(base))
  70:Generated_Source\PSoC6\pdl\drivers\peripheral\scb/cy_scb_ezi2c.c ****     {
  71:Generated_Source\PSoC6\pdl\drivers\peripheral\scb/cy_scb_ezi2c.c ****         return CY_SCB_EZI2C_BAD_PARAM;
  72:Generated_Source\PSoC6\pdl\drivers\peripheral\scb/cy_scb_ezi2c.c ****     }
  73:Generated_Source\PSoC6\pdl\drivers\peripheral\scb/cy_scb_ezi2c.c **** 
  74:Generated_Source\PSoC6\pdl\drivers\peripheral\scb/cy_scb_ezi2c.c ****     if ((config->enableWakeFromSleep) && (!SCB_IS_I2C_DS_CAPABLE(base)))
 1124              		.loc 3 74 0
 1125 0022 BB68     		ldr	r3, [r7, #8]
 1126 0024 1B79     		ldrb	r3, [r3, #4]
 1127 0026 002B     		cmp	r3, #0
 1128 0028 05D0     		beq	.L77
 1129              		.loc 3 74 0 is_stmt 0 discriminator 1
 1130 002a FB68     		ldr	r3, [r7, #12]
 1131 002c 624A     		ldr	r2, .L89+4
 1132 002e 9342     		cmp	r3, r2
 1133 0030 01D0     		beq	.L77
  75:Generated_Source\PSoC6\pdl\drivers\peripheral\scb/cy_scb_ezi2c.c ****     {
  76:Generated_Source\PSoC6\pdl\drivers\peripheral\scb/cy_scb_ezi2c.c ****         return CY_SCB_EZI2C_BAD_PARAM;
 1134              		.loc 3 76 0 is_stmt 1
 1135 0032 604B     		ldr	r3, .L89
 1136 0034 B9E0     		b	.L76
 1137              	.L77:
  77:Generated_Source\PSoC6\pdl\drivers\peripheral\scb/cy_scb_ezi2c.c ****     }
  78:Generated_Source\PSoC6\pdl\drivers\peripheral\scb/cy_scb_ezi2c.c **** 
  79:Generated_Source\PSoC6\pdl\drivers\peripheral\scb/cy_scb_ezi2c.c ****     CY_ASSERT_L2(CY_SCB_IS_I2C_ADDR_VALID(config->slaveAddress1));
 1138              		.loc 3 79 0
ARM GAS  C:\Users\salaz\AppData\Local\Temp\ccU0pQaU.s 			page 63


 1139 0036 BB68     		ldr	r3, [r7, #8]
 1140 0038 5B78     		ldrb	r3, [r3, #1]
 1141 003a 5BB2     		sxtb	r3, r3
 1142 003c 002B     		cmp	r3, #0
 1143 003e 04DA     		bge	.L78
 1144              		.loc 3 79 0 is_stmt 0 discriminator 1
 1145 0040 5E4B     		ldr	r3, .L89+8
 1146 0042 4F21     		movs	r1, #79
 1147 0044 1800     		movs	r0, r3
 1148 0046 FFF7FEFF 		bl	Cy_SysLib_AssertFailed
 1149              	.L78:
  80:Generated_Source\PSoC6\pdl\drivers\peripheral\scb/cy_scb_ezi2c.c ****     CY_ASSERT_L2(CY_SCB_IS_I2C_ADDR_VALID(config->slaveAddress2));
 1150              		.loc 3 80 0 is_stmt 1
 1151 004a BB68     		ldr	r3, [r7, #8]
 1152 004c 9B78     		ldrb	r3, [r3, #2]
 1153 004e 5BB2     		sxtb	r3, r3
 1154 0050 002B     		cmp	r3, #0
 1155 0052 04DA     		bge	.L79
 1156              		.loc 3 80 0 is_stmt 0 discriminator 1
 1157 0054 594B     		ldr	r3, .L89+8
 1158 0056 5021     		movs	r1, #80
 1159 0058 1800     		movs	r0, r3
 1160 005a FFF7FEFF 		bl	Cy_SysLib_AssertFailed
 1161              	.L79:
  81:Generated_Source\PSoC6\pdl\drivers\peripheral\scb/cy_scb_ezi2c.c ****     CY_ASSERT_L2(config->slaveAddress1 != config->slaveAddress2);
 1162              		.loc 3 81 0 is_stmt 1
 1163 005e BB68     		ldr	r3, [r7, #8]
 1164 0060 5A78     		ldrb	r2, [r3, #1]
 1165 0062 BB68     		ldr	r3, [r7, #8]
 1166 0064 9B78     		ldrb	r3, [r3, #2]
 1167 0066 9A42     		cmp	r2, r3
 1168 0068 04D1     		bne	.L80
 1169              		.loc 3 81 0 is_stmt 0 discriminator 1
 1170 006a 544B     		ldr	r3, .L89+8
 1171 006c 5121     		movs	r1, #81
 1172 006e 1800     		movs	r0, r3
 1173 0070 FFF7FEFF 		bl	Cy_SysLib_AssertFailed
 1174              	.L80:
  82:Generated_Source\PSoC6\pdl\drivers\peripheral\scb/cy_scb_ezi2c.c ****     CY_ASSERT_L3(CY_SCB_EZI2C_IS_NUM_OF_ADDR_VALID  (config->numberOfAddresses));
 1175              		.loc 3 82 0 is_stmt 1
 1176 0074 BB68     		ldr	r3, [r7, #8]
 1177 0076 1B78     		ldrb	r3, [r3]
 1178 0078 002B     		cmp	r3, #0
 1179 007a 08D0     		beq	.L81
 1180              		.loc 3 82 0 is_stmt 0 discriminator 1
 1181 007c BB68     		ldr	r3, [r7, #8]
 1182 007e 1B78     		ldrb	r3, [r3]
 1183 0080 012B     		cmp	r3, #1
 1184 0082 04D0     		beq	.L81
 1185              		.loc 3 82 0 discriminator 2
 1186 0084 4D4B     		ldr	r3, .L89+8
 1187 0086 5221     		movs	r1, #82
 1188 0088 1800     		movs	r0, r3
 1189 008a FFF7FEFF 		bl	Cy_SysLib_AssertFailed
 1190              	.L81:
  83:Generated_Source\PSoC6\pdl\drivers\peripheral\scb/cy_scb_ezi2c.c ****     CY_ASSERT_L3(CY_SCB_EZI2C_IS_SUB_ADDR_SIZE_VALID(config->subAddressSize));
 1191              		.loc 3 83 0 is_stmt 1
ARM GAS  C:\Users\salaz\AppData\Local\Temp\ccU0pQaU.s 			page 64


 1192 008e BB68     		ldr	r3, [r7, #8]
 1193 0090 DB78     		ldrb	r3, [r3, #3]
 1194 0092 002B     		cmp	r3, #0
 1195 0094 08D0     		beq	.L82
 1196              		.loc 3 83 0 is_stmt 0 discriminator 1
 1197 0096 BB68     		ldr	r3, [r7, #8]
 1198 0098 DB78     		ldrb	r3, [r3, #3]
 1199 009a 012B     		cmp	r3, #1
 1200 009c 04D0     		beq	.L82
 1201              		.loc 3 83 0 discriminator 2
 1202 009e 474B     		ldr	r3, .L89+8
 1203 00a0 5321     		movs	r1, #83
 1204 00a2 1800     		movs	r0, r3
 1205 00a4 FFF7FEFF 		bl	Cy_SysLib_AssertFailed
 1206              	.L82:
  84:Generated_Source\PSoC6\pdl\drivers\peripheral\scb/cy_scb_ezi2c.c **** 
  85:Generated_Source\PSoC6\pdl\drivers\peripheral\scb/cy_scb_ezi2c.c ****     /* Configure the EZI2C interface */
  86:Generated_Source\PSoC6\pdl\drivers\peripheral\scb/cy_scb_ezi2c.c ****     base->CTRL = _BOOL2FLD(SCB_CTRL_ADDR_ACCEPT, (config->numberOfAddresses == CY_SCB_EZI2C_TWO_ADD
 1207              		.loc 3 86 0 is_stmt 1
 1208 00a8 BB68     		ldr	r3, [r7, #8]
 1209 00aa 1B78     		ldrb	r3, [r3]
 1210 00ac 012B     		cmp	r3, #1
 1211 00ae 02D1     		bne	.L83
 1212              		.loc 3 86 0 is_stmt 0 discriminator 1
 1213 00b0 8023     		movs	r3, #128
 1214 00b2 5A02     		lsls	r2, r3, #9
 1215 00b4 00E0     		b	.L84
 1216              	.L83:
 1217              		.loc 3 86 0 discriminator 2
 1218 00b6 0022     		movs	r2, #0
 1219              	.L84:
  87:Generated_Source\PSoC6\pdl\drivers\peripheral\scb/cy_scb_ezi2c.c ****                  _BOOL2FLD(SCB_CTRL_EC_AM_MODE, config->enableWakeFromSleep) |
 1220              		.loc 3 87 0 is_stmt 1
 1221 00b8 BB68     		ldr	r3, [r7, #8]
 1222 00ba 1B79     		ldrb	r3, [r3, #4]
 1223 00bc 002B     		cmp	r3, #0
 1224 00be 02D0     		beq	.L85
 1225              		.loc 3 87 0 is_stmt 0 discriminator 1
 1226 00c0 8023     		movs	r3, #128
 1227 00c2 5B00     		lsls	r3, r3, #1
 1228 00c4 00E0     		b	.L86
 1229              	.L85:
 1230              		.loc 3 87 0 discriminator 2
 1231 00c6 0023     		movs	r3, #0
 1232              	.L86:
  86:Generated_Source\PSoC6\pdl\drivers\peripheral\scb/cy_scb_ezi2c.c ****                  _BOOL2FLD(SCB_CTRL_EC_AM_MODE, config->enableWakeFromSleep) |
 1233              		.loc 3 86 0 is_stmt 1
 1234 00c8 1343     		orrs	r3, r2
 1235              		.loc 3 87 0
 1236 00ca 8022     		movs	r2, #128
 1237 00cc 1201     		lsls	r2, r2, #4
 1238 00ce 1A43     		orrs	r2, r3
  86:Generated_Source\PSoC6\pdl\drivers\peripheral\scb/cy_scb_ezi2c.c ****                  _BOOL2FLD(SCB_CTRL_EC_AM_MODE, config->enableWakeFromSleep) |
 1239              		.loc 3 86 0
 1240 00d0 FB68     		ldr	r3, [r7, #12]
 1241 00d2 1A60     		str	r2, [r3]
  88:Generated_Source\PSoC6\pdl\drivers\peripheral\scb/cy_scb_ezi2c.c ****                  SCB_CTRL_BYTE_MODE_Msk;
ARM GAS  C:\Users\salaz\AppData\Local\Temp\ccU0pQaU.s 			page 65


  89:Generated_Source\PSoC6\pdl\drivers\peripheral\scb/cy_scb_ezi2c.c **** 
  90:Generated_Source\PSoC6\pdl\drivers\peripheral\scb/cy_scb_ezi2c.c ****     base->I2C_CTRL = CY_SCB_EZI2C_I2C_CTRL;
 1242              		.loc 3 90 0
 1243 00d4 FB68     		ldr	r3, [r7, #12]
 1244 00d6 3A4A     		ldr	r2, .L89+12
 1245 00d8 1A66     		str	r2, [r3, #96]
  91:Generated_Source\PSoC6\pdl\drivers\peripheral\scb/cy_scb_ezi2c.c **** 
  92:Generated_Source\PSoC6\pdl\drivers\peripheral\scb/cy_scb_ezi2c.c ****     /* Configure the RX direction */
  93:Generated_Source\PSoC6\pdl\drivers\peripheral\scb/cy_scb_ezi2c.c ****     base->RX_CTRL      = CY_SCB_EZI2C_RX_CTRL;
 1246              		.loc 3 93 0
 1247 00da FA68     		ldr	r2, [r7, #12]
 1248 00dc C023     		movs	r3, #192
 1249 00de 9B00     		lsls	r3, r3, #2
 1250 00e0 0821     		movs	r1, #8
 1251 00e2 FF31     		adds	r1, r1, #255
 1252 00e4 D150     		str	r1, [r2, r3]
  94:Generated_Source\PSoC6\pdl\drivers\peripheral\scb/cy_scb_ezi2c.c ****     base->RX_FIFO_CTRL = 0UL;
 1253              		.loc 3 94 0
 1254 00e6 FA68     		ldr	r2, [r7, #12]
 1255 00e8 C123     		movs	r3, #193
 1256 00ea 9B00     		lsls	r3, r3, #2
 1257 00ec 0021     		movs	r1, #0
 1258 00ee D150     		str	r1, [r2, r3]
  95:Generated_Source\PSoC6\pdl\drivers\peripheral\scb/cy_scb_ezi2c.c **** 
  96:Generated_Source\PSoC6\pdl\drivers\peripheral\scb/cy_scb_ezi2c.c ****     /* Set the default address and mask */
  97:Generated_Source\PSoC6\pdl\drivers\peripheral\scb/cy_scb_ezi2c.c ****     if (config->numberOfAddresses == CY_SCB_EZI2C_ONE_ADDRESS)
 1259              		.loc 3 97 0
 1260 00f0 BB68     		ldr	r3, [r7, #8]
 1261 00f2 1B78     		ldrb	r3, [r3]
 1262 00f4 002B     		cmp	r3, #0
 1263 00f6 0AD1     		bne	.L87
  98:Generated_Source\PSoC6\pdl\drivers\peripheral\scb/cy_scb_ezi2c.c ****     {
  99:Generated_Source\PSoC6\pdl\drivers\peripheral\scb/cy_scb_ezi2c.c ****         context->address2 = 0U;
 1264              		.loc 3 99 0
 1265 00f8 7B68     		ldr	r3, [r7, #4]
 1266 00fa 0022     		movs	r2, #0
 1267 00fc 5A72     		strb	r2, [r3, #9]
 100:Generated_Source\PSoC6\pdl\drivers\peripheral\scb/cy_scb_ezi2c.c ****         Cy_SCB_EZI2C_SetAddress1(base, config->slaveAddress1, context);
 1268              		.loc 3 100 0
 1269 00fe BB68     		ldr	r3, [r7, #8]
 1270 0100 5978     		ldrb	r1, [r3, #1]
 1271 0102 7A68     		ldr	r2, [r7, #4]
 1272 0104 FB68     		ldr	r3, [r7, #12]
 1273 0106 1800     		movs	r0, r3
 1274 0108 FFF7FEFF 		bl	Cy_SCB_EZI2C_SetAddress1
 1275 010c 0DE0     		b	.L88
 1276              	.L87:
 101:Generated_Source\PSoC6\pdl\drivers\peripheral\scb/cy_scb_ezi2c.c ****     }
 102:Generated_Source\PSoC6\pdl\drivers\peripheral\scb/cy_scb_ezi2c.c ****     else
 103:Generated_Source\PSoC6\pdl\drivers\peripheral\scb/cy_scb_ezi2c.c ****     {
 104:Generated_Source\PSoC6\pdl\drivers\peripheral\scb/cy_scb_ezi2c.c ****         Cy_SCB_EZI2C_SetAddress1(base, config->slaveAddress1, context);
 1277              		.loc 3 104 0
 1278 010e BB68     		ldr	r3, [r7, #8]
 1279 0110 5978     		ldrb	r1, [r3, #1]
 1280 0112 7A68     		ldr	r2, [r7, #4]
 1281 0114 FB68     		ldr	r3, [r7, #12]
 1282 0116 1800     		movs	r0, r3
ARM GAS  C:\Users\salaz\AppData\Local\Temp\ccU0pQaU.s 			page 66


 1283 0118 FFF7FEFF 		bl	Cy_SCB_EZI2C_SetAddress1
 105:Generated_Source\PSoC6\pdl\drivers\peripheral\scb/cy_scb_ezi2c.c ****         Cy_SCB_EZI2C_SetAddress2(base, config->slaveAddress2, context);
 1284              		.loc 3 105 0
 1285 011c BB68     		ldr	r3, [r7, #8]
 1286 011e 9978     		ldrb	r1, [r3, #2]
 1287 0120 7A68     		ldr	r2, [r7, #4]
 1288 0122 FB68     		ldr	r3, [r7, #12]
 1289 0124 1800     		movs	r0, r3
 1290 0126 FFF7FEFF 		bl	Cy_SCB_EZI2C_SetAddress2
 1291              	.L88:
 106:Generated_Source\PSoC6\pdl\drivers\peripheral\scb/cy_scb_ezi2c.c ****     }
 107:Generated_Source\PSoC6\pdl\drivers\peripheral\scb/cy_scb_ezi2c.c **** 
 108:Generated_Source\PSoC6\pdl\drivers\peripheral\scb/cy_scb_ezi2c.c ****     /* Configure the TX direction */
 109:Generated_Source\PSoC6\pdl\drivers\peripheral\scb/cy_scb_ezi2c.c ****     base->TX_CTRL      = CY_SCB_EZI2C_TX_CTRL;
 1292              		.loc 3 109 0
 1293 012a FA68     		ldr	r2, [r7, #12]
 1294 012c 8023     		movs	r3, #128
 1295 012e 9B00     		lsls	r3, r3, #2
 1296 0130 2449     		ldr	r1, .L89+16
 1297 0132 D150     		str	r1, [r2, r3]
 110:Generated_Source\PSoC6\pdl\drivers\peripheral\scb/cy_scb_ezi2c.c ****     base->TX_FIFO_CTRL = CY_SCB_EZI2C_HALF_FIFO_SIZE(base);
 1298              		.loc 3 110 0
 1299 0134 FA68     		ldr	r2, [r7, #12]
 1300 0136 8123     		movs	r3, #129
 1301 0138 9B00     		lsls	r3, r3, #2
 1302 013a 4021     		movs	r1, #64
 1303 013c D150     		str	r1, [r2, r3]
 111:Generated_Source\PSoC6\pdl\drivers\peripheral\scb/cy_scb_ezi2c.c **** 
 112:Generated_Source\PSoC6\pdl\drivers\peripheral\scb/cy_scb_ezi2c.c ****     /* Configure the interrupt sources */
 113:Generated_Source\PSoC6\pdl\drivers\peripheral\scb/cy_scb_ezi2c.c ****     base->INTR_SPI_EC_MASK = 0UL;
 1304              		.loc 3 113 0
 1305 013e FB68     		ldr	r3, [r7, #12]
 1306 0140 214A     		ldr	r2, .L89+20
 1307 0142 0021     		movs	r1, #0
 1308 0144 9950     		str	r1, [r3, r2]
 114:Generated_Source\PSoC6\pdl\drivers\peripheral\scb/cy_scb_ezi2c.c ****     base->INTR_I2C_EC_MASK = 0UL;
 1309              		.loc 3 114 0
 1310 0146 FB68     		ldr	r3, [r7, #12]
 1311 0148 204A     		ldr	r2, .L89+24
 1312 014a 0021     		movs	r1, #0
 1313 014c 9950     		str	r1, [r3, r2]
 115:Generated_Source\PSoC6\pdl\drivers\peripheral\scb/cy_scb_ezi2c.c ****     base->INTR_RX_MASK     = 0UL;
 1314              		.loc 3 115 0
 1315 014e FB68     		ldr	r3, [r7, #12]
 1316 0150 1F4A     		ldr	r2, .L89+28
 1317 0152 0021     		movs	r1, #0
 1318 0154 9950     		str	r1, [r3, r2]
 116:Generated_Source\PSoC6\pdl\drivers\peripheral\scb/cy_scb_ezi2c.c ****     base->INTR_TX_MASK     = 0UL;
 1319              		.loc 3 116 0
 1320 0156 FB68     		ldr	r3, [r7, #12]
 1321 0158 1E4A     		ldr	r2, .L89+32
 1322 015a 0021     		movs	r1, #0
 1323 015c 9950     		str	r1, [r3, r2]
 117:Generated_Source\PSoC6\pdl\drivers\peripheral\scb/cy_scb_ezi2c.c ****     base->INTR_M_MASK      = 0UL;
 1324              		.loc 3 117 0
 1325 015e FB68     		ldr	r3, [r7, #12]
 1326 0160 1D4A     		ldr	r2, .L89+36
ARM GAS  C:\Users\salaz\AppData\Local\Temp\ccU0pQaU.s 			page 67


 1327 0162 0021     		movs	r1, #0
 1328 0164 9950     		str	r1, [r3, r2]
 118:Generated_Source\PSoC6\pdl\drivers\peripheral\scb/cy_scb_ezi2c.c ****     base->INTR_S_MASK      = CY_SCB_EZI2C_SLAVE_INTR;
 1329              		.loc 3 118 0
 1330 0166 FB68     		ldr	r3, [r7, #12]
 1331 0168 1C49     		ldr	r1, .L89+40
 1332 016a 5222     		movs	r2, #82
 1333 016c FF32     		adds	r2, r2, #255
 1334 016e 5A50     		str	r2, [r3, r1]
 119:Generated_Source\PSoC6\pdl\drivers\peripheral\scb/cy_scb_ezi2c.c **** 
 120:Generated_Source\PSoC6\pdl\drivers\peripheral\scb/cy_scb_ezi2c.c ****     /* Initialize the context */
 121:Generated_Source\PSoC6\pdl\drivers\peripheral\scb/cy_scb_ezi2c.c ****     context->status = 0UL;
 1335              		.loc 3 121 0
 1336 0170 7B68     		ldr	r3, [r7, #4]
 1337 0172 0022     		movs	r2, #0
 1338 0174 5A60     		str	r2, [r3, #4]
 122:Generated_Source\PSoC6\pdl\drivers\peripheral\scb/cy_scb_ezi2c.c ****     context->state  = CY_SCB_EZI2C_STATE_IDLE;
 1339              		.loc 3 122 0
 1340 0176 7B68     		ldr	r3, [r7, #4]
 1341 0178 0022     		movs	r2, #0
 1342 017a 1A70     		strb	r2, [r3]
 123:Generated_Source\PSoC6\pdl\drivers\peripheral\scb/cy_scb_ezi2c.c **** 
 124:Generated_Source\PSoC6\pdl\drivers\peripheral\scb/cy_scb_ezi2c.c ****     context->subAddrSize = config->subAddressSize;
 1343              		.loc 3 124 0
 1344 017c BB68     		ldr	r3, [r7, #8]
 1345 017e DA78     		ldrb	r2, [r3, #3]
 1346 0180 7B68     		ldr	r3, [r7, #4]
 1347 0182 9A72     		strb	r2, [r3, #10]
 125:Generated_Source\PSoC6\pdl\drivers\peripheral\scb/cy_scb_ezi2c.c **** 
 126:Generated_Source\PSoC6\pdl\drivers\peripheral\scb/cy_scb_ezi2c.c ****     context->buf1Size      = 0UL;
 1348              		.loc 3 126 0
 1349 0184 7B68     		ldr	r3, [r7, #4]
 1350 0186 0022     		movs	r2, #0
 1351 0188 9A62     		str	r2, [r3, #40]
 127:Generated_Source\PSoC6\pdl\drivers\peripheral\scb/cy_scb_ezi2c.c ****     context->buf1rwBondary = 0UL;
 1352              		.loc 3 127 0
 1353 018a 7B68     		ldr	r3, [r7, #4]
 1354 018c 0022     		movs	r2, #0
 1355 018e DA62     		str	r2, [r3, #44]
 128:Generated_Source\PSoC6\pdl\drivers\peripheral\scb/cy_scb_ezi2c.c ****     context->baseAddr1     = 0UL;
 1356              		.loc 3 128 0
 1357 0190 7B68     		ldr	r3, [r7, #4]
 1358 0192 0022     		movs	r2, #0
 1359 0194 1A61     		str	r2, [r3, #16]
 129:Generated_Source\PSoC6\pdl\drivers\peripheral\scb/cy_scb_ezi2c.c **** 
 130:Generated_Source\PSoC6\pdl\drivers\peripheral\scb/cy_scb_ezi2c.c ****     context->buf1Size      = 0UL;
 1360              		.loc 3 130 0
 1361 0196 7B68     		ldr	r3, [r7, #4]
 1362 0198 0022     		movs	r2, #0
 1363 019a 9A62     		str	r2, [r3, #40]
 131:Generated_Source\PSoC6\pdl\drivers\peripheral\scb/cy_scb_ezi2c.c ****     context->buf1rwBondary = 0UL;
 1364              		.loc 3 131 0
 1365 019c 7B68     		ldr	r3, [r7, #4]
 1366 019e 0022     		movs	r2, #0
 1367 01a0 DA62     		str	r2, [r3, #44]
 132:Generated_Source\PSoC6\pdl\drivers\peripheral\scb/cy_scb_ezi2c.c ****     context->baseAddr2     = 0UL;
 1368              		.loc 3 132 0
ARM GAS  C:\Users\salaz\AppData\Local\Temp\ccU0pQaU.s 			page 68


 1369 01a2 7B68     		ldr	r3, [r7, #4]
 1370 01a4 0022     		movs	r2, #0
 1371 01a6 5A61     		str	r2, [r3, #20]
 133:Generated_Source\PSoC6\pdl\drivers\peripheral\scb/cy_scb_ezi2c.c **** 
 134:Generated_Source\PSoC6\pdl\drivers\peripheral\scb/cy_scb_ezi2c.c ****     return CY_SCB_EZI2C_SUCCESS;
 1372              		.loc 3 134 0
 1373 01a8 0023     		movs	r3, #0
 1374              	.L76:
 135:Generated_Source\PSoC6\pdl\drivers\peripheral\scb/cy_scb_ezi2c.c **** }
 1375              		.loc 3 135 0
 1376 01aa 1800     		movs	r0, r3
 1377 01ac BD46     		mov	sp, r7
 1378 01ae 04B0     		add	sp, sp, #16
 1379              		@ sp needed
 1380 01b0 80BD     		pop	{r7, pc}
 1381              	.L90:
 1382 01b2 C046     		.align	2
 1383              	.L89:
 1384 01b4 0100AA00 		.word	11141121
 1385 01b8 00006940 		.word	1080623104
 1386 01bc 44000000 		.word	.LC11
 1387 01c0 00080040 		.word	1073743872
 1388 01c4 07010100 		.word	65799
 1389 01c8 C80E0000 		.word	3784
 1390 01cc 880E0000 		.word	3720
 1391 01d0 C80F0000 		.word	4040
 1392 01d4 880F0000 		.word	3976
 1393 01d8 080F0000 		.word	3848
 1394 01dc 480F0000 		.word	3912
 1395              		.cfi_endproc
 1396              	.LFE122:
 1397              		.size	Cy_SCB_EZI2C_Init, .-Cy_SCB_EZI2C_Init
 1398              		.section	.text.Cy_SCB_EZI2C_DeInit,"ax",%progbits
 1399              		.align	2
 1400              		.global	Cy_SCB_EZI2C_DeInit
 1401              		.code	16
 1402              		.thumb_func
 1403              		.type	Cy_SCB_EZI2C_DeInit, %function
 1404              	Cy_SCB_EZI2C_DeInit:
 1405              	.LFB123:
 136:Generated_Source\PSoC6\pdl\drivers\peripheral\scb/cy_scb_ezi2c.c **** 
 137:Generated_Source\PSoC6\pdl\drivers\peripheral\scb/cy_scb_ezi2c.c **** 
 138:Generated_Source\PSoC6\pdl\drivers\peripheral\scb/cy_scb_ezi2c.c **** /*******************************************************************************
 139:Generated_Source\PSoC6\pdl\drivers\peripheral\scb/cy_scb_ezi2c.c **** *  Function Name: Cy_SCB_EZI2C_DeInit
 140:Generated_Source\PSoC6\pdl\drivers\peripheral\scb/cy_scb_ezi2c.c **** ****************************************************************************//**
 141:Generated_Source\PSoC6\pdl\drivers\peripheral\scb/cy_scb_ezi2c.c **** *
 142:Generated_Source\PSoC6\pdl\drivers\peripheral\scb/cy_scb_ezi2c.c **** * De-initializes the SCB block, returns the register values to default.
 143:Generated_Source\PSoC6\pdl\drivers\peripheral\scb/cy_scb_ezi2c.c **** *
 144:Generated_Source\PSoC6\pdl\drivers\peripheral\scb/cy_scb_ezi2c.c **** * \param base
 145:Generated_Source\PSoC6\pdl\drivers\peripheral\scb/cy_scb_ezi2c.c **** * The pointer to the EZI2C SCB instance.
 146:Generated_Source\PSoC6\pdl\drivers\peripheral\scb/cy_scb_ezi2c.c **** *
 147:Generated_Source\PSoC6\pdl\drivers\peripheral\scb/cy_scb_ezi2c.c **** * \note
 148:Generated_Source\PSoC6\pdl\drivers\peripheral\scb/cy_scb_ezi2c.c **** * Ensure that the SCB block is disabled before calling this function.
 149:Generated_Source\PSoC6\pdl\drivers\peripheral\scb/cy_scb_ezi2c.c **** *
 150:Generated_Source\PSoC6\pdl\drivers\peripheral\scb/cy_scb_ezi2c.c **** *******************************************************************************/
 151:Generated_Source\PSoC6\pdl\drivers\peripheral\scb/cy_scb_ezi2c.c **** void Cy_SCB_EZI2C_DeInit(CySCB_Type *base)
 152:Generated_Source\PSoC6\pdl\drivers\peripheral\scb/cy_scb_ezi2c.c **** {
ARM GAS  C:\Users\salaz\AppData\Local\Temp\ccU0pQaU.s 			page 69


 1406              		.loc 3 152 0
 1407              		.cfi_startproc
 1408              		@ args = 0, pretend = 0, frame = 8
 1409              		@ frame_needed = 1, uses_anonymous_args = 0
 1410 0000 80B5     		push	{r7, lr}
 1411              		.cfi_def_cfa_offset 8
 1412              		.cfi_offset 7, -8
 1413              		.cfi_offset 14, -4
 1414 0002 82B0     		sub	sp, sp, #8
 1415              		.cfi_def_cfa_offset 16
 1416 0004 00AF     		add	r7, sp, #0
 1417              		.cfi_def_cfa_register 7
 1418 0006 7860     		str	r0, [r7, #4]
 153:Generated_Source\PSoC6\pdl\drivers\peripheral\scb/cy_scb_ezi2c.c ****     /* Return the block registers into the default state */
 154:Generated_Source\PSoC6\pdl\drivers\peripheral\scb/cy_scb_ezi2c.c ****     base->CTRL     = CY_SCB_CTRL_DEF_VAL;
 1419              		.loc 3 154 0
 1420 0008 7B68     		ldr	r3, [r7, #4]
 1421 000a 1E4A     		ldr	r2, .L92
 1422 000c 1A60     		str	r2, [r3]
 155:Generated_Source\PSoC6\pdl\drivers\peripheral\scb/cy_scb_ezi2c.c ****     base->I2C_CTRL = CY_SCB_I2C_CTRL_DEF_VAL;
 1423              		.loc 3 155 0
 1424 000e 7B68     		ldr	r3, [r7, #4]
 1425 0010 1D4A     		ldr	r2, .L92+4
 1426 0012 1A66     		str	r2, [r3, #96]
 156:Generated_Source\PSoC6\pdl\drivers\peripheral\scb/cy_scb_ezi2c.c **** 
 157:Generated_Source\PSoC6\pdl\drivers\peripheral\scb/cy_scb_ezi2c.c ****     base->RX_CTRL      = CY_SCB_RX_CTRL_DEF_VAL;
 1427              		.loc 3 157 0
 1428 0014 7A68     		ldr	r2, [r7, #4]
 1429 0016 C023     		movs	r3, #192
 1430 0018 9B00     		lsls	r3, r3, #2
 1431 001a 0821     		movs	r1, #8
 1432 001c FF31     		adds	r1, r1, #255
 1433 001e D150     		str	r1, [r2, r3]
 158:Generated_Source\PSoC6\pdl\drivers\peripheral\scb/cy_scb_ezi2c.c ****     base->RX_FIFO_CTRL = 0UL;
 1434              		.loc 3 158 0
 1435 0020 7A68     		ldr	r2, [r7, #4]
 1436 0022 C123     		movs	r3, #193
 1437 0024 9B00     		lsls	r3, r3, #2
 1438 0026 0021     		movs	r1, #0
 1439 0028 D150     		str	r1, [r2, r3]
 159:Generated_Source\PSoC6\pdl\drivers\peripheral\scb/cy_scb_ezi2c.c ****     base->RX_MATCH     = 0UL;
 1440              		.loc 3 159 0
 1441 002a 7A68     		ldr	r2, [r7, #4]
 1442 002c C423     		movs	r3, #196
 1443 002e 9B00     		lsls	r3, r3, #2
 1444 0030 0021     		movs	r1, #0
 1445 0032 D150     		str	r1, [r2, r3]
 160:Generated_Source\PSoC6\pdl\drivers\peripheral\scb/cy_scb_ezi2c.c **** 
 161:Generated_Source\PSoC6\pdl\drivers\peripheral\scb/cy_scb_ezi2c.c ****     base->TX_CTRL      = CY_SCB_TX_CTRL_DEF_VAL;
 1446              		.loc 3 161 0
 1447 0034 7A68     		ldr	r2, [r7, #4]
 1448 0036 8023     		movs	r3, #128
 1449 0038 9B00     		lsls	r3, r3, #2
 1450 003a 0821     		movs	r1, #8
 1451 003c FF31     		adds	r1, r1, #255
 1452 003e D150     		str	r1, [r2, r3]
 162:Generated_Source\PSoC6\pdl\drivers\peripheral\scb/cy_scb_ezi2c.c ****     base->TX_FIFO_CTRL = 0UL;
ARM GAS  C:\Users\salaz\AppData\Local\Temp\ccU0pQaU.s 			page 70


 1453              		.loc 3 162 0
 1454 0040 7A68     		ldr	r2, [r7, #4]
 1455 0042 8123     		movs	r3, #129
 1456 0044 9B00     		lsls	r3, r3, #2
 1457 0046 0021     		movs	r1, #0
 1458 0048 D150     		str	r1, [r2, r3]
 163:Generated_Source\PSoC6\pdl\drivers\peripheral\scb/cy_scb_ezi2c.c **** 
 164:Generated_Source\PSoC6\pdl\drivers\peripheral\scb/cy_scb_ezi2c.c ****     base->INTR_SPI_EC_MASK = 0UL;
 1459              		.loc 3 164 0
 1460 004a 7B68     		ldr	r3, [r7, #4]
 1461 004c 0F4A     		ldr	r2, .L92+8
 1462 004e 0021     		movs	r1, #0
 1463 0050 9950     		str	r1, [r3, r2]
 165:Generated_Source\PSoC6\pdl\drivers\peripheral\scb/cy_scb_ezi2c.c ****     base->INTR_I2C_EC_MASK = 0UL;
 1464              		.loc 3 165 0
 1465 0052 7B68     		ldr	r3, [r7, #4]
 1466 0054 0E4A     		ldr	r2, .L92+12
 1467 0056 0021     		movs	r1, #0
 1468 0058 9950     		str	r1, [r3, r2]
 166:Generated_Source\PSoC6\pdl\drivers\peripheral\scb/cy_scb_ezi2c.c ****     base->INTR_RX_MASK     = 0UL;
 1469              		.loc 3 166 0
 1470 005a 7B68     		ldr	r3, [r7, #4]
 1471 005c 0D4A     		ldr	r2, .L92+16
 1472 005e 0021     		movs	r1, #0
 1473 0060 9950     		str	r1, [r3, r2]
 167:Generated_Source\PSoC6\pdl\drivers\peripheral\scb/cy_scb_ezi2c.c ****     base->INTR_TX_MASK     = 0UL;
 1474              		.loc 3 167 0
 1475 0062 7B68     		ldr	r3, [r7, #4]
 1476 0064 0C4A     		ldr	r2, .L92+20
 1477 0066 0021     		movs	r1, #0
 1478 0068 9950     		str	r1, [r3, r2]
 168:Generated_Source\PSoC6\pdl\drivers\peripheral\scb/cy_scb_ezi2c.c ****     base->INTR_M_MASK      = 0UL;
 1479              		.loc 3 168 0
 1480 006a 7B68     		ldr	r3, [r7, #4]
 1481 006c 0B4A     		ldr	r2, .L92+24
 1482 006e 0021     		movs	r1, #0
 1483 0070 9950     		str	r1, [r3, r2]
 169:Generated_Source\PSoC6\pdl\drivers\peripheral\scb/cy_scb_ezi2c.c ****     base->INTR_S_MASK      = 0UL;
 1484              		.loc 3 169 0
 1485 0072 7B68     		ldr	r3, [r7, #4]
 1486 0074 0A4A     		ldr	r2, .L92+28
 1487 0076 0021     		movs	r1, #0
 1488 0078 9950     		str	r1, [r3, r2]
 170:Generated_Source\PSoC6\pdl\drivers\peripheral\scb/cy_scb_ezi2c.c **** }
 1489              		.loc 3 170 0
 1490 007a C046     		nop
 1491 007c BD46     		mov	sp, r7
 1492 007e 02B0     		add	sp, sp, #8
 1493              		@ sp needed
 1494 0080 80BD     		pop	{r7, pc}
 1495              	.L93:
 1496 0082 C046     		.align	2
 1497              	.L92:
 1498 0084 0F000003 		.word	50331663
 1499 0088 08FB0000 		.word	64264
 1500 008c C80E0000 		.word	3784
 1501 0090 880E0000 		.word	3720
ARM GAS  C:\Users\salaz\AppData\Local\Temp\ccU0pQaU.s 			page 71


 1502 0094 C80F0000 		.word	4040
 1503 0098 880F0000 		.word	3976
 1504 009c 080F0000 		.word	3848
 1505 00a0 480F0000 		.word	3912
 1506              		.cfi_endproc
 1507              	.LFE123:
 1508              		.size	Cy_SCB_EZI2C_DeInit, .-Cy_SCB_EZI2C_DeInit
 1509              		.section	.text.Cy_SCB_EZI2C_Disable,"ax",%progbits
 1510              		.align	2
 1511              		.global	Cy_SCB_EZI2C_Disable
 1512              		.code	16
 1513              		.thumb_func
 1514              		.type	Cy_SCB_EZI2C_Disable, %function
 1515              	Cy_SCB_EZI2C_Disable:
 1516              	.LFB124:
 171:Generated_Source\PSoC6\pdl\drivers\peripheral\scb/cy_scb_ezi2c.c **** 
 172:Generated_Source\PSoC6\pdl\drivers\peripheral\scb/cy_scb_ezi2c.c **** 
 173:Generated_Source\PSoC6\pdl\drivers\peripheral\scb/cy_scb_ezi2c.c **** /*******************************************************************************
 174:Generated_Source\PSoC6\pdl\drivers\peripheral\scb/cy_scb_ezi2c.c **** * Function Name: Cy_SCB_EZI2C_Disable
 175:Generated_Source\PSoC6\pdl\drivers\peripheral\scb/cy_scb_ezi2c.c **** ****************************************************************************//**
 176:Generated_Source\PSoC6\pdl\drivers\peripheral\scb/cy_scb_ezi2c.c **** *
 177:Generated_Source\PSoC6\pdl\drivers\peripheral\scb/cy_scb_ezi2c.c **** * Disables the SCB block and clears the context statuses.
 178:Generated_Source\PSoC6\pdl\drivers\peripheral\scb/cy_scb_ezi2c.c **** * Note that after the block is disabled, the TX and RX FIFOs and hardware
 179:Generated_Source\PSoC6\pdl\drivers\peripheral\scb/cy_scb_ezi2c.c **** * statuses are cleared. Also, the hardware stops driving the output and
 180:Generated_Source\PSoC6\pdl\drivers\peripheral\scb/cy_scb_ezi2c.c **** * ignores the input.
 181:Generated_Source\PSoC6\pdl\drivers\peripheral\scb/cy_scb_ezi2c.c **** *
 182:Generated_Source\PSoC6\pdl\drivers\peripheral\scb/cy_scb_ezi2c.c **** * \param base
 183:Generated_Source\PSoC6\pdl\drivers\peripheral\scb/cy_scb_ezi2c.c **** * The pointer to the EZI2C SCB instance.
 184:Generated_Source\PSoC6\pdl\drivers\peripheral\scb/cy_scb_ezi2c.c **** *
 185:Generated_Source\PSoC6\pdl\drivers\peripheral\scb/cy_scb_ezi2c.c **** * \param context
 186:Generated_Source\PSoC6\pdl\drivers\peripheral\scb/cy_scb_ezi2c.c **** * The pointer to the context structure \ref cy_stc_scb_ezi2c_context_t
 187:Generated_Source\PSoC6\pdl\drivers\peripheral\scb/cy_scb_ezi2c.c **** * allocated by the user. The structure is used during the EZI2C operation for
 188:Generated_Source\PSoC6\pdl\drivers\peripheral\scb/cy_scb_ezi2c.c **** * internal configuration and data retention. The user must not modify anything
 189:Generated_Source\PSoC6\pdl\drivers\peripheral\scb/cy_scb_ezi2c.c **** * in this structure.
 190:Generated_Source\PSoC6\pdl\drivers\peripheral\scb/cy_scb_ezi2c.c **** *
 191:Generated_Source\PSoC6\pdl\drivers\peripheral\scb/cy_scb_ezi2c.c **** * \note
 192:Generated_Source\PSoC6\pdl\drivers\peripheral\scb/cy_scb_ezi2c.c **** * Calling this function while EZI2C is busy (the slave has been addressed and is
 193:Generated_Source\PSoC6\pdl\drivers\peripheral\scb/cy_scb_ezi2c.c **** * communicating with the master), may cause transaction corruption because
 194:Generated_Source\PSoC6\pdl\drivers\peripheral\scb/cy_scb_ezi2c.c **** * the hardware stops driving the output and ignores the input. Ensure that
 195:Generated_Source\PSoC6\pdl\drivers\peripheral\scb/cy_scb_ezi2c.c **** * the EZI2C slave is not busy before calling this function.
 196:Generated_Source\PSoC6\pdl\drivers\peripheral\scb/cy_scb_ezi2c.c **** *
 197:Generated_Source\PSoC6\pdl\drivers\peripheral\scb/cy_scb_ezi2c.c **** *******************************************************************************/
 198:Generated_Source\PSoC6\pdl\drivers\peripheral\scb/cy_scb_ezi2c.c **** void Cy_SCB_EZI2C_Disable(CySCB_Type *base, cy_stc_scb_ezi2c_context_t *context)
 199:Generated_Source\PSoC6\pdl\drivers\peripheral\scb/cy_scb_ezi2c.c **** {
 1517              		.loc 3 199 0
 1518              		.cfi_startproc
 1519              		@ args = 0, pretend = 0, frame = 8
 1520              		@ frame_needed = 1, uses_anonymous_args = 0
 1521 0000 80B5     		push	{r7, lr}
 1522              		.cfi_def_cfa_offset 8
 1523              		.cfi_offset 7, -8
 1524              		.cfi_offset 14, -4
 1525 0002 82B0     		sub	sp, sp, #8
 1526              		.cfi_def_cfa_offset 16
 1527 0004 00AF     		add	r7, sp, #0
 1528              		.cfi_def_cfa_register 7
 1529 0006 7860     		str	r0, [r7, #4]
ARM GAS  C:\Users\salaz\AppData\Local\Temp\ccU0pQaU.s 			page 72


 1530 0008 3960     		str	r1, [r7]
 200:Generated_Source\PSoC6\pdl\drivers\peripheral\scb/cy_scb_ezi2c.c ****     base->CTRL &= (uint32_t) ~SCB_CTRL_ENABLED_Msk;
 1531              		.loc 3 200 0
 1532 000a 7B68     		ldr	r3, [r7, #4]
 1533 000c 1B68     		ldr	r3, [r3]
 1534 000e 5B00     		lsls	r3, r3, #1
 1535 0010 5A08     		lsrs	r2, r3, #1
 1536 0012 7B68     		ldr	r3, [r7, #4]
 1537 0014 1A60     		str	r2, [r3]
 201:Generated_Source\PSoC6\pdl\drivers\peripheral\scb/cy_scb_ezi2c.c **** 
 202:Generated_Source\PSoC6\pdl\drivers\peripheral\scb/cy_scb_ezi2c.c ****     /* Set the state to default and clear the statuses */
 203:Generated_Source\PSoC6\pdl\drivers\peripheral\scb/cy_scb_ezi2c.c ****     context->status = 0UL;
 1538              		.loc 3 203 0
 1539 0016 3B68     		ldr	r3, [r7]
 1540 0018 0022     		movs	r2, #0
 1541 001a 5A60     		str	r2, [r3, #4]
 204:Generated_Source\PSoC6\pdl\drivers\peripheral\scb/cy_scb_ezi2c.c ****     context->state  = CY_SCB_EZI2C_STATE_IDLE;
 1542              		.loc 3 204 0
 1543 001c 3B68     		ldr	r3, [r7]
 1544 001e 0022     		movs	r2, #0
 1545 0020 1A70     		strb	r2, [r3]
 205:Generated_Source\PSoC6\pdl\drivers\peripheral\scb/cy_scb_ezi2c.c **** }
 1546              		.loc 3 205 0
 1547 0022 C046     		nop
 1548 0024 BD46     		mov	sp, r7
 1549 0026 02B0     		add	sp, sp, #8
 1550              		@ sp needed
 1551 0028 80BD     		pop	{r7, pc}
 1552              		.cfi_endproc
 1553              	.LFE124:
 1554              		.size	Cy_SCB_EZI2C_Disable, .-Cy_SCB_EZI2C_Disable
 1555 002a C046     		.section	.text.Cy_SCB_EZI2C_DeepSleepCallback,"ax",%progbits
 1556              		.align	2
 1557              		.global	Cy_SCB_EZI2C_DeepSleepCallback
 1558              		.code	16
 1559              		.thumb_func
 1560              		.type	Cy_SCB_EZI2C_DeepSleepCallback, %function
 1561              	Cy_SCB_EZI2C_DeepSleepCallback:
 1562              	.LFB125:
 206:Generated_Source\PSoC6\pdl\drivers\peripheral\scb/cy_scb_ezi2c.c **** 
 207:Generated_Source\PSoC6\pdl\drivers\peripheral\scb/cy_scb_ezi2c.c **** 
 208:Generated_Source\PSoC6\pdl\drivers\peripheral\scb/cy_scb_ezi2c.c **** /*******************************************************************************
 209:Generated_Source\PSoC6\pdl\drivers\peripheral\scb/cy_scb_ezi2c.c **** * Function Name: Cy_SCB_EZI2C_DeepSleepCallback
 210:Generated_Source\PSoC6\pdl\drivers\peripheral\scb/cy_scb_ezi2c.c **** ****************************************************************************//**
 211:Generated_Source\PSoC6\pdl\drivers\peripheral\scb/cy_scb_ezi2c.c **** *
 212:Generated_Source\PSoC6\pdl\drivers\peripheral\scb/cy_scb_ezi2c.c **** * This function handles the transition of the EZI2C SCB into and out of
 213:Generated_Source\PSoC6\pdl\drivers\peripheral\scb/cy_scb_ezi2c.c **** * Deep Sleep mode. It prevents the device from entering Deep Sleep mode if 
 214:Generated_Source\PSoC6\pdl\drivers\peripheral\scb/cy_scb_ezi2c.c **** * the EZI2C slave is actively communicating.
 215:Generated_Source\PSoC6\pdl\drivers\peripheral\scb/cy_scb_ezi2c.c **** * The following behavior of the EZI2C depends on whether the SCB block is
 216:Generated_Source\PSoC6\pdl\drivers\peripheral\scb/cy_scb_ezi2c.c **** * wakeup-capable:
 217:Generated_Source\PSoC6\pdl\drivers\peripheral\scb/cy_scb_ezi2c.c **** * * The SCB <b>wakeup-capable</b>: on the incoming EZI2C slave address, the slave
 218:Generated_Source\PSoC6\pdl\drivers\peripheral\scb/cy_scb_ezi2c.c **** *   receives the address and stretches the clock until the device is woken from
 219:Generated_Source\PSoC6\pdl\drivers\peripheral\scb/cy_scb_ezi2c.c **** *   Deep Sleep mode. If the slave address occurs before the device enters
 220:Generated_Source\PSoC6\pdl\drivers\peripheral\scb/cy_scb_ezi2c.c **** *   Deep Sleep mode, the device will not enter Deep Sleep mode.
 221:Generated_Source\PSoC6\pdl\drivers\peripheral\scb/cy_scb_ezi2c.c **** * * The SCB is <b>not wakeup-capable</b>: the EZI2C is disabled. It is enabled 
 222:Generated_Source\PSoC6\pdl\drivers\peripheral\scb/cy_scb_ezi2c.c **** *   when the device fails to enter Deep Sleep mode or it is woken from Deep Sleep
 223:Generated_Source\PSoC6\pdl\drivers\peripheral\scb/cy_scb_ezi2c.c **** *   mode. While the EZI2C is disabled, it stops driving the outputs and
ARM GAS  C:\Users\salaz\AppData\Local\Temp\ccU0pQaU.s 			page 73


 224:Generated_Source\PSoC6\pdl\drivers\peripheral\scb/cy_scb_ezi2c.c **** *   ignores the input lines. The slave NACKs all incoming addresses.
 225:Generated_Source\PSoC6\pdl\drivers\peripheral\scb/cy_scb_ezi2c.c **** *
 226:Generated_Source\PSoC6\pdl\drivers\peripheral\scb/cy_scb_ezi2c.c **** * This function must be called during execution of \ref Cy_SysPm_DeepSleep.
 227:Generated_Source\PSoC6\pdl\drivers\peripheral\scb/cy_scb_ezi2c.c **** * To do this, register this function as a callback before calling
 228:Generated_Source\PSoC6\pdl\drivers\peripheral\scb/cy_scb_ezi2c.c **** * \ref Cy_SysPm_DeepSleep : specify \ref CY_SYSPM_DEEPSLEEP as the callback
 229:Generated_Source\PSoC6\pdl\drivers\peripheral\scb/cy_scb_ezi2c.c **** * type and call \ref Cy_SysPm_RegisterCallback.
 230:Generated_Source\PSoC6\pdl\drivers\peripheral\scb/cy_scb_ezi2c.c **** *
 231:Generated_Source\PSoC6\pdl\drivers\peripheral\scb/cy_scb_ezi2c.c **** * \param callbackParams
 232:Generated_Source\PSoC6\pdl\drivers\peripheral\scb/cy_scb_ezi2c.c **** * The pointer to the callback parameters structure.
 233:Generated_Source\PSoC6\pdl\drivers\peripheral\scb/cy_scb_ezi2c.c **** * \ref cy_stc_syspm_callback_params_t.
 234:Generated_Source\PSoC6\pdl\drivers\peripheral\scb/cy_scb_ezi2c.c **** *
 235:Generated_Source\PSoC6\pdl\drivers\peripheral\scb/cy_scb_ezi2c.c **** * \return
 236:Generated_Source\PSoC6\pdl\drivers\peripheral\scb/cy_scb_ezi2c.c **** * \ref cy_en_syspm_status_t
 237:Generated_Source\PSoC6\pdl\drivers\peripheral\scb/cy_scb_ezi2c.c **** *
 238:Generated_Source\PSoC6\pdl\drivers\peripheral\scb/cy_scb_ezi2c.c **** * \note
 239:Generated_Source\PSoC6\pdl\drivers\peripheral\scb/cy_scb_ezi2c.c **** * Only applicable for <b>rev-08 of the CY8CKIT-062-BLE</b>.
 240:Generated_Source\PSoC6\pdl\drivers\peripheral\scb/cy_scb_ezi2c.c **** * For proper operation, when the EZI2C slave is configured to be a wakeup source
 241:Generated_Source\PSoC6\pdl\drivers\peripheral\scb/cy_scb_ezi2c.c **** * from Deep Sleep mode, this function must be copied and modified by the user.
 242:Generated_Source\PSoC6\pdl\drivers\peripheral\scb/cy_scb_ezi2c.c **** * The EZI2C clock disable code must be inserted in the
 243:Generated_Source\PSoC6\pdl\drivers\peripheral\scb/cy_scb_ezi2c.c **** * \ref CY_SYSPM_BEFORE_TRANSITION and clock enable code in the 
 244:Generated_Source\PSoC6\pdl\drivers\peripheral\scb/cy_scb_ezi2c.c **** * \ref CY_SYSPM_AFTER_TRANSITION mode processing.
 245:Generated_Source\PSoC6\pdl\drivers\peripheral\scb/cy_scb_ezi2c.c **** *
 246:Generated_Source\PSoC6\pdl\drivers\peripheral\scb/cy_scb_ezi2c.c **** *******************************************************************************/
 247:Generated_Source\PSoC6\pdl\drivers\peripheral\scb/cy_scb_ezi2c.c **** cy_en_syspm_status_t Cy_SCB_EZI2C_DeepSleepCallback(cy_stc_syspm_callback_params_t *callbackParams)
 248:Generated_Source\PSoC6\pdl\drivers\peripheral\scb/cy_scb_ezi2c.c **** {
 1563              		.loc 3 248 0
 1564              		.cfi_startproc
 1565              		@ args = 0, pretend = 0, frame = 24
 1566              		@ frame_needed = 1, uses_anonymous_args = 0
 1567 0000 80B5     		push	{r7, lr}
 1568              		.cfi_def_cfa_offset 8
 1569              		.cfi_offset 7, -8
 1570              		.cfi_offset 14, -4
 1571 0002 86B0     		sub	sp, sp, #24
 1572              		.cfi_def_cfa_offset 32
 1573 0004 00AF     		add	r7, sp, #0
 1574              		.cfi_def_cfa_register 7
 1575 0006 7860     		str	r0, [r7, #4]
 249:Generated_Source\PSoC6\pdl\drivers\peripheral\scb/cy_scb_ezi2c.c ****     CySCB_Type *locBase = (CySCB_Type *) callbackParams->base;
 1576              		.loc 3 249 0
 1577 0008 7B68     		ldr	r3, [r7, #4]
 1578 000a 5B68     		ldr	r3, [r3, #4]
 1579 000c 3B61     		str	r3, [r7, #16]
 250:Generated_Source\PSoC6\pdl\drivers\peripheral\scb/cy_scb_ezi2c.c ****     cy_stc_scb_ezi2c_context_t *locContext = (cy_stc_scb_ezi2c_context_t *) callbackParams->context
 1580              		.loc 3 250 0
 1581 000e 7B68     		ldr	r3, [r7, #4]
 1582 0010 9B68     		ldr	r3, [r3, #8]
 1583 0012 FB60     		str	r3, [r7, #12]
 251:Generated_Source\PSoC6\pdl\drivers\peripheral\scb/cy_scb_ezi2c.c **** 
 252:Generated_Source\PSoC6\pdl\drivers\peripheral\scb/cy_scb_ezi2c.c ****     cy_en_syspm_status_t retStatus = CY_SYSPM_FAIL;
 1584              		.loc 3 252 0
 1585 0014 494B     		ldr	r3, .L113
 1586 0016 7B61     		str	r3, [r7, #20]
 253:Generated_Source\PSoC6\pdl\drivers\peripheral\scb/cy_scb_ezi2c.c **** 
 254:Generated_Source\PSoC6\pdl\drivers\peripheral\scb/cy_scb_ezi2c.c ****     switch (callbackParams->mode)
 1587              		.loc 3 254 0
 1588 0018 7B68     		ldr	r3, [r7, #4]
ARM GAS  C:\Users\salaz\AppData\Local\Temp\ccU0pQaU.s 			page 74


 1589 001a 1B78     		ldrb	r3, [r3]
 1590 001c 022B     		cmp	r3, #2
 1591 001e 3BD0     		beq	.L97
 1592 0020 02DC     		bgt	.L98
 1593 0022 012B     		cmp	r3, #1
 1594 0024 05D0     		beq	.L99
 255:Generated_Source\PSoC6\pdl\drivers\peripheral\scb/cy_scb_ezi2c.c ****     {
 256:Generated_Source\PSoC6\pdl\drivers\peripheral\scb/cy_scb_ezi2c.c ****         case CY_SYSPM_CHECK_READY:
 257:Generated_Source\PSoC6\pdl\drivers\peripheral\scb/cy_scb_ezi2c.c ****         {
 258:Generated_Source\PSoC6\pdl\drivers\peripheral\scb/cy_scb_ezi2c.c ****             /* Disable the slave interrupt sources to protect the state */
 259:Generated_Source\PSoC6\pdl\drivers\peripheral\scb/cy_scb_ezi2c.c ****             Cy_SCB_SetSlaveInterruptMask(locBase, CY_SCB_CLEAR_ALL_INTR_SRC);
 260:Generated_Source\PSoC6\pdl\drivers\peripheral\scb/cy_scb_ezi2c.c **** 
 261:Generated_Source\PSoC6\pdl\drivers\peripheral\scb/cy_scb_ezi2c.c ****             /* If the EZI2C is in the IDLE state, it is ready for Deep Sleep
 262:Generated_Source\PSoC6\pdl\drivers\peripheral\scb/cy_scb_ezi2c.c ****             *  mode. Otherwise, it returns fail and restores the slave interrupt
 263:Generated_Source\PSoC6\pdl\drivers\peripheral\scb/cy_scb_ezi2c.c ****             * sources.
 264:Generated_Source\PSoC6\pdl\drivers\peripheral\scb/cy_scb_ezi2c.c ****             */
 265:Generated_Source\PSoC6\pdl\drivers\peripheral\scb/cy_scb_ezi2c.c ****             if (CY_SCB_EZI2C_STATE_IDLE == locContext->state)
 266:Generated_Source\PSoC6\pdl\drivers\peripheral\scb/cy_scb_ezi2c.c ****             {
 267:Generated_Source\PSoC6\pdl\drivers\peripheral\scb/cy_scb_ezi2c.c ****                 if (_FLD2BOOL(SCB_CTRL_EC_AM_MODE, locBase->CTRL))
 268:Generated_Source\PSoC6\pdl\drivers\peripheral\scb/cy_scb_ezi2c.c ****                 {
 269:Generated_Source\PSoC6\pdl\drivers\peripheral\scb/cy_scb_ezi2c.c ****                     /* The SCB is wakeup-capable: do not restore the address
 270:Generated_Source\PSoC6\pdl\drivers\peripheral\scb/cy_scb_ezi2c.c ****                     * match interrupt source. The next transaction intended
 271:Generated_Source\PSoC6\pdl\drivers\peripheral\scb/cy_scb_ezi2c.c ****                     * for the slave will be paused (the SCL is stretched) before
 272:Generated_Source\PSoC6\pdl\drivers\peripheral\scb/cy_scb_ezi2c.c ****                     * the address is ACKed because the corresponding interrupt
 273:Generated_Source\PSoC6\pdl\drivers\peripheral\scb/cy_scb_ezi2c.c ****                     * source is disabled.
 274:Generated_Source\PSoC6\pdl\drivers\peripheral\scb/cy_scb_ezi2c.c ****                     */
 275:Generated_Source\PSoC6\pdl\drivers\peripheral\scb/cy_scb_ezi2c.c ****                     Cy_SCB_SetSlaveInterruptMask(locBase, CY_SCB_EZI2C_SLAVE_INTR_NO_ADDR);
 276:Generated_Source\PSoC6\pdl\drivers\peripheral\scb/cy_scb_ezi2c.c ****                 }
 277:Generated_Source\PSoC6\pdl\drivers\peripheral\scb/cy_scb_ezi2c.c ****                 else
 278:Generated_Source\PSoC6\pdl\drivers\peripheral\scb/cy_scb_ezi2c.c ****                 {
 279:Generated_Source\PSoC6\pdl\drivers\peripheral\scb/cy_scb_ezi2c.c ****                     /* The SCB is NOT wakeup-capable: disable the EZI2C.
 280:Generated_Source\PSoC6\pdl\drivers\peripheral\scb/cy_scb_ezi2c.c ****                     * The slave stops responding to the master until the
 281:Generated_Source\PSoC6\pdl\drivers\peripheral\scb/cy_scb_ezi2c.c ****                     * EZI2C is enabled. This happens when the device fails
 282:Generated_Source\PSoC6\pdl\drivers\peripheral\scb/cy_scb_ezi2c.c ****                     * to enter Deep Sleep mode or it is woken from Deep Sleep
 283:Generated_Source\PSoC6\pdl\drivers\peripheral\scb/cy_scb_ezi2c.c ****                     * mode.
 284:Generated_Source\PSoC6\pdl\drivers\peripheral\scb/cy_scb_ezi2c.c ****                     */
 285:Generated_Source\PSoC6\pdl\drivers\peripheral\scb/cy_scb_ezi2c.c ****                     Cy_SCB_EZI2C_Disable(locBase, locContext);
 286:Generated_Source\PSoC6\pdl\drivers\peripheral\scb/cy_scb_ezi2c.c ****                     Cy_SCB_SetSlaveInterruptMask(locBase, CY_SCB_EZI2C_SLAVE_INTR);
 287:Generated_Source\PSoC6\pdl\drivers\peripheral\scb/cy_scb_ezi2c.c ****                 }
 288:Generated_Source\PSoC6\pdl\drivers\peripheral\scb/cy_scb_ezi2c.c **** 
 289:Generated_Source\PSoC6\pdl\drivers\peripheral\scb/cy_scb_ezi2c.c ****                 retStatus = CY_SYSPM_SUCCESS;
 290:Generated_Source\PSoC6\pdl\drivers\peripheral\scb/cy_scb_ezi2c.c ****             }
 291:Generated_Source\PSoC6\pdl\drivers\peripheral\scb/cy_scb_ezi2c.c ****             else
 292:Generated_Source\PSoC6\pdl\drivers\peripheral\scb/cy_scb_ezi2c.c ****             {
 293:Generated_Source\PSoC6\pdl\drivers\peripheral\scb/cy_scb_ezi2c.c ****                 /* Restore the slave interrupt sources */
 294:Generated_Source\PSoC6\pdl\drivers\peripheral\scb/cy_scb_ezi2c.c ****                 Cy_SCB_SetSlaveInterruptMask(locBase, CY_SCB_EZI2C_SLAVE_INTR);
 295:Generated_Source\PSoC6\pdl\drivers\peripheral\scb/cy_scb_ezi2c.c ****             }
 296:Generated_Source\PSoC6\pdl\drivers\peripheral\scb/cy_scb_ezi2c.c ****         }
 297:Generated_Source\PSoC6\pdl\drivers\peripheral\scb/cy_scb_ezi2c.c ****         break;
 298:Generated_Source\PSoC6\pdl\drivers\peripheral\scb/cy_scb_ezi2c.c **** 
 299:Generated_Source\PSoC6\pdl\drivers\peripheral\scb/cy_scb_ezi2c.c ****         case CY_SYSPM_CHECK_FAIL:
 300:Generated_Source\PSoC6\pdl\drivers\peripheral\scb/cy_scb_ezi2c.c ****         {
 301:Generated_Source\PSoC6\pdl\drivers\peripheral\scb/cy_scb_ezi2c.c ****             /* The other driver is not ready for Deep Sleep mode. Restore
 302:Generated_Source\PSoC6\pdl\drivers\peripheral\scb/cy_scb_ezi2c.c ****             * Active mode configuration.
 303:Generated_Source\PSoC6\pdl\drivers\peripheral\scb/cy_scb_ezi2c.c ****             */
 304:Generated_Source\PSoC6\pdl\drivers\peripheral\scb/cy_scb_ezi2c.c **** 
 305:Generated_Source\PSoC6\pdl\drivers\peripheral\scb/cy_scb_ezi2c.c ****             if (_FLD2BOOL(SCB_CTRL_EC_AM_MODE, locBase->CTRL))
ARM GAS  C:\Users\salaz\AppData\Local\Temp\ccU0pQaU.s 			page 75


 306:Generated_Source\PSoC6\pdl\drivers\peripheral\scb/cy_scb_ezi2c.c ****             {
 307:Generated_Source\PSoC6\pdl\drivers\peripheral\scb/cy_scb_ezi2c.c ****                 /* The SCB is wakeup-capable: restore the slave interrupt
 308:Generated_Source\PSoC6\pdl\drivers\peripheral\scb/cy_scb_ezi2c.c ****                 * sources.
 309:Generated_Source\PSoC6\pdl\drivers\peripheral\scb/cy_scb_ezi2c.c ****                 */
 310:Generated_Source\PSoC6\pdl\drivers\peripheral\scb/cy_scb_ezi2c.c ****                 Cy_SCB_SetSlaveInterruptMask(locBase, CY_SCB_EZI2C_SLAVE_INTR);
 311:Generated_Source\PSoC6\pdl\drivers\peripheral\scb/cy_scb_ezi2c.c ****             }
 312:Generated_Source\PSoC6\pdl\drivers\peripheral\scb/cy_scb_ezi2c.c ****             else
 313:Generated_Source\PSoC6\pdl\drivers\peripheral\scb/cy_scb_ezi2c.c ****             {
 314:Generated_Source\PSoC6\pdl\drivers\peripheral\scb/cy_scb_ezi2c.c ****                 /* The SCB is NOT wakeup-capable: enable the slave to operate. */
 315:Generated_Source\PSoC6\pdl\drivers\peripheral\scb/cy_scb_ezi2c.c ****                 Cy_SCB_EZI2C_Enable(locBase);
 316:Generated_Source\PSoC6\pdl\drivers\peripheral\scb/cy_scb_ezi2c.c ****             }
 317:Generated_Source\PSoC6\pdl\drivers\peripheral\scb/cy_scb_ezi2c.c **** 
 318:Generated_Source\PSoC6\pdl\drivers\peripheral\scb/cy_scb_ezi2c.c ****             retStatus = CY_SYSPM_SUCCESS;
 319:Generated_Source\PSoC6\pdl\drivers\peripheral\scb/cy_scb_ezi2c.c ****         }
 320:Generated_Source\PSoC6\pdl\drivers\peripheral\scb/cy_scb_ezi2c.c ****         break;
 321:Generated_Source\PSoC6\pdl\drivers\peripheral\scb/cy_scb_ezi2c.c **** 
 322:Generated_Source\PSoC6\pdl\drivers\peripheral\scb/cy_scb_ezi2c.c ****         case CY_SYSPM_BEFORE_TRANSITION:
 323:Generated_Source\PSoC6\pdl\drivers\peripheral\scb/cy_scb_ezi2c.c ****         {
 324:Generated_Source\PSoC6\pdl\drivers\peripheral\scb/cy_scb_ezi2c.c ****             /* This code executes inside the critical section and enabling the
 325:Generated_Source\PSoC6\pdl\drivers\peripheral\scb/cy_scb_ezi2c.c ****             * active interrupt source makes the interrupt pending in the NVIC.
 326:Generated_Source\PSoC6\pdl\drivers\peripheral\scb/cy_scb_ezi2c.c ****             * However, the interrupt processing is delayed until the code exists
 327:Generated_Source\PSoC6\pdl\drivers\peripheral\scb/cy_scb_ezi2c.c ****             * the critical section. The pending interrupt force WFI instruction
 328:Generated_Source\PSoC6\pdl\drivers\peripheral\scb/cy_scb_ezi2c.c ****             * does nothing and the device remains in Active mode.
 329:Generated_Source\PSoC6\pdl\drivers\peripheral\scb/cy_scb_ezi2c.c ****             */
 330:Generated_Source\PSoC6\pdl\drivers\peripheral\scb/cy_scb_ezi2c.c **** 
 331:Generated_Source\PSoC6\pdl\drivers\peripheral\scb/cy_scb_ezi2c.c ****             if (_FLD2BOOL(SCB_CTRL_EC_AM_MODE, locBase->CTRL))
 332:Generated_Source\PSoC6\pdl\drivers\peripheral\scb/cy_scb_ezi2c.c ****             {
 333:Generated_Source\PSoC6\pdl\drivers\peripheral\scb/cy_scb_ezi2c.c ****                 /* The SCB is wakeup-capable: enable the I2C wakeup interrupt
 334:Generated_Source\PSoC6\pdl\drivers\peripheral\scb/cy_scb_ezi2c.c ****                 * source. If any transaction was paused the the EZI2C interrupt
 335:Generated_Source\PSoC6\pdl\drivers\peripheral\scb/cy_scb_ezi2c.c ****                 * becomes pending and prevents entering Deep Sleep mode.
 336:Generated_Source\PSoC6\pdl\drivers\peripheral\scb/cy_scb_ezi2c.c ****                 * The transaction continues as soon as the global interrupts
 337:Generated_Source\PSoC6\pdl\drivers\peripheral\scb/cy_scb_ezi2c.c ****                 * are enabled.
 338:Generated_Source\PSoC6\pdl\drivers\peripheral\scb/cy_scb_ezi2c.c ****                 */
 339:Generated_Source\PSoC6\pdl\drivers\peripheral\scb/cy_scb_ezi2c.c ****                 Cy_SCB_SetI2CInterruptMask(locBase, CY_SCB_I2C_INTR_WAKEUP);
 340:Generated_Source\PSoC6\pdl\drivers\peripheral\scb/cy_scb_ezi2c.c **** 
 341:Generated_Source\PSoC6\pdl\drivers\peripheral\scb/cy_scb_ezi2c.c ****                 /* Disable SCB clock */
 342:Generated_Source\PSoC6\pdl\drivers\peripheral\scb/cy_scb_ezi2c.c ****                 locBase->I2C_CFG &= (uint32_t) ~CY_SCB_I2C_CFG_CLK_ENABLE_Msk;
 343:Generated_Source\PSoC6\pdl\drivers\peripheral\scb/cy_scb_ezi2c.c ****                             
 344:Generated_Source\PSoC6\pdl\drivers\peripheral\scb/cy_scb_ezi2c.c ****                 /* IMPORTANT (replace line above for the CY8CKIT-062 rev-08): 
 345:Generated_Source\PSoC6\pdl\drivers\peripheral\scb/cy_scb_ezi2c.c ****                 * for proper entering Deep Sleep mode the I2C clock must be disabled. 
 346:Generated_Source\PSoC6\pdl\drivers\peripheral\scb/cy_scb_ezi2c.c ****                 * This code must be inserted by the user because the driver 
 347:Generated_Source\PSoC6\pdl\drivers\peripheral\scb/cy_scb_ezi2c.c ****                 * does not have access to the clock.
 348:Generated_Source\PSoC6\pdl\drivers\peripheral\scb/cy_scb_ezi2c.c ****                 */
 349:Generated_Source\PSoC6\pdl\drivers\peripheral\scb/cy_scb_ezi2c.c ****             }
 350:Generated_Source\PSoC6\pdl\drivers\peripheral\scb/cy_scb_ezi2c.c **** 
 351:Generated_Source\PSoC6\pdl\drivers\peripheral\scb/cy_scb_ezi2c.c ****             retStatus = CY_SYSPM_SUCCESS;
 352:Generated_Source\PSoC6\pdl\drivers\peripheral\scb/cy_scb_ezi2c.c ****         }
 353:Generated_Source\PSoC6\pdl\drivers\peripheral\scb/cy_scb_ezi2c.c ****         break;
 354:Generated_Source\PSoC6\pdl\drivers\peripheral\scb/cy_scb_ezi2c.c **** 
 355:Generated_Source\PSoC6\pdl\drivers\peripheral\scb/cy_scb_ezi2c.c ****         case CY_SYSPM_AFTER_TRANSITION:
 356:Generated_Source\PSoC6\pdl\drivers\peripheral\scb/cy_scb_ezi2c.c ****         {
 357:Generated_Source\PSoC6\pdl\drivers\peripheral\scb/cy_scb_ezi2c.c ****             if (_FLD2BOOL(SCB_CTRL_EC_AM_MODE, locBase->CTRL))
 358:Generated_Source\PSoC6\pdl\drivers\peripheral\scb/cy_scb_ezi2c.c ****             {
 359:Generated_Source\PSoC6\pdl\drivers\peripheral\scb/cy_scb_ezi2c.c ****                 /* Enable SCB clock */
 360:Generated_Source\PSoC6\pdl\drivers\peripheral\scb/cy_scb_ezi2c.c ****                 locBase->I2C_CFG |= CY_SCB_I2C_CFG_CLK_ENABLE_Msk;
 361:Generated_Source\PSoC6\pdl\drivers\peripheral\scb/cy_scb_ezi2c.c ****                 
 362:Generated_Source\PSoC6\pdl\drivers\peripheral\scb/cy_scb_ezi2c.c ****                 /* IMPORTANT (replace line above for the CY8CKIT-062 rev-08): 
ARM GAS  C:\Users\salaz\AppData\Local\Temp\ccU0pQaU.s 			page 76


 363:Generated_Source\PSoC6\pdl\drivers\peripheral\scb/cy_scb_ezi2c.c ****                 * for proper exiting Deep Sleep mode, the I2C clock must be enabled. 
 364:Generated_Source\PSoC6\pdl\drivers\peripheral\scb/cy_scb_ezi2c.c ****                 * This code must be inserted by the user because the driver 
 365:Generated_Source\PSoC6\pdl\drivers\peripheral\scb/cy_scb_ezi2c.c ****                 * does not have access to the clock.
 366:Generated_Source\PSoC6\pdl\drivers\peripheral\scb/cy_scb_ezi2c.c ****                 */
 367:Generated_Source\PSoC6\pdl\drivers\peripheral\scb/cy_scb_ezi2c.c **** 
 368:Generated_Source\PSoC6\pdl\drivers\peripheral\scb/cy_scb_ezi2c.c ****                 /* The SCB is wakeup-capable: disable the I2C wakeup interrupt
 369:Generated_Source\PSoC6\pdl\drivers\peripheral\scb/cy_scb_ezi2c.c ****                 * source and restore slave interrupt sources.
 370:Generated_Source\PSoC6\pdl\drivers\peripheral\scb/cy_scb_ezi2c.c ****                 */
 371:Generated_Source\PSoC6\pdl\drivers\peripheral\scb/cy_scb_ezi2c.c ****                 Cy_SCB_SetI2CInterruptMask  (locBase, CY_SCB_CLEAR_ALL_INTR_SRC);
 372:Generated_Source\PSoC6\pdl\drivers\peripheral\scb/cy_scb_ezi2c.c ****                 Cy_SCB_SetSlaveInterruptMask(locBase, CY_SCB_EZI2C_SLAVE_INTR);
 373:Generated_Source\PSoC6\pdl\drivers\peripheral\scb/cy_scb_ezi2c.c ****             }
 374:Generated_Source\PSoC6\pdl\drivers\peripheral\scb/cy_scb_ezi2c.c ****             else
 375:Generated_Source\PSoC6\pdl\drivers\peripheral\scb/cy_scb_ezi2c.c ****             {
 376:Generated_Source\PSoC6\pdl\drivers\peripheral\scb/cy_scb_ezi2c.c ****                 /* The SCB is NOT wakeup-capable: enable the slave to operate */
 377:Generated_Source\PSoC6\pdl\drivers\peripheral\scb/cy_scb_ezi2c.c ****                 Cy_SCB_EZI2C_Enable(locBase);
 378:Generated_Source\PSoC6\pdl\drivers\peripheral\scb/cy_scb_ezi2c.c ****             }
 379:Generated_Source\PSoC6\pdl\drivers\peripheral\scb/cy_scb_ezi2c.c **** 
 380:Generated_Source\PSoC6\pdl\drivers\peripheral\scb/cy_scb_ezi2c.c ****             retStatus = CY_SYSPM_SUCCESS;
 381:Generated_Source\PSoC6\pdl\drivers\peripheral\scb/cy_scb_ezi2c.c ****         }
 382:Generated_Source\PSoC6\pdl\drivers\peripheral\scb/cy_scb_ezi2c.c ****         break;
 383:Generated_Source\PSoC6\pdl\drivers\peripheral\scb/cy_scb_ezi2c.c **** 
 384:Generated_Source\PSoC6\pdl\drivers\peripheral\scb/cy_scb_ezi2c.c ****         default:
 385:Generated_Source\PSoC6\pdl\drivers\peripheral\scb/cy_scb_ezi2c.c ****             break;
 1595              		.loc 3 385 0
 1596 0026 83E0     		b	.L106
 1597              	.L98:
 254:Generated_Source\PSoC6\pdl\drivers\peripheral\scb/cy_scb_ezi2c.c ****     {
 1598              		.loc 3 254 0
 1599 0028 042B     		cmp	r3, #4
 1600 002a 4BD0     		beq	.L100
 1601 002c 082B     		cmp	r3, #8
 1602 002e 5ED0     		beq	.L101
 1603              		.loc 3 385 0
 1604 0030 7EE0     		b	.L106
 1605              	.L99:
 259:Generated_Source\PSoC6\pdl\drivers\peripheral\scb/cy_scb_ezi2c.c **** 
 1606              		.loc 3 259 0
 1607 0032 3B69     		ldr	r3, [r7, #16]
 1608 0034 0021     		movs	r1, #0
 1609 0036 1800     		movs	r0, r3
 1610 0038 FFF7FEFF 		bl	Cy_SCB_SetSlaveInterruptMask
 265:Generated_Source\PSoC6\pdl\drivers\peripheral\scb/cy_scb_ezi2c.c ****             {
 1611              		.loc 3 265 0
 1612 003c FB68     		ldr	r3, [r7, #12]
 1613 003e 1B78     		ldrb	r3, [r3]
 1614 0040 DBB2     		uxtb	r3, r3
 1615 0042 002B     		cmp	r3, #0
 1616 0044 1FD1     		bne	.L102
 267:Generated_Source\PSoC6\pdl\drivers\peripheral\scb/cy_scb_ezi2c.c ****                 {
 1617              		.loc 3 267 0
 1618 0046 3B69     		ldr	r3, [r7, #16]
 1619 0048 1A68     		ldr	r2, [r3]
 1620 004a 8023     		movs	r3, #128
 1621 004c 5B00     		lsls	r3, r3, #1
 1622 004e 1340     		ands	r3, r2
 1623 0050 08D0     		beq	.L103
 275:Generated_Source\PSoC6\pdl\drivers\peripheral\scb/cy_scb_ezi2c.c ****                 }
ARM GAS  C:\Users\salaz\AppData\Local\Temp\ccU0pQaU.s 			page 77


 1624              		.loc 3 275 0
 1625 0052 1223     		movs	r3, #18
 1626 0054 FF33     		adds	r3, r3, #255
 1627 0056 1A00     		movs	r2, r3
 1628 0058 3B69     		ldr	r3, [r7, #16]
 1629 005a 1100     		movs	r1, r2
 1630 005c 1800     		movs	r0, r3
 1631 005e FFF7FEFF 		bl	Cy_SCB_SetSlaveInterruptMask
 1632 0062 0DE0     		b	.L104
 1633              	.L103:
 285:Generated_Source\PSoC6\pdl\drivers\peripheral\scb/cy_scb_ezi2c.c ****                     Cy_SCB_SetSlaveInterruptMask(locBase, CY_SCB_EZI2C_SLAVE_INTR);
 1634              		.loc 3 285 0
 1635 0064 FA68     		ldr	r2, [r7, #12]
 1636 0066 3B69     		ldr	r3, [r7, #16]
 1637 0068 1100     		movs	r1, r2
 1638 006a 1800     		movs	r0, r3
 1639 006c FFF7FEFF 		bl	Cy_SCB_EZI2C_Disable
 286:Generated_Source\PSoC6\pdl\drivers\peripheral\scb/cy_scb_ezi2c.c ****                 }
 1640              		.loc 3 286 0
 1641 0070 5223     		movs	r3, #82
 1642 0072 FF33     		adds	r3, r3, #255
 1643 0074 1A00     		movs	r2, r3
 1644 0076 3B69     		ldr	r3, [r7, #16]
 1645 0078 1100     		movs	r1, r2
 1646 007a 1800     		movs	r0, r3
 1647 007c FFF7FEFF 		bl	Cy_SCB_SetSlaveInterruptMask
 1648              	.L104:
 289:Generated_Source\PSoC6\pdl\drivers\peripheral\scb/cy_scb_ezi2c.c ****             }
 1649              		.loc 3 289 0
 1650 0080 0023     		movs	r3, #0
 1651 0082 7B61     		str	r3, [r7, #20]
 297:Generated_Source\PSoC6\pdl\drivers\peripheral\scb/cy_scb_ezi2c.c **** 
 1652              		.loc 3 297 0
 1653 0084 54E0     		b	.L106
 1654              	.L102:
 294:Generated_Source\PSoC6\pdl\drivers\peripheral\scb/cy_scb_ezi2c.c ****             }
 1655              		.loc 3 294 0
 1656 0086 5223     		movs	r3, #82
 1657 0088 FF33     		adds	r3, r3, #255
 1658 008a 1A00     		movs	r2, r3
 1659 008c 3B69     		ldr	r3, [r7, #16]
 1660 008e 1100     		movs	r1, r2
 1661 0090 1800     		movs	r0, r3
 1662 0092 FFF7FEFF 		bl	Cy_SCB_SetSlaveInterruptMask
 297:Generated_Source\PSoC6\pdl\drivers\peripheral\scb/cy_scb_ezi2c.c **** 
 1663              		.loc 3 297 0
 1664 0096 4BE0     		b	.L106
 1665              	.L97:
 305:Generated_Source\PSoC6\pdl\drivers\peripheral\scb/cy_scb_ezi2c.c ****             {
 1666              		.loc 3 305 0
 1667 0098 3B69     		ldr	r3, [r7, #16]
 1668 009a 1A68     		ldr	r2, [r3]
 1669 009c 8023     		movs	r3, #128
 1670 009e 5B00     		lsls	r3, r3, #1
 1671 00a0 1340     		ands	r3, r2
 1672 00a2 08D0     		beq	.L107
 310:Generated_Source\PSoC6\pdl\drivers\peripheral\scb/cy_scb_ezi2c.c ****             }
ARM GAS  C:\Users\salaz\AppData\Local\Temp\ccU0pQaU.s 			page 78


 1673              		.loc 3 310 0
 1674 00a4 5223     		movs	r3, #82
 1675 00a6 FF33     		adds	r3, r3, #255
 1676 00a8 1A00     		movs	r2, r3
 1677 00aa 3B69     		ldr	r3, [r7, #16]
 1678 00ac 1100     		movs	r1, r2
 1679 00ae 1800     		movs	r0, r3
 1680 00b0 FFF7FEFF 		bl	Cy_SCB_SetSlaveInterruptMask
 1681 00b4 03E0     		b	.L108
 1682              	.L107:
 315:Generated_Source\PSoC6\pdl\drivers\peripheral\scb/cy_scb_ezi2c.c ****             }
 1683              		.loc 3 315 0
 1684 00b6 3B69     		ldr	r3, [r7, #16]
 1685 00b8 1800     		movs	r0, r3
 1686 00ba FFF7FEFF 		bl	Cy_SCB_EZI2C_Enable
 1687              	.L108:
 318:Generated_Source\PSoC6\pdl\drivers\peripheral\scb/cy_scb_ezi2c.c ****         }
 1688              		.loc 3 318 0
 1689 00be 0023     		movs	r3, #0
 1690 00c0 7B61     		str	r3, [r7, #20]
 320:Generated_Source\PSoC6\pdl\drivers\peripheral\scb/cy_scb_ezi2c.c **** 
 1691              		.loc 3 320 0
 1692 00c2 35E0     		b	.L106
 1693              	.L100:
 331:Generated_Source\PSoC6\pdl\drivers\peripheral\scb/cy_scb_ezi2c.c ****             {
 1694              		.loc 3 331 0
 1695 00c4 3B69     		ldr	r3, [r7, #16]
 1696 00c6 1A68     		ldr	r2, [r3]
 1697 00c8 8023     		movs	r3, #128
 1698 00ca 5B00     		lsls	r3, r3, #1
 1699 00cc 1340     		ands	r3, r2
 1700 00ce 0BD0     		beq	.L109
 339:Generated_Source\PSoC6\pdl\drivers\peripheral\scb/cy_scb_ezi2c.c **** 
 1701              		.loc 3 339 0
 1702 00d0 3B69     		ldr	r3, [r7, #16]
 1703 00d2 0121     		movs	r1, #1
 1704 00d4 1800     		movs	r0, r3
 1705 00d6 FFF7FEFF 		bl	Cy_SCB_SetI2CInterruptMask
 342:Generated_Source\PSoC6\pdl\drivers\peripheral\scb/cy_scb_ezi2c.c ****                             
 1706              		.loc 3 342 0
 1707 00da 3B69     		ldr	r3, [r7, #16]
 1708 00dc 1B6F     		ldr	r3, [r3, #112]
 1709 00de 0222     		movs	r2, #2
 1710 00e0 9343     		bics	r3, r2
 1711 00e2 1A00     		movs	r2, r3
 1712 00e4 3B69     		ldr	r3, [r7, #16]
 1713 00e6 1A67     		str	r2, [r3, #112]
 1714              	.L109:
 351:Generated_Source\PSoC6\pdl\drivers\peripheral\scb/cy_scb_ezi2c.c ****         }
 1715              		.loc 3 351 0
 1716 00e8 0023     		movs	r3, #0
 1717 00ea 7B61     		str	r3, [r7, #20]
 353:Generated_Source\PSoC6\pdl\drivers\peripheral\scb/cy_scb_ezi2c.c **** 
 1718              		.loc 3 353 0
 1719 00ec 20E0     		b	.L106
 1720              	.L101:
 357:Generated_Source\PSoC6\pdl\drivers\peripheral\scb/cy_scb_ezi2c.c ****             {
ARM GAS  C:\Users\salaz\AppData\Local\Temp\ccU0pQaU.s 			page 79


 1721              		.loc 3 357 0
 1722 00ee 3B69     		ldr	r3, [r7, #16]
 1723 00f0 1A68     		ldr	r2, [r3]
 1724 00f2 8023     		movs	r3, #128
 1725 00f4 5B00     		lsls	r3, r3, #1
 1726 00f6 1340     		ands	r3, r2
 1727 00f8 13D0     		beq	.L110
 360:Generated_Source\PSoC6\pdl\drivers\peripheral\scb/cy_scb_ezi2c.c ****                 
 1728              		.loc 3 360 0
 1729 00fa 3B69     		ldr	r3, [r7, #16]
 1730 00fc 1B6F     		ldr	r3, [r3, #112]
 1731 00fe 0222     		movs	r2, #2
 1732 0100 1A43     		orrs	r2, r3
 1733 0102 3B69     		ldr	r3, [r7, #16]
 1734 0104 1A67     		str	r2, [r3, #112]
 371:Generated_Source\PSoC6\pdl\drivers\peripheral\scb/cy_scb_ezi2c.c ****                 Cy_SCB_SetSlaveInterruptMask(locBase, CY_SCB_EZI2C_SLAVE_INTR);
 1735              		.loc 3 371 0
 1736 0106 3B69     		ldr	r3, [r7, #16]
 1737 0108 0021     		movs	r1, #0
 1738 010a 1800     		movs	r0, r3
 1739 010c FFF7FEFF 		bl	Cy_SCB_SetI2CInterruptMask
 372:Generated_Source\PSoC6\pdl\drivers\peripheral\scb/cy_scb_ezi2c.c ****             }
 1740              		.loc 3 372 0
 1741 0110 5223     		movs	r3, #82
 1742 0112 FF33     		adds	r3, r3, #255
 1743 0114 1A00     		movs	r2, r3
 1744 0116 3B69     		ldr	r3, [r7, #16]
 1745 0118 1100     		movs	r1, r2
 1746 011a 1800     		movs	r0, r3
 1747 011c FFF7FEFF 		bl	Cy_SCB_SetSlaveInterruptMask
 1748 0120 03E0     		b	.L111
 1749              	.L110:
 377:Generated_Source\PSoC6\pdl\drivers\peripheral\scb/cy_scb_ezi2c.c ****             }
 1750              		.loc 3 377 0
 1751 0122 3B69     		ldr	r3, [r7, #16]
 1752 0124 1800     		movs	r0, r3
 1753 0126 FFF7FEFF 		bl	Cy_SCB_EZI2C_Enable
 1754              	.L111:
 380:Generated_Source\PSoC6\pdl\drivers\peripheral\scb/cy_scb_ezi2c.c ****         }
 1755              		.loc 3 380 0
 1756 012a 0023     		movs	r3, #0
 1757 012c 7B61     		str	r3, [r7, #20]
 382:Generated_Source\PSoC6\pdl\drivers\peripheral\scb/cy_scb_ezi2c.c **** 
 1758              		.loc 3 382 0
 1759 012e C046     		nop
 1760              	.L106:
 386:Generated_Source\PSoC6\pdl\drivers\peripheral\scb/cy_scb_ezi2c.c ****     }
 387:Generated_Source\PSoC6\pdl\drivers\peripheral\scb/cy_scb_ezi2c.c **** 
 388:Generated_Source\PSoC6\pdl\drivers\peripheral\scb/cy_scb_ezi2c.c ****     return (retStatus);
 1761              		.loc 3 388 0
 1762 0130 7B69     		ldr	r3, [r7, #20]
 389:Generated_Source\PSoC6\pdl\drivers\peripheral\scb/cy_scb_ezi2c.c **** }
 1763              		.loc 3 389 0
 1764 0132 1800     		movs	r0, r3
 1765 0134 BD46     		mov	sp, r7
 1766 0136 06B0     		add	sp, sp, #24
 1767              		@ sp needed
ARM GAS  C:\Users\salaz\AppData\Local\Temp\ccU0pQaU.s 			page 80


 1768 0138 80BD     		pop	{r7, pc}
 1769              	.L114:
 1770 013a C046     		.align	2
 1771              	.L113:
 1772 013c FF004200 		.word	4325631
 1773              		.cfi_endproc
 1774              	.LFE125:
 1775              		.size	Cy_SCB_EZI2C_DeepSleepCallback, .-Cy_SCB_EZI2C_DeepSleepCallback
 1776              		.section	.text.Cy_SCB_EZI2C_HibernateCallback,"ax",%progbits
 1777              		.align	2
 1778              		.global	Cy_SCB_EZI2C_HibernateCallback
 1779              		.code	16
 1780              		.thumb_func
 1781              		.type	Cy_SCB_EZI2C_HibernateCallback, %function
 1782              	Cy_SCB_EZI2C_HibernateCallback:
 1783              	.LFB126:
 390:Generated_Source\PSoC6\pdl\drivers\peripheral\scb/cy_scb_ezi2c.c **** 
 391:Generated_Source\PSoC6\pdl\drivers\peripheral\scb/cy_scb_ezi2c.c **** 
 392:Generated_Source\PSoC6\pdl\drivers\peripheral\scb/cy_scb_ezi2c.c **** /*******************************************************************************
 393:Generated_Source\PSoC6\pdl\drivers\peripheral\scb/cy_scb_ezi2c.c **** * Function Name: Cy_SCB_EZI2C_HibernateCallback
 394:Generated_Source\PSoC6\pdl\drivers\peripheral\scb/cy_scb_ezi2c.c **** ****************************************************************************//**
 395:Generated_Source\PSoC6\pdl\drivers\peripheral\scb/cy_scb_ezi2c.c **** *
 396:Generated_Source\PSoC6\pdl\drivers\peripheral\scb/cy_scb_ezi2c.c **** * This function handles the transition of the EZI2C SCB block into Hibernate
 397:Generated_Source\PSoC6\pdl\drivers\peripheral\scb/cy_scb_ezi2c.c **** * mode. It prevents the device from entering Hibernate mode if the EZI2C slave 
 398:Generated_Source\PSoC6\pdl\drivers\peripheral\scb/cy_scb_ezi2c.c **** * is actively communicating.
 399:Generated_Source\PSoC6\pdl\drivers\peripheral\scb/cy_scb_ezi2c.c **** * If the EZI2C is ready to enter Hibernate mode, it is disabled. If the device
 400:Generated_Source\PSoC6\pdl\drivers\peripheral\scb/cy_scb_ezi2c.c **** * fails to enter Hibernate mode, the EZI2C is enabled. While the EZI2C
 401:Generated_Source\PSoC6\pdl\drivers\peripheral\scb/cy_scb_ezi2c.c **** * is disabled, it stops driving the output and ignores the inputs.
 402:Generated_Source\PSoC6\pdl\drivers\peripheral\scb/cy_scb_ezi2c.c **** * The slave NACKs all incoming addresses.
 403:Generated_Source\PSoC6\pdl\drivers\peripheral\scb/cy_scb_ezi2c.c **** *
 404:Generated_Source\PSoC6\pdl\drivers\peripheral\scb/cy_scb_ezi2c.c **** * This function must be called during execution of \ref Cy_SysPm_Hibernate.
 405:Generated_Source\PSoC6\pdl\drivers\peripheral\scb/cy_scb_ezi2c.c **** * To do this, register this function as a callback before calling
 406:Generated_Source\PSoC6\pdl\drivers\peripheral\scb/cy_scb_ezi2c.c **** * \ref Cy_SysPm_Hibernate : specify \ref CY_SYSPM_HIBERNATE as the callback
 407:Generated_Source\PSoC6\pdl\drivers\peripheral\scb/cy_scb_ezi2c.c **** * type and call \ref Cy_SysPm_RegisterCallback.
 408:Generated_Source\PSoC6\pdl\drivers\peripheral\scb/cy_scb_ezi2c.c **** *
 409:Generated_Source\PSoC6\pdl\drivers\peripheral\scb/cy_scb_ezi2c.c **** * \param callbackParams
 410:Generated_Source\PSoC6\pdl\drivers\peripheral\scb/cy_scb_ezi2c.c **** * The pointer to the callback parameters structure
 411:Generated_Source\PSoC6\pdl\drivers\peripheral\scb/cy_scb_ezi2c.c **** * \ref cy_stc_syspm_callback_params_t.
 412:Generated_Source\PSoC6\pdl\drivers\peripheral\scb/cy_scb_ezi2c.c **** *
 413:Generated_Source\PSoC6\pdl\drivers\peripheral\scb/cy_scb_ezi2c.c **** * \return
 414:Generated_Source\PSoC6\pdl\drivers\peripheral\scb/cy_scb_ezi2c.c **** * \ref cy_en_syspm_status_t
 415:Generated_Source\PSoC6\pdl\drivers\peripheral\scb/cy_scb_ezi2c.c **** *
 416:Generated_Source\PSoC6\pdl\drivers\peripheral\scb/cy_scb_ezi2c.c **** *******************************************************************************/
 417:Generated_Source\PSoC6\pdl\drivers\peripheral\scb/cy_scb_ezi2c.c **** cy_en_syspm_status_t Cy_SCB_EZI2C_HibernateCallback(cy_stc_syspm_callback_params_t *callbackParams)
 418:Generated_Source\PSoC6\pdl\drivers\peripheral\scb/cy_scb_ezi2c.c **** {
 1784              		.loc 3 418 0
 1785              		.cfi_startproc
 1786              		@ args = 0, pretend = 0, frame = 24
 1787              		@ frame_needed = 1, uses_anonymous_args = 0
 1788 0000 80B5     		push	{r7, lr}
 1789              		.cfi_def_cfa_offset 8
 1790              		.cfi_offset 7, -8
 1791              		.cfi_offset 14, -4
 1792 0002 86B0     		sub	sp, sp, #24
 1793              		.cfi_def_cfa_offset 32
 1794 0004 00AF     		add	r7, sp, #0
 1795              		.cfi_def_cfa_register 7
ARM GAS  C:\Users\salaz\AppData\Local\Temp\ccU0pQaU.s 			page 81


 1796 0006 7860     		str	r0, [r7, #4]
 419:Generated_Source\PSoC6\pdl\drivers\peripheral\scb/cy_scb_ezi2c.c ****     CySCB_Type *locBase = (CySCB_Type *) callbackParams->base;
 1797              		.loc 3 419 0
 1798 0008 7B68     		ldr	r3, [r7, #4]
 1799 000a 5B68     		ldr	r3, [r3, #4]
 1800 000c 3B61     		str	r3, [r7, #16]
 420:Generated_Source\PSoC6\pdl\drivers\peripheral\scb/cy_scb_ezi2c.c ****     cy_stc_scb_ezi2c_context_t *locContext = (cy_stc_scb_ezi2c_context_t *) callbackParams->context
 1801              		.loc 3 420 0
 1802 000e 7B68     		ldr	r3, [r7, #4]
 1803 0010 9B68     		ldr	r3, [r3, #8]
 1804 0012 FB60     		str	r3, [r7, #12]
 421:Generated_Source\PSoC6\pdl\drivers\peripheral\scb/cy_scb_ezi2c.c **** 
 422:Generated_Source\PSoC6\pdl\drivers\peripheral\scb/cy_scb_ezi2c.c ****     cy_en_syspm_status_t retStatus = CY_SYSPM_FAIL;
 1805              		.loc 3 422 0
 1806 0014 1C4B     		ldr	r3, .L124
 1807 0016 7B61     		str	r3, [r7, #20]
 423:Generated_Source\PSoC6\pdl\drivers\peripheral\scb/cy_scb_ezi2c.c **** 
 424:Generated_Source\PSoC6\pdl\drivers\peripheral\scb/cy_scb_ezi2c.c ****     switch (callbackParams->mode)
 1808              		.loc 3 424 0
 1809 0018 7B68     		ldr	r3, [r7, #4]
 1810 001a 1B78     		ldrb	r3, [r3]
 1811 001c 022B     		cmp	r3, #2
 1812 001e 23D0     		beq	.L117
 1813 0020 02DC     		bgt	.L118
 1814 0022 012B     		cmp	r3, #1
 1815 0024 05D0     		beq	.L119
 425:Generated_Source\PSoC6\pdl\drivers\peripheral\scb/cy_scb_ezi2c.c ****     {
 426:Generated_Source\PSoC6\pdl\drivers\peripheral\scb/cy_scb_ezi2c.c ****         case CY_SYSPM_CHECK_READY:
 427:Generated_Source\PSoC6\pdl\drivers\peripheral\scb/cy_scb_ezi2c.c ****         {
 428:Generated_Source\PSoC6\pdl\drivers\peripheral\scb/cy_scb_ezi2c.c ****             /* Disable the slave interrupt sources to protect the state */
 429:Generated_Source\PSoC6\pdl\drivers\peripheral\scb/cy_scb_ezi2c.c ****             Cy_SCB_SetSlaveInterruptMask(locBase, CY_SCB_CLEAR_ALL_INTR_SRC);
 430:Generated_Source\PSoC6\pdl\drivers\peripheral\scb/cy_scb_ezi2c.c **** 
 431:Generated_Source\PSoC6\pdl\drivers\peripheral\scb/cy_scb_ezi2c.c ****             /* If the EZI2C is in the IDLE state, it is ready for Hibernate mode.
 432:Generated_Source\PSoC6\pdl\drivers\peripheral\scb/cy_scb_ezi2c.c ****             * Otherwise, returns fail and restores the slave interrupt sources.
 433:Generated_Source\PSoC6\pdl\drivers\peripheral\scb/cy_scb_ezi2c.c ****             */
 434:Generated_Source\PSoC6\pdl\drivers\peripheral\scb/cy_scb_ezi2c.c ****             if (CY_SCB_EZI2C_STATE_IDLE == locContext->state)
 435:Generated_Source\PSoC6\pdl\drivers\peripheral\scb/cy_scb_ezi2c.c ****             {
 436:Generated_Source\PSoC6\pdl\drivers\peripheral\scb/cy_scb_ezi2c.c ****                 /* Disable the EZI2C. It stops responding to the master until
 437:Generated_Source\PSoC6\pdl\drivers\peripheral\scb/cy_scb_ezi2c.c ****                 * the EZI2C is enabled. This happens if the device fails to
 438:Generated_Source\PSoC6\pdl\drivers\peripheral\scb/cy_scb_ezi2c.c ****                 * enter Hibernate mode.
 439:Generated_Source\PSoC6\pdl\drivers\peripheral\scb/cy_scb_ezi2c.c ****                 */
 440:Generated_Source\PSoC6\pdl\drivers\peripheral\scb/cy_scb_ezi2c.c ****                 Cy_SCB_EZI2C_Disable(locBase, locContext);
 441:Generated_Source\PSoC6\pdl\drivers\peripheral\scb/cy_scb_ezi2c.c **** 
 442:Generated_Source\PSoC6\pdl\drivers\peripheral\scb/cy_scb_ezi2c.c ****                 retStatus = CY_SYSPM_SUCCESS;
 443:Generated_Source\PSoC6\pdl\drivers\peripheral\scb/cy_scb_ezi2c.c ****             }
 444:Generated_Source\PSoC6\pdl\drivers\peripheral\scb/cy_scb_ezi2c.c **** 
 445:Generated_Source\PSoC6\pdl\drivers\peripheral\scb/cy_scb_ezi2c.c ****             /* Restore the slave interrupt sources */
 446:Generated_Source\PSoC6\pdl\drivers\peripheral\scb/cy_scb_ezi2c.c ****             Cy_SCB_SetSlaveInterruptMask(locBase, CY_SCB_EZI2C_SLAVE_INTR);
 447:Generated_Source\PSoC6\pdl\drivers\peripheral\scb/cy_scb_ezi2c.c ****         }
 448:Generated_Source\PSoC6\pdl\drivers\peripheral\scb/cy_scb_ezi2c.c ****         break;
 449:Generated_Source\PSoC6\pdl\drivers\peripheral\scb/cy_scb_ezi2c.c **** 
 450:Generated_Source\PSoC6\pdl\drivers\peripheral\scb/cy_scb_ezi2c.c ****         case CY_SYSPM_CHECK_FAIL:
 451:Generated_Source\PSoC6\pdl\drivers\peripheral\scb/cy_scb_ezi2c.c ****         {
 452:Generated_Source\PSoC6\pdl\drivers\peripheral\scb/cy_scb_ezi2c.c ****             /* The other driver is not ready for Hibernate mode. Restore the
 453:Generated_Source\PSoC6\pdl\drivers\peripheral\scb/cy_scb_ezi2c.c ****             * Active mode configuration.
 454:Generated_Source\PSoC6\pdl\drivers\peripheral\scb/cy_scb_ezi2c.c ****             */
 455:Generated_Source\PSoC6\pdl\drivers\peripheral\scb/cy_scb_ezi2c.c **** 
ARM GAS  C:\Users\salaz\AppData\Local\Temp\ccU0pQaU.s 			page 82


 456:Generated_Source\PSoC6\pdl\drivers\peripheral\scb/cy_scb_ezi2c.c ****             /* Enable the slave to operate */
 457:Generated_Source\PSoC6\pdl\drivers\peripheral\scb/cy_scb_ezi2c.c ****             Cy_SCB_EZI2C_Enable(locBase);
 458:Generated_Source\PSoC6\pdl\drivers\peripheral\scb/cy_scb_ezi2c.c **** 
 459:Generated_Source\PSoC6\pdl\drivers\peripheral\scb/cy_scb_ezi2c.c ****             retStatus = CY_SYSPM_SUCCESS;
 460:Generated_Source\PSoC6\pdl\drivers\peripheral\scb/cy_scb_ezi2c.c ****         }
 461:Generated_Source\PSoC6\pdl\drivers\peripheral\scb/cy_scb_ezi2c.c ****         break;
 462:Generated_Source\PSoC6\pdl\drivers\peripheral\scb/cy_scb_ezi2c.c **** 
 463:Generated_Source\PSoC6\pdl\drivers\peripheral\scb/cy_scb_ezi2c.c ****         case CY_SYSPM_BEFORE_TRANSITION:
 464:Generated_Source\PSoC6\pdl\drivers\peripheral\scb/cy_scb_ezi2c.c ****         case CY_SYSPM_AFTER_TRANSITION:
 465:Generated_Source\PSoC6\pdl\drivers\peripheral\scb/cy_scb_ezi2c.c ****         {
 466:Generated_Source\PSoC6\pdl\drivers\peripheral\scb/cy_scb_ezi2c.c ****             /* The SCB is not capable of waking up from Hibernate mode: do nothing */
 467:Generated_Source\PSoC6\pdl\drivers\peripheral\scb/cy_scb_ezi2c.c ****             retStatus = CY_SYSPM_SUCCESS;
 468:Generated_Source\PSoC6\pdl\drivers\peripheral\scb/cy_scb_ezi2c.c ****         }
 469:Generated_Source\PSoC6\pdl\drivers\peripheral\scb/cy_scb_ezi2c.c ****         break;
 470:Generated_Source\PSoC6\pdl\drivers\peripheral\scb/cy_scb_ezi2c.c **** 
 471:Generated_Source\PSoC6\pdl\drivers\peripheral\scb/cy_scb_ezi2c.c ****         default:
 472:Generated_Source\PSoC6\pdl\drivers\peripheral\scb/cy_scb_ezi2c.c ****         break;
 1816              		.loc 3 472 0
 1817 0026 29E0     		b	.L122
 1818              	.L118:
 424:Generated_Source\PSoC6\pdl\drivers\peripheral\scb/cy_scb_ezi2c.c ****     {
 1819              		.loc 3 424 0
 1820 0028 042B     		cmp	r3, #4
 1821 002a 24D0     		beq	.L120
 1822 002c 082B     		cmp	r3, #8
 1823 002e 22D0     		beq	.L120
 1824              		.loc 3 472 0
 1825 0030 24E0     		b	.L122
 1826              	.L119:
 429:Generated_Source\PSoC6\pdl\drivers\peripheral\scb/cy_scb_ezi2c.c **** 
 1827              		.loc 3 429 0
 1828 0032 3B69     		ldr	r3, [r7, #16]
 1829 0034 0021     		movs	r1, #0
 1830 0036 1800     		movs	r0, r3
 1831 0038 FFF7FEFF 		bl	Cy_SCB_SetSlaveInterruptMask
 434:Generated_Source\PSoC6\pdl\drivers\peripheral\scb/cy_scb_ezi2c.c ****             {
 1832              		.loc 3 434 0
 1833 003c FB68     		ldr	r3, [r7, #12]
 1834 003e 1B78     		ldrb	r3, [r3]
 1835 0040 DBB2     		uxtb	r3, r3
 1836 0042 002B     		cmp	r3, #0
 1837 0044 07D1     		bne	.L121
 440:Generated_Source\PSoC6\pdl\drivers\peripheral\scb/cy_scb_ezi2c.c **** 
 1838              		.loc 3 440 0
 1839 0046 FA68     		ldr	r2, [r7, #12]
 1840 0048 3B69     		ldr	r3, [r7, #16]
 1841 004a 1100     		movs	r1, r2
 1842 004c 1800     		movs	r0, r3
 1843 004e FFF7FEFF 		bl	Cy_SCB_EZI2C_Disable
 442:Generated_Source\PSoC6\pdl\drivers\peripheral\scb/cy_scb_ezi2c.c ****             }
 1844              		.loc 3 442 0
 1845 0052 0023     		movs	r3, #0
 1846 0054 7B61     		str	r3, [r7, #20]
 1847              	.L121:
 446:Generated_Source\PSoC6\pdl\drivers\peripheral\scb/cy_scb_ezi2c.c ****         }
 1848              		.loc 3 446 0
 1849 0056 5223     		movs	r3, #82
ARM GAS  C:\Users\salaz\AppData\Local\Temp\ccU0pQaU.s 			page 83


 1850 0058 FF33     		adds	r3, r3, #255
 1851 005a 1A00     		movs	r2, r3
 1852 005c 3B69     		ldr	r3, [r7, #16]
 1853 005e 1100     		movs	r1, r2
 1854 0060 1800     		movs	r0, r3
 1855 0062 FFF7FEFF 		bl	Cy_SCB_SetSlaveInterruptMask
 448:Generated_Source\PSoC6\pdl\drivers\peripheral\scb/cy_scb_ezi2c.c **** 
 1856              		.loc 3 448 0
 1857 0066 09E0     		b	.L122
 1858              	.L117:
 457:Generated_Source\PSoC6\pdl\drivers\peripheral\scb/cy_scb_ezi2c.c **** 
 1859              		.loc 3 457 0
 1860 0068 3B69     		ldr	r3, [r7, #16]
 1861 006a 1800     		movs	r0, r3
 1862 006c FFF7FEFF 		bl	Cy_SCB_EZI2C_Enable
 459:Generated_Source\PSoC6\pdl\drivers\peripheral\scb/cy_scb_ezi2c.c ****         }
 1863              		.loc 3 459 0
 1864 0070 0023     		movs	r3, #0
 1865 0072 7B61     		str	r3, [r7, #20]
 461:Generated_Source\PSoC6\pdl\drivers\peripheral\scb/cy_scb_ezi2c.c **** 
 1866              		.loc 3 461 0
 1867 0074 02E0     		b	.L122
 1868              	.L120:
 467:Generated_Source\PSoC6\pdl\drivers\peripheral\scb/cy_scb_ezi2c.c ****         }
 1869              		.loc 3 467 0
 1870 0076 0023     		movs	r3, #0
 1871 0078 7B61     		str	r3, [r7, #20]
 469:Generated_Source\PSoC6\pdl\drivers\peripheral\scb/cy_scb_ezi2c.c **** 
 1872              		.loc 3 469 0
 1873 007a C046     		nop
 1874              	.L122:
 473:Generated_Source\PSoC6\pdl\drivers\peripheral\scb/cy_scb_ezi2c.c ****     }
 474:Generated_Source\PSoC6\pdl\drivers\peripheral\scb/cy_scb_ezi2c.c **** 
 475:Generated_Source\PSoC6\pdl\drivers\peripheral\scb/cy_scb_ezi2c.c ****     return (retStatus);
 1875              		.loc 3 475 0
 1876 007c 7B69     		ldr	r3, [r7, #20]
 476:Generated_Source\PSoC6\pdl\drivers\peripheral\scb/cy_scb_ezi2c.c **** }
 1877              		.loc 3 476 0
 1878 007e 1800     		movs	r0, r3
 1879 0080 BD46     		mov	sp, r7
 1880 0082 06B0     		add	sp, sp, #24
 1881              		@ sp needed
 1882 0084 80BD     		pop	{r7, pc}
 1883              	.L125:
 1884 0086 C046     		.align	2
 1885              	.L124:
 1886 0088 FF004200 		.word	4325631
 1887              		.cfi_endproc
 1888              	.LFE126:
 1889              		.size	Cy_SCB_EZI2C_HibernateCallback, .-Cy_SCB_EZI2C_HibernateCallback
 1890              		.section	.text.Cy_SCB_EZI2C_GetActivity,"ax",%progbits
 1891              		.align	2
 1892              		.global	Cy_SCB_EZI2C_GetActivity
 1893              		.code	16
 1894              		.thumb_func
 1895              		.type	Cy_SCB_EZI2C_GetActivity, %function
 1896              	Cy_SCB_EZI2C_GetActivity:
ARM GAS  C:\Users\salaz\AppData\Local\Temp\ccU0pQaU.s 			page 84


 1897              	.LFB127:
 477:Generated_Source\PSoC6\pdl\drivers\peripheral\scb/cy_scb_ezi2c.c **** 
 478:Generated_Source\PSoC6\pdl\drivers\peripheral\scb/cy_scb_ezi2c.c **** 
 479:Generated_Source\PSoC6\pdl\drivers\peripheral\scb/cy_scb_ezi2c.c **** /*******************************************************************************
 480:Generated_Source\PSoC6\pdl\drivers\peripheral\scb/cy_scb_ezi2c.c **** * Function Name: Cy_SCB_EZI2C_GetActivity
 481:Generated_Source\PSoC6\pdl\drivers\peripheral\scb/cy_scb_ezi2c.c **** ****************************************************************************//**
 482:Generated_Source\PSoC6\pdl\drivers\peripheral\scb/cy_scb_ezi2c.c **** *
 483:Generated_Source\PSoC6\pdl\drivers\peripheral\scb/cy_scb_ezi2c.c **** * Returns a non-zero value if an I2C Read or Write cycle has occurred since the
 484:Generated_Source\PSoC6\pdl\drivers\peripheral\scb/cy_scb_ezi2c.c **** * last time this function was called. All flags are reset to zero at the end of
 485:Generated_Source\PSoC6\pdl\drivers\peripheral\scb/cy_scb_ezi2c.c **** * this function call, except the \ref CY_SCB_EZI2C_STATUS_BUSY.
 486:Generated_Source\PSoC6\pdl\drivers\peripheral\scb/cy_scb_ezi2c.c **** *
 487:Generated_Source\PSoC6\pdl\drivers\peripheral\scb/cy_scb_ezi2c.c **** * \param base
 488:Generated_Source\PSoC6\pdl\drivers\peripheral\scb/cy_scb_ezi2c.c **** * The pointer to the EZI2C SCB instance.
 489:Generated_Source\PSoC6\pdl\drivers\peripheral\scb/cy_scb_ezi2c.c **** *
 490:Generated_Source\PSoC6\pdl\drivers\peripheral\scb/cy_scb_ezi2c.c **** * \param context
 491:Generated_Source\PSoC6\pdl\drivers\peripheral\scb/cy_scb_ezi2c.c **** * The pointer to the context structure \ref cy_stc_scb_ezi2c_context_t
 492:Generated_Source\PSoC6\pdl\drivers\peripheral\scb/cy_scb_ezi2c.c **** * allocated by the user. The structure is used during the EZI2C operation for
 493:Generated_Source\PSoC6\pdl\drivers\peripheral\scb/cy_scb_ezi2c.c **** * internal configuration and data retention. The user must not modify anything
 494:Generated_Source\PSoC6\pdl\drivers\peripheral\scb/cy_scb_ezi2c.c **** * in this structure.
 495:Generated_Source\PSoC6\pdl\drivers\peripheral\scb/cy_scb_ezi2c.c **** *
 496:Generated_Source\PSoC6\pdl\drivers\peripheral\scb/cy_scb_ezi2c.c **** * \return
 497:Generated_Source\PSoC6\pdl\drivers\peripheral\scb/cy_scb_ezi2c.c **** * \ref group_scb_ezi2c_macros_get_activity.
 498:Generated_Source\PSoC6\pdl\drivers\peripheral\scb/cy_scb_ezi2c.c **** *
 499:Generated_Source\PSoC6\pdl\drivers\peripheral\scb/cy_scb_ezi2c.c **** *******************************************************************************/
 500:Generated_Source\PSoC6\pdl\drivers\peripheral\scb/cy_scb_ezi2c.c **** uint32_t Cy_SCB_EZI2C_GetActivity(CySCB_Type const *base, cy_stc_scb_ezi2c_context_t *context)
 501:Generated_Source\PSoC6\pdl\drivers\peripheral\scb/cy_scb_ezi2c.c **** {
 1898              		.loc 3 501 0
 1899              		.cfi_startproc
 1900              		@ args = 0, pretend = 0, frame = 16
 1901              		@ frame_needed = 1, uses_anonymous_args = 0
 1902 0000 80B5     		push	{r7, lr}
 1903              		.cfi_def_cfa_offset 8
 1904              		.cfi_offset 7, -8
 1905              		.cfi_offset 14, -4
 1906 0002 84B0     		sub	sp, sp, #16
 1907              		.cfi_def_cfa_offset 24
 1908 0004 00AF     		add	r7, sp, #0
 1909              		.cfi_def_cfa_register 7
 1910 0006 7860     		str	r0, [r7, #4]
 1911 0008 3960     		str	r1, [r7]
 502:Generated_Source\PSoC6\pdl\drivers\peripheral\scb/cy_scb_ezi2c.c ****     uint32_t intrState;
 503:Generated_Source\PSoC6\pdl\drivers\peripheral\scb/cy_scb_ezi2c.c ****     uint32_t retStatus;
 504:Generated_Source\PSoC6\pdl\drivers\peripheral\scb/cy_scb_ezi2c.c **** 
 505:Generated_Source\PSoC6\pdl\drivers\peripheral\scb/cy_scb_ezi2c.c ****     /* Suppress a compiler warning about unused variables */
 506:Generated_Source\PSoC6\pdl\drivers\peripheral\scb/cy_scb_ezi2c.c ****     (void) base;
 507:Generated_Source\PSoC6\pdl\drivers\peripheral\scb/cy_scb_ezi2c.c **** 
 508:Generated_Source\PSoC6\pdl\drivers\peripheral\scb/cy_scb_ezi2c.c ****     intrState = Cy_SysLib_EnterCriticalSection();
 1912              		.loc 3 508 0
 1913 000a FFF7FEFF 		bl	Cy_SysLib_EnterCriticalSection
 1914 000e 0300     		movs	r3, r0
 1915 0010 FB60     		str	r3, [r7, #12]
 509:Generated_Source\PSoC6\pdl\drivers\peripheral\scb/cy_scb_ezi2c.c **** 
 510:Generated_Source\PSoC6\pdl\drivers\peripheral\scb/cy_scb_ezi2c.c ****     retStatus = context->status;
 1916              		.loc 3 510 0
 1917 0012 3B68     		ldr	r3, [r7]
 1918 0014 5B68     		ldr	r3, [r3, #4]
 1919 0016 BB60     		str	r3, [r7, #8]
ARM GAS  C:\Users\salaz\AppData\Local\Temp\ccU0pQaU.s 			page 85


 511:Generated_Source\PSoC6\pdl\drivers\peripheral\scb/cy_scb_ezi2c.c ****     context->status &= CY_SCB_EZI2C_STATUS_BUSY;
 1920              		.loc 3 511 0
 1921 0018 3B68     		ldr	r3, [r7]
 1922 001a 5B68     		ldr	r3, [r3, #4]
 1923 001c 1022     		movs	r2, #16
 1924 001e 1A40     		ands	r2, r3
 1925 0020 3B68     		ldr	r3, [r7]
 1926 0022 5A60     		str	r2, [r3, #4]
 512:Generated_Source\PSoC6\pdl\drivers\peripheral\scb/cy_scb_ezi2c.c **** 
 513:Generated_Source\PSoC6\pdl\drivers\peripheral\scb/cy_scb_ezi2c.c ****     Cy_SysLib_ExitCriticalSection(intrState);
 1927              		.loc 3 513 0
 1928 0024 FB68     		ldr	r3, [r7, #12]
 1929 0026 1800     		movs	r0, r3
 1930 0028 FFF7FEFF 		bl	Cy_SysLib_ExitCriticalSection
 514:Generated_Source\PSoC6\pdl\drivers\peripheral\scb/cy_scb_ezi2c.c **** 
 515:Generated_Source\PSoC6\pdl\drivers\peripheral\scb/cy_scb_ezi2c.c ****     return (retStatus);
 1931              		.loc 3 515 0
 1932 002c BB68     		ldr	r3, [r7, #8]
 516:Generated_Source\PSoC6\pdl\drivers\peripheral\scb/cy_scb_ezi2c.c **** }
 1933              		.loc 3 516 0
 1934 002e 1800     		movs	r0, r3
 1935 0030 BD46     		mov	sp, r7
 1936 0032 04B0     		add	sp, sp, #16
 1937              		@ sp needed
 1938 0034 80BD     		pop	{r7, pc}
 1939              		.cfi_endproc
 1940              	.LFE127:
 1941              		.size	Cy_SCB_EZI2C_GetActivity, .-Cy_SCB_EZI2C_GetActivity
 1942 0036 C046     		.section	.text.Cy_SCB_EZI2C_SetAddress1,"ax",%progbits
 1943              		.align	2
 1944              		.global	Cy_SCB_EZI2C_SetAddress1
 1945              		.code	16
 1946              		.thumb_func
 1947              		.type	Cy_SCB_EZI2C_SetAddress1, %function
 1948              	Cy_SCB_EZI2C_SetAddress1:
 1949              	.LFB128:
 517:Generated_Source\PSoC6\pdl\drivers\peripheral\scb/cy_scb_ezi2c.c **** 
 518:Generated_Source\PSoC6\pdl\drivers\peripheral\scb/cy_scb_ezi2c.c **** 
 519:Generated_Source\PSoC6\pdl\drivers\peripheral\scb/cy_scb_ezi2c.c **** /*******************************************************************************
 520:Generated_Source\PSoC6\pdl\drivers\peripheral\scb/cy_scb_ezi2c.c **** * Function Name: Cy_SCB_EZI2C_SetAddress1
 521:Generated_Source\PSoC6\pdl\drivers\peripheral\scb/cy_scb_ezi2c.c **** ****************************************************************************//**
 522:Generated_Source\PSoC6\pdl\drivers\peripheral\scb/cy_scb_ezi2c.c **** *
 523:Generated_Source\PSoC6\pdl\drivers\peripheral\scb/cy_scb_ezi2c.c **** * Sets the primary EZI2C slave address.
 524:Generated_Source\PSoC6\pdl\drivers\peripheral\scb/cy_scb_ezi2c.c **** *
 525:Generated_Source\PSoC6\pdl\drivers\peripheral\scb/cy_scb_ezi2c.c **** * \param base
 526:Generated_Source\PSoC6\pdl\drivers\peripheral\scb/cy_scb_ezi2c.c **** * The pointer to the EZI2C SCB instance.
 527:Generated_Source\PSoC6\pdl\drivers\peripheral\scb/cy_scb_ezi2c.c **** *
 528:Generated_Source\PSoC6\pdl\drivers\peripheral\scb/cy_scb_ezi2c.c **** * \param addr
 529:Generated_Source\PSoC6\pdl\drivers\peripheral\scb/cy_scb_ezi2c.c **** * The 7-bit right justified slave address.
 530:Generated_Source\PSoC6\pdl\drivers\peripheral\scb/cy_scb_ezi2c.c **** *
 531:Generated_Source\PSoC6\pdl\drivers\peripheral\scb/cy_scb_ezi2c.c **** * \param context
 532:Generated_Source\PSoC6\pdl\drivers\peripheral\scb/cy_scb_ezi2c.c **** * The pointer to the context structure \ref cy_stc_scb_ezi2c_context_t
 533:Generated_Source\PSoC6\pdl\drivers\peripheral\scb/cy_scb_ezi2c.c **** * allocated by the user. The structure is used during the EZI2C operation for
 534:Generated_Source\PSoC6\pdl\drivers\peripheral\scb/cy_scb_ezi2c.c **** * internal configuration and data retention. The user must not modify anything
 535:Generated_Source\PSoC6\pdl\drivers\peripheral\scb/cy_scb_ezi2c.c **** * in this structure.
 536:Generated_Source\PSoC6\pdl\drivers\peripheral\scb/cy_scb_ezi2c.c **** *
 537:Generated_Source\PSoC6\pdl\drivers\peripheral\scb/cy_scb_ezi2c.c **** *******************************************************************************/
ARM GAS  C:\Users\salaz\AppData\Local\Temp\ccU0pQaU.s 			page 86


 538:Generated_Source\PSoC6\pdl\drivers\peripheral\scb/cy_scb_ezi2c.c **** void Cy_SCB_EZI2C_SetAddress1(CySCB_Type *base, uint8_t addr, cy_stc_scb_ezi2c_context_t *context)
 539:Generated_Source\PSoC6\pdl\drivers\peripheral\scb/cy_scb_ezi2c.c **** {
 1950              		.loc 3 539 0
 1951              		.cfi_startproc
 1952              		@ args = 0, pretend = 0, frame = 16
 1953              		@ frame_needed = 1, uses_anonymous_args = 0
 1954 0000 80B5     		push	{r7, lr}
 1955              		.cfi_def_cfa_offset 8
 1956              		.cfi_offset 7, -8
 1957              		.cfi_offset 14, -4
 1958 0002 84B0     		sub	sp, sp, #16
 1959              		.cfi_def_cfa_offset 24
 1960 0004 00AF     		add	r7, sp, #0
 1961              		.cfi_def_cfa_register 7
 1962 0006 F860     		str	r0, [r7, #12]
 1963 0008 7A60     		str	r2, [r7, #4]
 1964 000a 0B23     		movs	r3, #11
 1965 000c FB18     		adds	r3, r7, r3
 1966 000e 0A1C     		adds	r2, r1, #0
 1967 0010 1A70     		strb	r2, [r3]
 540:Generated_Source\PSoC6\pdl\drivers\peripheral\scb/cy_scb_ezi2c.c ****     CY_ASSERT_L2(CY_SCB_IS_I2C_ADDR_VALID(addr));
 1968              		.loc 3 540 0
 1969 0012 0B23     		movs	r3, #11
 1970 0014 FB18     		adds	r3, r7, r3
 1971 0016 1B78     		ldrb	r3, [r3]
 1972 0018 5BB2     		sxtb	r3, r3
 1973 001a 002B     		cmp	r3, #0
 1974 001c 06DA     		bge	.L129
 1975              		.loc 3 540 0 is_stmt 0 discriminator 1
 1976 001e 8723     		movs	r3, #135
 1977 0020 9A00     		lsls	r2, r3, #2
 1978 0022 1A4B     		ldr	r3, .L131
 1979 0024 1100     		movs	r1, r2
 1980 0026 1800     		movs	r0, r3
 1981 0028 FFF7FEFF 		bl	Cy_SysLib_AssertFailed
 1982              	.L129:
 541:Generated_Source\PSoC6\pdl\drivers\peripheral\scb/cy_scb_ezi2c.c ****     CY_ASSERT_L2(addr != context->address2);
 1983              		.loc 3 541 0 is_stmt 1
 1984 002c 7B68     		ldr	r3, [r7, #4]
 1985 002e 5B7A     		ldrb	r3, [r3, #9]
 1986 0030 0B22     		movs	r2, #11
 1987 0032 BA18     		adds	r2, r7, r2
 1988 0034 1278     		ldrb	r2, [r2]
 1989 0036 9A42     		cmp	r2, r3
 1990 0038 05D1     		bne	.L130
 1991              		.loc 3 541 0 is_stmt 0 discriminator 1
 1992 003a 154A     		ldr	r2, .L131+4
 1993 003c 134B     		ldr	r3, .L131
 1994 003e 1100     		movs	r1, r2
 1995 0040 1800     		movs	r0, r3
 1996 0042 FFF7FEFF 		bl	Cy_SysLib_AssertFailed
 1997              	.L130:
 542:Generated_Source\PSoC6\pdl\drivers\peripheral\scb/cy_scb_ezi2c.c **** 
 543:Generated_Source\PSoC6\pdl\drivers\peripheral\scb/cy_scb_ezi2c.c ****     context->address1 = addr;
 1998              		.loc 3 543 0 is_stmt 1
 1999 0046 7B68     		ldr	r3, [r7, #4]
 2000 0048 0B22     		movs	r2, #11
ARM GAS  C:\Users\salaz\AppData\Local\Temp\ccU0pQaU.s 			page 87


 2001 004a BA18     		adds	r2, r7, r2
 2002 004c 1278     		ldrb	r2, [r2]
 2003 004e 1A72     		strb	r2, [r3, #8]
 544:Generated_Source\PSoC6\pdl\drivers\peripheral\scb/cy_scb_ezi2c.c **** 
 545:Generated_Source\PSoC6\pdl\drivers\peripheral\scb/cy_scb_ezi2c.c ****     base->RX_MATCH = _CLR_SET_FLD32U(base->RX_MATCH, SCB_RX_MATCH_ADDR, ((uint32_t)((uint32_t) addr
 2004              		.loc 3 545 0
 2005 0050 FA68     		ldr	r2, [r7, #12]
 2006 0052 C423     		movs	r3, #196
 2007 0054 9B00     		lsls	r3, r3, #2
 2008 0056 D358     		ldr	r3, [r2, r3]
 2009 0058 FF22     		movs	r2, #255
 2010 005a 9343     		bics	r3, r2
 2011 005c 1A00     		movs	r2, r3
 2012 005e 0B23     		movs	r3, #11
 2013 0060 FB18     		adds	r3, r7, r3
 2014 0062 1B78     		ldrb	r3, [r3]
 2015 0064 5B00     		lsls	r3, r3, #1
 2016 0066 FF21     		movs	r1, #255
 2017 0068 0B40     		ands	r3, r1
 2018 006a 1A43     		orrs	r2, r3
 2019 006c 1100     		movs	r1, r2
 2020 006e FA68     		ldr	r2, [r7, #12]
 2021 0070 C423     		movs	r3, #196
 2022 0072 9B00     		lsls	r3, r3, #2
 2023 0074 D150     		str	r1, [r2, r3]
 546:Generated_Source\PSoC6\pdl\drivers\peripheral\scb/cy_scb_ezi2c.c **** 
 547:Generated_Source\PSoC6\pdl\drivers\peripheral\scb/cy_scb_ezi2c.c ****     UpdateAddressMask(base, context);
 2024              		.loc 3 547 0
 2025 0076 7A68     		ldr	r2, [r7, #4]
 2026 0078 FB68     		ldr	r3, [r7, #12]
 2027 007a 1100     		movs	r1, r2
 2028 007c 1800     		movs	r0, r3
 2029 007e FFF7FEFF 		bl	UpdateAddressMask
 548:Generated_Source\PSoC6\pdl\drivers\peripheral\scb/cy_scb_ezi2c.c **** }
 2030              		.loc 3 548 0
 2031 0082 C046     		nop
 2032 0084 BD46     		mov	sp, r7
 2033 0086 04B0     		add	sp, sp, #16
 2034              		@ sp needed
 2035 0088 80BD     		pop	{r7, pc}
 2036              	.L132:
 2037 008a C046     		.align	2
 2038              	.L131:
 2039 008c 44000000 		.word	.LC11
 2040 0090 1D020000 		.word	541
 2041              		.cfi_endproc
 2042              	.LFE128:
 2043              		.size	Cy_SCB_EZI2C_SetAddress1, .-Cy_SCB_EZI2C_SetAddress1
 2044              		.section	.text.Cy_SCB_EZI2C_GetAddress1,"ax",%progbits
 2045              		.align	2
 2046              		.global	Cy_SCB_EZI2C_GetAddress1
 2047              		.code	16
 2048              		.thumb_func
 2049              		.type	Cy_SCB_EZI2C_GetAddress1, %function
 2050              	Cy_SCB_EZI2C_GetAddress1:
 2051              	.LFB129:
 549:Generated_Source\PSoC6\pdl\drivers\peripheral\scb/cy_scb_ezi2c.c **** 
ARM GAS  C:\Users\salaz\AppData\Local\Temp\ccU0pQaU.s 			page 88


 550:Generated_Source\PSoC6\pdl\drivers\peripheral\scb/cy_scb_ezi2c.c **** 
 551:Generated_Source\PSoC6\pdl\drivers\peripheral\scb/cy_scb_ezi2c.c **** /*******************************************************************************
 552:Generated_Source\PSoC6\pdl\drivers\peripheral\scb/cy_scb_ezi2c.c **** * Function Name: Cy_SCB_EZI2C_GetAddress1
 553:Generated_Source\PSoC6\pdl\drivers\peripheral\scb/cy_scb_ezi2c.c **** ****************************************************************************//**
 554:Generated_Source\PSoC6\pdl\drivers\peripheral\scb/cy_scb_ezi2c.c **** *
 555:Generated_Source\PSoC6\pdl\drivers\peripheral\scb/cy_scb_ezi2c.c **** * Returns the primary the EZI2C slave address.
 556:Generated_Source\PSoC6\pdl\drivers\peripheral\scb/cy_scb_ezi2c.c **** *
 557:Generated_Source\PSoC6\pdl\drivers\peripheral\scb/cy_scb_ezi2c.c **** * \param base
 558:Generated_Source\PSoC6\pdl\drivers\peripheral\scb/cy_scb_ezi2c.c **** * The pointer to the EZI2C SCB instance.
 559:Generated_Source\PSoC6\pdl\drivers\peripheral\scb/cy_scb_ezi2c.c **** *
 560:Generated_Source\PSoC6\pdl\drivers\peripheral\scb/cy_scb_ezi2c.c **** * * \param context
 561:Generated_Source\PSoC6\pdl\drivers\peripheral\scb/cy_scb_ezi2c.c **** * The pointer to the context structure \ref cy_stc_scb_ezi2c_context_t
 562:Generated_Source\PSoC6\pdl\drivers\peripheral\scb/cy_scb_ezi2c.c **** * allocated by the user. The structure is used during the EZI2C operation for
 563:Generated_Source\PSoC6\pdl\drivers\peripheral\scb/cy_scb_ezi2c.c **** * internal configuration and data retention. The user must not modify anything
 564:Generated_Source\PSoC6\pdl\drivers\peripheral\scb/cy_scb_ezi2c.c **** * in this structure.
 565:Generated_Source\PSoC6\pdl\drivers\peripheral\scb/cy_scb_ezi2c.c **** *
 566:Generated_Source\PSoC6\pdl\drivers\peripheral\scb/cy_scb_ezi2c.c **** * \return
 567:Generated_Source\PSoC6\pdl\drivers\peripheral\scb/cy_scb_ezi2c.c **** * The 7-bit right justified slave address.
 568:Generated_Source\PSoC6\pdl\drivers\peripheral\scb/cy_scb_ezi2c.c **** *
 569:Generated_Source\PSoC6\pdl\drivers\peripheral\scb/cy_scb_ezi2c.c **** *******************************************************************************/
 570:Generated_Source\PSoC6\pdl\drivers\peripheral\scb/cy_scb_ezi2c.c **** uint32_t Cy_SCB_EZI2C_GetAddress1(CySCB_Type const *base, cy_stc_scb_ezi2c_context_t const *context
 571:Generated_Source\PSoC6\pdl\drivers\peripheral\scb/cy_scb_ezi2c.c **** {
 2052              		.loc 3 571 0
 2053              		.cfi_startproc
 2054              		@ args = 0, pretend = 0, frame = 8
 2055              		@ frame_needed = 1, uses_anonymous_args = 0
 2056 0000 80B5     		push	{r7, lr}
 2057              		.cfi_def_cfa_offset 8
 2058              		.cfi_offset 7, -8
 2059              		.cfi_offset 14, -4
 2060 0002 82B0     		sub	sp, sp, #8
 2061              		.cfi_def_cfa_offset 16
 2062 0004 00AF     		add	r7, sp, #0
 2063              		.cfi_def_cfa_register 7
 2064 0006 7860     		str	r0, [r7, #4]
 2065 0008 3960     		str	r1, [r7]
 572:Generated_Source\PSoC6\pdl\drivers\peripheral\scb/cy_scb_ezi2c.c ****     /* Suppress a compiler warning about unused variables */
 573:Generated_Source\PSoC6\pdl\drivers\peripheral\scb/cy_scb_ezi2c.c ****     (void) base;
 574:Generated_Source\PSoC6\pdl\drivers\peripheral\scb/cy_scb_ezi2c.c **** 
 575:Generated_Source\PSoC6\pdl\drivers\peripheral\scb/cy_scb_ezi2c.c ****     return ((uint32_t) context->address1);
 2066              		.loc 3 575 0
 2067 000a 3B68     		ldr	r3, [r7]
 2068 000c 1B7A     		ldrb	r3, [r3, #8]
 576:Generated_Source\PSoC6\pdl\drivers\peripheral\scb/cy_scb_ezi2c.c **** }
 2069              		.loc 3 576 0
 2070 000e 1800     		movs	r0, r3
 2071 0010 BD46     		mov	sp, r7
 2072 0012 02B0     		add	sp, sp, #8
 2073              		@ sp needed
 2074 0014 80BD     		pop	{r7, pc}
 2075              		.cfi_endproc
 2076              	.LFE129:
 2077              		.size	Cy_SCB_EZI2C_GetAddress1, .-Cy_SCB_EZI2C_GetAddress1
 2078 0016 C046     		.section	.text.Cy_SCB_EZI2C_SetBuffer1,"ax",%progbits
 2079              		.align	2
 2080              		.global	Cy_SCB_EZI2C_SetBuffer1
 2081              		.code	16
ARM GAS  C:\Users\salaz\AppData\Local\Temp\ccU0pQaU.s 			page 89


 2082              		.thumb_func
 2083              		.type	Cy_SCB_EZI2C_SetBuffer1, %function
 2084              	Cy_SCB_EZI2C_SetBuffer1:
 2085              	.LFB130:
 577:Generated_Source\PSoC6\pdl\drivers\peripheral\scb/cy_scb_ezi2c.c **** 
 578:Generated_Source\PSoC6\pdl\drivers\peripheral\scb/cy_scb_ezi2c.c **** 
 579:Generated_Source\PSoC6\pdl\drivers\peripheral\scb/cy_scb_ezi2c.c **** /*******************************************************************************
 580:Generated_Source\PSoC6\pdl\drivers\peripheral\scb/cy_scb_ezi2c.c **** * Function Name: Cy_SCB_EZI2C_SetBuffer1
 581:Generated_Source\PSoC6\pdl\drivers\peripheral\scb/cy_scb_ezi2c.c **** ****************************************************************************//**
 582:Generated_Source\PSoC6\pdl\drivers\peripheral\scb/cy_scb_ezi2c.c **** *
 583:Generated_Source\PSoC6\pdl\drivers\peripheral\scb/cy_scb_ezi2c.c **** * Sets up the data buffer to be exposed to the I2C master on the primary slave
 584:Generated_Source\PSoC6\pdl\drivers\peripheral\scb/cy_scb_ezi2c.c **** * address request.
 585:Generated_Source\PSoC6\pdl\drivers\peripheral\scb/cy_scb_ezi2c.c **** *
 586:Generated_Source\PSoC6\pdl\drivers\peripheral\scb/cy_scb_ezi2c.c **** * \param base
 587:Generated_Source\PSoC6\pdl\drivers\peripheral\scb/cy_scb_ezi2c.c **** * The pointer to the EZI2C SCB instance.
 588:Generated_Source\PSoC6\pdl\drivers\peripheral\scb/cy_scb_ezi2c.c **** *
 589:Generated_Source\PSoC6\pdl\drivers\peripheral\scb/cy_scb_ezi2c.c **** * \param buffer
 590:Generated_Source\PSoC6\pdl\drivers\peripheral\scb/cy_scb_ezi2c.c **** * The pointer to the data buffer.
 591:Generated_Source\PSoC6\pdl\drivers\peripheral\scb/cy_scb_ezi2c.c **** *
 592:Generated_Source\PSoC6\pdl\drivers\peripheral\scb/cy_scb_ezi2c.c **** * \param size
 593:Generated_Source\PSoC6\pdl\drivers\peripheral\scb/cy_scb_ezi2c.c **** * The size of the buffer in bytes.
 594:Generated_Source\PSoC6\pdl\drivers\peripheral\scb/cy_scb_ezi2c.c **** *
 595:Generated_Source\PSoC6\pdl\drivers\peripheral\scb/cy_scb_ezi2c.c **** * \param rwBoundary
 596:Generated_Source\PSoC6\pdl\drivers\peripheral\scb/cy_scb_ezi2c.c **** * The number of data bytes starting from the beginning of the buffer with Read and
 597:Generated_Source\PSoC6\pdl\drivers\peripheral\scb/cy_scb_ezi2c.c **** * Write access. The data bytes located at rwBoundary or greater are read only.
 598:Generated_Source\PSoC6\pdl\drivers\peripheral\scb/cy_scb_ezi2c.c **** *
 599:Generated_Source\PSoC6\pdl\drivers\peripheral\scb/cy_scb_ezi2c.c **** * \param context
 600:Generated_Source\PSoC6\pdl\drivers\peripheral\scb/cy_scb_ezi2c.c **** * The pointer to the context structure \ref cy_stc_scb_ezi2c_context_t
 601:Generated_Source\PSoC6\pdl\drivers\peripheral\scb/cy_scb_ezi2c.c **** * allocated by the user. The structure is used during the EZI2C operation for
 602:Generated_Source\PSoC6\pdl\drivers\peripheral\scb/cy_scb_ezi2c.c **** * internal configuration and data retention. The user must not modify anything
 603:Generated_Source\PSoC6\pdl\drivers\peripheral\scb/cy_scb_ezi2c.c **** * in this structure.
 604:Generated_Source\PSoC6\pdl\drivers\peripheral\scb/cy_scb_ezi2c.c **** *
 605:Generated_Source\PSoC6\pdl\drivers\peripheral\scb/cy_scb_ezi2c.c **** * \note
 606:Generated_Source\PSoC6\pdl\drivers\peripheral\scb/cy_scb_ezi2c.c **** * * This function is not interrupt-protected and to prevent a race condition,
 607:Generated_Source\PSoC6\pdl\drivers\peripheral\scb/cy_scb_ezi2c.c **** *   it must be protected from the EZI2C interruption in the place where it
 608:Generated_Source\PSoC6\pdl\drivers\peripheral\scb/cy_scb_ezi2c.c **** *   is called.
 609:Generated_Source\PSoC6\pdl\drivers\peripheral\scb/cy_scb_ezi2c.c **** * * Calling this function in the middle of a transaction intended for the
 610:Generated_Source\PSoC6\pdl\drivers\peripheral\scb/cy_scb_ezi2c.c **** *   secondary slave address leads to unexpected behavior.
 611:Generated_Source\PSoC6\pdl\drivers\peripheral\scb/cy_scb_ezi2c.c **** *
 612:Generated_Source\PSoC6\pdl\drivers\peripheral\scb/cy_scb_ezi2c.c **** *******************************************************************************/
 613:Generated_Source\PSoC6\pdl\drivers\peripheral\scb/cy_scb_ezi2c.c **** void Cy_SCB_EZI2C_SetBuffer1(CySCB_Type const *base, uint8_t *buffer, uint32_t size, uint32_t rwBou
 614:Generated_Source\PSoC6\pdl\drivers\peripheral\scb/cy_scb_ezi2c.c ****                              cy_stc_scb_ezi2c_context_t *context)
 615:Generated_Source\PSoC6\pdl\drivers\peripheral\scb/cy_scb_ezi2c.c **** {
 2086              		.loc 3 615 0
 2087              		.cfi_startproc
 2088              		@ args = 4, pretend = 0, frame = 16
 2089              		@ frame_needed = 1, uses_anonymous_args = 0
 2090 0000 80B5     		push	{r7, lr}
 2091              		.cfi_def_cfa_offset 8
 2092              		.cfi_offset 7, -8
 2093              		.cfi_offset 14, -4
 2094 0002 84B0     		sub	sp, sp, #16
 2095              		.cfi_def_cfa_offset 24
 2096 0004 00AF     		add	r7, sp, #0
 2097              		.cfi_def_cfa_register 7
 2098 0006 F860     		str	r0, [r7, #12]
 2099 0008 B960     		str	r1, [r7, #8]
ARM GAS  C:\Users\salaz\AppData\Local\Temp\ccU0pQaU.s 			page 90


 2100 000a 7A60     		str	r2, [r7, #4]
 2101 000c 3B60     		str	r3, [r7]
 616:Generated_Source\PSoC6\pdl\drivers\peripheral\scb/cy_scb_ezi2c.c ****     CY_ASSERT_L1(CY_SCB_IS_I2C_BUFFER_VALID(buffer, size));
 2102              		.loc 3 616 0
 2103 000e 7B68     		ldr	r3, [r7, #4]
 2104 0010 002B     		cmp	r3, #0
 2105 0012 09D0     		beq	.L136
 2106              		.loc 3 616 0 is_stmt 0 discriminator 1
 2107 0014 BB68     		ldr	r3, [r7, #8]
 2108 0016 002B     		cmp	r3, #0
 2109 0018 06D1     		bne	.L136
 2110              		.loc 3 616 0 discriminator 2
 2111 001a 9A23     		movs	r3, #154
 2112 001c 9A00     		lsls	r2, r3, #2
 2113 001e 0E4B     		ldr	r3, .L138
 2114 0020 1100     		movs	r1, r2
 2115 0022 1800     		movs	r0, r3
 2116 0024 FFF7FEFF 		bl	Cy_SysLib_AssertFailed
 2117              	.L136:
 617:Generated_Source\PSoC6\pdl\drivers\peripheral\scb/cy_scb_ezi2c.c ****     CY_ASSERT_L2(rwBoundary <= size);
 2118              		.loc 3 617 0 is_stmt 1
 2119 0028 3A68     		ldr	r2, [r7]
 2120 002a 7B68     		ldr	r3, [r7, #4]
 2121 002c 9A42     		cmp	r2, r3
 2122 002e 05D9     		bls	.L137
 2123              		.loc 3 617 0 is_stmt 0 discriminator 1
 2124 0030 0A4A     		ldr	r2, .L138+4
 2125 0032 094B     		ldr	r3, .L138
 2126 0034 1100     		movs	r1, r2
 2127 0036 1800     		movs	r0, r3
 2128 0038 FFF7FEFF 		bl	Cy_SysLib_AssertFailed
 2129              	.L137:
 618:Generated_Source\PSoC6\pdl\drivers\peripheral\scb/cy_scb_ezi2c.c **** 
 619:Generated_Source\PSoC6\pdl\drivers\peripheral\scb/cy_scb_ezi2c.c ****     /* Suppress a compiler warning about unused variables */
 620:Generated_Source\PSoC6\pdl\drivers\peripheral\scb/cy_scb_ezi2c.c ****     (void) base;
 621:Generated_Source\PSoC6\pdl\drivers\peripheral\scb/cy_scb_ezi2c.c **** 
 622:Generated_Source\PSoC6\pdl\drivers\peripheral\scb/cy_scb_ezi2c.c ****     context->buf1          = buffer;
 2130              		.loc 3 622 0 is_stmt 1
 2131 003c BB69     		ldr	r3, [r7, #24]
 2132 003e BA68     		ldr	r2, [r7, #8]
 2133 0040 5A62     		str	r2, [r3, #36]
 623:Generated_Source\PSoC6\pdl\drivers\peripheral\scb/cy_scb_ezi2c.c ****     context->buf1Size      = size;
 2134              		.loc 3 623 0
 2135 0042 BB69     		ldr	r3, [r7, #24]
 2136 0044 7A68     		ldr	r2, [r7, #4]
 2137 0046 9A62     		str	r2, [r3, #40]
 624:Generated_Source\PSoC6\pdl\drivers\peripheral\scb/cy_scb_ezi2c.c ****     context->buf1rwBondary = rwBoundary;
 2138              		.loc 3 624 0
 2139 0048 BB69     		ldr	r3, [r7, #24]
 2140 004a 3A68     		ldr	r2, [r7]
 2141 004c DA62     		str	r2, [r3, #44]
 625:Generated_Source\PSoC6\pdl\drivers\peripheral\scb/cy_scb_ezi2c.c **** }
 2142              		.loc 3 625 0
 2143 004e C046     		nop
 2144 0050 BD46     		mov	sp, r7
 2145 0052 04B0     		add	sp, sp, #16
 2146              		@ sp needed
ARM GAS  C:\Users\salaz\AppData\Local\Temp\ccU0pQaU.s 			page 91


 2147 0054 80BD     		pop	{r7, pc}
 2148              	.L139:
 2149 0056 C046     		.align	2
 2150              	.L138:
 2151 0058 44000000 		.word	.LC11
 2152 005c 69020000 		.word	617
 2153              		.cfi_endproc
 2154              	.LFE130:
 2155              		.size	Cy_SCB_EZI2C_SetBuffer1, .-Cy_SCB_EZI2C_SetBuffer1
 2156              		.section	.text.Cy_SCB_EZI2C_SetAddress2,"ax",%progbits
 2157              		.align	2
 2158              		.global	Cy_SCB_EZI2C_SetAddress2
 2159              		.code	16
 2160              		.thumb_func
 2161              		.type	Cy_SCB_EZI2C_SetAddress2, %function
 2162              	Cy_SCB_EZI2C_SetAddress2:
 2163              	.LFB131:
 626:Generated_Source\PSoC6\pdl\drivers\peripheral\scb/cy_scb_ezi2c.c **** 
 627:Generated_Source\PSoC6\pdl\drivers\peripheral\scb/cy_scb_ezi2c.c **** 
 628:Generated_Source\PSoC6\pdl\drivers\peripheral\scb/cy_scb_ezi2c.c **** /*******************************************************************************
 629:Generated_Source\PSoC6\pdl\drivers\peripheral\scb/cy_scb_ezi2c.c **** * Function Name: Cy_SCB_EZI2C_SetAddress2
 630:Generated_Source\PSoC6\pdl\drivers\peripheral\scb/cy_scb_ezi2c.c **** ****************************************************************************//**
 631:Generated_Source\PSoC6\pdl\drivers\peripheral\scb/cy_scb_ezi2c.c **** *
 632:Generated_Source\PSoC6\pdl\drivers\peripheral\scb/cy_scb_ezi2c.c **** * Sets the secondary EZI2C slave address.
 633:Generated_Source\PSoC6\pdl\drivers\peripheral\scb/cy_scb_ezi2c.c **** *
 634:Generated_Source\PSoC6\pdl\drivers\peripheral\scb/cy_scb_ezi2c.c **** * \param base
 635:Generated_Source\PSoC6\pdl\drivers\peripheral\scb/cy_scb_ezi2c.c **** * The pointer to the EZI2C SCB instance.
 636:Generated_Source\PSoC6\pdl\drivers\peripheral\scb/cy_scb_ezi2c.c **** *
 637:Generated_Source\PSoC6\pdl\drivers\peripheral\scb/cy_scb_ezi2c.c **** * \param addr
 638:Generated_Source\PSoC6\pdl\drivers\peripheral\scb/cy_scb_ezi2c.c **** * The 7-bit right justified slave address.
 639:Generated_Source\PSoC6\pdl\drivers\peripheral\scb/cy_scb_ezi2c.c **** *
 640:Generated_Source\PSoC6\pdl\drivers\peripheral\scb/cy_scb_ezi2c.c **** * \param context
 641:Generated_Source\PSoC6\pdl\drivers\peripheral\scb/cy_scb_ezi2c.c **** * The pointer to the context structure \ref cy_stc_scb_ezi2c_context_t
 642:Generated_Source\PSoC6\pdl\drivers\peripheral\scb/cy_scb_ezi2c.c **** * allocated by the user. The structure is used during the EZI2C operation for
 643:Generated_Source\PSoC6\pdl\drivers\peripheral\scb/cy_scb_ezi2c.c **** * internal configuration and data retention. The user must not modify anything
 644:Generated_Source\PSoC6\pdl\drivers\peripheral\scb/cy_scb_ezi2c.c **** * in this structure.
 645:Generated_Source\PSoC6\pdl\drivers\peripheral\scb/cy_scb_ezi2c.c **** *
 646:Generated_Source\PSoC6\pdl\drivers\peripheral\scb/cy_scb_ezi2c.c **** * \note
 647:Generated_Source\PSoC6\pdl\drivers\peripheral\scb/cy_scb_ezi2c.c **** * Calling this function when the EZI2C slave is configured for one-address
 648:Generated_Source\PSoC6\pdl\drivers\peripheral\scb/cy_scb_ezi2c.c **** * operation leads to unexpected behavior because it updates the address mask.
 649:Generated_Source\PSoC6\pdl\drivers\peripheral\scb/cy_scb_ezi2c.c **** *
 650:Generated_Source\PSoC6\pdl\drivers\peripheral\scb/cy_scb_ezi2c.c **** *******************************************************************************/
 651:Generated_Source\PSoC6\pdl\drivers\peripheral\scb/cy_scb_ezi2c.c **** void Cy_SCB_EZI2C_SetAddress2(CySCB_Type *base, uint8_t addr, cy_stc_scb_ezi2c_context_t *context)
 652:Generated_Source\PSoC6\pdl\drivers\peripheral\scb/cy_scb_ezi2c.c **** {
 2164              		.loc 3 652 0
 2165              		.cfi_startproc
 2166              		@ args = 0, pretend = 0, frame = 16
 2167              		@ frame_needed = 1, uses_anonymous_args = 0
 2168 0000 80B5     		push	{r7, lr}
 2169              		.cfi_def_cfa_offset 8
 2170              		.cfi_offset 7, -8
 2171              		.cfi_offset 14, -4
 2172 0002 84B0     		sub	sp, sp, #16
 2173              		.cfi_def_cfa_offset 24
 2174 0004 00AF     		add	r7, sp, #0
 2175              		.cfi_def_cfa_register 7
 2176 0006 F860     		str	r0, [r7, #12]
ARM GAS  C:\Users\salaz\AppData\Local\Temp\ccU0pQaU.s 			page 92


 2177 0008 7A60     		str	r2, [r7, #4]
 2178 000a 0B23     		movs	r3, #11
 2179 000c FB18     		adds	r3, r7, r3
 2180 000e 0A1C     		adds	r2, r1, #0
 2181 0010 1A70     		strb	r2, [r3]
 653:Generated_Source\PSoC6\pdl\drivers\peripheral\scb/cy_scb_ezi2c.c ****     CY_ASSERT_L2(CY_SCB_IS_I2C_ADDR_VALID(addr));
 2182              		.loc 3 653 0
 2183 0012 0B23     		movs	r3, #11
 2184 0014 FB18     		adds	r3, r7, r3
 2185 0016 1B78     		ldrb	r3, [r3]
 2186 0018 5BB2     		sxtb	r3, r3
 2187 001a 002B     		cmp	r3, #0
 2188 001c 05DA     		bge	.L141
 2189              		.loc 3 653 0 is_stmt 0 discriminator 1
 2190 001e 114A     		ldr	r2, .L143
 2191 0020 114B     		ldr	r3, .L143+4
 2192 0022 1100     		movs	r1, r2
 2193 0024 1800     		movs	r0, r3
 2194 0026 FFF7FEFF 		bl	Cy_SysLib_AssertFailed
 2195              	.L141:
 654:Generated_Source\PSoC6\pdl\drivers\peripheral\scb/cy_scb_ezi2c.c ****     CY_ASSERT_L2(addr != context->address1);
 2196              		.loc 3 654 0 is_stmt 1
 2197 002a 7B68     		ldr	r3, [r7, #4]
 2198 002c 1B7A     		ldrb	r3, [r3, #8]
 2199 002e 0B22     		movs	r2, #11
 2200 0030 BA18     		adds	r2, r7, r2
 2201 0032 1278     		ldrb	r2, [r2]
 2202 0034 9A42     		cmp	r2, r3
 2203 0036 05D1     		bne	.L142
 2204              		.loc 3 654 0 is_stmt 0 discriminator 1
 2205 0038 0C4A     		ldr	r2, .L143+8
 2206 003a 0B4B     		ldr	r3, .L143+4
 2207 003c 1100     		movs	r1, r2
 2208 003e 1800     		movs	r0, r3
 2209 0040 FFF7FEFF 		bl	Cy_SysLib_AssertFailed
 2210              	.L142:
 655:Generated_Source\PSoC6\pdl\drivers\peripheral\scb/cy_scb_ezi2c.c **** 
 656:Generated_Source\PSoC6\pdl\drivers\peripheral\scb/cy_scb_ezi2c.c ****     context->address2 = addr;
 2211              		.loc 3 656 0 is_stmt 1
 2212 0044 7B68     		ldr	r3, [r7, #4]
 2213 0046 0B22     		movs	r2, #11
 2214 0048 BA18     		adds	r2, r7, r2
 2215 004a 1278     		ldrb	r2, [r2]
 2216 004c 5A72     		strb	r2, [r3, #9]
 657:Generated_Source\PSoC6\pdl\drivers\peripheral\scb/cy_scb_ezi2c.c **** 
 658:Generated_Source\PSoC6\pdl\drivers\peripheral\scb/cy_scb_ezi2c.c ****     UpdateAddressMask(base, context);
 2217              		.loc 3 658 0
 2218 004e 7A68     		ldr	r2, [r7, #4]
 2219 0050 FB68     		ldr	r3, [r7, #12]
 2220 0052 1100     		movs	r1, r2
 2221 0054 1800     		movs	r0, r3
 2222 0056 FFF7FEFF 		bl	UpdateAddressMask
 659:Generated_Source\PSoC6\pdl\drivers\peripheral\scb/cy_scb_ezi2c.c **** }
 2223              		.loc 3 659 0
 2224 005a C046     		nop
 2225 005c BD46     		mov	sp, r7
 2226 005e 04B0     		add	sp, sp, #16
ARM GAS  C:\Users\salaz\AppData\Local\Temp\ccU0pQaU.s 			page 93


 2227              		@ sp needed
 2228 0060 80BD     		pop	{r7, pc}
 2229              	.L144:
 2230 0062 C046     		.align	2
 2231              	.L143:
 2232 0064 8D020000 		.word	653
 2233 0068 44000000 		.word	.LC11
 2234 006c 8E020000 		.word	654
 2235              		.cfi_endproc
 2236              	.LFE131:
 2237              		.size	Cy_SCB_EZI2C_SetAddress2, .-Cy_SCB_EZI2C_SetAddress2
 2238              		.section	.text.Cy_SCB_EZI2C_GetAddress2,"ax",%progbits
 2239              		.align	2
 2240              		.global	Cy_SCB_EZI2C_GetAddress2
 2241              		.code	16
 2242              		.thumb_func
 2243              		.type	Cy_SCB_EZI2C_GetAddress2, %function
 2244              	Cy_SCB_EZI2C_GetAddress2:
 2245              	.LFB132:
 660:Generated_Source\PSoC6\pdl\drivers\peripheral\scb/cy_scb_ezi2c.c **** 
 661:Generated_Source\PSoC6\pdl\drivers\peripheral\scb/cy_scb_ezi2c.c **** 
 662:Generated_Source\PSoC6\pdl\drivers\peripheral\scb/cy_scb_ezi2c.c **** /*******************************************************************************
 663:Generated_Source\PSoC6\pdl\drivers\peripheral\scb/cy_scb_ezi2c.c **** * Function Name: Cy_SCB_EZI2C_GetAddress2
 664:Generated_Source\PSoC6\pdl\drivers\peripheral\scb/cy_scb_ezi2c.c **** ****************************************************************************//**
 665:Generated_Source\PSoC6\pdl\drivers\peripheral\scb/cy_scb_ezi2c.c **** *
 666:Generated_Source\PSoC6\pdl\drivers\peripheral\scb/cy_scb_ezi2c.c **** * Returns the secondary EZI2C slave address.
 667:Generated_Source\PSoC6\pdl\drivers\peripheral\scb/cy_scb_ezi2c.c **** *
 668:Generated_Source\PSoC6\pdl\drivers\peripheral\scb/cy_scb_ezi2c.c **** * \param base
 669:Generated_Source\PSoC6\pdl\drivers\peripheral\scb/cy_scb_ezi2c.c **** * The pointer to the EZI2C SCB instance.
 670:Generated_Source\PSoC6\pdl\drivers\peripheral\scb/cy_scb_ezi2c.c **** *
 671:Generated_Source\PSoC6\pdl\drivers\peripheral\scb/cy_scb_ezi2c.c **** * \param context
 672:Generated_Source\PSoC6\pdl\drivers\peripheral\scb/cy_scb_ezi2c.c **** * The pointer to the context structure \ref cy_stc_scb_ezi2c_context_t
 673:Generated_Source\PSoC6\pdl\drivers\peripheral\scb/cy_scb_ezi2c.c **** * allocated by the user. The structure is used during the EZI2C operation for
 674:Generated_Source\PSoC6\pdl\drivers\peripheral\scb/cy_scb_ezi2c.c **** * internal configuration and data retention. The user must not modify anything
 675:Generated_Source\PSoC6\pdl\drivers\peripheral\scb/cy_scb_ezi2c.c **** * in this structure.
 676:Generated_Source\PSoC6\pdl\drivers\peripheral\scb/cy_scb_ezi2c.c **** *
 677:Generated_Source\PSoC6\pdl\drivers\peripheral\scb/cy_scb_ezi2c.c **** * \return
 678:Generated_Source\PSoC6\pdl\drivers\peripheral\scb/cy_scb_ezi2c.c **** * The 7-bit right justified slave address.
 679:Generated_Source\PSoC6\pdl\drivers\peripheral\scb/cy_scb_ezi2c.c **** *
 680:Generated_Source\PSoC6\pdl\drivers\peripheral\scb/cy_scb_ezi2c.c **** *******************************************************************************/
 681:Generated_Source\PSoC6\pdl\drivers\peripheral\scb/cy_scb_ezi2c.c **** uint32_t Cy_SCB_EZI2C_GetAddress2(CySCB_Type const *base, cy_stc_scb_ezi2c_context_t const *context
 682:Generated_Source\PSoC6\pdl\drivers\peripheral\scb/cy_scb_ezi2c.c **** {
 2246              		.loc 3 682 0
 2247              		.cfi_startproc
 2248              		@ args = 0, pretend = 0, frame = 8
 2249              		@ frame_needed = 1, uses_anonymous_args = 0
 2250 0000 80B5     		push	{r7, lr}
 2251              		.cfi_def_cfa_offset 8
 2252              		.cfi_offset 7, -8
 2253              		.cfi_offset 14, -4
 2254 0002 82B0     		sub	sp, sp, #8
 2255              		.cfi_def_cfa_offset 16
 2256 0004 00AF     		add	r7, sp, #0
 2257              		.cfi_def_cfa_register 7
 2258 0006 7860     		str	r0, [r7, #4]
 2259 0008 3960     		str	r1, [r7]
 683:Generated_Source\PSoC6\pdl\drivers\peripheral\scb/cy_scb_ezi2c.c ****     /* Suppress a compiler warning about unused variables */
ARM GAS  C:\Users\salaz\AppData\Local\Temp\ccU0pQaU.s 			page 94


 684:Generated_Source\PSoC6\pdl\drivers\peripheral\scb/cy_scb_ezi2c.c ****     (void) base;
 685:Generated_Source\PSoC6\pdl\drivers\peripheral\scb/cy_scb_ezi2c.c **** 
 686:Generated_Source\PSoC6\pdl\drivers\peripheral\scb/cy_scb_ezi2c.c ****     return ((uint32_t) context->address2);
 2260              		.loc 3 686 0
 2261 000a 3B68     		ldr	r3, [r7]
 2262 000c 5B7A     		ldrb	r3, [r3, #9]
 687:Generated_Source\PSoC6\pdl\drivers\peripheral\scb/cy_scb_ezi2c.c **** }
 2263              		.loc 3 687 0
 2264 000e 1800     		movs	r0, r3
 2265 0010 BD46     		mov	sp, r7
 2266 0012 02B0     		add	sp, sp, #8
 2267              		@ sp needed
 2268 0014 80BD     		pop	{r7, pc}
 2269              		.cfi_endproc
 2270              	.LFE132:
 2271              		.size	Cy_SCB_EZI2C_GetAddress2, .-Cy_SCB_EZI2C_GetAddress2
 2272 0016 C046     		.section	.text.Cy_SCB_EZI2C_SetBuffer2,"ax",%progbits
 2273              		.align	2
 2274              		.global	Cy_SCB_EZI2C_SetBuffer2
 2275              		.code	16
 2276              		.thumb_func
 2277              		.type	Cy_SCB_EZI2C_SetBuffer2, %function
 2278              	Cy_SCB_EZI2C_SetBuffer2:
 2279              	.LFB133:
 688:Generated_Source\PSoC6\pdl\drivers\peripheral\scb/cy_scb_ezi2c.c **** 
 689:Generated_Source\PSoC6\pdl\drivers\peripheral\scb/cy_scb_ezi2c.c **** 
 690:Generated_Source\PSoC6\pdl\drivers\peripheral\scb/cy_scb_ezi2c.c **** /*******************************************************************************
 691:Generated_Source\PSoC6\pdl\drivers\peripheral\scb/cy_scb_ezi2c.c **** * Function Name: Cy_SCB_EZI2C_SetBuffer2
 692:Generated_Source\PSoC6\pdl\drivers\peripheral\scb/cy_scb_ezi2c.c **** ****************************************************************************//**
 693:Generated_Source\PSoC6\pdl\drivers\peripheral\scb/cy_scb_ezi2c.c **** *
 694:Generated_Source\PSoC6\pdl\drivers\peripheral\scb/cy_scb_ezi2c.c **** * Sets up the data buffer to be exposed to the I2C master on the secondary
 695:Generated_Source\PSoC6\pdl\drivers\peripheral\scb/cy_scb_ezi2c.c **** * slave address request.
 696:Generated_Source\PSoC6\pdl\drivers\peripheral\scb/cy_scb_ezi2c.c **** *
 697:Generated_Source\PSoC6\pdl\drivers\peripheral\scb/cy_scb_ezi2c.c **** * \param base
 698:Generated_Source\PSoC6\pdl\drivers\peripheral\scb/cy_scb_ezi2c.c **** * The pointer to the EZI2C SCB instance.
 699:Generated_Source\PSoC6\pdl\drivers\peripheral\scb/cy_scb_ezi2c.c **** *
 700:Generated_Source\PSoC6\pdl\drivers\peripheral\scb/cy_scb_ezi2c.c **** * \param buffer
 701:Generated_Source\PSoC6\pdl\drivers\peripheral\scb/cy_scb_ezi2c.c **** * The pointer to the data buffer.
 702:Generated_Source\PSoC6\pdl\drivers\peripheral\scb/cy_scb_ezi2c.c **** *
 703:Generated_Source\PSoC6\pdl\drivers\peripheral\scb/cy_scb_ezi2c.c **** * \param size
 704:Generated_Source\PSoC6\pdl\drivers\peripheral\scb/cy_scb_ezi2c.c **** * The size of the buffer in bytes.
 705:Generated_Source\PSoC6\pdl\drivers\peripheral\scb/cy_scb_ezi2c.c **** *
 706:Generated_Source\PSoC6\pdl\drivers\peripheral\scb/cy_scb_ezi2c.c **** * \param rwBoundary
 707:Generated_Source\PSoC6\pdl\drivers\peripheral\scb/cy_scb_ezi2c.c **** * The number of data bytes starting from the beginning of the buffer with Read and
 708:Generated_Source\PSoC6\pdl\drivers\peripheral\scb/cy_scb_ezi2c.c **** * Write access. The data bytes located at rwBoundary or greater are read only.
 709:Generated_Source\PSoC6\pdl\drivers\peripheral\scb/cy_scb_ezi2c.c **** *
 710:Generated_Source\PSoC6\pdl\drivers\peripheral\scb/cy_scb_ezi2c.c **** * \param context
 711:Generated_Source\PSoC6\pdl\drivers\peripheral\scb/cy_scb_ezi2c.c **** * The pointer to the context structure \ref cy_stc_scb_ezi2c_context_t
 712:Generated_Source\PSoC6\pdl\drivers\peripheral\scb/cy_scb_ezi2c.c **** * allocated by the user. The structure is used during the EZI2C operation for
 713:Generated_Source\PSoC6\pdl\drivers\peripheral\scb/cy_scb_ezi2c.c **** * internal configuration and data retention. The user must not modify anything
 714:Generated_Source\PSoC6\pdl\drivers\peripheral\scb/cy_scb_ezi2c.c **** * in this structure.
 715:Generated_Source\PSoC6\pdl\drivers\peripheral\scb/cy_scb_ezi2c.c **** *
 716:Generated_Source\PSoC6\pdl\drivers\peripheral\scb/cy_scb_ezi2c.c **** * \note
 717:Generated_Source\PSoC6\pdl\drivers\peripheral\scb/cy_scb_ezi2c.c **** * * This function is not interrupt-protected. To prevent a race condition,
 718:Generated_Source\PSoC6\pdl\drivers\peripheral\scb/cy_scb_ezi2c.c **** *   it must be protected from the EZI2C interruption in the place where it
 719:Generated_Source\PSoC6\pdl\drivers\peripheral\scb/cy_scb_ezi2c.c **** *   is called.
 720:Generated_Source\PSoC6\pdl\drivers\peripheral\scb/cy_scb_ezi2c.c **** * * Calling this function in the middle of a transaction intended for the
ARM GAS  C:\Users\salaz\AppData\Local\Temp\ccU0pQaU.s 			page 95


 721:Generated_Source\PSoC6\pdl\drivers\peripheral\scb/cy_scb_ezi2c.c **** *   secondary slave address leads to unexpected behavior.
 722:Generated_Source\PSoC6\pdl\drivers\peripheral\scb/cy_scb_ezi2c.c **** *
 723:Generated_Source\PSoC6\pdl\drivers\peripheral\scb/cy_scb_ezi2c.c **** *******************************************************************************/
 724:Generated_Source\PSoC6\pdl\drivers\peripheral\scb/cy_scb_ezi2c.c **** void Cy_SCB_EZI2C_SetBuffer2(CySCB_Type const *base, uint8_t *buffer, uint32_t size, uint32_t rwBou
 725:Generated_Source\PSoC6\pdl\drivers\peripheral\scb/cy_scb_ezi2c.c ****                              cy_stc_scb_ezi2c_context_t *context)
 726:Generated_Source\PSoC6\pdl\drivers\peripheral\scb/cy_scb_ezi2c.c **** {
 2280              		.loc 3 726 0
 2281              		.cfi_startproc
 2282              		@ args = 4, pretend = 0, frame = 16
 2283              		@ frame_needed = 1, uses_anonymous_args = 0
 2284 0000 80B5     		push	{r7, lr}
 2285              		.cfi_def_cfa_offset 8
 2286              		.cfi_offset 7, -8
 2287              		.cfi_offset 14, -4
 2288 0002 84B0     		sub	sp, sp, #16
 2289              		.cfi_def_cfa_offset 24
 2290 0004 00AF     		add	r7, sp, #0
 2291              		.cfi_def_cfa_register 7
 2292 0006 F860     		str	r0, [r7, #12]
 2293 0008 B960     		str	r1, [r7, #8]
 2294 000a 7A60     		str	r2, [r7, #4]
 2295 000c 3B60     		str	r3, [r7]
 727:Generated_Source\PSoC6\pdl\drivers\peripheral\scb/cy_scb_ezi2c.c ****     CY_ASSERT_L1(CY_SCB_IS_I2C_BUFFER_VALID(buffer, size));
 2296              		.loc 3 727 0
 2297 000e 7B68     		ldr	r3, [r7, #4]
 2298 0010 002B     		cmp	r3, #0
 2299 0012 08D0     		beq	.L148
 2300              		.loc 3 727 0 is_stmt 0 discriminator 1
 2301 0014 BB68     		ldr	r3, [r7, #8]
 2302 0016 002B     		cmp	r3, #0
 2303 0018 05D1     		bne	.L148
 2304              		.loc 3 727 0 discriminator 2
 2305 001a 0F4A     		ldr	r2, .L150
 2306 001c 0F4B     		ldr	r3, .L150+4
 2307 001e 1100     		movs	r1, r2
 2308 0020 1800     		movs	r0, r3
 2309 0022 FFF7FEFF 		bl	Cy_SysLib_AssertFailed
 2310              	.L148:
 728:Generated_Source\PSoC6\pdl\drivers\peripheral\scb/cy_scb_ezi2c.c ****     CY_ASSERT_L2(rwBoundary <= size);
 2311              		.loc 3 728 0 is_stmt 1
 2312 0026 3A68     		ldr	r2, [r7]
 2313 0028 7B68     		ldr	r3, [r7, #4]
 2314 002a 9A42     		cmp	r2, r3
 2315 002c 06D9     		bls	.L149
 2316              		.loc 3 728 0 is_stmt 0 discriminator 1
 2317 002e B623     		movs	r3, #182
 2318 0030 9A00     		lsls	r2, r3, #2
 2319 0032 0A4B     		ldr	r3, .L150+4
 2320 0034 1100     		movs	r1, r2
 2321 0036 1800     		movs	r0, r3
 2322 0038 FFF7FEFF 		bl	Cy_SysLib_AssertFailed
 2323              	.L149:
 729:Generated_Source\PSoC6\pdl\drivers\peripheral\scb/cy_scb_ezi2c.c **** 
 730:Generated_Source\PSoC6\pdl\drivers\peripheral\scb/cy_scb_ezi2c.c ****     /* Suppress a compiler warning about unused variables */
 731:Generated_Source\PSoC6\pdl\drivers\peripheral\scb/cy_scb_ezi2c.c ****     (void) base;
 732:Generated_Source\PSoC6\pdl\drivers\peripheral\scb/cy_scb_ezi2c.c **** 
 733:Generated_Source\PSoC6\pdl\drivers\peripheral\scb/cy_scb_ezi2c.c ****     context->buf2          = buffer;
ARM GAS  C:\Users\salaz\AppData\Local\Temp\ccU0pQaU.s 			page 96


 2324              		.loc 3 733 0 is_stmt 1
 2325 003c BB69     		ldr	r3, [r7, #24]
 2326 003e BA68     		ldr	r2, [r7, #8]
 2327 0040 1A63     		str	r2, [r3, #48]
 734:Generated_Source\PSoC6\pdl\drivers\peripheral\scb/cy_scb_ezi2c.c ****     context->buf2Size      = size;
 2328              		.loc 3 734 0
 2329 0042 BB69     		ldr	r3, [r7, #24]
 2330 0044 7A68     		ldr	r2, [r7, #4]
 2331 0046 5A63     		str	r2, [r3, #52]
 735:Generated_Source\PSoC6\pdl\drivers\peripheral\scb/cy_scb_ezi2c.c ****     context->buf2rwBondary = rwBoundary;
 2332              		.loc 3 735 0
 2333 0048 BB69     		ldr	r3, [r7, #24]
 2334 004a 3A68     		ldr	r2, [r7]
 2335 004c 9A63     		str	r2, [r3, #56]
 736:Generated_Source\PSoC6\pdl\drivers\peripheral\scb/cy_scb_ezi2c.c **** }
 2336              		.loc 3 736 0
 2337 004e C046     		nop
 2338 0050 BD46     		mov	sp, r7
 2339 0052 04B0     		add	sp, sp, #16
 2340              		@ sp needed
 2341 0054 80BD     		pop	{r7, pc}
 2342              	.L151:
 2343 0056 C046     		.align	2
 2344              	.L150:
 2345 0058 D7020000 		.word	727
 2346 005c 44000000 		.word	.LC11
 2347              		.cfi_endproc
 2348              	.LFE133:
 2349              		.size	Cy_SCB_EZI2C_SetBuffer2, .-Cy_SCB_EZI2C_SetBuffer2
 2350              		.section	.text.Cy_SCB_EZI2C_Interrupt,"ax",%progbits
 2351              		.align	2
 2352              		.global	Cy_SCB_EZI2C_Interrupt
 2353              		.code	16
 2354              		.thumb_func
 2355              		.type	Cy_SCB_EZI2C_Interrupt, %function
 2356              	Cy_SCB_EZI2C_Interrupt:
 2357              	.LFB134:
 737:Generated_Source\PSoC6\pdl\drivers\peripheral\scb/cy_scb_ezi2c.c **** 
 738:Generated_Source\PSoC6\pdl\drivers\peripheral\scb/cy_scb_ezi2c.c **** 
 739:Generated_Source\PSoC6\pdl\drivers\peripheral\scb/cy_scb_ezi2c.c **** /*******************************************************************************
 740:Generated_Source\PSoC6\pdl\drivers\peripheral\scb/cy_scb_ezi2c.c **** * Function Name: Cy_SCB_EZI2C_Interrupt
 741:Generated_Source\PSoC6\pdl\drivers\peripheral\scb/cy_scb_ezi2c.c **** ****************************************************************************//**
 742:Generated_Source\PSoC6\pdl\drivers\peripheral\scb/cy_scb_ezi2c.c **** *
 743:Generated_Source\PSoC6\pdl\drivers\peripheral\scb/cy_scb_ezi2c.c **** * This is the interrupt function for the SCB configured in the EZI2C mode.
 744:Generated_Source\PSoC6\pdl\drivers\peripheral\scb/cy_scb_ezi2c.c **** * This function must be called inside the user-defined interrupt service
 745:Generated_Source\PSoC6\pdl\drivers\peripheral\scb/cy_scb_ezi2c.c **** * routine to make the EZI2C slave work.
 746:Generated_Source\PSoC6\pdl\drivers\peripheral\scb/cy_scb_ezi2c.c **** *
 747:Generated_Source\PSoC6\pdl\drivers\peripheral\scb/cy_scb_ezi2c.c **** * \param base
 748:Generated_Source\PSoC6\pdl\drivers\peripheral\scb/cy_scb_ezi2c.c **** * The pointer to the EZI2C SCB instance.
 749:Generated_Source\PSoC6\pdl\drivers\peripheral\scb/cy_scb_ezi2c.c **** *
 750:Generated_Source\PSoC6\pdl\drivers\peripheral\scb/cy_scb_ezi2c.c **** * \param context
 751:Generated_Source\PSoC6\pdl\drivers\peripheral\scb/cy_scb_ezi2c.c **** * The pointer to the context structure \ref cy_stc_scb_ezi2c_context_t allocated
 752:Generated_Source\PSoC6\pdl\drivers\peripheral\scb/cy_scb_ezi2c.c **** * by the user. The structure is used during the EZI2C operation for internal
 753:Generated_Source\PSoC6\pdl\drivers\peripheral\scb/cy_scb_ezi2c.c **** * configuration and data retention. The user must not modify anything
 754:Generated_Source\PSoC6\pdl\drivers\peripheral\scb/cy_scb_ezi2c.c **** * in this structure.
 755:Generated_Source\PSoC6\pdl\drivers\peripheral\scb/cy_scb_ezi2c.c **** *
 756:Generated_Source\PSoC6\pdl\drivers\peripheral\scb/cy_scb_ezi2c.c **** *******************************************************************************/
ARM GAS  C:\Users\salaz\AppData\Local\Temp\ccU0pQaU.s 			page 97


 757:Generated_Source\PSoC6\pdl\drivers\peripheral\scb/cy_scb_ezi2c.c **** void Cy_SCB_EZI2C_Interrupt(CySCB_Type *base, cy_stc_scb_ezi2c_context_t *context)
 758:Generated_Source\PSoC6\pdl\drivers\peripheral\scb/cy_scb_ezi2c.c **** {
 2358              		.loc 3 758 0
 2359              		.cfi_startproc
 2360              		@ args = 0, pretend = 0, frame = 16
 2361              		@ frame_needed = 1, uses_anonymous_args = 0
 2362 0000 80B5     		push	{r7, lr}
 2363              		.cfi_def_cfa_offset 8
 2364              		.cfi_offset 7, -8
 2365              		.cfi_offset 14, -4
 2366 0002 84B0     		sub	sp, sp, #16
 2367              		.cfi_def_cfa_offset 24
 2368 0004 00AF     		add	r7, sp, #0
 2369              		.cfi_def_cfa_register 7
 2370 0006 7860     		str	r0, [r7, #4]
 2371 0008 3960     		str	r1, [r7]
 759:Generated_Source\PSoC6\pdl\drivers\peripheral\scb/cy_scb_ezi2c.c ****     uint32_t slaveIntrStatus;
 760:Generated_Source\PSoC6\pdl\drivers\peripheral\scb/cy_scb_ezi2c.c **** 
 761:Generated_Source\PSoC6\pdl\drivers\peripheral\scb/cy_scb_ezi2c.c ****     /* Handle an I2C wake-up event */
 762:Generated_Source\PSoC6\pdl\drivers\peripheral\scb/cy_scb_ezi2c.c ****     if (0UL != (CY_SCB_I2C_INTR_WAKEUP & Cy_SCB_GetI2CInterruptStatusMasked(base)))
 2372              		.loc 3 762 0
 2373 000a 7B68     		ldr	r3, [r7, #4]
 2374 000c 1800     		movs	r0, r3
 2375 000e FFF7FEFF 		bl	Cy_SCB_GetI2CInterruptStatusMasked
 2376 0012 0200     		movs	r2, r0
 2377 0014 0123     		movs	r3, #1
 2378 0016 1340     		ands	r3, r2
 2379 0018 07D0     		beq	.L153
 763:Generated_Source\PSoC6\pdl\drivers\peripheral\scb/cy_scb_ezi2c.c ****     {
 764:Generated_Source\PSoC6\pdl\drivers\peripheral\scb/cy_scb_ezi2c.c ****         /* Move from IDLE state, the slave was addressed. Following address match 
 765:Generated_Source\PSoC6\pdl\drivers\peripheral\scb/cy_scb_ezi2c.c ****         * interrupt continue transfer.
 766:Generated_Source\PSoC6\pdl\drivers\peripheral\scb/cy_scb_ezi2c.c ****         */
 767:Generated_Source\PSoC6\pdl\drivers\peripheral\scb/cy_scb_ezi2c.c ****         context->state = CY_SCB_EZI2C_STATE_ADDR;
 2380              		.loc 3 767 0
 2381 001a 3B68     		ldr	r3, [r7]
 2382 001c 0122     		movs	r2, #1
 2383 001e 1A70     		strb	r2, [r3]
 768:Generated_Source\PSoC6\pdl\drivers\peripheral\scb/cy_scb_ezi2c.c ****         
 769:Generated_Source\PSoC6\pdl\drivers\peripheral\scb/cy_scb_ezi2c.c ****         Cy_SCB_ClearI2CInterrupt(base, CY_SCB_I2C_INTR_WAKEUP);
 2384              		.loc 3 769 0
 2385 0020 7B68     		ldr	r3, [r7, #4]
 2386 0022 0121     		movs	r1, #1
 2387 0024 1800     		movs	r0, r3
 2388 0026 FFF7FEFF 		bl	Cy_SCB_ClearI2CInterrupt
 2389              	.L153:
 770:Generated_Source\PSoC6\pdl\drivers\peripheral\scb/cy_scb_ezi2c.c ****     }
 771:Generated_Source\PSoC6\pdl\drivers\peripheral\scb/cy_scb_ezi2c.c **** 
 772:Generated_Source\PSoC6\pdl\drivers\peripheral\scb/cy_scb_ezi2c.c ****     /* Get the slave interrupt sources */
 773:Generated_Source\PSoC6\pdl\drivers\peripheral\scb/cy_scb_ezi2c.c ****     slaveIntrStatus = Cy_SCB_GetSlaveInterruptStatusMasked(base);
 2390              		.loc 3 773 0
 2391 002a 7B68     		ldr	r3, [r7, #4]
 2392 002c 1800     		movs	r0, r3
 2393 002e FFF7FEFF 		bl	Cy_SCB_GetSlaveInterruptStatusMasked
 2394 0032 0300     		movs	r3, r0
 2395 0034 FB60     		str	r3, [r7, #12]
 774:Generated_Source\PSoC6\pdl\drivers\peripheral\scb/cy_scb_ezi2c.c **** 
 775:Generated_Source\PSoC6\pdl\drivers\peripheral\scb/cy_scb_ezi2c.c ****     /* Handle the error conditions */
ARM GAS  C:\Users\salaz\AppData\Local\Temp\ccU0pQaU.s 			page 98


 776:Generated_Source\PSoC6\pdl\drivers\peripheral\scb/cy_scb_ezi2c.c ****     if (0UL != (CY_SCB_EZI2C_SLAVE_INTR_ERROR & slaveIntrStatus))
 2396              		.loc 3 776 0
 2397 0036 FA68     		ldr	r2, [r7, #12]
 2398 0038 0223     		movs	r3, #2
 2399 003a FF33     		adds	r3, r3, #255
 2400 003c 1340     		ands	r3, r2
 2401 003e 12D0     		beq	.L154
 777:Generated_Source\PSoC6\pdl\drivers\peripheral\scb/cy_scb_ezi2c.c ****     {
 778:Generated_Source\PSoC6\pdl\drivers\peripheral\scb/cy_scb_ezi2c.c ****         HandleErrors(base, context);
 2402              		.loc 3 778 0
 2403 0040 3A68     		ldr	r2, [r7]
 2404 0042 7B68     		ldr	r3, [r7, #4]
 2405 0044 1100     		movs	r1, r2
 2406 0046 1800     		movs	r0, r3
 2407 0048 FFF7FEFF 		bl	HandleErrors
 779:Generated_Source\PSoC6\pdl\drivers\peripheral\scb/cy_scb_ezi2c.c **** 
 780:Generated_Source\PSoC6\pdl\drivers\peripheral\scb/cy_scb_ezi2c.c ****         Cy_SCB_ClearSlaveInterrupt(base, CY_SCB_EZI2C_SLAVE_INTR_ERROR);
 2408              		.loc 3 780 0
 2409 004c 0223     		movs	r3, #2
 2410 004e FF33     		adds	r3, r3, #255
 2411 0050 1A00     		movs	r2, r3
 2412 0052 7B68     		ldr	r3, [r7, #4]
 2413 0054 1100     		movs	r1, r2
 2414 0056 1800     		movs	r0, r3
 2415 0058 FFF7FEFF 		bl	Cy_SCB_ClearSlaveInterrupt
 781:Generated_Source\PSoC6\pdl\drivers\peripheral\scb/cy_scb_ezi2c.c **** 
 782:Generated_Source\PSoC6\pdl\drivers\peripheral\scb/cy_scb_ezi2c.c ****         /* Trigger the stop handling to complete the transaction */
 783:Generated_Source\PSoC6\pdl\drivers\peripheral\scb/cy_scb_ezi2c.c ****         slaveIntrStatus |= CY_SCB_SLAVE_INTR_I2C_STOP;
 2416              		.loc 3 783 0
 2417 005c FB68     		ldr	r3, [r7, #12]
 2418 005e 1022     		movs	r2, #16
 2419 0060 1343     		orrs	r3, r2
 2420 0062 FB60     		str	r3, [r7, #12]
 2421 0064 12E0     		b	.L155
 2422              	.L154:
 784:Generated_Source\PSoC6\pdl\drivers\peripheral\scb/cy_scb_ezi2c.c ****     }
 785:Generated_Source\PSoC6\pdl\drivers\peripheral\scb/cy_scb_ezi2c.c ****     else
 786:Generated_Source\PSoC6\pdl\drivers\peripheral\scb/cy_scb_ezi2c.c ****     {
 787:Generated_Source\PSoC6\pdl\drivers\peripheral\scb/cy_scb_ezi2c.c ****         if ((CY_SCB_EZI2C_STATE_RX_DATA1 == context->state) &&
 2423              		.loc 3 787 0
 2424 0066 3B68     		ldr	r3, [r7]
 2425 0068 1B78     		ldrb	r3, [r3]
 2426 006a DBB2     		uxtb	r3, r3
 2427 006c 052B     		cmp	r3, #5
 2428 006e 0DD1     		bne	.L155
 788:Generated_Source\PSoC6\pdl\drivers\peripheral\scb/cy_scb_ezi2c.c ****             (0UL != (CY_SCB_SLAVE_INTR_I2C_STOP & slaveIntrStatus)))
 2429              		.loc 3 788 0 discriminator 1
 2430 0070 FB68     		ldr	r3, [r7, #12]
 2431 0072 1022     		movs	r2, #16
 2432 0074 1340     		ands	r3, r2
 787:Generated_Source\PSoC6\pdl\drivers\peripheral\scb/cy_scb_ezi2c.c ****             (0UL != (CY_SCB_SLAVE_INTR_I2C_STOP & slaveIntrStatus)))
 2433              		.loc 3 787 0 discriminator 1
 2434 0076 09D0     		beq	.L155
 789:Generated_Source\PSoC6\pdl\drivers\peripheral\scb/cy_scb_ezi2c.c ****         {
 790:Generated_Source\PSoC6\pdl\drivers\peripheral\scb/cy_scb_ezi2c.c ****             /* Get data from the RX FIFO after Stop is generated */
 791:Generated_Source\PSoC6\pdl\drivers\peripheral\scb/cy_scb_ezi2c.c ****             Cy_SCB_SetRxInterrupt    (base, CY_SCB_RX_INTR_LEVEL);
 2435              		.loc 3 791 0
ARM GAS  C:\Users\salaz\AppData\Local\Temp\ccU0pQaU.s 			page 99


 2436 0078 7B68     		ldr	r3, [r7, #4]
 2437 007a 0121     		movs	r1, #1
 2438 007c 1800     		movs	r0, r3
 2439 007e FFF7FEFF 		bl	Cy_SCB_SetRxInterrupt
 792:Generated_Source\PSoC6\pdl\drivers\peripheral\scb/cy_scb_ezi2c.c ****             Cy_SCB_SetRxInterruptMask(base, CY_SCB_RX_INTR_LEVEL);
 2440              		.loc 3 792 0
 2441 0082 7B68     		ldr	r3, [r7, #4]
 2442 0084 0121     		movs	r1, #1
 2443 0086 1800     		movs	r0, r3
 2444 0088 FFF7FEFF 		bl	Cy_SCB_SetRxInterruptMask
 2445              	.L155:
 793:Generated_Source\PSoC6\pdl\drivers\peripheral\scb/cy_scb_ezi2c.c ****         }
 794:Generated_Source\PSoC6\pdl\drivers\peripheral\scb/cy_scb_ezi2c.c ****     }
 795:Generated_Source\PSoC6\pdl\drivers\peripheral\scb/cy_scb_ezi2c.c **** 
 796:Generated_Source\PSoC6\pdl\drivers\peripheral\scb/cy_scb_ezi2c.c ****     /* Handle the receive direction (master writes data) */
 797:Generated_Source\PSoC6\pdl\drivers\peripheral\scb/cy_scb_ezi2c.c ****     if (0UL != (CY_SCB_RX_INTR_LEVEL & Cy_SCB_GetRxInterruptStatusMasked(base)))
 2446              		.loc 3 797 0
 2447 008c 7B68     		ldr	r3, [r7, #4]
 2448 008e 1800     		movs	r0, r3
 2449 0090 FFF7FEFF 		bl	Cy_SCB_GetRxInterruptStatusMasked
 2450 0094 0200     		movs	r2, r0
 2451 0096 0123     		movs	r3, #1
 2452 0098 1340     		ands	r3, r2
 2453 009a 0AD0     		beq	.L156
 798:Generated_Source\PSoC6\pdl\drivers\peripheral\scb/cy_scb_ezi2c.c ****     {
 799:Generated_Source\PSoC6\pdl\drivers\peripheral\scb/cy_scb_ezi2c.c ****         HandleDataReceive(base, context);
 2454              		.loc 3 799 0
 2455 009c 3A68     		ldr	r2, [r7]
 2456 009e 7B68     		ldr	r3, [r7, #4]
 2457 00a0 1100     		movs	r1, r2
 2458 00a2 1800     		movs	r0, r3
 2459 00a4 FFF7FEFF 		bl	HandleDataReceive
 800:Generated_Source\PSoC6\pdl\drivers\peripheral\scb/cy_scb_ezi2c.c **** 
 801:Generated_Source\PSoC6\pdl\drivers\peripheral\scb/cy_scb_ezi2c.c ****         Cy_SCB_ClearRxInterrupt(base, CY_SCB_RX_INTR_LEVEL);
 2460              		.loc 3 801 0
 2461 00a8 7B68     		ldr	r3, [r7, #4]
 2462 00aa 0121     		movs	r1, #1
 2463 00ac 1800     		movs	r0, r3
 2464 00ae FFF7FEFF 		bl	Cy_SCB_ClearRxInterrupt
 2465              	.L156:
 802:Generated_Source\PSoC6\pdl\drivers\peripheral\scb/cy_scb_ezi2c.c ****     }
 803:Generated_Source\PSoC6\pdl\drivers\peripheral\scb/cy_scb_ezi2c.c **** 
 804:Generated_Source\PSoC6\pdl\drivers\peripheral\scb/cy_scb_ezi2c.c ****     /* Handle the transaction completion */
 805:Generated_Source\PSoC6\pdl\drivers\peripheral\scb/cy_scb_ezi2c.c ****     if (0UL != (CY_SCB_SLAVE_INTR_I2C_STOP & slaveIntrStatus))
 2466              		.loc 3 805 0
 2467 00b2 FB68     		ldr	r3, [r7, #12]
 2468 00b4 1022     		movs	r2, #16
 2469 00b6 1340     		ands	r3, r2
 2470 00b8 10D0     		beq	.L157
 806:Generated_Source\PSoC6\pdl\drivers\peripheral\scb/cy_scb_ezi2c.c ****     {
 807:Generated_Source\PSoC6\pdl\drivers\peripheral\scb/cy_scb_ezi2c.c ****         HandleStop(base, context);
 2471              		.loc 3 807 0
 2472 00ba 3A68     		ldr	r2, [r7]
 2473 00bc 7B68     		ldr	r3, [r7, #4]
 2474 00be 1100     		movs	r1, r2
 2475 00c0 1800     		movs	r0, r3
 2476 00c2 FFF7FEFF 		bl	HandleStop
ARM GAS  C:\Users\salaz\AppData\Local\Temp\ccU0pQaU.s 			page 100


 808:Generated_Source\PSoC6\pdl\drivers\peripheral\scb/cy_scb_ezi2c.c **** 
 809:Generated_Source\PSoC6\pdl\drivers\peripheral\scb/cy_scb_ezi2c.c ****         Cy_SCB_ClearSlaveInterrupt(base, CY_SCB_SLAVE_INTR_I2C_STOP);
 2477              		.loc 3 809 0
 2478 00c6 7B68     		ldr	r3, [r7, #4]
 2479 00c8 1021     		movs	r1, #16
 2480 00ca 1800     		movs	r0, r3
 2481 00cc FFF7FEFF 		bl	Cy_SCB_ClearSlaveInterrupt
 810:Generated_Source\PSoC6\pdl\drivers\peripheral\scb/cy_scb_ezi2c.c **** 
 811:Generated_Source\PSoC6\pdl\drivers\peripheral\scb/cy_scb_ezi2c.c ****         /* Update the slave interrupt status */
 812:Generated_Source\PSoC6\pdl\drivers\peripheral\scb/cy_scb_ezi2c.c ****         slaveIntrStatus = Cy_SCB_GetSlaveInterruptStatusMasked(base);
 2482              		.loc 3 812 0
 2483 00d0 7B68     		ldr	r3, [r7, #4]
 2484 00d2 1800     		movs	r0, r3
 2485 00d4 FFF7FEFF 		bl	Cy_SCB_GetSlaveInterruptStatusMasked
 2486 00d8 0300     		movs	r3, r0
 2487 00da FB60     		str	r3, [r7, #12]
 2488              	.L157:
 813:Generated_Source\PSoC6\pdl\drivers\peripheral\scb/cy_scb_ezi2c.c ****     }
 814:Generated_Source\PSoC6\pdl\drivers\peripheral\scb/cy_scb_ezi2c.c **** 
 815:Generated_Source\PSoC6\pdl\drivers\peripheral\scb/cy_scb_ezi2c.c ****     /* Handle the address byte */
 816:Generated_Source\PSoC6\pdl\drivers\peripheral\scb/cy_scb_ezi2c.c ****     if (0UL != (CY_SCB_SLAVE_INTR_I2C_ADDR_MATCH & slaveIntrStatus))
 2489              		.loc 3 816 0
 2490 00dc FB68     		ldr	r3, [r7, #12]
 2491 00de 4022     		movs	r2, #64
 2492 00e0 1340     		ands	r3, r2
 2493 00e2 0FD0     		beq	.L158
 817:Generated_Source\PSoC6\pdl\drivers\peripheral\scb/cy_scb_ezi2c.c ****     {
 818:Generated_Source\PSoC6\pdl\drivers\peripheral\scb/cy_scb_ezi2c.c ****         HandleAddress(base, context);
 2494              		.loc 3 818 0
 2495 00e4 3A68     		ldr	r2, [r7]
 2496 00e6 7B68     		ldr	r3, [r7, #4]
 2497 00e8 1100     		movs	r1, r2
 2498 00ea 1800     		movs	r0, r3
 2499 00ec FFF7FEFF 		bl	HandleAddress
 819:Generated_Source\PSoC6\pdl\drivers\peripheral\scb/cy_scb_ezi2c.c **** 
 820:Generated_Source\PSoC6\pdl\drivers\peripheral\scb/cy_scb_ezi2c.c ****         Cy_SCB_ClearI2CInterrupt  (base, CY_SCB_I2C_INTR_WAKEUP);
 2500              		.loc 3 820 0
 2501 00f0 7B68     		ldr	r3, [r7, #4]
 2502 00f2 0121     		movs	r1, #1
 2503 00f4 1800     		movs	r0, r3
 2504 00f6 FFF7FEFF 		bl	Cy_SCB_ClearI2CInterrupt
 821:Generated_Source\PSoC6\pdl\drivers\peripheral\scb/cy_scb_ezi2c.c ****         Cy_SCB_ClearSlaveInterrupt(base, CY_SCB_SLAVE_INTR_I2C_ADDR_MATCH);
 2505              		.loc 3 821 0
 2506 00fa 7B68     		ldr	r3, [r7, #4]
 2507 00fc 4021     		movs	r1, #64
 2508 00fe 1800     		movs	r0, r3
 2509 0100 FFF7FEFF 		bl	Cy_SCB_ClearSlaveInterrupt
 2510              	.L158:
 822:Generated_Source\PSoC6\pdl\drivers\peripheral\scb/cy_scb_ezi2c.c ****     }
 823:Generated_Source\PSoC6\pdl\drivers\peripheral\scb/cy_scb_ezi2c.c **** 
 824:Generated_Source\PSoC6\pdl\drivers\peripheral\scb/cy_scb_ezi2c.c ****     /* Handle the transmit direction (master reads data) */
 825:Generated_Source\PSoC6\pdl\drivers\peripheral\scb/cy_scb_ezi2c.c ****     if (0UL != (CY_SCB_TX_INTR_LEVEL & Cy_SCB_GetTxInterruptStatusMasked(base)))
 2511              		.loc 3 825 0
 2512 0104 7B68     		ldr	r3, [r7, #4]
 2513 0106 1800     		movs	r0, r3
 2514 0108 FFF7FEFF 		bl	Cy_SCB_GetTxInterruptStatusMasked
 2515 010c 0200     		movs	r2, r0
ARM GAS  C:\Users\salaz\AppData\Local\Temp\ccU0pQaU.s 			page 101


 2516 010e 0123     		movs	r3, #1
 2517 0110 1340     		ands	r3, r2
 2518 0112 0AD0     		beq	.L160
 826:Generated_Source\PSoC6\pdl\drivers\peripheral\scb/cy_scb_ezi2c.c ****     {
 827:Generated_Source\PSoC6\pdl\drivers\peripheral\scb/cy_scb_ezi2c.c ****         HandleDataTransmit(base, context);
 2519              		.loc 3 827 0
 2520 0114 3A68     		ldr	r2, [r7]
 2521 0116 7B68     		ldr	r3, [r7, #4]
 2522 0118 1100     		movs	r1, r2
 2523 011a 1800     		movs	r0, r3
 2524 011c FFF7FEFF 		bl	HandleDataTransmit
 828:Generated_Source\PSoC6\pdl\drivers\peripheral\scb/cy_scb_ezi2c.c **** 
 829:Generated_Source\PSoC6\pdl\drivers\peripheral\scb/cy_scb_ezi2c.c ****         Cy_SCB_ClearTxInterrupt(base, CY_SCB_TX_INTR_LEVEL);
 2525              		.loc 3 829 0
 2526 0120 7B68     		ldr	r3, [r7, #4]
 2527 0122 0121     		movs	r1, #1
 2528 0124 1800     		movs	r0, r3
 2529 0126 FFF7FEFF 		bl	Cy_SCB_ClearTxInterrupt
 2530              	.L160:
 830:Generated_Source\PSoC6\pdl\drivers\peripheral\scb/cy_scb_ezi2c.c ****     }
 831:Generated_Source\PSoC6\pdl\drivers\peripheral\scb/cy_scb_ezi2c.c **** }
 2531              		.loc 3 831 0
 2532 012a C046     		nop
 2533 012c BD46     		mov	sp, r7
 2534 012e 04B0     		add	sp, sp, #16
 2535              		@ sp needed
 2536 0130 80BD     		pop	{r7, pc}
 2537              		.cfi_endproc
 2538              	.LFE134:
 2539              		.size	Cy_SCB_EZI2C_Interrupt, .-Cy_SCB_EZI2C_Interrupt
 2540 0132 C046     		.section	.text.HandleErrors,"ax",%progbits
 2541              		.align	2
 2542              		.code	16
 2543              		.thumb_func
 2544              		.type	HandleErrors, %function
 2545              	HandleErrors:
 2546              	.LFB135:
 832:Generated_Source\PSoC6\pdl\drivers\peripheral\scb/cy_scb_ezi2c.c **** 
 833:Generated_Source\PSoC6\pdl\drivers\peripheral\scb/cy_scb_ezi2c.c **** 
 834:Generated_Source\PSoC6\pdl\drivers\peripheral\scb/cy_scb_ezi2c.c **** 
 835:Generated_Source\PSoC6\pdl\drivers\peripheral\scb/cy_scb_ezi2c.c **** /*******************************************************************************
 836:Generated_Source\PSoC6\pdl\drivers\peripheral\scb/cy_scb_ezi2c.c **** * Function Name: HandleErrors
 837:Generated_Source\PSoC6\pdl\drivers\peripheral\scb/cy_scb_ezi2c.c **** ****************************************************************************//**
 838:Generated_Source\PSoC6\pdl\drivers\peripheral\scb/cy_scb_ezi2c.c **** *
 839:Generated_Source\PSoC6\pdl\drivers\peripheral\scb/cy_scb_ezi2c.c **** * Handles an error conditions.
 840:Generated_Source\PSoC6\pdl\drivers\peripheral\scb/cy_scb_ezi2c.c **** *
 841:Generated_Source\PSoC6\pdl\drivers\peripheral\scb/cy_scb_ezi2c.c **** * \param base
 842:Generated_Source\PSoC6\pdl\drivers\peripheral\scb/cy_scb_ezi2c.c **** * The pointer to the EZI2C SCB instance.
 843:Generated_Source\PSoC6\pdl\drivers\peripheral\scb/cy_scb_ezi2c.c **** *
 844:Generated_Source\PSoC6\pdl\drivers\peripheral\scb/cy_scb_ezi2c.c **** * \param context
 845:Generated_Source\PSoC6\pdl\drivers\peripheral\scb/cy_scb_ezi2c.c **** * The pointer to the context structure \ref cy_stc_scb_ezi2c_context_t allocated
 846:Generated_Source\PSoC6\pdl\drivers\peripheral\scb/cy_scb_ezi2c.c **** * by the user. The structure is used during the EZI2C operation for internal
 847:Generated_Source\PSoC6\pdl\drivers\peripheral\scb/cy_scb_ezi2c.c **** * configuration and data retention. The user must not modify anything
 848:Generated_Source\PSoC6\pdl\drivers\peripheral\scb/cy_scb_ezi2c.c **** * in this structure.
 849:Generated_Source\PSoC6\pdl\drivers\peripheral\scb/cy_scb_ezi2c.c **** *
 850:Generated_Source\PSoC6\pdl\drivers\peripheral\scb/cy_scb_ezi2c.c **** *******************************************************************************/
 851:Generated_Source\PSoC6\pdl\drivers\peripheral\scb/cy_scb_ezi2c.c **** static void HandleErrors(CySCB_Type *base, cy_stc_scb_ezi2c_context_t *context)
ARM GAS  C:\Users\salaz\AppData\Local\Temp\ccU0pQaU.s 			page 102


 852:Generated_Source\PSoC6\pdl\drivers\peripheral\scb/cy_scb_ezi2c.c **** {
 2547              		.loc 3 852 0
 2548              		.cfi_startproc
 2549              		@ args = 0, pretend = 0, frame = 8
 2550              		@ frame_needed = 1, uses_anonymous_args = 0
 2551 0000 80B5     		push	{r7, lr}
 2552              		.cfi_def_cfa_offset 8
 2553              		.cfi_offset 7, -8
 2554              		.cfi_offset 14, -4
 2555 0002 82B0     		sub	sp, sp, #8
 2556              		.cfi_def_cfa_offset 16
 2557 0004 00AF     		add	r7, sp, #0
 2558              		.cfi_def_cfa_register 7
 2559 0006 7860     		str	r0, [r7, #4]
 2560 0008 3960     		str	r1, [r7]
 853:Generated_Source\PSoC6\pdl\drivers\peripheral\scb/cy_scb_ezi2c.c ****     context->status |= CY_SCB_EZI2C_STATUS_ERR;
 2561              		.loc 3 853 0
 2562 000a 3B68     		ldr	r3, [r7]
 2563 000c 5B68     		ldr	r3, [r3, #4]
 2564 000e 2022     		movs	r2, #32
 2565 0010 1A43     		orrs	r2, r3
 2566 0012 3B68     		ldr	r3, [r7]
 2567 0014 5A60     		str	r2, [r3, #4]
 854:Generated_Source\PSoC6\pdl\drivers\peripheral\scb/cy_scb_ezi2c.c **** 
 855:Generated_Source\PSoC6\pdl\drivers\peripheral\scb/cy_scb_ezi2c.c ****     /* Drop any data available in the RX FIFO */
 856:Generated_Source\PSoC6\pdl\drivers\peripheral\scb/cy_scb_ezi2c.c ****     Cy_SCB_ClearRxFifo(base);
 2568              		.loc 3 856 0
 2569 0016 7B68     		ldr	r3, [r7, #4]
 2570 0018 1800     		movs	r0, r3
 2571 001a FFF7FEFF 		bl	Cy_SCB_ClearRxFifo
 857:Generated_Source\PSoC6\pdl\drivers\peripheral\scb/cy_scb_ezi2c.c **** 
 858:Generated_Source\PSoC6\pdl\drivers\peripheral\scb/cy_scb_ezi2c.c ****     /* Stop the TX and RX processing */
 859:Generated_Source\PSoC6\pdl\drivers\peripheral\scb/cy_scb_ezi2c.c ****     Cy_SCB_SetRxInterruptMask(base, CY_SCB_CLEAR_ALL_INTR_SRC);
 2572              		.loc 3 859 0
 2573 001e 7B68     		ldr	r3, [r7, #4]
 2574 0020 0021     		movs	r1, #0
 2575 0022 1800     		movs	r0, r3
 2576 0024 FFF7FEFF 		bl	Cy_SCB_SetRxInterruptMask
 860:Generated_Source\PSoC6\pdl\drivers\peripheral\scb/cy_scb_ezi2c.c ****     Cy_SCB_SetTxInterruptMask(base, CY_SCB_CLEAR_ALL_INTR_SRC);
 2577              		.loc 3 860 0
 2578 0028 7B68     		ldr	r3, [r7, #4]
 2579 002a 0021     		movs	r1, #0
 2580 002c 1800     		movs	r0, r3
 2581 002e FFF7FEFF 		bl	Cy_SCB_SetTxInterruptMask
 861:Generated_Source\PSoC6\pdl\drivers\peripheral\scb/cy_scb_ezi2c.c **** }
 2582              		.loc 3 861 0
 2583 0032 C046     		nop
 2584 0034 BD46     		mov	sp, r7
 2585 0036 02B0     		add	sp, sp, #8
 2586              		@ sp needed
 2587 0038 80BD     		pop	{r7, pc}
 2588              		.cfi_endproc
 2589              	.LFE135:
 2590              		.size	HandleErrors, .-HandleErrors
 2591              		.section	.text.HandleAddress,"ax",%progbits
 2592              		.align	2
 2593              		.code	16
ARM GAS  C:\Users\salaz\AppData\Local\Temp\ccU0pQaU.s 			page 103


 2594              		.thumb_func
 2595              		.type	HandleAddress, %function
 2596              	HandleAddress:
 2597              	.LFB136:
 862:Generated_Source\PSoC6\pdl\drivers\peripheral\scb/cy_scb_ezi2c.c **** 
 863:Generated_Source\PSoC6\pdl\drivers\peripheral\scb/cy_scb_ezi2c.c **** 
 864:Generated_Source\PSoC6\pdl\drivers\peripheral\scb/cy_scb_ezi2c.c **** /*******************************************************************************
 865:Generated_Source\PSoC6\pdl\drivers\peripheral\scb/cy_scb_ezi2c.c **** * Function Name: HandleAddress
 866:Generated_Source\PSoC6\pdl\drivers\peripheral\scb/cy_scb_ezi2c.c **** ****************************************************************************//**
 867:Generated_Source\PSoC6\pdl\drivers\peripheral\scb/cy_scb_ezi2c.c **** *
 868:Generated_Source\PSoC6\pdl\drivers\peripheral\scb/cy_scb_ezi2c.c **** * Prepares the EZI2C slave for the following read or write transfer after the
 869:Generated_Source\PSoC6\pdl\drivers\peripheral\scb/cy_scb_ezi2c.c **** * matched address was received.
 870:Generated_Source\PSoC6\pdl\drivers\peripheral\scb/cy_scb_ezi2c.c **** *
 871:Generated_Source\PSoC6\pdl\drivers\peripheral\scb/cy_scb_ezi2c.c **** * \param base
 872:Generated_Source\PSoC6\pdl\drivers\peripheral\scb/cy_scb_ezi2c.c **** * The pointer to the EZI2C SCB instance.
 873:Generated_Source\PSoC6\pdl\drivers\peripheral\scb/cy_scb_ezi2c.c **** *
 874:Generated_Source\PSoC6\pdl\drivers\peripheral\scb/cy_scb_ezi2c.c **** * \param context
 875:Generated_Source\PSoC6\pdl\drivers\peripheral\scb/cy_scb_ezi2c.c **** * The pointer to the context structure \ref cy_stc_scb_ezi2c_context_t allocated
 876:Generated_Source\PSoC6\pdl\drivers\peripheral\scb/cy_scb_ezi2c.c **** * by the user. The structure is used during the EZI2C operation for internal
 877:Generated_Source\PSoC6\pdl\drivers\peripheral\scb/cy_scb_ezi2c.c **** * configuration and data retention. The user must not modify anything
 878:Generated_Source\PSoC6\pdl\drivers\peripheral\scb/cy_scb_ezi2c.c **** * in this structure.
 879:Generated_Source\PSoC6\pdl\drivers\peripheral\scb/cy_scb_ezi2c.c **** *
 880:Generated_Source\PSoC6\pdl\drivers\peripheral\scb/cy_scb_ezi2c.c **** *******************************************************************************/
 881:Generated_Source\PSoC6\pdl\drivers\peripheral\scb/cy_scb_ezi2c.c **** static void HandleAddress(CySCB_Type *base, cy_stc_scb_ezi2c_context_t *context)
 882:Generated_Source\PSoC6\pdl\drivers\peripheral\scb/cy_scb_ezi2c.c **** {
 2598              		.loc 3 882 0
 2599              		.cfi_startproc
 2600              		@ args = 0, pretend = 0, frame = 16
 2601              		@ frame_needed = 1, uses_anonymous_args = 0
 2602 0000 80B5     		push	{r7, lr}
 2603              		.cfi_def_cfa_offset 8
 2604              		.cfi_offset 7, -8
 2605              		.cfi_offset 14, -4
 2606 0002 84B0     		sub	sp, sp, #16
 2607              		.cfi_def_cfa_offset 24
 2608 0004 00AF     		add	r7, sp, #0
 2609              		.cfi_def_cfa_register 7
 2610 0006 7860     		str	r0, [r7, #4]
 2611 0008 3960     		str	r1, [r7]
 883:Generated_Source\PSoC6\pdl\drivers\peripheral\scb/cy_scb_ezi2c.c ****     /* Default actions: ACK address 1 */
 884:Generated_Source\PSoC6\pdl\drivers\peripheral\scb/cy_scb_ezi2c.c ****     uint32_t cmd = SCB_I2C_S_CMD_S_ACK_Msk;
 2612              		.loc 3 884 0
 2613 000a 0123     		movs	r3, #1
 2614 000c FB60     		str	r3, [r7, #12]
 885:Generated_Source\PSoC6\pdl\drivers\peripheral\scb/cy_scb_ezi2c.c ****     context->addr1Active = true;
 2615              		.loc 3 885 0
 2616 000e 3B68     		ldr	r3, [r7]
 2617 0010 0122     		movs	r2, #1
 2618 0012 1A76     		strb	r2, [r3, #24]
 886:Generated_Source\PSoC6\pdl\drivers\peripheral\scb/cy_scb_ezi2c.c **** 
 887:Generated_Source\PSoC6\pdl\drivers\peripheral\scb/cy_scb_ezi2c.c ****     if (0U != context->address2)
 2619              		.loc 3 887 0
 2620 0014 3B68     		ldr	r3, [r7]
 2621 0016 5B7A     		ldrb	r3, [r3, #9]
 2622 0018 002B     		cmp	r3, #0
 2623 001a 38D0     		beq	.L163
 2624              	.LBB2:
ARM GAS  C:\Users\salaz\AppData\Local\Temp\ccU0pQaU.s 			page 104


 888:Generated_Source\PSoC6\pdl\drivers\peripheral\scb/cy_scb_ezi2c.c ****     {
 889:Generated_Source\PSoC6\pdl\drivers\peripheral\scb/cy_scb_ezi2c.c ****         /* Get an address from the RX FIFO and make it a 7-bit address */
 890:Generated_Source\PSoC6\pdl\drivers\peripheral\scb/cy_scb_ezi2c.c ****         uint32_t address = (Cy_SCB_ReadRxFifo(base) >> 1UL);
 2625              		.loc 3 890 0
 2626 001c 7B68     		ldr	r3, [r7, #4]
 2627 001e 1800     		movs	r0, r3
 2628 0020 FFF7FEFF 		bl	Cy_SCB_ReadRxFifo
 2629 0024 0300     		movs	r3, r0
 2630 0026 5B08     		lsrs	r3, r3, #1
 2631 0028 BB60     		str	r3, [r7, #8]
 891:Generated_Source\PSoC6\pdl\drivers\peripheral\scb/cy_scb_ezi2c.c ****         Cy_SCB_ClearRxInterrupt(base, CY_SCB_RX_INTR_LEVEL);
 2632              		.loc 3 891 0
 2633 002a 7B68     		ldr	r3, [r7, #4]
 2634 002c 0121     		movs	r1, #1
 2635 002e 1800     		movs	r0, r3
 2636 0030 FFF7FEFF 		bl	Cy_SCB_ClearRxInterrupt
 892:Generated_Source\PSoC6\pdl\drivers\peripheral\scb/cy_scb_ezi2c.c **** 
 893:Generated_Source\PSoC6\pdl\drivers\peripheral\scb/cy_scb_ezi2c.c ****         /* Decide whether the address matches */
 894:Generated_Source\PSoC6\pdl\drivers\peripheral\scb/cy_scb_ezi2c.c ****         if ((address == context->address1) || (address == context->address2))
 2637              		.loc 3 894 0
 2638 0034 3B68     		ldr	r3, [r7]
 2639 0036 1B7A     		ldrb	r3, [r3, #8]
 2640 0038 1A00     		movs	r2, r3
 2641 003a BB68     		ldr	r3, [r7, #8]
 2642 003c 9A42     		cmp	r2, r3
 2643 003e 05D0     		beq	.L164
 2644              		.loc 3 894 0 is_stmt 0 discriminator 1
 2645 0040 3B68     		ldr	r3, [r7]
 2646 0042 5B7A     		ldrb	r3, [r3, #9]
 2647 0044 1A00     		movs	r2, r3
 2648 0046 BB68     		ldr	r3, [r7, #8]
 2649 0048 9A42     		cmp	r2, r3
 2650 004a 16D1     		bne	.L165
 2651              	.L164:
 895:Generated_Source\PSoC6\pdl\drivers\peripheral\scb/cy_scb_ezi2c.c ****         {
 896:Generated_Source\PSoC6\pdl\drivers\peripheral\scb/cy_scb_ezi2c.c ****             /* ACK the address */
 897:Generated_Source\PSoC6\pdl\drivers\peripheral\scb/cy_scb_ezi2c.c ****             if (address == context->address2)
 2652              		.loc 3 897 0 is_stmt 1
 2653 004c 3B68     		ldr	r3, [r7]
 2654 004e 5B7A     		ldrb	r3, [r3, #9]
 2655 0050 1A00     		movs	r2, r3
 2656 0052 BB68     		ldr	r3, [r7, #8]
 2657 0054 9A42     		cmp	r2, r3
 2658 0056 02D1     		bne	.L166
 898:Generated_Source\PSoC6\pdl\drivers\peripheral\scb/cy_scb_ezi2c.c ****             {
 899:Generated_Source\PSoC6\pdl\drivers\peripheral\scb/cy_scb_ezi2c.c ****                 context->addr1Active = false;
 2659              		.loc 3 899 0
 2660 0058 3B68     		ldr	r3, [r7]
 2661 005a 0022     		movs	r2, #0
 2662 005c 1A76     		strb	r2, [r3, #24]
 2663              	.L166:
 900:Generated_Source\PSoC6\pdl\drivers\peripheral\scb/cy_scb_ezi2c.c ****             }
 901:Generated_Source\PSoC6\pdl\drivers\peripheral\scb/cy_scb_ezi2c.c **** 
 902:Generated_Source\PSoC6\pdl\drivers\peripheral\scb/cy_scb_ezi2c.c ****             /* Clear and enable the stop interrupt source */
 903:Generated_Source\PSoC6\pdl\drivers\peripheral\scb/cy_scb_ezi2c.c ****             Cy_SCB_ClearSlaveInterrupt  (base, CY_SCB_SLAVE_INTR_I2C_STOP);
 2664              		.loc 3 903 0
 2665 005e 7B68     		ldr	r3, [r7, #4]
ARM GAS  C:\Users\salaz\AppData\Local\Temp\ccU0pQaU.s 			page 105


 2666 0060 1021     		movs	r1, #16
 2667 0062 1800     		movs	r0, r3
 2668 0064 FFF7FEFF 		bl	Cy_SCB_ClearSlaveInterrupt
 904:Generated_Source\PSoC6\pdl\drivers\peripheral\scb/cy_scb_ezi2c.c ****             Cy_SCB_SetSlaveInterruptMask(base, CY_SCB_EZI2C_SLAVE_INTR);
 2669              		.loc 3 904 0
 2670 0068 5223     		movs	r3, #82
 2671 006a FF33     		adds	r3, r3, #255
 2672 006c 1A00     		movs	r2, r3
 2673 006e 7B68     		ldr	r3, [r7, #4]
 2674 0070 1100     		movs	r1, r2
 2675 0072 1800     		movs	r0, r3
 2676 0074 FFF7FEFF 		bl	Cy_SCB_SetSlaveInterruptMask
 2677 0078 09E0     		b	.L163
 2678              	.L165:
 905:Generated_Source\PSoC6\pdl\drivers\peripheral\scb/cy_scb_ezi2c.c ****         }
 906:Generated_Source\PSoC6\pdl\drivers\peripheral\scb/cy_scb_ezi2c.c ****         else
 907:Generated_Source\PSoC6\pdl\drivers\peripheral\scb/cy_scb_ezi2c.c ****         {
 908:Generated_Source\PSoC6\pdl\drivers\peripheral\scb/cy_scb_ezi2c.c ****             /* NACK the address */
 909:Generated_Source\PSoC6\pdl\drivers\peripheral\scb/cy_scb_ezi2c.c ****             cmd = SCB_I2C_S_CMD_S_NACK_Msk;
 2679              		.loc 3 909 0
 2680 007a 0223     		movs	r3, #2
 2681 007c FB60     		str	r3, [r7, #12]
 910:Generated_Source\PSoC6\pdl\drivers\peripheral\scb/cy_scb_ezi2c.c **** 
 911:Generated_Source\PSoC6\pdl\drivers\peripheral\scb/cy_scb_ezi2c.c ****             /* Disable the stop interrupt source */
 912:Generated_Source\PSoC6\pdl\drivers\peripheral\scb/cy_scb_ezi2c.c ****             Cy_SCB_SetI2CInterruptMask(base, CY_SCB_EZI2C_SLAVE_INTR_NO_STOP);
 2682              		.loc 3 912 0
 2683 007e 4223     		movs	r3, #66
 2684 0080 FF33     		adds	r3, r3, #255
 2685 0082 1A00     		movs	r2, r3
 2686 0084 7B68     		ldr	r3, [r7, #4]
 2687 0086 1100     		movs	r1, r2
 2688 0088 1800     		movs	r0, r3
 2689 008a FFF7FEFF 		bl	Cy_SCB_SetI2CInterruptMask
 2690              	.L163:
 2691              	.LBE2:
 913:Generated_Source\PSoC6\pdl\drivers\peripheral\scb/cy_scb_ezi2c.c ****         }
 914:Generated_Source\PSoC6\pdl\drivers\peripheral\scb/cy_scb_ezi2c.c ****     }
 915:Generated_Source\PSoC6\pdl\drivers\peripheral\scb/cy_scb_ezi2c.c **** 
 916:Generated_Source\PSoC6\pdl\drivers\peripheral\scb/cy_scb_ezi2c.c ****     /* Clear the TX FIFO before continuing the transaction */
 917:Generated_Source\PSoC6\pdl\drivers\peripheral\scb/cy_scb_ezi2c.c ****     Cy_SCB_ClearTxFifo(base);
 2692              		.loc 3 917 0
 2693 008e 7B68     		ldr	r3, [r7, #4]
 2694 0090 1800     		movs	r0, r3
 2695 0092 FFF7FEFF 		bl	Cy_SCB_ClearTxFifo
 918:Generated_Source\PSoC6\pdl\drivers\peripheral\scb/cy_scb_ezi2c.c **** 
 919:Generated_Source\PSoC6\pdl\drivers\peripheral\scb/cy_scb_ezi2c.c ****     /* Set the command to an ACK or NACK address */
 920:Generated_Source\PSoC6\pdl\drivers\peripheral\scb/cy_scb_ezi2c.c ****     base->I2C_S_CMD = cmd;
 2696              		.loc 3 920 0
 2697 0096 7B68     		ldr	r3, [r7, #4]
 2698 0098 FA68     		ldr	r2, [r7, #12]
 2699 009a DA66     		str	r2, [r3, #108]
 921:Generated_Source\PSoC6\pdl\drivers\peripheral\scb/cy_scb_ezi2c.c **** 
 922:Generated_Source\PSoC6\pdl\drivers\peripheral\scb/cy_scb_ezi2c.c ****     if (cmd == SCB_I2C_S_CMD_S_ACK_Msk)
 2700              		.loc 3 922 0
 2701 009c FB68     		ldr	r3, [r7, #12]
 2702 009e 012B     		cmp	r3, #1
 2703 00a0 4CD1     		bne	.L173
ARM GAS  C:\Users\salaz\AppData\Local\Temp\ccU0pQaU.s 			page 106


 923:Generated_Source\PSoC6\pdl\drivers\peripheral\scb/cy_scb_ezi2c.c ****     {
 924:Generated_Source\PSoC6\pdl\drivers\peripheral\scb/cy_scb_ezi2c.c ****         context->status |= CY_SCB_EZI2C_STATUS_BUSY;
 2704              		.loc 3 924 0
 2705 00a2 3B68     		ldr	r3, [r7]
 2706 00a4 5B68     		ldr	r3, [r3, #4]
 2707 00a6 1022     		movs	r2, #16
 2708 00a8 1A43     		orrs	r2, r3
 2709 00aa 3B68     		ldr	r3, [r7]
 2710 00ac 5A60     		str	r2, [r3, #4]
 925:Generated_Source\PSoC6\pdl\drivers\peripheral\scb/cy_scb_ezi2c.c **** 
 926:Generated_Source\PSoC6\pdl\drivers\peripheral\scb/cy_scb_ezi2c.c ****         /* Prepare for a transaction */
 927:Generated_Source\PSoC6\pdl\drivers\peripheral\scb/cy_scb_ezi2c.c ****         if (_FLD2BOOL(SCB_I2C_STATUS_S_READ,base->I2C_STATUS))
 2711              		.loc 3 927 0
 2712 00ae 7B68     		ldr	r3, [r7, #4]
 2713 00b0 5B6E     		ldr	r3, [r3, #100]
 2714 00b2 1022     		movs	r2, #16
 2715 00b4 1340     		ands	r3, r2
 2716 00b6 29D0     		beq	.L168
 928:Generated_Source\PSoC6\pdl\drivers\peripheral\scb/cy_scb_ezi2c.c ****         {
 929:Generated_Source\PSoC6\pdl\drivers\peripheral\scb/cy_scb_ezi2c.c ****             /* The master reads data from the slave */
 930:Generated_Source\PSoC6\pdl\drivers\peripheral\scb/cy_scb_ezi2c.c ****             context->state = CY_SCB_EZI2C_STATE_TX_DATA;
 2717              		.loc 3 930 0
 2718 00b8 3B68     		ldr	r3, [r7]
 2719 00ba 0622     		movs	r2, #6
 2720 00bc 1A70     		strb	r2, [r3]
 931:Generated_Source\PSoC6\pdl\drivers\peripheral\scb/cy_scb_ezi2c.c **** 
 932:Generated_Source\PSoC6\pdl\drivers\peripheral\scb/cy_scb_ezi2c.c ****             /* Prepare the buffer for transmit */
 933:Generated_Source\PSoC6\pdl\drivers\peripheral\scb/cy_scb_ezi2c.c ****             if (context->addr1Active)
 2721              		.loc 3 933 0
 2722 00be 3B68     		ldr	r3, [r7]
 2723 00c0 1B7E     		ldrb	r3, [r3, #24]
 2724 00c2 002B     		cmp	r3, #0
 2725 00c4 0ED0     		beq	.L169
 934:Generated_Source\PSoC6\pdl\drivers\peripheral\scb/cy_scb_ezi2c.c ****             {
 935:Generated_Source\PSoC6\pdl\drivers\peripheral\scb/cy_scb_ezi2c.c ****                 context->curBuf  = &context->buf1[context->baseAddr1];
 2726              		.loc 3 935 0
 2727 00c6 3B68     		ldr	r3, [r7]
 2728 00c8 5A6A     		ldr	r2, [r3, #36]
 2729 00ca 3B68     		ldr	r3, [r7]
 2730 00cc 1B69     		ldr	r3, [r3, #16]
 2731 00ce D218     		adds	r2, r2, r3
 2732 00d0 3B68     		ldr	r3, [r7]
 2733 00d2 DA61     		str	r2, [r3, #28]
 936:Generated_Source\PSoC6\pdl\drivers\peripheral\scb/cy_scb_ezi2c.c ****                 context->bufSize = context->buf1Size - context->baseAddr1;
 2734              		.loc 3 936 0
 2735 00d4 3B68     		ldr	r3, [r7]
 2736 00d6 9A6A     		ldr	r2, [r3, #40]
 2737 00d8 3B68     		ldr	r3, [r7]
 2738 00da 1B69     		ldr	r3, [r3, #16]
 2739 00dc D21A     		subs	r2, r2, r3
 2740 00de 3B68     		ldr	r3, [r7]
 2741 00e0 1A62     		str	r2, [r3, #32]
 2742 00e2 0DE0     		b	.L170
 2743              	.L169:
 937:Generated_Source\PSoC6\pdl\drivers\peripheral\scb/cy_scb_ezi2c.c ****             }
 938:Generated_Source\PSoC6\pdl\drivers\peripheral\scb/cy_scb_ezi2c.c ****             else
 939:Generated_Source\PSoC6\pdl\drivers\peripheral\scb/cy_scb_ezi2c.c ****             {
ARM GAS  C:\Users\salaz\AppData\Local\Temp\ccU0pQaU.s 			page 107


 940:Generated_Source\PSoC6\pdl\drivers\peripheral\scb/cy_scb_ezi2c.c ****                 context->curBuf  = &context->buf2[context->baseAddr2];
 2744              		.loc 3 940 0
 2745 00e4 3B68     		ldr	r3, [r7]
 2746 00e6 1A6B     		ldr	r2, [r3, #48]
 2747 00e8 3B68     		ldr	r3, [r7]
 2748 00ea 5B69     		ldr	r3, [r3, #20]
 2749 00ec D218     		adds	r2, r2, r3
 2750 00ee 3B68     		ldr	r3, [r7]
 2751 00f0 DA61     		str	r2, [r3, #28]
 941:Generated_Source\PSoC6\pdl\drivers\peripheral\scb/cy_scb_ezi2c.c ****                 context->bufSize = context->buf2Size - context->baseAddr2;
 2752              		.loc 3 941 0
 2753 00f2 3B68     		ldr	r3, [r7]
 2754 00f4 5A6B     		ldr	r2, [r3, #52]
 2755 00f6 3B68     		ldr	r3, [r7]
 2756 00f8 5B69     		ldr	r3, [r3, #20]
 2757 00fa D21A     		subs	r2, r2, r3
 2758 00fc 3B68     		ldr	r3, [r7]
 2759 00fe 1A62     		str	r2, [r3, #32]
 2760              	.L170:
 942:Generated_Source\PSoC6\pdl\drivers\peripheral\scb/cy_scb_ezi2c.c ****             }
 943:Generated_Source\PSoC6\pdl\drivers\peripheral\scb/cy_scb_ezi2c.c **** 
 944:Generated_Source\PSoC6\pdl\drivers\peripheral\scb/cy_scb_ezi2c.c ****             Cy_SCB_SetTxInterruptMask(base, CY_SCB_TX_INTR_LEVEL);
 2761              		.loc 3 944 0
 2762 0100 7B68     		ldr	r3, [r7, #4]
 2763 0102 0121     		movs	r1, #1
 2764 0104 1800     		movs	r0, r3
 2765 0106 FFF7FEFF 		bl	Cy_SCB_SetTxInterruptMask
 945:Generated_Source\PSoC6\pdl\drivers\peripheral\scb/cy_scb_ezi2c.c ****         }
 946:Generated_Source\PSoC6\pdl\drivers\peripheral\scb/cy_scb_ezi2c.c ****         else
 947:Generated_Source\PSoC6\pdl\drivers\peripheral\scb/cy_scb_ezi2c.c ****         {
 948:Generated_Source\PSoC6\pdl\drivers\peripheral\scb/cy_scb_ezi2c.c ****             /* The master writes data into the slave */
 949:Generated_Source\PSoC6\pdl\drivers\peripheral\scb/cy_scb_ezi2c.c ****             context->state = CY_SCB_EZI2C_STATE_RX_OFFSET_MSB;
 950:Generated_Source\PSoC6\pdl\drivers\peripheral\scb/cy_scb_ezi2c.c **** 
 951:Generated_Source\PSoC6\pdl\drivers\peripheral\scb/cy_scb_ezi2c.c ****             context->bufSize = ((context->addr1Active) ? context->buf1Size : context->buf2Size);
 952:Generated_Source\PSoC6\pdl\drivers\peripheral\scb/cy_scb_ezi2c.c **** 
 953:Generated_Source\PSoC6\pdl\drivers\peripheral\scb/cy_scb_ezi2c.c ****             Cy_SCB_SetRxFifoLevel    (base, 0UL);
 954:Generated_Source\PSoC6\pdl\drivers\peripheral\scb/cy_scb_ezi2c.c ****             Cy_SCB_SetRxInterruptMask(base, CY_SCB_RX_INTR_LEVEL);
 955:Generated_Source\PSoC6\pdl\drivers\peripheral\scb/cy_scb_ezi2c.c ****         }
 956:Generated_Source\PSoC6\pdl\drivers\peripheral\scb/cy_scb_ezi2c.c ****     }
 957:Generated_Source\PSoC6\pdl\drivers\peripheral\scb/cy_scb_ezi2c.c **** }
 2766              		.loc 3 957 0
 2767 010a 17E0     		b	.L173
 2768              	.L168:
 949:Generated_Source\PSoC6\pdl\drivers\peripheral\scb/cy_scb_ezi2c.c **** 
 2769              		.loc 3 949 0
 2770 010c 3B68     		ldr	r3, [r7]
 2771 010e 0222     		movs	r2, #2
 2772 0110 1A70     		strb	r2, [r3]
 951:Generated_Source\PSoC6\pdl\drivers\peripheral\scb/cy_scb_ezi2c.c **** 
 2773              		.loc 3 951 0
 2774 0112 3B68     		ldr	r3, [r7]
 2775 0114 1B7E     		ldrb	r3, [r3, #24]
 2776 0116 002B     		cmp	r3, #0
 2777 0118 02D0     		beq	.L171
 951:Generated_Source\PSoC6\pdl\drivers\peripheral\scb/cy_scb_ezi2c.c **** 
 2778              		.loc 3 951 0 is_stmt 0 discriminator 1
 2779 011a 3B68     		ldr	r3, [r7]
ARM GAS  C:\Users\salaz\AppData\Local\Temp\ccU0pQaU.s 			page 108


 2780 011c 9A6A     		ldr	r2, [r3, #40]
 2781 011e 01E0     		b	.L172
 2782              	.L171:
 951:Generated_Source\PSoC6\pdl\drivers\peripheral\scb/cy_scb_ezi2c.c **** 
 2783              		.loc 3 951 0 discriminator 2
 2784 0120 3B68     		ldr	r3, [r7]
 2785 0122 5A6B     		ldr	r2, [r3, #52]
 2786              	.L172:
 951:Generated_Source\PSoC6\pdl\drivers\peripheral\scb/cy_scb_ezi2c.c **** 
 2787              		.loc 3 951 0 discriminator 4
 2788 0124 3B68     		ldr	r3, [r7]
 2789 0126 1A62     		str	r2, [r3, #32]
 953:Generated_Source\PSoC6\pdl\drivers\peripheral\scb/cy_scb_ezi2c.c ****             Cy_SCB_SetRxInterruptMask(base, CY_SCB_RX_INTR_LEVEL);
 2790              		.loc 3 953 0 is_stmt 1 discriminator 4
 2791 0128 7B68     		ldr	r3, [r7, #4]
 2792 012a 0021     		movs	r1, #0
 2793 012c 1800     		movs	r0, r3
 2794 012e FFF7FEFF 		bl	Cy_SCB_SetRxFifoLevel
 954:Generated_Source\PSoC6\pdl\drivers\peripheral\scb/cy_scb_ezi2c.c ****         }
 2795              		.loc 3 954 0 discriminator 4
 2796 0132 7B68     		ldr	r3, [r7, #4]
 2797 0134 0121     		movs	r1, #1
 2798 0136 1800     		movs	r0, r3
 2799 0138 FFF7FEFF 		bl	Cy_SCB_SetRxInterruptMask
 2800              	.L173:
 2801              		.loc 3 957 0
 2802 013c C046     		nop
 2803 013e BD46     		mov	sp, r7
 2804 0140 04B0     		add	sp, sp, #16
 2805              		@ sp needed
 2806 0142 80BD     		pop	{r7, pc}
 2807              		.cfi_endproc
 2808              	.LFE136:
 2809              		.size	HandleAddress, .-HandleAddress
 2810              		.section	.text.UpdateRxFifoLevel,"ax",%progbits
 2811              		.align	2
 2812              		.code	16
 2813              		.thumb_func
 2814              		.type	UpdateRxFifoLevel, %function
 2815              	UpdateRxFifoLevel:
 2816              	.LFB137:
 958:Generated_Source\PSoC6\pdl\drivers\peripheral\scb/cy_scb_ezi2c.c **** 
 959:Generated_Source\PSoC6\pdl\drivers\peripheral\scb/cy_scb_ezi2c.c **** 
 960:Generated_Source\PSoC6\pdl\drivers\peripheral\scb/cy_scb_ezi2c.c **** /*******************************************************************************
 961:Generated_Source\PSoC6\pdl\drivers\peripheral\scb/cy_scb_ezi2c.c **** * Function Name: HandleDataReceive
 962:Generated_Source\PSoC6\pdl\drivers\peripheral\scb/cy_scb_ezi2c.c **** ****************************************************************************//**
 963:Generated_Source\PSoC6\pdl\drivers\peripheral\scb/cy_scb_ezi2c.c **** *
 964:Generated_Source\PSoC6\pdl\drivers\peripheral\scb/cy_scb_ezi2c.c **** * Updates the RX FIFO level to trigger the next read from it. It also manages
 965:Generated_Source\PSoC6\pdl\drivers\peripheral\scb/cy_scb_ezi2c.c **** * the auto-data NACK feature.
 966:Generated_Source\PSoC6\pdl\drivers\peripheral\scb/cy_scb_ezi2c.c **** *
 967:Generated_Source\PSoC6\pdl\drivers\peripheral\scb/cy_scb_ezi2c.c **** * \param base
 968:Generated_Source\PSoC6\pdl\drivers\peripheral\scb/cy_scb_ezi2c.c **** * The pointer to the EZI2C SCB instance.
 969:Generated_Source\PSoC6\pdl\drivers\peripheral\scb/cy_scb_ezi2c.c **** *
 970:Generated_Source\PSoC6\pdl\drivers\peripheral\scb/cy_scb_ezi2c.c **** * \param bufSize
 971:Generated_Source\PSoC6\pdl\drivers\peripheral\scb/cy_scb_ezi2c.c **** * The size of the buffer in bytes.
 972:Generated_Source\PSoC6\pdl\drivers\peripheral\scb/cy_scb_ezi2c.c **** *
 973:Generated_Source\PSoC6\pdl\drivers\peripheral\scb/cy_scb_ezi2c.c **** *******************************************************************************/
ARM GAS  C:\Users\salaz\AppData\Local\Temp\ccU0pQaU.s 			page 109


 974:Generated_Source\PSoC6\pdl\drivers\peripheral\scb/cy_scb_ezi2c.c **** static void UpdateRxFifoLevel(CySCB_Type *base, uint32_t bufSize)
 975:Generated_Source\PSoC6\pdl\drivers\peripheral\scb/cy_scb_ezi2c.c **** {
 2817              		.loc 3 975 0
 2818              		.cfi_startproc
 2819              		@ args = 0, pretend = 0, frame = 16
 2820              		@ frame_needed = 1, uses_anonymous_args = 0
 2821 0000 80B5     		push	{r7, lr}
 2822              		.cfi_def_cfa_offset 8
 2823              		.cfi_offset 7, -8
 2824              		.cfi_offset 14, -4
 2825 0002 84B0     		sub	sp, sp, #16
 2826              		.cfi_def_cfa_offset 24
 2827 0004 00AF     		add	r7, sp, #0
 2828              		.cfi_def_cfa_register 7
 2829 0006 7860     		str	r0, [r7, #4]
 2830 0008 3960     		str	r1, [r7]
 976:Generated_Source\PSoC6\pdl\drivers\peripheral\scb/cy_scb_ezi2c.c ****     uint32_t level;
 977:Generated_Source\PSoC6\pdl\drivers\peripheral\scb/cy_scb_ezi2c.c ****     uint32_t fifoSize = CY_SCB_EZI2C_FIFO_SIZE(base);
 2831              		.loc 3 977 0
 2832 000a 8023     		movs	r3, #128
 2833 000c BB60     		str	r3, [r7, #8]
 978:Generated_Source\PSoC6\pdl\drivers\peripheral\scb/cy_scb_ezi2c.c **** 
 979:Generated_Source\PSoC6\pdl\drivers\peripheral\scb/cy_scb_ezi2c.c ****     if (bufSize > fifoSize)
 2834              		.loc 3 979 0
 2835 000e 3A68     		ldr	r2, [r7]
 2836 0010 BB68     		ldr	r3, [r7, #8]
 2837 0012 9A42     		cmp	r2, r3
 2838 0014 0FD9     		bls	.L175
 980:Generated_Source\PSoC6\pdl\drivers\peripheral\scb/cy_scb_ezi2c.c ****     {
 981:Generated_Source\PSoC6\pdl\drivers\peripheral\scb/cy_scb_ezi2c.c ****         /* Continue the transaction: there is space in the buffer */
 982:Generated_Source\PSoC6\pdl\drivers\peripheral\scb/cy_scb_ezi2c.c ****         level = (bufSize - fifoSize);
 2839              		.loc 3 982 0
 2840 0016 3A68     		ldr	r2, [r7]
 2841 0018 BB68     		ldr	r3, [r7, #8]
 2842 001a D31A     		subs	r3, r2, r3
 2843 001c FB60     		str	r3, [r7, #12]
 983:Generated_Source\PSoC6\pdl\drivers\peripheral\scb/cy_scb_ezi2c.c ****         level = ((level > fifoSize) ? (fifoSize / 2UL) : level) - 1UL;
 2844              		.loc 3 983 0
 2845 001e FA68     		ldr	r2, [r7, #12]
 2846 0020 BB68     		ldr	r3, [r7, #8]
 2847 0022 9A42     		cmp	r2, r3
 2848 0024 03D9     		bls	.L176
 2849              		.loc 3 983 0 is_stmt 0 discriminator 1
 2850 0026 BB68     		ldr	r3, [r7, #8]
 2851 0028 5B08     		lsrs	r3, r3, #1
 2852 002a 013B     		subs	r3, r3, #1
 2853 002c 01E0     		b	.L177
 2854              	.L176:
 2855              		.loc 3 983 0 discriminator 2
 2856 002e FB68     		ldr	r3, [r7, #12]
 2857 0030 013B     		subs	r3, r3, #1
 2858              	.L177:
 2859              		.loc 3 983 0 discriminator 4
 2860 0032 FB60     		str	r3, [r7, #12]
 2861 0034 13E0     		b	.L178
 2862              	.L175:
 984:Generated_Source\PSoC6\pdl\drivers\peripheral\scb/cy_scb_ezi2c.c ****     }
ARM GAS  C:\Users\salaz\AppData\Local\Temp\ccU0pQaU.s 			page 110


 985:Generated_Source\PSoC6\pdl\drivers\peripheral\scb/cy_scb_ezi2c.c ****     else
 986:Generated_Source\PSoC6\pdl\drivers\peripheral\scb/cy_scb_ezi2c.c ****     {
 987:Generated_Source\PSoC6\pdl\drivers\peripheral\scb/cy_scb_ezi2c.c ****         /* Prepare to end the transaction: after the FIFO becomes full, NACK the next byte.
 988:Generated_Source\PSoC6\pdl\drivers\peripheral\scb/cy_scb_ezi2c.c ****         * The NACKed byte is dropped by the hardware.
 989:Generated_Source\PSoC6\pdl\drivers\peripheral\scb/cy_scb_ezi2c.c ****         */
 990:Generated_Source\PSoC6\pdl\drivers\peripheral\scb/cy_scb_ezi2c.c ****         base->I2C_CTRL |= SCB_I2C_CTRL_S_NOT_READY_DATA_NACK_Msk;
 2863              		.loc 3 990 0 is_stmt 1
 2864 0036 7B68     		ldr	r3, [r7, #4]
 2865 0038 1B6E     		ldr	r3, [r3, #96]
 2866 003a 8022     		movs	r2, #128
 2867 003c 1202     		lsls	r2, r2, #8
 2868 003e 1A43     		orrs	r2, r3
 2869 0040 7B68     		ldr	r3, [r7, #4]
 2870 0042 1A66     		str	r2, [r3, #96]
 991:Generated_Source\PSoC6\pdl\drivers\peripheral\scb/cy_scb_ezi2c.c **** 
 992:Generated_Source\PSoC6\pdl\drivers\peripheral\scb/cy_scb_ezi2c.c ****         level = ((bufSize == 0UL) ? (0UL) : (bufSize - 1UL));
 2871              		.loc 3 992 0
 2872 0044 3B68     		ldr	r3, [r7]
 2873 0046 002B     		cmp	r3, #0
 2874 0048 02D0     		beq	.L179
 2875              		.loc 3 992 0 is_stmt 0 discriminator 1
 2876 004a 3B68     		ldr	r3, [r7]
 2877 004c 013B     		subs	r3, r3, #1
 2878 004e 00E0     		b	.L180
 2879              	.L179:
 2880              		.loc 3 992 0 discriminator 2
 2881 0050 0023     		movs	r3, #0
 2882              	.L180:
 2883              		.loc 3 992 0 discriminator 4
 2884 0052 FB60     		str	r3, [r7, #12]
 993:Generated_Source\PSoC6\pdl\drivers\peripheral\scb/cy_scb_ezi2c.c ****         Cy_SCB_SetRxInterruptMask(base, CY_SCB_CLEAR_ALL_INTR_SRC);
 2885              		.loc 3 993 0 is_stmt 1 discriminator 4
 2886 0054 7B68     		ldr	r3, [r7, #4]
 2887 0056 0021     		movs	r1, #0
 2888 0058 1800     		movs	r0, r3
 2889 005a FFF7FEFF 		bl	Cy_SCB_SetRxInterruptMask
 2890              	.L178:
 994:Generated_Source\PSoC6\pdl\drivers\peripheral\scb/cy_scb_ezi2c.c ****     }
 995:Generated_Source\PSoC6\pdl\drivers\peripheral\scb/cy_scb_ezi2c.c **** 
 996:Generated_Source\PSoC6\pdl\drivers\peripheral\scb/cy_scb_ezi2c.c ****     Cy_SCB_SetRxFifoLevel(base, level);
 2891              		.loc 3 996 0
 2892 005e FA68     		ldr	r2, [r7, #12]
 2893 0060 7B68     		ldr	r3, [r7, #4]
 2894 0062 1100     		movs	r1, r2
 2895 0064 1800     		movs	r0, r3
 2896 0066 FFF7FEFF 		bl	Cy_SCB_SetRxFifoLevel
 997:Generated_Source\PSoC6\pdl\drivers\peripheral\scb/cy_scb_ezi2c.c **** }
 2897              		.loc 3 997 0
 2898 006a C046     		nop
 2899 006c BD46     		mov	sp, r7
 2900 006e 04B0     		add	sp, sp, #16
 2901              		@ sp needed
 2902 0070 80BD     		pop	{r7, pc}
 2903              		.cfi_endproc
 2904              	.LFE137:
 2905              		.size	UpdateRxFifoLevel, .-UpdateRxFifoLevel
 2906 0072 C046     		.section	.text.HandleDataReceive,"ax",%progbits
ARM GAS  C:\Users\salaz\AppData\Local\Temp\ccU0pQaU.s 			page 111


 2907              		.align	2
 2908              		.code	16
 2909              		.thumb_func
 2910              		.type	HandleDataReceive, %function
 2911              	HandleDataReceive:
 2912              	.LFB138:
 998:Generated_Source\PSoC6\pdl\drivers\peripheral\scb/cy_scb_ezi2c.c **** 
 999:Generated_Source\PSoC6\pdl\drivers\peripheral\scb/cy_scb_ezi2c.c **** 
1000:Generated_Source\PSoC6\pdl\drivers\peripheral\scb/cy_scb_ezi2c.c **** /*******************************************************************************
1001:Generated_Source\PSoC6\pdl\drivers\peripheral\scb/cy_scb_ezi2c.c **** * Function Name: HandleDataReceive
1002:Generated_Source\PSoC6\pdl\drivers\peripheral\scb/cy_scb_ezi2c.c **** ****************************************************************************//**
1003:Generated_Source\PSoC6\pdl\drivers\peripheral\scb/cy_scb_ezi2c.c **** *
1004:Generated_Source\PSoC6\pdl\drivers\peripheral\scb/cy_scb_ezi2c.c **** * Handles the data read from the RX FIFO.
1005:Generated_Source\PSoC6\pdl\drivers\peripheral\scb/cy_scb_ezi2c.c **** *
1006:Generated_Source\PSoC6\pdl\drivers\peripheral\scb/cy_scb_ezi2c.c **** * \param base
1007:Generated_Source\PSoC6\pdl\drivers\peripheral\scb/cy_scb_ezi2c.c **** * The pointer to the EZI2C SCB instance.
1008:Generated_Source\PSoC6\pdl\drivers\peripheral\scb/cy_scb_ezi2c.c **** *
1009:Generated_Source\PSoC6\pdl\drivers\peripheral\scb/cy_scb_ezi2c.c **** * \param context
1010:Generated_Source\PSoC6\pdl\drivers\peripheral\scb/cy_scb_ezi2c.c **** * The pointer to the context structure \ref cy_stc_scb_ezi2c_context_t allocated
1011:Generated_Source\PSoC6\pdl\drivers\peripheral\scb/cy_scb_ezi2c.c **** * by the user. The structure is used during the EZI2C operation for internal
1012:Generated_Source\PSoC6\pdl\drivers\peripheral\scb/cy_scb_ezi2c.c **** * configuration and data retention. The user must not modify anything
1013:Generated_Source\PSoC6\pdl\drivers\peripheral\scb/cy_scb_ezi2c.c **** * in this structure.
1014:Generated_Source\PSoC6\pdl\drivers\peripheral\scb/cy_scb_ezi2c.c **** *
1015:Generated_Source\PSoC6\pdl\drivers\peripheral\scb/cy_scb_ezi2c.c **** *******************************************************************************/
1016:Generated_Source\PSoC6\pdl\drivers\peripheral\scb/cy_scb_ezi2c.c **** static void HandleDataReceive(CySCB_Type *base, cy_stc_scb_ezi2c_context_t *context)
1017:Generated_Source\PSoC6\pdl\drivers\peripheral\scb/cy_scb_ezi2c.c **** {
 2913              		.loc 3 1017 0
 2914              		.cfi_startproc
 2915              		@ args = 0, pretend = 0, frame = 32
 2916              		@ frame_needed = 1, uses_anonymous_args = 0
 2917 0000 80B5     		push	{r7, lr}
 2918              		.cfi_def_cfa_offset 8
 2919              		.cfi_offset 7, -8
 2920              		.cfi_offset 14, -4
 2921 0002 88B0     		sub	sp, sp, #32
 2922              		.cfi_def_cfa_offset 40
 2923 0004 00AF     		add	r7, sp, #0
 2924              		.cfi_def_cfa_register 7
 2925 0006 7860     		str	r0, [r7, #4]
 2926 0008 3960     		str	r1, [r7]
1018:Generated_Source\PSoC6\pdl\drivers\peripheral\scb/cy_scb_ezi2c.c ****     switch(context->state)
 2927              		.loc 3 1018 0
 2928 000a 3B68     		ldr	r3, [r7]
 2929 000c 1B78     		ldrb	r3, [r3]
 2930 000e DBB2     		uxtb	r3, r3
 2931 0010 042B     		cmp	r3, #4
 2932 0012 00D1     		bne	.LCB2565
 2933 0014 AEE0     		b	.L183	@long jump
 2934              	.LCB2565:
 2935 0016 03DC     		bgt	.L184
 2936 0018 022B     		cmp	r3, #2
 2937 001a 00DA     		bge	.LCB2569
 2938 001c FEE0     		b	.L208	@long jump
 2939              	.LCB2569:
 2940 001e 03E0     		b	.L207
 2941              	.L184:
 2942 0020 052B     		cmp	r3, #5
ARM GAS  C:\Users\salaz\AppData\Local\Temp\ccU0pQaU.s 			page 112


 2943 0022 00D1     		bne	.LCB2575
 2944 0024 D1E0     		b	.L186	@long jump
 2945              	.LCB2575:
1019:Generated_Source\PSoC6\pdl\drivers\peripheral\scb/cy_scb_ezi2c.c ****     {
1020:Generated_Source\PSoC6\pdl\drivers\peripheral\scb/cy_scb_ezi2c.c ****         case CY_SCB_EZI2C_STATE_RX_OFFSET_MSB:
1021:Generated_Source\PSoC6\pdl\drivers\peripheral\scb/cy_scb_ezi2c.c ****         case CY_SCB_EZI2C_STATE_RX_OFFSET_LSB:
1022:Generated_Source\PSoC6\pdl\drivers\peripheral\scb/cy_scb_ezi2c.c ****         {
1023:Generated_Source\PSoC6\pdl\drivers\peripheral\scb/cy_scb_ezi2c.c ****             /* Default actions: compare the base address and ACK it */
1024:Generated_Source\PSoC6\pdl\drivers\peripheral\scb/cy_scb_ezi2c.c ****             bool checkBaseAddr = true;
1025:Generated_Source\PSoC6\pdl\drivers\peripheral\scb/cy_scb_ezi2c.c **** 
1026:Generated_Source\PSoC6\pdl\drivers\peripheral\scb/cy_scb_ezi2c.c ****             /* Get the base address from the RX FIFO */
1027:Generated_Source\PSoC6\pdl\drivers\peripheral\scb/cy_scb_ezi2c.c ****             uint32_t baseAddr = Cy_SCB_ReadRxFifo(base);
1028:Generated_Source\PSoC6\pdl\drivers\peripheral\scb/cy_scb_ezi2c.c **** 
1029:Generated_Source\PSoC6\pdl\drivers\peripheral\scb/cy_scb_ezi2c.c ****             if (context->subAddrSize == CY_SCB_EZI2C_SUB_ADDR16_BITS)
1030:Generated_Source\PSoC6\pdl\drivers\peripheral\scb/cy_scb_ezi2c.c ****             {
1031:Generated_Source\PSoC6\pdl\drivers\peripheral\scb/cy_scb_ezi2c.c ****                 if (context->state == CY_SCB_EZI2C_STATE_RX_OFFSET_MSB)
1032:Generated_Source\PSoC6\pdl\drivers\peripheral\scb/cy_scb_ezi2c.c ****                 {
1033:Generated_Source\PSoC6\pdl\drivers\peripheral\scb/cy_scb_ezi2c.c ****                     /* ACK base address MSB */
1034:Generated_Source\PSoC6\pdl\drivers\peripheral\scb/cy_scb_ezi2c.c ****                     base->I2C_S_CMD = SCB_I2C_S_CMD_S_ACK_Msk;
1035:Generated_Source\PSoC6\pdl\drivers\peripheral\scb/cy_scb_ezi2c.c **** 
1036:Generated_Source\PSoC6\pdl\drivers\peripheral\scb/cy_scb_ezi2c.c ****                     /* Temporary store base address MSB */
1037:Generated_Source\PSoC6\pdl\drivers\peripheral\scb/cy_scb_ezi2c.c ****                     context->idx = (uint32_t) (baseAddr << 8UL);
1038:Generated_Source\PSoC6\pdl\drivers\peripheral\scb/cy_scb_ezi2c.c **** 
1039:Generated_Source\PSoC6\pdl\drivers\peripheral\scb/cy_scb_ezi2c.c ****                     /* Do not compare until 16 bits are received */
1040:Generated_Source\PSoC6\pdl\drivers\peripheral\scb/cy_scb_ezi2c.c ****                     checkBaseAddr = false;
1041:Generated_Source\PSoC6\pdl\drivers\peripheral\scb/cy_scb_ezi2c.c ****                     context->state = CY_SCB_EZI2C_STATE_RX_OFFSET_LSB;
1042:Generated_Source\PSoC6\pdl\drivers\peripheral\scb/cy_scb_ezi2c.c ****                 }
1043:Generated_Source\PSoC6\pdl\drivers\peripheral\scb/cy_scb_ezi2c.c ****                 else
1044:Generated_Source\PSoC6\pdl\drivers\peripheral\scb/cy_scb_ezi2c.c ****                 {
1045:Generated_Source\PSoC6\pdl\drivers\peripheral\scb/cy_scb_ezi2c.c ****                     /* Get the base address (MSB | LSB) */
1046:Generated_Source\PSoC6\pdl\drivers\peripheral\scb/cy_scb_ezi2c.c ****                     baseAddr |= context->idx;
1047:Generated_Source\PSoC6\pdl\drivers\peripheral\scb/cy_scb_ezi2c.c ****                 }
1048:Generated_Source\PSoC6\pdl\drivers\peripheral\scb/cy_scb_ezi2c.c ****             }
1049:Generated_Source\PSoC6\pdl\drivers\peripheral\scb/cy_scb_ezi2c.c **** 
1050:Generated_Source\PSoC6\pdl\drivers\peripheral\scb/cy_scb_ezi2c.c ****             /* Check whether the received base address is valid */
1051:Generated_Source\PSoC6\pdl\drivers\peripheral\scb/cy_scb_ezi2c.c ****             if (checkBaseAddr)
1052:Generated_Source\PSoC6\pdl\drivers\peripheral\scb/cy_scb_ezi2c.c ****             {
1053:Generated_Source\PSoC6\pdl\drivers\peripheral\scb/cy_scb_ezi2c.c ****                 uint32_t cmd = SCB_I2C_S_CMD_S_ACK_Msk;
1054:Generated_Source\PSoC6\pdl\drivers\peripheral\scb/cy_scb_ezi2c.c **** 
1055:Generated_Source\PSoC6\pdl\drivers\peripheral\scb/cy_scb_ezi2c.c ****                 /* Decide whether the base address within the buffer range */
1056:Generated_Source\PSoC6\pdl\drivers\peripheral\scb/cy_scb_ezi2c.c ****                 if (baseAddr < context->bufSize)
1057:Generated_Source\PSoC6\pdl\drivers\peripheral\scb/cy_scb_ezi2c.c ****                 {
1058:Generated_Source\PSoC6\pdl\drivers\peripheral\scb/cy_scb_ezi2c.c ****                     /* Accept the new base address */
1059:Generated_Source\PSoC6\pdl\drivers\peripheral\scb/cy_scb_ezi2c.c ****                     if (context->addr1Active)
1060:Generated_Source\PSoC6\pdl\drivers\peripheral\scb/cy_scb_ezi2c.c ****                     {
1061:Generated_Source\PSoC6\pdl\drivers\peripheral\scb/cy_scb_ezi2c.c ****                         context->baseAddr1 = baseAddr;
1062:Generated_Source\PSoC6\pdl\drivers\peripheral\scb/cy_scb_ezi2c.c ****                     }
1063:Generated_Source\PSoC6\pdl\drivers\peripheral\scb/cy_scb_ezi2c.c ****                     else
1064:Generated_Source\PSoC6\pdl\drivers\peripheral\scb/cy_scb_ezi2c.c ****                     {
1065:Generated_Source\PSoC6\pdl\drivers\peripheral\scb/cy_scb_ezi2c.c ****                         context->baseAddr2 = baseAddr;
1066:Generated_Source\PSoC6\pdl\drivers\peripheral\scb/cy_scb_ezi2c.c ****                     }
1067:Generated_Source\PSoC6\pdl\drivers\peripheral\scb/cy_scb_ezi2c.c **** 
1068:Generated_Source\PSoC6\pdl\drivers\peripheral\scb/cy_scb_ezi2c.c ****                     /* Store the base address to use it later */
1069:Generated_Source\PSoC6\pdl\drivers\peripheral\scb/cy_scb_ezi2c.c ****                     context->idx = baseAddr;
1070:Generated_Source\PSoC6\pdl\drivers\peripheral\scb/cy_scb_ezi2c.c ****                 }
1071:Generated_Source\PSoC6\pdl\drivers\peripheral\scb/cy_scb_ezi2c.c ****                 else
1072:Generated_Source\PSoC6\pdl\drivers\peripheral\scb/cy_scb_ezi2c.c ****                 {
ARM GAS  C:\Users\salaz\AppData\Local\Temp\ccU0pQaU.s 			page 113


1073:Generated_Source\PSoC6\pdl\drivers\peripheral\scb/cy_scb_ezi2c.c ****                     /* Restore the valid base address */
1074:Generated_Source\PSoC6\pdl\drivers\peripheral\scb/cy_scb_ezi2c.c ****                     context->idx = ((context->addr1Active) ? context->baseAddr1 : context->baseAddr
1075:Generated_Source\PSoC6\pdl\drivers\peripheral\scb/cy_scb_ezi2c.c **** 
1076:Generated_Source\PSoC6\pdl\drivers\peripheral\scb/cy_scb_ezi2c.c ****                     /* The base address is out of range - NACK it */
1077:Generated_Source\PSoC6\pdl\drivers\peripheral\scb/cy_scb_ezi2c.c ****                     cmd = SCB_I2C_S_CMD_S_NACK_Msk;
1078:Generated_Source\PSoC6\pdl\drivers\peripheral\scb/cy_scb_ezi2c.c ****                 }
1079:Generated_Source\PSoC6\pdl\drivers\peripheral\scb/cy_scb_ezi2c.c **** 
1080:Generated_Source\PSoC6\pdl\drivers\peripheral\scb/cy_scb_ezi2c.c ****                 /* Set the command to an ACK or NACK address */
1081:Generated_Source\PSoC6\pdl\drivers\peripheral\scb/cy_scb_ezi2c.c ****                 base->I2C_S_CMD = cmd;
1082:Generated_Source\PSoC6\pdl\drivers\peripheral\scb/cy_scb_ezi2c.c **** 
1083:Generated_Source\PSoC6\pdl\drivers\peripheral\scb/cy_scb_ezi2c.c ****                 if (cmd == SCB_I2C_S_CMD_S_ACK_Msk)
1084:Generated_Source\PSoC6\pdl\drivers\peripheral\scb/cy_scb_ezi2c.c ****                 {
1085:Generated_Source\PSoC6\pdl\drivers\peripheral\scb/cy_scb_ezi2c.c ****                     /* Prepare the buffer for a write */
1086:Generated_Source\PSoC6\pdl\drivers\peripheral\scb/cy_scb_ezi2c.c ****                     if (context->addr1Active)
1087:Generated_Source\PSoC6\pdl\drivers\peripheral\scb/cy_scb_ezi2c.c ****                     {
1088:Generated_Source\PSoC6\pdl\drivers\peripheral\scb/cy_scb_ezi2c.c ****                         context->curBuf  = &context->buf1[context->baseAddr1];
1089:Generated_Source\PSoC6\pdl\drivers\peripheral\scb/cy_scb_ezi2c.c ****                         context->bufSize = ((context->baseAddr1 < context->buf1rwBondary) ?
1090:Generated_Source\PSoC6\pdl\drivers\peripheral\scb/cy_scb_ezi2c.c ****                                                     (context->buf1rwBondary - context->baseAddr1) :
1091:Generated_Source\PSoC6\pdl\drivers\peripheral\scb/cy_scb_ezi2c.c ****                     }
1092:Generated_Source\PSoC6\pdl\drivers\peripheral\scb/cy_scb_ezi2c.c ****                     else
1093:Generated_Source\PSoC6\pdl\drivers\peripheral\scb/cy_scb_ezi2c.c ****                     {
1094:Generated_Source\PSoC6\pdl\drivers\peripheral\scb/cy_scb_ezi2c.c ****                         context->curBuf  = &context->buf2[context->baseAddr2];
1095:Generated_Source\PSoC6\pdl\drivers\peripheral\scb/cy_scb_ezi2c.c ****                         context->bufSize = ((context->baseAddr2 < context->buf2rwBondary) ?
1096:Generated_Source\PSoC6\pdl\drivers\peripheral\scb/cy_scb_ezi2c.c ****                                                     (context->buf2rwBondary - context->baseAddr2) :
1097:Generated_Source\PSoC6\pdl\drivers\peripheral\scb/cy_scb_ezi2c.c ****                     }
1098:Generated_Source\PSoC6\pdl\drivers\peripheral\scb/cy_scb_ezi2c.c **** 
1099:Generated_Source\PSoC6\pdl\drivers\peripheral\scb/cy_scb_ezi2c.c ****                     /* Choice receive scheme  */
1100:Generated_Source\PSoC6\pdl\drivers\peripheral\scb/cy_scb_ezi2c.c ****                     if ((0U != context->address2) || (context->bufSize < CY_SCB_EZI2C_FIFO_SIZE(bas
1101:Generated_Source\PSoC6\pdl\drivers\peripheral\scb/cy_scb_ezi2c.c ****                     {
1102:Generated_Source\PSoC6\pdl\drivers\peripheral\scb/cy_scb_ezi2c.c ****                         /* Handle each byte separately */
1103:Generated_Source\PSoC6\pdl\drivers\peripheral\scb/cy_scb_ezi2c.c ****                         context->state = CY_SCB_EZI2C_STATE_RX_DATA0;
1104:Generated_Source\PSoC6\pdl\drivers\peripheral\scb/cy_scb_ezi2c.c ****                     }
1105:Generated_Source\PSoC6\pdl\drivers\peripheral\scb/cy_scb_ezi2c.c ****                     else
1106:Generated_Source\PSoC6\pdl\drivers\peripheral\scb/cy_scb_ezi2c.c ****                     {
1107:Generated_Source\PSoC6\pdl\drivers\peripheral\scb/cy_scb_ezi2c.c ****                         /* Use the RX FIFO and the auto-ACK/NACK features */
1108:Generated_Source\PSoC6\pdl\drivers\peripheral\scb/cy_scb_ezi2c.c ****                         base->I2C_CTRL |= SCB_I2C_CTRL_S_READY_DATA_ACK_Msk;
1109:Generated_Source\PSoC6\pdl\drivers\peripheral\scb/cy_scb_ezi2c.c ****                         UpdateRxFifoLevel(base, context->bufSize);
1110:Generated_Source\PSoC6\pdl\drivers\peripheral\scb/cy_scb_ezi2c.c **** 
1111:Generated_Source\PSoC6\pdl\drivers\peripheral\scb/cy_scb_ezi2c.c ****                         context->state = CY_SCB_EZI2C_STATE_RX_DATA1;
1112:Generated_Source\PSoC6\pdl\drivers\peripheral\scb/cy_scb_ezi2c.c ****                     }
1113:Generated_Source\PSoC6\pdl\drivers\peripheral\scb/cy_scb_ezi2c.c ****                 }
1114:Generated_Source\PSoC6\pdl\drivers\peripheral\scb/cy_scb_ezi2c.c ****             }
1115:Generated_Source\PSoC6\pdl\drivers\peripheral\scb/cy_scb_ezi2c.c ****         }
1116:Generated_Source\PSoC6\pdl\drivers\peripheral\scb/cy_scb_ezi2c.c ****         break;
1117:Generated_Source\PSoC6\pdl\drivers\peripheral\scb/cy_scb_ezi2c.c **** 
1118:Generated_Source\PSoC6\pdl\drivers\peripheral\scb/cy_scb_ezi2c.c ****         case CY_SCB_EZI2C_STATE_RX_DATA0:
1119:Generated_Source\PSoC6\pdl\drivers\peripheral\scb/cy_scb_ezi2c.c ****         {
1120:Generated_Source\PSoC6\pdl\drivers\peripheral\scb/cy_scb_ezi2c.c ****             uint32_t byte = Cy_SCB_ReadRxFifo(base);
1121:Generated_Source\PSoC6\pdl\drivers\peripheral\scb/cy_scb_ezi2c.c **** 
1122:Generated_Source\PSoC6\pdl\drivers\peripheral\scb/cy_scb_ezi2c.c ****             /* Check whether there is space to store the byte */
1123:Generated_Source\PSoC6\pdl\drivers\peripheral\scb/cy_scb_ezi2c.c ****             if (context->bufSize > 0UL)
1124:Generated_Source\PSoC6\pdl\drivers\peripheral\scb/cy_scb_ezi2c.c ****             {
1125:Generated_Source\PSoC6\pdl\drivers\peripheral\scb/cy_scb_ezi2c.c ****                 /* Continue the transfer: send an ACK */
1126:Generated_Source\PSoC6\pdl\drivers\peripheral\scb/cy_scb_ezi2c.c ****                 base->I2C_S_CMD = SCB_I2C_S_CMD_S_ACK_Msk;
1127:Generated_Source\PSoC6\pdl\drivers\peripheral\scb/cy_scb_ezi2c.c **** 
1128:Generated_Source\PSoC6\pdl\drivers\peripheral\scb/cy_scb_ezi2c.c ****                 /* Store the byte in the buffer */
1129:Generated_Source\PSoC6\pdl\drivers\peripheral\scb/cy_scb_ezi2c.c ****                 context->curBuf[0UL] = (uint8_t) byte;
ARM GAS  C:\Users\salaz\AppData\Local\Temp\ccU0pQaU.s 			page 114


1130:Generated_Source\PSoC6\pdl\drivers\peripheral\scb/cy_scb_ezi2c.c ****                 context->bufSize--;
1131:Generated_Source\PSoC6\pdl\drivers\peripheral\scb/cy_scb_ezi2c.c ****                 context->curBuf++;
1132:Generated_Source\PSoC6\pdl\drivers\peripheral\scb/cy_scb_ezi2c.c **** 
1133:Generated_Source\PSoC6\pdl\drivers\peripheral\scb/cy_scb_ezi2c.c ****                 /* Update the base address to notice that the buffer is modified */
1134:Generated_Source\PSoC6\pdl\drivers\peripheral\scb/cy_scb_ezi2c.c ****                 context->idx++;
1135:Generated_Source\PSoC6\pdl\drivers\peripheral\scb/cy_scb_ezi2c.c ****             }
1136:Generated_Source\PSoC6\pdl\drivers\peripheral\scb/cy_scb_ezi2c.c ****             else
1137:Generated_Source\PSoC6\pdl\drivers\peripheral\scb/cy_scb_ezi2c.c ****             {
1138:Generated_Source\PSoC6\pdl\drivers\peripheral\scb/cy_scb_ezi2c.c ****                 /* Finish the transfer: send a NACK. Drop the received byte */
1139:Generated_Source\PSoC6\pdl\drivers\peripheral\scb/cy_scb_ezi2c.c ****                 base->I2C_S_CMD = SCB_I2C_S_CMD_S_NACK_Msk;
1140:Generated_Source\PSoC6\pdl\drivers\peripheral\scb/cy_scb_ezi2c.c ****                 Cy_SCB_SetRxInterruptMask(base, CY_SCB_CLEAR_ALL_INTR_SRC);
1141:Generated_Source\PSoC6\pdl\drivers\peripheral\scb/cy_scb_ezi2c.c ****             }
1142:Generated_Source\PSoC6\pdl\drivers\peripheral\scb/cy_scb_ezi2c.c ****         }
1143:Generated_Source\PSoC6\pdl\drivers\peripheral\scb/cy_scb_ezi2c.c ****         break;
1144:Generated_Source\PSoC6\pdl\drivers\peripheral\scb/cy_scb_ezi2c.c **** 
1145:Generated_Source\PSoC6\pdl\drivers\peripheral\scb/cy_scb_ezi2c.c ****         case CY_SCB_EZI2C_STATE_RX_DATA1:
1146:Generated_Source\PSoC6\pdl\drivers\peripheral\scb/cy_scb_ezi2c.c ****         {
1147:Generated_Source\PSoC6\pdl\drivers\peripheral\scb/cy_scb_ezi2c.c ****             /* Get the number of bytes to read from the RX FIFO */
1148:Generated_Source\PSoC6\pdl\drivers\peripheral\scb/cy_scb_ezi2c.c ****             uint32_t numToCopy = Cy_SCB_GetRxFifoLevel(base) + 1UL;
1149:Generated_Source\PSoC6\pdl\drivers\peripheral\scb/cy_scb_ezi2c.c **** 
1150:Generated_Source\PSoC6\pdl\drivers\peripheral\scb/cy_scb_ezi2c.c ****             /* Get data from the RX FIFO */
1151:Generated_Source\PSoC6\pdl\drivers\peripheral\scb/cy_scb_ezi2c.c ****             numToCopy = Cy_SCB_ReadArray(base, context->curBuf, numToCopy);
1152:Generated_Source\PSoC6\pdl\drivers\peripheral\scb/cy_scb_ezi2c.c ****             context->bufSize -= numToCopy;
1153:Generated_Source\PSoC6\pdl\drivers\peripheral\scb/cy_scb_ezi2c.c ****             context->curBuf  += numToCopy;
1154:Generated_Source\PSoC6\pdl\drivers\peripheral\scb/cy_scb_ezi2c.c **** 
1155:Generated_Source\PSoC6\pdl\drivers\peripheral\scb/cy_scb_ezi2c.c ****             /* Configure the next RX FIFO read event */
1156:Generated_Source\PSoC6\pdl\drivers\peripheral\scb/cy_scb_ezi2c.c ****             UpdateRxFifoLevel(base, context->bufSize);
1157:Generated_Source\PSoC6\pdl\drivers\peripheral\scb/cy_scb_ezi2c.c **** 
1158:Generated_Source\PSoC6\pdl\drivers\peripheral\scb/cy_scb_ezi2c.c ****             /* Update the base address to notice that the buffer is modified */
1159:Generated_Source\PSoC6\pdl\drivers\peripheral\scb/cy_scb_ezi2c.c ****             context->idx++;
1160:Generated_Source\PSoC6\pdl\drivers\peripheral\scb/cy_scb_ezi2c.c ****         }
1161:Generated_Source\PSoC6\pdl\drivers\peripheral\scb/cy_scb_ezi2c.c ****         break;
1162:Generated_Source\PSoC6\pdl\drivers\peripheral\scb/cy_scb_ezi2c.c **** 
1163:Generated_Source\PSoC6\pdl\drivers\peripheral\scb/cy_scb_ezi2c.c ****         default:
1164:Generated_Source\PSoC6\pdl\drivers\peripheral\scb/cy_scb_ezi2c.c ****         break;
 2946              		.loc 3 1164 0
 2947 0026 F9E0     		b	.L208
 2948              	.L207:
 2949              	.LBB3:
1024:Generated_Source\PSoC6\pdl\drivers\peripheral\scb/cy_scb_ezi2c.c **** 
 2950              		.loc 3 1024 0
 2951 0028 1F23     		movs	r3, #31
 2952 002a FB18     		adds	r3, r7, r3
 2953 002c 0122     		movs	r2, #1
 2954 002e 1A70     		strb	r2, [r3]
1027:Generated_Source\PSoC6\pdl\drivers\peripheral\scb/cy_scb_ezi2c.c **** 
 2955              		.loc 3 1027 0
 2956 0030 7B68     		ldr	r3, [r7, #4]
 2957 0032 1800     		movs	r0, r3
 2958 0034 FFF7FEFF 		bl	Cy_SCB_ReadRxFifo
 2959 0038 0300     		movs	r3, r0
 2960 003a BB61     		str	r3, [r7, #24]
1029:Generated_Source\PSoC6\pdl\drivers\peripheral\scb/cy_scb_ezi2c.c ****             {
 2961              		.loc 3 1029 0
 2962 003c 3B68     		ldr	r3, [r7]
 2963 003e 9B7A     		ldrb	r3, [r3, #10]
 2964 0040 012B     		cmp	r3, #1
ARM GAS  C:\Users\salaz\AppData\Local\Temp\ccU0pQaU.s 			page 115


 2965 0042 18D1     		bne	.L187
1031:Generated_Source\PSoC6\pdl\drivers\peripheral\scb/cy_scb_ezi2c.c ****                 {
 2966              		.loc 3 1031 0
 2967 0044 3B68     		ldr	r3, [r7]
 2968 0046 1B78     		ldrb	r3, [r3]
 2969 0048 DBB2     		uxtb	r3, r3
 2970 004a 022B     		cmp	r3, #2
 2971 004c 0ED1     		bne	.L188
1034:Generated_Source\PSoC6\pdl\drivers\peripheral\scb/cy_scb_ezi2c.c **** 
 2972              		.loc 3 1034 0
 2973 004e 7B68     		ldr	r3, [r7, #4]
 2974 0050 0122     		movs	r2, #1
 2975 0052 DA66     		str	r2, [r3, #108]
1037:Generated_Source\PSoC6\pdl\drivers\peripheral\scb/cy_scb_ezi2c.c **** 
 2976              		.loc 3 1037 0
 2977 0054 BB69     		ldr	r3, [r7, #24]
 2978 0056 1A02     		lsls	r2, r3, #8
 2979 0058 3B68     		ldr	r3, [r7]
 2980 005a DA60     		str	r2, [r3, #12]
1040:Generated_Source\PSoC6\pdl\drivers\peripheral\scb/cy_scb_ezi2c.c ****                     context->state = CY_SCB_EZI2C_STATE_RX_OFFSET_LSB;
 2981              		.loc 3 1040 0
 2982 005c 1F23     		movs	r3, #31
 2983 005e FB18     		adds	r3, r7, r3
 2984 0060 0022     		movs	r2, #0
 2985 0062 1A70     		strb	r2, [r3]
1041:Generated_Source\PSoC6\pdl\drivers\peripheral\scb/cy_scb_ezi2c.c ****                 }
 2986              		.loc 3 1041 0
 2987 0064 3B68     		ldr	r3, [r7]
 2988 0066 0322     		movs	r2, #3
 2989 0068 1A70     		strb	r2, [r3]
 2990 006a 04E0     		b	.L187
 2991              	.L188:
1046:Generated_Source\PSoC6\pdl\drivers\peripheral\scb/cy_scb_ezi2c.c ****                 }
 2992              		.loc 3 1046 0
 2993 006c 3B68     		ldr	r3, [r7]
 2994 006e DB68     		ldr	r3, [r3, #12]
 2995 0070 BA69     		ldr	r2, [r7, #24]
 2996 0072 1343     		orrs	r3, r2
 2997 0074 BB61     		str	r3, [r7, #24]
 2998              	.L187:
1051:Generated_Source\PSoC6\pdl\drivers\peripheral\scb/cy_scb_ezi2c.c ****             {
 2999              		.loc 3 1051 0
 3000 0076 1F23     		movs	r3, #31
 3001 0078 FB18     		adds	r3, r7, r3
 3002 007a 1B78     		ldrb	r3, [r3]
 3003 007c 002B     		cmp	r3, #0
 3004 007e 00D1     		bne	.LCB2628
 3005 0080 CEE0     		b	.L209	@long jump
 3006              	.LCB2628:
 3007              	.LBB4:
1053:Generated_Source\PSoC6\pdl\drivers\peripheral\scb/cy_scb_ezi2c.c **** 
 3008              		.loc 3 1053 0
 3009 0082 0123     		movs	r3, #1
 3010 0084 7B61     		str	r3, [r7, #20]
1056:Generated_Source\PSoC6\pdl\drivers\peripheral\scb/cy_scb_ezi2c.c ****                 {
 3011              		.loc 3 1056 0
 3012 0086 3B68     		ldr	r3, [r7]
ARM GAS  C:\Users\salaz\AppData\Local\Temp\ccU0pQaU.s 			page 116


 3013 0088 1A6A     		ldr	r2, [r3, #32]
 3014 008a BB69     		ldr	r3, [r7, #24]
 3015 008c 9A42     		cmp	r2, r3
 3016 008e 0ED9     		bls	.L190
1059:Generated_Source\PSoC6\pdl\drivers\peripheral\scb/cy_scb_ezi2c.c ****                     {
 3017              		.loc 3 1059 0
 3018 0090 3B68     		ldr	r3, [r7]
 3019 0092 1B7E     		ldrb	r3, [r3, #24]
 3020 0094 002B     		cmp	r3, #0
 3021 0096 03D0     		beq	.L191
1061:Generated_Source\PSoC6\pdl\drivers\peripheral\scb/cy_scb_ezi2c.c ****                     }
 3022              		.loc 3 1061 0
 3023 0098 3B68     		ldr	r3, [r7]
 3024 009a BA69     		ldr	r2, [r7, #24]
 3025 009c 1A61     		str	r2, [r3, #16]
 3026 009e 02E0     		b	.L192
 3027              	.L191:
1065:Generated_Source\PSoC6\pdl\drivers\peripheral\scb/cy_scb_ezi2c.c ****                     }
 3028              		.loc 3 1065 0
 3029 00a0 3B68     		ldr	r3, [r7]
 3030 00a2 BA69     		ldr	r2, [r7, #24]
 3031 00a4 5A61     		str	r2, [r3, #20]
 3032              	.L192:
1069:Generated_Source\PSoC6\pdl\drivers\peripheral\scb/cy_scb_ezi2c.c ****                 }
 3033              		.loc 3 1069 0
 3034 00a6 3B68     		ldr	r3, [r7]
 3035 00a8 BA69     		ldr	r2, [r7, #24]
 3036 00aa DA60     		str	r2, [r3, #12]
 3037 00ac 0CE0     		b	.L193
 3038              	.L190:
1074:Generated_Source\PSoC6\pdl\drivers\peripheral\scb/cy_scb_ezi2c.c **** 
 3039              		.loc 3 1074 0
 3040 00ae 3B68     		ldr	r3, [r7]
 3041 00b0 1B7E     		ldrb	r3, [r3, #24]
 3042 00b2 002B     		cmp	r3, #0
 3043 00b4 02D0     		beq	.L194
1074:Generated_Source\PSoC6\pdl\drivers\peripheral\scb/cy_scb_ezi2c.c **** 
 3044              		.loc 3 1074 0 is_stmt 0 discriminator 1
 3045 00b6 3B68     		ldr	r3, [r7]
 3046 00b8 1A69     		ldr	r2, [r3, #16]
 3047 00ba 01E0     		b	.L195
 3048              	.L194:
1074:Generated_Source\PSoC6\pdl\drivers\peripheral\scb/cy_scb_ezi2c.c **** 
 3049              		.loc 3 1074 0 discriminator 2
 3050 00bc 3B68     		ldr	r3, [r7]
 3051 00be 5A69     		ldr	r2, [r3, #20]
 3052              	.L195:
1074:Generated_Source\PSoC6\pdl\drivers\peripheral\scb/cy_scb_ezi2c.c **** 
 3053              		.loc 3 1074 0 discriminator 4
 3054 00c0 3B68     		ldr	r3, [r7]
 3055 00c2 DA60     		str	r2, [r3, #12]
1077:Generated_Source\PSoC6\pdl\drivers\peripheral\scb/cy_scb_ezi2c.c ****                 }
 3056              		.loc 3 1077 0 is_stmt 1 discriminator 4
 3057 00c4 0223     		movs	r3, #2
 3058 00c6 7B61     		str	r3, [r7, #20]
 3059              	.L193:
1081:Generated_Source\PSoC6\pdl\drivers\peripheral\scb/cy_scb_ezi2c.c **** 
ARM GAS  C:\Users\salaz\AppData\Local\Temp\ccU0pQaU.s 			page 117


 3060              		.loc 3 1081 0
 3061 00c8 7B68     		ldr	r3, [r7, #4]
 3062 00ca 7A69     		ldr	r2, [r7, #20]
 3063 00cc DA66     		str	r2, [r3, #108]
1083:Generated_Source\PSoC6\pdl\drivers\peripheral\scb/cy_scb_ezi2c.c ****                 {
 3064              		.loc 3 1083 0
 3065 00ce 7B69     		ldr	r3, [r7, #20]
 3066 00d0 012B     		cmp	r3, #1
 3067 00d2 00D0     		beq	.LCB2685
 3068 00d4 A4E0     		b	.L209	@long jump
 3069              	.LCB2685:
1086:Generated_Source\PSoC6\pdl\drivers\peripheral\scb/cy_scb_ezi2c.c ****                     {
 3070              		.loc 3 1086 0
 3071 00d6 3B68     		ldr	r3, [r7]
 3072 00d8 1B7E     		ldrb	r3, [r3, #24]
 3073 00da 002B     		cmp	r3, #0
 3074 00dc 16D0     		beq	.L196
1088:Generated_Source\PSoC6\pdl\drivers\peripheral\scb/cy_scb_ezi2c.c ****                         context->bufSize = ((context->baseAddr1 < context->buf1rwBondary) ?
 3075              		.loc 3 1088 0
 3076 00de 3B68     		ldr	r3, [r7]
 3077 00e0 5A6A     		ldr	r2, [r3, #36]
 3078 00e2 3B68     		ldr	r3, [r7]
 3079 00e4 1B69     		ldr	r3, [r3, #16]
 3080 00e6 D218     		adds	r2, r2, r3
 3081 00e8 3B68     		ldr	r3, [r7]
 3082 00ea DA61     		str	r2, [r3, #28]
1089:Generated_Source\PSoC6\pdl\drivers\peripheral\scb/cy_scb_ezi2c.c ****                                                     (context->buf1rwBondary - context->baseAddr1) :
 3083              		.loc 3 1089 0
 3084 00ec 3B68     		ldr	r3, [r7]
 3085 00ee 1A69     		ldr	r2, [r3, #16]
 3086 00f0 3B68     		ldr	r3, [r7]
 3087 00f2 DB6A     		ldr	r3, [r3, #44]
1090:Generated_Source\PSoC6\pdl\drivers\peripheral\scb/cy_scb_ezi2c.c ****                     }
 3088              		.loc 3 1090 0
 3089 00f4 9A42     		cmp	r2, r3
 3090 00f6 05D2     		bcs	.L197
1090:Generated_Source\PSoC6\pdl\drivers\peripheral\scb/cy_scb_ezi2c.c ****                     }
 3091              		.loc 3 1090 0 is_stmt 0 discriminator 1
 3092 00f8 3B68     		ldr	r3, [r7]
 3093 00fa DA6A     		ldr	r2, [r3, #44]
 3094 00fc 3B68     		ldr	r3, [r7]
 3095 00fe 1B69     		ldr	r3, [r3, #16]
 3096 0100 D21A     		subs	r2, r2, r3
 3097 0102 00E0     		b	.L198
 3098              	.L197:
1090:Generated_Source\PSoC6\pdl\drivers\peripheral\scb/cy_scb_ezi2c.c ****                     }
 3099              		.loc 3 1090 0 discriminator 2
 3100 0104 0022     		movs	r2, #0
 3101              	.L198:
1089:Generated_Source\PSoC6\pdl\drivers\peripheral\scb/cy_scb_ezi2c.c ****                                                     (context->buf1rwBondary - context->baseAddr1) :
 3102              		.loc 3 1089 0 is_stmt 1
 3103 0106 3B68     		ldr	r3, [r7]
 3104 0108 1A62     		str	r2, [r3, #32]
 3105 010a 15E0     		b	.L199
 3106              	.L196:
1094:Generated_Source\PSoC6\pdl\drivers\peripheral\scb/cy_scb_ezi2c.c ****                         context->bufSize = ((context->baseAddr2 < context->buf2rwBondary) ?
 3107              		.loc 3 1094 0
ARM GAS  C:\Users\salaz\AppData\Local\Temp\ccU0pQaU.s 			page 118


 3108 010c 3B68     		ldr	r3, [r7]
 3109 010e 1A6B     		ldr	r2, [r3, #48]
 3110 0110 3B68     		ldr	r3, [r7]
 3111 0112 5B69     		ldr	r3, [r3, #20]
 3112 0114 D218     		adds	r2, r2, r3
 3113 0116 3B68     		ldr	r3, [r7]
 3114 0118 DA61     		str	r2, [r3, #28]
1095:Generated_Source\PSoC6\pdl\drivers\peripheral\scb/cy_scb_ezi2c.c ****                                                     (context->buf2rwBondary - context->baseAddr2) :
 3115              		.loc 3 1095 0
 3116 011a 3B68     		ldr	r3, [r7]
 3117 011c 5A69     		ldr	r2, [r3, #20]
 3118 011e 3B68     		ldr	r3, [r7]
 3119 0120 9B6B     		ldr	r3, [r3, #56]
1096:Generated_Source\PSoC6\pdl\drivers\peripheral\scb/cy_scb_ezi2c.c ****                     }
 3120              		.loc 3 1096 0
 3121 0122 9A42     		cmp	r2, r3
 3122 0124 05D2     		bcs	.L200
1096:Generated_Source\PSoC6\pdl\drivers\peripheral\scb/cy_scb_ezi2c.c ****                     }
 3123              		.loc 3 1096 0 is_stmt 0 discriminator 1
 3124 0126 3B68     		ldr	r3, [r7]
 3125 0128 9A6B     		ldr	r2, [r3, #56]
 3126 012a 3B68     		ldr	r3, [r7]
 3127 012c 5B69     		ldr	r3, [r3, #20]
 3128 012e D21A     		subs	r2, r2, r3
 3129 0130 00E0     		b	.L201
 3130              	.L200:
1096:Generated_Source\PSoC6\pdl\drivers\peripheral\scb/cy_scb_ezi2c.c ****                     }
 3131              		.loc 3 1096 0 discriminator 2
 3132 0132 0022     		movs	r2, #0
 3133              	.L201:
1095:Generated_Source\PSoC6\pdl\drivers\peripheral\scb/cy_scb_ezi2c.c ****                                                     (context->buf2rwBondary - context->baseAddr2) :
 3134              		.loc 3 1095 0 is_stmt 1
 3135 0134 3B68     		ldr	r3, [r7]
 3136 0136 1A62     		str	r2, [r3, #32]
 3137              	.L199:
1100:Generated_Source\PSoC6\pdl\drivers\peripheral\scb/cy_scb_ezi2c.c ****                     {
 3138              		.loc 3 1100 0
 3139 0138 3B68     		ldr	r3, [r7]
 3140 013a 5B7A     		ldrb	r3, [r3, #9]
 3141 013c 002B     		cmp	r3, #0
 3142 013e 03D1     		bne	.L202
1100:Generated_Source\PSoC6\pdl\drivers\peripheral\scb/cy_scb_ezi2c.c ****                     {
 3143              		.loc 3 1100 0 is_stmt 0 discriminator 1
 3144 0140 3B68     		ldr	r3, [r7]
 3145 0142 1B6A     		ldr	r3, [r3, #32]
 3146 0144 7F2B     		cmp	r3, #127
 3147 0146 03D8     		bhi	.L203
 3148              	.L202:
1103:Generated_Source\PSoC6\pdl\drivers\peripheral\scb/cy_scb_ezi2c.c ****                     }
 3149              		.loc 3 1103 0 is_stmt 1
 3150 0148 3B68     		ldr	r3, [r7]
 3151 014a 0422     		movs	r2, #4
 3152 014c 1A70     		strb	r2, [r3]
 3153              	.LBE4:
 3154              	.LBE3:
1116:Generated_Source\PSoC6\pdl\drivers\peripheral\scb/cy_scb_ezi2c.c **** 
 3155              		.loc 3 1116 0
ARM GAS  C:\Users\salaz\AppData\Local\Temp\ccU0pQaU.s 			page 119


 3156 014e 67E0     		b	.L209
 3157              	.L203:
 3158              	.LBB6:
 3159              	.LBB5:
1108:Generated_Source\PSoC6\pdl\drivers\peripheral\scb/cy_scb_ezi2c.c ****                         UpdateRxFifoLevel(base, context->bufSize);
 3160              		.loc 3 1108 0
 3161 0150 7B68     		ldr	r3, [r7, #4]
 3162 0152 1B6E     		ldr	r3, [r3, #96]
 3163 0154 8022     		movs	r2, #128
 3164 0156 9201     		lsls	r2, r2, #6
 3165 0158 1A43     		orrs	r2, r3
 3166 015a 7B68     		ldr	r3, [r7, #4]
 3167 015c 1A66     		str	r2, [r3, #96]
1109:Generated_Source\PSoC6\pdl\drivers\peripheral\scb/cy_scb_ezi2c.c **** 
 3168              		.loc 3 1109 0
 3169 015e 3B68     		ldr	r3, [r7]
 3170 0160 1A6A     		ldr	r2, [r3, #32]
 3171 0162 7B68     		ldr	r3, [r7, #4]
 3172 0164 1100     		movs	r1, r2
 3173 0166 1800     		movs	r0, r3
 3174 0168 FFF7FEFF 		bl	UpdateRxFifoLevel
1111:Generated_Source\PSoC6\pdl\drivers\peripheral\scb/cy_scb_ezi2c.c ****                     }
 3175              		.loc 3 1111 0
 3176 016c 3B68     		ldr	r3, [r7]
 3177 016e 0522     		movs	r2, #5
 3178 0170 1A70     		strb	r2, [r3]
 3179              	.LBE5:
 3180              	.LBE6:
1116:Generated_Source\PSoC6\pdl\drivers\peripheral\scb/cy_scb_ezi2c.c **** 
 3181              		.loc 3 1116 0
 3182 0172 55E0     		b	.L209
 3183              	.L183:
 3184              	.LBB7:
1120:Generated_Source\PSoC6\pdl\drivers\peripheral\scb/cy_scb_ezi2c.c **** 
 3185              		.loc 3 1120 0
 3186 0174 7B68     		ldr	r3, [r7, #4]
 3187 0176 1800     		movs	r0, r3
 3188 0178 FFF7FEFF 		bl	Cy_SCB_ReadRxFifo
 3189 017c 0300     		movs	r3, r0
 3190 017e 3B61     		str	r3, [r7, #16]
1123:Generated_Source\PSoC6\pdl\drivers\peripheral\scb/cy_scb_ezi2c.c ****             {
 3191              		.loc 3 1123 0
 3192 0180 3B68     		ldr	r3, [r7]
 3193 0182 1B6A     		ldr	r3, [r3, #32]
 3194 0184 002B     		cmp	r3, #0
 3195 0186 17D0     		beq	.L205
1126:Generated_Source\PSoC6\pdl\drivers\peripheral\scb/cy_scb_ezi2c.c **** 
 3196              		.loc 3 1126 0
 3197 0188 7B68     		ldr	r3, [r7, #4]
 3198 018a 0122     		movs	r2, #1
 3199 018c DA66     		str	r2, [r3, #108]
1129:Generated_Source\PSoC6\pdl\drivers\peripheral\scb/cy_scb_ezi2c.c ****                 context->bufSize--;
 3200              		.loc 3 1129 0
 3201 018e 3B68     		ldr	r3, [r7]
 3202 0190 DB69     		ldr	r3, [r3, #28]
 3203 0192 3A69     		ldr	r2, [r7, #16]
 3204 0194 D2B2     		uxtb	r2, r2
ARM GAS  C:\Users\salaz\AppData\Local\Temp\ccU0pQaU.s 			page 120


 3205 0196 1A70     		strb	r2, [r3]
1130:Generated_Source\PSoC6\pdl\drivers\peripheral\scb/cy_scb_ezi2c.c ****                 context->curBuf++;
 3206              		.loc 3 1130 0
 3207 0198 3B68     		ldr	r3, [r7]
 3208 019a 1B6A     		ldr	r3, [r3, #32]
 3209 019c 5A1E     		subs	r2, r3, #1
 3210 019e 3B68     		ldr	r3, [r7]
 3211 01a0 1A62     		str	r2, [r3, #32]
1131:Generated_Source\PSoC6\pdl\drivers\peripheral\scb/cy_scb_ezi2c.c **** 
 3212              		.loc 3 1131 0
 3213 01a2 3B68     		ldr	r3, [r7]
 3214 01a4 DB69     		ldr	r3, [r3, #28]
 3215 01a6 5A1C     		adds	r2, r3, #1
 3216 01a8 3B68     		ldr	r3, [r7]
 3217 01aa DA61     		str	r2, [r3, #28]
1134:Generated_Source\PSoC6\pdl\drivers\peripheral\scb/cy_scb_ezi2c.c ****             }
 3218              		.loc 3 1134 0
 3219 01ac 3B68     		ldr	r3, [r7]
 3220 01ae DB68     		ldr	r3, [r3, #12]
 3221 01b0 5A1C     		adds	r2, r3, #1
 3222 01b2 3B68     		ldr	r3, [r7]
 3223 01b4 DA60     		str	r2, [r3, #12]
 3224              	.LBE7:
1143:Generated_Source\PSoC6\pdl\drivers\peripheral\scb/cy_scb_ezi2c.c **** 
 3225              		.loc 3 1143 0
 3226 01b6 34E0     		b	.L204
 3227              	.L205:
 3228              	.LBB8:
1139:Generated_Source\PSoC6\pdl\drivers\peripheral\scb/cy_scb_ezi2c.c ****                 Cy_SCB_SetRxInterruptMask(base, CY_SCB_CLEAR_ALL_INTR_SRC);
 3229              		.loc 3 1139 0
 3230 01b8 7B68     		ldr	r3, [r7, #4]
 3231 01ba 0222     		movs	r2, #2
 3232 01bc DA66     		str	r2, [r3, #108]
1140:Generated_Source\PSoC6\pdl\drivers\peripheral\scb/cy_scb_ezi2c.c ****             }
 3233              		.loc 3 1140 0
 3234 01be 7B68     		ldr	r3, [r7, #4]
 3235 01c0 0021     		movs	r1, #0
 3236 01c2 1800     		movs	r0, r3
 3237 01c4 FFF7FEFF 		bl	Cy_SCB_SetRxInterruptMask
 3238              	.LBE8:
1143:Generated_Source\PSoC6\pdl\drivers\peripheral\scb/cy_scb_ezi2c.c **** 
 3239              		.loc 3 1143 0
 3240 01c8 2BE0     		b	.L204
 3241              	.L186:
 3242              	.LBB9:
1148:Generated_Source\PSoC6\pdl\drivers\peripheral\scb/cy_scb_ezi2c.c **** 
 3243              		.loc 3 1148 0
 3244 01ca 7B68     		ldr	r3, [r7, #4]
 3245 01cc 1800     		movs	r0, r3
 3246 01ce FFF7FEFF 		bl	Cy_SCB_GetRxFifoLevel
 3247 01d2 0300     		movs	r3, r0
 3248 01d4 0133     		adds	r3, r3, #1
 3249 01d6 FB60     		str	r3, [r7, #12]
1151:Generated_Source\PSoC6\pdl\drivers\peripheral\scb/cy_scb_ezi2c.c ****             context->bufSize -= numToCopy;
 3250              		.loc 3 1151 0
 3251 01d8 3B68     		ldr	r3, [r7]
 3252 01da D969     		ldr	r1, [r3, #28]
ARM GAS  C:\Users\salaz\AppData\Local\Temp\ccU0pQaU.s 			page 121


 3253 01dc FA68     		ldr	r2, [r7, #12]
 3254 01de 7B68     		ldr	r3, [r7, #4]
 3255 01e0 1800     		movs	r0, r3
 3256 01e2 FFF7FEFF 		bl	Cy_SCB_ReadArray
 3257 01e6 0300     		movs	r3, r0
 3258 01e8 FB60     		str	r3, [r7, #12]
1152:Generated_Source\PSoC6\pdl\drivers\peripheral\scb/cy_scb_ezi2c.c ****             context->curBuf  += numToCopy;
 3259              		.loc 3 1152 0
 3260 01ea 3B68     		ldr	r3, [r7]
 3261 01ec 1A6A     		ldr	r2, [r3, #32]
 3262 01ee FB68     		ldr	r3, [r7, #12]
 3263 01f0 D21A     		subs	r2, r2, r3
 3264 01f2 3B68     		ldr	r3, [r7]
 3265 01f4 1A62     		str	r2, [r3, #32]
1153:Generated_Source\PSoC6\pdl\drivers\peripheral\scb/cy_scb_ezi2c.c **** 
 3266              		.loc 3 1153 0
 3267 01f6 3B68     		ldr	r3, [r7]
 3268 01f8 DA69     		ldr	r2, [r3, #28]
 3269 01fa FB68     		ldr	r3, [r7, #12]
 3270 01fc D218     		adds	r2, r2, r3
 3271 01fe 3B68     		ldr	r3, [r7]
 3272 0200 DA61     		str	r2, [r3, #28]
1156:Generated_Source\PSoC6\pdl\drivers\peripheral\scb/cy_scb_ezi2c.c **** 
 3273              		.loc 3 1156 0
 3274 0202 3B68     		ldr	r3, [r7]
 3275 0204 1A6A     		ldr	r2, [r3, #32]
 3276 0206 7B68     		ldr	r3, [r7, #4]
 3277 0208 1100     		movs	r1, r2
 3278 020a 1800     		movs	r0, r3
 3279 020c FFF7FEFF 		bl	UpdateRxFifoLevel
1159:Generated_Source\PSoC6\pdl\drivers\peripheral\scb/cy_scb_ezi2c.c ****         }
 3280              		.loc 3 1159 0
 3281 0210 3B68     		ldr	r3, [r7]
 3282 0212 DB68     		ldr	r3, [r3, #12]
 3283 0214 5A1C     		adds	r2, r3, #1
 3284 0216 3B68     		ldr	r3, [r7]
 3285 0218 DA60     		str	r2, [r3, #12]
 3286              	.LBE9:
1161:Generated_Source\PSoC6\pdl\drivers\peripheral\scb/cy_scb_ezi2c.c **** 
 3287              		.loc 3 1161 0
 3288 021a 02E0     		b	.L204
 3289              	.L208:
 3290              		.loc 3 1164 0
 3291 021c C046     		nop
 3292 021e 00E0     		b	.L204
 3293              	.L209:
1116:Generated_Source\PSoC6\pdl\drivers\peripheral\scb/cy_scb_ezi2c.c **** 
 3294              		.loc 3 1116 0
 3295 0220 C046     		nop
 3296              	.L204:
1165:Generated_Source\PSoC6\pdl\drivers\peripheral\scb/cy_scb_ezi2c.c ****     }
1166:Generated_Source\PSoC6\pdl\drivers\peripheral\scb/cy_scb_ezi2c.c **** }
 3297              		.loc 3 1166 0
 3298 0222 C046     		nop
 3299 0224 BD46     		mov	sp, r7
 3300 0226 08B0     		add	sp, sp, #32
 3301              		@ sp needed
ARM GAS  C:\Users\salaz\AppData\Local\Temp\ccU0pQaU.s 			page 122


 3302 0228 80BD     		pop	{r7, pc}
 3303              		.cfi_endproc
 3304              	.LFE138:
 3305              		.size	HandleDataReceive, .-HandleDataReceive
 3306 022a C046     		.section	.text.HandleDataTransmit,"ax",%progbits
 3307              		.align	2
 3308              		.code	16
 3309              		.thumb_func
 3310              		.type	HandleDataTransmit, %function
 3311              	HandleDataTransmit:
 3312              	.LFB139:
1167:Generated_Source\PSoC6\pdl\drivers\peripheral\scb/cy_scb_ezi2c.c **** 
1168:Generated_Source\PSoC6\pdl\drivers\peripheral\scb/cy_scb_ezi2c.c **** 
1169:Generated_Source\PSoC6\pdl\drivers\peripheral\scb/cy_scb_ezi2c.c **** /*******************************************************************************
1170:Generated_Source\PSoC6\pdl\drivers\peripheral\scb/cy_scb_ezi2c.c **** * Function Name: HandleDataTransmit
1171:Generated_Source\PSoC6\pdl\drivers\peripheral\scb/cy_scb_ezi2c.c **** ****************************************************************************//**
1172:Generated_Source\PSoC6\pdl\drivers\peripheral\scb/cy_scb_ezi2c.c **** *
1173:Generated_Source\PSoC6\pdl\drivers\peripheral\scb/cy_scb_ezi2c.c **** * Loads the TX FIFO with data from the buffer.
1174:Generated_Source\PSoC6\pdl\drivers\peripheral\scb/cy_scb_ezi2c.c **** *
1175:Generated_Source\PSoC6\pdl\drivers\peripheral\scb/cy_scb_ezi2c.c **** * \param base
1176:Generated_Source\PSoC6\pdl\drivers\peripheral\scb/cy_scb_ezi2c.c **** * The pointer to the EZI2C SCB instance.
1177:Generated_Source\PSoC6\pdl\drivers\peripheral\scb/cy_scb_ezi2c.c **** *
1178:Generated_Source\PSoC6\pdl\drivers\peripheral\scb/cy_scb_ezi2c.c **** * \param context
1179:Generated_Source\PSoC6\pdl\drivers\peripheral\scb/cy_scb_ezi2c.c **** * The pointer to the context structure \ref cy_stc_scb_ezi2c_context_t allocated
1180:Generated_Source\PSoC6\pdl\drivers\peripheral\scb/cy_scb_ezi2c.c **** * by the user. The structure is used during the EZI2C operation for internal
1181:Generated_Source\PSoC6\pdl\drivers\peripheral\scb/cy_scb_ezi2c.c **** * configuration and data retention. The user must not modify anything
1182:Generated_Source\PSoC6\pdl\drivers\peripheral\scb/cy_scb_ezi2c.c **** * in this structure.
1183:Generated_Source\PSoC6\pdl\drivers\peripheral\scb/cy_scb_ezi2c.c **** *
1184:Generated_Source\PSoC6\pdl\drivers\peripheral\scb/cy_scb_ezi2c.c **** *******************************************************************************/
1185:Generated_Source\PSoC6\pdl\drivers\peripheral\scb/cy_scb_ezi2c.c **** static void HandleDataTransmit(CySCB_Type *base, cy_stc_scb_ezi2c_context_t *context)
1186:Generated_Source\PSoC6\pdl\drivers\peripheral\scb/cy_scb_ezi2c.c **** {
 3313              		.loc 3 1186 0
 3314              		.cfi_startproc
 3315              		@ args = 0, pretend = 0, frame = 16
 3316              		@ frame_needed = 1, uses_anonymous_args = 0
 3317 0000 80B5     		push	{r7, lr}
 3318              		.cfi_def_cfa_offset 8
 3319              		.cfi_offset 7, -8
 3320              		.cfi_offset 14, -4
 3321 0002 84B0     		sub	sp, sp, #16
 3322              		.cfi_def_cfa_offset 24
 3323 0004 00AF     		add	r7, sp, #0
 3324              		.cfi_def_cfa_register 7
 3325 0006 7860     		str	r0, [r7, #4]
 3326 0008 3960     		str	r1, [r7]
1187:Generated_Source\PSoC6\pdl\drivers\peripheral\scb/cy_scb_ezi2c.c ****     if (context->bufSize > 0UL)
 3327              		.loc 3 1187 0
 3328 000a 3B68     		ldr	r3, [r7]
 3329 000c 1B6A     		ldr	r3, [r3, #32]
 3330 000e 002B     		cmp	r3, #0
 3331 0010 15D0     		beq	.L211
 3332              	.LBB10:
1188:Generated_Source\PSoC6\pdl\drivers\peripheral\scb/cy_scb_ezi2c.c ****     {
1189:Generated_Source\PSoC6\pdl\drivers\peripheral\scb/cy_scb_ezi2c.c ****         /* Write data into the TX FIFO from the buffer */
1190:Generated_Source\PSoC6\pdl\drivers\peripheral\scb/cy_scb_ezi2c.c ****         uint32_t numToCopy = Cy_SCB_WriteArray(base, context->curBuf, context->bufSize);
 3333              		.loc 3 1190 0
 3334 0012 3B68     		ldr	r3, [r7]
ARM GAS  C:\Users\salaz\AppData\Local\Temp\ccU0pQaU.s 			page 123


 3335 0014 D969     		ldr	r1, [r3, #28]
 3336 0016 3B68     		ldr	r3, [r7]
 3337 0018 1A6A     		ldr	r2, [r3, #32]
 3338 001a 7B68     		ldr	r3, [r7, #4]
 3339 001c 1800     		movs	r0, r3
 3340 001e FFF7FEFF 		bl	Cy_SCB_WriteArray
 3341 0022 0300     		movs	r3, r0
 3342 0024 FB60     		str	r3, [r7, #12]
1191:Generated_Source\PSoC6\pdl\drivers\peripheral\scb/cy_scb_ezi2c.c ****         context->bufSize  -= numToCopy;
 3343              		.loc 3 1191 0
 3344 0026 3B68     		ldr	r3, [r7]
 3345 0028 1A6A     		ldr	r2, [r3, #32]
 3346 002a FB68     		ldr	r3, [r7, #12]
 3347 002c D21A     		subs	r2, r2, r3
 3348 002e 3B68     		ldr	r3, [r7]
 3349 0030 1A62     		str	r2, [r3, #32]
1192:Generated_Source\PSoC6\pdl\drivers\peripheral\scb/cy_scb_ezi2c.c ****         context->curBuf   += numToCopy;
 3350              		.loc 3 1192 0
 3351 0032 3B68     		ldr	r3, [r7]
 3352 0034 DA69     		ldr	r2, [r3, #28]
 3353 0036 FB68     		ldr	r3, [r7, #12]
 3354 0038 D218     		adds	r2, r2, r3
 3355 003a 3B68     		ldr	r3, [r7]
 3356 003c DA61     		str	r2, [r3, #28]
 3357              	.L211:
 3358              	.LBE10:
1193:Generated_Source\PSoC6\pdl\drivers\peripheral\scb/cy_scb_ezi2c.c ****     }
1194:Generated_Source\PSoC6\pdl\drivers\peripheral\scb/cy_scb_ezi2c.c **** 
1195:Generated_Source\PSoC6\pdl\drivers\peripheral\scb/cy_scb_ezi2c.c ****     if (0UL == context->bufSize)
 3359              		.loc 3 1195 0
 3360 003e 3B68     		ldr	r3, [r7]
 3361 0040 1B6A     		ldr	r3, [r3, #32]
 3362 0042 002B     		cmp	r3, #0
 3363 0044 05D1     		bne	.L213
1196:Generated_Source\PSoC6\pdl\drivers\peripheral\scb/cy_scb_ezi2c.c ****     {
1197:Generated_Source\PSoC6\pdl\drivers\peripheral\scb/cy_scb_ezi2c.c ****         /* Write the default bytes into the TX FIFO */
1198:Generated_Source\PSoC6\pdl\drivers\peripheral\scb/cy_scb_ezi2c.c ****         (void) Cy_SCB_WriteDefaultArray(base, CY_SCB_EZI2C_DEFAULT_TX, CY_SCB_EZI2C_FIFO_SIZE(base)
 3364              		.loc 3 1198 0
 3365 0046 7B68     		ldr	r3, [r7, #4]
 3366 0048 8022     		movs	r2, #128
 3367 004a FF21     		movs	r1, #255
 3368 004c 1800     		movs	r0, r3
 3369 004e FFF7FEFF 		bl	Cy_SCB_WriteDefaultArray
 3370              	.L213:
1199:Generated_Source\PSoC6\pdl\drivers\peripheral\scb/cy_scb_ezi2c.c ****     }
1200:Generated_Source\PSoC6\pdl\drivers\peripheral\scb/cy_scb_ezi2c.c **** }
 3371              		.loc 3 1200 0
 3372 0052 C046     		nop
 3373 0054 BD46     		mov	sp, r7
 3374 0056 04B0     		add	sp, sp, #16
 3375              		@ sp needed
 3376 0058 80BD     		pop	{r7, pc}
 3377              		.cfi_endproc
 3378              	.LFE139:
 3379              		.size	HandleDataTransmit, .-HandleDataTransmit
 3380 005a C046     		.section	.text.HandleStop,"ax",%progbits
 3381              		.align	2
ARM GAS  C:\Users\salaz\AppData\Local\Temp\ccU0pQaU.s 			page 124


 3382              		.code	16
 3383              		.thumb_func
 3384              		.type	HandleStop, %function
 3385              	HandleStop:
 3386              	.LFB140:
1201:Generated_Source\PSoC6\pdl\drivers\peripheral\scb/cy_scb_ezi2c.c **** 
1202:Generated_Source\PSoC6\pdl\drivers\peripheral\scb/cy_scb_ezi2c.c **** 
1203:Generated_Source\PSoC6\pdl\drivers\peripheral\scb/cy_scb_ezi2c.c **** /*******************************************************************************
1204:Generated_Source\PSoC6\pdl\drivers\peripheral\scb/cy_scb_ezi2c.c **** * Function Name: HandleStop
1205:Generated_Source\PSoC6\pdl\drivers\peripheral\scb/cy_scb_ezi2c.c **** ****************************************************************************//**
1206:Generated_Source\PSoC6\pdl\drivers\peripheral\scb/cy_scb_ezi2c.c **** *
1207:Generated_Source\PSoC6\pdl\drivers\peripheral\scb/cy_scb_ezi2c.c **** * Handles the transfer completion.
1208:Generated_Source\PSoC6\pdl\drivers\peripheral\scb/cy_scb_ezi2c.c **** * It is triggered by a Stop or Restart condition on the bus.
1209:Generated_Source\PSoC6\pdl\drivers\peripheral\scb/cy_scb_ezi2c.c **** *
1210:Generated_Source\PSoC6\pdl\drivers\peripheral\scb/cy_scb_ezi2c.c **** * \param base
1211:Generated_Source\PSoC6\pdl\drivers\peripheral\scb/cy_scb_ezi2c.c **** * The pointer to the EZI2C SCB instance.
1212:Generated_Source\PSoC6\pdl\drivers\peripheral\scb/cy_scb_ezi2c.c **** *
1213:Generated_Source\PSoC6\pdl\drivers\peripheral\scb/cy_scb_ezi2c.c **** * \param context
1214:Generated_Source\PSoC6\pdl\drivers\peripheral\scb/cy_scb_ezi2c.c **** * The pointer to the context structure \ref cy_stc_scb_ezi2c_context_t allocated
1215:Generated_Source\PSoC6\pdl\drivers\peripheral\scb/cy_scb_ezi2c.c **** * by the user. The structure is used during the EZI2C operation for internal
1216:Generated_Source\PSoC6\pdl\drivers\peripheral\scb/cy_scb_ezi2c.c **** * configuration and data retention. The user must not modify anything
1217:Generated_Source\PSoC6\pdl\drivers\peripheral\scb/cy_scb_ezi2c.c **** * in this structure.
1218:Generated_Source\PSoC6\pdl\drivers\peripheral\scb/cy_scb_ezi2c.c **** *
1219:Generated_Source\PSoC6\pdl\drivers\peripheral\scb/cy_scb_ezi2c.c **** *******************************************************************************/
1220:Generated_Source\PSoC6\pdl\drivers\peripheral\scb/cy_scb_ezi2c.c **** static void HandleStop(CySCB_Type *base, cy_stc_scb_ezi2c_context_t *context)
1221:Generated_Source\PSoC6\pdl\drivers\peripheral\scb/cy_scb_ezi2c.c **** {
 3387              		.loc 3 1221 0
 3388              		.cfi_startproc
 3389              		@ args = 0, pretend = 0, frame = 8
 3390              		@ frame_needed = 1, uses_anonymous_args = 0
 3391 0000 80B5     		push	{r7, lr}
 3392              		.cfi_def_cfa_offset 8
 3393              		.cfi_offset 7, -8
 3394              		.cfi_offset 14, -4
 3395 0002 82B0     		sub	sp, sp, #8
 3396              		.cfi_def_cfa_offset 16
 3397 0004 00AF     		add	r7, sp, #0
 3398              		.cfi_def_cfa_register 7
 3399 0006 7860     		str	r0, [r7, #4]
 3400 0008 3960     		str	r1, [r7]
1222:Generated_Source\PSoC6\pdl\drivers\peripheral\scb/cy_scb_ezi2c.c ****     /* Check for errors */
1223:Generated_Source\PSoC6\pdl\drivers\peripheral\scb/cy_scb_ezi2c.c ****     if (0UL != (CY_SCB_EZI2C_STATUS_ERR & context->status))
 3401              		.loc 3 1223 0
 3402 000a 3B68     		ldr	r3, [r7]
 3403 000c 5B68     		ldr	r3, [r3, #4]
 3404 000e 2022     		movs	r2, #32
 3405 0010 1340     		ands	r3, r2
 3406 0012 03D0     		beq	.L215
1224:Generated_Source\PSoC6\pdl\drivers\peripheral\scb/cy_scb_ezi2c.c ****     {
1225:Generated_Source\PSoC6\pdl\drivers\peripheral\scb/cy_scb_ezi2c.c ****         /* Re-enable the SCB to recover from errors */
1226:Generated_Source\PSoC6\pdl\drivers\peripheral\scb/cy_scb_ezi2c.c ****         Cy_SCB_FwBlockReset(base);
 3407              		.loc 3 1226 0
 3408 0014 7B68     		ldr	r3, [r7, #4]
 3409 0016 1800     		movs	r0, r3
 3410 0018 FFF7FEFF 		bl	Cy_SCB_FwBlockReset
 3411              	.L215:
1227:Generated_Source\PSoC6\pdl\drivers\peripheral\scb/cy_scb_ezi2c.c ****     }
ARM GAS  C:\Users\salaz\AppData\Local\Temp\ccU0pQaU.s 			page 125


1228:Generated_Source\PSoC6\pdl\drivers\peripheral\scb/cy_scb_ezi2c.c **** 
1229:Generated_Source\PSoC6\pdl\drivers\peripheral\scb/cy_scb_ezi2c.c ****     /* Clean up the hardware to be ready for the next transaction */
1230:Generated_Source\PSoC6\pdl\drivers\peripheral\scb/cy_scb_ezi2c.c ****     if (CY_SCB_EZI2C_STATE_TX_DATA == context->state)
 3412              		.loc 3 1230 0
 3413 001c 3B68     		ldr	r3, [r7]
 3414 001e 1B78     		ldrb	r3, [r3]
 3415 0020 DBB2     		uxtb	r3, r3
 3416 0022 062B     		cmp	r3, #6
 3417 0024 05D1     		bne	.L216
1231:Generated_Source\PSoC6\pdl\drivers\peripheral\scb/cy_scb_ezi2c.c ****     {
1232:Generated_Source\PSoC6\pdl\drivers\peripheral\scb/cy_scb_ezi2c.c ****         Cy_SCB_SetTxInterruptMask(base, CY_SCB_CLEAR_ALL_INTR_SRC);
 3418              		.loc 3 1232 0
 3419 0026 7B68     		ldr	r3, [r7, #4]
 3420 0028 0021     		movs	r1, #0
 3421 002a 1800     		movs	r0, r3
 3422 002c FFF7FEFF 		bl	Cy_SCB_SetTxInterruptMask
 3423 0030 0AE0     		b	.L217
 3424              	.L216:
1233:Generated_Source\PSoC6\pdl\drivers\peripheral\scb/cy_scb_ezi2c.c ****     }
1234:Generated_Source\PSoC6\pdl\drivers\peripheral\scb/cy_scb_ezi2c.c ****     else
1235:Generated_Source\PSoC6\pdl\drivers\peripheral\scb/cy_scb_ezi2c.c ****     {
1236:Generated_Source\PSoC6\pdl\drivers\peripheral\scb/cy_scb_ezi2c.c ****         Cy_SCB_SetRxInterruptMask(base, CY_SCB_CLEAR_ALL_INTR_SRC);
 3425              		.loc 3 1236 0
 3426 0032 7B68     		ldr	r3, [r7, #4]
 3427 0034 0021     		movs	r1, #0
 3428 0036 1800     		movs	r0, r3
 3429 0038 FFF7FEFF 		bl	Cy_SCB_SetRxInterruptMask
1237:Generated_Source\PSoC6\pdl\drivers\peripheral\scb/cy_scb_ezi2c.c **** 
1238:Generated_Source\PSoC6\pdl\drivers\peripheral\scb/cy_scb_ezi2c.c ****         base->I2C_CTRL &= (uint32_t) ~(SCB_I2C_CTRL_S_READY_DATA_ACK_Msk |
 3430              		.loc 3 1238 0
 3431 003c 7B68     		ldr	r3, [r7, #4]
 3432 003e 1B6E     		ldr	r3, [r3, #96]
 3433 0040 204A     		ldr	r2, .L228
 3434 0042 1A40     		ands	r2, r3
 3435 0044 7B68     		ldr	r3, [r7, #4]
 3436 0046 1A66     		str	r2, [r3, #96]
 3437              	.L217:
1239:Generated_Source\PSoC6\pdl\drivers\peripheral\scb/cy_scb_ezi2c.c ****                                        SCB_I2C_CTRL_S_NOT_READY_DATA_NACK_Msk);
1240:Generated_Source\PSoC6\pdl\drivers\peripheral\scb/cy_scb_ezi2c.c ****     }
1241:Generated_Source\PSoC6\pdl\drivers\peripheral\scb/cy_scb_ezi2c.c **** 
1242:Generated_Source\PSoC6\pdl\drivers\peripheral\scb/cy_scb_ezi2c.c ****     /* Update the statuses */
1243:Generated_Source\PSoC6\pdl\drivers\peripheral\scb/cy_scb_ezi2c.c ****     context->status &= (uint32_t) ~CY_SCB_EZI2C_STATUS_BUSY;
 3438              		.loc 3 1243 0
 3439 0048 3B68     		ldr	r3, [r7]
 3440 004a 5B68     		ldr	r3, [r3, #4]
 3441 004c 1022     		movs	r2, #16
 3442 004e 9343     		bics	r3, r2
 3443 0050 1A00     		movs	r2, r3
 3444 0052 3B68     		ldr	r3, [r7]
 3445 0054 5A60     		str	r2, [r3, #4]
1244:Generated_Source\PSoC6\pdl\drivers\peripheral\scb/cy_scb_ezi2c.c **** 
1245:Generated_Source\PSoC6\pdl\drivers\peripheral\scb/cy_scb_ezi2c.c ****     if (context->addr1Active)
 3446              		.loc 3 1245 0
 3447 0056 3B68     		ldr	r3, [r7]
 3448 0058 1B7E     		ldrb	r3, [r3, #24]
 3449 005a 002B     		cmp	r3, #0
 3450 005c 15D0     		beq	.L218
ARM GAS  C:\Users\salaz\AppData\Local\Temp\ccU0pQaU.s 			page 126


1246:Generated_Source\PSoC6\pdl\drivers\peripheral\scb/cy_scb_ezi2c.c ****     {
1247:Generated_Source\PSoC6\pdl\drivers\peripheral\scb/cy_scb_ezi2c.c ****         context->status |= ((CY_SCB_EZI2C_STATE_TX_DATA == context->state) ? CY_SCB_EZI2C_STATUS_RE
 3451              		.loc 3 1247 0
 3452 005e 3B68     		ldr	r3, [r7]
 3453 0060 1B78     		ldrb	r3, [r3]
 3454 0062 DBB2     		uxtb	r3, r3
 3455 0064 062B     		cmp	r3, #6
 3456 0066 09D0     		beq	.L219
1248:Generated_Source\PSoC6\pdl\drivers\peripheral\scb/cy_scb_ezi2c.c ****                              ((context->baseAddr1 != context->idx) ?  CY_SCB_EZI2C_STATUS_WRITE1 : 
 3457              		.loc 3 1248 0
 3458 0068 3B68     		ldr	r3, [r7]
 3459 006a 1A69     		ldr	r2, [r3, #16]
 3460 006c 3B68     		ldr	r3, [r7]
 3461 006e DB68     		ldr	r3, [r3, #12]
 3462 0070 9A42     		cmp	r2, r3
 3463 0072 01D0     		beq	.L220
 3464              		.loc 3 1248 0 is_stmt 0 discriminator 1
 3465 0074 0223     		movs	r3, #2
 3466 0076 02E0     		b	.L222
 3467              	.L220:
 3468              		.loc 3 1248 0 discriminator 2
 3469 0078 0023     		movs	r3, #0
 3470 007a 00E0     		b	.L222
 3471              	.L219:
1247:Generated_Source\PSoC6\pdl\drivers\peripheral\scb/cy_scb_ezi2c.c ****                              ((context->baseAddr1 != context->idx) ?  CY_SCB_EZI2C_STATUS_WRITE1 : 
 3472              		.loc 3 1247 0 is_stmt 1 discriminator 1
 3473 007c 0123     		movs	r3, #1
 3474              	.L222:
1247:Generated_Source\PSoC6\pdl\drivers\peripheral\scb/cy_scb_ezi2c.c ****                              ((context->baseAddr1 != context->idx) ?  CY_SCB_EZI2C_STATUS_WRITE1 : 
 3475              		.loc 3 1247 0 is_stmt 0 discriminator 3
 3476 007e 3A68     		ldr	r2, [r7]
 3477 0080 5268     		ldr	r2, [r2, #4]
 3478 0082 1A43     		orrs	r2, r3
 3479 0084 3B68     		ldr	r3, [r7]
 3480 0086 5A60     		str	r2, [r3, #4]
 3481 0088 14E0     		b	.L223
 3482              	.L218:
1249:Generated_Source\PSoC6\pdl\drivers\peripheral\scb/cy_scb_ezi2c.c ****     }
1250:Generated_Source\PSoC6\pdl\drivers\peripheral\scb/cy_scb_ezi2c.c ****     else
1251:Generated_Source\PSoC6\pdl\drivers\peripheral\scb/cy_scb_ezi2c.c ****     {
1252:Generated_Source\PSoC6\pdl\drivers\peripheral\scb/cy_scb_ezi2c.c ****         context->status |= ((CY_SCB_EZI2C_STATE_TX_DATA == context->state) ? CY_SCB_EZI2C_STATUS_RE
 3483              		.loc 3 1252 0 is_stmt 1
 3484 008a 3B68     		ldr	r3, [r7]
 3485 008c 1B78     		ldrb	r3, [r3]
 3486 008e DBB2     		uxtb	r3, r3
 3487 0090 062B     		cmp	r3, #6
 3488 0092 09D0     		beq	.L224
1253:Generated_Source\PSoC6\pdl\drivers\peripheral\scb/cy_scb_ezi2c.c ****                              ((context->baseAddr2 != context->idx) ? CY_SCB_EZI2C_STATUS_WRITE2 : 0
 3489              		.loc 3 1253 0
 3490 0094 3B68     		ldr	r3, [r7]
 3491 0096 5A69     		ldr	r2, [r3, #20]
 3492 0098 3B68     		ldr	r3, [r7]
 3493 009a DB68     		ldr	r3, [r3, #12]
 3494 009c 9A42     		cmp	r2, r3
 3495 009e 01D0     		beq	.L225
 3496              		.loc 3 1253 0 is_stmt 0 discriminator 1
 3497 00a0 0823     		movs	r3, #8
ARM GAS  C:\Users\salaz\AppData\Local\Temp\ccU0pQaU.s 			page 127


 3498 00a2 02E0     		b	.L227
 3499              	.L225:
 3500              		.loc 3 1253 0 discriminator 2
 3501 00a4 0023     		movs	r3, #0
 3502 00a6 00E0     		b	.L227
 3503              	.L224:
1252:Generated_Source\PSoC6\pdl\drivers\peripheral\scb/cy_scb_ezi2c.c ****                              ((context->baseAddr2 != context->idx) ? CY_SCB_EZI2C_STATUS_WRITE2 : 0
 3504              		.loc 3 1252 0 is_stmt 1 discriminator 1
 3505 00a8 0423     		movs	r3, #4
 3506              	.L227:
1252:Generated_Source\PSoC6\pdl\drivers\peripheral\scb/cy_scb_ezi2c.c ****                              ((context->baseAddr2 != context->idx) ? CY_SCB_EZI2C_STATUS_WRITE2 : 0
 3507              		.loc 3 1252 0 is_stmt 0 discriminator 3
 3508 00aa 3A68     		ldr	r2, [r7]
 3509 00ac 5268     		ldr	r2, [r2, #4]
 3510 00ae 1A43     		orrs	r2, r3
 3511 00b0 3B68     		ldr	r3, [r7]
 3512 00b2 5A60     		str	r2, [r3, #4]
 3513              	.L223:
1254:Generated_Source\PSoC6\pdl\drivers\peripheral\scb/cy_scb_ezi2c.c ****     }
1255:Generated_Source\PSoC6\pdl\drivers\peripheral\scb/cy_scb_ezi2c.c **** 
1256:Generated_Source\PSoC6\pdl\drivers\peripheral\scb/cy_scb_ezi2c.c ****     /* Back to the idle state */
1257:Generated_Source\PSoC6\pdl\drivers\peripheral\scb/cy_scb_ezi2c.c ****     context->state = CY_SCB_EZI2C_STATE_IDLE;
 3514              		.loc 3 1257 0 is_stmt 1
 3515 00b4 3B68     		ldr	r3, [r7]
 3516 00b6 0022     		movs	r2, #0
 3517 00b8 1A70     		strb	r2, [r3]
1258:Generated_Source\PSoC6\pdl\drivers\peripheral\scb/cy_scb_ezi2c.c **** }
 3518              		.loc 3 1258 0
 3519 00ba C046     		nop
 3520 00bc BD46     		mov	sp, r7
 3521 00be 02B0     		add	sp, sp, #8
 3522              		@ sp needed
 3523 00c0 80BD     		pop	{r7, pc}
 3524              	.L229:
 3525 00c2 C046     		.align	2
 3526              	.L228:
 3527 00c4 FF5FFFFF 		.word	-40961
 3528              		.cfi_endproc
 3529              	.LFE140:
 3530              		.size	HandleStop, .-HandleStop
 3531              		.section	.text.UpdateAddressMask,"ax",%progbits
 3532              		.align	2
 3533              		.code	16
 3534              		.thumb_func
 3535              		.type	UpdateAddressMask, %function
 3536              	UpdateAddressMask:
 3537              	.LFB141:
1259:Generated_Source\PSoC6\pdl\drivers\peripheral\scb/cy_scb_ezi2c.c **** 
1260:Generated_Source\PSoC6\pdl\drivers\peripheral\scb/cy_scb_ezi2c.c **** 
1261:Generated_Source\PSoC6\pdl\drivers\peripheral\scb/cy_scb_ezi2c.c **** /*******************************************************************************
1262:Generated_Source\PSoC6\pdl\drivers\peripheral\scb/cy_scb_ezi2c.c **** * Function Name: UpdateAddressMask
1263:Generated_Source\PSoC6\pdl\drivers\peripheral\scb/cy_scb_ezi2c.c **** ****************************************************************************//**
1264:Generated_Source\PSoC6\pdl\drivers\peripheral\scb/cy_scb_ezi2c.c **** *
1265:Generated_Source\PSoC6\pdl\drivers\peripheral\scb/cy_scb_ezi2c.c **** * Updates the slave address mask to enable the SCB hardware to receive matching
1266:Generated_Source\PSoC6\pdl\drivers\peripheral\scb/cy_scb_ezi2c.c **** * slave addresses.
1267:Generated_Source\PSoC6\pdl\drivers\peripheral\scb/cy_scb_ezi2c.c **** *
1268:Generated_Source\PSoC6\pdl\drivers\peripheral\scb/cy_scb_ezi2c.c **** * \param base
ARM GAS  C:\Users\salaz\AppData\Local\Temp\ccU0pQaU.s 			page 128


1269:Generated_Source\PSoC6\pdl\drivers\peripheral\scb/cy_scb_ezi2c.c **** * The pointer to the EZI2C SCB instance.
1270:Generated_Source\PSoC6\pdl\drivers\peripheral\scb/cy_scb_ezi2c.c **** *
1271:Generated_Source\PSoC6\pdl\drivers\peripheral\scb/cy_scb_ezi2c.c **** * \param context
1272:Generated_Source\PSoC6\pdl\drivers\peripheral\scb/cy_scb_ezi2c.c **** * The pointer to the context structure \ref cy_stc_scb_ezi2c_context_t allocated
1273:Generated_Source\PSoC6\pdl\drivers\peripheral\scb/cy_scb_ezi2c.c **** * by the user. The structure is used during the EZI2C operation for internal
1274:Generated_Source\PSoC6\pdl\drivers\peripheral\scb/cy_scb_ezi2c.c **** * configuration and data retention. The user must not modify anything
1275:Generated_Source\PSoC6\pdl\drivers\peripheral\scb/cy_scb_ezi2c.c **** * in this structure.
1276:Generated_Source\PSoC6\pdl\drivers\peripheral\scb/cy_scb_ezi2c.c **** *
1277:Generated_Source\PSoC6\pdl\drivers\peripheral\scb/cy_scb_ezi2c.c **** *******************************************************************************/
1278:Generated_Source\PSoC6\pdl\drivers\peripheral\scb/cy_scb_ezi2c.c **** static void UpdateAddressMask(CySCB_Type *base, cy_stc_scb_ezi2c_context_t const *context)
1279:Generated_Source\PSoC6\pdl\drivers\peripheral\scb/cy_scb_ezi2c.c **** {
 3538              		.loc 3 1279 0
 3539              		.cfi_startproc
 3540              		@ args = 0, pretend = 0, frame = 16
 3541              		@ frame_needed = 1, uses_anonymous_args = 0
 3542 0000 80B5     		push	{r7, lr}
 3543              		.cfi_def_cfa_offset 8
 3544              		.cfi_offset 7, -8
 3545              		.cfi_offset 14, -4
 3546 0002 84B0     		sub	sp, sp, #16
 3547              		.cfi_def_cfa_offset 24
 3548 0004 00AF     		add	r7, sp, #0
 3549              		.cfi_def_cfa_register 7
 3550 0006 7860     		str	r0, [r7, #4]
 3551 0008 3960     		str	r1, [r7]
1280:Generated_Source\PSoC6\pdl\drivers\peripheral\scb/cy_scb_ezi2c.c ****     uint32_t addrMask;
1281:Generated_Source\PSoC6\pdl\drivers\peripheral\scb/cy_scb_ezi2c.c **** 
1282:Generated_Source\PSoC6\pdl\drivers\peripheral\scb/cy_scb_ezi2c.c ****     /* Check how many addresses are used: */
1283:Generated_Source\PSoC6\pdl\drivers\peripheral\scb/cy_scb_ezi2c.c ****     if (0U != context->address2)
 3552              		.loc 3 1283 0
 3553 000a 3B68     		ldr	r3, [r7]
 3554 000c 5B7A     		ldrb	r3, [r3, #9]
 3555 000e 002B     		cmp	r3, #0
 3556 0010 08D0     		beq	.L231
1284:Generated_Source\PSoC6\pdl\drivers\peripheral\scb/cy_scb_ezi2c.c ****     {
1285:Generated_Source\PSoC6\pdl\drivers\peripheral\scb/cy_scb_ezi2c.c ****         /* If (addr1 and addr2) bits match - mask bit equals 1; otherwise 0 */
1286:Generated_Source\PSoC6\pdl\drivers\peripheral\scb/cy_scb_ezi2c.c ****         addrMask  = (uint32_t) ~((uint32_t) context->address1 ^ (uint32_t) context->address2);
 3557              		.loc 3 1286 0
 3558 0012 3B68     		ldr	r3, [r7]
 3559 0014 1A7A     		ldrb	r2, [r3, #8]
 3560 0016 3B68     		ldr	r3, [r7]
 3561 0018 5B7A     		ldrb	r3, [r3, #9]
 3562 001a 5340     		eors	r3, r2
 3563 001c DBB2     		uxtb	r3, r3
 3564 001e DB43     		mvns	r3, r3
 3565 0020 FB60     		str	r3, [r7, #12]
 3566 0022 01E0     		b	.L232
 3567              	.L231:
1287:Generated_Source\PSoC6\pdl\drivers\peripheral\scb/cy_scb_ezi2c.c ****     }
1288:Generated_Source\PSoC6\pdl\drivers\peripheral\scb/cy_scb_ezi2c.c ****     else
1289:Generated_Source\PSoC6\pdl\drivers\peripheral\scb/cy_scb_ezi2c.c ****     {
1290:Generated_Source\PSoC6\pdl\drivers\peripheral\scb/cy_scb_ezi2c.c ****         addrMask = CY_SCB_EZI2C_ONE_ADDRESS_MASK;
 3568              		.loc 3 1290 0
 3569 0024 FF23     		movs	r3, #255
 3570 0026 FB60     		str	r3, [r7, #12]
 3571              	.L232:
1291:Generated_Source\PSoC6\pdl\drivers\peripheral\scb/cy_scb_ezi2c.c ****     }
ARM GAS  C:\Users\salaz\AppData\Local\Temp\ccU0pQaU.s 			page 129


1292:Generated_Source\PSoC6\pdl\drivers\peripheral\scb/cy_scb_ezi2c.c **** 
1293:Generated_Source\PSoC6\pdl\drivers\peripheral\scb/cy_scb_ezi2c.c ****     /* Update the hardware address match */
1294:Generated_Source\PSoC6\pdl\drivers\peripheral\scb/cy_scb_ezi2c.c ****     base->RX_MATCH = _CLR_SET_FLD32U(base->RX_MATCH, SCB_RX_MATCH_MASK, ((uint32_t) addrMask << 1UL
 3572              		.loc 3 1294 0
 3573 0028 7A68     		ldr	r2, [r7, #4]
 3574 002a C423     		movs	r3, #196
 3575 002c 9B00     		lsls	r3, r3, #2
 3576 002e D358     		ldr	r3, [r2, r3]
 3577 0030 084A     		ldr	r2, .L233
 3578 0032 1A40     		ands	r2, r3
 3579 0034 FB68     		ldr	r3, [r7, #12]
 3580 0036 5904     		lsls	r1, r3, #17
 3581 0038 FF23     		movs	r3, #255
 3582 003a 1B04     		lsls	r3, r3, #16
 3583 003c 0B40     		ands	r3, r1
 3584 003e 1A43     		orrs	r2, r3
 3585 0040 1100     		movs	r1, r2
 3586 0042 7A68     		ldr	r2, [r7, #4]
 3587 0044 C423     		movs	r3, #196
 3588 0046 9B00     		lsls	r3, r3, #2
 3589 0048 D150     		str	r1, [r2, r3]
1295:Generated_Source\PSoC6\pdl\drivers\peripheral\scb/cy_scb_ezi2c.c **** }
 3590              		.loc 3 1295 0
 3591 004a C046     		nop
 3592 004c BD46     		mov	sp, r7
 3593 004e 04B0     		add	sp, sp, #16
 3594              		@ sp needed
 3595 0050 80BD     		pop	{r7, pc}
 3596              	.L234:
 3597 0052 C046     		.align	2
 3598              	.L233:
 3599 0054 FFFF00FF 		.word	-16711681
 3600              		.cfi_endproc
 3601              	.LFE141:
 3602              		.size	UpdateAddressMask, .-UpdateAddressMask
 3603              		.text
 3604              	.Letext0:
 3605              		.file 4 "c:\\program files (x86)\\cypress\\psoc creator\\4.2\\psoc creator\\import\\gnu\\arm\\5.4.
 3606              		.file 5 "c:\\program files (x86)\\cypress\\psoc creator\\4.2\\psoc creator\\import\\gnu\\arm\\5.4.
 3607              		.file 6 "Generated_Source\\PSoC6\\pdl\\devices/psoc6/ip/cyip_scb.h"
 3608              		.file 7 "Generated_Source\\PSoC6\\pdl\\drivers/peripheral/syslib/cy_syslib.h"
 3609              		.file 8 "Generated_Source\\PSoC6\\pdl\\drivers/peripheral/syspm/cy_syspm.h"
 3610              		.section	.debug_info,"",%progbits
 3611              	.Ldebug_info0:
 3612 0000 98120000 		.4byte	0x1298
 3613 0004 0400     		.2byte	0x4
 3614 0006 00000000 		.4byte	.Ldebug_abbrev0
 3615 000a 04       		.byte	0x4
 3616 000b 01       		.uleb128 0x1
 3617 000c FA040000 		.4byte	.LASF209
 3618 0010 0C       		.byte	0xc
 3619 0011 7F090000 		.4byte	.LASF210
 3620 0015 A60B0000 		.4byte	.LASF211
 3621 0019 48000000 		.4byte	.Ldebug_ranges0+0x48
 3622 001d 00000000 		.4byte	0
 3623 0021 00000000 		.4byte	.Ldebug_line0
 3624 0025 02       		.uleb128 0x2
ARM GAS  C:\Users\salaz\AppData\Local\Temp\ccU0pQaU.s 			page 130


 3625 0026 01       		.byte	0x1
 3626 0027 06       		.byte	0x6
 3627 0028 3B010000 		.4byte	.LASF0
 3628 002c 03       		.uleb128 0x3
 3629 002d 8E000000 		.4byte	.LASF5
 3630 0031 04       		.byte	0x4
 3631 0032 1D       		.byte	0x1d
 3632 0033 37000000 		.4byte	0x37
 3633 0037 02       		.uleb128 0x2
 3634 0038 01       		.byte	0x1
 3635 0039 08       		.byte	0x8
 3636 003a BB080000 		.4byte	.LASF1
 3637 003e 02       		.uleb128 0x2
 3638 003f 02       		.byte	0x2
 3639 0040 05       		.byte	0x5
 3640 0041 D8080000 		.4byte	.LASF2
 3641 0045 02       		.uleb128 0x2
 3642 0046 02       		.byte	0x2
 3643 0047 07       		.byte	0x7
 3644 0048 BD040000 		.4byte	.LASF3
 3645 004c 02       		.uleb128 0x2
 3646 004d 04       		.byte	0x4
 3647 004e 05       		.byte	0x5
 3648 004f 3A020000 		.4byte	.LASF4
 3649 0053 03       		.uleb128 0x3
 3650 0054 46030000 		.4byte	.LASF6
 3651 0058 04       		.byte	0x4
 3652 0059 41       		.byte	0x41
 3653 005a 5E000000 		.4byte	0x5e
 3654 005e 02       		.uleb128 0x2
 3655 005f 04       		.byte	0x4
 3656 0060 07       		.byte	0x7
 3657 0061 04040000 		.4byte	.LASF7
 3658 0065 02       		.uleb128 0x2
 3659 0066 08       		.byte	0x8
 3660 0067 05       		.byte	0x5
 3661 0068 2D010000 		.4byte	.LASF8
 3662 006c 02       		.uleb128 0x2
 3663 006d 08       		.byte	0x8
 3664 006e 07       		.byte	0x7
 3665 006f B9000000 		.4byte	.LASF9
 3666 0073 04       		.uleb128 0x4
 3667 0074 04       		.byte	0x4
 3668 0075 05       		.byte	0x5
 3669 0076 696E7400 		.ascii	"int\000"
 3670 007a 02       		.uleb128 0x2
 3671 007b 04       		.byte	0x4
 3672 007c 07       		.byte	0x7
 3673 007d AA030000 		.4byte	.LASF10
 3674 0081 03       		.uleb128 0x3
 3675 0082 4F0C0000 		.4byte	.LASF11
 3676 0086 05       		.byte	0x5
 3677 0087 18       		.byte	0x18
 3678 0088 2C000000 		.4byte	0x2c
 3679 008c 03       		.uleb128 0x3
 3680 008d D1090000 		.4byte	.LASF12
 3681 0091 05       		.byte	0x5
ARM GAS  C:\Users\salaz\AppData\Local\Temp\ccU0pQaU.s 			page 131


 3682 0092 30       		.byte	0x30
 3683 0093 53000000 		.4byte	0x53
 3684 0097 02       		.uleb128 0x2
 3685 0098 08       		.byte	0x8
 3686 0099 04       		.byte	0x4
 3687 009a 140A0000 		.4byte	.LASF13
 3688 009e 02       		.uleb128 0x2
 3689 009f 04       		.byte	0x4
 3690 00a0 07       		.byte	0x7
 3691 00a1 B7030000 		.4byte	.LASF14
 3692 00a5 05       		.uleb128 0x5
 3693 00a6 8C000000 		.4byte	0x8c
 3694 00aa 06       		.uleb128 0x6
 3695 00ab A5000000 		.4byte	0xa5
 3696 00af 07       		.uleb128 0x7
 3697 00b0 AA000000 		.4byte	0xaa
 3698 00b4 BF000000 		.4byte	0xbf
 3699 00b8 08       		.uleb128 0x8
 3700 00b9 9E000000 		.4byte	0x9e
 3701 00bd 05       		.byte	0x5
 3702 00be 00       		.byte	0
 3703 00bf 07       		.uleb128 0x7
 3704 00c0 AA000000 		.4byte	0xaa
 3705 00c4 CF000000 		.4byte	0xcf
 3706 00c8 08       		.uleb128 0x8
 3707 00c9 9E000000 		.4byte	0x9e
 3708 00cd 7F       		.byte	0x7f
 3709 00ce 00       		.byte	0
 3710 00cf 07       		.uleb128 0x7
 3711 00d0 AA000000 		.4byte	0xaa
 3712 00d4 DF000000 		.4byte	0xdf
 3713 00d8 08       		.uleb128 0x8
 3714 00d9 9E000000 		.4byte	0x9e
 3715 00dd 02       		.byte	0x2
 3716 00de 00       		.byte	0
 3717 00df 07       		.uleb128 0x7
 3718 00e0 AA000000 		.4byte	0xaa
 3719 00e4 EF000000 		.4byte	0xef
 3720 00e8 08       		.uleb128 0x8
 3721 00e9 9E000000 		.4byte	0x9e
 3722 00ed 03       		.byte	0x3
 3723 00ee 00       		.byte	0
 3724 00ef 07       		.uleb128 0x7
 3725 00f0 AA000000 		.4byte	0xaa
 3726 00f4 FF000000 		.4byte	0xff
 3727 00f8 08       		.uleb128 0x8
 3728 00f9 9E000000 		.4byte	0x9e
 3729 00fd 3E       		.byte	0x3e
 3730 00fe 00       		.byte	0
 3731 00ff 07       		.uleb128 0x7
 3732 0100 AA000000 		.4byte	0xaa
 3733 0104 0F010000 		.4byte	0x10f
 3734 0108 08       		.uleb128 0x8
 3735 0109 9E000000 		.4byte	0x9e
 3736 010d 1E       		.byte	0x1e
 3737 010e 00       		.byte	0
 3738 010f 07       		.uleb128 0x7
ARM GAS  C:\Users\salaz\AppData\Local\Temp\ccU0pQaU.s 			page 132


 3739 0110 AA000000 		.4byte	0xaa
 3740 0114 1F010000 		.4byte	0x11f
 3741 0118 08       		.uleb128 0x8
 3742 0119 9E000000 		.4byte	0x9e
 3743 011d 0B       		.byte	0xb
 3744 011e 00       		.byte	0
 3745 011f 07       		.uleb128 0x7
 3746 0120 AA000000 		.4byte	0xaa
 3747 0124 2F010000 		.4byte	0x12f
 3748 0128 08       		.uleb128 0x8
 3749 0129 9E000000 		.4byte	0x9e
 3750 012d 0C       		.byte	0xc
 3751 012e 00       		.byte	0
 3752 012f 07       		.uleb128 0x7
 3753 0130 AA000000 		.4byte	0xaa
 3754 0134 3F010000 		.4byte	0x13f
 3755 0138 08       		.uleb128 0x8
 3756 0139 9E000000 		.4byte	0x9e
 3757 013d 0A       		.byte	0xa
 3758 013e 00       		.byte	0
 3759 013f 07       		.uleb128 0x7
 3760 0140 AA000000 		.4byte	0xaa
 3761 0144 4F010000 		.4byte	0x14f
 3762 0148 08       		.uleb128 0x8
 3763 0149 9E000000 		.4byte	0x9e
 3764 014d 2E       		.byte	0x2e
 3765 014e 00       		.byte	0
 3766 014f 07       		.uleb128 0x7
 3767 0150 AA000000 		.4byte	0xaa
 3768 0154 5F010000 		.4byte	0x15f
 3769 0158 08       		.uleb128 0x8
 3770 0159 9E000000 		.4byte	0x9e
 3771 015d 2D       		.byte	0x2d
 3772 015e 00       		.byte	0
 3773 015f 09       		.uleb128 0x9
 3774 0160 D00F     		.2byte	0xfd0
 3775 0162 06       		.byte	0x6
 3776 0163 21       		.byte	0x21
 3777 0164 E3040000 		.4byte	0x4e3
 3778 0168 0A       		.uleb128 0xa
 3779 0169 400B0000 		.4byte	.LASF15
 3780 016d 06       		.byte	0x6
 3781 016e 22       		.byte	0x22
 3782 016f A5000000 		.4byte	0xa5
 3783 0173 00       		.byte	0
 3784 0174 0A       		.uleb128 0xa
 3785 0175 9F0B0000 		.4byte	.LASF16
 3786 0179 06       		.byte	0x6
 3787 017a 23       		.byte	0x23
 3788 017b AA000000 		.4byte	0xaa
 3789 017f 04       		.byte	0x4
 3790 0180 0A       		.uleb128 0xa
 3791 0181 45060000 		.4byte	.LASF17
 3792 0185 06       		.byte	0x6
 3793 0186 24       		.byte	0x24
 3794 0187 A5000000 		.4byte	0xa5
 3795 018b 08       		.byte	0x8
ARM GAS  C:\Users\salaz\AppData\Local\Temp\ccU0pQaU.s 			page 133


 3796 018c 0A       		.uleb128 0xa
 3797 018d 16040000 		.4byte	.LASF18
 3798 0191 06       		.byte	0x6
 3799 0192 25       		.byte	0x25
 3800 0193 AA000000 		.4byte	0xaa
 3801 0197 0C       		.byte	0xc
 3802 0198 0A       		.uleb128 0xa
 3803 0199 940A0000 		.4byte	.LASF19
 3804 019d 06       		.byte	0x6
 3805 019e 26       		.byte	0x26
 3806 019f E8040000 		.4byte	0x4e8
 3807 01a3 10       		.byte	0x10
 3808 01a4 0A       		.uleb128 0xa
 3809 01a5 7C030000 		.4byte	.LASF20
 3810 01a9 06       		.byte	0x6
 3811 01aa 27       		.byte	0x27
 3812 01ab A5000000 		.4byte	0xa5
 3813 01af 20       		.byte	0x20
 3814 01b0 0A       		.uleb128 0xa
 3815 01b1 090A0000 		.4byte	.LASF21
 3816 01b5 06       		.byte	0x6
 3817 01b6 28       		.byte	0x28
 3818 01b7 AA000000 		.4byte	0xaa
 3819 01bb 24       		.byte	0x24
 3820 01bc 0A       		.uleb128 0xa
 3821 01bd 23080000 		.4byte	.LASF22
 3822 01c1 06       		.byte	0x6
 3823 01c2 29       		.byte	0x29
 3824 01c3 F2040000 		.4byte	0x4f2
 3825 01c7 28       		.byte	0x28
 3826 01c8 0A       		.uleb128 0xa
 3827 01c9 0E070000 		.4byte	.LASF23
 3828 01cd 06       		.byte	0x6
 3829 01ce 2A       		.byte	0x2a
 3830 01cf A5000000 		.4byte	0xa5
 3831 01d3 40       		.byte	0x40
 3832 01d4 0A       		.uleb128 0xa
 3833 01d5 8C040000 		.4byte	.LASF24
 3834 01d9 06       		.byte	0x6
 3835 01da 2B       		.byte	0x2b
 3836 01db A5000000 		.4byte	0xa5
 3837 01df 44       		.byte	0x44
 3838 01e0 0A       		.uleb128 0xa
 3839 01e1 C7030000 		.4byte	.LASF25
 3840 01e5 06       		.byte	0x6
 3841 01e6 2C       		.byte	0x2c
 3842 01e7 A5000000 		.4byte	0xa5
 3843 01eb 48       		.byte	0x48
 3844 01ec 0A       		.uleb128 0xa
 3845 01ed E3040000 		.4byte	.LASF26
 3846 01f1 06       		.byte	0x6
 3847 01f2 2D       		.byte	0x2d
 3848 01f3 AA000000 		.4byte	0xaa
 3849 01f7 4C       		.byte	0x4c
 3850 01f8 0A       		.uleb128 0xa
 3851 01f9 74020000 		.4byte	.LASF27
 3852 01fd 06       		.byte	0x6
ARM GAS  C:\Users\salaz\AppData\Local\Temp\ccU0pQaU.s 			page 134


 3853 01fe 2E       		.byte	0x2e
 3854 01ff A5000000 		.4byte	0xa5
 3855 0203 50       		.byte	0x50
 3856 0204 0A       		.uleb128 0xa
 3857 0205 61090000 		.4byte	.LASF28
 3858 0209 06       		.byte	0x6
 3859 020a 2F       		.byte	0x2f
 3860 020b FC040000 		.4byte	0x4fc
 3861 020f 54       		.byte	0x54
 3862 0210 0A       		.uleb128 0xa
 3863 0211 B2080000 		.4byte	.LASF29
 3864 0215 06       		.byte	0x6
 3865 0216 30       		.byte	0x30
 3866 0217 A5000000 		.4byte	0xa5
 3867 021b 60       		.byte	0x60
 3868 021c 0A       		.uleb128 0xa
 3869 021d 7E000000 		.4byte	.LASF30
 3870 0221 06       		.byte	0x6
 3871 0222 31       		.byte	0x31
 3872 0223 AA000000 		.4byte	0xaa
 3873 0227 64       		.byte	0x64
 3874 0228 0A       		.uleb128 0xa
 3875 0229 600C0000 		.4byte	.LASF31
 3876 022d 06       		.byte	0x6
 3877 022e 32       		.byte	0x32
 3878 022f A5000000 		.4byte	0xa5
 3879 0233 68       		.byte	0x68
 3880 0234 0A       		.uleb128 0xa
 3881 0235 E2080000 		.4byte	.LASF32
 3882 0239 06       		.byte	0x6
 3883 023a 33       		.byte	0x33
 3884 023b A5000000 		.4byte	0xa5
 3885 023f 6C       		.byte	0x6c
 3886 0240 0A       		.uleb128 0xa
 3887 0241 DB040000 		.4byte	.LASF33
 3888 0245 06       		.byte	0x6
 3889 0246 34       		.byte	0x34
 3890 0247 A5000000 		.4byte	0xa5
 3891 024b 70       		.byte	0x70
 3892 024c 0A       		.uleb128 0xa
 3893 024d 3C080000 		.4byte	.LASF34
 3894 0251 06       		.byte	0x6
 3895 0252 35       		.byte	0x35
 3896 0253 16050000 		.4byte	0x516
 3897 0257 74       		.byte	0x74
 3898 0258 0B       		.uleb128 0xb
 3899 0259 8B070000 		.4byte	.LASF35
 3900 025d 06       		.byte	0x6
 3901 025e 36       		.byte	0x36
 3902 025f A5000000 		.4byte	0xa5
 3903 0263 0001     		.2byte	0x100
 3904 0265 0B       		.uleb128 0xb
 3905 0266 6B090000 		.4byte	.LASF36
 3906 026a 06       		.byte	0x6
 3907 026b 37       		.byte	0x37
 3908 026c 20050000 		.4byte	0x520
 3909 0270 0401     		.2byte	0x104
ARM GAS  C:\Users\salaz\AppData\Local\Temp\ccU0pQaU.s 			page 135


 3910 0272 0B       		.uleb128 0xb
 3911 0273 180B0000 		.4byte	.LASF37
 3912 0277 06       		.byte	0x6
 3913 0278 38       		.byte	0x38
 3914 0279 A5000000 		.4byte	0xa5
 3915 027d 0002     		.2byte	0x200
 3916 027f 0B       		.uleb128 0xb
 3917 0280 71000000 		.4byte	.LASF38
 3918 0284 06       		.byte	0x6
 3919 0285 39       		.byte	0x39
 3920 0286 A5000000 		.4byte	0xa5
 3921 028a 0402     		.2byte	0x204
 3922 028c 0B       		.uleb128 0xb
 3923 028d 98000000 		.4byte	.LASF39
 3924 0291 06       		.byte	0x6
 3925 0292 3A       		.byte	0x3a
 3926 0293 AA000000 		.4byte	0xaa
 3927 0297 0802     		.2byte	0x208
 3928 0299 0B       		.uleb128 0xb
 3929 029a 75090000 		.4byte	.LASF40
 3930 029e 06       		.byte	0x6
 3931 029f 3B       		.byte	0x3b
 3932 02a0 2A050000 		.4byte	0x52a
 3933 02a4 0C02     		.2byte	0x20c
 3934 02a6 0B       		.uleb128 0xb
 3935 02a7 8F020000 		.4byte	.LASF41
 3936 02ab 06       		.byte	0x6
 3937 02ac 3C       		.byte	0x3c
 3938 02ad A5000000 		.4byte	0xa5
 3939 02b1 4002     		.2byte	0x240
 3940 02b3 0B       		.uleb128 0xb
 3941 02b4 76080000 		.4byte	.LASF42
 3942 02b8 06       		.byte	0x6
 3943 02b9 3D       		.byte	0x3d
 3944 02ba 34050000 		.4byte	0x534
 3945 02be 4402     		.2byte	0x244
 3946 02c0 0B       		.uleb128 0xb
 3947 02c1 C00A0000 		.4byte	.LASF43
 3948 02c5 06       		.byte	0x6
 3949 02c6 3E       		.byte	0x3e
 3950 02c7 A5000000 		.4byte	0xa5
 3951 02cb 0003     		.2byte	0x300
 3952 02cd 0B       		.uleb128 0xb
 3953 02ce 420C0000 		.4byte	.LASF44
 3954 02d2 06       		.byte	0x6
 3955 02d3 3F       		.byte	0x3f
 3956 02d4 A5000000 		.4byte	0xa5
 3957 02d8 0403     		.2byte	0x304
 3958 02da 0B       		.uleb128 0xb
 3959 02db A40A0000 		.4byte	.LASF45
 3960 02df 06       		.byte	0x6
 3961 02e0 40       		.byte	0x40
 3962 02e1 AA000000 		.4byte	0xaa
 3963 02e5 0803     		.2byte	0x308
 3964 02e7 0B       		.uleb128 0xb
 3965 02e8 80080000 		.4byte	.LASF46
 3966 02ec 06       		.byte	0x6
ARM GAS  C:\Users\salaz\AppData\Local\Temp\ccU0pQaU.s 			page 136


 3967 02ed 41       		.byte	0x41
 3968 02ee AA000000 		.4byte	0xaa
 3969 02f2 0C03     		.2byte	0x30c
 3970 02f4 0B       		.uleb128 0xb
 3971 02f5 B9050000 		.4byte	.LASF47
 3972 02f9 06       		.byte	0x6
 3973 02fa 42       		.byte	0x42
 3974 02fb A5000000 		.4byte	0xa5
 3975 02ff 1003     		.2byte	0x310
 3976 0301 0B       		.uleb128 0xb
 3977 0302 8A080000 		.4byte	.LASF48
 3978 0306 06       		.byte	0x6
 3979 0307 43       		.byte	0x43
 3980 0308 3E050000 		.4byte	0x53e
 3981 030c 1403     		.2byte	0x314
 3982 030e 0B       		.uleb128 0xb
 3983 030f C80A0000 		.4byte	.LASF49
 3984 0313 06       		.byte	0x6
 3985 0314 44       		.byte	0x44
 3986 0315 AA000000 		.4byte	0xaa
 3987 0319 4003     		.2byte	0x340
 3988 031b 0B       		.uleb128 0xb
 3989 031c 26040000 		.4byte	.LASF50
 3990 0320 06       		.byte	0x6
 3991 0321 45       		.byte	0x45
 3992 0322 AA000000 		.4byte	0xaa
 3993 0326 4403     		.2byte	0x344
 3994 0328 0B       		.uleb128 0xb
 3995 0329 94080000 		.4byte	.LASF51
 3996 032d 06       		.byte	0x6
 3997 032e 46       		.byte	0x46
 3998 032f 48050000 		.4byte	0x548
 3999 0333 4803     		.2byte	0x348
 4000 0335 0B       		.uleb128 0xb
 4001 0336 F2040000 		.4byte	.LASF52
 4002 033a 06       		.byte	0x6
 4003 033b 47       		.byte	0x47
 4004 033c 5E050000 		.4byte	0x55e
 4005 0340 0004     		.2byte	0x400
 4006 0342 0B       		.uleb128 0xb
 4007 0343 D1010000 		.4byte	.LASF53
 4008 0347 06       		.byte	0x6
 4009 0348 48       		.byte	0x48
 4010 0349 68050000 		.4byte	0x568
 4011 034d 000C     		.2byte	0xc00
 4012 034f 0B       		.uleb128 0xb
 4013 0350 55020000 		.4byte	.LASF54
 4014 0354 06       		.byte	0x6
 4015 0355 49       		.byte	0x49
 4016 0356 AA000000 		.4byte	0xaa
 4017 035a 000E     		.2byte	0xe00
 4018 035c 0B       		.uleb128 0xb
 4019 035d DC010000 		.4byte	.LASF55
 4020 0361 06       		.byte	0x6
 4021 0362 4A       		.byte	0x4a
 4022 0363 72050000 		.4byte	0x572
 4023 0367 040E     		.2byte	0xe04
ARM GAS  C:\Users\salaz\AppData\Local\Temp\ccU0pQaU.s 			page 137


 4024 0369 0B       		.uleb128 0xb
 4025 036a 60020000 		.4byte	.LASF56
 4026 036e 06       		.byte	0x6
 4027 036f 4B       		.byte	0x4b
 4028 0370 A5000000 		.4byte	0xa5
 4029 0374 800E     		.2byte	0xe80
 4030 0376 0B       		.uleb128 0xb
 4031 0377 E7010000 		.4byte	.LASF57
 4032 037b 06       		.byte	0x6
 4033 037c 4C       		.byte	0x4c
 4034 037d AA000000 		.4byte	0xaa
 4035 0381 840E     		.2byte	0xe84
 4036 0383 0B       		.uleb128 0xb
 4037 0384 0A0D0000 		.4byte	.LASF58
 4038 0388 06       		.byte	0x6
 4039 0389 4D       		.byte	0x4d
 4040 038a A5000000 		.4byte	0xa5
 4041 038e 880E     		.2byte	0xe88
 4042 0390 0B       		.uleb128 0xb
 4043 0391 5A060000 		.4byte	.LASF59
 4044 0395 06       		.byte	0x6
 4045 0396 4E       		.byte	0x4e
 4046 0397 AA000000 		.4byte	0xaa
 4047 039b 8C0E     		.2byte	0xe8c
 4048 039d 0B       		.uleb128 0xb
 4049 039e F2010000 		.4byte	.LASF60
 4050 03a2 06       		.byte	0x6
 4051 03a3 4F       		.byte	0x4f
 4052 03a4 7C050000 		.4byte	0x57c
 4053 03a8 900E     		.2byte	0xe90
 4054 03aa 0B       		.uleb128 0xb
 4055 03ab 200B0000 		.4byte	.LASF61
 4056 03af 06       		.byte	0x6
 4057 03b0 50       		.byte	0x50
 4058 03b1 A5000000 		.4byte	0xa5
 4059 03b5 C00E     		.2byte	0xec0
 4060 03b7 0B       		.uleb128 0xb
 4061 03b8 FD010000 		.4byte	.LASF62
 4062 03bc 06       		.byte	0x6
 4063 03bd 51       		.byte	0x51
 4064 03be AA000000 		.4byte	0xaa
 4065 03c2 C40E     		.2byte	0xec4
 4066 03c4 0B       		.uleb128 0xb
 4067 03c5 C0090000 		.4byte	.LASF63
 4068 03c9 06       		.byte	0x6
 4069 03ca 52       		.byte	0x52
 4070 03cb A5000000 		.4byte	0xa5
 4071 03cf C80E     		.2byte	0xec8
 4072 03d1 0B       		.uleb128 0xb
 4073 03d2 69030000 		.4byte	.LASF64
 4074 03d6 06       		.byte	0x6
 4075 03d7 53       		.byte	0x53
 4076 03d8 AA000000 		.4byte	0xaa
 4077 03dc CC0E     		.2byte	0xecc
 4078 03de 0B       		.uleb128 0xb
 4079 03df 08020000 		.4byte	.LASF65
 4080 03e3 06       		.byte	0x6
ARM GAS  C:\Users\salaz\AppData\Local\Temp\ccU0pQaU.s 			page 138


 4081 03e4 54       		.byte	0x54
 4082 03e5 86050000 		.4byte	0x586
 4083 03e9 D00E     		.2byte	0xed0
 4084 03eb 0B       		.uleb128 0xb
 4085 03ec 18070000 		.4byte	.LASF66
 4086 03f0 06       		.byte	0x6
 4087 03f1 55       		.byte	0x55
 4088 03f2 A5000000 		.4byte	0xa5
 4089 03f6 000F     		.2byte	0xf00
 4090 03f8 0B       		.uleb128 0xb
 4091 03f9 FE090000 		.4byte	.LASF67
 4092 03fd 06       		.byte	0x6
 4093 03fe 56       		.byte	0x56
 4094 03ff A5000000 		.4byte	0xa5
 4095 0403 040F     		.2byte	0xf04
 4096 0405 0B       		.uleb128 0xb
 4097 0406 880A0000 		.4byte	.LASF68
 4098 040a 06       		.byte	0x6
 4099 040b 57       		.byte	0x57
 4100 040c A5000000 		.4byte	0xa5
 4101 0410 080F     		.2byte	0xf08
 4102 0412 0B       		.uleb128 0xb
 4103 0413 37060000 		.4byte	.LASF69
 4104 0417 06       		.byte	0x6
 4105 0418 58       		.byte	0x58
 4106 0419 AA000000 		.4byte	0xaa
 4107 041d 0C0F     		.2byte	0xf0c
 4108 041f 0B       		.uleb128 0xb
 4109 0420 13020000 		.4byte	.LASF70
 4110 0424 06       		.byte	0x6
 4111 0425 59       		.byte	0x59
 4112 0426 90050000 		.4byte	0x590
 4113 042a 100F     		.2byte	0xf10
 4114 042c 0B       		.uleb128 0xb
 4115 042d 3A070000 		.4byte	.LASF71
 4116 0431 06       		.byte	0x6
 4117 0432 5A       		.byte	0x5a
 4118 0433 A5000000 		.4byte	0xa5
 4119 0437 400F     		.2byte	0xf40
 4120 0439 0B       		.uleb128 0xb
 4121 043a 38040000 		.4byte	.LASF72
 4122 043e 06       		.byte	0x6
 4123 043f 5B       		.byte	0x5b
 4124 0440 A5000000 		.4byte	0xa5
 4125 0444 440F     		.2byte	0xf44
 4126 0446 0B       		.uleb128 0xb
 4127 0447 D5000000 		.4byte	.LASF73
 4128 044b 06       		.byte	0x6
 4129 044c 5C       		.byte	0x5c
 4130 044d A5000000 		.4byte	0xa5
 4131 0451 480F     		.2byte	0xf48
 4132 0453 0B       		.uleb128 0xb
 4133 0454 730D0000 		.4byte	.LASF74
 4134 0458 06       		.byte	0x6
 4135 0459 5D       		.byte	0x5d
 4136 045a AA000000 		.4byte	0xaa
 4137 045e 4C0F     		.2byte	0xf4c
ARM GAS  C:\Users\salaz\AppData\Local\Temp\ccU0pQaU.s 			page 139


 4138 0460 0B       		.uleb128 0xb
 4139 0461 1E020000 		.4byte	.LASF75
 4140 0465 06       		.byte	0x6
 4141 0466 5E       		.byte	0x5e
 4142 0467 9A050000 		.4byte	0x59a
 4143 046b 500F     		.2byte	0xf50
 4144 046d 0B       		.uleb128 0xb
 4145 046e 2A060000 		.4byte	.LASF76
 4146 0472 06       		.byte	0x6
 4147 0473 5F       		.byte	0x5f
 4148 0474 A5000000 		.4byte	0xa5
 4149 0478 800F     		.2byte	0xf80
 4150 047a 0B       		.uleb128 0xb
 4151 047b 7C0A0000 		.4byte	.LASF77
 4152 047f 06       		.byte	0x6
 4153 0480 60       		.byte	0x60
 4154 0481 A5000000 		.4byte	0xa5
 4155 0485 840F     		.2byte	0xf84
 4156 0487 0B       		.uleb128 0xb
 4157 0488 B30A0000 		.4byte	.LASF78
 4158 048c 06       		.byte	0x6
 4159 048d 61       		.byte	0x61
 4160 048e A5000000 		.4byte	0xa5
 4161 0492 880F     		.2byte	0xf88
 4162 0494 0B       		.uleb128 0xb
 4163 0495 C9080000 		.4byte	.LASF79
 4164 0499 06       		.byte	0x6
 4165 049a 62       		.byte	0x62
 4166 049b AA000000 		.4byte	0xaa
 4167 049f 8C0F     		.2byte	0xf8c
 4168 04a1 0B       		.uleb128 0xb
 4169 04a2 29020000 		.4byte	.LASF80
 4170 04a6 06       		.byte	0x6
 4171 04a7 63       		.byte	0x63
 4172 04a8 A4050000 		.4byte	0x5a4
 4173 04ac 900F     		.2byte	0xf90
 4174 04ae 0B       		.uleb128 0xb
 4175 04af 6C020000 		.4byte	.LASF81
 4176 04b3 06       		.byte	0x6
 4177 04b4 64       		.byte	0x64
 4178 04b5 A5000000 		.4byte	0xa5
 4179 04b9 C00F     		.2byte	0xfc0
 4180 04bb 0B       		.uleb128 0xb
 4181 04bc 83020000 		.4byte	.LASF82
 4182 04c0 06       		.byte	0x6
 4183 04c1 65       		.byte	0x65
 4184 04c2 A5000000 		.4byte	0xa5
 4185 04c6 C40F     		.2byte	0xfc4
 4186 04c8 0B       		.uleb128 0xb
 4187 04c9 390D0000 		.4byte	.LASF83
 4188 04cd 06       		.byte	0x6
 4189 04ce 66       		.byte	0x66
 4190 04cf A5000000 		.4byte	0xa5
 4191 04d3 C80F     		.2byte	0xfc8
 4192 04d5 0B       		.uleb128 0xb
 4193 04d6 E3050000 		.4byte	.LASF84
 4194 04da 06       		.byte	0x6
ARM GAS  C:\Users\salaz\AppData\Local\Temp\ccU0pQaU.s 			page 140


 4195 04db 67       		.byte	0x67
 4196 04dc AA000000 		.4byte	0xaa
 4197 04e0 CC0F     		.2byte	0xfcc
 4198 04e2 00       		.byte	0
 4199 04e3 05       		.uleb128 0x5
 4200 04e4 DF000000 		.4byte	0xdf
 4201 04e8 06       		.uleb128 0x6
 4202 04e9 E3040000 		.4byte	0x4e3
 4203 04ed 05       		.uleb128 0x5
 4204 04ee AF000000 		.4byte	0xaf
 4205 04f2 06       		.uleb128 0x6
 4206 04f3 ED040000 		.4byte	0x4ed
 4207 04f7 05       		.uleb128 0x5
 4208 04f8 CF000000 		.4byte	0xcf
 4209 04fc 06       		.uleb128 0x6
 4210 04fd F7040000 		.4byte	0x4f7
 4211 0501 07       		.uleb128 0x7
 4212 0502 AA000000 		.4byte	0xaa
 4213 0506 11050000 		.4byte	0x511
 4214 050a 08       		.uleb128 0x8
 4215 050b 9E000000 		.4byte	0x9e
 4216 050f 22       		.byte	0x22
 4217 0510 00       		.byte	0
 4218 0511 05       		.uleb128 0x5
 4219 0512 01050000 		.4byte	0x501
 4220 0516 06       		.uleb128 0x6
 4221 0517 11050000 		.4byte	0x511
 4222 051b 05       		.uleb128 0x5
 4223 051c EF000000 		.4byte	0xef
 4224 0520 06       		.uleb128 0x6
 4225 0521 1B050000 		.4byte	0x51b
 4226 0525 05       		.uleb128 0x5
 4227 0526 1F010000 		.4byte	0x11f
 4228 052a 06       		.uleb128 0x6
 4229 052b 25050000 		.4byte	0x525
 4230 052f 05       		.uleb128 0x5
 4231 0530 3F010000 		.4byte	0x13f
 4232 0534 06       		.uleb128 0x6
 4233 0535 2F050000 		.4byte	0x52f
 4234 0539 05       		.uleb128 0x5
 4235 053a 2F010000 		.4byte	0x12f
 4236 053e 06       		.uleb128 0x6
 4237 053f 39050000 		.4byte	0x539
 4238 0543 05       		.uleb128 0x5
 4239 0544 4F010000 		.4byte	0x14f
 4240 0548 06       		.uleb128 0x6
 4241 0549 43050000 		.4byte	0x543
 4242 054d 07       		.uleb128 0x7
 4243 054e A5000000 		.4byte	0xa5
 4244 0552 5E050000 		.4byte	0x55e
 4245 0556 0C       		.uleb128 0xc
 4246 0557 9E000000 		.4byte	0x9e
 4247 055b FF01     		.2byte	0x1ff
 4248 055d 00       		.byte	0
 4249 055e 05       		.uleb128 0x5
 4250 055f 4D050000 		.4byte	0x54d
 4251 0563 05       		.uleb128 0x5
ARM GAS  C:\Users\salaz\AppData\Local\Temp\ccU0pQaU.s 			page 141


 4252 0564 BF000000 		.4byte	0xbf
 4253 0568 06       		.uleb128 0x6
 4254 0569 63050000 		.4byte	0x563
 4255 056d 05       		.uleb128 0x5
 4256 056e FF000000 		.4byte	0xff
 4257 0572 06       		.uleb128 0x6
 4258 0573 6D050000 		.4byte	0x56d
 4259 0577 05       		.uleb128 0x5
 4260 0578 0F010000 		.4byte	0x10f
 4261 057c 06       		.uleb128 0x6
 4262 057d 77050000 		.4byte	0x577
 4263 0581 05       		.uleb128 0x5
 4264 0582 0F010000 		.4byte	0x10f
 4265 0586 06       		.uleb128 0x6
 4266 0587 81050000 		.4byte	0x581
 4267 058b 05       		.uleb128 0x5
 4268 058c 0F010000 		.4byte	0x10f
 4269 0590 06       		.uleb128 0x6
 4270 0591 8B050000 		.4byte	0x58b
 4271 0595 05       		.uleb128 0x5
 4272 0596 0F010000 		.4byte	0x10f
 4273 059a 06       		.uleb128 0x6
 4274 059b 95050000 		.4byte	0x595
 4275 059f 05       		.uleb128 0x5
 4276 05a0 0F010000 		.4byte	0x10f
 4277 05a4 06       		.uleb128 0x6
 4278 05a5 9F050000 		.4byte	0x59f
 4279 05a9 03       		.uleb128 0x3
 4280 05aa 98060000 		.4byte	.LASF85
 4281 05ae 06       		.byte	0x6
 4282 05af 68       		.byte	0x68
 4283 05b0 5F010000 		.4byte	0x15f
 4284 05b4 0D       		.uleb128 0xd
 4285 05b5 C0030000 		.4byte	.LASF86
 4286 05b9 07       		.byte	0x7
 4287 05ba C401     		.2byte	0x1c4
 4288 05bc C0050000 		.4byte	0x5c0
 4289 05c0 02       		.uleb128 0x2
 4290 05c1 01       		.byte	0x1
 4291 05c2 08       		.byte	0x8
 4292 05c3 280A0000 		.4byte	.LASF87
 4293 05c7 02       		.uleb128 0x2
 4294 05c8 04       		.byte	0x4
 4295 05c9 04       		.byte	0x4
 4296 05ca 6A0C0000 		.4byte	.LASF88
 4297 05ce 02       		.uleb128 0x2
 4298 05cf 08       		.byte	0x8
 4299 05d0 04       		.byte	0x4
 4300 05d1 B2020000 		.4byte	.LASF89
 4301 05d5 0E       		.uleb128 0xe
 4302 05d6 04       		.byte	0x4
 4303 05d7 7A000000 		.4byte	0x7a
 4304 05db 08       		.byte	0x8
 4305 05dc BF03     		.2byte	0x3bf
 4306 05de 16060000 		.4byte	0x616
 4307 05e2 0F       		.uleb128 0xf
 4308 05e3 BB0C0000 		.4byte	.LASF90
ARM GAS  C:\Users\salaz\AppData\Local\Temp\ccU0pQaU.s 			page 142


 4309 05e7 00       		.byte	0
 4310 05e8 10       		.uleb128 0x10
 4311 05e9 5E000000 		.4byte	.LASF91
 4312 05ed 01004200 		.4byte	0x420001
 4313 05f1 10       		.uleb128 0x10
 4314 05f2 24000000 		.4byte	.LASF92
 4315 05f6 02004200 		.4byte	0x420002
 4316 05fa 10       		.uleb128 0x10
 4317 05fb 93030000 		.4byte	.LASF93
 4318 05ff 03004200 		.4byte	0x420003
 4319 0603 10       		.uleb128 0x10
 4320 0604 51030000 		.4byte	.LASF94
 4321 0608 04004200 		.4byte	0x420004
 4322 060c 10       		.uleb128 0x10
 4323 060d 450B0000 		.4byte	.LASF95
 4324 0611 FF004200 		.4byte	0x4200ff
 4325 0615 00       		.byte	0
 4326 0616 0D       		.uleb128 0xd
 4327 0617 240D0000 		.4byte	.LASF96
 4328 061b 08       		.byte	0x8
 4329 061c C703     		.2byte	0x3c7
 4330 061e D5050000 		.4byte	0x5d5
 4331 0622 0E       		.uleb128 0xe
 4332 0623 01       		.byte	0x1
 4333 0624 37000000 		.4byte	0x37
 4334 0628 08       		.byte	0x8
 4335 0629 6304     		.2byte	0x463
 4336 062b 48060000 		.4byte	0x648
 4337 062f 0F       		.uleb128 0xf
 4338 0630 CC0C0000 		.4byte	.LASF97
 4339 0634 01       		.byte	0x1
 4340 0635 0F       		.uleb128 0xf
 4341 0636 D30A0000 		.4byte	.LASF98
 4342 063a 02       		.byte	0x2
 4343 063b 0F       		.uleb128 0xf
 4344 063c 1F070000 		.4byte	.LASF99
 4345 0640 04       		.byte	0x4
 4346 0641 0F       		.uleb128 0xf
 4347 0642 10060000 		.4byte	.LASF100
 4348 0646 08       		.byte	0x8
 4349 0647 00       		.byte	0
 4350 0648 0D       		.uleb128 0xd
 4351 0649 95070000 		.4byte	.LASF101
 4352 064d 08       		.byte	0x8
 4353 064e 6D04     		.2byte	0x46d
 4354 0650 22060000 		.4byte	0x622
 4355 0654 11       		.uleb128 0x11
 4356 0655 0C       		.byte	0xc
 4357 0656 08       		.byte	0x8
 4358 0657 8904     		.2byte	0x489
 4359 0659 85060000 		.4byte	0x685
 4360 065d 12       		.uleb128 0x12
 4361 065e 430A0000 		.4byte	.LASF102
 4362 0662 08       		.byte	0x8
 4363 0663 8B04     		.2byte	0x48b
 4364 0665 48060000 		.4byte	0x648
 4365 0669 00       		.byte	0
ARM GAS  C:\Users\salaz\AppData\Local\Temp\ccU0pQaU.s 			page 143


 4366 066a 12       		.uleb128 0x12
 4367 066b 32060000 		.4byte	.LASF103
 4368 066f 08       		.byte	0x8
 4369 0670 8F04     		.2byte	0x48f
 4370 0672 85060000 		.4byte	0x685
 4371 0676 04       		.byte	0x4
 4372 0677 12       		.uleb128 0x12
 4373 0678 F30A0000 		.4byte	.LASF104
 4374 067c 08       		.byte	0x8
 4375 067d 9104     		.2byte	0x491
 4376 067f 85060000 		.4byte	0x685
 4377 0683 08       		.byte	0x8
 4378 0684 00       		.byte	0
 4379 0685 13       		.uleb128 0x13
 4380 0686 04       		.byte	0x4
 4381 0687 0D       		.uleb128 0xd
 4382 0688 EF020000 		.4byte	.LASF105
 4383 068c 08       		.byte	0x8
 4384 068d 9404     		.2byte	0x494
 4385 068f 54060000 		.4byte	0x654
 4386 0693 14       		.uleb128 0x14
 4387 0694 04       		.byte	0x4
 4388 0695 87060000 		.4byte	0x687
 4389 0699 0E       		.uleb128 0xe
 4390 069a 04       		.byte	0x4
 4391 069b 7A000000 		.4byte	0x7a
 4392 069f 02       		.byte	0x2
 4393 06a0 1901     		.2byte	0x119
 4394 06a2 B6060000 		.4byte	0x6b6
 4395 06a6 0F       		.uleb128 0xf
 4396 06a7 61080000 		.4byte	.LASF106
 4397 06ab 00       		.byte	0
 4398 06ac 10       		.uleb128 0x10
 4399 06ad A40C0000 		.4byte	.LASF107
 4400 06b1 0100AA00 		.4byte	0xaa0001
 4401 06b5 00       		.byte	0
 4402 06b6 0D       		.uleb128 0xd
 4403 06b7 700C0000 		.4byte	.LASF108
 4404 06bb 02       		.byte	0x2
 4405 06bc 1F01     		.2byte	0x11f
 4406 06be 99060000 		.4byte	0x699
 4407 06c2 0E       		.uleb128 0xe
 4408 06c3 01       		.byte	0x1
 4409 06c4 37000000 		.4byte	0x37
 4410 06c8 02       		.byte	0x2
 4411 06c9 2301     		.2byte	0x123
 4412 06cb DC060000 		.4byte	0x6dc
 4413 06cf 0F       		.uleb128 0xf
 4414 06d0 5A0D0000 		.4byte	.LASF109
 4415 06d4 00       		.byte	0
 4416 06d5 0F       		.uleb128 0xf
 4417 06d6 EF0C0000 		.4byte	.LASF110
 4418 06da 01       		.byte	0x1
 4419 06db 00       		.byte	0
 4420 06dc 0D       		.uleb128 0xd
 4421 06dd 27090000 		.4byte	.LASF111
 4422 06e1 02       		.byte	0x2
ARM GAS  C:\Users\salaz\AppData\Local\Temp\ccU0pQaU.s 			page 144


 4423 06e2 2601     		.2byte	0x126
 4424 06e4 C2060000 		.4byte	0x6c2
 4425 06e8 0E       		.uleb128 0xe
 4426 06e9 01       		.byte	0x1
 4427 06ea 37000000 		.4byte	0x37
 4428 06ee 02       		.byte	0x2
 4429 06ef 2A01     		.2byte	0x12a
 4430 06f1 02070000 		.4byte	0x702
 4431 06f5 0F       		.uleb128 0xf
 4432 06f6 6A0B0000 		.4byte	.LASF112
 4433 06fa 00       		.byte	0
 4434 06fb 0F       		.uleb128 0xf
 4435 06fc FB0A0000 		.4byte	.LASF113
 4436 0700 01       		.byte	0x1
 4437 0701 00       		.byte	0
 4438 0702 0D       		.uleb128 0xd
 4439 0703 3E000000 		.4byte	.LASF114
 4440 0707 02       		.byte	0x2
 4441 0708 2D01     		.2byte	0x12d
 4442 070a E8060000 		.4byte	0x6e8
 4443 070e 0E       		.uleb128 0xe
 4444 070f 01       		.byte	0x1
 4445 0710 37000000 		.4byte	0x37
 4446 0714 02       		.byte	0x2
 4447 0715 3201     		.2byte	0x132
 4448 0717 46070000 		.4byte	0x746
 4449 071b 0F       		.uleb128 0xf
 4450 071c F6060000 		.4byte	.LASF115
 4451 0720 00       		.byte	0
 4452 0721 0F       		.uleb128 0xf
 4453 0722 E6090000 		.4byte	.LASF116
 4454 0726 01       		.byte	0x1
 4455 0727 0F       		.uleb128 0xf
 4456 0728 0E030000 		.4byte	.LASF117
 4457 072c 02       		.byte	0x2
 4458 072d 0F       		.uleb128 0xf
 4459 072e C2050000 		.4byte	.LASF118
 4460 0732 03       		.byte	0x3
 4461 0733 0F       		.uleb128 0xf
 4462 0734 53070000 		.4byte	.LASF119
 4463 0738 04       		.byte	0x4
 4464 0739 0F       		.uleb128 0xf
 4465 073a 6F070000 		.4byte	.LASF120
 4466 073e 05       		.byte	0x5
 4467 073f 0F       		.uleb128 0xf
 4468 0740 5A0A0000 		.4byte	.LASF121
 4469 0744 06       		.byte	0x6
 4470 0745 00       		.byte	0
 4471 0746 0D       		.uleb128 0xd
 4472 0747 2A0C0000 		.4byte	.LASF122
 4473 074b 02       		.byte	0x2
 4474 074c 3A01     		.2byte	0x13a
 4475 074e 0E070000 		.4byte	0x70e
 4476 0752 15       		.uleb128 0x15
 4477 0753 9A020000 		.4byte	.LASF130
 4478 0757 05       		.byte	0x5
 4479 0758 02       		.byte	0x2
ARM GAS  C:\Users\salaz\AppData\Local\Temp\ccU0pQaU.s 			page 145


 4480 0759 4901     		.2byte	0x149
 4481 075b A1070000 		.4byte	0x7a1
 4482 075f 12       		.uleb128 0x12
 4483 0760 2F030000 		.4byte	.LASF123
 4484 0764 02       		.byte	0x2
 4485 0765 4C01     		.2byte	0x14c
 4486 0767 DC060000 		.4byte	0x6dc
 4487 076b 00       		.byte	0
 4488 076c 12       		.uleb128 0x12
 4489 076d 79010000 		.4byte	.LASF124
 4490 0771 02       		.byte	0x2
 4491 0772 4F01     		.2byte	0x14f
 4492 0774 81000000 		.4byte	0x81
 4493 0778 01       		.byte	0x1
 4494 0779 12       		.uleb128 0x12
 4495 077a 87010000 		.4byte	.LASF125
 4496 077e 02       		.byte	0x2
 4497 077f 5201     		.2byte	0x152
 4498 0781 81000000 		.4byte	0x81
 4499 0785 02       		.byte	0x2
 4500 0786 12       		.uleb128 0x12
 4501 0787 2D080000 		.4byte	.LASF126
 4502 078b 02       		.byte	0x2
 4503 078c 5501     		.2byte	0x155
 4504 078e 02070000 		.4byte	0x702
 4505 0792 03       		.byte	0x3
 4506 0793 12       		.uleb128 0x12
 4507 0794 CE020000 		.4byte	.LASF127
 4508 0798 02       		.byte	0x2
 4509 0799 5C01     		.2byte	0x15c
 4510 079b A1070000 		.4byte	0x7a1
 4511 079f 04       		.byte	0x4
 4512 07a0 00       		.byte	0
 4513 07a1 02       		.uleb128 0x2
 4514 07a2 01       		.byte	0x1
 4515 07a3 02       		.byte	0x2
 4516 07a4 AC080000 		.4byte	.LASF128
 4517 07a8 0D       		.uleb128 0xd
 4518 07a9 B9060000 		.4byte	.LASF129
 4519 07ad 02       		.byte	0x2
 4520 07ae 5D01     		.2byte	0x15d
 4521 07b0 52070000 		.4byte	0x752
 4522 07b4 15       		.uleb128 0x15
 4523 07b5 0B000000 		.4byte	.LASF131
 4524 07b9 3C       		.byte	0x3c
 4525 07ba 02       		.byte	0x2
 4526 07bb 6601     		.2byte	0x166
 4527 07bd 9F080000 		.4byte	0x89f
 4528 07c1 12       		.uleb128 0x12
 4529 07c2 34020000 		.4byte	.LASF132
 4530 07c6 02       		.byte	0x2
 4531 07c7 6901     		.2byte	0x169
 4532 07c9 9F080000 		.4byte	0x89f
 4533 07cd 00       		.byte	0
 4534 07ce 12       		.uleb128 0x12
 4535 07cf E60B0000 		.4byte	.LASF133
 4536 07d3 02       		.byte	0x2
ARM GAS  C:\Users\salaz\AppData\Local\Temp\ccU0pQaU.s 			page 146


 4537 07d4 6A01     		.2byte	0x16a
 4538 07d6 A5000000 		.4byte	0xa5
 4539 07da 04       		.byte	0x4
 4540 07db 12       		.uleb128 0x12
 4541 07dc 6D060000 		.4byte	.LASF134
 4542 07e0 02       		.byte	0x2
 4543 07e1 6C01     		.2byte	0x16c
 4544 07e3 81000000 		.4byte	0x81
 4545 07e7 08       		.byte	0x8
 4546 07e8 12       		.uleb128 0x12
 4547 07e9 76060000 		.4byte	.LASF135
 4548 07ed 02       		.byte	0x2
 4549 07ee 6D01     		.2byte	0x16d
 4550 07f0 81000000 		.4byte	0x81
 4551 07f4 09       		.byte	0x9
 4552 07f5 12       		.uleb128 0x12
 4553 07f6 E70A0000 		.4byte	.LASF136
 4554 07fa 02       		.byte	0x2
 4555 07fb 6E01     		.2byte	0x16e
 4556 07fd 02070000 		.4byte	0x702
 4557 0801 0A       		.byte	0xa
 4558 0802 16       		.uleb128 0x16
 4559 0803 69647800 		.ascii	"idx\000"
 4560 0807 02       		.byte	0x2
 4561 0808 7001     		.2byte	0x170
 4562 080a 8C000000 		.4byte	0x8c
 4563 080e 0C       		.byte	0xc
 4564 080f 12       		.uleb128 0x12
 4565 0810 460D0000 		.4byte	.LASF137
 4566 0814 02       		.byte	0x2
 4567 0815 7101     		.2byte	0x171
 4568 0817 8C000000 		.4byte	0x8c
 4569 081b 10       		.byte	0x10
 4570 081c 12       		.uleb128 0x12
 4571 081d 500D0000 		.4byte	.LASF138
 4572 0821 02       		.byte	0x2
 4573 0822 7201     		.2byte	0x172
 4574 0824 8C000000 		.4byte	0x8c
 4575 0828 14       		.byte	0x14
 4576 0829 12       		.uleb128 0x12
 4577 082a DA090000 		.4byte	.LASF139
 4578 082e 02       		.byte	0x2
 4579 082f 7401     		.2byte	0x174
 4580 0831 A1070000 		.4byte	0x7a1
 4581 0835 18       		.byte	0x18
 4582 0836 12       		.uleb128 0x12
 4583 0837 53060000 		.4byte	.LASF140
 4584 083b 02       		.byte	0x2
 4585 083c 7501     		.2byte	0x175
 4586 083e A4080000 		.4byte	0x8a4
 4587 0842 1C       		.byte	0x1c
 4588 0843 12       		.uleb128 0x12
 4589 0844 200A0000 		.4byte	.LASF141
 4590 0848 02       		.byte	0x2
 4591 0849 7601     		.2byte	0x176
 4592 084b 8C000000 		.4byte	0x8c
 4593 084f 20       		.byte	0x20
ARM GAS  C:\Users\salaz\AppData\Local\Temp\ccU0pQaU.s 			page 147


 4594 0850 12       		.uleb128 0x12
 4595 0851 89000000 		.4byte	.LASF142
 4596 0855 02       		.byte	0x2
 4597 0856 7801     		.2byte	0x178
 4598 0858 A4080000 		.4byte	0x8a4
 4599 085c 24       		.byte	0x24
 4600 085d 12       		.uleb128 0x12
 4601 085e E1000000 		.4byte	.LASF143
 4602 0862 02       		.byte	0x2
 4603 0863 7901     		.2byte	0x179
 4604 0865 8C000000 		.4byte	0x8c
 4605 0869 28       		.byte	0x28
 4606 086a 12       		.uleb128 0x12
 4607 086b E10C0000 		.4byte	.LASF144
 4608 086f 02       		.byte	0x2
 4609 0870 7A01     		.2byte	0x17a
 4610 0872 8C000000 		.4byte	0x8c
 4611 0876 2C       		.byte	0x2c
 4612 0877 12       		.uleb128 0x12
 4613 0878 0B060000 		.4byte	.LASF145
 4614 087c 02       		.byte	0x2
 4615 087d 7C01     		.2byte	0x17c
 4616 087f A4080000 		.4byte	0x8a4
 4617 0883 30       		.byte	0x30
 4618 0884 12       		.uleb128 0x12
 4619 0885 570C0000 		.4byte	.LASF146
 4620 0889 02       		.byte	0x2
 4621 088a 7D01     		.2byte	0x17d
 4622 088c 8C000000 		.4byte	0x8c
 4623 0890 34       		.byte	0x34
 4624 0891 12       		.uleb128 0x12
 4625 0892 9E080000 		.4byte	.LASF147
 4626 0896 02       		.byte	0x2
 4627 0897 7E01     		.2byte	0x17e
 4628 0899 8C000000 		.4byte	0x8c
 4629 089d 38       		.byte	0x38
 4630 089e 00       		.byte	0
 4631 089f 05       		.uleb128 0x5
 4632 08a0 46070000 		.4byte	0x746
 4633 08a4 14       		.uleb128 0x14
 4634 08a5 04       		.byte	0x4
 4635 08a6 81000000 		.4byte	0x81
 4636 08aa 0D       		.uleb128 0xd
 4637 08ab 890C0000 		.4byte	.LASF148
 4638 08af 02       		.byte	0x2
 4639 08b0 8001     		.2byte	0x180
 4640 08b2 B4070000 		.4byte	0x7b4
 4641 08b6 17       		.uleb128 0x17
 4642 08b7 B70D0000 		.4byte	.LASF155
 4643 08bb 01       		.byte	0x1
 4644 08bc 4802     		.2byte	0x248
 4645 08be 8C000000 		.4byte	0x8c
 4646 08c2 00000000 		.4byte	.LFB69
 4647 08c6 18000000 		.4byte	.LFE69-.LFB69
 4648 08ca 01       		.uleb128 0x1
 4649 08cb 9C       		.byte	0x9c
 4650 08cc E0080000 		.4byte	0x8e0
ARM GAS  C:\Users\salaz\AppData\Local\Temp\ccU0pQaU.s 			page 148


 4651 08d0 18       		.uleb128 0x18
 4652 08d1 32060000 		.4byte	.LASF103
 4653 08d5 01       		.byte	0x1
 4654 08d6 4802     		.2byte	0x248
 4655 08d8 E0080000 		.4byte	0x8e0
 4656 08dc 02       		.uleb128 0x2
 4657 08dd 91       		.byte	0x91
 4658 08de 74       		.sleb128 -12
 4659 08df 00       		.byte	0
 4660 08e0 14       		.uleb128 0x14
 4661 08e1 04       		.byte	0x4
 4662 08e2 E6080000 		.4byte	0x8e6
 4663 08e6 06       		.uleb128 0x6
 4664 08e7 A9050000 		.4byte	0x5a9
 4665 08eb 19       		.uleb128 0x19
 4666 08ec 2D0A0000 		.4byte	.LASF150
 4667 08f0 01       		.byte	0x1
 4668 08f1 5C02     		.2byte	0x25c
 4669 08f3 00000000 		.4byte	.LFB70
 4670 08f7 58000000 		.4byte	.LFE70-.LFB70
 4671 08fb 01       		.uleb128 0x1
 4672 08fc 9C       		.byte	0x9c
 4673 08fd 20090000 		.4byte	0x920
 4674 0901 18       		.uleb128 0x18
 4675 0902 32060000 		.4byte	.LASF103
 4676 0906 01       		.byte	0x1
 4677 0907 5C02     		.2byte	0x25c
 4678 0909 20090000 		.4byte	0x920
 4679 090d 02       		.uleb128 0x2
 4680 090e 91       		.byte	0x91
 4681 090f 74       		.sleb128 -12
 4682 0910 18       		.uleb128 0x18
 4683 0911 63030000 		.4byte	.LASF149
 4684 0915 01       		.byte	0x1
 4685 0916 5C02     		.2byte	0x25c
 4686 0918 8C000000 		.4byte	0x8c
 4687 091c 02       		.uleb128 0x2
 4688 091d 91       		.byte	0x91
 4689 091e 70       		.sleb128 -16
 4690 091f 00       		.byte	0
 4691 0920 14       		.uleb128 0x14
 4692 0921 04       		.byte	0x4
 4693 0922 A9050000 		.4byte	0x5a9
 4694 0926 1A       		.uleb128 0x1a
 4695 0927 D30B0000 		.4byte	.LASF151
 4696 092b 01       		.byte	0x1
 4697 092c 9702     		.2byte	0x297
 4698 092e 00000000 		.4byte	.LFB73
 4699 0932 4C000000 		.4byte	.LFE73-.LFB73
 4700 0936 01       		.uleb128 0x1
 4701 0937 9C       		.byte	0x9c
 4702 0938 4C090000 		.4byte	0x94c
 4703 093c 18       		.uleb128 0x18
 4704 093d 32060000 		.4byte	.LASF103
 4705 0941 01       		.byte	0x1
 4706 0942 9702     		.2byte	0x297
 4707 0944 20090000 		.4byte	0x920
ARM GAS  C:\Users\salaz\AppData\Local\Temp\ccU0pQaU.s 			page 149


 4708 0948 02       		.uleb128 0x2
 4709 0949 91       		.byte	0x91
 4710 094a 74       		.sleb128 -12
 4711 094b 00       		.byte	0
 4712 094c 1A       		.uleb128 0x1a
 4713 094d EA000000 		.4byte	.LASF152
 4714 0951 01       		.byte	0x1
 4715 0952 1403     		.2byte	0x314
 4716 0954 00000000 		.4byte	.LFB79
 4717 0958 4C000000 		.4byte	.LFE79-.LFB79
 4718 095c 01       		.uleb128 0x1
 4719 095d 9C       		.byte	0x9c
 4720 095e 72090000 		.4byte	0x972
 4721 0962 18       		.uleb128 0x18
 4722 0963 32060000 		.4byte	.LASF103
 4723 0967 01       		.byte	0x1
 4724 0968 1403     		.2byte	0x314
 4725 096a 20090000 		.4byte	0x920
 4726 096e 02       		.uleb128 0x2
 4727 096f 91       		.byte	0x91
 4728 0970 74       		.sleb128 -12
 4729 0971 00       		.byte	0
 4730 0972 19       		.uleb128 0x19
 4731 0973 B7010000 		.4byte	.LASF153
 4732 0977 01       		.byte	0x1
 4733 0978 7603     		.2byte	0x376
 4734 097a 00000000 		.4byte	.LFB83
 4735 097e 3C000000 		.4byte	.LFE83-.LFB83
 4736 0982 01       		.uleb128 0x1
 4737 0983 9C       		.byte	0x9c
 4738 0984 A7090000 		.4byte	0x9a7
 4739 0988 18       		.uleb128 0x18
 4740 0989 32060000 		.4byte	.LASF103
 4741 098d 01       		.byte	0x1
 4742 098e 7603     		.2byte	0x376
 4743 0990 20090000 		.4byte	0x920
 4744 0994 02       		.uleb128 0x2
 4745 0995 91       		.byte	0x91
 4746 0996 74       		.sleb128 -12
 4747 0997 18       		.uleb128 0x18
 4748 0998 EC080000 		.4byte	.LASF154
 4749 099c 01       		.byte	0x1
 4750 099d 7603     		.2byte	0x376
 4751 099f 8C000000 		.4byte	0x8c
 4752 09a3 02       		.uleb128 0x2
 4753 09a4 91       		.byte	0x91
 4754 09a5 70       		.sleb128 -16
 4755 09a6 00       		.byte	0
 4756 09a7 17       		.uleb128 0x17
 4757 09a8 95010000 		.4byte	.LASF156
 4758 09ac 01       		.byte	0x1
 4759 09ad A503     		.2byte	0x3a5
 4760 09af 8C000000 		.4byte	0x8c
 4761 09b3 00000000 		.4byte	.LFB85
 4762 09b7 1C000000 		.4byte	.LFE85-.LFB85
 4763 09bb 01       		.uleb128 0x1
 4764 09bc 9C       		.byte	0x9c
ARM GAS  C:\Users\salaz\AppData\Local\Temp\ccU0pQaU.s 			page 150


 4765 09bd D1090000 		.4byte	0x9d1
 4766 09c1 18       		.uleb128 0x18
 4767 09c2 32060000 		.4byte	.LASF103
 4768 09c6 01       		.byte	0x1
 4769 09c7 A503     		.2byte	0x3a5
 4770 09c9 E0080000 		.4byte	0x8e0
 4771 09cd 02       		.uleb128 0x2
 4772 09ce 91       		.byte	0x91
 4773 09cf 74       		.sleb128 -12
 4774 09d0 00       		.byte	0
 4775 09d1 19       		.uleb128 0x19
 4776 09d2 9F0D0000 		.4byte	.LASF157
 4777 09d6 01       		.byte	0x1
 4778 09d7 C103     		.2byte	0x3c1
 4779 09d9 00000000 		.4byte	.LFB86
 4780 09dd 44000000 		.4byte	.LFE86-.LFB86
 4781 09e1 01       		.uleb128 0x1
 4782 09e2 9C       		.byte	0x9c
 4783 09e3 060A0000 		.4byte	0xa06
 4784 09e7 18       		.uleb128 0x18
 4785 09e8 32060000 		.4byte	.LASF103
 4786 09ec 01       		.byte	0x1
 4787 09ed C103     		.2byte	0x3c1
 4788 09ef 20090000 		.4byte	0x920
 4789 09f3 02       		.uleb128 0x2
 4790 09f4 91       		.byte	0x91
 4791 09f5 74       		.sleb128 -12
 4792 09f6 18       		.uleb128 0x18
 4793 09f7 EC080000 		.4byte	.LASF154
 4794 09fb 01       		.byte	0x1
 4795 09fc C103     		.2byte	0x3c1
 4796 09fe 8C000000 		.4byte	0x8c
 4797 0a02 02       		.uleb128 0x2
 4798 0a03 91       		.byte	0x91
 4799 0a04 70       		.sleb128 -16
 4800 0a05 00       		.byte	0
 4801 0a06 19       		.uleb128 0x19
 4802 0a07 D4030000 		.4byte	.LASF158
 4803 0a0b 01       		.byte	0x1
 4804 0a0c D803     		.2byte	0x3d8
 4805 0a0e 00000000 		.4byte	.LFB87
 4806 0a12 40000000 		.4byte	.LFE87-.LFB87
 4807 0a16 01       		.uleb128 0x1
 4808 0a17 9C       		.byte	0x9c
 4809 0a18 3B0A0000 		.4byte	0xa3b
 4810 0a1c 18       		.uleb128 0x18
 4811 0a1d 32060000 		.4byte	.LASF103
 4812 0a21 01       		.byte	0x1
 4813 0a22 D803     		.2byte	0x3d8
 4814 0a24 20090000 		.4byte	0x920
 4815 0a28 02       		.uleb128 0x2
 4816 0a29 91       		.byte	0x91
 4817 0a2a 74       		.sleb128 -12
 4818 0a2b 18       		.uleb128 0x18
 4819 0a2c EC080000 		.4byte	.LASF154
 4820 0a30 01       		.byte	0x1
 4821 0a31 D803     		.2byte	0x3d8
ARM GAS  C:\Users\salaz\AppData\Local\Temp\ccU0pQaU.s 			page 151


 4822 0a33 8C000000 		.4byte	0x8c
 4823 0a37 02       		.uleb128 0x2
 4824 0a38 91       		.byte	0x91
 4825 0a39 70       		.sleb128 -16
 4826 0a3a 00       		.byte	0
 4827 0a3b 19       		.uleb128 0x19
 4828 0a3c EA030000 		.4byte	.LASF159
 4829 0a40 01       		.byte	0x1
 4830 0a41 0604     		.2byte	0x406
 4831 0a43 00000000 		.4byte	.LFB89
 4832 0a47 3C000000 		.4byte	.LFE89-.LFB89
 4833 0a4b 01       		.uleb128 0x1
 4834 0a4c 9C       		.byte	0x9c
 4835 0a4d 700A0000 		.4byte	0xa70
 4836 0a51 18       		.uleb128 0x18
 4837 0a52 32060000 		.4byte	.LASF103
 4838 0a56 01       		.byte	0x1
 4839 0a57 0604     		.2byte	0x406
 4840 0a59 20090000 		.4byte	0x920
 4841 0a5d 02       		.uleb128 0x2
 4842 0a5e 91       		.byte	0x91
 4843 0a5f 74       		.sleb128 -12
 4844 0a60 18       		.uleb128 0x18
 4845 0a61 EC080000 		.4byte	.LASF154
 4846 0a65 01       		.byte	0x1
 4847 0a66 0604     		.2byte	0x406
 4848 0a68 8C000000 		.4byte	0x8c
 4849 0a6c 02       		.uleb128 0x2
 4850 0a6d 91       		.byte	0x91
 4851 0a6e 70       		.sleb128 -16
 4852 0a6f 00       		.byte	0
 4853 0a70 17       		.uleb128 0x17
 4854 0a71 F6070000 		.4byte	.LASF160
 4855 0a75 01       		.byte	0x1
 4856 0a76 3504     		.2byte	0x435
 4857 0a78 8C000000 		.4byte	0x8c
 4858 0a7c 00000000 		.4byte	.LFB91
 4859 0a80 1C000000 		.4byte	.LFE91-.LFB91
 4860 0a84 01       		.uleb128 0x1
 4861 0a85 9C       		.byte	0x9c
 4862 0a86 9A0A0000 		.4byte	0xa9a
 4863 0a8a 18       		.uleb128 0x18
 4864 0a8b 32060000 		.4byte	.LASF103
 4865 0a8f 01       		.byte	0x1
 4866 0a90 3504     		.2byte	0x435
 4867 0a92 E0080000 		.4byte	0x8e0
 4868 0a96 02       		.uleb128 0x2
 4869 0a97 91       		.byte	0x91
 4870 0a98 74       		.sleb128 -12
 4871 0a99 00       		.byte	0
 4872 0a9a 19       		.uleb128 0x19
 4873 0a9b 120C0000 		.4byte	.LASF161
 4874 0a9f 01       		.byte	0x1
 4875 0aa0 5304     		.2byte	0x453
 4876 0aa2 00000000 		.4byte	.LFB92
 4877 0aa6 44000000 		.4byte	.LFE92-.LFB92
 4878 0aaa 01       		.uleb128 0x1
ARM GAS  C:\Users\salaz\AppData\Local\Temp\ccU0pQaU.s 			page 152


 4879 0aab 9C       		.byte	0x9c
 4880 0aac CF0A0000 		.4byte	0xacf
 4881 0ab0 18       		.uleb128 0x18
 4882 0ab1 32060000 		.4byte	.LASF103
 4883 0ab5 01       		.byte	0x1
 4884 0ab6 5304     		.2byte	0x453
 4885 0ab8 20090000 		.4byte	0x920
 4886 0abc 02       		.uleb128 0x2
 4887 0abd 91       		.byte	0x91
 4888 0abe 74       		.sleb128 -12
 4889 0abf 18       		.uleb128 0x18
 4890 0ac0 EC080000 		.4byte	.LASF154
 4891 0ac4 01       		.byte	0x1
 4892 0ac5 5304     		.2byte	0x453
 4893 0ac7 8C000000 		.4byte	0x8c
 4894 0acb 02       		.uleb128 0x2
 4895 0acc 91       		.byte	0x91
 4896 0acd 70       		.sleb128 -16
 4897 0ace 00       		.byte	0
 4898 0acf 19       		.uleb128 0x19
 4899 0ad0 FA080000 		.4byte	.LASF162
 4900 0ad4 01       		.byte	0x1
 4901 0ad5 2205     		.2byte	0x522
 4902 0ad7 00000000 		.4byte	.LFB101
 4903 0adb 40000000 		.4byte	.LFE101-.LFB101
 4904 0adf 01       		.uleb128 0x1
 4905 0ae0 9C       		.byte	0x9c
 4906 0ae1 040B0000 		.4byte	0xb04
 4907 0ae5 18       		.uleb128 0x18
 4908 0ae6 32060000 		.4byte	.LASF103
 4909 0aea 01       		.byte	0x1
 4910 0aeb 2205     		.2byte	0x522
 4911 0aed 20090000 		.4byte	0x920
 4912 0af1 02       		.uleb128 0x2
 4913 0af2 91       		.byte	0x91
 4914 0af3 74       		.sleb128 -12
 4915 0af4 18       		.uleb128 0x18
 4916 0af5 EC080000 		.4byte	.LASF154
 4917 0af9 01       		.byte	0x1
 4918 0afa 2205     		.2byte	0x522
 4919 0afc 8C000000 		.4byte	0x8c
 4920 0b00 02       		.uleb128 0x2
 4921 0b01 91       		.byte	0x91
 4922 0b02 70       		.sleb128 -16
 4923 0b03 00       		.byte	0
 4924 0b04 17       		.uleb128 0x17
 4925 0b05 ED0B0000 		.4byte	.LASF163
 4926 0b09 01       		.byte	0x1
 4927 0b0a 5305     		.2byte	0x553
 4928 0b0c 8C000000 		.4byte	0x8c
 4929 0b10 00000000 		.4byte	.LFB103
 4930 0b14 1C000000 		.4byte	.LFE103-.LFB103
 4931 0b18 01       		.uleb128 0x1
 4932 0b19 9C       		.byte	0x9c
 4933 0b1a 2E0B0000 		.4byte	0xb2e
 4934 0b1e 18       		.uleb128 0x18
 4935 0b1f 32060000 		.4byte	.LASF103
ARM GAS  C:\Users\salaz\AppData\Local\Temp\ccU0pQaU.s 			page 153


 4936 0b23 01       		.byte	0x1
 4937 0b24 5305     		.2byte	0x553
 4938 0b26 E0080000 		.4byte	0x8e0
 4939 0b2a 02       		.uleb128 0x2
 4940 0b2b 91       		.byte	0x91
 4941 0b2c 74       		.sleb128 -12
 4942 0b2d 00       		.byte	0
 4943 0b2e 19       		.uleb128 0x19
 4944 0b2f 9E050000 		.4byte	.LASF164
 4945 0b33 01       		.byte	0x1
 4946 0b34 6705     		.2byte	0x567
 4947 0b36 00000000 		.4byte	.LFB104
 4948 0b3a 44000000 		.4byte	.LFE104-.LFB104
 4949 0b3e 01       		.uleb128 0x1
 4950 0b3f 9C       		.byte	0x9c
 4951 0b40 630B0000 		.4byte	0xb63
 4952 0b44 18       		.uleb128 0x18
 4953 0b45 32060000 		.4byte	.LASF103
 4954 0b49 01       		.byte	0x1
 4955 0b4a 6705     		.2byte	0x567
 4956 0b4c 20090000 		.4byte	0x920
 4957 0b50 02       		.uleb128 0x2
 4958 0b51 91       		.byte	0x91
 4959 0b52 74       		.sleb128 -12
 4960 0b53 18       		.uleb128 0x18
 4961 0b54 EC080000 		.4byte	.LASF154
 4962 0b58 01       		.byte	0x1
 4963 0b59 6705     		.2byte	0x567
 4964 0b5b 8C000000 		.4byte	0x8c
 4965 0b5f 02       		.uleb128 0x2
 4966 0b60 91       		.byte	0x91
 4967 0b61 70       		.sleb128 -16
 4968 0b62 00       		.byte	0
 4969 0b63 19       		.uleb128 0x19
 4970 0b64 46080000 		.4byte	.LASF165
 4971 0b68 01       		.byte	0x1
 4972 0b69 AC05     		.2byte	0x5ac
 4973 0b6b 00000000 		.4byte	.LFB107
 4974 0b6f 3C000000 		.4byte	.LFE107-.LFB107
 4975 0b73 01       		.uleb128 0x1
 4976 0b74 9C       		.byte	0x9c
 4977 0b75 980B0000 		.4byte	0xb98
 4978 0b79 18       		.uleb128 0x18
 4979 0b7a 32060000 		.4byte	.LASF103
 4980 0b7e 01       		.byte	0x1
 4981 0b7f AC05     		.2byte	0x5ac
 4982 0b81 20090000 		.4byte	0x920
 4983 0b85 02       		.uleb128 0x2
 4984 0b86 91       		.byte	0x91
 4985 0b87 74       		.sleb128 -12
 4986 0b88 18       		.uleb128 0x18
 4987 0b89 EC080000 		.4byte	.LASF154
 4988 0b8d 01       		.byte	0x1
 4989 0b8e AC05     		.2byte	0x5ac
 4990 0b90 8C000000 		.4byte	0x8c
 4991 0b94 02       		.uleb128 0x2
 4992 0b95 91       		.byte	0x91
ARM GAS  C:\Users\salaz\AppData\Local\Temp\ccU0pQaU.s 			page 154


 4993 0b96 70       		.sleb128 -16
 4994 0b97 00       		.byte	0
 4995 0b98 17       		.uleb128 0x17
 4996 0b99 D3060000 		.4byte	.LASF166
 4997 0b9d 01       		.byte	0x1
 4998 0b9e DB05     		.2byte	0x5db
 4999 0ba0 8C000000 		.4byte	0x8c
 5000 0ba4 00000000 		.4byte	.LFB109
 5001 0ba8 1C000000 		.4byte	.LFE109-.LFB109
 5002 0bac 01       		.uleb128 0x1
 5003 0bad 9C       		.byte	0x9c
 5004 0bae C20B0000 		.4byte	0xbc2
 5005 0bb2 18       		.uleb128 0x18
 5006 0bb3 32060000 		.4byte	.LASF103
 5007 0bb7 01       		.byte	0x1
 5008 0bb8 DB05     		.2byte	0x5db
 5009 0bba E0080000 		.4byte	0x8e0
 5010 0bbe 02       		.uleb128 0x2
 5011 0bbf 91       		.byte	0x91
 5012 0bc0 74       		.sleb128 -12
 5013 0bc1 00       		.byte	0
 5014 0bc2 19       		.uleb128 0x19
 5015 0bc3 860B0000 		.4byte	.LASF167
 5016 0bc7 01       		.byte	0x1
 5017 0bc8 EF05     		.2byte	0x5ef
 5018 0bca 00000000 		.4byte	.LFB110
 5019 0bce 40000000 		.4byte	.LFE110-.LFB110
 5020 0bd2 01       		.uleb128 0x1
 5021 0bd3 9C       		.byte	0x9c
 5022 0bd4 F70B0000 		.4byte	0xbf7
 5023 0bd8 18       		.uleb128 0x18
 5024 0bd9 32060000 		.4byte	.LASF103
 5025 0bdd 01       		.byte	0x1
 5026 0bde EF05     		.2byte	0x5ef
 5027 0be0 20090000 		.4byte	0x920
 5028 0be4 02       		.uleb128 0x2
 5029 0be5 91       		.byte	0x91
 5030 0be6 74       		.sleb128 -12
 5031 0be7 18       		.uleb128 0x18
 5032 0be8 EC080000 		.4byte	.LASF154
 5033 0bec 01       		.byte	0x1
 5034 0bed EF05     		.2byte	0x5ef
 5035 0bef 8C000000 		.4byte	0x8c
 5036 0bf3 02       		.uleb128 0x2
 5037 0bf4 91       		.byte	0x91
 5038 0bf5 70       		.sleb128 -16
 5039 0bf6 00       		.byte	0
 5040 0bf7 17       		.uleb128 0x17
 5041 0bf8 B1070000 		.4byte	.LASF168
 5042 0bfc 01       		.byte	0x1
 5043 0bfd 7606     		.2byte	0x676
 5044 0bff 8C000000 		.4byte	0x8c
 5045 0c03 00000000 		.4byte	.LFB116
 5046 0c07 22000000 		.4byte	.LFE116-.LFB116
 5047 0c0b 01       		.uleb128 0x1
 5048 0c0c 9C       		.byte	0x9c
 5049 0c0d 210C0000 		.4byte	0xc21
ARM GAS  C:\Users\salaz\AppData\Local\Temp\ccU0pQaU.s 			page 155


 5050 0c11 18       		.uleb128 0x18
 5051 0c12 32060000 		.4byte	.LASF103
 5052 0c16 01       		.byte	0x1
 5053 0c17 7606     		.2byte	0x676
 5054 0c19 E0080000 		.4byte	0x8e0
 5055 0c1d 02       		.uleb128 0x2
 5056 0c1e 91       		.byte	0x91
 5057 0c1f 74       		.sleb128 -12
 5058 0c20 00       		.byte	0
 5059 0c21 1A       		.uleb128 0x1a
 5060 0c22 78040000 		.4byte	.LASF169
 5061 0c26 01       		.byte	0x1
 5062 0c27 AE06     		.2byte	0x6ae
 5063 0c29 00000000 		.4byte	.LFB119
 5064 0c2d 3A000000 		.4byte	.LFE119-.LFB119
 5065 0c31 01       		.uleb128 0x1
 5066 0c32 9C       		.byte	0x9c
 5067 0c33 470C0000 		.4byte	0xc47
 5068 0c37 18       		.uleb128 0x18
 5069 0c38 32060000 		.4byte	.LASF103
 5070 0c3c 01       		.byte	0x1
 5071 0c3d AE06     		.2byte	0x6ae
 5072 0c3f 20090000 		.4byte	0x920
 5073 0c43 02       		.uleb128 0x2
 5074 0c44 91       		.byte	0x91
 5075 0c45 74       		.sleb128 -12
 5076 0c46 00       		.byte	0
 5077 0c47 17       		.uleb128 0x17
 5078 0c48 62040000 		.4byte	.LASF170
 5079 0c4c 01       		.byte	0x1
 5080 0c4d CA06     		.2byte	0x6ca
 5081 0c4f 8C000000 		.4byte	0x8c
 5082 0c53 00000000 		.4byte	.LFB120
 5083 0c57 1C000000 		.4byte	.LFE120-.LFB120
 5084 0c5b 01       		.uleb128 0x1
 5085 0c5c 9C       		.byte	0x9c
 5086 0c5d 710C0000 		.4byte	0xc71
 5087 0c61 18       		.uleb128 0x18
 5088 0c62 32060000 		.4byte	.LASF103
 5089 0c66 01       		.byte	0x1
 5090 0c67 CA06     		.2byte	0x6ca
 5091 0c69 E0080000 		.4byte	0x8e0
 5092 0c6d 02       		.uleb128 0x2
 5093 0c6e 91       		.byte	0x91
 5094 0c6f 74       		.sleb128 -12
 5095 0c70 00       		.byte	0
 5096 0c71 1A       		.uleb128 0x1a
 5097 0c72 2C0B0000 		.4byte	.LASF171
 5098 0c76 02       		.byte	0x2
 5099 0c77 2C02     		.2byte	0x22c
 5100 0c79 00000000 		.4byte	.LFB121
 5101 0c7d 1E000000 		.4byte	.LFE121-.LFB121
 5102 0c81 01       		.uleb128 0x1
 5103 0c82 9C       		.byte	0x9c
 5104 0c83 970C0000 		.4byte	0xc97
 5105 0c87 18       		.uleb128 0x18
 5106 0c88 32060000 		.4byte	.LASF103
ARM GAS  C:\Users\salaz\AppData\Local\Temp\ccU0pQaU.s 			page 156


 5107 0c8c 02       		.byte	0x2
 5108 0c8d 2C02     		.2byte	0x22c
 5109 0c8f 20090000 		.4byte	0x920
 5110 0c93 02       		.uleb128 0x2
 5111 0c94 91       		.byte	0x91
 5112 0c95 74       		.sleb128 -12
 5113 0c96 00       		.byte	0
 5114 0c97 1B       		.uleb128 0x1b
 5115 0c98 41070000 		.4byte	.LASF175
 5116 0c9c 03       		.byte	0x3
 5117 0c9d 3C       		.byte	0x3c
 5118 0c9e B6060000 		.4byte	0x6b6
 5119 0ca2 00000000 		.4byte	.LFB122
 5120 0ca6 E0010000 		.4byte	.LFE122-.LFB122
 5121 0caa 01       		.uleb128 0x1
 5122 0cab 9C       		.byte	0x9c
 5123 0cac DB0C0000 		.4byte	0xcdb
 5124 0cb0 1C       		.uleb128 0x1c
 5125 0cb1 32060000 		.4byte	.LASF103
 5126 0cb5 03       		.byte	0x3
 5127 0cb6 3C       		.byte	0x3c
 5128 0cb7 20090000 		.4byte	0x920
 5129 0cbb 02       		.uleb128 0x2
 5130 0cbc 91       		.byte	0x91
 5131 0cbd 74       		.sleb128 -12
 5132 0cbe 1C       		.uleb128 0x1c
 5133 0cbf 750A0000 		.4byte	.LASF172
 5134 0cc3 03       		.byte	0x3
 5135 0cc4 3C       		.byte	0x3c
 5136 0cc5 DB0C0000 		.4byte	0xcdb
 5137 0cc9 02       		.uleb128 0x2
 5138 0cca 91       		.byte	0x91
 5139 0ccb 70       		.sleb128 -16
 5140 0ccc 1C       		.uleb128 0x1c
 5141 0ccd F30A0000 		.4byte	.LASF104
 5142 0cd1 03       		.byte	0x3
 5143 0cd2 3D       		.byte	0x3d
 5144 0cd3 E60C0000 		.4byte	0xce6
 5145 0cd7 02       		.uleb128 0x2
 5146 0cd8 91       		.byte	0x91
 5147 0cd9 6C       		.sleb128 -20
 5148 0cda 00       		.byte	0
 5149 0cdb 14       		.uleb128 0x14
 5150 0cdc 04       		.byte	0x4
 5151 0cdd E10C0000 		.4byte	0xce1
 5152 0ce1 06       		.uleb128 0x6
 5153 0ce2 A8070000 		.4byte	0x7a8
 5154 0ce6 14       		.uleb128 0x14
 5155 0ce7 04       		.byte	0x4
 5156 0ce8 AA080000 		.4byte	0x8aa
 5157 0cec 1D       		.uleb128 0x1d
 5158 0ced 810D0000 		.4byte	.LASF173
 5159 0cf1 03       		.byte	0x3
 5160 0cf2 97       		.byte	0x97
 5161 0cf3 00000000 		.4byte	.LFB123
 5162 0cf7 A4000000 		.4byte	.LFE123-.LFB123
 5163 0cfb 01       		.uleb128 0x1
ARM GAS  C:\Users\salaz\AppData\Local\Temp\ccU0pQaU.s 			page 157


 5164 0cfc 9C       		.byte	0x9c
 5165 0cfd 100D0000 		.4byte	0xd10
 5166 0d01 1C       		.uleb128 0x1c
 5167 0d02 32060000 		.4byte	.LASF103
 5168 0d06 03       		.byte	0x3
 5169 0d07 97       		.byte	0x97
 5170 0d08 20090000 		.4byte	0x920
 5171 0d0c 02       		.uleb128 0x2
 5172 0d0d 91       		.byte	0x91
 5173 0d0e 74       		.sleb128 -12
 5174 0d0f 00       		.byte	0
 5175 0d10 1D       		.uleb128 0x1d
 5176 0d11 B9020000 		.4byte	.LASF174
 5177 0d15 03       		.byte	0x3
 5178 0d16 C6       		.byte	0xc6
 5179 0d17 00000000 		.4byte	.LFB124
 5180 0d1b 2A000000 		.4byte	.LFE124-.LFB124
 5181 0d1f 01       		.uleb128 0x1
 5182 0d20 9C       		.byte	0x9c
 5183 0d21 420D0000 		.4byte	0xd42
 5184 0d25 1C       		.uleb128 0x1c
 5185 0d26 32060000 		.4byte	.LASF103
 5186 0d2a 03       		.byte	0x3
 5187 0d2b C6       		.byte	0xc6
 5188 0d2c 20090000 		.4byte	0x920
 5189 0d30 02       		.uleb128 0x2
 5190 0d31 91       		.byte	0x91
 5191 0d32 74       		.sleb128 -12
 5192 0d33 1C       		.uleb128 0x1c
 5193 0d34 F30A0000 		.4byte	.LASF104
 5194 0d38 03       		.byte	0x3
 5195 0d39 C6       		.byte	0xc6
 5196 0d3a E60C0000 		.4byte	0xce6
 5197 0d3e 02       		.uleb128 0x2
 5198 0d3f 91       		.byte	0x91
 5199 0d40 70       		.sleb128 -16
 5200 0d41 00       		.byte	0
 5201 0d42 1B       		.uleb128 0x1b
 5202 0d43 43040000 		.4byte	.LASF176
 5203 0d47 03       		.byte	0x3
 5204 0d48 F7       		.byte	0xf7
 5205 0d49 16060000 		.4byte	0x616
 5206 0d4d 00000000 		.4byte	.LFB125
 5207 0d51 40010000 		.4byte	.LFE125-.LFB125
 5208 0d55 01       		.uleb128 0x1
 5209 0d56 9C       		.byte	0x9c
 5210 0d57 940D0000 		.4byte	0xd94
 5211 0d5b 1C       		.uleb128 0x1c
 5212 0d5c FC050000 		.4byte	.LASF177
 5213 0d60 03       		.byte	0x3
 5214 0d61 F7       		.byte	0xf7
 5215 0d62 93060000 		.4byte	0x693
 5216 0d66 02       		.uleb128 0x2
 5217 0d67 91       		.byte	0x91
 5218 0d68 64       		.sleb128 -28
 5219 0d69 1E       		.uleb128 0x1e
 5220 0d6a B1000000 		.4byte	.LASF178
ARM GAS  C:\Users\salaz\AppData\Local\Temp\ccU0pQaU.s 			page 158


 5221 0d6e 03       		.byte	0x3
 5222 0d6f F9       		.byte	0xf9
 5223 0d70 20090000 		.4byte	0x920
 5224 0d74 02       		.uleb128 0x2
 5225 0d75 91       		.byte	0x91
 5226 0d76 70       		.sleb128 -16
 5227 0d77 1E       		.uleb128 0x1e
 5228 0d78 D0040000 		.4byte	.LASF179
 5229 0d7c 03       		.byte	0x3
 5230 0d7d FA       		.byte	0xfa
 5231 0d7e E60C0000 		.4byte	0xce6
 5232 0d82 02       		.uleb128 0x2
 5233 0d83 91       		.byte	0x91
 5234 0d84 6C       		.sleb128 -20
 5235 0d85 1E       		.uleb128 0x1e
 5236 0d86 950D0000 		.4byte	.LASF180
 5237 0d8a 03       		.byte	0x3
 5238 0d8b FC       		.byte	0xfc
 5239 0d8c 16060000 		.4byte	0x616
 5240 0d90 02       		.uleb128 0x2
 5241 0d91 91       		.byte	0x91
 5242 0d92 74       		.sleb128 -12
 5243 0d93 00       		.byte	0
 5244 0d94 1F       		.uleb128 0x1f
 5245 0d95 99040000 		.4byte	.LASF181
 5246 0d99 03       		.byte	0x3
 5247 0d9a A101     		.2byte	0x1a1
 5248 0d9c 16060000 		.4byte	0x616
 5249 0da0 00000000 		.4byte	.LFB126
 5250 0da4 8C000000 		.4byte	.LFE126-.LFB126
 5251 0da8 01       		.uleb128 0x1
 5252 0da9 9C       		.byte	0x9c
 5253 0daa EB0D0000 		.4byte	0xdeb
 5254 0dae 18       		.uleb128 0x18
 5255 0daf FC050000 		.4byte	.LASF177
 5256 0db3 03       		.byte	0x3
 5257 0db4 A101     		.2byte	0x1a1
 5258 0db6 93060000 		.4byte	0x693
 5259 0dba 02       		.uleb128 0x2
 5260 0dbb 91       		.byte	0x91
 5261 0dbc 64       		.sleb128 -28
 5262 0dbd 20       		.uleb128 0x20
 5263 0dbe B1000000 		.4byte	.LASF178
 5264 0dc2 03       		.byte	0x3
 5265 0dc3 A301     		.2byte	0x1a3
 5266 0dc5 20090000 		.4byte	0x920
 5267 0dc9 02       		.uleb128 0x2
 5268 0dca 91       		.byte	0x91
 5269 0dcb 70       		.sleb128 -16
 5270 0dcc 20       		.uleb128 0x20
 5271 0dcd D0040000 		.4byte	.LASF179
 5272 0dd1 03       		.byte	0x3
 5273 0dd2 A401     		.2byte	0x1a4
 5274 0dd4 E60C0000 		.4byte	0xce6
 5275 0dd8 02       		.uleb128 0x2
 5276 0dd9 91       		.byte	0x91
 5277 0dda 6C       		.sleb128 -20
ARM GAS  C:\Users\salaz\AppData\Local\Temp\ccU0pQaU.s 			page 159


 5278 0ddb 20       		.uleb128 0x20
 5279 0ddc 950D0000 		.4byte	.LASF180
 5280 0de0 03       		.byte	0x3
 5281 0de1 A601     		.2byte	0x1a6
 5282 0de3 16060000 		.4byte	0x616
 5283 0de7 02       		.uleb128 0x2
 5284 0de8 91       		.byte	0x91
 5285 0de9 74       		.sleb128 -12
 5286 0dea 00       		.byte	0
 5287 0deb 1F       		.uleb128 0x1f
 5288 0dec 7F060000 		.4byte	.LASF182
 5289 0df0 03       		.byte	0x3
 5290 0df1 F401     		.2byte	0x1f4
 5291 0df3 8C000000 		.4byte	0x8c
 5292 0df7 00000000 		.4byte	.LFB127
 5293 0dfb 36000000 		.4byte	.LFE127-.LFB127
 5294 0dff 01       		.uleb128 0x1
 5295 0e00 9C       		.byte	0x9c
 5296 0e01 420E0000 		.4byte	0xe42
 5297 0e05 18       		.uleb128 0x18
 5298 0e06 32060000 		.4byte	.LASF103
 5299 0e0a 03       		.byte	0x3
 5300 0e0b F401     		.2byte	0x1f4
 5301 0e0d E0080000 		.4byte	0x8e0
 5302 0e11 02       		.uleb128 0x2
 5303 0e12 91       		.byte	0x91
 5304 0e13 6C       		.sleb128 -20
 5305 0e14 18       		.uleb128 0x18
 5306 0e15 F30A0000 		.4byte	.LASF104
 5307 0e19 03       		.byte	0x3
 5308 0e1a F401     		.2byte	0x1f4
 5309 0e1c E60C0000 		.4byte	0xce6
 5310 0e20 02       		.uleb128 0x2
 5311 0e21 91       		.byte	0x91
 5312 0e22 68       		.sleb128 -24
 5313 0e23 20       		.uleb128 0x20
 5314 0e24 F2050000 		.4byte	.LASF183
 5315 0e28 03       		.byte	0x3
 5316 0e29 F601     		.2byte	0x1f6
 5317 0e2b 8C000000 		.4byte	0x8c
 5318 0e2f 02       		.uleb128 0x2
 5319 0e30 91       		.byte	0x91
 5320 0e31 74       		.sleb128 -12
 5321 0e32 20       		.uleb128 0x20
 5322 0e33 950D0000 		.4byte	.LASF180
 5323 0e37 03       		.byte	0x3
 5324 0e38 F701     		.2byte	0x1f7
 5325 0e3a 8C000000 		.4byte	0x8c
 5326 0e3e 02       		.uleb128 0x2
 5327 0e3f 91       		.byte	0x91
 5328 0e40 70       		.sleb128 -16
 5329 0e41 00       		.byte	0
 5330 0e42 21       		.uleb128 0x21
 5331 0e43 C4070000 		.4byte	.LASF184
 5332 0e47 03       		.byte	0x3
 5333 0e48 1A02     		.2byte	0x21a
 5334 0e4a 00000000 		.4byte	.LFB128
ARM GAS  C:\Users\salaz\AppData\Local\Temp\ccU0pQaU.s 			page 160


 5335 0e4e 94000000 		.4byte	.LFE128-.LFB128
 5336 0e52 01       		.uleb128 0x1
 5337 0e53 9C       		.byte	0x9c
 5338 0e54 860E0000 		.4byte	0xe86
 5339 0e58 18       		.uleb128 0x18
 5340 0e59 32060000 		.4byte	.LASF103
 5341 0e5d 03       		.byte	0x3
 5342 0e5e 1A02     		.2byte	0x21a
 5343 0e60 20090000 		.4byte	0x920
 5344 0e64 02       		.uleb128 0x2
 5345 0e65 91       		.byte	0x91
 5346 0e66 74       		.sleb128 -12
 5347 0e67 18       		.uleb128 0x18
 5348 0e68 D0000000 		.4byte	.LASF185
 5349 0e6c 03       		.byte	0x3
 5350 0e6d 1A02     		.2byte	0x21a
 5351 0e6f 81000000 		.4byte	0x81
 5352 0e73 02       		.uleb128 0x2
 5353 0e74 91       		.byte	0x91
 5354 0e75 73       		.sleb128 -13
 5355 0e76 18       		.uleb128 0x18
 5356 0e77 F30A0000 		.4byte	.LASF104
 5357 0e7b 03       		.byte	0x3
 5358 0e7c 1A02     		.2byte	0x21a
 5359 0e7e E60C0000 		.4byte	0xce6
 5360 0e82 02       		.uleb128 0x2
 5361 0e83 91       		.byte	0x91
 5362 0e84 6C       		.sleb128 -20
 5363 0e85 00       		.byte	0
 5364 0e86 22       		.uleb128 0x22
 5365 0e87 47010000 		.4byte	.LASF186
 5366 0e8b 03       		.byte	0x3
 5367 0e8c 3A02     		.2byte	0x23a
 5368 0e8e 8C000000 		.4byte	0x8c
 5369 0e92 00000000 		.4byte	.LFB129
 5370 0e96 16000000 		.4byte	.LFE129-.LFB129
 5371 0e9a 01       		.uleb128 0x1
 5372 0e9b 9C       		.byte	0x9c
 5373 0e9c BF0E0000 		.4byte	0xebf
 5374 0ea0 18       		.uleb128 0x18
 5375 0ea1 32060000 		.4byte	.LASF103
 5376 0ea5 03       		.byte	0x3
 5377 0ea6 3A02     		.2byte	0x23a
 5378 0ea8 E0080000 		.4byte	0x8e0
 5379 0eac 02       		.uleb128 0x2
 5380 0ead 91       		.byte	0x91
 5381 0eae 74       		.sleb128 -12
 5382 0eaf 18       		.uleb128 0x18
 5383 0eb0 F30A0000 		.4byte	.LASF104
 5384 0eb4 03       		.byte	0x3
 5385 0eb5 3A02     		.2byte	0x23a
 5386 0eb7 BF0E0000 		.4byte	0xebf
 5387 0ebb 02       		.uleb128 0x2
 5388 0ebc 91       		.byte	0x91
 5389 0ebd 70       		.sleb128 -16
 5390 0ebe 00       		.byte	0
 5391 0ebf 14       		.uleb128 0x14
ARM GAS  C:\Users\salaz\AppData\Local\Temp\ccU0pQaU.s 			page 161


 5392 0ec0 04       		.byte	0x4
 5393 0ec1 C50E0000 		.4byte	0xec5
 5394 0ec5 06       		.uleb128 0x6
 5395 0ec6 AA080000 		.4byte	0x8aa
 5396 0eca 21       		.uleb128 0x21
 5397 0ecb FD000000 		.4byte	.LASF187
 5398 0ecf 03       		.byte	0x3
 5399 0ed0 6502     		.2byte	0x265
 5400 0ed2 00000000 		.4byte	.LFB130
 5401 0ed6 60000000 		.4byte	.LFE130-.LFB130
 5402 0eda 01       		.uleb128 0x1
 5403 0edb 9C       		.byte	0x9c
 5404 0edc 2C0F0000 		.4byte	0xf2c
 5405 0ee0 18       		.uleb128 0x18
 5406 0ee1 32060000 		.4byte	.LASF103
 5407 0ee5 03       		.byte	0x3
 5408 0ee6 6502     		.2byte	0x265
 5409 0ee8 E0080000 		.4byte	0x8e0
 5410 0eec 02       		.uleb128 0x2
 5411 0eed 91       		.byte	0x91
 5412 0eee 74       		.sleb128 -12
 5413 0eef 18       		.uleb128 0x18
 5414 0ef0 9D0A0000 		.4byte	.LASF188
 5415 0ef4 03       		.byte	0x3
 5416 0ef5 6502     		.2byte	0x265
 5417 0ef7 A4080000 		.4byte	0x8a4
 5418 0efb 02       		.uleb128 0x2
 5419 0efc 91       		.byte	0x91
 5420 0efd 70       		.sleb128 -16
 5421 0efe 18       		.uleb128 0x18
 5422 0eff B8040000 		.4byte	.LASF189
 5423 0f03 03       		.byte	0x3
 5424 0f04 6502     		.2byte	0x265
 5425 0f06 8C000000 		.4byte	0x8c
 5426 0f0a 02       		.uleb128 0x2
 5427 0f0b 91       		.byte	0x91
 5428 0f0c 6C       		.sleb128 -20
 5429 0f0d 18       		.uleb128 0x18
 5430 0f0e 18080000 		.4byte	.LASF190
 5431 0f12 03       		.byte	0x3
 5432 0f13 6502     		.2byte	0x265
 5433 0f15 8C000000 		.4byte	0x8c
 5434 0f19 02       		.uleb128 0x2
 5435 0f1a 91       		.byte	0x91
 5436 0f1b 68       		.sleb128 -24
 5437 0f1c 18       		.uleb128 0x18
 5438 0f1d F30A0000 		.4byte	.LASF104
 5439 0f21 03       		.byte	0x3
 5440 0f22 6602     		.2byte	0x266
 5441 0f24 E60C0000 		.4byte	0xce6
 5442 0f28 02       		.uleb128 0x2
 5443 0f29 91       		.byte	0x91
 5444 0f2a 00       		.sleb128 0
 5445 0f2b 00       		.byte	0
 5446 0f2c 21       		.uleb128 0x21
 5447 0f2d DD070000 		.4byte	.LASF191
 5448 0f31 03       		.byte	0x3
ARM GAS  C:\Users\salaz\AppData\Local\Temp\ccU0pQaU.s 			page 162


 5449 0f32 8B02     		.2byte	0x28b
 5450 0f34 00000000 		.4byte	.LFB131
 5451 0f38 70000000 		.4byte	.LFE131-.LFB131
 5452 0f3c 01       		.uleb128 0x1
 5453 0f3d 9C       		.byte	0x9c
 5454 0f3e 700F0000 		.4byte	0xf70
 5455 0f42 18       		.uleb128 0x18
 5456 0f43 32060000 		.4byte	.LASF103
 5457 0f47 03       		.byte	0x3
 5458 0f48 8B02     		.2byte	0x28b
 5459 0f4a 20090000 		.4byte	0x920
 5460 0f4e 02       		.uleb128 0x2
 5461 0f4f 91       		.byte	0x91
 5462 0f50 74       		.sleb128 -12
 5463 0f51 18       		.uleb128 0x18
 5464 0f52 D0000000 		.4byte	.LASF185
 5465 0f56 03       		.byte	0x3
 5466 0f57 8B02     		.2byte	0x28b
 5467 0f59 81000000 		.4byte	0x81
 5468 0f5d 02       		.uleb128 0x2
 5469 0f5e 91       		.byte	0x91
 5470 0f5f 73       		.sleb128 -13
 5471 0f60 18       		.uleb128 0x18
 5472 0f61 F30A0000 		.4byte	.LASF104
 5473 0f65 03       		.byte	0x3
 5474 0f66 8B02     		.2byte	0x28b
 5475 0f68 E60C0000 		.4byte	0xce6
 5476 0f6c 02       		.uleb128 0x2
 5477 0f6d 91       		.byte	0x91
 5478 0f6e 6C       		.sleb128 -20
 5479 0f6f 00       		.byte	0
 5480 0f70 22       		.uleb128 0x22
 5481 0f71 60010000 		.4byte	.LASF192
 5482 0f75 03       		.byte	0x3
 5483 0f76 A902     		.2byte	0x2a9
 5484 0f78 8C000000 		.4byte	0x8c
 5485 0f7c 00000000 		.4byte	.LFB132
 5486 0f80 16000000 		.4byte	.LFE132-.LFB132
 5487 0f84 01       		.uleb128 0x1
 5488 0f85 9C       		.byte	0x9c
 5489 0f86 A90F0000 		.4byte	0xfa9
 5490 0f8a 18       		.uleb128 0x18
 5491 0f8b 32060000 		.4byte	.LASF103
 5492 0f8f 03       		.byte	0x3
 5493 0f90 A902     		.2byte	0x2a9
 5494 0f92 E0080000 		.4byte	0x8e0
 5495 0f96 02       		.uleb128 0x2
 5496 0f97 91       		.byte	0x91
 5497 0f98 74       		.sleb128 -12
 5498 0f99 18       		.uleb128 0x18
 5499 0f9a F30A0000 		.4byte	.LASF104
 5500 0f9e 03       		.byte	0x3
 5501 0f9f A902     		.2byte	0x2a9
 5502 0fa1 BF0E0000 		.4byte	0xebf
 5503 0fa5 02       		.uleb128 0x2
 5504 0fa6 91       		.byte	0x91
 5505 0fa7 70       		.sleb128 -16
ARM GAS  C:\Users\salaz\AppData\Local\Temp\ccU0pQaU.s 			page 163


 5506 0fa8 00       		.byte	0
 5507 0fa9 21       		.uleb128 0x21
 5508 0faa 15010000 		.4byte	.LASF193
 5509 0fae 03       		.byte	0x3
 5510 0faf D402     		.2byte	0x2d4
 5511 0fb1 00000000 		.4byte	.LFB133
 5512 0fb5 60000000 		.4byte	.LFE133-.LFB133
 5513 0fb9 01       		.uleb128 0x1
 5514 0fba 9C       		.byte	0x9c
 5515 0fbb 0B100000 		.4byte	0x100b
 5516 0fbf 18       		.uleb128 0x18
 5517 0fc0 32060000 		.4byte	.LASF103
 5518 0fc4 03       		.byte	0x3
 5519 0fc5 D402     		.2byte	0x2d4
 5520 0fc7 E0080000 		.4byte	0x8e0
 5521 0fcb 02       		.uleb128 0x2
 5522 0fcc 91       		.byte	0x91
 5523 0fcd 74       		.sleb128 -12
 5524 0fce 18       		.uleb128 0x18
 5525 0fcf 9D0A0000 		.4byte	.LASF188
 5526 0fd3 03       		.byte	0x3
 5527 0fd4 D402     		.2byte	0x2d4
 5528 0fd6 A4080000 		.4byte	0x8a4
 5529 0fda 02       		.uleb128 0x2
 5530 0fdb 91       		.byte	0x91
 5531 0fdc 70       		.sleb128 -16
 5532 0fdd 18       		.uleb128 0x18
 5533 0fde B8040000 		.4byte	.LASF189
 5534 0fe2 03       		.byte	0x3
 5535 0fe3 D402     		.2byte	0x2d4
 5536 0fe5 8C000000 		.4byte	0x8c
 5537 0fe9 02       		.uleb128 0x2
 5538 0fea 91       		.byte	0x91
 5539 0feb 6C       		.sleb128 -20
 5540 0fec 18       		.uleb128 0x18
 5541 0fed 18080000 		.4byte	.LASF190
 5542 0ff1 03       		.byte	0x3
 5543 0ff2 D402     		.2byte	0x2d4
 5544 0ff4 8C000000 		.4byte	0x8c
 5545 0ff8 02       		.uleb128 0x2
 5546 0ff9 91       		.byte	0x91
 5547 0ffa 68       		.sleb128 -24
 5548 0ffb 18       		.uleb128 0x18
 5549 0ffc F30A0000 		.4byte	.LASF104
 5550 1000 03       		.byte	0x3
 5551 1001 D502     		.2byte	0x2d5
 5552 1003 E60C0000 		.4byte	0xce6
 5553 1007 02       		.uleb128 0x2
 5554 1008 91       		.byte	0x91
 5555 1009 00       		.sleb128 0
 5556 100a 00       		.byte	0
 5557 100b 21       		.uleb128 0x21
 5558 100c 530B0000 		.4byte	.LASF194
 5559 1010 03       		.byte	0x3
 5560 1011 F502     		.2byte	0x2f5
 5561 1013 00000000 		.4byte	.LFB134
 5562 1017 32010000 		.4byte	.LFE134-.LFB134
ARM GAS  C:\Users\salaz\AppData\Local\Temp\ccU0pQaU.s 			page 164


 5563 101b 01       		.uleb128 0x1
 5564 101c 9C       		.byte	0x9c
 5565 101d 4F100000 		.4byte	0x104f
 5566 1021 18       		.uleb128 0x18
 5567 1022 32060000 		.4byte	.LASF103
 5568 1026 03       		.byte	0x3
 5569 1027 F502     		.2byte	0x2f5
 5570 1029 20090000 		.4byte	0x920
 5571 102d 02       		.uleb128 0x2
 5572 102e 91       		.byte	0x91
 5573 102f 6C       		.sleb128 -20
 5574 1030 18       		.uleb128 0x18
 5575 1031 F30A0000 		.4byte	.LASF104
 5576 1035 03       		.byte	0x3
 5577 1036 F502     		.2byte	0x2f5
 5578 1038 E60C0000 		.4byte	0xce6
 5579 103c 02       		.uleb128 0x2
 5580 103d 91       		.byte	0x91
 5581 103e 68       		.sleb128 -24
 5582 103f 20       		.uleb128 0x20
 5583 1040 17090000 		.4byte	.LASF195
 5584 1044 03       		.byte	0x3
 5585 1045 F702     		.2byte	0x2f7
 5586 1047 8C000000 		.4byte	0x8c
 5587 104b 02       		.uleb128 0x2
 5588 104c 91       		.byte	0x91
 5589 104d 74       		.sleb128 -12
 5590 104e 00       		.byte	0
 5591 104f 19       		.uleb128 0x19
 5592 1050 E2020000 		.4byte	.LASF196
 5593 1054 03       		.byte	0x3
 5594 1055 5303     		.2byte	0x353
 5595 1057 00000000 		.4byte	.LFB135
 5596 105b 3A000000 		.4byte	.LFE135-.LFB135
 5597 105f 01       		.uleb128 0x1
 5598 1060 9C       		.byte	0x9c
 5599 1061 84100000 		.4byte	0x1084
 5600 1065 18       		.uleb128 0x18
 5601 1066 32060000 		.4byte	.LASF103
 5602 106a 03       		.byte	0x3
 5603 106b 5303     		.2byte	0x353
 5604 106d 20090000 		.4byte	0x920
 5605 1071 02       		.uleb128 0x2
 5606 1072 91       		.byte	0x91
 5607 1073 74       		.sleb128 -12
 5608 1074 18       		.uleb128 0x18
 5609 1075 F30A0000 		.4byte	.LASF104
 5610 1079 03       		.byte	0x3
 5611 107a 5303     		.2byte	0x353
 5612 107c E60C0000 		.4byte	0xce6
 5613 1080 02       		.uleb128 0x2
 5614 1081 91       		.byte	0x91
 5615 1082 70       		.sleb128 -16
 5616 1083 00       		.byte	0
 5617 1084 19       		.uleb128 0x19
 5618 1085 85030000 		.4byte	.LASF197
 5619 1089 03       		.byte	0x3
ARM GAS  C:\Users\salaz\AppData\Local\Temp\ccU0pQaU.s 			page 165


 5620 108a 7103     		.2byte	0x371
 5621 108c 00000000 		.4byte	.LFB136
 5622 1090 44010000 		.4byte	.LFE136-.LFB136
 5623 1094 01       		.uleb128 0x1
 5624 1095 9C       		.byte	0x9c
 5625 1096 E1100000 		.4byte	0x10e1
 5626 109a 18       		.uleb128 0x18
 5627 109b 32060000 		.4byte	.LASF103
 5628 109f 03       		.byte	0x3
 5629 10a0 7103     		.2byte	0x371
 5630 10a2 20090000 		.4byte	0x920
 5631 10a6 02       		.uleb128 0x2
 5632 10a7 91       		.byte	0x91
 5633 10a8 6C       		.sleb128 -20
 5634 10a9 18       		.uleb128 0x18
 5635 10aa F30A0000 		.4byte	.LASF104
 5636 10ae 03       		.byte	0x3
 5637 10af 7103     		.2byte	0x371
 5638 10b1 E60C0000 		.4byte	0xce6
 5639 10b5 02       		.uleb128 0x2
 5640 10b6 91       		.byte	0x91
 5641 10b7 68       		.sleb128 -24
 5642 10b8 23       		.uleb128 0x23
 5643 10b9 636D6400 		.ascii	"cmd\000"
 5644 10bd 03       		.byte	0x3
 5645 10be 7403     		.2byte	0x374
 5646 10c0 8C000000 		.4byte	0x8c
 5647 10c4 02       		.uleb128 0x2
 5648 10c5 91       		.byte	0x91
 5649 10c6 74       		.sleb128 -12
 5650 10c7 24       		.uleb128 0x24
 5651 10c8 1C000000 		.4byte	.LBB2
 5652 10cc 72000000 		.4byte	.LBE2-.LBB2
 5653 10d0 20       		.uleb128 0x20
 5654 10d1 B1060000 		.4byte	.LASF198
 5655 10d5 03       		.byte	0x3
 5656 10d6 7A03     		.2byte	0x37a
 5657 10d8 8C000000 		.4byte	0x8c
 5658 10dc 02       		.uleb128 0x2
 5659 10dd 91       		.byte	0x91
 5660 10de 70       		.sleb128 -16
 5661 10df 00       		.byte	0
 5662 10e0 00       		.byte	0
 5663 10e1 19       		.uleb128 0x19
 5664 10e2 43020000 		.4byte	.LASF199
 5665 10e6 03       		.byte	0x3
 5666 10e7 CE03     		.2byte	0x3ce
 5667 10e9 00000000 		.4byte	.LFB137
 5668 10ed 72000000 		.4byte	.LFE137-.LFB137
 5669 10f1 01       		.uleb128 0x1
 5670 10f2 9C       		.byte	0x9c
 5671 10f3 34110000 		.4byte	0x1134
 5672 10f7 18       		.uleb128 0x18
 5673 10f8 32060000 		.4byte	.LASF103
 5674 10fc 03       		.byte	0x3
 5675 10fd CE03     		.2byte	0x3ce
 5676 10ff 20090000 		.4byte	0x920
ARM GAS  C:\Users\salaz\AppData\Local\Temp\ccU0pQaU.s 			page 166


 5677 1103 02       		.uleb128 0x2
 5678 1104 91       		.byte	0x91
 5679 1105 6C       		.sleb128 -20
 5680 1106 18       		.uleb128 0x18
 5681 1107 200A0000 		.4byte	.LASF141
 5682 110b 03       		.byte	0x3
 5683 110c CE03     		.2byte	0x3ce
 5684 110e 8C000000 		.4byte	0x8c
 5685 1112 02       		.uleb128 0x2
 5686 1113 91       		.byte	0x91
 5687 1114 68       		.sleb128 -24
 5688 1115 20       		.uleb128 0x20
 5689 1116 63030000 		.4byte	.LASF149
 5690 111a 03       		.byte	0x3
 5691 111b D003     		.2byte	0x3d0
 5692 111d 8C000000 		.4byte	0x8c
 5693 1121 02       		.uleb128 0x2
 5694 1122 91       		.byte	0x91
 5695 1123 74       		.sleb128 -12
 5696 1124 20       		.uleb128 0x20
 5697 1125 45090000 		.4byte	.LASF200
 5698 1129 03       		.byte	0x3
 5699 112a D103     		.2byte	0x3d1
 5700 112c 8C000000 		.4byte	0x8c
 5701 1130 02       		.uleb128 0x2
 5702 1131 91       		.byte	0x91
 5703 1132 70       		.sleb128 -16
 5704 1133 00       		.byte	0
 5705 1134 19       		.uleb128 0x19
 5706 1135 480A0000 		.4byte	.LASF201
 5707 1139 03       		.byte	0x3
 5708 113a F803     		.2byte	0x3f8
 5709 113c 00000000 		.4byte	.LFB138
 5710 1140 2A020000 		.4byte	.LFE138-.LFB138
 5711 1144 01       		.uleb128 0x1
 5712 1145 9C       		.byte	0x9c
 5713 1146 D8110000 		.4byte	0x11d8
 5714 114a 18       		.uleb128 0x18
 5715 114b 32060000 		.4byte	.LASF103
 5716 114f 03       		.byte	0x3
 5717 1150 F803     		.2byte	0x3f8
 5718 1152 20090000 		.4byte	0x920
 5719 1156 02       		.uleb128 0x2
 5720 1157 91       		.byte	0x91
 5721 1158 5C       		.sleb128 -36
 5722 1159 18       		.uleb128 0x18
 5723 115a F30A0000 		.4byte	.LASF104
 5724 115e 03       		.byte	0x3
 5725 115f F803     		.2byte	0x3f8
 5726 1161 E60C0000 		.4byte	0xce6
 5727 1165 02       		.uleb128 0x2
 5728 1166 91       		.byte	0x91
 5729 1167 58       		.sleb128 -40
 5730 1168 25       		.uleb128 0x25
 5731 1169 00000000 		.4byte	.Ldebug_ranges0+0
 5732 116d A5110000 		.4byte	0x11a5
 5733 1171 20       		.uleb128 0x20
ARM GAS  C:\Users\salaz\AppData\Local\Temp\ccU0pQaU.s 			page 167


 5734 1172 A3060000 		.4byte	.LASF202
 5735 1176 03       		.byte	0x3
 5736 1177 0004     		.2byte	0x400
 5737 1179 A1070000 		.4byte	0x7a1
 5738 117d 02       		.uleb128 0x2
 5739 117e 91       		.byte	0x91
 5740 117f 77       		.sleb128 -9
 5741 1180 20       		.uleb128 0x20
 5742 1181 35000000 		.4byte	.LASF203
 5743 1185 03       		.byte	0x3
 5744 1186 0304     		.2byte	0x403
 5745 1188 8C000000 		.4byte	0x8c
 5746 118c 02       		.uleb128 0x2
 5747 118d 91       		.byte	0x91
 5748 118e 70       		.sleb128 -16
 5749 118f 26       		.uleb128 0x26
 5750 1190 18000000 		.4byte	.Ldebug_ranges0+0x18
 5751 1194 23       		.uleb128 0x23
 5752 1195 636D6400 		.ascii	"cmd\000"
 5753 1199 03       		.byte	0x3
 5754 119a 1D04     		.2byte	0x41d
 5755 119c 8C000000 		.4byte	0x8c
 5756 11a0 02       		.uleb128 0x2
 5757 11a1 91       		.byte	0x91
 5758 11a2 6C       		.sleb128 -20
 5759 11a3 00       		.byte	0
 5760 11a4 00       		.byte	0
 5761 11a5 25       		.uleb128 0x25
 5762 11a6 30000000 		.4byte	.Ldebug_ranges0+0x30
 5763 11aa BE110000 		.4byte	0x11be
 5764 11ae 20       		.uleb128 0x20
 5765 11af 41030000 		.4byte	.LASF204
 5766 11b3 03       		.byte	0x3
 5767 11b4 6004     		.2byte	0x460
 5768 11b6 8C000000 		.4byte	0x8c
 5769 11ba 02       		.uleb128 0x2
 5770 11bb 91       		.byte	0x91
 5771 11bc 68       		.sleb128 -24
 5772 11bd 00       		.byte	0
 5773 11be 24       		.uleb128 0x24
 5774 11bf CA010000 		.4byte	.LBB9
 5775 11c3 50000000 		.4byte	.LBE9-.LBB9
 5776 11c7 20       		.uleb128 0x20
 5777 11c8 A7000000 		.4byte	.LASF205
 5778 11cc 03       		.byte	0x3
 5779 11cd 7C04     		.2byte	0x47c
 5780 11cf 8C000000 		.4byte	0x8c
 5781 11d3 02       		.uleb128 0x2
 5782 11d4 91       		.byte	0x91
 5783 11d5 64       		.sleb128 -28
 5784 11d6 00       		.byte	0
 5785 11d7 00       		.byte	0
 5786 11d8 19       		.uleb128 0x19
 5787 11d9 4E090000 		.4byte	.LASF206
 5788 11dd 03       		.byte	0x3
 5789 11de A104     		.2byte	0x4a1
 5790 11e0 00000000 		.4byte	.LFB139
ARM GAS  C:\Users\salaz\AppData\Local\Temp\ccU0pQaU.s 			page 168


 5791 11e4 5A000000 		.4byte	.LFE139-.LFB139
 5792 11e8 01       		.uleb128 0x1
 5793 11e9 9C       		.byte	0x9c
 5794 11ea 26120000 		.4byte	0x1226
 5795 11ee 18       		.uleb128 0x18
 5796 11ef 32060000 		.4byte	.LASF103
 5797 11f3 03       		.byte	0x3
 5798 11f4 A104     		.2byte	0x4a1
 5799 11f6 20090000 		.4byte	0x920
 5800 11fa 02       		.uleb128 0x2
 5801 11fb 91       		.byte	0x91
 5802 11fc 6C       		.sleb128 -20
 5803 11fd 18       		.uleb128 0x18
 5804 11fe F30A0000 		.4byte	.LASF104
 5805 1202 03       		.byte	0x3
 5806 1203 A104     		.2byte	0x4a1
 5807 1205 E60C0000 		.4byte	0xce6
 5808 1209 02       		.uleb128 0x2
 5809 120a 91       		.byte	0x91
 5810 120b 68       		.sleb128 -24
 5811 120c 24       		.uleb128 0x24
 5812 120d 12000000 		.4byte	.LBB10
 5813 1211 2C000000 		.4byte	.LBE10-.LBB10
 5814 1215 20       		.uleb128 0x20
 5815 1216 A7000000 		.4byte	.LASF205
 5816 121a 03       		.byte	0x3
 5817 121b A604     		.2byte	0x4a6
 5818 121d 8C000000 		.4byte	0x8c
 5819 1221 02       		.uleb128 0x2
 5820 1222 91       		.byte	0x91
 5821 1223 74       		.sleb128 -12
 5822 1224 00       		.byte	0
 5823 1225 00       		.byte	0
 5824 1226 19       		.uleb128 0x19
 5825 1227 00000000 		.4byte	.LASF207
 5826 122b 03       		.byte	0x3
 5827 122c C404     		.2byte	0x4c4
 5828 122e 00000000 		.4byte	.LFB140
 5829 1232 C8000000 		.4byte	.LFE140-.LFB140
 5830 1236 01       		.uleb128 0x1
 5831 1237 9C       		.byte	0x9c
 5832 1238 5B120000 		.4byte	0x125b
 5833 123c 18       		.uleb128 0x18
 5834 123d 32060000 		.4byte	.LASF103
 5835 1241 03       		.byte	0x3
 5836 1242 C404     		.2byte	0x4c4
 5837 1244 20090000 		.4byte	0x920
 5838 1248 02       		.uleb128 0x2
 5839 1249 91       		.byte	0x91
 5840 124a 74       		.sleb128 -12
 5841 124b 18       		.uleb128 0x18
 5842 124c F30A0000 		.4byte	.LASF104
 5843 1250 03       		.byte	0x3
 5844 1251 C404     		.2byte	0x4c4
 5845 1253 E60C0000 		.4byte	0xce6
 5846 1257 02       		.uleb128 0x2
 5847 1258 91       		.byte	0x91
ARM GAS  C:\Users\salaz\AppData\Local\Temp\ccU0pQaU.s 			page 169


 5848 1259 70       		.sleb128 -16
 5849 125a 00       		.byte	0
 5850 125b 27       		.uleb128 0x27
 5851 125c 8C050000 		.4byte	.LASF212
 5852 1260 03       		.byte	0x3
 5853 1261 FE04     		.2byte	0x4fe
 5854 1263 00000000 		.4byte	.LFB141
 5855 1267 58000000 		.4byte	.LFE141-.LFB141
 5856 126b 01       		.uleb128 0x1
 5857 126c 9C       		.byte	0x9c
 5858 126d 18       		.uleb128 0x18
 5859 126e 32060000 		.4byte	.LASF103
 5860 1272 03       		.byte	0x3
 5861 1273 FE04     		.2byte	0x4fe
 5862 1275 20090000 		.4byte	0x920
 5863 1279 02       		.uleb128 0x2
 5864 127a 91       		.byte	0x91
 5865 127b 6C       		.sleb128 -20
 5866 127c 18       		.uleb128 0x18
 5867 127d F30A0000 		.4byte	.LASF104
 5868 1281 03       		.byte	0x3
 5869 1282 FE04     		.2byte	0x4fe
 5870 1284 BF0E0000 		.4byte	0xebf
 5871 1288 02       		.uleb128 0x2
 5872 1289 91       		.byte	0x91
 5873 128a 68       		.sleb128 -24
 5874 128b 20       		.uleb128 0x20
 5875 128c 1B0D0000 		.4byte	.LASF208
 5876 1290 03       		.byte	0x3
 5877 1291 0005     		.2byte	0x500
 5878 1293 8C000000 		.4byte	0x8c
 5879 1297 02       		.uleb128 0x2
 5880 1298 91       		.byte	0x91
 5881 1299 74       		.sleb128 -12
 5882 129a 00       		.byte	0
 5883 129b 00       		.byte	0
 5884              		.section	.debug_abbrev,"",%progbits
 5885              	.Ldebug_abbrev0:
 5886 0000 01       		.uleb128 0x1
 5887 0001 11       		.uleb128 0x11
 5888 0002 01       		.byte	0x1
 5889 0003 25       		.uleb128 0x25
 5890 0004 0E       		.uleb128 0xe
 5891 0005 13       		.uleb128 0x13
 5892 0006 0B       		.uleb128 0xb
 5893 0007 03       		.uleb128 0x3
 5894 0008 0E       		.uleb128 0xe
 5895 0009 1B       		.uleb128 0x1b
 5896 000a 0E       		.uleb128 0xe
 5897 000b 55       		.uleb128 0x55
 5898 000c 17       		.uleb128 0x17
 5899 000d 11       		.uleb128 0x11
 5900 000e 01       		.uleb128 0x1
 5901 000f 10       		.uleb128 0x10
 5902 0010 17       		.uleb128 0x17
 5903 0011 00       		.byte	0
 5904 0012 00       		.byte	0
ARM GAS  C:\Users\salaz\AppData\Local\Temp\ccU0pQaU.s 			page 170


 5905 0013 02       		.uleb128 0x2
 5906 0014 24       		.uleb128 0x24
 5907 0015 00       		.byte	0
 5908 0016 0B       		.uleb128 0xb
 5909 0017 0B       		.uleb128 0xb
 5910 0018 3E       		.uleb128 0x3e
 5911 0019 0B       		.uleb128 0xb
 5912 001a 03       		.uleb128 0x3
 5913 001b 0E       		.uleb128 0xe
 5914 001c 00       		.byte	0
 5915 001d 00       		.byte	0
 5916 001e 03       		.uleb128 0x3
 5917 001f 16       		.uleb128 0x16
 5918 0020 00       		.byte	0
 5919 0021 03       		.uleb128 0x3
 5920 0022 0E       		.uleb128 0xe
 5921 0023 3A       		.uleb128 0x3a
 5922 0024 0B       		.uleb128 0xb
 5923 0025 3B       		.uleb128 0x3b
 5924 0026 0B       		.uleb128 0xb
 5925 0027 49       		.uleb128 0x49
 5926 0028 13       		.uleb128 0x13
 5927 0029 00       		.byte	0
 5928 002a 00       		.byte	0
 5929 002b 04       		.uleb128 0x4
 5930 002c 24       		.uleb128 0x24
 5931 002d 00       		.byte	0
 5932 002e 0B       		.uleb128 0xb
 5933 002f 0B       		.uleb128 0xb
 5934 0030 3E       		.uleb128 0x3e
 5935 0031 0B       		.uleb128 0xb
 5936 0032 03       		.uleb128 0x3
 5937 0033 08       		.uleb128 0x8
 5938 0034 00       		.byte	0
 5939 0035 00       		.byte	0
 5940 0036 05       		.uleb128 0x5
 5941 0037 35       		.uleb128 0x35
 5942 0038 00       		.byte	0
 5943 0039 49       		.uleb128 0x49
 5944 003a 13       		.uleb128 0x13
 5945 003b 00       		.byte	0
 5946 003c 00       		.byte	0
 5947 003d 06       		.uleb128 0x6
 5948 003e 26       		.uleb128 0x26
 5949 003f 00       		.byte	0
 5950 0040 49       		.uleb128 0x49
 5951 0041 13       		.uleb128 0x13
 5952 0042 00       		.byte	0
 5953 0043 00       		.byte	0
 5954 0044 07       		.uleb128 0x7
 5955 0045 01       		.uleb128 0x1
 5956 0046 01       		.byte	0x1
 5957 0047 49       		.uleb128 0x49
 5958 0048 13       		.uleb128 0x13
 5959 0049 01       		.uleb128 0x1
 5960 004a 13       		.uleb128 0x13
 5961 004b 00       		.byte	0
ARM GAS  C:\Users\salaz\AppData\Local\Temp\ccU0pQaU.s 			page 171


 5962 004c 00       		.byte	0
 5963 004d 08       		.uleb128 0x8
 5964 004e 21       		.uleb128 0x21
 5965 004f 00       		.byte	0
 5966 0050 49       		.uleb128 0x49
 5967 0051 13       		.uleb128 0x13
 5968 0052 2F       		.uleb128 0x2f
 5969 0053 0B       		.uleb128 0xb
 5970 0054 00       		.byte	0
 5971 0055 00       		.byte	0
 5972 0056 09       		.uleb128 0x9
 5973 0057 13       		.uleb128 0x13
 5974 0058 01       		.byte	0x1
 5975 0059 0B       		.uleb128 0xb
 5976 005a 05       		.uleb128 0x5
 5977 005b 3A       		.uleb128 0x3a
 5978 005c 0B       		.uleb128 0xb
 5979 005d 3B       		.uleb128 0x3b
 5980 005e 0B       		.uleb128 0xb
 5981 005f 01       		.uleb128 0x1
 5982 0060 13       		.uleb128 0x13
 5983 0061 00       		.byte	0
 5984 0062 00       		.byte	0
 5985 0063 0A       		.uleb128 0xa
 5986 0064 0D       		.uleb128 0xd
 5987 0065 00       		.byte	0
 5988 0066 03       		.uleb128 0x3
 5989 0067 0E       		.uleb128 0xe
 5990 0068 3A       		.uleb128 0x3a
 5991 0069 0B       		.uleb128 0xb
 5992 006a 3B       		.uleb128 0x3b
 5993 006b 0B       		.uleb128 0xb
 5994 006c 49       		.uleb128 0x49
 5995 006d 13       		.uleb128 0x13
 5996 006e 38       		.uleb128 0x38
 5997 006f 0B       		.uleb128 0xb
 5998 0070 00       		.byte	0
 5999 0071 00       		.byte	0
 6000 0072 0B       		.uleb128 0xb
 6001 0073 0D       		.uleb128 0xd
 6002 0074 00       		.byte	0
 6003 0075 03       		.uleb128 0x3
 6004 0076 0E       		.uleb128 0xe
 6005 0077 3A       		.uleb128 0x3a
 6006 0078 0B       		.uleb128 0xb
 6007 0079 3B       		.uleb128 0x3b
 6008 007a 0B       		.uleb128 0xb
 6009 007b 49       		.uleb128 0x49
 6010 007c 13       		.uleb128 0x13
 6011 007d 38       		.uleb128 0x38
 6012 007e 05       		.uleb128 0x5
 6013 007f 00       		.byte	0
 6014 0080 00       		.byte	0
 6015 0081 0C       		.uleb128 0xc
 6016 0082 21       		.uleb128 0x21
 6017 0083 00       		.byte	0
 6018 0084 49       		.uleb128 0x49
ARM GAS  C:\Users\salaz\AppData\Local\Temp\ccU0pQaU.s 			page 172


 6019 0085 13       		.uleb128 0x13
 6020 0086 2F       		.uleb128 0x2f
 6021 0087 05       		.uleb128 0x5
 6022 0088 00       		.byte	0
 6023 0089 00       		.byte	0
 6024 008a 0D       		.uleb128 0xd
 6025 008b 16       		.uleb128 0x16
 6026 008c 00       		.byte	0
 6027 008d 03       		.uleb128 0x3
 6028 008e 0E       		.uleb128 0xe
 6029 008f 3A       		.uleb128 0x3a
 6030 0090 0B       		.uleb128 0xb
 6031 0091 3B       		.uleb128 0x3b
 6032 0092 05       		.uleb128 0x5
 6033 0093 49       		.uleb128 0x49
 6034 0094 13       		.uleb128 0x13
 6035 0095 00       		.byte	0
 6036 0096 00       		.byte	0
 6037 0097 0E       		.uleb128 0xe
 6038 0098 04       		.uleb128 0x4
 6039 0099 01       		.byte	0x1
 6040 009a 0B       		.uleb128 0xb
 6041 009b 0B       		.uleb128 0xb
 6042 009c 49       		.uleb128 0x49
 6043 009d 13       		.uleb128 0x13
 6044 009e 3A       		.uleb128 0x3a
 6045 009f 0B       		.uleb128 0xb
 6046 00a0 3B       		.uleb128 0x3b
 6047 00a1 05       		.uleb128 0x5
 6048 00a2 01       		.uleb128 0x1
 6049 00a3 13       		.uleb128 0x13
 6050 00a4 00       		.byte	0
 6051 00a5 00       		.byte	0
 6052 00a6 0F       		.uleb128 0xf
 6053 00a7 28       		.uleb128 0x28
 6054 00a8 00       		.byte	0
 6055 00a9 03       		.uleb128 0x3
 6056 00aa 0E       		.uleb128 0xe
 6057 00ab 1C       		.uleb128 0x1c
 6058 00ac 0B       		.uleb128 0xb
 6059 00ad 00       		.byte	0
 6060 00ae 00       		.byte	0
 6061 00af 10       		.uleb128 0x10
 6062 00b0 28       		.uleb128 0x28
 6063 00b1 00       		.byte	0
 6064 00b2 03       		.uleb128 0x3
 6065 00b3 0E       		.uleb128 0xe
 6066 00b4 1C       		.uleb128 0x1c
 6067 00b5 06       		.uleb128 0x6
 6068 00b6 00       		.byte	0
 6069 00b7 00       		.byte	0
 6070 00b8 11       		.uleb128 0x11
 6071 00b9 13       		.uleb128 0x13
 6072 00ba 01       		.byte	0x1
 6073 00bb 0B       		.uleb128 0xb
 6074 00bc 0B       		.uleb128 0xb
 6075 00bd 3A       		.uleb128 0x3a
ARM GAS  C:\Users\salaz\AppData\Local\Temp\ccU0pQaU.s 			page 173


 6076 00be 0B       		.uleb128 0xb
 6077 00bf 3B       		.uleb128 0x3b
 6078 00c0 05       		.uleb128 0x5
 6079 00c1 01       		.uleb128 0x1
 6080 00c2 13       		.uleb128 0x13
 6081 00c3 00       		.byte	0
 6082 00c4 00       		.byte	0
 6083 00c5 12       		.uleb128 0x12
 6084 00c6 0D       		.uleb128 0xd
 6085 00c7 00       		.byte	0
 6086 00c8 03       		.uleb128 0x3
 6087 00c9 0E       		.uleb128 0xe
 6088 00ca 3A       		.uleb128 0x3a
 6089 00cb 0B       		.uleb128 0xb
 6090 00cc 3B       		.uleb128 0x3b
 6091 00cd 05       		.uleb128 0x5
 6092 00ce 49       		.uleb128 0x49
 6093 00cf 13       		.uleb128 0x13
 6094 00d0 38       		.uleb128 0x38
 6095 00d1 0B       		.uleb128 0xb
 6096 00d2 00       		.byte	0
 6097 00d3 00       		.byte	0
 6098 00d4 13       		.uleb128 0x13
 6099 00d5 0F       		.uleb128 0xf
 6100 00d6 00       		.byte	0
 6101 00d7 0B       		.uleb128 0xb
 6102 00d8 0B       		.uleb128 0xb
 6103 00d9 00       		.byte	0
 6104 00da 00       		.byte	0
 6105 00db 14       		.uleb128 0x14
 6106 00dc 0F       		.uleb128 0xf
 6107 00dd 00       		.byte	0
 6108 00de 0B       		.uleb128 0xb
 6109 00df 0B       		.uleb128 0xb
 6110 00e0 49       		.uleb128 0x49
 6111 00e1 13       		.uleb128 0x13
 6112 00e2 00       		.byte	0
 6113 00e3 00       		.byte	0
 6114 00e4 15       		.uleb128 0x15
 6115 00e5 13       		.uleb128 0x13
 6116 00e6 01       		.byte	0x1
 6117 00e7 03       		.uleb128 0x3
 6118 00e8 0E       		.uleb128 0xe
 6119 00e9 0B       		.uleb128 0xb
 6120 00ea 0B       		.uleb128 0xb
 6121 00eb 3A       		.uleb128 0x3a
 6122 00ec 0B       		.uleb128 0xb
 6123 00ed 3B       		.uleb128 0x3b
 6124 00ee 05       		.uleb128 0x5
 6125 00ef 01       		.uleb128 0x1
 6126 00f0 13       		.uleb128 0x13
 6127 00f1 00       		.byte	0
 6128 00f2 00       		.byte	0
 6129 00f3 16       		.uleb128 0x16
 6130 00f4 0D       		.uleb128 0xd
 6131 00f5 00       		.byte	0
 6132 00f6 03       		.uleb128 0x3
ARM GAS  C:\Users\salaz\AppData\Local\Temp\ccU0pQaU.s 			page 174


 6133 00f7 08       		.uleb128 0x8
 6134 00f8 3A       		.uleb128 0x3a
 6135 00f9 0B       		.uleb128 0xb
 6136 00fa 3B       		.uleb128 0x3b
 6137 00fb 05       		.uleb128 0x5
 6138 00fc 49       		.uleb128 0x49
 6139 00fd 13       		.uleb128 0x13
 6140 00fe 38       		.uleb128 0x38
 6141 00ff 0B       		.uleb128 0xb
 6142 0100 00       		.byte	0
 6143 0101 00       		.byte	0
 6144 0102 17       		.uleb128 0x17
 6145 0103 2E       		.uleb128 0x2e
 6146 0104 01       		.byte	0x1
 6147 0105 03       		.uleb128 0x3
 6148 0106 0E       		.uleb128 0xe
 6149 0107 3A       		.uleb128 0x3a
 6150 0108 0B       		.uleb128 0xb
 6151 0109 3B       		.uleb128 0x3b
 6152 010a 05       		.uleb128 0x5
 6153 010b 27       		.uleb128 0x27
 6154 010c 19       		.uleb128 0x19
 6155 010d 49       		.uleb128 0x49
 6156 010e 13       		.uleb128 0x13
 6157 010f 11       		.uleb128 0x11
 6158 0110 01       		.uleb128 0x1
 6159 0111 12       		.uleb128 0x12
 6160 0112 06       		.uleb128 0x6
 6161 0113 40       		.uleb128 0x40
 6162 0114 18       		.uleb128 0x18
 6163 0115 9742     		.uleb128 0x2117
 6164 0117 19       		.uleb128 0x19
 6165 0118 01       		.uleb128 0x1
 6166 0119 13       		.uleb128 0x13
 6167 011a 00       		.byte	0
 6168 011b 00       		.byte	0
 6169 011c 18       		.uleb128 0x18
 6170 011d 05       		.uleb128 0x5
 6171 011e 00       		.byte	0
 6172 011f 03       		.uleb128 0x3
 6173 0120 0E       		.uleb128 0xe
 6174 0121 3A       		.uleb128 0x3a
 6175 0122 0B       		.uleb128 0xb
 6176 0123 3B       		.uleb128 0x3b
 6177 0124 05       		.uleb128 0x5
 6178 0125 49       		.uleb128 0x49
 6179 0126 13       		.uleb128 0x13
 6180 0127 02       		.uleb128 0x2
 6181 0128 18       		.uleb128 0x18
 6182 0129 00       		.byte	0
 6183 012a 00       		.byte	0
 6184 012b 19       		.uleb128 0x19
 6185 012c 2E       		.uleb128 0x2e
 6186 012d 01       		.byte	0x1
 6187 012e 03       		.uleb128 0x3
 6188 012f 0E       		.uleb128 0xe
 6189 0130 3A       		.uleb128 0x3a
ARM GAS  C:\Users\salaz\AppData\Local\Temp\ccU0pQaU.s 			page 175


 6190 0131 0B       		.uleb128 0xb
 6191 0132 3B       		.uleb128 0x3b
 6192 0133 05       		.uleb128 0x5
 6193 0134 27       		.uleb128 0x27
 6194 0135 19       		.uleb128 0x19
 6195 0136 11       		.uleb128 0x11
 6196 0137 01       		.uleb128 0x1
 6197 0138 12       		.uleb128 0x12
 6198 0139 06       		.uleb128 0x6
 6199 013a 40       		.uleb128 0x40
 6200 013b 18       		.uleb128 0x18
 6201 013c 9642     		.uleb128 0x2116
 6202 013e 19       		.uleb128 0x19
 6203 013f 01       		.uleb128 0x1
 6204 0140 13       		.uleb128 0x13
 6205 0141 00       		.byte	0
 6206 0142 00       		.byte	0
 6207 0143 1A       		.uleb128 0x1a
 6208 0144 2E       		.uleb128 0x2e
 6209 0145 01       		.byte	0x1
 6210 0146 03       		.uleb128 0x3
 6211 0147 0E       		.uleb128 0xe
 6212 0148 3A       		.uleb128 0x3a
 6213 0149 0B       		.uleb128 0xb
 6214 014a 3B       		.uleb128 0x3b
 6215 014b 05       		.uleb128 0x5
 6216 014c 27       		.uleb128 0x27
 6217 014d 19       		.uleb128 0x19
 6218 014e 11       		.uleb128 0x11
 6219 014f 01       		.uleb128 0x1
 6220 0150 12       		.uleb128 0x12
 6221 0151 06       		.uleb128 0x6
 6222 0152 40       		.uleb128 0x40
 6223 0153 18       		.uleb128 0x18
 6224 0154 9742     		.uleb128 0x2117
 6225 0156 19       		.uleb128 0x19
 6226 0157 01       		.uleb128 0x1
 6227 0158 13       		.uleb128 0x13
 6228 0159 00       		.byte	0
 6229 015a 00       		.byte	0
 6230 015b 1B       		.uleb128 0x1b
 6231 015c 2E       		.uleb128 0x2e
 6232 015d 01       		.byte	0x1
 6233 015e 3F       		.uleb128 0x3f
 6234 015f 19       		.uleb128 0x19
 6235 0160 03       		.uleb128 0x3
 6236 0161 0E       		.uleb128 0xe
 6237 0162 3A       		.uleb128 0x3a
 6238 0163 0B       		.uleb128 0xb
 6239 0164 3B       		.uleb128 0x3b
 6240 0165 0B       		.uleb128 0xb
 6241 0166 27       		.uleb128 0x27
 6242 0167 19       		.uleb128 0x19
 6243 0168 49       		.uleb128 0x49
 6244 0169 13       		.uleb128 0x13
 6245 016a 11       		.uleb128 0x11
 6246 016b 01       		.uleb128 0x1
ARM GAS  C:\Users\salaz\AppData\Local\Temp\ccU0pQaU.s 			page 176


 6247 016c 12       		.uleb128 0x12
 6248 016d 06       		.uleb128 0x6
 6249 016e 40       		.uleb128 0x40
 6250 016f 18       		.uleb128 0x18
 6251 0170 9642     		.uleb128 0x2116
 6252 0172 19       		.uleb128 0x19
 6253 0173 01       		.uleb128 0x1
 6254 0174 13       		.uleb128 0x13
 6255 0175 00       		.byte	0
 6256 0176 00       		.byte	0
 6257 0177 1C       		.uleb128 0x1c
 6258 0178 05       		.uleb128 0x5
 6259 0179 00       		.byte	0
 6260 017a 03       		.uleb128 0x3
 6261 017b 0E       		.uleb128 0xe
 6262 017c 3A       		.uleb128 0x3a
 6263 017d 0B       		.uleb128 0xb
 6264 017e 3B       		.uleb128 0x3b
 6265 017f 0B       		.uleb128 0xb
 6266 0180 49       		.uleb128 0x49
 6267 0181 13       		.uleb128 0x13
 6268 0182 02       		.uleb128 0x2
 6269 0183 18       		.uleb128 0x18
 6270 0184 00       		.byte	0
 6271 0185 00       		.byte	0
 6272 0186 1D       		.uleb128 0x1d
 6273 0187 2E       		.uleb128 0x2e
 6274 0188 01       		.byte	0x1
 6275 0189 3F       		.uleb128 0x3f
 6276 018a 19       		.uleb128 0x19
 6277 018b 03       		.uleb128 0x3
 6278 018c 0E       		.uleb128 0xe
 6279 018d 3A       		.uleb128 0x3a
 6280 018e 0B       		.uleb128 0xb
 6281 018f 3B       		.uleb128 0x3b
 6282 0190 0B       		.uleb128 0xb
 6283 0191 27       		.uleb128 0x27
 6284 0192 19       		.uleb128 0x19
 6285 0193 11       		.uleb128 0x11
 6286 0194 01       		.uleb128 0x1
 6287 0195 12       		.uleb128 0x12
 6288 0196 06       		.uleb128 0x6
 6289 0197 40       		.uleb128 0x40
 6290 0198 18       		.uleb128 0x18
 6291 0199 9742     		.uleb128 0x2117
 6292 019b 19       		.uleb128 0x19
 6293 019c 01       		.uleb128 0x1
 6294 019d 13       		.uleb128 0x13
 6295 019e 00       		.byte	0
 6296 019f 00       		.byte	0
 6297 01a0 1E       		.uleb128 0x1e
 6298 01a1 34       		.uleb128 0x34
 6299 01a2 00       		.byte	0
 6300 01a3 03       		.uleb128 0x3
 6301 01a4 0E       		.uleb128 0xe
 6302 01a5 3A       		.uleb128 0x3a
 6303 01a6 0B       		.uleb128 0xb
ARM GAS  C:\Users\salaz\AppData\Local\Temp\ccU0pQaU.s 			page 177


 6304 01a7 3B       		.uleb128 0x3b
 6305 01a8 0B       		.uleb128 0xb
 6306 01a9 49       		.uleb128 0x49
 6307 01aa 13       		.uleb128 0x13
 6308 01ab 02       		.uleb128 0x2
 6309 01ac 18       		.uleb128 0x18
 6310 01ad 00       		.byte	0
 6311 01ae 00       		.byte	0
 6312 01af 1F       		.uleb128 0x1f
 6313 01b0 2E       		.uleb128 0x2e
 6314 01b1 01       		.byte	0x1
 6315 01b2 3F       		.uleb128 0x3f
 6316 01b3 19       		.uleb128 0x19
 6317 01b4 03       		.uleb128 0x3
 6318 01b5 0E       		.uleb128 0xe
 6319 01b6 3A       		.uleb128 0x3a
 6320 01b7 0B       		.uleb128 0xb
 6321 01b8 3B       		.uleb128 0x3b
 6322 01b9 05       		.uleb128 0x5
 6323 01ba 27       		.uleb128 0x27
 6324 01bb 19       		.uleb128 0x19
 6325 01bc 49       		.uleb128 0x49
 6326 01bd 13       		.uleb128 0x13
 6327 01be 11       		.uleb128 0x11
 6328 01bf 01       		.uleb128 0x1
 6329 01c0 12       		.uleb128 0x12
 6330 01c1 06       		.uleb128 0x6
 6331 01c2 40       		.uleb128 0x40
 6332 01c3 18       		.uleb128 0x18
 6333 01c4 9642     		.uleb128 0x2116
 6334 01c6 19       		.uleb128 0x19
 6335 01c7 01       		.uleb128 0x1
 6336 01c8 13       		.uleb128 0x13
 6337 01c9 00       		.byte	0
 6338 01ca 00       		.byte	0
 6339 01cb 20       		.uleb128 0x20
 6340 01cc 34       		.uleb128 0x34
 6341 01cd 00       		.byte	0
 6342 01ce 03       		.uleb128 0x3
 6343 01cf 0E       		.uleb128 0xe
 6344 01d0 3A       		.uleb128 0x3a
 6345 01d1 0B       		.uleb128 0xb
 6346 01d2 3B       		.uleb128 0x3b
 6347 01d3 05       		.uleb128 0x5
 6348 01d4 49       		.uleb128 0x49
 6349 01d5 13       		.uleb128 0x13
 6350 01d6 02       		.uleb128 0x2
 6351 01d7 18       		.uleb128 0x18
 6352 01d8 00       		.byte	0
 6353 01d9 00       		.byte	0
 6354 01da 21       		.uleb128 0x21
 6355 01db 2E       		.uleb128 0x2e
 6356 01dc 01       		.byte	0x1
 6357 01dd 3F       		.uleb128 0x3f
 6358 01de 19       		.uleb128 0x19
 6359 01df 03       		.uleb128 0x3
 6360 01e0 0E       		.uleb128 0xe
ARM GAS  C:\Users\salaz\AppData\Local\Temp\ccU0pQaU.s 			page 178


 6361 01e1 3A       		.uleb128 0x3a
 6362 01e2 0B       		.uleb128 0xb
 6363 01e3 3B       		.uleb128 0x3b
 6364 01e4 05       		.uleb128 0x5
 6365 01e5 27       		.uleb128 0x27
 6366 01e6 19       		.uleb128 0x19
 6367 01e7 11       		.uleb128 0x11
 6368 01e8 01       		.uleb128 0x1
 6369 01e9 12       		.uleb128 0x12
 6370 01ea 06       		.uleb128 0x6
 6371 01eb 40       		.uleb128 0x40
 6372 01ec 18       		.uleb128 0x18
 6373 01ed 9642     		.uleb128 0x2116
 6374 01ef 19       		.uleb128 0x19
 6375 01f0 01       		.uleb128 0x1
 6376 01f1 13       		.uleb128 0x13
 6377 01f2 00       		.byte	0
 6378 01f3 00       		.byte	0
 6379 01f4 22       		.uleb128 0x22
 6380 01f5 2E       		.uleb128 0x2e
 6381 01f6 01       		.byte	0x1
 6382 01f7 3F       		.uleb128 0x3f
 6383 01f8 19       		.uleb128 0x19
 6384 01f9 03       		.uleb128 0x3
 6385 01fa 0E       		.uleb128 0xe
 6386 01fb 3A       		.uleb128 0x3a
 6387 01fc 0B       		.uleb128 0xb
 6388 01fd 3B       		.uleb128 0x3b
 6389 01fe 05       		.uleb128 0x5
 6390 01ff 27       		.uleb128 0x27
 6391 0200 19       		.uleb128 0x19
 6392 0201 49       		.uleb128 0x49
 6393 0202 13       		.uleb128 0x13
 6394 0203 11       		.uleb128 0x11
 6395 0204 01       		.uleb128 0x1
 6396 0205 12       		.uleb128 0x12
 6397 0206 06       		.uleb128 0x6
 6398 0207 40       		.uleb128 0x40
 6399 0208 18       		.uleb128 0x18
 6400 0209 9742     		.uleb128 0x2117
 6401 020b 19       		.uleb128 0x19
 6402 020c 01       		.uleb128 0x1
 6403 020d 13       		.uleb128 0x13
 6404 020e 00       		.byte	0
 6405 020f 00       		.byte	0
 6406 0210 23       		.uleb128 0x23
 6407 0211 34       		.uleb128 0x34
 6408 0212 00       		.byte	0
 6409 0213 03       		.uleb128 0x3
 6410 0214 08       		.uleb128 0x8
 6411 0215 3A       		.uleb128 0x3a
 6412 0216 0B       		.uleb128 0xb
 6413 0217 3B       		.uleb128 0x3b
 6414 0218 05       		.uleb128 0x5
 6415 0219 49       		.uleb128 0x49
 6416 021a 13       		.uleb128 0x13
 6417 021b 02       		.uleb128 0x2
ARM GAS  C:\Users\salaz\AppData\Local\Temp\ccU0pQaU.s 			page 179


 6418 021c 18       		.uleb128 0x18
 6419 021d 00       		.byte	0
 6420 021e 00       		.byte	0
 6421 021f 24       		.uleb128 0x24
 6422 0220 0B       		.uleb128 0xb
 6423 0221 01       		.byte	0x1
 6424 0222 11       		.uleb128 0x11
 6425 0223 01       		.uleb128 0x1
 6426 0224 12       		.uleb128 0x12
 6427 0225 06       		.uleb128 0x6
 6428 0226 00       		.byte	0
 6429 0227 00       		.byte	0
 6430 0228 25       		.uleb128 0x25
 6431 0229 0B       		.uleb128 0xb
 6432 022a 01       		.byte	0x1
 6433 022b 55       		.uleb128 0x55
 6434 022c 17       		.uleb128 0x17
 6435 022d 01       		.uleb128 0x1
 6436 022e 13       		.uleb128 0x13
 6437 022f 00       		.byte	0
 6438 0230 00       		.byte	0
 6439 0231 26       		.uleb128 0x26
 6440 0232 0B       		.uleb128 0xb
 6441 0233 01       		.byte	0x1
 6442 0234 55       		.uleb128 0x55
 6443 0235 17       		.uleb128 0x17
 6444 0236 00       		.byte	0
 6445 0237 00       		.byte	0
 6446 0238 27       		.uleb128 0x27
 6447 0239 2E       		.uleb128 0x2e
 6448 023a 01       		.byte	0x1
 6449 023b 03       		.uleb128 0x3
 6450 023c 0E       		.uleb128 0xe
 6451 023d 3A       		.uleb128 0x3a
 6452 023e 0B       		.uleb128 0xb
 6453 023f 3B       		.uleb128 0x3b
 6454 0240 05       		.uleb128 0x5
 6455 0241 27       		.uleb128 0x27
 6456 0242 19       		.uleb128 0x19
 6457 0243 11       		.uleb128 0x11
 6458 0244 01       		.uleb128 0x1
 6459 0245 12       		.uleb128 0x12
 6460 0246 06       		.uleb128 0x6
 6461 0247 40       		.uleb128 0x40
 6462 0248 18       		.uleb128 0x18
 6463 0249 9742     		.uleb128 0x2117
 6464 024b 19       		.uleb128 0x19
 6465 024c 00       		.byte	0
 6466 024d 00       		.byte	0
 6467 024e 00       		.byte	0
 6468              		.section	.debug_aranges,"",%progbits
 6469 0000 5C010000 		.4byte	0x15c
 6470 0004 0200     		.2byte	0x2
 6471 0006 00000000 		.4byte	.Ldebug_info0
 6472 000a 04       		.byte	0x4
 6473 000b 00       		.byte	0
 6474 000c 0000     		.2byte	0
ARM GAS  C:\Users\salaz\AppData\Local\Temp\ccU0pQaU.s 			page 180


 6475 000e 0000     		.2byte	0
 6476 0010 00000000 		.4byte	.LFB69
 6477 0014 18000000 		.4byte	.LFE69-.LFB69
 6478 0018 00000000 		.4byte	.LFB70
 6479 001c 58000000 		.4byte	.LFE70-.LFB70
 6480 0020 00000000 		.4byte	.LFB73
 6481 0024 4C000000 		.4byte	.LFE73-.LFB73
 6482 0028 00000000 		.4byte	.LFB79
 6483 002c 4C000000 		.4byte	.LFE79-.LFB79
 6484 0030 00000000 		.4byte	.LFB83
 6485 0034 3C000000 		.4byte	.LFE83-.LFB83
 6486 0038 00000000 		.4byte	.LFB85
 6487 003c 1C000000 		.4byte	.LFE85-.LFB85
 6488 0040 00000000 		.4byte	.LFB86
 6489 0044 44000000 		.4byte	.LFE86-.LFB86
 6490 0048 00000000 		.4byte	.LFB87
 6491 004c 40000000 		.4byte	.LFE87-.LFB87
 6492 0050 00000000 		.4byte	.LFB89
 6493 0054 3C000000 		.4byte	.LFE89-.LFB89
 6494 0058 00000000 		.4byte	.LFB91
 6495 005c 1C000000 		.4byte	.LFE91-.LFB91
 6496 0060 00000000 		.4byte	.LFB92
 6497 0064 44000000 		.4byte	.LFE92-.LFB92
 6498 0068 00000000 		.4byte	.LFB101
 6499 006c 40000000 		.4byte	.LFE101-.LFB101
 6500 0070 00000000 		.4byte	.LFB103
 6501 0074 1C000000 		.4byte	.LFE103-.LFB103
 6502 0078 00000000 		.4byte	.LFB104
 6503 007c 44000000 		.4byte	.LFE104-.LFB104
 6504 0080 00000000 		.4byte	.LFB107
 6505 0084 3C000000 		.4byte	.LFE107-.LFB107
 6506 0088 00000000 		.4byte	.LFB109
 6507 008c 1C000000 		.4byte	.LFE109-.LFB109
 6508 0090 00000000 		.4byte	.LFB110
 6509 0094 40000000 		.4byte	.LFE110-.LFB110
 6510 0098 00000000 		.4byte	.LFB116
 6511 009c 22000000 		.4byte	.LFE116-.LFB116
 6512 00a0 00000000 		.4byte	.LFB119
 6513 00a4 3A000000 		.4byte	.LFE119-.LFB119
 6514 00a8 00000000 		.4byte	.LFB120
 6515 00ac 1C000000 		.4byte	.LFE120-.LFB120
 6516 00b0 00000000 		.4byte	.LFB121
 6517 00b4 1E000000 		.4byte	.LFE121-.LFB121
 6518 00b8 00000000 		.4byte	.LFB122
 6519 00bc E0010000 		.4byte	.LFE122-.LFB122
 6520 00c0 00000000 		.4byte	.LFB123
 6521 00c4 A4000000 		.4byte	.LFE123-.LFB123
 6522 00c8 00000000 		.4byte	.LFB124
 6523 00cc 2A000000 		.4byte	.LFE124-.LFB124
 6524 00d0 00000000 		.4byte	.LFB125
 6525 00d4 40010000 		.4byte	.LFE125-.LFB125
 6526 00d8 00000000 		.4byte	.LFB126
 6527 00dc 8C000000 		.4byte	.LFE126-.LFB126
 6528 00e0 00000000 		.4byte	.LFB127
 6529 00e4 36000000 		.4byte	.LFE127-.LFB127
 6530 00e8 00000000 		.4byte	.LFB128
 6531 00ec 94000000 		.4byte	.LFE128-.LFB128
ARM GAS  C:\Users\salaz\AppData\Local\Temp\ccU0pQaU.s 			page 181


 6532 00f0 00000000 		.4byte	.LFB129
 6533 00f4 16000000 		.4byte	.LFE129-.LFB129
 6534 00f8 00000000 		.4byte	.LFB130
 6535 00fc 60000000 		.4byte	.LFE130-.LFB130
 6536 0100 00000000 		.4byte	.LFB131
 6537 0104 70000000 		.4byte	.LFE131-.LFB131
 6538 0108 00000000 		.4byte	.LFB132
 6539 010c 16000000 		.4byte	.LFE132-.LFB132
 6540 0110 00000000 		.4byte	.LFB133
 6541 0114 60000000 		.4byte	.LFE133-.LFB133
 6542 0118 00000000 		.4byte	.LFB134
 6543 011c 32010000 		.4byte	.LFE134-.LFB134
 6544 0120 00000000 		.4byte	.LFB135
 6545 0124 3A000000 		.4byte	.LFE135-.LFB135
 6546 0128 00000000 		.4byte	.LFB136
 6547 012c 44010000 		.4byte	.LFE136-.LFB136
 6548 0130 00000000 		.4byte	.LFB137
 6549 0134 72000000 		.4byte	.LFE137-.LFB137
 6550 0138 00000000 		.4byte	.LFB138
 6551 013c 2A020000 		.4byte	.LFE138-.LFB138
 6552 0140 00000000 		.4byte	.LFB139
 6553 0144 5A000000 		.4byte	.LFE139-.LFB139
 6554 0148 00000000 		.4byte	.LFB140
 6555 014c C8000000 		.4byte	.LFE140-.LFB140
 6556 0150 00000000 		.4byte	.LFB141
 6557 0154 58000000 		.4byte	.LFE141-.LFB141
 6558 0158 00000000 		.4byte	0
 6559 015c 00000000 		.4byte	0
 6560              		.section	.debug_ranges,"",%progbits
 6561              	.Ldebug_ranges0:
 6562 0000 28000000 		.4byte	.LBB3
 6563 0004 4E010000 		.4byte	.LBE3
 6564 0008 50010000 		.4byte	.LBB6
 6565 000c 72010000 		.4byte	.LBE6
 6566 0010 00000000 		.4byte	0
 6567 0014 00000000 		.4byte	0
 6568 0018 82000000 		.4byte	.LBB4
 6569 001c 4E010000 		.4byte	.LBE4
 6570 0020 50010000 		.4byte	.LBB5
 6571 0024 72010000 		.4byte	.LBE5
 6572 0028 00000000 		.4byte	0
 6573 002c 00000000 		.4byte	0
 6574 0030 74010000 		.4byte	.LBB7
 6575 0034 B6010000 		.4byte	.LBE7
 6576 0038 B8010000 		.4byte	.LBB8
 6577 003c C8010000 		.4byte	.LBE8
 6578 0040 00000000 		.4byte	0
 6579 0044 00000000 		.4byte	0
 6580 0048 00000000 		.4byte	.LFB69
 6581 004c 18000000 		.4byte	.LFE69
 6582 0050 00000000 		.4byte	.LFB70
 6583 0054 58000000 		.4byte	.LFE70
 6584 0058 00000000 		.4byte	.LFB73
 6585 005c 4C000000 		.4byte	.LFE73
 6586 0060 00000000 		.4byte	.LFB79
 6587 0064 4C000000 		.4byte	.LFE79
 6588 0068 00000000 		.4byte	.LFB83
ARM GAS  C:\Users\salaz\AppData\Local\Temp\ccU0pQaU.s 			page 182


 6589 006c 3C000000 		.4byte	.LFE83
 6590 0070 00000000 		.4byte	.LFB85
 6591 0074 1C000000 		.4byte	.LFE85
 6592 0078 00000000 		.4byte	.LFB86
 6593 007c 44000000 		.4byte	.LFE86
 6594 0080 00000000 		.4byte	.LFB87
 6595 0084 40000000 		.4byte	.LFE87
 6596 0088 00000000 		.4byte	.LFB89
 6597 008c 3C000000 		.4byte	.LFE89
 6598 0090 00000000 		.4byte	.LFB91
 6599 0094 1C000000 		.4byte	.LFE91
 6600 0098 00000000 		.4byte	.LFB92
 6601 009c 44000000 		.4byte	.LFE92
 6602 00a0 00000000 		.4byte	.LFB101
 6603 00a4 40000000 		.4byte	.LFE101
 6604 00a8 00000000 		.4byte	.LFB103
 6605 00ac 1C000000 		.4byte	.LFE103
 6606 00b0 00000000 		.4byte	.LFB104
 6607 00b4 44000000 		.4byte	.LFE104
 6608 00b8 00000000 		.4byte	.LFB107
 6609 00bc 3C000000 		.4byte	.LFE107
 6610 00c0 00000000 		.4byte	.LFB109
 6611 00c4 1C000000 		.4byte	.LFE109
 6612 00c8 00000000 		.4byte	.LFB110
 6613 00cc 40000000 		.4byte	.LFE110
 6614 00d0 00000000 		.4byte	.LFB116
 6615 00d4 22000000 		.4byte	.LFE116
 6616 00d8 00000000 		.4byte	.LFB119
 6617 00dc 3A000000 		.4byte	.LFE119
 6618 00e0 00000000 		.4byte	.LFB120
 6619 00e4 1C000000 		.4byte	.LFE120
 6620 00e8 00000000 		.4byte	.LFB121
 6621 00ec 1E000000 		.4byte	.LFE121
 6622 00f0 00000000 		.4byte	.LFB122
 6623 00f4 E0010000 		.4byte	.LFE122
 6624 00f8 00000000 		.4byte	.LFB123
 6625 00fc A4000000 		.4byte	.LFE123
 6626 0100 00000000 		.4byte	.LFB124
 6627 0104 2A000000 		.4byte	.LFE124
 6628 0108 00000000 		.4byte	.LFB125
 6629 010c 40010000 		.4byte	.LFE125
 6630 0110 00000000 		.4byte	.LFB126
 6631 0114 8C000000 		.4byte	.LFE126
 6632 0118 00000000 		.4byte	.LFB127
 6633 011c 36000000 		.4byte	.LFE127
 6634 0120 00000000 		.4byte	.LFB128
 6635 0124 94000000 		.4byte	.LFE128
 6636 0128 00000000 		.4byte	.LFB129
 6637 012c 16000000 		.4byte	.LFE129
 6638 0130 00000000 		.4byte	.LFB130
 6639 0134 60000000 		.4byte	.LFE130
 6640 0138 00000000 		.4byte	.LFB131
 6641 013c 70000000 		.4byte	.LFE131
 6642 0140 00000000 		.4byte	.LFB132
 6643 0144 16000000 		.4byte	.LFE132
 6644 0148 00000000 		.4byte	.LFB133
 6645 014c 60000000 		.4byte	.LFE133
ARM GAS  C:\Users\salaz\AppData\Local\Temp\ccU0pQaU.s 			page 183


 6646 0150 00000000 		.4byte	.LFB134
 6647 0154 32010000 		.4byte	.LFE134
 6648 0158 00000000 		.4byte	.LFB135
 6649 015c 3A000000 		.4byte	.LFE135
 6650 0160 00000000 		.4byte	.LFB136
 6651 0164 44010000 		.4byte	.LFE136
 6652 0168 00000000 		.4byte	.LFB137
 6653 016c 72000000 		.4byte	.LFE137
 6654 0170 00000000 		.4byte	.LFB138
 6655 0174 2A020000 		.4byte	.LFE138
 6656 0178 00000000 		.4byte	.LFB139
 6657 017c 5A000000 		.4byte	.LFE139
 6658 0180 00000000 		.4byte	.LFB140
 6659 0184 C8000000 		.4byte	.LFE140
 6660 0188 00000000 		.4byte	.LFB141
 6661 018c 58000000 		.4byte	.LFE141
 6662 0190 00000000 		.4byte	0
 6663 0194 00000000 		.4byte	0
 6664              		.section	.debug_line,"",%progbits
 6665              	.Ldebug_line0:
 6666 0000 45080000 		.section	.debug_str,"MS",%progbits,1
 6666      02003902 
 6666      00000201 
 6666      FB0E0D00 
 6666      01010101 
 6667              	.LASF207:
 6668 0000 48616E64 		.ascii	"HandleStop\000"
 6668      6C655374 
 6668      6F7000
 6669              	.LASF131:
 6670 000b 63795F73 		.ascii	"cy_stc_scb_ezi2c_context\000"
 6670      74635F73 
 6670      63625F65 
 6670      7A693263 
 6670      5F636F6E 
 6671              	.LASF92:
 6672 0024 43595F53 		.ascii	"CY_SYSPM_TIMEOUT\000"
 6672      5953504D 
 6672      5F54494D 
 6672      454F5554 
 6672      00
 6673              	.LASF203:
 6674 0035 62617365 		.ascii	"baseAddr\000"
 6674      41646472 
 6674      00
 6675              	.LASF114:
 6676 003e 63795F65 		.ascii	"cy_en_scb_ezi2c_sub_addr_size_t\000"
 6676      6E5F7363 
 6676      625F657A 
 6676      6932635F 
 6676      7375625F 
 6677              	.LASF91:
 6678 005e 43595F53 		.ascii	"CY_SYSPM_BAD_PARAM\000"
 6678      5953504D 
 6678      5F424144 
 6678      5F504152 
 6678      414D00
ARM GAS  C:\Users\salaz\AppData\Local\Temp\ccU0pQaU.s 			page 184


 6679              	.LASF38:
 6680 0071 54585F46 		.ascii	"TX_FIFO_CTRL\000"
 6680      49464F5F 
 6680      4354524C 
 6680      00
 6681              	.LASF30:
 6682 007e 4932435F 		.ascii	"I2C_STATUS\000"
 6682      53544154 
 6682      555300
 6683              	.LASF142:
 6684 0089 62756631 		.ascii	"buf1\000"
 6684      00
 6685              	.LASF5:
 6686 008e 5F5F7569 		.ascii	"__uint8_t\000"
 6686      6E74385F 
 6686      7400
 6687              	.LASF39:
 6688 0098 54585F46 		.ascii	"TX_FIFO_STATUS\000"
 6688      49464F5F 
 6688      53544154 
 6688      555300
 6689              	.LASF205:
 6690 00a7 6E756D54 		.ascii	"numToCopy\000"
 6690      6F436F70 
 6690      7900
 6691              	.LASF178:
 6692 00b1 6C6F6342 		.ascii	"locBase\000"
 6692      61736500 
 6693              	.LASF9:
 6694 00b9 6C6F6E67 		.ascii	"long long unsigned int\000"
 6694      206C6F6E 
 6694      6720756E 
 6694      7369676E 
 6694      65642069 
 6695              	.LASF185:
 6696 00d0 61646472 		.ascii	"addr\000"
 6696      00
 6697              	.LASF73:
 6698 00d5 494E5452 		.ascii	"INTR_S_MASK\000"
 6698      5F535F4D 
 6698      41534B00 
 6699              	.LASF143:
 6700 00e1 62756631 		.ascii	"buf1Size\000"
 6700      53697A65 
 6700      00
 6701              	.LASF152:
 6702 00ea 43795F53 		.ascii	"Cy_SCB_ClearTxFifo\000"
 6702      43425F43 
 6702      6C656172 
 6702      54784669 
 6702      666F00
 6703              	.LASF187:
 6704 00fd 43795F53 		.ascii	"Cy_SCB_EZI2C_SetBuffer1\000"
 6704      43425F45 
 6704      5A493243 
 6704      5F536574 
 6704      42756666 
ARM GAS  C:\Users\salaz\AppData\Local\Temp\ccU0pQaU.s 			page 185


 6705              	.LASF193:
 6706 0115 43795F53 		.ascii	"Cy_SCB_EZI2C_SetBuffer2\000"
 6706      43425F45 
 6706      5A493243 
 6706      5F536574 
 6706      42756666 
 6707              	.LASF8:
 6708 012d 6C6F6E67 		.ascii	"long long int\000"
 6708      206C6F6E 
 6708      6720696E 
 6708      7400
 6709              	.LASF0:
 6710 013b 7369676E 		.ascii	"signed char\000"
 6710      65642063 
 6710      68617200 
 6711              	.LASF186:
 6712 0147 43795F53 		.ascii	"Cy_SCB_EZI2C_GetAddress1\000"
 6712      43425F45 
 6712      5A493243 
 6712      5F476574 
 6712      41646472 
 6713              	.LASF192:
 6714 0160 43795F53 		.ascii	"Cy_SCB_EZI2C_GetAddress2\000"
 6714      43425F45 
 6714      5A493243 
 6714      5F476574 
 6714      41646472 
 6715              	.LASF124:
 6716 0179 736C6176 		.ascii	"slaveAddress1\000"
 6716      65416464 
 6716      72657373 
 6716      3100
 6717              	.LASF125:
 6718 0187 736C6176 		.ascii	"slaveAddress2\000"
 6718      65416464 
 6718      72657373 
 6718      3200
 6719              	.LASF156:
 6720 0195 43795F53 		.ascii	"Cy_SCB_GetRxInterruptStatusMasked\000"
 6720      43425F47 
 6720      65745278 
 6720      496E7465 
 6720      72727570 
 6721              	.LASF153:
 6722 01b7 43795F53 		.ascii	"Cy_SCB_SetRxInterruptMask\000"
 6722      43425F53 
 6722      65745278 
 6722      496E7465 
 6722      72727570 
 6723              	.LASF53:
 6724 01d1 52455345 		.ascii	"RESERVED10\000"
 6724      52564544 
 6724      313000
 6725              	.LASF55:
 6726 01dc 52455345 		.ascii	"RESERVED11\000"
 6726      52564544 
 6726      313100
ARM GAS  C:\Users\salaz\AppData\Local\Temp\ccU0pQaU.s 			page 186


 6727              	.LASF57:
 6728 01e7 52455345 		.ascii	"RESERVED12\000"
 6728      52564544 
 6728      313200
 6729              	.LASF60:
 6730 01f2 52455345 		.ascii	"RESERVED13\000"
 6730      52564544 
 6730      313300
 6731              	.LASF62:
 6732 01fd 52455345 		.ascii	"RESERVED14\000"
 6732      52564544 
 6732      313400
 6733              	.LASF65:
 6734 0208 52455345 		.ascii	"RESERVED15\000"
 6734      52564544 
 6734      313500
 6735              	.LASF70:
 6736 0213 52455345 		.ascii	"RESERVED16\000"
 6736      52564544 
 6736      313600
 6737              	.LASF75:
 6738 021e 52455345 		.ascii	"RESERVED17\000"
 6738      52564544 
 6738      313700
 6739              	.LASF80:
 6740 0229 52455345 		.ascii	"RESERVED18\000"
 6740      52564544 
 6740      313800
 6741              	.LASF132:
 6742 0234 73746174 		.ascii	"state\000"
 6742      6500
 6743              	.LASF4:
 6744 023a 6C6F6E67 		.ascii	"long int\000"
 6744      20696E74 
 6744      00
 6745              	.LASF199:
 6746 0243 55706461 		.ascii	"UpdateRxFifoLevel\000"
 6746      74655278 
 6746      4669666F 
 6746      4C657665 
 6746      6C00
 6747              	.LASF54:
 6748 0255 494E5452 		.ascii	"INTR_CAUSE\000"
 6748      5F434155 
 6748      534500
 6749              	.LASF56:
 6750 0260 494E5452 		.ascii	"INTR_I2C_EC\000"
 6750      5F493243 
 6750      5F454300 
 6751              	.LASF81:
 6752 026c 494E5452 		.ascii	"INTR_RX\000"
 6752      5F525800 
 6753              	.LASF27:
 6754 0274 55415254 		.ascii	"UART_FLOW_CTRL\000"
 6754      5F464C4F 
 6754      575F4354 
 6754      524C00
ARM GAS  C:\Users\salaz\AppData\Local\Temp\ccU0pQaU.s 			page 187


 6755              	.LASF82:
 6756 0283 494E5452 		.ascii	"INTR_RX_SET\000"
 6756      5F52585F 
 6756      53455400 
 6757              	.LASF41:
 6758 028f 54585F46 		.ascii	"TX_FIFO_WR\000"
 6758      49464F5F 
 6758      575200
 6759              	.LASF130:
 6760 029a 63795F73 		.ascii	"cy_stc_scb_ezi2c_config\000"
 6760      74635F73 
 6760      63625F65 
 6760      7A693263 
 6760      5F636F6E 
 6761              	.LASF89:
 6762 02b2 646F7562 		.ascii	"double\000"
 6762      6C6500
 6763              	.LASF174:
 6764 02b9 43795F53 		.ascii	"Cy_SCB_EZI2C_Disable\000"
 6764      43425F45 
 6764      5A493243 
 6764      5F446973 
 6764      61626C65 
 6765              	.LASF127:
 6766 02ce 656E6162 		.ascii	"enableWakeFromSleep\000"
 6766      6C655761 
 6766      6B654672 
 6766      6F6D536C 
 6766      65657000 
 6767              	.LASF196:
 6768 02e2 48616E64 		.ascii	"HandleErrors\000"
 6768      6C654572 
 6768      726F7273 
 6768      00
 6769              	.LASF105:
 6770 02ef 63795F73 		.ascii	"cy_stc_syspm_callback_params_t\000"
 6770      74635F73 
 6770      7973706D 
 6770      5F63616C 
 6770      6C626163 
 6771              	.LASF117:
 6772 030e 43595F53 		.ascii	"CY_SCB_EZI2C_STATE_RX_OFFSET_MSB\000"
 6772      43425F45 
 6772      5A493243 
 6772      5F535441 
 6772      54455F52 
 6773              	.LASF123:
 6774 032f 6E756D62 		.ascii	"numberOfAddresses\000"
 6774      65724F66 
 6774      41646472 
 6774      65737365 
 6774      7300
 6775              	.LASF204:
 6776 0341 62797465 		.ascii	"byte\000"
 6776      00
 6777              	.LASF6:
 6778 0346 5F5F7569 		.ascii	"__uint32_t\000"
ARM GAS  C:\Users\salaz\AppData\Local\Temp\ccU0pQaU.s 			page 188


 6778      6E743332 
 6778      5F7400
 6779              	.LASF94:
 6780 0351 43595F53 		.ascii	"CY_SYSPM_CANCELED\000"
 6780      5953504D 
 6780      5F43414E 
 6780      43454C45 
 6780      4400
 6781              	.LASF149:
 6782 0363 6C657665 		.ascii	"level\000"
 6782      6C00
 6783              	.LASF64:
 6784 0369 494E5452 		.ascii	"INTR_SPI_EC_MASKED\000"
 6784      5F535049 
 6784      5F45435F 
 6784      4D41534B 
 6784      454400
 6785              	.LASF20:
 6786 037c 5350495F 		.ascii	"SPI_CTRL\000"
 6786      4354524C 
 6786      00
 6787              	.LASF197:
 6788 0385 48616E64 		.ascii	"HandleAddress\000"
 6788      6C654164 
 6788      64726573 
 6788      7300
 6789              	.LASF93:
 6790 0393 43595F53 		.ascii	"CY_SYSPM_INVALID_STATE\000"
 6790      5953504D 
 6790      5F494E56 
 6790      414C4944 
 6790      5F535441 
 6791              	.LASF10:
 6792 03aa 756E7369 		.ascii	"unsigned int\000"
 6792      676E6564 
 6792      20696E74 
 6792      00
 6793              	.LASF14:
 6794 03b7 73697A65 		.ascii	"sizetype\000"
 6794      74797065 
 6794      00
 6795              	.LASF86:
 6796 03c0 63686172 		.ascii	"char_t\000"
 6796      5F7400
 6797              	.LASF25:
 6798 03c7 55415254 		.ascii	"UART_RX_CTRL\000"
 6798      5F52585F 
 6798      4354524C 
 6798      00
 6799              	.LASF158:
 6800 03d4 43795F53 		.ascii	"Cy_SCB_SetRxInterrupt\000"
 6800      43425F53 
 6800      65745278 
 6800      496E7465 
 6800      72727570 
 6801              	.LASF159:
 6802 03ea 43795F53 		.ascii	"Cy_SCB_SetTxInterruptMask\000"
ARM GAS  C:\Users\salaz\AppData\Local\Temp\ccU0pQaU.s 			page 189


 6802      43425F53 
 6802      65745478 
 6802      496E7465 
 6802      72727570 
 6803              	.LASF7:
 6804 0404 6C6F6E67 		.ascii	"long unsigned int\000"
 6804      20756E73 
 6804      69676E65 
 6804      6420696E 
 6804      7400
 6805              	.LASF18:
 6806 0416 434D445F 		.ascii	"CMD_RESP_STATUS\000"
 6806      52455350 
 6806      5F535441 
 6806      54555300 
 6807              	.LASF50:
 6808 0426 52585F46 		.ascii	"RX_FIFO_RD_SILENT\000"
 6808      49464F5F 
 6808      52445F53 
 6808      494C454E 
 6808      5400
 6809              	.LASF72:
 6810 0438 494E5452 		.ascii	"INTR_S_SET\000"
 6810      5F535F53 
 6810      455400
 6811              	.LASF176:
 6812 0443 43795F53 		.ascii	"Cy_SCB_EZI2C_DeepSleepCallback\000"
 6812      43425F45 
 6812      5A493243 
 6812      5F446565 
 6812      70536C65 
 6813              	.LASF170:
 6814 0462 43795F53 		.ascii	"Cy_SCB_GetRxFifoLevel\000"
 6814      43425F47 
 6814      65745278 
 6814      4669666F 
 6814      4C657665 
 6815              	.LASF169:
 6816 0478 43795F53 		.ascii	"Cy_SCB_FwBlockReset\000"
 6816      43425F46 
 6816      77426C6F 
 6816      636B5265 
 6816      73657400 
 6817              	.LASF24:
 6818 048c 55415254 		.ascii	"UART_TX_CTRL\000"
 6818      5F54585F 
 6818      4354524C 
 6818      00
 6819              	.LASF181:
 6820 0499 43795F53 		.ascii	"Cy_SCB_EZI2C_HibernateCallback\000"
 6820      43425F45 
 6820      5A493243 
 6820      5F486962 
 6820      65726E61 
 6821              	.LASF189:
 6822 04b8 73697A65 		.ascii	"size\000"
 6822      00
ARM GAS  C:\Users\salaz\AppData\Local\Temp\ccU0pQaU.s 			page 190


 6823              	.LASF3:
 6824 04bd 73686F72 		.ascii	"short unsigned int\000"
 6824      7420756E 
 6824      7369676E 
 6824      65642069 
 6824      6E7400
 6825              	.LASF179:
 6826 04d0 6C6F6343 		.ascii	"locContext\000"
 6826      6F6E7465 
 6826      787400
 6827              	.LASF33:
 6828 04db 4932435F 		.ascii	"I2C_CFG\000"
 6828      43464700 
 6829              	.LASF26:
 6830 04e3 55415254 		.ascii	"UART_RX_STATUS\000"
 6830      5F52585F 
 6830      53544154 
 6830      555300
 6831              	.LASF52:
 6832 04f2 455A5F44 		.ascii	"EZ_DATA\000"
 6832      41544100 
 6833              	.LASF209:
 6834 04fa 474E5520 		.ascii	"GNU C11 5.4.1 20160609 (release) [ARM/embedded-5-br"
 6834      43313120 
 6834      352E342E 
 6834      31203230 
 6834      31363036 
 6835 052d 616E6368 		.ascii	"anch revision 237715] -mcpu=cortex-m0plus -mthumb -"
 6835      20726576 
 6835      6973696F 
 6835      6E203233 
 6835      37373135 
 6836 0560 67202D4F 		.ascii	"g -O0 -ffunction-sections -ffat-lto-objects\000"
 6836      30202D66 
 6836      66756E63 
 6836      74696F6E 
 6836      2D736563 
 6837              	.LASF212:
 6838 058c 55706461 		.ascii	"UpdateAddressMask\000"
 6838      74654164 
 6838      64726573 
 6838      734D6173 
 6838      6B00
 6839              	.LASF164:
 6840 059e 43795F53 		.ascii	"Cy_SCB_ClearSlaveInterrupt\000"
 6840      43425F43 
 6840      6C656172 
 6840      536C6176 
 6840      65496E74 
 6841              	.LASF47:
 6842 05b9 52585F4D 		.ascii	"RX_MATCH\000"
 6842      41544348 
 6842      00
 6843              	.LASF118:
 6844 05c2 43595F53 		.ascii	"CY_SCB_EZI2C_STATE_RX_OFFSET_LSB\000"
 6844      43425F45 
 6844      5A493243 
ARM GAS  C:\Users\salaz\AppData\Local\Temp\ccU0pQaU.s 			page 191


 6844      5F535441 
 6844      54455F52 
 6845              	.LASF84:
 6846 05e3 494E5452 		.ascii	"INTR_RX_MASKED\000"
 6846      5F52585F 
 6846      4D41534B 
 6846      454400
 6847              	.LASF183:
 6848 05f2 696E7472 		.ascii	"intrState\000"
 6848      53746174 
 6848      6500
 6849              	.LASF177:
 6850 05fc 63616C6C 		.ascii	"callbackParams\000"
 6850      6261636B 
 6850      50617261 
 6850      6D7300
 6851              	.LASF145:
 6852 060b 62756632 		.ascii	"buf2\000"
 6852      00
 6853              	.LASF100:
 6854 0610 43595F53 		.ascii	"CY_SYSPM_AFTER_TRANSITION\000"
 6854      5953504D 
 6854      5F414654 
 6854      45525F54 
 6854      52414E53 
 6855              	.LASF76:
 6856 062a 494E5452 		.ascii	"INTR_TX\000"
 6856      5F545800 
 6857              	.LASF103:
 6858 0632 62617365 		.ascii	"base\000"
 6858      00
 6859              	.LASF69:
 6860 0637 494E5452 		.ascii	"INTR_M_MASKED\000"
 6860      5F4D5F4D 
 6860      41534B45 
 6860      4400
 6861              	.LASF17:
 6862 0645 434D445F 		.ascii	"CMD_RESP_CTRL\000"
 6862      52455350 
 6862      5F435452 
 6862      4C00
 6863              	.LASF140:
 6864 0653 63757242 		.ascii	"curBuf\000"
 6864      756600
 6865              	.LASF59:
 6866 065a 494E5452 		.ascii	"INTR_I2C_EC_MASKED\000"
 6866      5F493243 
 6866      5F45435F 
 6866      4D41534B 
 6866      454400
 6867              	.LASF134:
 6868 066d 61646472 		.ascii	"address1\000"
 6868      65737331 
 6868      00
 6869              	.LASF135:
 6870 0676 61646472 		.ascii	"address2\000"
 6870      65737332 
ARM GAS  C:\Users\salaz\AppData\Local\Temp\ccU0pQaU.s 			page 192


 6870      00
 6871              	.LASF182:
 6872 067f 43795F53 		.ascii	"Cy_SCB_EZI2C_GetActivity\000"
 6872      43425F45 
 6872      5A493243 
 6872      5F476574 
 6872      41637469 
 6873              	.LASF85:
 6874 0698 43795343 		.ascii	"CySCB_Type\000"
 6874      425F5479 
 6874      706500
 6875              	.LASF202:
 6876 06a3 63686563 		.ascii	"checkBaseAddr\000"
 6876      6B426173 
 6876      65416464 
 6876      7200
 6877              	.LASF198:
 6878 06b1 61646472 		.ascii	"address\000"
 6878      65737300 
 6879              	.LASF129:
 6880 06b9 63795F73 		.ascii	"cy_stc_scb_ezi2c_config_t\000"
 6880      74635F73 
 6880      63625F65 
 6880      7A693263 
 6880      5F636F6E 
 6881              	.LASF166:
 6882 06d3 43795F53 		.ascii	"Cy_SCB_GetI2CInterruptStatusMasked\000"
 6882      43425F47 
 6882      65744932 
 6882      43496E74 
 6882      65727275 
 6883              	.LASF115:
 6884 06f6 43595F53 		.ascii	"CY_SCB_EZI2C_STATE_IDLE\000"
 6884      43425F45 
 6884      5A493243 
 6884      5F535441 
 6884      54455F49 
 6885              	.LASF23:
 6886 070e 55415254 		.ascii	"UART_CTRL\000"
 6886      5F435452 
 6886      4C00
 6887              	.LASF66:
 6888 0718 494E5452 		.ascii	"INTR_M\000"
 6888      5F4D00
 6889              	.LASF99:
 6890 071f 43595F53 		.ascii	"CY_SYSPM_BEFORE_TRANSITION\000"
 6890      5953504D 
 6890      5F424546 
 6890      4F52455F 
 6890      5452414E 
 6891              	.LASF71:
 6892 073a 494E5452 		.ascii	"INTR_S\000"
 6892      5F5300
 6893              	.LASF175:
 6894 0741 43795F53 		.ascii	"Cy_SCB_EZI2C_Init\000"
 6894      43425F45 
 6894      5A493243 
ARM GAS  C:\Users\salaz\AppData\Local\Temp\ccU0pQaU.s 			page 193


 6894      5F496E69 
 6894      7400
 6895              	.LASF119:
 6896 0753 43595F53 		.ascii	"CY_SCB_EZI2C_STATE_RX_DATA0\000"
 6896      43425F45 
 6896      5A493243 
 6896      5F535441 
 6896      54455F52 
 6897              	.LASF120:
 6898 076f 43595F53 		.ascii	"CY_SCB_EZI2C_STATE_RX_DATA1\000"
 6898      43425F45 
 6898      5A493243 
 6898      5F535441 
 6898      54455F52 
 6899              	.LASF35:
 6900 078b 44444654 		.ascii	"DDFT_CTRL\000"
 6900      5F435452 
 6900      4C00
 6901              	.LASF101:
 6902 0795 63795F65 		.ascii	"cy_en_syspm_callback_mode_t\000"
 6902      6E5F7379 
 6902      73706D5F 
 6902      63616C6C 
 6902      6261636B 
 6903              	.LASF168:
 6904 07b1 43795F53 		.ascii	"Cy_SCB_GetFifoSize\000"
 6904      43425F47 
 6904      65744669 
 6904      666F5369 
 6904      7A6500
 6905              	.LASF184:
 6906 07c4 43795F53 		.ascii	"Cy_SCB_EZI2C_SetAddress1\000"
 6906      43425F45 
 6906      5A493243 
 6906      5F536574 
 6906      41646472 
 6907              	.LASF191:
 6908 07dd 43795F53 		.ascii	"Cy_SCB_EZI2C_SetAddress2\000"
 6908      43425F45 
 6908      5A493243 
 6908      5F536574 
 6908      41646472 
 6909              	.LASF160:
 6910 07f6 43795F53 		.ascii	"Cy_SCB_GetTxInterruptStatusMasked\000"
 6910      43425F47 
 6910      65745478 
 6910      496E7465 
 6910      72727570 
 6911              	.LASF190:
 6912 0818 7277426F 		.ascii	"rwBoundary\000"
 6912      756E6461 
 6912      727900
 6913              	.LASF22:
 6914 0823 52455345 		.ascii	"RESERVED1\000"
 6914      52564544 
 6914      3100
 6915              	.LASF126:
ARM GAS  C:\Users\salaz\AppData\Local\Temp\ccU0pQaU.s 			page 194


 6916 082d 73756241 		.ascii	"subAddressSize\000"
 6916      64647265 
 6916      73735369 
 6916      7A6500
 6917              	.LASF34:
 6918 083c 52455345 		.ascii	"RESERVED3\000"
 6918      52564544 
 6918      3300
 6919              	.LASF165:
 6920 0846 43795F53 		.ascii	"Cy_SCB_SetI2CInterruptMask\000"
 6920      43425F53 
 6920      65744932 
 6920      43496E74 
 6920      65727275 
 6921              	.LASF106:
 6922 0861 43595F53 		.ascii	"CY_SCB_EZI2C_SUCCESS\000"
 6922      43425F45 
 6922      5A493243 
 6922      5F535543 
 6922      43455353 
 6923              	.LASF42:
 6924 0876 52455345 		.ascii	"RESERVED6\000"
 6924      52564544 
 6924      3600
 6925              	.LASF46:
 6926 0880 52455345 		.ascii	"RESERVED7\000"
 6926      52564544 
 6926      3700
 6927              	.LASF48:
 6928 088a 52455345 		.ascii	"RESERVED8\000"
 6928      52564544 
 6928      3800
 6929              	.LASF51:
 6930 0894 52455345 		.ascii	"RESERVED9\000"
 6930      52564544 
 6930      3900
 6931              	.LASF147:
 6932 089e 62756632 		.ascii	"buf2rwBondary\000"
 6932      7277426F 
 6932      6E646172 
 6932      7900
 6933              	.LASF128:
 6934 08ac 5F426F6F 		.ascii	"_Bool\000"
 6934      6C00
 6935              	.LASF29:
 6936 08b2 4932435F 		.ascii	"I2C_CTRL\000"
 6936      4354524C 
 6936      00
 6937              	.LASF1:
 6938 08bb 756E7369 		.ascii	"unsigned char\000"
 6938      676E6564 
 6938      20636861 
 6938      7200
 6939              	.LASF79:
 6940 08c9 494E5452 		.ascii	"INTR_TX_MASKED\000"
 6940      5F54585F 
 6940      4D41534B 
ARM GAS  C:\Users\salaz\AppData\Local\Temp\ccU0pQaU.s 			page 195


 6940      454400
 6941              	.LASF2:
 6942 08d8 73686F72 		.ascii	"short int\000"
 6942      7420696E 
 6942      7400
 6943              	.LASF32:
 6944 08e2 4932435F 		.ascii	"I2C_S_CMD\000"
 6944      535F434D 
 6944      4400
 6945              	.LASF154:
 6946 08ec 696E7465 		.ascii	"interruptMask\000"
 6946      72727570 
 6946      744D6173 
 6946      6B00
 6947              	.LASF162:
 6948 08fa 43795F53 		.ascii	"Cy_SCB_SetSlaveInterruptMask\000"
 6948      43425F53 
 6948      6574536C 
 6948      61766549 
 6948      6E746572 
 6949              	.LASF195:
 6950 0917 736C6176 		.ascii	"slaveIntrStatus\000"
 6950      65496E74 
 6950      72537461 
 6950      74757300 
 6951              	.LASF111:
 6952 0927 63795F65 		.ascii	"cy_en_scb_ezi2c_num_of_addr_t\000"
 6952      6E5F7363 
 6952      625F657A 
 6952      6932635F 
 6952      6E756D5F 
 6953              	.LASF200:
 6954 0945 6669666F 		.ascii	"fifoSize\000"
 6954      53697A65 
 6954      00
 6955              	.LASF206:
 6956 094e 48616E64 		.ascii	"HandleDataTransmit\000"
 6956      6C654461 
 6956      74615472 
 6956      616E736D 
 6956      697400
 6957              	.LASF28:
 6958 0961 52455345 		.ascii	"RESERVED2\000"
 6958      52564544 
 6958      3200
 6959              	.LASF36:
 6960 096b 52455345 		.ascii	"RESERVED4\000"
 6960      52564544 
 6960      3400
 6961              	.LASF40:
 6962 0975 52455345 		.ascii	"RESERVED5\000"
 6962      52564544 
 6962      3500
 6963              	.LASF210:
 6964 097f 47656E65 		.ascii	"Generated_Source\\PSoC6\\pdl\\drivers\\peripheral\\"
 6964      72617465 
 6964      645F536F 
ARM GAS  C:\Users\salaz\AppData\Local\Temp\ccU0pQaU.s 			page 196


 6964      75726365 
 6964      5C50536F 
 6965 09ad 7363625C 		.ascii	"scb\\cy_scb_ezi2c.c\000"
 6965      63795F73 
 6965      63625F65 
 6965      7A693263 
 6965      2E6300
 6966              	.LASF63:
 6967 09c0 494E5452 		.ascii	"INTR_SPI_EC_MASK\000"
 6967      5F535049 
 6967      5F45435F 
 6967      4D41534B 
 6967      00
 6968              	.LASF12:
 6969 09d1 75696E74 		.ascii	"uint32_t\000"
 6969      33325F74 
 6969      00
 6970              	.LASF139:
 6971 09da 61646472 		.ascii	"addr1Active\000"
 6971      31416374 
 6971      69766500 
 6972              	.LASF116:
 6973 09e6 43595F53 		.ascii	"CY_SCB_EZI2C_STATE_ADDR\000"
 6973      43425F45 
 6973      5A493243 
 6973      5F535441 
 6973      54455F41 
 6974              	.LASF67:
 6975 09fe 494E5452 		.ascii	"INTR_M_SET\000"
 6975      5F4D5F53 
 6975      455400
 6976              	.LASF21:
 6977 0a09 5350495F 		.ascii	"SPI_STATUS\000"
 6977      53544154 
 6977      555300
 6978              	.LASF13:
 6979 0a14 6C6F6E67 		.ascii	"long double\000"
 6979      20646F75 
 6979      626C6500 
 6980              	.LASF141:
 6981 0a20 62756653 		.ascii	"bufSize\000"
 6981      697A6500 
 6982              	.LASF87:
 6983 0a28 63686172 		.ascii	"char\000"
 6983      00
 6984              	.LASF150:
 6985 0a2d 43795F53 		.ascii	"Cy_SCB_SetRxFifoLevel\000"
 6985      43425F53 
 6985      65745278 
 6985      4669666F 
 6985      4C657665 
 6986              	.LASF102:
 6987 0a43 6D6F6465 		.ascii	"mode\000"
 6987      00
 6988              	.LASF201:
 6989 0a48 48616E64 		.ascii	"HandleDataReceive\000"
 6989      6C654461 
ARM GAS  C:\Users\salaz\AppData\Local\Temp\ccU0pQaU.s 			page 197


 6989      74615265 
 6989      63656976 
 6989      6500
 6990              	.LASF121:
 6991 0a5a 43595F53 		.ascii	"CY_SCB_EZI2C_STATE_TX_DATA\000"
 6991      43425F45 
 6991      5A493243 
 6991      5F535441 
 6991      54455F54 
 6992              	.LASF172:
 6993 0a75 636F6E66 		.ascii	"config\000"
 6993      696700
 6994              	.LASF77:
 6995 0a7c 494E5452 		.ascii	"INTR_TX_SET\000"
 6995      5F54585F 
 6995      53455400 
 6996              	.LASF68:
 6997 0a88 494E5452 		.ascii	"INTR_M_MASK\000"
 6997      5F4D5F4D 
 6997      41534B00 
 6998              	.LASF19:
 6999 0a94 52455345 		.ascii	"RESERVED\000"
 6999      52564544 
 6999      00
 7000              	.LASF188:
 7001 0a9d 62756666 		.ascii	"buffer\000"
 7001      657200
 7002              	.LASF45:
 7003 0aa4 52585F46 		.ascii	"RX_FIFO_STATUS\000"
 7003      49464F5F 
 7003      53544154 
 7003      555300
 7004              	.LASF78:
 7005 0ab3 494E5452 		.ascii	"INTR_TX_MASK\000"
 7005      5F54585F 
 7005      4D41534B 
 7005      00
 7006              	.LASF43:
 7007 0ac0 52585F43 		.ascii	"RX_CTRL\000"
 7007      54524C00 
 7008              	.LASF49:
 7009 0ac8 52585F46 		.ascii	"RX_FIFO_RD\000"
 7009      49464F5F 
 7009      524400
 7010              	.LASF98:
 7011 0ad3 43595F53 		.ascii	"CY_SYSPM_CHECK_FAIL\000"
 7011      5953504D 
 7011      5F434845 
 7011      434B5F46 
 7011      41494C00 
 7012              	.LASF136:
 7013 0ae7 73756241 		.ascii	"subAddrSize\000"
 7013      64647253 
 7013      697A6500 
 7014              	.LASF104:
 7015 0af3 636F6E74 		.ascii	"context\000"
 7015      65787400 
ARM GAS  C:\Users\salaz\AppData\Local\Temp\ccU0pQaU.s 			page 198


 7016              	.LASF113:
 7017 0afb 43595F53 		.ascii	"CY_SCB_EZI2C_SUB_ADDR16_BITS\000"
 7017      43425F45 
 7017      5A493243 
 7017      5F535542 
 7017      5F414444 
 7018              	.LASF37:
 7019 0b18 54585F43 		.ascii	"TX_CTRL\000"
 7019      54524C00 
 7020              	.LASF61:
 7021 0b20 494E5452 		.ascii	"INTR_SPI_EC\000"
 7021      5F535049 
 7021      5F454300 
 7022              	.LASF171:
 7023 0b2c 43795F53 		.ascii	"Cy_SCB_EZI2C_Enable\000"
 7023      43425F45 
 7023      5A493243 
 7023      5F456E61 
 7023      626C6500 
 7024              	.LASF15:
 7025 0b40 4354524C 		.ascii	"CTRL\000"
 7025      00
 7026              	.LASF95:
 7027 0b45 43595F53 		.ascii	"CY_SYSPM_FAIL\000"
 7027      5953504D 
 7027      5F464149 
 7027      4C00
 7028              	.LASF194:
 7029 0b53 43795F53 		.ascii	"Cy_SCB_EZI2C_Interrupt\000"
 7029      43425F45 
 7029      5A493243 
 7029      5F496E74 
 7029      65727275 
 7030              	.LASF112:
 7031 0b6a 43595F53 		.ascii	"CY_SCB_EZI2C_SUB_ADDR8_BITS\000"
 7031      43425F45 
 7031      5A493243 
 7031      5F535542 
 7031      5F414444 
 7032              	.LASF167:
 7033 0b86 43795F53 		.ascii	"Cy_SCB_ClearI2CInterrupt\000"
 7033      43425F43 
 7033      6C656172 
 7033      49324349 
 7033      6E746572 
 7034              	.LASF16:
 7035 0b9f 53544154 		.ascii	"STATUS\000"
 7035      555300
 7036              	.LASF211:
 7037 0ba6 433A5C55 		.ascii	"C:\\Users\\salaz\\Desktop\\UART\\UART_debug.cydsn\000"
 7037      73657273 
 7037      5C73616C 
 7037      617A5C44 
 7037      65736B74 
 7038              	.LASF151:
 7039 0bd3 43795F53 		.ascii	"Cy_SCB_ClearRxFifo\000"
 7039      43425F43 
ARM GAS  C:\Users\salaz\AppData\Local\Temp\ccU0pQaU.s 			page 199


 7039      6C656172 
 7039      52784669 
 7039      666F00
 7040              	.LASF133:
 7041 0be6 73746174 		.ascii	"status\000"
 7041      757300
 7042              	.LASF163:
 7043 0bed 43795F53 		.ascii	"Cy_SCB_GetSlaveInterruptStatusMasked\000"
 7043      43425F47 
 7043      6574536C 
 7043      61766549 
 7043      6E746572 
 7044              	.LASF161:
 7045 0c12 43795F53 		.ascii	"Cy_SCB_ClearTxInterrupt\000"
 7045      43425F43 
 7045      6C656172 
 7045      5478496E 
 7045      74657272 
 7046              	.LASF122:
 7047 0c2a 63795F65 		.ascii	"cy_en_scb_ezi2c_state_t\000"
 7047      6E5F7363 
 7047      625F657A 
 7047      6932635F 
 7047      73746174 
 7048              	.LASF44:
 7049 0c42 52585F46 		.ascii	"RX_FIFO_CTRL\000"
 7049      49464F5F 
 7049      4354524C 
 7049      00
 7050              	.LASF11:
 7051 0c4f 75696E74 		.ascii	"uint8_t\000"
 7051      385F7400 
 7052              	.LASF146:
 7053 0c57 62756632 		.ascii	"buf2Size\000"
 7053      53697A65 
 7053      00
 7054              	.LASF31:
 7055 0c60 4932435F 		.ascii	"I2C_M_CMD\000"
 7055      4D5F434D 
 7055      4400
 7056              	.LASF88:
 7057 0c6a 666C6F61 		.ascii	"float\000"
 7057      7400
 7058              	.LASF108:
 7059 0c70 63795F65 		.ascii	"cy_en_scb_ezi2c_status_t\000"
 7059      6E5F7363 
 7059      625F657A 
 7059      6932635F 
 7059      73746174 
 7060              	.LASF148:
 7061 0c89 63795F73 		.ascii	"cy_stc_scb_ezi2c_context_t\000"
 7061      74635F73 
 7061      63625F65 
 7061      7A693263 
 7061      5F636F6E 
 7062              	.LASF107:
 7063 0ca4 43595F53 		.ascii	"CY_SCB_EZI2C_BAD_PARAM\000"
ARM GAS  C:\Users\salaz\AppData\Local\Temp\ccU0pQaU.s 			page 200


 7063      43425F45 
 7063      5A493243 
 7063      5F424144 
 7063      5F504152 
 7064              	.LASF90:
 7065 0cbb 43595F53 		.ascii	"CY_SYSPM_SUCCESS\000"
 7065      5953504D 
 7065      5F535543 
 7065      43455353 
 7065      00
 7066              	.LASF97:
 7067 0ccc 43595F53 		.ascii	"CY_SYSPM_CHECK_READY\000"
 7067      5953504D 
 7067      5F434845 
 7067      434B5F52 
 7067      45414459 
 7068              	.LASF144:
 7069 0ce1 62756631 		.ascii	"buf1rwBondary\000"
 7069      7277426F 
 7069      6E646172 
 7069      7900
 7070              	.LASF110:
 7071 0cef 43595F53 		.ascii	"CY_SCB_EZI2C_TWO_ADDRESSES\000"
 7071      43425F45 
 7071      5A493243 
 7071      5F54574F 
 7071      5F414444 
 7072              	.LASF58:
 7073 0d0a 494E5452 		.ascii	"INTR_I2C_EC_MASK\000"
 7073      5F493243 
 7073      5F45435F 
 7073      4D41534B 
 7073      00
 7074              	.LASF208:
 7075 0d1b 61646472 		.ascii	"addrMask\000"
 7075      4D61736B 
 7075      00
 7076              	.LASF96:
 7077 0d24 63795F65 		.ascii	"cy_en_syspm_status_t\000"
 7077      6E5F7379 
 7077      73706D5F 
 7077      73746174 
 7077      75735F74 
 7078              	.LASF83:
 7079 0d39 494E5452 		.ascii	"INTR_RX_MASK\000"
 7079      5F52585F 
 7079      4D41534B 
 7079      00
 7080              	.LASF137:
 7081 0d46 62617365 		.ascii	"baseAddr1\000"
 7081      41646472 
 7081      3100
 7082              	.LASF138:
 7083 0d50 62617365 		.ascii	"baseAddr2\000"
 7083      41646472 
 7083      3200
 7084              	.LASF109:
ARM GAS  C:\Users\salaz\AppData\Local\Temp\ccU0pQaU.s 			page 201


 7085 0d5a 43595F53 		.ascii	"CY_SCB_EZI2C_ONE_ADDRESS\000"
 7085      43425F45 
 7085      5A493243 
 7085      5F4F4E45 
 7085      5F414444 
 7086              	.LASF74:
 7087 0d73 494E5452 		.ascii	"INTR_S_MASKED\000"
 7087      5F535F4D 
 7087      41534B45 
 7087      4400
 7088              	.LASF173:
 7089 0d81 43795F53 		.ascii	"Cy_SCB_EZI2C_DeInit\000"
 7089      43425F45 
 7089      5A493243 
 7089      5F446549 
 7089      6E697400 
 7090              	.LASF180:
 7091 0d95 72657453 		.ascii	"retStatus\000"
 7091      74617475 
 7091      7300
 7092              	.LASF157:
 7093 0d9f 43795F53 		.ascii	"Cy_SCB_ClearRxInterrupt\000"
 7093      43425F43 
 7093      6C656172 
 7093      5278496E 
 7093      74657272 
 7094              	.LASF155:
 7095 0db7 43795F53 		.ascii	"Cy_SCB_ReadRxFifo\000"
 7095      43425F52 
 7095      65616452 
 7095      78466966 
 7095      6F00
 7096              		.ident	"GCC: (GNU Tools for ARM Embedded Processors) 5.4.1 20160609 (release) [ARM/embedded-5-bran
