ARM GAS  C:\Users\salaz\AppData\Local\Temp\ccgho4Px.s 			page 1


   1              		.syntax unified
   2              		.cpu cortex-m0plus
   3              		.fpu softvfp
   4              		.eabi_attribute 20, 1
   5              		.eabi_attribute 21, 1
   6              		.eabi_attribute 23, 3
   7              		.eabi_attribute 24, 1
   8              		.eabi_attribute 25, 1
   9              		.eabi_attribute 26, 1
  10              		.eabi_attribute 30, 6
  11              		.eabi_attribute 34, 0
  12              		.eabi_attribute 18, 4
  13              		.thumb
  14              		.syntax unified
  15              		.file	"cy_trigmux.c"
  16              		.text
  17              	.Ltext0:
  18              		.cfi_sections	.debug_frame
  19              		.section	.rodata
  20              		.align	2
  21              	.LC0:
  22 0000 47656E65 		.ascii	"Generated_Source\\PSoC6\\pdl\\drivers\\peripheral\\"
  22      72617465 
  22      645F536F 
  22      75726365 
  22      5C50536F 
  23 002e 74726967 		.ascii	"trigmux\\cy_trigmux.c\000"
  23      6D75785C 
  23      63795F74 
  23      7269676D 
  23      75782E63 
  24              		.section	.text.Cy_TrigMux_Connect,"ax",%progbits
  25              		.align	2
  26              		.global	Cy_TrigMux_Connect
  27              		.code	16
  28              		.thumb_func
  29              		.type	Cy_TrigMux_Connect, %function
  30              	Cy_TrigMux_Connect:
  31              	.LFB36:
  32              		.file 1 "Generated_Source\\PSoC6\\pdl\\drivers\\peripheral\\trigmux\\cy_trigmux.c"
   1:Generated_Source\PSoC6\pdl\drivers\peripheral\trigmux/cy_trigmux.c **** /***************************************************************************//**
   2:Generated_Source\PSoC6\pdl\drivers\peripheral\trigmux/cy_trigmux.c **** * \file cy_trigmux.c
   3:Generated_Source\PSoC6\pdl\drivers\peripheral\trigmux/cy_trigmux.c **** * \version 1.10.1
   4:Generated_Source\PSoC6\pdl\drivers\peripheral\trigmux/cy_trigmux.c **** *
   5:Generated_Source\PSoC6\pdl\drivers\peripheral\trigmux/cy_trigmux.c **** * \brief Trigger mux APIs.
   6:Generated_Source\PSoC6\pdl\drivers\peripheral\trigmux/cy_trigmux.c **** *
   7:Generated_Source\PSoC6\pdl\drivers\peripheral\trigmux/cy_trigmux.c **** ********************************************************************************
   8:Generated_Source\PSoC6\pdl\drivers\peripheral\trigmux/cy_trigmux.c **** * \copyright
   9:Generated_Source\PSoC6\pdl\drivers\peripheral\trigmux/cy_trigmux.c **** * Copyright 2016-2018, Cypress Semiconductor Corporation.  All rights reserved.
  10:Generated_Source\PSoC6\pdl\drivers\peripheral\trigmux/cy_trigmux.c **** * You may use this file only in accordance with the license, terms, conditions,
  11:Generated_Source\PSoC6\pdl\drivers\peripheral\trigmux/cy_trigmux.c **** * disclaimers, and limitations in the end user license agreement accompanying
  12:Generated_Source\PSoC6\pdl\drivers\peripheral\trigmux/cy_trigmux.c **** * the software package with which this file was provided.
  13:Generated_Source\PSoC6\pdl\drivers\peripheral\trigmux/cy_trigmux.c **** *******************************************************************************/
  14:Generated_Source\PSoC6\pdl\drivers\peripheral\trigmux/cy_trigmux.c **** #include "cy_trigmux.h"
  15:Generated_Source\PSoC6\pdl\drivers\peripheral\trigmux/cy_trigmux.c **** 
  16:Generated_Source\PSoC6\pdl\drivers\peripheral\trigmux/cy_trigmux.c **** 
  17:Generated_Source\PSoC6\pdl\drivers\peripheral\trigmux/cy_trigmux.c **** /*******************************************************************************
ARM GAS  C:\Users\salaz\AppData\Local\Temp\ccgho4Px.s 			page 2


  18:Generated_Source\PSoC6\pdl\drivers\peripheral\trigmux/cy_trigmux.c **** * Function Name: Cy_TrigMux_Connect
  19:Generated_Source\PSoC6\pdl\drivers\peripheral\trigmux/cy_trigmux.c **** ****************************************************************************//**
  20:Generated_Source\PSoC6\pdl\drivers\peripheral\trigmux/cy_trigmux.c **** *
  21:Generated_Source\PSoC6\pdl\drivers\peripheral\trigmux/cy_trigmux.c **** * This function connects an input trigger source and output trigger.
  22:Generated_Source\PSoC6\pdl\drivers\peripheral\trigmux/cy_trigmux.c **** *
  23:Generated_Source\PSoC6\pdl\drivers\peripheral\trigmux/cy_trigmux.c **** * \param inTrig
  24:Generated_Source\PSoC6\pdl\drivers\peripheral\trigmux/cy_trigmux.c **** * An input selection for the trigger mux.
  25:Generated_Source\PSoC6\pdl\drivers\peripheral\trigmux/cy_trigmux.c **** * - Bits 11:8 represent the trigger group selection.
  26:Generated_Source\PSoC6\pdl\drivers\peripheral\trigmux/cy_trigmux.c **** * - Bits 6:0 select the input trigger number in the trigger group.
  27:Generated_Source\PSoC6\pdl\drivers\peripheral\trigmux/cy_trigmux.c **** *
  28:Generated_Source\PSoC6\pdl\drivers\peripheral\trigmux/cy_trigmux.c **** * \param outTrig
  29:Generated_Source\PSoC6\pdl\drivers\peripheral\trigmux/cy_trigmux.c **** * The output of the trigger mux. This refers to the consumer of the trigger mux. 
  30:Generated_Source\PSoC6\pdl\drivers\peripheral\trigmux/cy_trigmux.c **** * - Bits 11:8 represent the trigger group selection.
  31:Generated_Source\PSoC6\pdl\drivers\peripheral\trigmux/cy_trigmux.c **** * - Bits 6:0 select the output trigger number in the trigger group.
  32:Generated_Source\PSoC6\pdl\drivers\peripheral\trigmux/cy_trigmux.c **** *
  33:Generated_Source\PSoC6\pdl\drivers\peripheral\trigmux/cy_trigmux.c **** * \param invert
  34:Generated_Source\PSoC6\pdl\drivers\peripheral\trigmux/cy_trigmux.c **** * - true: The output trigger is inverted.
  35:Generated_Source\PSoC6\pdl\drivers\peripheral\trigmux/cy_trigmux.c **** * - false: The output trigger is not inverted.
  36:Generated_Source\PSoC6\pdl\drivers\peripheral\trigmux/cy_trigmux.c **** *
  37:Generated_Source\PSoC6\pdl\drivers\peripheral\trigmux/cy_trigmux.c **** * \param trigType
  38:Generated_Source\PSoC6\pdl\drivers\peripheral\trigmux/cy_trigmux.c **** * - TRIGGER_TYPE_EDGE: The trigger is synchronized to the consumer blocks clock
  39:Generated_Source\PSoC6\pdl\drivers\peripheral\trigmux/cy_trigmux.c **** *   and a two-cycle pulse is generated on this clock.
  40:Generated_Source\PSoC6\pdl\drivers\peripheral\trigmux/cy_trigmux.c **** * - TRIGGER_TYPE_LEVEL: The trigger is a simple level output.
  41:Generated_Source\PSoC6\pdl\drivers\peripheral\trigmux/cy_trigmux.c **** *
  42:Generated_Source\PSoC6\pdl\drivers\peripheral\trigmux/cy_trigmux.c **** * \return
  43:Generated_Source\PSoC6\pdl\drivers\peripheral\trigmux/cy_trigmux.c **** * A status
  44:Generated_Source\PSoC6\pdl\drivers\peripheral\trigmux/cy_trigmux.c **** * - 0: Successful connection made.
  45:Generated_Source\PSoC6\pdl\drivers\peripheral\trigmux/cy_trigmux.c **** * - 1: An invalid input selection corresponding to the output. 
  46:Generated_Source\PSoC6\pdl\drivers\peripheral\trigmux/cy_trigmux.c **** *      Generally when the trigger groups do not match.
  47:Generated_Source\PSoC6\pdl\drivers\peripheral\trigmux/cy_trigmux.c **** *  
  48:Generated_Source\PSoC6\pdl\drivers\peripheral\trigmux/cy_trigmux.c **** *******************************************************************************/
  49:Generated_Source\PSoC6\pdl\drivers\peripheral\trigmux/cy_trigmux.c **** cy_en_trigmux_status_t Cy_TrigMux_Connect(uint32_t inTrig, uint32_t outTrig, bool invert, en_trig_t
  50:Generated_Source\PSoC6\pdl\drivers\peripheral\trigmux/cy_trigmux.c **** {
  33              		.loc 1 50 0
  34              		.cfi_startproc
  35              		@ args = 0, pretend = 0, frame = 24
  36              		@ frame_needed = 1, uses_anonymous_args = 0
  37 0000 80B5     		push	{r7, lr}
  38              		.cfi_def_cfa_offset 8
  39              		.cfi_offset 7, -8
  40              		.cfi_offset 14, -4
  41 0002 86B0     		sub	sp, sp, #24
  42              		.cfi_def_cfa_offset 32
  43 0004 00AF     		add	r7, sp, #0
  44              		.cfi_def_cfa_register 7
  45 0006 F860     		str	r0, [r7, #12]
  46 0008 B960     		str	r1, [r7, #8]
  47 000a 1900     		movs	r1, r3
  48 000c FB1D     		adds	r3, r7, #7
  49 000e 1A70     		strb	r2, [r3]
  50 0010 BB1D     		adds	r3, r7, #6
  51 0012 0A1C     		adds	r2, r1, #0
  52 0014 1A70     		strb	r2, [r3]
  51:Generated_Source\PSoC6\pdl\drivers\peripheral\trigmux/cy_trigmux.c ****     volatile uint32_t* trOutCtlAddr;
  52:Generated_Source\PSoC6\pdl\drivers\peripheral\trigmux/cy_trigmux.c ****     cy_en_trigmux_status_t retVal = CY_TRIGMUX_BAD_PARAM;
  53              		.loc 1 52 0
  54 0016 204B     		ldr	r3, .L7
ARM GAS  C:\Users\salaz\AppData\Local\Temp\ccgho4Px.s 			page 3


  55 0018 7B61     		str	r3, [r7, #20]
  53:Generated_Source\PSoC6\pdl\drivers\peripheral\trigmux/cy_trigmux.c **** 
  54:Generated_Source\PSoC6\pdl\drivers\peripheral\trigmux/cy_trigmux.c ****     CY_ASSERT_L3(CY_TRIGMUX_IS_TRIGTYPE_VALID(trigType));
  56              		.loc 1 54 0
  57 001a BB1D     		adds	r3, r7, #6
  58 001c 1B78     		ldrb	r3, [r3]
  59 001e 012B     		cmp	r3, #1
  60 0020 08D0     		beq	.L2
  61              		.loc 1 54 0 is_stmt 0 discriminator 1
  62 0022 BB1D     		adds	r3, r7, #6
  63 0024 1B78     		ldrb	r3, [r3]
  64 0026 002B     		cmp	r3, #0
  65 0028 04D0     		beq	.L2
  66              		.loc 1 54 0 discriminator 2
  67 002a 1C4B     		ldr	r3, .L7+4
  68 002c 3621     		movs	r1, #54
  69 002e 1800     		movs	r0, r3
  70 0030 FFF7FEFF 		bl	Cy_SysLib_AssertFailed
  71              	.L2:
  55:Generated_Source\PSoC6\pdl\drivers\peripheral\trigmux/cy_trigmux.c ****     
  56:Generated_Source\PSoC6\pdl\drivers\peripheral\trigmux/cy_trigmux.c ****     /* inTrig and outTrig should be in the same group */
  57:Generated_Source\PSoC6\pdl\drivers\peripheral\trigmux/cy_trigmux.c ****     if ((inTrig & CY_TR_GROUP_MASK) == (outTrig & CY_TR_GROUP_MASK))
  72              		.loc 1 57 0 is_stmt 1
  73 0034 FA68     		ldr	r2, [r7, #12]
  74 0036 BB68     		ldr	r3, [r7, #8]
  75 0038 5A40     		eors	r2, r3
  76 003a F023     		movs	r3, #240
  77 003c 1B01     		lsls	r3, r3, #4
  78 003e 1340     		ands	r3, r2
  79 0040 24D1     		bne	.L3
  58:Generated_Source\PSoC6\pdl\drivers\peripheral\trigmux/cy_trigmux.c ****     {
  59:Generated_Source\PSoC6\pdl\drivers\peripheral\trigmux/cy_trigmux.c ****         trOutCtlAddr = &(PERI->TR_GR[(outTrig & CY_TR_GROUP_MASK) >> CY_TR_GROUP_SHIFT].TR_OUT_CTL[
  80              		.loc 1 59 0
  81 0042 BB68     		ldr	r3, [r7, #8]
  82 0044 1B0A     		lsrs	r3, r3, #8
  83 0046 0F22     		movs	r2, #15
  84 0048 1340     		ands	r3, r2
  85 004a DA01     		lsls	r2, r3, #7
  86 004c BB68     		ldr	r3, [r7, #8]
  87 004e 7F21     		movs	r1, #127
  88 0050 0B40     		ands	r3, r1
  89 0052 D318     		adds	r3, r2, r3
  90 0054 9B00     		lsls	r3, r3, #2
  91 0056 124A     		ldr	r2, .L7+8
  92 0058 9446     		mov	ip, r2
  93 005a 6344     		add	r3, r3, ip
  94 005c 3B61     		str	r3, [r7, #16]
  60:Generated_Source\PSoC6\pdl\drivers\peripheral\trigmux/cy_trigmux.c **** 
  61:Generated_Source\PSoC6\pdl\drivers\peripheral\trigmux/cy_trigmux.c ****         *trOutCtlAddr = _VAL2FLD(PERI_TR_GR_TR_OUT_CTL_TR_SEL, inTrig) |
  95              		.loc 1 61 0
  96 005e FB68     		ldr	r3, [r7, #12]
  97 0060 FF22     		movs	r2, #255
  98 0062 1A40     		ands	r2, r3
  62:Generated_Source\PSoC6\pdl\drivers\peripheral\trigmux/cy_trigmux.c ****         _BOOL2FLD(PERI_TR_GR_TR_OUT_CTL_TR_INV, invert) |
  99              		.loc 1 62 0
 100 0064 FB1D     		adds	r3, r7, #7
 101 0066 1B78     		ldrb	r3, [r3]
ARM GAS  C:\Users\salaz\AppData\Local\Temp\ccgho4Px.s 			page 4


 102 0068 002B     		cmp	r3, #0
 103 006a 02D0     		beq	.L4
 104              		.loc 1 62 0 is_stmt 0 discriminator 1
 105 006c 8023     		movs	r3, #128
 106 006e 5B00     		lsls	r3, r3, #1
 107 0070 00E0     		b	.L5
 108              	.L4:
 109              		.loc 1 62 0 discriminator 2
 110 0072 0023     		movs	r3, #0
 111              	.L5:
  61:Generated_Source\PSoC6\pdl\drivers\peripheral\trigmux/cy_trigmux.c ****         _BOOL2FLD(PERI_TR_GR_TR_OUT_CTL_TR_INV, invert) |
 112              		.loc 1 61 0 is_stmt 1
 113 0074 1A43     		orrs	r2, r3
  63:Generated_Source\PSoC6\pdl\drivers\peripheral\trigmux/cy_trigmux.c ****         _VAL2FLD(PERI_TR_GR_TR_OUT_CTL_TR_EDGE, trigType);
 114              		.loc 1 63 0
 115 0076 BB1D     		adds	r3, r7, #6
 116 0078 1B78     		ldrb	r3, [r3]
 117 007a 5902     		lsls	r1, r3, #9
 118 007c 8023     		movs	r3, #128
 119 007e 9B00     		lsls	r3, r3, #2
 120 0080 0B40     		ands	r3, r1
  62:Generated_Source\PSoC6\pdl\drivers\peripheral\trigmux/cy_trigmux.c ****         _BOOL2FLD(PERI_TR_GR_TR_OUT_CTL_TR_INV, invert) |
 121              		.loc 1 62 0
 122 0082 1A43     		orrs	r2, r3
  61:Generated_Source\PSoC6\pdl\drivers\peripheral\trigmux/cy_trigmux.c ****         _BOOL2FLD(PERI_TR_GR_TR_OUT_CTL_TR_INV, invert) |
 123              		.loc 1 61 0
 124 0084 3B69     		ldr	r3, [r7, #16]
 125 0086 1A60     		str	r2, [r3]
  64:Generated_Source\PSoC6\pdl\drivers\peripheral\trigmux/cy_trigmux.c ****         
  65:Generated_Source\PSoC6\pdl\drivers\peripheral\trigmux/cy_trigmux.c ****         retVal = CY_TRIGMUX_SUCCESS;
 126              		.loc 1 65 0
 127 0088 0023     		movs	r3, #0
 128 008a 7B61     		str	r3, [r7, #20]
 129              	.L3:
  66:Generated_Source\PSoC6\pdl\drivers\peripheral\trigmux/cy_trigmux.c ****     }
  67:Generated_Source\PSoC6\pdl\drivers\peripheral\trigmux/cy_trigmux.c **** 
  68:Generated_Source\PSoC6\pdl\drivers\peripheral\trigmux/cy_trigmux.c ****     return retVal;
 130              		.loc 1 68 0
 131 008c 7B69     		ldr	r3, [r7, #20]
  69:Generated_Source\PSoC6\pdl\drivers\peripheral\trigmux/cy_trigmux.c **** }
 132              		.loc 1 69 0
 133 008e 1800     		movs	r0, r3
 134 0090 BD46     		mov	sp, r7
 135 0092 06B0     		add	sp, sp, #24
 136              		@ sp needed
 137 0094 80BD     		pop	{r7, pc}
 138              	.L8:
 139 0096 C046     		.align	2
 140              	.L7:
 141 0098 0100CE00 		.word	13500417
 142 009c 00000000 		.word	.LC0
 143 00a0 00200140 		.word	1073815552
 144              		.cfi_endproc
 145              	.LFE36:
 146              		.size	Cy_TrigMux_Connect, .-Cy_TrigMux_Connect
 147              		.section	.text.Cy_TrigMux_SwTrigger,"ax",%progbits
 148              		.align	2
ARM GAS  C:\Users\salaz\AppData\Local\Temp\ccgho4Px.s 			page 5


 149              		.global	Cy_TrigMux_SwTrigger
 150              		.code	16
 151              		.thumb_func
 152              		.type	Cy_TrigMux_SwTrigger, %function
 153              	Cy_TrigMux_SwTrigger:
 154              	.LFB37:
  70:Generated_Source\PSoC6\pdl\drivers\peripheral\trigmux/cy_trigmux.c **** 
  71:Generated_Source\PSoC6\pdl\drivers\peripheral\trigmux/cy_trigmux.c **** 
  72:Generated_Source\PSoC6\pdl\drivers\peripheral\trigmux/cy_trigmux.c **** /*******************************************************************************
  73:Generated_Source\PSoC6\pdl\drivers\peripheral\trigmux/cy_trigmux.c **** * Function Name: Cy_TrigMux_SwTrigger
  74:Generated_Source\PSoC6\pdl\drivers\peripheral\trigmux/cy_trigmux.c **** ****************************************************************************//**
  75:Generated_Source\PSoC6\pdl\drivers\peripheral\trigmux/cy_trigmux.c **** *
  76:Generated_Source\PSoC6\pdl\drivers\peripheral\trigmux/cy_trigmux.c **** * This function generates a software trigger on an input trigger line. 
  77:Generated_Source\PSoC6\pdl\drivers\peripheral\trigmux/cy_trigmux.c **** * All output triggers connected to this input trigger will be triggered. 
  78:Generated_Source\PSoC6\pdl\drivers\peripheral\trigmux/cy_trigmux.c **** * The function also verifies that there is no activated trigger before 
  79:Generated_Source\PSoC6\pdl\drivers\peripheral\trigmux/cy_trigmux.c **** * generating another activation. 
  80:Generated_Source\PSoC6\pdl\drivers\peripheral\trigmux/cy_trigmux.c **** *
  81:Generated_Source\PSoC6\pdl\drivers\peripheral\trigmux/cy_trigmux.c **** * \param trigLine
  82:Generated_Source\PSoC6\pdl\drivers\peripheral\trigmux/cy_trigmux.c **** * The input of the trigger mux.
  83:Generated_Source\PSoC6\pdl\drivers\peripheral\trigmux/cy_trigmux.c **** * - Bit 30 represents if the signal is an input/output. When this bit is set, 
  84:Generated_Source\PSoC6\pdl\drivers\peripheral\trigmux/cy_trigmux.c **** *   the trigger activation is for an output trigger from the trigger multiplexer.
  85:Generated_Source\PSoC6\pdl\drivers\peripheral\trigmux/cy_trigmux.c **** *   When this bit is reset, the trigger activation is for an input trigger to 
  86:Generated_Source\PSoC6\pdl\drivers\peripheral\trigmux/cy_trigmux.c **** *   the trigger multiplexer. 
  87:Generated_Source\PSoC6\pdl\drivers\peripheral\trigmux/cy_trigmux.c **** * - Bits 11:8 represent the trigger group selection.
  88:Generated_Source\PSoC6\pdl\drivers\peripheral\trigmux/cy_trigmux.c **** * - Bits 6:0 select the output trigger number in the trigger group.
  89:Generated_Source\PSoC6\pdl\drivers\peripheral\trigmux/cy_trigmux.c **** *
  90:Generated_Source\PSoC6\pdl\drivers\peripheral\trigmux/cy_trigmux.c **** * \param cycles
  91:Generated_Source\PSoC6\pdl\drivers\peripheral\trigmux/cy_trigmux.c **** * The number of cycles during which the trigger remains activated.
  92:Generated_Source\PSoC6\pdl\drivers\peripheral\trigmux/cy_trigmux.c **** * The valid range of cycles is 1-254. 
  93:Generated_Source\PSoC6\pdl\drivers\peripheral\trigmux/cy_trigmux.c **** * These two additional special values can be passed to this parameter:
  94:Generated_Source\PSoC6\pdl\drivers\peripheral\trigmux/cy_trigmux.c **** * * CY_TRIGGER_INFINITE - The trigger will be active until the user 
  95:Generated_Source\PSoC6\pdl\drivers\peripheral\trigmux/cy_trigmux.c **** * clears it;
  96:Generated_Source\PSoC6\pdl\drivers\peripheral\trigmux/cy_trigmux.c **** * * CY_TRIGGER_DEACTIVATE - The trigger will be deactivated forcibly.
  97:Generated_Source\PSoC6\pdl\drivers\peripheral\trigmux/cy_trigmux.c **** * 
  98:Generated_Source\PSoC6\pdl\drivers\peripheral\trigmux/cy_trigmux.c **** * \return
  99:Generated_Source\PSoC6\pdl\drivers\peripheral\trigmux/cy_trigmux.c **** * A status
 100:Generated_Source\PSoC6\pdl\drivers\peripheral\trigmux/cy_trigmux.c **** * - 0: If there was not an already activated trigger.
 101:Generated_Source\PSoC6\pdl\drivers\peripheral\trigmux/cy_trigmux.c **** * - 1: If there was an already activated trigger.
 102:Generated_Source\PSoC6\pdl\drivers\peripheral\trigmux/cy_trigmux.c **** *
 103:Generated_Source\PSoC6\pdl\drivers\peripheral\trigmux/cy_trigmux.c **** *******************************************************************************/
 104:Generated_Source\PSoC6\pdl\drivers\peripheral\trigmux/cy_trigmux.c **** cy_en_trigmux_status_t Cy_TrigMux_SwTrigger(uint32_t trigLine, uint32_t cycles)
 105:Generated_Source\PSoC6\pdl\drivers\peripheral\trigmux/cy_trigmux.c **** {
 155              		.loc 1 105 0
 156              		.cfi_startproc
 157              		@ args = 0, pretend = 0, frame = 16
 158              		@ frame_needed = 1, uses_anonymous_args = 0
 159 0000 80B5     		push	{r7, lr}
 160              		.cfi_def_cfa_offset 8
 161              		.cfi_offset 7, -8
 162              		.cfi_offset 14, -4
 163 0002 84B0     		sub	sp, sp, #16
 164              		.cfi_def_cfa_offset 24
 165 0004 00AF     		add	r7, sp, #0
 166              		.cfi_def_cfa_register 7
 167 0006 7860     		str	r0, [r7, #4]
 168 0008 3960     		str	r1, [r7]
 106:Generated_Source\PSoC6\pdl\drivers\peripheral\trigmux/cy_trigmux.c ****     cy_en_trigmux_status_t retVal = CY_TRIGMUX_INVALID_STATE;
ARM GAS  C:\Users\salaz\AppData\Local\Temp\ccgho4Px.s 			page 6


 169              		.loc 1 106 0
 170 000a 244B     		ldr	r3, .L16
 171 000c FB60     		str	r3, [r7, #12]
 107:Generated_Source\PSoC6\pdl\drivers\peripheral\trigmux/cy_trigmux.c **** 
 108:Generated_Source\PSoC6\pdl\drivers\peripheral\trigmux/cy_trigmux.c ****     CY_ASSERT_L2(0U == (trigLine & (uint32_t)~CY_TR_PARAM_MASK));
 172              		.loc 1 108 0
 173 000e 7B68     		ldr	r3, [r7, #4]
 174 0010 234A     		ldr	r2, .L16+4
 175 0012 1340     		ands	r3, r2
 176 0014 04D0     		beq	.L10
 177              		.loc 1 108 0 is_stmt 0 discriminator 1
 178 0016 234B     		ldr	r3, .L16+8
 179 0018 6C21     		movs	r1, #108
 180 001a 1800     		movs	r0, r3
 181 001c FFF7FEFF 		bl	Cy_SysLib_AssertFailed
 182              	.L10:
 109:Generated_Source\PSoC6\pdl\drivers\peripheral\trigmux/cy_trigmux.c ****     CY_ASSERT_L2(CY_TR_CYCLES_MAX >= cycles);
 183              		.loc 1 109 0 is_stmt 1
 184 0020 3B68     		ldr	r3, [r7]
 185 0022 FF2B     		cmp	r3, #255
 186 0024 04D9     		bls	.L11
 187              		.loc 1 109 0 is_stmt 0 discriminator 1
 188 0026 1F4B     		ldr	r3, .L16+8
 189 0028 6D21     		movs	r1, #109
 190 002a 1800     		movs	r0, r3
 191 002c FFF7FEFF 		bl	Cy_SysLib_AssertFailed
 192              	.L11:
 110:Generated_Source\PSoC6\pdl\drivers\peripheral\trigmux/cy_trigmux.c ****  
 111:Generated_Source\PSoC6\pdl\drivers\peripheral\trigmux/cy_trigmux.c **** 
 112:Generated_Source\PSoC6\pdl\drivers\peripheral\trigmux/cy_trigmux.c ****     if (CY_TRIGGER_DEACTIVATE != cycles)
 193              		.loc 1 112 0 is_stmt 1
 194 0030 3B68     		ldr	r3, [r7]
 195 0032 002B     		cmp	r3, #0
 196 0034 1DD0     		beq	.L12
 113:Generated_Source\PSoC6\pdl\drivers\peripheral\trigmux/cy_trigmux.c ****     {
 114:Generated_Source\PSoC6\pdl\drivers\peripheral\trigmux/cy_trigmux.c ****         if (PERI_TR_CMD_ACTIVATE_Msk != (PERI->TR_CMD & PERI_TR_CMD_ACTIVATE_Msk))
 197              		.loc 1 114 0
 198 0036 1C4A     		ldr	r2, .L16+12
 199 0038 8023     		movs	r3, #128
 200 003a 5B01     		lsls	r3, r3, #5
 201 003c D358     		ldr	r3, [r2, r3]
 202 003e 002B     		cmp	r3, #0
 203 0040 26DB     		blt	.L14
 115:Generated_Source\PSoC6\pdl\drivers\peripheral\trigmux/cy_trigmux.c ****         {
 116:Generated_Source\PSoC6\pdl\drivers\peripheral\trigmux/cy_trigmux.c ****             /* Activate the trigger if it is not in the active state. */
 117:Generated_Source\PSoC6\pdl\drivers\peripheral\trigmux/cy_trigmux.c ****             PERI->TR_CMD = _VAL2FLD(PERI_TR_CMD_TR_SEL, (trigLine & CY_TR_MASK)) |
 204              		.loc 1 117 0
 205 0042 1948     		ldr	r0, .L16+12
 206 0044 7B68     		ldr	r3, [r7, #4]
 207 0046 194A     		ldr	r2, .L16+16
 208 0048 1A40     		ands	r2, r3
 118:Generated_Source\PSoC6\pdl\drivers\peripheral\trigmux/cy_trigmux.c ****                 _VAL2FLD(PERI_TR_CMD_GROUP_SEL, ((trigLine & CY_TR_GROUP_MASK) >> CY_TR_GROUP_SHIFT
 119:Generated_Source\PSoC6\pdl\drivers\peripheral\trigmux/cy_trigmux.c ****                 _VAL2FLD(PERI_TR_CMD_COUNT, cycles) |
 209              		.loc 1 119 0
 210 004a 3B68     		ldr	r3, [r7]
 211 004c 1904     		lsls	r1, r3, #16
 212 004e FF23     		movs	r3, #255
ARM GAS  C:\Users\salaz\AppData\Local\Temp\ccgho4Px.s 			page 7


 213 0050 1B04     		lsls	r3, r3, #16
 214 0052 0B40     		ands	r3, r1
 118:Generated_Source\PSoC6\pdl\drivers\peripheral\trigmux/cy_trigmux.c ****                 _VAL2FLD(PERI_TR_CMD_GROUP_SEL, ((trigLine & CY_TR_GROUP_MASK) >> CY_TR_GROUP_SHIFT
 215              		.loc 1 118 0
 216 0054 1A43     		orrs	r2, r3
 120:Generated_Source\PSoC6\pdl\drivers\peripheral\trigmux/cy_trigmux.c ****                 _VAL2FLD(PERI_TR_CMD_OUT_SEL, (trigLine & CY_TR_OUT_CTL_MASK) >> CY_TR_OUT_CTL_SHIF
 217              		.loc 1 120 0
 218 0056 7968     		ldr	r1, [r7, #4]
 219 0058 8023     		movs	r3, #128
 220 005a DB05     		lsls	r3, r3, #23
 221 005c 0B40     		ands	r3, r1
 119:Generated_Source\PSoC6\pdl\drivers\peripheral\trigmux/cy_trigmux.c ****                 _VAL2FLD(PERI_TR_CMD_OUT_SEL, (trigLine & CY_TR_OUT_CTL_MASK) >> CY_TR_OUT_CTL_SHIF
 222              		.loc 1 119 0
 223 005e 1343     		orrs	r3, r2
 224              		.loc 1 120 0
 225 0060 8022     		movs	r2, #128
 226 0062 1206     		lsls	r2, r2, #24
 227 0064 1A43     		orrs	r2, r3
 117:Generated_Source\PSoC6\pdl\drivers\peripheral\trigmux/cy_trigmux.c ****                 _VAL2FLD(PERI_TR_CMD_GROUP_SEL, ((trigLine & CY_TR_GROUP_MASK) >> CY_TR_GROUP_SHIFT
 228              		.loc 1 117 0
 229 0066 8023     		movs	r3, #128
 230 0068 5B01     		lsls	r3, r3, #5
 231 006a C250     		str	r2, [r0, r3]
 121:Generated_Source\PSoC6\pdl\drivers\peripheral\trigmux/cy_trigmux.c ****                 _VAL2FLD(PERI_TR_CMD_ACTIVATE, CY_TR_ACTIVATE_ENABLE);
 122:Generated_Source\PSoC6\pdl\drivers\peripheral\trigmux/cy_trigmux.c ****                 
 123:Generated_Source\PSoC6\pdl\drivers\peripheral\trigmux/cy_trigmux.c ****             retVal = CY_TRIGMUX_SUCCESS;
 232              		.loc 1 123 0
 233 006c 0023     		movs	r3, #0
 234 006e FB60     		str	r3, [r7, #12]
 235 0070 0EE0     		b	.L14
 236              	.L12:
 124:Generated_Source\PSoC6\pdl\drivers\peripheral\trigmux/cy_trigmux.c ****         }
 125:Generated_Source\PSoC6\pdl\drivers\peripheral\trigmux/cy_trigmux.c ****     }
 126:Generated_Source\PSoC6\pdl\drivers\peripheral\trigmux/cy_trigmux.c ****     else
 127:Generated_Source\PSoC6\pdl\drivers\peripheral\trigmux/cy_trigmux.c ****     {
 128:Generated_Source\PSoC6\pdl\drivers\peripheral\trigmux/cy_trigmux.c ****         if (PERI_TR_CMD_ACTIVATE_Msk == (PERI->TR_CMD & PERI_TR_CMD_ACTIVATE_Msk))
 237              		.loc 1 128 0
 238 0072 0D4A     		ldr	r2, .L16+12
 239 0074 8023     		movs	r3, #128
 240 0076 5B01     		lsls	r3, r3, #5
 241 0078 D358     		ldr	r3, [r2, r3]
 242 007a 002B     		cmp	r3, #0
 243 007c 08DA     		bge	.L14
 129:Generated_Source\PSoC6\pdl\drivers\peripheral\trigmux/cy_trigmux.c ****         {
 130:Generated_Source\PSoC6\pdl\drivers\peripheral\trigmux/cy_trigmux.c ****             /* Forcibly deactivate the trigger. */
 131:Generated_Source\PSoC6\pdl\drivers\peripheral\trigmux/cy_trigmux.c ****             PERI->TR_CMD = _VAL2FLD(PERI_TR_CMD_TR_SEL, (trigLine & CY_TR_MASK)) |
 244              		.loc 1 131 0
 245 007e 0A49     		ldr	r1, .L16+12
 132:Generated_Source\PSoC6\pdl\drivers\peripheral\trigmux/cy_trigmux.c ****                 _VAL2FLD(PERI_TR_CMD_GROUP_SEL, ((trigLine & CY_TR_GROUP_MASK) >> CY_TR_GROUP_SHIFT
 246              		.loc 1 132 0
 247 0080 7B68     		ldr	r3, [r7, #4]
 248 0082 0B4A     		ldr	r2, .L16+20
 249 0084 1A40     		ands	r2, r3
 131:Generated_Source\PSoC6\pdl\drivers\peripheral\trigmux/cy_trigmux.c ****                 _VAL2FLD(PERI_TR_CMD_GROUP_SEL, ((trigLine & CY_TR_GROUP_MASK) >> CY_TR_GROUP_SHIFT
 250              		.loc 1 131 0
 251 0086 8023     		movs	r3, #128
 252 0088 5B01     		lsls	r3, r3, #5
ARM GAS  C:\Users\salaz\AppData\Local\Temp\ccgho4Px.s 			page 8


 253 008a CA50     		str	r2, [r1, r3]
 133:Generated_Source\PSoC6\pdl\drivers\peripheral\trigmux/cy_trigmux.c ****                 _VAL2FLD(PERI_TR_CMD_OUT_SEL, (trigLine & CY_TR_OUT_CTL_MASK) >> CY_TR_OUT_CTL_SHIF
 134:Generated_Source\PSoC6\pdl\drivers\peripheral\trigmux/cy_trigmux.c ****                 
 135:Generated_Source\PSoC6\pdl\drivers\peripheral\trigmux/cy_trigmux.c ****             retVal = CY_TRIGMUX_SUCCESS;
 254              		.loc 1 135 0
 255 008c 0023     		movs	r3, #0
 256 008e FB60     		str	r3, [r7, #12]
 257              	.L14:
 136:Generated_Source\PSoC6\pdl\drivers\peripheral\trigmux/cy_trigmux.c ****         }         
 137:Generated_Source\PSoC6\pdl\drivers\peripheral\trigmux/cy_trigmux.c ****     }
 138:Generated_Source\PSoC6\pdl\drivers\peripheral\trigmux/cy_trigmux.c ****     
 139:Generated_Source\PSoC6\pdl\drivers\peripheral\trigmux/cy_trigmux.c ****     return retVal;
 258              		.loc 1 139 0
 259 0090 FB68     		ldr	r3, [r7, #12]
 140:Generated_Source\PSoC6\pdl\drivers\peripheral\trigmux/cy_trigmux.c **** }
 260              		.loc 1 140 0
 261 0092 1800     		movs	r0, r3
 262 0094 BD46     		mov	sp, r7
 263 0096 04B0     		add	sp, sp, #16
 264              		@ sp needed
 265 0098 80BD     		pop	{r7, pc}
 266              	.L17:
 267 009a C046     		.align	2
 268              	.L16:
 269 009c 0200CE00 		.word	13500418
 270 00a0 80F0FFBF 		.word	-1073745792
 271 00a4 00000000 		.word	.LC0
 272 00a8 00000140 		.word	1073807360
 273 00ac 7F0F0000 		.word	3967
 274 00b0 7F0F0040 		.word	1073745791
 275              		.cfi_endproc
 276              	.LFE37:
 277              		.size	Cy_TrigMux_SwTrigger, .-Cy_TrigMux_SwTrigger
 278              		.text
 279              	.Letext0:
 280              		.file 2 "c:\\program files (x86)\\cypress\\psoc creator\\4.2\\psoc creator\\import\\gnu\\arm\\5.4.
 281              		.file 3 "c:\\program files (x86)\\cypress\\psoc creator\\4.2\\psoc creator\\import\\gnu\\arm\\5.4.
 282              		.file 4 "Generated_Source\\PSoC6\\pdl\\devices/psoc6/psoc63/include/psoc63_config.h"
 283              		.file 5 "Generated_Source\\PSoC6\\pdl\\devices/psoc6/ip/cyip_peri.h"
 284              		.file 6 "Generated_Source\\PSoC6\\pdl\\drivers/peripheral/syslib/cy_syslib.h"
 285              		.file 7 "Generated_Source\\PSoC6\\pdl\\drivers\\peripheral\\trigmux\\cy_trigmux.h"