ARM GAS  C:\Users\salaz\AppData\Local\Temp\ccRE1Zmc.s 			page 1


   1              		.syntax unified
   2              		.cpu cortex-m4
   3              		.eabi_attribute 27, 1
   4              		.fpu fpv4-sp-d16
   5              		.eabi_attribute 20, 1
   6              		.eabi_attribute 21, 1
   7              		.eabi_attribute 23, 3
   8              		.eabi_attribute 24, 1
   9              		.eabi_attribute 25, 1
  10              		.eabi_attribute 26, 1
  11              		.eabi_attribute 30, 1
  12              		.eabi_attribute 34, 1
  13              		.eabi_attribute 18, 4
  14              		.thumb
  15              		.syntax unified
  16              		.file	"cy_mcwdt.c"
  17              		.text
  18              	.Ltext0:
  19              		.cfi_sections	.debug_frame
  20              		.section	.text.Cy_MCWDT_Init,"ax",%progbits
  21              		.align	2
  22              		.global	Cy_MCWDT_Init
  23              		.thumb
  24              		.thumb_func
  25              		.type	Cy_MCWDT_Init, %function
  26              	Cy_MCWDT_Init:
  27              	.LFB149:
  28              		.file 1 "Generated_Source\\PSoC6\\pdl\\drivers\\peripheral\\mcwdt\\cy_mcwdt.c"
   1:Generated_Source\PSoC6\pdl\drivers\peripheral\mcwdt/cy_mcwdt.c **** /***************************************************************************//**
   2:Generated_Source\PSoC6\pdl\drivers\peripheral\mcwdt/cy_mcwdt.c **** * \file cy_mcwdt.c
   3:Generated_Source\PSoC6\pdl\drivers\peripheral\mcwdt/cy_mcwdt.c **** * \version 1.10.1
   4:Generated_Source\PSoC6\pdl\drivers\peripheral\mcwdt/cy_mcwdt.c **** *
   5:Generated_Source\PSoC6\pdl\drivers\peripheral\mcwdt/cy_mcwdt.c **** *  Description:
   6:Generated_Source\PSoC6\pdl\drivers\peripheral\mcwdt/cy_mcwdt.c **** *   Provides a system API for the MCWDT driver.
   7:Generated_Source\PSoC6\pdl\drivers\peripheral\mcwdt/cy_mcwdt.c **** *
   8:Generated_Source\PSoC6\pdl\drivers\peripheral\mcwdt/cy_mcwdt.c **** ********************************************************************************
   9:Generated_Source\PSoC6\pdl\drivers\peripheral\mcwdt/cy_mcwdt.c **** * Copyright 2016-2018, Cypress Semiconductor Corporation. All rights reserved.
  10:Generated_Source\PSoC6\pdl\drivers\peripheral\mcwdt/cy_mcwdt.c **** * You may use this file only in accordance with the license, terms, conditions,
  11:Generated_Source\PSoC6\pdl\drivers\peripheral\mcwdt/cy_mcwdt.c **** * disclaimers, and limitations in the end user license agreement accompanying
  12:Generated_Source\PSoC6\pdl\drivers\peripheral\mcwdt/cy_mcwdt.c **** * the software package with which this file was provided.
  13:Generated_Source\PSoC6\pdl\drivers\peripheral\mcwdt/cy_mcwdt.c **** *******************************************************************************/
  14:Generated_Source\PSoC6\pdl\drivers\peripheral\mcwdt/cy_mcwdt.c **** 
  15:Generated_Source\PSoC6\pdl\drivers\peripheral\mcwdt/cy_mcwdt.c **** #include "cy_mcwdt.h"
  16:Generated_Source\PSoC6\pdl\drivers\peripheral\mcwdt/cy_mcwdt.c **** 
  17:Generated_Source\PSoC6\pdl\drivers\peripheral\mcwdt/cy_mcwdt.c **** #if defined(__cplusplus)
  18:Generated_Source\PSoC6\pdl\drivers\peripheral\mcwdt/cy_mcwdt.c **** extern "C" {
  19:Generated_Source\PSoC6\pdl\drivers\peripheral\mcwdt/cy_mcwdt.c **** #endif
  20:Generated_Source\PSoC6\pdl\drivers\peripheral\mcwdt/cy_mcwdt.c **** 
  21:Generated_Source\PSoC6\pdl\drivers\peripheral\mcwdt/cy_mcwdt.c **** /*******************************************************************************
  22:Generated_Source\PSoC6\pdl\drivers\peripheral\mcwdt/cy_mcwdt.c **** * Function Name: Cy_MCWDT_Init
  23:Generated_Source\PSoC6\pdl\drivers\peripheral\mcwdt/cy_mcwdt.c **** ****************************************************************************//**
  24:Generated_Source\PSoC6\pdl\drivers\peripheral\mcwdt/cy_mcwdt.c **** *
  25:Generated_Source\PSoC6\pdl\drivers\peripheral\mcwdt/cy_mcwdt.c **** * Initializes the MCWDT block.
  26:Generated_Source\PSoC6\pdl\drivers\peripheral\mcwdt/cy_mcwdt.c **** *
  27:Generated_Source\PSoC6\pdl\drivers\peripheral\mcwdt/cy_mcwdt.c **** *  \param base
  28:Generated_Source\PSoC6\pdl\drivers\peripheral\mcwdt/cy_mcwdt.c **** *  The base pointer to a structure that describes the registers.
  29:Generated_Source\PSoC6\pdl\drivers\peripheral\mcwdt/cy_mcwdt.c **** *
ARM GAS  C:\Users\salaz\AppData\Local\Temp\ccRE1Zmc.s 			page 2


  30:Generated_Source\PSoC6\pdl\drivers\peripheral\mcwdt/cy_mcwdt.c **** *  \param config
  31:Generated_Source\PSoC6\pdl\drivers\peripheral\mcwdt/cy_mcwdt.c **** *  The pointer to a structure that contains component configuration data.
  32:Generated_Source\PSoC6\pdl\drivers\peripheral\mcwdt/cy_mcwdt.c **** *
  33:Generated_Source\PSoC6\pdl\drivers\peripheral\mcwdt/cy_mcwdt.c **** * \return cy_en_mcwdt_status_t
  34:Generated_Source\PSoC6\pdl\drivers\peripheral\mcwdt/cy_mcwdt.c **** *     *base checking result. If the pointer is NULL, returns error.
  35:Generated_Source\PSoC6\pdl\drivers\peripheral\mcwdt/cy_mcwdt.c **** *
  36:Generated_Source\PSoC6\pdl\drivers\peripheral\mcwdt/cy_mcwdt.c **** *  \note
  37:Generated_Source\PSoC6\pdl\drivers\peripheral\mcwdt/cy_mcwdt.c **** *  This API should not be called when the counters are running. Prior to calling
  38:Generated_Source\PSoC6\pdl\drivers\peripheral\mcwdt/cy_mcwdt.c **** *  this API the counter should be disabled.
  39:Generated_Source\PSoC6\pdl\drivers\peripheral\mcwdt/cy_mcwdt.c **** *
  40:Generated_Source\PSoC6\pdl\drivers\peripheral\mcwdt/cy_mcwdt.c **** *******************************************************************************/
  41:Generated_Source\PSoC6\pdl\drivers\peripheral\mcwdt/cy_mcwdt.c **** cy_en_mcwdt_status_t Cy_MCWDT_Init(MCWDT_STRUCT_Type *base, cy_stc_mcwdt_config_t const *config)
  42:Generated_Source\PSoC6\pdl\drivers\peripheral\mcwdt/cy_mcwdt.c **** {
  29              		.loc 1 42 0
  30              		.cfi_startproc
  31              		@ args = 0, pretend = 0, frame = 0
  32              		@ frame_needed = 0, uses_anonymous_args = 0
  33              	.LVL0:
  43:Generated_Source\PSoC6\pdl\drivers\peripheral\mcwdt/cy_mcwdt.c ****     cy_en_mcwdt_status_t ret = CY_MCWDT_BAD_PARAM;
  44:Generated_Source\PSoC6\pdl\drivers\peripheral\mcwdt/cy_mcwdt.c **** 
  45:Generated_Source\PSoC6\pdl\drivers\peripheral\mcwdt/cy_mcwdt.c ****     if ((base != NULL) && (config != NULL))
  34              		.loc 1 45 0
  35 0000 0028     		cmp	r0, #0
  36 0002 67D0     		beq	.L13
  42:Generated_Source\PSoC6\pdl\drivers\peripheral\mcwdt/cy_mcwdt.c ****     cy_en_mcwdt_status_t ret = CY_MCWDT_BAD_PARAM;
  37              		.loc 1 42 0 discriminator 1
  38 0004 38B5     		push	{r3, r4, r5, lr}
  39              		.cfi_def_cfa_offset 16
  40              		.cfi_offset 3, -16
  41              		.cfi_offset 4, -12
  42              		.cfi_offset 5, -8
  43              		.cfi_offset 14, -4
  44 0006 0546     		mov	r5, r0
  45              		.loc 1 45 0 discriminator 1
  46 0008 0029     		cmp	r1, #0
  47 000a 65D0     		beq	.L14
  46:Generated_Source\PSoC6\pdl\drivers\peripheral\mcwdt/cy_mcwdt.c ****     {
  47:Generated_Source\PSoC6\pdl\drivers\peripheral\mcwdt/cy_mcwdt.c ****         CY_ASSERT_L2(CY_MCWDT_IS_MATCH_VALID(config->c0ClearOnMatch, config->c0Match));
  48              		.loc 1 47 0
  49 000c 0B7A     		ldrb	r3, [r1, #8]	@ zero_extendqisi2
  50 000e 1BB1     		cbz	r3, .L3
  51              		.loc 1 47 0 is_stmt 0 discriminator 1
  52 0010 0B88     		ldrh	r3, [r1]
  53 0012 B3FA83F3 		clz	r3, r3
  54 0016 5B09     		lsrs	r3, r3, #5
  55              	.L3:
  56 0018 0C46     		mov	r4, r1
  57              		.loc 1 47 0 discriminator 4
  58 001a 1BB1     		cbz	r3, .L4
  59              		.loc 1 47 0 discriminator 5
  60 001c 2F21     		movs	r1, #47
  61              	.LVL1:
  62 001e 2F48     		ldr	r0, .L18
  63              	.LVL2:
  64 0020 FFF7FEFF 		bl	Cy_SysLib_AssertFailed
  65              	.LVL3:
  66              	.L4:
ARM GAS  C:\Users\salaz\AppData\Local\Temp\ccRE1Zmc.s 			page 3


  48:Generated_Source\PSoC6\pdl\drivers\peripheral\mcwdt/cy_mcwdt.c ****         CY_ASSERT_L2(CY_MCWDT_IS_MATCH_VALID(config->c1ClearOnMatch, config->c1Match));
  67              		.loc 1 48 0 is_stmt 1
  68 0024 637A     		ldrb	r3, [r4, #9]	@ zero_extendqisi2
  69 0026 1BB1     		cbz	r3, .L5
  70              		.loc 1 48 0 is_stmt 0 discriminator 1
  71 0028 6388     		ldrh	r3, [r4, #2]
  72 002a B3FA83F3 		clz	r3, r3
  73 002e 5B09     		lsrs	r3, r3, #5
  74              	.L5:
  75              		.loc 1 48 0 discriminator 4
  76 0030 1BB1     		cbz	r3, .L6
  77              		.loc 1 48 0 discriminator 5
  78 0032 3021     		movs	r1, #48
  79 0034 2948     		ldr	r0, .L18
  80 0036 FFF7FEFF 		bl	Cy_SysLib_AssertFailed
  81              	.LVL4:
  82              	.L6:
  49:Generated_Source\PSoC6\pdl\drivers\peripheral\mcwdt/cy_mcwdt.c ****         CY_ASSERT_L2(CY_MCWDT_IS_BIT_VALID(config->c2ToggleBit));
  83              		.loc 1 49 0 is_stmt 1
  84 003a A379     		ldrb	r3, [r4, #6]	@ zero_extendqisi2
  85 003c 1F2B     		cmp	r3, #31
  86 003e 03D9     		bls	.L7
  87              		.loc 1 49 0 is_stmt 0 discriminator 1
  88 0040 3121     		movs	r1, #49
  89 0042 2648     		ldr	r0, .L18
  90 0044 FFF7FEFF 		bl	Cy_SysLib_AssertFailed
  91              	.LVL5:
  92              	.L7:
  50:Generated_Source\PSoC6\pdl\drivers\peripheral\mcwdt/cy_mcwdt.c ****         CY_ASSERT_L3(CY_MCWDT_IS_MODE_VALID((cy_en_mcwdtmode_t)config->c0Mode));
  93              		.loc 1 50 0 is_stmt 1
  94 0048 2379     		ldrb	r3, [r4, #4]	@ zero_extendqisi2
  95 004a 032B     		cmp	r3, #3
  96 004c 03D9     		bls	.L8
  97              		.loc 1 50 0 is_stmt 0 discriminator 1
  98 004e 3221     		movs	r1, #50
  99 0050 2248     		ldr	r0, .L18
 100 0052 FFF7FEFF 		bl	Cy_SysLib_AssertFailed
 101              	.LVL6:
 102              	.L8:
  51:Generated_Source\PSoC6\pdl\drivers\peripheral\mcwdt/cy_mcwdt.c ****         CY_ASSERT_L3(CY_MCWDT_IS_MODE_VALID((cy_en_mcwdtmode_t)config->c1Mode));
 103              		.loc 1 51 0 is_stmt 1
 104 0056 6379     		ldrb	r3, [r4, #5]	@ zero_extendqisi2
 105 0058 032B     		cmp	r3, #3
 106 005a 03D9     		bls	.L9
 107              		.loc 1 51 0 is_stmt 0 discriminator 1
 108 005c 3321     		movs	r1, #51
 109 005e 1F48     		ldr	r0, .L18
 110 0060 FFF7FEFF 		bl	Cy_SysLib_AssertFailed
 111              	.LVL7:
 112              	.L9:
  52:Generated_Source\PSoC6\pdl\drivers\peripheral\mcwdt/cy_mcwdt.c ****         CY_ASSERT_L3(CY_MCWDT_IS_MODE_VALID((cy_en_mcwdtmode_t)config->c2Mode));
 113              		.loc 1 52 0 is_stmt 1
 114 0064 E379     		ldrb	r3, [r4, #7]	@ zero_extendqisi2
 115 0066 032B     		cmp	r3, #3
 116 0068 03D9     		bls	.L10
 117              		.loc 1 52 0 is_stmt 0 discriminator 1
 118 006a 3421     		movs	r1, #52
ARM GAS  C:\Users\salaz\AppData\Local\Temp\ccRE1Zmc.s 			page 4


 119 006c 1B48     		ldr	r0, .L18
 120 006e FFF7FEFF 		bl	Cy_SysLib_AssertFailed
 121              	.LVL8:
 122              	.L10:
  53:Generated_Source\PSoC6\pdl\drivers\peripheral\mcwdt/cy_mcwdt.c **** 
  54:Generated_Source\PSoC6\pdl\drivers\peripheral\mcwdt/cy_mcwdt.c ****         base->MCWDT_MATCH = _VAL2FLD(MCWDT_STRUCT_MCWDT_MATCH_WDT_MATCH1, config->c1Match) |
 123              		.loc 1 54 0 is_stmt 1
 124 0072 6288     		ldrh	r2, [r4, #2]
  55:Generated_Source\PSoC6\pdl\drivers\peripheral\mcwdt/cy_mcwdt.c ****                                  _VAL2FLD(MCWDT_STRUCT_MCWDT_MATCH_WDT_MATCH0, config->c0Match);
 125              		.loc 1 55 0
 126 0074 2388     		ldrh	r3, [r4]
  54:Generated_Source\PSoC6\pdl\drivers\peripheral\mcwdt/cy_mcwdt.c ****                                  _VAL2FLD(MCWDT_STRUCT_MCWDT_MATCH_WDT_MATCH0, config->c0Match);
 127              		.loc 1 54 0
 128 0076 43EA0243 		orr	r3, r3, r2, lsl #16
 129 007a EB60     		str	r3, [r5, #12]
  56:Generated_Source\PSoC6\pdl\drivers\peripheral\mcwdt/cy_mcwdt.c **** 
  57:Generated_Source\PSoC6\pdl\drivers\peripheral\mcwdt/cy_mcwdt.c ****         base->MCWDT_CONFIG = _VAL2FLD(MCWDT_STRUCT_MCWDT_CONFIG_WDT_BITS2, config->c2ToggleBit)    
 130              		.loc 1 57 0
 131 007c A379     		ldrb	r3, [r4, #6]	@ zero_extendqisi2
 132 007e 1B06     		lsls	r3, r3, #24
 133 0080 03F0F851 		and	r1, r3, #520093696
  58:Generated_Source\PSoC6\pdl\drivers\peripheral\mcwdt/cy_mcwdt.c ****                                _VAL2FLD(MCWDT_STRUCT_MCWDT_CONFIG_WDT_MODE2, config->c2Mode)       
 134              		.loc 1 58 0
 135 0084 E279     		ldrb	r2, [r4, #7]	@ zero_extendqisi2
 136 0086 1304     		lsls	r3, r2, #16
 137 0088 03F48033 		and	r3, r3, #65536
  57:Generated_Source\PSoC6\pdl\drivers\peripheral\mcwdt/cy_mcwdt.c ****                                _VAL2FLD(MCWDT_STRUCT_MCWDT_CONFIG_WDT_MODE2, config->c2Mode)       
 138              		.loc 1 57 0
 139 008c 0B43     		orrs	r3, r3, r1
  59:Generated_Source\PSoC6\pdl\drivers\peripheral\mcwdt/cy_mcwdt.c ****                                _VAL2FLD(MCWDT_STRUCT_MCWDT_CONFIG_WDT_CLEAR0, config->c0ClearOnMatc
 140              		.loc 1 59 0
 141 008e 227A     		ldrb	r2, [r4, #8]	@ zero_extendqisi2
 142 0090 9200     		lsls	r2, r2, #2
 143 0092 02F00402 		and	r2, r2, #4
  58:Generated_Source\PSoC6\pdl\drivers\peripheral\mcwdt/cy_mcwdt.c ****                                _VAL2FLD(MCWDT_STRUCT_MCWDT_CONFIG_WDT_MODE2, config->c2Mode)       
 144              		.loc 1 58 0
 145 0096 1343     		orrs	r3, r3, r2
  60:Generated_Source\PSoC6\pdl\drivers\peripheral\mcwdt/cy_mcwdt.c ****                                _VAL2FLD(MCWDT_STRUCT_MCWDT_CONFIG_WDT_CLEAR1, config->c1ClearOnMatc
 146              		.loc 1 60 0
 147 0098 627A     		ldrb	r2, [r4, #9]	@ zero_extendqisi2
 148 009a 9202     		lsls	r2, r2, #10
 149 009c 02F48062 		and	r2, r2, #1024
  59:Generated_Source\PSoC6\pdl\drivers\peripheral\mcwdt/cy_mcwdt.c ****                                _VAL2FLD(MCWDT_STRUCT_MCWDT_CONFIG_WDT_CLEAR0, config->c0ClearOnMatc
 150              		.loc 1 59 0
 151 00a0 1343     		orrs	r3, r3, r2
  61:Generated_Source\PSoC6\pdl\drivers\peripheral\mcwdt/cy_mcwdt.c ****                                (config->c1c2Cascade ? MCWDT_STRUCT_MCWDT_CONFIG_WDT_CASCADE1_2_Msk 
 152              		.loc 1 61 0
 153 00a2 E27A     		ldrb	r2, [r4, #11]	@ zero_extendqisi2
 154 00a4 12B1     		cbz	r2, .L15
 155 00a6 4FF40062 		mov	r2, #2048
 156 00aa 00E0     		b	.L11
 157              	.L15:
 158 00ac 0022     		movs	r2, #0
 159              	.L11:
  60:Generated_Source\PSoC6\pdl\drivers\peripheral\mcwdt/cy_mcwdt.c ****                                _VAL2FLD(MCWDT_STRUCT_MCWDT_CONFIG_WDT_CLEAR1, config->c1ClearOnMatc
 160              		.loc 1 60 0
 161 00ae 1343     		orrs	r3, r3, r2
ARM GAS  C:\Users\salaz\AppData\Local\Temp\ccRE1Zmc.s 			page 5


  62:Generated_Source\PSoC6\pdl\drivers\peripheral\mcwdt/cy_mcwdt.c ****                                _VAL2FLD(MCWDT_STRUCT_MCWDT_CONFIG_WDT_MODE1, config->c1Mode)       
 162              		.loc 1 62 0
 163 00b0 6279     		ldrb	r2, [r4, #5]	@ zero_extendqisi2
 164 00b2 1202     		lsls	r2, r2, #8
 165 00b4 02F44072 		and	r2, r2, #768
  61:Generated_Source\PSoC6\pdl\drivers\peripheral\mcwdt/cy_mcwdt.c ****                                (config->c1c2Cascade ? MCWDT_STRUCT_MCWDT_CONFIG_WDT_CASCADE1_2_Msk 
 166              		.loc 1 61 0
 167 00b8 1343     		orrs	r3, r3, r2
  63:Generated_Source\PSoC6\pdl\drivers\peripheral\mcwdt/cy_mcwdt.c ****                                (config->c0c1Cascade ? MCWDT_STRUCT_MCWDT_CONFIG_WDT_CASCADE0_1_Msk 
 168              		.loc 1 63 0
 169 00ba A27A     		ldrb	r2, [r4, #10]	@ zero_extendqisi2
 170 00bc 0AB1     		cbz	r2, .L16
 171 00be 0822     		movs	r2, #8
 172 00c0 00E0     		b	.L12
 173              	.L16:
 174 00c2 0022     		movs	r2, #0
 175              	.L12:
  62:Generated_Source\PSoC6\pdl\drivers\peripheral\mcwdt/cy_mcwdt.c ****                                _VAL2FLD(MCWDT_STRUCT_MCWDT_CONFIG_WDT_MODE1, config->c1Mode)       
 176              		.loc 1 62 0
 177 00c4 1343     		orrs	r3, r3, r2
  64:Generated_Source\PSoC6\pdl\drivers\peripheral\mcwdt/cy_mcwdt.c ****                                _VAL2FLD(MCWDT_STRUCT_MCWDT_CONFIG_WDT_MODE0, config->c0Mode);
 178              		.loc 1 64 0
 179 00c6 2279     		ldrb	r2, [r4, #4]	@ zero_extendqisi2
 180 00c8 02F00302 		and	r2, r2, #3
  63:Generated_Source\PSoC6\pdl\drivers\peripheral\mcwdt/cy_mcwdt.c ****                                (config->c0c1Cascade ? MCWDT_STRUCT_MCWDT_CONFIG_WDT_CASCADE0_1_Msk 
 181              		.loc 1 63 0
 182 00cc 1343     		orrs	r3, r3, r2
  57:Generated_Source\PSoC6\pdl\drivers\peripheral\mcwdt/cy_mcwdt.c ****                                _VAL2FLD(MCWDT_STRUCT_MCWDT_CONFIG_WDT_MODE2, config->c2Mode)       
 183              		.loc 1 57 0
 184 00ce 2B61     		str	r3, [r5, #16]
 185              	.LVL9:
  65:Generated_Source\PSoC6\pdl\drivers\peripheral\mcwdt/cy_mcwdt.c ****                            
  66:Generated_Source\PSoC6\pdl\drivers\peripheral\mcwdt/cy_mcwdt.c ****         ret = CY_MCWDT_SUCCESS;
 186              		.loc 1 66 0
 187 00d0 0020     		movs	r0, #0
 188 00d2 38BD     		pop	{r3, r4, r5, pc}
 189              	.LVL10:
 190              	.L13:
 191              		.cfi_def_cfa_offset 0
 192              		.cfi_restore 3
 193              		.cfi_restore 4
 194              		.cfi_restore 5
 195              		.cfi_restore 14
  43:Generated_Source\PSoC6\pdl\drivers\peripheral\mcwdt/cy_mcwdt.c **** 
 196              		.loc 1 43 0
 197 00d4 0248     		ldr	r0, .L18+4
 198              	.LVL11:
  67:Generated_Source\PSoC6\pdl\drivers\peripheral\mcwdt/cy_mcwdt.c ****     }
  68:Generated_Source\PSoC6\pdl\drivers\peripheral\mcwdt/cy_mcwdt.c ****                            
  69:Generated_Source\PSoC6\pdl\drivers\peripheral\mcwdt/cy_mcwdt.c ****     return (ret);
  70:Generated_Source\PSoC6\pdl\drivers\peripheral\mcwdt/cy_mcwdt.c **** }
 199              		.loc 1 70 0
 200 00d6 7047     		bx	lr
 201              	.LVL12:
 202              	.L14:
 203              		.cfi_def_cfa_offset 16
 204              		.cfi_offset 3, -16
ARM GAS  C:\Users\salaz\AppData\Local\Temp\ccRE1Zmc.s 			page 6


 205              		.cfi_offset 4, -12
 206              		.cfi_offset 5, -8
 207              		.cfi_offset 14, -4
  43:Generated_Source\PSoC6\pdl\drivers\peripheral\mcwdt/cy_mcwdt.c **** 
 208              		.loc 1 43 0
 209 00d8 0148     		ldr	r0, .L18+4
 210              	.LVL13:
 211              		.loc 1 70 0
 212 00da 38BD     		pop	{r3, r4, r5, pc}
 213              	.LVL14:
 214              	.L19:
 215              		.align	2
 216              	.L18:
 217 00dc 00000000 		.word	.LC0
 218 00e0 0100D600 		.word	14024705
 219              		.cfi_endproc
 220              	.LFE149:
 221              		.size	Cy_MCWDT_Init, .-Cy_MCWDT_Init
 222              		.section	.text.Cy_MCWDT_DeInit,"ax",%progbits
 223              		.align	2
 224              		.global	Cy_MCWDT_DeInit
 225              		.thumb
 226              		.thumb_func
 227              		.type	Cy_MCWDT_DeInit, %function
 228              	Cy_MCWDT_DeInit:
 229              	.LFB150:
  71:Generated_Source\PSoC6\pdl\drivers\peripheral\mcwdt/cy_mcwdt.c **** 
  72:Generated_Source\PSoC6\pdl\drivers\peripheral\mcwdt/cy_mcwdt.c **** 
  73:Generated_Source\PSoC6\pdl\drivers\peripheral\mcwdt/cy_mcwdt.c **** /*******************************************************************************
  74:Generated_Source\PSoC6\pdl\drivers\peripheral\mcwdt/cy_mcwdt.c **** * Function Name: Cy_MCWDT_DeInit
  75:Generated_Source\PSoC6\pdl\drivers\peripheral\mcwdt/cy_mcwdt.c **** ****************************************************************************//**
  76:Generated_Source\PSoC6\pdl\drivers\peripheral\mcwdt/cy_mcwdt.c **** *
  77:Generated_Source\PSoC6\pdl\drivers\peripheral\mcwdt/cy_mcwdt.c **** *  De-initializes the MCWDT block, returns register values to their default state.
  78:Generated_Source\PSoC6\pdl\drivers\peripheral\mcwdt/cy_mcwdt.c **** *
  79:Generated_Source\PSoC6\pdl\drivers\peripheral\mcwdt/cy_mcwdt.c **** *  \param base
  80:Generated_Source\PSoC6\pdl\drivers\peripheral\mcwdt/cy_mcwdt.c **** *  The base pointer to a structure that describes the registers.
  81:Generated_Source\PSoC6\pdl\drivers\peripheral\mcwdt/cy_mcwdt.c **** *
  82:Generated_Source\PSoC6\pdl\drivers\peripheral\mcwdt/cy_mcwdt.c **** *  \note
  83:Generated_Source\PSoC6\pdl\drivers\peripheral\mcwdt/cy_mcwdt.c **** *  This API should not be called when the counters are running. Prior to calling
  84:Generated_Source\PSoC6\pdl\drivers\peripheral\mcwdt/cy_mcwdt.c **** *  this API the counter should be disabled.
  85:Generated_Source\PSoC6\pdl\drivers\peripheral\mcwdt/cy_mcwdt.c **** *
  86:Generated_Source\PSoC6\pdl\drivers\peripheral\mcwdt/cy_mcwdt.c **** *******************************************************************************/
  87:Generated_Source\PSoC6\pdl\drivers\peripheral\mcwdt/cy_mcwdt.c **** void Cy_MCWDT_DeInit(MCWDT_STRUCT_Type *base)
  88:Generated_Source\PSoC6\pdl\drivers\peripheral\mcwdt/cy_mcwdt.c **** {
 230              		.loc 1 88 0
 231              		.cfi_startproc
 232              		@ args = 0, pretend = 0, frame = 0
 233              		@ frame_needed = 0, uses_anonymous_args = 0
 234              	.LVL15:
 235 0000 10B5     		push	{r4, lr}
 236              		.cfi_def_cfa_offset 8
 237              		.cfi_offset 4, -8
 238              		.cfi_offset 14, -4
 239 0002 0446     		mov	r4, r0
 240              	.LVL16:
 241              	.LBB4:
 242              	.LBB5:
ARM GAS  C:\Users\salaz\AppData\Local\Temp\ccRE1Zmc.s 			page 7


 243              		.file 2 "Generated_Source\\PSoC6\\pdl\\drivers\\peripheral\\mcwdt\\cy_mcwdt.h"
   1:Generated_Source\PSoC6\pdl\drivers\peripheral\mcwdt/cy_mcwdt.h **** /***************************************************************************//**
   2:Generated_Source\PSoC6\pdl\drivers\peripheral\mcwdt/cy_mcwdt.h **** * \file cy_mcwdt.h
   3:Generated_Source\PSoC6\pdl\drivers\peripheral\mcwdt/cy_mcwdt.h **** * \version 1.10.1
   4:Generated_Source\PSoC6\pdl\drivers\peripheral\mcwdt/cy_mcwdt.h **** *
   5:Generated_Source\PSoC6\pdl\drivers\peripheral\mcwdt/cy_mcwdt.h **** * Provides an API declaration of the Cypress PDL 3.0 MCWDT driver
   6:Generated_Source\PSoC6\pdl\drivers\peripheral\mcwdt/cy_mcwdt.h **** *
   7:Generated_Source\PSoC6\pdl\drivers\peripheral\mcwdt/cy_mcwdt.h **** ********************************************************************************
   8:Generated_Source\PSoC6\pdl\drivers\peripheral\mcwdt/cy_mcwdt.h **** * \copyright
   9:Generated_Source\PSoC6\pdl\drivers\peripheral\mcwdt/cy_mcwdt.h **** * Copyright 2016-2018, Cypress Semiconductor Corporation.  All rights reserved.
  10:Generated_Source\PSoC6\pdl\drivers\peripheral\mcwdt/cy_mcwdt.h **** * You may use this file only in accordance with the license, terms, conditions,
  11:Generated_Source\PSoC6\pdl\drivers\peripheral\mcwdt/cy_mcwdt.h **** * disclaimers, and limitations in the end user license agreement accompanying
  12:Generated_Source\PSoC6\pdl\drivers\peripheral\mcwdt/cy_mcwdt.h **** * the software package with which this file was provided.
  13:Generated_Source\PSoC6\pdl\drivers\peripheral\mcwdt/cy_mcwdt.h **** *******************************************************************************/
  14:Generated_Source\PSoC6\pdl\drivers\peripheral\mcwdt/cy_mcwdt.h **** 
  15:Generated_Source\PSoC6\pdl\drivers\peripheral\mcwdt/cy_mcwdt.h **** /**
  16:Generated_Source\PSoC6\pdl\drivers\peripheral\mcwdt/cy_mcwdt.h **** * \defgroup group_mcwdt Multi-Counter Watchdog (MCWDT)
  17:Generated_Source\PSoC6\pdl\drivers\peripheral\mcwdt/cy_mcwdt.h **** * \{
  18:Generated_Source\PSoC6\pdl\drivers\peripheral\mcwdt/cy_mcwdt.h **** * A MCWDT has two 16-bit counters and one 32-bit counter. 
  19:Generated_Source\PSoC6\pdl\drivers\peripheral\mcwdt/cy_mcwdt.h **** * You can use this driver to create a free-running
  20:Generated_Source\PSoC6\pdl\drivers\peripheral\mcwdt/cy_mcwdt.h **** * timer or generate periodic interrupts. The driver also
  21:Generated_Source\PSoC6\pdl\drivers\peripheral\mcwdt/cy_mcwdt.h **** * includes support for the watchdog function to recover from CPU or
  22:Generated_Source\PSoC6\pdl\drivers\peripheral\mcwdt/cy_mcwdt.h **** * firmware failures.
  23:Generated_Source\PSoC6\pdl\drivers\peripheral\mcwdt/cy_mcwdt.h **** *
  24:Generated_Source\PSoC6\pdl\drivers\peripheral\mcwdt/cy_mcwdt.h **** * There are two primary use cases for MCWDT: generating periodic CPU interrupts;
  25:Generated_Source\PSoC6\pdl\drivers\peripheral\mcwdt/cy_mcwdt.h **** * and implementing a free-running timer. Both have many applications in
  26:Generated_Source\PSoC6\pdl\drivers\peripheral\mcwdt/cy_mcwdt.h **** * embedded systems:
  27:Generated_Source\PSoC6\pdl\drivers\peripheral\mcwdt/cy_mcwdt.h **** * * Measuring time between events
  28:Generated_Source\PSoC6\pdl\drivers\peripheral\mcwdt/cy_mcwdt.h **** * * Generating periodic events
  29:Generated_Source\PSoC6\pdl\drivers\peripheral\mcwdt/cy_mcwdt.h **** * * Synchronizing actions
  30:Generated_Source\PSoC6\pdl\drivers\peripheral\mcwdt/cy_mcwdt.h **** * * Real-time clocking
  31:Generated_Source\PSoC6\pdl\drivers\peripheral\mcwdt/cy_mcwdt.h **** * * Polling
  32:Generated_Source\PSoC6\pdl\drivers\peripheral\mcwdt/cy_mcwdt.h **** *
  33:Generated_Source\PSoC6\pdl\drivers\peripheral\mcwdt/cy_mcwdt.h **** * An additional use case is to implement a watchdog used for recovering from a CPU or
  34:Generated_Source\PSoC6\pdl\drivers\peripheral\mcwdt/cy_mcwdt.h **** * firmware failure.
  35:Generated_Source\PSoC6\pdl\drivers\peripheral\mcwdt/cy_mcwdt.h **** * 
  36:Generated_Source\PSoC6\pdl\drivers\peripheral\mcwdt/cy_mcwdt.h **** * \section group_mcwdt_configuration Configuration Considerations
  37:Generated_Source\PSoC6\pdl\drivers\peripheral\mcwdt/cy_mcwdt.h **** *
  38:Generated_Source\PSoC6\pdl\drivers\peripheral\mcwdt/cy_mcwdt.h **** * Each MCWDT may be configured for a particular product. 
  39:Generated_Source\PSoC6\pdl\drivers\peripheral\mcwdt/cy_mcwdt.h **** * One MCWDT block can be associated with only one CPU during runtime. 
  40:Generated_Source\PSoC6\pdl\drivers\peripheral\mcwdt/cy_mcwdt.h **** * A single MCWDT is not intended to be used by multiple CPUs simultaneously. 
  41:Generated_Source\PSoC6\pdl\drivers\peripheral\mcwdt/cy_mcwdt.h **** * Each block contains three sub-counters, each of which can be configured for 
  42:Generated_Source\PSoC6\pdl\drivers\peripheral\mcwdt/cy_mcwdt.h **** * various system utility functions - free running counter, periodic interrupts, 
  43:Generated_Source\PSoC6\pdl\drivers\peripheral\mcwdt/cy_mcwdt.h **** * watchdog reset, or three interrupts followed by a watchdog reset.
  44:Generated_Source\PSoC6\pdl\drivers\peripheral\mcwdt/cy_mcwdt.h **** * All counters are clocked by either LFCLK (nominal 32 kHz) or by a cascaded 
  45:Generated_Source\PSoC6\pdl\drivers\peripheral\mcwdt/cy_mcwdt.h **** * counter.
  46:Generated_Source\PSoC6\pdl\drivers\peripheral\mcwdt/cy_mcwdt.h **** * A simplified diagram of the MCWDT hardware is shown below:
  47:Generated_Source\PSoC6\pdl\drivers\peripheral\mcwdt/cy_mcwdt.h **** * \image html mcwdt.png
  48:Generated_Source\PSoC6\pdl\drivers\peripheral\mcwdt/cy_mcwdt.h **** * The frequency of the periodic interrupts can be configured using the Match 
  49:Generated_Source\PSoC6\pdl\drivers\peripheral\mcwdt/cy_mcwdt.h **** * value with combining Clear on match option, which can be set individually 
  50:Generated_Source\PSoC6\pdl\drivers\peripheral\mcwdt/cy_mcwdt.h **** * for each counter using Cy_MCWDT_SetClearOnMatch(). When the Clear on match option 
  51:Generated_Source\PSoC6\pdl\drivers\peripheral\mcwdt/cy_mcwdt.h **** * is not set, the periodic interrupts of the C0 and C1 16-bit sub-counters occur 
  52:Generated_Source\PSoC6\pdl\drivers\peripheral\mcwdt/cy_mcwdt.h **** * after 65535 counts and the match value defines the shift between interrupts 
  53:Generated_Source\PSoC6\pdl\drivers\peripheral\mcwdt/cy_mcwdt.h **** * (see the figure below). The enabled Clear on match option 
  54:Generated_Source\PSoC6\pdl\drivers\peripheral\mcwdt/cy_mcwdt.h **** * resets the counter when the interrupt occurs.
  55:Generated_Source\PSoC6\pdl\drivers\peripheral\mcwdt/cy_mcwdt.h **** * \image html mcwdt_counters.png
  56:Generated_Source\PSoC6\pdl\drivers\peripheral\mcwdt/cy_mcwdt.h **** * 32-bit sub-counter C2 does not have Clear on match option. 
ARM GAS  C:\Users\salaz\AppData\Local\Temp\ccRE1Zmc.s 			page 8


  57:Generated_Source\PSoC6\pdl\drivers\peripheral\mcwdt/cy_mcwdt.h **** * The interrupt of counter C2 occurs when the counts equal 
  58:Generated_Source\PSoC6\pdl\drivers\peripheral\mcwdt/cy_mcwdt.h **** * 2<sup>Toggle bit</sup> value.
  59:Generated_Source\PSoC6\pdl\drivers\peripheral\mcwdt/cy_mcwdt.h **** * \image html mcwdt_subcounters.png
  60:Generated_Source\PSoC6\pdl\drivers\peripheral\mcwdt/cy_mcwdt.h **** * To set up an MCWDT, provide the configuration parameters in the 
  61:Generated_Source\PSoC6\pdl\drivers\peripheral\mcwdt/cy_mcwdt.h **** * cy_stc_mcwdt_config_t structure. Then call  
  62:Generated_Source\PSoC6\pdl\drivers\peripheral\mcwdt/cy_mcwdt.h **** * Cy_MCWDT_Init() to initialize the driver. 
  63:Generated_Source\PSoC6\pdl\drivers\peripheral\mcwdt/cy_mcwdt.h **** * Call Cy_MCWDT_Enable() to enable all specified counters.
  64:Generated_Source\PSoC6\pdl\drivers\peripheral\mcwdt/cy_mcwdt.h **** *
  65:Generated_Source\PSoC6\pdl\drivers\peripheral\mcwdt/cy_mcwdt.h **** * You can also set the mode of operation for any counter. If you choose
  66:Generated_Source\PSoC6\pdl\drivers\peripheral\mcwdt/cy_mcwdt.h **** * interrupt mode, use Cy_MCWDT_SetInterruptMask() with the 
  67:Generated_Source\PSoC6\pdl\drivers\peripheral\mcwdt/cy_mcwdt.h **** * parameter for the masks described in Macro Section. All counter interrupts 
  68:Generated_Source\PSoC6\pdl\drivers\peripheral\mcwdt/cy_mcwdt.h **** * are OR'd together to from a single combined MCWDT interrupt.
  69:Generated_Source\PSoC6\pdl\drivers\peripheral\mcwdt/cy_mcwdt.h **** * Additionally, enable the Global interrupts and initialize the referenced 
  70:Generated_Source\PSoC6\pdl\drivers\peripheral\mcwdt/cy_mcwdt.h **** * interrupt by setting the priority and the interrupt vector using  
  71:Generated_Source\PSoC6\pdl\drivers\peripheral\mcwdt/cy_mcwdt.h **** * \ref Cy_SysInt_Init() of the sysint driver.
  72:Generated_Source\PSoC6\pdl\drivers\peripheral\mcwdt/cy_mcwdt.h **** * 
  73:Generated_Source\PSoC6\pdl\drivers\peripheral\mcwdt/cy_mcwdt.h **** * The values of the MCWDT counters can be monitored using 
  74:Generated_Source\PSoC6\pdl\drivers\peripheral\mcwdt/cy_mcwdt.h **** * Cy_MCWDT_GetCount().
  75:Generated_Source\PSoC6\pdl\drivers\peripheral\mcwdt/cy_mcwdt.h **** *
  76:Generated_Source\PSoC6\pdl\drivers\peripheral\mcwdt/cy_mcwdt.h **** * \note In addition to the MCWDTs, each device has a separate watchdog timer
  77:Generated_Source\PSoC6\pdl\drivers\peripheral\mcwdt/cy_mcwdt.h **** * (WDT) that can also be used to generate a watchdog reset or periodic
  78:Generated_Source\PSoC6\pdl\drivers\peripheral\mcwdt/cy_mcwdt.h **** * interrupts. For more information on the WDT, see the appropriate section
  79:Generated_Source\PSoC6\pdl\drivers\peripheral\mcwdt/cy_mcwdt.h **** * of the PDL.
  80:Generated_Source\PSoC6\pdl\drivers\peripheral\mcwdt/cy_mcwdt.h **** *
  81:Generated_Source\PSoC6\pdl\drivers\peripheral\mcwdt/cy_mcwdt.h **** * \section group_mcwdt_more_information More Information
  82:Generated_Source\PSoC6\pdl\drivers\peripheral\mcwdt/cy_mcwdt.h **** *
  83:Generated_Source\PSoC6\pdl\drivers\peripheral\mcwdt/cy_mcwdt.h **** * For more information on the MCWDT peripheral, refer to 
  84:Generated_Source\PSoC6\pdl\drivers\peripheral\mcwdt/cy_mcwdt.h **** * the technical reference manual (TRM).
  85:Generated_Source\PSoC6\pdl\drivers\peripheral\mcwdt/cy_mcwdt.h **** *
  86:Generated_Source\PSoC6\pdl\drivers\peripheral\mcwdt/cy_mcwdt.h **** * \section group_mcwdt_MISRA MISRA-C Compliance]
  87:Generated_Source\PSoC6\pdl\drivers\peripheral\mcwdt/cy_mcwdt.h **** * The mcwdt driver does not have any specific deviations.
  88:Generated_Source\PSoC6\pdl\drivers\peripheral\mcwdt/cy_mcwdt.h **** *
  89:Generated_Source\PSoC6\pdl\drivers\peripheral\mcwdt/cy_mcwdt.h **** * \section group_mcwdt_changelog Changelog
  90:Generated_Source\PSoC6\pdl\drivers\peripheral\mcwdt/cy_mcwdt.h **** * <table class="doxtable">
  91:Generated_Source\PSoC6\pdl\drivers\peripheral\mcwdt/cy_mcwdt.h **** *   <tr><th>Version</th><th>Changes</th><th>Reason for Change</th></tr>
  92:Generated_Source\PSoC6\pdl\drivers\peripheral\mcwdt/cy_mcwdt.h **** *   <tr>
  93:Generated_Source\PSoC6\pdl\drivers\peripheral\mcwdt/cy_mcwdt.h **** *     <td>1.10.1</td>
  94:Generated_Source\PSoC6\pdl\drivers\peripheral\mcwdt/cy_mcwdt.h **** *     <td>Updated description of the \ref cy_stc_mcwdt_config_t structure type</td>
  95:Generated_Source\PSoC6\pdl\drivers\peripheral\mcwdt/cy_mcwdt.h **** *     <td>Documentation update and clarification</td>
  96:Generated_Source\PSoC6\pdl\drivers\peripheral\mcwdt/cy_mcwdt.h **** *   </tr>
  97:Generated_Source\PSoC6\pdl\drivers\peripheral\mcwdt/cy_mcwdt.h **** *   <tr>
  98:Generated_Source\PSoC6\pdl\drivers\peripheral\mcwdt/cy_mcwdt.h **** *     <td>1.10</td>
  99:Generated_Source\PSoC6\pdl\drivers\peripheral\mcwdt/cy_mcwdt.h **** *     <td>Added input parameter validation to the API functions.<br>
 100:Generated_Source\PSoC6\pdl\drivers\peripheral\mcwdt/cy_mcwdt.h **** *     Added API function GetCountCascaded()</td>
 101:Generated_Source\PSoC6\pdl\drivers\peripheral\mcwdt/cy_mcwdt.h **** *     <td></td>
 102:Generated_Source\PSoC6\pdl\drivers\peripheral\mcwdt/cy_mcwdt.h **** *   </tr>
 103:Generated_Source\PSoC6\pdl\drivers\peripheral\mcwdt/cy_mcwdt.h **** *   <tr>
 104:Generated_Source\PSoC6\pdl\drivers\peripheral\mcwdt/cy_mcwdt.h **** *     <td>1.0</td>
 105:Generated_Source\PSoC6\pdl\drivers\peripheral\mcwdt/cy_mcwdt.h **** *     <td>Initial version</td>
 106:Generated_Source\PSoC6\pdl\drivers\peripheral\mcwdt/cy_mcwdt.h **** *     <td></td>
 107:Generated_Source\PSoC6\pdl\drivers\peripheral\mcwdt/cy_mcwdt.h **** *   </tr>
 108:Generated_Source\PSoC6\pdl\drivers\peripheral\mcwdt/cy_mcwdt.h **** * </table>
 109:Generated_Source\PSoC6\pdl\drivers\peripheral\mcwdt/cy_mcwdt.h **** *
 110:Generated_Source\PSoC6\pdl\drivers\peripheral\mcwdt/cy_mcwdt.h **** * \defgroup group_mcwdt_macros Macros
 111:Generated_Source\PSoC6\pdl\drivers\peripheral\mcwdt/cy_mcwdt.h **** * \defgroup group_mcwdt_functions Functions
 112:Generated_Source\PSoC6\pdl\drivers\peripheral\mcwdt/cy_mcwdt.h **** * \defgroup group_mcwdt_data_structures Data Structures
 113:Generated_Source\PSoC6\pdl\drivers\peripheral\mcwdt/cy_mcwdt.h **** * \defgroup group_mcwdt_enums Enumerated Types
ARM GAS  C:\Users\salaz\AppData\Local\Temp\ccRE1Zmc.s 			page 9


 114:Generated_Source\PSoC6\pdl\drivers\peripheral\mcwdt/cy_mcwdt.h **** */
 115:Generated_Source\PSoC6\pdl\drivers\peripheral\mcwdt/cy_mcwdt.h **** 
 116:Generated_Source\PSoC6\pdl\drivers\peripheral\mcwdt/cy_mcwdt.h **** #ifndef CY_MCWDT_H
 117:Generated_Source\PSoC6\pdl\drivers\peripheral\mcwdt/cy_mcwdt.h **** #define CY_MCWDT_H
 118:Generated_Source\PSoC6\pdl\drivers\peripheral\mcwdt/cy_mcwdt.h **** 
 119:Generated_Source\PSoC6\pdl\drivers\peripheral\mcwdt/cy_mcwdt.h **** #if defined(__cplusplus)
 120:Generated_Source\PSoC6\pdl\drivers\peripheral\mcwdt/cy_mcwdt.h **** extern "C" {
 121:Generated_Source\PSoC6\pdl\drivers\peripheral\mcwdt/cy_mcwdt.h **** #endif
 122:Generated_Source\PSoC6\pdl\drivers\peripheral\mcwdt/cy_mcwdt.h **** 
 123:Generated_Source\PSoC6\pdl\drivers\peripheral\mcwdt/cy_mcwdt.h **** #include <stdbool.h>
 124:Generated_Source\PSoC6\pdl\drivers\peripheral\mcwdt/cy_mcwdt.h **** #include <stddef.h>
 125:Generated_Source\PSoC6\pdl\drivers\peripheral\mcwdt/cy_mcwdt.h **** #include "cy_device_headers.h"
 126:Generated_Source\PSoC6\pdl\drivers\peripheral\mcwdt/cy_mcwdt.h **** #include "syslib/cy_syslib.h"
 127:Generated_Source\PSoC6\pdl\drivers\peripheral\mcwdt/cy_mcwdt.h **** 
 128:Generated_Source\PSoC6\pdl\drivers\peripheral\mcwdt/cy_mcwdt.h **** #ifndef CY_IP_MXS40SRSS_MCWDT
 129:Generated_Source\PSoC6\pdl\drivers\peripheral\mcwdt/cy_mcwdt.h ****     #error "The MCWDT driver is not supported on this device"
 130:Generated_Source\PSoC6\pdl\drivers\peripheral\mcwdt/cy_mcwdt.h **** #endif
 131:Generated_Source\PSoC6\pdl\drivers\peripheral\mcwdt/cy_mcwdt.h **** 
 132:Generated_Source\PSoC6\pdl\drivers\peripheral\mcwdt/cy_mcwdt.h **** /**
 133:Generated_Source\PSoC6\pdl\drivers\peripheral\mcwdt/cy_mcwdt.h **** * \addtogroup group_mcwdt_data_structures
 134:Generated_Source\PSoC6\pdl\drivers\peripheral\mcwdt/cy_mcwdt.h **** * \{
 135:Generated_Source\PSoC6\pdl\drivers\peripheral\mcwdt/cy_mcwdt.h **** */
 136:Generated_Source\PSoC6\pdl\drivers\peripheral\mcwdt/cy_mcwdt.h **** 
 137:Generated_Source\PSoC6\pdl\drivers\peripheral\mcwdt/cy_mcwdt.h **** /** The MCWDT component configuration structure. */
 138:Generated_Source\PSoC6\pdl\drivers\peripheral\mcwdt/cy_mcwdt.h **** typedef struct
 139:Generated_Source\PSoC6\pdl\drivers\peripheral\mcwdt/cy_mcwdt.h **** {
 140:Generated_Source\PSoC6\pdl\drivers\peripheral\mcwdt/cy_mcwdt.h ****     uint16_t c0Match;        /**< The sub-counter#0 match comparison value, for interrupt or watchd
 141:Generated_Source\PSoC6\pdl\drivers\peripheral\mcwdt/cy_mcwdt.h ****                                   Range: 0 - 65535 for c0ClearOnMatch = 0 and 1 - 65535 for 
 142:Generated_Source\PSoC6\pdl\drivers\peripheral\mcwdt/cy_mcwdt.h ****                                   c0ClearOnMatch = 1. */
 143:Generated_Source\PSoC6\pdl\drivers\peripheral\mcwdt/cy_mcwdt.h ****     uint16_t c1Match;        /**< The sub-counter#1 match comparison value, for interrupt or watchd
 144:Generated_Source\PSoC6\pdl\drivers\peripheral\mcwdt/cy_mcwdt.h ****                                   Range: 0 - 65535 for c1ClearOnMatch = 0 and 1 - 65535 for 
 145:Generated_Source\PSoC6\pdl\drivers\peripheral\mcwdt/cy_mcwdt.h ****                                   c1ClearOnMatch = 1. */
 146:Generated_Source\PSoC6\pdl\drivers\peripheral\mcwdt/cy_mcwdt.h ****     uint8_t  c0Mode;         /**< The sub-counter#0 mode. It can have the following values: \ref CY
 147:Generated_Source\PSoC6\pdl\drivers\peripheral\mcwdt/cy_mcwdt.h ****                                   \ref CY_MCWDT_MODE_INT, \ref CY_MCWDT_MODE_RESET and \ref CY_MCWD
 148:Generated_Source\PSoC6\pdl\drivers\peripheral\mcwdt/cy_mcwdt.h ****     uint8_t  c1Mode;         /**< The sub-counter#1 mode.  It can have the following values: \ref C
 149:Generated_Source\PSoC6\pdl\drivers\peripheral\mcwdt/cy_mcwdt.h ****                                   \ref CY_MCWDT_MODE_INT, \ref CY_MCWDT_MODE_RESET and \ref CY_MCWD
 150:Generated_Source\PSoC6\pdl\drivers\peripheral\mcwdt/cy_mcwdt.h ****     uint8_t  c2ToggleBit;    /**< The sub-counter#2 Period / Toggle Bit value. 
 151:Generated_Source\PSoC6\pdl\drivers\peripheral\mcwdt/cy_mcwdt.h ****                                   Range: 0 - 31. */
 152:Generated_Source\PSoC6\pdl\drivers\peripheral\mcwdt/cy_mcwdt.h ****     uint8_t  c2Mode;         /**< The sub-counter#2 mode. It can have the following values: \ref CY
 153:Generated_Source\PSoC6\pdl\drivers\peripheral\mcwdt/cy_mcwdt.h ****                                   and \ref CY_MCWDT_MODE_INT. */
 154:Generated_Source\PSoC6\pdl\drivers\peripheral\mcwdt/cy_mcwdt.h ****     bool     c0ClearOnMatch; /**< The sub-counter#0 Clear On Match parameter enabled/disabled. */
 155:Generated_Source\PSoC6\pdl\drivers\peripheral\mcwdt/cy_mcwdt.h ****     bool     c1ClearOnMatch; /**< The sub-counter#1 Clear On Match parameter enabled/disabled. */
 156:Generated_Source\PSoC6\pdl\drivers\peripheral\mcwdt/cy_mcwdt.h ****     bool     c0c1Cascade;    /**< The sub-counter#1 is clocked by LFCLK or from sub-counter#0 casca
 157:Generated_Source\PSoC6\pdl\drivers\peripheral\mcwdt/cy_mcwdt.h ****     bool     c1c2Cascade;    /**< The sub-counter#2 is clocked by LFCLK or from sub-counter#1 casca
 158:Generated_Source\PSoC6\pdl\drivers\peripheral\mcwdt/cy_mcwdt.h **** } cy_stc_mcwdt_config_t;
 159:Generated_Source\PSoC6\pdl\drivers\peripheral\mcwdt/cy_mcwdt.h **** 
 160:Generated_Source\PSoC6\pdl\drivers\peripheral\mcwdt/cy_mcwdt.h **** /** \} group_mcwdt_data_structures */
 161:Generated_Source\PSoC6\pdl\drivers\peripheral\mcwdt/cy_mcwdt.h **** 
 162:Generated_Source\PSoC6\pdl\drivers\peripheral\mcwdt/cy_mcwdt.h **** /**
 163:Generated_Source\PSoC6\pdl\drivers\peripheral\mcwdt/cy_mcwdt.h **** * \addtogroup group_mcwdt_macros
 164:Generated_Source\PSoC6\pdl\drivers\peripheral\mcwdt/cy_mcwdt.h **** * \{
 165:Generated_Source\PSoC6\pdl\drivers\peripheral\mcwdt/cy_mcwdt.h **** */
 166:Generated_Source\PSoC6\pdl\drivers\peripheral\mcwdt/cy_mcwdt.h **** 
 167:Generated_Source\PSoC6\pdl\drivers\peripheral\mcwdt/cy_mcwdt.h **** /** Driver major version */
 168:Generated_Source\PSoC6\pdl\drivers\peripheral\mcwdt/cy_mcwdt.h **** #define CY_MCWDT_DRV_VERSION_MAJOR       1
 169:Generated_Source\PSoC6\pdl\drivers\peripheral\mcwdt/cy_mcwdt.h **** 
 170:Generated_Source\PSoC6\pdl\drivers\peripheral\mcwdt/cy_mcwdt.h **** /** Driver minor version */
ARM GAS  C:\Users\salaz\AppData\Local\Temp\ccRE1Zmc.s 			page 10


 171:Generated_Source\PSoC6\pdl\drivers\peripheral\mcwdt/cy_mcwdt.h **** #define CY_MCWDT_DRV_VERSION_MINOR       10
 172:Generated_Source\PSoC6\pdl\drivers\peripheral\mcwdt/cy_mcwdt.h **** 
 173:Generated_Source\PSoC6\pdl\drivers\peripheral\mcwdt/cy_mcwdt.h **** /** \cond INTERNAL_MACROS */
 174:Generated_Source\PSoC6\pdl\drivers\peripheral\mcwdt/cy_mcwdt.h **** 
 175:Generated_Source\PSoC6\pdl\drivers\peripheral\mcwdt/cy_mcwdt.h **** /***************************************
 176:Generated_Source\PSoC6\pdl\drivers\peripheral\mcwdt/cy_mcwdt.h **** *        Registers Constants
 177:Generated_Source\PSoC6\pdl\drivers\peripheral\mcwdt/cy_mcwdt.h **** ***************************************/
 178:Generated_Source\PSoC6\pdl\drivers\peripheral\mcwdt/cy_mcwdt.h **** 
 179:Generated_Source\PSoC6\pdl\drivers\peripheral\mcwdt/cy_mcwdt.h **** #define CY_MCWDT_LOCK_CLR0      (1u)
 180:Generated_Source\PSoC6\pdl\drivers\peripheral\mcwdt/cy_mcwdt.h **** #define CY_MCWDT_LOCK_CLR1      (2u)
 181:Generated_Source\PSoC6\pdl\drivers\peripheral\mcwdt/cy_mcwdt.h **** #define CY_MCWDT_LOCK_SET01     (3u)
 182:Generated_Source\PSoC6\pdl\drivers\peripheral\mcwdt/cy_mcwdt.h **** 
 183:Generated_Source\PSoC6\pdl\drivers\peripheral\mcwdt/cy_mcwdt.h **** #define CY_MCWDT_BYTE_SHIFT     (8u)
 184:Generated_Source\PSoC6\pdl\drivers\peripheral\mcwdt/cy_mcwdt.h **** #define CY_MCWDT_C0C1_MODE_MASK (3u)
 185:Generated_Source\PSoC6\pdl\drivers\peripheral\mcwdt/cy_mcwdt.h **** #define CY_MCWDT_C2_MODE_MASK   (1u)
 186:Generated_Source\PSoC6\pdl\drivers\peripheral\mcwdt/cy_mcwdt.h **** 
 187:Generated_Source\PSoC6\pdl\drivers\peripheral\mcwdt/cy_mcwdt.h **** 
 188:Generated_Source\PSoC6\pdl\drivers\peripheral\mcwdt/cy_mcwdt.h **** /***************************************
 189:Generated_Source\PSoC6\pdl\drivers\peripheral\mcwdt/cy_mcwdt.h **** *            API Constants
 190:Generated_Source\PSoC6\pdl\drivers\peripheral\mcwdt/cy_mcwdt.h **** ***************************************/
 191:Generated_Source\PSoC6\pdl\drivers\peripheral\mcwdt/cy_mcwdt.h **** 
 192:Generated_Source\PSoC6\pdl\drivers\peripheral\mcwdt/cy_mcwdt.h **** #define CY_MCWDT_ALL_WDT_ENABLE_Msk (MCWDT_STRUCT_MCWDT_CTL_WDT_ENABLE0_Msk | MCWDT_STRUCT_MCWDT_CT
 193:Generated_Source\PSoC6\pdl\drivers\peripheral\mcwdt/cy_mcwdt.h ****                                   MCWDT_STRUCT_MCWDT_CTL_WDT_ENABLE2_Msk)
 194:Generated_Source\PSoC6\pdl\drivers\peripheral\mcwdt/cy_mcwdt.h ****                                   
 195:Generated_Source\PSoC6\pdl\drivers\peripheral\mcwdt/cy_mcwdt.h **** #define CY_MCWDT_CTR0_Pos (0u)
 196:Generated_Source\PSoC6\pdl\drivers\peripheral\mcwdt/cy_mcwdt.h **** #define CY_MCWDT_CTR1_Pos (1u)
 197:Generated_Source\PSoC6\pdl\drivers\peripheral\mcwdt/cy_mcwdt.h **** #define CY_MCWDT_CTR2_Pos (2u)
 198:Generated_Source\PSoC6\pdl\drivers\peripheral\mcwdt/cy_mcwdt.h **** #define CY_MCWDT_CTR_Pos  (0UL)
 199:Generated_Source\PSoC6\pdl\drivers\peripheral\mcwdt/cy_mcwdt.h **** 
 200:Generated_Source\PSoC6\pdl\drivers\peripheral\mcwdt/cy_mcwdt.h **** #define CY_MCWDT_C2_MODE_MASK   (1u) 
 201:Generated_Source\PSoC6\pdl\drivers\peripheral\mcwdt/cy_mcwdt.h ****                                   
 202:Generated_Source\PSoC6\pdl\drivers\peripheral\mcwdt/cy_mcwdt.h **** /** \endcond */
 203:Generated_Source\PSoC6\pdl\drivers\peripheral\mcwdt/cy_mcwdt.h **** 
 204:Generated_Source\PSoC6\pdl\drivers\peripheral\mcwdt/cy_mcwdt.h **** #define CY_MCWDT_ID       CY_PDL_DRV_ID(0x35u)                      /**< MCWDT PDL ID */
 205:Generated_Source\PSoC6\pdl\drivers\peripheral\mcwdt/cy_mcwdt.h **** 
 206:Generated_Source\PSoC6\pdl\drivers\peripheral\mcwdt/cy_mcwdt.h **** #define CY_MCWDT_CTR0     (1UL << CY_MCWDT_CTR0_Pos)                /**< The sub-counter#0 mask. Th
 207:Generated_Source\PSoC6\pdl\drivers\peripheral\mcwdt/cy_mcwdt.h ****                                                                    that handle multiple counters, i
 208:Generated_Source\PSoC6\pdl\drivers\peripheral\mcwdt/cy_mcwdt.h ****                                                                    Cy_MCWDT_Disable(), Cy_MCWDT_Cle
 209:Generated_Source\PSoC6\pdl\drivers\peripheral\mcwdt/cy_mcwdt.h **** #define CY_MCWDT_CTR1     (1UL << CY_MCWDT_CTR1_Pos)                /**< The sub-counter#1 mask. Th
 210:Generated_Source\PSoC6\pdl\drivers\peripheral\mcwdt/cy_mcwdt.h ****                                                                    that handle multiple counters, i
 211:Generated_Source\PSoC6\pdl\drivers\peripheral\mcwdt/cy_mcwdt.h ****                                                                    Cy_MCWDT_Disable(), Cy_MCWDT_Cle
 212:Generated_Source\PSoC6\pdl\drivers\peripheral\mcwdt/cy_mcwdt.h **** #define CY_MCWDT_CTR2     (1UL << CY_MCWDT_CTR2_Pos)                /**< The sub-counter#2 mask. Th
 213:Generated_Source\PSoC6\pdl\drivers\peripheral\mcwdt/cy_mcwdt.h ****                                                                    that handle multiple counters, i
 214:Generated_Source\PSoC6\pdl\drivers\peripheral\mcwdt/cy_mcwdt.h ****                                                                    Cy_MCWDT_Disable(), Cy_MCWDT_Cle
 215:Generated_Source\PSoC6\pdl\drivers\peripheral\mcwdt/cy_mcwdt.h **** #define CY_MCWDT_CTR_Msk  (CY_MCWDT_CTR0 | CY_MCWDT_CTR1 | CY_MCWDT_CTR2) /**< The mask for all sub
 216:Generated_Source\PSoC6\pdl\drivers\peripheral\mcwdt/cy_mcwdt.h ****                                                                    that handle multiple counters, i
 217:Generated_Source\PSoC6\pdl\drivers\peripheral\mcwdt/cy_mcwdt.h ****                                                                    Cy_MCWDT_Disable(), Cy_MCWDT_Cle
 218:Generated_Source\PSoC6\pdl\drivers\peripheral\mcwdt/cy_mcwdt.h **** 
 219:Generated_Source\PSoC6\pdl\drivers\peripheral\mcwdt/cy_mcwdt.h **** /** \} group_mcwdt_macros */
 220:Generated_Source\PSoC6\pdl\drivers\peripheral\mcwdt/cy_mcwdt.h **** 
 221:Generated_Source\PSoC6\pdl\drivers\peripheral\mcwdt/cy_mcwdt.h **** 
 222:Generated_Source\PSoC6\pdl\drivers\peripheral\mcwdt/cy_mcwdt.h **** /**
 223:Generated_Source\PSoC6\pdl\drivers\peripheral\mcwdt/cy_mcwdt.h **** * \addtogroup group_mcwdt_enums
 224:Generated_Source\PSoC6\pdl\drivers\peripheral\mcwdt/cy_mcwdt.h **** * \{
 225:Generated_Source\PSoC6\pdl\drivers\peripheral\mcwdt/cy_mcwdt.h **** */
 226:Generated_Source\PSoC6\pdl\drivers\peripheral\mcwdt/cy_mcwdt.h **** 
 227:Generated_Source\PSoC6\pdl\drivers\peripheral\mcwdt/cy_mcwdt.h **** /** The mcwdt sub-counter identifiers. */
ARM GAS  C:\Users\salaz\AppData\Local\Temp\ccRE1Zmc.s 			page 11


 228:Generated_Source\PSoC6\pdl\drivers\peripheral\mcwdt/cy_mcwdt.h **** typedef enum
 229:Generated_Source\PSoC6\pdl\drivers\peripheral\mcwdt/cy_mcwdt.h **** {
 230:Generated_Source\PSoC6\pdl\drivers\peripheral\mcwdt/cy_mcwdt.h ****     CY_MCWDT_COUNTER0,  /**< Sub-counter#0 identifier. */
 231:Generated_Source\PSoC6\pdl\drivers\peripheral\mcwdt/cy_mcwdt.h ****     CY_MCWDT_COUNTER1,  /**< Sub-counter#1 identifier. */
 232:Generated_Source\PSoC6\pdl\drivers\peripheral\mcwdt/cy_mcwdt.h ****     CY_MCWDT_COUNTER2   /**< Sub-counter#2 identifier. */
 233:Generated_Source\PSoC6\pdl\drivers\peripheral\mcwdt/cy_mcwdt.h **** } cy_en_mcwdtctr_t;
 234:Generated_Source\PSoC6\pdl\drivers\peripheral\mcwdt/cy_mcwdt.h **** 
 235:Generated_Source\PSoC6\pdl\drivers\peripheral\mcwdt/cy_mcwdt.h **** /** The mcwdt modes. */
 236:Generated_Source\PSoC6\pdl\drivers\peripheral\mcwdt/cy_mcwdt.h **** typedef enum
 237:Generated_Source\PSoC6\pdl\drivers\peripheral\mcwdt/cy_mcwdt.h **** {
 238:Generated_Source\PSoC6\pdl\drivers\peripheral\mcwdt/cy_mcwdt.h ****     CY_MCWDT_MODE_NONE,      /**< The No action mode. It is used for Set/GetMode functions. */
 239:Generated_Source\PSoC6\pdl\drivers\peripheral\mcwdt/cy_mcwdt.h ****     CY_MCWDT_MODE_INT,       /**< The Interrupt mode. It is used for Set/GetMode functions. */
 240:Generated_Source\PSoC6\pdl\drivers\peripheral\mcwdt/cy_mcwdt.h ****     CY_MCWDT_MODE_RESET,     /**< The Reset mode. It is used for Set/GetMode functions. */
 241:Generated_Source\PSoC6\pdl\drivers\peripheral\mcwdt/cy_mcwdt.h ****     CY_MCWDT_MODE_INT_RESET  /**< The Three interrupts then watchdog reset mode. It is used for 
 242:Generated_Source\PSoC6\pdl\drivers\peripheral\mcwdt/cy_mcwdt.h ****                                Set/GetMode functions. */
 243:Generated_Source\PSoC6\pdl\drivers\peripheral\mcwdt/cy_mcwdt.h **** } cy_en_mcwdtmode_t;
 244:Generated_Source\PSoC6\pdl\drivers\peripheral\mcwdt/cy_mcwdt.h **** 
 245:Generated_Source\PSoC6\pdl\drivers\peripheral\mcwdt/cy_mcwdt.h **** /** The mcwdt cascading. */
 246:Generated_Source\PSoC6\pdl\drivers\peripheral\mcwdt/cy_mcwdt.h **** typedef enum
 247:Generated_Source\PSoC6\pdl\drivers\peripheral\mcwdt/cy_mcwdt.h **** {
 248:Generated_Source\PSoC6\pdl\drivers\peripheral\mcwdt/cy_mcwdt.h ****     CY_MCWDT_CASCADE_NONE,  /**< The cascading is disabled. It is used for Set/GetCascade functions
 249:Generated_Source\PSoC6\pdl\drivers\peripheral\mcwdt/cy_mcwdt.h ****     CY_MCWDT_CASCADE_C0C1,  /**< The sub-counter#1 is clocked by LFCLK or from sub-counter#0 cascad
 250:Generated_Source\PSoC6\pdl\drivers\peripheral\mcwdt/cy_mcwdt.h ****                               It is used for Set/GetCascade functions. */
 251:Generated_Source\PSoC6\pdl\drivers\peripheral\mcwdt/cy_mcwdt.h ****     CY_MCWDT_CASCADE_C1C2,  /**< The sub-counter#2 is clocked by LFCLK or from sub-counter#1 cascad
 252:Generated_Source\PSoC6\pdl\drivers\peripheral\mcwdt/cy_mcwdt.h ****                               It is used for Set/GetCascade functions. */
 253:Generated_Source\PSoC6\pdl\drivers\peripheral\mcwdt/cy_mcwdt.h ****     CY_MCWDT_CASCADE_BOTH   /**< The sub-counter#1 is clocked by LFCLK or from sub-counter#0 cascad
 254:Generated_Source\PSoC6\pdl\drivers\peripheral\mcwdt/cy_mcwdt.h ****                               and the sub-counter#2 is clocked by LFCLK or from sub-counter#1 casca
 255:Generated_Source\PSoC6\pdl\drivers\peripheral\mcwdt/cy_mcwdt.h ****                               It is used for Set/GetCascade functions. */
 256:Generated_Source\PSoC6\pdl\drivers\peripheral\mcwdt/cy_mcwdt.h **** } cy_en_mcwdtcascade_t;
 257:Generated_Source\PSoC6\pdl\drivers\peripheral\mcwdt/cy_mcwdt.h **** 
 258:Generated_Source\PSoC6\pdl\drivers\peripheral\mcwdt/cy_mcwdt.h **** /** The MCWDT error codes. */
 259:Generated_Source\PSoC6\pdl\drivers\peripheral\mcwdt/cy_mcwdt.h **** typedef enum 
 260:Generated_Source\PSoC6\pdl\drivers\peripheral\mcwdt/cy_mcwdt.h **** {
 261:Generated_Source\PSoC6\pdl\drivers\peripheral\mcwdt/cy_mcwdt.h ****     CY_MCWDT_SUCCESS = 0x00u,                                            /**< Successful */
 262:Generated_Source\PSoC6\pdl\drivers\peripheral\mcwdt/cy_mcwdt.h ****     CY_MCWDT_BAD_PARAM = CY_MCWDT_ID | CY_PDL_STATUS_ERROR | 0x01u,     /**< One or more invalid pa
 263:Generated_Source\PSoC6\pdl\drivers\peripheral\mcwdt/cy_mcwdt.h **** } cy_en_mcwdt_status_t;
 264:Generated_Source\PSoC6\pdl\drivers\peripheral\mcwdt/cy_mcwdt.h **** 
 265:Generated_Source\PSoC6\pdl\drivers\peripheral\mcwdt/cy_mcwdt.h **** /** \} group_mcwdt_enums */
 266:Generated_Source\PSoC6\pdl\drivers\peripheral\mcwdt/cy_mcwdt.h **** 
 267:Generated_Source\PSoC6\pdl\drivers\peripheral\mcwdt/cy_mcwdt.h **** 
 268:Generated_Source\PSoC6\pdl\drivers\peripheral\mcwdt/cy_mcwdt.h **** /** \cond PARAM_CHECK_MACROS */
 269:Generated_Source\PSoC6\pdl\drivers\peripheral\mcwdt/cy_mcwdt.h **** 
 270:Generated_Source\PSoC6\pdl\drivers\peripheral\mcwdt/cy_mcwdt.h **** /** Parameter check macros */ 
 271:Generated_Source\PSoC6\pdl\drivers\peripheral\mcwdt/cy_mcwdt.h **** #define CY_MCWDT_IS_CNTS_MASK_VALID(counters)  (0U == ((counters) & (uint32_t)~CY_MCWDT_CTR_Msk)) 
 272:Generated_Source\PSoC6\pdl\drivers\peripheral\mcwdt/cy_mcwdt.h ****                                                
 273:Generated_Source\PSoC6\pdl\drivers\peripheral\mcwdt/cy_mcwdt.h **** #define CY_MCWDT_IS_CNT_NUM_VALID(counter)    ((CY_MCWDT_COUNTER0 == (counter)) || \
 274:Generated_Source\PSoC6\pdl\drivers\peripheral\mcwdt/cy_mcwdt.h ****                                                (CY_MCWDT_COUNTER1 == (counter)) || \
 275:Generated_Source\PSoC6\pdl\drivers\peripheral\mcwdt/cy_mcwdt.h ****                                                (CY_MCWDT_COUNTER2 == (counter)))
 276:Generated_Source\PSoC6\pdl\drivers\peripheral\mcwdt/cy_mcwdt.h **** 
 277:Generated_Source\PSoC6\pdl\drivers\peripheral\mcwdt/cy_mcwdt.h **** #define CY_MCWDT_IS_MODE_VALID(mode)          ((CY_MCWDT_MODE_NONE == (mode)) || \
 278:Generated_Source\PSoC6\pdl\drivers\peripheral\mcwdt/cy_mcwdt.h ****                                                (CY_MCWDT_MODE_INT == (mode)) || \
 279:Generated_Source\PSoC6\pdl\drivers\peripheral\mcwdt/cy_mcwdt.h ****                                                (CY_MCWDT_MODE_RESET == (mode)) || \
 280:Generated_Source\PSoC6\pdl\drivers\peripheral\mcwdt/cy_mcwdt.h ****                                                (CY_MCWDT_MODE_INT_RESET == (mode)))
 281:Generated_Source\PSoC6\pdl\drivers\peripheral\mcwdt/cy_mcwdt.h **** 
 282:Generated_Source\PSoC6\pdl\drivers\peripheral\mcwdt/cy_mcwdt.h **** #define CY_MCWDT_IS_ENABLE_VALID(enable)      (1UL >= (enable))
 283:Generated_Source\PSoC6\pdl\drivers\peripheral\mcwdt/cy_mcwdt.h **** 
 284:Generated_Source\PSoC6\pdl\drivers\peripheral\mcwdt/cy_mcwdt.h **** 
ARM GAS  C:\Users\salaz\AppData\Local\Temp\ccRE1Zmc.s 			page 12


 285:Generated_Source\PSoC6\pdl\drivers\peripheral\mcwdt/cy_mcwdt.h **** #define CY_MCWDT_IS_CASCADE_VALID(cascade)    ((CY_MCWDT_CASCADE_NONE == (cascade)) || \
 286:Generated_Source\PSoC6\pdl\drivers\peripheral\mcwdt/cy_mcwdt.h ****                                                (CY_MCWDT_CASCADE_C0C1 == (cascade)) || \
 287:Generated_Source\PSoC6\pdl\drivers\peripheral\mcwdt/cy_mcwdt.h ****                                                (CY_MCWDT_CASCADE_C1C2 == (cascade)) || \
 288:Generated_Source\PSoC6\pdl\drivers\peripheral\mcwdt/cy_mcwdt.h ****                                                (CY_MCWDT_CASCADE_BOTH == (cascade)))
 289:Generated_Source\PSoC6\pdl\drivers\peripheral\mcwdt/cy_mcwdt.h ****                                                
 290:Generated_Source\PSoC6\pdl\drivers\peripheral\mcwdt/cy_mcwdt.h **** #define CY_MCWDT_IS_MATCH_VALID(clearOnMatch, match)  ((clearOnMatch) ? (1UL <= (match)) : true)
 291:Generated_Source\PSoC6\pdl\drivers\peripheral\mcwdt/cy_mcwdt.h **** 
 292:Generated_Source\PSoC6\pdl\drivers\peripheral\mcwdt/cy_mcwdt.h **** #define CY_MCWDT_IS_BIT_VALID(bit)            (31UL >= (bit))                                      
 293:Generated_Source\PSoC6\pdl\drivers\peripheral\mcwdt/cy_mcwdt.h **** 
 294:Generated_Source\PSoC6\pdl\drivers\peripheral\mcwdt/cy_mcwdt.h ****                                           
 295:Generated_Source\PSoC6\pdl\drivers\peripheral\mcwdt/cy_mcwdt.h **** /** \endcond */
 296:Generated_Source\PSoC6\pdl\drivers\peripheral\mcwdt/cy_mcwdt.h **** 
 297:Generated_Source\PSoC6\pdl\drivers\peripheral\mcwdt/cy_mcwdt.h **** 
 298:Generated_Source\PSoC6\pdl\drivers\peripheral\mcwdt/cy_mcwdt.h **** /*******************************************************************************
 299:Generated_Source\PSoC6\pdl\drivers\peripheral\mcwdt/cy_mcwdt.h **** *        Function Prototypes
 300:Generated_Source\PSoC6\pdl\drivers\peripheral\mcwdt/cy_mcwdt.h **** *******************************************************************************/
 301:Generated_Source\PSoC6\pdl\drivers\peripheral\mcwdt/cy_mcwdt.h **** 
 302:Generated_Source\PSoC6\pdl\drivers\peripheral\mcwdt/cy_mcwdt.h **** /**
 303:Generated_Source\PSoC6\pdl\drivers\peripheral\mcwdt/cy_mcwdt.h **** * \addtogroup group_mcwdt_functions
 304:Generated_Source\PSoC6\pdl\drivers\peripheral\mcwdt/cy_mcwdt.h **** * \{
 305:Generated_Source\PSoC6\pdl\drivers\peripheral\mcwdt/cy_mcwdt.h **** */
 306:Generated_Source\PSoC6\pdl\drivers\peripheral\mcwdt/cy_mcwdt.h **** cy_en_mcwdt_status_t     Cy_MCWDT_Init(MCWDT_STRUCT_Type *base, cy_stc_mcwdt_config_t const *config
 307:Generated_Source\PSoC6\pdl\drivers\peripheral\mcwdt/cy_mcwdt.h ****                 void     Cy_MCWDT_DeInit(MCWDT_STRUCT_Type *base);
 308:Generated_Source\PSoC6\pdl\drivers\peripheral\mcwdt/cy_mcwdt.h **** __STATIC_INLINE void     Cy_MCWDT_Enable(MCWDT_STRUCT_Type *base, uint32_t counters, uint16_t waitU
 309:Generated_Source\PSoC6\pdl\drivers\peripheral\mcwdt/cy_mcwdt.h **** __STATIC_INLINE void     Cy_MCWDT_Disable(MCWDT_STRUCT_Type *base, uint32_t counters, uint16_t wait
 310:Generated_Source\PSoC6\pdl\drivers\peripheral\mcwdt/cy_mcwdt.h **** __STATIC_INLINE uint32_t Cy_MCWDT_GetEnabledStatus(MCWDT_STRUCT_Type const *base, cy_en_mcwdtctr_t 
 311:Generated_Source\PSoC6\pdl\drivers\peripheral\mcwdt/cy_mcwdt.h **** __STATIC_INLINE void     Cy_MCWDT_Lock(MCWDT_STRUCT_Type *base);
 312:Generated_Source\PSoC6\pdl\drivers\peripheral\mcwdt/cy_mcwdt.h **** __STATIC_INLINE void     Cy_MCWDT_Unlock(MCWDT_STRUCT_Type *base);
 313:Generated_Source\PSoC6\pdl\drivers\peripheral\mcwdt/cy_mcwdt.h **** __STATIC_INLINE uint32_t Cy_MCWDT_GetLockedStatus(MCWDT_STRUCT_Type const *base);
 314:Generated_Source\PSoC6\pdl\drivers\peripheral\mcwdt/cy_mcwdt.h **** __STATIC_INLINE void     Cy_MCWDT_SetMode(MCWDT_STRUCT_Type *base, cy_en_mcwdtctr_t counter, cy_en_
 315:Generated_Source\PSoC6\pdl\drivers\peripheral\mcwdt/cy_mcwdt.h **** __STATIC_INLINE cy_en_mcwdtmode_t Cy_MCWDT_GetMode(MCWDT_STRUCT_Type const *base, cy_en_mcwdtctr_t 
 316:Generated_Source\PSoC6\pdl\drivers\peripheral\mcwdt/cy_mcwdt.h **** __STATIC_INLINE void     Cy_MCWDT_SetClearOnMatch(MCWDT_STRUCT_Type *base, cy_en_mcwdtctr_t counter
 317:Generated_Source\PSoC6\pdl\drivers\peripheral\mcwdt/cy_mcwdt.h **** __STATIC_INLINE uint32_t Cy_MCWDT_GetClearOnMatch(MCWDT_STRUCT_Type const *base, cy_en_mcwdtctr_t c
 318:Generated_Source\PSoC6\pdl\drivers\peripheral\mcwdt/cy_mcwdt.h **** __STATIC_INLINE void     Cy_MCWDT_SetCascade(MCWDT_STRUCT_Type *base, cy_en_mcwdtcascade_t cascade)
 319:Generated_Source\PSoC6\pdl\drivers\peripheral\mcwdt/cy_mcwdt.h **** __STATIC_INLINE cy_en_mcwdtcascade_t Cy_MCWDT_GetCascade(MCWDT_STRUCT_Type const *base);
 320:Generated_Source\PSoC6\pdl\drivers\peripheral\mcwdt/cy_mcwdt.h **** __STATIC_INLINE void     Cy_MCWDT_SetMatch(MCWDT_STRUCT_Type *base, cy_en_mcwdtctr_t counter, uint3
 321:Generated_Source\PSoC6\pdl\drivers\peripheral\mcwdt/cy_mcwdt.h **** __STATIC_INLINE uint32_t Cy_MCWDT_GetMatch(MCWDT_STRUCT_Type const *base, cy_en_mcwdtctr_t counter)
 322:Generated_Source\PSoC6\pdl\drivers\peripheral\mcwdt/cy_mcwdt.h **** __STATIC_INLINE void     Cy_MCWDT_SetToggleBit(MCWDT_STRUCT_Type *base, uint32_t bit);
 323:Generated_Source\PSoC6\pdl\drivers\peripheral\mcwdt/cy_mcwdt.h **** __STATIC_INLINE uint32_t Cy_MCWDT_GetToggleBit(MCWDT_STRUCT_Type const *base);
 324:Generated_Source\PSoC6\pdl\drivers\peripheral\mcwdt/cy_mcwdt.h **** __STATIC_INLINE uint32_t Cy_MCWDT_GetCount(MCWDT_STRUCT_Type const *base, cy_en_mcwdtctr_t counter)
 325:Generated_Source\PSoC6\pdl\drivers\peripheral\mcwdt/cy_mcwdt.h **** __STATIC_INLINE void     Cy_MCWDT_ResetCounters(MCWDT_STRUCT_Type *base, uint32_t counters, uint16_
 326:Generated_Source\PSoC6\pdl\drivers\peripheral\mcwdt/cy_mcwdt.h **** __STATIC_INLINE uint32_t Cy_MCWDT_GetInterruptStatus(MCWDT_STRUCT_Type const *base);
 327:Generated_Source\PSoC6\pdl\drivers\peripheral\mcwdt/cy_mcwdt.h **** __STATIC_INLINE void     Cy_MCWDT_ClearInterrupt(MCWDT_STRUCT_Type *base, uint32_t counters);
 328:Generated_Source\PSoC6\pdl\drivers\peripheral\mcwdt/cy_mcwdt.h **** __STATIC_INLINE void     Cy_MCWDT_SetInterrupt(MCWDT_STRUCT_Type *base, uint32_t counters);
 329:Generated_Source\PSoC6\pdl\drivers\peripheral\mcwdt/cy_mcwdt.h **** __STATIC_INLINE uint32_t Cy_MCWDT_GetInterruptMask(MCWDT_STRUCT_Type const *base);
 330:Generated_Source\PSoC6\pdl\drivers\peripheral\mcwdt/cy_mcwdt.h **** __STATIC_INLINE void     Cy_MCWDT_SetInterruptMask(MCWDT_STRUCT_Type *base, uint32_t counters);
 331:Generated_Source\PSoC6\pdl\drivers\peripheral\mcwdt/cy_mcwdt.h **** __STATIC_INLINE uint32_t Cy_MCWDT_GetInterruptStatusMasked(MCWDT_STRUCT_Type const *base);
 332:Generated_Source\PSoC6\pdl\drivers\peripheral\mcwdt/cy_mcwdt.h **** uint32_t Cy_MCWDT_GetCountCascaded(MCWDT_STRUCT_Type const *base);
 333:Generated_Source\PSoC6\pdl\drivers\peripheral\mcwdt/cy_mcwdt.h **** 
 334:Generated_Source\PSoC6\pdl\drivers\peripheral\mcwdt/cy_mcwdt.h **** 
 335:Generated_Source\PSoC6\pdl\drivers\peripheral\mcwdt/cy_mcwdt.h **** /*******************************************************************************
 336:Generated_Source\PSoC6\pdl\drivers\peripheral\mcwdt/cy_mcwdt.h **** * Function Name: Cy_MCWDT_Enable
 337:Generated_Source\PSoC6\pdl\drivers\peripheral\mcwdt/cy_mcwdt.h **** ****************************************************************************//**
 338:Generated_Source\PSoC6\pdl\drivers\peripheral\mcwdt/cy_mcwdt.h **** *
 339:Generated_Source\PSoC6\pdl\drivers\peripheral\mcwdt/cy_mcwdt.h **** *  Enables all specified counters.
 340:Generated_Source\PSoC6\pdl\drivers\peripheral\mcwdt/cy_mcwdt.h **** *
 341:Generated_Source\PSoC6\pdl\drivers\peripheral\mcwdt/cy_mcwdt.h **** *  \param base
ARM GAS  C:\Users\salaz\AppData\Local\Temp\ccRE1Zmc.s 			page 13


 342:Generated_Source\PSoC6\pdl\drivers\peripheral\mcwdt/cy_mcwdt.h **** *  The base pointer to a structure that describes registers.
 343:Generated_Source\PSoC6\pdl\drivers\peripheral\mcwdt/cy_mcwdt.h **** *
 344:Generated_Source\PSoC6\pdl\drivers\peripheral\mcwdt/cy_mcwdt.h **** *  \param counters
 345:Generated_Source\PSoC6\pdl\drivers\peripheral\mcwdt/cy_mcwdt.h **** *  OR of all counters to enable. See the \ref CY_MCWDT_CTR0, CY_MCWDT_CTR1, and
 346:Generated_Source\PSoC6\pdl\drivers\peripheral\mcwdt/cy_mcwdt.h **** *  CY_MCWDT_CTR2  macros.
 347:Generated_Source\PSoC6\pdl\drivers\peripheral\mcwdt/cy_mcwdt.h **** *
 348:Generated_Source\PSoC6\pdl\drivers\peripheral\mcwdt/cy_mcwdt.h **** *  \param waitUs
 349:Generated_Source\PSoC6\pdl\drivers\peripheral\mcwdt/cy_mcwdt.h **** *  The function waits for some delay in microseconds before returning, 
 350:Generated_Source\PSoC6\pdl\drivers\peripheral\mcwdt/cy_mcwdt.h **** *  because the counter begins counting after two lf_clk cycles pass. 
 351:Generated_Source\PSoC6\pdl\drivers\peripheral\mcwdt/cy_mcwdt.h **** *  The recommended value is 93 us.
 352:Generated_Source\PSoC6\pdl\drivers\peripheral\mcwdt/cy_mcwdt.h **** *  \note
 353:Generated_Source\PSoC6\pdl\drivers\peripheral\mcwdt/cy_mcwdt.h **** *  Setting this parameter to a zero means No wait. In this case, it is
 354:Generated_Source\PSoC6\pdl\drivers\peripheral\mcwdt/cy_mcwdt.h **** *  the user's responsibility to check whether the selected counters were enabled 
 355:Generated_Source\PSoC6\pdl\drivers\peripheral\mcwdt/cy_mcwdt.h **** *  immediately after the function call. This can be done by the 
 356:Generated_Source\PSoC6\pdl\drivers\peripheral\mcwdt/cy_mcwdt.h **** *  Cy_MCWDT_GetEnabledStatus() API.
 357:Generated_Source\PSoC6\pdl\drivers\peripheral\mcwdt/cy_mcwdt.h **** *
 358:Generated_Source\PSoC6\pdl\drivers\peripheral\mcwdt/cy_mcwdt.h **** *******************************************************************************/
 359:Generated_Source\PSoC6\pdl\drivers\peripheral\mcwdt/cy_mcwdt.h **** __STATIC_INLINE void Cy_MCWDT_Enable(MCWDT_STRUCT_Type *base, uint32_t counters, uint16_t waitUs)
 360:Generated_Source\PSoC6\pdl\drivers\peripheral\mcwdt/cy_mcwdt.h **** {
 361:Generated_Source\PSoC6\pdl\drivers\peripheral\mcwdt/cy_mcwdt.h ****     uint32_t enableCounters;
 362:Generated_Source\PSoC6\pdl\drivers\peripheral\mcwdt/cy_mcwdt.h **** 
 363:Generated_Source\PSoC6\pdl\drivers\peripheral\mcwdt/cy_mcwdt.h ****     CY_ASSERT_L2(CY_MCWDT_IS_CNTS_MASK_VALID(counters));
 364:Generated_Source\PSoC6\pdl\drivers\peripheral\mcwdt/cy_mcwdt.h ****     
 365:Generated_Source\PSoC6\pdl\drivers\peripheral\mcwdt/cy_mcwdt.h ****     /* Extract particular counters for enable */
 366:Generated_Source\PSoC6\pdl\drivers\peripheral\mcwdt/cy_mcwdt.h ****     enableCounters = ((0UL != (counters & CY_MCWDT_CTR0)) ? MCWDT_STRUCT_MCWDT_CTL_WDT_ENABLE0_Msk 
 367:Generated_Source\PSoC6\pdl\drivers\peripheral\mcwdt/cy_mcwdt.h ****                      ((0UL != (counters & CY_MCWDT_CTR1)) ? MCWDT_STRUCT_MCWDT_CTL_WDT_ENABLE1_Msk 
 368:Generated_Source\PSoC6\pdl\drivers\peripheral\mcwdt/cy_mcwdt.h ****                      ((0UL != (counters & CY_MCWDT_CTR2)) ? MCWDT_STRUCT_MCWDT_CTL_WDT_ENABLE2_Msk 
 369:Generated_Source\PSoC6\pdl\drivers\peripheral\mcwdt/cy_mcwdt.h **** 
 370:Generated_Source\PSoC6\pdl\drivers\peripheral\mcwdt/cy_mcwdt.h ****     base->MCWDT_CTL |= enableCounters;
 371:Generated_Source\PSoC6\pdl\drivers\peripheral\mcwdt/cy_mcwdt.h **** 
 372:Generated_Source\PSoC6\pdl\drivers\peripheral\mcwdt/cy_mcwdt.h ****     Cy_SysLib_DelayUs(waitUs);
 373:Generated_Source\PSoC6\pdl\drivers\peripheral\mcwdt/cy_mcwdt.h **** }
 374:Generated_Source\PSoC6\pdl\drivers\peripheral\mcwdt/cy_mcwdt.h **** 
 375:Generated_Source\PSoC6\pdl\drivers\peripheral\mcwdt/cy_mcwdt.h **** 
 376:Generated_Source\PSoC6\pdl\drivers\peripheral\mcwdt/cy_mcwdt.h **** /*******************************************************************************
 377:Generated_Source\PSoC6\pdl\drivers\peripheral\mcwdt/cy_mcwdt.h **** * Function Name: Cy_MCWDT_Disable
 378:Generated_Source\PSoC6\pdl\drivers\peripheral\mcwdt/cy_mcwdt.h **** ****************************************************************************//**
 379:Generated_Source\PSoC6\pdl\drivers\peripheral\mcwdt/cy_mcwdt.h **** *
 380:Generated_Source\PSoC6\pdl\drivers\peripheral\mcwdt/cy_mcwdt.h **** *  Disables all specified counters.
 381:Generated_Source\PSoC6\pdl\drivers\peripheral\mcwdt/cy_mcwdt.h **** *
 382:Generated_Source\PSoC6\pdl\drivers\peripheral\mcwdt/cy_mcwdt.h **** *  \param base
 383:Generated_Source\PSoC6\pdl\drivers\peripheral\mcwdt/cy_mcwdt.h **** *  The base pointer to a structure describing registers.
 384:Generated_Source\PSoC6\pdl\drivers\peripheral\mcwdt/cy_mcwdt.h **** *
 385:Generated_Source\PSoC6\pdl\drivers\peripheral\mcwdt/cy_mcwdt.h **** *  \param counters
 386:Generated_Source\PSoC6\pdl\drivers\peripheral\mcwdt/cy_mcwdt.h **** *  OR of all counters to disable. See the \ref CY_MCWDT_CTR0, CY_MCWDT_CTR1, and
 387:Generated_Source\PSoC6\pdl\drivers\peripheral\mcwdt/cy_mcwdt.h **** *  CY_MCWDT_CTR2 macros.
 388:Generated_Source\PSoC6\pdl\drivers\peripheral\mcwdt/cy_mcwdt.h **** *
 389:Generated_Source\PSoC6\pdl\drivers\peripheral\mcwdt/cy_mcwdt.h **** *  \param waitUs
 390:Generated_Source\PSoC6\pdl\drivers\peripheral\mcwdt/cy_mcwdt.h **** *  The function waits for some delay in microseconds before returning, 
 391:Generated_Source\PSoC6\pdl\drivers\peripheral\mcwdt/cy_mcwdt.h **** *  because the counter stops counting after two lf_clk cycles pass. 
 392:Generated_Source\PSoC6\pdl\drivers\peripheral\mcwdt/cy_mcwdt.h **** *  The recommended value is 93 us.
 393:Generated_Source\PSoC6\pdl\drivers\peripheral\mcwdt/cy_mcwdt.h **** *  \note
 394:Generated_Source\PSoC6\pdl\drivers\peripheral\mcwdt/cy_mcwdt.h **** *  Setting this parameter to a zero means No wait. In this case, it is 
 395:Generated_Source\PSoC6\pdl\drivers\peripheral\mcwdt/cy_mcwdt.h **** *  the user's responsibility to check whether the selected counters were disabled 
 396:Generated_Source\PSoC6\pdl\drivers\peripheral\mcwdt/cy_mcwdt.h **** *  immediately after the function call. This can be done by the 
 397:Generated_Source\PSoC6\pdl\drivers\peripheral\mcwdt/cy_mcwdt.h **** *  Cy_MCWDT_GetEnabledStatus() API.
 398:Generated_Source\PSoC6\pdl\drivers\peripheral\mcwdt/cy_mcwdt.h **** *
ARM GAS  C:\Users\salaz\AppData\Local\Temp\ccRE1Zmc.s 			page 14


 399:Generated_Source\PSoC6\pdl\drivers\peripheral\mcwdt/cy_mcwdt.h **** *******************************************************************************/
 400:Generated_Source\PSoC6\pdl\drivers\peripheral\mcwdt/cy_mcwdt.h **** __STATIC_INLINE void Cy_MCWDT_Disable(MCWDT_STRUCT_Type *base, uint32_t counters, uint16_t waitUs)
 401:Generated_Source\PSoC6\pdl\drivers\peripheral\mcwdt/cy_mcwdt.h **** {
 402:Generated_Source\PSoC6\pdl\drivers\peripheral\mcwdt/cy_mcwdt.h ****     uint32_t disableCounters;
 403:Generated_Source\PSoC6\pdl\drivers\peripheral\mcwdt/cy_mcwdt.h **** 
 404:Generated_Source\PSoC6\pdl\drivers\peripheral\mcwdt/cy_mcwdt.h ****     CY_ASSERT_L2(CY_MCWDT_IS_CNTS_MASK_VALID(counters));
 405:Generated_Source\PSoC6\pdl\drivers\peripheral\mcwdt/cy_mcwdt.h ****     
 406:Generated_Source\PSoC6\pdl\drivers\peripheral\mcwdt/cy_mcwdt.h ****     /* Extract particular counters for disable */
 407:Generated_Source\PSoC6\pdl\drivers\peripheral\mcwdt/cy_mcwdt.h ****     disableCounters = ((0UL != (counters & CY_MCWDT_CTR0)) ? MCWDT_STRUCT_MCWDT_CTL_WDT_ENABLE0_Msk
 408:Generated_Source\PSoC6\pdl\drivers\peripheral\mcwdt/cy_mcwdt.h ****                       ((0UL != (counters & CY_MCWDT_CTR1)) ? MCWDT_STRUCT_MCWDT_CTL_WDT_ENABLE1_Msk
 409:Generated_Source\PSoC6\pdl\drivers\peripheral\mcwdt/cy_mcwdt.h ****                       ((0UL != (counters & CY_MCWDT_CTR2)) ? MCWDT_STRUCT_MCWDT_CTL_WDT_ENABLE2_Msk
 410:Generated_Source\PSoC6\pdl\drivers\peripheral\mcwdt/cy_mcwdt.h **** 
 411:Generated_Source\PSoC6\pdl\drivers\peripheral\mcwdt/cy_mcwdt.h ****     base->MCWDT_CTL &= ~disableCounters;
 412:Generated_Source\PSoC6\pdl\drivers\peripheral\mcwdt/cy_mcwdt.h **** 
 413:Generated_Source\PSoC6\pdl\drivers\peripheral\mcwdt/cy_mcwdt.h ****     Cy_SysLib_DelayUs(waitUs);
 414:Generated_Source\PSoC6\pdl\drivers\peripheral\mcwdt/cy_mcwdt.h **** }
 415:Generated_Source\PSoC6\pdl\drivers\peripheral\mcwdt/cy_mcwdt.h **** 
 416:Generated_Source\PSoC6\pdl\drivers\peripheral\mcwdt/cy_mcwdt.h **** 
 417:Generated_Source\PSoC6\pdl\drivers\peripheral\mcwdt/cy_mcwdt.h **** /*******************************************************************************
 418:Generated_Source\PSoC6\pdl\drivers\peripheral\mcwdt/cy_mcwdt.h **** * Function Name: Cy_MCWDT_GetEnabledStatus
 419:Generated_Source\PSoC6\pdl\drivers\peripheral\mcwdt/cy_mcwdt.h **** ****************************************************************************//**
 420:Generated_Source\PSoC6\pdl\drivers\peripheral\mcwdt/cy_mcwdt.h **** *
 421:Generated_Source\PSoC6\pdl\drivers\peripheral\mcwdt/cy_mcwdt.h **** *  Reports the enabled status of the specified counter.
 422:Generated_Source\PSoC6\pdl\drivers\peripheral\mcwdt/cy_mcwdt.h **** *
 423:Generated_Source\PSoC6\pdl\drivers\peripheral\mcwdt/cy_mcwdt.h **** *  \param base
 424:Generated_Source\PSoC6\pdl\drivers\peripheral\mcwdt/cy_mcwdt.h **** *  The base pointer to a structure that describes registers.
 425:Generated_Source\PSoC6\pdl\drivers\peripheral\mcwdt/cy_mcwdt.h **** *
 426:Generated_Source\PSoC6\pdl\drivers\peripheral\mcwdt/cy_mcwdt.h **** *  \param counter
 427:Generated_Source\PSoC6\pdl\drivers\peripheral\mcwdt/cy_mcwdt.h **** *  The number of the MCWDT counter. The valid range is [0-2].
 428:Generated_Source\PSoC6\pdl\drivers\peripheral\mcwdt/cy_mcwdt.h **** *
 429:Generated_Source\PSoC6\pdl\drivers\peripheral\mcwdt/cy_mcwdt.h **** *  \return
 430:Generated_Source\PSoC6\pdl\drivers\peripheral\mcwdt/cy_mcwdt.h **** *  The status of the MCWDT counter: 0 = disabled, 1 = enabled.
 431:Generated_Source\PSoC6\pdl\drivers\peripheral\mcwdt/cy_mcwdt.h **** *
 432:Generated_Source\PSoC6\pdl\drivers\peripheral\mcwdt/cy_mcwdt.h **** *******************************************************************************/
 433:Generated_Source\PSoC6\pdl\drivers\peripheral\mcwdt/cy_mcwdt.h **** __STATIC_INLINE uint32_t Cy_MCWDT_GetEnabledStatus(MCWDT_STRUCT_Type const *base, cy_en_mcwdtctr_t 
 434:Generated_Source\PSoC6\pdl\drivers\peripheral\mcwdt/cy_mcwdt.h **** {
 435:Generated_Source\PSoC6\pdl\drivers\peripheral\mcwdt/cy_mcwdt.h ****     uint32_t status = 0u;
 436:Generated_Source\PSoC6\pdl\drivers\peripheral\mcwdt/cy_mcwdt.h **** 
 437:Generated_Source\PSoC6\pdl\drivers\peripheral\mcwdt/cy_mcwdt.h ****     CY_ASSERT_L3(CY_MCWDT_IS_CNT_NUM_VALID(counter));
 438:Generated_Source\PSoC6\pdl\drivers\peripheral\mcwdt/cy_mcwdt.h ****     
 439:Generated_Source\PSoC6\pdl\drivers\peripheral\mcwdt/cy_mcwdt.h ****     switch (counter)
 440:Generated_Source\PSoC6\pdl\drivers\peripheral\mcwdt/cy_mcwdt.h ****     {
 441:Generated_Source\PSoC6\pdl\drivers\peripheral\mcwdt/cy_mcwdt.h ****         case CY_MCWDT_COUNTER0:
 442:Generated_Source\PSoC6\pdl\drivers\peripheral\mcwdt/cy_mcwdt.h ****             status = _FLD2VAL(MCWDT_STRUCT_MCWDT_CTL_WDT_ENABLED0, base->MCWDT_CTL);
 443:Generated_Source\PSoC6\pdl\drivers\peripheral\mcwdt/cy_mcwdt.h ****             break;
 444:Generated_Source\PSoC6\pdl\drivers\peripheral\mcwdt/cy_mcwdt.h ****         case CY_MCWDT_COUNTER1:
 445:Generated_Source\PSoC6\pdl\drivers\peripheral\mcwdt/cy_mcwdt.h ****             status = _FLD2VAL(MCWDT_STRUCT_MCWDT_CTL_WDT_ENABLED1, base->MCWDT_CTL);
 446:Generated_Source\PSoC6\pdl\drivers\peripheral\mcwdt/cy_mcwdt.h ****             break;
 447:Generated_Source\PSoC6\pdl\drivers\peripheral\mcwdt/cy_mcwdt.h ****         case CY_MCWDT_COUNTER2:
 448:Generated_Source\PSoC6\pdl\drivers\peripheral\mcwdt/cy_mcwdt.h ****             status = _FLD2VAL(MCWDT_STRUCT_MCWDT_CTL_WDT_ENABLED2, base->MCWDT_CTL);
 449:Generated_Source\PSoC6\pdl\drivers\peripheral\mcwdt/cy_mcwdt.h ****             break;
 450:Generated_Source\PSoC6\pdl\drivers\peripheral\mcwdt/cy_mcwdt.h **** 
 451:Generated_Source\PSoC6\pdl\drivers\peripheral\mcwdt/cy_mcwdt.h ****         default:
 452:Generated_Source\PSoC6\pdl\drivers\peripheral\mcwdt/cy_mcwdt.h ****             CY_ASSERT(0u != 0u);
 453:Generated_Source\PSoC6\pdl\drivers\peripheral\mcwdt/cy_mcwdt.h ****         break;
 454:Generated_Source\PSoC6\pdl\drivers\peripheral\mcwdt/cy_mcwdt.h ****     }
 455:Generated_Source\PSoC6\pdl\drivers\peripheral\mcwdt/cy_mcwdt.h **** 
ARM GAS  C:\Users\salaz\AppData\Local\Temp\ccRE1Zmc.s 			page 15


 456:Generated_Source\PSoC6\pdl\drivers\peripheral\mcwdt/cy_mcwdt.h ****     return (status);
 457:Generated_Source\PSoC6\pdl\drivers\peripheral\mcwdt/cy_mcwdt.h **** }
 458:Generated_Source\PSoC6\pdl\drivers\peripheral\mcwdt/cy_mcwdt.h **** 
 459:Generated_Source\PSoC6\pdl\drivers\peripheral\mcwdt/cy_mcwdt.h **** 
 460:Generated_Source\PSoC6\pdl\drivers\peripheral\mcwdt/cy_mcwdt.h **** /*******************************************************************************
 461:Generated_Source\PSoC6\pdl\drivers\peripheral\mcwdt/cy_mcwdt.h **** * Function Name: Cy_MCWDT_Lock
 462:Generated_Source\PSoC6\pdl\drivers\peripheral\mcwdt/cy_mcwdt.h **** ****************************************************************************//**
 463:Generated_Source\PSoC6\pdl\drivers\peripheral\mcwdt/cy_mcwdt.h **** *
 464:Generated_Source\PSoC6\pdl\drivers\peripheral\mcwdt/cy_mcwdt.h **** *  Locks out configuration changes to all MCWDT registers.
 465:Generated_Source\PSoC6\pdl\drivers\peripheral\mcwdt/cy_mcwdt.h **** *
 466:Generated_Source\PSoC6\pdl\drivers\peripheral\mcwdt/cy_mcwdt.h **** *  \param base
 467:Generated_Source\PSoC6\pdl\drivers\peripheral\mcwdt/cy_mcwdt.h **** *  The base pointer to a structure that describes registers.
 468:Generated_Source\PSoC6\pdl\drivers\peripheral\mcwdt/cy_mcwdt.h **** *
 469:Generated_Source\PSoC6\pdl\drivers\peripheral\mcwdt/cy_mcwdt.h **** *******************************************************************************/
 470:Generated_Source\PSoC6\pdl\drivers\peripheral\mcwdt/cy_mcwdt.h **** __STATIC_INLINE void Cy_MCWDT_Lock(MCWDT_STRUCT_Type *base)
 471:Generated_Source\PSoC6\pdl\drivers\peripheral\mcwdt/cy_mcwdt.h **** {
 472:Generated_Source\PSoC6\pdl\drivers\peripheral\mcwdt/cy_mcwdt.h ****     uint32_t interruptState;
 473:Generated_Source\PSoC6\pdl\drivers\peripheral\mcwdt/cy_mcwdt.h **** 
 474:Generated_Source\PSoC6\pdl\drivers\peripheral\mcwdt/cy_mcwdt.h ****     interruptState = Cy_SysLib_EnterCriticalSection();
 475:Generated_Source\PSoC6\pdl\drivers\peripheral\mcwdt/cy_mcwdt.h **** 
 476:Generated_Source\PSoC6\pdl\drivers\peripheral\mcwdt/cy_mcwdt.h ****     base->MCWDT_LOCK = _CLR_SET_FLD32U(base->MCWDT_LOCK, MCWDT_STRUCT_MCWDT_LOCK_MCWDT_LOCK, (uint3
 477:Generated_Source\PSoC6\pdl\drivers\peripheral\mcwdt/cy_mcwdt.h **** 
 478:Generated_Source\PSoC6\pdl\drivers\peripheral\mcwdt/cy_mcwdt.h ****     Cy_SysLib_ExitCriticalSection(interruptState);
 479:Generated_Source\PSoC6\pdl\drivers\peripheral\mcwdt/cy_mcwdt.h **** }
 480:Generated_Source\PSoC6\pdl\drivers\peripheral\mcwdt/cy_mcwdt.h **** 
 481:Generated_Source\PSoC6\pdl\drivers\peripheral\mcwdt/cy_mcwdt.h **** 
 482:Generated_Source\PSoC6\pdl\drivers\peripheral\mcwdt/cy_mcwdt.h **** /*******************************************************************************
 483:Generated_Source\PSoC6\pdl\drivers\peripheral\mcwdt/cy_mcwdt.h **** * Function Name: Cy_MCWDT_Unlock
 484:Generated_Source\PSoC6\pdl\drivers\peripheral\mcwdt/cy_mcwdt.h **** ****************************************************************************//**
 485:Generated_Source\PSoC6\pdl\drivers\peripheral\mcwdt/cy_mcwdt.h **** *
 486:Generated_Source\PSoC6\pdl\drivers\peripheral\mcwdt/cy_mcwdt.h **** *  Unlocks the MCWDT configuration registers.
 487:Generated_Source\PSoC6\pdl\drivers\peripheral\mcwdt/cy_mcwdt.h **** *
 488:Generated_Source\PSoC6\pdl\drivers\peripheral\mcwdt/cy_mcwdt.h **** *  \param base
 489:Generated_Source\PSoC6\pdl\drivers\peripheral\mcwdt/cy_mcwdt.h **** *  The base pointer to a structure that describes registers.
 490:Generated_Source\PSoC6\pdl\drivers\peripheral\mcwdt/cy_mcwdt.h **** *
 491:Generated_Source\PSoC6\pdl\drivers\peripheral\mcwdt/cy_mcwdt.h **** *******************************************************************************/
 492:Generated_Source\PSoC6\pdl\drivers\peripheral\mcwdt/cy_mcwdt.h **** __STATIC_INLINE void Cy_MCWDT_Unlock(MCWDT_STRUCT_Type *base)
 493:Generated_Source\PSoC6\pdl\drivers\peripheral\mcwdt/cy_mcwdt.h **** {
 494:Generated_Source\PSoC6\pdl\drivers\peripheral\mcwdt/cy_mcwdt.h ****     uint32_t interruptState;
 495:Generated_Source\PSoC6\pdl\drivers\peripheral\mcwdt/cy_mcwdt.h **** 
 496:Generated_Source\PSoC6\pdl\drivers\peripheral\mcwdt/cy_mcwdt.h ****     interruptState = Cy_SysLib_EnterCriticalSection();
 244              		.loc 2 496 0
 245 0004 FFF7FEFF 		bl	Cy_SysLib_EnterCriticalSection
 246              	.LVL17:
 497:Generated_Source\PSoC6\pdl\drivers\peripheral\mcwdt/cy_mcwdt.h **** 
 498:Generated_Source\PSoC6\pdl\drivers\peripheral\mcwdt/cy_mcwdt.h ****     base->MCWDT_LOCK = _CLR_SET_FLD32U(base->MCWDT_LOCK, MCWDT_STRUCT_MCWDT_LOCK_MCWDT_LOCK, (uint3
 247              		.loc 2 498 0
 248 0008 A36A     		ldr	r3, [r4, #40]
 249 000a 23F04043 		bic	r3, r3, #-1073741824
 250 000e 43F08043 		orr	r3, r3, #1073741824
 251 0012 A362     		str	r3, [r4, #40]
 499:Generated_Source\PSoC6\pdl\drivers\peripheral\mcwdt/cy_mcwdt.h ****     base->MCWDT_LOCK = _CLR_SET_FLD32U(base->MCWDT_LOCK, MCWDT_STRUCT_MCWDT_LOCK_MCWDT_LOCK, (uint3
 252              		.loc 2 499 0
 253 0014 A36A     		ldr	r3, [r4, #40]
 254 0016 23F04043 		bic	r3, r3, #-1073741824
 255 001a 43F00043 		orr	r3, r3, #-2147483648
 256 001e A362     		str	r3, [r4, #40]
ARM GAS  C:\Users\salaz\AppData\Local\Temp\ccRE1Zmc.s 			page 16


 500:Generated_Source\PSoC6\pdl\drivers\peripheral\mcwdt/cy_mcwdt.h **** 
 501:Generated_Source\PSoC6\pdl\drivers\peripheral\mcwdt/cy_mcwdt.h ****     Cy_SysLib_ExitCriticalSection(interruptState);
 257              		.loc 2 501 0
 258 0020 FFF7FEFF 		bl	Cy_SysLib_ExitCriticalSection
 259              	.LVL18:
 260              	.LBE5:
 261              	.LBE4:
  89:Generated_Source\PSoC6\pdl\drivers\peripheral\mcwdt/cy_mcwdt.c ****     Cy_MCWDT_Unlock(base);
  90:Generated_Source\PSoC6\pdl\drivers\peripheral\mcwdt/cy_mcwdt.c **** 
  91:Generated_Source\PSoC6\pdl\drivers\peripheral\mcwdt/cy_mcwdt.c ****     base->MCWDT_CNTLOW    = 0UL;
 262              		.loc 1 91 0
 263 0024 0023     		movs	r3, #0
 264 0026 6360     		str	r3, [r4, #4]
  92:Generated_Source\PSoC6\pdl\drivers\peripheral\mcwdt/cy_mcwdt.c ****     base->MCWDT_CNTHIGH   = 0UL;
 265              		.loc 1 92 0
 266 0028 A360     		str	r3, [r4, #8]
  93:Generated_Source\PSoC6\pdl\drivers\peripheral\mcwdt/cy_mcwdt.c ****     base->MCWDT_MATCH     = 0UL;
 267              		.loc 1 93 0
 268 002a E360     		str	r3, [r4, #12]
  94:Generated_Source\PSoC6\pdl\drivers\peripheral\mcwdt/cy_mcwdt.c ****     base->MCWDT_CONFIG    = 0UL;
 269              		.loc 1 94 0
 270 002c 2361     		str	r3, [r4, #16]
  95:Generated_Source\PSoC6\pdl\drivers\peripheral\mcwdt/cy_mcwdt.c ****     base->MCWDT_CTL       = 0UL;
 271              		.loc 1 95 0
 272 002e 6361     		str	r3, [r4, #20]
  96:Generated_Source\PSoC6\pdl\drivers\peripheral\mcwdt/cy_mcwdt.c ****     base->MCWDT_INTR      = 0UL;
 273              		.loc 1 96 0
 274 0030 A361     		str	r3, [r4, #24]
  97:Generated_Source\PSoC6\pdl\drivers\peripheral\mcwdt/cy_mcwdt.c ****     base->MCWDT_INTR_SET  = 0UL;
 275              		.loc 1 97 0
 276 0032 E361     		str	r3, [r4, #28]
  98:Generated_Source\PSoC6\pdl\drivers\peripheral\mcwdt/cy_mcwdt.c ****     base->MCWDT_INTR_MASK = 0UL;
 277              		.loc 1 98 0
 278 0034 2362     		str	r3, [r4, #32]
 279 0036 10BD     		pop	{r4, pc}
 280              		.cfi_endproc
 281              	.LFE150:
 282              		.size	Cy_MCWDT_DeInit, .-Cy_MCWDT_DeInit
 283              		.section	.text.Cy_MCWDT_GetCountCascaded,"ax",%progbits
 284              		.align	2
 285              		.global	Cy_MCWDT_GetCountCascaded
 286              		.thumb
 287              		.thumb_func
 288              		.type	Cy_MCWDT_GetCountCascaded, %function
 289              	Cy_MCWDT_GetCountCascaded:
 290              	.LFB151:
  99:Generated_Source\PSoC6\pdl\drivers\peripheral\mcwdt/cy_mcwdt.c **** }
 100:Generated_Source\PSoC6\pdl\drivers\peripheral\mcwdt/cy_mcwdt.c **** 
 101:Generated_Source\PSoC6\pdl\drivers\peripheral\mcwdt/cy_mcwdt.c **** 
 102:Generated_Source\PSoC6\pdl\drivers\peripheral\mcwdt/cy_mcwdt.c **** /*******************************************************************************
 103:Generated_Source\PSoC6\pdl\drivers\peripheral\mcwdt/cy_mcwdt.c **** * Function Name: Cy_MCWDT_GetCountCascaded
 104:Generated_Source\PSoC6\pdl\drivers\peripheral\mcwdt/cy_mcwdt.c **** ****************************************************************************//**
 105:Generated_Source\PSoC6\pdl\drivers\peripheral\mcwdt/cy_mcwdt.c **** *
 106:Generated_Source\PSoC6\pdl\drivers\peripheral\mcwdt/cy_mcwdt.c **** *  Reports the current value of combined C1-C0 cascaded counters.
 107:Generated_Source\PSoC6\pdl\drivers\peripheral\mcwdt/cy_mcwdt.c **** *
 108:Generated_Source\PSoC6\pdl\drivers\peripheral\mcwdt/cy_mcwdt.c **** *  \param base
 109:Generated_Source\PSoC6\pdl\drivers\peripheral\mcwdt/cy_mcwdt.c **** *  The base pointer to a structure that describes the registers.
ARM GAS  C:\Users\salaz\AppData\Local\Temp\ccRE1Zmc.s 			page 17


 110:Generated_Source\PSoC6\pdl\drivers\peripheral\mcwdt/cy_mcwdt.c **** *
 111:Generated_Source\PSoC6\pdl\drivers\peripheral\mcwdt/cy_mcwdt.c **** *  \note
 112:Generated_Source\PSoC6\pdl\drivers\peripheral\mcwdt/cy_mcwdt.c **** *  The user must enable both counters, and cascade C0 to C1, 
 113:Generated_Source\PSoC6\pdl\drivers\peripheral\mcwdt/cy_mcwdt.c **** *  before calling this function. C2 is not reported. 
 114:Generated_Source\PSoC6\pdl\drivers\peripheral\mcwdt/cy_mcwdt.c **** *  Instead, to get a 64-bit C2-C1-C0 cascaded value, the
 115:Generated_Source\PSoC6\pdl\drivers\peripheral\mcwdt/cy_mcwdt.c **** *  user must call this function followed by
 116:Generated_Source\PSoC6\pdl\drivers\peripheral\mcwdt/cy_mcwdt.c **** *  Cy_MCWDT_GetCount(base, CY_MCWDT_COUNTER2), and then combine the results.
 117:Generated_Source\PSoC6\pdl\drivers\peripheral\mcwdt/cy_mcwdt.c **** *  \note This function does not return the correct result when it is called 
 118:Generated_Source\PSoC6\pdl\drivers\peripheral\mcwdt/cy_mcwdt.c **** *  after the Cy_MCWDT_Enable() or Cy_MCWDT_ResetCounters() function with 
 119:Generated_Source\PSoC6\pdl\drivers\peripheral\mcwdt/cy_mcwdt.c **** *  a delay less than two lf_clk cycles. The recommended waitUs parameter 
 120:Generated_Source\PSoC6\pdl\drivers\peripheral\mcwdt/cy_mcwdt.c **** *  value is 100 us.
 121:Generated_Source\PSoC6\pdl\drivers\peripheral\mcwdt/cy_mcwdt.c **** *
 122:Generated_Source\PSoC6\pdl\drivers\peripheral\mcwdt/cy_mcwdt.c **** *******************************************************************************/
 123:Generated_Source\PSoC6\pdl\drivers\peripheral\mcwdt/cy_mcwdt.c **** uint32_t Cy_MCWDT_GetCountCascaded(MCWDT_STRUCT_Type const *base)
 124:Generated_Source\PSoC6\pdl\drivers\peripheral\mcwdt/cy_mcwdt.c **** {
 291              		.loc 1 124 0
 292              		.cfi_startproc
 293              		@ args = 0, pretend = 0, frame = 0
 294              		@ frame_needed = 0, uses_anonymous_args = 0
 295              		@ link register save eliminated.
 296              	.LVL19:
 297 0000 30B4     		push	{r4, r5}
 298              		.cfi_def_cfa_offset 8
 299              		.cfi_offset 4, -8
 300              		.cfi_offset 5, -4
 125:Generated_Source\PSoC6\pdl\drivers\peripheral\mcwdt/cy_mcwdt.c ****     uint32_t countVal = base->MCWDT_CNTLOW;
 301              		.loc 1 125 0
 302 0002 4368     		ldr	r3, [r0, #4]
 303              	.LVL20:
 126:Generated_Source\PSoC6\pdl\drivers\peripheral\mcwdt/cy_mcwdt.c ****     uint32_t counter1 = countVal >> MCWDT_STRUCT_MCWDT_CNTLOW_WDT_CTR1_Pos;
 304              		.loc 1 126 0
 305 0004 1A0C     		lsrs	r2, r3, #16
 306              	.LVL21:
 127:Generated_Source\PSoC6\pdl\drivers\peripheral\mcwdt/cy_mcwdt.c ****     uint32_t counter0 = countVal & MCWDT_STRUCT_MCWDT_CNTLOW_WDT_CTR0_Msk;
 307              		.loc 1 127 0
 308 0006 9BB2     		uxth	r3, r3
 309              	.LVL22:
 128:Generated_Source\PSoC6\pdl\drivers\peripheral\mcwdt/cy_mcwdt.c ****     uint32_t match0 = _FLD2VAL(MCWDT_STRUCT_MCWDT_MATCH_WDT_MATCH0, base->MCWDT_MATCH);
 310              		.loc 1 128 0
 311 0008 C168     		ldr	r1, [r0, #12]
 312 000a 89B2     		uxth	r1, r1
 313              	.LVL23:
 129:Generated_Source\PSoC6\pdl\drivers\peripheral\mcwdt/cy_mcwdt.c ****     uint32_t match1 = _FLD2VAL(MCWDT_STRUCT_MCWDT_MATCH_WDT_MATCH1, base->MCWDT_MATCH);
 314              		.loc 1 129 0
 315 000c C468     		ldr	r4, [r0, #12]
 316 000e 240C     		lsrs	r4, r4, #16
 317              	.LVL24:
 130:Generated_Source\PSoC6\pdl\drivers\peripheral\mcwdt/cy_mcwdt.c ****     
 131:Generated_Source\PSoC6\pdl\drivers\peripheral\mcwdt/cy_mcwdt.c ****     /* 
 132:Generated_Source\PSoC6\pdl\drivers\peripheral\mcwdt/cy_mcwdt.c ****      * The counter  counter0 goes to zero when it reaches the match0 
 133:Generated_Source\PSoC6\pdl\drivers\peripheral\mcwdt/cy_mcwdt.c ****      * value (c0ClearOnMatch = 1) or reaches the maximum 
 134:Generated_Source\PSoC6\pdl\drivers\peripheral\mcwdt/cy_mcwdt.c ****      * value (c0ClearOnMatch = 0). The counter counter1 increments on 
 135:Generated_Source\PSoC6\pdl\drivers\peripheral\mcwdt/cy_mcwdt.c ****      * the next rising edge of the MCWDT clock after 
 136:Generated_Source\PSoC6\pdl\drivers\peripheral\mcwdt/cy_mcwdt.c ****      * the Clear On Match event takes place. 
 137:Generated_Source\PSoC6\pdl\drivers\peripheral\mcwdt/cy_mcwdt.c ****      * The software increments counter1 to eliminate the case 
 138:Generated_Source\PSoC6\pdl\drivers\peripheral\mcwdt/cy_mcwdt.c ****      * when the both counter0 and counter1 counters have zeros.      
 139:Generated_Source\PSoC6\pdl\drivers\peripheral\mcwdt/cy_mcwdt.c ****     */
ARM GAS  C:\Users\salaz\AppData\Local\Temp\ccRE1Zmc.s 			page 18


 140:Generated_Source\PSoC6\pdl\drivers\peripheral\mcwdt/cy_mcwdt.c ****     if (0u == counter0)
 318              		.loc 1 140 0
 319 0010 03B9     		cbnz	r3, .L23
 141:Generated_Source\PSoC6\pdl\drivers\peripheral\mcwdt/cy_mcwdt.c ****     {
 142:Generated_Source\PSoC6\pdl\drivers\peripheral\mcwdt/cy_mcwdt.c ****         counter1++;
 320              		.loc 1 142 0
 321 0012 0132     		adds	r2, r2, #1
 322              	.LVL25:
 323              	.L23:
 143:Generated_Source\PSoC6\pdl\drivers\peripheral\mcwdt/cy_mcwdt.c ****     }
 144:Generated_Source\PSoC6\pdl\drivers\peripheral\mcwdt/cy_mcwdt.c **** 
 145:Generated_Source\PSoC6\pdl\drivers\peripheral\mcwdt/cy_mcwdt.c ****     /* Check if the counter0 is Free running */
 146:Generated_Source\PSoC6\pdl\drivers\peripheral\mcwdt/cy_mcwdt.c ****     if (0u == _FLD2VAL(MCWDT_STRUCT_MCWDT_CONFIG_WDT_CLEAR0, base->MCWDT_CONFIG))
 324              		.loc 1 146 0
 325 0014 0569     		ldr	r5, [r0, #16]
 326 0016 15F0040F 		tst	r5, #4
 327 001a 06D1     		bne	.L24
 147:Generated_Source\PSoC6\pdl\drivers\peripheral\mcwdt/cy_mcwdt.c ****     {       
 148:Generated_Source\PSoC6\pdl\drivers\peripheral\mcwdt/cy_mcwdt.c ****         /* Save match0 value with the correction when counter0
 149:Generated_Source\PSoC6\pdl\drivers\peripheral\mcwdt/cy_mcwdt.c ****          *  goes to zero when it reaches the match0 value. 
 150:Generated_Source\PSoC6\pdl\drivers\peripheral\mcwdt/cy_mcwdt.c ****         */
 151:Generated_Source\PSoC6\pdl\drivers\peripheral\mcwdt/cy_mcwdt.c ****         countVal = match0 + 1u;
 328              		.loc 1 151 0
 329 001c 4D1C     		adds	r5, r1, #1
 330              	.LVL26:
 152:Generated_Source\PSoC6\pdl\drivers\peripheral\mcwdt/cy_mcwdt.c ****         
 153:Generated_Source\PSoC6\pdl\drivers\peripheral\mcwdt/cy_mcwdt.c ****         if (0u < counter1) 
 331              		.loc 1 153 0
 332 001e 0AB1     		cbz	r2, .L25
 154:Generated_Source\PSoC6\pdl\drivers\peripheral\mcwdt/cy_mcwdt.c ****         {
 155:Generated_Source\PSoC6\pdl\drivers\peripheral\mcwdt/cy_mcwdt.c ****             /* Set match to the maximum value */
 156:Generated_Source\PSoC6\pdl\drivers\peripheral\mcwdt/cy_mcwdt.c ****             match0 = MCWDT_STRUCT_MCWDT_CNTLOW_WDT_CTR0_Msk; 
 333              		.loc 1 156 0
 334 0020 4FF6FF71 		movw	r1, #65535
 335              	.LVL27:
 336              	.L25:
 157:Generated_Source\PSoC6\pdl\drivers\peripheral\mcwdt/cy_mcwdt.c ****         }
 158:Generated_Source\PSoC6\pdl\drivers\peripheral\mcwdt/cy_mcwdt.c ****         
 159:Generated_Source\PSoC6\pdl\drivers\peripheral\mcwdt/cy_mcwdt.c ****         if (countVal < counter0) 
 337              		.loc 1 159 0
 338 0024 AB42     		cmp	r3, r5
 339 0026 00D9     		bls	.L24
 160:Generated_Source\PSoC6\pdl\drivers\peripheral\mcwdt/cy_mcwdt.c ****         {
 161:Generated_Source\PSoC6\pdl\drivers\peripheral\mcwdt/cy_mcwdt.c ****             /* Decrement counter1 when the counter0 is great than match0 value */
 162:Generated_Source\PSoC6\pdl\drivers\peripheral\mcwdt/cy_mcwdt.c ****             counter1--;
 340              		.loc 1 162 0
 341 0028 013A     		subs	r2, r2, #1
 342              	.LVL28:
 343              	.L24:
 163:Generated_Source\PSoC6\pdl\drivers\peripheral\mcwdt/cy_mcwdt.c ****         }
 164:Generated_Source\PSoC6\pdl\drivers\peripheral\mcwdt/cy_mcwdt.c ****     }
 165:Generated_Source\PSoC6\pdl\drivers\peripheral\mcwdt/cy_mcwdt.c **** 
 166:Generated_Source\PSoC6\pdl\drivers\peripheral\mcwdt/cy_mcwdt.c ****     /* Add the correction to counter0 */
 167:Generated_Source\PSoC6\pdl\drivers\peripheral\mcwdt/cy_mcwdt.c ****     counter0 += counter1;
 344              		.loc 1 167 0
 345 002a 1344     		add	r3, r3, r2
 346              	.LVL29:
ARM GAS  C:\Users\salaz\AppData\Local\Temp\ccRE1Zmc.s 			page 19


 168:Generated_Source\PSoC6\pdl\drivers\peripheral\mcwdt/cy_mcwdt.c ****     
 169:Generated_Source\PSoC6\pdl\drivers\peripheral\mcwdt/cy_mcwdt.c ****     /* Set counter1 match value to 65535 when the counter1 is free running */
 170:Generated_Source\PSoC6\pdl\drivers\peripheral\mcwdt/cy_mcwdt.c ****     if (0u == _FLD2VAL(MCWDT_STRUCT_MCWDT_CONFIG_WDT_CLEAR1, base->MCWDT_CONFIG))
 347              		.loc 1 170 0
 348 002c 0069     		ldr	r0, [r0, #16]
 349              	.LVL30:
 350 002e 10F4806F 		tst	r0, #1024
 351 0032 01D1     		bne	.L26
 171:Generated_Source\PSoC6\pdl\drivers\peripheral\mcwdt/cy_mcwdt.c ****     {
 172:Generated_Source\PSoC6\pdl\drivers\peripheral\mcwdt/cy_mcwdt.c ****         match1 = MCWDT_STRUCT_MCWDT_CNTLOW_WDT_CTR1_Msk >> MCWDT_STRUCT_MCWDT_CNTLOW_WDT_CTR1_Pos;
 352              		.loc 1 172 0
 353 0034 4FF6FF74 		movw	r4, #65535
 354              	.LVL31:
 355              	.L26:
 173:Generated_Source\PSoC6\pdl\drivers\peripheral\mcwdt/cy_mcwdt.c ****     }
 174:Generated_Source\PSoC6\pdl\drivers\peripheral\mcwdt/cy_mcwdt.c **** 
 175:Generated_Source\PSoC6\pdl\drivers\peripheral\mcwdt/cy_mcwdt.c ****     /* Check for overflow */
 176:Generated_Source\PSoC6\pdl\drivers\peripheral\mcwdt/cy_mcwdt.c ****     if (match1 < counter1)
 356              		.loc 1 176 0
 357 0038 A242     		cmp	r2, r4
 358 003a 00D9     		bls	.L27
 177:Generated_Source\PSoC6\pdl\drivers\peripheral\mcwdt/cy_mcwdt.c ****     {
 178:Generated_Source\PSoC6\pdl\drivers\peripheral\mcwdt/cy_mcwdt.c ****         counter1 = 0u;
 359              		.loc 1 178 0
 360 003c 0022     		movs	r2, #0
 361              	.LVL32:
 362              	.L27:
 179:Generated_Source\PSoC6\pdl\drivers\peripheral\mcwdt/cy_mcwdt.c ****     }
 180:Generated_Source\PSoC6\pdl\drivers\peripheral\mcwdt/cy_mcwdt.c **** 
 181:Generated_Source\PSoC6\pdl\drivers\peripheral\mcwdt/cy_mcwdt.c ****     /* Calculate the combined value for C1-C0 cascaded counters */
 182:Generated_Source\PSoC6\pdl\drivers\peripheral\mcwdt/cy_mcwdt.c ****     countVal = counter0 + (counter1 * match0);
 183:Generated_Source\PSoC6\pdl\drivers\peripheral\mcwdt/cy_mcwdt.c **** 
 184:Generated_Source\PSoC6\pdl\drivers\peripheral\mcwdt/cy_mcwdt.c ****     return (countVal);
 185:Generated_Source\PSoC6\pdl\drivers\peripheral\mcwdt/cy_mcwdt.c **** }
 363              		.loc 1 185 0
 364 003e 01FB0230 		mla	r0, r1, r2, r3
 365              	.LVL33:
 366 0042 30BC     		pop	{r4, r5}
 367              		.cfi_restore 5
 368              		.cfi_restore 4
 369              		.cfi_def_cfa_offset 0
 370              	.LVL34:
 371 0044 7047     		bx	lr
 372              		.cfi_endproc
 373              	.LFE151:
 374              		.size	Cy_MCWDT_GetCountCascaded, .-Cy_MCWDT_GetCountCascaded
 375 0046 00BF     		.section	.rodata.str1.4,"aMS",%progbits,1
 376              		.align	2
 377              	.LC0:
 378 0000 47656E65 		.ascii	"Generated_Source\\PSoC6\\pdl\\drivers\\peripheral\\"
 378      72617465 
 378      645F536F 
 378      75726365 
 378      5C50536F 
 379 002e 6D637764 		.ascii	"mcwdt\\cy_mcwdt.c\000"
 379      745C6379 
 379      5F6D6377 
ARM GAS  C:\Users\salaz\AppData\Local\Temp\ccRE1Zmc.s 			page 20


 379      64742E63 
 379      00
 380              		.text
 381              	.Letext0:
 382              		.file 3 "c:\\program files (x86)\\cypress\\psoc creator\\4.2\\psoc creator\\import\\gnu\\arm\\5.4.
 383              		.file 4 "c:\\program files (x86)\\cypress\\psoc creator\\4.2\\psoc creator\\import\\gnu\\arm\\5.4.
 384              		.file 5 "Generated_Source\\PSoC6\\pdl\\devices/psoc6/ip/cyip_srss.h"
 385              		.file 6 "Generated_Source\\PSoC6\\pdl\\drivers/peripheral/syslib/cy_syslib.h"
 386              		.file 7 "Generated_Source\\PSoC6\\pdl\\cmsis/include/core_cm4.h"