ARM GAS  C:\Users\fiona\AppData\Local\Temp\ccJKYDXi.s 			page 1


   1              		.syntax unified
   2              		.cpu cortex-m0plus
   3              		.fpu softvfp
   4              		.eabi_attribute 20, 1
   5              		.eabi_attribute 21, 1
   6              		.eabi_attribute 23, 3
   7              		.eabi_attribute 24, 1
   8              		.eabi_attribute 25, 1
   9              		.eabi_attribute 26, 1
  10              		.eabi_attribute 30, 1
  11              		.eabi_attribute 34, 0
  12              		.eabi_attribute 18, 4
  13              		.thumb
  14              		.syntax unified
  15              		.file	"AccDriver.c"
  16              		.text
  17              	.Ltext0:
  18              		.cfi_sections	.debug_frame
  19              		.section	.text.ReadRegister,"ax",%progbits
  20              		.align	2
  21              		.code	16
  22              		.thumb_func
  23              		.type	ReadRegister, %function
  24              	ReadRegister:
  25              	.LFB841:
  26              		.file 1 "AccDriver.c"
   1:AccDriver.c   **** 
   2:AccDriver.c   **** #include <AccDriver.h>
   3:AccDriver.c   **** #include <DataBuffer.h>
   4:AccDriver.c   **** 
   5:AccDriver.c   **** #include "debug.h"
   6:AccDriver.c   **** 
   7:AccDriver.c   **** static bool   device_rate_changed   = true;
   8:AccDriver.c   **** static uint8  device_rate_setting   = ACC_1E_RATE_12_5_HZ;
   9:AccDriver.c   **** static uint32 interpolated_period   = 0;
  10:AccDriver.c   **** static uint32 sample_period         = 0;
  11:AccDriver.c   **** static uint32 interrupt_period      = 0;
  12:AccDriver.c   **** static cy_stc_scb_i2c_master_xfer_config_t register_setting;
  13:AccDriver.c   **** 
  14:AccDriver.c   **** static bool is_first_sample = true;
  15:AccDriver.c   **** static uint8 rbuff[256]; // Read buffer: 32 sample fifo x 3 axis x 2 bytes
  16:AccDriver.c   **** static uint8 wbuff[2];   // Write buffer
  17:AccDriver.c   **** static struct dAcc1ESlot* wsample;
  18:AccDriver.c   **** static uint8* wsample_ptr;
  19:AccDriver.c   **** static acc_struct sample_old, sample_new, interpolated;
  20:AccDriver.c   **** static uint8 x_msb, x_lsb, y_msb, y_lsb, z_msb, z_lsb;
  21:AccDriver.c   **** 
  22:AccDriver.c   **** static void WriteRegister(uint8 reg_addr, uint8 data)
  23:AccDriver.c   **** {
  24:AccDriver.c   ****     wbuff[0] = reg_addr; wbuff[1] = data;
  25:AccDriver.c   ****     register_setting.buffer = wbuff; register_setting.bufferSize = 2; register_setting.xferPending 
  26:AccDriver.c   ****     
  27:AccDriver.c   ****     cy_en_scb_i2c_status_t i2cReturnValue = SensorBus_MasterWrite(&register_setting);
  28:AccDriver.c   ****     if(i2cReturnValue != CY_SCB_I2C_SUCCESS)
  29:AccDriver.c   ****     {
  30:AccDriver.c   ****         // ** Throw error
  31:AccDriver.c   ****     }
ARM GAS  C:\Users\fiona\AppData\Local\Temp\ccJKYDXi.s 			page 2


  32:AccDriver.c   ****     
  33:AccDriver.c   ****     uint16 counter = 0;
  34:AccDriver.c   ****     while(0 != (SensorBus_MasterGetStatus() & CY_SCB_I2C_MASTER_BUSY)){}
  35:AccDriver.c   ****     {
  36:AccDriver.c   ****         if(++counter > 1000)
  37:AccDriver.c   ****         {
  38:AccDriver.c   ****             // ** Throw error
  39:AccDriver.c   ****             return;
  40:AccDriver.c   ****         }
  41:AccDriver.c   ****         else
  42:AccDriver.c   ****         {
  43:AccDriver.c   ****             CyDelayUs(1);  // Keep Waiting
  44:AccDriver.c   ****         }
  45:AccDriver.c   ****     }
  46:AccDriver.c   ****     return;
  47:AccDriver.c   **** }
  48:AccDriver.c   **** static uint8 ReadRegister(uint8 reg_addr)
  49:AccDriver.c   **** {
  27              		.loc 1 49 0
  28              		.cfi_startproc
  29              		@ args = 0, pretend = 0, frame = 0
  30              		@ frame_needed = 0, uses_anonymous_args = 0
  31              	.LVL0:
  32 0000 10B5     		push	{r4, lr}
  33              		.cfi_def_cfa_offset 8
  34              		.cfi_offset 4, -8
  35              		.cfi_offset 14, -4
  50:AccDriver.c   ****     cy_en_scb_i2c_status_t i2cReturnValue;
  51:AccDriver.c   ****     
  52:AccDriver.c   ****     wbuff[0] = reg_addr;    
  36              		.loc 1 52 0
  37 0002 1F49     		ldr	r1, .L8
  38 0004 0870     		strb	r0, [r1]
  53:AccDriver.c   ****     register_setting.buffer = wbuff; register_setting.bufferSize = 1; register_setting.xferPending 
  39              		.loc 1 53 0
  40 0006 8960     		str	r1, [r1, #8]
  41 0008 0123     		movs	r3, #1
  42 000a CB60     		str	r3, [r1, #12]
  43 000c 0B74     		strb	r3, [r1, #16]
  44              	.LVL1:
  45              	.LBB37:
  46              	.LBB38:
  47              		.file 2 "Generated_Source\\PSoC6/SensorBus.h"
   1:Generated_Source\PSoC6/SensorBus.h **** /***************************************************************************//**
   2:Generated_Source\PSoC6/SensorBus.h **** * \file SensorBus.c
   3:Generated_Source\PSoC6/SensorBus.h **** * \version 2.0
   4:Generated_Source\PSoC6/SensorBus.h **** *
   5:Generated_Source\PSoC6/SensorBus.h **** *  This file provides constants and parameter values for the I2C component.
   6:Generated_Source\PSoC6/SensorBus.h **** *
   7:Generated_Source\PSoC6/SensorBus.h **** ********************************************************************************
   8:Generated_Source\PSoC6/SensorBus.h **** * \copyright
   9:Generated_Source\PSoC6/SensorBus.h **** * Copyright 2016-2017, Cypress Semiconductor Corporation. All rights reserved.
  10:Generated_Source\PSoC6/SensorBus.h **** * You may use this file only in accordance with the license, terms, conditions,
  11:Generated_Source\PSoC6/SensorBus.h **** * disclaimers, and limitations in the end user license agreement accompanying
  12:Generated_Source\PSoC6/SensorBus.h **** * the software package with which this file was provided.
  13:Generated_Source\PSoC6/SensorBus.h **** *******************************************************************************/
  14:Generated_Source\PSoC6/SensorBus.h **** 
ARM GAS  C:\Users\fiona\AppData\Local\Temp\ccJKYDXi.s 			page 3


  15:Generated_Source\PSoC6/SensorBus.h **** #if !defined(SensorBus_CY_SCB_I2C_PDL_H)
  16:Generated_Source\PSoC6/SensorBus.h **** #define SensorBus_CY_SCB_I2C_PDL_H
  17:Generated_Source\PSoC6/SensorBus.h **** 
  18:Generated_Source\PSoC6/SensorBus.h **** #include "cyfitter.h"
  19:Generated_Source\PSoC6/SensorBus.h **** #include "scb/cy_scb_i2c.h"
  20:Generated_Source\PSoC6/SensorBus.h **** 
  21:Generated_Source\PSoC6/SensorBus.h **** #if defined(__cplusplus)
  22:Generated_Source\PSoC6/SensorBus.h **** extern "C" {
  23:Generated_Source\PSoC6/SensorBus.h **** #endif
  24:Generated_Source\PSoC6/SensorBus.h **** 
  25:Generated_Source\PSoC6/SensorBus.h **** /***************************************
  26:Generated_Source\PSoC6/SensorBus.h **** *   Initial Parameter Constants
  27:Generated_Source\PSoC6/SensorBus.h **** ****************************************/
  28:Generated_Source\PSoC6/SensorBus.h **** 
  29:Generated_Source\PSoC6/SensorBus.h **** #define SensorBus_MODE               (0x2U)
  30:Generated_Source\PSoC6/SensorBus.h **** #define SensorBus_MODE_SLAVE_MASK    (0x1U)
  31:Generated_Source\PSoC6/SensorBus.h **** #define SensorBus_MODE_MASTER_MASK   (0x2U)
  32:Generated_Source\PSoC6/SensorBus.h **** 
  33:Generated_Source\PSoC6/SensorBus.h **** #define SensorBus_ENABLE_SLAVE       (0UL != (SensorBus_MODE & SensorBus_MODE_SLAVE_MASK))
  34:Generated_Source\PSoC6/SensorBus.h **** #define SensorBus_ENABLE_MASTER      (0UL != (SensorBus_MODE & SensorBus_MODE_MASTER_MASK))
  35:Generated_Source\PSoC6/SensorBus.h **** #define SensorBus_MANUAL_SCL_CONTROL (0U)
  36:Generated_Source\PSoC6/SensorBus.h **** 
  37:Generated_Source\PSoC6/SensorBus.h **** 
  38:Generated_Source\PSoC6/SensorBus.h **** /***************************************
  39:Generated_Source\PSoC6/SensorBus.h **** *        Function Prototypes
  40:Generated_Source\PSoC6/SensorBus.h **** ***************************************/
  41:Generated_Source\PSoC6/SensorBus.h **** /**
  42:Generated_Source\PSoC6/SensorBus.h **** * \addtogroup group_general
  43:Generated_Source\PSoC6/SensorBus.h **** * @{
  44:Generated_Source\PSoC6/SensorBus.h **** */
  45:Generated_Source\PSoC6/SensorBus.h **** /* Component only APIs. */
  46:Generated_Source\PSoC6/SensorBus.h **** void SensorBus_Start(void);
  47:Generated_Source\PSoC6/SensorBus.h **** 
  48:Generated_Source\PSoC6/SensorBus.h **** /* Basic functions. */
  49:Generated_Source\PSoC6/SensorBus.h **** __STATIC_INLINE cy_en_scb_i2c_status_t SensorBus_Init(cy_stc_scb_i2c_config_t const *config);
  50:Generated_Source\PSoC6/SensorBus.h **** __STATIC_INLINE void SensorBus_DeInit (void);
  51:Generated_Source\PSoC6/SensorBus.h **** __STATIC_INLINE void SensorBus_Enable (void);
  52:Generated_Source\PSoC6/SensorBus.h **** __STATIC_INLINE void SensorBus_Disable(void);
  53:Generated_Source\PSoC6/SensorBus.h **** 
  54:Generated_Source\PSoC6/SensorBus.h **** /* Data rate configuration functions. */
  55:Generated_Source\PSoC6/SensorBus.h **** __STATIC_INLINE uint32_t SensorBus_SetDataRate(uint32_t dataRateHz, uint32_t scbClockHz);
  56:Generated_Source\PSoC6/SensorBus.h **** __STATIC_INLINE uint32_t SensorBus_GetDataRate(uint32_t scbClockHz);
  57:Generated_Source\PSoC6/SensorBus.h **** 
  58:Generated_Source\PSoC6/SensorBus.h **** /* Register callbacks. */
  59:Generated_Source\PSoC6/SensorBus.h **** __STATIC_INLINE void SensorBus_RegisterEventCallback(cy_cb_scb_i2c_handle_events_t callback);
  60:Generated_Source\PSoC6/SensorBus.h **** #if (SensorBus_ENABLE_SLAVE)
  61:Generated_Source\PSoC6/SensorBus.h **** __STATIC_INLINE void SensorBus_RegisterAddrCallback (cy_cb_scb_i2c_handle_addr_t callback);
  62:Generated_Source\PSoC6/SensorBus.h **** #endif /* (SensorBus_ENABLE_SLAVE) */
  63:Generated_Source\PSoC6/SensorBus.h **** 
  64:Generated_Source\PSoC6/SensorBus.h **** /* Configuration functions. */
  65:Generated_Source\PSoC6/SensorBus.h **** #if (SensorBus_ENABLE_SLAVE)
  66:Generated_Source\PSoC6/SensorBus.h **** __STATIC_INLINE void     SensorBus_SlaveSetAddress(uint8_t addr);
  67:Generated_Source\PSoC6/SensorBus.h **** __STATIC_INLINE uint32_t SensorBus_SlaveGetAddress(void);
  68:Generated_Source\PSoC6/SensorBus.h **** __STATIC_INLINE void     SensorBus_SlaveSetAddressMask(uint8_t addrMask);
  69:Generated_Source\PSoC6/SensorBus.h **** __STATIC_INLINE uint32_t SensorBus_SlaveGetAddressMask(void);
  70:Generated_Source\PSoC6/SensorBus.h **** #endif /* (SensorBus_ENABLE_SLAVE) */
  71:Generated_Source\PSoC6/SensorBus.h **** 
ARM GAS  C:\Users\fiona\AppData\Local\Temp\ccJKYDXi.s 			page 4


  72:Generated_Source\PSoC6/SensorBus.h **** #if (SensorBus_ENABLE_MASTER)
  73:Generated_Source\PSoC6/SensorBus.h **** __STATIC_INLINE void SensorBus_MasterSetLowPhaseDutyCycle (uint32_t clockCycles);
  74:Generated_Source\PSoC6/SensorBus.h **** __STATIC_INLINE void SensorBus_MasterSetHighPhaseDutyCycle(uint32_t clockCycles);
  75:Generated_Source\PSoC6/SensorBus.h **** #endif /* (SensorBus_ENABLE_MASTER) */
  76:Generated_Source\PSoC6/SensorBus.h **** 
  77:Generated_Source\PSoC6/SensorBus.h **** /* Bus status. */
  78:Generated_Source\PSoC6/SensorBus.h **** __STATIC_INLINE bool     SensorBus_IsBusBusy(void);
  79:Generated_Source\PSoC6/SensorBus.h **** 
  80:Generated_Source\PSoC6/SensorBus.h **** /* Slave functions. */
  81:Generated_Source\PSoC6/SensorBus.h **** #if (SensorBus_ENABLE_SLAVE)
  82:Generated_Source\PSoC6/SensorBus.h **** __STATIC_INLINE uint32_t SensorBus_SlaveGetStatus(void);
  83:Generated_Source\PSoC6/SensorBus.h **** 
  84:Generated_Source\PSoC6/SensorBus.h **** __STATIC_INLINE void     SensorBus_SlaveConfigReadBuf(uint8_t *buffer, uint32_t size);
  85:Generated_Source\PSoC6/SensorBus.h **** __STATIC_INLINE void     SensorBus_SlaveAbortRead(void);
  86:Generated_Source\PSoC6/SensorBus.h **** __STATIC_INLINE uint32_t SensorBus_SlaveGetReadTransferCount(void);
  87:Generated_Source\PSoC6/SensorBus.h **** __STATIC_INLINE uint32_t SensorBus_SlaveClearReadStatus(void);
  88:Generated_Source\PSoC6/SensorBus.h **** 
  89:Generated_Source\PSoC6/SensorBus.h **** __STATIC_INLINE void     SensorBus_SlaveConfigWriteBuf(uint8_t *buffer, uint32_t size);
  90:Generated_Source\PSoC6/SensorBus.h **** __STATIC_INLINE void     SensorBus_SlaveAbortWrite(void);
  91:Generated_Source\PSoC6/SensorBus.h **** __STATIC_INLINE uint32_t SensorBus_SlaveGetWriteTransferCount(void);
  92:Generated_Source\PSoC6/SensorBus.h **** __STATIC_INLINE uint32_t SensorBus_SlaveClearWriteStatus(void);
  93:Generated_Source\PSoC6/SensorBus.h **** #endif /* (SensorBus_ENABLE_SLAVE) */
  94:Generated_Source\PSoC6/SensorBus.h **** 
  95:Generated_Source\PSoC6/SensorBus.h **** /* Master interrupt processing functions. */
  96:Generated_Source\PSoC6/SensorBus.h **** #if (SensorBus_ENABLE_MASTER)
  97:Generated_Source\PSoC6/SensorBus.h **** __STATIC_INLINE uint32_t SensorBus_MasterGetStatus(void);
  98:Generated_Source\PSoC6/SensorBus.h **** 
  99:Generated_Source\PSoC6/SensorBus.h **** __STATIC_INLINE cy_en_scb_i2c_status_t SensorBus_MasterRead(cy_stc_scb_i2c_master_xfer_config_t *xf
 100:Generated_Source\PSoC6/SensorBus.h **** __STATIC_INLINE void SensorBus_MasterAbortRead(void);
 101:Generated_Source\PSoC6/SensorBus.h **** __STATIC_INLINE cy_en_scb_i2c_status_t SensorBus_MasterWrite(cy_stc_scb_i2c_master_xfer_config_t *x
 102:Generated_Source\PSoC6/SensorBus.h **** __STATIC_INLINE void SensorBus_MasterAbortWrite(void);
 103:Generated_Source\PSoC6/SensorBus.h **** __STATIC_INLINE uint32_t SensorBus_MasterGetTransferCount(void);
 104:Generated_Source\PSoC6/SensorBus.h **** 
 105:Generated_Source\PSoC6/SensorBus.h **** /* Master manual processing functions. */
 106:Generated_Source\PSoC6/SensorBus.h **** __STATIC_INLINE cy_en_scb_i2c_status_t SensorBus_MasterSendStart(uint32_t address, cy_en_scb_i2c_di
 107:Generated_Source\PSoC6/SensorBus.h **** __STATIC_INLINE cy_en_scb_i2c_status_t SensorBus_MasterSendReStart(uint32_t address, cy_en_scb_i2c_
 108:Generated_Source\PSoC6/SensorBus.h **** __STATIC_INLINE cy_en_scb_i2c_status_t SensorBus_MasterSendStop(uint32_t timeoutMs);
 109:Generated_Source\PSoC6/SensorBus.h **** __STATIC_INLINE cy_en_scb_i2c_status_t SensorBus_MasterReadByte(cy_en_scb_i2c_command_t ackNack, ui
 110:Generated_Source\PSoC6/SensorBus.h **** __STATIC_INLINE cy_en_scb_i2c_status_t SensorBus_MasterWriteByte(uint8_t byte, uint32_t timeoutMs);
 111:Generated_Source\PSoC6/SensorBus.h **** #endif /* (SensorBus_ENABLE_MASTER) */
 112:Generated_Source\PSoC6/SensorBus.h **** 
 113:Generated_Source\PSoC6/SensorBus.h **** /* Interrupt handler. */
 114:Generated_Source\PSoC6/SensorBus.h **** __STATIC_INLINE void SensorBus_Interrupt(void);
 115:Generated_Source\PSoC6/SensorBus.h **** /** @} group_general */
 116:Generated_Source\PSoC6/SensorBus.h **** 
 117:Generated_Source\PSoC6/SensorBus.h **** 
 118:Generated_Source\PSoC6/SensorBus.h **** /***************************************
 119:Generated_Source\PSoC6/SensorBus.h **** *    Variables with External Linkage
 120:Generated_Source\PSoC6/SensorBus.h **** ***************************************/
 121:Generated_Source\PSoC6/SensorBus.h **** /**
 122:Generated_Source\PSoC6/SensorBus.h **** * \addtogroup group_globals
 123:Generated_Source\PSoC6/SensorBus.h **** * @{
 124:Generated_Source\PSoC6/SensorBus.h **** */
 125:Generated_Source\PSoC6/SensorBus.h **** extern uint8_t SensorBus_initVar;
 126:Generated_Source\PSoC6/SensorBus.h **** extern cy_stc_scb_i2c_config_t const SensorBus_config;
 127:Generated_Source\PSoC6/SensorBus.h **** extern cy_stc_scb_i2c_context_t SensorBus_context;
 128:Generated_Source\PSoC6/SensorBus.h **** /** @} group_globals */
ARM GAS  C:\Users\fiona\AppData\Local\Temp\ccJKYDXi.s 			page 5


 129:Generated_Source\PSoC6/SensorBus.h **** 
 130:Generated_Source\PSoC6/SensorBus.h **** 
 131:Generated_Source\PSoC6/SensorBus.h **** /***************************************
 132:Generated_Source\PSoC6/SensorBus.h **** *         Preprocessor Macros
 133:Generated_Source\PSoC6/SensorBus.h **** ***************************************/
 134:Generated_Source\PSoC6/SensorBus.h **** /**
 135:Generated_Source\PSoC6/SensorBus.h **** * \addtogroup group_macros
 136:Generated_Source\PSoC6/SensorBus.h **** * @{
 137:Generated_Source\PSoC6/SensorBus.h **** */
 138:Generated_Source\PSoC6/SensorBus.h **** /** The pointer to the base address of the SCB instance */
 139:Generated_Source\PSoC6/SensorBus.h **** #define SensorBus_HW     ((CySCB_Type *) SensorBus_SCB__HW)
 140:Generated_Source\PSoC6/SensorBus.h **** 
 141:Generated_Source\PSoC6/SensorBus.h **** /** The desired data rate in Hz */
 142:Generated_Source\PSoC6/SensorBus.h **** #define SensorBus_DATA_RATE_HZ      (100000U)
 143:Generated_Source\PSoC6/SensorBus.h **** 
 144:Generated_Source\PSoC6/SensorBus.h **** /** The frequency of the clock used by the Component in Hz */
 145:Generated_Source\PSoC6/SensorBus.h **** #define SensorBus_CLK_FREQ_HZ       (1562500U)
 146:Generated_Source\PSoC6/SensorBus.h **** 
 147:Generated_Source\PSoC6/SensorBus.h **** /** The number of Component clocks used by the master to generate the SCL
 148:Generated_Source\PSoC6/SensorBus.h **** * low phase. This number is calculated by GUI based on the selected data rate.
 149:Generated_Source\PSoC6/SensorBus.h **** */
 150:Generated_Source\PSoC6/SensorBus.h **** #define SensorBus_LOW_PHASE_DUTY_CYCLE   (8U)
 151:Generated_Source\PSoC6/SensorBus.h **** 
 152:Generated_Source\PSoC6/SensorBus.h **** /** The number of Component clocks used by the master to generate the SCL
 153:Generated_Source\PSoC6/SensorBus.h **** * high phase. This number is calculated by GUI based on the selected data rate.
 154:Generated_Source\PSoC6/SensorBus.h **** */
 155:Generated_Source\PSoC6/SensorBus.h **** #define SensorBus_HIGH_PHASE_DUTY_CYCLE  (8U)
 156:Generated_Source\PSoC6/SensorBus.h **** /** @} group_macros */
 157:Generated_Source\PSoC6/SensorBus.h **** 
 158:Generated_Source\PSoC6/SensorBus.h **** 
 159:Generated_Source\PSoC6/SensorBus.h **** /***************************************
 160:Generated_Source\PSoC6/SensorBus.h **** *    In-line Function Implementation
 161:Generated_Source\PSoC6/SensorBus.h **** ***************************************/
 162:Generated_Source\PSoC6/SensorBus.h **** 
 163:Generated_Source\PSoC6/SensorBus.h **** /*******************************************************************************
 164:Generated_Source\PSoC6/SensorBus.h **** * Function Name: SensorBus_Init
 165:Generated_Source\PSoC6/SensorBus.h **** ****************************************************************************//**
 166:Generated_Source\PSoC6/SensorBus.h **** *
 167:Generated_Source\PSoC6/SensorBus.h **** * Invokes the Cy_SCB_I2C_Init() PDL driver function.
 168:Generated_Source\PSoC6/SensorBus.h **** *
 169:Generated_Source\PSoC6/SensorBus.h **** *******************************************************************************/
 170:Generated_Source\PSoC6/SensorBus.h **** __STATIC_INLINE cy_en_scb_i2c_status_t SensorBus_Init(cy_stc_scb_i2c_config_t const *config)
 171:Generated_Source\PSoC6/SensorBus.h **** {
 172:Generated_Source\PSoC6/SensorBus.h ****     return Cy_SCB_I2C_Init(SensorBus_HW, config, &SensorBus_context);
 173:Generated_Source\PSoC6/SensorBus.h **** }
 174:Generated_Source\PSoC6/SensorBus.h **** 
 175:Generated_Source\PSoC6/SensorBus.h **** 
 176:Generated_Source\PSoC6/SensorBus.h **** /*******************************************************************************
 177:Generated_Source\PSoC6/SensorBus.h **** *  Function Name: SensorBus_DeInit
 178:Generated_Source\PSoC6/SensorBus.h **** ****************************************************************************//**
 179:Generated_Source\PSoC6/SensorBus.h **** *
 180:Generated_Source\PSoC6/SensorBus.h **** * Invokes the Cy_SCB_I2C_DeInit() PDL driver function.
 181:Generated_Source\PSoC6/SensorBus.h **** *
 182:Generated_Source\PSoC6/SensorBus.h **** *******************************************************************************/
 183:Generated_Source\PSoC6/SensorBus.h **** __STATIC_INLINE void SensorBus_DeInit(void)
 184:Generated_Source\PSoC6/SensorBus.h **** {
 185:Generated_Source\PSoC6/SensorBus.h ****     Cy_SCB_I2C_DeInit(SensorBus_HW);
ARM GAS  C:\Users\fiona\AppData\Local\Temp\ccJKYDXi.s 			page 6


 186:Generated_Source\PSoC6/SensorBus.h **** }
 187:Generated_Source\PSoC6/SensorBus.h **** 
 188:Generated_Source\PSoC6/SensorBus.h **** 
 189:Generated_Source\PSoC6/SensorBus.h **** /*******************************************************************************
 190:Generated_Source\PSoC6/SensorBus.h **** * Function Name: SensorBus_Enable
 191:Generated_Source\PSoC6/SensorBus.h **** ****************************************************************************//**
 192:Generated_Source\PSoC6/SensorBus.h **** *
 193:Generated_Source\PSoC6/SensorBus.h **** * Invokes the Cy_SCB_I2C_Enable() PDL driver function.
 194:Generated_Source\PSoC6/SensorBus.h **** *
 195:Generated_Source\PSoC6/SensorBus.h **** *******************************************************************************/
 196:Generated_Source\PSoC6/SensorBus.h **** __STATIC_INLINE void SensorBus_Enable(void)
 197:Generated_Source\PSoC6/SensorBus.h **** {
 198:Generated_Source\PSoC6/SensorBus.h ****     Cy_SCB_I2C_Enable(SensorBus_HW);
 199:Generated_Source\PSoC6/SensorBus.h **** }
 200:Generated_Source\PSoC6/SensorBus.h **** 
 201:Generated_Source\PSoC6/SensorBus.h **** 
 202:Generated_Source\PSoC6/SensorBus.h **** /*******************************************************************************
 203:Generated_Source\PSoC6/SensorBus.h **** * Function Name: SensorBus_Disable
 204:Generated_Source\PSoC6/SensorBus.h **** ****************************************************************************//**
 205:Generated_Source\PSoC6/SensorBus.h **** *
 206:Generated_Source\PSoC6/SensorBus.h **** * Invokes the Cy_SCB_I2C_Disable() PDL driver function.
 207:Generated_Source\PSoC6/SensorBus.h **** *
 208:Generated_Source\PSoC6/SensorBus.h **** *******************************************************************************/
 209:Generated_Source\PSoC6/SensorBus.h **** __STATIC_INLINE void SensorBus_Disable(void)
 210:Generated_Source\PSoC6/SensorBus.h **** {
 211:Generated_Source\PSoC6/SensorBus.h ****     Cy_SCB_I2C_Disable(SensorBus_HW, &SensorBus_context);
 212:Generated_Source\PSoC6/SensorBus.h **** }
 213:Generated_Source\PSoC6/SensorBus.h **** 
 214:Generated_Source\PSoC6/SensorBus.h **** 
 215:Generated_Source\PSoC6/SensorBus.h **** /*******************************************************************************
 216:Generated_Source\PSoC6/SensorBus.h **** * Function Name: SensorBus_SetDataRate
 217:Generated_Source\PSoC6/SensorBus.h **** ****************************************************************************//**
 218:Generated_Source\PSoC6/SensorBus.h **** *
 219:Generated_Source\PSoC6/SensorBus.h **** * Invokes the Cy_SCB_I2C_SetDataRate() PDL driver function.
 220:Generated_Source\PSoC6/SensorBus.h **** *
 221:Generated_Source\PSoC6/SensorBus.h **** *******************************************************************************/
 222:Generated_Source\PSoC6/SensorBus.h **** __STATIC_INLINE uint32_t SensorBus_SetDataRate(uint32_t dataRateHz, uint32_t scbClockHz)
 223:Generated_Source\PSoC6/SensorBus.h **** {
 224:Generated_Source\PSoC6/SensorBus.h ****     return Cy_SCB_I2C_SetDataRate(SensorBus_HW, dataRateHz, scbClockHz);
 225:Generated_Source\PSoC6/SensorBus.h **** }
 226:Generated_Source\PSoC6/SensorBus.h **** 
 227:Generated_Source\PSoC6/SensorBus.h **** 
 228:Generated_Source\PSoC6/SensorBus.h **** /*******************************************************************************
 229:Generated_Source\PSoC6/SensorBus.h **** * Function Name: SensorBus_GetDataRate
 230:Generated_Source\PSoC6/SensorBus.h **** ****************************************************************************//**
 231:Generated_Source\PSoC6/SensorBus.h **** *
 232:Generated_Source\PSoC6/SensorBus.h **** * Invokes the Cy_SCB_I2C_GetDataRate() PDL driver function.
 233:Generated_Source\PSoC6/SensorBus.h **** *
 234:Generated_Source\PSoC6/SensorBus.h **** *******************************************************************************/
 235:Generated_Source\PSoC6/SensorBus.h **** __STATIC_INLINE uint32_t SensorBus_GetDataRate(uint32_t scbClockHz)
 236:Generated_Source\PSoC6/SensorBus.h **** {
 237:Generated_Source\PSoC6/SensorBus.h ****     return Cy_SCB_I2C_GetDataRate(SensorBus_HW, scbClockHz);
 238:Generated_Source\PSoC6/SensorBus.h **** }
 239:Generated_Source\PSoC6/SensorBus.h **** 
 240:Generated_Source\PSoC6/SensorBus.h **** 
 241:Generated_Source\PSoC6/SensorBus.h **** /*******************************************************************************
 242:Generated_Source\PSoC6/SensorBus.h **** * Function Name: SensorBus_RegisterEventCallback
ARM GAS  C:\Users\fiona\AppData\Local\Temp\ccJKYDXi.s 			page 7


 243:Generated_Source\PSoC6/SensorBus.h **** ****************************************************************************//**
 244:Generated_Source\PSoC6/SensorBus.h **** *
 245:Generated_Source\PSoC6/SensorBus.h **** * Invokes the Cy_SCB_I2C_RegisterEventCallback() PDL driver function.
 246:Generated_Source\PSoC6/SensorBus.h **** *
 247:Generated_Source\PSoC6/SensorBus.h **** *******************************************************************************/
 248:Generated_Source\PSoC6/SensorBus.h **** __STATIC_INLINE void SensorBus_RegisterEventCallback(cy_cb_scb_i2c_handle_events_t callback)
 249:Generated_Source\PSoC6/SensorBus.h **** {
 250:Generated_Source\PSoC6/SensorBus.h ****     Cy_SCB_I2C_RegisterEventCallback(SensorBus_HW, callback, &SensorBus_context);
 251:Generated_Source\PSoC6/SensorBus.h **** }
 252:Generated_Source\PSoC6/SensorBus.h **** 
 253:Generated_Source\PSoC6/SensorBus.h **** 
 254:Generated_Source\PSoC6/SensorBus.h **** #if (SensorBus_ENABLE_SLAVE)
 255:Generated_Source\PSoC6/SensorBus.h **** /*******************************************************************************
 256:Generated_Source\PSoC6/SensorBus.h **** * Function Name: SensorBus_RegisterAddrCallback
 257:Generated_Source\PSoC6/SensorBus.h **** ****************************************************************************//**
 258:Generated_Source\PSoC6/SensorBus.h **** *
 259:Generated_Source\PSoC6/SensorBus.h **** * Invokes the Cy_SCB_I2C_RegisterAddrCallback() PDL driver function.
 260:Generated_Source\PSoC6/SensorBus.h **** *
 261:Generated_Source\PSoC6/SensorBus.h **** *******************************************************************************/
 262:Generated_Source\PSoC6/SensorBus.h **** __STATIC_INLINE void SensorBus_RegisterAddrCallback(cy_cb_scb_i2c_handle_addr_t callback)
 263:Generated_Source\PSoC6/SensorBus.h **** {
 264:Generated_Source\PSoC6/SensorBus.h ****     Cy_SCB_I2C_RegisterAddrCallback(SensorBus_HW, callback, &SensorBus_context);
 265:Generated_Source\PSoC6/SensorBus.h **** }
 266:Generated_Source\PSoC6/SensorBus.h **** #endif /* (SensorBus_ENABLE_SLAVE) */
 267:Generated_Source\PSoC6/SensorBus.h **** 
 268:Generated_Source\PSoC6/SensorBus.h **** 
 269:Generated_Source\PSoC6/SensorBus.h **** /*******************************************************************************
 270:Generated_Source\PSoC6/SensorBus.h **** * Function Name: SensorBus_IsBusBusy
 271:Generated_Source\PSoC6/SensorBus.h **** ****************************************************************************//**
 272:Generated_Source\PSoC6/SensorBus.h **** *
 273:Generated_Source\PSoC6/SensorBus.h **** * Invokes the Cy_SCB_I2C_IsBusBusy() PDL driver function.
 274:Generated_Source\PSoC6/SensorBus.h **** *
 275:Generated_Source\PSoC6/SensorBus.h **** *******************************************************************************/
 276:Generated_Source\PSoC6/SensorBus.h **** __STATIC_INLINE bool SensorBus_IsBusBusy(void)
 277:Generated_Source\PSoC6/SensorBus.h **** {
 278:Generated_Source\PSoC6/SensorBus.h ****     return Cy_SCB_I2C_IsBusBusy(SensorBus_HW);
 279:Generated_Source\PSoC6/SensorBus.h **** }
 280:Generated_Source\PSoC6/SensorBus.h **** 
 281:Generated_Source\PSoC6/SensorBus.h **** 
 282:Generated_Source\PSoC6/SensorBus.h **** #if (SensorBus_ENABLE_SLAVE)
 283:Generated_Source\PSoC6/SensorBus.h **** /*******************************************************************************
 284:Generated_Source\PSoC6/SensorBus.h **** * Function Name: SensorBus_SlaveSetAddress
 285:Generated_Source\PSoC6/SensorBus.h **** ****************************************************************************//**
 286:Generated_Source\PSoC6/SensorBus.h **** *
 287:Generated_Source\PSoC6/SensorBus.h **** * Invokes the Cy_SCB_I2C_SlaveGetAddress() PDL driver function.
 288:Generated_Source\PSoC6/SensorBus.h **** *
 289:Generated_Source\PSoC6/SensorBus.h **** *******************************************************************************/
 290:Generated_Source\PSoC6/SensorBus.h **** __STATIC_INLINE void SensorBus_SlaveSetAddress(uint8_t addr)
 291:Generated_Source\PSoC6/SensorBus.h **** {
 292:Generated_Source\PSoC6/SensorBus.h ****     Cy_SCB_I2C_SlaveSetAddress(SensorBus_HW, addr);
 293:Generated_Source\PSoC6/SensorBus.h **** }
 294:Generated_Source\PSoC6/SensorBus.h **** 
 295:Generated_Source\PSoC6/SensorBus.h **** 
 296:Generated_Source\PSoC6/SensorBus.h **** /*******************************************************************************
 297:Generated_Source\PSoC6/SensorBus.h **** * Function Name: SensorBus_SlaveGetAddress
 298:Generated_Source\PSoC6/SensorBus.h **** ****************************************************************************//**
 299:Generated_Source\PSoC6/SensorBus.h **** *
ARM GAS  C:\Users\fiona\AppData\Local\Temp\ccJKYDXi.s 			page 8


 300:Generated_Source\PSoC6/SensorBus.h **** * Invokes the Cy_SCB_I2C_SlaveGetAddress() PDL driver function.
 301:Generated_Source\PSoC6/SensorBus.h **** *
 302:Generated_Source\PSoC6/SensorBus.h **** *******************************************************************************/
 303:Generated_Source\PSoC6/SensorBus.h **** __STATIC_INLINE uint32_t SensorBus_SlaveGetAddress(void)
 304:Generated_Source\PSoC6/SensorBus.h **** {
 305:Generated_Source\PSoC6/SensorBus.h ****     return Cy_SCB_I2C_SlaveGetAddress(SensorBus_HW);
 306:Generated_Source\PSoC6/SensorBus.h **** }
 307:Generated_Source\PSoC6/SensorBus.h **** 
 308:Generated_Source\PSoC6/SensorBus.h **** 
 309:Generated_Source\PSoC6/SensorBus.h **** /*******************************************************************************
 310:Generated_Source\PSoC6/SensorBus.h **** * Function Name: SensorBus_SlaveSetAddressMask
 311:Generated_Source\PSoC6/SensorBus.h **** ****************************************************************************//**
 312:Generated_Source\PSoC6/SensorBus.h **** *
 313:Generated_Source\PSoC6/SensorBus.h **** * Invokes the Cy_SCB_I2C_SlaveSetAddressMask() PDL driver function.
 314:Generated_Source\PSoC6/SensorBus.h **** *
 315:Generated_Source\PSoC6/SensorBus.h **** *******************************************************************************/
 316:Generated_Source\PSoC6/SensorBus.h **** __STATIC_INLINE void SensorBus_SlaveSetAddressMask(uint8_t addrMask)
 317:Generated_Source\PSoC6/SensorBus.h **** {
 318:Generated_Source\PSoC6/SensorBus.h ****     Cy_SCB_I2C_SlaveSetAddressMask(SensorBus_HW, addrMask);
 319:Generated_Source\PSoC6/SensorBus.h **** }
 320:Generated_Source\PSoC6/SensorBus.h **** 
 321:Generated_Source\PSoC6/SensorBus.h **** 
 322:Generated_Source\PSoC6/SensorBus.h **** /*******************************************************************************
 323:Generated_Source\PSoC6/SensorBus.h **** * Function Name: SensorBus_SlaveGetAddressMask
 324:Generated_Source\PSoC6/SensorBus.h **** ****************************************************************************//**
 325:Generated_Source\PSoC6/SensorBus.h **** *
 326:Generated_Source\PSoC6/SensorBus.h **** * Invokes the Cy_SCB_I2C_SlaveGetAddressMask() PDL driver function.
 327:Generated_Source\PSoC6/SensorBus.h **** *
 328:Generated_Source\PSoC6/SensorBus.h **** *******************************************************************************/
 329:Generated_Source\PSoC6/SensorBus.h **** __STATIC_INLINE uint32_t SensorBus_SlaveGetAddressMask(void)
 330:Generated_Source\PSoC6/SensorBus.h **** {
 331:Generated_Source\PSoC6/SensorBus.h ****     return Cy_SCB_I2C_SlaveGetAddressMask(SensorBus_HW);
 332:Generated_Source\PSoC6/SensorBus.h **** }
 333:Generated_Source\PSoC6/SensorBus.h **** #endif /* (SensorBus_ENABLE_SLAVE) */
 334:Generated_Source\PSoC6/SensorBus.h **** 
 335:Generated_Source\PSoC6/SensorBus.h **** #if (SensorBus_ENABLE_MASTER)
 336:Generated_Source\PSoC6/SensorBus.h **** /*******************************************************************************
 337:Generated_Source\PSoC6/SensorBus.h **** * Function Name: SensorBus_MasterSetLowPhaseDutyCycle
 338:Generated_Source\PSoC6/SensorBus.h **** ****************************************************************************//**
 339:Generated_Source\PSoC6/SensorBus.h **** *
 340:Generated_Source\PSoC6/SensorBus.h **** * Invokes the Cy_SCB_I2C_MasterSetLowPhaseDutyCycle() PDL driver function.
 341:Generated_Source\PSoC6/SensorBus.h **** *
 342:Generated_Source\PSoC6/SensorBus.h **** *******************************************************************************/
 343:Generated_Source\PSoC6/SensorBus.h **** __STATIC_INLINE void SensorBus_MasterSetLowPhaseDutyCycle(uint32_t clockCycles)
 344:Generated_Source\PSoC6/SensorBus.h **** {
 345:Generated_Source\PSoC6/SensorBus.h ****     Cy_SCB_I2C_MasterSetLowPhaseDutyCycle(SensorBus_HW, clockCycles);
 346:Generated_Source\PSoC6/SensorBus.h **** }
 347:Generated_Source\PSoC6/SensorBus.h **** 
 348:Generated_Source\PSoC6/SensorBus.h **** 
 349:Generated_Source\PSoC6/SensorBus.h **** /*******************************************************************************
 350:Generated_Source\PSoC6/SensorBus.h **** * Function Name: SensorBus_MasterSetHighPhaseDutyCycle
 351:Generated_Source\PSoC6/SensorBus.h **** ****************************************************************************//**
 352:Generated_Source\PSoC6/SensorBus.h **** *
 353:Generated_Source\PSoC6/SensorBus.h **** * Invokes the Cy_SCB_I2C_MasterSetHighPhaseDutyCycle() PDL driver function.
 354:Generated_Source\PSoC6/SensorBus.h **** *
 355:Generated_Source\PSoC6/SensorBus.h **** *******************************************************************************/
 356:Generated_Source\PSoC6/SensorBus.h **** __STATIC_INLINE void SensorBus_MasterSetHighPhaseDutyCycle(uint32_t clockCycles)
ARM GAS  C:\Users\fiona\AppData\Local\Temp\ccJKYDXi.s 			page 9


 357:Generated_Source\PSoC6/SensorBus.h **** {
 358:Generated_Source\PSoC6/SensorBus.h ****     Cy_SCB_I2C_MasterSetHighPhaseDutyCycle(SensorBus_HW, clockCycles);
 359:Generated_Source\PSoC6/SensorBus.h **** }
 360:Generated_Source\PSoC6/SensorBus.h **** #endif /* (SensorBus_ENABLE_MASTER) */
 361:Generated_Source\PSoC6/SensorBus.h **** 
 362:Generated_Source\PSoC6/SensorBus.h **** 
 363:Generated_Source\PSoC6/SensorBus.h **** #if (SensorBus_ENABLE_SLAVE)
 364:Generated_Source\PSoC6/SensorBus.h **** /*******************************************************************************
 365:Generated_Source\PSoC6/SensorBus.h **** * Function Name: SensorBus_SlaveGetStatus
 366:Generated_Source\PSoC6/SensorBus.h **** ****************************************************************************//**
 367:Generated_Source\PSoC6/SensorBus.h **** *
 368:Generated_Source\PSoC6/SensorBus.h **** * Invokes the Cy_SCB_I2C_SlaveGetStatus() PDL driver function.
 369:Generated_Source\PSoC6/SensorBus.h **** *
 370:Generated_Source\PSoC6/SensorBus.h **** *******************************************************************************/
 371:Generated_Source\PSoC6/SensorBus.h **** __STATIC_INLINE uint32_t SensorBus_SlaveGetStatus(void)
 372:Generated_Source\PSoC6/SensorBus.h **** {
 373:Generated_Source\PSoC6/SensorBus.h ****     return Cy_SCB_I2C_SlaveGetStatus(SensorBus_HW, &SensorBus_context);
 374:Generated_Source\PSoC6/SensorBus.h **** }
 375:Generated_Source\PSoC6/SensorBus.h **** 
 376:Generated_Source\PSoC6/SensorBus.h **** 
 377:Generated_Source\PSoC6/SensorBus.h **** /*******************************************************************************
 378:Generated_Source\PSoC6/SensorBus.h **** * Function Name: SensorBus_SlaveConfigReadBuf
 379:Generated_Source\PSoC6/SensorBus.h **** ****************************************************************************//**
 380:Generated_Source\PSoC6/SensorBus.h **** *
 381:Generated_Source\PSoC6/SensorBus.h **** * Invokes the Cy_SCB_I2C_SlaveConfigReadBuf() PDL driver function.
 382:Generated_Source\PSoC6/SensorBus.h **** *
 383:Generated_Source\PSoC6/SensorBus.h **** *******************************************************************************/
 384:Generated_Source\PSoC6/SensorBus.h **** __STATIC_INLINE void SensorBus_SlaveConfigReadBuf(uint8_t *buffer, uint32_t size)
 385:Generated_Source\PSoC6/SensorBus.h **** {
 386:Generated_Source\PSoC6/SensorBus.h ****     Cy_SCB_I2C_SlaveConfigReadBuf(SensorBus_HW, buffer, size, &SensorBus_context);
 387:Generated_Source\PSoC6/SensorBus.h **** }
 388:Generated_Source\PSoC6/SensorBus.h **** 
 389:Generated_Source\PSoC6/SensorBus.h **** 
 390:Generated_Source\PSoC6/SensorBus.h **** /*******************************************************************************
 391:Generated_Source\PSoC6/SensorBus.h **** * Function Name: SensorBus_SlaveAbortRead
 392:Generated_Source\PSoC6/SensorBus.h **** ****************************************************************************//**
 393:Generated_Source\PSoC6/SensorBus.h **** *
 394:Generated_Source\PSoC6/SensorBus.h **** * Invokes the Cy_SCB_I2C_SlaveAbortRead() PDL driver function.
 395:Generated_Source\PSoC6/SensorBus.h **** *
 396:Generated_Source\PSoC6/SensorBus.h **** *******************************************************************************/
 397:Generated_Source\PSoC6/SensorBus.h **** __STATIC_INLINE void SensorBus_SlaveAbortRead(void)
 398:Generated_Source\PSoC6/SensorBus.h **** {
 399:Generated_Source\PSoC6/SensorBus.h ****     Cy_SCB_I2C_SlaveAbortRead(SensorBus_HW, &SensorBus_context);
 400:Generated_Source\PSoC6/SensorBus.h **** }
 401:Generated_Source\PSoC6/SensorBus.h **** 
 402:Generated_Source\PSoC6/SensorBus.h **** 
 403:Generated_Source\PSoC6/SensorBus.h **** /*******************************************************************************
 404:Generated_Source\PSoC6/SensorBus.h **** * Function Name: SensorBus_SlaveGetReadTransferCount
 405:Generated_Source\PSoC6/SensorBus.h **** ****************************************************************************//**
 406:Generated_Source\PSoC6/SensorBus.h **** *
 407:Generated_Source\PSoC6/SensorBus.h **** * Invokes the Cy_SCB_I2C_SlaveGetReadTransferCount() PDL driver function.
 408:Generated_Source\PSoC6/SensorBus.h **** *
 409:Generated_Source\PSoC6/SensorBus.h **** *******************************************************************************/
 410:Generated_Source\PSoC6/SensorBus.h **** __STATIC_INLINE uint32_t SensorBus_SlaveGetReadTransferCount(void)
 411:Generated_Source\PSoC6/SensorBus.h **** {
 412:Generated_Source\PSoC6/SensorBus.h ****     return Cy_SCB_I2C_SlaveGetReadTransferCount(SensorBus_HW, &SensorBus_context);
 413:Generated_Source\PSoC6/SensorBus.h **** }
ARM GAS  C:\Users\fiona\AppData\Local\Temp\ccJKYDXi.s 			page 10


 414:Generated_Source\PSoC6/SensorBus.h **** 
 415:Generated_Source\PSoC6/SensorBus.h **** 
 416:Generated_Source\PSoC6/SensorBus.h **** /*******************************************************************************
 417:Generated_Source\PSoC6/SensorBus.h **** * Function Name: SensorBus_SlaveClearReadStatus
 418:Generated_Source\PSoC6/SensorBus.h **** ****************************************************************************//**
 419:Generated_Source\PSoC6/SensorBus.h **** *
 420:Generated_Source\PSoC6/SensorBus.h **** * Invokes the Cy_SCB_I2C_SlaveClearReadStatus() PDL driver function.
 421:Generated_Source\PSoC6/SensorBus.h **** *
 422:Generated_Source\PSoC6/SensorBus.h **** *******************************************************************************/
 423:Generated_Source\PSoC6/SensorBus.h **** __STATIC_INLINE uint32_t SensorBus_SlaveClearReadStatus(void)
 424:Generated_Source\PSoC6/SensorBus.h **** {
 425:Generated_Source\PSoC6/SensorBus.h ****     return Cy_SCB_I2C_SlaveClearReadStatus(SensorBus_HW, &SensorBus_context);
 426:Generated_Source\PSoC6/SensorBus.h **** }
 427:Generated_Source\PSoC6/SensorBus.h **** 
 428:Generated_Source\PSoC6/SensorBus.h **** 
 429:Generated_Source\PSoC6/SensorBus.h **** /*******************************************************************************
 430:Generated_Source\PSoC6/SensorBus.h **** * Function Name: SensorBus_SlaveConfigWriteBuf
 431:Generated_Source\PSoC6/SensorBus.h **** ****************************************************************************//**
 432:Generated_Source\PSoC6/SensorBus.h **** *
 433:Generated_Source\PSoC6/SensorBus.h **** * Invokes the Cy_SCB_I2C_SlaveConfigWriteBuf() PDL driver function.
 434:Generated_Source\PSoC6/SensorBus.h **** *
 435:Generated_Source\PSoC6/SensorBus.h **** *******************************************************************************/
 436:Generated_Source\PSoC6/SensorBus.h **** __STATIC_INLINE void SensorBus_SlaveConfigWriteBuf(uint8_t *buffer, uint32_t size)
 437:Generated_Source\PSoC6/SensorBus.h **** {
 438:Generated_Source\PSoC6/SensorBus.h ****     Cy_SCB_I2C_SlaveConfigWriteBuf(SensorBus_HW, buffer, size, &SensorBus_context);
 439:Generated_Source\PSoC6/SensorBus.h **** }
 440:Generated_Source\PSoC6/SensorBus.h **** 
 441:Generated_Source\PSoC6/SensorBus.h **** 
 442:Generated_Source\PSoC6/SensorBus.h **** /*******************************************************************************
 443:Generated_Source\PSoC6/SensorBus.h **** * Function Name: SensorBus_SlaveAbortWrite
 444:Generated_Source\PSoC6/SensorBus.h **** ****************************************************************************//**
 445:Generated_Source\PSoC6/SensorBus.h **** *
 446:Generated_Source\PSoC6/SensorBus.h **** * Invokes the Cy_SCB_I2C_SlaveAbortWrite() PDL driver function.
 447:Generated_Source\PSoC6/SensorBus.h **** *
 448:Generated_Source\PSoC6/SensorBus.h **** *******************************************************************************/
 449:Generated_Source\PSoC6/SensorBus.h **** __STATIC_INLINE void SensorBus_SlaveAbortWrite(void)
 450:Generated_Source\PSoC6/SensorBus.h **** {
 451:Generated_Source\PSoC6/SensorBus.h ****     Cy_SCB_I2C_SlaveAbortWrite(SensorBus_HW, &SensorBus_context);
 452:Generated_Source\PSoC6/SensorBus.h **** }
 453:Generated_Source\PSoC6/SensorBus.h **** 
 454:Generated_Source\PSoC6/SensorBus.h **** 
 455:Generated_Source\PSoC6/SensorBus.h **** /*******************************************************************************
 456:Generated_Source\PSoC6/SensorBus.h **** * Function Name: SensorBus_SlaveGetWriteTransferCount
 457:Generated_Source\PSoC6/SensorBus.h **** ****************************************************************************//**
 458:Generated_Source\PSoC6/SensorBus.h **** *
 459:Generated_Source\PSoC6/SensorBus.h **** * Invokes the Cy_SCB_I2C_SlaveGetWriteTransferCount() PDL driver function.
 460:Generated_Source\PSoC6/SensorBus.h **** *
 461:Generated_Source\PSoC6/SensorBus.h **** *******************************************************************************/
 462:Generated_Source\PSoC6/SensorBus.h **** __STATIC_INLINE uint32_t SensorBus_SlaveGetWriteTransferCount(void)
 463:Generated_Source\PSoC6/SensorBus.h **** {
 464:Generated_Source\PSoC6/SensorBus.h ****     return Cy_SCB_I2C_SlaveGetWriteTransferCount(SensorBus_HW, &SensorBus_context);
 465:Generated_Source\PSoC6/SensorBus.h **** }
 466:Generated_Source\PSoC6/SensorBus.h **** 
 467:Generated_Source\PSoC6/SensorBus.h **** 
 468:Generated_Source\PSoC6/SensorBus.h **** /*******************************************************************************
 469:Generated_Source\PSoC6/SensorBus.h **** * Function Name: SensorBus_SlaveClearWriteStatus
 470:Generated_Source\PSoC6/SensorBus.h **** ****************************************************************************//**
ARM GAS  C:\Users\fiona\AppData\Local\Temp\ccJKYDXi.s 			page 11


 471:Generated_Source\PSoC6/SensorBus.h **** *
 472:Generated_Source\PSoC6/SensorBus.h **** * Invokes the Cy_SCB_I2C_SlaveClearWriteStatus() PDL driver function.
 473:Generated_Source\PSoC6/SensorBus.h **** *
 474:Generated_Source\PSoC6/SensorBus.h **** *******************************************************************************/
 475:Generated_Source\PSoC6/SensorBus.h **** __STATIC_INLINE uint32_t SensorBus_SlaveClearWriteStatus(void)
 476:Generated_Source\PSoC6/SensorBus.h **** {
 477:Generated_Source\PSoC6/SensorBus.h ****     return Cy_SCB_I2C_SlaveClearWriteStatus(SensorBus_HW, &SensorBus_context);
 478:Generated_Source\PSoC6/SensorBus.h **** }
 479:Generated_Source\PSoC6/SensorBus.h **** #endif /* (SensorBus_ENABLE_SLAVE) */
 480:Generated_Source\PSoC6/SensorBus.h **** 
 481:Generated_Source\PSoC6/SensorBus.h **** 
 482:Generated_Source\PSoC6/SensorBus.h **** #if (SensorBus_ENABLE_MASTER)
 483:Generated_Source\PSoC6/SensorBus.h **** /*******************************************************************************
 484:Generated_Source\PSoC6/SensorBus.h **** * Function Name: SensorBus_MasterGetStatus
 485:Generated_Source\PSoC6/SensorBus.h **** ****************************************************************************//**
 486:Generated_Source\PSoC6/SensorBus.h **** *
 487:Generated_Source\PSoC6/SensorBus.h **** * Invokes the Cy_SCB_I2C_MasterGetStatus() PDL driver function.
 488:Generated_Source\PSoC6/SensorBus.h **** *
 489:Generated_Source\PSoC6/SensorBus.h **** *******************************************************************************/
 490:Generated_Source\PSoC6/SensorBus.h **** __STATIC_INLINE uint32_t SensorBus_MasterGetStatus(void)
 491:Generated_Source\PSoC6/SensorBus.h **** {
 492:Generated_Source\PSoC6/SensorBus.h ****     return Cy_SCB_I2C_MasterGetStatus(SensorBus_HW, &SensorBus_context);
 493:Generated_Source\PSoC6/SensorBus.h **** }
 494:Generated_Source\PSoC6/SensorBus.h **** 
 495:Generated_Source\PSoC6/SensorBus.h **** 
 496:Generated_Source\PSoC6/SensorBus.h **** /*******************************************************************************
 497:Generated_Source\PSoC6/SensorBus.h **** * Function Name: SensorBus_MasterRead
 498:Generated_Source\PSoC6/SensorBus.h **** ****************************************************************************//**
 499:Generated_Source\PSoC6/SensorBus.h **** *
 500:Generated_Source\PSoC6/SensorBus.h **** * Invokes the Cy_SCB_I2C_MasterRead() PDL driver function.
 501:Generated_Source\PSoC6/SensorBus.h **** *
 502:Generated_Source\PSoC6/SensorBus.h **** *******************************************************************************/
 503:Generated_Source\PSoC6/SensorBus.h **** __STATIC_INLINE cy_en_scb_i2c_status_t SensorBus_MasterRead(cy_stc_scb_i2c_master_xfer_config_t *xf
 504:Generated_Source\PSoC6/SensorBus.h **** {
 505:Generated_Source\PSoC6/SensorBus.h ****     return Cy_SCB_I2C_MasterRead(SensorBus_HW, xferConfig, &SensorBus_context);
 506:Generated_Source\PSoC6/SensorBus.h **** }
 507:Generated_Source\PSoC6/SensorBus.h **** 
 508:Generated_Source\PSoC6/SensorBus.h **** 
 509:Generated_Source\PSoC6/SensorBus.h **** /*******************************************************************************
 510:Generated_Source\PSoC6/SensorBus.h **** * Function Name: SensorBus_MasterAbortRead
 511:Generated_Source\PSoC6/SensorBus.h **** ****************************************************************************//**
 512:Generated_Source\PSoC6/SensorBus.h **** *
 513:Generated_Source\PSoC6/SensorBus.h **** * Invokes the Cy_SCB_I2C_MasterAbortRead() PDL driver function.
 514:Generated_Source\PSoC6/SensorBus.h **** *
 515:Generated_Source\PSoC6/SensorBus.h **** ******************************************************************************/
 516:Generated_Source\PSoC6/SensorBus.h **** __STATIC_INLINE void SensorBus_MasterAbortRead(void)
 517:Generated_Source\PSoC6/SensorBus.h **** {
 518:Generated_Source\PSoC6/SensorBus.h ****     Cy_SCB_I2C_MasterAbortRead(SensorBus_HW, &SensorBus_context);
 519:Generated_Source\PSoC6/SensorBus.h **** }
 520:Generated_Source\PSoC6/SensorBus.h **** 
 521:Generated_Source\PSoC6/SensorBus.h **** 
 522:Generated_Source\PSoC6/SensorBus.h **** /*******************************************************************************
 523:Generated_Source\PSoC6/SensorBus.h **** * Function Name: SensorBus_MasterWrite
 524:Generated_Source\PSoC6/SensorBus.h **** ****************************************************************************//**
 525:Generated_Source\PSoC6/SensorBus.h **** *
 526:Generated_Source\PSoC6/SensorBus.h **** * Invokes the Cy_SCB_I2C_MasterWrite() PDL driver function.
 527:Generated_Source\PSoC6/SensorBus.h **** *
ARM GAS  C:\Users\fiona\AppData\Local\Temp\ccJKYDXi.s 			page 12


 528:Generated_Source\PSoC6/SensorBus.h **** *******************************************************************************/
 529:Generated_Source\PSoC6/SensorBus.h **** __STATIC_INLINE cy_en_scb_i2c_status_t SensorBus_MasterWrite(cy_stc_scb_i2c_master_xfer_config_t *x
 530:Generated_Source\PSoC6/SensorBus.h **** {
 531:Generated_Source\PSoC6/SensorBus.h ****     return Cy_SCB_I2C_MasterWrite(SensorBus_HW, xferConfig, &SensorBus_context);
  48              		.loc 2 531 0
  49 000e 0431     		adds	r1, r1, #4
  50 0010 1C4A     		ldr	r2, .L8+4
  51 0012 1D48     		ldr	r0, .L8+8
  52              	.LVL2:
  53 0014 FFF7FEFF 		bl	Cy_SCB_I2C_MasterWrite
  54              	.LVL3:
  55              	.LBE38:
  56              	.LBE37:
  54:AccDriver.c   ****     
  55:AccDriver.c   ****     i2cReturnValue = SensorBus_MasterWrite(&register_setting);
  56:AccDriver.c   ****     if(i2cReturnValue != CY_SCB_I2C_SUCCESS)
  57:AccDriver.c   ****     {
  58:AccDriver.c   ****         // ** Throw error
  59:AccDriver.c   ****     }
  60:AccDriver.c   ****     
  61:AccDriver.c   ****     uint16 counter = 0;
  57              		.loc 1 61 0
  58 0018 0024     		movs	r4, #0
  62:AccDriver.c   ****     while(0 != (SensorBus_MasterGetStatus() & CY_SCB_I2C_MASTER_BUSY))
  59              		.loc 1 62 0
  60 001a 08E0     		b	.L2
  61              	.LVL4:
  62              	.L4:
  63:AccDriver.c   ****     {
  64:AccDriver.c   ****         if(++counter > 1000) 
  63              		.loc 1 64 0
  64 001c 0134     		adds	r4, r4, #1
  65              	.LVL5:
  66 001e A4B2     		uxth	r4, r4
  67              	.LVL6:
  68 0020 FA23     		movs	r3, #250
  69 0022 9B00     		lsls	r3, r3, #2
  70 0024 9C42     		cmp	r4, r3
  71 0026 27D8     		bhi	.L6
  65:AccDriver.c   ****         {
  66:AccDriver.c   ****             // ** Throw error
  67:AccDriver.c   ****             return 0;         
  68:AccDriver.c   ****         }
  69:AccDriver.c   ****         else
  70:AccDriver.c   ****         {
  71:AccDriver.c   ****             CyDelayUs(1);  // Keep Waiting
  72              		.loc 1 71 0
  73 0028 0120     		movs	r0, #1
  74 002a FFF7FEFF 		bl	Cy_SysLib_DelayUs
  75              	.LVL7:
  76              	.L2:
  77              	.LBB39:
  78              	.LBB40:
 492:Generated_Source\PSoC6/SensorBus.h **** }
  79              		.loc 2 492 0
  80 002e 1549     		ldr	r1, .L8+4
  81 0030 1548     		ldr	r0, .L8+8
ARM GAS  C:\Users\fiona\AppData\Local\Temp\ccJKYDXi.s 			page 13


  82 0032 FFF7FEFF 		bl	Cy_SCB_I2C_MasterGetStatus
  83              	.LVL8:
  84              	.LBE40:
  85              	.LBE39:
  62:AccDriver.c   ****     {
  86              		.loc 1 62 0
  87 0036 C303     		lsls	r3, r0, #15
  88 0038 F0D4     		bmi	.L4
  72:AccDriver.c   ****         }
  73:AccDriver.c   ****     }
  74:AccDriver.c   ****     
  75:AccDriver.c   ****     register_setting.buffer = rbuff; register_setting.bufferSize = 1; register_setting.xferPending 
  89              		.loc 1 75 0
  90 003a 1149     		ldr	r1, .L8
  91 003c 0B00     		movs	r3, r1
  92 003e 1433     		adds	r3, r3, #20
  93 0040 8B60     		str	r3, [r1, #8]
  94 0042 0123     		movs	r3, #1
  95 0044 CB60     		str	r3, [r1, #12]
  96 0046 0023     		movs	r3, #0
  97 0048 0B74     		strb	r3, [r1, #16]
  98              	.LVL9:
  99              	.LBB41:
 100              	.LBB42:
 505:Generated_Source\PSoC6/SensorBus.h **** }
 101              		.loc 2 505 0
 102 004a 0431     		adds	r1, r1, #4
 103 004c 0D4A     		ldr	r2, .L8+4
 104 004e 0E48     		ldr	r0, .L8+8
 105 0050 FFF7FEFF 		bl	Cy_SCB_I2C_MasterRead
 106              	.LVL10:
 107              	.L5:
 108              	.LBE42:
 109              	.LBE41:
 110              	.LBB43:
 111              	.LBB44:
 492:Generated_Source\PSoC6/SensorBus.h **** }
 112              		.loc 2 492 0 discriminator 1
 113 0054 0B49     		ldr	r1, .L8+4
 114 0056 0C48     		ldr	r0, .L8+8
 115 0058 FFF7FEFF 		bl	Cy_SCB_I2C_MasterGetStatus
 116              	.LVL11:
 117              	.LBE44:
 118              	.LBE43:
  76:AccDriver.c   ****     
  77:AccDriver.c   ****     i2cReturnValue = SensorBus_MasterRead(&register_setting);
  78:AccDriver.c   ****     if(i2cReturnValue != CY_SCB_I2C_SUCCESS)
  79:AccDriver.c   ****     {
  80:AccDriver.c   ****         // ** Throw error
  81:AccDriver.c   ****     }
  82:AccDriver.c   ****     
  83:AccDriver.c   ****     while(0 != (SensorBus_MasterGetStatus() & CY_SCB_I2C_MASTER_BUSY)){}
 119              		.loc 1 83 0 discriminator 1
 120 005c C303     		lsls	r3, r0, #15
 121 005e F9D4     		bmi	.L5
 122              	.LVL12:
  84:AccDriver.c   ****     {
ARM GAS  C:\Users\fiona\AppData\Local\Temp\ccJKYDXi.s 			page 14


  85:AccDriver.c   ****         if(++counter > 1000) 
 123              		.loc 1 85 0
 124 0060 0134     		adds	r4, r4, #1
 125              	.LVL13:
 126 0062 FA23     		movs	r3, #250
 127 0064 9B00     		lsls	r3, r3, #2
 128 0066 A4B2     		uxth	r4, r4
 129 0068 9C42     		cmp	r4, r3
 130 006a 07D8     		bhi	.L7
  86:AccDriver.c   ****         {
  87:AccDriver.c   ****             // ** Throw error
  88:AccDriver.c   ****             return 0;
  89:AccDriver.c   ****         }
  90:AccDriver.c   ****         else
  91:AccDriver.c   ****         {
  92:AccDriver.c   ****             CyDelayUs(1);  // Keep Waiting
 131              		.loc 1 92 0
 132 006c 0120     		movs	r0, #1
 133 006e FFF7FEFF 		bl	Cy_SysLib_DelayUs
 134              	.LVL14:
  93:AccDriver.c   ****         }
  94:AccDriver.c   ****     }
  95:AccDriver.c   ****     return rbuff[0];
 135              		.loc 1 95 0
 136 0072 034B     		ldr	r3, .L8
 137 0074 187D     		ldrb	r0, [r3, #20]
 138 0076 02E0     		b	.L3
 139              	.LVL15:
 140              	.L6:
  67:AccDriver.c   ****         }
 141              		.loc 1 67 0
 142 0078 0020     		movs	r0, #0
 143 007a 00E0     		b	.L3
 144              	.LVL16:
 145              	.L7:
  88:AccDriver.c   ****         }
 146              		.loc 1 88 0
 147 007c 0020     		movs	r0, #0
 148              	.L3:
  96:AccDriver.c   **** }
 149              		.loc 1 96 0
 150              		@ sp needed
 151 007e 10BD     		pop	{r4, pc}
 152              	.L9:
 153              		.align	2
 154              	.L8:
 155 0080 00000000 		.word	.LANCHOR0
 156 0084 00000000 		.word	SensorBus_context
 157 0088 00006240 		.word	1080164352
 158              		.cfi_endproc
 159              	.LFE841:
 160              		.size	ReadRegister, .-ReadRegister
 161              		.section	.text.WriteRegister,"ax",%progbits
 162              		.align	2
 163              		.code	16
 164              		.thumb_func
 165              		.type	WriteRegister, %function
ARM GAS  C:\Users\fiona\AppData\Local\Temp\ccJKYDXi.s 			page 15


 166              	WriteRegister:
 167              	.LFB840:
  23:AccDriver.c   ****     wbuff[0] = reg_addr; wbuff[1] = data;
 168              		.loc 1 23 0
 169              		.cfi_startproc
 170              		@ args = 0, pretend = 0, frame = 0
 171              		@ frame_needed = 0, uses_anonymous_args = 0
 172              	.LVL17:
 173 0000 10B5     		push	{r4, lr}
 174              		.cfi_def_cfa_offset 8
 175              		.cfi_offset 4, -8
 176              		.cfi_offset 14, -4
  24:AccDriver.c   ****     register_setting.buffer = wbuff; register_setting.bufferSize = 2; register_setting.xferPending 
 177              		.loc 1 24 0
 178 0002 0B4B     		ldr	r3, .L12
 179 0004 1870     		strb	r0, [r3]
 180 0006 5970     		strb	r1, [r3, #1]
  25:AccDriver.c   ****     
 181              		.loc 1 25 0
 182 0008 9B60     		str	r3, [r3, #8]
 183 000a 0222     		movs	r2, #2
 184 000c DA60     		str	r2, [r3, #12]
 185 000e 0022     		movs	r2, #0
 186 0010 1A74     		strb	r2, [r3, #16]
 187              	.LVL18:
 188              	.LBB45:
 189              	.LBB46:
 190              		.loc 2 531 0
 191 0012 191D     		adds	r1, r3, #4
 192              	.LVL19:
 193 0014 074A     		ldr	r2, .L12+4
 194 0016 0848     		ldr	r0, .L12+8
 195              	.LVL20:
 196 0018 FFF7FEFF 		bl	Cy_SCB_I2C_MasterWrite
 197              	.LVL21:
 198              	.L11:
 199              	.LBE46:
 200              	.LBE45:
 201              	.LBB47:
 202              	.LBB48:
 492:Generated_Source\PSoC6/SensorBus.h **** }
 203              		.loc 2 492 0 discriminator 1
 204 001c 0549     		ldr	r1, .L12+4
 205 001e 0648     		ldr	r0, .L12+8
 206 0020 FFF7FEFF 		bl	Cy_SCB_I2C_MasterGetStatus
 207              	.LVL22:
 208              	.LBE48:
 209              	.LBE47:
  34:AccDriver.c   ****     {
 210              		.loc 1 34 0 discriminator 1
 211 0024 C303     		lsls	r3, r0, #15
 212 0026 F9D4     		bmi	.L11
 213              	.LVL23:
  43:AccDriver.c   ****         }
 214              		.loc 1 43 0
 215 0028 0120     		movs	r0, #1
 216 002a FFF7FEFF 		bl	Cy_SysLib_DelayUs
ARM GAS  C:\Users\fiona\AppData\Local\Temp\ccJKYDXi.s 			page 16


 217              	.LVL24:
  47:AccDriver.c   **** static uint8 ReadRegister(uint8 reg_addr)
 218              		.loc 1 47 0
 219              		@ sp needed
 220 002e 10BD     		pop	{r4, pc}
 221              	.L13:
 222              		.align	2
 223              	.L12:
 224 0030 00000000 		.word	.LANCHOR0
 225 0034 00000000 		.word	SensorBus_context
 226 0038 00006240 		.word	1080164352
 227              		.cfi_endproc
 228              	.LFE840:
 229              		.size	WriteRegister, .-WriteRegister
 230              		.global	__aeabi_idiv
 231              		.section	.text.Interpolate,"ax",%progbits
 232              		.align	2
 233              		.code	16
 234              		.thumb_func
 235              		.type	Interpolate, %function
 236              	Interpolate:
 237              	.LFB842:
  97:AccDriver.c   **** static void Interpolate(void)
  98:AccDriver.c   **** {
 238              		.loc 1 98 0
 239              		.cfi_startproc
 240              		@ args = 0, pretend = 0, frame = 8
 241              		@ frame_needed = 0, uses_anonymous_args = 0
 242 0000 F0B5     		push	{r4, r5, r6, r7, lr}
 243              		.cfi_def_cfa_offset 20
 244              		.cfi_offset 4, -20
 245              		.cfi_offset 5, -16
 246              		.cfi_offset 6, -12
 247              		.cfi_offset 7, -8
 248              		.cfi_offset 14, -4
 249 0002 5746     		mov	r7, r10
 250 0004 4E46     		mov	r6, r9
 251 0006 4546     		mov	r5, r8
 252 0008 E0B4     		push	{r5, r6, r7}
 253              		.cfi_def_cfa_offset 32
 254              		.cfi_offset 8, -32
 255              		.cfi_offset 9, -28
 256              		.cfi_offset 10, -24
 257 000a 82B0     		sub	sp, sp, #8
 258              		.cfi_def_cfa_offset 40
  99:AccDriver.c   ****     static int16 a0, a1, t, t1;
 100:AccDriver.c   ****     
 101:AccDriver.c   ****     sample_old.x_raw = sample_new.x_raw;
 259              		.loc 1 101 0
 260 000c 434B     		ldr	r3, .L20
 261 000e 2221     		movs	r1, #34
 262 0010 5A5E     		ldrsh	r2, [r3, r1]
 263 0012 9146     		mov	r9, r2
 102:AccDriver.c   ****     sample_old.y_raw = sample_new.y_raw;
 264              		.loc 1 102 0
 265 0014 2421     		movs	r1, #36
 266 0016 5A5E     		ldrsh	r2, [r3, r1]
ARM GAS  C:\Users\fiona\AppData\Local\Temp\ccJKYDXi.s 			page 17


 267 0018 9046     		mov	r8, r2
 103:AccDriver.c   ****     sample_old.z_raw = sample_new.z_raw;
 268              		.loc 1 103 0
 269 001a 2622     		movs	r2, #38
 270 001c 9E5E     		ldrsh	r6, [r3, r2]
 104:AccDriver.c   **** 
 105:AccDriver.c   ****     sample_new.x_raw = ((uint16) x_msb << 8) | x_lsb;
 271              		.loc 1 105 0
 272 001e 2C22     		movs	r2, #44
 273 0020 9A5C     		ldrb	r2, [r3, r2]
 274 0022 1202     		lsls	r2, r2, #8
 275 0024 2D21     		movs	r1, #45
 276 0026 585C     		ldrb	r0, [r3, r1]
 277 0028 0243     		orrs	r2, r0
 278 002a 12B2     		sxth	r2, r2
 279 002c 5A84     		strh	r2, [r3, #34]
 106:AccDriver.c   ****     sample_new.y_raw = ((uint16) y_msb << 8) | y_lsb;
 280              		.loc 1 106 0
 281 002e 0131     		adds	r1, r1, #1
 282 0030 5D5C     		ldrb	r5, [r3, r1]
 283 0032 2D02     		lsls	r5, r5, #8
 284 0034 0131     		adds	r1, r1, #1
 285 0036 585C     		ldrb	r0, [r3, r1]
 286 0038 0543     		orrs	r5, r0
 287 003a 2DB2     		sxth	r5, r5
 288 003c 9D84     		strh	r5, [r3, #36]
 107:AccDriver.c   ****     sample_new.z_raw = ((uint16) z_msb << 8) | z_lsb;     
 289              		.loc 1 107 0
 290 003e 0131     		adds	r1, r1, #1
 291 0040 5C5C     		ldrb	r4, [r3, r1]
 292 0042 2402     		lsls	r4, r4, #8
 293 0044 0131     		adds	r1, r1, #1
 294 0046 585C     		ldrb	r0, [r3, r1]
 295 0048 0443     		orrs	r4, r0
 296 004a 24B2     		sxth	r4, r4
 297 004c DC84     		strh	r4, [r3, #38]
 108:AccDriver.c   ****     
 109:AccDriver.c   ****     if(is_first_sample == true)
 298              		.loc 1 109 0
 299 004e 344B     		ldr	r3, .L20+4
 300 0050 1B78     		ldrb	r3, [r3]
 301 0052 002B     		cmp	r3, #0
 302 0054 03D0     		beq	.L15
 110:AccDriver.c   ****     {  
 111:AccDriver.c   ****         is_first_sample = false; return;
 303              		.loc 1 111 0
 304 0056 0022     		movs	r2, #0
 305 0058 314B     		ldr	r3, .L20+4
 306 005a 1A70     		strb	r2, [r3]
 307 005c 57E0     		b	.L14
 308              	.L15:
 112:AccDriver.c   ****     }
 113:AccDriver.c   ****     
 114:AccDriver.c   ****     if(interpolated.timestamp.second <= sample_new.timestamp.second)
 309              		.loc 1 114 0
 310 005e 2F4B     		ldr	r3, .L20
 311 0060 4021     		movs	r1, #64
ARM GAS  C:\Users\fiona\AppData\Local\Temp\ccJKYDXi.s 			page 18


 312 0062 585A     		ldrh	r0, [r3, r1]
 313 0064 1F8C     		ldrh	r7, [r3, #32]
 314 0066 B842     		cmp	r0, r7
 315 0068 4CD8     		bhi	.L17
 115:AccDriver.c   ****     {        
 116:AccDriver.c   ****         a0 = sample_old.x_raw; a1 = sample_new.x_raw; t = interpolated.timestamp.second; t1 = sampl
 316              		.loc 1 116 0
 317 006a 03B2     		sxth	r3, r0
 318 006c 9A46     		mov	r10, r3
 319 006e 3BB2     		sxth	r3, r7
 117:AccDriver.c   ****         interpolated.x_raw = a0 + (t * (a1 - a0)/t1);
 320              		.loc 1 117 0
 321 0070 4946     		mov	r1, r9
 322 0072 501A     		subs	r0, r2, r1
 323 0074 5246     		mov	r2, r10
 324 0076 5043     		muls	r0, r2
 325 0078 0193     		str	r3, [sp, #4]
 326 007a 1900     		movs	r1, r3
 327 007c FFF7FEFF 		bl	__aeabi_idiv
 328              	.LVL25:
 329 0080 4844     		add	r0, r0, r9
 330 0082 82B2     		uxth	r2, r0
 331 0084 9146     		mov	r9, r2
 332 0086 254F     		ldr	r7, .L20
 333 0088 4223     		movs	r3, #66
 334 008a FA52     		strh	r2, [r7, r3]
 118:AccDriver.c   ****         
 119:AccDriver.c   ****         a0 = sample_old.y_raw; a1 = sample_new.y_raw;
 120:AccDriver.c   ****         interpolated.y_raw = a0 + (t * (a1 - a0)/t1);
 335              		.loc 1 120 0
 336 008c 4246     		mov	r2, r8
 337 008e A81A     		subs	r0, r5, r2
 338 0090 5246     		mov	r2, r10
 339 0092 5043     		muls	r0, r2
 340 0094 0199     		ldr	r1, [sp, #4]
 341 0096 FFF7FEFF 		bl	__aeabi_idiv
 342              	.LVL26:
 343 009a 4044     		add	r0, r0, r8
 344 009c 85B2     		uxth	r5, r0
 345 009e 4423     		movs	r3, #68
 346 00a0 FD52     		strh	r5, [r7, r3]
 121:AccDriver.c   ****           
 122:AccDriver.c   ****         a0 = sample_old.z_raw; a1 = sample_new.z_raw;
 123:AccDriver.c   ****         interpolated.z_raw = a0 + (t * (a1 - a0)/t1);
 347              		.loc 1 123 0
 348 00a2 A01B     		subs	r0, r4, r6
 349 00a4 5246     		mov	r2, r10
 350 00a6 5043     		muls	r0, r2
 351 00a8 0199     		ldr	r1, [sp, #4]
 352 00aa FFF7FEFF 		bl	__aeabi_idiv
 353              	.LVL27:
 354 00ae 8619     		adds	r6, r0, r6
 355 00b0 B0B2     		uxth	r0, r6
 356 00b2 4623     		movs	r3, #70
 357 00b4 F852     		strh	r0, [r7, r3]
 124:AccDriver.c   **** 
 125:AccDriver.c   ****         wsample->x_raw = (uint16)interpolated.x_raw;
ARM GAS  C:\Users\fiona\AppData\Local\Temp\ccJKYDXi.s 			page 19


 358              		.loc 1 125 0
 359 00b6 FB6C     		ldr	r3, [r7, #76]
 360 00b8 4A46     		mov	r2, r9
 361 00ba 5A80     		strh	r2, [r3, #2]
 126:AccDriver.c   ****         wsample->y_raw = (uint16)interpolated.y_raw;
 362              		.loc 1 126 0
 363 00bc 9D80     		strh	r5, [r3, #4]
 127:AccDriver.c   ****         wsample->z_raw = (uint16)interpolated.z_raw;
 364              		.loc 1 127 0
 365 00be D880     		strh	r0, [r3, #6]
 128:AccDriver.c   ****             
 129:AccDriver.c   ****         wsample_ptr = (uint8*) wsample;    
 366              		.loc 1 129 0
 367 00c0 3B65     		str	r3, [r7, #80]
 130:AccDriver.c   ****         if(DataBuffer_OpenWriteSlot((uint8**)&wsample_ptr, ACC1ESLOT, sizeof(struct dAcc1ESlot)))
 368              		.loc 1 130 0
 369 00c2 3800     		movs	r0, r7
 370 00c4 5030     		adds	r0, r0, #80
 371 00c6 0822     		movs	r2, #8
 372 00c8 0221     		movs	r1, #2
 373 00ca FFF7FEFF 		bl	DataBuffer_OpenWriteSlot
 374              	.LVL28:
 375 00ce 0028     		cmp	r0, #0
 376 00d0 04D0     		beq	.L18
 131:AccDriver.c   ****         {
 132:AccDriver.c   ****             DataBuffer_CloseWriteSlot((uint8**)&wsample_ptr, ACC1ESLOT);
 377              		.loc 1 132 0
 378 00d2 0221     		movs	r1, #2
 379 00d4 1148     		ldr	r0, .L20
 380 00d6 5030     		adds	r0, r0, #80
 381 00d8 FFF7FEFF 		bl	DataBuffer_CloseWriteSlot
 382              	.LVL29:
 383              	.L18:
 133:AccDriver.c   ****         }
 134:AccDriver.c   ****         
 135:AccDriver.c   ****         interpolated.timestamp.second = interpolated.timestamp.second + interpolated_period;
 384              		.loc 1 135 0
 385 00dc 0F4A     		ldr	r2, .L20
 386 00de 4021     		movs	r1, #64
 387 00e0 535A     		ldrh	r3, [r2, r1]
 388 00e2 506D     		ldr	r0, [r2, #84]
 389 00e4 8446     		mov	ip, r0
 390 00e6 6344     		add	r3, r3, ip
 391 00e8 9BB2     		uxth	r3, r3
 392 00ea 5352     		strh	r3, [r2, r1]
 136:AccDriver.c   ****         if(interpolated.timestamp.second < sample_new.timestamp.second)
 393              		.loc 1 136 0
 394 00ec 128C     		ldrh	r2, [r2, #32]
 395 00ee 9342     		cmp	r3, r2
 396 00f0 02D2     		bcs	.L19
 137:AccDriver.c   ****         {
 138:AccDriver.c   ****             Interpolate();
 397              		.loc 1 138 0
 398 00f2 FFF785FF 		bl	Interpolate
 399              	.LVL30:
 400 00f6 0AE0     		b	.L14
 401              	.L19:
ARM GAS  C:\Users\fiona\AppData\Local\Temp\ccJKYDXi.s 			page 20


 139:AccDriver.c   ****         }
 140:AccDriver.c   ****         else
 141:AccDriver.c   ****         {
 142:AccDriver.c   ****             interpolated.timestamp.second = interpolated.timestamp.second - sample_period;
 402              		.loc 1 142 0
 403 00f8 084A     		ldr	r2, .L20
 404 00fa 916D     		ldr	r1, [r2, #88]
 405 00fc 5B1A     		subs	r3, r3, r1
 406 00fe 4021     		movs	r1, #64
 407 0100 5352     		strh	r3, [r2, r1]
 408 0102 04E0     		b	.L14
 409              	.L17:
 143:AccDriver.c   ****         }
 144:AccDriver.c   ****     }
 145:AccDriver.c   ****     else
 146:AccDriver.c   ****     {
 147:AccDriver.c   ****         interpolated.timestamp.second = interpolated.timestamp.second - sample_period;
 410              		.loc 1 147 0
 411 0104 054B     		ldr	r3, .L20
 412 0106 9A6D     		ldr	r2, [r3, #88]
 413 0108 801A     		subs	r0, r0, r2
 414 010a 4022     		movs	r2, #64
 415 010c 9852     		strh	r0, [r3, r2]
 416              	.L14:
 148:AccDriver.c   ****     }
 149:AccDriver.c   **** }
 417              		.loc 1 149 0
 418 010e 02B0     		add	sp, sp, #8
 419              		@ sp needed
 420 0110 1CBC     		pop	{r2, r3, r4}
 421 0112 9046     		mov	r8, r2
 422 0114 9946     		mov	r9, r3
 423 0116 A246     		mov	r10, r4
 424 0118 F0BD     		pop	{r4, r5, r6, r7, pc}
 425              	.L21:
 426 011a C046     		.align	2
 427              	.L20:
 428 011c 00010000 		.word	.LANCHOR1
 429 0120 00000000 		.word	.LANCHOR2
 430              		.cfi_endproc
 431              	.LFE842:
 432              		.size	Interpolate, .-Interpolate
 433              		.section	.text.AccDriver_Init,"ax",%progbits
 434              		.align	2
 435              		.global	AccDriver_Init
 436              		.code	16
 437              		.thumb_func
 438              		.type	AccDriver_Init, %function
 439              	AccDriver_Init:
 440              	.LFB843:
 150:AccDriver.c   **** void AccDriver_Init()
 151:AccDriver.c   **** {
 441              		.loc 1 151 0
 442              		.cfi_startproc
 443              		@ args = 0, pretend = 0, frame = 0
 444              		@ frame_needed = 0, uses_anonymous_args = 0
 445 0000 10B5     		push	{r4, lr}
ARM GAS  C:\Users\fiona\AppData\Local\Temp\ccJKYDXi.s 			page 21


 446              		.cfi_def_cfa_offset 8
 447              		.cfi_offset 4, -8
 448              		.cfi_offset 14, -4
 152:AccDriver.c   ****     register_setting.slaveAddress = 0x1E;
 449              		.loc 1 152 0
 450 0002 1E22     		movs	r2, #30
 451 0004 174B     		ldr	r3, .L24
 452 0006 1A71     		strb	r2, [r3, #4]
 153:AccDriver.c   ****     WriteRegister(ACC_CTRL2,0x40); CyDelay(10);             // Reset          W[0x3C 0x21 0x40]
 453              		.loc 1 153 0
 454 0008 4021     		movs	r1, #64
 455 000a 2120     		movs	r0, #33
 456 000c FFF7FEFF 		bl	WriteRegister
 457              	.LVL31:
 458 0010 0A20     		movs	r0, #10
 459 0012 FFF7FEFF 		bl	Cy_SysLib_Delay
 460              	.LVL32:
 154:AccDriver.c   ****     if(ReadRegister(ACC_WHO_AM_I_ADDR) != ACC_WHO_AM_I_VAL) // Verify Chip ID          W[0x3C 0x0F]
 461              		.loc 1 154 0
 462 0016 0F20     		movs	r0, #15
 463 0018 FFF7FEFF 		bl	ReadRegister
 464              	.LVL33:
 465 001c 4328     		cmp	r0, #67
 466 001e 02D0     		beq	.L23
 155:AccDriver.c   ****     {
 156:AccDriver.c   ****         CyDelay(10);
 467              		.loc 1 156 0
 468 0020 0A20     		movs	r0, #10
 469 0022 FFF7FEFF 		bl	Cy_SysLib_Delay
 470              	.LVL34:
 471              	.L23:
 157:AccDriver.c   ****         // ** Throw error
 158:AccDriver.c   ****     }
 159:AccDriver.c   ****     wsample = (struct dAcc1ESlot*) malloc(sizeof(struct dAcc1ESlot));
 472              		.loc 1 159 0
 473 0026 0820     		movs	r0, #8
 474 0028 FFF7FEFF 		bl	malloc
 475              	.LVL35:
 476 002c 0E4B     		ldr	r3, .L24+4
 477 002e D864     		str	r0, [r3, #76]
 160:AccDriver.c   **** 
 161:AccDriver.c   ****     WriteRegister(ACC_CTRL1,0x40);       // Turn on accelerometer at 100 Hz
 478              		.loc 1 161 0
 479 0030 4021     		movs	r1, #64
 480 0032 2020     		movs	r0, #32
 481 0034 FFF7FEFF 		bl	WriteRegister
 482              	.LVL36:
 162:AccDriver.c   ****     WriteRegister(ACC_CTRL2,0x04);       // Turn high pass filter, auto inc addr
 483              		.loc 1 162 0
 484 0038 0421     		movs	r1, #4
 485 003a 2120     		movs	r0, #33
 486 003c FFF7FEFF 		bl	WriteRegister
 487              	.LVL37:
 163:AccDriver.c   ****     WriteRegister(ACC_WAKE_UP_DUR,0x60); // Set WU_DUR to 3
 488              		.loc 1 163 0
 489 0040 6021     		movs	r1, #96
 490 0042 3420     		movs	r0, #52
ARM GAS  C:\Users\fiona\AppData\Local\Temp\ccJKYDXi.s 			page 22


 491 0044 FFF7FEFF 		bl	WriteRegister
 492              	.LVL38:
 164:AccDriver.c   ****     WriteRegister(ACC_WAKE_UP_THS,0x02); // Set wake-up threshold
 493              		.loc 1 164 0
 494 0048 0221     		movs	r1, #2
 495 004a 3320     		movs	r0, #51
 496 004c FFF7FEFF 		bl	WriteRegister
 497              	.LVL39:
 165:AccDriver.c   ****     WriteRegister(ACC_CTRL4,0x20);       // Wake-up interrupt driven to INT1 pin
 498              		.loc 1 165 0
 499 0050 2021     		movs	r1, #32
 500 0052 2320     		movs	r0, #35
 501 0054 FFF7FEFF 		bl	WriteRegister
 502              	.LVL40:
 166:AccDriver.c   ****     WriteRegister(ACC_CTRL5,0x81);       // Data-ready interrupt driven to INT2 pin
 503              		.loc 1 166 0
 504 0058 8121     		movs	r1, #129
 505 005a 2420     		movs	r0, #36
 506 005c FFF7FEFF 		bl	WriteRegister
 507              	.LVL41:
 167:AccDriver.c   ****     return;
 168:AccDriver.c   **** }
 508              		.loc 1 168 0
 509              		@ sp needed
 510 0060 10BD     		pop	{r4, pc}
 511              	.L25:
 512 0062 C046     		.align	2
 513              	.L24:
 514 0064 00000000 		.word	.LANCHOR0
 515 0068 00010000 		.word	.LANCHOR1
 516              		.cfi_endproc
 517              	.LFE843:
 518              		.size	AccDriver_Init, .-AccDriver_Init
 519              		.section	.text.readAccData,"ax",%progbits
 520              		.align	2
 521              		.global	readAccData
 522              		.code	16
 523              		.thumb_func
 524              		.type	readAccData, %function
 525              	readAccData:
 526              	.LFB844:
 169:AccDriver.c   **** 
 170:AccDriver.c   **** void readAccData(acc_sample* data)
 171:AccDriver.c   **** {
 527              		.loc 1 171 0
 528              		.cfi_startproc
 529              		@ args = 0, pretend = 0, frame = 0
 530              		@ frame_needed = 0, uses_anonymous_args = 0
 531              	.LVL42:
 532 0000 70B5     		push	{r4, r5, r6, lr}
 533              		.cfi_def_cfa_offset 16
 534              		.cfi_offset 4, -16
 535              		.cfi_offset 5, -12
 536              		.cfi_offset 6, -8
 537              		.cfi_offset 14, -4
 538 0002 0400     		movs	r4, r0
 172:AccDriver.c   **** 
ARM GAS  C:\Users\fiona\AppData\Local\Temp\ccJKYDXi.s 			page 23


 173:AccDriver.c   ****     data->sensor_type = ACC;
 539              		.loc 1 173 0
 540 0004 0123     		movs	r3, #1
 541 0006 0370     		strb	r3, [r0]
 174:AccDriver.c   ****     data->x_raw = ReadRegister(ACC_OUT_X_H) << 8 | ReadRegister(ACC_OUT_X_L);
 542              		.loc 1 174 0
 543 0008 2920     		movs	r0, #41
 544              	.LVL43:
 545 000a FFF7FEFF 		bl	ReadRegister
 546              	.LVL44:
 547 000e 0502     		lsls	r5, r0, #8
 548 0010 2820     		movs	r0, #40
 549 0012 FFF7FEFF 		bl	ReadRegister
 550              	.LVL45:
 551 0016 2843     		orrs	r0, r5
 552 0018 2082     		strh	r0, [r4, #16]
 175:AccDriver.c   ****     data->y_raw = ReadRegister(ACC_OUT_Y_H) << 8 | ReadRegister(ACC_OUT_Y_L);
 553              		.loc 1 175 0
 554 001a 2B20     		movs	r0, #43
 555 001c FFF7FEFF 		bl	ReadRegister
 556              	.LVL46:
 557 0020 0502     		lsls	r5, r0, #8
 558 0022 2A20     		movs	r0, #42
 559 0024 FFF7FEFF 		bl	ReadRegister
 560              	.LVL47:
 561 0028 2843     		orrs	r0, r5
 562 002a 6082     		strh	r0, [r4, #18]
 176:AccDriver.c   ****     data->z_raw = ReadRegister(ACC_OUT_Z_H) << 8 | ReadRegister(ACC_OUT_Z_L);
 563              		.loc 1 176 0
 564 002c 2D20     		movs	r0, #45
 565 002e FFF7FEFF 		bl	ReadRegister
 566              	.LVL48:
 567 0032 0502     		lsls	r5, r0, #8
 568 0034 2C20     		movs	r0, #44
 569 0036 FFF7FEFF 		bl	ReadRegister
 570              	.LVL49:
 571 003a 2843     		orrs	r0, r5
 572 003c A082     		strh	r0, [r4, #20]
 177:AccDriver.c   ****     
 178:AccDriver.c   **** }
 573              		.loc 1 178 0
 574              		@ sp needed
 575              	.LVL50:
 576 003e 70BD     		pop	{r4, r5, r6, pc}
 577              		.cfi_endproc
 578              	.LFE844:
 579              		.size	readAccData, .-readAccData
 580              		.global	__aeabi_uidivmod
 581              		.section	.text.AccDriver_OperationDone,"ax",%progbits
 582              		.align	2
 583              		.global	AccDriver_OperationDone
 584              		.code	16
 585              		.thumb_func
 586              		.type	AccDriver_OperationDone, %function
 587              	AccDriver_OperationDone:
 588              	.LFB845:
 179:AccDriver.c   **** bool AccDriver_OperationDone()
ARM GAS  C:\Users\fiona\AppData\Local\Temp\ccJKYDXi.s 			page 24


 180:AccDriver.c   **** {
 589              		.loc 1 180 0
 590              		.cfi_startproc
 591              		@ args = 0, pretend = 0, frame = 0
 592              		@ frame_needed = 0, uses_anonymous_args = 0
 593 0000 10B5     		push	{r4, lr}
 594              		.cfi_def_cfa_offset 8
 595              		.cfi_offset 4, -8
 596              		.cfi_offset 14, -4
 181:AccDriver.c   ****     enum TransferStages{ UPDATE_SETTING_RATE, ASK_DIFF8, GET_DIFF8, ASK_FIFO_SIZE , GET_FIFO_SIZE ,
 182:AccDriver.c   ****     static uint8 pkt[2] = {0x00,0x00};
 183:AccDriver.c   ****     static uint16 state = UPDATE_SETTING_RATE;
 184:AccDriver.c   ****     static uint16 datums = 0;
 185:AccDriver.c   ****     
 186:AccDriver.c   ****     static uint8 val1[1] = {0x2f};  // Asks diff8
 187:AccDriver.c   ****     static uint8 val2[1] = {0x30};  // Asks fifo size
 188:AccDriver.c   ****     static uint8 val3[1] = {0x28};  // Asks fifo data
 189:AccDriver.c   ****     switch(state)
 597              		.loc 1 189 0
 598 0002 9A4A     		ldr	r2, .L54
 599 0004 5C23     		movs	r3, #92
 600 0006 D15A     		ldrh	r1, [r2, r3]
 601 0008 0729     		cmp	r1, #7
 602 000a 00D9     		bls	.LCB520
 603 000c 2CE1     		b	.L52	@long jump
 604              	.LCB520:
 605 000e 8B00     		lsls	r3, r1, #2
 606 0010 974A     		ldr	r2, .L54+4
 607 0012 D358     		ldr	r3, [r2, r3]
 608 0014 9F46     		mov	pc, r3
 609              		.section	.rodata
 610              		.align	2
 611              	.L30:
 612 0000 16000000 		.word	.L29
 613 0004 E6000000 		.word	.L31
 614 0008 10010000 		.word	.L32
 615 000c 36010000 		.word	.L33
 616 0010 76010000 		.word	.L34
 617 0014 9C010000 		.word	.L35
 618 0018 E2010000 		.word	.L36
 619 001c 52020000 		.word	.L53
 620              		.section	.text.AccDriver_OperationDone
 621              	.L29:
 190:AccDriver.c   ****     {
 191:AccDriver.c   ****         case UPDATE_SETTING_RATE:
 192:AccDriver.c   ****         {
 193:AccDriver.c   ****             state = ASK_DIFF8;
 622              		.loc 1 193 0
 623 0016 0121     		movs	r1, #1
 624 0018 5C23     		movs	r3, #92
 625 001a 944A     		ldr	r2, .L54
 626 001c D152     		strh	r1, [r2, r3]
 194:AccDriver.c   ****             if(device_rate_changed)
 627              		.loc 1 194 0
 628 001e 954B     		ldr	r3, .L54+8
 629 0020 5B78     		ldrb	r3, [r3, #1]
 630 0022 002B     		cmp	r3, #0
ARM GAS  C:\Users\fiona\AppData\Local\Temp\ccJKYDXi.s 			page 25


 631 0024 5FD0     		beq	.L31
 632              	.LBB49:
 195:AccDriver.c   ****             {
 196:AccDriver.c   ****                 device_rate_changed = false;
 633              		.loc 1 196 0
 634 0026 934B     		ldr	r3, .L54+8
 635 0028 0022     		movs	r2, #0
 636 002a 5A70     		strb	r2, [r3, #1]
 197:AccDriver.c   ****                 switch(device_rate_setting)
 637              		.loc 1 197 0
 638 002c 9A78     		ldrb	r2, [r3, #2]
 639 002e 082A     		cmp	r2, #8
 640 0030 4AD8     		bhi	.L38
 641 0032 9300     		lsls	r3, r2, #2
 642 0034 904A     		ldr	r2, .L54+12
 643 0036 D358     		ldr	r3, [r2, r3]
 644 0038 9F46     		mov	pc, r3
 645              		.section	.rodata
 646              		.align	2
 647              	.L40:
 648 0020 3A000000 		.word	.L39
 649 0024 4A000000 		.word	.L41
 650 0028 5A000000 		.word	.L42
 651 002c 6A000000 		.word	.L43
 652 0030 7A000000 		.word	.L44
 653 0034 8A000000 		.word	.L45
 654 0038 9A000000 		.word	.L46
 655 003c AA000000 		.word	.L47
 656 0040 BA000000 		.word	.L48
 657              		.section	.text.AccDriver_OperationDone
 658              	.L39:
 198:AccDriver.c   ****                 {
 199:AccDriver.c   ****                     case ACC_1E_RATE_800_HZ:  {pkt[0] = 0x20; pkt[1] = 0b11110000; break;}  // W[0x
 659              		.loc 1 199 0
 660 003a 8C4B     		ldr	r3, .L54
 661 003c 2021     		movs	r1, #32
 662 003e 6022     		movs	r2, #96
 663 0040 9954     		strb	r1, [r3, r2]
 664 0042 6033     		adds	r3, r3, #96
 665 0044 9032     		adds	r2, r2, #144
 666 0046 5A70     		strb	r2, [r3, #1]
 667 0048 3EE0     		b	.L38
 668              	.L41:
 200:AccDriver.c   ****                     case ACC_1E_RATE_400_HZ:  {pkt[0] = 0x20; pkt[1] = 0b11100000; break;}  // W[0x
 669              		.loc 1 200 0
 670 004a 884B     		ldr	r3, .L54
 671 004c 2021     		movs	r1, #32
 672 004e 6022     		movs	r2, #96
 673 0050 9954     		strb	r1, [r3, r2]
 674 0052 6033     		adds	r3, r3, #96
 675 0054 8032     		adds	r2, r2, #128
 676 0056 5A70     		strb	r2, [r3, #1]
 677 0058 36E0     		b	.L38
 678              	.L42:
 201:AccDriver.c   ****                     case ACC_1E_RATE_200_HZ:  {pkt[0] = 0x20; pkt[1] = 0b11010000; break;}  // W[0x
 679              		.loc 1 201 0
 680 005a 844B     		ldr	r3, .L54
ARM GAS  C:\Users\fiona\AppData\Local\Temp\ccJKYDXi.s 			page 26


 681 005c 2021     		movs	r1, #32
 682 005e 6022     		movs	r2, #96
 683 0060 9954     		strb	r1, [r3, r2]
 684 0062 6033     		adds	r3, r3, #96
 685 0064 7032     		adds	r2, r2, #112
 686 0066 5A70     		strb	r2, [r3, #1]
 687 0068 2EE0     		b	.L38
 688              	.L43:
 202:AccDriver.c   ****                     case ACC_1E_RATE_100_HZ:  {pkt[0] = 0x20; pkt[1] = 0b11000000; break;}  // W[0x
 689              		.loc 1 202 0
 690 006a 804B     		ldr	r3, .L54
 691 006c 2021     		movs	r1, #32
 692 006e 6022     		movs	r2, #96
 693 0070 9954     		strb	r1, [r3, r2]
 694 0072 6033     		adds	r3, r3, #96
 695 0074 6032     		adds	r2, r2, #96
 696 0076 5A70     		strb	r2, [r3, #1]
 697 0078 26E0     		b	.L38
 698              	.L44:
 203:AccDriver.c   ****                     case ACC_1E_RATE_50_HZ:   {pkt[0] = 0x20; pkt[1] = 0b10110000; break;}  // W[0x
 699              		.loc 1 203 0
 700 007a 7C4B     		ldr	r3, .L54
 701 007c 2021     		movs	r1, #32
 702 007e 6022     		movs	r2, #96
 703 0080 9954     		strb	r1, [r3, r2]
 704 0082 6033     		adds	r3, r3, #96
 705 0084 5032     		adds	r2, r2, #80
 706 0086 5A70     		strb	r2, [r3, #1]
 707 0088 1EE0     		b	.L38
 708              	.L45:
 204:AccDriver.c   ****                     case ACC_1E_RATE_25_HZ:   {pkt[0] = 0x20; pkt[1] = 0b10100000; break;}  // W[0x
 709              		.loc 1 204 0
 710 008a 784B     		ldr	r3, .L54
 711 008c 2021     		movs	r1, #32
 712 008e 6022     		movs	r2, #96
 713 0090 9954     		strb	r1, [r3, r2]
 714 0092 6033     		adds	r3, r3, #96
 715 0094 4032     		adds	r2, r2, #64
 716 0096 5A70     		strb	r2, [r3, #1]
 717 0098 16E0     		b	.L38
 718              	.L46:
 205:AccDriver.c   ****                     case ACC_1E_RATE_12_5_HZ: {pkt[0] = 0x20; pkt[1] = 0b10010000; break;}  // W[0x
 719              		.loc 1 205 0
 720 009a 744B     		ldr	r3, .L54
 721 009c 2021     		movs	r1, #32
 722 009e 6022     		movs	r2, #96
 723 00a0 9954     		strb	r1, [r3, r2]
 724 00a2 6033     		adds	r3, r3, #96
 725 00a4 3032     		adds	r2, r2, #48
 726 00a6 5A70     		strb	r2, [r3, #1]
 727 00a8 0EE0     		b	.L38
 728              	.L47:
 206:AccDriver.c   ****                     case ACC_1E_RATE_1_HZ:    {pkt[0] = 0x20; pkt[1] = 0b10000000; break;}  // W[0x
 729              		.loc 1 206 0
 730 00aa 704B     		ldr	r3, .L54
 731 00ac 2021     		movs	r1, #32
 732 00ae 6022     		movs	r2, #96
ARM GAS  C:\Users\fiona\AppData\Local\Temp\ccJKYDXi.s 			page 27


 733 00b0 9954     		strb	r1, [r3, r2]
 734 00b2 6033     		adds	r3, r3, #96
 735 00b4 2032     		adds	r2, r2, #32
 736 00b6 5A70     		strb	r2, [r3, #1]
 737 00b8 06E0     		b	.L38
 738              	.L48:
 207:AccDriver.c   ****                     case ACC_1E_OFF:          {pkt[0] = 0x20; pkt[1] = 0b00000000; break;}  // W[0x
 739              		.loc 1 207 0
 740 00ba 6C4B     		ldr	r3, .L54
 741 00bc 2021     		movs	r1, #32
 742 00be 6022     		movs	r2, #96
 743 00c0 9954     		strb	r1, [r3, r2]
 744 00c2 6033     		adds	r3, r3, #96
 745 00c4 0022     		movs	r2, #0
 746 00c6 5A70     		strb	r2, [r3, #1]
 747              	.L38:
 208:AccDriver.c   ****                 }				
 209:AccDriver.c   ****                 register_setting.buffer = pkt; register_setting.bufferSize = 2; register_setting.xf
 748              		.loc 1 209 0
 749 00c8 6C49     		ldr	r1, .L54+16
 750 00ca 684B     		ldr	r3, .L54
 751 00cc 6033     		adds	r3, r3, #96
 752 00ce 8B60     		str	r3, [r1, #8]
 753 00d0 0223     		movs	r3, #2
 754 00d2 CB60     		str	r3, [r1, #12]
 755 00d4 0023     		movs	r3, #0
 756 00d6 0B74     		strb	r3, [r1, #16]
 757              	.LVL51:
 758              	.LBB50:
 759              	.LBB51:
 760              		.loc 2 531 0
 761 00d8 0431     		adds	r1, r1, #4
 762 00da 694A     		ldr	r2, .L54+20
 763 00dc 6948     		ldr	r0, .L54+24
 764 00de FFF7FEFF 		bl	Cy_SCB_I2C_MasterWrite
 765              	.LVL52:
 766              	.LBE51:
 767              	.LBE50:
 768              	.LBE49:
 210:AccDriver.c   ****                 cy_en_scb_i2c_status_t i2cReturnValue = SensorBus_MasterWrite(&register_setting);
 211:AccDriver.c   ****                 if(i2cReturnValue != CY_SCB_I2C_SUCCESS)
 212:AccDriver.c   ****                 {
 213:AccDriver.c   ****                     // ** Throw error
 214:AccDriver.c   ****                 }    
 215:AccDriver.c   ****                 break;
 216:AccDriver.c   ****             }
 217:AccDriver.c   ****         }
 218:AccDriver.c   ****         case ASK_DIFF8:  // 9th-bit for FIFO buffer, asks if FIFO is full (256 samples). On page 50
 219:AccDriver.c   ****         {
 220:AccDriver.c   ****             datums = 0;
 221:AccDriver.c   ****             register_setting.buffer = val1; register_setting.bufferSize = 1; register_setting.xferP
 222:AccDriver.c   ****             cy_en_scb_i2c_status_t i2cReturnValue = SensorBus_MasterWrite(&register_setting);
 223:AccDriver.c   ****             if(i2cReturnValue != CY_SCB_I2C_SUCCESS)
 224:AccDriver.c   ****             {
 225:AccDriver.c   ****                 // ** Throw error
 226:AccDriver.c   ****             }
 227:AccDriver.c   ****             state = GET_DIFF8;
ARM GAS  C:\Users\fiona\AppData\Local\Temp\ccJKYDXi.s 			page 28


 228:AccDriver.c   ****             break;
 229:AccDriver.c   ****         }
 230:AccDriver.c   ****         case GET_DIFF8:  // Read if DIFF8 is filled      R[0x3D 0x##]
 231:AccDriver.c   ****         {
 232:AccDriver.c   ****             register_setting.buffer = rbuff; register_setting.bufferSize = 1; register_setting.xfer
 233:AccDriver.c   ****             cy_en_scb_i2c_status_t i2cReturnValue = SensorBus_MasterRead(&register_setting);
 234:AccDriver.c   ****             if(i2cReturnValue != CY_SCB_I2C_SUCCESS)
 235:AccDriver.c   ****             {
 236:AccDriver.c   ****                 // ** Throw error
 237:AccDriver.c   ****             }
 238:AccDriver.c   ****             state = ASK_FIFO_SIZE; 
 239:AccDriver.c   ****             break;
 240:AccDriver.c   ****         }
 241:AccDriver.c   ****         case ASK_FIFO_SIZE:  // Request Number of Buffered datums  
 242:AccDriver.c   ****         {
 243:AccDriver.c   ****             if(rbuff[0] & 0x20)
 244:AccDriver.c   ****             {
 245:AccDriver.c   ****                 datums = 256;
 246:AccDriver.c   ****                 state = ASK_FIFO_DATA;
 247:AccDriver.c   ****             }
 248:AccDriver.c   ****             else //  W[0x3C 0x30]
 249:AccDriver.c   ****             {
 250:AccDriver.c   ****                 register_setting.buffer = val2; register_setting.bufferSize = 1; register_setting.x
 251:AccDriver.c   ****                 cy_en_scb_i2c_status_t i2cReturnValue = SensorBus_MasterWrite(&register_setting);
 252:AccDriver.c   ****                 if(i2cReturnValue != CY_SCB_I2C_SUCCESS)
 253:AccDriver.c   ****                 {
 254:AccDriver.c   ****                     // ** Throw error
 255:AccDriver.c   ****                 }
 256:AccDriver.c   ****                 state = GET_FIFO_SIZE;
 257:AccDriver.c   ****             }
 258:AccDriver.c   ****             break;
 259:AccDriver.c   ****         }
 260:AccDriver.c   ****         case GET_FIFO_SIZE:  // Read Number of Buffered datums      R[0x3D 0x##]
 261:AccDriver.c   ****         {
 262:AccDriver.c   ****             register_setting.buffer = rbuff; register_setting.bufferSize = 1; register_setting.xfer
 263:AccDriver.c   ****             cy_en_scb_i2c_status_t i2cReturnValue = SensorBus_MasterRead(&register_setting);
 264:AccDriver.c   ****             if(i2cReturnValue != CY_SCB_I2C_SUCCESS)
 265:AccDriver.c   ****             {
 266:AccDriver.c   ****                 // ** Throw error
 267:AccDriver.c   ****             }
 268:AccDriver.c   ****             state = ASK_FIFO_DATA;
 269:AccDriver.c   ****             break;
 270:AccDriver.c   ****         }
 271:AccDriver.c   ****         case ASK_FIFO_DATA:  // Request All Buffered datums         W[0x3C 0x028]
 272:AccDriver.c   ****         {
 273:AccDriver.c   ****             if(datums != 256)
 274:AccDriver.c   ****             {
 275:AccDriver.c   ****                 uint8 remainder = (rbuff[0] & 0xFF) % 6;
 276:AccDriver.c   ****                 datums = (rbuff[0] & 0xFF) - remainder; // 16-bit for x,y,z
 277:AccDriver.c   ****             }
 278:AccDriver.c   ****             register_setting.buffer = val3; register_setting.bufferSize = 1; register_setting.xferP
 279:AccDriver.c   ****             cy_en_scb_i2c_status_t i2cReturnValue = SensorBus_MasterWrite(&register_setting);
 280:AccDriver.c   ****             if(i2cReturnValue != CY_SCB_I2C_SUCCESS)
 281:AccDriver.c   ****             {
 282:AccDriver.c   ****                 // ** Throw error
 283:AccDriver.c   ****             }
 284:AccDriver.c   ****             state = GET_FIFO_DATA; 
ARM GAS  C:\Users\fiona\AppData\Local\Temp\ccJKYDXi.s 			page 29


 285:AccDriver.c   ****             break;
 286:AccDriver.c   ****         }        
 287:AccDriver.c   ****         case GET_FIFO_DATA:  // Read Buffered datums                R[0x3D 0x## ... 0x##]
 288:AccDriver.c   ****         {
 289:AccDriver.c   ****             register_setting.buffer = rbuff; register_setting.bufferSize = datums; register_setting
 290:AccDriver.c   ****             cy_en_scb_i2c_status_t i2cReturnValue = SensorBus_MasterRead(&register_setting);
 291:AccDriver.c   ****             if(i2cReturnValue != CY_SCB_I2C_SUCCESS)
 292:AccDriver.c   ****             {
 293:AccDriver.c   ****                 // ** Throw error
 294:AccDriver.c   ****             }
 295:AccDriver.c   ****             state = SAVE_TO_BUFFER;
 296:AccDriver.c   ****             break;
 297:AccDriver.c   ****         }
 298:AccDriver.c   ****         case SAVE_TO_BUFFER: // Save to Buffer
 299:AccDriver.c   ****         {
 300:AccDriver.c   ****             for(uint16 index = 0; index < datums; index += 6)
 301:AccDriver.c   ****             {
 302:AccDriver.c   ****                 x_lsb = rbuff[index+0]; x_msb = rbuff[index+1];
 303:AccDriver.c   ****                 y_lsb = rbuff[index+2]; y_msb = rbuff[index+3];
 304:AccDriver.c   ****                 z_lsb = rbuff[index+4]; z_msb = rbuff[index+5];
 305:AccDriver.c   ****                 Interpolate();
 306:AccDriver.c   ****             }
 307:AccDriver.c   ****             state = UPDATE_SETTING_RATE;
 308:AccDriver.c   ****             return true;
 309:AccDriver.c   ****         }
 310:AccDriver.c   ****     }    
 311:AccDriver.c   ****     return false;
 769              		.loc 1 311 0
 770 00e2 0020     		movs	r0, #0
 771              	.LBB52:
 215:AccDriver.c   ****             }
 772              		.loc 1 215 0
 773 00e4 C1E0     		b	.L28
 774              	.L31:
 775              	.LBE52:
 776              	.LBB53:
 220:AccDriver.c   ****             register_setting.buffer = val1; register_setting.bufferSize = 1; register_setting.xferP
 777              		.loc 1 220 0
 778 00e6 614C     		ldr	r4, .L54
 779 00e8 0022     		movs	r2, #0
 780 00ea 6223     		movs	r3, #98
 781 00ec E252     		strh	r2, [r4, r3]
 221:AccDriver.c   ****             cy_en_scb_i2c_status_t i2cReturnValue = SensorBus_MasterWrite(&register_setting);
 782              		.loc 1 221 0
 783 00ee 6349     		ldr	r1, .L54+16
 784 00f0 604B     		ldr	r3, .L54+8
 785 00f2 0433     		adds	r3, r3, #4
 786 00f4 8B60     		str	r3, [r1, #8]
 787 00f6 0123     		movs	r3, #1
 788 00f8 CB60     		str	r3, [r1, #12]
 789 00fa 0B74     		strb	r3, [r1, #16]
 790              	.LVL53:
 791              	.LBB54:
 792              	.LBB55:
 793              		.loc 2 531 0
 794 00fc 0431     		adds	r1, r1, #4
 795 00fe 604A     		ldr	r2, .L54+20
ARM GAS  C:\Users\fiona\AppData\Local\Temp\ccJKYDXi.s 			page 30


 796 0100 6048     		ldr	r0, .L54+24
 797 0102 FFF7FEFF 		bl	Cy_SCB_I2C_MasterWrite
 798              	.LVL54:
 799              	.LBE55:
 800              	.LBE54:
 227:AccDriver.c   ****             break;
 801              		.loc 1 227 0
 802 0106 0222     		movs	r2, #2
 803 0108 5C23     		movs	r3, #92
 804 010a E252     		strh	r2, [r4, r3]
 805              	.LBE53:
 806              		.loc 1 311 0
 807 010c 0020     		movs	r0, #0
 808              	.LBB56:
 228:AccDriver.c   ****         }
 809              		.loc 1 228 0
 810 010e ACE0     		b	.L28
 811              	.L32:
 812              	.LBE56:
 813              	.LBB57:
 232:AccDriver.c   ****             cy_en_scb_i2c_status_t i2cReturnValue = SensorBus_MasterRead(&register_setting);
 814              		.loc 1 232 0
 815 0110 5A49     		ldr	r1, .L54+16
 816 0112 0B00     		movs	r3, r1
 817 0114 1433     		adds	r3, r3, #20
 818 0116 8B60     		str	r3, [r1, #8]
 819 0118 0123     		movs	r3, #1
 820 011a CB60     		str	r3, [r1, #12]
 821 011c 0023     		movs	r3, #0
 822 011e 0B74     		strb	r3, [r1, #16]
 823              	.LVL55:
 824              	.LBB58:
 825              	.LBB59:
 505:Generated_Source\PSoC6/SensorBus.h **** }
 826              		.loc 2 505 0
 827 0120 0431     		adds	r1, r1, #4
 828 0122 574A     		ldr	r2, .L54+20
 829 0124 5748     		ldr	r0, .L54+24
 830 0126 FFF7FEFF 		bl	Cy_SCB_I2C_MasterRead
 831              	.LVL56:
 832              	.LBE59:
 833              	.LBE58:
 238:AccDriver.c   ****             break;
 834              		.loc 1 238 0
 835 012a 0321     		movs	r1, #3
 836 012c 5C23     		movs	r3, #92
 837 012e 4F4A     		ldr	r2, .L54
 838 0130 D152     		strh	r1, [r2, r3]
 839              	.LBE57:
 840              		.loc 1 311 0
 841 0132 0020     		movs	r0, #0
 842              	.LBB60:
 239:AccDriver.c   ****         }
 843              		.loc 1 239 0
 844 0134 99E0     		b	.L28
 845              	.L33:
 846              	.LBE60:
ARM GAS  C:\Users\fiona\AppData\Local\Temp\ccJKYDXi.s 			page 31


 243:AccDriver.c   ****             {
 847              		.loc 1 243 0
 848 0136 514B     		ldr	r3, .L54+16
 849 0138 1B7D     		ldrb	r3, [r3, #20]
 850 013a 9B06     		lsls	r3, r3, #26
 851 013c 09D5     		bpl	.L49
 245:AccDriver.c   ****                 state = ASK_FIFO_DATA;
 852              		.loc 1 245 0
 853 013e 4B4B     		ldr	r3, .L54
 854 0140 8021     		movs	r1, #128
 855 0142 4900     		lsls	r1, r1, #1
 856 0144 6222     		movs	r2, #98
 857 0146 9952     		strh	r1, [r3, r2]
 246:AccDriver.c   ****             }
 858              		.loc 1 246 0
 859 0148 FB39     		subs	r1, r1, #251
 860 014a 063A     		subs	r2, r2, #6
 861 014c 9952     		strh	r1, [r3, r2]
 862              		.loc 1 311 0
 863 014e 0020     		movs	r0, #0
 864 0150 8BE0     		b	.L28
 865              	.L49:
 866              	.LBB61:
 250:AccDriver.c   ****                 cy_en_scb_i2c_status_t i2cReturnValue = SensorBus_MasterWrite(&register_setting);
 867              		.loc 1 250 0
 868 0152 4A49     		ldr	r1, .L54+16
 869 0154 474B     		ldr	r3, .L54+8
 870 0156 0833     		adds	r3, r3, #8
 871 0158 8B60     		str	r3, [r1, #8]
 872 015a 0123     		movs	r3, #1
 873 015c CB60     		str	r3, [r1, #12]
 874 015e 0B74     		strb	r3, [r1, #16]
 875              	.LVL57:
 876              	.LBB62:
 877              	.LBB63:
 878              		.loc 2 531 0
 879 0160 0431     		adds	r1, r1, #4
 880 0162 474A     		ldr	r2, .L54+20
 881 0164 4748     		ldr	r0, .L54+24
 882 0166 FFF7FEFF 		bl	Cy_SCB_I2C_MasterWrite
 883              	.LVL58:
 884              	.LBE63:
 885              	.LBE62:
 256:AccDriver.c   ****             }
 886              		.loc 1 256 0
 887 016a 0421     		movs	r1, #4
 888 016c 5C23     		movs	r3, #92
 889 016e 3F4A     		ldr	r2, .L54
 890 0170 D152     		strh	r1, [r2, r3]
 891              	.LBE61:
 892              		.loc 1 311 0
 893 0172 0020     		movs	r0, #0
 894 0174 79E0     		b	.L28
 895              	.L34:
 896              	.LBB64:
 262:AccDriver.c   ****             cy_en_scb_i2c_status_t i2cReturnValue = SensorBus_MasterRead(&register_setting);
 897              		.loc 1 262 0
ARM GAS  C:\Users\fiona\AppData\Local\Temp\ccJKYDXi.s 			page 32


 898 0176 4149     		ldr	r1, .L54+16
 899 0178 0B00     		movs	r3, r1
 900 017a 1433     		adds	r3, r3, #20
 901 017c 8B60     		str	r3, [r1, #8]
 902 017e 0123     		movs	r3, #1
 903 0180 CB60     		str	r3, [r1, #12]
 904 0182 0023     		movs	r3, #0
 905 0184 0B74     		strb	r3, [r1, #16]
 906              	.LVL59:
 907              	.LBB65:
 908              	.LBB66:
 505:Generated_Source\PSoC6/SensorBus.h **** }
 909              		.loc 2 505 0
 910 0186 0431     		adds	r1, r1, #4
 911 0188 3D4A     		ldr	r2, .L54+20
 912 018a 3E48     		ldr	r0, .L54+24
 913 018c FFF7FEFF 		bl	Cy_SCB_I2C_MasterRead
 914              	.LVL60:
 915              	.LBE66:
 916              	.LBE65:
 268:AccDriver.c   ****             break;
 917              		.loc 1 268 0
 918 0190 0521     		movs	r1, #5
 919 0192 5C23     		movs	r3, #92
 920 0194 354A     		ldr	r2, .L54
 921 0196 D152     		strh	r1, [r2, r3]
 922              	.LBE64:
 923              		.loc 1 311 0
 924 0198 0020     		movs	r0, #0
 925              	.LBB67:
 269:AccDriver.c   ****         }
 926              		.loc 1 269 0
 927 019a 66E0     		b	.L28
 928              	.L35:
 929              	.LBE67:
 930              	.LBB68:
 273:AccDriver.c   ****             {
 931              		.loc 1 273 0
 932 019c 6223     		movs	r3, #98
 933 019e 334A     		ldr	r2, .L54
 934 01a0 D25A     		ldrh	r2, [r2, r3]
 935 01a2 9E33     		adds	r3, r3, #158
 936 01a4 9A42     		cmp	r2, r3
 937 01a6 0AD0     		beq	.L50
 938              	.LBB69:
 275:AccDriver.c   ****                 datums = (rbuff[0] & 0xFF) - remainder; // 16-bit for x,y,z
 939              		.loc 1 275 0
 940 01a8 344B     		ldr	r3, .L54+16
 941 01aa 1C7D     		ldrb	r4, [r3, #20]
 942 01ac 0621     		movs	r1, #6
 943 01ae 2000     		movs	r0, r4
 944 01b0 FFF7FEFF 		bl	__aeabi_uidivmod
 945              	.LVL61:
 946 01b4 C9B2     		uxtb	r1, r1
 947              	.LVL62:
 276:AccDriver.c   ****             }
 948              		.loc 1 276 0
ARM GAS  C:\Users\fiona\AppData\Local\Temp\ccJKYDXi.s 			page 33


 949 01b6 641A     		subs	r4, r4, r1
 950 01b8 6223     		movs	r3, #98
 951 01ba 2C4A     		ldr	r2, .L54
 952 01bc D452     		strh	r4, [r2, r3]
 953              	.LVL63:
 954              	.L50:
 955              	.LBE69:
 278:AccDriver.c   ****             cy_en_scb_i2c_status_t i2cReturnValue = SensorBus_MasterWrite(&register_setting);
 956              		.loc 1 278 0
 957 01be 2F49     		ldr	r1, .L54+16
 958 01c0 2C4B     		ldr	r3, .L54+8
 959 01c2 0C33     		adds	r3, r3, #12
 960 01c4 8B60     		str	r3, [r1, #8]
 961 01c6 0123     		movs	r3, #1
 962 01c8 CB60     		str	r3, [r1, #12]
 963 01ca 0B74     		strb	r3, [r1, #16]
 964              	.LVL64:
 965              	.LBB70:
 966              	.LBB71:
 967              		.loc 2 531 0
 968 01cc 0431     		adds	r1, r1, #4
 969 01ce 2C4A     		ldr	r2, .L54+20
 970 01d0 2C48     		ldr	r0, .L54+24
 971 01d2 FFF7FEFF 		bl	Cy_SCB_I2C_MasterWrite
 972              	.LVL65:
 973              	.LBE71:
 974              	.LBE70:
 284:AccDriver.c   ****             break;
 975              		.loc 1 284 0
 976 01d6 0621     		movs	r1, #6
 977 01d8 5C23     		movs	r3, #92
 978 01da 244A     		ldr	r2, .L54
 979 01dc D152     		strh	r1, [r2, r3]
 980              	.LBE68:
 981              		.loc 1 311 0
 982 01de 0020     		movs	r0, #0
 983              	.LBB72:
 285:AccDriver.c   ****         }        
 984              		.loc 1 285 0
 985 01e0 43E0     		b	.L28
 986              	.L36:
 987              	.LBE72:
 988              	.LBB73:
 289:AccDriver.c   ****             cy_en_scb_i2c_status_t i2cReturnValue = SensorBus_MasterRead(&register_setting);
 989              		.loc 1 289 0
 990 01e2 2649     		ldr	r1, .L54+16
 991 01e4 0B00     		movs	r3, r1
 992 01e6 1433     		adds	r3, r3, #20
 993 01e8 8B60     		str	r3, [r1, #8]
 994 01ea 204C     		ldr	r4, .L54
 995 01ec 6223     		movs	r3, #98
 996 01ee E35A     		ldrh	r3, [r4, r3]
 997 01f0 CB60     		str	r3, [r1, #12]
 998 01f2 0023     		movs	r3, #0
 999 01f4 0B74     		strb	r3, [r1, #16]
 1000              	.LVL66:
 1001              	.LBB74:
ARM GAS  C:\Users\fiona\AppData\Local\Temp\ccJKYDXi.s 			page 34


 1002              	.LBB75:
 505:Generated_Source\PSoC6/SensorBus.h **** }
 1003              		.loc 2 505 0
 1004 01f6 0431     		adds	r1, r1, #4
 1005 01f8 214A     		ldr	r2, .L54+20
 1006 01fa 2248     		ldr	r0, .L54+24
 1007 01fc FFF7FEFF 		bl	Cy_SCB_I2C_MasterRead
 1008              	.LVL67:
 1009              	.LBE75:
 1010              	.LBE74:
 295:AccDriver.c   ****             break;
 1011              		.loc 1 295 0
 1012 0200 0722     		movs	r2, #7
 1013 0202 5C23     		movs	r3, #92
 1014 0204 E252     		strh	r2, [r4, r3]
 1015              	.LBE73:
 1016              		.loc 1 311 0
 1017 0206 0020     		movs	r0, #0
 1018              	.LBB76:
 296:AccDriver.c   ****         }
 1019              		.loc 1 296 0
 1020 0208 2FE0     		b	.L28
 1021              	.LVL68:
 1022              	.L51:
 1023              	.LBE76:
 1024              	.LBB77:
 302:AccDriver.c   ****                 y_lsb = rbuff[index+2]; y_msb = rbuff[index+3];
 1025              		.loc 1 302 0 discriminator 3
 1026 020a 1C4A     		ldr	r2, .L54+16
 1027 020c 1319     		adds	r3, r2, r4
 1028 020e 187D     		ldrb	r0, [r3, #20]
 1029 0210 164B     		ldr	r3, .L54
 1030 0212 2D21     		movs	r1, #45
 1031 0214 5854     		strb	r0, [r3, r1]
 1032 0216 611C     		adds	r1, r4, #1
 1033 0218 5118     		adds	r1, r2, r1
 1034 021a 087D     		ldrb	r0, [r1, #20]
 1035 021c 2C21     		movs	r1, #44
 1036 021e 5854     		strb	r0, [r3, r1]
 303:AccDriver.c   ****                 z_lsb = rbuff[index+4]; z_msb = rbuff[index+5];
 1037              		.loc 1 303 0 discriminator 3
 1038 0220 A11C     		adds	r1, r4, #2
 1039 0222 5118     		adds	r1, r2, r1
 1040 0224 087D     		ldrb	r0, [r1, #20]
 1041 0226 2F21     		movs	r1, #47
 1042 0228 5854     		strb	r0, [r3, r1]
 1043 022a E11C     		adds	r1, r4, #3
 1044 022c 5118     		adds	r1, r2, r1
 1045 022e 087D     		ldrb	r0, [r1, #20]
 1046 0230 2E21     		movs	r1, #46
 1047 0232 5854     		strb	r0, [r3, r1]
 304:AccDriver.c   ****                 Interpolate();
 1048              		.loc 1 304 0 discriminator 3
 1049 0234 211D     		adds	r1, r4, #4
 1050 0236 5118     		adds	r1, r2, r1
 1051 0238 087D     		ldrb	r0, [r1, #20]
 1052 023a 3121     		movs	r1, #49
ARM GAS  C:\Users\fiona\AppData\Local\Temp\ccJKYDXi.s 			page 35


 1053 023c 5854     		strb	r0, [r3, r1]
 1054 023e 611D     		adds	r1, r4, #5
 1055 0240 5218     		adds	r2, r2, r1
 1056 0242 117D     		ldrb	r1, [r2, #20]
 1057 0244 3022     		movs	r2, #48
 1058 0246 9954     		strb	r1, [r3, r2]
 305:AccDriver.c   ****             }
 1059              		.loc 1 305 0 discriminator 3
 1060 0248 FFF7FEFF 		bl	Interpolate
 1061              	.LVL69:
 300:AccDriver.c   ****             {
 1062              		.loc 1 300 0 discriminator 3
 1063 024c 0634     		adds	r4, r4, #6
 1064              	.LVL70:
 1065 024e A4B2     		uxth	r4, r4
 1066              	.LVL71:
 1067 0250 00E0     		b	.L37
 1068              	.LVL72:
 1069              	.L53:
 1070              	.LBE77:
 189:AccDriver.c   ****     {
 1071              		.loc 1 189 0
 1072 0252 0024     		movs	r4, #0
 1073              	.L37:
 1074              	.LVL73:
 1075              	.LBB78:
 300:AccDriver.c   ****             {
 1076              		.loc 1 300 0 discriminator 1
 1077 0254 6223     		movs	r3, #98
 1078 0256 054A     		ldr	r2, .L54
 1079 0258 D35A     		ldrh	r3, [r2, r3]
 1080 025a 9C42     		cmp	r4, r3
 1081 025c D5D3     		bcc	.L51
 1082              	.LBE78:
 307:AccDriver.c   ****             return true;
 1083              		.loc 1 307 0
 1084 025e 0021     		movs	r1, #0
 1085 0260 5C23     		movs	r3, #92
 1086 0262 D152     		strh	r1, [r2, r3]
 308:AccDriver.c   ****         }
 1087              		.loc 1 308 0
 1088 0264 0120     		movs	r0, #1
 1089 0266 00E0     		b	.L28
 1090              	.LVL74:
 1091              	.L52:
 1092              		.loc 1 311 0
 1093 0268 0020     		movs	r0, #0
 1094              	.L28:
 312:AccDriver.c   **** }
 1095              		.loc 1 312 0
 1096              		@ sp needed
 1097 026a 10BD     		pop	{r4, pc}
 1098              	.L55:
 1099              		.align	2
 1100              	.L54:
 1101 026c 00010000 		.word	.LANCHOR1
 1102 0270 00000000 		.word	.L30
ARM GAS  C:\Users\fiona\AppData\Local\Temp\ccJKYDXi.s 			page 36


 1103 0274 00000000 		.word	.LANCHOR2
 1104 0278 20000000 		.word	.L40
 1105 027c 00000000 		.word	.LANCHOR0
 1106 0280 00000000 		.word	SensorBus_context
 1107 0284 00006240 		.word	1080164352
 1108              		.cfi_endproc
 1109              	.LFE845:
 1110              		.size	AccDriver_OperationDone, .-AccDriver_OperationDone
 1111              		.section	.text.AccDriver_UpdateSetting,"ax",%progbits
 1112              		.align	2
 1113              		.global	AccDriver_UpdateSetting
 1114              		.code	16
 1115              		.thumb_func
 1116              		.type	AccDriver_UpdateSetting, %function
 1117              	AccDriver_UpdateSetting:
 1118              	.LFB846:
 313:AccDriver.c   **** int32 AccDriver_UpdateSetting(uint8 setting_type, int32 setting_value)
 314:AccDriver.c   **** {
 1119              		.loc 1 314 0
 1120              		.cfi_startproc
 1121              		@ args = 0, pretend = 0, frame = 0
 1122              		@ frame_needed = 0, uses_anonymous_args = 0
 1123              	.LVL75:
 1124 0000 10B5     		push	{r4, lr}
 1125              		.cfi_def_cfa_offset 8
 1126              		.cfi_offset 4, -8
 1127              		.cfi_offset 14, -4
 1128 0002 0C00     		movs	r4, r1
 315:AccDriver.c   ****     static int32 old_setting_value = 0;
 316:AccDriver.c   ****     if(old_setting_value == setting_value) return sample_period;
 1129              		.loc 1 316 0
 1130 0004 504B     		ldr	r3, .L72
 1131 0006 5B6E     		ldr	r3, [r3, #100]
 1132 0008 8B42     		cmp	r3, r1
 1133 000a 02D1     		bne	.L57
 1134              		.loc 1 316 0 is_stmt 0 discriminator 1
 1135 000c 4E4B     		ldr	r3, .L72
 1136 000e 986D     		ldr	r0, [r3, #88]
 1137              	.LVL76:
 1138 0010 99E0     		b	.L58
 1139              	.LVL77:
 1140              	.L57:
 317:AccDriver.c   ****     
 318:AccDriver.c   ****     old_setting_value = setting_value;
 1141              		.loc 1 318 0 is_stmt 1
 1142 0012 4D4B     		ldr	r3, .L72
 1143 0014 5966     		str	r1, [r3, #100]
 319:AccDriver.c   ****     device_rate_changed = true;
 1144              		.loc 1 319 0
 1145 0016 0122     		movs	r2, #1
 1146 0018 4C4B     		ldr	r3, .L72+4
 1147 001a 5A70     		strb	r2, [r3, #1]
 320:AccDriver.c   ****     
 321:AccDriver.c   ****     if(setting_value < 0)
 1148              		.loc 1 321 0
 1149 001c 0029     		cmp	r1, #0
 1150 001e 09DA     		bge	.L59
ARM GAS  C:\Users\fiona\AppData\Local\Temp\ccJKYDXi.s 			page 37


 322:AccDriver.c   ****     {
 323:AccDriver.c   ****         interpolated_period = 1000/abs(setting_value);
 1151              		.loc 1 323 0
 1152 0020 CB17     		asrs	r3, r1, #31
 1153 0022 C918     		adds	r1, r1, r3
 1154              	.LVL78:
 1155 0024 5940     		eors	r1, r3
 1156 0026 FA20     		movs	r0, #250
 1157              	.LVL79:
 1158 0028 8000     		lsls	r0, r0, #2
 1159 002a FFF7FEFF 		bl	__aeabi_idiv
 1160              	.LVL80:
 1161 002e 464B     		ldr	r3, .L72
 1162 0030 5865     		str	r0, [r3, #84]
 1163 0032 01E0     		b	.L60
 1164              	.LVL81:
 1165              	.L59:
 324:AccDriver.c   ****     }
 325:AccDriver.c   ****     else
 326:AccDriver.c   ****     {   
 327:AccDriver.c   ****         interpolated_period = setting_value;
 1166              		.loc 1 327 0
 1167 0034 444B     		ldr	r3, .L72
 1168 0036 5965     		str	r1, [r3, #84]
 1169              	.LVL82:
 1170              	.L60:
 328:AccDriver.c   ****     }
 329:AccDriver.c   ****     
 330:AccDriver.c   ****     if(setting_value == 0)
 1171              		.loc 1 330 0
 1172 0038 002C     		cmp	r4, #0
 1173 003a 07D1     		bne	.L61
 331:AccDriver.c   ****     {
 332:AccDriver.c   ****         device_rate_setting = ACC_1E_OFF;
 1174              		.loc 1 332 0
 1175 003c 0822     		movs	r2, #8
 1176 003e 434B     		ldr	r3, .L72+4
 1177 0040 9A70     		strb	r2, [r3, #2]
 333:AccDriver.c   ****         sample_period = 0;
 1178              		.loc 1 333 0
 1179 0042 414B     		ldr	r3, .L72
 1180 0044 0022     		movs	r2, #0
 1181 0046 9A65     		str	r2, [r3, #88]
 334:AccDriver.c   ****         interrupt_period = 0;
 1182              		.loc 1 334 0
 1183 0048 9A66     		str	r2, [r3, #104]
 1184 004a 6BE0     		b	.L62
 1185              	.L61:
 335:AccDriver.c   ****     }
 336:AccDriver.c   ****     else if(setting_value == -1 || setting_value > 0)
 1186              		.loc 1 336 0
 1187 004c 631C     		adds	r3, r4, #1
 1188 004e 01D0     		beq	.L63
 1189              		.loc 1 336 0 is_stmt 0 discriminator 1
 1190 0050 002C     		cmp	r4, #0
 1191 0052 0ADD     		ble	.L64
 1192              	.L63:
ARM GAS  C:\Users\fiona\AppData\Local\Temp\ccJKYDXi.s 			page 38


 337:AccDriver.c   ****     {
 338:AccDriver.c   ****         device_rate_setting = ACC_1E_RATE_1_HZ;
 1193              		.loc 1 338 0 is_stmt 1
 1194 0054 0722     		movs	r2, #7
 1195 0056 3D4B     		ldr	r3, .L72+4
 1196 0058 9A70     		strb	r2, [r3, #2]
 339:AccDriver.c   ****         sample_period = 1000;
 1197              		.loc 1 339 0
 1198 005a 3B4B     		ldr	r3, .L72
 1199 005c FA22     		movs	r2, #250
 1200 005e 9200     		lsls	r2, r2, #2
 1201 0060 9A65     		str	r2, [r3, #88]
 340:AccDriver.c   ****         interrupt_period = 16000;
 1202              		.loc 1 340 0
 1203 0062 FA22     		movs	r2, #250
 1204 0064 9201     		lsls	r2, r2, #6
 1205 0066 9A66     		str	r2, [r3, #104]
 1206 0068 5CE0     		b	.L62
 1207              	.L64:
 341:AccDriver.c   ****     }
 342:AccDriver.c   ****     else if(setting_value < -1 && setting_value >= -12)
 1208              		.loc 1 342 0
 1209 006a 2300     		movs	r3, r4
 1210 006c 0C33     		adds	r3, r3, #12
 1211 006e 0A2B     		cmp	r3, #10
 1212 0070 09D8     		bhi	.L65
 343:AccDriver.c   ****     {
 344:AccDriver.c   ****         device_rate_setting = ACC_1E_RATE_12_5_HZ;
 1213              		.loc 1 344 0
 1214 0072 0622     		movs	r2, #6
 1215 0074 354B     		ldr	r3, .L72+4
 1216 0076 9A70     		strb	r2, [r3, #2]
 345:AccDriver.c   ****         sample_period = 80;
 1217              		.loc 1 345 0
 1218 0078 334B     		ldr	r3, .L72
 1219 007a 4A32     		adds	r2, r2, #74
 1220 007c 9A65     		str	r2, [r3, #88]
 346:AccDriver.c   ****         interrupt_period = 1280;
 1221              		.loc 1 346 0
 1222 007e A022     		movs	r2, #160
 1223 0080 D200     		lsls	r2, r2, #3
 1224 0082 9A66     		str	r2, [r3, #104]
 1225 0084 4EE0     		b	.L62
 1226              	.L65:
 347:AccDriver.c   ****     }
 348:AccDriver.c   ****     else if(setting_value < -12 && setting_value >= -25)
 1227              		.loc 1 348 0
 1228 0086 2300     		movs	r3, r4
 1229 0088 1933     		adds	r3, r3, #25
 1230 008a 0C2B     		cmp	r3, #12
 1231 008c 09D8     		bhi	.L66
 349:AccDriver.c   ****     {
 350:AccDriver.c   ****         device_rate_setting = ACC_1E_RATE_25_HZ;
 1232              		.loc 1 350 0
 1233 008e 0522     		movs	r2, #5
 1234 0090 2E4B     		ldr	r3, .L72+4
 1235 0092 9A70     		strb	r2, [r3, #2]
ARM GAS  C:\Users\fiona\AppData\Local\Temp\ccJKYDXi.s 			page 39


 351:AccDriver.c   ****         sample_period = 40;
 1236              		.loc 1 351 0
 1237 0094 2C4B     		ldr	r3, .L72
 1238 0096 2332     		adds	r2, r2, #35
 1239 0098 9A65     		str	r2, [r3, #88]
 352:AccDriver.c   ****         interrupt_period = 640;
 1240              		.loc 1 352 0
 1241 009a A022     		movs	r2, #160
 1242 009c 9200     		lsls	r2, r2, #2
 1243 009e 9A66     		str	r2, [r3, #104]
 1244 00a0 40E0     		b	.L62
 1245              	.L66:
 353:AccDriver.c   ****     }
 354:AccDriver.c   ****     else if(setting_value < -25 && setting_value >= -50)
 1246              		.loc 1 354 0
 1247 00a2 2300     		movs	r3, r4
 1248 00a4 3233     		adds	r3, r3, #50
 1249 00a6 182B     		cmp	r3, #24
 1250 00a8 09D8     		bhi	.L67
 355:AccDriver.c   ****     {
 356:AccDriver.c   ****         device_rate_setting = ACC_1E_RATE_50_HZ;
 1251              		.loc 1 356 0
 1252 00aa 0422     		movs	r2, #4
 1253 00ac 274B     		ldr	r3, .L72+4
 1254 00ae 9A70     		strb	r2, [r3, #2]
 357:AccDriver.c   ****         sample_period = 20;
 1255              		.loc 1 357 0
 1256 00b0 254B     		ldr	r3, .L72
 1257 00b2 1032     		adds	r2, r2, #16
 1258 00b4 9A65     		str	r2, [r3, #88]
 358:AccDriver.c   ****         interrupt_period = 320;
 1259              		.loc 1 358 0
 1260 00b6 2D32     		adds	r2, r2, #45
 1261 00b8 FF32     		adds	r2, r2, #255
 1262 00ba 9A66     		str	r2, [r3, #104]
 1263 00bc 32E0     		b	.L62
 1264              	.L67:
 359:AccDriver.c   ****     }
 360:AccDriver.c   ****     else if(setting_value < -50 && setting_value >= -100)
 1265              		.loc 1 360 0
 1266 00be 2300     		movs	r3, r4
 1267 00c0 6433     		adds	r3, r3, #100
 1268 00c2 312B     		cmp	r3, #49
 1269 00c4 08D8     		bhi	.L68
 361:AccDriver.c   ****     {
 362:AccDriver.c   ****         device_rate_setting = ACC_1E_RATE_100_HZ;
 1270              		.loc 1 362 0
 1271 00c6 0322     		movs	r2, #3
 1272 00c8 204B     		ldr	r3, .L72+4
 1273 00ca 9A70     		strb	r2, [r3, #2]
 363:AccDriver.c   ****         sample_period = 10;
 1274              		.loc 1 363 0
 1275 00cc 1E4B     		ldr	r3, .L72
 1276 00ce 0732     		adds	r2, r2, #7
 1277 00d0 9A65     		str	r2, [r3, #88]
 364:AccDriver.c   ****         interrupt_period = 160;
 1278              		.loc 1 364 0
ARM GAS  C:\Users\fiona\AppData\Local\Temp\ccJKYDXi.s 			page 40


 1279 00d2 9632     		adds	r2, r2, #150
 1280 00d4 9A66     		str	r2, [r3, #104]
 1281 00d6 25E0     		b	.L62
 1282              	.L68:
 365:AccDriver.c   ****     }
 366:AccDriver.c   ****     else if(setting_value < -100 && setting_value >= -200)
 1283              		.loc 1 366 0
 1284 00d8 2300     		movs	r3, r4
 1285 00da C833     		adds	r3, r3, #200
 1286 00dc 632B     		cmp	r3, #99
 1287 00de 08D8     		bhi	.L69
 367:AccDriver.c   ****     {
 368:AccDriver.c   ****         device_rate_setting = ACC_1E_RATE_200_HZ;
 1288              		.loc 1 368 0
 1289 00e0 0222     		movs	r2, #2
 1290 00e2 1A4B     		ldr	r3, .L72+4
 1291 00e4 9A70     		strb	r2, [r3, #2]
 369:AccDriver.c   ****         sample_period = 5;
 1292              		.loc 1 369 0
 1293 00e6 184B     		ldr	r3, .L72
 1294 00e8 0332     		adds	r2, r2, #3
 1295 00ea 9A65     		str	r2, [r3, #88]
 370:AccDriver.c   ****         interrupt_period = 80;
 1296              		.loc 1 370 0
 1297 00ec 4B32     		adds	r2, r2, #75
 1298 00ee 9A66     		str	r2, [r3, #104]
 1299 00f0 18E0     		b	.L62
 1300              	.L69:
 371:AccDriver.c   ****     }
 372:AccDriver.c   ****     else if(setting_value < -200 && setting_value >= -400)
 1301              		.loc 1 372 0
 1302 00f2 2300     		movs	r3, r4
 1303 00f4 9133     		adds	r3, r3, #145
 1304 00f6 FF33     		adds	r3, r3, #255
 1305 00f8 C72B     		cmp	r3, #199
 1306 00fa 08D8     		bhi	.L70
 373:AccDriver.c   ****     {
 374:AccDriver.c   ****         device_rate_setting = ACC_1E_RATE_400_HZ;
 1307              		.loc 1 374 0
 1308 00fc 0122     		movs	r2, #1
 1309 00fe 134B     		ldr	r3, .L72+4
 1310 0100 9A70     		strb	r2, [r3, #2]
 375:AccDriver.c   ****         sample_period = 2;
 1311              		.loc 1 375 0
 1312 0102 114B     		ldr	r3, .L72
 1313 0104 0132     		adds	r2, r2, #1
 1314 0106 9A65     		str	r2, [r3, #88]
 376:AccDriver.c   ****         interrupt_period = 32;
 1315              		.loc 1 376 0
 1316 0108 1E32     		adds	r2, r2, #30
 1317 010a 9A66     		str	r2, [r3, #104]
 1318 010c 0AE0     		b	.L62
 1319              	.L70:
 377:AccDriver.c   ****     }
 378:AccDriver.c   ****     else if(setting_value < -400)
 1320              		.loc 1 378 0
 1321 010e 104B     		ldr	r3, .L72+8
ARM GAS  C:\Users\fiona\AppData\Local\Temp\ccJKYDXi.s 			page 41


 1322 0110 9C42     		cmp	r4, r3
 1323 0112 16DA     		bge	.L71
 379:AccDriver.c   ****     {
 380:AccDriver.c   ****         device_rate_setting = ACC_1E_RATE_800_HZ;
 1324              		.loc 1 380 0
 1325 0114 0022     		movs	r2, #0
 1326 0116 0D4B     		ldr	r3, .L72+4
 1327 0118 9A70     		strb	r2, [r3, #2]
 381:AccDriver.c   ****         sample_period = 1;
 1328              		.loc 1 381 0
 1329 011a 0B4B     		ldr	r3, .L72
 1330 011c 0132     		adds	r2, r2, #1
 1331 011e 9A65     		str	r2, [r3, #88]
 382:AccDriver.c   ****         interrupt_period = 16;
 1332              		.loc 1 382 0
 1333 0120 0F32     		adds	r2, r2, #15
 1334 0122 9A66     		str	r2, [r3, #104]
 1335              	.L62:
 383:AccDriver.c   ****     }
 384:AccDriver.c   ****     else
 385:AccDriver.c   ****     {
 386:AccDriver.c   ****         return -1;
 387:AccDriver.c   ****     }
 388:AccDriver.c   ****       
 389:AccDriver.c   ****     denominators[ACC1ESLOT] = 163840;
 1336              		.loc 1 389 0
 1337 0124 A022     		movs	r2, #160
 1338 0126 9202     		lsls	r2, r2, #10
 1339 0128 0A4B     		ldr	r3, .L72+12
 1340 012a 9A60     		str	r2, [r3, #8]
 390:AccDriver.c   ****     numerators[ACC1ESLOT] = 98;
 1341              		.loc 1 390 0
 1342 012c 6222     		movs	r2, #98
 1343 012e 0A4B     		ldr	r3, .L72+16
 1344 0130 9A60     		str	r2, [r3, #8]
 391:AccDriver.c   ****     interpolated.timestamp.second = interpolated_period;
 1345              		.loc 1 391 0
 1346 0132 054B     		ldr	r3, .L72
 1347 0134 223A     		subs	r2, r2, #34
 1348 0136 596D     		ldr	r1, [r3, #84]
 1349 0138 9952     		strh	r1, [r3, r2]
 392:AccDriver.c   ****     sample_old.timestamp.second = 0;    
 393:AccDriver.c   ****     sample_new.timestamp.second = sample_period;
 1350              		.loc 1 393 0
 1351 013a 9A6D     		ldr	r2, [r3, #88]
 1352 013c 1A84     		strh	r2, [r3, #32]
 394:AccDriver.c   ****     
 395:AccDriver.c   ****     return interrupt_period;
 1353              		.loc 1 395 0
 1354 013e 986E     		ldr	r0, [r3, #104]
 1355 0140 01E0     		b	.L58
 1356              	.L71:
 386:AccDriver.c   ****     }
 1357              		.loc 1 386 0
 1358 0142 0120     		movs	r0, #1
 1359 0144 4042     		rsbs	r0, r0, #0
 1360              	.L58:
ARM GAS  C:\Users\fiona\AppData\Local\Temp\ccJKYDXi.s 			page 42


 396:AccDriver.c   **** }
 1361              		.loc 1 396 0
 1362              		@ sp needed
 1363              	.LVL83:
 1364 0146 10BD     		pop	{r4, pc}
 1365              	.L73:
 1366              		.align	2
 1367              	.L72:
 1368 0148 00010000 		.word	.LANCHOR1
 1369 014c 00000000 		.word	.LANCHOR2
 1370 0150 70FEFFFF 		.word	-400
 1371 0154 00000000 		.word	denominators
 1372 0158 00000000 		.word	numerators
 1373              		.cfi_endproc
 1374              	.LFE846:
 1375              		.size	AccDriver_UpdateSetting, .-AccDriver_UpdateSetting
 1376              		.comm	denominators,40,4
 1377              		.comm	numerators,40,4
 1378              		.data
 1379              		.align	2
 1380              		.set	.LANCHOR2,. + 0
 1381              		.type	is_first_sample, %object
 1382              		.size	is_first_sample, 1
 1383              	is_first_sample:
 1384 0000 01       		.byte	1
 1385              		.type	device_rate_changed, %object
 1386              		.size	device_rate_changed, 1
 1387              	device_rate_changed:
 1388 0001 01       		.byte	1
 1389              		.type	device_rate_setting, %object
 1390              		.size	device_rate_setting, 1
 1391              	device_rate_setting:
 1392 0002 06       		.byte	6
 1393 0003 00       		.space	1
 1394              		.type	val1.19838, %object
 1395              		.size	val1.19838, 1
 1396              	val1.19838:
 1397 0004 2F       		.byte	47
 1398 0005 000000   		.space	3
 1399              		.type	val2.19839, %object
 1400              		.size	val2.19839, 1
 1401              	val2.19839:
 1402 0008 30       		.byte	48
 1403 0009 000000   		.space	3
 1404              		.type	val3.19840, %object
 1405              		.size	val3.19840, 1
 1406              	val3.19840:
 1407 000c 28       		.byte	40
 1408              		.bss
 1409              		.align	2
 1410              		.set	.LANCHOR0,. + 0
 1411              		.set	.LANCHOR1,. + 256
 1412              		.type	wbuff, %object
 1413              		.size	wbuff, 2
 1414              	wbuff:
 1415 0000 0000     		.space	2
 1416 0002 0000     		.space	2
ARM GAS  C:\Users\fiona\AppData\Local\Temp\ccJKYDXi.s 			page 43


 1417              		.type	register_setting, %object
 1418              		.size	register_setting, 16
 1419              	register_setting:
 1420 0004 00000000 		.space	16
 1420      00000000 
 1420      00000000 
 1420      00000000 
 1421              		.type	rbuff, %object
 1422              		.size	rbuff, 256
 1423              	rbuff:
 1424 0014 00000000 		.space	256
 1424      00000000 
 1424      00000000 
 1424      00000000 
 1424      00000000 
 1425              		.type	sample_new, %object
 1426              		.size	sample_new, 24
 1427              	sample_new:
 1428 0114 00000000 		.space	24
 1428      00000000 
 1428      00000000 
 1428      00000000 
 1428      00000000 
 1429              		.type	x_msb, %object
 1430              		.size	x_msb, 1
 1431              	x_msb:
 1432 012c 00       		.space	1
 1433              		.type	x_lsb, %object
 1434              		.size	x_lsb, 1
 1435              	x_lsb:
 1436 012d 00       		.space	1
 1437              		.type	y_msb, %object
 1438              		.size	y_msb, 1
 1439              	y_msb:
 1440 012e 00       		.space	1
 1441              		.type	y_lsb, %object
 1442              		.size	y_lsb, 1
 1443              	y_lsb:
 1444 012f 00       		.space	1
 1445              		.type	z_msb, %object
 1446              		.size	z_msb, 1
 1447              	z_msb:
 1448 0130 00       		.space	1
 1449              		.type	z_lsb, %object
 1450              		.size	z_lsb, 1
 1451              	z_lsb:
 1452 0131 00       		.space	1
 1453 0132 0000     		.space	2
 1454              		.type	interpolated, %object
 1455              		.size	interpolated, 24
 1456              	interpolated:
 1457 0134 00000000 		.space	24
 1457      00000000 
 1457      00000000 
 1457      00000000 
 1457      00000000 
 1458              		.type	wsample, %object
ARM GAS  C:\Users\fiona\AppData\Local\Temp\ccJKYDXi.s 			page 44


 1459              		.size	wsample, 4
 1460              	wsample:
 1461 014c 00000000 		.space	4
 1462              		.type	wsample_ptr, %object
 1463              		.size	wsample_ptr, 4
 1464              	wsample_ptr:
 1465 0150 00000000 		.space	4
 1466              		.type	interpolated_period, %object
 1467              		.size	interpolated_period, 4
 1468              	interpolated_period:
 1469 0154 00000000 		.space	4
 1470              		.type	sample_period, %object
 1471              		.size	sample_period, 4
 1472              	sample_period:
 1473 0158 00000000 		.space	4
 1474              		.type	state.19836, %object
 1475              		.size	state.19836, 2
 1476              	state.19836:
 1477 015c 0000     		.space	2
 1478 015e 0000     		.space	2
 1479              		.type	pkt.19835, %object
 1480              		.size	pkt.19835, 2
 1481              	pkt.19835:
 1482 0160 0000     		.space	2
 1483              		.type	datums.19837, %object
 1484              		.size	datums.19837, 2
 1485              	datums.19837:
 1486 0162 0000     		.space	2
 1487              		.type	old_setting_value.19876, %object
 1488              		.size	old_setting_value.19876, 4
 1489              	old_setting_value.19876:
 1490 0164 00000000 		.space	4
 1491              		.type	interrupt_period, %object
 1492              		.size	interrupt_period, 4
 1493              	interrupt_period:
 1494 0168 00000000 		.space	4
 1495              		.text
 1496              	.Letext0:
 1497              		.file 3 "c:\\program files (x86)\\cypress\\psoc creator\\4.2\\psoc creator\\import\\gnu\\arm\\5.4.
 1498              		.file 4 "c:\\program files (x86)\\cypress\\psoc creator\\4.2\\psoc creator\\import\\gnu\\arm\\5.4.
 1499              		.file 5 "Generated_Source\\PSoC6\\pdl\\devices/psoc6/ip/cyip_scb.h"
 1500              		.file 6 "Generated_Source\\PSoC6\\pdl\\drivers/peripheral/syslib/cy_syslib.h"
 1501              		.file 7 "Generated_Source\\PSoC6\\pdl\\drivers/peripheral/tcpwm/cy_tcpwm_counter.h"
 1502              		.file 8 "Generated_Source\\PSoC6\\pdl\\drivers/peripheral/tcpwm/cy_tcpwm_pwm.h"
 1503              		.file 9 "Generated_Source\\PSoC6\\pdl\\drivers/peripheral/scb/cy_scb_i2c.h"
 1504              		.file 10 "Generated_Source\\PSoC6\\pdl\\drivers/peripheral/scb/cy_scb_uart.h"
 1505              		.file 11 "Generated_Source\\PSoC6\\pdl\\drivers/peripheral/sar/cy_sar.h"
 1506              		.file 12 "Generated_Source\\PSoC6\\pdl\\middleware/ble/cy_ble_stack.h"
 1507              		.file 13 "Generated_Source\\PSoC6\\pdl\\middleware/ble/cy_ble_stack_host_main.h"
 1508              		.file 14 "Generated_Source\\PSoC6\\pdl\\middleware/ble/cy_ble_gap.h"
 1509              		.file 15 "Generated_Source\\PSoC6/ADC.h"
 1510              		.file 16 "./KinOS.h"
 1511              		.file 17 "./AccDriver.h"
 1512              		.file 18 "./DataBuffer.h"
 1513              		.file 19 "Generated_Source\\PSoC6\\pdl\\drivers/peripheral/rtc/cy_rtc.h"
 1514              		.file 20 "Generated_Source\\PSoC6/UART_DEBUG.h"
 1515              		.file 21 "Generated_Source\\PSoC6/LightOutputC.h"
ARM GAS  C:\Users\fiona\AppData\Local\Temp\ccJKYDXi.s 			page 45


 1516              		.file 22 "Generated_Source\\PSoC6/LightOutputA.h"
 1517              		.file 23 "Generated_Source\\PSoC6/LightTimer.h"
 1518              		.file 24 "Generated_Source\\PSoC6/LightOutputB.h"
 1519              		.file 25 "Generated_Source\\PSoC6/MotorOutput.h"
 1520              		.file 26 "Generated_Source\\PSoC6/MotorTimer.h"
 1521              		.file 27 "Generated_Source\\PSoC6/ChimeOutput.h"
 1522              		.file 28 "Generated_Source\\PSoC6/ChimeTimer.h"
 1523              		.file 29 "c:\\program files (x86)\\cypress\\psoc creator\\4.2\\psoc creator\\import\\gnu\\arm\\5.4