ARM GAS  C:\Users\fiona\AppData\Local\Temp\ccJKYDXi.s 			page 1


   1              		.syntax unified
   2              		.cpu cortex-m0plus
   3              		.fpu softvfp
   4              		.eabi_attribute 20, 1
   5              		.eabi_attribute 21, 1
   6              		.eabi_attribute 23, 3
   7              		.eabi_attribute 24, 1
   8              		.eabi_attribute 25, 1
   9              		.eabi_attribute 26, 1
  10              		.eabi_attribute 30, 1
  11              		.eabi_attribute 34, 0
  12              		.eabi_attribute 18, 4
  13              		.thumb
  14              		.syntax unified
  15              		.file	"AccDriver.c"
  16              		.text
  17              	.Ltext0:
  18              		.cfi_sections	.debug_frame
  19              		.section	.text.ReadRegister,"ax",%progbits
  20              		.align	2
  21              		.code	16
  22              		.thumb_func
  23              		.type	ReadRegister, %function
  24              	ReadRegister:
  25              	.LFB841:
  26              		.file 1 "AccDriver.c"
   1:AccDriver.c   **** 
   2:AccDriver.c   **** #include <AccDriver.h>
   3:AccDriver.c   **** #include <DataBuffer.h>
   4:AccDriver.c   **** 
   5:AccDriver.c   **** #include "debug.h"
   6:AccDriver.c   **** 
   7:AccDriver.c   **** static bool   device_rate_changed   = true;
   8:AccDriver.c   **** static uint8  device_rate_setting   = ACC_1E_RATE_12_5_HZ;
   9:AccDriver.c   **** static uint32 interpolated_period   = 0;
  10:AccDriver.c   **** static uint32 sample_period         = 0;
  11:AccDriver.c   **** static uint32 interrupt_period      = 0;
  12:AccDriver.c   **** static cy_stc_scb_i2c_master_xfer_config_t register_setting;
  13:AccDriver.c   **** 
  14:AccDriver.c   **** static bool is_first_sample = true;
  15:AccDriver.c   **** static uint8 rbuff[256]; // Read buffer: 32 sample fifo x 3 axis x 2 bytes
  16:AccDriver.c   **** static uint8 wbuff[2];   // Write buffer
  17:AccDriver.c   **** static struct dAcc1ESlot* wsample;
  18:AccDriver.c   **** static uint8* wsample_ptr;
  19:AccDriver.c   **** static acc_struct sample_old, sample_new, interpolated;
  20:AccDriver.c   **** static uint8 x_msb, x_lsb, y_msb, y_lsb, z_msb, z_lsb;
  21:AccDriver.c   **** 
  22:AccDriver.c   **** static void WriteRegister(uint8 reg_addr, uint8 data)
  23:AccDriver.c   **** {
  24:AccDriver.c   ****     wbuff[0] = reg_addr; wbuff[1] = data;
  25:AccDriver.c   ****     register_setting.buffer = wbuff; register_setting.bufferSize = 2; register_setting.xferPending 
  26:AccDriver.c   ****     
  27:AccDriver.c   ****     cy_en_scb_i2c_status_t i2cReturnValue = SensorBus_MasterWrite(&register_setting);
  28:AccDriver.c   ****     if(i2cReturnValue != CY_SCB_I2C_SUCCESS)
  29:AccDriver.c   ****     {
  30:AccDriver.c   ****         // ** Throw error
  31:AccDriver.c   ****     }
ARM GAS  C:\Users\fiona\AppData\Local\Temp\ccJKYDXi.s 			page 2


  32:AccDriver.c   ****     
  33:AccDriver.c   ****     uint16 counter = 0;
  34:AccDriver.c   ****     while(0 != (SensorBus_MasterGetStatus() & CY_SCB_I2C_MASTER_BUSY)){}
  35:AccDriver.c   ****     {
  36:AccDriver.c   ****         if(++counter > 1000)
  37:AccDriver.c   ****         {
  38:AccDriver.c   ****             // ** Throw error
  39:AccDriver.c   ****             return;
  40:AccDriver.c   ****         }
  41:AccDriver.c   ****         else
  42:AccDriver.c   ****         {
  43:AccDriver.c   ****             CyDelayUs(1);  // Keep Waiting
  44:AccDriver.c   ****         }
  45:AccDriver.c   ****     }
  46:AccDriver.c   ****     return;
  47:AccDriver.c   **** }
  48:AccDriver.c   **** static uint8 ReadRegister(uint8 reg_addr)
  49:AccDriver.c   **** {
  27              		.loc 1 49 0
  28              		.cfi_startproc
  29              		@ args = 0, pretend = 0, frame = 0
  30              		@ frame_needed = 0, uses_anonymous_args = 0
  31              	.LVL0:
  32 0000 10B5     		push	{r4, lr}
  33              		.cfi_def_cfa_offset 8
  34              		.cfi_offset 4, -8
  35              		.cfi_offset 14, -4
  50:AccDriver.c   ****     cy_en_scb_i2c_status_t i2cReturnValue;
  51:AccDriver.c   ****     
  52:AccDriver.c   ****     wbuff[0] = reg_addr;    
  36              		.loc 1 52 0
  37 0002 1F49     		ldr	r1, .L8
  38 0004 0870     		strb	r0, [r1]
  53:AccDriver.c   ****     register_setting.buffer = wbuff; register_setting.bufferSize = 1; register_setting.xferPending 
  39              		.loc 1 53 0
  40 0006 8960     		str	r1, [r1, #8]
  41 0008 0123     		movs	r3, #1
  42 000a CB60     		str	r3, [r1, #12]
  43 000c 0B74     		strb	r3, [r1, #16]
  44              	.LVL1:
  45              	.LBB37:
  46              	.LBB38:
  47              		.file 2 "Generated_Source\\PSoC6/SensorBus.h"
   1:Generated_Source\PSoC6/SensorBus.h **** /***************************************************************************//**
   2:Generated_Source\PSoC6/SensorBus.h **** * \file SensorBus.c
   3:Generated_Source\PSoC6/SensorBus.h **** * \version 2.0
   4:Generated_Source\PSoC6/SensorBus.h **** *
   5:Generated_Source\PSoC6/SensorBus.h **** *  This file provides constants and parameter values for the I2C component.
   6:Generated_Source\PSoC6/SensorBus.h **** *
   7:Generated_Source\PSoC6/SensorBus.h **** ********************************************************************************
   8:Generated_Source\PSoC6/SensorBus.h **** * \copyright
   9:Generated_Source\PSoC6/SensorBus.h **** * Copyright 2016-2017, Cypress Semiconductor Corporation. All rights reserved.
  10:Generated_Source\PSoC6/SensorBus.h **** * You may use this file only in accordance with the license, terms, conditions,
  11:Generated_Source\PSoC6/SensorBus.h **** * disclaimers, and limitations in the end user license agreement accompanying
  12:Generated_Source\PSoC6/SensorBus.h **** * the software package with which this file was provided.
  13:Generated_Source\PSoC6/SensorBus.h **** *******************************************************************************/
  14:Generated_Source\PSoC6/SensorBus.h **** 
ARM GAS  C:\Users\fiona\AppData\Local\Temp\ccJKYDXi.s 			page 3


  15:Generated_Source\PSoC6/SensorBus.h **** #if !defined(SensorBus_CY_SCB_I2C_PDL_H)
  16:Generated_Source\PSoC6/SensorBus.h **** #define SensorBus_CY_SCB_I2C_PDL_H
  17:Generated_Source\PSoC6/SensorBus.h **** 
  18:Generated_Source\PSoC6/SensorBus.h **** #include "cyfitter.h"
  19:Generated_Source\PSoC6/SensorBus.h **** #include "scb/cy_scb_i2c.h"
  20:Generated_Source\PSoC6/SensorBus.h **** 
  21:Generated_Source\PSoC6/SensorBus.h **** #if defined(__cplusplus)
  22:Generated_Source\PSoC6/SensorBus.h **** extern "C" {
  23:Generated_Source\PSoC6/SensorBus.h **** #endif
  24:Generated_Source\PSoC6/SensorBus.h **** 
  25:Generated_Source\PSoC6/SensorBus.h **** /***************************************
  26:Generated_Source\PSoC6/SensorBus.h **** *   Initial Parameter Constants
  27:Generated_Source\PSoC6/SensorBus.h **** ****************************************/
  28:Generated_Source\PSoC6/SensorBus.h **** 
  29:Generated_Source\PSoC6/SensorBus.h **** #define SensorBus_MODE               (0x2U)
  30:Generated_Source\PSoC6/SensorBus.h **** #define SensorBus_MODE_SLAVE_MASK    (0x1U)
  31:Generated_Source\PSoC6/SensorBus.h **** #define SensorBus_MODE_MASTER_MASK   (0x2U)
  32:Generated_Source\PSoC6/SensorBus.h **** 
  33:Generated_Source\PSoC6/SensorBus.h **** #define SensorBus_ENABLE_SLAVE       (0UL != (SensorBus_MODE & SensorBus_MODE_SLAVE_MASK))
  34:Generated_Source\PSoC6/SensorBus.h **** #define SensorBus_ENABLE_MASTER      (0UL != (SensorBus_MODE & SensorBus_MODE_MASTER_MASK))
  35:Generated_Source\PSoC6/SensorBus.h **** #define SensorBus_MANUAL_SCL_CONTROL (0U)
  36:Generated_Source\PSoC6/SensorBus.h **** 
  37:Generated_Source\PSoC6/SensorBus.h **** 
  38:Generated_Source\PSoC6/SensorBus.h **** /***************************************
  39:Generated_Source\PSoC6/SensorBus.h **** *        Function Prototypes
  40:Generated_Source\PSoC6/SensorBus.h **** ***************************************/
  41:Generated_Source\PSoC6/SensorBus.h **** /**
  42:Generated_Source\PSoC6/SensorBus.h **** * \addtogroup group_general
  43:Generated_Source\PSoC6/SensorBus.h **** * @{
  44:Generated_Source\PSoC6/SensorBus.h **** */
  45:Generated_Source\PSoC6/SensorBus.h **** /* Component only APIs. */
  46:Generated_Source\PSoC6/SensorBus.h **** void SensorBus_Start(void);
  47:Generated_Source\PSoC6/SensorBus.h **** 
  48:Generated_Source\PSoC6/SensorBus.h **** /* Basic functions. */
  49:Generated_Source\PSoC6/SensorBus.h **** __STATIC_INLINE cy_en_scb_i2c_status_t SensorBus_Init(cy_stc_scb_i2c_config_t const *config);
  50:Generated_Source\PSoC6/SensorBus.h **** __STATIC_INLINE void SensorBus_DeInit (void);
  51:Generated_Source\PSoC6/SensorBus.h **** __STATIC_INLINE void SensorBus_Enable (void);
  52:Generated_Source\PSoC6/SensorBus.h **** __STATIC_INLINE void SensorBus_Disable(void);
  53:Generated_Source\PSoC6/SensorBus.h **** 
  54:Generated_Source\PSoC6/SensorBus.h **** /* Data rate configuration functions. */
  55:Generated_Source\PSoC6/SensorBus.h **** __STATIC_INLINE uint32_t SensorBus_SetDataRate(uint32_t dataRateHz, uint32_t scbClockHz);
  56:Generated_Source\PSoC6/SensorBus.h **** __STATIC_INLINE uint32_t SensorBus_GetDataRate(uint32_t scbClockHz);
  57:Generated_Source\PSoC6/SensorBus.h **** 
  58:Generated_Source\PSoC6/SensorBus.h **** /* Register callbacks. */
  59:Generated_Source\PSoC6/SensorBus.h **** __STATIC_INLINE void SensorBus_RegisterEventCallback(cy_cb_scb_i2c_handle_events_t callback);
  60:Generated_Source\PSoC6/SensorBus.h **** #if (SensorBus_ENABLE_SLAVE)
  61:Generated_Source\PSoC6/SensorBus.h **** __STATIC_INLINE void SensorBus_RegisterAddrCallback (cy_cb_scb_i2c_handle_addr_t callback);
  62:Generated_Source\PSoC6/SensorBus.h **** #endif /* (SensorBus_ENABLE_SLAVE) */
  63:Generated_Source\PSoC6/SensorBus.h **** 
  64:Generated_Source\PSoC6/SensorBus.h **** /* Configuration functions. */
  65:Generated_Source\PSoC6/SensorBus.h **** #if (SensorBus_ENABLE_SLAVE)
  66:Generated_Source\PSoC6/SensorBus.h **** __STATIC_INLINE void     SensorBus_SlaveSetAddress(uint8_t addr);
  67:Generated_Source\PSoC6/SensorBus.h **** __STATIC_INLINE uint32_t SensorBus_SlaveGetAddress(void);
  68:Generated_Source\PSoC6/SensorBus.h **** __STATIC_INLINE void     SensorBus_SlaveSetAddressMask(uint8_t addrMask);
  69:Generated_Source\PSoC6/SensorBus.h **** __STATIC_INLINE uint32_t SensorBus_SlaveGetAddressMask(void);
  70:Generated_Source\PSoC6/SensorBus.h **** #endif /* (SensorBus_ENABLE_SLAVE) */
  71:Generated_Source\PSoC6/SensorBus.h **** 
ARM GAS  C:\Users\fiona\AppData\Local\Temp\ccJKYDXi.s 			page 4


  72:Generated_Source\PSoC6/SensorBus.h **** #if (SensorBus_ENABLE_MASTER)
  73:Generated_Source\PSoC6/SensorBus.h **** __STATIC_INLINE void SensorBus_MasterSetLowPhaseDutyCycle (uint32_t clockCycles);
  74:Generated_Source\PSoC6/SensorBus.h **** __STATIC_INLINE void SensorBus_MasterSetHighPhaseDutyCycle(uint32_t clockCycles);
  75:Generated_Source\PSoC6/SensorBus.h **** #endif /* (SensorBus_ENABLE_MASTER) */
  76:Generated_Source\PSoC6/SensorBus.h **** 
  77:Generated_Source\PSoC6/SensorBus.h **** /* Bus status. */
  78:Generated_Source\PSoC6/SensorBus.h **** __STATIC_INLINE bool     SensorBus_IsBusBusy(void);
  79:Generated_Source\PSoC6/SensorBus.h **** 
  80:Generated_Source\PSoC6/SensorBus.h **** /* Slave functions. */
  81:Generated_Source\PSoC6/SensorBus.h **** #if (SensorBus_ENABLE_SLAVE)
  82:Generated_Source\PSoC6/SensorBus.h **** __STATIC_INLINE uint32_t SensorBus_SlaveGetStatus(void);
  83:Generated_Source\PSoC6/SensorBus.h **** 
  84:Generated_Source\PSoC6/SensorBus.h **** __STATIC_INLINE void     SensorBus_SlaveConfigReadBuf(uint8_t *buffer, uint32_t size);
  85:Generated_Source\PSoC6/SensorBus.h **** __STATIC_INLINE void     SensorBus_SlaveAbortRead(void);
  86:Generated_Source\PSoC6/SensorBus.h **** __STATIC_INLINE uint32_t SensorBus_SlaveGetReadTransferCount(void);
  87:Generated_Source\PSoC6/SensorBus.h **** __STATIC_INLINE uint32_t SensorBus_SlaveClearReadStatus(void);
  88:Generated_Source\PSoC6/SensorBus.h **** 
  89:Generated_Source\PSoC6/SensorBus.h **** __STATIC_INLINE void     SensorBus_SlaveConfigWriteBuf(uint8_t *buffer, uint32_t size);
  90:Generated_Source\PSoC6/SensorBus.h **** __STATIC_INLINE void     SensorBus_SlaveAbortWrite(void);
  91:Generated_Source\PSoC6/SensorBus.h **** __STATIC_INLINE uint32_t SensorBus_SlaveGetWriteTransferCount(void);
  92:Generated_Source\PSoC6/SensorBus.h **** __STATIC_INLINE uint32_t SensorBus_SlaveClearWriteStatus(void);
  93:Generated_Source\PSoC6/SensorBus.h **** #endif /* (SensorBus_ENABLE_SLAVE) */
  94:Generated_Source\PSoC6/SensorBus.h **** 
  95:Generated_Source\PSoC6/SensorBus.h **** /* Master interrupt processing functions. */
  96:Generated_Source\PSoC6/SensorBus.h **** #if (SensorBus_ENABLE_MASTER)
  97:Generated_Source\PSoC6/SensorBus.h **** __STATIC_INLINE uint32_t SensorBus_MasterGetStatus(void);
  98:Generated_Source\PSoC6/SensorBus.h **** 
  99:Generated_Source\PSoC6/SensorBus.h **** __STATIC_INLINE cy_en_scb_i2c_status_t SensorBus_MasterRead(cy_stc_scb_i2c_master_xfer_config_t *xf
 100:Generated_Source\PSoC6/SensorBus.h **** __STATIC_INLINE void SensorBus_MasterAbortRead(void);
 101:Generated_Source\PSoC6/SensorBus.h **** __STATIC_INLINE cy_en_scb_i2c_status_t SensorBus_MasterWrite(cy_stc_scb_i2c_master_xfer_config_t *x
 102:Generated_Source\PSoC6/SensorBus.h **** __STATIC_INLINE void SensorBus_MasterAbortWrite(void);
 103:Generated_Source\PSoC6/SensorBus.h **** __STATIC_INLINE uint32_t SensorBus_MasterGetTransferCount(void);
 104:Generated_Source\PSoC6/SensorBus.h **** 
 105:Generated_Source\PSoC6/SensorBus.h **** /* Master manual processing functions. */
 106:Generated_Source\PSoC6/SensorBus.h **** __STATIC_INLINE cy_en_scb_i2c_status_t SensorBus_MasterSendStart(uint32_t address, cy_en_scb_i2c_di
 107:Generated_Source\PSoC6/SensorBus.h **** __STATIC_INLINE cy_en_scb_i2c_status_t SensorBus_MasterSendReStart(uint32_t address, cy_en_scb_i2c_
 108:Generated_Source\PSoC6/SensorBus.h **** __STATIC_INLINE cy_en_scb_i2c_status_t SensorBus_MasterSendStop(uint32_t timeoutMs);
 109:Generated_Source\PSoC6/SensorBus.h **** __STATIC_INLINE cy_en_scb_i2c_status_t SensorBus_MasterReadByte(cy_en_scb_i2c_command_t ackNack, ui
 110:Generated_Source\PSoC6/SensorBus.h **** __STATIC_INLINE cy_en_scb_i2c_status_t SensorBus_MasterWriteByte(uint8_t byte, uint32_t timeoutMs);
 111:Generated_Source\PSoC6/SensorBus.h **** #endif /* (SensorBus_ENABLE_MASTER) */
 112:Generated_Source\PSoC6/SensorBus.h **** 
 113:Generated_Source\PSoC6/SensorBus.h **** /* Interrupt handler. */
 114:Generated_Source\PSoC6/SensorBus.h **** __STATIC_INLINE void SensorBus_Interrupt(void);
 115:Generated_Source\PSoC6/SensorBus.h **** /** @} group_general */
 116:Generated_Source\PSoC6/SensorBus.h **** 
 117:Generated_Source\PSoC6/SensorBus.h **** 
 118:Generated_Source\PSoC6/SensorBus.h **** /***************************************
 119:Generated_Source\PSoC6/SensorBus.h **** *    Variables with External Linkage
 120:Generated_Source\PSoC6/SensorBus.h **** ***************************************/
 121:Generated_Source\PSoC6/SensorBus.h **** /**
 122:Generated_Source\PSoC6/SensorBus.h **** * \addtogroup group_globals
 123:Generated_Source\PSoC6/SensorBus.h **** * @{
 124:Generated_Source\PSoC6/SensorBus.h **** */
 125:Generated_Source\PSoC6/SensorBus.h **** extern uint8_t SensorBus_initVar;
 126:Generated_Source\PSoC6/SensorBus.h **** extern cy_stc_scb_i2c_config_t const SensorBus_config;
 127:Generated_Source\PSoC6/SensorBus.h **** extern cy_stc_scb_i2c_context_t SensorBus_context;
 128:Generated_Source\PSoC6/SensorBus.h **** /** @} group_globals */
ARM GAS  C:\Users\fiona\AppData\Local\Temp\ccJKYDXi.s 			page 5


 129:Generated_Source\PSoC6/SensorBus.h **** 
 130:Generated_Source\PSoC6/SensorBus.h **** 
 131:Generated_Source\PSoC6/SensorBus.h **** /***************************************
 132:Generated_Source\PSoC6/SensorBus.h **** *         Preprocessor Macros
 133:Generated_Source\PSoC6/SensorBus.h **** ***************************************/
 134:Generated_Source\PSoC6/SensorBus.h **** /**
 135:Generated_Source\PSoC6/SensorBus.h **** * \addtogroup group_macros
 136:Generated_Source\PSoC6/SensorBus.h **** * @{
 137:Generated_Source\PSoC6/SensorBus.h **** */
 138:Generated_Source\PSoC6/SensorBus.h **** /** The pointer to the base address of the SCB instance */
 139:Generated_Source\PSoC6/SensorBus.h **** #define SensorBus_HW     ((CySCB_Type *) SensorBus_SCB__HW)
 140:Generated_Source\PSoC6/SensorBus.h **** 
 141:Generated_Source\PSoC6/SensorBus.h **** /** The desired data rate in Hz */
 142:Generated_Source\PSoC6/SensorBus.h **** #define SensorBus_DATA_RATE_HZ      (100000U)
 143:Generated_Source\PSoC6/SensorBus.h **** 
 144:Generated_Source\PSoC6/SensorBus.h **** /** The frequency of the clock used by the Component in Hz */
 145:Generated_Source\PSoC6/SensorBus.h **** #define SensorBus_CLK_FREQ_HZ       (1562500U)
 146:Generated_Source\PSoC6/SensorBus.h **** 
 147:Generated_Source\PSoC6/SensorBus.h **** /** The number of Component clocks used by the master to generate the SCL
 148:Generated_Source\PSoC6/SensorBus.h **** * low phase. This number is calculated by GUI based on the selected data rate.
 149:Generated_Source\PSoC6/SensorBus.h **** */
 150:Generated_Source\PSoC6/SensorBus.h **** #define SensorBus_LOW_PHASE_DUTY_CYCLE   (8U)
 151:Generated_Source\PSoC6/SensorBus.h **** 
 152:Generated_Source\PSoC6/SensorBus.h **** /** The number of Component clocks used by the master to generate the SCL
 153:Generated_Source\PSoC6/SensorBus.h **** * high phase. This number is calculated by GUI based on the selected data rate.
 154:Generated_Source\PSoC6/SensorBus.h **** */
 155:Generated_Source\PSoC6/SensorBus.h **** #define SensorBus_HIGH_PHASE_DUTY_CYCLE  (8U)
 156:Generated_Source\PSoC6/SensorBus.h **** /** @} group_macros */
 157:Generated_Source\PSoC6/SensorBus.h **** 
 158:Generated_Source\PSoC6/SensorBus.h **** 
 159:Generated_Source\PSoC6/SensorBus.h **** /***************************************
 160:Generated_Source\PSoC6/SensorBus.h **** *    In-line Function Implementation
 161:Generated_Source\PSoC6/SensorBus.h **** ***************************************/
 162:Generated_Source\PSoC6/SensorBus.h **** 
 163:Generated_Source\PSoC6/SensorBus.h **** /*******************************************************************************
 164:Generated_Source\PSoC6/SensorBus.h **** * Function Name: SensorBus_Init
 165:Generated_Source\PSoC6/SensorBus.h **** ****************************************************************************//**
 166:Generated_Source\PSoC6/SensorBus.h **** *
 167:Generated_Source\PSoC6/SensorBus.h **** * Invokes the Cy_SCB_I2C_Init() PDL driver function.
 168:Generated_Source\PSoC6/SensorBus.h **** *
 169:Generated_Source\PSoC6/SensorBus.h **** *******************************************************************************/
 170:Generated_Source\PSoC6/SensorBus.h **** __STATIC_INLINE cy_en_scb_i2c_status_t SensorBus_Init(cy_stc_scb_i2c_config_t const *config)
 171:Generated_Source\PSoC6/SensorBus.h **** {
 172:Generated_Source\PSoC6/SensorBus.h ****     return Cy_SCB_I2C_Init(SensorBus_HW, config, &SensorBus_context);
 173:Generated_Source\PSoC6/SensorBus.h **** }
 174:Generated_Source\PSoC6/SensorBus.h **** 
 175:Generated_Source\PSoC6/SensorBus.h **** 
 176:Generated_Source\PSoC6/SensorBus.h **** /*******************************************************************************
 177:Generated_Source\PSoC6/SensorBus.h **** *  Function Name: SensorBus_DeInit
 178:Generated_Source\PSoC6/SensorBus.h **** ****************************************************************************//**
 179:Generated_Source\PSoC6/SensorBus.h **** *
 180:Generated_Source\PSoC6/SensorBus.h **** * Invokes the Cy_SCB_I2C_DeInit() PDL driver function.
 181:Generated_Source\PSoC6/SensorBus.h **** *
 182:Generated_Source\PSoC6/SensorBus.h **** *******************************************************************************/
 183:Generated_Source\PSoC6/SensorBus.h **** __STATIC_INLINE void SensorBus_DeInit(void)
 184:Generated_Source\PSoC6/SensorBus.h **** {
 185:Generated_Source\PSoC6/SensorBus.h ****     Cy_SCB_I2C_DeInit(SensorBus_HW);
ARM GAS  C:\Users\fiona\AppData\Local\Temp\ccJKYDXi.s 			page 6


 186:Generated_Source\PSoC6/SensorBus.h **** }
 187:Generated_Source\PSoC6/SensorBus.h **** 
 188:Generated_Source\PSoC6/SensorBus.h **** 
 189:Generated_Source\PSoC6/SensorBus.h **** /*******************************************************************************
 190:Generated_Source\PSoC6/SensorBus.h **** * Function Name: SensorBus_Enable
 191:Generated_Source\PSoC6/SensorBus.h **** ****************************************************************************//**
 192:Generated_Source\PSoC6/SensorBus.h **** *
 193:Generated_Source\PSoC6/SensorBus.h **** * Invokes the Cy_SCB_I2C_Enable() PDL driver function.
 194:Generated_Source\PSoC6/SensorBus.h **** *
 195:Generated_Source\PSoC6/SensorBus.h **** *******************************************************************************/
 196:Generated_Source\PSoC6/SensorBus.h **** __STATIC_INLINE void SensorBus_Enable(void)
 197:Generated_Source\PSoC6/SensorBus.h **** {
 198:Generated_Source\PSoC6/SensorBus.h ****     Cy_SCB_I2C_Enable(SensorBus_HW);
 199:Generated_Source\PSoC6/SensorBus.h **** }
 200:Generated_Source\PSoC6/SensorBus.h **** 
 201:Generated_Source\PSoC6/SensorBus.h **** 
 202:Generated_Source\PSoC6/SensorBus.h **** /*******************************************************************************
 203:Generated_Source\PSoC6/SensorBus.h **** * Function Name: SensorBus_Disable
 204:Generated_Source\PSoC6/SensorBus.h **** ****************************************************************************//**
 205:Generated_Source\PSoC6/SensorBus.h **** *
 206:Generated_Source\PSoC6/SensorBus.h **** * Invokes the Cy_SCB_I2C_Disable() PDL driver function.
 207:Generated_Source\PSoC6/SensorBus.h **** *
 208:Generated_Source\PSoC6/SensorBus.h **** *******************************************************************************/
 209:Generated_Source\PSoC6/SensorBus.h **** __STATIC_INLINE void SensorBus_Disable(void)
 210:Generated_Source\PSoC6/SensorBus.h **** {
 211:Generated_Source\PSoC6/SensorBus.h ****     Cy_SCB_I2C_Disable(SensorBus_HW, &SensorBus_context);
 212:Generated_Source\PSoC6/SensorBus.h **** }
 213:Generated_Source\PSoC6/SensorBus.h **** 
 214:Generated_Source\PSoC6/SensorBus.h **** 
 215:Generated_Source\PSoC6/SensorBus.h **** /*******************************************************************************
 216:Generated_Source\PSoC6/SensorBus.h **** * Function Name: SensorBus_SetDataRate
 217:Generated_Source\PSoC6/SensorBus.h **** ****************************************************************************//**
 218:Generated_Source\PSoC6/SensorBus.h **** *
 219:Generated_Source\PSoC6/SensorBus.h **** * Invokes the Cy_SCB_I2C_SetDataRate() PDL driver function.
 220:Generated_Source\PSoC6/SensorBus.h **** *
 221:Generated_Source\PSoC6/SensorBus.h **** *******************************************************************************/
 222:Generated_Source\PSoC6/SensorBus.h **** __STATIC_INLINE uint32_t SensorBus_SetDataRate(uint32_t dataRateHz, uint32_t scbClockHz)
 223:Generated_Source\PSoC6/SensorBus.h **** {
 224:Generated_Source\PSoC6/SensorBus.h ****     return Cy_SCB_I2C_SetDataRate(SensorBus_HW, dataRateHz, scbClockHz);
 225:Generated_Source\PSoC6/SensorBus.h **** }
 226:Generated_Source\PSoC6/SensorBus.h **** 
 227:Generated_Source\PSoC6/SensorBus.h **** 
 228:Generated_Source\PSoC6/SensorBus.h **** /*******************************************************************************
 229:Generated_Source\PSoC6/SensorBus.h **** * Function Name: SensorBus_GetDataRate
 230:Generated_Source\PSoC6/SensorBus.h **** ****************************************************************************//**
 231:Generated_Source\PSoC6/SensorBus.h **** *
 232:Generated_Source\PSoC6/SensorBus.h **** * Invokes the Cy_SCB_I2C_GetDataRate() PDL driver function.
 233:Generated_Source\PSoC6/SensorBus.h **** *
 234:Generated_Source\PSoC6/SensorBus.h **** *******************************************************************************/
 235:Generated_Source\PSoC6/SensorBus.h **** __STATIC_INLINE uint32_t SensorBus_GetDataRate(uint32_t scbClockHz)
 236:Generated_Source\PSoC6/SensorBus.h **** {
 237:Generated_Source\PSoC6/SensorBus.h ****     return Cy_SCB_I2C_GetDataRate(SensorBus_HW, scbClockHz);
 238:Generated_Source\PSoC6/SensorBus.h **** }
 239:Generated_Source\PSoC6/SensorBus.h **** 
 240:Generated_Source\PSoC6/SensorBus.h **** 
 241:Generated_Source\PSoC6/SensorBus.h **** /*******************************************************************************
 242:Generated_Source\PSoC6/SensorBus.h **** * Function Name: SensorBus_RegisterEventCallback
ARM GAS  C:\Users\fiona\AppData\Local\Temp\ccJKYDXi.s 			page 7


 243:Generated_Source\PSoC6/SensorBus.h **** ****************************************************************************//**
 244:Generated_Source\PSoC6/SensorBus.h **** *
 245:Generated_Source\PSoC6/SensorBus.h **** * Invokes the Cy_SCB_I2C_RegisterEventCallback() PDL driver function.
 246:Generated_Source\PSoC6/SensorBus.h **** *
 247:Generated_Source\PSoC6/SensorBus.h **** *******************************************************************************/
 248:Generated_Source\PSoC6/SensorBus.h **** __STATIC_INLINE void SensorBus_RegisterEventCallback(cy_cb_scb_i2c_handle_events_t callback)
 249:Generated_Source\PSoC6/SensorBus.h **** {
 250:Generated_Source\PSoC6/SensorBus.h ****     Cy_SCB_I2C_RegisterEventCallback(SensorBus_HW, callback, &SensorBus_context);
 251:Generated_Source\PSoC6/SensorBus.h **** }
 252:Generated_Source\PSoC6/SensorBus.h **** 
 253:Generated_Source\PSoC6/SensorBus.h **** 
 254:Generated_Source\PSoC6/SensorBus.h **** #if (SensorBus_ENABLE_SLAVE)
 255:Generated_Source\PSoC6/SensorBus.h **** /*******************************************************************************
 256:Generated_Source\PSoC6/SensorBus.h **** * Function Name: SensorBus_RegisterAddrCallback
 257:Generated_Source\PSoC6/SensorBus.h **** ****************************************************************************//**
 258:Generated_Source\PSoC6/SensorBus.h **** *
 259:Generated_Source\PSoC6/SensorBus.h **** * Invokes the Cy_SCB_I2C_RegisterAddrCallback() PDL driver function.
 260:Generated_Source\PSoC6/SensorBus.h **** *
 261:Generated_Source\PSoC6/SensorBus.h **** *******************************************************************************/
 262:Generated_Source\PSoC6/SensorBus.h **** __STATIC_INLINE void SensorBus_RegisterAddrCallback(cy_cb_scb_i2c_handle_addr_t callback)
 263:Generated_Source\PSoC6/SensorBus.h **** {
 264:Generated_Source\PSoC6/SensorBus.h ****     Cy_SCB_I2C_RegisterAddrCallback(SensorBus_HW, callback, &SensorBus_context);
 265:Generated_Source\PSoC6/SensorBus.h **** }
 266:Generated_Source\PSoC6/SensorBus.h **** #endif /* (SensorBus_ENABLE_SLAVE) */
 267:Generated_Source\PSoC6/SensorBus.h **** 
 268:Generated_Source\PSoC6/SensorBus.h **** 
 269:Generated_Source\PSoC6/SensorBus.h **** /*******************************************************************************
 270:Generated_Source\PSoC6/SensorBus.h **** * Function Name: SensorBus_IsBusBusy
 271:Generated_Source\PSoC6/SensorBus.h **** ****************************************************************************//**
 272:Generated_Source\PSoC6/SensorBus.h **** *
 273:Generated_Source\PSoC6/SensorBus.h **** * Invokes the Cy_SCB_I2C_IsBusBusy() PDL driver function.
 274:Generated_Source\PSoC6/SensorBus.h **** *
 275:Generated_Source\PSoC6/SensorBus.h **** *******************************************************************************/
 276:Generated_Source\PSoC6/SensorBus.h **** __STATIC_INLINE bool SensorBus_IsBusBusy(void)
 277:Generated_Source\PSoC6/SensorBus.h **** {
 278:Generated_Source\PSoC6/SensorBus.h ****     return Cy_SCB_I2C_IsBusBusy(SensorBus_HW);
 279:Generated_Source\PSoC6/SensorBus.h **** }
 280:Generated_Source\PSoC6/SensorBus.h **** 
 281:Generated_Source\PSoC6/SensorBus.h **** 
 282:Generated_Source\PSoC6/SensorBus.h **** #if (SensorBus_ENABLE_SLAVE)
 283:Generated_Source\PSoC6/SensorBus.h **** /*******************************************************************************
 284:Generated_Source\PSoC6/SensorBus.h **** * Function Name: SensorBus_SlaveSetAddress
 285:Generated_Source\PSoC6/SensorBus.h **** ****************************************************************************//**
 286:Generated_Source\PSoC6/SensorBus.h **** *
 287:Generated_Source\PSoC6/SensorBus.h **** * Invokes the Cy_SCB_I2C_SlaveGetAddress() PDL driver function.
 288:Generated_Source\PSoC6/SensorBus.h **** *
 289:Generated_Source\PSoC6/SensorBus.h **** *******************************************************************************/
 290:Generated_Source\PSoC6/SensorBus.h **** __STATIC_INLINE void SensorBus_SlaveSetAddress(uint8_t addr)
 291:Generated_Source\PSoC6/SensorBus.h **** {
 292:Generated_Source\PSoC6/SensorBus.h ****     Cy_SCB_I2C_SlaveSetAddress(SensorBus_HW, addr);
 293:Generated_Source\PSoC6/SensorBus.h **** }
 294:Generated_Source\PSoC6/SensorBus.h **** 
 295:Generated_Source\PSoC6/SensorBus.h **** 
 296:Generated_Source\PSoC6/SensorBus.h **** /*******************************************************************************
 297:Generated_Source\PSoC6/SensorBus.h **** * Function Name: SensorBus_SlaveGetAddress
 298:Generated_Source\PSoC6/SensorBus.h **** ****************************************************************************//**
 299:Generated_Source\PSoC6/SensorBus.h **** *
ARM GAS  C:\Users\fiona\AppData\Local\Temp\ccJKYDXi.s 			page 8


 300:Generated_Source\PSoC6/SensorBus.h **** * Invokes the Cy_SCB_I2C_SlaveGetAddress() PDL driver function.
 301:Generated_Source\PSoC6/SensorBus.h **** *
 302:Generated_Source\PSoC6/SensorBus.h **** *******************************************************************************/
 303:Generated_Source\PSoC6/SensorBus.h **** __STATIC_INLINE uint32_t SensorBus_SlaveGetAddress(void)
 304:Generated_Source\PSoC6/SensorBus.h **** {
 305:Generated_Source\PSoC6/SensorBus.h ****     return Cy_SCB_I2C_SlaveGetAddress(SensorBus_HW);
 306:Generated_Source\PSoC6/SensorBus.h **** }
 307:Generated_Source\PSoC6/SensorBus.h **** 
 308:Generated_Source\PSoC6/SensorBus.h **** 
 309:Generated_Source\PSoC6/SensorBus.h **** /*******************************************************************************
 310:Generated_Source\PSoC6/SensorBus.h **** * Function Name: SensorBus_SlaveSetAddressMask
 311:Generated_Source\PSoC6/SensorBus.h **** ****************************************************************************//**
 312:Generated_Source\PSoC6/SensorBus.h **** *
 313:Generated_Source\PSoC6/SensorBus.h **** * Invokes the Cy_SCB_I2C_SlaveSetAddressMask() PDL driver function.
 314:Generated_Source\PSoC6/SensorBus.h **** *
 315:Generated_Source\PSoC6/SensorBus.h **** *******************************************************************************/
 316:Generated_Source\PSoC6/SensorBus.h **** __STATIC_INLINE void SensorBus_SlaveSetAddressMask(uint8_t addrMask)
 317:Generated_Source\PSoC6/SensorBus.h **** {
 318:Generated_Source\PSoC6/SensorBus.h ****     Cy_SCB_I2C_SlaveSetAddressMask(SensorBus_HW, addrMask);
 319:Generated_Source\PSoC6/SensorBus.h **** }
 320:Generated_Source\PSoC6/SensorBus.h **** 
 321:Generated_Source\PSoC6/SensorBus.h **** 
 322:Generated_Source\PSoC6/SensorBus.h **** /*******************************************************************************
 323:Generated_Source\PSoC6/SensorBus.h **** * Function Name: SensorBus_SlaveGetAddressMask
 324:Generated_Source\PSoC6/SensorBus.h **** ****************************************************************************//**
 325:Generated_Source\PSoC6/SensorBus.h **** *
 326:Generated_Source\PSoC6/SensorBus.h **** * Invokes the Cy_SCB_I2C_SlaveGetAddressMask() PDL driver function.
 327:Generated_Source\PSoC6/SensorBus.h **** *
 328:Generated_Source\PSoC6/SensorBus.h **** *******************************************************************************/
 329:Generated_Source\PSoC6/SensorBus.h **** __STATIC_INLINE uint32_t SensorBus_SlaveGetAddressMask(void)
 330:Generated_Source\PSoC6/SensorBus.h **** {
 331:Generated_Source\PSoC6/SensorBus.h ****     return Cy_SCB_I2C_SlaveGetAddressMask(SensorBus_HW);
 332:Generated_Source\PSoC6/SensorBus.h **** }
 333:Generated_Source\PSoC6/SensorBus.h **** #endif /* (SensorBus_ENABLE_SLAVE) */
 334:Generated_Source\PSoC6/SensorBus.h **** 
 335:Generated_Source\PSoC6/SensorBus.h **** #if (SensorBus_ENABLE_MASTER)
 336:Generated_Source\PSoC6/SensorBus.h **** /*******************************************************************************
 337:Generated_Source\PSoC6/SensorBus.h **** * Function Name: SensorBus_MasterSetLowPhaseDutyCycle
 338:Generated_Source\PSoC6/SensorBus.h **** ****************************************************************************//**
 339:Generated_Source\PSoC6/SensorBus.h **** *
 340:Generated_Source\PSoC6/SensorBus.h **** * Invokes the Cy_SCB_I2C_MasterSetLowPhaseDutyCycle() PDL driver function.
 341:Generated_Source\PSoC6/SensorBus.h **** *
 342:Generated_Source\PSoC6/SensorBus.h **** *******************************************************************************/
 343:Generated_Source\PSoC6/SensorBus.h **** __STATIC_INLINE void SensorBus_MasterSetLowPhaseDutyCycle(uint32_t clockCycles)
 344:Generated_Source\PSoC6/SensorBus.h **** {
 345:Generated_Source\PSoC6/SensorBus.h ****     Cy_SCB_I2C_MasterSetLowPhaseDutyCycle(SensorBus_HW, clockCycles);
 346:Generated_Source\PSoC6/SensorBus.h **** }
 347:Generated_Source\PSoC6/SensorBus.h **** 
 348:Generated_Source\PSoC6/SensorBus.h **** 
 349:Generated_Source\PSoC6/SensorBus.h **** /*******************************************************************************
 350:Generated_Source\PSoC6/SensorBus.h **** * Function Name: SensorBus_MasterSetHighPhaseDutyCycle
 351:Generated_Source\PSoC6/SensorBus.h **** ****************************************************************************//**
 352:Generated_Source\PSoC6/SensorBus.h **** *
 353:Generated_Source\PSoC6/SensorBus.h **** * Invokes the Cy_SCB_I2C_MasterSetHighPhaseDutyCycle() PDL driver function.
 354:Generated_Source\PSoC6/SensorBus.h **** *
 355:Generated_Source\PSoC6/SensorBus.h **** *******************************************************************************/
 356:Generated_Source\PSoC6/SensorBus.h **** __STATIC_INLINE void SensorBus_MasterSetHighPhaseDutyCycle(uint32_t clockCycles)
ARM GAS  C:\Users\fiona\AppData\Local\Temp\ccJKYDXi.s 			page 9


 357:Generated_Source\PSoC6/SensorBus.h **** {
 358:Generated_Source\PSoC6/SensorBus.h ****     Cy_SCB_I2C_MasterSetHighPhaseDutyCycle(SensorBus_HW, clockCycles);
 359:Generated_Source\PSoC6/SensorBus.h **** }
 360:Generated_Source\PSoC6/SensorBus.h **** #endif /* (SensorBus_ENABLE_MASTER) */
 361:Generated_Source\PSoC6/SensorBus.h **** 
 362:Generated_Source\PSoC6/SensorBus.h **** 
 363:Generated_Source\PSoC6/SensorBus.h **** #if (SensorBus_ENABLE_SLAVE)
 364:Generated_Source\PSoC6/SensorBus.h **** /*******************************************************************************
 365:Generated_Source\PSoC6/SensorBus.h **** * Function Name: SensorBus_SlaveGetStatus
 366:Generated_Source\PSoC6/SensorBus.h **** ****************************************************************************//**
 367:Generated_Source\PSoC6/SensorBus.h **** *
 368:Generated_Source\PSoC6/SensorBus.h **** * Invokes the Cy_SCB_I2C_SlaveGetStatus() PDL driver function.
 369:Generated_Source\PSoC6/SensorBus.h **** *
 370:Generated_Source\PSoC6/SensorBus.h **** *******************************************************************************/
 371:Generated_Source\PSoC6/SensorBus.h **** __STATIC_INLINE uint32_t SensorBus_SlaveGetStatus(void)
 372:Generated_Source\PSoC6/SensorBus.h **** {
 373:Generated_Source\PSoC6/SensorBus.h ****     return Cy_SCB_I2C_SlaveGetStatus(SensorBus_HW, &SensorBus_context);
 374:Generated_Source\PSoC6/SensorBus.h **** }
 375:Generated_Source\PSoC6/SensorBus.h **** 
 376:Generated_Source\PSoC6/SensorBus.h **** 
 377:Generated_Source\PSoC6/SensorBus.h **** /*******************************************************************************
 378:Generated_Source\PSoC6/SensorBus.h **** * Function Name: SensorBus_SlaveConfigReadBuf
 379:Generated_Source\PSoC6/SensorBus.h **** ****************************************************************************//**
 380:Generated_Source\PSoC6/SensorBus.h **** *
 381:Generated_Source\PSoC6/SensorBus.h **** * Invokes the Cy_SCB_I2C_SlaveConfigReadBuf() PDL driver function.
 382:Generated_Source\PSoC6/SensorBus.h **** *
 383:Generated_Source\PSoC6/SensorBus.h **** *******************************************************************************/
 384:Generated_Source\PSoC6/SensorBus.h **** __STATIC_INLINE void SensorBus_SlaveConfigReadBuf(uint8_t *buffer, uint32_t size)
 385:Generated_Source\PSoC6/SensorBus.h **** {
 386:Generated_Source\PSoC6/SensorBus.h ****     Cy_SCB_I2C_SlaveConfigReadBuf(SensorBus_HW, buffer, size, &SensorBus_context);
 387:Generated_Source\PSoC6/SensorBus.h **** }
 388:Generated_Source\PSoC6/SensorBus.h **** 
 389:Generated_Source\PSoC6/SensorBus.h **** 
 390:Generated_Source\PSoC6/SensorBus.h **** /*******************************************************************************
 391:Generated_Source\PSoC6/SensorBus.h **** * Function Name: SensorBus_SlaveAbortRead
 392:Generated_Source\PSoC6/SensorBus.h **** ****************************************************************************//**
 393:Generated_Source\PSoC6/SensorBus.h **** *
 394:Generated_Source\PSoC6/SensorBus.h **** * Invokes the Cy_SCB_I2C_SlaveAbortRead() PDL driver function.
 395:Generated_Source\PSoC6/SensorBus.h **** *
 396:Generated_Source\PSoC6/SensorBus.h **** *******************************************************************************/
 397:Generated_Source\PSoC6/SensorBus.h **** __STATIC_INLINE void SensorBus_SlaveAbortRead(void)
 398:Generated_Source\PSoC6/SensorBus.h **** {
 399:Generated_Source\PSoC6/SensorBus.h ****     Cy_SCB_I2C_SlaveAbortRead(SensorBus_HW, &SensorBus_context);
 400:Generated_Source\PSoC6/SensorBus.h **** }
 401:Generated_Source\PSoC6/SensorBus.h **** 
 402:Generated_Source\PSoC6/SensorBus.h **** 
 403:Generated_Source\PSoC6/SensorBus.h **** /*******************************************************************************
 404:Generated_Source\PSoC6/SensorBus.h **** * Function Name: SensorBus_SlaveGetReadTransferCount
 405:Generated_Source\PSoC6/SensorBus.h **** ****************************************************************************//**
 406:Generated_Source\PSoC6/SensorBus.h **** *
 407:Generated_Source\PSoC6/SensorBus.h **** * Invokes the Cy_SCB_I2C_SlaveGetReadTransferCount() PDL driver function.
 408:Generated_Source\PSoC6/SensorBus.h **** *
 409:Generated_Source\PSoC6/SensorBus.h **** *******************************************************************************/
 410:Generated_Source\PSoC6/SensorBus.h **** __STATIC_INLINE uint32_t SensorBus_SlaveGetReadTransferCount(void)
 411:Generated_Source\PSoC6/SensorBus.h **** {
 412:Generated_Source\PSoC6/SensorBus.h ****     return Cy_SCB_I2C_SlaveGetReadTransferCount(SensorBus_HW, &SensorBus_context);
 413:Generated_Source\PSoC6/SensorBus.h **** }
ARM GAS  C:\Users\fiona\AppData\Local\Temp\ccJKYDXi.s 			page 10


 414:Generated_Source\PSoC6/SensorBus.h **** 
 415:Generated_Source\PSoC6/SensorBus.h **** 
 416:Generated_Source\PSoC6/SensorBus.h **** /*******************************************************************************
 417:Generated_Source\PSoC6/SensorBus.h **** * Function Name: SensorBus_SlaveClearReadStatus
 418:Generated_Source\PSoC6/SensorBus.h **** ****************************************************************************//**
 419:Generated_Source\PSoC6/SensorBus.h **** *
 420:Generated_Source\PSoC6/SensorBus.h **** * Invokes the Cy_SCB_I2C_SlaveClearReadStatus() PDL driver function.
 421:Generated_Source\PSoC6/SensorBus.h **** *
 422:Generated_Source\PSoC6/SensorBus.h **** *******************************************************************************/
 423:Generated_Source\PSoC6/SensorBus.h **** __STATIC_INLINE uint32_t SensorBus_SlaveClearReadStatus(void)
 424:Generated_Source\PSoC6/SensorBus.h **** {
 425:Generated_Source\PSoC6/SensorBus.h ****     return Cy_SCB_I2C_SlaveClearReadStatus(SensorBus_HW, &SensorBus_context);
 426:Generated_Source\PSoC6/SensorBus.h **** }
 427:Generated_Source\PSoC6/SensorBus.h **** 
 428:Generated_Source\PSoC6/SensorBus.h **** 
 429:Generated_Source\PSoC6/SensorBus.h **** /*******************************************************************************
 430:Generated_Source\PSoC6/SensorBus.h **** * Function Name: SensorBus_SlaveConfigWriteBuf
 431:Generated_Source\PSoC6/SensorBus.h **** ****************************************************************************//**
 432:Generated_Source\PSoC6/SensorBus.h **** *
 433:Generated_Source\PSoC6/SensorBus.h **** * Invokes the Cy_SCB_I2C_SlaveConfigWriteBuf() PDL driver function.
 434:Generated_Source\PSoC6/SensorBus.h **** *
 435:Generated_Source\PSoC6/SensorBus.h **** *******************************************************************************/
 436:Generated_Source\PSoC6/SensorBus.h **** __STATIC_INLINE void SensorBus_SlaveConfigWriteBuf(uint8_t *buffer, uint32_t size)
 437:Generated_Source\PSoC6/SensorBus.h **** {
 438:Generated_Source\PSoC6/SensorBus.h ****     Cy_SCB_I2C_SlaveConfigWriteBuf(SensorBus_HW, buffer, size, &SensorBus_context);
 439:Generated_Source\PSoC6/SensorBus.h **** }
 440:Generated_Source\PSoC6/SensorBus.h **** 
 441:Generated_Source\PSoC6/SensorBus.h **** 
 442:Generated_Source\PSoC6/SensorBus.h **** /*******************************************************************************
 443:Generated_Source\PSoC6/SensorBus.h **** * Function Name: SensorBus_SlaveAbortWrite
 444:Generated_Source\PSoC6/SensorBus.h **** ****************************************************************************//**
 445:Generated_Source\PSoC6/SensorBus.h **** *
 446:Generated_Source\PSoC6/SensorBus.h **** * Invokes the Cy_SCB_I2C_SlaveAbortWrite() PDL driver function.
 447:Generated_Source\PSoC6/SensorBus.h **** *
 448:Generated_Source\PSoC6/SensorBus.h **** *******************************************************************************/
 449:Generated_Source\PSoC6/SensorBus.h **** __STATIC_INLINE void SensorBus_SlaveAbortWrite(void)
 450:Generated_Source\PSoC6/SensorBus.h **** {
 451:Generated_Source\PSoC6/SensorBus.h ****     Cy_SCB_I2C_SlaveAbortWrite(SensorBus_HW, &SensorBus_context);
 452:Generated_Source\PSoC6/SensorBus.h **** }
 453:Generated_Source\PSoC6/SensorBus.h **** 
 454:Generated_Source\PSoC6/SensorBus.h **** 
 455:Generated_Source\PSoC6/SensorBus.h **** /*******************************************************************************
 456:Generated_Source\PSoC6/SensorBus.h **** * Function Name: SensorBus_SlaveGetWriteTransferCount
 457:Generated_Source\PSoC6/SensorBus.h **** ****************************************************************************//**
 458:Generated_Source\PSoC6/SensorBus.h **** *
 459:Generated_Source\PSoC6/SensorBus.h **** * Invokes the Cy_SCB_I2C_SlaveGetWriteTransferCount() PDL driver function.
 460:Generated_Source\PSoC6/SensorBus.h **** *
 461:Generated_Source\PSoC6/SensorBus.h **** *******************************************************************************/
 462:Generated_Source\PSoC6/SensorBus.h **** __STATIC_INLINE uint32_t SensorBus_SlaveGetWriteTransferCount(void)
 463:Generated_Source\PSoC6/SensorBus.h **** {
 464:Generated_Source\PSoC6/SensorBus.h ****     return Cy_SCB_I2C_SlaveGetWriteTransferCount(SensorBus_HW, &SensorBus_context);
 465:Generated_Source\PSoC6/SensorBus.h **** }
 466:Generated_Source\PSoC6/SensorBus.h **** 
 467:Generated_Source\PSoC6/SensorBus.h **** 
 468:Generated_Source\PSoC6/SensorBus.h **** /*******************************************************************************
 469:Generated_Source\PSoC6/SensorBus.h **** * Function Name: SensorBus_SlaveClearWriteStatus
 470:Generated_Source\PSoC6/SensorBus.h **** ****************************************************************************//**
ARM GAS  C:\Users\fiona\AppData\Local\Temp\ccJKYDXi.s 			page 11


 471:Generated_Source\PSoC6/SensorBus.h **** *
 472:Generated_Source\PSoC6/SensorBus.h **** * Invokes the Cy_SCB_I2C_SlaveClearWriteStatus() PDL driver function.
 473:Generated_Source\PSoC6/SensorBus.h **** *
 474:Generated_Source\PSoC6/SensorBus.h **** *******************************************************************************/
 475:Generated_Source\PSoC6/SensorBus.h **** __STATIC_INLINE uint32_t SensorBus_SlaveClearWriteStatus(void)
 476:Generated_Source\PSoC6/SensorBus.h **** {
 477:Generated_Source\PSoC6/SensorBus.h ****     return Cy_SCB_I2C_SlaveClearWriteStatus(SensorBus_HW, &SensorBus_context);
 478:Generated_Source\PSoC6/SensorBus.h **** }
 479:Generated_Source\PSoC6/SensorBus.h **** #endif /* (SensorBus_ENABLE_SLAVE) */
 480:Generated_Source\PSoC6/SensorBus.h **** 
 481:Generated_Source\PSoC6/SensorBus.h **** 
 482:Generated_Source\PSoC6/SensorBus.h **** #if (SensorBus_ENABLE_MASTER)
 483:Generated_Source\PSoC6/SensorBus.h **** /*******************************************************************************
 484:Generated_Source\PSoC6/SensorBus.h **** * Function Name: SensorBus_MasterGetStatus
 485:Generated_Source\PSoC6/SensorBus.h **** ****************************************************************************//**
 486:Generated_Source\PSoC6/SensorBus.h **** *
 487:Generated_Source\PSoC6/SensorBus.h **** * Invokes the Cy_SCB_I2C_MasterGetStatus() PDL driver function.
 488:Generated_Source\PSoC6/SensorBus.h **** *
 489:Generated_Source\PSoC6/SensorBus.h **** *******************************************************************************/
 490:Generated_Source\PSoC6/SensorBus.h **** __STATIC_INLINE uint32_t SensorBus_MasterGetStatus(void)
 491:Generated_Source\PSoC6/SensorBus.h **** {
 492:Generated_Source\PSoC6/SensorBus.h ****     return Cy_SCB_I2C_MasterGetStatus(SensorBus_HW, &SensorBus_context);
 493:Generated_Source\PSoC6/SensorBus.h **** }
 494:Generated_Source\PSoC6/SensorBus.h **** 
 495:Generated_Source\PSoC6/SensorBus.h **** 
 496:Generated_Source\PSoC6/SensorBus.h **** /*******************************************************************************
 497:Generated_Source\PSoC6/SensorBus.h **** * Function Name: SensorBus_MasterRead
 498:Generated_Source\PSoC6/SensorBus.h **** ****************************************************************************//**
 499:Generated_Source\PSoC6/SensorBus.h **** *
 500:Generated_Source\PSoC6/SensorBus.h **** * Invokes the Cy_SCB_I2C_MasterRead() PDL driver function.
 501:Generated_Source\PSoC6/SensorBus.h **** *
 502:Generated_Source\PSoC6/SensorBus.h **** *******************************************************************************/
 503:Generated_Source\PSoC6/SensorBus.h **** __STATIC_INLINE cy_en_scb_i2c_status_t SensorBus_MasterRead(cy_stc_scb_i2c_master_xfer_config_t *xf
 504:Generated_Source\PSoC6/SensorBus.h **** {
 505:Generated_Source\PSoC6/SensorBus.h ****     return Cy_SCB_I2C_MasterRead(SensorBus_HW, xferConfig, &SensorBus_context);
 506:Generated_Source\PSoC6/SensorBus.h **** }
 507:Generated_Source\PSoC6/SensorBus.h **** 
 508:Generated_Source\PSoC6/SensorBus.h **** 
 509:Generated_Source\PSoC6/SensorBus.h **** /*******************************************************************************
 510:Generated_Source\PSoC6/SensorBus.h **** * Function Name: SensorBus_MasterAbortRead
 511:Generated_Source\PSoC6/SensorBus.h **** ****************************************************************************//**
 512:Generated_Source\PSoC6/SensorBus.h **** *
 513:Generated_Source\PSoC6/SensorBus.h **** * Invokes the Cy_SCB_I2C_MasterAbortRead() PDL driver function.
 514:Generated_Source\PSoC6/SensorBus.h **** *
 515:Generated_Source\PSoC6/SensorBus.h **** ******************************************************************************/
 516:Generated_Source\PSoC6/SensorBus.h **** __STATIC_INLINE void SensorBus_MasterAbortRead(void)
 517:Generated_Source\PSoC6/SensorBus.h **** {
 518:Generated_Source\PSoC6/SensorBus.h ****     Cy_SCB_I2C_MasterAbortRead(SensorBus_HW, &SensorBus_context);
 519:Generated_Source\PSoC6/SensorBus.h **** }
 520:Generated_Source\PSoC6/SensorBus.h **** 
 521:Generated_Source\PSoC6/SensorBus.h **** 
 522:Generated_Source\PSoC6/SensorBus.h **** /*******************************************************************************
 523:Generated_Source\PSoC6/SensorBus.h **** * Function Name: SensorBus_MasterWrite
 524:Generated_Source\PSoC6/SensorBus.h **** ****************************************************************************//**
 525:Generated_Source\PSoC6/SensorBus.h **** *
 526:Generated_Source\PSoC6/SensorBus.h **** * Invokes the Cy_SCB_I2C_MasterWrite() PDL driver function.
 527:Generated_Source\PSoC6/SensorBus.h **** *
ARM GAS  C:\Users\fiona\AppData\Local\Temp\ccJKYDXi.s 			page 12


 528:Generated_Source\PSoC6/SensorBus.h **** *******************************************************************************/
 529:Generated_Source\PSoC6/SensorBus.h **** __STATIC_INLINE cy_en_scb_i2c_status_t SensorBus_MasterWrite(cy_stc_scb_i2c_master_xfer_config_t *x
 530:Generated_Source\PSoC6/SensorBus.h **** {
 531:Generated_Source\PSoC6/SensorBus.h ****     return Cy_SCB_I2C_MasterWrite(SensorBus_HW, xferConfig, &SensorBus_context);
  48              		.loc 2 531 0
  49 000e 0431     		adds	r1, r1, #4
  50 0010 1C4A     		ldr	r2, .L8+4
  51 0012 1D48     		ldr	r0, .L8+8
  52              	.LVL2:
  53 0014 FFF7FEFF 		bl	Cy_SCB_I2C_MasterWrite
  54              	.LVL3:
  55              	.LBE38:
  56              	.LBE37:
  54:AccDriver.c   ****     
  55:AccDriver.c   ****     i2cReturnValue = SensorBus_MasterWrite(&register_setting);
  56:AccDriver.c   ****     if(i2cReturnValue != CY_SCB_I2C_SUCCESS)
  57:AccDriver.c   ****     {
  58:AccDriver.c   ****         // ** Throw error
  59:AccDriver.c   ****     }
  60:AccDriver.c   ****     
  61:AccDriver.c   ****     uint16 counter = 0;
  57              		.loc 1 61 0
  58 0018 0024     		movs	r4, #0
  62:AccDriver.c   ****     while(0 != (SensorBus_MasterGetStatus() & CY_SCB_I2C_MASTER_BUSY))
  59              		.loc 1 62 0
  60 001a 08E0     		b	.L2
  61              	.LVL4:
  62              	.L4:
  63:AccDriver.c   ****     {
  64:AccDriver.c   ****         if(++counter > 1000) 
  63              		.loc 1 64 0
  64 001c 0134     		adds	r4, r4, #1
  65              	.LVL5:
  66 001e A4B2     		uxth	r4, r4
  67              	.LVL6:
  68 0020 FA23     		movs	r3, #250
  69 0022 9B00     		lsls	r3, r3, #2
  70 0024 9C42     		cmp	r4, r3
  71 0026 27D8     		bhi	.L6
  65:AccDriver.c   ****         {
  66:AccDriver.c   ****             // ** Throw error
  67:AccDriver.c   ****             return 0;         
  68:AccDriver.c   ****         }
  69:AccDriver.c   ****         else
  70:AccDriver.c   ****         {
  71:AccDriver.c   ****             CyDelayUs(1);  // Keep Waiting
  72              		.loc 1 71 0
  73 0028 0120     		movs	r0, #1
  74 002a FFF7FEFF 		bl	Cy_SysLib_DelayUs
  75              	.LVL7:
  76              	.L2:
  77              	.LBB39:
  78              	.LBB40:
 492:Generated_Source\PSoC6/SensorBus.h **** }
  79              		.loc 2 492 0
  80 002e 1549     		ldr	r1, .L8+4
  81 0030 1548     		ldr	r0, .L8+8
ARM GAS  C:\Users\fiona\AppData\Local\Temp\ccJKYDXi.s 			page 13


  82 0032 FFF7FEFF 		bl	Cy_SCB_I2C_MasterGetStatus
  83              	.LVL8:
  84              	.LBE40:
  85              	.LBE39:
  62:AccDriver.c   ****     {
  86              		.loc 1 62 0
  87 0036 C303     		lsls	r3, r0, #15
  88 0038 F0D4     		bmi	.L4
  72:AccDriver.c   ****         }
  73:AccDriver.c   ****     }
  74:AccDriver.c   ****     
  75:AccDriver.c   ****     register_setting.buffer = rbuff; register_setting.bufferSize = 1; register_setting.xferPending 
  89              		.loc 1 75 0
  90 003a 1149     		ldr	r1, .L8
  91 003c 0B00     		movs	r3, r1
  92 003e 1433     		adds	r3, r3, #20
  93 0040 8B60     		str	r3, [r1, #8]
  94 0042 0123     		movs	r3, #1
  95 0044 CB60     		str	r3, [r1, #12]
  96 0046 0023     		movs	r3, #0
  97 0048 0B74     		strb	r3, [r1, #16]
  98              	.LVL9:
  99              	.LBB41:
 100              	.LBB42:
 505:Generated_Source\PSoC6/SensorBus.h **** }
 101              		.loc 2 505 0
 102 004a 0431     		adds	r1, r1, #4
 103 004c 0D4A     		ldr	r2, .L8+4
 104 004e 0E48     		ldr	r0, .L8+8
 105 0050 FFF7FEFF 		bl	Cy_SCB_I2C_MasterRead
 106              	.LVL10:
 107              	.L5:
 108              	.LBE42:
 109              	.LBE41:
 110              	.LBB43:
 111              	.LBB44:
 492:Generated_Source\PSoC6/SensorBus.h **** }
 112              		.loc 2 492 0 discriminator 1
 113 0054 0B49     		ldr	r1, .L8+4
 114 0056 0C48     		ldr	r0, .L8+8
 115 0058 FFF7FEFF 		bl	Cy_SCB_I2C_MasterGetStatus
 116              	.LVL11:
 117              	.LBE44:
 118              	.LBE43:
  76:AccDriver.c   ****     
  77:AccDriver.c   ****     i2cReturnValue = SensorBus_MasterRead(&register_setting);
  78:AccDriver.c   ****     if(i2cReturnValue != CY_SCB_I2C_SUCCESS)
  79:AccDriver.c   ****     {
  80:AccDriver.c   ****         // ** Throw error
  81:AccDriver.c   ****     }
  82:AccDriver.c   ****     
  83:AccDriver.c   ****     while(0 != (SensorBus_MasterGetStatus() & CY_SCB_I2C_MASTER_BUSY)){}
 119              		.loc 1 83 0 discriminator 1
 120 005c C303     		lsls	r3, r0, #15
 121 005e F9D4     		bmi	.L5
 122              	.LVL12:
  84:AccDriver.c   ****     {
ARM GAS  C:\Users\fiona\AppData\Local\Temp\ccJKYDXi.s 			page 14


  85:AccDriver.c   ****         if(++counter > 1000) 
 123              		.loc 1 85 0
 124 0060 0134     		adds	r4, r4, #1
 125              	.LVL13:
 126 0062 FA23     		movs	r3, #250
 127 0064 9B00     		lsls	r3, r3, #2
 128 0066 A4B2     		uxth	r4, r4
 129 0068 9C42     		cmp	r4, r3
 130 006a 07D8     		bhi	.L7
  86:AccDriver.c   ****         {
  87:AccDriver.c   ****             // ** Throw error
  88:AccDriver.c   ****             return 0;
  89:AccDriver.c   ****         }
  90:AccDriver.c   ****         else
  91:AccDriver.c   ****         {
  92:AccDriver.c   ****             CyDelayUs(1);  // Keep Waiting
 131              		.loc 1 92 0
 132 006c 0120     		movs	r0, #1
 133 006e FFF7FEFF 		bl	Cy_SysLib_DelayUs
 134              	.LVL14:
  93:AccDriver.c   ****         }
  94:AccDriver.c   ****     }
  95:AccDriver.c   ****     return rbuff[0];
 135              		.loc 1 95 0
 136 0072 034B     		ldr	r3, .L8
 137 0074 187D     		ldrb	r0, [r3, #20]
 138 0076 02E0     		b	.L3
 139              	.LVL15:
 140              	.L6:
  67:AccDriver.c   ****         }
 141              		.loc 1 67 0
 142 0078 0020     		movs	r0, #0
 143 007a 00E0     		b	.L3
 144              	.LVL16:
 145              	.L7:
  88:AccDriver.c   ****         }
 146              		.loc 1 88 0
 147 007c 0020     		movs	r0, #0
 148              	.L3:
  96:AccDriver.c   **** }
 149              		.loc 1 96 0
 150              		@ sp needed
 151 007e 10BD     		pop	{r4, pc}
 152              	.L9:
 153              		.align	2
 154              	.L8:
 155 0080 00000000 		.word	.LANCHOR0
 156 0084 00000000 		.word	SensorBus_context
 157 0088 00006240 		.word	1080164352
 158              		.cfi_endproc
 159              	.LFE841:
 160              		.size	ReadRegister, .-ReadRegister
 161              		.section	.text.WriteRegister,"ax",%progbits
 162              		.align	2
 163              		.code	16
 164              		.thumb_func
 165              		.type	WriteRegister, %function
ARM GAS  C:\Users\fiona\AppData\Local\Temp\ccJKYDXi.s 			page 15


 166              	WriteRegister:
 167              	.LFB840:
  23:AccDriver.c   ****     wbuff[0] = reg_addr; wbuff[1] = data;
 168              		.loc 1 23 0
 169              		.cfi_startproc
 170              		@ args = 0, pretend = 0, frame = 0
 171              		@ frame_needed = 0, uses_anonymous_args = 0
 172              	.LVL17:
 173 0000 10B5     		push	{r4, lr}
 174              		.cfi_def_cfa_offset 8
 175              		.cfi_offset 4, -8
 176              		.cfi_offset 14, -4
  24:AccDriver.c   ****     register_setting.buffer = wbuff; register_setting.bufferSize = 2; register_setting.xferPending 
 177              		.loc 1 24 0
 178 0002 0B4B     		ldr	r3, .L12
 179 0004 1870     		strb	r0, [r3]
 180 0006 5970     		strb	r1, [r3, #1]
  25:AccDriver.c   ****     
 181              		.loc 1 25 0
 182 0008 9B60     		str	r3, [r3, #8]
 183 000a 0222     		movs	r2, #2
 184 000c DA60     		str	r2, [r3, #12]
 185 000e 0022     		movs	r2, #0
 186 0010 1A74     		strb	r2, [r3, #16]
 187              	.LVL18:
 188              	.LBB45:
 189              	.LBB46:
 190              		.loc 2 531 0
 191 0012 191D     		adds	r1, r3, #4
 192              	.LVL19:
 193 0014 074A     		ldr	r2, .L12+4
 194 0016 0848     		ldr	r0, .L12+8
 195              	.LVL20:
 196 0018 FFF7FEFF 		bl	Cy_SCB_I2C_MasterWrite
 197              	.LVL21:
 198              	.L11:
 199              	.LBE46:
 200              	.LBE45:
 201              	.LBB47:
 202              	.LBB48:
 492:Generated_Source\PSoC6/SensorBus.h **** }
 203              		.loc 2 492 0 discriminator 1
 204 001c 0549     		ldr	r1, .L12+4
 205 001e 0648     		ldr	r0, .L12+8
 206 0020 FFF7FEFF 		bl	Cy_SCB_I2C_MasterGetStatus
 207              	.LVL22:
 208              	.LBE48:
 209              	.LBE47:
  34:AccDriver.c   ****     {
 210              		.loc 1 34 0 discriminator 1
 211 0024 C303     		lsls	r3, r0, #15
 212 0026 F9D4     		bmi	.L11
 213              	.LVL23:
  43:AccDriver.c   ****         }
 214              		.loc 1 43 0
 215 0028 0120     		movs	r0, #1
 216 002a FFF7FEFF 		bl	Cy_SysLib_DelayUs
ARM GAS  C:\Users\fiona\AppData\Local\Temp\ccJKYDXi.s 			page 16


 217              	.LVL24:
  47:AccDriver.c   **** static uint8 ReadRegister(uint8 reg_addr)
 218              		.loc 1 47 0
 219              		@ sp needed
 220 002e 10BD     		pop	{r4, pc}
 221              	.L13:
 222              		.align	2
 223              	.L12:
 224 0030 00000000 		.word	.LANCHOR0
 225 0034 00000000 		.word	SensorBus_context
 226 0038 00006240 		.word	1080164352
 227              		.cfi_endproc
 228              	.LFE840:
 229              		.size	WriteRegister, .-WriteRegister
 230              		.global	__aeabi_idiv
 231              		.section	.text.Interpolate,"ax",%progbits
 232              		.align	2
 233              		.code	16
 234              		.thumb_func
 235              		.type	Interpolate, %function
 236              	Interpolate:
 237              	.LFB842:
  97:AccDriver.c   **** static void Interpolate(void)
  98:AccDriver.c   **** {
 238              		.loc 1 98 0
 239              		.cfi_startproc
 240              		@ args = 0, pretend = 0, frame = 8
 241              		@ frame_needed = 0, uses_anonymous_args = 0
 242 0000 F0B5     		push	{r4, r5, r6, r7, lr}
 243              		.cfi_def_cfa_offset 20
 244              		.cfi_offset 4, -20
 245              		.cfi_offset 5, -16
 246              		.cfi_offset 6, -12
 247              		.cfi_offset 7, -8
 248              		.cfi_offset 14, -4
 249 0002 5746     		mov	r7, r10
 250 0004 4E46     		mov	r6, r9
 251 0006 4546     		mov	r5, r8
 252 0008 E0B4     		push	{r5, r6, r7}
 253              		.cfi_def_cfa_offset 32
 254              		.cfi_offset 8, -32
 255              		.cfi_offset 9, -28
 256              		.cfi_offset 10, -24
 257 000a 82B0     		sub	sp, sp, #8
 258              		.cfi_def_cfa_offset 40
  99:AccDriver.c   ****     static int16 a0, a1, t, t1;
 100:AccDriver.c   ****     
 101:AccDriver.c   ****     sample_old.x_raw = sample_new.x_raw;
 259              		.loc 1 101 0
 260 000c 434B     		ldr	r3, .L20
 261 000e 2221     		movs	r1, #34
 262 0010 5A5E     		ldrsh	r2, [r3, r1]
 263 0012 9146     		mov	r9, r2
 102:AccDriver.c   ****     sample_old.y_raw = sample_new.y_raw;
 264              		.loc 1 102 0
 265 0014 2421     		movs	r1, #36
 266 0016 5A5E     		ldrsh	r2, [r3, r1]
ARM GAS  C:\Users\fiona\AppData\Local\Temp\ccJKYDXi.s 			page 17


 267 0018 9046     		mov	r8, r2
 103:AccDriver.c   ****     sample_old.z_raw = sample_new.z_raw;
 268              		.loc 1 103 0
 269 001a 2622     		movs	r2, #38
 270 001c 9E5E     		ldrsh	r6, [r3, r2]
 104:AccDriver.c   **** 
 105:AccDriver.c   ****     sample_new.x_raw = ((uint16) x_msb << 8) | x_lsb;
 271              		.loc 1 105 0
 272 001e 2C22     		movs	r2, #44
 273 0020 9A5C     		ldrb	r2, [r3, r2]
 274 0022 1202     		lsls	r2, r2, #8
 275 0024 2D21     		movs	r1, #45
 276 0026 585C     		ldrb	r0, [r3, r1]
 277 0028 0243     		orrs	r2, r0
 278 002a 12B2     		sxth	r2, r2
 279 002c 5A84     		strh	r2, [r3, #34]
 106:AccDriver.c   ****     sample_new.y_raw = ((uint16) y_msb << 8) | y_lsb;
 280              		.loc 1 106 0
 281 002e 0131     		adds	r1, r1, #1
 282 0030 5D5C     		ldrb	r5, [r3, r1]
 283 0032 2D02     		lsls	r5, r5, #8
 284 0034 0131     		adds	r1, r1, #1
 285 0036 585C     		ldrb	r0, [r3, r1]
 286 0038 0543     		orrs	r5, r0
 287 003a 2DB2     		sxth	r5, r5
 288 003c 9D84     		strh	r5, [r3, #36]
 107:AccDriver.c   ****     sample_new.z_raw = ((uint16) z_msb << 8) | z_lsb;     
 289              		.loc 1 107 0
 290 003e 0131     		adds	r1, r1, #1
 291 0040 5C5C     		ldrb	r4, [r3, r1]
 292 0042 2402     		lsls	r4, r4, #8
 293 0044 0131     		adds	r1, r1, #1
 294 0046 585C     		ldrb	r0, [r3, r1]
 295 0048 0443     		orrs	r4, r0
 296 004a 24B2     		sxth	r4, r4
 297 004c DC84     		strh	r4, [r3, #38]
 108:AccDriver.c   ****     
 109:AccDriver.c   ****     if(is_first_sample == true)
 298              		.loc 1 109 0
 299 004e 344B     		ldr	r3, .L20+4
 300 0050 1B78     		ldrb	r3, [r3]
 301 0052 002B     		cmp	r3, #0
 302 0054 03D0     		beq	.L15
 110:AccDriver.c   ****     {  
 111:AccDriver.c   ****         is_first_sample = false; return;
 303              		.loc 1 111 0
 304 0056 0022     		movs	r2, #0
 305 0058 314B     		ldr	r3, .L20+4
 306 005a 1A70     		strb	r2, [r3]
 307 005c 57E0     		b	.L14
 308              	.L15:
 112:AccDriver.c   ****     }
 113:AccDriver.c   ****     
 114:AccDriver.c   ****     if(interpolated.timestamp.second <= sample_new.timestamp.second)
 309              		.loc 1 114 0
 310 005e 2F4B     		ldr	r3, .L20
 311 0060 4021     		movs	r1, #64
ARM GAS  C:\Users\fiona\AppData\Local\Temp\ccJKYDXi.s 			page 18


 312 0062 585A     		ldrh	r0, [r3, r1]
 313 0064 1F8C     		ldrh	r7, [r3, #32]
 314 0066 B842     		cmp	r0, r7
 315 0068 4CD8     		bhi	.L17
 115:AccDriver.c   ****     {        
 116:AccDriver.c   ****         a0 = sample_old.x_raw; a1 = sample_new.x_raw; t = interpolated.timestamp.second; t1 = sampl
 316              		.loc 1 116 0
 317 006a 03B2     		sxth	r3, r0
 318 006c 9A46     		mov	r10, r3
 319 006e 3BB2     		sxth	r3, r7
 117:AccDriver.c   ****         interpolated.x_raw = a0 + (t * (a1 - a0)/t1);
 320              		.loc 1 117 0
 321 0070 4946     		mov	r1, r9
 322 0072 501A     		subs	r0, r2, r1
 323 0074 5246     		mov	r2, r10
 324 0076 5043     		muls	r0, r2
 325 0078 0193     		str	r3, [sp, #4]
 326 007a 1900     		movs	r1, r3
 327 007c FFF7FEFF 		bl	__aeabi_idiv
 328              	.LVL25:
 329 0080 4844     		add	r0, r0, r9
 330 0082 82B2     		uxth	r2, r0
 331 0084 9146     		mov	r9, r2
 332 0086 254F     		ldr	r7, .L20
 333 0088 4223     		movs	r3, #66
 334 008a FA52     		strh	r2, [r7, r3]
 118:AccDriver.c   ****         
 119:AccDriver.c   ****         a0 = sample_old.y_raw; a1 = sample_new.y_raw;
 120:AccDriver.c   ****         interpolated.y_raw = a0 + (t * (a1 - a0)/t1);
 335              		.loc 1 120 0
 336 008c 4246     		mov	r2, r8
 337 008e A81A     		subs	r0, r5, r2
 338 0090 5246     		mov	r2, r10
 339 0092 5043     		muls	r0, r2
 340 0094 0199     		ldr	r1, [sp, #4]
 341 0096 FFF7FEFF 		bl	__aeabi_idiv
 342              	.LVL26:
 343 009a 4044     		add	r0, r0, r8
 344 009c 85B2     		uxth	r5, r0
 345 009e 4423     		movs	r3, #68
 346 00a0 FD52     		strh	r5, [r7, r3]
 121:AccDriver.c   ****           
 122:AccDriver.c   ****         a0 = sample_old.z_raw; a1 = sample_new.z_raw;
 123:AccDriver.c   ****         interpolated.z_raw = a0 + (t * (a1 - a0)/t1);
 347              		.loc 1 123 0
 348 00a2 A01B     		subs	r0, r4, r6
 349 00a4 5246     		mov	r2, r10
 350 00a6 5043     		muls	r0, r2
 351 00a8 0199     		ldr	r1, [sp, #4]
 352 00aa FFF7FEFF 		bl	__aeabi_idiv
 353              	.LVL27:
 354 00ae 8619     		adds	r6, r0, r6
 355 00b0 B0B2     		uxth	r0, r6
 356 00b2 4623     		movs	r3, #70
 357 00b4 F852     		strh	r0, [r7, r3]
 124:AccDriver.c   **** 
 125:AccDriver.c   ****         wsample->x_raw = (uint16)interpolated.x_raw;
ARM GAS  C:\Users\fiona\AppData\Local\Temp\ccJKYDXi.s 			page 19


 358              		.loc 1 125 0
 359 00b6 FB6C     		ldr	r3, [r7, #76]
 360 00b8 4A46     		mov	r2, r9
 361 00ba 5A80     		strh	r2, [r3, #2]
 126:AccDriver.c   ****         wsample->y_raw = (uint16)interpolated.y_raw;
 362              		.loc 1 126 0
 363 00bc 9D80     		strh	r5, [r3, #4]
 127:AccDriver.c   ****         wsample->z_raw = (uint16)interpolated.z_raw;
 364              		.loc 1 127 0
 365 00be D880     		strh	r0, [r3, #6]
 128:AccDriver.c   ****             
 129:AccDriver.c   ****         wsample_ptr = (uint8*) wsample;    
 366              		.loc 1 129 0
 367 00c0 3B65     		str	r3, [r7, #80]
 130:AccDriver.c   ****         if(DataBuffer_OpenWriteSlot((uint8**)&wsample_ptr, ACC1ESLOT, sizeof(struct dAcc1ESlot)))
 368              		.loc 1 130 0
 369 00c2 3800     		movs	r0, r7
 370 00c4 5030     		adds	r0, r0, #80
 371 00c6 0822     		movs	r2, #8
 372 00c8 0221     		movs	r1, #2
 373 00ca FFF7FEFF 		bl	DataBuffer_OpenWriteSlot
 374              	.LVL28:
 375 00ce 0028     		cmp	r0, #0
 376 00d0 04D0     		beq	.L18
 131:AccDriver.c   ****         {
 132:AccDriver.c   ****             DataBuffer_CloseWriteSlot((uint8**)&wsample_ptr, ACC1ESLOT);
 377              		.loc 1 132 0
 378 00d2 0221     		movs	r1, #2
 379 00d4 1148     		ldr	r0, .L20
 380 00d6 5030     		adds	r0, r0, #80
 381 00d8 FFF7FEFF 		bl	DataBuffer_CloseWriteSlot
 382              	.LVL29:
 383              	.L18:
 133:AccDriver.c   ****         }
 134:AccDriver.c   ****         
 135:AccDriver.c   ****         interpolated.timestamp.second = interpolated.timestamp.second + interpolated_period;
 384              		.loc 1 135 0
 385 00dc 0F4A     		ldr	r2, .L20
 386 00de 4021     		movs	r1, #64
 387 00e0 535A     		ldrh	r3, [r2, r1]
 388 00e2 506D     		ldr	r0, [r2, #84]
 389 00e4 8446     		mov	ip, r0
 390 00e6 6344     		add	r3, r3, ip
 391 00e8 9BB2     		uxth	r3, r3
 392 00ea 5352     		strh	r3, [r2, r1]
 136:AccDriver.c   ****         if(interpolated.timestamp.second < sample_new.timestamp.second)
 393              		.loc 1 136 0
 394 00ec 128C     		ldrh	r2, [r2, #32]
 395 00ee 9342     		cmp	r3, r2
 396 00f0 02D2     		bcs	.L19
 137:AccDriver.c   ****         {
 138:AccDriver.c   ****             Interpolate();
 397              		.loc 1 138 0
 398 00f2 FFF785FF 		bl	Interpolate
 399              	.LVL30:
 400 00f6 0AE0     		b	.L14
 401              	.L19:
ARM GAS  C:\Users\fiona\AppData\Local\Temp\ccJKYDXi.s 			page 20


 139:AccDriver.c   ****         }
 140:AccDriver.c   ****         else
 141:AccDriver.c   ****         {
 142:AccDriver.c   ****             interpolated.timestamp.second = interpolated.timestamp.second - sample_period;
 402              		.loc 1 142 0
 403 00f8 084A     		ldr	r2, .L20
 404 00fa 916D     		ldr	r1, [r2, #88]
 405 00fc 5B1A     		subs	r3, r3, r1
 406 00fe 4021     		movs	r1, #64
 407 0100 5352     		strh	r3, [r2, r1]
 408 0102 04E0     		b	.L14
 409              	.L17:
 143:AccDriver.c   ****         }
 144:AccDriver.c   ****     }
 145:AccDriver.c   ****     else
 146:AccDriver.c   ****     {
 147:AccDriver.c   ****         interpolated.timestamp.second = interpolated.timestamp.second - sample_period;
 410              		.loc 1 147 0
 411 0104 054B     		ldr	r3, .L20
 412 0106 9A6D     		ldr	r2, [r3, #88]
 413 0108 801A     		subs	r0, r0, r2
 414 010a 4022     		movs	r2, #64
 415 010c 9852     		strh	r0, [r3, r2]
 416              	.L14:
 148:AccDriver.c   ****     }
 149:AccDriver.c   **** }
 417              		.loc 1 149 0
 418 010e 02B0     		add	sp, sp, #8
 419              		@ sp needed
 420 0110 1CBC     		pop	{r2, r3, r4}
 421 0112 9046     		mov	r8, r2
 422 0114 9946     		mov	r9, r3
 423 0116 A246     		mov	r10, r4
 424 0118 F0BD     		pop	{r4, r5, r6, r7, pc}
 425              	.L21:
 426 011a C046     		.align	2
 427              	.L20:
 428 011c 00010000 		.word	.LANCHOR1
 429 0120 00000000 		.word	.LANCHOR2
 430              		.cfi_endproc
 431              	.LFE842:
 432              		.size	Interpolate, .-Interpolate
 433              		.section	.text.AccDriver_Init,"ax",%progbits
 434              		.align	2
 435              		.global	AccDriver_Init
 436              		.code	16
 437              		.thumb_func
 438              		.type	AccDriver_Init, %function
 439              	AccDriver_Init:
 440              	.LFB843:
 150:AccDriver.c   **** void AccDriver_Init()
 151:AccDriver.c   **** {
 441              		.loc 1 151 0
 442              		.cfi_startproc
 443              		@ args = 0, pretend = 0, frame = 0
 444              		@ frame_needed = 0, uses_anonymous_args = 0
 445 0000 10B5     		push	{r4, lr}
ARM GAS  C:\Users\fiona\AppData\Local\Temp\ccJKYDXi.s 			page 21


 446              		.cfi_def_cfa_offset 8
 447              		.cfi_offset 4, -8
 448              		.cfi_offset 14, -4
 152:AccDriver.c   ****     register_setting.slaveAddress = 0x1E;
 449              		.loc 1 152 0
 450 0002 1E22     		movs	r2, #30
 451 0004 174B     		ldr	r3, .L24
 452 0006 1A71     		strb	r2, [r3, #4]
 153:AccDriver.c   ****     WriteRegister(ACC_CTRL2,0x40); CyDelay(10);             // Reset          W[0x3C 0x21 0x40]
 453              		.loc 1 153 0
 454 0008 4021     		movs	r1, #64
 455 000a 2120     		movs	r0, #33
 456 000c FFF7FEFF 		bl	WriteRegister
 457              	.LVL31:
 458 0010 0A20     		movs	r0, #10
 459 0012 FFF7FEFF 		bl	Cy_SysLib_Delay
 460              	.LVL32:
 154:AccDriver.c   ****     if(ReadRegister(ACC_WHO_AM_I_ADDR) != ACC_WHO_AM_I_VAL) // Verify Chip ID          W[0x3C 0x0F]
 461              		.loc 1 154 0
 462 0016 0F20     		movs	r0, #15
 463 0018 FFF7FEFF 		bl	ReadRegister
 464              	.LVL33:
 465 001c 4328     		cmp	r0, #67
 466 001e 02D0     		beq	.L23
 155:AccDriver.c   ****     {
 156:AccDriver.c   ****         CyDelay(10);
 467              		.loc 1 156 0
 468 0020 0A20     		movs	r0, #10
 469 0022 FFF7FEFF 		bl	Cy_SysLib_Delay
 470              	.LVL34:
 471              	.L23:
 157:AccDriver.c   ****         // ** Throw error
 158:AccDriver.c   ****     }
 159:AccDriver.c   ****     wsample = (struct dAcc1ESlot*) malloc(sizeof(struct dAcc1ESlot));
 472              		.loc 1 159 0
 473 0026 0820     		movs	r0, #8
 474 0028 FFF7FEFF 		bl	malloc
 475              	.LVL35:
 476 002c 0E4B     		ldr	r3, .L24+4
 477 002e D864     		str	r0, [r3, #76]
 160:AccDriver.c   **** 
 161:AccDriver.c   ****     WriteRegister(ACC_CTRL1,0x40);       // Turn on accelerometer at 100 Hz
 478              		.loc 1 161 0
 479 0030 4021     		movs	r1, #64
 480 0032 2020     		movs	r0, #32
 481 0034 FFF7FEFF 		bl	WriteRegister
 482              	.LVL36:
 162:AccDriver.c   ****     WriteRegister(ACC_CTRL2,0x04);       // Turn high pass filter, auto inc addr
 483              		.loc 1 162 0
 484 0038 0421     		movs	r1, #4
 485 003a 2120     		movs	r0, #33
 486 003c FFF7FEFF 		bl	WriteRegister
 487              	.LVL37:
 163:AccDriver.c   ****     WriteRegister(ACC_WAKE_UP_DUR,0x60); // Set WU_DUR to 3
 488              		.loc 1 163 0
 489 0040 6021     		movs	r1, #96
 490 0042 3420     		movs	r0, #52
ARM GAS  C:\Users\fiona\AppData\Local\Temp\ccJKYDXi.s 			page 22


 491 0044 FFF7FEFF 		bl	WriteRegister
 492              	.LVL38:
 164:AccDriver.c   ****     WriteRegister(ACC_WAKE_UP_THS,0x02); // Set wake-up threshold
 493              		.loc 1 164 0
 494 0048 0221     		movs	r1, #2
 495 004a 3320     		movs	r0, #51
 496 004c FFF7FEFF 		bl	WriteRegister
 497              	.LVL39:
 165:AccDriver.c   ****     WriteRegister(ACC_CTRL4,0x20);       // Wake-up interrupt driven to INT1 pin
 498              		.loc 1 165 0
 499 0050 2021     		movs	r1, #32
 500 0052 2320     		movs	r0, #35
 501 0054 FFF7FEFF 		bl	WriteRegister
 502              	.LVL40:
 166:AccDriver.c   ****     WriteRegister(ACC_CTRL5,0x81);       // Data-ready interrupt driven to INT2 pin
 503              		.loc 1 166 0
 504 0058 8121     		movs	r1, #129
 505 005a 2420     		movs	r0, #36
 506 005c FFF7FEFF 		bl	WriteRegister
 507              	.LVL41:
 167:AccDriver.c   ****     return;
 168:AccDriver.c   **** }
 508              		.loc 1 168 0
 509              		@ sp needed
 510 0060 10BD     		pop	{r4, pc}
 511              	.L25:
 512 0062 C046     		.align	2
 513              	.L24:
 514 0064 00000000 		.word	.LANCHOR0
 515 0068 00010000 		.word	.LANCHOR1
 516              		.cfi_endproc
 517              	.LFE843:
 518              		.size	AccDriver_Init, .-AccDriver_Init
 519              		.section	.text.readAccData,"ax",%progbits
 520              		.align	2
 521              		.global	readAccData
 522              		.code	16
 523              		.thumb_func
 524              		.type	readAccData, %function
 525              	readAccData:
 526              	.LFB844:
 169:AccDriver.c   **** 
 170:AccDriver.c   **** void readAccData(acc_sample* data)
 171:AccDriver.c   **** {
 527              		.loc 1 171 0
 528              		.cfi_startproc
 529              		@ args = 0, pretend = 0, frame = 0
 530              		@ frame_needed = 0, uses_anonymous_args = 0
 531              	.LVL42:
 532 0000 70B5     		push	{r4, r5, r6, lr}
 533              		.cfi_def_cfa_offset 16
 534              		.cfi_offset 4, -16
 535              		.cfi_offset 5, -12
 536              		.cfi_offset 6, -8
 537              		.cfi_offset 14, -4
 538 0002 0400     		movs	r4, r0
 172:AccDriver.c   **** 
ARM GAS  C:\Users\fiona\AppData\Local\Temp\ccJKYDXi.s 			page 23


 173:AccDriver.c   ****     data->sensor_type = ACC;
 539              		.loc 1 173 0
 540 0004 0123     		movs	r3, #1
 541 0006 0370     		strb	r3, [r0]
 174:AccDriver.c   ****     data->x_raw = ReadRegister(ACC_OUT_X_H) << 8 | ReadRegister(ACC_OUT_X_L);
 542              		.loc 1 174 0
 543 0008 2920     		movs	r0, #41
 544              	.LVL43:
 545 000a FFF7FEFF 		bl	ReadRegister
 546              	.LVL44:
 547 000e 0502     		lsls	r5, r0, #8
 548 0010 2820     		movs	r0, #40
 549 0012 FFF7FEFF 		bl	ReadRegister
 550              	.LVL45:
 551 0016 2843     		orrs	r0, r5
 552 0018 2082     		strh	r0, [r4, #16]
 175:AccDriver.c   ****     data->y_raw = ReadRegister(ACC_OUT_Y_H) << 8 | ReadRegister(ACC_OUT_Y_L);
 553              		.loc 1 175 0
 554 001a 2B20     		movs	r0, #43
 555 001c FFF7FEFF 		bl	ReadRegister
 556              	.LVL46:
 557 0020 0502     		lsls	r5, r0, #8
 558 0022 2A20     		movs	r0, #42
 559 0024 FFF7FEFF 		bl	ReadRegister
 560              	.LVL47:
 561 0028 2843     		orrs	r0, r5
 562 002a 6082     		strh	r0, [r4, #18]
 176:AccDriver.c   ****     data->z_raw = ReadRegister(ACC_OUT_Z_H) << 8 | ReadRegister(ACC_OUT_Z_L);
 563              		.loc 1 176 0
 564 002c 2D20     		movs	r0, #45
 565 002e FFF7FEFF 		bl	ReadRegister
 566              	.LVL48:
 567 0032 0502     		lsls	r5, r0, #8
 568 0034 2C20     		movs	r0, #44
 569 0036 FFF7FEFF 		bl	ReadRegister
 570              	.LVL49:
 571 003a 2843     		orrs	r0, r5
 572 003c A082     		strh	r0, [r4, #20]
 177:AccDriver.c   ****     
 178:AccDriver.c   **** }
 573              		.loc 1 178 0
 574              		@ sp needed
 575              	.LVL50:
 576 003e 70BD     		pop	{r4, r5, r6, pc}
 577              		.cfi_endproc
 578              	.LFE844:
 579              		.size	readAccData, .-readAccData
 580              		.global	__aeabi_uidivmod
 581              		.section	.text.AccDriver_OperationDone,"ax",%progbits
 582              		.align	2
 583              		.global	AccDriver_OperationDone
 584              		.code	16
 585              		.thumb_func
 586              		.type	AccDriver_OperationDone, %function
 587              	AccDriver_OperationDone:
 588              	.LFB845:
 179:AccDriver.c   **** bool AccDriver_OperationDone()
ARM GAS  C:\Users\fiona\AppData\Local\Temp\ccJKYDXi.s 			page 24


 180:AccDriver.c   **** {
 589              		.loc 1 180 0
 590              		.cfi_startproc
 591              		@ args = 0, pretend = 0, frame = 0
 592              		@ frame_needed = 0, uses_anonymous_args = 0
 593 0000 10B5     		push	{r4, lr}
 594              		.cfi_def_cfa_offset 8
 595              		.cfi_offset 4, -8
 596              		.cfi_offset 14, -4
 181:AccDriver.c   ****     enum TransferStages{ UPDATE_SETTING_RATE, ASK_DIFF8, GET_DIFF8, ASK_FIFO_SIZE , GET_FIFO_SIZE ,
 182:AccDriver.c   ****     static uint8 pkt[2] = {0x00,0x00};
 183:AccDriver.c   ****     static uint16 state = UPDATE_SETTING_RATE;
 184:AccDriver.c   ****     static uint16 datums = 0;
 185:AccDriver.c   ****     
 186:AccDriver.c   ****     static uint8 val1[1] = {0x2f};  // Asks diff8
 187:AccDriver.c   ****     static uint8 val2[1] = {0x30};  // Asks fifo size
 188:AccDriver.c   ****     static uint8 val3[1] = {0x28};  // Asks fifo data
 189:AccDriver.c   ****     switch(state)
 597              		.loc 1 189 0
 598 0002 9A4A     		ldr	r2, .L54
 599 0004 5C23     		movs	r3, #92
 600 0006 D15A     		ldrh	r1, [r2, r3]
 601 0008 0729     		cmp	r1, #7
 602 000a 00D9     		bls	.LCB520
 603 000c 2CE1     		b	.L52	@long jump
 604              	.LCB520:
 605 000e 8B00     		lsls	r3, r1, #2
 606 0010 974A     		ldr	r2, .L54+4
 607 0012 D358     		ldr	r3, [r2, r3]
 608 0014 9F46     		mov	pc, r3
 609              		.section	.rodata
 610              		.align	2
 611              	.L30:
 612 0000 16000000 		.word	.L29
 613 0004 E6000000 		.word	.L31
 614 0008 10010000 		.word	.L32
 615 000c 36010000 		.word	.L33
 616 0010 76010000 		.word	.L34
 617 0014 9C010000 		.word	.L35
 618 0018 E2010000 		.word	.L36
 619 001c 52020000 		.word	.L53
 620              		.section	.text.AccDriver_OperationDone
 621              	.L29:
 190:AccDriver.c   ****     {
 191:AccDriver.c   ****         case UPDATE_SETTING_RATE:
 192:AccDriver.c   ****         {
 193:AccDriver.c   ****             state = ASK_DIFF8;
 622              		.loc 1 193 0
 623 0016 0121     		movs	r1, #1
 624 0018 5C23     		movs	r3, #92
 625 001a 944A     		ldr	r2, .L54
 626 001c D152     		strh	r1, [r2, r3]
 194:AccDriver.c   ****             if(device_rate_changed)
 627              		.loc 1 194 0
 628 001e 954B     		ldr	r3, .L54+8
 629 0020 5B78     		ldrb	r3, [r3, #1]
 630 0022 002B     		cmp	r3, #0
ARM GAS  C:\Users\fiona\AppData\Local\Temp\ccJKYDXi.s 			page 25


 631 0024 5FD0     		beq	.L31
 632              	.LBB49:
 195:AccDriver.c   ****             {
 196:AccDriver.c   ****                 device_rate_changed = false;
 633              		.loc 1 196 0
 634 0026 934B     		ldr	r3, .L54+8
 635 0028 0022     		movs	r2, #0
 636 002a 5A70     		strb	r2, [r3, #1]
 197:AccDriver.c   ****                 switch(device_rate_setting)
 637              		.loc 1 197 0
 638 002c 9A78     		ldrb	r2, [r3, #2]
 639 002e 082A     		cmp	r2, #8
 640 0030 4AD8     		bhi	.L38
 641 0032 9300     		lsls	r3, r2, #2
 642 0034 904A     		ldr	r2, .L54+12
 643 0036 D358     		ldr	r3, [r2, r3]
 644 0038 9F46     		mov	pc, r3
 645              		.section	.rodata
 646              		.align	2
 647              	.L40:
 648 0020 3A000000 		.word	.L39
 649 0024 4A000000 		.word	.L41
 650 0028 5A000000 		.word	.L42
 651 002c 6A000000 		.word	.L43
 652 0030 7A000000 		.word	.L44
 653 0034 8A000000 		.word	.L45
 654 0038 9A000000 		.word	.L46
 655 003c AA000000 		.word	.L47
 656 0040 BA000000 		.word	.L48
 657              		.section	.text.AccDriver_OperationDone
 658              	.L39:
 198:AccDriver.c   ****                 {
 199:AccDriver.c   ****                     case ACC_1E_RATE_800_HZ:  {pkt[0] = 0x20; pkt[1] = 0b11110000; break;}  // W[0x
 659              		.loc 1 199 0
 660 003a 8C4B     		ldr	r3, .L54
 661 003c 2021     		movs	r1, #32
 662 003e 6022     		movs	r2, #96
 663 0040 9954     		strb	r1, [r3, r2]
 664 0042 6033     		adds	r3, r3, #96
 665 0044 9032     		adds	r2, r2, #144
 666 0046 5A70     		strb	r2, [r3, #1]
 667 0048 3EE0     		b	.L38
 668              	.L41:
 200:AccDriver.c   ****                     case ACC_1E_RATE_400_HZ:  {pkt[0] = 0x20; pkt[1] = 0b11100000; break;}  // W[0x
 669              		.loc 1 200 0
 670 004a 884B     		ldr	r3, .L54
 671 004c 2021     		movs	r1, #32
 672 004e 6022     		movs	r2, #96
 673 0050 9954     		strb	r1, [r3, r2]
 674 0052 6033     		adds	r3, r3, #96
 675 0054 8032     		adds	r2, r2, #128
 676 0056 5A70     		strb	r2, [r3, #1]
 677 0058 36E0     		b	.L38
 678              	.L42:
 201:AccDriver.c   ****                     case ACC_1E_RATE_200_HZ:  {pkt[0] = 0x20; pkt[1] = 0b11010000; break;}  // W[0x
 679              		.loc 1 201 0
 680 005a 844B     		ldr	r3, .L54
ARM GAS  C:\Users\fiona\AppData\Local\Temp\ccJKYDXi.s 			page 26


 681 005c 2021     		movs	r1, #32
 682 005e 6022     		movs	r2, #96
 683 0060 9954     		strb	r1, [r3, r2]
 684 0062 6033     		adds	r3, r3, #96
 685 0064 7032     		adds	r2, r2, #112
 686 0066 5A70     		strb	r2, [r3, #1]
 687 0068 2EE0     		b	.L38
 688              	.L43:
 202:AccDriver.c   ****                     case ACC_1E_RATE_100_HZ:  {pkt[0] = 0x20; pkt[1] = 0b11000000; break;}  // W[0x
 689              		.loc 1 202 0
 690 006a 804B     		ldr	r3, .L54
 691 006c 2021     		movs	r1, #32
 692 006e 6022     		movs	r2, #96
 693 0070 9954     		strb	r1, [r3, r2]
 694 0072 6033     		adds	r3, r3, #96
 695 0074 6032     		adds	r2, r2, #96
 696 0076 5A70     		strb	r2, [r3, #1]
 697 0078 26E0     		b	.L38
 698              	.L44:
 203:AccDriver.c   ****                     case ACC_1E_RATE_50_HZ:   {pkt[0] = 0x20; pkt[1] = 0b10110000; break;}  // W[0x
 699              		.loc 1 203 0
 700 007a 7C4B     		ldr	r3, .L54
 701 007c 2021     		movs	r1, #32
 702 007e 6022     		movs	r2, #96
 703 0080 9954     		strb	r1, [r3, r2]
 704 0082 6033     		adds	r3, r3, #96
 705 0084 5032     		adds	r2, r2, #80
 706 0086 5A70     		strb	r2, [r3, #1]
 707 0088 1EE0     		b	.L38
 708              	.L45:
 204:AccDriver.c   ****                     case ACC_1E_RATE_25_HZ:   {pkt[0] = 0x20; pkt[1] = 0b10100000; break;}  // W[0x
 709              		.loc 1 204 0
 710 008a 784B     		ldr	r3, .L54
 711 008c 2021     		movs	r1, #32
 712 008e 6022     		movs	r2, #96
 713 0090 9954     		strb	r1, [r3, r2]
 714 0092 6033     		adds	r3, r3, #96
 715 0094 4032     		adds	r2, r2, #64
 716 0096 5A70     		strb	r2, [r3, #1]
 717 0098 16E0     		b	.L38
 718              	.L46:
 205:AccDriver.c   ****                     case ACC_1E_RATE_12_5_HZ: {pkt[0] = 0x20; pkt[1] = 0b10010000; break;}  // W[0x
 719              		.loc 1 205 0
 720 009a 744B     		ldr	r3, .L54
 721 009c 2021     		movs	r1, #32
 722 009e 6022     		movs	r2, #96
 723 00a0 9954     		strb	r1, [r3, r2]
 724 00a2 6033     		adds	r3, r3, #96
 725 00a4 3032     		adds	r2, r2, #48
 726 00a6 5A70     		strb	r2, [r3, #1]
 727 00a8 0EE0     		b	.L38
 728              	.L47:
 206:AccDriver.c   ****                     case ACC_1E_RATE_1_HZ:    {pkt[0] = 0x20; pkt[1] = 0b10000000; break;}  // W[0x
 729              		.loc 1 206 0
 730 00aa 704B     		ldr	r3, .L54
 731 00ac 2021     		movs	r1, #32
 732 00ae 6022     		movs	r2, #96
ARM GAS  C:\Users\fiona\AppData\Local\Temp\ccJKYDXi.s 			page 27


 733 00b0 9954     		strb	r1, [r3, r2]
 734 00b2 6033     		adds	r3, r3, #96
 735 00b4 2032     		adds	r2, r2, #32
 736 00b6 5A70     		strb	r2, [r3, #1]
 737 00b8 06E0     		b	.L38
 738              	.L48:
 207:AccDriver.c   ****                     case ACC_1E_OFF:          {pkt[0] = 0x20; pkt[1] = 0b00000000; break;}  // W[0x
 739              		.loc 1 207 0
 740 00ba 6C4B     		ldr	r3, .L54
 741 00bc 2021     		movs	r1, #32
 742 00be 6022     		movs	r2, #96
 743 00c0 9954     		strb	r1, [r3, r2]
 744 00c2 6033     		adds	r3, r3, #96
 745 00c4 0022     		movs	r2, #0
 746 00c6 5A70     		strb	r2, [r3, #1]
 747              	.L38:
 208:AccDriver.c   ****                 }				
 209:AccDriver.c   ****                 register_setting.buffer = pkt; register_setting.bufferSize = 2; register_setting.xf
 748              		.loc 1 209 0
 749 00c8 6C49     		ldr	r1, .L54+16
 750 00ca 684B     		ldr	r3, .L54
 751 00cc 6033     		adds	r3, r3, #96
 752 00ce 8B60     		str	r3, [r1, #8]
 753 00d0 0223     		movs	r3, #2
 754 00d2 CB60     		str	r3, [r1, #12]
 755 00d4 0023     		movs	r3, #0
 756 00d6 0B74     		strb	r3, [r1, #16]
 757              	.LVL51:
 758              	.LBB50:
 759              	.LBB51:
 760              		.loc 2 531 0
 761 00d8 0431     		adds	r1, r1, #4
 762 00da 694A     		ldr	r2, .L54+20
 763 00dc 6948     		ldr	r0, .L54+24
 764 00de FFF7FEFF 		bl	Cy_SCB_I2C_MasterWrite
 765              	.LVL52:
 766              	.LBE51:
 767              	.LBE50:
 768              	.LBE49:
 210:AccDriver.c   ****                 cy_en_scb_i2c_status_t i2cReturnValue = SensorBus_MasterWrite(&register_setting);
 211:AccDriver.c   ****                 if(i2cReturnValue != CY_SCB_I2C_SUCCESS)
 212:AccDriver.c   ****                 {
 213:AccDriver.c   ****                     // ** Throw error
 214:AccDriver.c   ****                 }    
 215:AccDriver.c   ****                 break;
 216:AccDriver.c   ****             }
 217:AccDriver.c   ****         }
 218:AccDriver.c   ****         case ASK_DIFF8:  // 9th-bit for FIFO buffer, asks if FIFO is full (256 samples). On page 50
 219:AccDriver.c   ****         {
 220:AccDriver.c   ****             datums = 0;
 221:AccDriver.c   ****             register_setting.buffer = val1; register_setting.bufferSize = 1; register_setting.xferP
 222:AccDriver.c   ****             cy_en_scb_i2c_status_t i2cReturnValue = SensorBus_MasterWrite(&register_setting);
 223:AccDriver.c   ****             if(i2cReturnValue != CY_SCB_I2C_SUCCESS)
 224:AccDriver.c   ****             {
 225:AccDriver.c   ****                 // ** Throw error
 226:AccDriver.c   ****             }
 227:AccDriver.c   ****             state = GET_DIFF8;
ARM GAS  C:\Users\fiona\AppData\Local\Temp\ccJKYDXi.s 			page 28


 228:AccDriver.c   ****             break;
 229:AccDriver.c   ****         }
 230:AccDriver.c   ****         case GET_DIFF8:  // Read if DIFF8 is filled      R[0x3D 0x##]
 231:AccDriver.c   ****         {
 232:AccDriver.c   ****             register_setting.buffer = rbuff; register_setting.bufferSize = 1; register_setting.xfer
 233:AccDriver.c   ****             cy_en_scb_i2c_status_t i2cReturnValue = SensorBus_MasterRead(&register_setting);
 234:AccDriver.c   ****             if(i2cReturnValue != CY_SCB_I2C_SUCCESS)
 235:AccDriver.c   ****             {
 236:AccDriver.c   ****                 // ** Throw error
 237:AccDriver.c   ****             }
 238:AccDriver.c   ****             state = ASK_FIFO_SIZE; 
 239:AccDriver.c   ****             break;
 240:AccDriver.c   ****         }
 241:AccDriver.c   ****         case ASK_FIFO_SIZE:  // Request Number of Buffered datums  
 242:AccDriver.c   ****         {
 243:AccDriver.c   ****             if(rbuff[0] & 0x20)
 244:AccDriver.c   ****             {
 245:AccDriver.c   ****                 datums = 256;
 246:AccDriver.c   ****                 state = ASK_FIFO_DATA;
 247:AccDriver.c   ****             }
 248:AccDriver.c   ****             else //  W[0x3C 0x30]
 249:AccDriver.c   ****             {
 250:AccDriver.c   ****                 register_setting.buffer = val2; register_setting.bufferSize = 1; register_setting.x
 251:AccDriver.c   ****                 cy_en_scb_i2c_status_t i2cReturnValue = SensorBus_MasterWrite(&register_setting);
 252:AccDriver.c   ****                 if(i2cReturnValue != CY_SCB_I2C_SUCCESS)
 253:AccDriver.c   ****                 {
 254:AccDriver.c   ****                     // ** Throw error
 255:AccDriver.c   ****                 }
 256:AccDriver.c   ****                 state = GET_FIFO_SIZE;
 257:AccDriver.c   ****             }
 258:AccDriver.c   ****             break;
 259:AccDriver.c   ****         }
 260:AccDriver.c   ****         case GET_FIFO_SIZE:  // Read Number of Buffered datums      R[0x3D 0x##]
 261:AccDriver.c   ****         {
 262:AccDriver.c   ****             register_setting.buffer = rbuff; register_setting.bufferSize = 1; register_setting.xfer
 263:AccDriver.c   ****             cy_en_scb_i2c_status_t i2cReturnValue = SensorBus_MasterRead(&register_setting);
 264:AccDriver.c   ****             if(i2cReturnValue != CY_SCB_I2C_SUCCESS)
 265:AccDriver.c   ****             {
 266:AccDriver.c   ****                 // ** Throw error
 267:AccDriver.c   ****             }
 268:AccDriver.c   ****             state = ASK_FIFO_DATA;
 269:AccDriver.c   ****             break;
 270:AccDriver.c   ****         }
 271:AccDriver.c   ****         case ASK_FIFO_DATA:  // Request All Buffered datums         W[0x3C 0x028]
 272:AccDriver.c   ****         {
 273:AccDriver.c   ****             if(datums != 256)
 274:AccDriver.c   ****             {
 275:AccDriver.c   ****                 uint8 remainder = (rbuff[0] & 0xFF) % 6;
 276:AccDriver.c   ****                 datums = (rbuff[0] & 0xFF) - remainder; // 16-bit for x,y,z
 277:AccDriver.c   ****             }
 278:AccDriver.c   ****             register_setting.buffer = val3; register_setting.bufferSize = 1; register_setting.xferP
 279:AccDriver.c   ****             cy_en_scb_i2c_status_t i2cReturnValue = SensorBus_MasterWrite(&register_setting);
 280:AccDriver.c   ****             if(i2cReturnValue != CY_SCB_I2C_SUCCESS)
 281:AccDriver.c   ****             {
 282:AccDriver.c   ****                 // ** Throw error
 283:AccDriver.c   ****             }
 284:AccDriver.c   ****             state = GET_FIFO_DATA; 
ARM GAS  C:\Users\fiona\AppData\Local\Temp\ccJKYDXi.s 			page 29


 285:AccDriver.c   ****             break;
 286:AccDriver.c   ****         }        
 287:AccDriver.c   ****         case GET_FIFO_DATA:  // Read Buffered datums                R[0x3D 0x## ... 0x##]
 288:AccDriver.c   ****         {
 289:AccDriver.c   ****             register_setting.buffer = rbuff; register_setting.bufferSize = datums; register_setting
 290:AccDriver.c   ****             cy_en_scb_i2c_status_t i2cReturnValue = SensorBus_MasterRead(&register_setting);
 291:AccDriver.c   ****             if(i2cReturnValue != CY_SCB_I2C_SUCCESS)
 292:AccDriver.c   ****             {
 293:AccDriver.c   ****                 // ** Throw error
 294:AccDriver.c   ****             }
 295:AccDriver.c   ****             state = SAVE_TO_BUFFER;
 296:AccDriver.c   ****             break;
 297:AccDriver.c   ****         }
 298:AccDriver.c   ****         case SAVE_TO_BUFFER: // Save to Buffer
 299:AccDriver.c   ****         {
 300:AccDriver.c   ****             for(uint16 index = 0; index < datums; index += 6)
 301:AccDriver.c   ****             {
 302:AccDriver.c   ****                 x_lsb = rbuff[index+0]; x_msb = rbuff[index+1];
 303:AccDriver.c   ****                 y_lsb = rbuff[index+2]; y_msb = rbuff[index+3];
 304:AccDriver.c   ****                 z_lsb = rbuff[index+4]; z_msb = rbuff[index+5];
 305:AccDriver.c   ****                 Interpolate();
 306:AccDriver.c   ****             }
 307:AccDriver.c   ****             state = UPDATE_SETTING_RATE;
 308:AccDriver.c   ****             return true;
 309:AccDriver.c   ****         }
 310:AccDriver.c   ****     }    
 311:AccDriver.c   ****     return false;
 769              		.loc 1 311 0
 770 00e2 0020     		movs	r0, #0
 771              	.LBB52:
 215:AccDriver.c   ****             }
 772              		.loc 1 215 0
 773 00e4 C1E0     		b	.L28
 774              	.L31:
 775              	.LBE52:
 776              	.LBB53:
 220:AccDriver.c   ****             register_setting.buffer = val1; register_setting.bufferSize = 1; register_setting.xferP
 777              		.loc 1 220 0
 778 00e6 614C     		ldr	r4, .L54
 779 00e8 0022     		movs	r2, #0
 780 00ea 6223     		movs	r3, #98
 781 00ec E252     		strh	r2, [r4, r3]
 221:AccDriver.c   ****             cy_en_scb_i2c_status_t i2cReturnValue = SensorBus_MasterWrite(&register_setting);
 782              		.loc 1 221 0
 783 00ee 6349     		ldr	r1, .L54+16
 784 00f0 604B     		ldr	r3, .L54+8
 785 00f2 0433     		adds	r3, r3, #4
 786 00f4 8B60     		str	r3, [r1, #8]
 787 00f6 0123     		movs	r3, #1
 788 00f8 CB60     		str	r3, [r1, #12]
 789 00fa 0B74     		strb	r3, [r1, #16]
 790              	.LVL53:
 791              	.LBB54:
 792              	.LBB55:
 793              		.loc 2 531 0
 794 00fc 0431     		adds	r1, r1, #4
 795 00fe 604A     		ldr	r2, .L54+20
ARM GAS  C:\Users\fiona\AppData\Local\Temp\ccJKYDXi.s 			page 30


 796 0100 6048     		ldr	r0, .L54+24
 797 0102 FFF7FEFF 		bl	Cy_SCB_I2C_MasterWrite
 798              	.LVL54:
 799              	.LBE55:
 800              	.LBE54:
 227:AccDriver.c   ****             break;
 801              		.loc 1 227 0
 802 0106 0222     		movs	r2, #2
 803 0108 5C23     		movs	r3, #92
 804 010a E252     		strh	r2, [r4, r3]
 805              	.LBE53:
 806              		.loc 1 311 0
 807 010c 0020     		movs	r0, #0
 808              	.LBB56:
 228:AccDriver.c   ****         }
 809              		.loc 1 228 0
 810 010e ACE0     		b	.L28
 811              	.L32:
 812              	.LBE56:
 813              	.LBB57:
 232:AccDriver.c   ****             cy_en_scb_i2c_status_t i2cReturnValue = SensorBus_MasterRead(&register_setting);
 814              		.loc 1 232 0
 815 0110 5A49     		ldr	r1, .L54+16
 816 0112 0B00     		movs	r3, r1
 817 0114 1433     		adds	r3, r3, #20
 818 0116 8B60     		str	r3, [r1, #8]
 819 0118 0123     		movs	r3, #1
 820 011a CB60     		str	r3, [r1, #12]
 821 011c 0023     		movs	r3, #0
 822 011e 0B74     		strb	r3, [r1, #16]
 823              	.LVL55:
 824              	.LBB58:
 825              	.LBB59:
 505:Generated_Source\PSoC6/SensorBus.h **** }
 826              		.loc 2 505 0
 827 0120 0431     		adds	r1, r1, #4
 828 0122 574A     		ldr	r2, .L54+20
 829 0124 5748     		ldr	r0, .L54+24
 830 0126 FFF7FEFF 		bl	Cy_SCB_I2C_MasterRead
 831              	.LVL56:
 832              	.LBE59:
 833              	.LBE58:
 238:AccDriver.c   ****             break;
 834              		.loc 1 238 0
 835 012a 0321     		movs	r1, #3
 836 012c 5C23     		movs	r3, #92
 837 012e 4F4A     		ldr	r2, .L54
 838 0130 D152     		strh	r1, [r2, r3]
 839              	.LBE57:
 840              		.loc 1 311 0
 841 0132 0020     		movs	r0, #0
 842              	.LBB60:
 239:AccDriver.c   ****         }
 843              		.loc 1 239 0
 844 0134 99E0     		b	.L28
 845              	.L33:
 846              	.LBE60:
ARM GAS  C:\Users\fiona\AppData\Local\Temp\ccJKYDXi.s 			page 31


 243:AccDriver.c   ****             {
 847              		.loc 1 243 0
 848 0136 514B     		ldr	r3, .L54+16
 849 0138 1B7D     		ldrb	r3, [r3, #20]
 850 013a 9B06     		lsls	r3, r3, #26
 851 013c 09D5     		bpl	.L49
 245:AccDriver.c   ****                 state = ASK_FIFO_DATA;
 852              		.loc 1 245 0
 853 013e 4B4B     		ldr	r3, .L54
 854 0140 8021     		movs	r1, #128
 855 0142 4900     		lsls	r1, r1, #1
 856 0144 6222     		movs	r2, #98
 857 0146 9952     		strh	r1, [r3, r2]
 246:AccDriver.c   ****             }
 858              		.loc 1 246 0
 859 0148 FB39     		subs	r1, r1, #251
 860 014a 063A     		subs	r2, r2, #6
 861 014c 9952     		strh	r1, [r3, r2]
 862              		.loc 1 311 0
 863 014e 0020     		movs	r0, #0
 864 0150 8BE0     		b	.L28
 865              	.L49:
 866              	.LBB61:
 250:AccDriver.c   ****                 cy_en_scb_i2c_status_t i2cReturnValue = SensorBus_MasterWrite(&register_setting);
 867              		.loc 1 250 0
 868 0152 4A49     		ldr	r1, .L54+16
 869 0154 474B     		ldr	r3, .L54+8
 870 0156 0833     		adds	r3, r3, #8
 871 0158 8B60     		str	r3, [r1, #8]
 872 015a 0123     		movs	r3, #1
 873 015c CB60     		str	r3, [r1, #12]
 874 015e 0B74     		strb	r3, [r1, #16]
 875              	.LVL57:
 876              	.LBB62:
 877              	.LBB63:
 878              		.loc 2 531 0
 879 0160 0431     		adds	r1, r1, #4
 880 0162 474A     		ldr	r2, .L54+20
 881 0164 4748     		ldr	r0, .L54+24
 882 0166 FFF7FEFF 		bl	Cy_SCB_I2C_MasterWrite
 883              	.LVL58:
 884              	.LBE63:
 885              	.LBE62:
 256:AccDriver.c   ****             }
 886              		.loc 1 256 0
 887 016a 0421     		movs	r1, #4
 888 016c 5C23     		movs	r3, #92
 889 016e 3F4A     		ldr	r2, .L54
 890 0170 D152     		strh	r1, [r2, r3]
 891              	.LBE61:
 892              		.loc 1 311 0
 893 0172 0020     		movs	r0, #0
 894 0174 79E0     		b	.L28
 895              	.L34:
 896              	.LBB64:
 262:AccDriver.c   ****             cy_en_scb_i2c_status_t i2cReturnValue = SensorBus_MasterRead(&register_setting);
 897              		.loc 1 262 0
ARM GAS  C:\Users\fiona\AppData\Local\Temp\ccJKYDXi.s 			page 32


 898 0176 4149     		ldr	r1, .L54+16
 899 0178 0B00     		movs	r3, r1
 900 017a 1433     		adds	r3, r3, #20
 901 017c 8B60     		str	r3, [r1, #8]
 902 017e 0123     		movs	r3, #1
 903 0180 CB60     		str	r3, [r1, #12]
 904 0182 0023     		movs	r3, #0
 905 0184 0B74     		strb	r3, [r1, #16]
 906              	.LVL59:
 907              	.LBB65:
 908              	.LBB66:
 505:Generated_Source\PSoC6/SensorBus.h **** }
 909              		.loc 2 505 0
 910 0186 0431     		adds	r1, r1, #4
 911 0188 3D4A     		ldr	r2, .L54+20
 912 018a 3E48     		ldr	r0, .L54+24
 913 018c FFF7FEFF 		bl	Cy_SCB_I2C_MasterRead
 914              	.LVL60:
 915              	.LBE66:
 916              	.LBE65:
 268:AccDriver.c   ****             break;
 917              		.loc 1 268 0
 918 0190 0521     		movs	r1, #5
 919 0192 5C23     		movs	r3, #92
 920 0194 354A     		ldr	r2, .L54
 921 0196 D152     		strh	r1, [r2, r3]
 922              	.LBE64:
 923              		.loc 1 311 0
 924 0198 0020     		movs	r0, #0
 925              	.LBB67:
 269:AccDriver.c   ****         }
 926              		.loc 1 269 0
 927 019a 66E0     		b	.L28
 928              	.L35:
 929              	.LBE67:
 930              	.LBB68:
 273:AccDriver.c   ****             {
 931              		.loc 1 273 0
 932 019c 6223     		movs	r3, #98
 933 019e 334A     		ldr	r2, .L54
 934 01a0 D25A     		ldrh	r2, [r2, r3]
 935 01a2 9E33     		adds	r3, r3, #158
 936 01a4 9A42     		cmp	r2, r3
 937 01a6 0AD0     		beq	.L50
 938              	.LBB69:
 275:AccDriver.c   ****                 datums = (rbuff[0] & 0xFF) - remainder; // 16-bit for x,y,z
 939              		.loc 1 275 0
 940 01a8 344B     		ldr	r3, .L54+16
 941 01aa 1C7D     		ldrb	r4, [r3, #20]
 942 01ac 0621     		movs	r1, #6
 943 01ae 2000     		movs	r0, r4
 944 01b0 FFF7FEFF 		bl	__aeabi_uidivmod
 945              	.LVL61:
 946 01b4 C9B2     		uxtb	r1, r1
 947              	.LVL62:
 276:AccDriver.c   ****             }
 948              		.loc 1 276 0
ARM GAS  C:\Users\fiona\AppData\Local\Temp\ccJKYDXi.s 			page 33


 949 01b6 641A     		subs	r4, r4, r1
 950 01b8 6223     		movs	r3, #98
 951 01ba 2C4A     		ldr	r2, .L54
 952 01bc D452     		strh	r4, [r2, r3]
 953              	.LVL63:
 954              	.L50:
 955              	.LBE69:
 278:AccDriver.c   ****             cy_en_scb_i2c_status_t i2cReturnValue = SensorBus_MasterWrite(&register_setting);
 956              		.loc 1 278 0
 957 01be 2F49     		ldr	r1, .L54+16
 958 01c0 2C4B     		ldr	r3, .L54+8
 959 01c2 0C33     		adds	r3, r3, #12
 960 01c4 8B60     		str	r3, [r1, #8]
 961 01c6 0123     		movs	r3, #1
 962 01c8 CB60     		str	r3, [r1, #12]
 963 01ca 0B74     		strb	r3, [r1, #16]
 964              	.LVL64:
 965              	.LBB70:
 966              	.LBB71:
 967              		.loc 2 531 0
 968 01cc 0431     		adds	r1, r1, #4
 969 01ce 2C4A     		ldr	r2, .L54+20
 970 01d0 2C48     		ldr	r0, .L54+24
 971 01d2 FFF7FEFF 		bl	Cy_SCB_I2C_MasterWrite
 972              	.LVL65:
 973              	.LBE71:
 974              	.LBE70:
 284:AccDriver.c   ****             break;
 975              		.loc 1 284 0
 976 01d6 0621     		movs	r1, #6
 977 01d8 5C23     		movs	r3, #92
 978 01da 244A     		ldr	r2, .L54
 979 01dc D152     		strh	r1, [r2, r3]
 980              	.LBE68:
 981              		.loc 1 311 0
 982 01de 0020     		movs	r0, #0
 983              	.LBB72:
 285:AccDriver.c   ****         }        
 984              		.loc 1 285 0
 985 01e0 43E0     		b	.L28
 986              	.L36:
 987              	.LBE72:
 988              	.LBB73:
 289:AccDriver.c   ****             cy_en_scb_i2c_status_t i2cReturnValue = SensorBus_MasterRead(&register_setting);
 989              		.loc 1 289 0
 990 01e2 2649     		ldr	r1, .L54+16
 991 01e4 0B00     		movs	r3, r1
 992 01e6 1433     		adds	r3, r3, #20
 993 01e8 8B60     		str	r3, [r1, #8]
 994 01ea 204C     		ldr	r4, .L54
 995 01ec 6223     		movs	r3, #98
 996 01ee E35A     		ldrh	r3, [r4, r3]
 997 01f0 CB60     		str	r3, [r1, #12]
 998 01f2 0023     		movs	r3, #0
 999 01f4 0B74     		strb	r3, [r1, #16]
 1000              	.LVL66:
 1001              	.LBB74:
ARM GAS  C:\Users\fiona\AppData\Local\Temp\ccJKYDXi.s 			page 34


 1002              	.LBB75:
 505:Generated_Source\PSoC6/SensorBus.h **** }
 1003              		.loc 2 505 0
 1004 01f6 0431     		adds	r1, r1, #4
 1005 01f8 214A     		ldr	r2, .L54+20
 1006 01fa 2248     		ldr	r0, .L54+24
 1007 01fc FFF7FEFF 		bl	Cy_SCB_I2C_MasterRead
 1008              	.LVL67:
 1009              	.LBE75:
 1010              	.LBE74:
 295:AccDriver.c   ****             break;
 1011              		.loc 1 295 0
 1012 0200 0722     		movs	r2, #7
 1013 0202 5C23     		movs	r3, #92
 1014 0204 E252     		strh	r2, [r4, r3]
 1015              	.LBE73:
 1016              		.loc 1 311 0
 1017 0206 0020     		movs	r0, #0
 1018              	.LBB76:
 296:AccDriver.c   ****         }
 1019              		.loc 1 296 0
 1020 0208 2FE0     		b	.L28
 1021              	.LVL68:
 1022              	.L51:
 1023              	.LBE76:
 1024              	.LBB77:
 302:AccDriver.c   ****                 y_lsb = rbuff[index+2]; y_msb = rbuff[index+3];
 1025              		.loc 1 302 0 discriminator 3
 1026 020a 1C4A     		ldr	r2, .L54+16
 1027 020c 1319     		adds	r3, r2, r4
 1028 020e 187D     		ldrb	r0, [r3, #20]
 1029 0210 164B     		ldr	r3, .L54
 1030 0212 2D21     		movs	r1, #45
 1031 0214 5854     		strb	r0, [r3, r1]
 1032 0216 611C     		adds	r1, r4, #1
 1033 0218 5118     		adds	r1, r2, r1
 1034 021a 087D     		ldrb	r0, [r1, #20]
 1035 021c 2C21     		movs	r1, #44
 1036 021e 5854     		strb	r0, [r3, r1]
 303:AccDriver.c   ****                 z_lsb = rbuff[index+4]; z_msb = rbuff[index+5];
 1037              		.loc 1 303 0 discriminator 3
 1038 0220 A11C     		adds	r1, r4, #2
 1039 0222 5118     		adds	r1, r2, r1
 1040 0224 087D     		ldrb	r0, [r1, #20]
 1041 0226 2F21     		movs	r1, #47
 1042 0228 5854     		strb	r0, [r3, r1]
 1043 022a E11C     		adds	r1, r4, #3
 1044 022c 5118     		adds	r1, r2, r1
 1045 022e 087D     		ldrb	r0, [r1, #20]
 1046 0230 2E21     		movs	r1, #46
 1047 0232 5854     		strb	r0, [r3, r1]
 304:AccDriver.c   ****                 Interpolate();
 1048              		.loc 1 304 0 discriminator 3
 1049 0234 211D     		adds	r1, r4, #4
 1050 0236 5118     		adds	r1, r2, r1
 1051 0238 087D     		ldrb	r0, [r1, #20]
 1052 023a 3121     		movs	r1, #49
ARM GAS  C:\Users\fiona\AppData\Local\Temp\ccJKYDXi.s 			page 35


 1053 023c 5854     		strb	r0, [r3, r1]
 1054 023e 611D     		adds	r1, r4, #5
 1055 0240 5218     		adds	r2, r2, r1
 1056 0242 117D     		ldrb	r1, [r2, #20]
 1057 0244 3022     		movs	r2, #48
 1058 0246 9954     		strb	r1, [r3, r2]
 305:AccDriver.c   ****             }
 1059              		.loc 1 305 0 discriminator 3
 1060 0248 FFF7FEFF 		bl	Interpolate
 1061              	.LVL69:
 300:AccDriver.c   ****             {
 1062              		.loc 1 300 0 discriminator 3
 1063 024c 0634     		adds	r4, r4, #6
 1064              	.LVL70:
 1065 024e A4B2     		uxth	r4, r4
 1066              	.LVL71:
 1067 0250 00E0     		b	.L37
 1068              	.LVL72:
 1069              	.L53:
 1070              	.LBE77:
 189:AccDriver.c   ****     {
 1071              		.loc 1 189 0
 1072 0252 0024     		movs	r4, #0
 1073              	.L37:
 1074              	.LVL73:
 1075              	.LBB78:
 300:AccDriver.c   ****             {
 1076              		.loc 1 300 0 discriminator 1
 1077 0254 6223     		movs	r3, #98
 1078 0256 054A     		ldr	r2, .L54
 1079 0258 D35A     		ldrh	r3, [r2, r3]
 1080 025a 9C42     		cmp	r4, r3
 1081 025c D5D3     		bcc	.L51
 1082              	.LBE78:
 307:AccDriver.c   ****             return true;
 1083              		.loc 1 307 0
 1084 025e 0021     		movs	r1, #0
 1085 0260 5C23     		movs	r3, #92
 1086 0262 D152     		strh	r1, [r2, r3]
 308:AccDriver.c   ****         }
 1087              		.loc 1 308 0
 1088 0264 0120     		movs	r0, #1
 1089 0266 00E0     		b	.L28
 1090              	.LVL74:
 1091              	.L52:
 1092              		.loc 1 311 0
 1093 0268 0020     		movs	r0, #0
 1094              	.L28:
 312:AccDriver.c   **** }
 1095              		.loc 1 312 0
 1096              		@ sp needed
 1097 026a 10BD     		pop	{r4, pc}
 1098              	.L55:
 1099              		.align	2
 1100              	.L54:
 1101 026c 00010000 		.word	.LANCHOR1
 1102 0270 00000000 		.word	.L30
ARM GAS  C:\Users\fiona\AppData\Local\Temp\ccJKYDXi.s 			page 36


 1103 0274 00000000 		.word	.LANCHOR2
 1104 0278 20000000 		.word	.L40
 1105 027c 00000000 		.word	.LANCHOR0
 1106 0280 00000000 		.word	SensorBus_context
 1107 0284 00006240 		.word	1080164352
 1108              		.cfi_endproc
 1109              	.LFE845:
 1110              		.size	AccDriver_OperationDone, .-AccDriver_OperationDone
 1111              		.section	.text.AccDriver_UpdateSetting,"ax",%progbits
 1112              		.align	2
 1113              		.global	AccDriver_UpdateSetting
 1114              		.code	16
 1115              		.thumb_func
 1116              		.type	AccDriver_UpdateSetting, %function
 1117              	AccDriver_UpdateSetting:
 1118              	.LFB846:
 313:AccDriver.c   **** int32 AccDriver_UpdateSetting(uint8 setting_type, int32 setting_value)
 314:AccDriver.c   **** {
 1119              		.loc 1 314 0
 1120              		.cfi_startproc
 1121              		@ args = 0, pretend = 0, frame = 0
 1122              		@ frame_needed = 0, uses_anonymous_args = 0
 1123              	.LVL75:
 1124 0000 10B5     		push	{r4, lr}
 1125              		.cfi_def_cfa_offset 8
 1126              		.cfi_offset 4, -8
 1127              		.cfi_offset 14, -4
 1128 0002 0C00     		movs	r4, r1
 315:AccDriver.c   ****     static int32 old_setting_value = 0;
 316:AccDriver.c   ****     if(old_setting_value == setting_value) return sample_period;
 1129              		.loc 1 316 0
 1130 0004 504B     		ldr	r3, .L72
 1131 0006 5B6E     		ldr	r3, [r3, #100]
 1132 0008 8B42     		cmp	r3, r1
 1133 000a 02D1     		bne	.L57
 1134              		.loc 1 316 0 is_stmt 0 discriminator 1
 1135 000c 4E4B     		ldr	r3, .L72
 1136 000e 986D     		ldr	r0, [r3, #88]
 1137              	.LVL76:
 1138 0010 99E0     		b	.L58
 1139              	.LVL77:
 1140              	.L57:
 317:AccDriver.c   ****     
 318:AccDriver.c   ****     old_setting_value = setting_value;
 1141              		.loc 1 318 0 is_stmt 1
 1142 0012 4D4B     		ldr	r3, .L72
 1143 0014 5966     		str	r1, [r3, #100]
 319:AccDriver.c   ****     device_rate_changed = true;
 1144              		.loc 1 319 0
 1145 0016 0122     		movs	r2, #1
 1146 0018 4C4B     		ldr	r3, .L72+4
 1147 001a 5A70     		strb	r2, [r3, #1]
 320:AccDriver.c   ****     
 321:AccDriver.c   ****     if(setting_value < 0)
 1148              		.loc 1 321 0
 1149 001c 0029     		cmp	r1, #0
 1150 001e 09DA     		bge	.L59
ARM GAS  C:\Users\fiona\AppData\Local\Temp\ccJKYDXi.s 			page 37


 322:AccDriver.c   ****     {
 323:AccDriver.c   ****         interpolated_period = 1000/abs(setting_value);
 1151              		.loc 1 323 0
 1152 0020 CB17     		asrs	r3, r1, #31
 1153 0022 C918     		adds	r1, r1, r3
 1154              	.LVL78:
 1155 0024 5940     		eors	r1, r3
 1156 0026 FA20     		movs	r0, #250
 1157              	.LVL79:
 1158 0028 8000     		lsls	r0, r0, #2
 1159 002a FFF7FEFF 		bl	__aeabi_idiv
 1160              	.LVL80:
 1161 002e 464B     		ldr	r3, .L72
 1162 0030 5865     		str	r0, [r3, #84]
 1163 0032 01E0     		b	.L60
 1164              	.LVL81:
 1165              	.L59:
 324:AccDriver.c   ****     }
 325:AccDriver.c   ****     else
 326:AccDriver.c   ****     {   
 327:AccDriver.c   ****         interpolated_period = setting_value;
 1166              		.loc 1 327 0
 1167 0034 444B     		ldr	r3, .L72
 1168 0036 5965     		str	r1, [r3, #84]
 1169              	.LVL82:
 1170              	.L60:
 328:AccDriver.c   ****     }
 329:AccDriver.c   ****     
 330:AccDriver.c   ****     if(setting_value == 0)
 1171              		.loc 1 330 0
 1172 0038 002C     		cmp	r4, #0
 1173 003a 07D1     		bne	.L61
 331:AccDriver.c   ****     {
 332:AccDriver.c   ****         device_rate_setting = ACC_1E_OFF;
 1174              		.loc 1 332 0
 1175 003c 0822     		movs	r2, #8
 1176 003e 434B     		ldr	r3, .L72+4
 1177 0040 9A70     		strb	r2, [r3, #2]
 333:AccDriver.c   ****         sample_period = 0;
 1178              		.loc 1 333 0
 1179 0042 414B     		ldr	r3, .L72
 1180 0044 0022     		movs	r2, #0
 1181 0046 9A65     		str	r2, [r3, #88]
 334:AccDriver.c   ****         interrupt_period = 0;
 1182              		.loc 1 334 0
 1183 0048 9A66     		str	r2, [r3, #104]
 1184 004a 6BE0     		b	.L62
 1185              	.L61:
 335:AccDriver.c   ****     }
 336:AccDriver.c   ****     else if(setting_value == -1 || setting_value > 0)
 1186              		.loc 1 336 0
 1187 004c 631C     		adds	r3, r4, #1
 1188 004e 01D0     		beq	.L63
 1189              		.loc 1 336 0 is_stmt 0 discriminator 1
 1190 0050 002C     		cmp	r4, #0
 1191 0052 0ADD     		ble	.L64
 1192              	.L63:
ARM GAS  C:\Users\fiona\AppData\Local\Temp\ccJKYDXi.s 			page 38


 337:AccDriver.c   ****     {
 338:AccDriver.c   ****         device_rate_setting = ACC_1E_RATE_1_HZ;
 1193              		.loc 1 338 0 is_stmt 1
 1194 0054 0722     		movs	r2, #7
 1195 0056 3D4B     		ldr	r3, .L72+4
 1196 0058 9A70     		strb	r2, [r3, #2]
 339:AccDriver.c   ****         sample_period = 1000;
 1197              		.loc 1 339 0
 1198 005a 3B4B     		ldr	r3, .L72
 1199 005c FA22     		movs	r2, #250
 1200 005e 9200     		lsls	r2, r2, #2
 1201 0060 9A65     		str	r2, [r3, #88]
 340:AccDriver.c   ****         interrupt_period = 16000;
 1202              		.loc 1 340 0
 1203 0062 FA22     		movs	r2, #250
 1204 0064 9201     		lsls	r2, r2, #6
 1205 0066 9A66     		str	r2, [r3, #104]
 1206 0068 5CE0     		b	.L62
 1207              	.L64:
 341:AccDriver.c   ****     }
 342:AccDriver.c   ****     else if(setting_value < -1 && setting_value >= -12)
 1208              		.loc 1 342 0
 1209 006a 2300     		movs	r3, r4
 1210 006c 0C33     		adds	r3, r3, #12
 1211 006e 0A2B     		cmp	r3, #10
 1212 0070 09D8     		bhi	.L65
 343:AccDriver.c   ****     {
 344:AccDriver.c   ****         device_rate_setting = ACC_1E_RATE_12_5_HZ;
 1213              		.loc 1 344 0
 1214 0072 0622     		movs	r2, #6
 1215 0074 354B     		ldr	r3, .L72+4
 1216 0076 9A70     		strb	r2, [r3, #2]
 345:AccDriver.c   ****         sample_period = 80;
 1217              		.loc 1 345 0
 1218 0078 334B     		ldr	r3, .L72
 1219 007a 4A32     		adds	r2, r2, #74
 1220 007c 9A65     		str	r2, [r3, #88]
 346:AccDriver.c   ****         interrupt_period = 1280;
 1221              		.loc 1 346 0
 1222 007e A022     		movs	r2, #160
 1223 0080 D200     		lsls	r2, r2, #3
 1224 0082 9A66     		str	r2, [r3, #104]
 1225 0084 4EE0     		b	.L62
 1226              	.L65:
 347:AccDriver.c   ****     }
 348:AccDriver.c   ****     else if(setting_value < -12 && setting_value >= -25)
 1227              		.loc 1 348 0
 1228 0086 2300     		movs	r3, r4
 1229 0088 1933     		adds	r3, r3, #25
 1230 008a 0C2B     		cmp	r3, #12
 1231 008c 09D8     		bhi	.L66
 349:AccDriver.c   ****     {
 350:AccDriver.c   ****         device_rate_setting = ACC_1E_RATE_25_HZ;
 1232              		.loc 1 350 0
 1233 008e 0522     		movs	r2, #5
 1234 0090 2E4B     		ldr	r3, .L72+4
 1235 0092 9A70     		strb	r2, [r3, #2]
ARM GAS  C:\Users\fiona\AppData\Local\Temp\ccJKYDXi.s 			page 39


 351:AccDriver.c   ****         sample_period = 40;
 1236              		.loc 1 351 0
 1237 0094 2C4B     		ldr	r3, .L72
 1238 0096 2332     		adds	r2, r2, #35
 1239 0098 9A65     		str	r2, [r3, #88]
 352:AccDriver.c   ****         interrupt_period = 640;
 1240              		.loc 1 352 0
 1241 009a A022     		movs	r2, #160
 1242 009c 9200     		lsls	r2, r2, #2
 1243 009e 9A66     		str	r2, [r3, #104]
 1244 00a0 40E0     		b	.L62
 1245              	.L66:
 353:AccDriver.c   ****     }
 354:AccDriver.c   ****     else if(setting_value < -25 && setting_value >= -50)
 1246              		.loc 1 354 0
 1247 00a2 2300     		movs	r3, r4
 1248 00a4 3233     		adds	r3, r3, #50
 1249 00a6 182B     		cmp	r3, #24
 1250 00a8 09D8     		bhi	.L67
 355:AccDriver.c   ****     {
 356:AccDriver.c   ****         device_rate_setting = ACC_1E_RATE_50_HZ;
 1251              		.loc 1 356 0
 1252 00aa 0422     		movs	r2, #4
 1253 00ac 274B     		ldr	r3, .L72+4
 1254 00ae 9A70     		strb	r2, [r3, #2]
 357:AccDriver.c   ****         sample_period = 20;
 1255              		.loc 1 357 0
 1256 00b0 254B     		ldr	r3, .L72
 1257 00b2 1032     		adds	r2, r2, #16
 1258 00b4 9A65     		str	r2, [r3, #88]
 358:AccDriver.c   ****         interrupt_period = 320;
 1259              		.loc 1 358 0
 1260 00b6 2D32     		adds	r2, r2, #45
 1261 00b8 FF32     		adds	r2, r2, #255
 1262 00ba 9A66     		str	r2, [r3, #104]
 1263 00bc 32E0     		b	.L62
 1264              	.L67:
 359:AccDriver.c   ****     }
 360:AccDriver.c   ****     else if(setting_value < -50 && setting_value >= -100)
 1265              		.loc 1 360 0
 1266 00be 2300     		movs	r3, r4
 1267 00c0 6433     		adds	r3, r3, #100
 1268 00c2 312B     		cmp	r3, #49
 1269 00c4 08D8     		bhi	.L68
 361:AccDriver.c   ****     {
 362:AccDriver.c   ****         device_rate_setting = ACC_1E_RATE_100_HZ;
 1270              		.loc 1 362 0
 1271 00c6 0322     		movs	r2, #3
 1272 00c8 204B     		ldr	r3, .L72+4
 1273 00ca 9A70     		strb	r2, [r3, #2]
 363:AccDriver.c   ****         sample_period = 10;
 1274              		.loc 1 363 0
 1275 00cc 1E4B     		ldr	r3, .L72
 1276 00ce 0732     		adds	r2, r2, #7
 1277 00d0 9A65     		str	r2, [r3, #88]
 364:AccDriver.c   ****         interrupt_period = 160;
 1278              		.loc 1 364 0
ARM GAS  C:\Users\fiona\AppData\Local\Temp\ccJKYDXi.s 			page 40


 1279 00d2 9632     		adds	r2, r2, #150
 1280 00d4 9A66     		str	r2, [r3, #104]
 1281 00d6 25E0     		b	.L62
 1282              	.L68:
 365:AccDriver.c   ****     }
 366:AccDriver.c   ****     else if(setting_value < -100 && setting_value >= -200)
 1283              		.loc 1 366 0
 1284 00d8 2300     		movs	r3, r4
 1285 00da C833     		adds	r3, r3, #200
 1286 00dc 632B     		cmp	r3, #99
 1287 00de 08D8     		bhi	.L69
 367:AccDriver.c   ****     {
 368:AccDriver.c   ****         device_rate_setting = ACC_1E_RATE_200_HZ;
 1288              		.loc 1 368 0
 1289 00e0 0222     		movs	r2, #2
 1290 00e2 1A4B     		ldr	r3, .L72+4
 1291 00e4 9A70     		strb	r2, [r3, #2]
 369:AccDriver.c   ****         sample_period = 5;
 1292              		.loc 1 369 0
 1293 00e6 184B     		ldr	r3, .L72
 1294 00e8 0332     		adds	r2, r2, #3
 1295 00ea 9A65     		str	r2, [r3, #88]
 370:AccDriver.c   ****         interrupt_period = 80;
 1296              		.loc 1 370 0
 1297 00ec 4B32     		adds	r2, r2, #75
 1298 00ee 9A66     		str	r2, [r3, #104]
 1299 00f0 18E0     		b	.L62
 1300              	.L69:
 371:AccDriver.c   ****     }
 372:AccDriver.c   ****     else if(setting_value < -200 && setting_value >= -400)
 1301              		.loc 1 372 0
 1302 00f2 2300     		movs	r3, r4
 1303 00f4 9133     		adds	r3, r3, #145
 1304 00f6 FF33     		adds	r3, r3, #255
 1305 00f8 C72B     		cmp	r3, #199
 1306 00fa 08D8     		bhi	.L70
 373:AccDriver.c   ****     {
 374:AccDriver.c   ****         device_rate_setting = ACC_1E_RATE_400_HZ;
 1307              		.loc 1 374 0
 1308 00fc 0122     		movs	r2, #1
 1309 00fe 134B     		ldr	r3, .L72+4
 1310 0100 9A70     		strb	r2, [r3, #2]
 375:AccDriver.c   ****         sample_period = 2;
 1311              		.loc 1 375 0
 1312 0102 114B     		ldr	r3, .L72
 1313 0104 0132     		adds	r2, r2, #1
 1314 0106 9A65     		str	r2, [r3, #88]
 376:AccDriver.c   ****         interrupt_period = 32;
 1315              		.loc 1 376 0
 1316 0108 1E32     		adds	r2, r2, #30
 1317 010a 9A66     		str	r2, [r3, #104]
 1318 010c 0AE0     		b	.L62
 1319              	.L70:
 377:AccDriver.c   ****     }
 378:AccDriver.c   ****     else if(setting_value < -400)
 1320              		.loc 1 378 0
 1321 010e 104B     		ldr	r3, .L72+8
ARM GAS  C:\Users\fiona\AppData\Local\Temp\ccJKYDXi.s 			page 41


 1322 0110 9C42     		cmp	r4, r3
 1323 0112 16DA     		bge	.L71
 379:AccDriver.c   ****     {
 380:AccDriver.c   ****         device_rate_setting = ACC_1E_RATE_800_HZ;
 1324              		.loc 1 380 0
 1325 0114 0022     		movs	r2, #0
 1326 0116 0D4B     		ldr	r3, .L72+4
 1327 0118 9A70     		strb	r2, [r3, #2]
 381:AccDriver.c   ****         sample_period = 1;
 1328              		.loc 1 381 0
 1329 011a 0B4B     		ldr	r3, .L72
 1330 011c 0132     		adds	r2, r2, #1
 1331 011e 9A65     		str	r2, [r3, #88]
 382:AccDriver.c   ****         interrupt_period = 16;
 1332              		.loc 1 382 0
 1333 0120 0F32     		adds	r2, r2, #15
 1334 0122 9A66     		str	r2, [r3, #104]
 1335              	.L62:
 383:AccDriver.c   ****     }
 384:AccDriver.c   ****     else
 385:AccDriver.c   ****     {
 386:AccDriver.c   ****         return -1;
 387:AccDriver.c   ****     }
 388:AccDriver.c   ****       
 389:AccDriver.c   ****     denominators[ACC1ESLOT] = 163840;
 1336              		.loc 1 389 0
 1337 0124 A022     		movs	r2, #160
 1338 0126 9202     		lsls	r2, r2, #10
 1339 0128 0A4B     		ldr	r3, .L72+12
 1340 012a 9A60     		str	r2, [r3, #8]
 390:AccDriver.c   ****     numerators[ACC1ESLOT] = 98;
 1341              		.loc 1 390 0
 1342 012c 6222     		movs	r2, #98
 1343 012e 0A4B     		ldr	r3, .L72+16
 1344 0130 9A60     		str	r2, [r3, #8]
 391:AccDriver.c   ****     interpolated.timestamp.second = interpolated_period;
 1345              		.loc 1 391 0
 1346 0132 054B     		ldr	r3, .L72
 1347 0134 223A     		subs	r2, r2, #34
 1348 0136 596D     		ldr	r1, [r3, #84]
 1349 0138 9952     		strh	r1, [r3, r2]
 392:AccDriver.c   ****     sample_old.timestamp.second = 0;    
 393:AccDriver.c   ****     sample_new.timestamp.second = sample_period;
 1350              		.loc 1 393 0
 1351 013a 9A6D     		ldr	r2, [r3, #88]
 1352 013c 1A84     		strh	r2, [r3, #32]
 394:AccDriver.c   ****     
 395:AccDriver.c   ****     return interrupt_period;
 1353              		.loc 1 395 0
 1354 013e 986E     		ldr	r0, [r3, #104]
 1355 0140 01E0     		b	.L58
 1356              	.L71:
 386:AccDriver.c   ****     }
 1357              		.loc 1 386 0
 1358 0142 0120     		movs	r0, #1
 1359 0144 4042     		rsbs	r0, r0, #0
 1360              	.L58:
ARM GAS  C:\Users\fiona\AppData\Local\Temp\ccJKYDXi.s 			page 42


 396:AccDriver.c   **** }
 1361              		.loc 1 396 0
 1362              		@ sp needed
 1363              	.LVL83:
 1364 0146 10BD     		pop	{r4, pc}
 1365              	.L73:
 1366              		.align	2
 1367              	.L72:
 1368 0148 00010000 		.word	.LANCHOR1
 1369 014c 00000000 		.word	.LANCHOR2
 1370 0150 70FEFFFF 		.word	-400
 1371 0154 00000000 		.word	denominators
 1372 0158 00000000 		.word	numerators
 1373              		.cfi_endproc
 1374              	.LFE846:
 1375              		.size	AccDriver_UpdateSetting, .-AccDriver_UpdateSetting
 1376              		.comm	denominators,40,4
 1377              		.comm	numerators,40,4
 1378              		.data
 1379              		.align	2
 1380              		.set	.LANCHOR2,. + 0
 1381              		.type	is_first_sample, %object
 1382              		.size	is_first_sample, 1
 1383              	is_first_sample:
 1384 0000 01       		.byte	1
 1385              		.type	device_rate_changed, %object
 1386              		.size	device_rate_changed, 1
 1387              	device_rate_changed:
 1388 0001 01       		.byte	1
 1389              		.type	device_rate_setting, %object
 1390              		.size	device_rate_setting, 1
 1391              	device_rate_setting:
 1392 0002 06       		.byte	6
 1393 0003 00       		.space	1
 1394              		.type	val1.19838, %object
 1395              		.size	val1.19838, 1
 1396              	val1.19838:
 1397 0004 2F       		.byte	47
 1398 0005 000000   		.space	3
 1399              		.type	val2.19839, %object
 1400              		.size	val2.19839, 1
 1401              	val2.19839:
 1402 0008 30       		.byte	48
 1403 0009 000000   		.space	3
 1404              		.type	val3.19840, %object
 1405              		.size	val3.19840, 1
 1406              	val3.19840:
 1407 000c 28       		.byte	40
 1408              		.bss
 1409              		.align	2
 1410              		.set	.LANCHOR0,. + 0
 1411              		.set	.LANCHOR1,. + 256
 1412              		.type	wbuff, %object
 1413              		.size	wbuff, 2
 1414              	wbuff:
 1415 0000 0000     		.space	2
 1416 0002 0000     		.space	2
ARM GAS  C:\Users\fiona\AppData\Local\Temp\ccJKYDXi.s 			page 43


 1417              		.type	register_setting, %object
 1418              		.size	register_setting, 16
 1419              	register_setting:
 1420 0004 00000000 		.space	16
 1420      00000000 
 1420      00000000 
 1420      00000000 
 1421              		.type	rbuff, %object
 1422              		.size	rbuff, 256
 1423              	rbuff:
 1424 0014 00000000 		.space	256
 1424      00000000 
 1424      00000000 
 1424      00000000 
 1424      00000000 
 1425              		.type	sample_new, %object
 1426              		.size	sample_new, 24
 1427              	sample_new:
 1428 0114 00000000 		.space	24
 1428      00000000 
 1428      00000000 
 1428      00000000 
 1428      00000000 
 1429              		.type	x_msb, %object
 1430              		.size	x_msb, 1
 1431              	x_msb:
 1432 012c 00       		.space	1
 1433              		.type	x_lsb, %object
 1434              		.size	x_lsb, 1
 1435              	x_lsb:
 1436 012d 00       		.space	1
 1437              		.type	y_msb, %object
 1438              		.size	y_msb, 1
 1439              	y_msb:
 1440 012e 00       		.space	1
 1441              		.type	y_lsb, %object
 1442              		.size	y_lsb, 1
 1443              	y_lsb:
 1444 012f 00       		.space	1
 1445              		.type	z_msb, %object
 1446              		.size	z_msb, 1
 1447              	z_msb:
 1448 0130 00       		.space	1
 1449              		.type	z_lsb, %object
 1450              		.size	z_lsb, 1
 1451              	z_lsb:
 1452 0131 00       		.space	1
 1453 0132 0000     		.space	2
 1454              		.type	interpolated, %object
 1455              		.size	interpolated, 24
 1456              	interpolated:
 1457 0134 00000000 		.space	24
 1457      00000000 
 1457      00000000 
 1457      00000000 
 1457      00000000 
 1458              		.type	wsample, %object
ARM GAS  C:\Users\fiona\AppData\Local\Temp\ccJKYDXi.s 			page 44


 1459              		.size	wsample, 4
 1460              	wsample:
 1461 014c 00000000 		.space	4
 1462              		.type	wsample_ptr, %object
 1463              		.size	wsample_ptr, 4
 1464              	wsample_ptr:
 1465 0150 00000000 		.space	4
 1466              		.type	interpolated_period, %object
 1467              		.size	interpolated_period, 4
 1468              	interpolated_period:
 1469 0154 00000000 		.space	4
 1470              		.type	sample_period, %object
 1471              		.size	sample_period, 4
 1472              	sample_period:
 1473 0158 00000000 		.space	4
 1474              		.type	state.19836, %object
 1475              		.size	state.19836, 2
 1476              	state.19836:
 1477 015c 0000     		.space	2
 1478 015e 0000     		.space	2
 1479              		.type	pkt.19835, %object
 1480              		.size	pkt.19835, 2
 1481              	pkt.19835:
 1482 0160 0000     		.space	2
 1483              		.type	datums.19837, %object
 1484              		.size	datums.19837, 2
 1485              	datums.19837:
 1486 0162 0000     		.space	2
 1487              		.type	old_setting_value.19876, %object
 1488              		.size	old_setting_value.19876, 4
 1489              	old_setting_value.19876:
 1490 0164 00000000 		.space	4
 1491              		.type	interrupt_period, %object
 1492              		.size	interrupt_period, 4
 1493              	interrupt_period:
 1494 0168 00000000 		.space	4
 1495              		.text
 1496              	.Letext0:
 1497              		.file 3 "c:\\program files (x86)\\cypress\\psoc creator\\4.2\\psoc creator\\import\\gnu\\arm\\5.4.
 1498              		.file 4 "c:\\program files (x86)\\cypress\\psoc creator\\4.2\\psoc creator\\import\\gnu\\arm\\5.4.
 1499              		.file 5 "Generated_Source\\PSoC6\\pdl\\devices/psoc6/ip/cyip_scb.h"
 1500              		.file 6 "Generated_Source\\PSoC6\\pdl\\drivers/peripheral/syslib/cy_syslib.h"
 1501              		.file 7 "Generated_Source\\PSoC6\\pdl\\drivers/peripheral/tcpwm/cy_tcpwm_counter.h"
 1502              		.file 8 "Generated_Source\\PSoC6\\pdl\\drivers/peripheral/tcpwm/cy_tcpwm_pwm.h"
 1503              		.file 9 "Generated_Source\\PSoC6\\pdl\\drivers/peripheral/scb/cy_scb_i2c.h"
 1504              		.file 10 "Generated_Source\\PSoC6\\pdl\\drivers/peripheral/scb/cy_scb_uart.h"
 1505              		.file 11 "Generated_Source\\PSoC6\\pdl\\drivers/peripheral/sar/cy_sar.h"
 1506              		.file 12 "Generated_Source\\PSoC6\\pdl\\middleware/ble/cy_ble_stack.h"
 1507              		.file 13 "Generated_Source\\PSoC6\\pdl\\middleware/ble/cy_ble_stack_host_main.h"
 1508              		.file 14 "Generated_Source\\PSoC6\\pdl\\middleware/ble/cy_ble_gap.h"
 1509              		.file 15 "Generated_Source\\PSoC6/ADC.h"
 1510              		.file 16 "./KinOS.h"
 1511              		.file 17 "./AccDriver.h"
 1512              		.file 18 "./DataBuffer.h"
 1513              		.file 19 "Generated_Source\\PSoC6\\pdl\\drivers/peripheral/rtc/cy_rtc.h"
 1514              		.file 20 "Generated_Source\\PSoC6/UART_DEBUG.h"
 1515              		.file 21 "Generated_Source\\PSoC6/LightOutputC.h"
ARM GAS  C:\Users\fiona\AppData\Local\Temp\ccJKYDXi.s 			page 45


 1516              		.file 22 "Generated_Source\\PSoC6/LightOutputA.h"
 1517              		.file 23 "Generated_Source\\PSoC6/LightTimer.h"
 1518              		.file 24 "Generated_Source\\PSoC6/LightOutputB.h"
 1519              		.file 25 "Generated_Source\\PSoC6/MotorOutput.h"
 1520              		.file 26 "Generated_Source\\PSoC6/MotorTimer.h"
 1521              		.file 27 "Generated_Source\\PSoC6/ChimeOutput.h"
 1522              		.file 28 "Generated_Source\\PSoC6/ChimeTimer.h"
 1523              		.file 29 "c:\\program files (x86)\\cypress\\psoc creator\\4.2\\psoc creator\\import\\gnu\\arm\\5.4
 1524              		.section	.debug_info,"",%progbits
 1525              	.Ldebug_info0:
 1526 0000 6D200000 		.4byte	0x206d
 1527 0004 0400     		.2byte	0x4
 1528 0006 00000000 		.4byte	.Ldebug_abbrev0
 1529 000a 04       		.byte	0x4
 1530 000b 01       		.uleb128 0x1
 1531 000c 880A0000 		.4byte	.LASF516
 1532 0010 0C       		.byte	0xc
 1533 0011 3A240000 		.4byte	.LASF517
 1534 0015 48190000 		.4byte	.LASF518
 1535 0019 A8000000 		.4byte	.Ldebug_ranges0+0xa8
 1536 001d 00000000 		.4byte	0
 1537 0021 00000000 		.4byte	.Ldebug_line0
 1538 0025 02       		.uleb128 0x2
 1539 0026 02       		.byte	0x2
 1540 0027 05       		.byte	0x5
 1541 0028 0A200000 		.4byte	.LASF0
 1542 002c 02       		.uleb128 0x2
 1543 002d 01       		.byte	0x1
 1544 002e 08       		.byte	0x8
 1545 002f 2D090000 		.4byte	.LASF1
 1546 0033 02       		.uleb128 0x2
 1547 0034 01       		.byte	0x1
 1548 0035 06       		.byte	0x6
 1549 0036 32080000 		.4byte	.LASF2
 1550 003a 03       		.uleb128 0x3
 1551 003b A8040000 		.4byte	.LASF3
 1552 003f 03       		.byte	0x3
 1553 0040 1D       		.byte	0x1d
 1554 0041 2C000000 		.4byte	0x2c
 1555 0045 03       		.uleb128 0x3
 1556 0046 7C030000 		.4byte	.LASF4
 1557 004a 03       		.byte	0x3
 1558 004b 29       		.byte	0x29
 1559 004c 25000000 		.4byte	0x25
 1560 0050 03       		.uleb128 0x3
 1561 0051 001D0000 		.4byte	.LASF5
 1562 0055 03       		.byte	0x3
 1563 0056 2B       		.byte	0x2b
 1564 0057 5B000000 		.4byte	0x5b
 1565 005b 02       		.uleb128 0x2
 1566 005c 02       		.byte	0x2
 1567 005d 07       		.byte	0x7
 1568 005e F7230000 		.4byte	.LASF6
 1569 0062 03       		.uleb128 0x3
 1570 0063 8E250000 		.4byte	.LASF7
 1571 0067 03       		.byte	0x3
 1572 0068 3F       		.byte	0x3f
ARM GAS  C:\Users\fiona\AppData\Local\Temp\ccJKYDXi.s 			page 46


 1573 0069 6D000000 		.4byte	0x6d
 1574 006d 02       		.uleb128 0x2
 1575 006e 04       		.byte	0x4
 1576 006f 05       		.byte	0x5
 1577 0070 4D050000 		.4byte	.LASF8
 1578 0074 03       		.uleb128 0x3
 1579 0075 64130000 		.4byte	.LASF9
 1580 0079 03       		.byte	0x3
 1581 007a 41       		.byte	0x41
 1582 007b 7F000000 		.4byte	0x7f
 1583 007f 02       		.uleb128 0x2
 1584 0080 04       		.byte	0x4
 1585 0081 07       		.byte	0x7
 1586 0082 26100000 		.4byte	.LASF10
 1587 0086 02       		.uleb128 0x2
 1588 0087 08       		.byte	0x8
 1589 0088 05       		.byte	0x5
 1590 0089 7F130000 		.4byte	.LASF11
 1591 008d 03       		.uleb128 0x3
 1592 008e F30F0000 		.4byte	.LASF12
 1593 0092 03       		.byte	0x3
 1594 0093 5B       		.byte	0x5b
 1595 0094 98000000 		.4byte	0x98
 1596 0098 02       		.uleb128 0x2
 1597 0099 08       		.byte	0x8
 1598 009a 07       		.byte	0x7
 1599 009b AE1A0000 		.4byte	.LASF13
 1600 009f 04       		.uleb128 0x4
 1601 00a0 04       		.byte	0x4
 1602 00a1 05       		.byte	0x5
 1603 00a2 696E7400 		.ascii	"int\000"
 1604 00a6 02       		.uleb128 0x2
 1605 00a7 04       		.byte	0x4
 1606 00a8 07       		.byte	0x7
 1607 00a9 39150000 		.4byte	.LASF14
 1608 00ad 03       		.uleb128 0x3
 1609 00ae 6B080000 		.4byte	.LASF15
 1610 00b2 04       		.byte	0x4
 1611 00b3 18       		.byte	0x18
 1612 00b4 3A000000 		.4byte	0x3a
 1613 00b8 03       		.uleb128 0x3
 1614 00b9 62200000 		.4byte	.LASF16
 1615 00bd 04       		.byte	0x4
 1616 00be 20       		.byte	0x20
 1617 00bf 45000000 		.4byte	0x45
 1618 00c3 03       		.uleb128 0x3
 1619 00c4 111B0000 		.4byte	.LASF17
 1620 00c8 04       		.byte	0x4
 1621 00c9 24       		.byte	0x24
 1622 00ca 50000000 		.4byte	0x50
 1623 00ce 03       		.uleb128 0x3
 1624 00cf BE010000 		.4byte	.LASF18
 1625 00d3 04       		.byte	0x4
 1626 00d4 2C       		.byte	0x2c
 1627 00d5 62000000 		.4byte	0x62
 1628 00d9 03       		.uleb128 0x3
 1629 00da F8220000 		.4byte	.LASF19
ARM GAS  C:\Users\fiona\AppData\Local\Temp\ccJKYDXi.s 			page 47


 1630 00de 04       		.byte	0x4
 1631 00df 30       		.byte	0x30
 1632 00e0 74000000 		.4byte	0x74
 1633 00e4 03       		.uleb128 0x3
 1634 00e5 96080000 		.4byte	.LASF20
 1635 00e9 04       		.byte	0x4
 1636 00ea 3C       		.byte	0x3c
 1637 00eb 8D000000 		.4byte	0x8d
 1638 00ef 02       		.uleb128 0x2
 1639 00f0 04       		.byte	0x4
 1640 00f1 07       		.byte	0x7
 1641 00f2 89000000 		.4byte	.LASF21
 1642 00f6 05       		.uleb128 0x5
 1643 00f7 D9000000 		.4byte	0xd9
 1644 00fb 06       		.uleb128 0x6
 1645 00fc F6000000 		.4byte	0xf6
 1646 0100 07       		.uleb128 0x7
 1647 0101 FB000000 		.4byte	0xfb
 1648 0105 10010000 		.4byte	0x110
 1649 0109 08       		.uleb128 0x8
 1650 010a EF000000 		.4byte	0xef
 1651 010e 05       		.byte	0x5
 1652 010f 00       		.byte	0
 1653 0110 07       		.uleb128 0x7
 1654 0111 FB000000 		.4byte	0xfb
 1655 0115 20010000 		.4byte	0x120
 1656 0119 08       		.uleb128 0x8
 1657 011a EF000000 		.4byte	0xef
 1658 011e 7F       		.byte	0x7f
 1659 011f 00       		.byte	0
 1660 0120 07       		.uleb128 0x7
 1661 0121 FB000000 		.4byte	0xfb
 1662 0125 30010000 		.4byte	0x130
 1663 0129 08       		.uleb128 0x8
 1664 012a EF000000 		.4byte	0xef
 1665 012e 02       		.byte	0x2
 1666 012f 00       		.byte	0
 1667 0130 07       		.uleb128 0x7
 1668 0131 FB000000 		.4byte	0xfb
 1669 0135 40010000 		.4byte	0x140
 1670 0139 08       		.uleb128 0x8
 1671 013a EF000000 		.4byte	0xef
 1672 013e 03       		.byte	0x3
 1673 013f 00       		.byte	0
 1674 0140 07       		.uleb128 0x7
 1675 0141 FB000000 		.4byte	0xfb
 1676 0145 50010000 		.4byte	0x150
 1677 0149 08       		.uleb128 0x8
 1678 014a EF000000 		.4byte	0xef
 1679 014e 3E       		.byte	0x3e
 1680 014f 00       		.byte	0
 1681 0150 07       		.uleb128 0x7
 1682 0151 FB000000 		.4byte	0xfb
 1683 0155 60010000 		.4byte	0x160
 1684 0159 08       		.uleb128 0x8
 1685 015a EF000000 		.4byte	0xef
 1686 015e 1E       		.byte	0x1e
ARM GAS  C:\Users\fiona\AppData\Local\Temp\ccJKYDXi.s 			page 48


 1687 015f 00       		.byte	0
 1688 0160 07       		.uleb128 0x7
 1689 0161 FB000000 		.4byte	0xfb
 1690 0165 70010000 		.4byte	0x170
 1691 0169 08       		.uleb128 0x8
 1692 016a EF000000 		.4byte	0xef
 1693 016e 0B       		.byte	0xb
 1694 016f 00       		.byte	0
 1695 0170 07       		.uleb128 0x7
 1696 0171 FB000000 		.4byte	0xfb
 1697 0175 80010000 		.4byte	0x180
 1698 0179 08       		.uleb128 0x8
 1699 017a EF000000 		.4byte	0xef
 1700 017e 0C       		.byte	0xc
 1701 017f 00       		.byte	0
 1702 0180 07       		.uleb128 0x7
 1703 0181 FB000000 		.4byte	0xfb
 1704 0185 90010000 		.4byte	0x190
 1705 0189 08       		.uleb128 0x8
 1706 018a EF000000 		.4byte	0xef
 1707 018e 0A       		.byte	0xa
 1708 018f 00       		.byte	0
 1709 0190 07       		.uleb128 0x7
 1710 0191 FB000000 		.4byte	0xfb
 1711 0195 A0010000 		.4byte	0x1a0
 1712 0199 08       		.uleb128 0x8
 1713 019a EF000000 		.4byte	0xef
 1714 019e 2E       		.byte	0x2e
 1715 019f 00       		.byte	0
 1716 01a0 07       		.uleb128 0x7
 1717 01a1 FB000000 		.4byte	0xfb
 1718 01a5 B0010000 		.4byte	0x1b0
 1719 01a9 08       		.uleb128 0x8
 1720 01aa EF000000 		.4byte	0xef
 1721 01ae 2D       		.byte	0x2d
 1722 01af 00       		.byte	0
 1723 01b0 09       		.uleb128 0x9
 1724 01b1 D00F     		.2byte	0xfd0
 1725 01b3 05       		.byte	0x5
 1726 01b4 21       		.byte	0x21
 1727 01b5 34050000 		.4byte	0x534
 1728 01b9 0A       		.uleb128 0xa
 1729 01ba 46150000 		.4byte	.LASF22
 1730 01be 05       		.byte	0x5
 1731 01bf 22       		.byte	0x22
 1732 01c0 F6000000 		.4byte	0xf6
 1733 01c4 00       		.byte	0
 1734 01c5 0A       		.uleb128 0xa
 1735 01c6 D61D0000 		.4byte	.LASF23
 1736 01ca 05       		.byte	0x5
 1737 01cb 23       		.byte	0x23
 1738 01cc FB000000 		.4byte	0xfb
 1739 01d0 04       		.byte	0x4
 1740 01d1 0A       		.uleb128 0xa
 1741 01d2 C81D0000 		.4byte	.LASF24
 1742 01d6 05       		.byte	0x5
 1743 01d7 24       		.byte	0x24
ARM GAS  C:\Users\fiona\AppData\Local\Temp\ccJKYDXi.s 			page 49


 1744 01d8 F6000000 		.4byte	0xf6
 1745 01dc 08       		.byte	0x8
 1746 01dd 0A       		.uleb128 0xa
 1747 01de 2E0F0000 		.4byte	.LASF25
 1748 01e2 05       		.byte	0x5
 1749 01e3 25       		.byte	0x25
 1750 01e4 FB000000 		.4byte	0xfb
 1751 01e8 0C       		.byte	0xc
 1752 01e9 0A       		.uleb128 0xa
 1753 01ea 8B0E0000 		.4byte	.LASF26
 1754 01ee 05       		.byte	0x5
 1755 01ef 26       		.byte	0x26
 1756 01f0 39050000 		.4byte	0x539
 1757 01f4 10       		.byte	0x10
 1758 01f5 0A       		.uleb128 0xa
 1759 01f6 04060000 		.4byte	.LASF27
 1760 01fa 05       		.byte	0x5
 1761 01fb 27       		.byte	0x27
 1762 01fc F6000000 		.4byte	0xf6
 1763 0200 20       		.byte	0x20
 1764 0201 0A       		.uleb128 0xa
 1765 0202 0A150000 		.4byte	.LASF28
 1766 0206 05       		.byte	0x5
 1767 0207 28       		.byte	0x28
 1768 0208 FB000000 		.4byte	0xfb
 1769 020c 24       		.byte	0x24
 1770 020d 0A       		.uleb128 0xa
 1771 020e 23090000 		.4byte	.LASF29
 1772 0212 05       		.byte	0x5
 1773 0213 29       		.byte	0x29
 1774 0214 43050000 		.4byte	0x543
 1775 0218 28       		.byte	0x28
 1776 0219 0A       		.uleb128 0xa
 1777 021a 78010000 		.4byte	.LASF30
 1778 021e 05       		.byte	0x5
 1779 021f 2A       		.byte	0x2a
 1780 0220 F6000000 		.4byte	0xf6
 1781 0224 40       		.byte	0x40
 1782 0225 0A       		.uleb128 0xa
 1783 0226 1F0C0000 		.4byte	.LASF31
 1784 022a 05       		.byte	0x5
 1785 022b 2B       		.byte	0x2b
 1786 022c F6000000 		.4byte	0xf6
 1787 0230 44       		.byte	0x44
 1788 0231 0A       		.uleb128 0xa
 1789 0232 2A070000 		.4byte	.LASF32
 1790 0236 05       		.byte	0x5
 1791 0237 2C       		.byte	0x2c
 1792 0238 F6000000 		.4byte	0xf6
 1793 023c 48       		.byte	0x48
 1794 023d 0A       		.uleb128 0xa
 1795 023e 9B0E0000 		.4byte	.LASF33
 1796 0242 05       		.byte	0x5
 1797 0243 2D       		.byte	0x2d
 1798 0244 FB000000 		.4byte	0xfb
 1799 0248 4C       		.byte	0x4c
 1800 0249 0A       		.uleb128 0xa
ARM GAS  C:\Users\fiona\AppData\Local\Temp\ccJKYDXi.s 			page 50


 1801 024a 18170000 		.4byte	.LASF34
 1802 024e 05       		.byte	0x5
 1803 024f 2E       		.byte	0x2e
 1804 0250 F6000000 		.4byte	0xf6
 1805 0254 50       		.byte	0x50
 1806 0255 0A       		.uleb128 0xa
 1807 0256 240B0000 		.4byte	.LASF35
 1808 025a 05       		.byte	0x5
 1809 025b 2F       		.byte	0x2f
 1810 025c 4D050000 		.4byte	0x54d
 1811 0260 54       		.byte	0x54
 1812 0261 0A       		.uleb128 0xa
 1813 0262 33270000 		.4byte	.LASF36
 1814 0266 05       		.byte	0x5
 1815 0267 30       		.byte	0x30
 1816 0268 F6000000 		.4byte	0xf6
 1817 026c 60       		.byte	0x60
 1818 026d 0A       		.uleb128 0xa
 1819 026e 70220000 		.4byte	.LASF37
 1820 0272 05       		.byte	0x5
 1821 0273 31       		.byte	0x31
 1822 0274 FB000000 		.4byte	0xfb
 1823 0278 64       		.byte	0x64
 1824 0279 0A       		.uleb128 0xa
 1825 027a EF070000 		.4byte	.LASF38
 1826 027e 05       		.byte	0x5
 1827 027f 32       		.byte	0x32
 1828 0280 F6000000 		.4byte	0xf6
 1829 0284 68       		.byte	0x68
 1830 0285 0A       		.uleb128 0xa
 1831 0286 7B0B0000 		.4byte	.LASF39
 1832 028a 05       		.byte	0x5
 1833 028b 33       		.byte	0x33
 1834 028c F6000000 		.4byte	0xf6
 1835 0290 6C       		.byte	0x6c
 1836 0291 0A       		.uleb128 0xa
 1837 0292 D4030000 		.4byte	.LASF40
 1838 0296 05       		.byte	0x5
 1839 0297 34       		.byte	0x34
 1840 0298 F6000000 		.4byte	0xf6
 1841 029c 70       		.byte	0x70
 1842 029d 0A       		.uleb128 0xa
 1843 029e 2E0B0000 		.4byte	.LASF41
 1844 02a2 05       		.byte	0x5
 1845 02a3 35       		.byte	0x35
 1846 02a4 67050000 		.4byte	0x567
 1847 02a8 74       		.byte	0x74
 1848 02a9 0B       		.uleb128 0xb
 1849 02aa 1A0B0000 		.4byte	.LASF42
 1850 02ae 05       		.byte	0x5
 1851 02af 36       		.byte	0x36
 1852 02b0 F6000000 		.4byte	0xf6
 1853 02b4 0001     		.2byte	0x100
 1854 02b6 0B       		.uleb128 0xb
 1855 02b7 48090000 		.4byte	.LASF43
 1856 02bb 05       		.byte	0x5
 1857 02bc 37       		.byte	0x37
ARM GAS  C:\Users\fiona\AppData\Local\Temp\ccJKYDXi.s 			page 51


 1858 02bd 71050000 		.4byte	0x571
 1859 02c1 0401     		.2byte	0x104
 1860 02c3 0B       		.uleb128 0xb
 1861 02c4 91160000 		.4byte	.LASF44
 1862 02c8 05       		.byte	0x5
 1863 02c9 38       		.byte	0x38
 1864 02ca F6000000 		.4byte	0xf6
 1865 02ce 0002     		.2byte	0x200
 1866 02d0 0B       		.uleb128 0xb
 1867 02d1 521B0000 		.4byte	.LASF45
 1868 02d5 05       		.byte	0x5
 1869 02d6 39       		.byte	0x39
 1870 02d7 F6000000 		.4byte	0xf6
 1871 02db 0402     		.2byte	0x204
 1872 02dd 0B       		.uleb128 0xb
 1873 02de 790A0000 		.4byte	.LASF46
 1874 02e2 05       		.byte	0x5
 1875 02e3 3A       		.byte	0x3a
 1876 02e4 FB000000 		.4byte	0xfb
 1877 02e8 0802     		.2byte	0x208
 1878 02ea 0B       		.uleb128 0xb
 1879 02eb 52090000 		.4byte	.LASF47
 1880 02ef 05       		.byte	0x5
 1881 02f0 3B       		.byte	0x3b
 1882 02f1 7B050000 		.4byte	0x57b
 1883 02f5 0C02     		.2byte	0x20c
 1884 02f7 0B       		.uleb128 0xb
 1885 02f8 2C0C0000 		.4byte	.LASF48
 1886 02fc 05       		.byte	0x5
 1887 02fd 3C       		.byte	0x3c
 1888 02fe F6000000 		.4byte	0xf6
 1889 0302 4002     		.2byte	0x240
 1890 0304 0B       		.uleb128 0xb
 1891 0305 5C090000 		.4byte	.LASF49
 1892 0309 05       		.byte	0x5
 1893 030a 3D       		.byte	0x3d
 1894 030b 85050000 		.4byte	0x585
 1895 030f 4402     		.2byte	0x244
 1896 0311 0B       		.uleb128 0xb
 1897 0312 77130000 		.4byte	.LASF50
 1898 0316 05       		.byte	0x5
 1899 0317 3E       		.byte	0x3e
 1900 0318 F6000000 		.4byte	0xf6
 1901 031c 0003     		.2byte	0x300
 1902 031e 0B       		.uleb128 0xb
 1903 031f 1C0D0000 		.4byte	.LASF51
 1904 0323 05       		.byte	0x5
 1905 0324 3F       		.byte	0x3f
 1906 0325 F6000000 		.4byte	0xf6
 1907 0329 0403     		.2byte	0x304
 1908 032b 0B       		.uleb128 0xb
 1909 032c 71040000 		.4byte	.LASF52
 1910 0330 05       		.byte	0x5
 1911 0331 40       		.byte	0x40
 1912 0332 FB000000 		.4byte	0xfb
 1913 0336 0803     		.2byte	0x308
 1914 0338 0B       		.uleb128 0xb
ARM GAS  C:\Users\fiona\AppData\Local\Temp\ccJKYDXi.s 			page 52


 1915 0339 66090000 		.4byte	.LASF53
 1916 033d 05       		.byte	0x5
 1917 033e 41       		.byte	0x41
 1918 033f FB000000 		.4byte	0xfb
 1919 0343 0C03     		.2byte	0x30c
 1920 0345 0B       		.uleb128 0xb
 1921 0346 F1000000 		.4byte	.LASF54
 1922 034a 05       		.byte	0x5
 1923 034b 42       		.byte	0x42
 1924 034c F6000000 		.4byte	0xf6
 1925 0350 1003     		.2byte	0x310
 1926 0352 0B       		.uleb128 0xb
 1927 0353 70090000 		.4byte	.LASF55
 1928 0357 05       		.byte	0x5
 1929 0358 43       		.byte	0x43
 1930 0359 8F050000 		.4byte	0x58f
 1931 035d 1403     		.2byte	0x314
 1932 035f 0B       		.uleb128 0xb
 1933 0360 6F1F0000 		.4byte	.LASF56
 1934 0364 05       		.byte	0x5
 1935 0365 44       		.byte	0x44
 1936 0366 FB000000 		.4byte	0xfb
 1937 036a 4003     		.2byte	0x340
 1938 036c 0B       		.uleb128 0xb
 1939 036d CF230000 		.4byte	.LASF57
 1940 0371 05       		.byte	0x5
 1941 0372 45       		.byte	0x45
 1942 0373 FB000000 		.4byte	0xfb
 1943 0377 4403     		.2byte	0x344
 1944 0379 0B       		.uleb128 0xb
 1945 037a 7A090000 		.4byte	.LASF58
 1946 037e 05       		.byte	0x5
 1947 037f 46       		.byte	0x46
 1948 0380 99050000 		.4byte	0x599
 1949 0384 4803     		.2byte	0x348
 1950 0386 0B       		.uleb128 0xb
 1951 0387 6F130000 		.4byte	.LASF59
 1952 038b 05       		.byte	0x5
 1953 038c 47       		.byte	0x47
 1954 038d AF050000 		.4byte	0x5af
 1955 0391 0004     		.2byte	0x400
 1956 0393 0B       		.uleb128 0xb
 1957 0394 AB1B0000 		.4byte	.LASF60
 1958 0398 05       		.byte	0x5
 1959 0399 48       		.byte	0x48
 1960 039a B9050000 		.4byte	0x5b9
 1961 039e 000C     		.2byte	0xc00
 1962 03a0 0B       		.uleb128 0xb
 1963 03a1 63010000 		.4byte	.LASF61
 1964 03a5 05       		.byte	0x5
 1965 03a6 49       		.byte	0x49
 1966 03a7 FB000000 		.4byte	0xfb
 1967 03ab 000E     		.2byte	0xe00
 1968 03ad 0B       		.uleb128 0xb
 1969 03ae B61B0000 		.4byte	.LASF62
 1970 03b2 05       		.byte	0x5
 1971 03b3 4A       		.byte	0x4a
ARM GAS  C:\Users\fiona\AppData\Local\Temp\ccJKYDXi.s 			page 53


 1972 03b4 C3050000 		.4byte	0x5c3
 1973 03b8 040E     		.2byte	0xe04
 1974 03ba 0B       		.uleb128 0xb
 1975 03bb 56200000 		.4byte	.LASF63
 1976 03bf 05       		.byte	0x5
 1977 03c0 4B       		.byte	0x4b
 1978 03c1 F6000000 		.4byte	0xf6
 1979 03c5 800E     		.2byte	0xe80
 1980 03c7 0B       		.uleb128 0xb
 1981 03c8 C11B0000 		.4byte	.LASF64
 1982 03cc 05       		.byte	0x5
 1983 03cd 4C       		.byte	0x4c
 1984 03ce FB000000 		.4byte	0xfb
 1985 03d2 840E     		.2byte	0xe84
 1986 03d4 0B       		.uleb128 0xb
 1987 03d5 99160000 		.4byte	.LASF65
 1988 03d9 05       		.byte	0x5
 1989 03da 4D       		.byte	0x4d
 1990 03db F6000000 		.4byte	0xf6
 1991 03df 880E     		.2byte	0xe88
 1992 03e1 0B       		.uleb128 0xb
 1993 03e2 041E0000 		.4byte	.LASF66
 1994 03e6 05       		.byte	0x5
 1995 03e7 4E       		.byte	0x4e
 1996 03e8 FB000000 		.4byte	0xfb
 1997 03ec 8C0E     		.2byte	0xe8c
 1998 03ee 0B       		.uleb128 0xb
 1999 03ef CC1B0000 		.4byte	.LASF67
 2000 03f3 05       		.byte	0x5
 2001 03f4 4F       		.byte	0x4f
 2002 03f5 CD050000 		.4byte	0x5cd
 2003 03f9 900E     		.2byte	0xe90
 2004 03fb 0B       		.uleb128 0xb
 2005 03fc 6A190000 		.4byte	.LASF68
 2006 0400 05       		.byte	0x5
 2007 0401 50       		.byte	0x50
 2008 0402 F6000000 		.4byte	0xf6
 2009 0406 C00E     		.2byte	0xec0
 2010 0408 0B       		.uleb128 0xb
 2011 0409 D71B0000 		.4byte	.LASF69
 2012 040d 05       		.byte	0x5
 2013 040e 51       		.byte	0x51
 2014 040f FB000000 		.4byte	0xfb
 2015 0413 C40E     		.2byte	0xec4
 2016 0415 0B       		.uleb128 0xb
 2017 0416 0A180000 		.4byte	.LASF70
 2018 041a 05       		.byte	0x5
 2019 041b 52       		.byte	0x52
 2020 041c F6000000 		.4byte	0xf6
 2021 0420 C80E     		.2byte	0xec8
 2022 0422 0B       		.uleb128 0xb
 2023 0423 BF1E0000 		.4byte	.LASF71
 2024 0427 05       		.byte	0x5
 2025 0428 53       		.byte	0x53
 2026 0429 FB000000 		.4byte	0xfb
 2027 042d CC0E     		.2byte	0xecc
 2028 042f 0B       		.uleb128 0xb
ARM GAS  C:\Users\fiona\AppData\Local\Temp\ccJKYDXi.s 			page 54


 2029 0430 E21B0000 		.4byte	.LASF72
 2030 0434 05       		.byte	0x5
 2031 0435 54       		.byte	0x54
 2032 0436 D7050000 		.4byte	0x5d7
 2033 043a D00E     		.2byte	0xed0
 2034 043c 0B       		.uleb128 0xb
 2035 043d 1C030000 		.4byte	.LASF73
 2036 0441 05       		.byte	0x5
 2037 0442 55       		.byte	0x55
 2038 0443 F6000000 		.4byte	0xf6
 2039 0447 000F     		.2byte	0xf00
 2040 0449 0B       		.uleb128 0xb
 2041 044a B41E0000 		.4byte	.LASF74
 2042 044e 05       		.byte	0x5
 2043 044f 56       		.byte	0x56
 2044 0450 F6000000 		.4byte	0xf6
 2045 0454 040F     		.2byte	0xf04
 2046 0456 0B       		.uleb128 0xb
 2047 0457 A0100000 		.4byte	.LASF75
 2048 045b 05       		.byte	0x5
 2049 045c 57       		.byte	0x57
 2050 045d F6000000 		.4byte	0xf6
 2051 0461 080F     		.2byte	0xf08
 2052 0463 0B       		.uleb128 0xb
 2053 0464 0E140000 		.4byte	.LASF76
 2054 0468 05       		.byte	0x5
 2055 0469 58       		.byte	0x58
 2056 046a FB000000 		.4byte	0xfb
 2057 046e 0C0F     		.2byte	0xf0c
 2058 0470 0B       		.uleb128 0xb
 2059 0471 49250000 		.4byte	.LASF77
 2060 0475 05       		.byte	0x5
 2061 0476 59       		.byte	0x59
 2062 0477 E1050000 		.4byte	0x5e1
 2063 047b 100F     		.2byte	0xf10
 2064 047d 0B       		.uleb128 0xb
 2065 047e AA0B0000 		.4byte	.LASF78
 2066 0482 05       		.byte	0x5
 2067 0483 5A       		.byte	0x5a
 2068 0484 F6000000 		.4byte	0xf6
 2069 0488 400F     		.2byte	0xf40
 2070 048a 0B       		.uleb128 0xb
 2071 048b 86200000 		.4byte	.LASF79
 2072 048f 05       		.byte	0x5
 2073 0490 5B       		.byte	0x5b
 2074 0491 F6000000 		.4byte	0xf6
 2075 0495 440F     		.2byte	0xf44
 2076 0497 0B       		.uleb128 0xb
 2077 0498 4C1E0000 		.4byte	.LASF80
 2078 049c 05       		.byte	0x5
 2079 049d 5C       		.byte	0x5c
 2080 049e F6000000 		.4byte	0xf6
 2081 04a2 480F     		.2byte	0xf48
 2082 04a4 0B       		.uleb128 0xb
 2083 04a5 A4180000 		.4byte	.LASF81
 2084 04a9 05       		.byte	0x5
 2085 04aa 5D       		.byte	0x5d
ARM GAS  C:\Users\fiona\AppData\Local\Temp\ccJKYDXi.s 			page 55


 2086 04ab FB000000 		.4byte	0xfb
 2087 04af 4C0F     		.2byte	0xf4c
 2088 04b1 0B       		.uleb128 0xb
 2089 04b2 0E1C0000 		.4byte	.LASF82
 2090 04b6 05       		.byte	0x5
 2091 04b7 5E       		.byte	0x5e
 2092 04b8 EB050000 		.4byte	0x5eb
 2093 04bc 500F     		.2byte	0xf50
 2094 04be 0B       		.uleb128 0xb
 2095 04bf 6E060000 		.4byte	.LASF83
 2096 04c3 05       		.byte	0x5
 2097 04c4 5F       		.byte	0x5f
 2098 04c5 F6000000 		.4byte	0xf6
 2099 04c9 800F     		.2byte	0xf80
 2100 04cb 0B       		.uleb128 0xb
 2101 04cc 231D0000 		.4byte	.LASF84
 2102 04d0 05       		.byte	0x5
 2103 04d1 60       		.byte	0x60
 2104 04d2 F6000000 		.4byte	0xf6
 2105 04d6 840F     		.2byte	0xf84
 2106 04d8 0B       		.uleb128 0xb
 2107 04d9 3B090000 		.4byte	.LASF85
 2108 04dd 05       		.byte	0x5
 2109 04de 61       		.byte	0x61
 2110 04df F6000000 		.4byte	0xf6
 2111 04e3 880F     		.2byte	0xf88
 2112 04e5 0B       		.uleb128 0xb
 2113 04e6 76060000 		.4byte	.LASF86
 2114 04ea 05       		.byte	0x5
 2115 04eb 62       		.byte	0x62
 2116 04ec FB000000 		.4byte	0xfb
 2117 04f0 8C0F     		.2byte	0xf8c
 2118 04f2 0B       		.uleb128 0xb
 2119 04f3 191C0000 		.4byte	.LASF87
 2120 04f7 05       		.byte	0x5
 2121 04f8 63       		.byte	0x63
 2122 04f9 F5050000 		.4byte	0x5f5
 2123 04fd 900F     		.2byte	0xf90
 2124 04ff 0B       		.uleb128 0xb
 2125 0500 CC030000 		.4byte	.LASF88
 2126 0504 05       		.byte	0x5
 2127 0505 64       		.byte	0x64
 2128 0506 F6000000 		.4byte	0xf6
 2129 050a C00F     		.2byte	0xfc0
 2130 050c 0B       		.uleb128 0xb
 2131 050d 50070000 		.4byte	.LASF89
 2132 0511 05       		.byte	0x5
 2133 0512 65       		.byte	0x65
 2134 0513 F6000000 		.4byte	0xf6
 2135 0517 C40F     		.2byte	0xfc4
 2136 0519 0B       		.uleb128 0xb
 2137 051a B2040000 		.4byte	.LASF90
 2138 051e 05       		.byte	0x5
 2139 051f 66       		.byte	0x66
 2140 0520 F6000000 		.4byte	0xf6
 2141 0524 C80F     		.2byte	0xfc8
 2142 0526 0B       		.uleb128 0xb
ARM GAS  C:\Users\fiona\AppData\Local\Temp\ccJKYDXi.s 			page 56


 2143 0527 9D1C0000 		.4byte	.LASF91
 2144 052b 05       		.byte	0x5
 2145 052c 67       		.byte	0x67
 2146 052d FB000000 		.4byte	0xfb
 2147 0531 CC0F     		.2byte	0xfcc
 2148 0533 00       		.byte	0
 2149 0534 05       		.uleb128 0x5
 2150 0535 30010000 		.4byte	0x130
 2151 0539 06       		.uleb128 0x6
 2152 053a 34050000 		.4byte	0x534
 2153 053e 05       		.uleb128 0x5
 2154 053f 00010000 		.4byte	0x100
 2155 0543 06       		.uleb128 0x6
 2156 0544 3E050000 		.4byte	0x53e
 2157 0548 05       		.uleb128 0x5
 2158 0549 20010000 		.4byte	0x120
 2159 054d 06       		.uleb128 0x6
 2160 054e 48050000 		.4byte	0x548
 2161 0552 07       		.uleb128 0x7
 2162 0553 FB000000 		.4byte	0xfb
 2163 0557 62050000 		.4byte	0x562
 2164 055b 08       		.uleb128 0x8
 2165 055c EF000000 		.4byte	0xef
 2166 0560 22       		.byte	0x22
 2167 0561 00       		.byte	0
 2168 0562 05       		.uleb128 0x5
 2169 0563 52050000 		.4byte	0x552
 2170 0567 06       		.uleb128 0x6
 2171 0568 62050000 		.4byte	0x562
 2172 056c 05       		.uleb128 0x5
 2173 056d 40010000 		.4byte	0x140
 2174 0571 06       		.uleb128 0x6
 2175 0572 6C050000 		.4byte	0x56c
 2176 0576 05       		.uleb128 0x5
 2177 0577 70010000 		.4byte	0x170
 2178 057b 06       		.uleb128 0x6
 2179 057c 76050000 		.4byte	0x576
 2180 0580 05       		.uleb128 0x5
 2181 0581 90010000 		.4byte	0x190
 2182 0585 06       		.uleb128 0x6
 2183 0586 80050000 		.4byte	0x580
 2184 058a 05       		.uleb128 0x5
 2185 058b 80010000 		.4byte	0x180
 2186 058f 06       		.uleb128 0x6
 2187 0590 8A050000 		.4byte	0x58a
 2188 0594 05       		.uleb128 0x5
 2189 0595 A0010000 		.4byte	0x1a0
 2190 0599 06       		.uleb128 0x6
 2191 059a 94050000 		.4byte	0x594
 2192 059e 07       		.uleb128 0x7
 2193 059f F6000000 		.4byte	0xf6
 2194 05a3 AF050000 		.4byte	0x5af
 2195 05a7 0C       		.uleb128 0xc
 2196 05a8 EF000000 		.4byte	0xef
 2197 05ac FF01     		.2byte	0x1ff
 2198 05ae 00       		.byte	0
 2199 05af 05       		.uleb128 0x5
ARM GAS  C:\Users\fiona\AppData\Local\Temp\ccJKYDXi.s 			page 57


 2200 05b0 9E050000 		.4byte	0x59e
 2201 05b4 05       		.uleb128 0x5
 2202 05b5 10010000 		.4byte	0x110
 2203 05b9 06       		.uleb128 0x6
 2204 05ba B4050000 		.4byte	0x5b4
 2205 05be 05       		.uleb128 0x5
 2206 05bf 50010000 		.4byte	0x150
 2207 05c3 06       		.uleb128 0x6
 2208 05c4 BE050000 		.4byte	0x5be
 2209 05c8 05       		.uleb128 0x5
 2210 05c9 60010000 		.4byte	0x160
 2211 05cd 06       		.uleb128 0x6
 2212 05ce C8050000 		.4byte	0x5c8
 2213 05d2 05       		.uleb128 0x5
 2214 05d3 60010000 		.4byte	0x160
 2215 05d7 06       		.uleb128 0x6
 2216 05d8 D2050000 		.4byte	0x5d2
 2217 05dc 05       		.uleb128 0x5
 2218 05dd 60010000 		.4byte	0x160
 2219 05e1 06       		.uleb128 0x6
 2220 05e2 DC050000 		.4byte	0x5dc
 2221 05e6 05       		.uleb128 0x5
 2222 05e7 60010000 		.4byte	0x160
 2223 05eb 06       		.uleb128 0x6
 2224 05ec E6050000 		.4byte	0x5e6
 2225 05f0 05       		.uleb128 0x5
 2226 05f1 60010000 		.4byte	0x160
 2227 05f5 06       		.uleb128 0x6
 2228 05f6 F0050000 		.4byte	0x5f0
 2229 05fa 03       		.uleb128 0x3
 2230 05fb DC170000 		.4byte	.LASF92
 2231 05ff 05       		.byte	0x5
 2232 0600 68       		.byte	0x68
 2233 0601 B0010000 		.4byte	0x1b0
 2234 0605 02       		.uleb128 0x2
 2235 0606 08       		.byte	0x8
 2236 0607 04       		.byte	0x4
 2237 0608 59180000 		.4byte	.LASF93
 2238 060c 02       		.uleb128 0x2
 2239 060d 01       		.byte	0x1
 2240 060e 08       		.byte	0x8
 2241 060f 530B0000 		.4byte	.LASF94
 2242 0613 02       		.uleb128 0x2
 2243 0614 04       		.byte	0x4
 2244 0615 04       		.byte	0x4
 2245 0616 C6140000 		.4byte	.LASF95
 2246 061a 02       		.uleb128 0x2
 2247 061b 08       		.byte	0x8
 2248 061c 04       		.byte	0x4
 2249 061d 2A140000 		.4byte	.LASF96
 2250 0621 0D       		.uleb128 0xd
 2251 0622 B91F0000 		.4byte	.LASF97
 2252 0626 06       		.byte	0x6
 2253 0627 8503     		.2byte	0x385
 2254 0629 AD000000 		.4byte	0xad
 2255 062d 0D       		.uleb128 0xd
 2256 062e 2C270000 		.4byte	.LASF98
ARM GAS  C:\Users\fiona\AppData\Local\Temp\ccJKYDXi.s 			page 58


 2257 0632 06       		.byte	0x6
 2258 0633 8603     		.2byte	0x386
 2259 0635 C3000000 		.4byte	0xc3
 2260 0639 0D       		.uleb128 0xd
 2261 063a 71020000 		.4byte	.LASF99
 2262 063e 06       		.byte	0x6
 2263 063f 8703     		.2byte	0x387
 2264 0641 D9000000 		.4byte	0xd9
 2265 0645 0D       		.uleb128 0xd
 2266 0646 A8210000 		.4byte	.LASF100
 2267 064a 06       		.byte	0x6
 2268 064b 8903     		.2byte	0x389
 2269 064d B8000000 		.4byte	0xb8
 2270 0651 0D       		.uleb128 0xd
 2271 0652 E0240000 		.4byte	.LASF101
 2272 0656 06       		.byte	0x6
 2273 0657 8A03     		.2byte	0x38a
 2274 0659 CE000000 		.4byte	0xce
 2275 065d 0D       		.uleb128 0xd
 2276 065e 46050000 		.4byte	.LASF102
 2277 0662 06       		.byte	0x6
 2278 0663 8E03     		.2byte	0x38e
 2279 0665 E4000000 		.4byte	0xe4
 2280 0669 0E       		.uleb128 0xe
 2281 066a 04       		.byte	0x4
 2282 066b 02       		.uleb128 0x2
 2283 066c 01       		.byte	0x1
 2284 066d 02       		.byte	0x2
 2285 066e 730A0000 		.4byte	.LASF103
 2286 0672 0F       		.uleb128 0xf
 2287 0673 CE110000 		.4byte	.LASF124
 2288 0677 4C       		.byte	0x4c
 2289 0678 07       		.byte	0x7
 2290 0679 2B       		.byte	0x2b
 2291 067a 63070000 		.4byte	0x763
 2292 067e 0A       		.uleb128 0xa
 2293 067f 2F1D0000 		.4byte	.LASF104
 2294 0683 07       		.byte	0x7
 2295 0684 2D       		.byte	0x2d
 2296 0685 D9000000 		.4byte	0xd9
 2297 0689 00       		.byte	0
 2298 068a 0A       		.uleb128 0xa
 2299 068b 450C0000 		.4byte	.LASF105
 2300 068f 07       		.byte	0x7
 2301 0690 2F       		.byte	0x2f
 2302 0691 D9000000 		.4byte	0xd9
 2303 0695 04       		.byte	0x4
 2304 0696 0A       		.uleb128 0xa
 2305 0697 0D0C0000 		.4byte	.LASF106
 2306 069b 07       		.byte	0x7
 2307 069c 30       		.byte	0x30
 2308 069d D9000000 		.4byte	0xd9
 2309 06a1 08       		.byte	0x8
 2310 06a2 0A       		.uleb128 0xa
 2311 06a3 F1160000 		.4byte	.LASF107
 2312 06a7 07       		.byte	0x7
 2313 06a8 31       		.byte	0x31
ARM GAS  C:\Users\fiona\AppData\Local\Temp\ccJKYDXi.s 			page 59


 2314 06a9 D9000000 		.4byte	0xd9
 2315 06ad 0C       		.byte	0xc
 2316 06ae 0A       		.uleb128 0xa
 2317 06af 7B220000 		.4byte	.LASF108
 2318 06b3 07       		.byte	0x7
 2319 06b4 33       		.byte	0x33
 2320 06b5 D9000000 		.4byte	0xd9
 2321 06b9 10       		.byte	0x10
 2322 06ba 0A       		.uleb128 0xa
 2323 06bb 37030000 		.4byte	.LASF109
 2324 06bf 07       		.byte	0x7
 2325 06c0 34       		.byte	0x34
 2326 06c1 D9000000 		.4byte	0xd9
 2327 06c5 14       		.byte	0x14
 2328 06c6 0A       		.uleb128 0xa
 2329 06c7 40030000 		.4byte	.LASF110
 2330 06cb 07       		.byte	0x7
 2331 06cc 35       		.byte	0x35
 2332 06cd D9000000 		.4byte	0xd9
 2333 06d1 18       		.byte	0x18
 2334 06d2 0A       		.uleb128 0xa
 2335 06d3 B7150000 		.4byte	.LASF111
 2336 06d7 07       		.byte	0x7
 2337 06d8 36       		.byte	0x36
 2338 06d9 6B060000 		.4byte	0x66b
 2339 06dd 1C       		.byte	0x1c
 2340 06de 0A       		.uleb128 0xa
 2341 06df A5120000 		.4byte	.LASF112
 2342 06e3 07       		.byte	0x7
 2343 06e4 38       		.byte	0x38
 2344 06e5 D9000000 		.4byte	0xd9
 2345 06e9 20       		.byte	0x20
 2346 06ea 0A       		.uleb128 0xa
 2347 06eb 82010000 		.4byte	.LASF113
 2348 06ef 07       		.byte	0x7
 2349 06f0 39       		.byte	0x39
 2350 06f1 D9000000 		.4byte	0xd9
 2351 06f5 24       		.byte	0x24
 2352 06f6 0A       		.uleb128 0xa
 2353 06f7 DB250000 		.4byte	.LASF114
 2354 06fb 07       		.byte	0x7
 2355 06fc 3B       		.byte	0x3b
 2356 06fd D9000000 		.4byte	0xd9
 2357 0701 28       		.byte	0x28
 2358 0702 0A       		.uleb128 0xa
 2359 0703 58060000 		.4byte	.LASF115
 2360 0707 07       		.byte	0x7
 2361 0708 3C       		.byte	0x3c
 2362 0709 D9000000 		.4byte	0xd9
 2363 070d 2C       		.byte	0x2c
 2364 070e 0A       		.uleb128 0xa
 2365 070f CF250000 		.4byte	.LASF116
 2366 0713 07       		.byte	0x7
 2367 0714 3E       		.byte	0x3e
 2368 0715 D9000000 		.4byte	0xd9
 2369 0719 30       		.byte	0x30
 2370 071a 0A       		.uleb128 0xa
ARM GAS  C:\Users\fiona\AppData\Local\Temp\ccJKYDXi.s 			page 60


 2371 071b 1D1F0000 		.4byte	.LASF117
 2372 071f 07       		.byte	0x7
 2373 0720 3F       		.byte	0x3f
 2374 0721 D9000000 		.4byte	0xd9
 2375 0725 34       		.byte	0x34
 2376 0726 0A       		.uleb128 0xa
 2377 0727 3C270000 		.4byte	.LASF118
 2378 072b 07       		.byte	0x7
 2379 072c 41       		.byte	0x41
 2380 072d D9000000 		.4byte	0xd9
 2381 0731 38       		.byte	0x38
 2382 0732 0A       		.uleb128 0xa
 2383 0733 6C140000 		.4byte	.LASF119
 2384 0737 07       		.byte	0x7
 2385 0738 42       		.byte	0x42
 2386 0739 D9000000 		.4byte	0xd9
 2387 073d 3C       		.byte	0x3c
 2388 073e 0A       		.uleb128 0xa
 2389 073f ED230000 		.4byte	.LASF120
 2390 0743 07       		.byte	0x7
 2391 0744 44       		.byte	0x44
 2392 0745 D9000000 		.4byte	0xd9
 2393 0749 40       		.byte	0x40
 2394 074a 0A       		.uleb128 0xa
 2395 074b BD030000 		.4byte	.LASF121
 2396 074f 07       		.byte	0x7
 2397 0750 45       		.byte	0x45
 2398 0751 D9000000 		.4byte	0xd9
 2399 0755 44       		.byte	0x44
 2400 0756 0A       		.uleb128 0xa
 2401 0757 29160000 		.4byte	.LASF122
 2402 075b 07       		.byte	0x7
 2403 075c 47       		.byte	0x47
 2404 075d D9000000 		.4byte	0xd9
 2405 0761 48       		.byte	0x48
 2406 0762 00       		.byte	0
 2407 0763 03       		.uleb128 0x3
 2408 0764 70210000 		.4byte	.LASF123
 2409 0768 07       		.byte	0x7
 2410 0769 48       		.byte	0x48
 2411 076a 72060000 		.4byte	0x672
 2412 076e 0F       		.uleb128 0xf
 2413 076f 4F0E0000 		.4byte	.LASF125
 2414 0773 64       		.byte	0x64
 2415 0774 08       		.byte	0x8
 2416 0775 2B       		.byte	0x2b
 2417 0776 A7080000 		.4byte	0x8a7
 2418 077a 0A       		.uleb128 0xa
 2419 077b 82150000 		.4byte	.LASF126
 2420 077f 08       		.byte	0x8
 2421 0780 2D       		.byte	0x2d
 2422 0781 D9000000 		.4byte	0xd9
 2423 0785 00       		.byte	0
 2424 0786 0A       		.uleb128 0xa
 2425 0787 450C0000 		.4byte	.LASF105
 2426 078b 08       		.byte	0x8
 2427 078c 2F       		.byte	0x2f
ARM GAS  C:\Users\fiona\AppData\Local\Temp\ccJKYDXi.s 			page 61


 2428 078d D9000000 		.4byte	0xd9
 2429 0791 04       		.byte	0x4
 2430 0792 0A       		.uleb128 0xa
 2431 0793 86030000 		.4byte	.LASF127
 2432 0797 08       		.byte	0x8
 2433 0798 30       		.byte	0x30
 2434 0799 D9000000 		.4byte	0xd9
 2435 079d 08       		.byte	0x8
 2436 079e 0A       		.uleb128 0xa
 2437 079f 031A0000 		.4byte	.LASF128
 2438 07a3 08       		.byte	0x8
 2439 07a4 31       		.byte	0x31
 2440 07a5 D9000000 		.4byte	0xd9
 2441 07a9 0C       		.byte	0xc
 2442 07aa 0A       		.uleb128 0xa
 2443 07ab 0D0C0000 		.4byte	.LASF106
 2444 07af 08       		.byte	0x8
 2445 07b0 32       		.byte	0x32
 2446 07b1 D9000000 		.4byte	0xd9
 2447 07b5 10       		.byte	0x10
 2448 07b6 0A       		.uleb128 0xa
 2449 07b7 73080000 		.4byte	.LASF129
 2450 07bb 08       		.byte	0x8
 2451 07bc 33       		.byte	0x33
 2452 07bd D9000000 		.4byte	0xd9
 2453 07c1 14       		.byte	0x14
 2454 07c2 0A       		.uleb128 0xa
 2455 07c3 7B080000 		.4byte	.LASF130
 2456 07c7 08       		.byte	0x8
 2457 07c8 34       		.byte	0x34
 2458 07c9 D9000000 		.4byte	0xd9
 2459 07cd 18       		.byte	0x18
 2460 07ce 0A       		.uleb128 0xa
 2461 07cf 36110000 		.4byte	.LASF131
 2462 07d3 08       		.byte	0x8
 2463 07d4 35       		.byte	0x35
 2464 07d5 6B060000 		.4byte	0x66b
 2465 07d9 1C       		.byte	0x1c
 2466 07da 0A       		.uleb128 0xa
 2467 07db 37030000 		.4byte	.LASF109
 2468 07df 08       		.byte	0x8
 2469 07e0 36       		.byte	0x36
 2470 07e1 D9000000 		.4byte	0xd9
 2471 07e5 20       		.byte	0x20
 2472 07e6 0A       		.uleb128 0xa
 2473 07e7 40030000 		.4byte	.LASF110
 2474 07eb 08       		.byte	0x8
 2475 07ec 37       		.byte	0x37
 2476 07ed D9000000 		.4byte	0xd9
 2477 07f1 24       		.byte	0x24
 2478 07f2 0A       		.uleb128 0xa
 2479 07f3 B7150000 		.4byte	.LASF111
 2480 07f7 08       		.byte	0x8
 2481 07f8 38       		.byte	0x38
 2482 07f9 6B060000 		.4byte	0x66b
 2483 07fd 28       		.byte	0x28
 2484 07fe 0A       		.uleb128 0xa
ARM GAS  C:\Users\fiona\AppData\Local\Temp\ccJKYDXi.s 			page 62


 2485 07ff A5120000 		.4byte	.LASF112
 2486 0803 08       		.byte	0x8
 2487 0804 3A       		.byte	0x3a
 2488 0805 D9000000 		.4byte	0xd9
 2489 0809 2C       		.byte	0x2c
 2490 080a 0A       		.uleb128 0xa
 2491 080b E60F0000 		.4byte	.LASF132
 2492 080f 08       		.byte	0x8
 2493 0810 3B       		.byte	0x3b
 2494 0811 D9000000 		.4byte	0xd9
 2495 0815 30       		.byte	0x30
 2496 0816 0A       		.uleb128 0xa
 2497 0817 98250000 		.4byte	.LASF133
 2498 081b 08       		.byte	0x8
 2499 081c 3C       		.byte	0x3c
 2500 081d D9000000 		.4byte	0xd9
 2501 0821 34       		.byte	0x34
 2502 0822 0A       		.uleb128 0xa
 2503 0823 A4070000 		.4byte	.LASF134
 2504 0827 08       		.byte	0x8
 2505 0828 3D       		.byte	0x3d
 2506 0829 D9000000 		.4byte	0xd9
 2507 082d 38       		.byte	0x38
 2508 082e 0A       		.uleb128 0xa
 2509 082f 3C130000 		.4byte	.LASF135
 2510 0833 08       		.byte	0x8
 2511 0834 3E       		.byte	0x3e
 2512 0835 D9000000 		.4byte	0xd9
 2513 0839 3C       		.byte	0x3c
 2514 083a 0A       		.uleb128 0xa
 2515 083b 0A050000 		.4byte	.LASF136
 2516 083f 08       		.byte	0x8
 2517 0840 40       		.byte	0x40
 2518 0841 D9000000 		.4byte	0xd9
 2519 0845 40       		.byte	0x40
 2520 0846 0A       		.uleb128 0xa
 2521 0847 58060000 		.4byte	.LASF115
 2522 084b 08       		.byte	0x8
 2523 084c 41       		.byte	0x41
 2524 084d D9000000 		.4byte	0xd9
 2525 0851 44       		.byte	0x44
 2526 0852 0A       		.uleb128 0xa
 2527 0853 CF250000 		.4byte	.LASF116
 2528 0857 08       		.byte	0x8
 2529 0858 43       		.byte	0x43
 2530 0859 D9000000 		.4byte	0xd9
 2531 085d 48       		.byte	0x48
 2532 085e 0A       		.uleb128 0xa
 2533 085f 1D1F0000 		.4byte	.LASF117
 2534 0863 08       		.byte	0x8
 2535 0864 44       		.byte	0x44
 2536 0865 D9000000 		.4byte	0xd9
 2537 0869 4C       		.byte	0x4c
 2538 086a 0A       		.uleb128 0xa
 2539 086b 3C270000 		.4byte	.LASF118
 2540 086f 08       		.byte	0x8
 2541 0870 46       		.byte	0x46
ARM GAS  C:\Users\fiona\AppData\Local\Temp\ccJKYDXi.s 			page 63


 2542 0871 D9000000 		.4byte	0xd9
 2543 0875 50       		.byte	0x50
 2544 0876 0A       		.uleb128 0xa
 2545 0877 23220000 		.4byte	.LASF137
 2546 087b 08       		.byte	0x8
 2547 087c 47       		.byte	0x47
 2548 087d D9000000 		.4byte	0xd9
 2549 0881 54       		.byte	0x54
 2550 0882 0A       		.uleb128 0xa
 2551 0883 D6150000 		.4byte	.LASF138
 2552 0887 08       		.byte	0x8
 2553 0888 49       		.byte	0x49
 2554 0889 D9000000 		.4byte	0xd9
 2555 088d 58       		.byte	0x58
 2556 088e 0A       		.uleb128 0xa
 2557 088f BD030000 		.4byte	.LASF121
 2558 0893 08       		.byte	0x8
 2559 0894 4A       		.byte	0x4a
 2560 0895 D9000000 		.4byte	0xd9
 2561 0899 5C       		.byte	0x5c
 2562 089a 0A       		.uleb128 0xa
 2563 089b 29160000 		.4byte	.LASF122
 2564 089f 08       		.byte	0x8
 2565 08a0 4C       		.byte	0x4c
 2566 08a1 D9000000 		.4byte	0xd9
 2567 08a5 60       		.byte	0x60
 2568 08a6 00       		.byte	0
 2569 08a7 03       		.uleb128 0x3
 2570 08a8 EB030000 		.4byte	.LASF139
 2571 08ac 08       		.byte	0x8
 2572 08ad 4D       		.byte	0x4d
 2573 08ae 6E070000 		.4byte	0x76e
 2574 08b2 10       		.uleb128 0x10
 2575 08b3 04       		.byte	0x4
 2576 08b4 A6000000 		.4byte	0xa6
 2577 08b8 09       		.byte	0x9
 2578 08b9 9801     		.2byte	0x198
 2579 08bb 0E090000 		.4byte	0x90e
 2580 08bf 11       		.uleb128 0x11
 2581 08c0 EE130000 		.4byte	.LASF140
 2582 08c4 00       		.byte	0
 2583 08c5 12       		.uleb128 0x12
 2584 08c6 71180000 		.4byte	.LASF141
 2585 08ca 0120AA00 		.4byte	0xaa2001
 2586 08ce 12       		.uleb128 0x12
 2587 08cf 72170000 		.4byte	.LASF142
 2588 08d3 0220AA00 		.4byte	0xaa2002
 2589 08d7 12       		.uleb128 0x12
 2590 08d8 B7200000 		.4byte	.LASF143
 2591 08dc 0320AA00 		.4byte	0xaa2003
 2592 08e0 12       		.uleb128 0x12
 2593 08e1 481D0000 		.4byte	.LASF144
 2594 08e5 0420AA00 		.4byte	0xaa2004
 2595 08e9 12       		.uleb128 0x12
 2596 08ea 801C0000 		.4byte	.LASF145
 2597 08ee 0520AA00 		.4byte	0xaa2005
 2598 08f2 12       		.uleb128 0x12
ARM GAS  C:\Users\fiona\AppData\Local\Temp\ccJKYDXi.s 			page 64


 2599 08f3 A80F0000 		.4byte	.LASF146
 2600 08f7 0620AA00 		.4byte	0xaa2006
 2601 08fb 12       		.uleb128 0x12
 2602 08fc 1B180000 		.4byte	.LASF147
 2603 0900 0720AA00 		.4byte	0xaa2007
 2604 0904 12       		.uleb128 0x12
 2605 0905 480F0000 		.4byte	.LASF148
 2606 0909 0820AA00 		.4byte	0xaa2008
 2607 090d 00       		.byte	0
 2608 090e 0D       		.uleb128 0xd
 2609 090f 4D000000 		.4byte	.LASF149
 2610 0913 09       		.byte	0x9
 2611 0914 CB01     		.2byte	0x1cb
 2612 0916 B2080000 		.4byte	0x8b2
 2613 091a 10       		.uleb128 0x10
 2614 091b 01       		.byte	0x1
 2615 091c 2C000000 		.4byte	0x2c
 2616 0920 09       		.byte	0x9
 2617 0921 DE01     		.2byte	0x1de
 2618 0923 34090000 		.4byte	0x934
 2619 0927 11       		.uleb128 0x11
 2620 0928 AA0E0000 		.4byte	.LASF150
 2621 092c 00       		.byte	0
 2622 092d 11       		.uleb128 0x11
 2623 092e C0230000 		.4byte	.LASF151
 2624 0932 01       		.byte	0x1
 2625 0933 00       		.byte	0
 2626 0934 0D       		.uleb128 0xd
 2627 0935 0B1D0000 		.4byte	.LASF152
 2628 0939 09       		.byte	0x9
 2629 093a E101     		.2byte	0x1e1
 2630 093c 1A090000 		.4byte	0x91a
 2631 0940 0D       		.uleb128 0xd
 2632 0941 54170000 		.4byte	.LASF153
 2633 0945 09       		.byte	0x9
 2634 0946 F301     		.2byte	0x1f3
 2635 0948 4C090000 		.4byte	0x94c
 2636 094c 13       		.uleb128 0x13
 2637 094d 04       		.byte	0x4
 2638 094e 52090000 		.4byte	0x952
 2639 0952 14       		.uleb128 0x14
 2640 0953 5D090000 		.4byte	0x95d
 2641 0957 15       		.uleb128 0x15
 2642 0958 D9000000 		.4byte	0xd9
 2643 095c 00       		.byte	0
 2644 095d 0D       		.uleb128 0xd
 2645 095e 99270000 		.4byte	.LASF154
 2646 0962 09       		.byte	0x9
 2647 0963 FE01     		.2byte	0x1fe
 2648 0965 69090000 		.4byte	0x969
 2649 0969 13       		.uleb128 0x13
 2650 096a 04       		.byte	0x4
 2651 096b 6F090000 		.4byte	0x96f
 2652 096f 16       		.uleb128 0x16
 2653 0970 34090000 		.4byte	0x934
 2654 0974 7E090000 		.4byte	0x97e
 2655 0978 15       		.uleb128 0x15
ARM GAS  C:\Users\fiona\AppData\Local\Temp\ccJKYDXi.s 			page 65


 2656 0979 D9000000 		.4byte	0xd9
 2657 097d 00       		.byte	0
 2658 097e 17       		.uleb128 0x17
 2659 097f 75260000 		.4byte	.LASF155
 2660 0983 4C       		.byte	0x4c
 2661 0984 09       		.byte	0x9
 2662 0985 6502     		.2byte	0x265
 2663 0987 9D0A0000 		.4byte	0xa9d
 2664 098b 18       		.uleb128 0x18
 2665 098c BF040000 		.4byte	.LASF156
 2666 0990 09       		.byte	0x9
 2667 0991 6802     		.2byte	0x268
 2668 0993 6B060000 		.4byte	0x66b
 2669 0997 00       		.byte	0
 2670 0998 18       		.uleb128 0x18
 2671 0999 6F1A0000 		.4byte	.LASF157
 2672 099d 09       		.byte	0x9
 2673 099e 6902     		.2byte	0x269
 2674 09a0 6B060000 		.4byte	0x66b
 2675 09a4 01       		.byte	0x1
 2676 09a5 18       		.uleb128 0x18
 2677 09a6 F0020000 		.4byte	.LASF158
 2678 09aa 09       		.byte	0x9
 2679 09ab 6B02     		.2byte	0x26b
 2680 09ad F6000000 		.4byte	0xf6
 2681 09b1 04       		.byte	0x4
 2682 09b2 18       		.uleb128 0x18
 2683 09b3 25210000 		.4byte	.LASF159
 2684 09b7 09       		.byte	0x9
 2685 09b8 6D02     		.2byte	0x26d
 2686 09ba F6000000 		.4byte	0xf6
 2687 09be 08       		.byte	0x8
 2688 09bf 18       		.uleb128 0x18
 2689 09c0 5B230000 		.4byte	.LASF160
 2690 09c4 09       		.byte	0x9
 2691 09c5 6E02     		.2byte	0x26e
 2692 09c7 6B060000 		.4byte	0x66b
 2693 09cb 0C       		.byte	0xc
 2694 09cc 18       		.uleb128 0x18
 2695 09cd 7B230000 		.4byte	.LASF161
 2696 09d1 09       		.byte	0x9
 2697 09d2 6F02     		.2byte	0x26f
 2698 09d4 6B060000 		.4byte	0x66b
 2699 09d8 0D       		.byte	0xd
 2700 09d9 18       		.uleb128 0x18
 2701 09da 351F0000 		.4byte	.LASF162
 2702 09de 09       		.byte	0x9
 2703 09df 7102     		.2byte	0x271
 2704 09e1 9D0A0000 		.4byte	0xa9d
 2705 09e5 10       		.byte	0x10
 2706 09e6 18       		.uleb128 0x18
 2707 09e7 CA0F0000 		.4byte	.LASF163
 2708 09eb 09       		.byte	0x9
 2709 09ec 7202     		.2byte	0x272
 2710 09ee D9000000 		.4byte	0xd9
 2711 09f2 14       		.byte	0x14
 2712 09f3 18       		.uleb128 0x18
ARM GAS  C:\Users\fiona\AppData\Local\Temp\ccJKYDXi.s 			page 66


 2713 09f4 F7200000 		.4byte	.LASF164
 2714 09f8 09       		.byte	0x9
 2715 09f9 7302     		.2byte	0x273
 2716 09fb F6000000 		.4byte	0xf6
 2717 09ff 18       		.byte	0x18
 2718 0a00 18       		.uleb128 0x18
 2719 0a01 DF130000 		.4byte	.LASF165
 2720 0a05 09       		.byte	0x9
 2721 0a06 7402     		.2byte	0x274
 2722 0a08 F6000000 		.4byte	0xf6
 2723 0a0c 1C       		.byte	0x1c
 2724 0a0d 18       		.uleb128 0x18
 2725 0a0e 0B110000 		.4byte	.LASF166
 2726 0a12 09       		.byte	0x9
 2727 0a13 7602     		.2byte	0x276
 2728 0a15 F6000000 		.4byte	0xf6
 2729 0a19 20       		.byte	0x20
 2730 0a1a 18       		.uleb128 0x18
 2731 0a1b 290D0000 		.4byte	.LASF167
 2732 0a1f 09       		.byte	0x9
 2733 0a20 7702     		.2byte	0x277
 2734 0a22 A30A0000 		.4byte	0xaa3
 2735 0a26 24       		.byte	0x24
 2736 0a27 18       		.uleb128 0x18
 2737 0a28 8D130000 		.4byte	.LASF168
 2738 0a2c 09       		.byte	0x9
 2739 0a2d 7902     		.2byte	0x279
 2740 0a2f 9D0A0000 		.4byte	0xa9d
 2741 0a33 28       		.byte	0x28
 2742 0a34 18       		.uleb128 0x18
 2743 0a35 FE120000 		.4byte	.LASF169
 2744 0a39 09       		.byte	0x9
 2745 0a3a 7A02     		.2byte	0x27a
 2746 0a3c D9000000 		.4byte	0xd9
 2747 0a40 2C       		.byte	0x2c
 2748 0a41 18       		.uleb128 0x18
 2749 0a42 B0080000 		.4byte	.LASF170
 2750 0a46 09       		.byte	0x9
 2751 0a47 7B02     		.2byte	0x27b
 2752 0a49 F6000000 		.4byte	0xf6
 2753 0a4d 30       		.byte	0x30
 2754 0a4e 18       		.uleb128 0x18
 2755 0a4f B50D0000 		.4byte	.LASF171
 2756 0a53 09       		.byte	0x9
 2757 0a54 7C02     		.2byte	0x27c
 2758 0a56 F6000000 		.4byte	0xf6
 2759 0a5a 34       		.byte	0x34
 2760 0a5b 18       		.uleb128 0x18
 2761 0a5c 15090000 		.4byte	.LASF172
 2762 0a60 09       		.byte	0x9
 2763 0a61 7E02     		.2byte	0x27e
 2764 0a63 9D0A0000 		.4byte	0xa9d
 2765 0a67 38       		.byte	0x38
 2766 0a68 18       		.uleb128 0x18
 2767 0a69 27170000 		.4byte	.LASF173
 2768 0a6d 09       		.byte	0x9
 2769 0a6e 7F02     		.2byte	0x27f
ARM GAS  C:\Users\fiona\AppData\Local\Temp\ccJKYDXi.s 			page 67


 2770 0a70 D9000000 		.4byte	0xd9
 2771 0a74 3C       		.byte	0x3c
 2772 0a75 18       		.uleb128 0x18
 2773 0a76 A6240000 		.4byte	.LASF174
 2774 0a7a 09       		.byte	0x9
 2775 0a7b 8002     		.2byte	0x280
 2776 0a7d F6000000 		.4byte	0xf6
 2777 0a81 40       		.byte	0x40
 2778 0a82 18       		.uleb128 0x18
 2779 0a83 D5190000 		.4byte	.LASF175
 2780 0a87 09       		.byte	0x9
 2781 0a88 8602     		.2byte	0x286
 2782 0a8a 40090000 		.4byte	0x940
 2783 0a8e 44       		.byte	0x44
 2784 0a8f 18       		.uleb128 0x18
 2785 0a90 421F0000 		.4byte	.LASF176
 2786 0a94 09       		.byte	0x9
 2787 0a95 8D02     		.2byte	0x28d
 2788 0a97 5D090000 		.4byte	0x95d
 2789 0a9b 48       		.byte	0x48
 2790 0a9c 00       		.byte	0
 2791 0a9d 13       		.uleb128 0x13
 2792 0a9e 04       		.byte	0x4
 2793 0a9f AD000000 		.4byte	0xad
 2794 0aa3 05       		.uleb128 0x5
 2795 0aa4 6B060000 		.4byte	0x66b
 2796 0aa8 0D       		.uleb128 0xd
 2797 0aa9 871F0000 		.4byte	.LASF177
 2798 0aad 09       		.byte	0x9
 2799 0aae 9002     		.2byte	0x290
 2800 0ab0 7E090000 		.4byte	0x97e
 2801 0ab4 17       		.uleb128 0x17
 2802 0ab5 921D0000 		.4byte	.LASF178
 2803 0ab9 10       		.byte	0x10
 2804 0aba 09       		.byte	0x9
 2805 0abb 9302     		.2byte	0x293
 2806 0abd F60A0000 		.4byte	0xaf6
 2807 0ac1 18       		.uleb128 0x18
 2808 0ac2 18210000 		.4byte	.LASF179
 2809 0ac6 09       		.byte	0x9
 2810 0ac7 9602     		.2byte	0x296
 2811 0ac9 AD000000 		.4byte	0xad
 2812 0acd 00       		.byte	0
 2813 0ace 18       		.uleb128 0x18
 2814 0acf 940E0000 		.4byte	.LASF180
 2815 0ad3 09       		.byte	0x9
 2816 0ad4 9C02     		.2byte	0x29c
 2817 0ad6 9D0A0000 		.4byte	0xa9d
 2818 0ada 04       		.byte	0x4
 2819 0adb 18       		.uleb128 0x18
 2820 0adc DB0F0000 		.4byte	.LASF181
 2821 0ae0 09       		.byte	0x9
 2822 0ae1 9F02     		.2byte	0x29f
 2823 0ae3 D9000000 		.4byte	0xd9
 2824 0ae7 08       		.byte	0x8
 2825 0ae8 18       		.uleb128 0x18
 2826 0ae9 00000000 		.4byte	.LASF182
ARM GAS  C:\Users\fiona\AppData\Local\Temp\ccJKYDXi.s 			page 68


 2827 0aed 09       		.byte	0x9
 2828 0aee A502     		.2byte	0x2a5
 2829 0af0 6B060000 		.4byte	0x66b
 2830 0af4 0C       		.byte	0xc
 2831 0af5 00       		.byte	0
 2832 0af6 0D       		.uleb128 0xd
 2833 0af7 0D060000 		.4byte	.LASF183
 2834 0afb 09       		.byte	0x9
 2835 0afc A602     		.2byte	0x2a6
 2836 0afe B40A0000 		.4byte	0xab4
 2837 0b02 10       		.uleb128 0x10
 2838 0b03 01       		.byte	0x1
 2839 0b04 2C000000 		.4byte	0x2c
 2840 0b08 0A       		.byte	0xa
 2841 0b09 7A01     		.2byte	0x17a
 2842 0b0b 220B0000 		.4byte	0xb22
 2843 0b0f 11       		.uleb128 0x11
 2844 0b10 9C0C0000 		.4byte	.LASF184
 2845 0b14 00       		.byte	0
 2846 0b15 11       		.uleb128 0x11
 2847 0b16 B7000000 		.4byte	.LASF185
 2848 0b1a 01       		.byte	0x1
 2849 0b1b 11       		.uleb128 0x11
 2850 0b1c 88270000 		.4byte	.LASF186
 2851 0b20 02       		.byte	0x2
 2852 0b21 00       		.byte	0
 2853 0b22 0D       		.uleb128 0xd
 2854 0b23 0D220000 		.4byte	.LASF187
 2855 0b27 0A       		.byte	0xa
 2856 0b28 7E01     		.2byte	0x17e
 2857 0b2a 020B0000 		.4byte	0xb02
 2858 0b2e 10       		.uleb128 0x10
 2859 0b2f 01       		.byte	0x1
 2860 0b30 2C000000 		.4byte	0x2c
 2861 0b34 0A       		.byte	0xa
 2862 0b35 8201     		.2byte	0x182
 2863 0b37 660B0000 		.4byte	0xb66
 2864 0b3b 11       		.uleb128 0x11
 2865 0b3c 46240000 		.4byte	.LASF188
 2866 0b40 02       		.byte	0x2
 2867 0b41 11       		.uleb128 0x11
 2868 0b42 64000000 		.4byte	.LASF189
 2869 0b46 03       		.byte	0x3
 2870 0b47 11       		.uleb128 0x11
 2871 0b48 5E240000 		.4byte	.LASF190
 2872 0b4c 04       		.byte	0x4
 2873 0b4d 11       		.uleb128 0x11
 2874 0b4e EA050000 		.4byte	.LASF191
 2875 0b52 05       		.byte	0x5
 2876 0b53 11       		.uleb128 0x11
 2877 0b54 76240000 		.4byte	.LASF192
 2878 0b58 06       		.byte	0x6
 2879 0b59 11       		.uleb128 0x11
 2880 0b5a 01230000 		.4byte	.LASF193
 2881 0b5e 07       		.byte	0x7
 2882 0b5f 11       		.uleb128 0x11
 2883 0b60 8E240000 		.4byte	.LASF194
ARM GAS  C:\Users\fiona\AppData\Local\Temp\ccJKYDXi.s 			page 69


 2884 0b64 08       		.byte	0x8
 2885 0b65 00       		.byte	0
 2886 0b66 0D       		.uleb128 0xd
 2887 0b67 31140000 		.4byte	.LASF195
 2888 0b6b 0A       		.byte	0xa
 2889 0b6c 8A01     		.2byte	0x18a
 2890 0b6e 2E0B0000 		.4byte	0xb2e
 2891 0b72 10       		.uleb128 0x10
 2892 0b73 01       		.byte	0x1
 2893 0b74 2C000000 		.4byte	0x2c
 2894 0b78 0A       		.byte	0xa
 2895 0b79 8E01     		.2byte	0x18e
 2896 0b7b 920B0000 		.4byte	0xb92
 2897 0b7f 11       		.uleb128 0x11
 2898 0b80 730F0000 		.4byte	.LASF196
 2899 0b84 00       		.byte	0
 2900 0b85 11       		.uleb128 0x11
 2901 0b86 FC250000 		.4byte	.LASF197
 2902 0b8a 02       		.byte	0x2
 2903 0b8b 11       		.uleb128 0x11
 2904 0b8c FA1A0000 		.4byte	.LASF198
 2905 0b90 03       		.byte	0x3
 2906 0b91 00       		.byte	0
 2907 0b92 0D       		.uleb128 0xd
 2908 0b93 B5220000 		.4byte	.LASF199
 2909 0b97 0A       		.byte	0xa
 2910 0b98 9201     		.2byte	0x192
 2911 0b9a 720B0000 		.4byte	0xb72
 2912 0b9e 10       		.uleb128 0x10
 2913 0b9f 01       		.byte	0x1
 2914 0ba0 2C000000 		.4byte	0x2c
 2915 0ba4 0A       		.byte	0xa
 2916 0ba5 9601     		.2byte	0x196
 2917 0ba7 B80B0000 		.4byte	0xbb8
 2918 0bab 11       		.uleb128 0x11
 2919 0bac 32210000 		.4byte	.LASF200
 2920 0bb0 00       		.byte	0
 2921 0bb1 11       		.uleb128 0x11
 2922 0bb2 83140000 		.4byte	.LASF201
 2923 0bb6 01       		.byte	0x1
 2924 0bb7 00       		.byte	0
 2925 0bb8 0D       		.uleb128 0xd
 2926 0bb9 14250000 		.4byte	.LASF202
 2927 0bbd 0A       		.byte	0xa
 2928 0bbe 9901     		.2byte	0x199
 2929 0bc0 9E0B0000 		.4byte	0xb9e
 2930 0bc4 0D       		.uleb128 0xd
 2931 0bc5 F0180000 		.4byte	.LASF203
 2932 0bc9 0A       		.byte	0xa
 2933 0bca AB01     		.2byte	0x1ab
 2934 0bcc 4C090000 		.4byte	0x94c
 2935 0bd0 17       		.uleb128 0x17
 2936 0bd1 64110000 		.4byte	.LASF204
 2937 0bd5 40       		.byte	0x40
 2938 0bd6 0A       		.byte	0xa
 2939 0bd7 AE01     		.2byte	0x1ae
 2940 0bd9 230D0000 		.4byte	0xd23
ARM GAS  C:\Users\fiona\AppData\Local\Temp\ccJKYDXi.s 			page 70


 2941 0bdd 18       		.uleb128 0x18
 2942 0bde 30150000 		.4byte	.LASF205
 2943 0be2 0A       		.byte	0xa
 2944 0be3 B101     		.2byte	0x1b1
 2945 0be5 220B0000 		.4byte	0xb22
 2946 0be9 00       		.byte	0
 2947 0bea 18       		.uleb128 0x18
 2948 0beb BE210000 		.4byte	.LASF206
 2949 0bef 0A       		.byte	0xa
 2950 0bf0 BB01     		.2byte	0x1bb
 2951 0bf2 D9000000 		.4byte	0xd9
 2952 0bf6 04       		.byte	0x4
 2953 0bf7 18       		.uleb128 0x18
 2954 0bf8 01110000 		.4byte	.LASF207
 2955 0bfc 0A       		.byte	0xa
 2956 0bfd BE01     		.2byte	0x1be
 2957 0bff D9000000 		.4byte	0xd9
 2958 0c03 08       		.byte	0x8
 2959 0c04 18       		.uleb128 0x18
 2960 0c05 BF020000 		.4byte	.LASF208
 2961 0c09 0A       		.byte	0xa
 2962 0c0a C401     		.2byte	0x1c4
 2963 0c0c 6B060000 		.4byte	0x66b
 2964 0c10 0C       		.byte	0xc
 2965 0c11 18       		.uleb128 0x18
 2966 0c12 431E0000 		.4byte	.LASF209
 2967 0c16 0A       		.byte	0xa
 2968 0c17 CA01     		.2byte	0x1ca
 2969 0c19 660B0000 		.4byte	0xb66
 2970 0c1d 0D       		.byte	0xd
 2971 0c1e 18       		.uleb128 0x18
 2972 0c1f 9B140000 		.4byte	.LASF210
 2973 0c23 0A       		.byte	0xa
 2974 0c24 CD01     		.2byte	0x1cd
 2975 0c26 920B0000 		.4byte	0xb92
 2976 0c2a 0E       		.byte	0xe
 2977 0c2b 18       		.uleb128 0x18
 2978 0c2c F8170000 		.4byte	.LASF211
 2979 0c30 0A       		.byte	0xa
 2980 0c31 D501     		.2byte	0x1d5
 2981 0c33 6B060000 		.4byte	0x66b
 2982 0c37 0F       		.byte	0xf
 2983 0c38 18       		.uleb128 0x18
 2984 0c39 47110000 		.4byte	.LASF212
 2985 0c3d 0A       		.byte	0xa
 2986 0c3e DB01     		.2byte	0x1db
 2987 0c40 6B060000 		.4byte	0x66b
 2988 0c44 10       		.byte	0x10
 2989 0c45 18       		.uleb128 0x18
 2990 0c46 C9040000 		.4byte	.LASF213
 2991 0c4a 0A       		.byte	0xa
 2992 0c4b E101     		.2byte	0x1e1
 2993 0c4d 6B060000 		.4byte	0x66b
 2994 0c51 11       		.byte	0x11
 2995 0c52 18       		.uleb128 0x18
 2996 0c53 E2210000 		.4byte	.LASF214
 2997 0c57 0A       		.byte	0xa
ARM GAS  C:\Users\fiona\AppData\Local\Temp\ccJKYDXi.s 			page 71


 2998 0c58 E701     		.2byte	0x1e7
 2999 0c5a 6B060000 		.4byte	0x66b
 3000 0c5e 12       		.byte	0x12
 3001 0c5f 18       		.uleb128 0x18
 3002 0c60 99190000 		.4byte	.LASF215
 3003 0c64 0A       		.byte	0xa
 3004 0c65 EE01     		.2byte	0x1ee
 3005 0c67 D9000000 		.4byte	0xd9
 3006 0c6b 14       		.byte	0x14
 3007 0c6c 18       		.uleb128 0x18
 3008 0c6d B41D0000 		.4byte	.LASF216
 3009 0c71 0A       		.byte	0xa
 3010 0c72 F601     		.2byte	0x1f6
 3011 0c74 D9000000 		.4byte	0xd9
 3012 0c78 18       		.byte	0x18
 3013 0c79 18       		.uleb128 0x18
 3014 0c7a 9F080000 		.4byte	.LASF217
 3015 0c7e 0A       		.byte	0xa
 3016 0c7f FC01     		.2byte	0x1fc
 3017 0c81 6B060000 		.4byte	0x66b
 3018 0c85 1C       		.byte	0x1c
 3019 0c86 18       		.uleb128 0x18
 3020 0c87 D7100000 		.4byte	.LASF218
 3021 0c8b 0A       		.byte	0xa
 3022 0c8c FF01     		.2byte	0x1ff
 3023 0c8e 6B060000 		.4byte	0x66b
 3024 0c92 1D       		.byte	0x1d
 3025 0c93 18       		.uleb128 0x18
 3026 0c94 15150000 		.4byte	.LASF219
 3027 0c98 0A       		.byte	0xa
 3028 0c99 0502     		.2byte	0x205
 3029 0c9b 6B060000 		.4byte	0x66b
 3030 0c9f 1E       		.byte	0x1e
 3031 0ca0 18       		.uleb128 0x18
 3032 0ca1 A9190000 		.4byte	.LASF220
 3033 0ca5 0A       		.byte	0xa
 3034 0ca6 0C02     		.2byte	0x20c
 3035 0ca8 6B060000 		.4byte	0x66b
 3036 0cac 1F       		.byte	0x1f
 3037 0cad 18       		.uleb128 0x18
 3038 0cae 351A0000 		.4byte	.LASF221
 3039 0cb2 0A       		.byte	0xa
 3040 0cb3 1202     		.2byte	0x212
 3041 0cb5 6B060000 		.4byte	0x66b
 3042 0cb9 20       		.byte	0x20
 3043 0cba 18       		.uleb128 0x18
 3044 0cbb E1230000 		.4byte	.LASF222
 3045 0cbf 0A       		.byte	0xa
 3046 0cc0 1502     		.2byte	0x215
 3047 0cc2 B80B0000 		.4byte	0xbb8
 3048 0cc6 21       		.byte	0x21
 3049 0cc7 18       		.uleb128 0x18
 3050 0cc8 A6250000 		.4byte	.LASF223
 3051 0ccc 0A       		.byte	0xa
 3052 0ccd 1B02     		.2byte	0x21b
 3053 0ccf D9000000 		.4byte	0xd9
 3054 0cd3 24       		.byte	0x24
ARM GAS  C:\Users\fiona\AppData\Local\Temp\ccJKYDXi.s 			page 72


 3055 0cd4 18       		.uleb128 0x18
 3056 0cd5 A3090000 		.4byte	.LASF224
 3057 0cd9 0A       		.byte	0xa
 3058 0cda 1E02     		.2byte	0x21e
 3059 0cdc B80B0000 		.4byte	0xbb8
 3060 0ce0 28       		.byte	0x28
 3061 0ce1 18       		.uleb128 0x18
 3062 0ce2 22260000 		.4byte	.LASF225
 3063 0ce6 0A       		.byte	0xa
 3064 0ce7 2102     		.2byte	0x221
 3065 0ce9 D9000000 		.4byte	0xd9
 3066 0ced 2C       		.byte	0x2c
 3067 0cee 18       		.uleb128 0x18
 3068 0cef 69030000 		.4byte	.LASF226
 3069 0cf3 0A       		.byte	0xa
 3070 0cf4 2902     		.2byte	0x229
 3071 0cf6 D9000000 		.4byte	0xd9
 3072 0cfa 30       		.byte	0x30
 3073 0cfb 18       		.uleb128 0x18
 3074 0cfc 23030000 		.4byte	.LASF227
 3075 0d00 0A       		.byte	0xa
 3076 0d01 2F02     		.2byte	0x22f
 3077 0d03 D9000000 		.4byte	0xd9
 3078 0d07 34       		.byte	0x34
 3079 0d08 18       		.uleb128 0x18
 3080 0d09 99170000 		.4byte	.LASF228
 3081 0d0d 0A       		.byte	0xa
 3082 0d0e 3702     		.2byte	0x237
 3083 0d10 D9000000 		.4byte	0xd9
 3084 0d14 38       		.byte	0x38
 3085 0d15 18       		.uleb128 0x18
 3086 0d16 B5250000 		.4byte	.LASF229
 3087 0d1a 0A       		.byte	0xa
 3088 0d1b 3D02     		.2byte	0x23d
 3089 0d1d D9000000 		.4byte	0xd9
 3090 0d21 3C       		.byte	0x3c
 3091 0d22 00       		.byte	0
 3092 0d23 0D       		.uleb128 0xd
 3093 0d24 730D0000 		.4byte	.LASF230
 3094 0d28 0A       		.byte	0xa
 3095 0d29 3E02     		.2byte	0x23e
 3096 0d2b D00B0000 		.4byte	0xbd0
 3097 0d2f 17       		.uleb128 0x17
 3098 0d30 24010000 		.4byte	.LASF231
 3099 0d34 38       		.byte	0x38
 3100 0d35 0A       		.byte	0xa
 3101 0d36 4702     		.2byte	0x247
 3102 0d38 F30D0000 		.4byte	0xdf3
 3103 0d3c 18       		.uleb128 0x18
 3104 0d3d CE020000 		.4byte	.LASF232
 3105 0d41 0A       		.byte	0xa
 3106 0d42 4A02     		.2byte	0x24a
 3107 0d44 F6000000 		.4byte	0xf6
 3108 0d48 00       		.byte	0
 3109 0d49 18       		.uleb128 0x18
 3110 0d4a 2C1F0000 		.4byte	.LASF233
 3111 0d4e 0A       		.byte	0xa
ARM GAS  C:\Users\fiona\AppData\Local\Temp\ccJKYDXi.s 			page 73


 3112 0d4f 4B02     		.2byte	0x24b
 3113 0d51 F6000000 		.4byte	0xf6
 3114 0d55 04       		.byte	0x4
 3115 0d56 18       		.uleb128 0x18
 3116 0d57 51260000 		.4byte	.LASF234
 3117 0d5b 0A       		.byte	0xa
 3118 0d5c 4D02     		.2byte	0x24d
 3119 0d5e 69060000 		.4byte	0x669
 3120 0d62 08       		.byte	0x8
 3121 0d63 18       		.uleb128 0x18
 3122 0d64 CE170000 		.4byte	.LASF235
 3123 0d68 0A       		.byte	0xa
 3124 0d69 4E02     		.2byte	0x24e
 3125 0d6b D9000000 		.4byte	0xd9
 3126 0d6f 0C       		.byte	0xc
 3127 0d70 18       		.uleb128 0x18
 3128 0d71 07090000 		.4byte	.LASF236
 3129 0d75 0A       		.byte	0xa
 3130 0d76 4F02     		.2byte	0x24f
 3131 0d78 F6000000 		.4byte	0xf6
 3132 0d7c 10       		.byte	0x10
 3133 0d7d 18       		.uleb128 0x18
 3134 0d7e 14260000 		.4byte	.LASF237
 3135 0d82 0A       		.byte	0xa
 3136 0d83 5002     		.2byte	0x250
 3137 0d85 F6000000 		.4byte	0xf6
 3138 0d89 14       		.byte	0x14
 3139 0d8a 18       		.uleb128 0x18
 3140 0d8b 3F1A0000 		.4byte	.LASF238
 3141 0d8f 0A       		.byte	0xa
 3142 0d90 5202     		.2byte	0x252
 3143 0d92 69060000 		.4byte	0x669
 3144 0d96 18       		.byte	0x18
 3145 0d97 18       		.uleb128 0x18
 3146 0d98 150C0000 		.4byte	.LASF239
 3147 0d9c 0A       		.byte	0xa
 3148 0d9d 5302     		.2byte	0x253
 3149 0d9f D9000000 		.4byte	0xd9
 3150 0da3 1C       		.byte	0x1c
 3151 0da4 18       		.uleb128 0x18
 3152 0da5 7A140000 		.4byte	.LASF240
 3153 0da9 0A       		.byte	0xa
 3154 0daa 5402     		.2byte	0x254
 3155 0dac F6000000 		.4byte	0xf6
 3156 0db0 20       		.byte	0x20
 3157 0db1 18       		.uleb128 0x18
 3158 0db2 641C0000 		.4byte	.LASF241
 3159 0db6 0A       		.byte	0xa
 3160 0db7 5602     		.2byte	0x256
 3161 0db9 69060000 		.4byte	0x669
 3162 0dbd 24       		.byte	0x24
 3163 0dbe 18       		.uleb128 0x18
 3164 0dbf 14050000 		.4byte	.LASF242
 3165 0dc3 0A       		.byte	0xa
 3166 0dc4 5702     		.2byte	0x257
 3167 0dc6 D9000000 		.4byte	0xd9
 3168 0dca 28       		.byte	0x28
ARM GAS  C:\Users\fiona\AppData\Local\Temp\ccJKYDXi.s 			page 74


 3169 0dcb 18       		.uleb128 0x18
 3170 0dcc C6100000 		.4byte	.LASF243
 3171 0dd0 0A       		.byte	0xa
 3172 0dd1 5802     		.2byte	0x258
 3173 0dd3 F6000000 		.4byte	0xf6
 3174 0dd7 2C       		.byte	0x2c
 3175 0dd8 18       		.uleb128 0x18
 3176 0dd9 D5190000 		.4byte	.LASF175
 3177 0ddd 0A       		.byte	0xa
 3178 0dde 5D02     		.2byte	0x25d
 3179 0de0 C40B0000 		.4byte	0xbc4
 3180 0de4 30       		.byte	0x30
 3181 0de5 18       		.uleb128 0x18
 3182 0de6 E31F0000 		.4byte	.LASF244
 3183 0dea 0A       		.byte	0xa
 3184 0deb 6002     		.2byte	0x260
 3185 0ded D9000000 		.4byte	0xd9
 3186 0df1 34       		.byte	0x34
 3187 0df2 00       		.byte	0
 3188 0df3 0D       		.uleb128 0xd
 3189 0df4 9B130000 		.4byte	.LASF245
 3190 0df8 0A       		.byte	0xa
 3191 0df9 6302     		.2byte	0x263
 3192 0dfb 2F0D0000 		.4byte	0xd2f
 3193 0dff 10       		.uleb128 0x10
 3194 0e00 01       		.byte	0x1
 3195 0e01 2C000000 		.4byte	0x2c
 3196 0e05 0B       		.byte	0xb
 3197 0e06 0504     		.2byte	0x405
 3198 0e08 250E0000 		.4byte	0xe25
 3199 0e0c 11       		.uleb128 0x11
 3200 0e0d D9160000 		.4byte	.LASF246
 3201 0e11 00       		.byte	0
 3202 0e12 11       		.uleb128 0x11
 3203 0e13 A01F0000 		.4byte	.LASF247
 3204 0e17 01       		.byte	0x1
 3205 0e18 11       		.uleb128 0x11
 3206 0e19 00170000 		.4byte	.LASF248
 3207 0e1d 02       		.byte	0x2
 3208 0e1e 11       		.uleb128 0x11
 3209 0e1f AC100000 		.4byte	.LASF249
 3210 0e23 03       		.byte	0x3
 3211 0e24 00       		.byte	0
 3212 0e25 0D       		.uleb128 0xd
 3213 0e26 A0110000 		.4byte	.LASF250
 3214 0e2a 0B       		.byte	0xb
 3215 0e2b 0A04     		.2byte	0x40a
 3216 0e2d FF0D0000 		.4byte	0xdff
 3217 0e31 19       		.uleb128 0x19
 3218 0e32 78       		.byte	0x78
 3219 0e33 0B       		.byte	0xb
 3220 0e34 F404     		.2byte	0x4f4
 3221 0e36 FE0E0000 		.4byte	0xefe
 3222 0e3a 18       		.uleb128 0x18
 3223 0e3b D9090000 		.4byte	.LASF251
 3224 0e3f 0B       		.byte	0xb
 3225 0e40 F604     		.2byte	0x4f6
ARM GAS  C:\Users\fiona\AppData\Local\Temp\ccJKYDXi.s 			page 75


 3226 0e42 D9000000 		.4byte	0xd9
 3227 0e46 00       		.byte	0
 3228 0e47 18       		.uleb128 0x18
 3229 0e48 3C1C0000 		.4byte	.LASF252
 3230 0e4c 0B       		.byte	0xb
 3231 0e4d F704     		.2byte	0x4f7
 3232 0e4f D9000000 		.4byte	0xd9
 3233 0e53 04       		.byte	0x4
 3234 0e54 18       		.uleb128 0x18
 3235 0e55 01140000 		.4byte	.LASF253
 3236 0e59 0B       		.byte	0xb
 3237 0e5a F804     		.2byte	0x4f8
 3238 0e5c D9000000 		.4byte	0xd9
 3239 0e60 08       		.byte	0x8
 3240 0e61 18       		.uleb128 0x18
 3241 0e62 C9150000 		.4byte	.LASF254
 3242 0e66 0B       		.byte	0xb
 3243 0e67 F904     		.2byte	0x4f9
 3244 0e69 D9000000 		.4byte	0xd9
 3245 0e6d 0C       		.byte	0xc
 3246 0e6e 18       		.uleb128 0x18
 3247 0e6f 8E170000 		.4byte	.LASF255
 3248 0e73 0B       		.byte	0xb
 3249 0e74 FA04     		.2byte	0x4fa
 3250 0e76 D9000000 		.4byte	0xd9
 3251 0e7a 10       		.byte	0x10
 3252 0e7b 18       		.uleb128 0x18
 3253 0e7c D91F0000 		.4byte	.LASF256
 3254 0e80 0B       		.byte	0xb
 3255 0e81 FB04     		.2byte	0x4fb
 3256 0e83 250E0000 		.4byte	0xe25
 3257 0e87 14       		.byte	0x14
 3258 0e88 18       		.uleb128 0x18
 3259 0e89 3C010000 		.4byte	.LASF257
 3260 0e8d 0B       		.byte	0xb
 3261 0e8e FC04     		.2byte	0x4fc
 3262 0e90 D9000000 		.4byte	0xd9
 3263 0e94 18       		.byte	0x18
 3264 0e95 18       		.uleb128 0x18
 3265 0e96 7E000000 		.4byte	.LASF258
 3266 0e9a 0B       		.byte	0xb
 3267 0e9b FD04     		.2byte	0x4fd
 3268 0e9d FE0E0000 		.4byte	0xefe
 3269 0ea1 1C       		.byte	0x1c
 3270 0ea2 18       		.uleb128 0x18
 3271 0ea3 D21E0000 		.4byte	.LASF259
 3272 0ea7 0B       		.byte	0xb
 3273 0ea8 FE04     		.2byte	0x4fe
 3274 0eaa D9000000 		.4byte	0xd9
 3275 0eae 5C       		.byte	0x5c
 3276 0eaf 18       		.uleb128 0x18
 3277 0eb0 97090000 		.4byte	.LASF260
 3278 0eb4 0B       		.byte	0xb
 3279 0eb5 FF04     		.2byte	0x4ff
 3280 0eb7 D9000000 		.4byte	0xd9
 3281 0ebb 60       		.byte	0x60
 3282 0ebc 18       		.uleb128 0x18
ARM GAS  C:\Users\fiona\AppData\Local\Temp\ccJKYDXi.s 			page 76


 3283 0ebd DA040000 		.4byte	.LASF261
 3284 0ec1 0B       		.byte	0xb
 3285 0ec2 0005     		.2byte	0x500
 3286 0ec4 D9000000 		.4byte	0xd9
 3287 0ec8 64       		.byte	0x64
 3288 0ec9 18       		.uleb128 0x18
 3289 0eca 491F0000 		.4byte	.LASF262
 3290 0ece 0B       		.byte	0xb
 3291 0ecf 0105     		.2byte	0x501
 3292 0ed1 D9000000 		.4byte	0xd9
 3293 0ed5 68       		.byte	0x68
 3294 0ed6 18       		.uleb128 0x18
 3295 0ed7 AE210000 		.4byte	.LASF263
 3296 0edb 0B       		.byte	0xb
 3297 0edc 0205     		.2byte	0x502
 3298 0ede D9000000 		.4byte	0xd9
 3299 0ee2 6C       		.byte	0x6c
 3300 0ee3 18       		.uleb128 0x18
 3301 0ee4 791A0000 		.4byte	.LASF264
 3302 0ee8 0B       		.byte	0xb
 3303 0ee9 0305     		.2byte	0x503
 3304 0eeb 6B060000 		.4byte	0x66b
 3305 0eef 70       		.byte	0x70
 3306 0ef0 18       		.uleb128 0x18
 3307 0ef1 220A0000 		.4byte	.LASF265
 3308 0ef5 0B       		.byte	0xb
 3309 0ef6 0405     		.2byte	0x504
 3310 0ef8 D9000000 		.4byte	0xd9
 3311 0efc 74       		.byte	0x74
 3312 0efd 00       		.byte	0
 3313 0efe 07       		.uleb128 0x7
 3314 0eff D9000000 		.4byte	0xd9
 3315 0f03 0E0F0000 		.4byte	0xf0e
 3316 0f07 08       		.uleb128 0x8
 3317 0f08 EF000000 		.4byte	0xef
 3318 0f0c 0F       		.byte	0xf
 3319 0f0d 00       		.byte	0
 3320 0f0e 0D       		.uleb128 0xd
 3321 0f0f 390D0000 		.4byte	.LASF266
 3322 0f13 0B       		.byte	0xb
 3323 0f14 0505     		.2byte	0x505
 3324 0f16 310E0000 		.4byte	0xe31
 3325 0f1a 10       		.uleb128 0x10
 3326 0f1b 02       		.byte	0x2
 3327 0f1c 5B000000 		.4byte	0x5b
 3328 0f20 0C       		.byte	0xc
 3329 0f21 4201     		.2byte	0x142
 3330 0f23 53120000 		.4byte	0x1253
 3331 0f27 11       		.uleb128 0x11
 3332 0f28 39170000 		.4byte	.LASF267
 3333 0f2c 00       		.byte	0
 3334 0f2d 1A       		.uleb128 0x1a
 3335 0f2e 8E210000 		.4byte	.LASF268
 3336 0f32 0010     		.2byte	0x1000
 3337 0f34 1A       		.uleb128 0x1a
 3338 0f35 8B070000 		.4byte	.LASF269
 3339 0f39 0110     		.2byte	0x1001
ARM GAS  C:\Users\fiona\AppData\Local\Temp\ccJKYDXi.s 			page 77


 3340 0f3b 1A       		.uleb128 0x1a
 3341 0f3c 1E050000 		.4byte	.LASF270
 3342 0f40 0210     		.2byte	0x1002
 3343 0f42 1A       		.uleb128 0x1a
 3344 0f43 4A130000 		.4byte	.LASF271
 3345 0f47 0310     		.2byte	0x1003
 3346 0f49 1A       		.uleb128 0x1a
 3347 0f4a 0C000000 		.4byte	.LASF272
 3348 0f4e 0410     		.2byte	0x1004
 3349 0f50 1A       		.uleb128 0x1a
 3350 0f51 54250000 		.4byte	.LASF273
 3351 0f55 0510     		.2byte	0x1005
 3352 0f57 1A       		.uleb128 0x1a
 3353 0f58 A5020000 		.4byte	.LASF274
 3354 0f5c 0020     		.2byte	0x2000
 3355 0f5e 1A       		.uleb128 0x1a
 3356 0f5f 370A0000 		.4byte	.LASF275
 3357 0f63 0120     		.2byte	0x2001
 3358 0f65 1A       		.uleb128 0x1a
 3359 0f66 8C0D0000 		.4byte	.LASF276
 3360 0f6a 0220     		.2byte	0x2002
 3361 0f6c 1A       		.uleb128 0x1a
 3362 0f6d 05160000 		.4byte	.LASF277
 3363 0f71 0320     		.2byte	0x2003
 3364 0f73 1A       		.uleb128 0x1a
 3365 0f74 78020000 		.4byte	.LASF278
 3366 0f78 0420     		.2byte	0x2004
 3367 0f7a 1A       		.uleb128 0x1a
 3368 0f7b C51A0000 		.4byte	.LASF279
 3369 0f7f 0520     		.2byte	0x2005
 3370 0f81 1A       		.uleb128 0x1a
 3371 0f82 0F190000 		.4byte	.LASF280
 3372 0f86 0620     		.2byte	0x2006
 3373 0f88 1A       		.uleb128 0x1a
 3374 0f89 FE260000 		.4byte	.LASF281
 3375 0f8d 0720     		.2byte	0x2007
 3376 0f8f 1A       		.uleb128 0x1a
 3377 0f90 A2140000 		.4byte	.LASF282
 3378 0f94 0820     		.2byte	0x2008
 3379 0f96 1A       		.uleb128 0x1a
 3380 0f97 52220000 		.4byte	.LASF283
 3381 0f9b 0920     		.2byte	0x2009
 3382 0f9d 1A       		.uleb128 0x1a
 3383 0f9e ED1B0000 		.4byte	.LASF284
 3384 0fa2 0A20     		.2byte	0x200a
 3385 0fa4 1A       		.uleb128 0x1a
 3386 0fa5 4E210000 		.4byte	.LASF285
 3387 0fa9 0B20     		.2byte	0x200b
 3388 0fab 1A       		.uleb128 0x1a
 3389 0fac 81100000 		.4byte	.LASF286
 3390 0fb0 0C20     		.2byte	0x200c
 3391 0fb2 1A       		.uleb128 0x1a
 3392 0fb3 121A0000 		.4byte	.LASF287
 3393 0fb7 0D20     		.2byte	0x200d
 3394 0fb9 1A       		.uleb128 0x1a
 3395 0fba F3060000 		.4byte	.LASF288
 3396 0fbe 0E20     		.2byte	0x200e
ARM GAS  C:\Users\fiona\AppData\Local\Temp\ccJKYDXi.s 			page 78


 3397 0fc0 1A       		.uleb128 0x1a
 3398 0fc1 D3260000 		.4byte	.LASF289
 3399 0fc5 0F20     		.2byte	0x200f
 3400 0fc7 1A       		.uleb128 0x1a
 3401 0fc8 BF070000 		.4byte	.LASF290
 3402 0fcc 1020     		.2byte	0x2010
 3403 0fce 1A       		.uleb128 0x1a
 3404 0fcf 8A150000 		.4byte	.LASF291
 3405 0fd3 1120     		.2byte	0x2011
 3406 0fd5 1A       		.uleb128 0x1a
 3407 0fd6 A1260000 		.4byte	.LASF292
 3408 0fda 1220     		.2byte	0x2012
 3409 0fdc 1A       		.uleb128 0x1a
 3410 0fdd B10B0000 		.4byte	.LASF293
 3411 0fe1 1320     		.2byte	0x2013
 3412 0fe3 1A       		.uleb128 0x1a
 3413 0fe4 670E0000 		.4byte	.LASF294
 3414 0fe8 1420     		.2byte	0x2014
 3415 0fea 1A       		.uleb128 0x1a
 3416 0feb CD0B0000 		.4byte	.LASF295
 3417 0fef 1520     		.2byte	0x2015
 3418 0ff1 1A       		.uleb128 0x1a
 3419 0ff2 B2180000 		.4byte	.LASF296
 3420 0ff6 1620     		.2byte	0x2016
 3421 0ff8 1A       		.uleb128 0x1a
 3422 0ff9 85060000 		.4byte	.LASF297
 3423 0ffd 1720     		.2byte	0x2017
 3424 0fff 1A       		.uleb128 0x1a
 3425 1000 93030000 		.4byte	.LASF298
 3426 1004 0030     		.2byte	0x3000
 3427 1006 1A       		.uleb128 0x1a
 3428 1007 9F010000 		.4byte	.LASF299
 3429 100b 0130     		.2byte	0x3001
 3430 100d 1A       		.uleb128 0x1a
 3431 100e CD000000 		.4byte	.LASF300
 3432 1012 0230     		.2byte	0x3002
 3433 1014 1A       		.uleb128 0x1a
 3434 1015 8C220000 		.4byte	.LASF301
 3435 1019 0330     		.2byte	0x3003
 3436 101b 1A       		.uleb128 0x1a
 3437 101c 8B0F0000 		.4byte	.LASF302
 3438 1020 0430     		.2byte	0x3004
 3439 1022 1A       		.uleb128 0x1a
 3440 1023 37200000 		.4byte	.LASF303
 3441 1027 0530     		.2byte	0x3005
 3442 1029 1A       		.uleb128 0x1a
 3443 102a 2D260000 		.4byte	.LASF304
 3444 102e 0630     		.2byte	0x3006
 3445 1030 1A       		.uleb128 0x1a
 3446 1031 F7010000 		.4byte	.LASF305
 3447 1035 0730     		.2byte	0x3007
 3448 1037 1A       		.uleb128 0x1a
 3449 1038 C6010000 		.4byte	.LASF306
 3450 103c 0830     		.2byte	0x3008
 3451 103e 1A       		.uleb128 0x1a
 3452 103f 68120000 		.4byte	.LASF307
 3453 1043 0930     		.2byte	0x3009
ARM GAS  C:\Users\fiona\AppData\Local\Temp\ccJKYDXi.s 			page 79


 3454 1045 1A       		.uleb128 0x1a
 3455 1046 D8220000 		.4byte	.LASF308
 3456 104a 0A30     		.2byte	0x300a
 3457 104c 1A       		.uleb128 0x1a
 3458 104d 1A1B0000 		.4byte	.LASF309
 3459 1051 0B30     		.2byte	0x300b
 3460 1053 1A       		.uleb128 0x1a
 3461 1054 E90B0000 		.4byte	.LASF310
 3462 1058 0C30     		.2byte	0x300c
 3463 105a 1A       		.uleb128 0x1a
 3464 105b 13120000 		.4byte	.LASF311
 3465 105f 1130     		.2byte	0x3011
 3466 1061 1A       		.uleb128 0x1a
 3467 1062 14200000 		.4byte	.LASF312
 3468 1066 1230     		.2byte	0x3012
 3469 1068 1A       		.uleb128 0x1a
 3470 1069 C3240000 		.4byte	.LASF313
 3471 106d 1330     		.2byte	0x3013
 3472 106f 1A       		.uleb128 0x1a
 3473 1070 D8200000 		.4byte	.LASF314
 3474 1074 1430     		.2byte	0x3014
 3475 1076 1A       		.uleb128 0x1a
 3476 1077 31220000 		.4byte	.LASF315
 3477 107b 1530     		.2byte	0x3015
 3478 107d 1A       		.uleb128 0x1a
 3479 107e 75050000 		.4byte	.LASF316
 3480 1082 1630     		.2byte	0x3016
 3481 1084 1A       		.uleb128 0x1a
 3482 1085 AC170000 		.4byte	.LASF317
 3483 1089 1730     		.2byte	0x3017
 3484 108b 1A       		.uleb128 0x1a
 3485 108c 290E0000 		.4byte	.LASF318
 3486 1090 1830     		.2byte	0x3018
 3487 1092 1A       		.uleb128 0x1a
 3488 1093 770C0000 		.4byte	.LASF319
 3489 1097 0040     		.2byte	0x4000
 3490 1099 1A       		.uleb128 0x1a
 3491 109a F2140000 		.4byte	.LASF320
 3492 109e 0140     		.2byte	0x4001
 3493 10a0 1A       		.uleb128 0x1a
 3494 10a1 FD090000 		.4byte	.LASF321
 3495 10a5 0240     		.2byte	0x4002
 3496 10a7 1A       		.uleb128 0x1a
 3497 10a8 871A0000 		.4byte	.LASF322
 3498 10ac 0340     		.2byte	0x4003
 3499 10ae 1A       		.uleb128 0x1a
 3500 10af 3C180000 		.4byte	.LASF323
 3501 10b3 0440     		.2byte	0x4004
 3502 10b5 1A       		.uleb128 0x1a
 3503 10b6 2E250000 		.4byte	.LASF324
 3504 10ba 0540     		.2byte	0x4005
 3505 10bc 1A       		.uleb128 0x1a
 3506 10bd F41E0000 		.4byte	.LASF325
 3507 10c1 0640     		.2byte	0x4006
 3508 10c3 1A       		.uleb128 0x1a
 3509 10c4 97200000 		.4byte	.LASF326
 3510 10c8 0740     		.2byte	0x4007
ARM GAS  C:\Users\fiona\AppData\Local\Temp\ccJKYDXi.s 			page 80


 3511 10ca 1A       		.uleb128 0x1a
 3512 10cb 540C0000 		.4byte	.LASF327
 3513 10cf 0840     		.2byte	0x4008
 3514 10d1 1A       		.uleb128 0x1a
 3515 10d2 AA060000 		.4byte	.LASF328
 3516 10d6 0940     		.2byte	0x4009
 3517 10d8 1A       		.uleb128 0x1a
 3518 10d9 451A0000 		.4byte	.LASF329
 3519 10dd 0A40     		.2byte	0x400a
 3520 10df 1A       		.uleb128 0x1a
 3521 10e0 4C100000 		.4byte	.LASF330
 3522 10e4 0B40     		.2byte	0x400b
 3523 10e6 1A       		.uleb128 0x1a
 3524 10e7 DE190000 		.4byte	.LASF331
 3525 10eb 0C40     		.2byte	0x400c
 3526 10ed 1A       		.uleb128 0x1a
 3527 10ee 0A240000 		.4byte	.LASF332
 3528 10f2 0D40     		.2byte	0x400d
 3529 10f4 1A       		.uleb128 0x1a
 3530 10f5 E0150000 		.4byte	.LASF333
 3531 10f9 0E40     		.2byte	0x400e
 3532 10fb 1A       		.uleb128 0x1a
 3533 10fc FF0D0000 		.4byte	.LASF334
 3534 1100 0F40     		.2byte	0x400f
 3535 1102 1A       		.uleb128 0x1a
 3536 1103 B10C0000 		.4byte	.LASF335
 3537 1107 1040     		.2byte	0x4010
 3538 1109 1A       		.uleb128 0x1a
 3539 110a 3E080000 		.4byte	.LASF336
 3540 110e 1140     		.2byte	0x4011
 3541 1110 1A       		.uleb128 0x1a
 3542 1111 6A1D0000 		.4byte	.LASF337
 3543 1115 1240     		.2byte	0x4012
 3544 1117 1A       		.uleb128 0x1a
 3545 1118 F40C0000 		.4byte	.LASF338
 3546 111c 1340     		.2byte	0x4013
 3547 111e 1A       		.uleb128 0x1a
 3548 111f 67270000 		.4byte	.LASF339
 3549 1123 1440     		.2byte	0x4014
 3550 1125 1A       		.uleb128 0x1a
 3551 1126 5F1B0000 		.4byte	.LASF340
 3552 112a 1540     		.2byte	0x4015
 3553 112c 1A       		.uleb128 0x1a
 3554 112d 1D040000 		.4byte	.LASF341
 3555 1131 1640     		.2byte	0x4016
 3556 1133 1A       		.uleb128 0x1a
 3557 1134 C8060000 		.4byte	.LASF342
 3558 1138 1740     		.2byte	0x4017
 3559 113a 1A       		.uleb128 0x1a
 3560 113b D9140000 		.4byte	.LASF343
 3561 113f 1840     		.2byte	0x4018
 3562 1141 1A       		.uleb128 0x1a
 3563 1142 E6240000 		.4byte	.LASF344
 3564 1146 1940     		.2byte	0x4019
 3565 1148 1A       		.uleb128 0x1a
 3566 1149 6A1C0000 		.4byte	.LASF345
 3567 114d 1A40     		.2byte	0x401a
ARM GAS  C:\Users\fiona\AppData\Local\Temp\ccJKYDXi.s 			page 81


 3568 114f 1A       		.uleb128 0x1a
 3569 1150 C30E0000 		.4byte	.LASF346
 3570 1154 0050     		.2byte	0x5000
 3571 1156 1A       		.uleb128 0x1a
 3572 1157 75160000 		.4byte	.LASF347
 3573 115b 0150     		.2byte	0x5001
 3574 115d 1A       		.uleb128 0x1a
 3575 115e 17110000 		.4byte	.LASF348
 3576 1162 0250     		.2byte	0x5002
 3577 1164 1A       		.uleb128 0x1a
 3578 1165 56050000 		.4byte	.LASF349
 3579 1169 0350     		.2byte	0x5003
 3580 116b 1A       		.uleb128 0x1a
 3581 116c 8C1B0000 		.4byte	.LASF350
 3582 1170 0450     		.2byte	0x5004
 3583 1172 1A       		.uleb128 0x1a
 3584 1173 FE0F0000 		.4byte	.LASF351
 3585 1177 0550     		.2byte	0x5005
 3586 1179 1A       		.uleb128 0x1a
 3587 117a 2B000000 		.4byte	.LASF352
 3588 117e 0650     		.2byte	0x5006
 3589 1180 1A       		.uleb128 0x1a
 3590 1181 DE090000 		.4byte	.LASF353
 3591 1185 0750     		.2byte	0x5007
 3592 1187 1A       		.uleb128 0x1a
 3593 1188 78110000 		.4byte	.LASF354
 3594 118c 0850     		.2byte	0x5008
 3595 118e 1A       		.uleb128 0x1a
 3596 118f 8B120000 		.4byte	.LASF355
 3597 1193 0950     		.2byte	0x5009
 3598 1195 1A       		.uleb128 0x1a
 3599 1196 241E0000 		.4byte	.LASF356
 3600 119a 0A50     		.2byte	0x500a
 3601 119c 1A       		.uleb128 0x1a
 3602 119d 49030000 		.4byte	.LASF357
 3603 11a1 0B50     		.2byte	0x500b
 3604 11a3 1A       		.uleb128 0x1a
 3605 11a4 CF050000 		.4byte	.LASF358
 3606 11a8 0C50     		.2byte	0x500c
 3607 11aa 1A       		.uleb128 0x1a
 3608 11ab 530D0000 		.4byte	.LASF359
 3609 11af 0D50     		.2byte	0x500d
 3610 11b1 1A       		.uleb128 0x1a
 3611 11b2 D1180000 		.4byte	.LASF360
 3612 11b6 0E50     		.2byte	0x500e
 3613 11b8 1A       		.uleb128 0x1a
 3614 11b9 DE0E0000 		.4byte	.LASF361
 3615 11bd 0F50     		.2byte	0x500f
 3616 11bf 1A       		.uleb128 0x1a
 3617 11c0 B6120000 		.4byte	.LASF362
 3618 11c4 1050     		.2byte	0x5010
 3619 11c6 1A       		.uleb128 0x1a
 3620 11c7 45020000 		.4byte	.LASF363
 3621 11cb 1150     		.2byte	0x5011
 3622 11cd 1A       		.uleb128 0x1a
 3623 11ce DD0D0000 		.4byte	.LASF364
 3624 11d2 1250     		.2byte	0x5012
ARM GAS  C:\Users\fiona\AppData\Local\Temp\ccJKYDXi.s 			page 82


 3625 11d4 1A       		.uleb128 0x1a
 3626 11d5 E8040000 		.4byte	.LASF365
 3627 11d9 1350     		.2byte	0x5013
 3628 11db 1A       		.uleb128 0x1a
 3629 11dc E5080000 		.4byte	.LASF366
 3630 11e0 1450     		.2byte	0x5014
 3631 11e2 1A       		.uleb128 0x1a
 3632 11e3 92000000 		.4byte	.LASF367
 3633 11e7 1550     		.2byte	0x5015
 3634 11e9 1A       		.uleb128 0x1a
 3635 11ea 580B0000 		.4byte	.LASF368
 3636 11ee 1650     		.2byte	0x5016
 3637 11f0 1A       		.uleb128 0x1a
 3638 11f1 841E0000 		.4byte	.LASF369
 3639 11f5 1750     		.2byte	0x5017
 3640 11f7 1A       		.uleb128 0x1a
 3641 11f8 4D040000 		.4byte	.LASF370
 3642 11fc 1850     		.2byte	0x5018
 3643 11fe 1A       		.uleb128 0x1a
 3644 11ff 31060000 		.4byte	.LASF371
 3645 1203 0060     		.2byte	0x6000
 3646 1205 1A       		.uleb128 0x1a
 3647 1206 DD1D0000 		.4byte	.LASF372
 3648 120a 0160     		.2byte	0x6001
 3649 120c 1A       		.uleb128 0x1a
 3650 120d E4100000 		.4byte	.LASF373
 3651 1211 0260     		.2byte	0x6002
 3652 1213 1A       		.uleb128 0x1a
 3653 1214 EA110000 		.4byte	.LASF374
 3654 1218 0360     		.2byte	0x6003
 3655 121a 1A       		.uleb128 0x1a
 3656 121b 80040000 		.4byte	.LASF375
 3657 121f 0460     		.2byte	0x6004
 3658 1221 1A       		.uleb128 0x1a
 3659 1222 F9070000 		.4byte	.LASF376
 3660 1226 0560     		.2byte	0x6005
 3661 1228 1A       		.uleb128 0x1a
 3662 1229 BD130000 		.4byte	.LASF377
 3663 122d 0660     		.2byte	0x6006
 3664 122f 1A       		.uleb128 0x1a
 3665 1230 4C140000 		.4byte	.LASF378
 3666 1234 0760     		.2byte	0x6007
 3667 1236 1A       		.uleb128 0x1a
 3668 1237 C1080000 		.4byte	.LASF379
 3669 123b 0860     		.2byte	0x6008
 3670 123d 1A       		.uleb128 0x1a
 3671 123e 0A0F0000 		.4byte	.LASF380
 3672 1242 0960     		.2byte	0x6009
 3673 1244 1A       		.uleb128 0x1a
 3674 1245 DB1C0000 		.4byte	.LASF381
 3675 1249 0A60     		.2byte	0x600a
 3676 124b 1A       		.uleb128 0x1a
 3677 124c D7020000 		.4byte	.LASF382
 3678 1250 FFFF     		.2byte	0xffff
 3679 1252 00       		.byte	0
 3680 1253 06       		.uleb128 0x6
 3681 1254 AD000000 		.4byte	0xad
ARM GAS  C:\Users\fiona\AppData\Local\Temp\ccJKYDXi.s 			page 83


 3682 1258 19       		.uleb128 0x19
 3683 1259 02       		.byte	0x2
 3684 125a 0D       		.byte	0xd
 3685 125b 5B01     		.2byte	0x15b
 3686 125d 7C120000 		.4byte	0x127c
 3687 1261 18       		.uleb128 0x18
 3688 1262 9F040000 		.4byte	.LASF383
 3689 1266 0D       		.byte	0xd
 3690 1267 6501     		.2byte	0x165
 3691 1269 AD000000 		.4byte	0xad
 3692 126d 00       		.byte	0
 3693 126e 18       		.uleb128 0x18
 3694 126f C9250000 		.4byte	.LASF384
 3695 1273 0D       		.byte	0xd
 3696 1274 6901     		.2byte	0x169
 3697 1276 AD000000 		.4byte	0xad
 3698 127a 01       		.byte	0x1
 3699 127b 00       		.byte	0
 3700 127c 0D       		.uleb128 0xd
 3701 127d DB1E0000 		.4byte	.LASF385
 3702 1281 0D       		.byte	0xd
 3703 1282 6B01     		.2byte	0x16b
 3704 1284 58120000 		.4byte	0x1258
 3705 1288 1B       		.uleb128 0x1b
 3706 1289 01       		.byte	0x1
 3707 128a 2C000000 		.4byte	0x2c
 3708 128e 0E       		.byte	0xe
 3709 128f 7E       		.byte	0x7e
 3710 1290 AD120000 		.4byte	0x12ad
 3711 1294 11       		.uleb128 0x11
 3712 1295 AA160000 		.4byte	.LASF386
 3713 1299 00       		.byte	0
 3714 129a 11       		.uleb128 0x11
 3715 129b 61070000 		.4byte	.LASF387
 3716 129f 01       		.byte	0x1
 3717 12a0 11       		.uleb128 0x11
 3718 12a1 9A230000 		.4byte	.LASF388
 3719 12a5 02       		.byte	0x2
 3720 12a6 11       		.uleb128 0x11
 3721 12a7 AC1C0000 		.4byte	.LASF389
 3722 12ab 03       		.byte	0x3
 3723 12ac 00       		.byte	0
 3724 12ad 03       		.uleb128 0x3
 3725 12ae C3160000 		.4byte	.LASF390
 3726 12b2 0E       		.byte	0xe
 3727 12b3 83       		.byte	0x83
 3728 12b4 88120000 		.4byte	0x1288
 3729 12b8 1B       		.uleb128 0x1b
 3730 12b9 01       		.byte	0x1
 3731 12ba 2C000000 		.4byte	0x2c
 3732 12be 0E       		.byte	0xe
 3733 12bf 87       		.byte	0x87
 3734 12c0 F5120000 		.4byte	0x12f5
 3735 12c4 11       		.uleb128 0x11
 3736 12c5 EB1F0000 		.4byte	.LASF391
 3737 12c9 00       		.byte	0
 3738 12ca 11       		.uleb128 0x11
ARM GAS  C:\Users\fiona\AppData\Local\Temp\ccJKYDXi.s 			page 84


 3739 12cb 51150000 		.4byte	.LASF392
 3740 12cf 01       		.byte	0x1
 3741 12d0 11       		.uleb128 0x11
 3742 12d1 531F0000 		.4byte	.LASF393
 3743 12d5 02       		.byte	0x2
 3744 12d6 11       		.uleb128 0x11
 3745 12d7 3E120000 		.4byte	.LASF394
 3746 12db 03       		.byte	0x3
 3747 12dc 11       		.uleb128 0x11
 3748 12dd 4B160000 		.4byte	.LASF395
 3749 12e1 04       		.byte	0x4
 3750 12e2 11       		.uleb128 0x11
 3751 12e3 AF090000 		.4byte	.LASF396
 3752 12e7 05       		.byte	0x5
 3753 12e8 11       		.uleb128 0x11
 3754 12e9 1A020000 		.4byte	.LASF397
 3755 12ed 06       		.byte	0x6
 3756 12ee 11       		.uleb128 0x11
 3757 12ef 98050000 		.4byte	.LASF398
 3758 12f3 07       		.byte	0x7
 3759 12f4 00       		.byte	0
 3760 12f5 03       		.uleb128 0x3
 3761 12f6 4D1C0000 		.4byte	.LASF399
 3762 12fa 0E       		.byte	0xe
 3763 12fb 90       		.byte	0x90
 3764 12fc B8120000 		.4byte	0x12b8
 3765 1300 1C       		.uleb128 0x1c
 3766 1301 14       		.byte	0x14
 3767 1302 0F       		.byte	0xf
 3768 1303 3B       		.byte	0x3b
 3769 1304 45130000 		.4byte	0x1345
 3770 1308 0A       		.uleb128 0xa
 3771 1309 1B080000 		.4byte	.LASF400
 3772 130d 0F       		.byte	0xf
 3773 130e 3D       		.byte	0x3d
 3774 130f D9000000 		.4byte	0xd9
 3775 1313 00       		.byte	0
 3776 1314 0A       		.uleb128 0xa
 3777 1315 65020000 		.4byte	.LASF401
 3778 1319 0F       		.byte	0xf
 3779 131a 3E       		.byte	0x3e
 3780 131b D9000000 		.4byte	0xd9
 3781 131f 04       		.byte	0x4
 3782 1320 0A       		.uleb128 0xa
 3783 1321 FE0E0000 		.4byte	.LASF402
 3784 1325 0F       		.byte	0xf
 3785 1326 3F       		.byte	0x3f
 3786 1327 45130000 		.4byte	0x1345
 3787 132b 08       		.byte	0x8
 3788 132c 0A       		.uleb128 0xa
 3789 132d 3D190000 		.4byte	.LASF403
 3790 1331 0F       		.byte	0xf
 3791 1332 40       		.byte	0x40
 3792 1333 D9000000 		.4byte	0xd9
 3793 1337 0C       		.byte	0xc
 3794 1338 0A       		.uleb128 0xa
 3795 1339 59110000 		.4byte	.LASF404
ARM GAS  C:\Users\fiona\AppData\Local\Temp\ccJKYDXi.s 			page 85


 3796 133d 0F       		.byte	0xf
 3797 133e 45       		.byte	0x45
 3798 133f D9000000 		.4byte	0xd9
 3799 1343 10       		.byte	0x10
 3800 1344 00       		.byte	0
 3801 1345 13       		.uleb128 0x13
 3802 1346 04       		.byte	0x4
 3803 1347 4B130000 		.4byte	0x134b
 3804 134b 06       		.uleb128 0x6
 3805 134c 0E0F0000 		.4byte	0xf0e
 3806 1350 03       		.uleb128 0x3
 3807 1351 FB210000 		.4byte	.LASF405
 3808 1355 0F       		.byte	0xf
 3809 1356 48       		.byte	0x48
 3810 1357 00130000 		.4byte	0x1300
 3811 135b 1C       		.uleb128 0x1c
 3812 135c 0C       		.byte	0xc
 3813 135d 10       		.byte	0x10
 3814 135e 26       		.byte	0x26
 3815 135f AC130000 		.4byte	0x13ac
 3816 1363 0A       		.uleb128 0xa
 3817 1364 6E0D0000 		.4byte	.LASF406
 3818 1368 10       		.byte	0x10
 3819 1369 28       		.byte	0x28
 3820 136a 2D060000 		.4byte	0x62d
 3821 136e 00       		.byte	0
 3822 136f 0A       		.uleb128 0xa
 3823 1370 AE1E0000 		.4byte	.LASF407
 3824 1374 10       		.byte	0x10
 3825 1375 28       		.byte	0x28
 3826 1376 2D060000 		.4byte	0x62d
 3827 137a 02       		.byte	0x2
 3828 137b 1D       		.uleb128 0x1d
 3829 137c 64617900 		.ascii	"day\000"
 3830 1380 10       		.byte	0x10
 3831 1381 28       		.byte	0x28
 3832 1382 2D060000 		.4byte	0x62d
 3833 1386 04       		.byte	0x4
 3834 1387 0A       		.uleb128 0xa
 3835 1388 49210000 		.4byte	.LASF408
 3836 138c 10       		.byte	0x10
 3837 138d 29       		.byte	0x29
 3838 138e 2D060000 		.4byte	0x62d
 3839 1392 06       		.byte	0x6
 3840 1393 0A       		.uleb128 0xa
 3841 1394 23140000 		.4byte	.LASF409
 3842 1398 10       		.byte	0x10
 3843 1399 29       		.byte	0x29
 3844 139a 2D060000 		.4byte	0x62d
 3845 139e 08       		.byte	0x8
 3846 139f 0A       		.uleb128 0xa
 3847 13a0 1C140000 		.4byte	.LASF410
 3848 13a4 10       		.byte	0x10
 3849 13a5 29       		.byte	0x29
 3850 13a6 2D060000 		.4byte	0x62d
 3851 13aa 0A       		.byte	0xa
 3852 13ab 00       		.byte	0
ARM GAS  C:\Users\fiona\AppData\Local\Temp\ccJKYDXi.s 			page 86


 3853 13ac 03       		.uleb128 0x3
 3854 13ad 68060000 		.4byte	.LASF411
 3855 13b1 10       		.byte	0x10
 3856 13b2 2B       		.byte	0x2b
 3857 13b3 5B130000 		.4byte	0x135b
 3858 13b7 1C       		.uleb128 0x1c
 3859 13b8 20       		.byte	0x20
 3860 13b9 10       		.byte	0x10
 3861 13ba 5B       		.byte	0x5b
 3862 13bb 14140000 		.4byte	0x1414
 3863 13bf 0A       		.uleb128 0xa
 3864 13c0 6C100000 		.4byte	.LASF412
 3865 13c4 10       		.byte	0x10
 3866 13c5 5D       		.byte	0x5d
 3867 13c6 21060000 		.4byte	0x621
 3868 13ca 00       		.byte	0
 3869 13cb 0A       		.uleb128 0xa
 3870 13cc 7A1E0000 		.4byte	.LASF413
 3871 13d0 10       		.byte	0x10
 3872 13d1 5E       		.byte	0x5e
 3873 13d2 5D060000 		.4byte	0x65d
 3874 13d6 08       		.byte	0x8
 3875 13d7 0A       		.uleb128 0xa
 3876 13d8 4D0D0000 		.4byte	.LASF414
 3877 13dc 10       		.byte	0x10
 3878 13dd 5F       		.byte	0x5f
 3879 13de 45060000 		.4byte	0x645
 3880 13e2 10       		.byte	0x10
 3881 13e3 0A       		.uleb128 0xa
 3882 13e4 361C0000 		.4byte	.LASF415
 3883 13e8 10       		.byte	0x10
 3884 13e9 60       		.byte	0x60
 3885 13ea 45060000 		.4byte	0x645
 3886 13ee 12       		.byte	0x12
 3887 13ef 0A       		.uleb128 0xa
 3888 13f0 9E070000 		.4byte	.LASF416
 3889 13f4 10       		.byte	0x10
 3890 13f5 61       		.byte	0x61
 3891 13f6 45060000 		.4byte	0x645
 3892 13fa 14       		.byte	0x14
 3893 13fb 0A       		.uleb128 0xa
 3894 13fc 43010000 		.4byte	.LASF417
 3895 1400 10       		.byte	0x10
 3896 1401 62       		.byte	0x62
 3897 1402 39060000 		.4byte	0x639
 3898 1406 18       		.byte	0x18
 3899 1407 0A       		.uleb128 0xa
 3900 1408 EA0C0000 		.4byte	.LASF418
 3901 140c 10       		.byte	0x10
 3902 140d 63       		.byte	0x63
 3903 140e 39060000 		.4byte	0x639
 3904 1412 1C       		.byte	0x1c
 3905 1413 00       		.byte	0
 3906 1414 03       		.uleb128 0x3
 3907 1415 8C260000 		.4byte	.LASF419
 3908 1419 10       		.byte	0x10
 3909 141a 65       		.byte	0x65
ARM GAS  C:\Users\fiona\AppData\Local\Temp\ccJKYDXi.s 			page 87


 3910 141b B7130000 		.4byte	0x13b7
 3911 141f 1E       		.uleb128 0x1e
 3912 1420 BF1F0000 		.4byte	.LASF422
 3913 1424 01       		.byte	0x1
 3914 1425 2C000000 		.4byte	0x2c
 3915 1429 10       		.byte	0x10
 3916 142a D2       		.byte	0xd2
 3917 142b 78140000 		.4byte	0x1478
 3918 142f 11       		.uleb128 0x11
 3919 1430 4C260000 		.4byte	.LASF420
 3920 1434 00       		.byte	0
 3921 1435 1F       		.uleb128 0x1f
 3922 1436 41434300 		.ascii	"ACC\000"
 3923 143a 01       		.byte	0x1
 3924 143b 1F       		.uleb128 0x1f
 3925 143c 414C5400 		.ascii	"ALT\000"
 3926 1440 02       		.byte	0x2
 3927 1441 1F       		.uleb128 0x1f
 3928 1442 434C5200 		.ascii	"CLR\000"
 3929 1446 03       		.byte	0x3
 3930 1447 1F       		.uleb128 0x1f
 3931 1448 42494D00 		.ascii	"BIM\000"
 3932 144c 04       		.byte	0x4
 3933 144d 1F       		.uleb128 0x1f
 3934 144e 42464700 		.ascii	"BFG\000"
 3935 1452 05       		.byte	0x5
 3936 1453 1F       		.uleb128 0x1f
 3937 1454 47595200 		.ascii	"GYR\000"
 3938 1458 06       		.byte	0x6
 3939 1459 1F       		.uleb128 0x1f
 3940 145a 4D414700 		.ascii	"MAG\000"
 3941 145e 07       		.byte	0x7
 3942 145f 1F       		.uleb128 0x1f
 3943 1460 4D494300 		.ascii	"MIC\000"
 3944 1464 08       		.byte	0x8
 3945 1465 1F       		.uleb128 0x1f
 3946 1466 504F5800 		.ascii	"POX\000"
 3947 146a 09       		.byte	0x9
 3948 146b 1F       		.uleb128 0x1f
 3949 146c 42544D00 		.ascii	"BTM\000"
 3950 1470 0A       		.byte	0xa
 3951 1471 1F       		.uleb128 0x1f
 3952 1472 544D5000 		.ascii	"TMP\000"
 3953 1476 0B       		.byte	0xb
 3954 1477 00       		.byte	0
 3955 1478 1C       		.uleb128 0x1c
 3956 1479 18       		.byte	0x18
 3957 147a 11       		.byte	0x11
 3958 147b 2B       		.byte	0x2b
 3959 147c C9140000 		.4byte	0x14c9
 3960 1480 0A       		.uleb128 0xa
 3961 1481 6C100000 		.4byte	.LASF412
 3962 1485 11       		.byte	0x11
 3963 1486 2D       		.byte	0x2d
 3964 1487 21060000 		.4byte	0x621
 3965 148b 00       		.byte	0
 3966 148c 0A       		.uleb128 0xa
ARM GAS  C:\Users\fiona\AppData\Local\Temp\ccJKYDXi.s 			page 88


 3967 148d 7A1E0000 		.4byte	.LASF413
 3968 1491 11       		.byte	0x11
 3969 1492 2E       		.byte	0x2e
 3970 1493 AC130000 		.4byte	0x13ac
 3971 1497 02       		.byte	0x2
 3972 1498 0A       		.uleb128 0xa
 3973 1499 4D0D0000 		.4byte	.LASF414
 3974 149d 11       		.byte	0x11
 3975 149e 2F       		.byte	0x2f
 3976 149f 45060000 		.4byte	0x645
 3977 14a3 0E       		.byte	0xe
 3978 14a4 0A       		.uleb128 0xa
 3979 14a5 361C0000 		.4byte	.LASF415
 3980 14a9 11       		.byte	0x11
 3981 14aa 30       		.byte	0x30
 3982 14ab 45060000 		.4byte	0x645
 3983 14af 10       		.byte	0x10
 3984 14b0 0A       		.uleb128 0xa
 3985 14b1 9E070000 		.4byte	.LASF416
 3986 14b5 11       		.byte	0x11
 3987 14b6 31       		.byte	0x31
 3988 14b7 45060000 		.4byte	0x645
 3989 14bb 12       		.byte	0x12
 3990 14bc 0A       		.uleb128 0xa
 3991 14bd 43010000 		.4byte	.LASF417
 3992 14c1 11       		.byte	0x11
 3993 14c2 32       		.byte	0x32
 3994 14c3 39060000 		.4byte	0x639
 3995 14c7 14       		.byte	0x14
 3996 14c8 00       		.byte	0
 3997 14c9 03       		.uleb128 0x3
 3998 14ca C3110000 		.4byte	.LASF421
 3999 14ce 11       		.byte	0x11
 4000 14cf 34       		.byte	0x34
 4001 14d0 78140000 		.4byte	0x1478
 4002 14d4 1E       		.uleb128 0x1e
 4003 14d5 78100000 		.4byte	.LASF423
 4004 14d9 01       		.byte	0x1
 4005 14da 2C000000 		.4byte	0x2c
 4006 14de 11       		.byte	0x11
 4007 14df 36       		.byte	0x36
 4008 14e0 1B150000 		.4byte	0x151b
 4009 14e4 11       		.uleb128 0x11
 4010 14e5 84090000 		.4byte	.LASF424
 4011 14e9 00       		.byte	0
 4012 14ea 11       		.uleb128 0x11
 4013 14eb 87230000 		.4byte	.LASF425
 4014 14ef 01       		.byte	0x1
 4015 14f0 11       		.uleb128 0x11
 4016 14f1 83080000 		.4byte	.LASF426
 4017 14f5 02       		.byte	0x2
 4018 14f6 11       		.uleb128 0x11
 4019 14f7 850B0000 		.4byte	.LASF427
 4020 14fb 03       		.byte	0x3
 4021 14fc 11       		.uleb128 0x11
 4022 14fd 2A130000 		.4byte	.LASF428
 4023 1501 04       		.byte	0x4
ARM GAS  C:\Users\fiona\AppData\Local\Temp\ccJKYDXi.s 			page 89


 4024 1502 11       		.uleb128 0x11
 4025 1503 EC120000 		.4byte	.LASF429
 4026 1507 05       		.byte	0x5
 4027 1508 11       		.uleb128 0x11
 4028 1509 38100000 		.4byte	.LASF430
 4029 150d 06       		.byte	0x6
 4030 150e 11       		.uleb128 0x11
 4031 150f 7D250000 		.4byte	.LASF431
 4032 1513 07       		.byte	0x7
 4033 1514 11       		.uleb128 0x11
 4034 1515 CD220000 		.4byte	.LASF432
 4035 1519 08       		.byte	0x8
 4036 151a 00       		.byte	0
 4037 151b 1E       		.uleb128 0x1e
 4038 151c C9210000 		.4byte	.LASF433
 4039 1520 01       		.byte	0x1
 4040 1521 2C000000 		.4byte	0x2c
 4041 1525 12       		.byte	0x12
 4042 1526 11       		.byte	0x11
 4043 1527 74150000 		.4byte	0x1574
 4044 152b 11       		.uleb128 0x11
 4045 152c 33190000 		.4byte	.LASF434
 4046 1530 00       		.byte	0
 4047 1531 11       		.uleb128 0x11
 4048 1532 D30D0000 		.4byte	.LASF435
 4049 1536 01       		.byte	0x1
 4050 1537 11       		.uleb128 0x11
 4051 1538 DC030000 		.4byte	.LASF436
 4052 153c 02       		.byte	0x2
 4053 153d 11       		.uleb128 0x11
 4054 153e E6020000 		.4byte	.LASF437
 4055 1542 03       		.byte	0x3
 4056 1543 11       		.uleb128 0x11
 4057 1544 5D270000 		.4byte	.LASF438
 4058 1548 04       		.byte	0x4
 4059 1549 11       		.uleb128 0x11
 4060 154a 3E0F0000 		.4byte	.LASF439
 4061 154e 05       		.byte	0x5
 4062 154f 11       		.uleb128 0x11
 4063 1550 6E010000 		.4byte	.LASF440
 4064 1554 06       		.byte	0x6
 4065 1555 11       		.uleb128 0x11
 4066 1556 7C200000 		.4byte	.LASF441
 4067 155a 07       		.byte	0x7
 4068 155b 11       		.uleb128 0x11
 4069 155c B90E0000 		.4byte	.LASF442
 4070 1560 08       		.byte	0x8
 4071 1561 11       		.uleb128 0x11
 4072 1562 701E0000 		.4byte	.LASF443
 4073 1566 09       		.byte	0x9
 4074 1567 11       		.uleb128 0x11
 4075 1568 34160000 		.4byte	.LASF444
 4076 156c 0A       		.byte	0xa
 4077 156d 11       		.uleb128 0x11
 4078 156e 09120000 		.4byte	.LASF445
 4079 1572 0B       		.byte	0xb
 4080 1573 00       		.byte	0
ARM GAS  C:\Users\fiona\AppData\Local\Temp\ccJKYDXi.s 			page 90


 4081 1574 0F       		.uleb128 0xf
 4082 1575 80070000 		.4byte	.LASF446
 4083 1579 08       		.byte	0x8
 4084 157a 12       		.byte	0x12
 4085 157b 2D       		.byte	0x2d
 4086 157c B1150000 		.4byte	0x15b1
 4087 1580 0A       		.uleb128 0xa
 4088 1581 B7230000 		.4byte	.LASF447
 4089 1585 12       		.byte	0x12
 4090 1586 2F       		.byte	0x2f
 4091 1587 21060000 		.4byte	0x621
 4092 158b 00       		.byte	0
 4093 158c 0A       		.uleb128 0xa
 4094 158d 4D0D0000 		.4byte	.LASF414
 4095 1591 12       		.byte	0x12
 4096 1592 31       		.byte	0x31
 4097 1593 2D060000 		.4byte	0x62d
 4098 1597 02       		.byte	0x2
 4099 1598 0A       		.uleb128 0xa
 4100 1599 361C0000 		.4byte	.LASF415
 4101 159d 12       		.byte	0x12
 4102 159e 32       		.byte	0x32
 4103 159f 2D060000 		.4byte	0x62d
 4104 15a3 04       		.byte	0x4
 4105 15a4 0A       		.uleb128 0xa
 4106 15a5 9E070000 		.4byte	.LASF416
 4107 15a9 12       		.byte	0x12
 4108 15aa 33       		.byte	0x33
 4109 15ab 2D060000 		.4byte	0x62d
 4110 15af 06       		.byte	0x6
 4111 15b0 00       		.byte	0
 4112 15b1 20       		.uleb128 0x20
 4113 15b2 D6120000 		.4byte	.LASF448
 4114 15b6 02       		.byte	0x2
 4115 15b7 1102     		.2byte	0x211
 4116 15b9 0E090000 		.4byte	0x90e
 4117 15bd 03       		.byte	0x3
 4118 15be CF150000 		.4byte	0x15cf
 4119 15c2 21       		.uleb128 0x21
 4120 15c3 60080000 		.4byte	.LASF450
 4121 15c7 02       		.byte	0x2
 4122 15c8 1102     		.2byte	0x211
 4123 15ca CF150000 		.4byte	0x15cf
 4124 15ce 00       		.byte	0
 4125 15cf 13       		.uleb128 0x13
 4126 15d0 04       		.byte	0x4
 4127 15d1 F60A0000 		.4byte	0xaf6
 4128 15d5 22       		.uleb128 0x22
 4129 15d6 10130000 		.4byte	.LASF519
 4130 15da 02       		.byte	0x2
 4131 15db EA01     		.2byte	0x1ea
 4132 15dd D9000000 		.4byte	0xd9
 4133 15e1 03       		.byte	0x3
 4134 15e2 20       		.uleb128 0x20
 4135 15e3 E51A0000 		.4byte	.LASF449
 4136 15e7 02       		.byte	0x2
 4137 15e8 F701     		.2byte	0x1f7
ARM GAS  C:\Users\fiona\AppData\Local\Temp\ccJKYDXi.s 			page 91


 4138 15ea 0E090000 		.4byte	0x90e
 4139 15ee 03       		.byte	0x3
 4140 15ef 00160000 		.4byte	0x1600
 4141 15f3 21       		.uleb128 0x21
 4142 15f4 60080000 		.4byte	.LASF450
 4143 15f8 02       		.byte	0x2
 4144 15f9 F701     		.2byte	0x1f7
 4145 15fb CF150000 		.4byte	0x15cf
 4146 15ff 00       		.byte	0
 4147 1600 23       		.uleb128 0x23
 4148 1601 CC140000 		.4byte	.LASF520
 4149 1605 01       		.byte	0x1
 4150 1606 30       		.byte	0x30
 4151 1607 21060000 		.4byte	0x621
 4152 160b 00000000 		.4byte	.LFB841
 4153 160f 8C000000 		.4byte	.LFE841-.LFB841
 4154 1613 01       		.uleb128 0x1
 4155 1614 9C       		.byte	0x9c
 4156 1615 25170000 		.4byte	0x1725
 4157 1619 24       		.uleb128 0x24
 4158 161a 2E0A0000 		.4byte	.LASF451
 4159 161e 01       		.byte	0x1
 4160 161f 30       		.byte	0x30
 4161 1620 21060000 		.4byte	0x621
 4162 1624 00000000 		.4byte	.LLST0
 4163 1628 25       		.uleb128 0x25
 4164 1629 CA1F0000 		.4byte	.LASF453
 4165 162d 01       		.byte	0x1
 4166 162e 32       		.byte	0x32
 4167 162f 0E090000 		.4byte	0x90e
 4168 1633 26       		.uleb128 0x26
 4169 1634 B5130000 		.4byte	.LASF454
 4170 1638 01       		.byte	0x1
 4171 1639 3D       		.byte	0x3d
 4172 163a 2D060000 		.4byte	0x62d
 4173 163e 30000000 		.4byte	.LLST1
 4174 1642 27       		.uleb128 0x27
 4175 1643 B1150000 		.4byte	0x15b1
 4176 1647 0E000000 		.4byte	.LBB37
 4177 164b 0A000000 		.4byte	.LBE37-.LBB37
 4178 164f 01       		.byte	0x1
 4179 1650 37       		.byte	0x37
 4180 1651 7B160000 		.4byte	0x167b
 4181 1655 28       		.uleb128 0x28
 4182 1656 C2150000 		.4byte	0x15c2
 4183 165a 72000000 		.4byte	.LLST2
 4184 165e 29       		.uleb128 0x29
 4185 165f 18000000 		.4byte	.LVL3
 4186 1663 13200000 		.4byte	0x2013
 4187 1667 2A       		.uleb128 0x2a
 4188 1668 01       		.uleb128 0x1
 4189 1669 50       		.byte	0x50
 4190 166a 05       		.uleb128 0x5
 4191 166b 0C       		.byte	0xc
 4192 166c 00006240 		.4byte	0x40620000
 4193 1670 2A       		.uleb128 0x2a
 4194 1671 01       		.uleb128 0x1
ARM GAS  C:\Users\fiona\AppData\Local\Temp\ccJKYDXi.s 			page 92


 4195 1672 51       		.byte	0x51
 4196 1673 05       		.uleb128 0x5
 4197 1674 03       		.byte	0x3
 4198 1675 04000000 		.4byte	.LANCHOR0+4
 4199 1679 00       		.byte	0
 4200 167a 00       		.byte	0
 4201 167b 27       		.uleb128 0x27
 4202 167c D5150000 		.4byte	0x15d5
 4203 1680 2E000000 		.4byte	.LBB39
 4204 1684 08000000 		.4byte	.LBE39-.LBB39
 4205 1688 01       		.byte	0x1
 4206 1689 3E       		.byte	0x3e
 4207 168a A2160000 		.4byte	0x16a2
 4208 168e 29       		.uleb128 0x29
 4209 168f 36000000 		.4byte	.LVL8
 4210 1693 1F200000 		.4byte	0x201f
 4211 1697 2A       		.uleb128 0x2a
 4212 1698 01       		.uleb128 0x1
 4213 1699 50       		.byte	0x50
 4214 169a 05       		.uleb128 0x5
 4215 169b 0C       		.byte	0xc
 4216 169c 00006240 		.4byte	0x40620000
 4217 16a0 00       		.byte	0
 4218 16a1 00       		.byte	0
 4219 16a2 27       		.uleb128 0x27
 4220 16a3 E2150000 		.4byte	0x15e2
 4221 16a7 4A000000 		.4byte	.LBB41
 4222 16ab 0A000000 		.4byte	.LBE41-.LBB41
 4223 16af 01       		.byte	0x1
 4224 16b0 4D       		.byte	0x4d
 4225 16b1 DB160000 		.4byte	0x16db
 4226 16b5 28       		.uleb128 0x28
 4227 16b6 F3150000 		.4byte	0x15f3
 4228 16ba 8A000000 		.4byte	.LLST3
 4229 16be 29       		.uleb128 0x29
 4230 16bf 54000000 		.4byte	.LVL10
 4231 16c3 2B200000 		.4byte	0x202b
 4232 16c7 2A       		.uleb128 0x2a
 4233 16c8 01       		.uleb128 0x1
 4234 16c9 50       		.byte	0x50
 4235 16ca 05       		.uleb128 0x5
 4236 16cb 0C       		.byte	0xc
 4237 16cc 00006240 		.4byte	0x40620000
 4238 16d0 2A       		.uleb128 0x2a
 4239 16d1 01       		.uleb128 0x1
 4240 16d2 51       		.byte	0x51
 4241 16d3 05       		.uleb128 0x5
 4242 16d4 03       		.byte	0x3
 4243 16d5 04000000 		.4byte	.LANCHOR0+4
 4244 16d9 00       		.byte	0
 4245 16da 00       		.byte	0
 4246 16db 27       		.uleb128 0x27
 4247 16dc D5150000 		.4byte	0x15d5
 4248 16e0 54000000 		.4byte	.LBB43
 4249 16e4 08000000 		.4byte	.LBE43-.LBB43
 4250 16e8 01       		.byte	0x1
 4251 16e9 53       		.byte	0x53
ARM GAS  C:\Users\fiona\AppData\Local\Temp\ccJKYDXi.s 			page 93


 4252 16ea 02170000 		.4byte	0x1702
 4253 16ee 29       		.uleb128 0x29
 4254 16ef 5C000000 		.4byte	.LVL11
 4255 16f3 1F200000 		.4byte	0x201f
 4256 16f7 2A       		.uleb128 0x2a
 4257 16f8 01       		.uleb128 0x1
 4258 16f9 50       		.byte	0x50
 4259 16fa 05       		.uleb128 0x5
 4260 16fb 0C       		.byte	0xc
 4261 16fc 00006240 		.4byte	0x40620000
 4262 1700 00       		.byte	0
 4263 1701 00       		.byte	0
 4264 1702 2B       		.uleb128 0x2b
 4265 1703 2E000000 		.4byte	.LVL7
 4266 1707 37200000 		.4byte	0x2037
 4267 170b 15170000 		.4byte	0x1715
 4268 170f 2A       		.uleb128 0x2a
 4269 1710 01       		.uleb128 0x1
 4270 1711 50       		.byte	0x50
 4271 1712 01       		.uleb128 0x1
 4272 1713 31       		.byte	0x31
 4273 1714 00       		.byte	0
 4274 1715 29       		.uleb128 0x29
 4275 1716 72000000 		.4byte	.LVL14
 4276 171a 37200000 		.4byte	0x2037
 4277 171e 2A       		.uleb128 0x2a
 4278 171f 01       		.uleb128 0x1
 4279 1720 50       		.byte	0x50
 4280 1721 01       		.uleb128 0x1
 4281 1722 31       		.byte	0x31
 4282 1723 00       		.byte	0
 4283 1724 00       		.byte	0
 4284 1725 2C       		.uleb128 0x2c
 4285 1726 E9010000 		.4byte	.LASF455
 4286 172a 01       		.byte	0x1
 4287 172b 16       		.byte	0x16
 4288 172c 00000000 		.4byte	.LFB840
 4289 1730 3C000000 		.4byte	.LFE840-.LFB840
 4290 1734 01       		.uleb128 0x1
 4291 1735 9C       		.byte	0x9c
 4292 1736 E2170000 		.4byte	0x17e2
 4293 173a 24       		.uleb128 0x24
 4294 173b 2E0A0000 		.4byte	.LASF451
 4295 173f 01       		.byte	0x1
 4296 1740 16       		.byte	0x16
 4297 1741 21060000 		.4byte	0x621
 4298 1745 A2000000 		.4byte	.LLST4
 4299 1749 24       		.uleb128 0x24
 4300 174a 5C070000 		.4byte	.LASF452
 4301 174e 01       		.byte	0x1
 4302 174f 16       		.byte	0x16
 4303 1750 21060000 		.4byte	0x621
 4304 1754 D2000000 		.4byte	.LLST5
 4305 1758 25       		.uleb128 0x25
 4306 1759 CA1F0000 		.4byte	.LASF453
 4307 175d 01       		.byte	0x1
 4308 175e 1B       		.byte	0x1b
ARM GAS  C:\Users\fiona\AppData\Local\Temp\ccJKYDXi.s 			page 94


 4309 175f 0E090000 		.4byte	0x90e
 4310 1763 26       		.uleb128 0x26
 4311 1764 B5130000 		.4byte	.LASF454
 4312 1768 01       		.byte	0x1
 4313 1769 21       		.byte	0x21
 4314 176a 2D060000 		.4byte	0x62d
 4315 176e 02010000 		.4byte	.LLST6
 4316 1772 27       		.uleb128 0x27
 4317 1773 B1150000 		.4byte	0x15b1
 4318 1777 12000000 		.4byte	.LBB45
 4319 177b 0A000000 		.4byte	.LBE45-.LBB45
 4320 177f 01       		.byte	0x1
 4321 1780 1B       		.byte	0x1b
 4322 1781 AB170000 		.4byte	0x17ab
 4323 1785 28       		.uleb128 0x28
 4324 1786 C2150000 		.4byte	0x15c2
 4325 178a 22010000 		.4byte	.LLST7
 4326 178e 29       		.uleb128 0x29
 4327 178f 1C000000 		.4byte	.LVL21
 4328 1793 13200000 		.4byte	0x2013
 4329 1797 2A       		.uleb128 0x2a
 4330 1798 01       		.uleb128 0x1
 4331 1799 50       		.byte	0x50
 4332 179a 05       		.uleb128 0x5
 4333 179b 0C       		.byte	0xc
 4334 179c 00006240 		.4byte	0x40620000
 4335 17a0 2A       		.uleb128 0x2a
 4336 17a1 01       		.uleb128 0x1
 4337 17a2 51       		.byte	0x51
 4338 17a3 05       		.uleb128 0x5
 4339 17a4 03       		.byte	0x3
 4340 17a5 04000000 		.4byte	.LANCHOR0+4
 4341 17a9 00       		.byte	0
 4342 17aa 00       		.byte	0
 4343 17ab 27       		.uleb128 0x27
 4344 17ac D5150000 		.4byte	0x15d5
 4345 17b0 1C000000 		.4byte	.LBB47
 4346 17b4 08000000 		.4byte	.LBE47-.LBB47
 4347 17b8 01       		.byte	0x1
 4348 17b9 22       		.byte	0x22
 4349 17ba D2170000 		.4byte	0x17d2
 4350 17be 29       		.uleb128 0x29
 4351 17bf 24000000 		.4byte	.LVL22
 4352 17c3 1F200000 		.4byte	0x201f
 4353 17c7 2A       		.uleb128 0x2a
 4354 17c8 01       		.uleb128 0x1
 4355 17c9 50       		.byte	0x50
 4356 17ca 05       		.uleb128 0x5
 4357 17cb 0C       		.byte	0xc
 4358 17cc 00006240 		.4byte	0x40620000
 4359 17d0 00       		.byte	0
 4360 17d1 00       		.byte	0
 4361 17d2 29       		.uleb128 0x29
 4362 17d3 2E000000 		.4byte	.LVL24
 4363 17d7 37200000 		.4byte	0x2037
 4364 17db 2A       		.uleb128 0x2a
 4365 17dc 01       		.uleb128 0x1
ARM GAS  C:\Users\fiona\AppData\Local\Temp\ccJKYDXi.s 			page 95


 4366 17dd 50       		.byte	0x50
 4367 17de 01       		.uleb128 0x1
 4368 17df 31       		.byte	0x31
 4369 17e0 00       		.byte	0
 4370 17e1 00       		.byte	0
 4371 17e2 2D       		.uleb128 0x2d
 4372 17e3 B7240000 		.4byte	.LASF456
 4373 17e7 01       		.byte	0x1
 4374 17e8 61       		.byte	0x61
 4375 17e9 00000000 		.4byte	.LFB842
 4376 17ed 24010000 		.4byte	.LFE842-.LFB842
 4377 17f1 01       		.uleb128 0x1
 4378 17f2 9C       		.byte	0x9c
 4379 17f3 61180000 		.4byte	0x1861
 4380 17f7 2E       		.uleb128 0x2e
 4381 17f8 613000   		.ascii	"a0\000"
 4382 17fb 01       		.byte	0x1
 4383 17fc 63       		.byte	0x63
 4384 17fd 45060000 		.4byte	0x645
 4385 1801 2E       		.uleb128 0x2e
 4386 1802 613100   		.ascii	"a1\000"
 4387 1805 01       		.byte	0x1
 4388 1806 63       		.byte	0x63
 4389 1807 45060000 		.4byte	0x645
 4390 180b 2E       		.uleb128 0x2e
 4391 180c 7400     		.ascii	"t\000"
 4392 180e 01       		.byte	0x1
 4393 180f 63       		.byte	0x63
 4394 1810 45060000 		.4byte	0x645
 4395 1814 2E       		.uleb128 0x2e
 4396 1815 743100   		.ascii	"t1\000"
 4397 1818 01       		.byte	0x1
 4398 1819 63       		.byte	0x63
 4399 181a 45060000 		.4byte	0x645
 4400 181e 2B       		.uleb128 0x2b
 4401 181f CE000000 		.4byte	.LVL28
 4402 1823 43200000 		.4byte	0x2043
 4403 1827 3D180000 		.4byte	0x183d
 4404 182b 2A       		.uleb128 0x2a
 4405 182c 01       		.uleb128 0x1
 4406 182d 50       		.byte	0x50
 4407 182e 03       		.uleb128 0x3
 4408 182f 77       		.byte	0x77
 4409 1830 D000     		.sleb128 80
 4410 1832 2A       		.uleb128 0x2a
 4411 1833 01       		.uleb128 0x1
 4412 1834 51       		.byte	0x51
 4413 1835 01       		.uleb128 0x1
 4414 1836 32       		.byte	0x32
 4415 1837 2A       		.uleb128 0x2a
 4416 1838 01       		.uleb128 0x1
 4417 1839 52       		.byte	0x52
 4418 183a 01       		.uleb128 0x1
 4419 183b 38       		.byte	0x38
 4420 183c 00       		.byte	0
 4421 183d 2B       		.uleb128 0x2b
 4422 183e DC000000 		.4byte	.LVL29
ARM GAS  C:\Users\fiona\AppData\Local\Temp\ccJKYDXi.s 			page 96


 4423 1842 4E200000 		.4byte	0x204e
 4424 1846 57180000 		.4byte	0x1857
 4425 184a 2A       		.uleb128 0x2a
 4426 184b 01       		.uleb128 0x1
 4427 184c 50       		.byte	0x50
 4428 184d 03       		.uleb128 0x3
 4429 184e 77       		.byte	0x77
 4430 184f D000     		.sleb128 80
 4431 1851 2A       		.uleb128 0x2a
 4432 1852 01       		.uleb128 0x1
 4433 1853 51       		.byte	0x51
 4434 1854 01       		.uleb128 0x1
 4435 1855 32       		.byte	0x32
 4436 1856 00       		.byte	0
 4437 1857 2F       		.uleb128 0x2f
 4438 1858 F6000000 		.4byte	.LVL30
 4439 185c E2170000 		.4byte	0x17e2
 4440 1860 00       		.byte	0
 4441 1861 30       		.uleb128 0x30
 4442 1862 8A190000 		.4byte	.LASF521
 4443 1866 01       		.byte	0x1
 4444 1867 96       		.byte	0x96
 4445 1868 00000000 		.4byte	.LFB843
 4446 186c 6C000000 		.4byte	.LFE843-.LFB843
 4447 1870 01       		.uleb128 0x1
 4448 1871 9C       		.byte	0x9c
 4449 1872 73190000 		.4byte	0x1973
 4450 1876 2B       		.uleb128 0x2b
 4451 1877 10000000 		.4byte	.LVL31
 4452 187b 25170000 		.4byte	0x1725
 4453 187f 90180000 		.4byte	0x1890
 4454 1883 2A       		.uleb128 0x2a
 4455 1884 01       		.uleb128 0x1
 4456 1885 50       		.byte	0x50
 4457 1886 02       		.uleb128 0x2
 4458 1887 08       		.byte	0x8
 4459 1888 21       		.byte	0x21
 4460 1889 2A       		.uleb128 0x2a
 4461 188a 01       		.uleb128 0x1
 4462 188b 51       		.byte	0x51
 4463 188c 02       		.uleb128 0x2
 4464 188d 08       		.byte	0x8
 4465 188e 40       		.byte	0x40
 4466 188f 00       		.byte	0
 4467 1890 2B       		.uleb128 0x2b
 4468 1891 16000000 		.4byte	.LVL32
 4469 1895 59200000 		.4byte	0x2059
 4470 1899 A3180000 		.4byte	0x18a3
 4471 189d 2A       		.uleb128 0x2a
 4472 189e 01       		.uleb128 0x1
 4473 189f 50       		.byte	0x50
 4474 18a0 01       		.uleb128 0x1
 4475 18a1 3A       		.byte	0x3a
 4476 18a2 00       		.byte	0
 4477 18a3 2B       		.uleb128 0x2b
 4478 18a4 1C000000 		.4byte	.LVL33
 4479 18a8 00160000 		.4byte	0x1600
ARM GAS  C:\Users\fiona\AppData\Local\Temp\ccJKYDXi.s 			page 97


 4480 18ac B6180000 		.4byte	0x18b6
 4481 18b0 2A       		.uleb128 0x2a
 4482 18b1 01       		.uleb128 0x1
 4483 18b2 50       		.byte	0x50
 4484 18b3 01       		.uleb128 0x1
 4485 18b4 3F       		.byte	0x3f
 4486 18b5 00       		.byte	0
 4487 18b6 2B       		.uleb128 0x2b
 4488 18b7 26000000 		.4byte	.LVL34
 4489 18bb 59200000 		.4byte	0x2059
 4490 18bf C9180000 		.4byte	0x18c9
 4491 18c3 2A       		.uleb128 0x2a
 4492 18c4 01       		.uleb128 0x1
 4493 18c5 50       		.byte	0x50
 4494 18c6 01       		.uleb128 0x1
 4495 18c7 3A       		.byte	0x3a
 4496 18c8 00       		.byte	0
 4497 18c9 2B       		.uleb128 0x2b
 4498 18ca 2C000000 		.4byte	.LVL35
 4499 18ce 65200000 		.4byte	0x2065
 4500 18d2 DC180000 		.4byte	0x18dc
 4501 18d6 2A       		.uleb128 0x2a
 4502 18d7 01       		.uleb128 0x1
 4503 18d8 50       		.byte	0x50
 4504 18d9 01       		.uleb128 0x1
 4505 18da 38       		.byte	0x38
 4506 18db 00       		.byte	0
 4507 18dc 2B       		.uleb128 0x2b
 4508 18dd 38000000 		.4byte	.LVL36
 4509 18e1 25170000 		.4byte	0x1725
 4510 18e5 F6180000 		.4byte	0x18f6
 4511 18e9 2A       		.uleb128 0x2a
 4512 18ea 01       		.uleb128 0x1
 4513 18eb 50       		.byte	0x50
 4514 18ec 02       		.uleb128 0x2
 4515 18ed 08       		.byte	0x8
 4516 18ee 20       		.byte	0x20
 4517 18ef 2A       		.uleb128 0x2a
 4518 18f0 01       		.uleb128 0x1
 4519 18f1 51       		.byte	0x51
 4520 18f2 02       		.uleb128 0x2
 4521 18f3 08       		.byte	0x8
 4522 18f4 40       		.byte	0x40
 4523 18f5 00       		.byte	0
 4524 18f6 2B       		.uleb128 0x2b
 4525 18f7 40000000 		.4byte	.LVL37
 4526 18fb 25170000 		.4byte	0x1725
 4527 18ff 0F190000 		.4byte	0x190f
 4528 1903 2A       		.uleb128 0x2a
 4529 1904 01       		.uleb128 0x1
 4530 1905 50       		.byte	0x50
 4531 1906 02       		.uleb128 0x2
 4532 1907 08       		.byte	0x8
 4533 1908 21       		.byte	0x21
 4534 1909 2A       		.uleb128 0x2a
 4535 190a 01       		.uleb128 0x1
 4536 190b 51       		.byte	0x51
ARM GAS  C:\Users\fiona\AppData\Local\Temp\ccJKYDXi.s 			page 98


 4537 190c 01       		.uleb128 0x1
 4538 190d 34       		.byte	0x34
 4539 190e 00       		.byte	0
 4540 190f 2B       		.uleb128 0x2b
 4541 1910 48000000 		.4byte	.LVL38
 4542 1914 25170000 		.4byte	0x1725
 4543 1918 29190000 		.4byte	0x1929
 4544 191c 2A       		.uleb128 0x2a
 4545 191d 01       		.uleb128 0x1
 4546 191e 50       		.byte	0x50
 4547 191f 02       		.uleb128 0x2
 4548 1920 08       		.byte	0x8
 4549 1921 34       		.byte	0x34
 4550 1922 2A       		.uleb128 0x2a
 4551 1923 01       		.uleb128 0x1
 4552 1924 51       		.byte	0x51
 4553 1925 02       		.uleb128 0x2
 4554 1926 08       		.byte	0x8
 4555 1927 60       		.byte	0x60
 4556 1928 00       		.byte	0
 4557 1929 2B       		.uleb128 0x2b
 4558 192a 50000000 		.4byte	.LVL39
 4559 192e 25170000 		.4byte	0x1725
 4560 1932 42190000 		.4byte	0x1942
 4561 1936 2A       		.uleb128 0x2a
 4562 1937 01       		.uleb128 0x1
 4563 1938 50       		.byte	0x50
 4564 1939 02       		.uleb128 0x2
 4565 193a 08       		.byte	0x8
 4566 193b 33       		.byte	0x33
 4567 193c 2A       		.uleb128 0x2a
 4568 193d 01       		.uleb128 0x1
 4569 193e 51       		.byte	0x51
 4570 193f 01       		.uleb128 0x1
 4571 1940 32       		.byte	0x32
 4572 1941 00       		.byte	0
 4573 1942 2B       		.uleb128 0x2b
 4574 1943 58000000 		.4byte	.LVL40
 4575 1947 25170000 		.4byte	0x1725
 4576 194b 5C190000 		.4byte	0x195c
 4577 194f 2A       		.uleb128 0x2a
 4578 1950 01       		.uleb128 0x1
 4579 1951 50       		.byte	0x50
 4580 1952 02       		.uleb128 0x2
 4581 1953 08       		.byte	0x8
 4582 1954 23       		.byte	0x23
 4583 1955 2A       		.uleb128 0x2a
 4584 1956 01       		.uleb128 0x1
 4585 1957 51       		.byte	0x51
 4586 1958 02       		.uleb128 0x2
 4587 1959 08       		.byte	0x8
 4588 195a 20       		.byte	0x20
 4589 195b 00       		.byte	0
 4590 195c 29       		.uleb128 0x29
 4591 195d 60000000 		.4byte	.LVL41
 4592 1961 25170000 		.4byte	0x1725
 4593 1965 2A       		.uleb128 0x2a
ARM GAS  C:\Users\fiona\AppData\Local\Temp\ccJKYDXi.s 			page 99


 4594 1966 01       		.uleb128 0x1
 4595 1967 50       		.byte	0x50
 4596 1968 02       		.uleb128 0x2
 4597 1969 08       		.byte	0x8
 4598 196a 24       		.byte	0x24
 4599 196b 2A       		.uleb128 0x2a
 4600 196c 01       		.uleb128 0x1
 4601 196d 51       		.byte	0x51
 4602 196e 02       		.uleb128 0x2
 4603 196f 09       		.byte	0x9
 4604 1970 81       		.byte	0x81
 4605 1971 00       		.byte	0
 4606 1972 00       		.byte	0
 4607 1973 31       		.uleb128 0x31
 4608 1974 93010000 		.4byte	.LASF457
 4609 1978 01       		.byte	0x1
 4610 1979 AA       		.byte	0xaa
 4611 197a 00000000 		.4byte	.LFB844
 4612 197e 40000000 		.4byte	.LFE844-.LFB844
 4613 1982 01       		.uleb128 0x1
 4614 1983 9C       		.byte	0x9c
 4615 1984 0C1A0000 		.4byte	0x1a0c
 4616 1988 24       		.uleb128 0x24
 4617 1989 5C070000 		.4byte	.LASF452
 4618 198d 01       		.byte	0x1
 4619 198e AA       		.byte	0xaa
 4620 198f 0C1A0000 		.4byte	0x1a0c
 4621 1993 3A010000 		.4byte	.LLST8
 4622 1997 2B       		.uleb128 0x2b
 4623 1998 0E000000 		.4byte	.LVL44
 4624 199c 00160000 		.4byte	0x1600
 4625 19a0 AB190000 		.4byte	0x19ab
 4626 19a4 2A       		.uleb128 0x2a
 4627 19a5 01       		.uleb128 0x1
 4628 19a6 50       		.byte	0x50
 4629 19a7 02       		.uleb128 0x2
 4630 19a8 08       		.byte	0x8
 4631 19a9 29       		.byte	0x29
 4632 19aa 00       		.byte	0
 4633 19ab 2B       		.uleb128 0x2b
 4634 19ac 16000000 		.4byte	.LVL45
 4635 19b0 00160000 		.4byte	0x1600
 4636 19b4 BF190000 		.4byte	0x19bf
 4637 19b8 2A       		.uleb128 0x2a
 4638 19b9 01       		.uleb128 0x1
 4639 19ba 50       		.byte	0x50
 4640 19bb 02       		.uleb128 0x2
 4641 19bc 08       		.byte	0x8
 4642 19bd 28       		.byte	0x28
 4643 19be 00       		.byte	0
 4644 19bf 2B       		.uleb128 0x2b
 4645 19c0 20000000 		.4byte	.LVL46
 4646 19c4 00160000 		.4byte	0x1600
 4647 19c8 D3190000 		.4byte	0x19d3
 4648 19cc 2A       		.uleb128 0x2a
 4649 19cd 01       		.uleb128 0x1
 4650 19ce 50       		.byte	0x50
ARM GAS  C:\Users\fiona\AppData\Local\Temp\ccJKYDXi.s 			page 100


 4651 19cf 02       		.uleb128 0x2
 4652 19d0 08       		.byte	0x8
 4653 19d1 2B       		.byte	0x2b
 4654 19d2 00       		.byte	0
 4655 19d3 2B       		.uleb128 0x2b
 4656 19d4 28000000 		.4byte	.LVL47
 4657 19d8 00160000 		.4byte	0x1600
 4658 19dc E7190000 		.4byte	0x19e7
 4659 19e0 2A       		.uleb128 0x2a
 4660 19e1 01       		.uleb128 0x1
 4661 19e2 50       		.byte	0x50
 4662 19e3 02       		.uleb128 0x2
 4663 19e4 08       		.byte	0x8
 4664 19e5 2A       		.byte	0x2a
 4665 19e6 00       		.byte	0
 4666 19e7 2B       		.uleb128 0x2b
 4667 19e8 32000000 		.4byte	.LVL48
 4668 19ec 00160000 		.4byte	0x1600
 4669 19f0 FB190000 		.4byte	0x19fb
 4670 19f4 2A       		.uleb128 0x2a
 4671 19f5 01       		.uleb128 0x1
 4672 19f6 50       		.byte	0x50
 4673 19f7 02       		.uleb128 0x2
 4674 19f8 08       		.byte	0x8
 4675 19f9 2D       		.byte	0x2d
 4676 19fa 00       		.byte	0
 4677 19fb 29       		.uleb128 0x29
 4678 19fc 3A000000 		.4byte	.LVL49
 4679 1a00 00160000 		.4byte	0x1600
 4680 1a04 2A       		.uleb128 0x2a
 4681 1a05 01       		.uleb128 0x1
 4682 1a06 50       		.byte	0x50
 4683 1a07 02       		.uleb128 0x2
 4684 1a08 08       		.byte	0x8
 4685 1a09 2C       		.byte	0x2c
 4686 1a0a 00       		.byte	0
 4687 1a0b 00       		.byte	0
 4688 1a0c 13       		.uleb128 0x13
 4689 1a0d 04       		.byte	0x4
 4690 1a0e 14140000 		.4byte	0x1414
 4691 1a12 32       		.uleb128 0x32
 4692 1a13 581E0000 		.4byte	.LASF458
 4693 1a17 01       		.byte	0x1
 4694 1a18 B3       		.byte	0xb3
 4695 1a19 6B060000 		.4byte	0x66b
 4696 1a1d 00000000 		.4byte	.LFB845
 4697 1a21 88020000 		.4byte	.LFE845-.LFB845
 4698 1a25 01       		.uleb128 0x1
 4699 1a26 9C       		.byte	0x9c
 4700 1a27 DF1C0000 		.4byte	0x1cdf
 4701 1a2b 33       		.uleb128 0x33
 4702 1a2c 706B7400 		.ascii	"pkt\000"
 4703 1a30 01       		.byte	0x1
 4704 1a31 B6       		.byte	0xb6
 4705 1a32 DF1C0000 		.4byte	0x1cdf
 4706 1a36 05       		.uleb128 0x5
 4707 1a37 03       		.byte	0x3
ARM GAS  C:\Users\fiona\AppData\Local\Temp\ccJKYDXi.s 			page 101


 4708 1a38 60010000 		.4byte	pkt.19835
 4709 1a3c 34       		.uleb128 0x34
 4710 1a3d F0020000 		.4byte	.LASF158
 4711 1a41 01       		.byte	0x1
 4712 1a42 B7       		.byte	0xb7
 4713 1a43 2D060000 		.4byte	0x62d
 4714 1a47 05       		.uleb128 0x5
 4715 1a48 03       		.byte	0x3
 4716 1a49 5C010000 		.4byte	state.19836
 4717 1a4d 34       		.uleb128 0x34
 4718 1a4e 9E020000 		.4byte	.LASF459
 4719 1a52 01       		.byte	0x1
 4720 1a53 B8       		.byte	0xb8
 4721 1a54 2D060000 		.4byte	0x62d
 4722 1a58 05       		.uleb128 0x5
 4723 1a59 03       		.byte	0x3
 4724 1a5a 62010000 		.4byte	datums.19837
 4725 1a5e 34       		.uleb128 0x34
 4726 1a5f E6030000 		.4byte	.LASF460
 4727 1a63 01       		.byte	0x1
 4728 1a64 BA       		.byte	0xba
 4729 1a65 EF1C0000 		.4byte	0x1cef
 4730 1a69 05       		.uleb128 0x5
 4731 1a6a 03       		.byte	0x3
 4732 1a6b 04000000 		.4byte	val1.19838
 4733 1a6f 34       		.uleb128 0x34
 4734 1a70 B0220000 		.4byte	.LASF461
 4735 1a74 01       		.byte	0x1
 4736 1a75 BB       		.byte	0xbb
 4737 1a76 EF1C0000 		.4byte	0x1cef
 4738 1a7a 05       		.uleb128 0x5
 4739 1a7b 03       		.byte	0x3
 4740 1a7c 08000000 		.4byte	val2.19839
 4741 1a80 34       		.uleb128 0x34
 4742 1a81 05040000 		.4byte	.LASF462
 4743 1a85 01       		.byte	0x1
 4744 1a86 BC       		.byte	0xbc
 4745 1a87 EF1C0000 		.4byte	0x1cef
 4746 1a8b 05       		.uleb128 0x5
 4747 1a8c 03       		.byte	0x3
 4748 1a8d 0C000000 		.4byte	val3.19840
 4749 1a91 35       		.uleb128 0x35
 4750 1a92 00000000 		.4byte	.Ldebug_ranges0+0
 4751 1a96 DB1A0000 		.4byte	0x1adb
 4752 1a9a 25       		.uleb128 0x25
 4753 1a9b CA1F0000 		.4byte	.LASF453
 4754 1a9f 01       		.byte	0x1
 4755 1aa0 D2       		.byte	0xd2
 4756 1aa1 0E090000 		.4byte	0x90e
 4757 1aa5 36       		.uleb128 0x36
 4758 1aa6 B1150000 		.4byte	0x15b1
 4759 1aaa D8000000 		.4byte	.LBB50
 4760 1aae 0A000000 		.4byte	.LBE50-.LBB50
 4761 1ab2 01       		.byte	0x1
 4762 1ab3 D2       		.byte	0xd2
 4763 1ab4 28       		.uleb128 0x28
 4764 1ab5 C2150000 		.4byte	0x15c2
ARM GAS  C:\Users\fiona\AppData\Local\Temp\ccJKYDXi.s 			page 102


 4765 1ab9 66010000 		.4byte	.LLST9
 4766 1abd 29       		.uleb128 0x29
 4767 1abe E2000000 		.4byte	.LVL52
 4768 1ac2 13200000 		.4byte	0x2013
 4769 1ac6 2A       		.uleb128 0x2a
 4770 1ac7 01       		.uleb128 0x1
 4771 1ac8 50       		.byte	0x50
 4772 1ac9 05       		.uleb128 0x5
 4773 1aca 0C       		.byte	0xc
 4774 1acb 00006240 		.4byte	0x40620000
 4775 1acf 2A       		.uleb128 0x2a
 4776 1ad0 01       		.uleb128 0x1
 4777 1ad1 51       		.byte	0x51
 4778 1ad2 05       		.uleb128 0x5
 4779 1ad3 03       		.byte	0x3
 4780 1ad4 04000000 		.4byte	.LANCHOR0+4
 4781 1ad8 00       		.byte	0
 4782 1ad9 00       		.byte	0
 4783 1ada 00       		.byte	0
 4784 1adb 35       		.uleb128 0x35
 4785 1adc 18000000 		.4byte	.Ldebug_ranges0+0x18
 4786 1ae0 251B0000 		.4byte	0x1b25
 4787 1ae4 25       		.uleb128 0x25
 4788 1ae5 CA1F0000 		.4byte	.LASF453
 4789 1ae9 01       		.byte	0x1
 4790 1aea DE       		.byte	0xde
 4791 1aeb 0E090000 		.4byte	0x90e
 4792 1aef 36       		.uleb128 0x36
 4793 1af0 B1150000 		.4byte	0x15b1
 4794 1af4 FC000000 		.4byte	.LBB54
 4795 1af8 0A000000 		.4byte	.LBE54-.LBB54
 4796 1afc 01       		.byte	0x1
 4797 1afd DE       		.byte	0xde
 4798 1afe 28       		.uleb128 0x28
 4799 1aff C2150000 		.4byte	0x15c2
 4800 1b03 7E010000 		.4byte	.LLST10
 4801 1b07 29       		.uleb128 0x29
 4802 1b08 06010000 		.4byte	.LVL54
 4803 1b0c 13200000 		.4byte	0x2013
 4804 1b10 2A       		.uleb128 0x2a
 4805 1b11 01       		.uleb128 0x1
 4806 1b12 50       		.byte	0x50
 4807 1b13 05       		.uleb128 0x5
 4808 1b14 0C       		.byte	0xc
 4809 1b15 00006240 		.4byte	0x40620000
 4810 1b19 2A       		.uleb128 0x2a
 4811 1b1a 01       		.uleb128 0x1
 4812 1b1b 51       		.byte	0x51
 4813 1b1c 05       		.uleb128 0x5
 4814 1b1d 03       		.byte	0x3
 4815 1b1e 04000000 		.4byte	.LANCHOR0+4
 4816 1b22 00       		.byte	0
 4817 1b23 00       		.byte	0
 4818 1b24 00       		.byte	0
 4819 1b25 35       		.uleb128 0x35
 4820 1b26 30000000 		.4byte	.Ldebug_ranges0+0x30
 4821 1b2a 6F1B0000 		.4byte	0x1b6f
ARM GAS  C:\Users\fiona\AppData\Local\Temp\ccJKYDXi.s 			page 103


 4822 1b2e 25       		.uleb128 0x25
 4823 1b2f CA1F0000 		.4byte	.LASF453
 4824 1b33 01       		.byte	0x1
 4825 1b34 E9       		.byte	0xe9
 4826 1b35 0E090000 		.4byte	0x90e
 4827 1b39 36       		.uleb128 0x36
 4828 1b3a E2150000 		.4byte	0x15e2
 4829 1b3e 20010000 		.4byte	.LBB58
 4830 1b42 0A000000 		.4byte	.LBE58-.LBB58
 4831 1b46 01       		.byte	0x1
 4832 1b47 E9       		.byte	0xe9
 4833 1b48 28       		.uleb128 0x28
 4834 1b49 F3150000 		.4byte	0x15f3
 4835 1b4d 96010000 		.4byte	.LLST11
 4836 1b51 29       		.uleb128 0x29
 4837 1b52 2A010000 		.4byte	.LVL56
 4838 1b56 2B200000 		.4byte	0x202b
 4839 1b5a 2A       		.uleb128 0x2a
 4840 1b5b 01       		.uleb128 0x1
 4841 1b5c 50       		.byte	0x50
 4842 1b5d 05       		.uleb128 0x5
 4843 1b5e 0C       		.byte	0xc
 4844 1b5f 00006240 		.4byte	0x40620000
 4845 1b63 2A       		.uleb128 0x2a
 4846 1b64 01       		.uleb128 0x1
 4847 1b65 51       		.byte	0x51
 4848 1b66 05       		.uleb128 0x5
 4849 1b67 03       		.byte	0x3
 4850 1b68 04000000 		.4byte	.LANCHOR0+4
 4851 1b6c 00       		.byte	0
 4852 1b6d 00       		.byte	0
 4853 1b6e 00       		.byte	0
 4854 1b6f 37       		.uleb128 0x37
 4855 1b70 52010000 		.4byte	.LBB61
 4856 1b74 20000000 		.4byte	.LBE61-.LBB61
 4857 1b78 BD1B0000 		.4byte	0x1bbd
 4858 1b7c 25       		.uleb128 0x25
 4859 1b7d CA1F0000 		.4byte	.LASF453
 4860 1b81 01       		.byte	0x1
 4861 1b82 FB       		.byte	0xfb
 4862 1b83 0E090000 		.4byte	0x90e
 4863 1b87 36       		.uleb128 0x36
 4864 1b88 B1150000 		.4byte	0x15b1
 4865 1b8c 60010000 		.4byte	.LBB62
 4866 1b90 0A000000 		.4byte	.LBE62-.LBB62
 4867 1b94 01       		.byte	0x1
 4868 1b95 FB       		.byte	0xfb
 4869 1b96 28       		.uleb128 0x28
 4870 1b97 C2150000 		.4byte	0x15c2
 4871 1b9b AE010000 		.4byte	.LLST12
 4872 1b9f 29       		.uleb128 0x29
 4873 1ba0 6A010000 		.4byte	.LVL58
 4874 1ba4 13200000 		.4byte	0x2013
 4875 1ba8 2A       		.uleb128 0x2a
 4876 1ba9 01       		.uleb128 0x1
 4877 1baa 50       		.byte	0x50
 4878 1bab 05       		.uleb128 0x5
ARM GAS  C:\Users\fiona\AppData\Local\Temp\ccJKYDXi.s 			page 104


 4879 1bac 0C       		.byte	0xc
 4880 1bad 00006240 		.4byte	0x40620000
 4881 1bb1 2A       		.uleb128 0x2a
 4882 1bb2 01       		.uleb128 0x1
 4883 1bb3 51       		.byte	0x51
 4884 1bb4 05       		.uleb128 0x5
 4885 1bb5 03       		.byte	0x3
 4886 1bb6 04000000 		.4byte	.LANCHOR0+4
 4887 1bba 00       		.byte	0
 4888 1bbb 00       		.byte	0
 4889 1bbc 00       		.byte	0
 4890 1bbd 35       		.uleb128 0x35
 4891 1bbe 48000000 		.4byte	.Ldebug_ranges0+0x48
 4892 1bc2 091C0000 		.4byte	0x1c09
 4893 1bc6 38       		.uleb128 0x38
 4894 1bc7 CA1F0000 		.4byte	.LASF453
 4895 1bcb 01       		.byte	0x1
 4896 1bcc 0701     		.2byte	0x107
 4897 1bce 0E090000 		.4byte	0x90e
 4898 1bd2 39       		.uleb128 0x39
 4899 1bd3 E2150000 		.4byte	0x15e2
 4900 1bd7 86010000 		.4byte	.LBB65
 4901 1bdb 0A000000 		.4byte	.LBE65-.LBB65
 4902 1bdf 01       		.byte	0x1
 4903 1be0 0701     		.2byte	0x107
 4904 1be2 28       		.uleb128 0x28
 4905 1be3 F3150000 		.4byte	0x15f3
 4906 1be7 C6010000 		.4byte	.LLST13
 4907 1beb 29       		.uleb128 0x29
 4908 1bec 90010000 		.4byte	.LVL60
 4909 1bf0 2B200000 		.4byte	0x202b
 4910 1bf4 2A       		.uleb128 0x2a
 4911 1bf5 01       		.uleb128 0x1
 4912 1bf6 50       		.byte	0x50
 4913 1bf7 05       		.uleb128 0x5
 4914 1bf8 0C       		.byte	0xc
 4915 1bf9 00006240 		.4byte	0x40620000
 4916 1bfd 2A       		.uleb128 0x2a
 4917 1bfe 01       		.uleb128 0x1
 4918 1bff 51       		.byte	0x51
 4919 1c00 05       		.uleb128 0x5
 4920 1c01 03       		.byte	0x3
 4921 1c02 04000000 		.4byte	.LANCHOR0+4
 4922 1c06 00       		.byte	0
 4923 1c07 00       		.byte	0
 4924 1c08 00       		.byte	0
 4925 1c09 35       		.uleb128 0x35
 4926 1c0a 60000000 		.4byte	.Ldebug_ranges0+0x60
 4927 1c0e 731C0000 		.4byte	0x1c73
 4928 1c12 38       		.uleb128 0x38
 4929 1c13 CA1F0000 		.4byte	.LASF453
 4930 1c17 01       		.byte	0x1
 4931 1c18 1701     		.2byte	0x117
 4932 1c1a 0E090000 		.4byte	0x90e
 4933 1c1e 37       		.uleb128 0x37
 4934 1c1f A8010000 		.4byte	.LBB69
 4935 1c23 16000000 		.4byte	.LBE69-.LBB69
ARM GAS  C:\Users\fiona\AppData\Local\Temp\ccJKYDXi.s 			page 105


 4936 1c27 3C1C0000 		.4byte	0x1c3c
 4937 1c2b 3A       		.uleb128 0x3a
 4938 1c2c 97260000 		.4byte	.LASF463
 4939 1c30 01       		.byte	0x1
 4940 1c31 1301     		.2byte	0x113
 4941 1c33 21060000 		.4byte	0x621
 4942 1c37 DE010000 		.4byte	.LLST14
 4943 1c3b 00       		.byte	0
 4944 1c3c 39       		.uleb128 0x39
 4945 1c3d B1150000 		.4byte	0x15b1
 4946 1c41 CC010000 		.4byte	.LBB70
 4947 1c45 0A000000 		.4byte	.LBE70-.LBB70
 4948 1c49 01       		.byte	0x1
 4949 1c4a 1701     		.2byte	0x117
 4950 1c4c 28       		.uleb128 0x28
 4951 1c4d C2150000 		.4byte	0x15c2
 4952 1c51 F1010000 		.4byte	.LLST15
 4953 1c55 29       		.uleb128 0x29
 4954 1c56 D6010000 		.4byte	.LVL65
 4955 1c5a 13200000 		.4byte	0x2013
 4956 1c5e 2A       		.uleb128 0x2a
 4957 1c5f 01       		.uleb128 0x1
 4958 1c60 50       		.byte	0x50
 4959 1c61 05       		.uleb128 0x5
 4960 1c62 0C       		.byte	0xc
 4961 1c63 00006240 		.4byte	0x40620000
 4962 1c67 2A       		.uleb128 0x2a
 4963 1c68 01       		.uleb128 0x1
 4964 1c69 51       		.byte	0x51
 4965 1c6a 05       		.uleb128 0x5
 4966 1c6b 03       		.byte	0x3
 4967 1c6c 04000000 		.4byte	.LANCHOR0+4
 4968 1c70 00       		.byte	0
 4969 1c71 00       		.byte	0
 4970 1c72 00       		.byte	0
 4971 1c73 35       		.uleb128 0x35
 4972 1c74 78000000 		.4byte	.Ldebug_ranges0+0x78
 4973 1c78 BF1C0000 		.4byte	0x1cbf
 4974 1c7c 38       		.uleb128 0x38
 4975 1c7d CA1F0000 		.4byte	.LASF453
 4976 1c81 01       		.byte	0x1
 4977 1c82 2201     		.2byte	0x122
 4978 1c84 0E090000 		.4byte	0x90e
 4979 1c88 39       		.uleb128 0x39
 4980 1c89 E2150000 		.4byte	0x15e2
 4981 1c8d F6010000 		.4byte	.LBB74
 4982 1c91 0A000000 		.4byte	.LBE74-.LBB74
 4983 1c95 01       		.byte	0x1
 4984 1c96 2201     		.2byte	0x122
 4985 1c98 28       		.uleb128 0x28
 4986 1c99 F3150000 		.4byte	0x15f3
 4987 1c9d 09020000 		.4byte	.LLST16
 4988 1ca1 29       		.uleb128 0x29
 4989 1ca2 00020000 		.4byte	.LVL67
 4990 1ca6 2B200000 		.4byte	0x202b
 4991 1caa 2A       		.uleb128 0x2a
 4992 1cab 01       		.uleb128 0x1
ARM GAS  C:\Users\fiona\AppData\Local\Temp\ccJKYDXi.s 			page 106


 4993 1cac 50       		.byte	0x50
 4994 1cad 05       		.uleb128 0x5
 4995 1cae 0C       		.byte	0xc
 4996 1caf 00006240 		.4byte	0x40620000
 4997 1cb3 2A       		.uleb128 0x2a
 4998 1cb4 01       		.uleb128 0x1
 4999 1cb5 51       		.byte	0x51
 5000 1cb6 05       		.uleb128 0x5
 5001 1cb7 03       		.byte	0x3
 5002 1cb8 04000000 		.4byte	.LANCHOR0+4
 5003 1cbc 00       		.byte	0
 5004 1cbd 00       		.byte	0
 5005 1cbe 00       		.byte	0
 5006 1cbf 3B       		.uleb128 0x3b
 5007 1cc0 90000000 		.4byte	.Ldebug_ranges0+0x90
 5008 1cc4 3A       		.uleb128 0x3a
 5009 1cc5 6D0F0000 		.4byte	.LASF464
 5010 1cc9 01       		.byte	0x1
 5011 1cca 2C01     		.2byte	0x12c
 5012 1ccc 2D060000 		.4byte	0x62d
 5013 1cd0 21020000 		.4byte	.LLST17
 5014 1cd4 2F       		.uleb128 0x2f
 5015 1cd5 4C020000 		.4byte	.LVL69
 5016 1cd9 E2170000 		.4byte	0x17e2
 5017 1cdd 00       		.byte	0
 5018 1cde 00       		.byte	0
 5019 1cdf 07       		.uleb128 0x7
 5020 1ce0 21060000 		.4byte	0x621
 5021 1ce4 EF1C0000 		.4byte	0x1cef
 5022 1ce8 08       		.uleb128 0x8
 5023 1ce9 EF000000 		.4byte	0xef
 5024 1ced 01       		.byte	0x1
 5025 1cee 00       		.byte	0
 5026 1cef 07       		.uleb128 0x7
 5027 1cf0 21060000 		.4byte	0x621
 5028 1cf4 FF1C0000 		.4byte	0x1cff
 5029 1cf8 08       		.uleb128 0x8
 5030 1cf9 EF000000 		.4byte	0xef
 5031 1cfd 00       		.byte	0
 5032 1cfe 00       		.byte	0
 5033 1cff 3C       		.uleb128 0x3c
 5034 1d00 2D230000 		.4byte	.LASF522
 5035 1d04 01       		.byte	0x1
 5036 1d05 3901     		.2byte	0x139
 5037 1d07 51060000 		.4byte	0x651
 5038 1d0b 00000000 		.4byte	.LFB846
 5039 1d0f 5C010000 		.4byte	.LFE846-.LFB846
 5040 1d13 01       		.uleb128 0x1
 5041 1d14 9C       		.byte	0x9c
 5042 1d15 4C1D0000 		.4byte	0x1d4c
 5043 1d19 3D       		.uleb128 0x3d
 5044 1d1a 7A1F0000 		.4byte	.LASF465
 5045 1d1e 01       		.byte	0x1
 5046 1d1f 3901     		.2byte	0x139
 5047 1d21 21060000 		.4byte	0x621
 5048 1d25 4A020000 		.4byte	.LLST18
 5049 1d29 3D       		.uleb128 0x3d
ARM GAS  C:\Users\fiona\AppData\Local\Temp\ccJKYDXi.s 			page 107


 5050 1d2a 0E030000 		.4byte	.LASF466
 5051 1d2e 01       		.byte	0x1
 5052 1d2f 3901     		.2byte	0x139
 5053 1d31 51060000 		.4byte	0x651
 5054 1d35 9D020000 		.4byte	.LLST19
 5055 1d39 3E       		.uleb128 0x3e
 5056 1d3a FC020000 		.4byte	.LASF467
 5057 1d3e 01       		.byte	0x1
 5058 1d3f 3B01     		.2byte	0x13b
 5059 1d41 51060000 		.4byte	0x651
 5060 1d45 05       		.uleb128 0x5
 5061 1d46 03       		.byte	0x3
 5062 1d47 64010000 		.4byte	old_setting_value.19876
 5063 1d4b 00       		.byte	0
 5064 1d4c 34       		.uleb128 0x34
 5065 1d4d E8250000 		.4byte	.LASF468
 5066 1d51 01       		.byte	0x1
 5067 1d52 07       		.byte	0x7
 5068 1d53 6B060000 		.4byte	0x66b
 5069 1d57 05       		.uleb128 0x5
 5070 1d58 03       		.byte	0x3
 5071 1d59 01000000 		.4byte	device_rate_changed
 5072 1d5d 34       		.uleb128 0x34
 5073 1d5e 3E1B0000 		.4byte	.LASF469
 5074 1d62 01       		.byte	0x1
 5075 1d63 08       		.byte	0x8
 5076 1d64 21060000 		.4byte	0x621
 5077 1d68 05       		.uleb128 0x5
 5078 1d69 03       		.byte	0x3
 5079 1d6a 02000000 		.4byte	device_rate_setting
 5080 1d6e 34       		.uleb128 0x34
 5081 1d6f 67230000 		.4byte	.LASF470
 5082 1d73 01       		.byte	0x1
 5083 1d74 09       		.byte	0x9
 5084 1d75 39060000 		.4byte	0x639
 5085 1d79 05       		.uleb128 0x5
 5086 1d7a 03       		.byte	0x3
 5087 1d7b 54010000 		.4byte	interpolated_period
 5088 1d7f 34       		.uleb128 0x34
 5089 1d80 370C0000 		.4byte	.LASF471
 5090 1d84 01       		.byte	0x1
 5091 1d85 0A       		.byte	0xa
 5092 1d86 39060000 		.4byte	0x639
 5093 1d8a 05       		.uleb128 0x5
 5094 1d8b 03       		.byte	0x3
 5095 1d8c 58010000 		.4byte	sample_period
 5096 1d90 34       		.uleb128 0x34
 5097 1d91 13010000 		.4byte	.LASF472
 5098 1d95 01       		.byte	0x1
 5099 1d96 0B       		.byte	0xb
 5100 1d97 39060000 		.4byte	0x639
 5101 1d9b 05       		.uleb128 0x5
 5102 1d9c 03       		.byte	0x3
 5103 1d9d 68010000 		.4byte	interrupt_period
 5104 1da1 34       		.uleb128 0x34
 5105 1da2 E7170000 		.4byte	.LASF473
 5106 1da6 01       		.byte	0x1
ARM GAS  C:\Users\fiona\AppData\Local\Temp\ccJKYDXi.s 			page 108


 5107 1da7 0C       		.byte	0xc
 5108 1da8 F60A0000 		.4byte	0xaf6
 5109 1dac 05       		.uleb128 0x5
 5110 1dad 03       		.byte	0x3
 5111 1dae 04000000 		.4byte	register_setting
 5112 1db2 34       		.uleb128 0x34
 5113 1db3 6D250000 		.4byte	.LASF474
 5114 1db7 01       		.byte	0x1
 5115 1db8 0E       		.byte	0xe
 5116 1db9 6B060000 		.4byte	0x66b
 5117 1dbd 05       		.uleb128 0x5
 5118 1dbe 03       		.byte	0x3
 5119 1dbf 00000000 		.4byte	is_first_sample
 5120 1dc3 07       		.uleb128 0x7
 5121 1dc4 21060000 		.4byte	0x621
 5122 1dc8 D31D0000 		.4byte	0x1dd3
 5123 1dcc 08       		.uleb128 0x8
 5124 1dcd EF000000 		.4byte	0xef
 5125 1dd1 FF       		.byte	0xff
 5126 1dd2 00       		.byte	0
 5127 1dd3 34       		.uleb128 0x34
 5128 1dd4 861B0000 		.4byte	.LASF475
 5129 1dd8 01       		.byte	0x1
 5130 1dd9 0F       		.byte	0xf
 5131 1dda C31D0000 		.4byte	0x1dc3
 5132 1dde 05       		.uleb128 0x5
 5133 1ddf 03       		.byte	0x3
 5134 1de0 14000000 		.4byte	rbuff
 5135 1de4 34       		.uleb128 0x34
 5136 1de5 34240000 		.4byte	.LASF476
 5137 1de9 01       		.byte	0x1
 5138 1dea 10       		.byte	0x10
 5139 1deb DF1C0000 		.4byte	0x1cdf
 5140 1def 05       		.uleb128 0x5
 5141 1df0 03       		.byte	0x3
 5142 1df1 00000000 		.4byte	wbuff
 5143 1df5 34       		.uleb128 0x34
 5144 1df6 4C170000 		.4byte	.LASF477
 5145 1dfa 01       		.byte	0x1
 5146 1dfb 11       		.byte	0x11
 5147 1dfc 061E0000 		.4byte	0x1e06
 5148 1e00 05       		.uleb128 0x5
 5149 1e01 03       		.byte	0x3
 5150 1e02 4C010000 		.4byte	wsample
 5151 1e06 13       		.uleb128 0x13
 5152 1e07 04       		.byte	0x4
 5153 1e08 74150000 		.4byte	0x1574
 5154 1e0c 34       		.uleb128 0x34
 5155 1e0d 65180000 		.4byte	.LASF478
 5156 1e11 01       		.byte	0x1
 5157 1e12 12       		.byte	0x12
 5158 1e13 1D1E0000 		.4byte	0x1e1d
 5159 1e17 05       		.uleb128 0x5
 5160 1e18 03       		.byte	0x3
 5161 1e19 50010000 		.4byte	wsample_ptr
 5162 1e1d 13       		.uleb128 0x13
 5163 1e1e 04       		.byte	0x4
ARM GAS  C:\Users\fiona\AppData\Local\Temp\ccJKYDXi.s 			page 109


 5164 1e1f 21060000 		.4byte	0x621
 5165 1e23 25       		.uleb128 0x25
 5166 1e24 99180000 		.4byte	.LASF479
 5167 1e28 01       		.byte	0x1
 5168 1e29 13       		.byte	0x13
 5169 1e2a C9140000 		.4byte	0x14c9
 5170 1e2e 34       		.uleb128 0x34
 5171 1e2f 3B050000 		.4byte	.LASF480
 5172 1e33 01       		.byte	0x1
 5173 1e34 13       		.byte	0x13
 5174 1e35 C9140000 		.4byte	0x14c9
 5175 1e39 05       		.uleb128 0x5
 5176 1e3a 03       		.byte	0x3
 5177 1e3b 14010000 		.4byte	sample_new
 5178 1e3f 34       		.uleb128 0x34
 5179 1e40 C60D0000 		.4byte	.LASF481
 5180 1e44 01       		.byte	0x1
 5181 1e45 13       		.byte	0x13
 5182 1e46 C9140000 		.4byte	0x14c9
 5183 1e4a 05       		.uleb128 0x5
 5184 1e4b 03       		.byte	0x3
 5185 1e4c 34010000 		.4byte	interpolated
 5186 1e50 34       		.uleb128 0x34
 5187 1e51 F6020000 		.4byte	.LASF482
 5188 1e55 01       		.byte	0x1
 5189 1e56 14       		.byte	0x14
 5190 1e57 21060000 		.4byte	0x621
 5191 1e5b 05       		.uleb128 0x5
 5192 1e5c 03       		.byte	0x3
 5193 1e5d 2C010000 		.4byte	x_msb
 5194 1e61 34       		.uleb128 0x34
 5195 1e62 A2210000 		.4byte	.LASF483
 5196 1e66 01       		.byte	0x1
 5197 1e67 14       		.byte	0x14
 5198 1e68 21060000 		.4byte	0x621
 5199 1e6c 05       		.uleb128 0x5
 5200 1e6d 03       		.byte	0x3
 5201 1e6e 2D010000 		.4byte	x_lsb
 5202 1e72 34       		.uleb128 0x34
 5203 1e73 91200000 		.4byte	.LASF484
 5204 1e77 01       		.byte	0x1
 5205 1e78 14       		.byte	0x14
 5206 1e79 21060000 		.4byte	0x621
 5207 1e7d 05       		.uleb128 0x5
 5208 1e7e 03       		.byte	0x3
 5209 1e7f 2E010000 		.4byte	y_msb
 5210 1e83 34       		.uleb128 0x34
 5211 1e84 471C0000 		.4byte	.LASF485
 5212 1e88 01       		.byte	0x1
 5213 1e89 14       		.byte	0x14
 5214 1e8a 21060000 		.4byte	0x621
 5215 1e8e 05       		.uleb128 0x5
 5216 1e8f 03       		.byte	0x3
 5217 1e90 2F010000 		.4byte	y_lsb
 5218 1e94 34       		.uleb128 0x34
 5219 1e95 171E0000 		.4byte	.LASF486
 5220 1e99 01       		.byte	0x1
ARM GAS  C:\Users\fiona\AppData\Local\Temp\ccJKYDXi.s 			page 110


 5221 1e9a 14       		.byte	0x14
 5222 1e9b 21060000 		.4byte	0x621
 5223 1e9f 05       		.uleb128 0x5
 5224 1ea0 03       		.byte	0x3
 5225 1ea1 30010000 		.4byte	z_msb
 5226 1ea5 34       		.uleb128 0x34
 5227 1ea6 4B150000 		.4byte	.LASF487
 5228 1eaa 01       		.byte	0x1
 5229 1eab 14       		.byte	0x14
 5230 1eac 21060000 		.4byte	0x621
 5231 1eb0 05       		.uleb128 0x5
 5232 1eb1 03       		.byte	0x3
 5233 1eb2 31010000 		.4byte	z_lsb
 5234 1eb6 07       		.uleb128 0x7
 5235 1eb7 53120000 		.4byte	0x1253
 5236 1ebb C61E0000 		.4byte	0x1ec6
 5237 1ebf 08       		.uleb128 0x8
 5238 1ec0 EF000000 		.4byte	0xef
 5239 1ec4 0B       		.byte	0xb
 5240 1ec5 00       		.byte	0
 5241 1ec6 3F       		.uleb128 0x3f
 5242 1ec7 45230000 		.4byte	.LASF488
 5243 1ecb 13       		.byte	0x13
 5244 1ecc FC02     		.2byte	0x2fc
 5245 1ece D21E0000 		.4byte	0x1ed2
 5246 1ed2 06       		.uleb128 0x6
 5247 1ed3 B61E0000 		.4byte	0x1eb6
 5248 1ed7 3F       		.uleb128 0x3f
 5249 1ed8 D2210000 		.4byte	.LASF489
 5250 1edc 0E       		.byte	0xe
 5251 1edd 2202     		.2byte	0x222
 5252 1edf AD120000 		.4byte	0x12ad
 5253 1ee3 07       		.uleb128 0x7
 5254 1ee4 7C120000 		.4byte	0x127c
 5255 1ee8 F31E0000 		.4byte	0x1ef3
 5256 1eec 08       		.uleb128 0x8
 5257 1eed EF000000 		.4byte	0xef
 5258 1ef1 00       		.byte	0
 5259 1ef2 00       		.byte	0
 5260 1ef3 3F       		.uleb128 0x3f
 5261 1ef4 610A0000 		.4byte	.LASF490
 5262 1ef8 0E       		.byte	0xe
 5263 1ef9 2C02     		.2byte	0x22c
 5264 1efb E31E0000 		.4byte	0x1ee3
 5265 1eff 07       		.uleb128 0x7
 5266 1f00 F5120000 		.4byte	0x12f5
 5267 1f04 0F1F0000 		.4byte	0x1f0f
 5268 1f08 08       		.uleb128 0x8
 5269 1f09 EF000000 		.4byte	0xef
 5270 1f0d 00       		.byte	0
 5271 1f0e 00       		.byte	0
 5272 1f0f 3F       		.uleb128 0x3f
 5273 1f10 07210000 		.4byte	.LASF491
 5274 1f14 0E       		.byte	0xe
 5275 1f15 2D02     		.2byte	0x22d
 5276 1f17 FF1E0000 		.4byte	0x1eff
 5277 1f1b 3F       		.uleb128 0x3f
ARM GAS  C:\Users\fiona\AppData\Local\Temp\ccJKYDXi.s 			page 111


 5278 1f1c 37070000 		.4byte	.LASF492
 5279 1f20 0E       		.byte	0xe
 5280 1f21 5202     		.2byte	0x252
 5281 1f23 AD000000 		.4byte	0xad
 5282 1f27 40       		.uleb128 0x40
 5283 1f28 18070000 		.4byte	.LASF493
 5284 1f2c 14       		.byte	0x14
 5285 1f2d 86       		.byte	0x86
 5286 1f2e 321F0000 		.4byte	0x1f32
 5287 1f32 06       		.uleb128 0x6
 5288 1f33 230D0000 		.4byte	0xd23
 5289 1f37 40       		.uleb128 0x40
 5290 1f38 86180000 		.4byte	.LASF494
 5291 1f3c 14       		.byte	0x14
 5292 1f3d 87       		.byte	0x87
 5293 1f3e F30D0000 		.4byte	0xdf3
 5294 1f42 40       		.uleb128 0x40
 5295 1f43 1B230000 		.4byte	.LASF495
 5296 1f47 02       		.byte	0x2
 5297 1f48 7F       		.byte	0x7f
 5298 1f49 A80A0000 		.4byte	0xaa8
 5299 1f4d 40       		.uleb128 0x40
 5300 1f4e D60C0000 		.4byte	.LASF496
 5301 1f52 15       		.byte	0x15
 5302 1f53 1F       		.byte	0x1f
 5303 1f54 581F0000 		.4byte	0x1f58
 5304 1f58 06       		.uleb128 0x6
 5305 1f59 A7080000 		.4byte	0x8a7
 5306 1f5d 40       		.uleb128 0x40
 5307 1f5e 4F010000 		.4byte	.LASF497
 5308 1f62 16       		.byte	0x16
 5309 1f63 1F       		.byte	0x1f
 5310 1f64 581F0000 		.4byte	0x1f58
 5311 1f68 40       		.uleb128 0x40
 5312 1f69 AD070000 		.4byte	.LASF498
 5313 1f6d 17       		.byte	0x17
 5314 1f6e 1F       		.byte	0x1f
 5315 1f6f 731F0000 		.4byte	0x1f73
 5316 1f73 06       		.uleb128 0x6
 5317 1f74 63070000 		.4byte	0x763
 5318 1f78 40       		.uleb128 0x40
 5319 1f79 76190000 		.4byte	.LASF499
 5320 1f7d 18       		.byte	0x18
 5321 1f7e 1F       		.byte	0x1f
 5322 1f7f 581F0000 		.4byte	0x1f58
 5323 1f83 40       		.uleb128 0x40
 5324 1f84 BC050000 		.4byte	.LASF500
 5325 1f88 19       		.byte	0x19
 5326 1f89 1F       		.byte	0x1f
 5327 1f8a 581F0000 		.4byte	0x1f58
 5328 1f8e 40       		.uleb128 0x40
 5329 1f8f 241C0000 		.4byte	.LASF501
 5330 1f93 1A       		.byte	0x1a
 5331 1f94 1F       		.byte	0x1f
 5332 1f95 731F0000 		.4byte	0x1f73
 5333 1f99 40       		.uleb128 0x40
 5334 1f9a 0A040000 		.4byte	.LASF502
ARM GAS  C:\Users\fiona\AppData\Local\Temp\ccJKYDXi.s 			page 112


 5335 1f9e 1B       		.byte	0x1b
 5336 1f9f 1F       		.byte	0x1f
 5337 1fa0 581F0000 		.4byte	0x1f58
 5338 1fa4 40       		.uleb128 0x40
 5339 1fa5 980B0000 		.4byte	.LASF503
 5340 1fa9 1C       		.byte	0x1c
 5341 1faa 1F       		.byte	0x1f
 5342 1fab 731F0000 		.4byte	0x1f73
 5343 1faf 3F       		.uleb128 0x3f
 5344 1fb0 361D0000 		.4byte	.LASF504
 5345 1fb4 0F       		.byte	0xf
 5346 1fb5 6001     		.2byte	0x160
 5347 1fb7 D9000000 		.4byte	0xd9
 5348 1fbb 07       		.uleb128 0x7
 5349 1fbc CB1F0000 		.4byte	0x1fcb
 5350 1fc0 CB1F0000 		.4byte	0x1fcb
 5351 1fc4 08       		.uleb128 0x8
 5352 1fc5 EF000000 		.4byte	0xef
 5353 1fc9 00       		.byte	0
 5354 1fca 00       		.byte	0
 5355 1fcb 06       		.uleb128 0x6
 5356 1fcc 50130000 		.4byte	0x1350
 5357 1fd0 3F       		.uleb128 0x3f
 5358 1fd1 CC1C0000 		.4byte	.LASF505
 5359 1fd5 0F       		.byte	0xf
 5360 1fd6 6401     		.2byte	0x164
 5361 1fd8 DC1F0000 		.4byte	0x1fdc
 5362 1fdc 06       		.uleb128 0x6
 5363 1fdd BB1F0000 		.4byte	0x1fbb
 5364 1fe1 07       		.uleb128 0x7
 5365 1fe2 39060000 		.4byte	0x639
 5366 1fe6 F11F0000 		.4byte	0x1ff1
 5367 1fea 08       		.uleb128 0x8
 5368 1feb EF000000 		.4byte	0xef
 5369 1fef 09       		.byte	0x9
 5370 1ff0 00       		.byte	0
 5371 1ff1 41       		.uleb128 0x41
 5372 1ff2 27080000 		.4byte	.LASF506
 5373 1ff6 12       		.byte	0x12
 5374 1ff7 0D       		.byte	0xd
 5375 1ff8 E11F0000 		.4byte	0x1fe1
 5376 1ffc 05       		.uleb128 0x5
 5377 1ffd 03       		.byte	0x3
 5378 1ffe 00000000 		.4byte	numerators
 5379 2002 41       		.uleb128 0x41
 5380 2003 3E160000 		.4byte	.LASF507
 5381 2007 12       		.byte	0x12
 5382 2008 0E       		.byte	0xe
 5383 2009 E11F0000 		.4byte	0x1fe1
 5384 200d 05       		.uleb128 0x5
 5385 200e 03       		.byte	0x3
 5386 200f 00000000 		.4byte	denominators
 5387 2013 42       		.uleb128 0x42
 5388 2014 BE190000 		.4byte	.LASF508
 5389 2018 BE190000 		.4byte	.LASF508
 5390 201c 09       		.byte	0x9
 5391 201d DD02     		.2byte	0x2dd
ARM GAS  C:\Users\fiona\AppData\Local\Temp\ccJKYDXi.s 			page 113


 5392 201f 42       		.uleb128 0x42
 5393 2020 380B0000 		.4byte	.LASF509
 5394 2024 380B0000 		.4byte	.LASF509
 5395 2028 09       		.byte	0x9
 5396 2029 E302     		.2byte	0x2e3
 5397 202b 42       		.uleb128 0x42
 5398 202c 47270000 		.4byte	.LASF510
 5399 2030 47270000 		.4byte	.LASF510
 5400 2034 09       		.byte	0x9
 5401 2035 E002     		.2byte	0x2e0
 5402 2037 42       		.uleb128 0x42
 5403 2038 6A200000 		.4byte	.LASF511
 5404 203c 6A200000 		.4byte	.LASF511
 5405 2040 06       		.byte	0x6
 5406 2041 2203     		.2byte	0x322
 5407 2043 43       		.uleb128 0x43
 5408 2044 FA000000 		.4byte	.LASF512
 5409 2048 FA000000 		.4byte	.LASF512
 5410 204c 12       		.byte	0x12
 5411 204d 93       		.byte	0x93
 5412 204e 43       		.uleb128 0x43
 5413 204f 5B260000 		.4byte	.LASF513
 5414 2053 5B260000 		.4byte	.LASF513
 5415 2057 12       		.byte	0x12
 5416 2058 94       		.byte	0x94
 5417 2059 42       		.uleb128 0x42
 5418 205a B5270000 		.4byte	.LASF514
 5419 205e B5270000 		.4byte	.LASF514
 5420 2062 06       		.byte	0x6
 5421 2063 2103     		.2byte	0x321
 5422 2065 43       		.uleb128 0x43
 5423 2066 1D1E0000 		.4byte	.LASF515
 5424 206a 1D1E0000 		.4byte	.LASF515
 5425 206e 1D       		.byte	0x1d
 5426 206f 64       		.byte	0x64
 5427 2070 00       		.byte	0
 5428              		.section	.debug_abbrev,"",%progbits
 5429              	.Ldebug_abbrev0:
 5430 0000 01       		.uleb128 0x1
 5431 0001 11       		.uleb128 0x11
 5432 0002 01       		.byte	0x1
 5433 0003 25       		.uleb128 0x25
 5434 0004 0E       		.uleb128 0xe
 5435 0005 13       		.uleb128 0x13
 5436 0006 0B       		.uleb128 0xb
 5437 0007 03       		.uleb128 0x3
 5438 0008 0E       		.uleb128 0xe
 5439 0009 1B       		.uleb128 0x1b
 5440 000a 0E       		.uleb128 0xe
 5441 000b 55       		.uleb128 0x55
 5442 000c 17       		.uleb128 0x17
 5443 000d 11       		.uleb128 0x11
 5444 000e 01       		.uleb128 0x1
 5445 000f 10       		.uleb128 0x10
 5446 0010 17       		.uleb128 0x17
 5447 0011 00       		.byte	0
 5448 0012 00       		.byte	0
ARM GAS  C:\Users\fiona\AppData\Local\Temp\ccJKYDXi.s 			page 114


 5449 0013 02       		.uleb128 0x2
 5450 0014 24       		.uleb128 0x24
 5451 0015 00       		.byte	0
 5452 0016 0B       		.uleb128 0xb
 5453 0017 0B       		.uleb128 0xb
 5454 0018 3E       		.uleb128 0x3e
 5455 0019 0B       		.uleb128 0xb
 5456 001a 03       		.uleb128 0x3
 5457 001b 0E       		.uleb128 0xe
 5458 001c 00       		.byte	0
 5459 001d 00       		.byte	0
 5460 001e 03       		.uleb128 0x3
 5461 001f 16       		.uleb128 0x16
 5462 0020 00       		.byte	0
 5463 0021 03       		.uleb128 0x3
 5464 0022 0E       		.uleb128 0xe
 5465 0023 3A       		.uleb128 0x3a
 5466 0024 0B       		.uleb128 0xb
 5467 0025 3B       		.uleb128 0x3b
 5468 0026 0B       		.uleb128 0xb
 5469 0027 49       		.uleb128 0x49
 5470 0028 13       		.uleb128 0x13
 5471 0029 00       		.byte	0
 5472 002a 00       		.byte	0
 5473 002b 04       		.uleb128 0x4
 5474 002c 24       		.uleb128 0x24
 5475 002d 00       		.byte	0
 5476 002e 0B       		.uleb128 0xb
 5477 002f 0B       		.uleb128 0xb
 5478 0030 3E       		.uleb128 0x3e
 5479 0031 0B       		.uleb128 0xb
 5480 0032 03       		.uleb128 0x3
 5481 0033 08       		.uleb128 0x8
 5482 0034 00       		.byte	0
 5483 0035 00       		.byte	0
 5484 0036 05       		.uleb128 0x5
 5485 0037 35       		.uleb128 0x35
 5486 0038 00       		.byte	0
 5487 0039 49       		.uleb128 0x49
 5488 003a 13       		.uleb128 0x13
 5489 003b 00       		.byte	0
 5490 003c 00       		.byte	0
 5491 003d 06       		.uleb128 0x6
 5492 003e 26       		.uleb128 0x26
 5493 003f 00       		.byte	0
 5494 0040 49       		.uleb128 0x49
 5495 0041 13       		.uleb128 0x13
 5496 0042 00       		.byte	0
 5497 0043 00       		.byte	0
 5498 0044 07       		.uleb128 0x7
 5499 0045 01       		.uleb128 0x1
 5500 0046 01       		.byte	0x1
 5501 0047 49       		.uleb128 0x49
 5502 0048 13       		.uleb128 0x13
 5503 0049 01       		.uleb128 0x1
 5504 004a 13       		.uleb128 0x13
 5505 004b 00       		.byte	0
ARM GAS  C:\Users\fiona\AppData\Local\Temp\ccJKYDXi.s 			page 115


 5506 004c 00       		.byte	0
 5507 004d 08       		.uleb128 0x8
 5508 004e 21       		.uleb128 0x21
 5509 004f 00       		.byte	0
 5510 0050 49       		.uleb128 0x49
 5511 0051 13       		.uleb128 0x13
 5512 0052 2F       		.uleb128 0x2f
 5513 0053 0B       		.uleb128 0xb
 5514 0054 00       		.byte	0
 5515 0055 00       		.byte	0
 5516 0056 09       		.uleb128 0x9
 5517 0057 13       		.uleb128 0x13
 5518 0058 01       		.byte	0x1
 5519 0059 0B       		.uleb128 0xb
 5520 005a 05       		.uleb128 0x5
 5521 005b 3A       		.uleb128 0x3a
 5522 005c 0B       		.uleb128 0xb
 5523 005d 3B       		.uleb128 0x3b
 5524 005e 0B       		.uleb128 0xb
 5525 005f 01       		.uleb128 0x1
 5526 0060 13       		.uleb128 0x13
 5527 0061 00       		.byte	0
 5528 0062 00       		.byte	0
 5529 0063 0A       		.uleb128 0xa
 5530 0064 0D       		.uleb128 0xd
 5531 0065 00       		.byte	0
 5532 0066 03       		.uleb128 0x3
 5533 0067 0E       		.uleb128 0xe
 5534 0068 3A       		.uleb128 0x3a
 5535 0069 0B       		.uleb128 0xb
 5536 006a 3B       		.uleb128 0x3b
 5537 006b 0B       		.uleb128 0xb
 5538 006c 49       		.uleb128 0x49
 5539 006d 13       		.uleb128 0x13
 5540 006e 38       		.uleb128 0x38
 5541 006f 0B       		.uleb128 0xb
 5542 0070 00       		.byte	0
 5543 0071 00       		.byte	0
 5544 0072 0B       		.uleb128 0xb
 5545 0073 0D       		.uleb128 0xd
 5546 0074 00       		.byte	0
 5547 0075 03       		.uleb128 0x3
 5548 0076 0E       		.uleb128 0xe
 5549 0077 3A       		.uleb128 0x3a
 5550 0078 0B       		.uleb128 0xb
 5551 0079 3B       		.uleb128 0x3b
 5552 007a 0B       		.uleb128 0xb
 5553 007b 49       		.uleb128 0x49
 5554 007c 13       		.uleb128 0x13
 5555 007d 38       		.uleb128 0x38
 5556 007e 05       		.uleb128 0x5
 5557 007f 00       		.byte	0
 5558 0080 00       		.byte	0
 5559 0081 0C       		.uleb128 0xc
 5560 0082 21       		.uleb128 0x21
 5561 0083 00       		.byte	0
 5562 0084 49       		.uleb128 0x49
ARM GAS  C:\Users\fiona\AppData\Local\Temp\ccJKYDXi.s 			page 116


 5563 0085 13       		.uleb128 0x13
 5564 0086 2F       		.uleb128 0x2f
 5565 0087 05       		.uleb128 0x5
 5566 0088 00       		.byte	0
 5567 0089 00       		.byte	0
 5568 008a 0D       		.uleb128 0xd
 5569 008b 16       		.uleb128 0x16
 5570 008c 00       		.byte	0
 5571 008d 03       		.uleb128 0x3
 5572 008e 0E       		.uleb128 0xe
 5573 008f 3A       		.uleb128 0x3a
 5574 0090 0B       		.uleb128 0xb
 5575 0091 3B       		.uleb128 0x3b
 5576 0092 05       		.uleb128 0x5
 5577 0093 49       		.uleb128 0x49
 5578 0094 13       		.uleb128 0x13
 5579 0095 00       		.byte	0
 5580 0096 00       		.byte	0
 5581 0097 0E       		.uleb128 0xe
 5582 0098 0F       		.uleb128 0xf
 5583 0099 00       		.byte	0
 5584 009a 0B       		.uleb128 0xb
 5585 009b 0B       		.uleb128 0xb
 5586 009c 00       		.byte	0
 5587 009d 00       		.byte	0
 5588 009e 0F       		.uleb128 0xf
 5589 009f 13       		.uleb128 0x13
 5590 00a0 01       		.byte	0x1
 5591 00a1 03       		.uleb128 0x3
 5592 00a2 0E       		.uleb128 0xe
 5593 00a3 0B       		.uleb128 0xb
 5594 00a4 0B       		.uleb128 0xb
 5595 00a5 3A       		.uleb128 0x3a
 5596 00a6 0B       		.uleb128 0xb
 5597 00a7 3B       		.uleb128 0x3b
 5598 00a8 0B       		.uleb128 0xb
 5599 00a9 01       		.uleb128 0x1
 5600 00aa 13       		.uleb128 0x13
 5601 00ab 00       		.byte	0
 5602 00ac 00       		.byte	0
 5603 00ad 10       		.uleb128 0x10
 5604 00ae 04       		.uleb128 0x4
 5605 00af 01       		.byte	0x1
 5606 00b0 0B       		.uleb128 0xb
 5607 00b1 0B       		.uleb128 0xb
 5608 00b2 49       		.uleb128 0x49
 5609 00b3 13       		.uleb128 0x13
 5610 00b4 3A       		.uleb128 0x3a
 5611 00b5 0B       		.uleb128 0xb
 5612 00b6 3B       		.uleb128 0x3b
 5613 00b7 05       		.uleb128 0x5
 5614 00b8 01       		.uleb128 0x1
 5615 00b9 13       		.uleb128 0x13
 5616 00ba 00       		.byte	0
 5617 00bb 00       		.byte	0
 5618 00bc 11       		.uleb128 0x11
 5619 00bd 28       		.uleb128 0x28
ARM GAS  C:\Users\fiona\AppData\Local\Temp\ccJKYDXi.s 			page 117


 5620 00be 00       		.byte	0
 5621 00bf 03       		.uleb128 0x3
 5622 00c0 0E       		.uleb128 0xe
 5623 00c1 1C       		.uleb128 0x1c
 5624 00c2 0B       		.uleb128 0xb
 5625 00c3 00       		.byte	0
 5626 00c4 00       		.byte	0
 5627 00c5 12       		.uleb128 0x12
 5628 00c6 28       		.uleb128 0x28
 5629 00c7 00       		.byte	0
 5630 00c8 03       		.uleb128 0x3
 5631 00c9 0E       		.uleb128 0xe
 5632 00ca 1C       		.uleb128 0x1c
 5633 00cb 06       		.uleb128 0x6
 5634 00cc 00       		.byte	0
 5635 00cd 00       		.byte	0
 5636 00ce 13       		.uleb128 0x13
 5637 00cf 0F       		.uleb128 0xf
 5638 00d0 00       		.byte	0
 5639 00d1 0B       		.uleb128 0xb
 5640 00d2 0B       		.uleb128 0xb
 5641 00d3 49       		.uleb128 0x49
 5642 00d4 13       		.uleb128 0x13
 5643 00d5 00       		.byte	0
 5644 00d6 00       		.byte	0
 5645 00d7 14       		.uleb128 0x14
 5646 00d8 15       		.uleb128 0x15
 5647 00d9 01       		.byte	0x1
 5648 00da 27       		.uleb128 0x27
 5649 00db 19       		.uleb128 0x19
 5650 00dc 01       		.uleb128 0x1
 5651 00dd 13       		.uleb128 0x13
 5652 00de 00       		.byte	0
 5653 00df 00       		.byte	0
 5654 00e0 15       		.uleb128 0x15
 5655 00e1 05       		.uleb128 0x5
 5656 00e2 00       		.byte	0
 5657 00e3 49       		.uleb128 0x49
 5658 00e4 13       		.uleb128 0x13
 5659 00e5 00       		.byte	0
 5660 00e6 00       		.byte	0
 5661 00e7 16       		.uleb128 0x16
 5662 00e8 15       		.uleb128 0x15
 5663 00e9 01       		.byte	0x1
 5664 00ea 27       		.uleb128 0x27
 5665 00eb 19       		.uleb128 0x19
 5666 00ec 49       		.uleb128 0x49
 5667 00ed 13       		.uleb128 0x13
 5668 00ee 01       		.uleb128 0x1
 5669 00ef 13       		.uleb128 0x13
 5670 00f0 00       		.byte	0
 5671 00f1 00       		.byte	0
 5672 00f2 17       		.uleb128 0x17
 5673 00f3 13       		.uleb128 0x13
 5674 00f4 01       		.byte	0x1
 5675 00f5 03       		.uleb128 0x3
 5676 00f6 0E       		.uleb128 0xe
ARM GAS  C:\Users\fiona\AppData\Local\Temp\ccJKYDXi.s 			page 118


 5677 00f7 0B       		.uleb128 0xb
 5678 00f8 0B       		.uleb128 0xb
 5679 00f9 3A       		.uleb128 0x3a
 5680 00fa 0B       		.uleb128 0xb
 5681 00fb 3B       		.uleb128 0x3b
 5682 00fc 05       		.uleb128 0x5
 5683 00fd 01       		.uleb128 0x1
 5684 00fe 13       		.uleb128 0x13
 5685 00ff 00       		.byte	0
 5686 0100 00       		.byte	0
 5687 0101 18       		.uleb128 0x18
 5688 0102 0D       		.uleb128 0xd
 5689 0103 00       		.byte	0
 5690 0104 03       		.uleb128 0x3
 5691 0105 0E       		.uleb128 0xe
 5692 0106 3A       		.uleb128 0x3a
 5693 0107 0B       		.uleb128 0xb
 5694 0108 3B       		.uleb128 0x3b
 5695 0109 05       		.uleb128 0x5
 5696 010a 49       		.uleb128 0x49
 5697 010b 13       		.uleb128 0x13
 5698 010c 38       		.uleb128 0x38
 5699 010d 0B       		.uleb128 0xb
 5700 010e 00       		.byte	0
 5701 010f 00       		.byte	0
 5702 0110 19       		.uleb128 0x19
 5703 0111 13       		.uleb128 0x13
 5704 0112 01       		.byte	0x1
 5705 0113 0B       		.uleb128 0xb
 5706 0114 0B       		.uleb128 0xb
 5707 0115 3A       		.uleb128 0x3a
 5708 0116 0B       		.uleb128 0xb
 5709 0117 3B       		.uleb128 0x3b
 5710 0118 05       		.uleb128 0x5
 5711 0119 01       		.uleb128 0x1
 5712 011a 13       		.uleb128 0x13
 5713 011b 00       		.byte	0
 5714 011c 00       		.byte	0
 5715 011d 1A       		.uleb128 0x1a
 5716 011e 28       		.uleb128 0x28
 5717 011f 00       		.byte	0
 5718 0120 03       		.uleb128 0x3
 5719 0121 0E       		.uleb128 0xe
 5720 0122 1C       		.uleb128 0x1c
 5721 0123 05       		.uleb128 0x5
 5722 0124 00       		.byte	0
 5723 0125 00       		.byte	0
 5724 0126 1B       		.uleb128 0x1b
 5725 0127 04       		.uleb128 0x4
 5726 0128 01       		.byte	0x1
 5727 0129 0B       		.uleb128 0xb
 5728 012a 0B       		.uleb128 0xb
 5729 012b 49       		.uleb128 0x49
 5730 012c 13       		.uleb128 0x13
 5731 012d 3A       		.uleb128 0x3a
 5732 012e 0B       		.uleb128 0xb
 5733 012f 3B       		.uleb128 0x3b
ARM GAS  C:\Users\fiona\AppData\Local\Temp\ccJKYDXi.s 			page 119


 5734 0130 0B       		.uleb128 0xb
 5735 0131 01       		.uleb128 0x1
 5736 0132 13       		.uleb128 0x13
 5737 0133 00       		.byte	0
 5738 0134 00       		.byte	0
 5739 0135 1C       		.uleb128 0x1c
 5740 0136 13       		.uleb128 0x13
 5741 0137 01       		.byte	0x1
 5742 0138 0B       		.uleb128 0xb
 5743 0139 0B       		.uleb128 0xb
 5744 013a 3A       		.uleb128 0x3a
 5745 013b 0B       		.uleb128 0xb
 5746 013c 3B       		.uleb128 0x3b
 5747 013d 0B       		.uleb128 0xb
 5748 013e 01       		.uleb128 0x1
 5749 013f 13       		.uleb128 0x13
 5750 0140 00       		.byte	0
 5751 0141 00       		.byte	0
 5752 0142 1D       		.uleb128 0x1d
 5753 0143 0D       		.uleb128 0xd
 5754 0144 00       		.byte	0
 5755 0145 03       		.uleb128 0x3
 5756 0146 08       		.uleb128 0x8
 5757 0147 3A       		.uleb128 0x3a
 5758 0148 0B       		.uleb128 0xb
 5759 0149 3B       		.uleb128 0x3b
 5760 014a 0B       		.uleb128 0xb
 5761 014b 49       		.uleb128 0x49
 5762 014c 13       		.uleb128 0x13
 5763 014d 38       		.uleb128 0x38
 5764 014e 0B       		.uleb128 0xb
 5765 014f 00       		.byte	0
 5766 0150 00       		.byte	0
 5767 0151 1E       		.uleb128 0x1e
 5768 0152 04       		.uleb128 0x4
 5769 0153 01       		.byte	0x1
 5770 0154 03       		.uleb128 0x3
 5771 0155 0E       		.uleb128 0xe
 5772 0156 0B       		.uleb128 0xb
 5773 0157 0B       		.uleb128 0xb
 5774 0158 49       		.uleb128 0x49
 5775 0159 13       		.uleb128 0x13
 5776 015a 3A       		.uleb128 0x3a
 5777 015b 0B       		.uleb128 0xb
 5778 015c 3B       		.uleb128 0x3b
 5779 015d 0B       		.uleb128 0xb
 5780 015e 01       		.uleb128 0x1
 5781 015f 13       		.uleb128 0x13
 5782 0160 00       		.byte	0
 5783 0161 00       		.byte	0
 5784 0162 1F       		.uleb128 0x1f
 5785 0163 28       		.uleb128 0x28
 5786 0164 00       		.byte	0
 5787 0165 03       		.uleb128 0x3
 5788 0166 08       		.uleb128 0x8
 5789 0167 1C       		.uleb128 0x1c
 5790 0168 0B       		.uleb128 0xb
ARM GAS  C:\Users\fiona\AppData\Local\Temp\ccJKYDXi.s 			page 120


 5791 0169 00       		.byte	0
 5792 016a 00       		.byte	0
 5793 016b 20       		.uleb128 0x20
 5794 016c 2E       		.uleb128 0x2e
 5795 016d 01       		.byte	0x1
 5796 016e 03       		.uleb128 0x3
 5797 016f 0E       		.uleb128 0xe
 5798 0170 3A       		.uleb128 0x3a
 5799 0171 0B       		.uleb128 0xb
 5800 0172 3B       		.uleb128 0x3b
 5801 0173 05       		.uleb128 0x5
 5802 0174 27       		.uleb128 0x27
 5803 0175 19       		.uleb128 0x19
 5804 0176 49       		.uleb128 0x49
 5805 0177 13       		.uleb128 0x13
 5806 0178 20       		.uleb128 0x20
 5807 0179 0B       		.uleb128 0xb
 5808 017a 01       		.uleb128 0x1
 5809 017b 13       		.uleb128 0x13
 5810 017c 00       		.byte	0
 5811 017d 00       		.byte	0
 5812 017e 21       		.uleb128 0x21
 5813 017f 05       		.uleb128 0x5
 5814 0180 00       		.byte	0
 5815 0181 03       		.uleb128 0x3
 5816 0182 0E       		.uleb128 0xe
 5817 0183 3A       		.uleb128 0x3a
 5818 0184 0B       		.uleb128 0xb
 5819 0185 3B       		.uleb128 0x3b
 5820 0186 05       		.uleb128 0x5
 5821 0187 49       		.uleb128 0x49
 5822 0188 13       		.uleb128 0x13
 5823 0189 00       		.byte	0
 5824 018a 00       		.byte	0
 5825 018b 22       		.uleb128 0x22
 5826 018c 2E       		.uleb128 0x2e
 5827 018d 00       		.byte	0
 5828 018e 03       		.uleb128 0x3
 5829 018f 0E       		.uleb128 0xe
 5830 0190 3A       		.uleb128 0x3a
 5831 0191 0B       		.uleb128 0xb
 5832 0192 3B       		.uleb128 0x3b
 5833 0193 05       		.uleb128 0x5
 5834 0194 27       		.uleb128 0x27
 5835 0195 19       		.uleb128 0x19
 5836 0196 49       		.uleb128 0x49
 5837 0197 13       		.uleb128 0x13
 5838 0198 20       		.uleb128 0x20
 5839 0199 0B       		.uleb128 0xb
 5840 019a 00       		.byte	0
 5841 019b 00       		.byte	0
 5842 019c 23       		.uleb128 0x23
 5843 019d 2E       		.uleb128 0x2e
 5844 019e 01       		.byte	0x1
 5845 019f 03       		.uleb128 0x3
 5846 01a0 0E       		.uleb128 0xe
 5847 01a1 3A       		.uleb128 0x3a
ARM GAS  C:\Users\fiona\AppData\Local\Temp\ccJKYDXi.s 			page 121


 5848 01a2 0B       		.uleb128 0xb
 5849 01a3 3B       		.uleb128 0x3b
 5850 01a4 0B       		.uleb128 0xb
 5851 01a5 27       		.uleb128 0x27
 5852 01a6 19       		.uleb128 0x19
 5853 01a7 49       		.uleb128 0x49
 5854 01a8 13       		.uleb128 0x13
 5855 01a9 11       		.uleb128 0x11
 5856 01aa 01       		.uleb128 0x1
 5857 01ab 12       		.uleb128 0x12
 5858 01ac 06       		.uleb128 0x6
 5859 01ad 40       		.uleb128 0x40
 5860 01ae 18       		.uleb128 0x18
 5861 01af 9742     		.uleb128 0x2117
 5862 01b1 19       		.uleb128 0x19
 5863 01b2 01       		.uleb128 0x1
 5864 01b3 13       		.uleb128 0x13
 5865 01b4 00       		.byte	0
 5866 01b5 00       		.byte	0
 5867 01b6 24       		.uleb128 0x24
 5868 01b7 05       		.uleb128 0x5
 5869 01b8 00       		.byte	0
 5870 01b9 03       		.uleb128 0x3
 5871 01ba 0E       		.uleb128 0xe
 5872 01bb 3A       		.uleb128 0x3a
 5873 01bc 0B       		.uleb128 0xb
 5874 01bd 3B       		.uleb128 0x3b
 5875 01be 0B       		.uleb128 0xb
 5876 01bf 49       		.uleb128 0x49
 5877 01c0 13       		.uleb128 0x13
 5878 01c1 02       		.uleb128 0x2
 5879 01c2 17       		.uleb128 0x17
 5880 01c3 00       		.byte	0
 5881 01c4 00       		.byte	0
 5882 01c5 25       		.uleb128 0x25
 5883 01c6 34       		.uleb128 0x34
 5884 01c7 00       		.byte	0
 5885 01c8 03       		.uleb128 0x3
 5886 01c9 0E       		.uleb128 0xe
 5887 01ca 3A       		.uleb128 0x3a
 5888 01cb 0B       		.uleb128 0xb
 5889 01cc 3B       		.uleb128 0x3b
 5890 01cd 0B       		.uleb128 0xb
 5891 01ce 49       		.uleb128 0x49
 5892 01cf 13       		.uleb128 0x13
 5893 01d0 00       		.byte	0
 5894 01d1 00       		.byte	0
 5895 01d2 26       		.uleb128 0x26
 5896 01d3 34       		.uleb128 0x34
 5897 01d4 00       		.byte	0
 5898 01d5 03       		.uleb128 0x3
 5899 01d6 0E       		.uleb128 0xe
 5900 01d7 3A       		.uleb128 0x3a
 5901 01d8 0B       		.uleb128 0xb
 5902 01d9 3B       		.uleb128 0x3b
 5903 01da 0B       		.uleb128 0xb
 5904 01db 49       		.uleb128 0x49
ARM GAS  C:\Users\fiona\AppData\Local\Temp\ccJKYDXi.s 			page 122


 5905 01dc 13       		.uleb128 0x13
 5906 01dd 02       		.uleb128 0x2
 5907 01de 17       		.uleb128 0x17
 5908 01df 00       		.byte	0
 5909 01e0 00       		.byte	0
 5910 01e1 27       		.uleb128 0x27
 5911 01e2 1D       		.uleb128 0x1d
 5912 01e3 01       		.byte	0x1
 5913 01e4 31       		.uleb128 0x31
 5914 01e5 13       		.uleb128 0x13
 5915 01e6 11       		.uleb128 0x11
 5916 01e7 01       		.uleb128 0x1
 5917 01e8 12       		.uleb128 0x12
 5918 01e9 06       		.uleb128 0x6
 5919 01ea 58       		.uleb128 0x58
 5920 01eb 0B       		.uleb128 0xb
 5921 01ec 59       		.uleb128 0x59
 5922 01ed 0B       		.uleb128 0xb
 5923 01ee 01       		.uleb128 0x1
 5924 01ef 13       		.uleb128 0x13
 5925 01f0 00       		.byte	0
 5926 01f1 00       		.byte	0
 5927 01f2 28       		.uleb128 0x28
 5928 01f3 05       		.uleb128 0x5
 5929 01f4 00       		.byte	0
 5930 01f5 31       		.uleb128 0x31
 5931 01f6 13       		.uleb128 0x13
 5932 01f7 02       		.uleb128 0x2
 5933 01f8 17       		.uleb128 0x17
 5934 01f9 00       		.byte	0
 5935 01fa 00       		.byte	0
 5936 01fb 29       		.uleb128 0x29
 5937 01fc 898201   		.uleb128 0x4109
 5938 01ff 01       		.byte	0x1
 5939 0200 11       		.uleb128 0x11
 5940 0201 01       		.uleb128 0x1
 5941 0202 31       		.uleb128 0x31
 5942 0203 13       		.uleb128 0x13
 5943 0204 00       		.byte	0
 5944 0205 00       		.byte	0
 5945 0206 2A       		.uleb128 0x2a
 5946 0207 8A8201   		.uleb128 0x410a
 5947 020a 00       		.byte	0
 5948 020b 02       		.uleb128 0x2
 5949 020c 18       		.uleb128 0x18
 5950 020d 9142     		.uleb128 0x2111
 5951 020f 18       		.uleb128 0x18
 5952 0210 00       		.byte	0
 5953 0211 00       		.byte	0
 5954 0212 2B       		.uleb128 0x2b
 5955 0213 898201   		.uleb128 0x4109
 5956 0216 01       		.byte	0x1
 5957 0217 11       		.uleb128 0x11
 5958 0218 01       		.uleb128 0x1
 5959 0219 31       		.uleb128 0x31
 5960 021a 13       		.uleb128 0x13
 5961 021b 01       		.uleb128 0x1
ARM GAS  C:\Users\fiona\AppData\Local\Temp\ccJKYDXi.s 			page 123


 5962 021c 13       		.uleb128 0x13
 5963 021d 00       		.byte	0
 5964 021e 00       		.byte	0
 5965 021f 2C       		.uleb128 0x2c
 5966 0220 2E       		.uleb128 0x2e
 5967 0221 01       		.byte	0x1
 5968 0222 03       		.uleb128 0x3
 5969 0223 0E       		.uleb128 0xe
 5970 0224 3A       		.uleb128 0x3a
 5971 0225 0B       		.uleb128 0xb
 5972 0226 3B       		.uleb128 0x3b
 5973 0227 0B       		.uleb128 0xb
 5974 0228 27       		.uleb128 0x27
 5975 0229 19       		.uleb128 0x19
 5976 022a 11       		.uleb128 0x11
 5977 022b 01       		.uleb128 0x1
 5978 022c 12       		.uleb128 0x12
 5979 022d 06       		.uleb128 0x6
 5980 022e 40       		.uleb128 0x40
 5981 022f 18       		.uleb128 0x18
 5982 0230 9742     		.uleb128 0x2117
 5983 0232 19       		.uleb128 0x19
 5984 0233 01       		.uleb128 0x1
 5985 0234 13       		.uleb128 0x13
 5986 0235 00       		.byte	0
 5987 0236 00       		.byte	0
 5988 0237 2D       		.uleb128 0x2d
 5989 0238 2E       		.uleb128 0x2e
 5990 0239 01       		.byte	0x1
 5991 023a 03       		.uleb128 0x3
 5992 023b 0E       		.uleb128 0xe
 5993 023c 3A       		.uleb128 0x3a
 5994 023d 0B       		.uleb128 0xb
 5995 023e 3B       		.uleb128 0x3b
 5996 023f 0B       		.uleb128 0xb
 5997 0240 27       		.uleb128 0x27
 5998 0241 19       		.uleb128 0x19
 5999 0242 11       		.uleb128 0x11
 6000 0243 01       		.uleb128 0x1
 6001 0244 12       		.uleb128 0x12
 6002 0245 06       		.uleb128 0x6
 6003 0246 40       		.uleb128 0x40
 6004 0247 18       		.uleb128 0x18
 6005 0248 9642     		.uleb128 0x2116
 6006 024a 19       		.uleb128 0x19
 6007 024b 01       		.uleb128 0x1
 6008 024c 13       		.uleb128 0x13
 6009 024d 00       		.byte	0
 6010 024e 00       		.byte	0
 6011 024f 2E       		.uleb128 0x2e
 6012 0250 34       		.uleb128 0x34
 6013 0251 00       		.byte	0
 6014 0252 03       		.uleb128 0x3
 6015 0253 08       		.uleb128 0x8
 6016 0254 3A       		.uleb128 0x3a
 6017 0255 0B       		.uleb128 0xb
 6018 0256 3B       		.uleb128 0x3b
ARM GAS  C:\Users\fiona\AppData\Local\Temp\ccJKYDXi.s 			page 124


 6019 0257 0B       		.uleb128 0xb
 6020 0258 49       		.uleb128 0x49
 6021 0259 13       		.uleb128 0x13
 6022 025a 00       		.byte	0
 6023 025b 00       		.byte	0
 6024 025c 2F       		.uleb128 0x2f
 6025 025d 898201   		.uleb128 0x4109
 6026 0260 00       		.byte	0
 6027 0261 11       		.uleb128 0x11
 6028 0262 01       		.uleb128 0x1
 6029 0263 31       		.uleb128 0x31
 6030 0264 13       		.uleb128 0x13
 6031 0265 00       		.byte	0
 6032 0266 00       		.byte	0
 6033 0267 30       		.uleb128 0x30
 6034 0268 2E       		.uleb128 0x2e
 6035 0269 01       		.byte	0x1
 6036 026a 3F       		.uleb128 0x3f
 6037 026b 19       		.uleb128 0x19
 6038 026c 03       		.uleb128 0x3
 6039 026d 0E       		.uleb128 0xe
 6040 026e 3A       		.uleb128 0x3a
 6041 026f 0B       		.uleb128 0xb
 6042 0270 3B       		.uleb128 0x3b
 6043 0271 0B       		.uleb128 0xb
 6044 0272 11       		.uleb128 0x11
 6045 0273 01       		.uleb128 0x1
 6046 0274 12       		.uleb128 0x12
 6047 0275 06       		.uleb128 0x6
 6048 0276 40       		.uleb128 0x40
 6049 0277 18       		.uleb128 0x18
 6050 0278 9742     		.uleb128 0x2117
 6051 027a 19       		.uleb128 0x19
 6052 027b 01       		.uleb128 0x1
 6053 027c 13       		.uleb128 0x13
 6054 027d 00       		.byte	0
 6055 027e 00       		.byte	0
 6056 027f 31       		.uleb128 0x31
 6057 0280 2E       		.uleb128 0x2e
 6058 0281 01       		.byte	0x1
 6059 0282 3F       		.uleb128 0x3f
 6060 0283 19       		.uleb128 0x19
 6061 0284 03       		.uleb128 0x3
 6062 0285 0E       		.uleb128 0xe
 6063 0286 3A       		.uleb128 0x3a
 6064 0287 0B       		.uleb128 0xb
 6065 0288 3B       		.uleb128 0x3b
 6066 0289 0B       		.uleb128 0xb
 6067 028a 27       		.uleb128 0x27
 6068 028b 19       		.uleb128 0x19
 6069 028c 11       		.uleb128 0x11
 6070 028d 01       		.uleb128 0x1
 6071 028e 12       		.uleb128 0x12
 6072 028f 06       		.uleb128 0x6
 6073 0290 40       		.uleb128 0x40
 6074 0291 18       		.uleb128 0x18
 6075 0292 9742     		.uleb128 0x2117
ARM GAS  C:\Users\fiona\AppData\Local\Temp\ccJKYDXi.s 			page 125


 6076 0294 19       		.uleb128 0x19
 6077 0295 01       		.uleb128 0x1
 6078 0296 13       		.uleb128 0x13
 6079 0297 00       		.byte	0
 6080 0298 00       		.byte	0
 6081 0299 32       		.uleb128 0x32
 6082 029a 2E       		.uleb128 0x2e
 6083 029b 01       		.byte	0x1
 6084 029c 3F       		.uleb128 0x3f
 6085 029d 19       		.uleb128 0x19
 6086 029e 03       		.uleb128 0x3
 6087 029f 0E       		.uleb128 0xe
 6088 02a0 3A       		.uleb128 0x3a
 6089 02a1 0B       		.uleb128 0xb
 6090 02a2 3B       		.uleb128 0x3b
 6091 02a3 0B       		.uleb128 0xb
 6092 02a4 49       		.uleb128 0x49
 6093 02a5 13       		.uleb128 0x13
 6094 02a6 11       		.uleb128 0x11
 6095 02a7 01       		.uleb128 0x1
 6096 02a8 12       		.uleb128 0x12
 6097 02a9 06       		.uleb128 0x6
 6098 02aa 40       		.uleb128 0x40
 6099 02ab 18       		.uleb128 0x18
 6100 02ac 9642     		.uleb128 0x2116
 6101 02ae 19       		.uleb128 0x19
 6102 02af 01       		.uleb128 0x1
 6103 02b0 13       		.uleb128 0x13
 6104 02b1 00       		.byte	0
 6105 02b2 00       		.byte	0
 6106 02b3 33       		.uleb128 0x33
 6107 02b4 34       		.uleb128 0x34
 6108 02b5 00       		.byte	0
 6109 02b6 03       		.uleb128 0x3
 6110 02b7 08       		.uleb128 0x8
 6111 02b8 3A       		.uleb128 0x3a
 6112 02b9 0B       		.uleb128 0xb
 6113 02ba 3B       		.uleb128 0x3b
 6114 02bb 0B       		.uleb128 0xb
 6115 02bc 49       		.uleb128 0x49
 6116 02bd 13       		.uleb128 0x13
 6117 02be 02       		.uleb128 0x2
 6118 02bf 18       		.uleb128 0x18
 6119 02c0 00       		.byte	0
 6120 02c1 00       		.byte	0
 6121 02c2 34       		.uleb128 0x34
 6122 02c3 34       		.uleb128 0x34
 6123 02c4 00       		.byte	0
 6124 02c5 03       		.uleb128 0x3
 6125 02c6 0E       		.uleb128 0xe
 6126 02c7 3A       		.uleb128 0x3a
 6127 02c8 0B       		.uleb128 0xb
 6128 02c9 3B       		.uleb128 0x3b
 6129 02ca 0B       		.uleb128 0xb
 6130 02cb 49       		.uleb128 0x49
 6131 02cc 13       		.uleb128 0x13
 6132 02cd 02       		.uleb128 0x2
ARM GAS  C:\Users\fiona\AppData\Local\Temp\ccJKYDXi.s 			page 126


 6133 02ce 18       		.uleb128 0x18
 6134 02cf 00       		.byte	0
 6135 02d0 00       		.byte	0
 6136 02d1 35       		.uleb128 0x35
 6137 02d2 0B       		.uleb128 0xb
 6138 02d3 01       		.byte	0x1
 6139 02d4 55       		.uleb128 0x55
 6140 02d5 17       		.uleb128 0x17
 6141 02d6 01       		.uleb128 0x1
 6142 02d7 13       		.uleb128 0x13
 6143 02d8 00       		.byte	0
 6144 02d9 00       		.byte	0
 6145 02da 36       		.uleb128 0x36
 6146 02db 1D       		.uleb128 0x1d
 6147 02dc 01       		.byte	0x1
 6148 02dd 31       		.uleb128 0x31
 6149 02de 13       		.uleb128 0x13
 6150 02df 11       		.uleb128 0x11
 6151 02e0 01       		.uleb128 0x1
 6152 02e1 12       		.uleb128 0x12
 6153 02e2 06       		.uleb128 0x6
 6154 02e3 58       		.uleb128 0x58
 6155 02e4 0B       		.uleb128 0xb
 6156 02e5 59       		.uleb128 0x59
 6157 02e6 0B       		.uleb128 0xb
 6158 02e7 00       		.byte	0
 6159 02e8 00       		.byte	0
 6160 02e9 37       		.uleb128 0x37
 6161 02ea 0B       		.uleb128 0xb
 6162 02eb 01       		.byte	0x1
 6163 02ec 11       		.uleb128 0x11
 6164 02ed 01       		.uleb128 0x1
 6165 02ee 12       		.uleb128 0x12
 6166 02ef 06       		.uleb128 0x6
 6167 02f0 01       		.uleb128 0x1
 6168 02f1 13       		.uleb128 0x13
 6169 02f2 00       		.byte	0
 6170 02f3 00       		.byte	0
 6171 02f4 38       		.uleb128 0x38
 6172 02f5 34       		.uleb128 0x34
 6173 02f6 00       		.byte	0
 6174 02f7 03       		.uleb128 0x3
 6175 02f8 0E       		.uleb128 0xe
 6176 02f9 3A       		.uleb128 0x3a
 6177 02fa 0B       		.uleb128 0xb
 6178 02fb 3B       		.uleb128 0x3b
 6179 02fc 05       		.uleb128 0x5
 6180 02fd 49       		.uleb128 0x49
 6181 02fe 13       		.uleb128 0x13
 6182 02ff 00       		.byte	0
 6183 0300 00       		.byte	0
 6184 0301 39       		.uleb128 0x39
 6185 0302 1D       		.uleb128 0x1d
 6186 0303 01       		.byte	0x1
 6187 0304 31       		.uleb128 0x31
 6188 0305 13       		.uleb128 0x13
 6189 0306 11       		.uleb128 0x11
ARM GAS  C:\Users\fiona\AppData\Local\Temp\ccJKYDXi.s 			page 127


 6190 0307 01       		.uleb128 0x1
 6191 0308 12       		.uleb128 0x12
 6192 0309 06       		.uleb128 0x6
 6193 030a 58       		.uleb128 0x58
 6194 030b 0B       		.uleb128 0xb
 6195 030c 59       		.uleb128 0x59
 6196 030d 05       		.uleb128 0x5
 6197 030e 00       		.byte	0
 6198 030f 00       		.byte	0
 6199 0310 3A       		.uleb128 0x3a
 6200 0311 34       		.uleb128 0x34
 6201 0312 00       		.byte	0
 6202 0313 03       		.uleb128 0x3
 6203 0314 0E       		.uleb128 0xe
 6204 0315 3A       		.uleb128 0x3a
 6205 0316 0B       		.uleb128 0xb
 6206 0317 3B       		.uleb128 0x3b
 6207 0318 05       		.uleb128 0x5
 6208 0319 49       		.uleb128 0x49
 6209 031a 13       		.uleb128 0x13
 6210 031b 02       		.uleb128 0x2
 6211 031c 17       		.uleb128 0x17
 6212 031d 00       		.byte	0
 6213 031e 00       		.byte	0
 6214 031f 3B       		.uleb128 0x3b
 6215 0320 0B       		.uleb128 0xb
 6216 0321 01       		.byte	0x1
 6217 0322 55       		.uleb128 0x55
 6218 0323 17       		.uleb128 0x17
 6219 0324 00       		.byte	0
 6220 0325 00       		.byte	0
 6221 0326 3C       		.uleb128 0x3c
 6222 0327 2E       		.uleb128 0x2e
 6223 0328 01       		.byte	0x1
 6224 0329 3F       		.uleb128 0x3f
 6225 032a 19       		.uleb128 0x19
 6226 032b 03       		.uleb128 0x3
 6227 032c 0E       		.uleb128 0xe
 6228 032d 3A       		.uleb128 0x3a
 6229 032e 0B       		.uleb128 0xb
 6230 032f 3B       		.uleb128 0x3b
 6231 0330 05       		.uleb128 0x5
 6232 0331 27       		.uleb128 0x27
 6233 0332 19       		.uleb128 0x19
 6234 0333 49       		.uleb128 0x49
 6235 0334 13       		.uleb128 0x13
 6236 0335 11       		.uleb128 0x11
 6237 0336 01       		.uleb128 0x1
 6238 0337 12       		.uleb128 0x12
 6239 0338 06       		.uleb128 0x6
 6240 0339 40       		.uleb128 0x40
 6241 033a 18       		.uleb128 0x18
 6242 033b 9642     		.uleb128 0x2116
 6243 033d 19       		.uleb128 0x19
 6244 033e 01       		.uleb128 0x1
 6245 033f 13       		.uleb128 0x13
 6246 0340 00       		.byte	0
ARM GAS  C:\Users\fiona\AppData\Local\Temp\ccJKYDXi.s 			page 128


 6247 0341 00       		.byte	0
 6248 0342 3D       		.uleb128 0x3d
 6249 0343 05       		.uleb128 0x5
 6250 0344 00       		.byte	0
 6251 0345 03       		.uleb128 0x3
 6252 0346 0E       		.uleb128 0xe
 6253 0347 3A       		.uleb128 0x3a
 6254 0348 0B       		.uleb128 0xb
 6255 0349 3B       		.uleb128 0x3b
 6256 034a 05       		.uleb128 0x5
 6257 034b 49       		.uleb128 0x49
 6258 034c 13       		.uleb128 0x13
 6259 034d 02       		.uleb128 0x2
 6260 034e 17       		.uleb128 0x17
 6261 034f 00       		.byte	0
 6262 0350 00       		.byte	0
 6263 0351 3E       		.uleb128 0x3e
 6264 0352 34       		.uleb128 0x34
 6265 0353 00       		.byte	0
 6266 0354 03       		.uleb128 0x3
 6267 0355 0E       		.uleb128 0xe
 6268 0356 3A       		.uleb128 0x3a
 6269 0357 0B       		.uleb128 0xb
 6270 0358 3B       		.uleb128 0x3b
 6271 0359 05       		.uleb128 0x5
 6272 035a 49       		.uleb128 0x49
 6273 035b 13       		.uleb128 0x13
 6274 035c 02       		.uleb128 0x2
 6275 035d 18       		.uleb128 0x18
 6276 035e 00       		.byte	0
 6277 035f 00       		.byte	0
 6278 0360 3F       		.uleb128 0x3f
 6279 0361 34       		.uleb128 0x34
 6280 0362 00       		.byte	0
 6281 0363 03       		.uleb128 0x3
 6282 0364 0E       		.uleb128 0xe
 6283 0365 3A       		.uleb128 0x3a
 6284 0366 0B       		.uleb128 0xb
 6285 0367 3B       		.uleb128 0x3b
 6286 0368 05       		.uleb128 0x5
 6287 0369 49       		.uleb128 0x49
 6288 036a 13       		.uleb128 0x13
 6289 036b 3F       		.uleb128 0x3f
 6290 036c 19       		.uleb128 0x19
 6291 036d 3C       		.uleb128 0x3c
 6292 036e 19       		.uleb128 0x19
 6293 036f 00       		.byte	0
 6294 0370 00       		.byte	0
 6295 0371 40       		.uleb128 0x40
 6296 0372 34       		.uleb128 0x34
 6297 0373 00       		.byte	0
 6298 0374 03       		.uleb128 0x3
 6299 0375 0E       		.uleb128 0xe
 6300 0376 3A       		.uleb128 0x3a
 6301 0377 0B       		.uleb128 0xb
 6302 0378 3B       		.uleb128 0x3b
 6303 0379 0B       		.uleb128 0xb
ARM GAS  C:\Users\fiona\AppData\Local\Temp\ccJKYDXi.s 			page 129


 6304 037a 49       		.uleb128 0x49
 6305 037b 13       		.uleb128 0x13
 6306 037c 3F       		.uleb128 0x3f
 6307 037d 19       		.uleb128 0x19
 6308 037e 3C       		.uleb128 0x3c
 6309 037f 19       		.uleb128 0x19
 6310 0380 00       		.byte	0
 6311 0381 00       		.byte	0
 6312 0382 41       		.uleb128 0x41
 6313 0383 34       		.uleb128 0x34
 6314 0384 00       		.byte	0
 6315 0385 03       		.uleb128 0x3
 6316 0386 0E       		.uleb128 0xe
 6317 0387 3A       		.uleb128 0x3a
 6318 0388 0B       		.uleb128 0xb
 6319 0389 3B       		.uleb128 0x3b
 6320 038a 0B       		.uleb128 0xb
 6321 038b 49       		.uleb128 0x49
 6322 038c 13       		.uleb128 0x13
 6323 038d 3F       		.uleb128 0x3f
 6324 038e 19       		.uleb128 0x19
 6325 038f 02       		.uleb128 0x2
 6326 0390 18       		.uleb128 0x18
 6327 0391 00       		.byte	0
 6328 0392 00       		.byte	0
 6329 0393 42       		.uleb128 0x42
 6330 0394 2E       		.uleb128 0x2e
 6331 0395 00       		.byte	0
 6332 0396 3F       		.uleb128 0x3f
 6333 0397 19       		.uleb128 0x19
 6334 0398 3C       		.uleb128 0x3c
 6335 0399 19       		.uleb128 0x19
 6336 039a 6E       		.uleb128 0x6e
 6337 039b 0E       		.uleb128 0xe
 6338 039c 03       		.uleb128 0x3
 6339 039d 0E       		.uleb128 0xe
 6340 039e 3A       		.uleb128 0x3a
 6341 039f 0B       		.uleb128 0xb
 6342 03a0 3B       		.uleb128 0x3b
 6343 03a1 05       		.uleb128 0x5
 6344 03a2 00       		.byte	0
 6345 03a3 00       		.byte	0
 6346 03a4 43       		.uleb128 0x43
 6347 03a5 2E       		.uleb128 0x2e
 6348 03a6 00       		.byte	0
 6349 03a7 3F       		.uleb128 0x3f
 6350 03a8 19       		.uleb128 0x19
 6351 03a9 3C       		.uleb128 0x3c
 6352 03aa 19       		.uleb128 0x19
 6353 03ab 6E       		.uleb128 0x6e
 6354 03ac 0E       		.uleb128 0xe
 6355 03ad 03       		.uleb128 0x3
 6356 03ae 0E       		.uleb128 0xe
 6357 03af 3A       		.uleb128 0x3a
 6358 03b0 0B       		.uleb128 0xb
 6359 03b1 3B       		.uleb128 0x3b
 6360 03b2 0B       		.uleb128 0xb
ARM GAS  C:\Users\fiona\AppData\Local\Temp\ccJKYDXi.s 			page 130


 6361 03b3 00       		.byte	0
 6362 03b4 00       		.byte	0
 6363 03b5 00       		.byte	0
 6364              		.section	.debug_loc,"",%progbits
 6365              	.Ldebug_loc0:
 6366              	.LLST0:
 6367 0000 00000000 		.4byte	.LVL0
 6368 0004 14000000 		.4byte	.LVL2
 6369 0008 0100     		.2byte	0x1
 6370 000a 50       		.byte	0x50
 6371 000b 14000000 		.4byte	.LVL2
 6372 000f 17000000 		.4byte	.LVL3-1
 6373 0013 0500     		.2byte	0x5
 6374 0015 03       		.byte	0x3
 6375 0016 00000000 		.4byte	wbuff
 6376 001a 17000000 		.4byte	.LVL3-1
 6377 001e 8C000000 		.4byte	.LFE841
 6378 0022 0400     		.2byte	0x4
 6379 0024 F3       		.byte	0xf3
 6380 0025 01       		.uleb128 0x1
 6381 0026 50       		.byte	0x50
 6382 0027 9F       		.byte	0x9f
 6383 0028 00000000 		.4byte	0
 6384 002c 00000000 		.4byte	0
 6385              	.LLST1:
 6386 0030 18000000 		.4byte	.LVL3
 6387 0034 1C000000 		.4byte	.LVL4
 6388 0038 0200     		.2byte	0x2
 6389 003a 30       		.byte	0x30
 6390 003b 9F       		.byte	0x9f
 6391 003c 1C000000 		.4byte	.LVL4
 6392 0040 1E000000 		.4byte	.LVL5
 6393 0044 0100     		.2byte	0x1
 6394 0046 54       		.byte	0x54
 6395 0047 20000000 		.4byte	.LVL6
 6396 004b 60000000 		.4byte	.LVL12
 6397 004f 0100     		.2byte	0x1
 6398 0051 54       		.byte	0x54
 6399 0052 60000000 		.4byte	.LVL12
 6400 0056 62000000 		.4byte	.LVL13
 6401 005a 0300     		.2byte	0x3
 6402 005c 74       		.byte	0x74
 6403 005d 01       		.sleb128 1
 6404 005e 9F       		.byte	0x9f
 6405 005f 78000000 		.4byte	.LVL15
 6406 0063 7C000000 		.4byte	.LVL16
 6407 0067 0100     		.2byte	0x1
 6408 0069 54       		.byte	0x54
 6409 006a 00000000 		.4byte	0
 6410 006e 00000000 		.4byte	0
 6411              	.LLST2:
 6412 0072 0E000000 		.4byte	.LVL1
 6413 0076 18000000 		.4byte	.LVL3
 6414 007a 0600     		.2byte	0x6
 6415 007c 03       		.byte	0x3
 6416 007d 04000000 		.4byte	register_setting
 6417 0081 9F       		.byte	0x9f
ARM GAS  C:\Users\fiona\AppData\Local\Temp\ccJKYDXi.s 			page 131


 6418 0082 00000000 		.4byte	0
 6419 0086 00000000 		.4byte	0
 6420              	.LLST3:
 6421 008a 4A000000 		.4byte	.LVL9
 6422 008e 54000000 		.4byte	.LVL10
 6423 0092 0600     		.2byte	0x6
 6424 0094 03       		.byte	0x3
 6425 0095 04000000 		.4byte	register_setting
 6426 0099 9F       		.byte	0x9f
 6427 009a 00000000 		.4byte	0
 6428 009e 00000000 		.4byte	0
 6429              	.LLST4:
 6430 00a2 00000000 		.4byte	.LVL17
 6431 00a6 18000000 		.4byte	.LVL20
 6432 00aa 0100     		.2byte	0x1
 6433 00ac 50       		.byte	0x50
 6434 00ad 18000000 		.4byte	.LVL20
 6435 00b1 1B000000 		.4byte	.LVL21-1
 6436 00b5 0500     		.2byte	0x5
 6437 00b7 03       		.byte	0x3
 6438 00b8 00000000 		.4byte	wbuff
 6439 00bc 1B000000 		.4byte	.LVL21-1
 6440 00c0 3C000000 		.4byte	.LFE840
 6441 00c4 0400     		.2byte	0x4
 6442 00c6 F3       		.byte	0xf3
 6443 00c7 01       		.uleb128 0x1
 6444 00c8 50       		.byte	0x50
 6445 00c9 9F       		.byte	0x9f
 6446 00ca 00000000 		.4byte	0
 6447 00ce 00000000 		.4byte	0
 6448              	.LLST5:
 6449 00d2 00000000 		.4byte	.LVL17
 6450 00d6 14000000 		.4byte	.LVL19
 6451 00da 0100     		.2byte	0x1
 6452 00dc 51       		.byte	0x51
 6453 00dd 14000000 		.4byte	.LVL19
 6454 00e1 1B000000 		.4byte	.LVL21-1
 6455 00e5 0500     		.2byte	0x5
 6456 00e7 03       		.byte	0x3
 6457 00e8 01000000 		.4byte	wbuff+1
 6458 00ec 1B000000 		.4byte	.LVL21-1
 6459 00f0 3C000000 		.4byte	.LFE840
 6460 00f4 0400     		.2byte	0x4
 6461 00f6 F3       		.byte	0xf3
 6462 00f7 01       		.uleb128 0x1
 6463 00f8 51       		.byte	0x51
 6464 00f9 9F       		.byte	0x9f
 6465 00fa 00000000 		.4byte	0
 6466 00fe 00000000 		.4byte	0
 6467              	.LLST6:
 6468 0102 1C000000 		.4byte	.LVL21
 6469 0106 28000000 		.4byte	.LVL23
 6470 010a 0200     		.2byte	0x2
 6471 010c 30       		.byte	0x30
 6472 010d 9F       		.byte	0x9f
 6473 010e 28000000 		.4byte	.LVL23
 6474 0112 3C000000 		.4byte	.LFE840
ARM GAS  C:\Users\fiona\AppData\Local\Temp\ccJKYDXi.s 			page 132


 6475 0116 0200     		.2byte	0x2
 6476 0118 31       		.byte	0x31
 6477 0119 9F       		.byte	0x9f
 6478 011a 00000000 		.4byte	0
 6479 011e 00000000 		.4byte	0
 6480              	.LLST7:
 6481 0122 12000000 		.4byte	.LVL18
 6482 0126 1C000000 		.4byte	.LVL21
 6483 012a 0600     		.2byte	0x6
 6484 012c 03       		.byte	0x3
 6485 012d 04000000 		.4byte	register_setting
 6486 0131 9F       		.byte	0x9f
 6487 0132 00000000 		.4byte	0
 6488 0136 00000000 		.4byte	0
 6489              	.LLST8:
 6490 013a 00000000 		.4byte	.LVL42
 6491 013e 0A000000 		.4byte	.LVL43
 6492 0142 0100     		.2byte	0x1
 6493 0144 50       		.byte	0x50
 6494 0145 0A000000 		.4byte	.LVL43
 6495 0149 3E000000 		.4byte	.LVL50
 6496 014d 0100     		.2byte	0x1
 6497 014f 54       		.byte	0x54
 6498 0150 3E000000 		.4byte	.LVL50
 6499 0154 40000000 		.4byte	.LFE844
 6500 0158 0400     		.2byte	0x4
 6501 015a F3       		.byte	0xf3
 6502 015b 01       		.uleb128 0x1
 6503 015c 50       		.byte	0x50
 6504 015d 9F       		.byte	0x9f
 6505 015e 00000000 		.4byte	0
 6506 0162 00000000 		.4byte	0
 6507              	.LLST9:
 6508 0166 D8000000 		.4byte	.LVL51
 6509 016a E2000000 		.4byte	.LVL52
 6510 016e 0600     		.2byte	0x6
 6511 0170 03       		.byte	0x3
 6512 0171 04000000 		.4byte	register_setting
 6513 0175 9F       		.byte	0x9f
 6514 0176 00000000 		.4byte	0
 6515 017a 00000000 		.4byte	0
 6516              	.LLST10:
 6517 017e FC000000 		.4byte	.LVL53
 6518 0182 06010000 		.4byte	.LVL54
 6519 0186 0600     		.2byte	0x6
 6520 0188 03       		.byte	0x3
 6521 0189 04000000 		.4byte	register_setting
 6522 018d 9F       		.byte	0x9f
 6523 018e 00000000 		.4byte	0
 6524 0192 00000000 		.4byte	0
 6525              	.LLST11:
 6526 0196 20010000 		.4byte	.LVL55
 6527 019a 2A010000 		.4byte	.LVL56
 6528 019e 0600     		.2byte	0x6
 6529 01a0 03       		.byte	0x3
 6530 01a1 04000000 		.4byte	register_setting
 6531 01a5 9F       		.byte	0x9f
ARM GAS  C:\Users\fiona\AppData\Local\Temp\ccJKYDXi.s 			page 133


 6532 01a6 00000000 		.4byte	0
 6533 01aa 00000000 		.4byte	0
 6534              	.LLST12:
 6535 01ae 60010000 		.4byte	.LVL57
 6536 01b2 6A010000 		.4byte	.LVL58
 6537 01b6 0600     		.2byte	0x6
 6538 01b8 03       		.byte	0x3
 6539 01b9 04000000 		.4byte	register_setting
 6540 01bd 9F       		.byte	0x9f
 6541 01be 00000000 		.4byte	0
 6542 01c2 00000000 		.4byte	0
 6543              	.LLST13:
 6544 01c6 86010000 		.4byte	.LVL59
 6545 01ca 90010000 		.4byte	.LVL60
 6546 01ce 0600     		.2byte	0x6
 6547 01d0 03       		.byte	0x3
 6548 01d1 04000000 		.4byte	register_setting
 6549 01d5 9F       		.byte	0x9f
 6550 01d6 00000000 		.4byte	0
 6551 01da 00000000 		.4byte	0
 6552              	.LLST14:
 6553 01de B6010000 		.4byte	.LVL62
 6554 01e2 BE010000 		.4byte	.LVL63
 6555 01e6 0100     		.2byte	0x1
 6556 01e8 51       		.byte	0x51
 6557 01e9 00000000 		.4byte	0
 6558 01ed 00000000 		.4byte	0
 6559              	.LLST15:
 6560 01f1 CC010000 		.4byte	.LVL64
 6561 01f5 D6010000 		.4byte	.LVL65
 6562 01f9 0600     		.2byte	0x6
 6563 01fb 03       		.byte	0x3
 6564 01fc 04000000 		.4byte	register_setting
 6565 0200 9F       		.byte	0x9f
 6566 0201 00000000 		.4byte	0
 6567 0205 00000000 		.4byte	0
 6568              	.LLST16:
 6569 0209 F6010000 		.4byte	.LVL66
 6570 020d 00020000 		.4byte	.LVL67
 6571 0211 0600     		.2byte	0x6
 6572 0213 03       		.byte	0x3
 6573 0214 04000000 		.4byte	register_setting
 6574 0218 9F       		.byte	0x9f
 6575 0219 00000000 		.4byte	0
 6576 021d 00000000 		.4byte	0
 6577              	.LLST17:
 6578 0221 0A020000 		.4byte	.LVL68
 6579 0225 4E020000 		.4byte	.LVL70
 6580 0229 0100     		.2byte	0x1
 6581 022b 54       		.byte	0x54
 6582 022c 50020000 		.4byte	.LVL71
 6583 0230 52020000 		.4byte	.LVL72
 6584 0234 0100     		.2byte	0x1
 6585 0236 54       		.byte	0x54
 6586 0237 54020000 		.4byte	.LVL73
 6587 023b 68020000 		.4byte	.LVL74
 6588 023f 0100     		.2byte	0x1
ARM GAS  C:\Users\fiona\AppData\Local\Temp\ccJKYDXi.s 			page 134


 6589 0241 54       		.byte	0x54
 6590 0242 00000000 		.4byte	0
 6591 0246 00000000 		.4byte	0
 6592              	.LLST18:
 6593 024a 00000000 		.4byte	.LVL75
 6594 024e 10000000 		.4byte	.LVL76
 6595 0252 0100     		.2byte	0x1
 6596 0254 50       		.byte	0x50
 6597 0255 10000000 		.4byte	.LVL76
 6598 0259 12000000 		.4byte	.LVL77
 6599 025d 0400     		.2byte	0x4
 6600 025f F3       		.byte	0xf3
 6601 0260 01       		.uleb128 0x1
 6602 0261 50       		.byte	0x50
 6603 0262 9F       		.byte	0x9f
 6604 0263 12000000 		.4byte	.LVL77
 6605 0267 28000000 		.4byte	.LVL79
 6606 026b 0100     		.2byte	0x1
 6607 026d 50       		.byte	0x50
 6608 026e 28000000 		.4byte	.LVL79
 6609 0272 34000000 		.4byte	.LVL81
 6610 0276 0400     		.2byte	0x4
 6611 0278 F3       		.byte	0xf3
 6612 0279 01       		.uleb128 0x1
 6613 027a 50       		.byte	0x50
 6614 027b 9F       		.byte	0x9f
 6615 027c 34000000 		.4byte	.LVL81
 6616 0280 38000000 		.4byte	.LVL82
 6617 0284 0100     		.2byte	0x1
 6618 0286 50       		.byte	0x50
 6619 0287 38000000 		.4byte	.LVL82
 6620 028b 5C010000 		.4byte	.LFE846
 6621 028f 0400     		.2byte	0x4
 6622 0291 F3       		.byte	0xf3
 6623 0292 01       		.uleb128 0x1
 6624 0293 50       		.byte	0x50
 6625 0294 9F       		.byte	0x9f
 6626 0295 00000000 		.4byte	0
 6627 0299 00000000 		.4byte	0
 6628              	.LLST19:
 6629 029d 00000000 		.4byte	.LVL75
 6630 02a1 24000000 		.4byte	.LVL78
 6631 02a5 0100     		.2byte	0x1
 6632 02a7 51       		.byte	0x51
 6633 02a8 24000000 		.4byte	.LVL78
 6634 02ac 34000000 		.4byte	.LVL81
 6635 02b0 0100     		.2byte	0x1
 6636 02b2 54       		.byte	0x54
 6637 02b3 34000000 		.4byte	.LVL81
 6638 02b7 38000000 		.4byte	.LVL82
 6639 02bb 0100     		.2byte	0x1
 6640 02bd 51       		.byte	0x51
 6641 02be 38000000 		.4byte	.LVL82
 6642 02c2 46010000 		.4byte	.LVL83
 6643 02c6 0100     		.2byte	0x1
 6644 02c8 54       		.byte	0x54
 6645 02c9 46010000 		.4byte	.LVL83
ARM GAS  C:\Users\fiona\AppData\Local\Temp\ccJKYDXi.s 			page 135


 6646 02cd 5C010000 		.4byte	.LFE846
 6647 02d1 0400     		.2byte	0x4
 6648 02d3 F3       		.byte	0xf3
 6649 02d4 01       		.uleb128 0x1
 6650 02d5 51       		.byte	0x51
 6651 02d6 9F       		.byte	0x9f
 6652 02d7 00000000 		.4byte	0
 6653 02db 00000000 		.4byte	0
 6654              		.section	.debug_aranges,"",%progbits
 6655 0000 4C000000 		.4byte	0x4c
 6656 0004 0200     		.2byte	0x2
 6657 0006 00000000 		.4byte	.Ldebug_info0
 6658 000a 04       		.byte	0x4
 6659 000b 00       		.byte	0
 6660 000c 0000     		.2byte	0
 6661 000e 0000     		.2byte	0
 6662 0010 00000000 		.4byte	.LFB841
 6663 0014 8C000000 		.4byte	.LFE841-.LFB841
 6664 0018 00000000 		.4byte	.LFB840
 6665 001c 3C000000 		.4byte	.LFE840-.LFB840
 6666 0020 00000000 		.4byte	.LFB842
 6667 0024 24010000 		.4byte	.LFE842-.LFB842
 6668 0028 00000000 		.4byte	.LFB843
 6669 002c 6C000000 		.4byte	.LFE843-.LFB843
 6670 0030 00000000 		.4byte	.LFB844
 6671 0034 40000000 		.4byte	.LFE844-.LFB844
 6672 0038 00000000 		.4byte	.LFB845
 6673 003c 88020000 		.4byte	.LFE845-.LFB845
 6674 0040 00000000 		.4byte	.LFB846
 6675 0044 5C010000 		.4byte	.LFE846-.LFB846
 6676 0048 00000000 		.4byte	0
 6677 004c 00000000 		.4byte	0
 6678              		.section	.debug_ranges,"",%progbits
 6679              	.Ldebug_ranges0:
 6680 0000 26000000 		.4byte	.LBB49
 6681 0004 E2000000 		.4byte	.LBE49
 6682 0008 E4000000 		.4byte	.LBB52
 6683 000c E6000000 		.4byte	.LBE52
 6684 0010 00000000 		.4byte	0
 6685 0014 00000000 		.4byte	0
 6686 0018 E6000000 		.4byte	.LBB53
 6687 001c 0C010000 		.4byte	.LBE53
 6688 0020 0E010000 		.4byte	.LBB56
 6689 0024 10010000 		.4byte	.LBE56
 6690 0028 00000000 		.4byte	0
 6691 002c 00000000 		.4byte	0
 6692 0030 10010000 		.4byte	.LBB57
 6693 0034 32010000 		.4byte	.LBE57
 6694 0038 34010000 		.4byte	.LBB60
 6695 003c 36010000 		.4byte	.LBE60
 6696 0040 00000000 		.4byte	0
 6697 0044 00000000 		.4byte	0
 6698 0048 76010000 		.4byte	.LBB64
 6699 004c 98010000 		.4byte	.LBE64
 6700 0050 9A010000 		.4byte	.LBB67
 6701 0054 9C010000 		.4byte	.LBE67
 6702 0058 00000000 		.4byte	0
ARM GAS  C:\Users\fiona\AppData\Local\Temp\ccJKYDXi.s 			page 136


 6703 005c 00000000 		.4byte	0
 6704 0060 9C010000 		.4byte	.LBB68
 6705 0064 DE010000 		.4byte	.LBE68
 6706 0068 E0010000 		.4byte	.LBB72
 6707 006c E2010000 		.4byte	.LBE72
 6708 0070 00000000 		.4byte	0
 6709 0074 00000000 		.4byte	0
 6710 0078 E2010000 		.4byte	.LBB73
 6711 007c 06020000 		.4byte	.LBE73
 6712 0080 08020000 		.4byte	.LBB76
 6713 0084 0A020000 		.4byte	.LBE76
 6714 0088 00000000 		.4byte	0
 6715 008c 00000000 		.4byte	0
 6716 0090 0A020000 		.4byte	.LBB77
 6717 0094 52020000 		.4byte	.LBE77
 6718 0098 54020000 		.4byte	.LBB78
 6719 009c 5E020000 		.4byte	.LBE78
 6720 00a0 00000000 		.4byte	0
 6721 00a4 00000000 		.4byte	0
 6722 00a8 00000000 		.4byte	.LFB841
 6723 00ac 8C000000 		.4byte	.LFE841
 6724 00b0 00000000 		.4byte	.LFB840
 6725 00b4 3C000000 		.4byte	.LFE840
 6726 00b8 00000000 		.4byte	.LFB842
 6727 00bc 24010000 		.4byte	.LFE842
 6728 00c0 00000000 		.4byte	.LFB843
 6729 00c4 6C000000 		.4byte	.LFE843
 6730 00c8 00000000 		.4byte	.LFB844
 6731 00cc 40000000 		.4byte	.LFE844
 6732 00d0 00000000 		.4byte	.LFB845
 6733 00d4 88020000 		.4byte	.LFE845
 6734 00d8 00000000 		.4byte	.LFB846
 6735 00dc 5C010000 		.4byte	.LFE846
 6736 00e0 00000000 		.4byte	0
 6737 00e4 00000000 		.4byte	0
 6738              		.section	.debug_line,"",%progbits
 6739              	.Ldebug_line0:
 6740 0000 A6060000 		.section	.debug_str,"MS",%progbits,1
 6740      02009B04 
 6740      00000201 
 6740      FB0E0D00 
 6740      01010101 
 6741              	.LASF182:
 6742 0000 78666572 		.ascii	"xferPending\000"
 6742      50656E64 
 6742      696E6700 
 6743              	.LASF272:
 6744 000c 43595F42 		.ascii	"CY_BLE_EVT_PENDING_FLASH_WRITE\000"
 6744      4C455F45 
 6744      56545F50 
 6744      454E4449 
 6744      4E475F46 
 6745              	.LASF352:
 6746 002b 43595F42 		.ascii	"CY_BLE_EVT_GATTC_READ_BY_TYPE_RSP\000"
 6746      4C455F45 
 6746      56545F47 
 6746      41545443 
ARM GAS  C:\Users\fiona\AppData\Local\Temp\ccJKYDXi.s 			page 137


 6746      5F524541 
 6747              	.LASF149:
 6748 004d 63795F65 		.ascii	"cy_en_scb_i2c_status_t\000"
 6748      6E5F7363 
 6748      625F6932 
 6748      635F7374 
 6748      61747573 
 6749              	.LASF189:
 6750 0064 43595F53 		.ascii	"CY_SCB_UART_STOP_BITS_1_5\000"
 6750      43425F55 
 6750      4152545F 
 6750      53544F50 
 6750      5F424954 
 6751              	.LASF258:
 6752 007e 6368616E 		.ascii	"chanConfig\000"
 6752      436F6E66 
 6752      696700
 6753              	.LASF21:
 6754 0089 73697A65 		.ascii	"sizetype\000"
 6754      74797065 
 6754      00
 6755              	.LASF367:
 6756 0092 43595F42 		.ascii	"CY_BLE_EVT_GATTS_DATA_SIGNED_CMD_REQ\000"
 6756      4C455F45 
 6756      56545F47 
 6756      41545453 
 6756      5F444154 
 6757              	.LASF185:
 6758 00b7 43595F53 		.ascii	"CY_SCB_UART_SMARTCARD\000"
 6758      43425F55 
 6758      4152545F 
 6758      534D4152 
 6758      54434152 
 6759              	.LASF300:
 6760 00cd 43595F42 		.ascii	"CY_BLE_EVT_SET_DEVICE_ADDR_COMPLETE\000"
 6760      4C455F45 
 6760      56545F53 
 6760      45545F44 
 6760      45564943 
 6761              	.LASF54:
 6762 00f1 52585F4D 		.ascii	"RX_MATCH\000"
 6762      41544348 
 6762      00
 6763              	.LASF512:
 6764 00fa 44617461 		.ascii	"DataBuffer_OpenWriteSlot\000"
 6764      42756666 
 6764      65725F4F 
 6764      70656E57 
 6764      72697465 
 6765              	.LASF472:
 6766 0113 696E7465 		.ascii	"interrupt_period\000"
 6766      72727570 
 6766      745F7065 
 6766      72696F64 
 6766      00
 6767              	.LASF231:
 6768 0124 63795F73 		.ascii	"cy_stc_scb_uart_context\000"
ARM GAS  C:\Users\fiona\AppData\Local\Temp\ccJKYDXi.s 			page 138


 6768      74635F73 
 6768      63625F75 
 6768      6172745F 
 6768      636F6E74 
 6769              	.LASF257:
 6770 013c 6368616E 		.ascii	"chanEn\000"
 6770      456E00
 6771              	.LASF417:
 6772 0143 64656E6F 		.ascii	"denominator\000"
 6772      6D696E61 
 6772      746F7200 
 6773              	.LASF497:
 6774 014f 4C696768 		.ascii	"LightOutputA_config\000"
 6774      744F7574 
 6774      70757441 
 6774      5F636F6E 
 6774      66696700 
 6775              	.LASF61:
 6776 0163 494E5452 		.ascii	"INTR_CAUSE\000"
 6776      5F434155 
 6776      534500
 6777              	.LASF440:
 6778 016e 42464737 		.ascii	"BFG70SLOT\000"
 6778      30534C4F 
 6778      5400
 6779              	.LASF30:
 6780 0178 55415254 		.ascii	"UART_CTRL\000"
 6780      5F435452 
 6780      4C00
 6781              	.LASF113:
 6782 0182 63617074 		.ascii	"captureInputMode\000"
 6782      75726549 
 6782      6E707574 
 6782      4D6F6465 
 6782      00
 6783              	.LASF457:
 6784 0193 72656164 		.ascii	"readAccData\000"
 6784      41636344 
 6784      61746100 
 6785              	.LASF299:
 6786 019f 43595F42 		.ascii	"CY_BLE_EVT_SOFT_RESET_COMPLETE\000"
 6786      4C455F45 
 6786      56545F53 
 6786      4F46545F 
 6786      52455345 
 6787              	.LASF18:
 6788 01be 696E7433 		.ascii	"int32_t\000"
 6788      325F7400 
 6789              	.LASF306:
 6790 01c6 43595F42 		.ascii	"CY_BLE_EVT_SET_CLK_CONFIG_COMPLETE\000"
 6790      4C455F45 
 6790      56545F53 
 6790      45545F43 
 6790      4C4B5F43 
 6791              	.LASF455:
 6792 01e9 57726974 		.ascii	"WriteRegister\000"
 6792      65526567 
ARM GAS  C:\Users\fiona\AppData\Local\Temp\ccJKYDXi.s 			page 139


 6792      69737465 
 6792      7200
 6793              	.LASF305:
 6794 01f7 43595F42 		.ascii	"CY_BLE_EVT_GET_CLK_CONFIG_COMPLETE\000"
 6794      4C455F45 
 6794      56545F47 
 6794      45545F43 
 6794      4C4B5F43 
 6795              	.LASF397:
 6796 021a 43595F42 		.ascii	"CY_BLE_CONN_STATE_CLIENT_DESCR_DISCOVERING\000"
 6796      4C455F43 
 6796      4F4E4E5F 
 6796      53544154 
 6796      455F434C 
 6797              	.LASF363:
 6798 0245 43595F42 		.ascii	"CY_BLE_EVT_GATTC_EXEC_WRITE_RSP\000"
 6798      4C455F45 
 6798      56545F47 
 6798      41545443 
 6798      5F455845 
 6799              	.LASF401:
 6800 0265 6E756D43 		.ascii	"numChannels\000"
 6800      68616E6E 
 6800      656C7300 
 6801              	.LASF99:
 6802 0271 75696E74 		.ascii	"uint32\000"
 6802      333200
 6803              	.LASF278:
 6804 0278 43595F42 		.ascii	"CY_BLE_EVT_LE_SET_EVENT_MASK_COMPLETE\000"
 6804      4C455F45 
 6804      56545F4C 
 6804      455F5345 
 6804      545F4556 
 6805              	.LASF459:
 6806 029e 64617475 		.ascii	"datums\000"
 6806      6D7300
 6807              	.LASF274:
 6808 02a5 43595F42 		.ascii	"CY_BLE_EVT_HARDWARE_ERROR\000"
 6808      4C455F45 
 6808      56545F48 
 6808      41524457 
 6808      4152455F 
 6809              	.LASF208:
 6810 02bf 656E6162 		.ascii	"enableMsbFirst\000"
 6810      6C654D73 
 6810      62466972 
 6810      737400
 6811              	.LASF232:
 6812 02ce 74785374 		.ascii	"txStatus\000"
 6812      61747573 
 6812      00
 6813              	.LASF382:
 6814 02d7 43595F42 		.ascii	"CY_BLE_EVT_MAX\000"
 6814      4C455F45 
 6814      56545F4D 
 6814      415800
 6815              	.LASF437:
ARM GAS  C:\Users\fiona\AppData\Local\Temp\ccJKYDXi.s 			page 140


 6816 02e6 4D414730 		.ascii	"MAG0ESLOT\000"
 6816      45534C4F 
 6816      5400
 6817              	.LASF158:
 6818 02f0 73746174 		.ascii	"state\000"
 6818      6500
 6819              	.LASF482:
 6820 02f6 785F6D73 		.ascii	"x_msb\000"
 6820      6200
 6821              	.LASF467:
 6822 02fc 6F6C645F 		.ascii	"old_setting_value\000"
 6822      73657474 
 6822      696E675F 
 6822      76616C75 
 6822      6500
 6823              	.LASF466:
 6824 030e 73657474 		.ascii	"setting_value\000"
 6824      696E675F 
 6824      76616C75 
 6824      6500
 6825              	.LASF73:
 6826 031c 494E5452 		.ascii	"INTR_M\000"
 6826      5F4D00
 6827              	.LASF227:
 6828 0323 72784669 		.ascii	"rxFifoIntEnableMask\000"
 6828      666F496E 
 6828      74456E61 
 6828      626C654D 
 6828      61736B00 
 6829              	.LASF109:
 6830 0337 636F6D70 		.ascii	"compare0\000"
 6830      61726530 
 6830      00
 6831              	.LASF110:
 6832 0340 636F6D70 		.ascii	"compare1\000"
 6832      61726531 
 6832      00
 6833              	.LASF357:
 6834 0349 43595F42 		.ascii	"CY_BLE_EVT_GATTC_READ_MULTI_RSP\000"
 6834      4C455F45 
 6834      56545F47 
 6834      41545443 
 6834      5F524541 
 6835              	.LASF226:
 6836 0369 72784669 		.ascii	"rxFifoTriggerLevel\000"
 6836      666F5472 
 6836      69676765 
 6836      724C6576 
 6836      656C00
 6837              	.LASF4:
 6838 037c 5F5F696E 		.ascii	"__int16_t\000"
 6838      7431365F 
 6838      7400
 6839              	.LASF127:
 6840 0386 70776D41 		.ascii	"pwmAlignment\000"
 6840      6C69676E 
 6840      6D656E74 
ARM GAS  C:\Users\fiona\AppData\Local\Temp\ccJKYDXi.s 			page 141


 6840      00
 6841              	.LASF298:
 6842 0393 43595F42 		.ascii	"CY_BLE_EVT_LL_CNTRL_PROC_PENDING_COMPLETE\000"
 6842      4C455F45 
 6842      56545F4C 
 6842      4C5F434E 
 6842      54524C5F 
 6843              	.LASF121:
 6844 03bd 636F756E 		.ascii	"countInputMode\000"
 6844      74496E70 
 6844      75744D6F 
 6844      646500
 6845              	.LASF88:
 6846 03cc 494E5452 		.ascii	"INTR_RX\000"
 6846      5F525800 
 6847              	.LASF40:
 6848 03d4 4932435F 		.ascii	"I2C_CFG\000"
 6848      43464700 
 6849              	.LASF436:
 6850 03dc 41434331 		.ascii	"ACC1ESLOT\000"
 6850      45534C4F 
 6850      5400
 6851              	.LASF460:
 6852 03e6 76616C31 		.ascii	"val1\000"
 6852      00
 6853              	.LASF139:
 6854 03eb 63795F73 		.ascii	"cy_stc_tcpwm_pwm_config_t\000"
 6854      74635F74 
 6854      6370776D 
 6854      5F70776D 
 6854      5F636F6E 
 6855              	.LASF462:
 6856 0405 76616C33 		.ascii	"val3\000"
 6856      00
 6857              	.LASF502:
 6858 040a 4368696D 		.ascii	"ChimeOutput_config\000"
 6858      654F7574 
 6858      7075745F 
 6858      636F6E66 
 6858      696700
 6859              	.LASF341:
 6860 041d 43595F42 		.ascii	"CY_BLE_EVT_GAP_GEN_SET_LOCAL_P256_KEYS_COMPLETE\000"
 6860      4C455F45 
 6860      56545F47 
 6860      41505F47 
 6860      454E5F53 
 6861              	.LASF370:
 6862 044d 43595F42 		.ascii	"CY_BLE_EVT_GATTC_LONG_PROCEDURE_END\000"
 6862      4C455F45 
 6862      56545F47 
 6862      41545443 
 6862      5F4C4F4E 
 6863              	.LASF52:
 6864 0471 52585F46 		.ascii	"RX_FIFO_STATUS\000"
 6864      49464F5F 
 6864      53544154 
 6864      555300
ARM GAS  C:\Users\fiona\AppData\Local\Temp\ccJKYDXi.s 			page 142


 6865              	.LASF375:
 6866 0480 43595F42 		.ascii	"CY_BLE_EVT_L2CAP_CBFC_CONN_CNF\000"
 6866      4C455F45 
 6866      56545F4C 
 6866      32434150 
 6866      5F434246 
 6867              	.LASF383:
 6868 049f 62644861 		.ascii	"bdHandle\000"
 6868      6E646C65 
 6868      00
 6869              	.LASF3:
 6870 04a8 5F5F7569 		.ascii	"__uint8_t\000"
 6870      6E74385F 
 6870      7400
 6871              	.LASF90:
 6872 04b2 494E5452 		.ascii	"INTR_RX_MASK\000"
 6872      5F52585F 
 6872      4D41534B 
 6872      00
 6873              	.LASF156:
 6874 04bf 75736552 		.ascii	"useRxFifo\000"
 6874      78466966 
 6874      6F00
 6875              	.LASF213:
 6876 04c9 64726F70 		.ascii	"dropOnFrameError\000"
 6876      4F6E4672 
 6876      616D6545 
 6876      72726F72 
 6876      00
 6877              	.LASF261:
 6878 04da 72616E67 		.ascii	"rangeIntrMask\000"
 6878      65496E74 
 6878      724D6173 
 6878      6B00
 6879              	.LASF365:
 6880 04e8 43595F42 		.ascii	"CY_BLE_EVT_GATTC_HANDLE_VALUE_IND\000"
 6880      4C455F45 
 6880      56545F47 
 6880      41545443 
 6880      5F48414E 
 6881              	.LASF136:
 6882 050a 73776170 		.ascii	"swapInput\000"
 6882      496E7075 
 6882      7400
 6883              	.LASF242:
 6884 0514 74784275 		.ascii	"txBufSize\000"
 6884      6653697A 
 6884      6500
 6885              	.LASF270:
 6886 051e 43595F42 		.ascii	"CY_BLE_EVT_STACK_BUSY_STATUS\000"
 6886      4C455F45 
 6886      56545F53 
 6886      5441434B 
 6886      5F425553 
 6887              	.LASF480:
 6888 053b 73616D70 		.ascii	"sample_new\000"
 6888      6C655F6E 
ARM GAS  C:\Users\fiona\AppData\Local\Temp\ccJKYDXi.s 			page 143


 6888      657700
 6889              	.LASF102:
 6890 0546 75696E74 		.ascii	"uint64\000"
 6890      363400
 6891              	.LASF8:
 6892 054d 6C6F6E67 		.ascii	"long int\000"
 6892      20696E74 
 6892      00
 6893              	.LASF349:
 6894 0556 43595F42 		.ascii	"CY_BLE_EVT_GATTS_XCNHG_MTU_REQ\000"
 6894      4C455F45 
 6894      56545F47 
 6894      41545453 
 6894      5F58434E 
 6895              	.LASF316:
 6896 0575 43595F42 		.ascii	"CY_BLE_EVT_SET_EVENT_MASK_COMPLETE\000"
 6896      4C455F45 
 6896      56545F53 
 6896      45545F45 
 6896      56454E54 
 6897              	.LASF398:
 6898 0598 43595F42 		.ascii	"CY_BLE_CONN_STATE_CLIENT_DISCOVERED\000"
 6898      4C455F43 
 6898      4F4E4E5F 
 6898      53544154 
 6898      455F434C 
 6899              	.LASF500:
 6900 05bc 4D6F746F 		.ascii	"MotorOutput_config\000"
 6900      724F7574 
 6900      7075745F 
 6900      636F6E66 
 6900      696700
 6901              	.LASF358:
 6902 05cf 43595F42 		.ascii	"CY_BLE_EVT_GATTS_WRITE_REQ\000"
 6902      4C455F45 
 6902      56545F47 
 6902      41545453 
 6902      5F575249 
 6903              	.LASF191:
 6904 05ea 43595F53 		.ascii	"CY_SCB_UART_STOP_BITS_2_5\000"
 6904      43425F55 
 6904      4152545F 
 6904      53544F50 
 6904      5F424954 
 6905              	.LASF27:
 6906 0604 5350495F 		.ascii	"SPI_CTRL\000"
 6906      4354524C 
 6906      00
 6907              	.LASF183:
 6908 060d 63795F73 		.ascii	"cy_stc_scb_i2c_master_xfer_config_t\000"
 6908      74635F73 
 6908      63625F69 
 6908      32635F6D 
 6908      61737465 
 6909              	.LASF371:
 6910 0631 43595F42 		.ascii	"CY_BLE_EVT_L2CAP_CONN_PARAM_UPDATE_REQ\000"
 6910      4C455F45 
ARM GAS  C:\Users\fiona\AppData\Local\Temp\ccJKYDXi.s 			page 144


 6910      56545F4C 
 6910      32434150 
 6910      5F434F4E 
 6911              	.LASF115:
 6912 0658 72656C6F 		.ascii	"reloadInputMode\000"
 6912      6164496E 
 6912      7075744D 
 6912      6F646500 
 6913              	.LASF411:
 6914 0668 65706F63 		.ascii	"epoch\000"
 6914      6800
 6915              	.LASF83:
 6916 066e 494E5452 		.ascii	"INTR_TX\000"
 6916      5F545800 
 6917              	.LASF86:
 6918 0676 494E5452 		.ascii	"INTR_TX_MASKED\000"
 6918      5F54585F 
 6918      4D41534B 
 6918      454400
 6919              	.LASF297:
 6920 0685 43595F42 		.ascii	"CY_BLE_EVT_SET_PRIVACY_MODE_COMPLETE\000"
 6920      4C455F45 
 6920      56545F53 
 6920      45545F50 
 6920      52495641 
 6921              	.LASF328:
 6922 06aa 43595F42 		.ascii	"CY_BLE_EVT_GAP_ENCRYPT_CHANGE\000"
 6922      4C455F45 
 6922      56545F47 
 6922      41505F45 
 6922      4E435259 
 6923              	.LASF342:
 6924 06c8 43595F42 		.ascii	"CY_BLE_EVT_GAP_CREATE_CONN_CANCEL_COMPLETE\000"
 6924      4C455F45 
 6924      56545F47 
 6924      41505F43 
 6924      52454154 
 6925              	.LASF288:
 6926 06f3 43595F42 		.ascii	"CY_BLE_EVT_SET_HOST_CHANNEL_COMPLETE\000"
 6926      4C455F45 
 6926      56545F53 
 6926      45545F48 
 6926      4F53545F 
 6927              	.LASF493:
 6928 0718 55415254 		.ascii	"UART_DEBUG_config\000"
 6928      5F444542 
 6928      55475F63 
 6928      6F6E6669 
 6928      6700
 6929              	.LASF32:
 6930 072a 55415254 		.ascii	"UART_RX_CTRL\000"
 6930      5F52585F 
 6930      4354524C 
 6930      00
 6931              	.LASF492:
 6932 0737 63795F62 		.ascii	"cy_ble_pendingFlashWrite\000"
 6932      6C655F70 
ARM GAS  C:\Users\fiona\AppData\Local\Temp\ccJKYDXi.s 			page 145


 6932      656E6469 
 6932      6E67466C 
 6932      61736857 
 6933              	.LASF89:
 6934 0750 494E5452 		.ascii	"INTR_RX_SET\000"
 6934      5F52585F 
 6934      53455400 
 6935              	.LASF452:
 6936 075c 64617461 		.ascii	"data\000"
 6936      00
 6937              	.LASF387:
 6938 0761 43595F42 		.ascii	"CY_BLE_ADV_STATE_ADV_INITIATED\000"
 6938      4C455F41 
 6938      44565F53 
 6938      54415445 
 6938      5F414456 
 6939              	.LASF446:
 6940 0780 64416363 		.ascii	"dAcc1ESlot\000"
 6940      3145536C 
 6940      6F7400
 6941              	.LASF269:
 6942 078b 43595F42 		.ascii	"CY_BLE_EVT_TIMEOUT\000"
 6942      4C455F45 
 6942      56545F54 
 6942      494D454F 
 6942      555400
 6943              	.LASF416:
 6944 079e 7A5F7261 		.ascii	"z_raw\000"
 6944      7700
 6945              	.LASF134:
 6946 07a4 6B696C6C 		.ascii	"killMode\000"
 6946      4D6F6465 
 6946      00
 6947              	.LASF498:
 6948 07ad 4C696768 		.ascii	"LightTimer_config\000"
 6948      7454696D 
 6948      65725F63 
 6948      6F6E6669 
 6948      6700
 6949              	.LASF290:
 6950 07bf 43595F42 		.ascii	"CY_BLE_EVT_REMOVE_DEVICE_FROM_RPA_LIST_COMPLETE\000"
 6950      4C455F45 
 6950      56545F52 
 6950      454D4F56 
 6950      455F4445 
 6951              	.LASF38:
 6952 07ef 4932435F 		.ascii	"I2C_M_CMD\000"
 6952      4D5F434D 
 6952      4400
 6953              	.LASF376:
 6954 07f9 43595F42 		.ascii	"CY_BLE_EVT_L2CAP_CBFC_DISCONN_IND\000"
 6954      4C455F45 
 6954      56545F4C 
 6954      32434150 
 6954      5F434246 
 6955              	.LASF400:
 6956 081b 6368616E 		.ascii	"channelBase\000"
ARM GAS  C:\Users\fiona\AppData\Local\Temp\ccJKYDXi.s 			page 146


 6956      6E656C42 
 6956      61736500 
 6957              	.LASF506:
 6958 0827 6E756D65 		.ascii	"numerators\000"
 6958      7261746F 
 6958      727300
 6959              	.LASF2:
 6960 0832 7369676E 		.ascii	"signed char\000"
 6960      65642063 
 6960      68617200 
 6961              	.LASF336:
 6962 083e 43595F42 		.ascii	"CY_BLE_EVT_GAPC_DIRECT_ADV_REPORT\000"
 6962      4C455F45 
 6962      56545F47 
 6962      4150435F 
 6962      44495245 
 6963              	.LASF450:
 6964 0860 78666572 		.ascii	"xferConfig\000"
 6964      436F6E66 
 6964      696700
 6965              	.LASF15:
 6966 086b 75696E74 		.ascii	"uint8_t\000"
 6966      385F7400 
 6967              	.LASF129:
 6968 0873 70657269 		.ascii	"period0\000"
 6968      6F643000 
 6969              	.LASF130:
 6970 087b 70657269 		.ascii	"period1\000"
 6970      6F643100 
 6971              	.LASF426:
 6972 0883 4143435F 		.ascii	"ACC_1E_RATE_200_HZ\000"
 6972      31455F52 
 6972      4154455F 
 6972      3230305F 
 6972      485A00
 6973              	.LASF20:
 6974 0896 75696E74 		.ascii	"uint64_t\000"
 6974      36345F74 
 6974      00
 6975              	.LASF217:
 6976 089f 61636365 		.ascii	"acceptAddrInFifo\000"
 6976      70744164 
 6976      6472496E 
 6976      4669666F 
 6976      00
 6977              	.LASF170:
 6978 08b0 736C6176 		.ascii	"slaveTxBufferIdx\000"
 6978      65547842 
 6978      75666665 
 6978      72496478 
 6978      00
 6979              	.LASF379:
 6980 08c1 43595F42 		.ascii	"CY_BLE_EVT_L2CAP_CBFC_RX_CREDIT_IND\000"
 6980      4C455F45 
 6980      56545F4C 
 6980      32434150 
 6980      5F434246 
ARM GAS  C:\Users\fiona\AppData\Local\Temp\ccJKYDXi.s 			page 147


 6981              	.LASF366:
 6982 08e5 43595F42 		.ascii	"CY_BLE_EVT_GATTS_HANDLE_VALUE_CNF\000"
 6982      4C455F45 
 6982      56545F47 
 6982      41545453 
 6982      5F48414E 
 6983              	.LASF236:
 6984 0907 72785269 		.ascii	"rxRingBufHead\000"
 6984      6E674275 
 6984      66486561 
 6984      6400
 6985              	.LASF172:
 6986 0915 736C6176 		.ascii	"slaveRxBuffer\000"
 6986      65527842 
 6986      75666665 
 6986      7200
 6987              	.LASF29:
 6988 0923 52455345 		.ascii	"RESERVED1\000"
 6988      52564544 
 6988      3100
 6989              	.LASF1:
 6990 092d 756E7369 		.ascii	"unsigned char\000"
 6990      676E6564 
 6990      20636861 
 6990      7200
 6991              	.LASF85:
 6992 093b 494E5452 		.ascii	"INTR_TX_MASK\000"
 6992      5F54585F 
 6992      4D41534B 
 6992      00
 6993              	.LASF43:
 6994 0948 52455345 		.ascii	"RESERVED4\000"
 6994      52564544 
 6994      3400
 6995              	.LASF47:
 6996 0952 52455345 		.ascii	"RESERVED5\000"
 6996      52564544 
 6996      3500
 6997              	.LASF49:
 6998 095c 52455345 		.ascii	"RESERVED6\000"
 6998      52564544 
 6998      3600
 6999              	.LASF53:
 7000 0966 52455345 		.ascii	"RESERVED7\000"
 7000      52564544 
 7000      3700
 7001              	.LASF55:
 7002 0970 52455345 		.ascii	"RESERVED8\000"
 7002      52564544 
 7002      3800
 7003              	.LASF58:
 7004 097a 52455345 		.ascii	"RESERVED9\000"
 7004      52564544 
 7004      3900
 7005              	.LASF424:
 7006 0984 4143435F 		.ascii	"ACC_1E_RATE_800_HZ\000"
 7006      31455F52 
ARM GAS  C:\Users\fiona\AppData\Local\Temp\ccJKYDXi.s 			page 148


 7006      4154455F 
 7006      3830305F 
 7006      485A00
 7007              	.LASF260:
 7008 0997 73617449 		.ascii	"satIntrMask\000"
 7008      6E74724D 
 7008      61736B00 
 7009              	.LASF224:
 7010 09a3 72747350 		.ascii	"rtsPolarity\000"
 7010      6F6C6172 
 7010      69747900 
 7011              	.LASF396:
 7012 09af 43595F42 		.ascii	"CY_BLE_CONN_STATE_CLIENT_CHAR_DISCOVERING\000"
 7012      4C455F43 
 7012      4F4E4E5F 
 7012      53544154 
 7012      455F434C 
 7013              	.LASF251:
 7014 09d9 6374726C 		.ascii	"ctrl\000"
 7014      00
 7015              	.LASF353:
 7016 09de 43595F42 		.ascii	"CY_BLE_EVT_GATTC_FIND_INFO_RSP\000"
 7016      4C455F45 
 7016      56545F47 
 7016      41545443 
 7016      5F46494E 
 7017              	.LASF321:
 7018 09fd 43595F42 		.ascii	"CY_BLE_EVT_GAP_PASSKEY_ENTRY_REQUEST\000"
 7018      4C455F45 
 7018      56545F47 
 7018      41505F50 
 7018      4153534B 
 7019              	.LASF265:
 7020 0a22 76726566 		.ascii	"vrefMvValue\000"
 7020      4D765661 
 7020      6C756500 
 7021              	.LASF451:
 7022 0a2e 7265675F 		.ascii	"reg_addr\000"
 7022      61646472 
 7022      00
 7023              	.LASF275:
 7024 0a37 43595F42 		.ascii	"CY_BLE_EVT_WRITE_AUTH_PAYLOAD_TO_COMPLETE\000"
 7024      4C455F45 
 7024      56545F57 
 7024      52495445 
 7024      5F415554 
 7025              	.LASF490:
 7026 0a61 63795F62 		.ascii	"cy_ble_connHandle\000"
 7026      6C655F63 
 7026      6F6E6E48 
 7026      616E646C 
 7026      6500
 7027              	.LASF103:
 7028 0a73 5F426F6F 		.ascii	"_Bool\000"
 7028      6C00
 7029              	.LASF46:
 7030 0a79 54585F46 		.ascii	"TX_FIFO_STATUS\000"
ARM GAS  C:\Users\fiona\AppData\Local\Temp\ccJKYDXi.s 			page 149


 7030      49464F5F 
 7030      53544154 
 7030      555300
 7031              	.LASF516:
 7032 0a88 474E5520 		.ascii	"GNU C11 5.4.1 20160609 (release) [ARM/embedded-5-br"
 7032      43313120 
 7032      352E342E 
 7032      31203230 
 7032      31363036 
 7033 0abb 616E6368 		.ascii	"anch revision 237715] -mcpu=cortex-m0plus -mthumb -"
 7033      20726576 
 7033      6973696F 
 7033      6E203233 
 7033      37373135 
 7034 0aee 67202D4F 		.ascii	"g -Og -ffunction-sections -ffat-lto-objects\000"
 7034      67202D66 
 7034      66756E63 
 7034      74696F6E 
 7034      2D736563 
 7035              	.LASF42:
 7036 0b1a 44444654 		.ascii	"DDFT_CTRL\000"
 7036      5F435452 
 7036      4C00
 7037              	.LASF35:
 7038 0b24 52455345 		.ascii	"RESERVED2\000"
 7038      52564544 
 7038      3200
 7039              	.LASF41:
 7040 0b2e 52455345 		.ascii	"RESERVED3\000"
 7040      52564544 
 7040      3300
 7041              	.LASF509:
 7042 0b38 43795F53 		.ascii	"Cy_SCB_I2C_MasterGetStatus\000"
 7042      43425F49 
 7042      32435F4D 
 7042      61737465 
 7042      72476574 
 7043              	.LASF94:
 7044 0b53 63686172 		.ascii	"char\000"
 7044      00
 7045              	.LASF368:
 7046 0b58 43595F42 		.ascii	"CY_BLE_EVT_GATTC_STOP_CMD_COMPLETE\000"
 7046      4C455F45 
 7046      56545F47 
 7046      41545443 
 7046      5F53544F 
 7047              	.LASF39:
 7048 0b7b 4932435F 		.ascii	"I2C_S_CMD\000"
 7048      535F434D 
 7048      4400
 7049              	.LASF427:
 7050 0b85 4143435F 		.ascii	"ACC_1E_RATE_100_HZ\000"
 7050      31455F52 
 7050      4154455F 
 7050      3130305F 
 7050      485A00
 7051              	.LASF503:
ARM GAS  C:\Users\fiona\AppData\Local\Temp\ccJKYDXi.s 			page 150


 7052 0b98 4368696D 		.ascii	"ChimeTimer_config\000"
 7052      6554696D 
 7052      65725F63 
 7052      6F6E6669 
 7052      6700
 7053              	.LASF78:
 7054 0baa 494E5452 		.ascii	"INTR_S\000"
 7054      5F5300
 7055              	.LASF293:
 7056 0bb1 43595F42 		.ascii	"CY_BLE_EVT_GET_PHY_COMPLETE\000"
 7056      4C455F45 
 7056      56545F47 
 7056      45545F50 
 7056      48595F43 
 7057              	.LASF295:
 7058 0bcd 43595F42 		.ascii	"CY_BLE_EVT_SET_PHY_COMPLETE\000"
 7058      4C455F45 
 7058      56545F53 
 7058      45545F50 
 7058      48595F43 
 7059              	.LASF310:
 7060 0be9 43595F42 		.ascii	"CY_BLE_EVT_AES_CCM_DECRYPT_COMPLETE\000"
 7060      4C455F45 
 7060      56545F41 
 7060      45535F43 
 7060      434D5F44 
 7061              	.LASF106:
 7062 0c0d 72756E4D 		.ascii	"runMode\000"
 7062      6F646500 
 7063              	.LASF239:
 7064 0c15 72784275 		.ascii	"rxBufSize\000"
 7064      6653697A 
 7064      6500
 7065              	.LASF31:
 7066 0c1f 55415254 		.ascii	"UART_TX_CTRL\000"
 7066      5F54585F 
 7066      4354524C 
 7066      00
 7067              	.LASF48:
 7068 0c2c 54585F46 		.ascii	"TX_FIFO_WR\000"
 7068      49464F5F 
 7068      575200
 7069              	.LASF471:
 7070 0c37 73616D70 		.ascii	"sample_period\000"
 7070      6C655F70 
 7070      6572696F 
 7070      6400
 7071              	.LASF105:
 7072 0c45 636C6F63 		.ascii	"clockPrescaler\000"
 7072      6B507265 
 7072      7363616C 
 7072      657200
 7073              	.LASF327:
 7074 0c54 43595F42 		.ascii	"CY_BLE_EVT_GAP_DEVICE_DISCONNECTED\000"
 7074      4C455F45 
 7074      56545F47 
 7074      41505F44 
ARM GAS  C:\Users\fiona\AppData\Local\Temp\ccJKYDXi.s 			page 151


 7074      45564943 
 7075              	.LASF319:
 7076 0c77 43595F42 		.ascii	"CY_BLE_EVT_GAPC_SCAN_PROGRESS_RESULT\000"
 7076      4C455F45 
 7076      56545F47 
 7076      4150435F 
 7076      5343414E 
 7077              	.LASF184:
 7078 0c9c 43595F53 		.ascii	"CY_SCB_UART_STANDARD\000"
 7078      43425F55 
 7078      4152545F 
 7078      5354414E 
 7078      44415244 
 7079              	.LASF335:
 7080 0cb1 43595F42 		.ascii	"CY_BLE_EVT_GAP_ENHANCE_CONN_COMPLETE\000"
 7080      4C455F45 
 7080      56545F47 
 7080      41505F45 
 7080      4E48414E 
 7081              	.LASF496:
 7082 0cd6 4C696768 		.ascii	"LightOutputC_config\000"
 7082      744F7574 
 7082      70757443 
 7082      5F636F6E 
 7082      66696700 
 7083              	.LASF418:
 7084 0cea 6E756D65 		.ascii	"numerator\000"
 7084      7261746F 
 7084      7200
 7085              	.LASF338:
 7086 0cf4 43595F42 		.ascii	"CY_BLE_EVT_GAP_DEVICE_ADDR_GEN_COMPLETE\000"
 7086      4C455F45 
 7086      56545F47 
 7086      41505F44 
 7086      45564943 
 7087              	.LASF51:
 7088 0d1c 52585F46 		.ascii	"RX_FIFO_CTRL\000"
 7088      49464F5F 
 7088      4354524C 
 7088      00
 7089              	.LASF167:
 7090 0d29 736C6176 		.ascii	"slaveRdBufEmpty\000"
 7090      65526442 
 7090      7566456D 
 7090      70747900 
 7091              	.LASF266:
 7092 0d39 63795F73 		.ascii	"cy_stc_sar_config_t\000"
 7092      74635F73 
 7092      61725F63 
 7092      6F6E6669 
 7092      675F7400 
 7093              	.LASF414:
 7094 0d4d 785F7261 		.ascii	"x_raw\000"
 7094      7700
 7095              	.LASF359:
 7096 0d53 43595F42 		.ascii	"CY_BLE_EVT_GATTC_WRITE_RSP\000"
 7096      4C455F45 
ARM GAS  C:\Users\fiona\AppData\Local\Temp\ccJKYDXi.s 			page 152


 7096      56545F47 
 7096      41545443 
 7096      5F575249 
 7097              	.LASF406:
 7098 0d6e 79656172 		.ascii	"year\000"
 7098      00
 7099              	.LASF230:
 7100 0d73 63795F73 		.ascii	"cy_stc_scb_uart_config_t\000"
 7100      74635F73 
 7100      63625F75 
 7100      6172745F 
 7100      636F6E66 
 7101              	.LASF276:
 7102 0d8c 43595F42 		.ascii	"CY_BLE_EVT_READ_AUTH_PAYLOAD_TO_COMPLETE\000"
 7102      4C455F45 
 7102      56545F52 
 7102      4541445F 
 7102      41555448 
 7103              	.LASF171:
 7104 0db5 736C6176 		.ascii	"slaveTxBufferCnt\000"
 7104      65547842 
 7104      75666665 
 7104      72436E74 
 7104      00
 7105              	.LASF481:
 7106 0dc6 696E7465 		.ascii	"interpolated\000"
 7106      72706F6C 
 7106      61746564 
 7106      00
 7107              	.LASF435:
 7108 0dd3 47595232 		.ascii	"GYR20SLOT\000"
 7108      30534C4F 
 7108      5400
 7109              	.LASF364:
 7110 0ddd 43595F42 		.ascii	"CY_BLE_EVT_GATTC_HANDLE_VALUE_NTF\000"
 7110      4C455F45 
 7110      56545F47 
 7110      41545443 
 7110      5F48414E 
 7111              	.LASF334:
 7112 0dff 43595F42 		.ascii	"CY_BLE_EVT_GAP_OOB_GENERATED_NOTIFICATION\000"
 7112      4C455F45 
 7112      56545F47 
 7112      41505F4F 
 7112      4F425F47 
 7113              	.LASF318:
 7114 0e29 43595F42 		.ascii	"CY_BLE_EVT_SET_CONN_PRIORITY_COMPLETE\000"
 7114      4C455F45 
 7114      56545F53 
 7114      45545F43 
 7114      4F4E4E5F 
 7115              	.LASF125:
 7116 0e4f 63795F73 		.ascii	"cy_stc_tcpwm_pwm_config\000"
 7116      74635F74 
 7116      6370776D 
 7116      5F70776D 
 7116      5F636F6E 
ARM GAS  C:\Users\fiona\AppData\Local\Temp\ccJKYDXi.s 			page 153


 7117              	.LASF294:
 7118 0e67 43595F42 		.ascii	"CY_BLE_EVT_SET_DEFAULT_PHY_COMPLETE\000"
 7118      4C455F45 
 7118      56545F53 
 7118      45545F44 
 7118      45464155 
 7119              	.LASF26:
 7120 0e8b 52455345 		.ascii	"RESERVED\000"
 7120      52564544 
 7120      00
 7121              	.LASF180:
 7122 0e94 62756666 		.ascii	"buffer\000"
 7122      657200
 7123              	.LASF33:
 7124 0e9b 55415254 		.ascii	"UART_RX_STATUS\000"
 7124      5F52585F 
 7124      53544154 
 7124      555300
 7125              	.LASF150:
 7126 0eaa 43595F53 		.ascii	"CY_SCB_I2C_ACK\000"
 7126      43425F49 
 7126      32435F41 
 7126      434B00
 7127              	.LASF442:
 7128 0eb9 434C5238 		.ascii	"CLR8ZSLOT\000"
 7128      5A534C4F 
 7128      5400
 7129              	.LASF346:
 7130 0ec3 43595F42 		.ascii	"CY_BLE_EVT_GATTC_ERROR_RSP\000"
 7130      4C455F45 
 7130      56545F47 
 7130      41545443 
 7130      5F455252 
 7131              	.LASF361:
 7132 0ede 43595F42 		.ascii	"CY_BLE_EVT_GATTS_PREP_WRITE_REQ\000"
 7132      4C455F45 
 7132      56545F47 
 7132      41545453 
 7132      5F505245 
 7133              	.LASF402:
 7134 0efe 6877436F 		.ascii	"hwConfigStc\000"
 7134      6E666967 
 7134      53746300 
 7135              	.LASF380:
 7136 0f0a 43595F42 		.ascii	"CY_BLE_EVT_L2CAP_CBFC_TX_CREDIT_IND\000"
 7136      4C455F45 
 7136      56545F4C 
 7136      32434150 
 7136      5F434246 
 7137              	.LASF25:
 7138 0f2e 434D445F 		.ascii	"CMD_RESP_STATUS\000"
 7138      52455350 
 7138      5F535441 
 7138      54555300 
 7139              	.LASF439:
 7140 0f3e 544D5034 		.ascii	"TMP40SLOT\000"
 7140      30534C4F 
ARM GAS  C:\Users\fiona\AppData\Local\Temp\ccJKYDXi.s 			page 154


 7140      5400
 7141              	.LASF148:
 7142 0f48 43595F53 		.ascii	"CY_SCB_I2C_MASTER_MANUAL_ABORT_START\000"
 7142      43425F49 
 7142      32435F4D 
 7142      41535445 
 7142      525F4D41 
 7143              	.LASF464:
 7144 0f6d 696E6465 		.ascii	"index\000"
 7144      7800
 7145              	.LASF196:
 7146 0f73 43595F53 		.ascii	"CY_SCB_UART_PARITY_NONE\000"
 7146      43425F55 
 7146      4152545F 
 7146      50415249 
 7146      54595F4E 
 7147              	.LASF302:
 7148 0f8b 43595F42 		.ascii	"CY_BLE_EVT_GET_RSSI_COMPLETE\000"
 7148      4C455F45 
 7148      56545F47 
 7148      45545F52 
 7148      5353495F 
 7149              	.LASF146:
 7150 0fa8 43595F53 		.ascii	"CY_SCB_I2C_MASTER_MANUAL_ARB_LOST\000"
 7150      43425F49 
 7150      32435F4D 
 7150      41535445 
 7150      525F4D41 
 7151              	.LASF163:
 7152 0fca 6D617374 		.ascii	"masterBufferSize\000"
 7152      65724275 
 7152      66666572 
 7152      53697A65 
 7152      00
 7153              	.LASF181:
 7154 0fdb 62756666 		.ascii	"bufferSize\000"
 7154      65725369 
 7154      7A6500
 7155              	.LASF132:
 7156 0fe6 696E7665 		.ascii	"invertPWMOut\000"
 7156      72745057 
 7156      4D4F7574 
 7156      00
 7157              	.LASF12:
 7158 0ff3 5F5F7569 		.ascii	"__uint64_t\000"
 7158      6E743634 
 7158      5F7400
 7159              	.LASF351:
 7160 0ffe 43595F42 		.ascii	"CY_BLE_EVT_GATTC_READ_BY_GROUP_TYPE_RSP\000"
 7160      4C455F45 
 7160      56545F47 
 7160      41545443 
 7160      5F524541 
 7161              	.LASF10:
 7162 1026 6C6F6E67 		.ascii	"long unsigned int\000"
 7162      20756E73 
 7162      69676E65 
ARM GAS  C:\Users\fiona\AppData\Local\Temp\ccJKYDXi.s 			page 155


 7162      6420696E 
 7162      7400
 7163              	.LASF430:
 7164 1038 4143435F 		.ascii	"ACC_1E_RATE_12_5_HZ\000"
 7164      31455F52 
 7164      4154455F 
 7164      31325F35 
 7164      5F485A00 
 7165              	.LASF330:
 7166 104c 43595F42 		.ascii	"CY_BLE_EVT_GAPC_SCAN_START_STOP\000"
 7166      4C455F45 
 7166      56545F47 
 7166      4150435F 
 7166      5343414E 
 7167              	.LASF412:
 7168 106c 73656E73 		.ascii	"sensor_type\000"
 7168      6F725F74 
 7168      79706500 
 7169              	.LASF423:
 7170 1078 53657474 		.ascii	"Settings\000"
 7170      696E6773 
 7170      00
 7171              	.LASF286:
 7172 1081 43595F42 		.ascii	"CY_BLE_EVT_SET_RPA_TO_COMPLETE\000"
 7172      4C455F45 
 7172      56545F53 
 7172      45545F52 
 7172      50415F54 
 7173              	.LASF75:
 7174 10a0 494E5452 		.ascii	"INTR_M_MASK\000"
 7174      5F4D5F4D 
 7174      41534B00 
 7175              	.LASF249:
 7176 10ac 43595F53 		.ascii	"CY_SAR_RANGE_COND_OUTSIDE\000"
 7176      41525F52 
 7176      414E4745 
 7176      5F434F4E 
 7176      445F4F55 
 7177              	.LASF243:
 7178 10c6 74784C65 		.ascii	"txLeftToTransmit\000"
 7178      6674546F 
 7178      5472616E 
 7178      736D6974 
 7178      00
 7179              	.LASF218:
 7180 10d7 69726461 		.ascii	"irdaInvertRx\000"
 7180      496E7665 
 7180      72745278 
 7180      00
 7181              	.LASF373:
 7182 10e4 43595F42 		.ascii	"CY_BLE_EVT_L2CAP_COMMAND_REJ\000"
 7182      4C455F45 
 7182      56545F4C 
 7182      32434150 
 7182      5F434F4D 
 7183              	.LASF207:
 7184 1101 64617461 		.ascii	"dataWidth\000"
ARM GAS  C:\Users\fiona\AppData\Local\Temp\ccJKYDXi.s 			page 156


 7184      57696474 
 7184      6800
 7185              	.LASF166:
 7186 110b 736C6176 		.ascii	"slaveStatus\000"
 7186      65537461 
 7186      74757300 
 7187              	.LASF348:
 7188 1117 43595F42 		.ascii	"CY_BLE_EVT_GATT_DISCONNECT_IND\000"
 7188      4C455F45 
 7188      56545F47 
 7188      4154545F 
 7188      44495343 
 7189              	.LASF131:
 7190 1136 656E6162 		.ascii	"enablePeriodSwap\000"
 7190      6C655065 
 7190      72696F64 
 7190      53776170 
 7190      00
 7191              	.LASF212:
 7192 1147 64726F70 		.ascii	"dropOnParityError\000"
 7192      4F6E5061 
 7192      72697479 
 7192      4572726F 
 7192      7200
 7193              	.LASF404:
 7194 1159 636C6B44 		.ascii	"clkDivider\000"
 7194      69766964 
 7194      657200
 7195              	.LASF204:
 7196 1164 7374635F 		.ascii	"stc_scb_uart_config\000"
 7196      7363625F 
 7196      75617274 
 7196      5F636F6E 
 7196      66696700 
 7197              	.LASF354:
 7198 1178 43595F42 		.ascii	"CY_BLE_EVT_GATTC_FIND_BY_TYPE_VALUE_RSP\000"
 7198      4C455F45 
 7198      56545F47 
 7198      41545443 
 7198      5F46494E 
 7199              	.LASF250:
 7200 11a0 63795F65 		.ascii	"cy_en_sar_range_detect_condition_t\000"
 7200      6E5F7361 
 7200      725F7261 
 7200      6E67655F 
 7200      64657465 
 7201              	.LASF421:
 7202 11c3 6163635F 		.ascii	"acc_struct\000"
 7202      73747275 
 7202      637400
 7203              	.LASF124:
 7204 11ce 63795F73 		.ascii	"cy_stc_tcpwm_counter_config\000"
 7204      74635F74 
 7204      6370776D 
 7204      5F636F75 
 7204      6E746572 
 7205              	.LASF374:
ARM GAS  C:\Users\fiona\AppData\Local\Temp\ccJKYDXi.s 			page 157


 7206 11ea 43595F42 		.ascii	"CY_BLE_EVT_L2CAP_CBFC_CONN_IND\000"
 7206      4C455F45 
 7206      56545F4C 
 7206      32434150 
 7206      5F434246 
 7207              	.LASF445:
 7208 1209 42544D31 		.ascii	"BTM17SLOT\000"
 7208      37534C4F 
 7208      5400
 7209              	.LASF311:
 7210 1213 43595F42 		.ascii	"CY_BLE_EVT_SET_SLAVE_LATENCY_MODE_COMPLETE\000"
 7210      4C455F45 
 7210      56545F53 
 7210      45545F53 
 7210      4C415645 
 7211              	.LASF394:
 7212 123e 43595F42 		.ascii	"CY_BLE_CONN_STATE_CLIENT_SRVC_DISCOVERING\000"
 7212      4C455F43 
 7212      4F4E4E5F 
 7212      53544154 
 7212      455F434C 
 7213              	.LASF307:
 7214 1268 43595F42 		.ascii	"CY_BLE_EVT_RANDOM_NUM_GEN_COMPLETE\000"
 7214      4C455F45 
 7214      56545F52 
 7214      414E444F 
 7214      4D5F4E55 
 7215              	.LASF355:
 7216 128b 43595F42 		.ascii	"CY_BLE_EVT_GATTC_READ_RSP\000"
 7216      4C455F45 
 7216      56545F47 
 7216      41545443 
 7216      5F524541 
 7217              	.LASF112:
 7218 12a5 696E7465 		.ascii	"interruptSources\000"
 7218      72727570 
 7218      74536F75 
 7218      72636573 
 7218      00
 7219              	.LASF362:
 7220 12b6 43595F42 		.ascii	"CY_BLE_EVT_GATTS_EXEC_WRITE_REQ\000"
 7220      4C455F45 
 7220      56545F47 
 7220      41545453 
 7220      5F455845 
 7221              	.LASF448:
 7222 12d6 53656E73 		.ascii	"SensorBus_MasterWrite\000"
 7222      6F724275 
 7222      735F4D61 
 7222      73746572 
 7222      57726974 
 7223              	.LASF429:
 7224 12ec 4143435F 		.ascii	"ACC_1E_RATE_25_HZ\000"
 7224      31455F52 
 7224      4154455F 
 7224      32355F48 
 7224      5A00
ARM GAS  C:\Users\fiona\AppData\Local\Temp\ccJKYDXi.s 			page 158


 7225              	.LASF169:
 7226 12fe 736C6176 		.ascii	"slaveTxBufferSize\000"
 7226      65547842 
 7226      75666665 
 7226      7253697A 
 7226      6500
 7227              	.LASF519:
 7228 1310 53656E73 		.ascii	"SensorBus_MasterGetStatus\000"
 7228      6F724275 
 7228      735F4D61 
 7228      73746572 
 7228      47657453 
 7229              	.LASF428:
 7230 132a 4143435F 		.ascii	"ACC_1E_RATE_50_HZ\000"
 7230      31455F52 
 7230      4154455F 
 7230      35305F48 
 7230      5A00
 7231              	.LASF135:
 7232 133c 73776170 		.ascii	"swapInputMode\000"
 7232      496E7075 
 7232      744D6F64 
 7232      6500
 7233              	.LASF271:
 7234 134a 43595F42 		.ascii	"CY_BLE_EVT_MEMORY_REQUEST\000"
 7234      4C455F45 
 7234      56545F4D 
 7234      454D4F52 
 7234      595F5245 
 7235              	.LASF9:
 7236 1364 5F5F7569 		.ascii	"__uint32_t\000"
 7236      6E743332 
 7236      5F7400
 7237              	.LASF59:
 7238 136f 455A5F44 		.ascii	"EZ_DATA\000"
 7238      41544100 
 7239              	.LASF50:
 7240 1377 52585F43 		.ascii	"RX_CTRL\000"
 7240      54524C00 
 7241              	.LASF11:
 7242 137f 6C6F6E67 		.ascii	"long long int\000"
 7242      206C6F6E 
 7242      6720696E 
 7242      7400
 7243              	.LASF168:
 7244 138d 736C6176 		.ascii	"slaveTxBuffer\000"
 7244      65547842 
 7244      75666665 
 7244      7200
 7245              	.LASF245:
 7246 139b 63795F73 		.ascii	"cy_stc_scb_uart_context_t\000"
 7246      74635F73 
 7246      63625F75 
 7246      6172745F 
 7246      636F6E74 
 7247              	.LASF454:
 7248 13b5 636F756E 		.ascii	"counter\000"
ARM GAS  C:\Users\fiona\AppData\Local\Temp\ccJKYDXi.s 			page 159


 7248      74657200 
 7249              	.LASF377:
 7250 13bd 43595F42 		.ascii	"CY_BLE_EVT_L2CAP_CBFC_DISCONN_CNF\000"
 7250      4C455F45 
 7250      56545F4C 
 7250      32434150 
 7250      5F434246 
 7251              	.LASF165:
 7252 13df 6D617374 		.ascii	"masterNumBytes\000"
 7252      65724E75 
 7252      6D427974 
 7252      657300
 7253              	.LASF140:
 7254 13ee 43595F53 		.ascii	"CY_SCB_I2C_SUCCESS\000"
 7254      43425F49 
 7254      32435F53 
 7254      55434345 
 7254      535300
 7255              	.LASF253:
 7256 1401 73616D70 		.ascii	"sampleTime01\000"
 7256      6C655469 
 7256      6D653031 
 7256      00
 7257              	.LASF76:
 7258 140e 494E5452 		.ascii	"INTR_M_MASKED\000"
 7258      5F4D5F4D 
 7258      41534B45 
 7258      4400
 7259              	.LASF410:
 7260 141c 7365636F 		.ascii	"second\000"
 7260      6E6400
 7261              	.LASF409:
 7262 1423 6D696E75 		.ascii	"minute\000"
 7262      746500
 7263              	.LASF96:
 7264 142a 646F7562 		.ascii	"double\000"
 7264      6C6500
 7265              	.LASF195:
 7266 1431 63795F65 		.ascii	"cy_en_scb_uart_stop_bits_t\000"
 7266      6E5F7363 
 7266      625F7561 
 7266      72745F73 
 7266      746F705F 
 7267              	.LASF378:
 7268 144c 43595F42 		.ascii	"CY_BLE_EVT_L2CAP_CBFC_DATA_READ\000"
 7268      4C455F45 
 7268      56545F4C 
 7268      32434150 
 7268      5F434246 
 7269              	.LASF119:
 7270 146c 73746F70 		.ascii	"stopInputMode\000"
 7270      496E7075 
 7270      744D6F64 
 7270      6500
 7271              	.LASF240:
 7272 147a 72784275 		.ascii	"rxBufIdx\000"
 7272      66496478 
ARM GAS  C:\Users\fiona\AppData\Local\Temp\ccJKYDXi.s 			page 160


 7272      00
 7273              	.LASF201:
 7274 1483 43595F53 		.ascii	"CY_SCB_UART_ACTIVE_HIGH\000"
 7274      43425F55 
 7274      4152545F 
 7274      41435449 
 7274      56455F48 
 7275              	.LASF210:
 7276 149b 70617269 		.ascii	"parity\000"
 7276      747900
 7277              	.LASF282:
 7278 14a2 43595F42 		.ascii	"CY_BLE_EVT_GET_DATA_LENGTH_COMPLETE\000"
 7278      4C455F45 
 7278      56545F47 
 7278      45545F44 
 7278      4154415F 
 7279              	.LASF95:
 7280 14c6 666C6F61 		.ascii	"float\000"
 7280      7400
 7281              	.LASF520:
 7282 14cc 52656164 		.ascii	"ReadRegister\000"
 7282      52656769 
 7282      73746572 
 7282      00
 7283              	.LASF343:
 7284 14d9 43595F42 		.ascii	"CY_BLE_EVT_GAP_CONN_ESTB\000"
 7284      4C455F45 
 7284      56545F47 
 7284      41505F43 
 7284      4F4E4E5F 
 7285              	.LASF320:
 7286 14f2 43595F42 		.ascii	"CY_BLE_EVT_GAP_AUTH_REQ\000"
 7286      4C455F45 
 7286      56545F47 
 7286      41505F41 
 7286      5554485F 
 7287              	.LASF28:
 7288 150a 5350495F 		.ascii	"SPI_STATUS\000"
 7288      53544154 
 7288      555300
 7289              	.LASF219:
 7290 1515 69726461 		.ascii	"irdaEnableLowPowerReceiver\000"
 7290      456E6162 
 7290      6C654C6F 
 7290      77506F77 
 7290      65725265 
 7291              	.LASF205:
 7292 1530 75617274 		.ascii	"uartMode\000"
 7292      4D6F6465 
 7292      00
 7293              	.LASF14:
 7294 1539 756E7369 		.ascii	"unsigned int\000"
 7294      676E6564 
 7294      20696E74 
 7294      00
 7295              	.LASF22:
 7296 1546 4354524C 		.ascii	"CTRL\000"
ARM GAS  C:\Users\fiona\AppData\Local\Temp\ccJKYDXi.s 			page 161


 7296      00
 7297              	.LASF487:
 7298 154b 7A5F6C73 		.ascii	"z_lsb\000"
 7298      6200
 7299              	.LASF392:
 7300 1551 43595F42 		.ascii	"CY_BLE_CONN_STATE_CLIENT_DISCONNECTED_DISCOVERED\000"
 7300      4C455F43 
 7300      4F4E4E5F 
 7300      53544154 
 7300      455F434C 
 7301              	.LASF126:
 7302 1582 70776D4D 		.ascii	"pwmMode\000"
 7302      6F646500 
 7303              	.LASF291:
 7304 158a 43595F42 		.ascii	"CY_BLE_EVT_ADD_DEVICE_TO_WHITE_LIST_COMPLETE\000"
 7304      4C455F45 
 7304      56545F41 
 7304      44445F44 
 7304      45564943 
 7305              	.LASF111:
 7306 15b7 656E6162 		.ascii	"enableCompareSwap\000"
 7306      6C65436F 
 7306      6D706172 
 7306      65537761 
 7306      7000
 7307              	.LASF254:
 7308 15c9 73616D70 		.ascii	"sampleTime23\000"
 7308      6C655469 
 7308      6D653233 
 7308      00
 7309              	.LASF138:
 7310 15d6 6B696C6C 		.ascii	"killInput\000"
 7310      496E7075 
 7310      7400
 7311              	.LASF333:
 7312 15e0 43595F42 		.ascii	"CY_BLE_EVT_GAP_KEYPRESS_NOTIFICATION\000"
 7312      4C455F45 
 7312      56545F47 
 7312      41505F4B 
 7312      45595052 
 7313              	.LASF277:
 7314 1605 43595F42 		.ascii	"CY_BLE_EVT_GET_CHANNEL_MAP_COMPLETE\000"
 7314      4C455F45 
 7314      56545F47 
 7314      45545F43 
 7314      48414E4E 
 7315              	.LASF122:
 7316 1629 636F756E 		.ascii	"countInput\000"
 7316      74496E70 
 7316      757400
 7317              	.LASF444:
 7318 1634 4D494334 		.ascii	"MIC4USLOT\000"
 7318      55534C4F 
 7318      5400
 7319              	.LASF507:
 7320 163e 64656E6F 		.ascii	"denominators\000"
 7320      6D696E61 
ARM GAS  C:\Users\fiona\AppData\Local\Temp\ccJKYDXi.s 			page 162


 7320      746F7273 
 7320      00
 7321              	.LASF395:
 7322 164b 43595F42 		.ascii	"CY_BLE_CONN_STATE_CLIENT_INCL_DISCOVERING\000"
 7322      4C455F43 
 7322      4F4E4E5F 
 7322      53544154 
 7322      455F434C 
 7323              	.LASF347:
 7324 1675 43595F42 		.ascii	"CY_BLE_EVT_GATT_CONNECT_IND\000"
 7324      4C455F45 
 7324      56545F47 
 7324      4154545F 
 7324      434F4E4E 
 7325              	.LASF44:
 7326 1691 54585F43 		.ascii	"TX_CTRL\000"
 7326      54524C00 
 7327              	.LASF65:
 7328 1699 494E5452 		.ascii	"INTR_I2C_EC_MASK\000"
 7328      5F493243 
 7328      5F45435F 
 7328      4D41534B 
 7328      00
 7329              	.LASF386:
 7330 16aa 43595F42 		.ascii	"CY_BLE_ADV_STATE_STOPPED\000"
 7330      4C455F41 
 7330      44565F53 
 7330      54415445 
 7330      5F53544F 
 7331              	.LASF390:
 7332 16c3 63795F65 		.ascii	"cy_en_ble_adv_state_t\000"
 7332      6E5F626C 
 7332      655F6164 
 7332      765F7374 
 7332      6174655F 
 7333              	.LASF246:
 7334 16d9 43595F53 		.ascii	"CY_SAR_RANGE_COND_BELOW\000"
 7334      41525F52 
 7334      414E4745 
 7334      5F434F4E 
 7334      445F4245 
 7335              	.LASF107:
 7336 16f1 636F756E 		.ascii	"countDirection\000"
 7336      74446972 
 7336      65637469 
 7336      6F6E00
 7337              	.LASF248:
 7338 1700 43595F53 		.ascii	"CY_SAR_RANGE_COND_ABOVE\000"
 7338      41525F52 
 7338      414E4745 
 7338      5F434F4E 
 7338      445F4142 
 7339              	.LASF34:
 7340 1718 55415254 		.ascii	"UART_FLOW_CTRL\000"
 7340      5F464C4F 
 7340      575F4354 
 7340      524C00
ARM GAS  C:\Users\fiona\AppData\Local\Temp\ccJKYDXi.s 			page 163


 7341              	.LASF173:
 7342 1727 736C6176 		.ascii	"slaveRxBufferSize\000"
 7342      65527842 
 7342      75666665 
 7342      7253697A 
 7342      6500
 7343              	.LASF267:
 7344 1739 43595F42 		.ascii	"CY_BLE_EVT_INVALID\000"
 7344      4C455F45 
 7344      56545F49 
 7344      4E56414C 
 7344      494400
 7345              	.LASF477:
 7346 174c 7773616D 		.ascii	"wsample\000"
 7346      706C6500 
 7347              	.LASF153:
 7348 1754 63795F63 		.ascii	"cy_cb_scb_i2c_handle_events_t\000"
 7348      625F7363 
 7348      625F6932 
 7348      635F6861 
 7348      6E646C65 
 7349              	.LASF142:
 7350 1772 43595F53 		.ascii	"CY_SCB_I2C_MASTER_NOT_READY\000"
 7350      43425F49 
 7350      32435F4D 
 7350      41535445 
 7350      525F4E4F 
 7351              	.LASF255:
 7352 178e 72616E67 		.ascii	"rangeThres\000"
 7352      65546872 
 7352      657300
 7353              	.LASF228:
 7354 1799 74784669 		.ascii	"txFifoTriggerLevel\000"
 7354      666F5472 
 7354      69676765 
 7354      724C6576 
 7354      656C00
 7355              	.LASF317:
 7356 17ac 43595F42 		.ascii	"CY_BLE_EVT_SET_CE_LENGTH_COMPLETE\000"
 7356      4C455F45 
 7356      56545F53 
 7356      45545F43 
 7356      455F4C45 
 7357              	.LASF235:
 7358 17ce 72785269 		.ascii	"rxRingBufSize\000"
 7358      6E674275 
 7358      6653697A 
 7358      6500
 7359              	.LASF92:
 7360 17dc 43795343 		.ascii	"CySCB_Type\000"
 7360      425F5479 
 7360      706500
 7361              	.LASF473:
 7362 17e7 72656769 		.ascii	"register_setting\000"
 7362      73746572 
 7362      5F736574 
 7362      74696E67 
ARM GAS  C:\Users\fiona\AppData\Local\Temp\ccJKYDXi.s 			page 164


 7362      00
 7363              	.LASF211:
 7364 17f8 656E6162 		.ascii	"enableInputFilter\000"
 7364      6C65496E 
 7364      70757446 
 7364      696C7465 
 7364      7200
 7365              	.LASF70:
 7366 180a 494E5452 		.ascii	"INTR_SPI_EC_MASK\000"
 7366      5F535049 
 7366      5F45435F 
 7366      4D41534B 
 7366      00
 7367              	.LASF147:
 7368 181b 43595F53 		.ascii	"CY_SCB_I2C_MASTER_MANUAL_BUS_ERR\000"
 7368      43425F49 
 7368      32435F4D 
 7368      41535445 
 7368      525F4D41 
 7369              	.LASF323:
 7370 183c 43595F42 		.ascii	"CY_BLE_EVT_GAP_AUTH_COMPLETE\000"
 7370      4C455F45 
 7370      56545F47 
 7370      41505F41 
 7370      5554485F 
 7371              	.LASF93:
 7372 1859 6C6F6E67 		.ascii	"long double\000"
 7372      20646F75 
 7372      626C6500 
 7373              	.LASF478:
 7374 1865 7773616D 		.ascii	"wsample_ptr\000"
 7374      706C655F 
 7374      70747200 
 7375              	.LASF141:
 7376 1871 43595F53 		.ascii	"CY_SCB_I2C_BAD_PARAM\000"
 7376      43425F49 
 7376      32435F42 
 7376      41445F50 
 7376      4152414D 
 7377              	.LASF494:
 7378 1886 55415254 		.ascii	"UART_DEBUG_context\000"
 7378      5F444542 
 7378      55475F63 
 7378      6F6E7465 
 7378      787400
 7379              	.LASF479:
 7380 1899 73616D70 		.ascii	"sample_old\000"
 7380      6C655F6F 
 7380      6C6400
 7381              	.LASF81:
 7382 18a4 494E5452 		.ascii	"INTR_S_MASKED\000"
 7382      5F535F4D 
 7382      41534B45 
 7382      4400
 7383              	.LASF296:
 7384 18b2 43595F42 		.ascii	"CY_BLE_EVT_PHY_UPDATE_COMPLETE\000"
 7384      4C455F45 
ARM GAS  C:\Users\fiona\AppData\Local\Temp\ccJKYDXi.s 			page 165


 7384      56545F50 
 7384      48595F55 
 7384      50444154 
 7385              	.LASF360:
 7386 18d1 43595F42 		.ascii	"CY_BLE_EVT_GATTS_WRITE_CMD_REQ\000"
 7386      4C455F45 
 7386      56545F47 
 7386      41545453 
 7386      5F575249 
 7387              	.LASF203:
 7388 18f0 63795F63 		.ascii	"cy_cb_scb_uart_handle_events_t\000"
 7388      625F7363 
 7388      625F7561 
 7388      72745F68 
 7388      616E646C 
 7389              	.LASF280:
 7390 190f 43595F42 		.ascii	"CY_BLE_EVT_SET_DATA_LENGTH_COMPLETE\000"
 7390      4C455F45 
 7390      56545F53 
 7390      45545F44 
 7390      4154415F 
 7391              	.LASF434:
 7392 1933 454D5054 		.ascii	"EMPTYSLOT\000"
 7392      59534C4F 
 7392      5400
 7393              	.LASF403:
 7394 193d 6D697363 		.ascii	"miscConfig\000"
 7394      436F6E66 
 7394      696700
 7395              	.LASF518:
 7396 1948 433A5C45 		.ascii	"C:\\ECS193\\SmartHandle\\James.cydsn\000"
 7396      43533139 
 7396      335C536D 
 7396      61727448 
 7396      616E646C 
 7397              	.LASF68:
 7398 196a 494E5452 		.ascii	"INTR_SPI_EC\000"
 7398      5F535049 
 7398      5F454300 
 7399              	.LASF499:
 7400 1976 4C696768 		.ascii	"LightOutputB_config\000"
 7400      744F7574 
 7400      70757442 
 7400      5F636F6E 
 7400      66696700 
 7401              	.LASF521:
 7402 198a 41636344 		.ascii	"AccDriver_Init\000"
 7402      72697665 
 7402      725F496E 
 7402      697400
 7403              	.LASF215:
 7404 1999 72656365 		.ascii	"receiverAddress\000"
 7404      69766572 
 7404      41646472 
 7404      65737300 
 7405              	.LASF220:
 7406 19a9 736D6172 		.ascii	"smartCardRetryOnNack\000"
ARM GAS  C:\Users\fiona\AppData\Local\Temp\ccJKYDXi.s 			page 166


 7406      74436172 
 7406      64526574 
 7406      72794F6E 
 7406      4E61636B 
 7407              	.LASF508:
 7408 19be 43795F53 		.ascii	"Cy_SCB_I2C_MasterWrite\000"
 7408      43425F49 
 7408      32435F4D 
 7408      61737465 
 7408      72577269 
 7409              	.LASF175:
 7410 19d5 63624576 		.ascii	"cbEvents\000"
 7410      656E7473 
 7410      00
 7411              	.LASF331:
 7412 19de 43595F42 		.ascii	"CY_BLE_EVT_GAP_KEYINFO_EXCHNGE_CMPLT\000"
 7412      4C455F45 
 7412      56545F47 
 7412      41505F4B 
 7412      4559494E 
 7413              	.LASF128:
 7414 1a03 64656164 		.ascii	"deadTimeClocks\000"
 7414      54696D65 
 7414      436C6F63 
 7414      6B7300
 7415              	.LASF287:
 7416 1a12 43595F42 		.ascii	"CY_BLE_EVT_SET_RPA_ENABLE_COMPLETE\000"
 7416      4C455F45 
 7416      56545F53 
 7416      45545F52 
 7416      50415F45 
 7417              	.LASF221:
 7418 1a35 656E6162 		.ascii	"enableCts\000"
 7418      6C654374 
 7418      7300
 7419              	.LASF238:
 7420 1a3f 72784275 		.ascii	"rxBuf\000"
 7420      6600
 7421              	.LASF329:
 7422 1a45 43595F42 		.ascii	"CY_BLE_EVT_GAP_CONNECTION_UPDATE_COMPLETE\000"
 7422      4C455F45 
 7422      56545F47 
 7422      41505F43 
 7422      4F4E4E45 
 7423              	.LASF157:
 7424 1a6f 75736554 		.ascii	"useTxFifo\000"
 7424      78466966 
 7424      6F00
 7425              	.LASF264:
 7426 1a79 636F6E66 		.ascii	"configRouting\000"
 7426      6967526F 
 7426      7574696E 
 7426      6700
 7427              	.LASF322:
 7428 1a87 43595F42 		.ascii	"CY_BLE_EVT_GAP_PASSKEY_DISPLAY_REQUEST\000"
 7428      4C455F45 
 7428      56545F47 
ARM GAS  C:\Users\fiona\AppData\Local\Temp\ccJKYDXi.s 			page 167


 7428      41505F50 
 7428      4153534B 
 7429              	.LASF13:
 7430 1aae 6C6F6E67 		.ascii	"long long unsigned int\000"
 7430      206C6F6E 
 7430      6720756E 
 7430      7369676E 
 7430      65642069 
 7431              	.LASF279:
 7432 1ac5 43595F42 		.ascii	"CY_BLE_EVT_LE_PING_AUTH_TIMEOUT\000"
 7432      4C455F45 
 7432      56545F4C 
 7432      455F5049 
 7432      4E475F41 
 7433              	.LASF449:
 7434 1ae5 53656E73 		.ascii	"SensorBus_MasterRead\000"
 7434      6F724275 
 7434      735F4D61 
 7434      73746572 
 7434      52656164 
 7435              	.LASF198:
 7436 1afa 43595F53 		.ascii	"CY_SCB_UART_PARITY_ODD\000"
 7436      43425F55 
 7436      4152545F 
 7436      50415249 
 7436      54595F4F 
 7437              	.LASF17:
 7438 1b11 75696E74 		.ascii	"uint16_t\000"
 7438      31365F74 
 7438      00
 7439              	.LASF309:
 7440 1b1a 43595F42 		.ascii	"CY_BLE_EVT_AES_CCM_ENCRYPT_COMPLETE\000"
 7440      4C455F45 
 7440      56545F41 
 7440      45535F43 
 7440      434D5F45 
 7441              	.LASF469:
 7442 1b3e 64657669 		.ascii	"device_rate_setting\000"
 7442      63655F72 
 7442      6174655F 
 7442      73657474 
 7442      696E6700 
 7443              	.LASF45:
 7444 1b52 54585F46 		.ascii	"TX_FIFO_CTRL\000"
 7444      49464F5F 
 7444      4354524C 
 7444      00
 7445              	.LASF340:
 7446 1b5f 43595F42 		.ascii	"CY_BLE_EVT_GAP_RESOLVE_DEVICE_COMPLETE\000"
 7446      4C455F45 
 7446      56545F47 
 7446      41505F52 
 7446      45534F4C 
 7447              	.LASF475:
 7448 1b86 72627566 		.ascii	"rbuff\000"
 7448      6600
 7449              	.LASF350:
ARM GAS  C:\Users\fiona\AppData\Local\Temp\ccJKYDXi.s 			page 168


 7450 1b8c 43595F42 		.ascii	"CY_BLE_EVT_GATTC_XCHNG_MTU_RSP\000"
 7450      4C455F45 
 7450      56545F47 
 7450      41545443 
 7450      5F584348 
 7451              	.LASF60:
 7452 1bab 52455345 		.ascii	"RESERVED10\000"
 7452      52564544 
 7452      313000
 7453              	.LASF62:
 7454 1bb6 52455345 		.ascii	"RESERVED11\000"
 7454      52564544 
 7454      313100
 7455              	.LASF64:
 7456 1bc1 52455345 		.ascii	"RESERVED12\000"
 7456      52564544 
 7456      313200
 7457              	.LASF67:
 7458 1bcc 52455345 		.ascii	"RESERVED13\000"
 7458      52564544 
 7458      313300
 7459              	.LASF69:
 7460 1bd7 52455345 		.ascii	"RESERVED14\000"
 7460      52564544 
 7460      313400
 7461              	.LASF72:
 7462 1be2 52455345 		.ascii	"RESERVED15\000"
 7462      52564544 
 7462      313500
 7463              	.LASF284:
 7464 1bed 43595F42 		.ascii	"CY_BLE_EVT_GET_PEER_RPA_COMPLETE\000"
 7464      4C455F45 
 7464      56545F47 
 7464      45545F50 
 7464      4545525F 
 7465              	.LASF82:
 7466 1c0e 52455345 		.ascii	"RESERVED17\000"
 7466      52564544 
 7466      313700
 7467              	.LASF87:
 7468 1c19 52455345 		.ascii	"RESERVED18\000"
 7468      52564544 
 7468      313800
 7469              	.LASF501:
 7470 1c24 4D6F746F 		.ascii	"MotorTimer_config\000"
 7470      7254696D 
 7470      65725F63 
 7470      6F6E6669 
 7470      6700
 7471              	.LASF415:
 7472 1c36 795F7261 		.ascii	"y_raw\000"
 7472      7700
 7473              	.LASF252:
 7474 1c3c 73616D70 		.ascii	"sampleCtrl\000"
 7474      6C654374 
 7474      726C00
 7475              	.LASF485:
ARM GAS  C:\Users\fiona\AppData\Local\Temp\ccJKYDXi.s 			page 169


 7476 1c47 795F6C73 		.ascii	"y_lsb\000"
 7476      6200
 7477              	.LASF399:
 7478 1c4d 63795F65 		.ascii	"cy_en_ble_conn_state_t\000"
 7478      6E5F626C 
 7478      655F636F 
 7478      6E6E5F73 
 7478      74617465 
 7479              	.LASF241:
 7480 1c64 74784275 		.ascii	"txBuf\000"
 7480      6600
 7481              	.LASF345:
 7482 1c6a 43595F42 		.ascii	"CY_BLE_EVT_GAP_ADV_TX\000"
 7482      4C455F45 
 7482      56545F47 
 7482      41505F41 
 7482      44565F54 
 7483              	.LASF145:
 7484 1c80 43595F53 		.ascii	"CY_SCB_I2C_MASTER_MANUAL_NAK\000"
 7484      43425F49 
 7484      32435F4D 
 7484      41535445 
 7484      525F4D41 
 7485              	.LASF91:
 7486 1c9d 494E5452 		.ascii	"INTR_RX_MASKED\000"
 7486      5F52585F 
 7486      4D41534B 
 7486      454400
 7487              	.LASF389:
 7488 1cac 43595F42 		.ascii	"CY_BLE_ADV_STATE_STOP_INITIATED\000"
 7488      4C455F41 
 7488      44565F53 
 7488      54415445 
 7488      5F53544F 
 7489              	.LASF505:
 7490 1ccc 4144435F 		.ascii	"ADC_allConfigs\000"
 7490      616C6C43 
 7490      6F6E6669 
 7490      677300
 7491              	.LASF381:
 7492 1cdb 43595F42 		.ascii	"CY_BLE_EVT_L2CAP_CBFC_DATA_WRITE_IND\000"
 7492      4C455F45 
 7492      56545F4C 
 7492      32434150 
 7492      5F434246 
 7493              	.LASF5:
 7494 1d00 5F5F7569 		.ascii	"__uint16_t\000"
 7494      6E743136 
 7494      5F7400
 7495              	.LASF152:
 7496 1d0b 63795F65 		.ascii	"cy_en_scb_i2c_command_t\000"
 7496      6E5F7363 
 7496      625F6932 
 7496      635F636F 
 7496      6D6D616E 
 7497              	.LASF84:
 7498 1d23 494E5452 		.ascii	"INTR_TX_SET\000"
ARM GAS  C:\Users\fiona\AppData\Local\Temp\ccJKYDXi.s 			page 170


 7498      5F54585F 
 7498      53455400 
 7499              	.LASF104:
 7500 1d2f 70657269 		.ascii	"period\000"
 7500      6F6400
 7501              	.LASF504:
 7502 1d36 4144435F 		.ascii	"ADC_currentConfig\000"
 7502      63757272 
 7502      656E7443 
 7502      6F6E6669 
 7502      6700
 7503              	.LASF144:
 7504 1d48 43595F53 		.ascii	"CY_SCB_I2C_MASTER_MANUAL_ADDR_NAK\000"
 7504      43425F49 
 7504      32435F4D 
 7504      41535445 
 7504      525F4D41 
 7505              	.LASF337:
 7506 1d6a 43595F42 		.ascii	"CY_BLE_EVT_GAP_SMP_NEGOTIATED_AUTH_INFO\000"
 7506      4C455F45 
 7506      56545F47 
 7506      41505F53 
 7506      4D505F4E 
 7507              	.LASF178:
 7508 1d92 63795F73 		.ascii	"cy_stc_scb_i2c_master_xfer_config\000"
 7508      74635F73 
 7508      63625F69 
 7508      32635F6D 
 7508      61737465 
 7509              	.LASF216:
 7510 1db4 72656365 		.ascii	"receiverAddressMask\000"
 7510      69766572 
 7510      41646472 
 7510      6573734D 
 7510      61736B00 
 7511              	.LASF24:
 7512 1dc8 434D445F 		.ascii	"CMD_RESP_CTRL\000"
 7512      52455350 
 7512      5F435452 
 7512      4C00
 7513              	.LASF23:
 7514 1dd6 53544154 		.ascii	"STATUS\000"
 7514      555300
 7515              	.LASF372:
 7516 1ddd 43595F42 		.ascii	"CY_BLE_EVT_L2CAP_CONN_PARAM_UPDATE_RSP\000"
 7516      4C455F45 
 7516      56545F4C 
 7516      32434150 
 7516      5F434F4E 
 7517              	.LASF66:
 7518 1e04 494E5452 		.ascii	"INTR_I2C_EC_MASKED\000"
 7518      5F493243 
 7518      5F45435F 
 7518      4D41534B 
 7518      454400
 7519              	.LASF486:
 7520 1e17 7A5F6D73 		.ascii	"z_msb\000"
ARM GAS  C:\Users\fiona\AppData\Local\Temp\ccJKYDXi.s 			page 171


 7520      6200
 7521              	.LASF515:
 7522 1e1d 6D616C6C 		.ascii	"malloc\000"
 7522      6F6300
 7523              	.LASF356:
 7524 1e24 43595F42 		.ascii	"CY_BLE_EVT_GATTC_READ_BLOB_RSP\000"
 7524      4C455F45 
 7524      56545F47 
 7524      41545443 
 7524      5F524541 
 7525              	.LASF209:
 7526 1e43 73746F70 		.ascii	"stopBits\000"
 7526      42697473 
 7526      00
 7527              	.LASF80:
 7528 1e4c 494E5452 		.ascii	"INTR_S_MASK\000"
 7528      5F535F4D 
 7528      41534B00 
 7529              	.LASF458:
 7530 1e58 41636344 		.ascii	"AccDriver_OperationDone\000"
 7530      72697665 
 7530      725F4F70 
 7530      65726174 
 7530      696F6E44 
 7531              	.LASF443:
 7532 1e70 42494D33 		.ascii	"BIM30SLOT\000"
 7532      30534C4F 
 7532      5400
 7533              	.LASF413:
 7534 1e7a 74696D65 		.ascii	"timestamp\000"
 7534      7374616D 
 7534      7000
 7535              	.LASF369:
 7536 1e84 43595F42 		.ascii	"CY_BLE_EVT_GATTS_READ_CHAR_VAL_ACCESS_REQ\000"
 7536      4C455F45 
 7536      56545F47 
 7536      41545453 
 7536      5F524541 
 7537              	.LASF407:
 7538 1eae 6D6F6E74 		.ascii	"month\000"
 7538      6800
 7539              	.LASF74:
 7540 1eb4 494E5452 		.ascii	"INTR_M_SET\000"
 7540      5F4D5F53 
 7540      455400
 7541              	.LASF71:
 7542 1ebf 494E5452 		.ascii	"INTR_SPI_EC_MASKED\000"
 7542      5F535049 
 7542      5F45435F 
 7542      4D41534B 
 7542      454400
 7543              	.LASF259:
 7544 1ed2 696E7472 		.ascii	"intrMask\000"
 7544      4D61736B 
 7544      00
 7545              	.LASF385:
 7546 1edb 63795F73 		.ascii	"cy_stc_ble_conn_handle_t\000"
ARM GAS  C:\Users\fiona\AppData\Local\Temp\ccJKYDXi.s 			page 172


 7546      74635F62 
 7546      6C655F63 
 7546      6F6E6E5F 
 7546      68616E64 
 7547              	.LASF325:
 7548 1ef4 43595F42 		.ascii	"CY_BLE_EVT_GAPP_ADVERTISEMENT_START_STOP\000"
 7548      4C455F45 
 7548      56545F47 
 7548      4150505F 
 7548      41445645 
 7549              	.LASF117:
 7550 1f1d 73746172 		.ascii	"startInputMode\000"
 7550      74496E70 
 7550      75744D6F 
 7550      646500
 7551              	.LASF233:
 7552 1f2c 72785374 		.ascii	"rxStatus\000"
 7552      61747573 
 7552      00
 7553              	.LASF162:
 7554 1f35 6D617374 		.ascii	"masterBuffer\000"
 7554      65724275 
 7554      66666572 
 7554      00
 7555              	.LASF176:
 7556 1f42 63624164 		.ascii	"cbAddr\000"
 7556      647200
 7557              	.LASF262:
 7558 1f49 6D757853 		.ascii	"muxSwitch\000"
 7558      77697463 
 7558      6800
 7559              	.LASF393:
 7560 1f53 43595F42 		.ascii	"CY_BLE_CONN_STATE_CONNECTED\000"
 7560      4C455F43 
 7560      4F4E4E5F 
 7560      53544154 
 7560      455F434F 
 7561              	.LASF56:
 7562 1f6f 52585F46 		.ascii	"RX_FIFO_RD\000"
 7562      49464F5F 
 7562      524400
 7563              	.LASF465:
 7564 1f7a 73657474 		.ascii	"setting_type\000"
 7564      696E675F 
 7564      74797065 
 7564      00
 7565              	.LASF177:
 7566 1f87 63795F73 		.ascii	"cy_stc_scb_i2c_context_t\000"
 7566      74635F73 
 7566      63625F69 
 7566      32635F63 
 7566      6F6E7465 
 7567              	.LASF247:
 7568 1fa0 43595F53 		.ascii	"CY_SAR_RANGE_COND_INSIDE\000"
 7568      41525F52 
 7568      414E4745 
 7568      5F434F4E 
ARM GAS  C:\Users\fiona\AppData\Local\Temp\ccJKYDXi.s 			page 173


 7568      445F494E 
 7569              	.LASF97:
 7570 1fb9 75696E74 		.ascii	"uint8\000"
 7570      3800
 7571              	.LASF422:
 7572 1fbf 53656E73 		.ascii	"SensorType\000"
 7572      6F725479 
 7572      706500
 7573              	.LASF453:
 7574 1fca 69326352 		.ascii	"i2cReturnValue\000"
 7574      65747572 
 7574      6E56616C 
 7574      756500
 7575              	.LASF256:
 7576 1fd9 72616E67 		.ascii	"rangeCond\000"
 7576      65436F6E 
 7576      6400
 7577              	.LASF244:
 7578 1fe3 696E6974 		.ascii	"initKey\000"
 7578      4B657900 
 7579              	.LASF391:
 7580 1feb 43595F42 		.ascii	"CY_BLE_CONN_STATE_DISCONNECTED\000"
 7580      4C455F43 
 7580      4F4E4E5F 
 7580      53544154 
 7580      455F4449 
 7581              	.LASF0:
 7582 200a 73686F72 		.ascii	"short int\000"
 7582      7420696E 
 7582      7400
 7583              	.LASF312:
 7584 2014 43595F42 		.ascii	"CY_BLE_EVT_STACK_SHUTDOWN_COMPLETE\000"
 7584      4C455F45 
 7584      56545F53 
 7584      5441434B 
 7584      5F534855 
 7585              	.LASF303:
 7586 2037 43595F42 		.ascii	"CY_BLE_EVT_GET_TX_PWR_COMPLETE\000"
 7586      4C455F45 
 7586      56545F47 
 7586      45545F54 
 7586      585F5057 
 7587              	.LASF63:
 7588 2056 494E5452 		.ascii	"INTR_I2C_EC\000"
 7588      5F493243 
 7588      5F454300 
 7589              	.LASF16:
 7590 2062 696E7431 		.ascii	"int16_t\000"
 7590      365F7400 
 7591              	.LASF511:
 7592 206a 43795F53 		.ascii	"Cy_SysLib_DelayUs\000"
 7592      79734C69 
 7592      625F4465 
 7592      6C617955 
 7592      7300
 7593              	.LASF441:
 7594 207c 414C5439 		.ascii	"ALT9ASLOT\000"
ARM GAS  C:\Users\fiona\AppData\Local\Temp\ccJKYDXi.s 			page 174


 7594      41534C4F 
 7594      5400
 7595              	.LASF79:
 7596 2086 494E5452 		.ascii	"INTR_S_SET\000"
 7596      5F535F53 
 7596      455400
 7597              	.LASF484:
 7598 2091 795F6D73 		.ascii	"y_msb\000"
 7598      6200
 7599              	.LASF326:
 7600 2097 43595F42 		.ascii	"CY_BLE_EVT_GAP_DEVICE_CONNECTED\000"
 7600      4C455F45 
 7600      56545F47 
 7600      41505F44 
 7600      45564943 
 7601              	.LASF143:
 7602 20b7 43595F53 		.ascii	"CY_SCB_I2C_MASTER_MANUAL_TIMEOUT\000"
 7602      43425F49 
 7602      32435F4D 
 7602      41535445 
 7602      525F4D41 
 7603              	.LASF314:
 7604 20d8 43595F42 		.ascii	"CY_BLE_EVT_RADIO_VOLTAGE_LEVEL\000"
 7604      4C455F45 
 7604      56545F52 
 7604      4144494F 
 7604      5F564F4C 
 7605              	.LASF164:
 7606 20f7 6D617374 		.ascii	"masterBufferIdx\000"
 7606      65724275 
 7606      66666572 
 7606      49647800 
 7607              	.LASF491:
 7608 2107 63795F62 		.ascii	"cy_ble_connState\000"
 7608      6C655F63 
 7608      6F6E6E53 
 7608      74617465 
 7608      00
 7609              	.LASF179:
 7610 2118 736C6176 		.ascii	"slaveAddress\000"
 7610      65416464 
 7610      72657373 
 7610      00
 7611              	.LASF159:
 7612 2125 6D617374 		.ascii	"masterStatus\000"
 7612      65725374 
 7612      61747573 
 7612      00
 7613              	.LASF200:
 7614 2132 43595F53 		.ascii	"CY_SCB_UART_ACTIVE_LOW\000"
 7614      43425F55 
 7614      4152545F 
 7614      41435449 
 7614      56455F4C 
 7615              	.LASF408:
 7616 2149 686F7572 		.ascii	"hour\000"
 7616      00
ARM GAS  C:\Users\fiona\AppData\Local\Temp\ccJKYDXi.s 			page 175


 7617              	.LASF285:
 7618 214e 43595F42 		.ascii	"CY_BLE_EVT_GET_LOCAL_RPA_COMPLETE\000"
 7618      4C455F45 
 7618      56545F47 
 7618      45545F4C 
 7618      4F43414C 
 7619              	.LASF123:
 7620 2170 63795F73 		.ascii	"cy_stc_tcpwm_counter_config_t\000"
 7620      74635F74 
 7620      6370776D 
 7620      5F636F75 
 7620      6E746572 
 7621              	.LASF268:
 7622 218e 43595F42 		.ascii	"CY_BLE_EVT_STACK_ON\000"
 7622      4C455F45 
 7622      56545F53 
 7622      5441434B 
 7622      5F4F4E00 
 7623              	.LASF483:
 7624 21a2 785F6C73 		.ascii	"x_lsb\000"
 7624      6200
 7625              	.LASF100:
 7626 21a8 696E7431 		.ascii	"int16\000"
 7626      3600
 7627              	.LASF263:
 7628 21ae 6D757853 		.ascii	"muxSwitchSqCtrl\000"
 7628      77697463 
 7628      68537143 
 7628      74726C00 
 7629              	.LASF206:
 7630 21be 6F766572 		.ascii	"oversample\000"
 7630      73616D70 
 7630      6C6500
 7631              	.LASF433:
 7632 21c9 44617461 		.ascii	"DataType\000"
 7632      54797065 
 7632      00
 7633              	.LASF489:
 7634 21d2 63795F62 		.ascii	"cy_ble_advState\000"
 7634      6C655F61 
 7634      64765374 
 7634      61746500 
 7635              	.LASF214:
 7636 21e2 656E6162 		.ascii	"enableMutliProcessorMode\000"
 7636      6C654D75 
 7636      746C6950 
 7636      726F6365 
 7636      73736F72 
 7637              	.LASF405:
 7638 21fb 4144435F 		.ascii	"ADC_CONFIG_STRUCT\000"
 7638      434F4E46 
 7638      49475F53 
 7638      54525543 
 7638      5400
 7639              	.LASF187:
 7640 220d 63795F65 		.ascii	"cy_en_scb_uart_mode_t\000"
 7640      6E5F7363 
ARM GAS  C:\Users\fiona\AppData\Local\Temp\ccJKYDXi.s 			page 176


 7640      625F7561 
 7640      72745F6D 
 7640      6F64655F 
 7641              	.LASF137:
 7642 2223 6B696C6C 		.ascii	"killInputMode\000"
 7642      496E7075 
 7642      744D6F64 
 7642      6500
 7643              	.LASF315:
 7644 2231 43595F42 		.ascii	"CY_BLE_EVT_AES_CMAC_GEN_COMPLETE\000"
 7644      4C455F45 
 7644      56545F41 
 7644      45535F43 
 7644      4D41435F 
 7645              	.LASF283:
 7646 2252 43595F42 		.ascii	"CY_BLE_EVT_DATA_LENGTH_CHANGE\000"
 7646      4C455F45 
 7646      56545F44 
 7646      4154415F 
 7646      4C454E47 
 7647              	.LASF37:
 7648 2270 4932435F 		.ascii	"I2C_STATUS\000"
 7648      53544154 
 7648      555300
 7649              	.LASF108:
 7650 227b 636F6D70 		.ascii	"compareOrCapture\000"
 7650      6172654F 
 7650      72436170 
 7650      74757265 
 7650      00
 7651              	.LASF301:
 7652 228c 43595F42 		.ascii	"CY_BLE_EVT_GET_DEVICE_ADDR_COMPLETE\000"
 7652      4C455F45 
 7652      56545F47 
 7652      45545F44 
 7652      45564943 
 7653              	.LASF461:
 7654 22b0 76616C32 		.ascii	"val2\000"
 7654      00
 7655              	.LASF199:
 7656 22b5 63795F65 		.ascii	"cy_en_scb_uart_parity_t\000"
 7656      6E5F7363 
 7656      625F7561 
 7656      72745F70 
 7656      61726974 
 7657              	.LASF432:
 7658 22cd 4143435F 		.ascii	"ACC_1E_OFF\000"
 7658      31455F4F 
 7658      464600
 7659              	.LASF308:
 7660 22d8 43595F42 		.ascii	"CY_BLE_EVT_AES_ENCRYPT_COMPLETE\000"
 7660      4C455F45 
 7660      56545F41 
 7660      45535F45 
 7660      4E435259 
 7661              	.LASF19:
 7662 22f8 75696E74 		.ascii	"uint32_t\000"
ARM GAS  C:\Users\fiona\AppData\Local\Temp\ccJKYDXi.s 			page 177


 7662      33325F74 
 7662      00
 7663              	.LASF193:
 7664 2301 43595F53 		.ascii	"CY_SCB_UART_STOP_BITS_3_5\000"
 7664      43425F55 
 7664      4152545F 
 7664      53544F50 
 7664      5F424954 
 7665              	.LASF495:
 7666 231b 53656E73 		.ascii	"SensorBus_context\000"
 7666      6F724275 
 7666      735F636F 
 7666      6E746578 
 7666      7400
 7667              	.LASF522:
 7668 232d 41636344 		.ascii	"AccDriver_UpdateSetting\000"
 7668      72697665 
 7668      725F5570 
 7668      64617465 
 7668      53657474 
 7669              	.LASF488:
 7670 2345 63795F52 		.ascii	"cy_RTC_daysInMonthTbl\000"
 7670      54435F64 
 7670      61797349 
 7670      6E4D6F6E 
 7670      74685462 
 7671              	.LASF160:
 7672 235b 6D617374 		.ascii	"masterPause\000"
 7672      65725061 
 7672      75736500 
 7673              	.LASF470:
 7674 2367 696E7465 		.ascii	"interpolated_period\000"
 7674      72706F6C 
 7674      61746564 
 7674      5F706572 
 7674      696F6400 
 7675              	.LASF161:
 7676 237b 6D617374 		.ascii	"masterRdDir\000"
 7676      65725264 
 7676      44697200 
 7677              	.LASF425:
 7678 2387 4143435F 		.ascii	"ACC_1E_RATE_400_HZ\000"
 7678      31455F52 
 7678      4154455F 
 7678      3430305F 
 7678      485A00
 7679              	.LASF388:
 7680 239a 43595F42 		.ascii	"CY_BLE_ADV_STATE_ADVERTISING\000"
 7680      4C455F41 
 7680      44565F53 
 7680      54415445 
 7680      5F414456 
 7681              	.LASF447:
 7682 23b7 72657365 		.ascii	"reserved\000"
 7682      72766564 
 7682      00
 7683              	.LASF151:
ARM GAS  C:\Users\fiona\AppData\Local\Temp\ccJKYDXi.s 			page 178


 7684 23c0 43595F53 		.ascii	"CY_SCB_I2C_NAK\000"
 7684      43425F49 
 7684      32435F4E 
 7684      414B00
 7685              	.LASF57:
 7686 23cf 52585F46 		.ascii	"RX_FIFO_RD_SILENT\000"
 7686      49464F5F 
 7686      52445F53 
 7686      494C454E 
 7686      5400
 7687              	.LASF222:
 7688 23e1 63747350 		.ascii	"ctsPolarity\000"
 7688      6F6C6172 
 7688      69747900 
 7689              	.LASF120:
 7690 23ed 73746F70 		.ascii	"stopInput\000"
 7690      496E7075 
 7690      7400
 7691              	.LASF6:
 7692 23f7 73686F72 		.ascii	"short unsigned int\000"
 7692      7420756E 
 7692      7369676E 
 7692      65642069 
 7692      6E7400
 7693              	.LASF332:
 7694 240a 43595F42 		.ascii	"CY_BLE_EVT_GAP_NUMERIC_COMPARISON_REQUEST\000"
 7694      4C455F45 
 7694      56545F47 
 7694      41505F4E 
 7694      554D4552 
 7695              	.LASF476:
 7696 2434 77627566 		.ascii	"wbuff\000"
 7696      6600
 7697              	.LASF517:
 7698 243a 41636344 		.ascii	"AccDriver.c\000"
 7698      72697665 
 7698      722E6300 
 7699              	.LASF188:
 7700 2446 43595F53 		.ascii	"CY_SCB_UART_STOP_BITS_1\000"
 7700      43425F55 
 7700      4152545F 
 7700      53544F50 
 7700      5F424954 
 7701              	.LASF190:
 7702 245e 43595F53 		.ascii	"CY_SCB_UART_STOP_BITS_2\000"
 7702      43425F55 
 7702      4152545F 
 7702      53544F50 
 7702      5F424954 
 7703              	.LASF192:
 7704 2476 43595F53 		.ascii	"CY_SCB_UART_STOP_BITS_3\000"
 7704      43425F55 
 7704      4152545F 
 7704      53544F50 
 7704      5F424954 
 7705              	.LASF194:
 7706 248e 43595F53 		.ascii	"CY_SCB_UART_STOP_BITS_4\000"
ARM GAS  C:\Users\fiona\AppData\Local\Temp\ccJKYDXi.s 			page 179


 7706      43425F55 
 7706      4152545F 
 7706      53544F50 
 7706      5F424954 
 7707              	.LASF174:
 7708 24a6 736C6176 		.ascii	"slaveRxBufferIdx\000"
 7708      65527842 
 7708      75666665 
 7708      72496478 
 7708      00
 7709              	.LASF456:
 7710 24b7 496E7465 		.ascii	"Interpolate\000"
 7710      72706F6C 
 7710      61746500 
 7711              	.LASF313:
 7712 24c3 43595F42 		.ascii	"CY_BLE_EVT_RADIO_TEMPERATURE\000"
 7712      4C455F45 
 7712      56545F52 
 7712      4144494F 
 7712      5F54454D 
 7713              	.LASF101:
 7714 24e0 696E7433 		.ascii	"int32\000"
 7714      3200
 7715              	.LASF344:
 7716 24e6 43595F42 		.ascii	"CY_BLE_EVT_GAPP_UPDATE_ADV_SCAN_DATA_COMPLETE\000"
 7716      4C455F45 
 7716      56545F47 
 7716      4150505F 
 7716      55504441 
 7717              	.LASF202:
 7718 2514 63795F65 		.ascii	"cy_en_scb_uart_polarity_t\000"
 7718      6E5F7363 
 7718      625F7561 
 7718      72745F70 
 7718      6F6C6172 
 7719              	.LASF324:
 7720 252e 43595F42 		.ascii	"CY_BLE_EVT_GAP_AUTH_FAILED\000"
 7720      4C455F45 
 7720      56545F47 
 7720      41505F41 
 7720      5554485F 
 7721              	.LASF77:
 7722 2549 52455345 		.ascii	"RESERVED16\000"
 7722      52564544 
 7722      313600
 7723              	.LASF273:
 7724 2554 43595F42 		.ascii	"CY_BLE_EVT_FLASH_CORRUPT\000"
 7724      4C455F45 
 7724      56545F46 
 7724      4C415348 
 7724      5F434F52 
 7725              	.LASF474:
 7726 256d 69735F66 		.ascii	"is_first_sample\000"
 7726      69727374 
 7726      5F73616D 
 7726      706C6500 
 7727              	.LASF431:
ARM GAS  C:\Users\fiona\AppData\Local\Temp\ccJKYDXi.s 			page 180


 7728 257d 4143435F 		.ascii	"ACC_1E_RATE_1_HZ\000"
 7728      31455F52 
 7728      4154455F 
 7728      315F485A 
 7728      00
 7729              	.LASF7:
 7730 258e 5F5F696E 		.ascii	"__int32_t\000"
 7730      7433325F 
 7730      7400
 7731              	.LASF133:
 7732 2598 696E7665 		.ascii	"invertPWMOutN\000"
 7732      72745057 
 7732      4D4F7574 
 7732      4E00
 7733              	.LASF223:
 7734 25a6 72747352 		.ascii	"rtsRxFifoLevel\000"
 7734      78466966 
 7734      6F4C6576 
 7734      656C00
 7735              	.LASF229:
 7736 25b5 74784669 		.ascii	"txFifoIntEnableMask\000"
 7736      666F496E 
 7736      74456E61 
 7736      626C654D 
 7736      61736B00 
 7737              	.LASF384:
 7738 25c9 61747449 		.ascii	"attId\000"
 7738      6400
 7739              	.LASF116:
 7740 25cf 72656C6F 		.ascii	"reloadInput\000"
 7740      6164496E 
 7740      70757400 
 7741              	.LASF114:
 7742 25db 63617074 		.ascii	"captureInput\000"
 7742      75726549 
 7742      6E707574 
 7742      00
 7743              	.LASF468:
 7744 25e8 64657669 		.ascii	"device_rate_changed\000"
 7744      63655F72 
 7744      6174655F 
 7744      6368616E 
 7744      67656400 
 7745              	.LASF197:
 7746 25fc 43595F53 		.ascii	"CY_SCB_UART_PARITY_EVEN\000"
 7746      43425F55 
 7746      4152545F 
 7746      50415249 
 7746      54595F45 
 7747              	.LASF237:
 7748 2614 72785269 		.ascii	"rxRingBufTail\000"
 7748      6E674275 
 7748      66546169 
 7748      6C00
 7749              	.LASF225:
 7750 2622 62726561 		.ascii	"breakWidth\000"
 7750      6B576964 
ARM GAS  C:\Users\fiona\AppData\Local\Temp\ccJKYDXi.s 			page 181


 7750      746800
 7751              	.LASF304:
 7752 262d 43595F42 		.ascii	"CY_BLE_EVT_SET_TX_PWR_COMPLETE\000"
 7752      4C455F45 
 7752      56545F53 
 7752      45545F54 
 7752      585F5057 
 7753              	.LASF420:
 7754 264c 4E4F4E45 		.ascii	"NONE\000"
 7754      00
 7755              	.LASF234:
 7756 2651 72785269 		.ascii	"rxRingBuf\000"
 7756      6E674275 
 7756      6600
 7757              	.LASF513:
 7758 265b 44617461 		.ascii	"DataBuffer_CloseWriteSlot\000"
 7758      42756666 
 7758      65725F43 
 7758      6C6F7365 
 7758      57726974 
 7759              	.LASF155:
 7760 2675 63795F73 		.ascii	"cy_stc_scb_i2c_context\000"
 7760      74635F73 
 7760      63625F69 
 7760      32635F63 
 7760      6F6E7465 
 7761              	.LASF419:
 7762 268c 6163635F 		.ascii	"acc_sample\000"
 7762      73616D70 
 7762      6C6500
 7763              	.LASF463:
 7764 2697 72656D61 		.ascii	"remainder\000"
 7764      696E6465 
 7764      7200
 7765              	.LASF292:
 7766 26a1 43595F42 		.ascii	"CY_BLE_EVT_REMOVE_DEVICE_FROM_WHITE_LIST_COMPLETE\000"
 7766      4C455F45 
 7766      56545F52 
 7766      454D4F56 
 7766      455F4445 
 7767              	.LASF289:
 7768 26d3 43595F42 		.ascii	"CY_BLE_EVT_ADD_DEVICE_TO_RPA_LIST_COMPLETE\000"
 7768      4C455F45 
 7768      56545F41 
 7768      44445F44 
 7768      45564943 
 7769              	.LASF281:
 7770 26fe 43595F42 		.ascii	"CY_BLE_EVT_SET_SUGGESTED_DATA_LENGTH_COMPLETE\000"
 7770      4C455F45 
 7770      56545F53 
 7770      45545F53 
 7770      55474745 
 7771              	.LASF98:
 7772 272c 75696E74 		.ascii	"uint16\000"
 7772      313600
 7773              	.LASF36:
 7774 2733 4932435F 		.ascii	"I2C_CTRL\000"
ARM GAS  C:\Users\fiona\AppData\Local\Temp\ccJKYDXi.s 			page 182


 7774      4354524C 
 7774      00
 7775              	.LASF118:
 7776 273c 73746172 		.ascii	"startInput\000"
 7776      74496E70 
 7776      757400
 7777              	.LASF510:
 7778 2747 43795F53 		.ascii	"Cy_SCB_I2C_MasterRead\000"
 7778      43425F49 
 7778      32435F4D 
 7778      61737465 
 7778      72526561 
 7779              	.LASF438:
 7780 275d 504F5835 		.ascii	"POX57SLOT\000"
 7780      37534C4F 
 7780      5400
 7781              	.LASF339:
 7782 2767 43595F42 		.ascii	"CY_BLE_EVT_GAP_KEYS_GEN_COMPLETE\000"
 7782      4C455F45 
 7782      56545F47 
 7782      41505F4B 
 7782      4559535F 
 7783              	.LASF186:
 7784 2788 43595F53 		.ascii	"CY_SCB_UART_IRDA\000"
 7784      43425F55 
 7784      4152545F 
 7784      49524441 
 7784      00
 7785              	.LASF154:
 7786 2799 63795F63 		.ascii	"cy_cb_scb_i2c_handle_addr_t\000"
 7786      625F7363 
 7786      625F6932 
 7786      635F6861 
 7786      6E646C65 
 7787              	.LASF514:
 7788 27b5 43795F53 		.ascii	"Cy_SysLib_Delay\000"
 7788      79734C69 
 7788      625F4465 
 7788      6C617900 
 7789              		.ident	"GCC: (GNU Tools for ARM Embedded Processors) 5.4.1 20160609 (release) [ARM/embedded-5-bran
