ARM GAS  C:\Users\fiona\AppData\Local\Temp\ccaw6brC.s 			page 1


   1              		.syntax unified
   2              		.cpu cortex-m0plus
   3              		.fpu softvfp
   4              		.eabi_attribute 20, 1
   5              		.eabi_attribute 21, 1
   6              		.eabi_attribute 23, 3
   7              		.eabi_attribute 24, 1
   8              		.eabi_attribute 25, 1
   9              		.eabi_attribute 26, 1
  10              		.eabi_attribute 30, 1
  11              		.eabi_attribute 34, 0
  12              		.eabi_attribute 18, 4
  13              		.thumb
  14              		.syntax unified
  15              		.file	"AlsDriver.c"
  16              		.text
  17              	.Ltext0:
  18              		.cfi_sections	.debug_frame
  19              		.section	.text.ReadRegister,"ax",%progbits
  20              		.align	2
  21              		.code	16
  22              		.thumb_func
  23              		.type	ReadRegister, %function
  24              	ReadRegister:
  25              	.LFB840:
  26              		.file 1 "AlsDriver.c"
   1:AlsDriver.c   **** #include <AlsDriver.h>
   2:AlsDriver.c   **** #include <DataBuffer.h>
   3:AlsDriver.c   **** #include <KinOS.h>
   4:AlsDriver.c   **** 
   5:AlsDriver.c   **** #include "debug.h"
   6:AlsDriver.c   **** 
   7:AlsDriver.c   **** #define DEBUG_ALS 0
   8:AlsDriver.c   **** 
   9:AlsDriver.c   **** static cy_stc_scb_i2c_master_xfer_config_t register_setting;
  10:AlsDriver.c   **** static uint8 rbuff[256]; // Read buffer: 32 sample fifo x 3 axis x 2 bytes
  11:AlsDriver.c   **** static uint8 wbuff[3];   // Write buffer
  12:AlsDriver.c   **** 
  13:AlsDriver.c   **** static uint16 ReadRegister(uint8 reg_addr)
  14:AlsDriver.c   **** {
  27              		.loc 1 14 0
  28              		.cfi_startproc
  29              		@ args = 0, pretend = 0, frame = 0
  30              		@ frame_needed = 0, uses_anonymous_args = 0
  31              	.LVL0:
  32 0000 10B5     		push	{r4, lr}
  33              		.cfi_def_cfa_offset 8
  34              		.cfi_offset 4, -8
  35              		.cfi_offset 14, -4
  15:AlsDriver.c   ****     cy_en_scb_i2c_status_t i2cReturnValue;
  16:AlsDriver.c   ****     
  17:AlsDriver.c   ****     wbuff[0] = reg_addr;    
  36              		.loc 1 17 0
  37 0002 2149     		ldr	r1, .L8
  38 0004 0870     		strb	r0, [r1]
  18:AlsDriver.c   ****     register_setting.buffer = wbuff; register_setting.bufferSize = 1; register_setting.xferPending 
  39              		.loc 1 18 0
ARM GAS  C:\Users\fiona\AppData\Local\Temp\ccaw6brC.s 			page 2


  40 0006 8960     		str	r1, [r1, #8]
  41 0008 0123     		movs	r3, #1
  42 000a CB60     		str	r3, [r1, #12]
  43 000c 0B74     		strb	r3, [r1, #16]
  44              	.LVL1:
  45              	.LBB14:
  46              	.LBB15:
  47              		.file 2 "Generated_Source\\PSoC6/SensorBus.h"
   1:Generated_Source\PSoC6/SensorBus.h **** /***************************************************************************//**
   2:Generated_Source\PSoC6/SensorBus.h **** * \file SensorBus.c
   3:Generated_Source\PSoC6/SensorBus.h **** * \version 2.0
   4:Generated_Source\PSoC6/SensorBus.h **** *
   5:Generated_Source\PSoC6/SensorBus.h **** *  This file provides constants and parameter values for the I2C component.
   6:Generated_Source\PSoC6/SensorBus.h **** *
   7:Generated_Source\PSoC6/SensorBus.h **** ********************************************************************************
   8:Generated_Source\PSoC6/SensorBus.h **** * \copyright
   9:Generated_Source\PSoC6/SensorBus.h **** * Copyright 2016-2017, Cypress Semiconductor Corporation. All rights reserved.
  10:Generated_Source\PSoC6/SensorBus.h **** * You may use this file only in accordance with the license, terms, conditions,
  11:Generated_Source\PSoC6/SensorBus.h **** * disclaimers, and limitations in the end user license agreement accompanying
  12:Generated_Source\PSoC6/SensorBus.h **** * the software package with which this file was provided.
  13:Generated_Source\PSoC6/SensorBus.h **** *******************************************************************************/
  14:Generated_Source\PSoC6/SensorBus.h **** 
  15:Generated_Source\PSoC6/SensorBus.h **** #if !defined(SensorBus_CY_SCB_I2C_PDL_H)
  16:Generated_Source\PSoC6/SensorBus.h **** #define SensorBus_CY_SCB_I2C_PDL_H
  17:Generated_Source\PSoC6/SensorBus.h **** 
  18:Generated_Source\PSoC6/SensorBus.h **** #include "cyfitter.h"
  19:Generated_Source\PSoC6/SensorBus.h **** #include "scb/cy_scb_i2c.h"
  20:Generated_Source\PSoC6/SensorBus.h **** 
  21:Generated_Source\PSoC6/SensorBus.h **** #if defined(__cplusplus)
  22:Generated_Source\PSoC6/SensorBus.h **** extern "C" {
  23:Generated_Source\PSoC6/SensorBus.h **** #endif
  24:Generated_Source\PSoC6/SensorBus.h **** 
  25:Generated_Source\PSoC6/SensorBus.h **** /***************************************
  26:Generated_Source\PSoC6/SensorBus.h **** *   Initial Parameter Constants
  27:Generated_Source\PSoC6/SensorBus.h **** ****************************************/
  28:Generated_Source\PSoC6/SensorBus.h **** 
  29:Generated_Source\PSoC6/SensorBus.h **** #define SensorBus_MODE               (0x2U)
  30:Generated_Source\PSoC6/SensorBus.h **** #define SensorBus_MODE_SLAVE_MASK    (0x1U)
  31:Generated_Source\PSoC6/SensorBus.h **** #define SensorBus_MODE_MASTER_MASK   (0x2U)
  32:Generated_Source\PSoC6/SensorBus.h **** 
  33:Generated_Source\PSoC6/SensorBus.h **** #define SensorBus_ENABLE_SLAVE       (0UL != (SensorBus_MODE & SensorBus_MODE_SLAVE_MASK))
  34:Generated_Source\PSoC6/SensorBus.h **** #define SensorBus_ENABLE_MASTER      (0UL != (SensorBus_MODE & SensorBus_MODE_MASTER_MASK))
  35:Generated_Source\PSoC6/SensorBus.h **** #define SensorBus_MANUAL_SCL_CONTROL (0U)
  36:Generated_Source\PSoC6/SensorBus.h **** 
  37:Generated_Source\PSoC6/SensorBus.h **** 
  38:Generated_Source\PSoC6/SensorBus.h **** /***************************************
  39:Generated_Source\PSoC6/SensorBus.h **** *        Function Prototypes
  40:Generated_Source\PSoC6/SensorBus.h **** ***************************************/
  41:Generated_Source\PSoC6/SensorBus.h **** /**
  42:Generated_Source\PSoC6/SensorBus.h **** * \addtogroup group_general
  43:Generated_Source\PSoC6/SensorBus.h **** * @{
  44:Generated_Source\PSoC6/SensorBus.h **** */
  45:Generated_Source\PSoC6/SensorBus.h **** /* Component only APIs. */
  46:Generated_Source\PSoC6/SensorBus.h **** void SensorBus_Start(void);
  47:Generated_Source\PSoC6/SensorBus.h **** 
  48:Generated_Source\PSoC6/SensorBus.h **** /* Basic functions. */
  49:Generated_Source\PSoC6/SensorBus.h **** __STATIC_INLINE cy_en_scb_i2c_status_t SensorBus_Init(cy_stc_scb_i2c_config_t const *config);
ARM GAS  C:\Users\fiona\AppData\Local\Temp\ccaw6brC.s 			page 3


  50:Generated_Source\PSoC6/SensorBus.h **** __STATIC_INLINE void SensorBus_DeInit (void);
  51:Generated_Source\PSoC6/SensorBus.h **** __STATIC_INLINE void SensorBus_Enable (void);
  52:Generated_Source\PSoC6/SensorBus.h **** __STATIC_INLINE void SensorBus_Disable(void);
  53:Generated_Source\PSoC6/SensorBus.h **** 
  54:Generated_Source\PSoC6/SensorBus.h **** /* Data rate configuration functions. */
  55:Generated_Source\PSoC6/SensorBus.h **** __STATIC_INLINE uint32_t SensorBus_SetDataRate(uint32_t dataRateHz, uint32_t scbClockHz);
  56:Generated_Source\PSoC6/SensorBus.h **** __STATIC_INLINE uint32_t SensorBus_GetDataRate(uint32_t scbClockHz);
  57:Generated_Source\PSoC6/SensorBus.h **** 
  58:Generated_Source\PSoC6/SensorBus.h **** /* Register callbacks. */
  59:Generated_Source\PSoC6/SensorBus.h **** __STATIC_INLINE void SensorBus_RegisterEventCallback(cy_cb_scb_i2c_handle_events_t callback);
  60:Generated_Source\PSoC6/SensorBus.h **** #if (SensorBus_ENABLE_SLAVE)
  61:Generated_Source\PSoC6/SensorBus.h **** __STATIC_INLINE void SensorBus_RegisterAddrCallback (cy_cb_scb_i2c_handle_addr_t callback);
  62:Generated_Source\PSoC6/SensorBus.h **** #endif /* (SensorBus_ENABLE_SLAVE) */
  63:Generated_Source\PSoC6/SensorBus.h **** 
  64:Generated_Source\PSoC6/SensorBus.h **** /* Configuration functions. */
  65:Generated_Source\PSoC6/SensorBus.h **** #if (SensorBus_ENABLE_SLAVE)
  66:Generated_Source\PSoC6/SensorBus.h **** __STATIC_INLINE void     SensorBus_SlaveSetAddress(uint8_t addr);
  67:Generated_Source\PSoC6/SensorBus.h **** __STATIC_INLINE uint32_t SensorBus_SlaveGetAddress(void);
  68:Generated_Source\PSoC6/SensorBus.h **** __STATIC_INLINE void     SensorBus_SlaveSetAddressMask(uint8_t addrMask);
  69:Generated_Source\PSoC6/SensorBus.h **** __STATIC_INLINE uint32_t SensorBus_SlaveGetAddressMask(void);
  70:Generated_Source\PSoC6/SensorBus.h **** #endif /* (SensorBus_ENABLE_SLAVE) */
  71:Generated_Source\PSoC6/SensorBus.h **** 
  72:Generated_Source\PSoC6/SensorBus.h **** #if (SensorBus_ENABLE_MASTER)
  73:Generated_Source\PSoC6/SensorBus.h **** __STATIC_INLINE void SensorBus_MasterSetLowPhaseDutyCycle (uint32_t clockCycles);
  74:Generated_Source\PSoC6/SensorBus.h **** __STATIC_INLINE void SensorBus_MasterSetHighPhaseDutyCycle(uint32_t clockCycles);
  75:Generated_Source\PSoC6/SensorBus.h **** #endif /* (SensorBus_ENABLE_MASTER) */
  76:Generated_Source\PSoC6/SensorBus.h **** 
  77:Generated_Source\PSoC6/SensorBus.h **** /* Bus status. */
  78:Generated_Source\PSoC6/SensorBus.h **** __STATIC_INLINE bool     SensorBus_IsBusBusy(void);
  79:Generated_Source\PSoC6/SensorBus.h **** 
  80:Generated_Source\PSoC6/SensorBus.h **** /* Slave functions. */
  81:Generated_Source\PSoC6/SensorBus.h **** #if (SensorBus_ENABLE_SLAVE)
  82:Generated_Source\PSoC6/SensorBus.h **** __STATIC_INLINE uint32_t SensorBus_SlaveGetStatus(void);
  83:Generated_Source\PSoC6/SensorBus.h **** 
  84:Generated_Source\PSoC6/SensorBus.h **** __STATIC_INLINE void     SensorBus_SlaveConfigReadBuf(uint8_t *buffer, uint32_t size);
  85:Generated_Source\PSoC6/SensorBus.h **** __STATIC_INLINE void     SensorBus_SlaveAbortRead(void);
  86:Generated_Source\PSoC6/SensorBus.h **** __STATIC_INLINE uint32_t SensorBus_SlaveGetReadTransferCount(void);
  87:Generated_Source\PSoC6/SensorBus.h **** __STATIC_INLINE uint32_t SensorBus_SlaveClearReadStatus(void);
  88:Generated_Source\PSoC6/SensorBus.h **** 
  89:Generated_Source\PSoC6/SensorBus.h **** __STATIC_INLINE void     SensorBus_SlaveConfigWriteBuf(uint8_t *buffer, uint32_t size);
  90:Generated_Source\PSoC6/SensorBus.h **** __STATIC_INLINE void     SensorBus_SlaveAbortWrite(void);
  91:Generated_Source\PSoC6/SensorBus.h **** __STATIC_INLINE uint32_t SensorBus_SlaveGetWriteTransferCount(void);
  92:Generated_Source\PSoC6/SensorBus.h **** __STATIC_INLINE uint32_t SensorBus_SlaveClearWriteStatus(void);
  93:Generated_Source\PSoC6/SensorBus.h **** #endif /* (SensorBus_ENABLE_SLAVE) */
  94:Generated_Source\PSoC6/SensorBus.h **** 
  95:Generated_Source\PSoC6/SensorBus.h **** /* Master interrupt processing functions. */
  96:Generated_Source\PSoC6/SensorBus.h **** #if (SensorBus_ENABLE_MASTER)
  97:Generated_Source\PSoC6/SensorBus.h **** __STATIC_INLINE uint32_t SensorBus_MasterGetStatus(void);
  98:Generated_Source\PSoC6/SensorBus.h **** 
  99:Generated_Source\PSoC6/SensorBus.h **** __STATIC_INLINE cy_en_scb_i2c_status_t SensorBus_MasterRead(cy_stc_scb_i2c_master_xfer_config_t *xf
 100:Generated_Source\PSoC6/SensorBus.h **** __STATIC_INLINE void SensorBus_MasterAbortRead(void);
 101:Generated_Source\PSoC6/SensorBus.h **** __STATIC_INLINE cy_en_scb_i2c_status_t SensorBus_MasterWrite(cy_stc_scb_i2c_master_xfer_config_t *x
 102:Generated_Source\PSoC6/SensorBus.h **** __STATIC_INLINE void SensorBus_MasterAbortWrite(void);
 103:Generated_Source\PSoC6/SensorBus.h **** __STATIC_INLINE uint32_t SensorBus_MasterGetTransferCount(void);
 104:Generated_Source\PSoC6/SensorBus.h **** 
 105:Generated_Source\PSoC6/SensorBus.h **** /* Master manual processing functions. */
 106:Generated_Source\PSoC6/SensorBus.h **** __STATIC_INLINE cy_en_scb_i2c_status_t SensorBus_MasterSendStart(uint32_t address, cy_en_scb_i2c_di
ARM GAS  C:\Users\fiona\AppData\Local\Temp\ccaw6brC.s 			page 4


 107:Generated_Source\PSoC6/SensorBus.h **** __STATIC_INLINE cy_en_scb_i2c_status_t SensorBus_MasterSendReStart(uint32_t address, cy_en_scb_i2c_
 108:Generated_Source\PSoC6/SensorBus.h **** __STATIC_INLINE cy_en_scb_i2c_status_t SensorBus_MasterSendStop(uint32_t timeoutMs);
 109:Generated_Source\PSoC6/SensorBus.h **** __STATIC_INLINE cy_en_scb_i2c_status_t SensorBus_MasterReadByte(cy_en_scb_i2c_command_t ackNack, ui
 110:Generated_Source\PSoC6/SensorBus.h **** __STATIC_INLINE cy_en_scb_i2c_status_t SensorBus_MasterWriteByte(uint8_t byte, uint32_t timeoutMs);
 111:Generated_Source\PSoC6/SensorBus.h **** #endif /* (SensorBus_ENABLE_MASTER) */
 112:Generated_Source\PSoC6/SensorBus.h **** 
 113:Generated_Source\PSoC6/SensorBus.h **** /* Interrupt handler. */
 114:Generated_Source\PSoC6/SensorBus.h **** __STATIC_INLINE void SensorBus_Interrupt(void);
 115:Generated_Source\PSoC6/SensorBus.h **** /** @} group_general */
 116:Generated_Source\PSoC6/SensorBus.h **** 
 117:Generated_Source\PSoC6/SensorBus.h **** 
 118:Generated_Source\PSoC6/SensorBus.h **** /***************************************
 119:Generated_Source\PSoC6/SensorBus.h **** *    Variables with External Linkage
 120:Generated_Source\PSoC6/SensorBus.h **** ***************************************/
 121:Generated_Source\PSoC6/SensorBus.h **** /**
 122:Generated_Source\PSoC6/SensorBus.h **** * \addtogroup group_globals
 123:Generated_Source\PSoC6/SensorBus.h **** * @{
 124:Generated_Source\PSoC6/SensorBus.h **** */
 125:Generated_Source\PSoC6/SensorBus.h **** extern uint8_t SensorBus_initVar;
 126:Generated_Source\PSoC6/SensorBus.h **** extern cy_stc_scb_i2c_config_t const SensorBus_config;
 127:Generated_Source\PSoC6/SensorBus.h **** extern cy_stc_scb_i2c_context_t SensorBus_context;
 128:Generated_Source\PSoC6/SensorBus.h **** /** @} group_globals */
 129:Generated_Source\PSoC6/SensorBus.h **** 
 130:Generated_Source\PSoC6/SensorBus.h **** 
 131:Generated_Source\PSoC6/SensorBus.h **** /***************************************
 132:Generated_Source\PSoC6/SensorBus.h **** *         Preprocessor Macros
 133:Generated_Source\PSoC6/SensorBus.h **** ***************************************/
 134:Generated_Source\PSoC6/SensorBus.h **** /**
 135:Generated_Source\PSoC6/SensorBus.h **** * \addtogroup group_macros
 136:Generated_Source\PSoC6/SensorBus.h **** * @{
 137:Generated_Source\PSoC6/SensorBus.h **** */
 138:Generated_Source\PSoC6/SensorBus.h **** /** The pointer to the base address of the SCB instance */
 139:Generated_Source\PSoC6/SensorBus.h **** #define SensorBus_HW     ((CySCB_Type *) SensorBus_SCB__HW)
 140:Generated_Source\PSoC6/SensorBus.h **** 
 141:Generated_Source\PSoC6/SensorBus.h **** /** The desired data rate in Hz */
 142:Generated_Source\PSoC6/SensorBus.h **** #define SensorBus_DATA_RATE_HZ      (100000U)
 143:Generated_Source\PSoC6/SensorBus.h **** 
 144:Generated_Source\PSoC6/SensorBus.h **** /** The frequency of the clock used by the Component in Hz */
 145:Generated_Source\PSoC6/SensorBus.h **** #define SensorBus_CLK_FREQ_HZ       (1562500U)
 146:Generated_Source\PSoC6/SensorBus.h **** 
 147:Generated_Source\PSoC6/SensorBus.h **** /** The number of Component clocks used by the master to generate the SCL
 148:Generated_Source\PSoC6/SensorBus.h **** * low phase. This number is calculated by GUI based on the selected data rate.
 149:Generated_Source\PSoC6/SensorBus.h **** */
 150:Generated_Source\PSoC6/SensorBus.h **** #define SensorBus_LOW_PHASE_DUTY_CYCLE   (8U)
 151:Generated_Source\PSoC6/SensorBus.h **** 
 152:Generated_Source\PSoC6/SensorBus.h **** /** The number of Component clocks used by the master to generate the SCL
 153:Generated_Source\PSoC6/SensorBus.h **** * high phase. This number is calculated by GUI based on the selected data rate.
 154:Generated_Source\PSoC6/SensorBus.h **** */
 155:Generated_Source\PSoC6/SensorBus.h **** #define SensorBus_HIGH_PHASE_DUTY_CYCLE  (8U)
 156:Generated_Source\PSoC6/SensorBus.h **** /** @} group_macros */
 157:Generated_Source\PSoC6/SensorBus.h **** 
 158:Generated_Source\PSoC6/SensorBus.h **** 
 159:Generated_Source\PSoC6/SensorBus.h **** /***************************************
 160:Generated_Source\PSoC6/SensorBus.h **** *    In-line Function Implementation
 161:Generated_Source\PSoC6/SensorBus.h **** ***************************************/
 162:Generated_Source\PSoC6/SensorBus.h **** 
 163:Generated_Source\PSoC6/SensorBus.h **** /*******************************************************************************
ARM GAS  C:\Users\fiona\AppData\Local\Temp\ccaw6brC.s 			page 5


 164:Generated_Source\PSoC6/SensorBus.h **** * Function Name: SensorBus_Init
 165:Generated_Source\PSoC6/SensorBus.h **** ****************************************************************************//**
 166:Generated_Source\PSoC6/SensorBus.h **** *
 167:Generated_Source\PSoC6/SensorBus.h **** * Invokes the Cy_SCB_I2C_Init() PDL driver function.
 168:Generated_Source\PSoC6/SensorBus.h **** *
 169:Generated_Source\PSoC6/SensorBus.h **** *******************************************************************************/
 170:Generated_Source\PSoC6/SensorBus.h **** __STATIC_INLINE cy_en_scb_i2c_status_t SensorBus_Init(cy_stc_scb_i2c_config_t const *config)
 171:Generated_Source\PSoC6/SensorBus.h **** {
 172:Generated_Source\PSoC6/SensorBus.h ****     return Cy_SCB_I2C_Init(SensorBus_HW, config, &SensorBus_context);
 173:Generated_Source\PSoC6/SensorBus.h **** }
 174:Generated_Source\PSoC6/SensorBus.h **** 
 175:Generated_Source\PSoC6/SensorBus.h **** 
 176:Generated_Source\PSoC6/SensorBus.h **** /*******************************************************************************
 177:Generated_Source\PSoC6/SensorBus.h **** *  Function Name: SensorBus_DeInit
 178:Generated_Source\PSoC6/SensorBus.h **** ****************************************************************************//**
 179:Generated_Source\PSoC6/SensorBus.h **** *
 180:Generated_Source\PSoC6/SensorBus.h **** * Invokes the Cy_SCB_I2C_DeInit() PDL driver function.
 181:Generated_Source\PSoC6/SensorBus.h **** *
 182:Generated_Source\PSoC6/SensorBus.h **** *******************************************************************************/
 183:Generated_Source\PSoC6/SensorBus.h **** __STATIC_INLINE void SensorBus_DeInit(void)
 184:Generated_Source\PSoC6/SensorBus.h **** {
 185:Generated_Source\PSoC6/SensorBus.h ****     Cy_SCB_I2C_DeInit(SensorBus_HW);
 186:Generated_Source\PSoC6/SensorBus.h **** }
 187:Generated_Source\PSoC6/SensorBus.h **** 
 188:Generated_Source\PSoC6/SensorBus.h **** 
 189:Generated_Source\PSoC6/SensorBus.h **** /*******************************************************************************
 190:Generated_Source\PSoC6/SensorBus.h **** * Function Name: SensorBus_Enable
 191:Generated_Source\PSoC6/SensorBus.h **** ****************************************************************************//**
 192:Generated_Source\PSoC6/SensorBus.h **** *
 193:Generated_Source\PSoC6/SensorBus.h **** * Invokes the Cy_SCB_I2C_Enable() PDL driver function.
 194:Generated_Source\PSoC6/SensorBus.h **** *
 195:Generated_Source\PSoC6/SensorBus.h **** *******************************************************************************/
 196:Generated_Source\PSoC6/SensorBus.h **** __STATIC_INLINE void SensorBus_Enable(void)
 197:Generated_Source\PSoC6/SensorBus.h **** {
 198:Generated_Source\PSoC6/SensorBus.h ****     Cy_SCB_I2C_Enable(SensorBus_HW);
 199:Generated_Source\PSoC6/SensorBus.h **** }
 200:Generated_Source\PSoC6/SensorBus.h **** 
 201:Generated_Source\PSoC6/SensorBus.h **** 
 202:Generated_Source\PSoC6/SensorBus.h **** /*******************************************************************************
 203:Generated_Source\PSoC6/SensorBus.h **** * Function Name: SensorBus_Disable
 204:Generated_Source\PSoC6/SensorBus.h **** ****************************************************************************//**
 205:Generated_Source\PSoC6/SensorBus.h **** *
 206:Generated_Source\PSoC6/SensorBus.h **** * Invokes the Cy_SCB_I2C_Disable() PDL driver function.
 207:Generated_Source\PSoC6/SensorBus.h **** *
 208:Generated_Source\PSoC6/SensorBus.h **** *******************************************************************************/
 209:Generated_Source\PSoC6/SensorBus.h **** __STATIC_INLINE void SensorBus_Disable(void)
 210:Generated_Source\PSoC6/SensorBus.h **** {
 211:Generated_Source\PSoC6/SensorBus.h ****     Cy_SCB_I2C_Disable(SensorBus_HW, &SensorBus_context);
 212:Generated_Source\PSoC6/SensorBus.h **** }
 213:Generated_Source\PSoC6/SensorBus.h **** 
 214:Generated_Source\PSoC6/SensorBus.h **** 
 215:Generated_Source\PSoC6/SensorBus.h **** /*******************************************************************************
 216:Generated_Source\PSoC6/SensorBus.h **** * Function Name: SensorBus_SetDataRate
 217:Generated_Source\PSoC6/SensorBus.h **** ****************************************************************************//**
 218:Generated_Source\PSoC6/SensorBus.h **** *
 219:Generated_Source\PSoC6/SensorBus.h **** * Invokes the Cy_SCB_I2C_SetDataRate() PDL driver function.
 220:Generated_Source\PSoC6/SensorBus.h **** *
ARM GAS  C:\Users\fiona\AppData\Local\Temp\ccaw6brC.s 			page 6


 221:Generated_Source\PSoC6/SensorBus.h **** *******************************************************************************/
 222:Generated_Source\PSoC6/SensorBus.h **** __STATIC_INLINE uint32_t SensorBus_SetDataRate(uint32_t dataRateHz, uint32_t scbClockHz)
 223:Generated_Source\PSoC6/SensorBus.h **** {
 224:Generated_Source\PSoC6/SensorBus.h ****     return Cy_SCB_I2C_SetDataRate(SensorBus_HW, dataRateHz, scbClockHz);
 225:Generated_Source\PSoC6/SensorBus.h **** }
 226:Generated_Source\PSoC6/SensorBus.h **** 
 227:Generated_Source\PSoC6/SensorBus.h **** 
 228:Generated_Source\PSoC6/SensorBus.h **** /*******************************************************************************
 229:Generated_Source\PSoC6/SensorBus.h **** * Function Name: SensorBus_GetDataRate
 230:Generated_Source\PSoC6/SensorBus.h **** ****************************************************************************//**
 231:Generated_Source\PSoC6/SensorBus.h **** *
 232:Generated_Source\PSoC6/SensorBus.h **** * Invokes the Cy_SCB_I2C_GetDataRate() PDL driver function.
 233:Generated_Source\PSoC6/SensorBus.h **** *
 234:Generated_Source\PSoC6/SensorBus.h **** *******************************************************************************/
 235:Generated_Source\PSoC6/SensorBus.h **** __STATIC_INLINE uint32_t SensorBus_GetDataRate(uint32_t scbClockHz)
 236:Generated_Source\PSoC6/SensorBus.h **** {
 237:Generated_Source\PSoC6/SensorBus.h ****     return Cy_SCB_I2C_GetDataRate(SensorBus_HW, scbClockHz);
 238:Generated_Source\PSoC6/SensorBus.h **** }
 239:Generated_Source\PSoC6/SensorBus.h **** 
 240:Generated_Source\PSoC6/SensorBus.h **** 
 241:Generated_Source\PSoC6/SensorBus.h **** /*******************************************************************************
 242:Generated_Source\PSoC6/SensorBus.h **** * Function Name: SensorBus_RegisterEventCallback
 243:Generated_Source\PSoC6/SensorBus.h **** ****************************************************************************//**
 244:Generated_Source\PSoC6/SensorBus.h **** *
 245:Generated_Source\PSoC6/SensorBus.h **** * Invokes the Cy_SCB_I2C_RegisterEventCallback() PDL driver function.
 246:Generated_Source\PSoC6/SensorBus.h **** *
 247:Generated_Source\PSoC6/SensorBus.h **** *******************************************************************************/
 248:Generated_Source\PSoC6/SensorBus.h **** __STATIC_INLINE void SensorBus_RegisterEventCallback(cy_cb_scb_i2c_handle_events_t callback)
 249:Generated_Source\PSoC6/SensorBus.h **** {
 250:Generated_Source\PSoC6/SensorBus.h ****     Cy_SCB_I2C_RegisterEventCallback(SensorBus_HW, callback, &SensorBus_context);
 251:Generated_Source\PSoC6/SensorBus.h **** }
 252:Generated_Source\PSoC6/SensorBus.h **** 
 253:Generated_Source\PSoC6/SensorBus.h **** 
 254:Generated_Source\PSoC6/SensorBus.h **** #if (SensorBus_ENABLE_SLAVE)
 255:Generated_Source\PSoC6/SensorBus.h **** /*******************************************************************************
 256:Generated_Source\PSoC6/SensorBus.h **** * Function Name: SensorBus_RegisterAddrCallback
 257:Generated_Source\PSoC6/SensorBus.h **** ****************************************************************************//**
 258:Generated_Source\PSoC6/SensorBus.h **** *
 259:Generated_Source\PSoC6/SensorBus.h **** * Invokes the Cy_SCB_I2C_RegisterAddrCallback() PDL driver function.
 260:Generated_Source\PSoC6/SensorBus.h **** *
 261:Generated_Source\PSoC6/SensorBus.h **** *******************************************************************************/
 262:Generated_Source\PSoC6/SensorBus.h **** __STATIC_INLINE void SensorBus_RegisterAddrCallback(cy_cb_scb_i2c_handle_addr_t callback)
 263:Generated_Source\PSoC6/SensorBus.h **** {
 264:Generated_Source\PSoC6/SensorBus.h ****     Cy_SCB_I2C_RegisterAddrCallback(SensorBus_HW, callback, &SensorBus_context);
 265:Generated_Source\PSoC6/SensorBus.h **** }
 266:Generated_Source\PSoC6/SensorBus.h **** #endif /* (SensorBus_ENABLE_SLAVE) */
 267:Generated_Source\PSoC6/SensorBus.h **** 
 268:Generated_Source\PSoC6/SensorBus.h **** 
 269:Generated_Source\PSoC6/SensorBus.h **** /*******************************************************************************
 270:Generated_Source\PSoC6/SensorBus.h **** * Function Name: SensorBus_IsBusBusy
 271:Generated_Source\PSoC6/SensorBus.h **** ****************************************************************************//**
 272:Generated_Source\PSoC6/SensorBus.h **** *
 273:Generated_Source\PSoC6/SensorBus.h **** * Invokes the Cy_SCB_I2C_IsBusBusy() PDL driver function.
 274:Generated_Source\PSoC6/SensorBus.h **** *
 275:Generated_Source\PSoC6/SensorBus.h **** *******************************************************************************/
 276:Generated_Source\PSoC6/SensorBus.h **** __STATIC_INLINE bool SensorBus_IsBusBusy(void)
 277:Generated_Source\PSoC6/SensorBus.h **** {
ARM GAS  C:\Users\fiona\AppData\Local\Temp\ccaw6brC.s 			page 7


 278:Generated_Source\PSoC6/SensorBus.h ****     return Cy_SCB_I2C_IsBusBusy(SensorBus_HW);
 279:Generated_Source\PSoC6/SensorBus.h **** }
 280:Generated_Source\PSoC6/SensorBus.h **** 
 281:Generated_Source\PSoC6/SensorBus.h **** 
 282:Generated_Source\PSoC6/SensorBus.h **** #if (SensorBus_ENABLE_SLAVE)
 283:Generated_Source\PSoC6/SensorBus.h **** /*******************************************************************************
 284:Generated_Source\PSoC6/SensorBus.h **** * Function Name: SensorBus_SlaveSetAddress
 285:Generated_Source\PSoC6/SensorBus.h **** ****************************************************************************//**
 286:Generated_Source\PSoC6/SensorBus.h **** *
 287:Generated_Source\PSoC6/SensorBus.h **** * Invokes the Cy_SCB_I2C_SlaveGetAddress() PDL driver function.
 288:Generated_Source\PSoC6/SensorBus.h **** *
 289:Generated_Source\PSoC6/SensorBus.h **** *******************************************************************************/
 290:Generated_Source\PSoC6/SensorBus.h **** __STATIC_INLINE void SensorBus_SlaveSetAddress(uint8_t addr)
 291:Generated_Source\PSoC6/SensorBus.h **** {
 292:Generated_Source\PSoC6/SensorBus.h ****     Cy_SCB_I2C_SlaveSetAddress(SensorBus_HW, addr);
 293:Generated_Source\PSoC6/SensorBus.h **** }
 294:Generated_Source\PSoC6/SensorBus.h **** 
 295:Generated_Source\PSoC6/SensorBus.h **** 
 296:Generated_Source\PSoC6/SensorBus.h **** /*******************************************************************************
 297:Generated_Source\PSoC6/SensorBus.h **** * Function Name: SensorBus_SlaveGetAddress
 298:Generated_Source\PSoC6/SensorBus.h **** ****************************************************************************//**
 299:Generated_Source\PSoC6/SensorBus.h **** *
 300:Generated_Source\PSoC6/SensorBus.h **** * Invokes the Cy_SCB_I2C_SlaveGetAddress() PDL driver function.
 301:Generated_Source\PSoC6/SensorBus.h **** *
 302:Generated_Source\PSoC6/SensorBus.h **** *******************************************************************************/
 303:Generated_Source\PSoC6/SensorBus.h **** __STATIC_INLINE uint32_t SensorBus_SlaveGetAddress(void)
 304:Generated_Source\PSoC6/SensorBus.h **** {
 305:Generated_Source\PSoC6/SensorBus.h ****     return Cy_SCB_I2C_SlaveGetAddress(SensorBus_HW);
 306:Generated_Source\PSoC6/SensorBus.h **** }
 307:Generated_Source\PSoC6/SensorBus.h **** 
 308:Generated_Source\PSoC6/SensorBus.h **** 
 309:Generated_Source\PSoC6/SensorBus.h **** /*******************************************************************************
 310:Generated_Source\PSoC6/SensorBus.h **** * Function Name: SensorBus_SlaveSetAddressMask
 311:Generated_Source\PSoC6/SensorBus.h **** ****************************************************************************//**
 312:Generated_Source\PSoC6/SensorBus.h **** *
 313:Generated_Source\PSoC6/SensorBus.h **** * Invokes the Cy_SCB_I2C_SlaveSetAddressMask() PDL driver function.
 314:Generated_Source\PSoC6/SensorBus.h **** *
 315:Generated_Source\PSoC6/SensorBus.h **** *******************************************************************************/
 316:Generated_Source\PSoC6/SensorBus.h **** __STATIC_INLINE void SensorBus_SlaveSetAddressMask(uint8_t addrMask)
 317:Generated_Source\PSoC6/SensorBus.h **** {
 318:Generated_Source\PSoC6/SensorBus.h ****     Cy_SCB_I2C_SlaveSetAddressMask(SensorBus_HW, addrMask);
 319:Generated_Source\PSoC6/SensorBus.h **** }
 320:Generated_Source\PSoC6/SensorBus.h **** 
 321:Generated_Source\PSoC6/SensorBus.h **** 
 322:Generated_Source\PSoC6/SensorBus.h **** /*******************************************************************************
 323:Generated_Source\PSoC6/SensorBus.h **** * Function Name: SensorBus_SlaveGetAddressMask
 324:Generated_Source\PSoC6/SensorBus.h **** ****************************************************************************//**
 325:Generated_Source\PSoC6/SensorBus.h **** *
 326:Generated_Source\PSoC6/SensorBus.h **** * Invokes the Cy_SCB_I2C_SlaveGetAddressMask() PDL driver function.
 327:Generated_Source\PSoC6/SensorBus.h **** *
 328:Generated_Source\PSoC6/SensorBus.h **** *******************************************************************************/
 329:Generated_Source\PSoC6/SensorBus.h **** __STATIC_INLINE uint32_t SensorBus_SlaveGetAddressMask(void)
 330:Generated_Source\PSoC6/SensorBus.h **** {
 331:Generated_Source\PSoC6/SensorBus.h ****     return Cy_SCB_I2C_SlaveGetAddressMask(SensorBus_HW);
 332:Generated_Source\PSoC6/SensorBus.h **** }
 333:Generated_Source\PSoC6/SensorBus.h **** #endif /* (SensorBus_ENABLE_SLAVE) */
 334:Generated_Source\PSoC6/SensorBus.h **** 
ARM GAS  C:\Users\fiona\AppData\Local\Temp\ccaw6brC.s 			page 8


 335:Generated_Source\PSoC6/SensorBus.h **** #if (SensorBus_ENABLE_MASTER)
 336:Generated_Source\PSoC6/SensorBus.h **** /*******************************************************************************
 337:Generated_Source\PSoC6/SensorBus.h **** * Function Name: SensorBus_MasterSetLowPhaseDutyCycle
 338:Generated_Source\PSoC6/SensorBus.h **** ****************************************************************************//**
 339:Generated_Source\PSoC6/SensorBus.h **** *
 340:Generated_Source\PSoC6/SensorBus.h **** * Invokes the Cy_SCB_I2C_MasterSetLowPhaseDutyCycle() PDL driver function.
 341:Generated_Source\PSoC6/SensorBus.h **** *
 342:Generated_Source\PSoC6/SensorBus.h **** *******************************************************************************/
 343:Generated_Source\PSoC6/SensorBus.h **** __STATIC_INLINE void SensorBus_MasterSetLowPhaseDutyCycle(uint32_t clockCycles)
 344:Generated_Source\PSoC6/SensorBus.h **** {
 345:Generated_Source\PSoC6/SensorBus.h ****     Cy_SCB_I2C_MasterSetLowPhaseDutyCycle(SensorBus_HW, clockCycles);
 346:Generated_Source\PSoC6/SensorBus.h **** }
 347:Generated_Source\PSoC6/SensorBus.h **** 
 348:Generated_Source\PSoC6/SensorBus.h **** 
 349:Generated_Source\PSoC6/SensorBus.h **** /*******************************************************************************
 350:Generated_Source\PSoC6/SensorBus.h **** * Function Name: SensorBus_MasterSetHighPhaseDutyCycle
 351:Generated_Source\PSoC6/SensorBus.h **** ****************************************************************************//**
 352:Generated_Source\PSoC6/SensorBus.h **** *
 353:Generated_Source\PSoC6/SensorBus.h **** * Invokes the Cy_SCB_I2C_MasterSetHighPhaseDutyCycle() PDL driver function.
 354:Generated_Source\PSoC6/SensorBus.h **** *
 355:Generated_Source\PSoC6/SensorBus.h **** *******************************************************************************/
 356:Generated_Source\PSoC6/SensorBus.h **** __STATIC_INLINE void SensorBus_MasterSetHighPhaseDutyCycle(uint32_t clockCycles)
 357:Generated_Source\PSoC6/SensorBus.h **** {
 358:Generated_Source\PSoC6/SensorBus.h ****     Cy_SCB_I2C_MasterSetHighPhaseDutyCycle(SensorBus_HW, clockCycles);
 359:Generated_Source\PSoC6/SensorBus.h **** }
 360:Generated_Source\PSoC6/SensorBus.h **** #endif /* (SensorBus_ENABLE_MASTER) */
 361:Generated_Source\PSoC6/SensorBus.h **** 
 362:Generated_Source\PSoC6/SensorBus.h **** 
 363:Generated_Source\PSoC6/SensorBus.h **** #if (SensorBus_ENABLE_SLAVE)
 364:Generated_Source\PSoC6/SensorBus.h **** /*******************************************************************************
 365:Generated_Source\PSoC6/SensorBus.h **** * Function Name: SensorBus_SlaveGetStatus
 366:Generated_Source\PSoC6/SensorBus.h **** ****************************************************************************//**
 367:Generated_Source\PSoC6/SensorBus.h **** *
 368:Generated_Source\PSoC6/SensorBus.h **** * Invokes the Cy_SCB_I2C_SlaveGetStatus() PDL driver function.
 369:Generated_Source\PSoC6/SensorBus.h **** *
 370:Generated_Source\PSoC6/SensorBus.h **** *******************************************************************************/
 371:Generated_Source\PSoC6/SensorBus.h **** __STATIC_INLINE uint32_t SensorBus_SlaveGetStatus(void)
 372:Generated_Source\PSoC6/SensorBus.h **** {
 373:Generated_Source\PSoC6/SensorBus.h ****     return Cy_SCB_I2C_SlaveGetStatus(SensorBus_HW, &SensorBus_context);
 374:Generated_Source\PSoC6/SensorBus.h **** }
 375:Generated_Source\PSoC6/SensorBus.h **** 
 376:Generated_Source\PSoC6/SensorBus.h **** 
 377:Generated_Source\PSoC6/SensorBus.h **** /*******************************************************************************
 378:Generated_Source\PSoC6/SensorBus.h **** * Function Name: SensorBus_SlaveConfigReadBuf
 379:Generated_Source\PSoC6/SensorBus.h **** ****************************************************************************//**
 380:Generated_Source\PSoC6/SensorBus.h **** *
 381:Generated_Source\PSoC6/SensorBus.h **** * Invokes the Cy_SCB_I2C_SlaveConfigReadBuf() PDL driver function.
 382:Generated_Source\PSoC6/SensorBus.h **** *
 383:Generated_Source\PSoC6/SensorBus.h **** *******************************************************************************/
 384:Generated_Source\PSoC6/SensorBus.h **** __STATIC_INLINE void SensorBus_SlaveConfigReadBuf(uint8_t *buffer, uint32_t size)
 385:Generated_Source\PSoC6/SensorBus.h **** {
 386:Generated_Source\PSoC6/SensorBus.h ****     Cy_SCB_I2C_SlaveConfigReadBuf(SensorBus_HW, buffer, size, &SensorBus_context);
 387:Generated_Source\PSoC6/SensorBus.h **** }
 388:Generated_Source\PSoC6/SensorBus.h **** 
 389:Generated_Source\PSoC6/SensorBus.h **** 
 390:Generated_Source\PSoC6/SensorBus.h **** /*******************************************************************************
 391:Generated_Source\PSoC6/SensorBus.h **** * Function Name: SensorBus_SlaveAbortRead
ARM GAS  C:\Users\fiona\AppData\Local\Temp\ccaw6brC.s 			page 9


 392:Generated_Source\PSoC6/SensorBus.h **** ****************************************************************************//**
 393:Generated_Source\PSoC6/SensorBus.h **** *
 394:Generated_Source\PSoC6/SensorBus.h **** * Invokes the Cy_SCB_I2C_SlaveAbortRead() PDL driver function.
 395:Generated_Source\PSoC6/SensorBus.h **** *
 396:Generated_Source\PSoC6/SensorBus.h **** *******************************************************************************/
 397:Generated_Source\PSoC6/SensorBus.h **** __STATIC_INLINE void SensorBus_SlaveAbortRead(void)
 398:Generated_Source\PSoC6/SensorBus.h **** {
 399:Generated_Source\PSoC6/SensorBus.h ****     Cy_SCB_I2C_SlaveAbortRead(SensorBus_HW, &SensorBus_context);
 400:Generated_Source\PSoC6/SensorBus.h **** }
 401:Generated_Source\PSoC6/SensorBus.h **** 
 402:Generated_Source\PSoC6/SensorBus.h **** 
 403:Generated_Source\PSoC6/SensorBus.h **** /*******************************************************************************
 404:Generated_Source\PSoC6/SensorBus.h **** * Function Name: SensorBus_SlaveGetReadTransferCount
 405:Generated_Source\PSoC6/SensorBus.h **** ****************************************************************************//**
 406:Generated_Source\PSoC6/SensorBus.h **** *
 407:Generated_Source\PSoC6/SensorBus.h **** * Invokes the Cy_SCB_I2C_SlaveGetReadTransferCount() PDL driver function.
 408:Generated_Source\PSoC6/SensorBus.h **** *
 409:Generated_Source\PSoC6/SensorBus.h **** *******************************************************************************/
 410:Generated_Source\PSoC6/SensorBus.h **** __STATIC_INLINE uint32_t SensorBus_SlaveGetReadTransferCount(void)
 411:Generated_Source\PSoC6/SensorBus.h **** {
 412:Generated_Source\PSoC6/SensorBus.h ****     return Cy_SCB_I2C_SlaveGetReadTransferCount(SensorBus_HW, &SensorBus_context);
 413:Generated_Source\PSoC6/SensorBus.h **** }
 414:Generated_Source\PSoC6/SensorBus.h **** 
 415:Generated_Source\PSoC6/SensorBus.h **** 
 416:Generated_Source\PSoC6/SensorBus.h **** /*******************************************************************************
 417:Generated_Source\PSoC6/SensorBus.h **** * Function Name: SensorBus_SlaveClearReadStatus
 418:Generated_Source\PSoC6/SensorBus.h **** ****************************************************************************//**
 419:Generated_Source\PSoC6/SensorBus.h **** *
 420:Generated_Source\PSoC6/SensorBus.h **** * Invokes the Cy_SCB_I2C_SlaveClearReadStatus() PDL driver function.
 421:Generated_Source\PSoC6/SensorBus.h **** *
 422:Generated_Source\PSoC6/SensorBus.h **** *******************************************************************************/
 423:Generated_Source\PSoC6/SensorBus.h **** __STATIC_INLINE uint32_t SensorBus_SlaveClearReadStatus(void)
 424:Generated_Source\PSoC6/SensorBus.h **** {
 425:Generated_Source\PSoC6/SensorBus.h ****     return Cy_SCB_I2C_SlaveClearReadStatus(SensorBus_HW, &SensorBus_context);
 426:Generated_Source\PSoC6/SensorBus.h **** }
 427:Generated_Source\PSoC6/SensorBus.h **** 
 428:Generated_Source\PSoC6/SensorBus.h **** 
 429:Generated_Source\PSoC6/SensorBus.h **** /*******************************************************************************
 430:Generated_Source\PSoC6/SensorBus.h **** * Function Name: SensorBus_SlaveConfigWriteBuf
 431:Generated_Source\PSoC6/SensorBus.h **** ****************************************************************************//**
 432:Generated_Source\PSoC6/SensorBus.h **** *
 433:Generated_Source\PSoC6/SensorBus.h **** * Invokes the Cy_SCB_I2C_SlaveConfigWriteBuf() PDL driver function.
 434:Generated_Source\PSoC6/SensorBus.h **** *
 435:Generated_Source\PSoC6/SensorBus.h **** *******************************************************************************/
 436:Generated_Source\PSoC6/SensorBus.h **** __STATIC_INLINE void SensorBus_SlaveConfigWriteBuf(uint8_t *buffer, uint32_t size)
 437:Generated_Source\PSoC6/SensorBus.h **** {
 438:Generated_Source\PSoC6/SensorBus.h ****     Cy_SCB_I2C_SlaveConfigWriteBuf(SensorBus_HW, buffer, size, &SensorBus_context);
 439:Generated_Source\PSoC6/SensorBus.h **** }
 440:Generated_Source\PSoC6/SensorBus.h **** 
 441:Generated_Source\PSoC6/SensorBus.h **** 
 442:Generated_Source\PSoC6/SensorBus.h **** /*******************************************************************************
 443:Generated_Source\PSoC6/SensorBus.h **** * Function Name: SensorBus_SlaveAbortWrite
 444:Generated_Source\PSoC6/SensorBus.h **** ****************************************************************************//**
 445:Generated_Source\PSoC6/SensorBus.h **** *
 446:Generated_Source\PSoC6/SensorBus.h **** * Invokes the Cy_SCB_I2C_SlaveAbortWrite() PDL driver function.
 447:Generated_Source\PSoC6/SensorBus.h **** *
 448:Generated_Source\PSoC6/SensorBus.h **** *******************************************************************************/
ARM GAS  C:\Users\fiona\AppData\Local\Temp\ccaw6brC.s 			page 10


 449:Generated_Source\PSoC6/SensorBus.h **** __STATIC_INLINE void SensorBus_SlaveAbortWrite(void)
 450:Generated_Source\PSoC6/SensorBus.h **** {
 451:Generated_Source\PSoC6/SensorBus.h ****     Cy_SCB_I2C_SlaveAbortWrite(SensorBus_HW, &SensorBus_context);
 452:Generated_Source\PSoC6/SensorBus.h **** }
 453:Generated_Source\PSoC6/SensorBus.h **** 
 454:Generated_Source\PSoC6/SensorBus.h **** 
 455:Generated_Source\PSoC6/SensorBus.h **** /*******************************************************************************
 456:Generated_Source\PSoC6/SensorBus.h **** * Function Name: SensorBus_SlaveGetWriteTransferCount
 457:Generated_Source\PSoC6/SensorBus.h **** ****************************************************************************//**
 458:Generated_Source\PSoC6/SensorBus.h **** *
 459:Generated_Source\PSoC6/SensorBus.h **** * Invokes the Cy_SCB_I2C_SlaveGetWriteTransferCount() PDL driver function.
 460:Generated_Source\PSoC6/SensorBus.h **** *
 461:Generated_Source\PSoC6/SensorBus.h **** *******************************************************************************/
 462:Generated_Source\PSoC6/SensorBus.h **** __STATIC_INLINE uint32_t SensorBus_SlaveGetWriteTransferCount(void)
 463:Generated_Source\PSoC6/SensorBus.h **** {
 464:Generated_Source\PSoC6/SensorBus.h ****     return Cy_SCB_I2C_SlaveGetWriteTransferCount(SensorBus_HW, &SensorBus_context);
 465:Generated_Source\PSoC6/SensorBus.h **** }
 466:Generated_Source\PSoC6/SensorBus.h **** 
 467:Generated_Source\PSoC6/SensorBus.h **** 
 468:Generated_Source\PSoC6/SensorBus.h **** /*******************************************************************************
 469:Generated_Source\PSoC6/SensorBus.h **** * Function Name: SensorBus_SlaveClearWriteStatus
 470:Generated_Source\PSoC6/SensorBus.h **** ****************************************************************************//**
 471:Generated_Source\PSoC6/SensorBus.h **** *
 472:Generated_Source\PSoC6/SensorBus.h **** * Invokes the Cy_SCB_I2C_SlaveClearWriteStatus() PDL driver function.
 473:Generated_Source\PSoC6/SensorBus.h **** *
 474:Generated_Source\PSoC6/SensorBus.h **** *******************************************************************************/
 475:Generated_Source\PSoC6/SensorBus.h **** __STATIC_INLINE uint32_t SensorBus_SlaveClearWriteStatus(void)
 476:Generated_Source\PSoC6/SensorBus.h **** {
 477:Generated_Source\PSoC6/SensorBus.h ****     return Cy_SCB_I2C_SlaveClearWriteStatus(SensorBus_HW, &SensorBus_context);
 478:Generated_Source\PSoC6/SensorBus.h **** }
 479:Generated_Source\PSoC6/SensorBus.h **** #endif /* (SensorBus_ENABLE_SLAVE) */
 480:Generated_Source\PSoC6/SensorBus.h **** 
 481:Generated_Source\PSoC6/SensorBus.h **** 
 482:Generated_Source\PSoC6/SensorBus.h **** #if (SensorBus_ENABLE_MASTER)
 483:Generated_Source\PSoC6/SensorBus.h **** /*******************************************************************************
 484:Generated_Source\PSoC6/SensorBus.h **** * Function Name: SensorBus_MasterGetStatus
 485:Generated_Source\PSoC6/SensorBus.h **** ****************************************************************************//**
 486:Generated_Source\PSoC6/SensorBus.h **** *
 487:Generated_Source\PSoC6/SensorBus.h **** * Invokes the Cy_SCB_I2C_MasterGetStatus() PDL driver function.
 488:Generated_Source\PSoC6/SensorBus.h **** *
 489:Generated_Source\PSoC6/SensorBus.h **** *******************************************************************************/
 490:Generated_Source\PSoC6/SensorBus.h **** __STATIC_INLINE uint32_t SensorBus_MasterGetStatus(void)
 491:Generated_Source\PSoC6/SensorBus.h **** {
 492:Generated_Source\PSoC6/SensorBus.h ****     return Cy_SCB_I2C_MasterGetStatus(SensorBus_HW, &SensorBus_context);
 493:Generated_Source\PSoC6/SensorBus.h **** }
 494:Generated_Source\PSoC6/SensorBus.h **** 
 495:Generated_Source\PSoC6/SensorBus.h **** 
 496:Generated_Source\PSoC6/SensorBus.h **** /*******************************************************************************
 497:Generated_Source\PSoC6/SensorBus.h **** * Function Name: SensorBus_MasterRead
 498:Generated_Source\PSoC6/SensorBus.h **** ****************************************************************************//**
 499:Generated_Source\PSoC6/SensorBus.h **** *
 500:Generated_Source\PSoC6/SensorBus.h **** * Invokes the Cy_SCB_I2C_MasterRead() PDL driver function.
 501:Generated_Source\PSoC6/SensorBus.h **** *
 502:Generated_Source\PSoC6/SensorBus.h **** *******************************************************************************/
 503:Generated_Source\PSoC6/SensorBus.h **** __STATIC_INLINE cy_en_scb_i2c_status_t SensorBus_MasterRead(cy_stc_scb_i2c_master_xfer_config_t *xf
 504:Generated_Source\PSoC6/SensorBus.h **** {
 505:Generated_Source\PSoC6/SensorBus.h ****     return Cy_SCB_I2C_MasterRead(SensorBus_HW, xferConfig, &SensorBus_context);
ARM GAS  C:\Users\fiona\AppData\Local\Temp\ccaw6brC.s 			page 11


 506:Generated_Source\PSoC6/SensorBus.h **** }
 507:Generated_Source\PSoC6/SensorBus.h **** 
 508:Generated_Source\PSoC6/SensorBus.h **** 
 509:Generated_Source\PSoC6/SensorBus.h **** /*******************************************************************************
 510:Generated_Source\PSoC6/SensorBus.h **** * Function Name: SensorBus_MasterAbortRead
 511:Generated_Source\PSoC6/SensorBus.h **** ****************************************************************************//**
 512:Generated_Source\PSoC6/SensorBus.h **** *
 513:Generated_Source\PSoC6/SensorBus.h **** * Invokes the Cy_SCB_I2C_MasterAbortRead() PDL driver function.
 514:Generated_Source\PSoC6/SensorBus.h **** *
 515:Generated_Source\PSoC6/SensorBus.h **** ******************************************************************************/
 516:Generated_Source\PSoC6/SensorBus.h **** __STATIC_INLINE void SensorBus_MasterAbortRead(void)
 517:Generated_Source\PSoC6/SensorBus.h **** {
 518:Generated_Source\PSoC6/SensorBus.h ****     Cy_SCB_I2C_MasterAbortRead(SensorBus_HW, &SensorBus_context);
 519:Generated_Source\PSoC6/SensorBus.h **** }
 520:Generated_Source\PSoC6/SensorBus.h **** 
 521:Generated_Source\PSoC6/SensorBus.h **** 
 522:Generated_Source\PSoC6/SensorBus.h **** /*******************************************************************************
 523:Generated_Source\PSoC6/SensorBus.h **** * Function Name: SensorBus_MasterWrite
 524:Generated_Source\PSoC6/SensorBus.h **** ****************************************************************************//**
 525:Generated_Source\PSoC6/SensorBus.h **** *
 526:Generated_Source\PSoC6/SensorBus.h **** * Invokes the Cy_SCB_I2C_MasterWrite() PDL driver function.
 527:Generated_Source\PSoC6/SensorBus.h **** *
 528:Generated_Source\PSoC6/SensorBus.h **** *******************************************************************************/
 529:Generated_Source\PSoC6/SensorBus.h **** __STATIC_INLINE cy_en_scb_i2c_status_t SensorBus_MasterWrite(cy_stc_scb_i2c_master_xfer_config_t *x
 530:Generated_Source\PSoC6/SensorBus.h **** {
 531:Generated_Source\PSoC6/SensorBus.h ****     return Cy_SCB_I2C_MasterWrite(SensorBus_HW, xferConfig, &SensorBus_context);
  48              		.loc 2 531 0
  49 000e 0431     		adds	r1, r1, #4
  50 0010 1E4A     		ldr	r2, .L8+4
  51 0012 1F48     		ldr	r0, .L8+8
  52              	.LVL2:
  53 0014 FFF7FEFF 		bl	Cy_SCB_I2C_MasterWrite
  54              	.LVL3:
  55              	.LBE15:
  56              	.LBE14:
  19:AlsDriver.c   ****     
  20:AlsDriver.c   ****     i2cReturnValue = SensorBus_MasterWrite(&register_setting);
  21:AlsDriver.c   ****     if(i2cReturnValue != CY_SCB_I2C_SUCCESS)
  22:AlsDriver.c   ****     {
  23:AlsDriver.c   ****         // ** Throw error
  24:AlsDriver.c   ****     }
  25:AlsDriver.c   ****     
  26:AlsDriver.c   ****     uint16 counter = 0;
  57              		.loc 1 26 0
  58 0018 0024     		movs	r4, #0
  27:AlsDriver.c   ****     while(0 != (SensorBus_MasterGetStatus() & CY_SCB_I2C_MASTER_BUSY))
  59              		.loc 1 27 0
  60 001a 08E0     		b	.L2
  61              	.LVL4:
  62              	.L4:
  28:AlsDriver.c   ****     {
  29:AlsDriver.c   ****         if(++counter > 1000) 
  63              		.loc 1 29 0
  64 001c 0134     		adds	r4, r4, #1
  65              	.LVL5:
  66 001e A4B2     		uxth	r4, r4
  67              	.LVL6:
ARM GAS  C:\Users\fiona\AppData\Local\Temp\ccaw6brC.s 			page 12


  68 0020 FA23     		movs	r3, #250
  69 0022 9B00     		lsls	r3, r3, #2
  70 0024 9C42     		cmp	r4, r3
  71 0026 2AD8     		bhi	.L6
  30:AlsDriver.c   ****         {
  31:AlsDriver.c   ****             // ** Throw error
  32:AlsDriver.c   ****             return 0;         
  33:AlsDriver.c   ****         }
  34:AlsDriver.c   ****         else
  35:AlsDriver.c   ****         {
  36:AlsDriver.c   ****             CyDelayUs(1);  // Keep Waiting
  72              		.loc 1 36 0
  73 0028 0120     		movs	r0, #1
  74 002a FFF7FEFF 		bl	Cy_SysLib_DelayUs
  75              	.LVL7:
  76              	.L2:
  77              	.LBB16:
  78              	.LBB17:
 492:Generated_Source\PSoC6/SensorBus.h **** }
  79              		.loc 2 492 0
  80 002e 1749     		ldr	r1, .L8+4
  81 0030 1748     		ldr	r0, .L8+8
  82 0032 FFF7FEFF 		bl	Cy_SCB_I2C_MasterGetStatus
  83              	.LVL8:
  84              	.LBE17:
  85              	.LBE16:
  27:AlsDriver.c   ****     {
  86              		.loc 1 27 0
  87 0036 C303     		lsls	r3, r0, #15
  88 0038 F0D4     		bmi	.L4
  37:AlsDriver.c   ****         }
  38:AlsDriver.c   ****     }
  39:AlsDriver.c   ****     
  40:AlsDriver.c   ****     register_setting.buffer = rbuff; register_setting.bufferSize = 2; register_setting.xferPending 
  89              		.loc 1 40 0
  90 003a 1349     		ldr	r1, .L8
  91 003c 0B00     		movs	r3, r1
  92 003e 1433     		adds	r3, r3, #20
  93 0040 8B60     		str	r3, [r1, #8]
  94 0042 0223     		movs	r3, #2
  95 0044 CB60     		str	r3, [r1, #12]
  96 0046 0023     		movs	r3, #0
  97 0048 0B74     		strb	r3, [r1, #16]
  98              	.LVL9:
  99              	.LBB18:
 100              	.LBB19:
 505:Generated_Source\PSoC6/SensorBus.h **** }
 101              		.loc 2 505 0
 102 004a 0431     		adds	r1, r1, #4
 103 004c 0F4A     		ldr	r2, .L8+4
 104 004e 1048     		ldr	r0, .L8+8
 105 0050 FFF7FEFF 		bl	Cy_SCB_I2C_MasterRead
 106              	.LVL10:
 107              	.L5:
 108              	.LBE19:
 109              	.LBE18:
 110              	.LBB20:
ARM GAS  C:\Users\fiona\AppData\Local\Temp\ccaw6brC.s 			page 13


 111              	.LBB21:
 492:Generated_Source\PSoC6/SensorBus.h **** }
 112              		.loc 2 492 0 discriminator 1
 113 0054 0D49     		ldr	r1, .L8+4
 114 0056 0E48     		ldr	r0, .L8+8
 115 0058 FFF7FEFF 		bl	Cy_SCB_I2C_MasterGetStatus
 116              	.LVL11:
 117              	.LBE21:
 118              	.LBE20:
  41:AlsDriver.c   ****     
  42:AlsDriver.c   ****     i2cReturnValue = SensorBus_MasterRead(&register_setting);
  43:AlsDriver.c   ****     if(i2cReturnValue != CY_SCB_I2C_SUCCESS)
  44:AlsDriver.c   ****     {
  45:AlsDriver.c   ****         // ** Throw error
  46:AlsDriver.c   ****     }
  47:AlsDriver.c   ****     
  48:AlsDriver.c   ****     while(0 != (SensorBus_MasterGetStatus() & CY_SCB_I2C_MASTER_BUSY)){}
 119              		.loc 1 48 0 discriminator 1
 120 005c C303     		lsls	r3, r0, #15
 121 005e F9D4     		bmi	.L5
 122              	.LVL12:
  49:AlsDriver.c   ****     {
  50:AlsDriver.c   ****         if(++counter > 1000) 
 123              		.loc 1 50 0
 124 0060 0134     		adds	r4, r4, #1
 125              	.LVL13:
 126 0062 FA23     		movs	r3, #250
 127 0064 9B00     		lsls	r3, r3, #2
 128 0066 A4B2     		uxth	r4, r4
 129 0068 9C42     		cmp	r4, r3
 130 006a 0AD8     		bhi	.L7
  51:AlsDriver.c   ****         {
  52:AlsDriver.c   ****             // ** Throw error
  53:AlsDriver.c   ****             return 0;
  54:AlsDriver.c   ****         }
  55:AlsDriver.c   ****         else
  56:AlsDriver.c   ****         {
  57:AlsDriver.c   ****             CyDelayUs(1);  // Keep Waiting
 131              		.loc 1 57 0
 132 006c 0120     		movs	r0, #1
 133 006e FFF7FEFF 		bl	Cy_SysLib_DelayUs
 134              	.LVL14:
  58:AlsDriver.c   ****         }
  59:AlsDriver.c   ****     }
  60:AlsDriver.c   ****     return rbuff[0] << 8 | rbuff[1];
 135              		.loc 1 60 0
 136 0072 054B     		ldr	r3, .L8
 137 0074 187D     		ldrb	r0, [r3, #20]
 138 0076 0002     		lsls	r0, r0, #8
 139 0078 5B7D     		ldrb	r3, [r3, #21]
 140 007a 1843     		orrs	r0, r3
 141 007c 02E0     		b	.L3
 142              	.LVL15:
 143              	.L6:
  32:AlsDriver.c   ****         }
 144              		.loc 1 32 0
 145 007e 0020     		movs	r0, #0
ARM GAS  C:\Users\fiona\AppData\Local\Temp\ccaw6brC.s 			page 14


 146 0080 00E0     		b	.L3
 147              	.LVL16:
 148              	.L7:
  53:AlsDriver.c   ****         }
 149              		.loc 1 53 0
 150 0082 0020     		movs	r0, #0
 151              	.L3:
  61:AlsDriver.c   **** }
 152              		.loc 1 61 0
 153              		@ sp needed
 154 0084 10BD     		pop	{r4, pc}
 155              	.L9:
 156 0086 C046     		.align	2
 157              	.L8:
 158 0088 00000000 		.word	.LANCHOR0
 159 008c 00000000 		.word	SensorBus_context
 160 0090 00006240 		.word	1080164352
 161              		.cfi_endproc
 162              	.LFE840:
 163              		.size	ReadRegister, .-ReadRegister
 164              		.section	.text.WriteRegister,"ax",%progbits
 165              		.align	2
 166              		.code	16
 167              		.thumb_func
 168              		.type	WriteRegister, %function
 169              	WriteRegister:
 170              	.LFB841:
  62:AlsDriver.c   **** 
  63:AlsDriver.c   **** static void WriteRegister(uint8 reg_addr, uint16 data)
  64:AlsDriver.c   **** {
 171              		.loc 1 64 0
 172              		.cfi_startproc
 173              		@ args = 0, pretend = 0, frame = 0
 174              		@ frame_needed = 0, uses_anonymous_args = 0
 175              	.LVL17:
 176 0000 10B5     		push	{r4, lr}
 177              		.cfi_def_cfa_offset 8
 178              		.cfi_offset 4, -8
 179              		.cfi_offset 14, -4
  65:AlsDriver.c   ****     wbuff[0] = reg_addr; wbuff[1] = data >> 8; wbuff[2] = data;
 180              		.loc 1 65 0
 181 0002 0C4B     		ldr	r3, .L12
 182 0004 1870     		strb	r0, [r3]
 183 0006 0A0A     		lsrs	r2, r1, #8
 184 0008 5A70     		strb	r2, [r3, #1]
 185 000a 9970     		strb	r1, [r3, #2]
  66:AlsDriver.c   ****     register_setting.buffer = wbuff; register_setting.bufferSize = 3; register_setting.xferPending 
 186              		.loc 1 66 0
 187 000c 9B60     		str	r3, [r3, #8]
 188 000e 0322     		movs	r2, #3
 189 0010 DA60     		str	r2, [r3, #12]
 190 0012 0022     		movs	r2, #0
 191 0014 1A74     		strb	r2, [r3, #16]
 192              	.LVL18:
 193              	.LBB22:
 194              	.LBB23:
 195              		.loc 2 531 0
ARM GAS  C:\Users\fiona\AppData\Local\Temp\ccaw6brC.s 			page 15


 196 0016 191D     		adds	r1, r3, #4
 197              	.LVL19:
 198 0018 074A     		ldr	r2, .L12+4
 199 001a 0848     		ldr	r0, .L12+8
 200              	.LVL20:
 201 001c FFF7FEFF 		bl	Cy_SCB_I2C_MasterWrite
 202              	.LVL21:
 203              	.L11:
 204              	.LBE23:
 205              	.LBE22:
 206              	.LBB24:
 207              	.LBB25:
 492:Generated_Source\PSoC6/SensorBus.h **** }
 208              		.loc 2 492 0 discriminator 1
 209 0020 0549     		ldr	r1, .L12+4
 210 0022 0648     		ldr	r0, .L12+8
 211 0024 FFF7FEFF 		bl	Cy_SCB_I2C_MasterGetStatus
 212              	.LVL22:
 213              	.LBE25:
 214              	.LBE24:
  67:AlsDriver.c   ****     
  68:AlsDriver.c   ****     cy_en_scb_i2c_status_t i2cReturnValue = SensorBus_MasterWrite(&register_setting);
  69:AlsDriver.c   ****     if(i2cReturnValue != CY_SCB_I2C_SUCCESS)
  70:AlsDriver.c   ****     {
  71:AlsDriver.c   ****         // ** Throw error
  72:AlsDriver.c   ****     }
  73:AlsDriver.c   ****     
  74:AlsDriver.c   ****     uint16 counter = 0;
  75:AlsDriver.c   ****     while(0 != (SensorBus_MasterGetStatus() & CY_SCB_I2C_MASTER_BUSY)){}
 215              		.loc 1 75 0 discriminator 1
 216 0028 C303     		lsls	r3, r0, #15
 217 002a F9D4     		bmi	.L11
 218              	.LVL23:
  76:AlsDriver.c   ****     {
  77:AlsDriver.c   ****         if(++counter > 1000)
  78:AlsDriver.c   ****         {
  79:AlsDriver.c   ****             // ** Throw error
  80:AlsDriver.c   ****             return;
  81:AlsDriver.c   ****         }
  82:AlsDriver.c   ****         else
  83:AlsDriver.c   ****         {
  84:AlsDriver.c   ****             CyDelayUs(1);  // Keep Waiting
 219              		.loc 1 84 0
 220 002c 0120     		movs	r0, #1
 221 002e FFF7FEFF 		bl	Cy_SysLib_DelayUs
 222              	.LVL24:
  85:AlsDriver.c   ****         }
  86:AlsDriver.c   ****     }
  87:AlsDriver.c   ****     return;
  88:AlsDriver.c   **** }
 223              		.loc 1 88 0
 224              		@ sp needed
 225 0032 10BD     		pop	{r4, pc}
 226              	.L13:
 227              		.align	2
 228              	.L12:
 229 0034 00000000 		.word	.LANCHOR0
ARM GAS  C:\Users\fiona\AppData\Local\Temp\ccaw6brC.s 			page 16


 230 0038 00000000 		.word	SensorBus_context
 231 003c 00006240 		.word	1080164352
 232              		.cfi_endproc
 233              	.LFE841:
 234              		.size	WriteRegister, .-WriteRegister
 235              		.section	.text.AlsDriver_Init,"ax",%progbits
 236              		.align	2
 237              		.global	AlsDriver_Init
 238              		.code	16
 239              		.thumb_func
 240              		.type	AlsDriver_Init, %function
 241              	AlsDriver_Init:
 242              	.LFB842:
  89:AlsDriver.c   **** 
  90:AlsDriver.c   **** void AlsDriver_Init()
  91:AlsDriver.c   **** {
 243              		.loc 1 91 0
 244              		.cfi_startproc
 245              		@ args = 0, pretend = 0, frame = 0
 246              		@ frame_needed = 0, uses_anonymous_args = 0
 247 0000 10B5     		push	{r4, lr}
 248              		.cfi_def_cfa_offset 8
 249              		.cfi_offset 4, -8
 250              		.cfi_offset 14, -4
  92:AlsDriver.c   ****     register_setting.slaveAddress = ALS_ADDR;
 251              		.loc 1 92 0
 252 0002 4422     		movs	r2, #68
 253 0004 0B4B     		ldr	r3, .L16
 254 0006 1A71     		strb	r2, [r3, #4]
  93:AlsDriver.c   ****     if(ReadRegister(ALS_DEV_ID_ADDR) != ALS_DEV_ID_VAL) // Verify Chip ID          W[0x88 0x7F] R[0
 255              		.loc 1 93 0
 256 0008 7F20     		movs	r0, #127
 257 000a FFF7FEFF 		bl	ReadRegister
 258              	.LVL25:
 259 000e 0A4B     		ldr	r3, .L16+4
 260 0010 9842     		cmp	r0, r3
 261 0012 02D0     		beq	.L15
  94:AlsDriver.c   ****     {
  95:AlsDriver.c   ****         // ** Throw error
  96:AlsDriver.c   ****         CyDelayUs(1);
 262              		.loc 1 96 0
 263 0014 0120     		movs	r0, #1
 264 0016 FFF7FEFF 		bl	Cy_SysLib_DelayUs
 265              	.LVL26:
 266              	.L15:
  97:AlsDriver.c   ****     }
  98:AlsDriver.c   ****     
  99:AlsDriver.c   ****     WriteRegister(ALS_INT_LOW_THRES, 0x1A45);  //0x1a45 set lower limit to 67.25 lux
 267              		.loc 1 99 0
 268 001a 0849     		ldr	r1, .L16+8
 269 001c 0220     		movs	r0, #2
 270 001e FFF7FEFF 		bl	WriteRegister
 271              	.LVL27:
 100:AlsDriver.c   ****     WriteRegister(ALS_INT_HIGH_THRES, 0x339A); //0x339a set upper limit to 100.360 lux
 272              		.loc 1 100 0
 273 0022 0749     		ldr	r1, .L16+12
 274 0024 0320     		movs	r0, #3
ARM GAS  C:\Users\fiona\AppData\Local\Temp\ccaw6brC.s 			page 17


 275 0026 FFF7FEFF 		bl	WriteRegister
 276              	.LVL28:
 101:AlsDriver.c   ****     WriteRegister(ALS_CONFIG, 0xCC0A);         //Continuous conversion mode, hysteresis-style, inve
 277              		.loc 1 101 0
 278 002a 0649     		ldr	r1, .L16+16
 279 002c 0120     		movs	r0, #1
 280 002e FFF7FEFF 		bl	WriteRegister
 281              	.LVL29:
 102:AlsDriver.c   ****     
 103:AlsDriver.c   ****     #if DEBUG_ALS
 104:AlsDriver.c   ****     uint16 raw_val;
 105:AlsDriver.c   ****     uint8 raw_exp;
 106:AlsDriver.c   ****     float lux_val;
 107:AlsDriver.c   ****     for(;;){
 108:AlsDriver.c   ****         CyDelay(800);                // Delay needed for 800 ms conversion
 109:AlsDriver.c   ****         raw_val = ReadRegister(ALS_RESULT);
 110:AlsDriver.c   ****         raw_exp = 1 << (raw_val >> 0xD);    // exp = 2 ^ (3 most sig bits of result)
 111:AlsDriver.c   ****         lux_val = 0.01 * raw_exp * (raw_val & ALS_RES_MASK);
 112:AlsDriver.c   ****         DEBUG_PRINTF("raw val: %x\tdec vale:%0.3f\r\n",raw_val,lux_val);
 113:AlsDriver.c   ****         DEBUG_WAIT_UART_TX_COMPLETE();
 114:AlsDriver.c   ****     }
 115:AlsDriver.c   ****     #endif
 116:AlsDriver.c   ****     return;
 117:AlsDriver.c   **** }
 282              		.loc 1 117 0
 283              		@ sp needed
 284 0032 10BD     		pop	{r4, pc}
 285              	.L17:
 286              		.align	2
 287              	.L16:
 288 0034 00000000 		.word	.LANCHOR0
 289 0038 01300000 		.word	12289
 290 003c 451A0000 		.word	6725
 291 0040 9A330000 		.word	13210
 292 0044 0ACC0000 		.word	52234
 293              		.cfi_endproc
 294              	.LFE842:
 295              		.size	AlsDriver_Init, .-AlsDriver_Init
 296              		.comm	denominators,40,4
 297              		.comm	numerators,40,4
 298              		.bss
 299              		.align	2
 300              		.set	.LANCHOR0,. + 0
 301              		.type	wbuff, %object
 302              		.size	wbuff, 3
 303              	wbuff:
 304 0000 000000   		.space	3
 305 0003 00       		.space	1
 306              		.type	register_setting, %object
 307              		.size	register_setting, 16
 308              	register_setting:
 309 0004 00000000 		.space	16
 309      00000000 
 309      00000000 
 309      00000000 
 310              		.type	rbuff, %object
 311              		.size	rbuff, 256
ARM GAS  C:\Users\fiona\AppData\Local\Temp\ccaw6brC.s 			page 18


 312              	rbuff:
 313 0014 00000000 		.space	256
 313      00000000 
 313      00000000 
 313      00000000 
 313      00000000 
 314              		.text
 315              	.Letext0:
 316              		.file 3 "c:\\program files (x86)\\cypress\\psoc creator\\4.2\\psoc creator\\import\\gnu\\arm\\5.4.
 317              		.file 4 "c:\\program files (x86)\\cypress\\psoc creator\\4.2\\psoc creator\\import\\gnu\\arm\\5.4.
 318              		.file 5 "Generated_Source\\PSoC6\\pdl\\devices/psoc6/ip/cyip_scb.h"
 319              		.file 6 "Generated_Source\\PSoC6\\pdl\\drivers/peripheral/syslib/cy_syslib.h"
 320              		.file 7 "Generated_Source\\PSoC6\\pdl\\drivers/peripheral/tcpwm/cy_tcpwm_counter.h"
 321              		.file 8 "Generated_Source\\PSoC6\\pdl\\drivers/peripheral/tcpwm/cy_tcpwm_pwm.h"
 322              		.file 9 "Generated_Source\\PSoC6\\pdl\\drivers/peripheral/scb/cy_scb_i2c.h"
 323              		.file 10 "Generated_Source\\PSoC6\\pdl\\drivers/peripheral/scb/cy_scb_uart.h"
 324              		.file 11 "Generated_Source\\PSoC6\\pdl\\drivers/peripheral/sar/cy_sar.h"
 325              		.file 12 "Generated_Source\\PSoC6\\pdl\\middleware/ble/cy_ble_stack.h"
 326              		.file 13 "Generated_Source\\PSoC6\\pdl\\middleware/ble/cy_ble_stack_host_main.h"
 327              		.file 14 "Generated_Source\\PSoC6\\pdl\\middleware/ble/cy_ble_gap.h"
 328              		.file 15 "Generated_Source\\PSoC6/ADC.h"
 329              		.file 16 "Generated_Source\\PSoC6\\pdl\\drivers/peripheral/rtc/cy_rtc.h"
 330              		.file 17 "Generated_Source\\PSoC6/UART_DEBUG.h"
 331              		.file 18 "Generated_Source\\PSoC6/LightOutputC.h"
 332              		.file 19 "Generated_Source\\PSoC6/LightOutputA.h"
 333              		.file 20 "Generated_Source\\PSoC6/LightTimer.h"
 334              		.file 21 "Generated_Source\\PSoC6/LightOutputB.h"
 335              		.file 22 "Generated_Source\\PSoC6/MotorOutput.h"
 336              		.file 23 "Generated_Source\\PSoC6/MotorTimer.h"
 337              		.file 24 "Generated_Source\\PSoC6/ChimeOutput.h"
 338              		.file 25 "Generated_Source\\PSoC6/ChimeTimer.h"
 339              		.file 26 "./DataBuffer.h"