ARM GAS  C:\Users\fiona\AppData\Local\Temp\cccXJLci.s 			page 1


   1              		.syntax unified
   2              		.cpu cortex-m0plus
   3              		.fpu softvfp
   4              		.eabi_attribute 20, 1
   5              		.eabi_attribute 21, 1
   6              		.eabi_attribute 23, 3
   7              		.eabi_attribute 24, 1
   8              		.eabi_attribute 25, 1
   9              		.eabi_attribute 26, 1
  10              		.eabi_attribute 30, 1
  11              		.eabi_attribute 34, 0
  12              		.eabi_attribute 18, 4
  13              		.thumb
  14              		.syntax unified
  15              		.file	"CalendarTime.c"
  16              		.text
  17              	.Ltext0:
  18              		.cfi_sections	.debug_frame
  19              		.section	.text.CalendarTime_SetDateAndTime,"ax",%progbits
  20              		.align	2
  21              		.global	CalendarTime_SetDateAndTime
  22              		.code	16
  23              		.thumb_func
  24              		.type	CalendarTime_SetDateAndTime, %function
  25              	CalendarTime_SetDateAndTime:
  26              	.LFB840:
  27              		.file 1 "CalendarTime.c"
   1:CalendarTime.c **** 
   2:CalendarTime.c **** #include <CalendarTime.h>
   3:CalendarTime.c **** #include <SystemCore.h>
   4:CalendarTime.c **** 
   5:CalendarTime.c **** #include "debug.h"
   6:CalendarTime.c **** 
   7:CalendarTime.c **** //-------------------------------------------------------------//
   8:CalendarTime.c **** //---------------------UPDATE-DATE-AND-TIME--------------------//
   9:CalendarTime.c **** //-------------------------------------------------------------//
  10:CalendarTime.c **** 
  11:CalendarTime.c **** void CalendarTime_SetDateAndTime(uint8 year, uint8 month, uint8 day, uint8 hour, uint8 minute, uint
  12:CalendarTime.c **** {    
  28              		.loc 1 12 0
  29              		.cfi_startproc
  30              		@ args = 8, pretend = 0, frame = 0
  31              		@ frame_needed = 0, uses_anonymous_args = 0
  32              	.LVL0:
  33 0000 70B5     		push	{r4, r5, r6, lr}
  34              		.cfi_def_cfa_offset 16
  35              		.cfi_offset 4, -16
  36              		.cfi_offset 5, -12
  37              		.cfi_offset 6, -8
  38              		.cfi_offset 14, -4
  39 0002 82B0     		sub	sp, sp, #8
  40              		.cfi_def_cfa_offset 24
  41 0004 0600     		movs	r6, r0
  42 0006 0D00     		movs	r5, r1
  43 0008 1400     		movs	r4, r2
  44 000a 1A00     		movs	r2, r3
  45              	.LVL1:
ARM GAS  C:\Users\fiona\AppData\Local\Temp\cccXJLci.s 			page 2


  46 000c 06AB     		add	r3, sp, #24
  47              	.LVL2:
  48 000e 1978     		ldrb	r1, [r3]
  49              	.LVL3:
  50 0010 07AB     		add	r3, sp, #28
  51              	.LVL4:
  52 0012 1878     		ldrb	r0, [r3]
  53              	.LVL5:
  13:CalendarTime.c ****     cy_en_rtc_status_t rtcReturnValue = Cy_RTC_SetDateAndTimeDirect(second, minute, hour, day, mont
  54              		.loc 1 13 0
  55 0014 0196     		str	r6, [sp, #4]
  56 0016 0095     		str	r5, [sp]
  57 0018 2300     		movs	r3, r4
  58              	.LVL6:
  59 001a FFF7FEFF 		bl	Cy_RTC_SetDateAndTimeDirect
  60              	.LVL7:
  14:CalendarTime.c ****     if(rtcReturnValue != CY_RTC_SUCCESS)
  15:CalendarTime.c ****     {
  16:CalendarTime.c ****         // ** Throw error
  17:CalendarTime.c ****     }
  18:CalendarTime.c **** }
  61              		.loc 1 18 0
  62 001e 02B0     		add	sp, sp, #8
  63              		@ sp needed
  64 0020 70BD     		pop	{r4, r5, r6, pc}
  65              		.cfi_endproc
  66              	.LFE840:
  67              		.size	CalendarTime_SetDateAndTime, .-CalendarTime_SetDateAndTime
  68 0022 C046     		.section	.text.CalendarTime_GetDateAndTime,"ax",%progbits
  69              		.align	2
  70              		.global	CalendarTime_GetDateAndTime
  71              		.code	16
  72              		.thumb_func
  73              		.type	CalendarTime_GetDateAndTime, %function
  74              	CalendarTime_GetDateAndTime:
  75              	.LFB841:
  19:CalendarTime.c **** epoch CalendarTime_GetDateAndTime()
  20:CalendarTime.c **** {
  76              		.loc 1 20 0
  77              		.cfi_startproc
  78              		@ args = 0, pretend = 0, frame = 40
  79              		@ frame_needed = 0, uses_anonymous_args = 0
  80              	.LVL8:
  81 0000 10B5     		push	{r4, lr}
  82              		.cfi_def_cfa_offset 8
  83              		.cfi_offset 4, -8
  84              		.cfi_offset 14, -4
  85 0002 8AB0     		sub	sp, sp, #40
  86              		.cfi_def_cfa_offset 48
  87 0004 0400     		movs	r4, r0
  21:CalendarTime.c ****     cy_stc_rtc_config_t dt;
  22:CalendarTime.c ****     Cy_RTC_GetDateAndTime(&dt);
  88              		.loc 1 22 0
  89 0006 02A8     		add	r0, sp, #8
  90              	.LVL9:
  91 0008 FFF7FEFF 		bl	Cy_RTC_GetDateAndTime
  92              	.LVL10:
ARM GAS  C:\Users\fiona\AppData\Local\Temp\cccXJLci.s 			page 3


  23:CalendarTime.c ****     
  24:CalendarTime.c ****     epoch date_time;
  25:CalendarTime.c ****     date_time.year   = dt.year;
  93              		.loc 1 25 0
  94 000c 099B     		ldr	r3, [sp, #36]
  95 000e 0193     		str	r3, [sp, #4]
  96 0010 6B46     		mov	r3, sp
  97 0012 9B88     		ldrh	r3, [r3, #4]
  98 0014 2380     		strh	r3, [r4]
  26:CalendarTime.c ****     date_time.month  = dt.month;
  99              		.loc 1 26 0
 100 0016 089B     		ldr	r3, [sp, #32]
 101 0018 0193     		str	r3, [sp, #4]
 102 001a 6B46     		mov	r3, sp
 103 001c 9B88     		ldrh	r3, [r3, #4]
 104 001e 6380     		strh	r3, [r4, #2]
  27:CalendarTime.c ****     date_time.day    = dt.date;
 105              		.loc 1 27 0
 106 0020 079B     		ldr	r3, [sp, #28]
 107 0022 0193     		str	r3, [sp, #4]
 108 0024 6B46     		mov	r3, sp
 109 0026 9B88     		ldrh	r3, [r3, #4]
 110 0028 A380     		strh	r3, [r4, #4]
  28:CalendarTime.c ****     date_time.hour   = dt.hour;
 111              		.loc 1 28 0
 112 002a 049B     		ldr	r3, [sp, #16]
 113 002c 0193     		str	r3, [sp, #4]
 114 002e 6B46     		mov	r3, sp
 115 0030 9B88     		ldrh	r3, [r3, #4]
 116 0032 E380     		strh	r3, [r4, #6]
  29:CalendarTime.c ****     date_time.minute = dt.min;
 117              		.loc 1 29 0
 118 0034 039B     		ldr	r3, [sp, #12]
 119 0036 2381     		strh	r3, [r4, #8]
  30:CalendarTime.c ****     date_time.second = dt.sec;
 120              		.loc 1 30 0
 121 0038 029B     		ldr	r3, [sp, #8]
 122 003a 6381     		strh	r3, [r4, #10]
  31:CalendarTime.c ****     
  32:CalendarTime.c ****     return date_time;
  33:CalendarTime.c **** }
 123              		.loc 1 33 0
 124 003c 2000     		movs	r0, r4
 125 003e 0AB0     		add	sp, sp, #40
 126              		@ sp needed
 127              	.LVL11:
 128 0040 10BD     		pop	{r4, pc}
 129              		.cfi_endproc
 130              	.LFE841:
 131              		.size	CalendarTime_GetDateAndTime, .-CalendarTime_GetDateAndTime
 132 0042 C046     		.section	.text.CalendarTime_Init,"ax",%progbits
 133              		.align	2
 134              		.global	CalendarTime_Init
 135              		.code	16
 136              		.thumb_func
 137              		.type	CalendarTime_Init, %function
 138              	CalendarTime_Init:
ARM GAS  C:\Users\fiona\AppData\Local\Temp\cccXJLci.s 			page 4


 139              	.LFB842:
  34:CalendarTime.c **** //-------------------------------------------------------------//
  35:CalendarTime.c **** //------------------------INITIALIZATION-----------------------//
  36:CalendarTime.c **** //-------------------------------------------------------------//
  37:CalendarTime.c **** 
  38:CalendarTime.c **** void CalendarTime_Init()
  39:CalendarTime.c **** {    
 140              		.loc 1 39 0
 141              		.cfi_startproc
 142              		@ args = 0, pretend = 0, frame = 0
 143              		@ frame_needed = 0, uses_anonymous_args = 0
 144 0000 10B5     		push	{r4, lr}
 145              		.cfi_def_cfa_offset 8
 146              		.cfi_offset 4, -8
 147              		.cfi_offset 14, -4
  40:CalendarTime.c ****     cy_en_rtc_status_t rtcReturnValue;
  41:CalendarTime.c ****     
  42:CalendarTime.c ****     rtcReturnValue = Cy_RTC_Init(&RealTimeClock_config);
 148              		.loc 1 42 0
 149 0002 0448     		ldr	r0, .L5
 150 0004 FFF7FEFF 		bl	Cy_RTC_Init
 151              	.LVL12:
  43:CalendarTime.c ****     if(rtcReturnValue == CY_RTC_SUCCESS)
 152              		.loc 1 43 0
 153 0008 0028     		cmp	r0, #0
 154 000a 01D1     		bne	.L3
  44:CalendarTime.c ****     {
  45:CalendarTime.c ****         rtcReturnValue = Cy_RTC_SetHoursFormat(CY_RTC_24_HOURS);
 155              		.loc 1 45 0
 156 000c FFF7FEFF 		bl	Cy_RTC_SetHoursFormat
 157              	.LVL13:
 158              	.L3:
  46:CalendarTime.c ****         if(rtcReturnValue != CY_RTC_SUCCESS)
  47:CalendarTime.c ****         {
  48:CalendarTime.c ****             // ** Throw error            
  49:CalendarTime.c ****         }
  50:CalendarTime.c ****     }
  51:CalendarTime.c ****     else
  52:CalendarTime.c ****     {
  53:CalendarTime.c ****         // ** Throw error        
  54:CalendarTime.c ****     }
  55:CalendarTime.c **** }
 159              		.loc 1 55 0
 160              		@ sp needed
 161 0010 10BD     		pop	{r4, pc}
 162              	.L6:
 163 0012 C046     		.align	2
 164              	.L5:
 165 0014 00000000 		.word	RealTimeClock_config
 166              		.cfi_endproc
 167              	.LFE842:
 168              		.size	CalendarTime_Init, .-CalendarTime_Init
 169              		.text
 170              	.Letext0:
 171              		.file 2 "c:\\program files (x86)\\cypress\\psoc creator\\4.2\\psoc creator\\import\\gnu\\arm\\5.4.
 172              		.file 3 "c:\\program files (x86)\\cypress\\psoc creator\\4.2\\psoc creator\\import\\gnu\\arm\\5.4.
 173              		.file 4 "Generated_Source\\PSoC6\\pdl\\drivers/peripheral/syslib/cy_syslib.h"
ARM GAS  C:\Users\fiona\AppData\Local\Temp\cccXJLci.s 			page 5


 174              		.file 5 "Generated_Source\\PSoC6\\pdl\\drivers/peripheral/rtc/cy_rtc.h"
 175              		.file 6 "Generated_Source\\PSoC6\\pdl\\drivers/peripheral/tcpwm/cy_tcpwm_counter.h"
 176              		.file 7 "Generated_Source\\PSoC6\\pdl\\drivers/peripheral/tcpwm/cy_tcpwm_pwm.h"
 177              		.file 8 "Generated_Source\\PSoC6\\pdl\\drivers/peripheral/scb/cy_scb_i2c.h"
 178              		.file 9 "Generated_Source\\PSoC6\\pdl\\drivers/peripheral/scb/cy_scb_uart.h"
 179              		.file 10 "Generated_Source\\PSoC6\\pdl\\drivers/peripheral/sar/cy_sar.h"
 180              		.file 11 "Generated_Source\\PSoC6\\pdl\\middleware/ble/cy_ble_stack_host_main.h"
 181              		.file 12 "Generated_Source\\PSoC6\\pdl\\middleware/ble/cy_ble_gap.h"
 182              		.file 13 "Generated_Source\\PSoC6/ADC.h"
 183              		.file 14 "./KinOS.h"
 184              		.file 15 "Generated_Source\\PSoC6/UART_DEBUG.h"
 185              		.file 16 "Generated_Source\\PSoC6/SensorBus.h"
 186              		.file 17 "Generated_Source\\PSoC6/LightOutputC.h"
 187              		.file 18 "Generated_Source\\PSoC6/LightOutputA.h"
 188              		.file 19 "Generated_Source\\PSoC6/LightTimer.h"
 189              		.file 20 "Generated_Source\\PSoC6/LightOutputB.h"
 190              		.file 21 "Generated_Source\\PSoC6/MotorOutput.h"
 191              		.file 22 "Generated_Source\\PSoC6/MotorTimer.h"
 192              		.file 23 "Generated_Source\\PSoC6/ChimeOutput.h"
 193              		.file 24 "Generated_Source\\PSoC6/ChimeTimer.h"
 194              		.file 25 "Generated_Source\\PSoC6/RealTimeClock.h"