ARM GAS  C:\Users\fiona\AppData\Local\Temp\cc5GuuYy.s 			page 1


   1              		.syntax unified
   2              		.cpu cortex-m0plus
   3              		.fpu softvfp
   4              		.eabi_attribute 20, 1
   5              		.eabi_attribute 21, 1
   6              		.eabi_attribute 23, 3
   7              		.eabi_attribute 24, 1
   8              		.eabi_attribute 25, 1
   9              		.eabi_attribute 26, 1
  10              		.eabi_attribute 30, 1
  11              		.eabi_attribute 34, 0
  12              		.eabi_attribute 18, 4
  13              		.thumb
  14              		.syntax unified
  15              		.file	"cy_ble_bas.c"
  16              		.text
  17              	.Ltext0:
  18              		.cfi_sections	.debug_frame
  19              		.section	.text.Cy_BLE_BASS_WriteEventHandler,"ax",%progbits
  20              		.align	2
  21              		.code	16
  22              		.thumb_func
  23              		.type	Cy_BLE_BASS_WriteEventHandler, %function
  24              	Cy_BLE_BASS_WriteEventHandler:
  25              	.LFB163:
  26              		.file 1 "Generated_Source\\PSoC6\\pdl\\middleware\\ble\\cy_ble_bas.c"
   1:Generated_Source\PSoC6\pdl\middleware\ble/cy_ble_bas.c **** /***************************************************************************//**
   2:Generated_Source\PSoC6\pdl\middleware\ble/cy_ble_bas.c **** * \file cy_ble_bas.c
   3:Generated_Source\PSoC6\pdl\middleware\ble/cy_ble_bas.c **** * \version 2.20
   4:Generated_Source\PSoC6\pdl\middleware\ble/cy_ble_bas.c **** *
   5:Generated_Source\PSoC6\pdl\middleware\ble/cy_ble_bas.c **** * \brief
   6:Generated_Source\PSoC6\pdl\middleware\ble/cy_ble_bas.c **** *  Contains the source code for the Battery Service.
   7:Generated_Source\PSoC6\pdl\middleware\ble/cy_ble_bas.c **** *
   8:Generated_Source\PSoC6\pdl\middleware\ble/cy_ble_bas.c **** ********************************************************************************
   9:Generated_Source\PSoC6\pdl\middleware\ble/cy_ble_bas.c **** * \copyright
  10:Generated_Source\PSoC6\pdl\middleware\ble/cy_ble_bas.c **** * Copyright 2017-2018, Cypress Semiconductor Corporation.  All rights reserved.
  11:Generated_Source\PSoC6\pdl\middleware\ble/cy_ble_bas.c **** * You may use this file only in accordance with the license, terms, conditions,
  12:Generated_Source\PSoC6\pdl\middleware\ble/cy_ble_bas.c **** * disclaimers, and limitations in the end user license agreement accompanying
  13:Generated_Source\PSoC6\pdl\middleware\ble/cy_ble_bas.c **** * the software package with which this file was provided.
  14:Generated_Source\PSoC6\pdl\middleware\ble/cy_ble_bas.c **** *******************************************************************************/
  15:Generated_Source\PSoC6\pdl\middleware\ble/cy_ble_bas.c **** 
  16:Generated_Source\PSoC6\pdl\middleware\ble/cy_ble_bas.c **** #include "cy_ble_event_handler.h"
  17:Generated_Source\PSoC6\pdl\middleware\ble/cy_ble_bas.c **** 
  18:Generated_Source\PSoC6\pdl\middleware\ble/cy_ble_bas.c **** /* C binding of definitions if building with C++ compiler */
  19:Generated_Source\PSoC6\pdl\middleware\ble/cy_ble_bas.c **** #ifdef __cplusplus
  20:Generated_Source\PSoC6\pdl\middleware\ble/cy_ble_bas.c **** extern "C" {
  21:Generated_Source\PSoC6\pdl\middleware\ble/cy_ble_bas.c **** #endif /* __cplusplus */
  22:Generated_Source\PSoC6\pdl\middleware\ble/cy_ble_bas.c **** 
  23:Generated_Source\PSoC6\pdl\middleware\ble/cy_ble_bas.c **** #if (CY_BLE_MODE_PROFILE && defined(CY_BLE_BAS))
  24:Generated_Source\PSoC6\pdl\middleware\ble/cy_ble_bas.c **** 
  25:Generated_Source\PSoC6\pdl\middleware\ble/cy_ble_bas.c **** static cy_ble_callback_t Cy_BLE_BAS_ApplCallback = NULL;
  26:Generated_Source\PSoC6\pdl\middleware\ble/cy_ble_bas.c **** 
  27:Generated_Source\PSoC6\pdl\middleware\ble/cy_ble_bas.c **** #ifdef CY_BLE_BAS_CLIENT
  28:Generated_Source\PSoC6\pdl\middleware\ble/cy_ble_bas.c **** /* BAS Center Service characteristics GATT DB handles structure */
  29:Generated_Source\PSoC6\pdl\middleware\ble/cy_ble_bas.c **** cy_stc_ble_basc_t cy_ble_basc[CY_BLE_GATTC_COUNT][CY_BLE_BASC_SERVICE_COUNT];
  30:Generated_Source\PSoC6\pdl\middleware\ble/cy_ble_bas.c **** 
  31:Generated_Source\PSoC6\pdl\middleware\ble/cy_ble_bas.c **** /* The internal storage for the last request handle to check response */
ARM GAS  C:\Users\fiona\AppData\Local\Temp\cc5GuuYy.s 			page 2


  32:Generated_Source\PSoC6\pdl\middleware\ble/cy_ble_bas.c **** static cy_ble_gatt_db_attr_handle_t cy_ble_bascReqHandle[CY_BLE_GATTC_COUNT];
  33:Generated_Source\PSoC6\pdl\middleware\ble/cy_ble_bas.c **** #endif /* (CY_BLE_BAS_CLIENT) */
  34:Generated_Source\PSoC6\pdl\middleware\ble/cy_ble_bas.c **** 
  35:Generated_Source\PSoC6\pdl\middleware\ble/cy_ble_bas.c **** /* The pointer to the global BLE BAS config structure */
  36:Generated_Source\PSoC6\pdl\middleware\ble/cy_ble_bas.c **** cy_stc_ble_bas_config_t *cy_ble_basConfigPtr = NULL;
  37:Generated_Source\PSoC6\pdl\middleware\ble/cy_ble_bas.c **** 
  38:Generated_Source\PSoC6\pdl\middleware\ble/cy_ble_bas.c **** /***************************************
  39:Generated_Source\PSoC6\pdl\middleware\ble/cy_ble_bas.c **** * Private Function Prototypes
  40:Generated_Source\PSoC6\pdl\middleware\ble/cy_ble_bas.c **** ***************************************/
  41:Generated_Source\PSoC6\pdl\middleware\ble/cy_ble_bas.c **** #ifdef CY_BLE_BAS_SERVER
  42:Generated_Source\PSoC6\pdl\middleware\ble/cy_ble_bas.c **** static cy_en_ble_gatt_err_code_t Cy_BLE_BASS_WriteEventHandler(
  43:Generated_Source\PSoC6\pdl\middleware\ble/cy_ble_bas.c ****     const cy_stc_ble_gatts_write_cmd_req_param_t *eventParam);
  44:Generated_Source\PSoC6\pdl\middleware\ble/cy_ble_bas.c **** #endif /* CY_BLE_BAS_SERVER */
  45:Generated_Source\PSoC6\pdl\middleware\ble/cy_ble_bas.c **** 
  46:Generated_Source\PSoC6\pdl\middleware\ble/cy_ble_bas.c **** #ifdef CY_BLE_BAS_CLIENT
  47:Generated_Source\PSoC6\pdl\middleware\ble/cy_ble_bas.c **** static void Cy_BLE_BASC_DiscoverCharacteristicsEventHandler(cy_stc_ble_disc_char_info_t *discCharIn
  48:Generated_Source\PSoC6\pdl\middleware\ble/cy_ble_bas.c **** static void Cy_BLE_BASC_DiscoverCharDescriptorsEventHandler(cy_stc_ble_disc_descr_info_t *discDescr
  49:Generated_Source\PSoC6\pdl\middleware\ble/cy_ble_bas.c **** static void Cy_BLE_BASC_GetCharRange(cy_stc_ble_disc_range_info_t *charRangeInfo);
  50:Generated_Source\PSoC6\pdl\middleware\ble/cy_ble_bas.c **** static void Cy_BLE_BASC_NotificationEventHandler(cy_stc_ble_gattc_handle_value_ntf_param_t *eventPa
  51:Generated_Source\PSoC6\pdl\middleware\ble/cy_ble_bas.c **** static void Cy_BLE_BASC_ReadResponseEventHandler(cy_stc_ble_gattc_read_rsp_param_t *eventParam);
  52:Generated_Source\PSoC6\pdl\middleware\ble/cy_ble_bas.c **** static void Cy_BLE_BASC_WriteResponseEventHandler(const cy_stc_ble_conn_handle_t *eventParam);
  53:Generated_Source\PSoC6\pdl\middleware\ble/cy_ble_bas.c **** static void Cy_BLE_BASC_ErrorResponseEventHandler(const cy_stc_ble_gatt_err_param_t *eventParam);
  54:Generated_Source\PSoC6\pdl\middleware\ble/cy_ble_bas.c **** #endif /* (CY_BLE_BAS_CLIENT) */
  55:Generated_Source\PSoC6\pdl\middleware\ble/cy_ble_bas.c **** static cy_en_ble_gatt_err_code_t Cy_BLE_BAS_EventHandler(uint32_t eventCode, void *eventParam);
  56:Generated_Source\PSoC6\pdl\middleware\ble/cy_ble_bas.c **** 
  57:Generated_Source\PSoC6\pdl\middleware\ble/cy_ble_bas.c **** 
  58:Generated_Source\PSoC6\pdl\middleware\ble/cy_ble_bas.c **** /******************************************************************************
  59:Generated_Source\PSoC6\pdl\middleware\ble/cy_ble_bas.c **** * Function Name: Cy_BLE_BAS_Init
  60:Generated_Source\PSoC6\pdl\middleware\ble/cy_ble_bas.c **** ***************************************************************************//**
  61:Generated_Source\PSoC6\pdl\middleware\ble/cy_ble_bas.c **** *
  62:Generated_Source\PSoC6\pdl\middleware\ble/cy_ble_bas.c **** *  This function initializes the BAS Service.
  63:Generated_Source\PSoC6\pdl\middleware\ble/cy_ble_bas.c **** *
  64:Generated_Source\PSoC6\pdl\middleware\ble/cy_ble_bas.c **** *  \param config: The configuration structure for the BAS Service.
  65:Generated_Source\PSoC6\pdl\middleware\ble/cy_ble_bas.c **** *
  66:Generated_Source\PSoC6\pdl\middleware\ble/cy_ble_bas.c **** *  \return
  67:Generated_Source\PSoC6\pdl\middleware\ble/cy_ble_bas.c **** *  \ref cy_en_ble_api_result_t : Return value indicates if the function succeeded or
  68:Generated_Source\PSoC6\pdl\middleware\ble/cy_ble_bas.c **** *  failed. The following are possible error codes.
  69:Generated_Source\PSoC6\pdl\middleware\ble/cy_ble_bas.c **** *
  70:Generated_Source\PSoC6\pdl\middleware\ble/cy_ble_bas.c **** *   Error Codes                             | Description
  71:Generated_Source\PSoC6\pdl\middleware\ble/cy_ble_bas.c **** *   ------------                            | -----------
  72:Generated_Source\PSoC6\pdl\middleware\ble/cy_ble_bas.c **** *   CY_BLE_SUCCESS                          | The function completed successfully.
  73:Generated_Source\PSoC6\pdl\middleware\ble/cy_ble_bas.c **** *   CY_BLE_ERROR_INVALID_PARAMETER          | On specifying NULL as input parameter
  74:Generated_Source\PSoC6\pdl\middleware\ble/cy_ble_bas.c **** *   CY_BLE_ERROR_MEMORY_ALLOCATION_FAILED   | Buffer overflow in the registration callback.
  75:Generated_Source\PSoC6\pdl\middleware\ble/cy_ble_bas.c **** *
  76:Generated_Source\PSoC6\pdl\middleware\ble/cy_ble_bas.c **** ******************************************************************************/
  77:Generated_Source\PSoC6\pdl\middleware\ble/cy_ble_bas.c **** cy_en_ble_api_result_t Cy_BLE_BAS_Init(cy_stc_ble_bas_config_t *config)
  78:Generated_Source\PSoC6\pdl\middleware\ble/cy_ble_bas.c **** {
  79:Generated_Source\PSoC6\pdl\middleware\ble/cy_ble_bas.c ****     cy_en_ble_api_result_t apiResult;
  80:Generated_Source\PSoC6\pdl\middleware\ble/cy_ble_bas.c **** 
  81:Generated_Source\PSoC6\pdl\middleware\ble/cy_ble_bas.c ****     if(config == NULL)
  82:Generated_Source\PSoC6\pdl\middleware\ble/cy_ble_bas.c ****     {
  83:Generated_Source\PSoC6\pdl\middleware\ble/cy_ble_bas.c ****         apiResult = CY_BLE_ERROR_INVALID_PARAMETER;
  84:Generated_Source\PSoC6\pdl\middleware\ble/cy_ble_bas.c ****     }
  85:Generated_Source\PSoC6\pdl\middleware\ble/cy_ble_bas.c ****     else
  86:Generated_Source\PSoC6\pdl\middleware\ble/cy_ble_bas.c ****     {
  87:Generated_Source\PSoC6\pdl\middleware\ble/cy_ble_bas.c ****         /* Registers a pointer to config structure */
  88:Generated_Source\PSoC6\pdl\middleware\ble/cy_ble_bas.c ****         cy_ble_basConfigPtr = config;
ARM GAS  C:\Users\fiona\AppData\Local\Temp\cc5GuuYy.s 			page 3


  89:Generated_Source\PSoC6\pdl\middleware\ble/cy_ble_bas.c **** 
  90:Generated_Source\PSoC6\pdl\middleware\ble/cy_ble_bas.c ****         /* Registers Event Handler for the BAS Service */
  91:Generated_Source\PSoC6\pdl\middleware\ble/cy_ble_bas.c ****         apiResult = Cy_BLE_RegisterServiceEventHandler(&Cy_BLE_BAS_EventHandler);
  92:Generated_Source\PSoC6\pdl\middleware\ble/cy_ble_bas.c **** 
  93:Generated_Source\PSoC6\pdl\middleware\ble/cy_ble_bas.c ****         /* Registers a callback function via config structure */
  94:Generated_Source\PSoC6\pdl\middleware\ble/cy_ble_bas.c ****         if(cy_ble_basConfigPtr->callbackFunc != NULL)
  95:Generated_Source\PSoC6\pdl\middleware\ble/cy_ble_bas.c ****         {
  96:Generated_Source\PSoC6\pdl\middleware\ble/cy_ble_bas.c ****             Cy_BLE_BAS_ApplCallback = cy_ble_basConfigPtr->callbackFunc;
  97:Generated_Source\PSoC6\pdl\middleware\ble/cy_ble_bas.c ****         }
  98:Generated_Source\PSoC6\pdl\middleware\ble/cy_ble_bas.c **** 
  99:Generated_Source\PSoC6\pdl\middleware\ble/cy_ble_bas.c ****     #ifdef CY_BLE_BAS_CLIENT
 100:Generated_Source\PSoC6\pdl\middleware\ble/cy_ble_bas.c ****         {
 101:Generated_Source\PSoC6\pdl\middleware\ble/cy_ble_bas.c ****             uint32_t idx;
 102:Generated_Source\PSoC6\pdl\middleware\ble/cy_ble_bas.c ****             uint8_t locServIndex;
 103:Generated_Source\PSoC6\pdl\middleware\ble/cy_ble_bas.c ****             for(idx = 0u; idx < CY_BLE_GATTC_COUNT; idx++)
 104:Generated_Source\PSoC6\pdl\middleware\ble/cy_ble_bas.c ****             {
 105:Generated_Source\PSoC6\pdl\middleware\ble/cy_ble_bas.c ****                 for(locServIndex = 0u; locServIndex < (uint32_t)CY_BLE_BASC_SERVICE_COUNT; locServI
 106:Generated_Source\PSoC6\pdl\middleware\ble/cy_ble_bas.c ****                 {
 107:Generated_Source\PSoC6\pdl\middleware\ble/cy_ble_bas.c ****                     if(cy_ble_serverInfo[idx][CY_BLE_SRVI_BAS + locServIndex].range.startHandle ==
 108:Generated_Source\PSoC6\pdl\middleware\ble/cy_ble_bas.c ****                        CY_BLE_GATT_INVALID_ATTR_HANDLE_VALUE)
 109:Generated_Source\PSoC6\pdl\middleware\ble/cy_ble_bas.c ****                     {
 110:Generated_Source\PSoC6\pdl\middleware\ble/cy_ble_bas.c ****                         (void)memset(&cy_ble_basc[idx][locServIndex], 0, sizeof(cy_stc_ble_basc_t))
 111:Generated_Source\PSoC6\pdl\middleware\ble/cy_ble_bas.c **** 
 112:Generated_Source\PSoC6\pdl\middleware\ble/cy_ble_bas.c ****                         /* Initialize uuid  */
 113:Generated_Source\PSoC6\pdl\middleware\ble/cy_ble_bas.c ****                         cy_ble_serverInfo[idx][CY_BLE_SRVI_BAS + locServIndex].uuid = CY_BLE_UUID_B
 114:Generated_Source\PSoC6\pdl\middleware\ble/cy_ble_bas.c ****                     }
 115:Generated_Source\PSoC6\pdl\middleware\ble/cy_ble_bas.c ****                 }
 116:Generated_Source\PSoC6\pdl\middleware\ble/cy_ble_bas.c ****                 cy_ble_bascReqHandle[idx] = CY_BLE_GATT_INVALID_ATTR_HANDLE_VALUE;
 117:Generated_Source\PSoC6\pdl\middleware\ble/cy_ble_bas.c ****             }
 118:Generated_Source\PSoC6\pdl\middleware\ble/cy_ble_bas.c ****         }
 119:Generated_Source\PSoC6\pdl\middleware\ble/cy_ble_bas.c ****     #endif /* CY_BLE_BAS_CLIENT */
 120:Generated_Source\PSoC6\pdl\middleware\ble/cy_ble_bas.c ****     }
 121:Generated_Source\PSoC6\pdl\middleware\ble/cy_ble_bas.c **** 
 122:Generated_Source\PSoC6\pdl\middleware\ble/cy_ble_bas.c ****     return(apiResult);
 123:Generated_Source\PSoC6\pdl\middleware\ble/cy_ble_bas.c **** }
 124:Generated_Source\PSoC6\pdl\middleware\ble/cy_ble_bas.c **** 
 125:Generated_Source\PSoC6\pdl\middleware\ble/cy_ble_bas.c **** 
 126:Generated_Source\PSoC6\pdl\middleware\ble/cy_ble_bas.c **** /******************************************************************************
 127:Generated_Source\PSoC6\pdl\middleware\ble/cy_ble_bas.c **** * Function Name: Cy_BLE_BAS_RegisterAttrCallback
 128:Generated_Source\PSoC6\pdl\middleware\ble/cy_ble_bas.c **** ***************************************************************************//**
 129:Generated_Source\PSoC6\pdl\middleware\ble/cy_ble_bas.c **** *
 130:Generated_Source\PSoC6\pdl\middleware\ble/cy_ble_bas.c **** *  Registers a callback function for service-specific attribute operations.
 131:Generated_Source\PSoC6\pdl\middleware\ble/cy_ble_bas.c **** *  Service specific Write requests from the peer device will not be handled with
 132:Generated_Source\PSoC6\pdl\middleware\ble/cy_ble_bas.c **** *  an unregistered callback function.
 133:Generated_Source\PSoC6\pdl\middleware\ble/cy_ble_bas.c **** *
 134:Generated_Source\PSoC6\pdl\middleware\ble/cy_ble_bas.c **** *  \param callbackFunc: An application layer event callback function to receive
 135:Generated_Source\PSoC6\pdl\middleware\ble/cy_ble_bas.c **** *  events from the BLE Middleware. The definition of \ref cy_ble_callback_t 
 136:Generated_Source\PSoC6\pdl\middleware\ble/cy_ble_bas.c **** *  for BAS Service is:<br>
 137:Generated_Source\PSoC6\pdl\middleware\ble/cy_ble_bas.c **** *  typedef void (* cy_ble_callback_t) (uint32_t eventCode, void *eventParam),
 138:Generated_Source\PSoC6\pdl\middleware\ble/cy_ble_bas.c **** *  where:
 139:Generated_Source\PSoC6\pdl\middleware\ble/cy_ble_bas.c **** *       * eventCode:  Indicates the event that triggered this callback
 140:Generated_Source\PSoC6\pdl\middleware\ble/cy_ble_bas.c **** *         (e.g. #CY_BLE_EVT_BASS_NOTIFICATION_ENABLED).
 141:Generated_Source\PSoC6\pdl\middleware\ble/cy_ble_bas.c **** *       * eventParam: Contains the parameters corresponding to the
 142:Generated_Source\PSoC6\pdl\middleware\ble/cy_ble_bas.c **** *         current event. (e.g. Pointer to \ref cy_stc_ble_bas_char_value_t
 143:Generated_Source\PSoC6\pdl\middleware\ble/cy_ble_bas.c **** *         structure that contains details of the characteristic
 144:Generated_Source\PSoC6\pdl\middleware\ble/cy_ble_bas.c **** *         for which the notification enabled event was triggered).
 145:Generated_Source\PSoC6\pdl\middleware\ble/cy_ble_bas.c **** *
ARM GAS  C:\Users\fiona\AppData\Local\Temp\cc5GuuYy.s 			page 4


 146:Generated_Source\PSoC6\pdl\middleware\ble/cy_ble_bas.c **** *  \return
 147:Generated_Source\PSoC6\pdl\middleware\ble/cy_ble_bas.c **** *  \ref cy_en_ble_api_result_t : Return value indicates if the function succeeded or
 148:Generated_Source\PSoC6\pdl\middleware\ble/cy_ble_bas.c **** *  failed. The following are possible error codes:
 149:Generated_Source\PSoC6\pdl\middleware\ble/cy_ble_bas.c **** *
 150:Generated_Source\PSoC6\pdl\middleware\ble/cy_ble_bas.c **** *   Error Codes                             | Description
 151:Generated_Source\PSoC6\pdl\middleware\ble/cy_ble_bas.c **** *   ------------                            | -----------
 152:Generated_Source\PSoC6\pdl\middleware\ble/cy_ble_bas.c **** *   CY_BLE_SUCCESS                          | The function completed successfully.
 153:Generated_Source\PSoC6\pdl\middleware\ble/cy_ble_bas.c **** *   CY_BLE_ERROR_INVALID_OPERATION          | This operation is not permitted
 154:Generated_Source\PSoC6\pdl\middleware\ble/cy_ble_bas.c **** *
 155:Generated_Source\PSoC6\pdl\middleware\ble/cy_ble_bas.c **** ******************************************************************************/
 156:Generated_Source\PSoC6\pdl\middleware\ble/cy_ble_bas.c **** cy_en_ble_api_result_t Cy_BLE_BAS_RegisterAttrCallback(cy_ble_callback_t callbackFunc)
 157:Generated_Source\PSoC6\pdl\middleware\ble/cy_ble_bas.c **** {
 158:Generated_Source\PSoC6\pdl\middleware\ble/cy_ble_bas.c ****     cy_en_ble_api_result_t apiResult = CY_BLE_SUCCESS;
 159:Generated_Source\PSoC6\pdl\middleware\ble/cy_ble_bas.c ****     
 160:Generated_Source\PSoC6\pdl\middleware\ble/cy_ble_bas.c ****     Cy_BLE_BAS_ApplCallback = callbackFunc;
 161:Generated_Source\PSoC6\pdl\middleware\ble/cy_ble_bas.c ****     if(cy_ble_basConfigPtr != NULL)
 162:Generated_Source\PSoC6\pdl\middleware\ble/cy_ble_bas.c ****     {
 163:Generated_Source\PSoC6\pdl\middleware\ble/cy_ble_bas.c ****         cy_ble_basConfigPtr->callbackFunc = callbackFunc;
 164:Generated_Source\PSoC6\pdl\middleware\ble/cy_ble_bas.c ****     }
 165:Generated_Source\PSoC6\pdl\middleware\ble/cy_ble_bas.c ****     else
 166:Generated_Source\PSoC6\pdl\middleware\ble/cy_ble_bas.c ****     {
 167:Generated_Source\PSoC6\pdl\middleware\ble/cy_ble_bas.c ****         apiResult = CY_BLE_ERROR_INVALID_OPERATION;
 168:Generated_Source\PSoC6\pdl\middleware\ble/cy_ble_bas.c ****     }
 169:Generated_Source\PSoC6\pdl\middleware\ble/cy_ble_bas.c ****     
 170:Generated_Source\PSoC6\pdl\middleware\ble/cy_ble_bas.c ****     return(apiResult);
 171:Generated_Source\PSoC6\pdl\middleware\ble/cy_ble_bas.c **** }
 172:Generated_Source\PSoC6\pdl\middleware\ble/cy_ble_bas.c **** 
 173:Generated_Source\PSoC6\pdl\middleware\ble/cy_ble_bas.c **** 
 174:Generated_Source\PSoC6\pdl\middleware\ble/cy_ble_bas.c **** #ifdef CY_BLE_BAS_SERVER
 175:Generated_Source\PSoC6\pdl\middleware\ble/cy_ble_bas.c **** 
 176:Generated_Source\PSoC6\pdl\middleware\ble/cy_ble_bas.c **** 
 177:Generated_Source\PSoC6\pdl\middleware\ble/cy_ble_bas.c **** /******************************************************************************
 178:Generated_Source\PSoC6\pdl\middleware\ble/cy_ble_bas.c **** * Function Name: Cy_BLE_BASS_SetCharacteristicValue
 179:Generated_Source\PSoC6\pdl\middleware\ble/cy_ble_bas.c **** ***************************************************************************//**
 180:Generated_Source\PSoC6\pdl\middleware\ble/cy_ble_bas.c **** *
 181:Generated_Source\PSoC6\pdl\middleware\ble/cy_ble_bas.c **** *  Sets a characteristic value of the service, which is a value
 182:Generated_Source\PSoC6\pdl\middleware\ble/cy_ble_bas.c **** *  identified by charIndex, to the local database.
 183:Generated_Source\PSoC6\pdl\middleware\ble/cy_ble_bas.c **** *
 184:Generated_Source\PSoC6\pdl\middleware\ble/cy_ble_bas.c **** *  \param serviceIndex: The index of the service instance.
 185:Generated_Source\PSoC6\pdl\middleware\ble/cy_ble_bas.c **** *  \param charIndex:    The index of the service characteristic of type
 186:Generated_Source\PSoC6\pdl\middleware\ble/cy_ble_bas.c **** *                       #cy_en_ble_bas_char_index_t.
 187:Generated_Source\PSoC6\pdl\middleware\ble/cy_ble_bas.c **** *  \param attrSize:     The size of the characteristic value attribute.
 188:Generated_Source\PSoC6\pdl\middleware\ble/cy_ble_bas.c **** *                       A battery level characteristic has a 1-byte length.
 189:Generated_Source\PSoC6\pdl\middleware\ble/cy_ble_bas.c **** *  \param attrValue:    The pointer to the characteristic value data that 
 190:Generated_Source\PSoC6\pdl\middleware\ble/cy_ble_bas.c **** *                       should be stored to the GATT database.
 191:Generated_Source\PSoC6\pdl\middleware\ble/cy_ble_bas.c **** *
 192:Generated_Source\PSoC6\pdl\middleware\ble/cy_ble_bas.c **** *  \return
 193:Generated_Source\PSoC6\pdl\middleware\ble/cy_ble_bas.c **** *  A return value of type \ref cy_en_ble_api_result_t.
 194:Generated_Source\PSoC6\pdl\middleware\ble/cy_ble_bas.c **** *
 195:Generated_Source\PSoC6\pdl\middleware\ble/cy_ble_bas.c **** *   Error Codes                             | Description
 196:Generated_Source\PSoC6\pdl\middleware\ble/cy_ble_bas.c **** *   ------------                            | -----------
 197:Generated_Source\PSoC6\pdl\middleware\ble/cy_ble_bas.c **** *   CY_BLE_SUCCESS                          | The request was handled successfully.
 198:Generated_Source\PSoC6\pdl\middleware\ble/cy_ble_bas.c **** *   CY_BLE_ERROR_INVALID_PARAMETER          | Validation of the input parameter failed.
 199:Generated_Source\PSoC6\pdl\middleware\ble/cy_ble_bas.c **** *
 200:Generated_Source\PSoC6\pdl\middleware\ble/cy_ble_bas.c **** ******************************************************************************/
 201:Generated_Source\PSoC6\pdl\middleware\ble/cy_ble_bas.c **** cy_en_ble_api_result_t Cy_BLE_BASS_SetCharacteristicValue(uint8_t serviceIndex,
 202:Generated_Source\PSoC6\pdl\middleware\ble/cy_ble_bas.c ****                                                           cy_en_ble_bas_char_index_t charIndex,
ARM GAS  C:\Users\fiona\AppData\Local\Temp\cc5GuuYy.s 			page 5


 203:Generated_Source\PSoC6\pdl\middleware\ble/cy_ble_bas.c ****                                                           uint8_t attrSize,
 204:Generated_Source\PSoC6\pdl\middleware\ble/cy_ble_bas.c ****                                                           uint8_t *attrValue)
 205:Generated_Source\PSoC6\pdl\middleware\ble/cy_ble_bas.c **** {
 206:Generated_Source\PSoC6\pdl\middleware\ble/cy_ble_bas.c ****     cy_en_ble_api_result_t apiResult = CY_BLE_SUCCESS;
 207:Generated_Source\PSoC6\pdl\middleware\ble/cy_ble_bas.c **** 
 208:Generated_Source\PSoC6\pdl\middleware\ble/cy_ble_bas.c ****     if((serviceIndex >= CY_BLE_BASS_SERVICE_COUNT) || (charIndex >= CY_BLE_BAS_CHAR_COUNT) ||
 209:Generated_Source\PSoC6\pdl\middleware\ble/cy_ble_bas.c ****        (attrSize != CY_BLE_BAS_BATTERY_LEVEL_LEN) || (*attrValue > CY_BLE_BAS_MAX_BATTERY_LEVEL_VAL
 210:Generated_Source\PSoC6\pdl\middleware\ble/cy_ble_bas.c ****     {
 211:Generated_Source\PSoC6\pdl\middleware\ble/cy_ble_bas.c ****         apiResult = CY_BLE_ERROR_INVALID_PARAMETER;
 212:Generated_Source\PSoC6\pdl\middleware\ble/cy_ble_bas.c ****     }
 213:Generated_Source\PSoC6\pdl\middleware\ble/cy_ble_bas.c ****     else
 214:Generated_Source\PSoC6\pdl\middleware\ble/cy_ble_bas.c ****     {
 215:Generated_Source\PSoC6\pdl\middleware\ble/cy_ble_bas.c ****         /* Store data in the database */
 216:Generated_Source\PSoC6\pdl\middleware\ble/cy_ble_bas.c ****         cy_stc_ble_gatts_db_attr_val_info_t dbAttrValInfo =
 217:Generated_Source\PSoC6\pdl\middleware\ble/cy_ble_bas.c ****         {
 218:Generated_Source\PSoC6\pdl\middleware\ble/cy_ble_bas.c ****             .handleValuePair.attrHandle = cy_ble_basConfigPtr->bass[serviceIndex].batteryLevelHandl
 219:Generated_Source\PSoC6\pdl\middleware\ble/cy_ble_bas.c ****             .handleValuePair.value.len  = attrSize,
 220:Generated_Source\PSoC6\pdl\middleware\ble/cy_ble_bas.c ****             .handleValuePair.value.val  = attrValue,
 221:Generated_Source\PSoC6\pdl\middleware\ble/cy_ble_bas.c ****             .offset                     = 0u,
 222:Generated_Source\PSoC6\pdl\middleware\ble/cy_ble_bas.c ****             .flags                      = CY_BLE_GATT_DB_LOCALLY_INITIATED
 223:Generated_Source\PSoC6\pdl\middleware\ble/cy_ble_bas.c ****         };
 224:Generated_Source\PSoC6\pdl\middleware\ble/cy_ble_bas.c **** 
 225:Generated_Source\PSoC6\pdl\middleware\ble/cy_ble_bas.c ****         if(Cy_BLE_GATTS_WriteAttributeValueCCCD(&dbAttrValInfo) != CY_BLE_GATT_ERR_NONE)
 226:Generated_Source\PSoC6\pdl\middleware\ble/cy_ble_bas.c ****         {
 227:Generated_Source\PSoC6\pdl\middleware\ble/cy_ble_bas.c ****             apiResult = CY_BLE_ERROR_INVALID_PARAMETER;
 228:Generated_Source\PSoC6\pdl\middleware\ble/cy_ble_bas.c ****         }
 229:Generated_Source\PSoC6\pdl\middleware\ble/cy_ble_bas.c ****     }
 230:Generated_Source\PSoC6\pdl\middleware\ble/cy_ble_bas.c **** 
 231:Generated_Source\PSoC6\pdl\middleware\ble/cy_ble_bas.c ****     return(apiResult);
 232:Generated_Source\PSoC6\pdl\middleware\ble/cy_ble_bas.c **** }
 233:Generated_Source\PSoC6\pdl\middleware\ble/cy_ble_bas.c **** 
 234:Generated_Source\PSoC6\pdl\middleware\ble/cy_ble_bas.c **** 
 235:Generated_Source\PSoC6\pdl\middleware\ble/cy_ble_bas.c **** /******************************************************************************
 236:Generated_Source\PSoC6\pdl\middleware\ble/cy_ble_bas.c **** * Function Name: Cy_BLE_BASS_GetCharacteristicValue
 237:Generated_Source\PSoC6\pdl\middleware\ble/cy_ble_bas.c **** ***************************************************************************//**
 238:Generated_Source\PSoC6\pdl\middleware\ble/cy_ble_bas.c **** *
 239:Generated_Source\PSoC6\pdl\middleware\ble/cy_ble_bas.c **** *  Gets a characteristic value of the Battery Service, identified by charIndex.
 240:Generated_Source\PSoC6\pdl\middleware\ble/cy_ble_bas.c **** *
 241:Generated_Source\PSoC6\pdl\middleware\ble/cy_ble_bas.c **** *  \param serviceIndex: The index of the service instance. e.g. if two Battery 
 242:Generated_Source\PSoC6\pdl\middleware\ble/cy_ble_bas.c **** *                       Services are supported in your design, then the first 
 243:Generated_Source\PSoC6\pdl\middleware\ble/cy_ble_bas.c **** *                       service will be identified by serviceIndex of 0 and the 
 244:Generated_Source\PSoC6\pdl\middleware\ble/cy_ble_bas.c **** *                       second service - by serviceIndex of 1.
 245:Generated_Source\PSoC6\pdl\middleware\ble/cy_ble_bas.c **** *  \param charIndex:    The index of a service characteristic of type 
 246:Generated_Source\PSoC6\pdl\middleware\ble/cy_ble_bas.c **** *                       \ref cy_en_ble_bas_char_index_t.
 247:Generated_Source\PSoC6\pdl\middleware\ble/cy_ble_bas.c **** *  \param attrSize:     The size of the characteristic value attribute. A 
 248:Generated_Source\PSoC6\pdl\middleware\ble/cy_ble_bas.c **** *                       battery level characteristic has a 1-byte length.
 249:Generated_Source\PSoC6\pdl\middleware\ble/cy_ble_bas.c **** *  \param attrValue:    The pointer to the location where characteristic value
 250:Generated_Source\PSoC6\pdl\middleware\ble/cy_ble_bas.c **** *                       data should be stored.
 251:Generated_Source\PSoC6\pdl\middleware\ble/cy_ble_bas.c **** *
 252:Generated_Source\PSoC6\pdl\middleware\ble/cy_ble_bas.c **** *  \return
 253:Generated_Source\PSoC6\pdl\middleware\ble/cy_ble_bas.c **** *   A return value of type \ref cy_en_ble_api_result_t.
 254:Generated_Source\PSoC6\pdl\middleware\ble/cy_ble_bas.c **** *
 255:Generated_Source\PSoC6\pdl\middleware\ble/cy_ble_bas.c **** *   Error Codes                              | Description
 256:Generated_Source\PSoC6\pdl\middleware\ble/cy_ble_bas.c **** *   ------------                             | -----------
 257:Generated_Source\PSoC6\pdl\middleware\ble/cy_ble_bas.c **** *   CY_BLE_SUCCESS                           | The characteristic value was read successfully.
 258:Generated_Source\PSoC6\pdl\middleware\ble/cy_ble_bas.c **** *   CY_BLE_ERROR_INVALID_PARAMETER           | Validation of the input parameter failed.
 259:Generated_Source\PSoC6\pdl\middleware\ble/cy_ble_bas.c **** *
ARM GAS  C:\Users\fiona\AppData\Local\Temp\cc5GuuYy.s 			page 6


 260:Generated_Source\PSoC6\pdl\middleware\ble/cy_ble_bas.c **** ******************************************************************************/
 261:Generated_Source\PSoC6\pdl\middleware\ble/cy_ble_bas.c **** cy_en_ble_api_result_t Cy_BLE_BASS_GetCharacteristicValue(uint8_t serviceIndex,
 262:Generated_Source\PSoC6\pdl\middleware\ble/cy_ble_bas.c ****                                                           cy_en_ble_bas_char_index_t charIndex,
 263:Generated_Source\PSoC6\pdl\middleware\ble/cy_ble_bas.c ****                                                           uint8_t attrSize,
 264:Generated_Source\PSoC6\pdl\middleware\ble/cy_ble_bas.c ****                                                           uint8_t *attrValue)
 265:Generated_Source\PSoC6\pdl\middleware\ble/cy_ble_bas.c **** {
 266:Generated_Source\PSoC6\pdl\middleware\ble/cy_ble_bas.c ****     cy_en_ble_api_result_t apiResult = CY_BLE_SUCCESS;
 267:Generated_Source\PSoC6\pdl\middleware\ble/cy_ble_bas.c **** 
 268:Generated_Source\PSoC6\pdl\middleware\ble/cy_ble_bas.c ****     if((serviceIndex >= CY_BLE_BASS_SERVICE_COUNT) || (charIndex >= CY_BLE_BAS_CHAR_COUNT) ||
 269:Generated_Source\PSoC6\pdl\middleware\ble/cy_ble_bas.c ****        (attrSize != CY_BLE_BAS_BATTERY_LEVEL_LEN))
 270:Generated_Source\PSoC6\pdl\middleware\ble/cy_ble_bas.c ****     {
 271:Generated_Source\PSoC6\pdl\middleware\ble/cy_ble_bas.c ****         apiResult = CY_BLE_ERROR_INVALID_PARAMETER;
 272:Generated_Source\PSoC6\pdl\middleware\ble/cy_ble_bas.c ****     }
 273:Generated_Source\PSoC6\pdl\middleware\ble/cy_ble_bas.c ****     else
 274:Generated_Source\PSoC6\pdl\middleware\ble/cy_ble_bas.c ****     {
 275:Generated_Source\PSoC6\pdl\middleware\ble/cy_ble_bas.c ****         /* Read characteristic value from database */
 276:Generated_Source\PSoC6\pdl\middleware\ble/cy_ble_bas.c ****         cy_stc_ble_gatts_db_attr_val_info_t dbAttrValInfo =
 277:Generated_Source\PSoC6\pdl\middleware\ble/cy_ble_bas.c ****         {
 278:Generated_Source\PSoC6\pdl\middleware\ble/cy_ble_bas.c ****             .handleValuePair.attrHandle = cy_ble_basConfigPtr->bass[serviceIndex].batteryLevelHandl
 279:Generated_Source\PSoC6\pdl\middleware\ble/cy_ble_bas.c ****             .handleValuePair.value.len  = attrSize,
 280:Generated_Source\PSoC6\pdl\middleware\ble/cy_ble_bas.c ****             .handleValuePair.value.val  = attrValue,
 281:Generated_Source\PSoC6\pdl\middleware\ble/cy_ble_bas.c ****             .flags                      = CY_BLE_GATT_DB_LOCALLY_INITIATED
 282:Generated_Source\PSoC6\pdl\middleware\ble/cy_ble_bas.c ****         };
 283:Generated_Source\PSoC6\pdl\middleware\ble/cy_ble_bas.c **** 
 284:Generated_Source\PSoC6\pdl\middleware\ble/cy_ble_bas.c ****         if(Cy_BLE_GATTS_ReadAttributeValueCCCD(&dbAttrValInfo) != CY_BLE_GATT_ERR_NONE)
 285:Generated_Source\PSoC6\pdl\middleware\ble/cy_ble_bas.c ****         {
 286:Generated_Source\PSoC6\pdl\middleware\ble/cy_ble_bas.c ****             apiResult = CY_BLE_ERROR_INVALID_PARAMETER;
 287:Generated_Source\PSoC6\pdl\middleware\ble/cy_ble_bas.c ****         }
 288:Generated_Source\PSoC6\pdl\middleware\ble/cy_ble_bas.c ****     }
 289:Generated_Source\PSoC6\pdl\middleware\ble/cy_ble_bas.c **** 
 290:Generated_Source\PSoC6\pdl\middleware\ble/cy_ble_bas.c ****     return(apiResult);
 291:Generated_Source\PSoC6\pdl\middleware\ble/cy_ble_bas.c **** }
 292:Generated_Source\PSoC6\pdl\middleware\ble/cy_ble_bas.c **** 
 293:Generated_Source\PSoC6\pdl\middleware\ble/cy_ble_bas.c **** 
 294:Generated_Source\PSoC6\pdl\middleware\ble/cy_ble_bas.c **** /******************************************************************************
 295:Generated_Source\PSoC6\pdl\middleware\ble/cy_ble_bas.c **** * Function Name: Cy_BLE_BASS_GetCharacteristicDescriptor
 296:Generated_Source\PSoC6\pdl\middleware\ble/cy_ble_bas.c **** ***************************************************************************//**
 297:Generated_Source\PSoC6\pdl\middleware\ble/cy_ble_bas.c **** *
 298:Generated_Source\PSoC6\pdl\middleware\ble/cy_ble_bas.c **** *  Gets a characteristic descriptor of a specified characteristic of the
 299:Generated_Source\PSoC6\pdl\middleware\ble/cy_ble_bas.c **** *  Battery Service from the local GATT database.
 300:Generated_Source\PSoC6\pdl\middleware\ble/cy_ble_bas.c **** *
 301:Generated_Source\PSoC6\pdl\middleware\ble/cy_ble_bas.c **** *  \param connHandle:   The BLE peer device connection handle.
 302:Generated_Source\PSoC6\pdl\middleware\ble/cy_ble_bas.c **** *  \param serviceIndex: The index of the service instance. e.g. If two Battery
 303:Generated_Source\PSoC6\pdl\middleware\ble/cy_ble_bas.c **** *                       Services are supported in your design, then the first 
 304:Generated_Source\PSoC6\pdl\middleware\ble/cy_ble_bas.c **** *                       service will be identified by serviceIndex of 0 and the 
 305:Generated_Source\PSoC6\pdl\middleware\ble/cy_ble_bas.c **** *                       second service - by serviceIndex of 1.
 306:Generated_Source\PSoC6\pdl\middleware\ble/cy_ble_bas.c **** *  \param charIndex:    The index of a service characteristic of type
 307:Generated_Source\PSoC6\pdl\middleware\ble/cy_ble_bas.c **** *                       \ref cy_en_ble_bas_char_index_t.
 308:Generated_Source\PSoC6\pdl\middleware\ble/cy_ble_bas.c **** *  \param descrIndex:   The index of a service characteristic descriptor of type
 309:Generated_Source\PSoC6\pdl\middleware\ble/cy_ble_bas.c **** *                       \ref cy_en_ble_bas_descr_index_t.
 310:Generated_Source\PSoC6\pdl\middleware\ble/cy_ble_bas.c **** *  \param attrSize:     The size of the characteristic descriptor attribute.
 311:Generated_Source\PSoC6\pdl\middleware\ble/cy_ble_bas.c **** *  \param attrValue:    The pointer to the location where the characteristic 
 312:Generated_Source\PSoC6\pdl\middleware\ble/cy_ble_bas.c **** *                       descriptor value data should be stored.
 313:Generated_Source\PSoC6\pdl\middleware\ble/cy_ble_bas.c **** *
 314:Generated_Source\PSoC6\pdl\middleware\ble/cy_ble_bas.c **** *  \return
 315:Generated_Source\PSoC6\pdl\middleware\ble/cy_ble_bas.c **** *  A return value of type \ref cy_en_ble_api_result_t.
 316:Generated_Source\PSoC6\pdl\middleware\ble/cy_ble_bas.c **** *
ARM GAS  C:\Users\fiona\AppData\Local\Temp\cc5GuuYy.s 			page 7


 317:Generated_Source\PSoC6\pdl\middleware\ble/cy_ble_bas.c **** *   Error Codes                              | Description
 318:Generated_Source\PSoC6\pdl\middleware\ble/cy_ble_bas.c **** *   ------------                             | -----------
 319:Generated_Source\PSoC6\pdl\middleware\ble/cy_ble_bas.c **** *   CY_BLE_SUCCESS                           | The Characteristic Descriptor value was read success
 320:Generated_Source\PSoC6\pdl\middleware\ble/cy_ble_bas.c **** *   CY_BLE_ERROR_INVALID_PARAMETER           | Validation of the input parameter failed.
 321:Generated_Source\PSoC6\pdl\middleware\ble/cy_ble_bas.c **** *
 322:Generated_Source\PSoC6\pdl\middleware\ble/cy_ble_bas.c **** ******************************************************************************/
 323:Generated_Source\PSoC6\pdl\middleware\ble/cy_ble_bas.c **** cy_en_ble_api_result_t Cy_BLE_BASS_GetCharacteristicDescriptor(cy_stc_ble_conn_handle_t connHandle,
 324:Generated_Source\PSoC6\pdl\middleware\ble/cy_ble_bas.c ****                                                                uint8_t serviceIndex,
 325:Generated_Source\PSoC6\pdl\middleware\ble/cy_ble_bas.c ****                                                                cy_en_ble_bas_char_index_t charIndex
 326:Generated_Source\PSoC6\pdl\middleware\ble/cy_ble_bas.c ****                                                                cy_en_ble_bas_descr_index_t descrInd
 327:Generated_Source\PSoC6\pdl\middleware\ble/cy_ble_bas.c ****                                                                uint8_t attrSize,
 328:Generated_Source\PSoC6\pdl\middleware\ble/cy_ble_bas.c ****                                                                uint8_t *attrValue)
 329:Generated_Source\PSoC6\pdl\middleware\ble/cy_ble_bas.c **** {
 330:Generated_Source\PSoC6\pdl\middleware\ble/cy_ble_bas.c ****     cy_en_ble_api_result_t apiResult = CY_BLE_SUCCESS;
 331:Generated_Source\PSoC6\pdl\middleware\ble/cy_ble_bas.c **** 
 332:Generated_Source\PSoC6\pdl\middleware\ble/cy_ble_bas.c ****     if((serviceIndex >= CY_BLE_BASS_SERVICE_COUNT) || (charIndex >= CY_BLE_BAS_CHAR_COUNT) ||
 333:Generated_Source\PSoC6\pdl\middleware\ble/cy_ble_bas.c ****        (descrIndex >= CY_BLE_BAS_DESCR_COUNT))
 334:Generated_Source\PSoC6\pdl\middleware\ble/cy_ble_bas.c ****     {
 335:Generated_Source\PSoC6\pdl\middleware\ble/cy_ble_bas.c ****         apiResult = CY_BLE_ERROR_INVALID_PARAMETER;
 336:Generated_Source\PSoC6\pdl\middleware\ble/cy_ble_bas.c ****     }
 337:Generated_Source\PSoC6\pdl\middleware\ble/cy_ble_bas.c ****     else
 338:Generated_Source\PSoC6\pdl\middleware\ble/cy_ble_bas.c ****     {
 339:Generated_Source\PSoC6\pdl\middleware\ble/cy_ble_bas.c ****         cy_stc_ble_gatts_db_attr_val_info_t dbAttrValInfo =
 340:Generated_Source\PSoC6\pdl\middleware\ble/cy_ble_bas.c ****         {
 341:Generated_Source\PSoC6\pdl\middleware\ble/cy_ble_bas.c ****             .handleValuePair.value.len = attrSize,
 342:Generated_Source\PSoC6\pdl\middleware\ble/cy_ble_bas.c ****             .handleValuePair.value.val = attrValue,
 343:Generated_Source\PSoC6\pdl\middleware\ble/cy_ble_bas.c ****             .connHandle                = connHandle,
 344:Generated_Source\PSoC6\pdl\middleware\ble/cy_ble_bas.c ****             .flags                     = CY_BLE_GATT_DB_LOCALLY_INITIATED,
 345:Generated_Source\PSoC6\pdl\middleware\ble/cy_ble_bas.c ****         };
 346:Generated_Source\PSoC6\pdl\middleware\ble/cy_ble_bas.c **** 
 347:Generated_Source\PSoC6\pdl\middleware\ble/cy_ble_bas.c ****         /* Get data from the database */
 348:Generated_Source\PSoC6\pdl\middleware\ble/cy_ble_bas.c ****         if(descrIndex == CY_BLE_BAS_BATTERY_LEVEL_CCCD)
 349:Generated_Source\PSoC6\pdl\middleware\ble/cy_ble_bas.c ****         {
 350:Generated_Source\PSoC6\pdl\middleware\ble/cy_ble_bas.c ****             dbAttrValInfo.handleValuePair.attrHandle = cy_ble_basConfigPtr->bass[serviceIndex].cccd
 351:Generated_Source\PSoC6\pdl\middleware\ble/cy_ble_bas.c ****         }
 352:Generated_Source\PSoC6\pdl\middleware\ble/cy_ble_bas.c ****         else
 353:Generated_Source\PSoC6\pdl\middleware\ble/cy_ble_bas.c ****         {
 354:Generated_Source\PSoC6\pdl\middleware\ble/cy_ble_bas.c ****             dbAttrValInfo.handleValuePair.attrHandle = cy_ble_basConfigPtr->bass[serviceIndex].cpfd
 355:Generated_Source\PSoC6\pdl\middleware\ble/cy_ble_bas.c ****         }
 356:Generated_Source\PSoC6\pdl\middleware\ble/cy_ble_bas.c **** 
 357:Generated_Source\PSoC6\pdl\middleware\ble/cy_ble_bas.c ****         if(Cy_BLE_GATTS_ReadAttributeValueCCCD(&dbAttrValInfo) != CY_BLE_GATT_ERR_NONE)
 358:Generated_Source\PSoC6\pdl\middleware\ble/cy_ble_bas.c ****         {
 359:Generated_Source\PSoC6\pdl\middleware\ble/cy_ble_bas.c ****             apiResult = CY_BLE_ERROR_INVALID_PARAMETER;
 360:Generated_Source\PSoC6\pdl\middleware\ble/cy_ble_bas.c ****         }
 361:Generated_Source\PSoC6\pdl\middleware\ble/cy_ble_bas.c ****     }
 362:Generated_Source\PSoC6\pdl\middleware\ble/cy_ble_bas.c **** 
 363:Generated_Source\PSoC6\pdl\middleware\ble/cy_ble_bas.c ****     return(apiResult);
 364:Generated_Source\PSoC6\pdl\middleware\ble/cy_ble_bas.c **** }
 365:Generated_Source\PSoC6\pdl\middleware\ble/cy_ble_bas.c **** 
 366:Generated_Source\PSoC6\pdl\middleware\ble/cy_ble_bas.c **** 
 367:Generated_Source\PSoC6\pdl\middleware\ble/cy_ble_bas.c **** /******************************************************************************
 368:Generated_Source\PSoC6\pdl\middleware\ble/cy_ble_bas.c **** * Function Name: Cy_BLE_BASS_WriteEventHandler
 369:Generated_Source\PSoC6\pdl\middleware\ble/cy_ble_bas.c **** ***************************************************************************//**
 370:Generated_Source\PSoC6\pdl\middleware\ble/cy_ble_bas.c **** *
 371:Generated_Source\PSoC6\pdl\middleware\ble/cy_ble_bas.c **** *  Handles a Write Request Event for the Battery Service.
 372:Generated_Source\PSoC6\pdl\middleware\ble/cy_ble_bas.c **** *
 373:Generated_Source\PSoC6\pdl\middleware\ble/cy_ble_bas.c **** *  \param void *eventParam: The pointer to the data structure specified by the event.
ARM GAS  C:\Users\fiona\AppData\Local\Temp\cc5GuuYy.s 			page 8


 374:Generated_Source\PSoC6\pdl\middleware\ble/cy_ble_bas.c **** *
 375:Generated_Source\PSoC6\pdl\middleware\ble/cy_ble_bas.c **** *  \return
 376:Generated_Source\PSoC6\pdl\middleware\ble/cy_ble_bas.c **** *  A return value of type \ref cy_en_ble_gatt_err_code_t.
 377:Generated_Source\PSoC6\pdl\middleware\ble/cy_ble_bas.c **** *
 378:Generated_Source\PSoC6\pdl\middleware\ble/cy_ble_bas.c **** *   Error Codes                              | Description
 379:Generated_Source\PSoC6\pdl\middleware\ble/cy_ble_bas.c **** *   ------------                             | -----------
 380:Generated_Source\PSoC6\pdl\middleware\ble/cy_ble_bas.c **** *   CY_BLE_GATT_ERR_NONE                     | A Write request is handled successfully.
 381:Generated_Source\PSoC6\pdl\middleware\ble/cy_ble_bas.c **** *   CY_BLE_GATT_ERR_REQUEST_NOT_SUPPORTED    | Notification isn't supported.
 382:Generated_Source\PSoC6\pdl\middleware\ble/cy_ble_bas.c **** *
 383:Generated_Source\PSoC6\pdl\middleware\ble/cy_ble_bas.c **** ******************************************************************************/
 384:Generated_Source\PSoC6\pdl\middleware\ble/cy_ble_bas.c **** static cy_en_ble_gatt_err_code_t Cy_BLE_BASS_WriteEventHandler(const cy_stc_ble_gatts_write_cmd_req
 385:Generated_Source\PSoC6\pdl\middleware\ble/cy_ble_bas.c **** {
  27              		.loc 1 385 0
  28              		.cfi_startproc
  29              		@ args = 0, pretend = 0, frame = 32
  30              		@ frame_needed = 0, uses_anonymous_args = 0
  31              	.LVL0:
  32 0000 70B5     		push	{r4, r5, r6, lr}
  33              		.cfi_def_cfa_offset 16
  34              		.cfi_offset 4, -16
  35              		.cfi_offset 5, -12
  36              		.cfi_offset 6, -8
  37              		.cfi_offset 14, -4
  38 0002 88B0     		sub	sp, sp, #32
  39              		.cfi_def_cfa_offset 48
  40 0004 0400     		movs	r4, r0
  41              	.LVL1:
 386:Generated_Source\PSoC6\pdl\middleware\ble/cy_ble_bas.c ****     uint8_t locServIndex = 0u;
 387:Generated_Source\PSoC6\pdl\middleware\ble/cy_ble_bas.c ****     cy_en_ble_gatt_err_code_t gattErr = CY_BLE_GATT_ERR_NONE;
 388:Generated_Source\PSoC6\pdl\middleware\ble/cy_ble_bas.c ****     cy_stc_ble_bas_char_value_t locCharIndex = { .connHandle = eventParam->connHandle };
  42              		.loc 1 388 0
  43 0006 06AD     		add	r5, sp, #24
  44 0008 0822     		movs	r2, #8
  45 000a 0021     		movs	r1, #0
  46 000c 2800     		movs	r0, r5
  47              	.LVL2:
  48 000e FFF7FEFF 		bl	memset
  49              	.LVL3:
  50 0012 A389     		ldrh	r3, [r4, #12]
  51 0014 2B80     		strh	r3, [r5]
 389:Generated_Source\PSoC6\pdl\middleware\ble/cy_ble_bas.c **** 
 390:Generated_Source\PSoC6\pdl\middleware\ble/cy_ble_bas.c ****     if(Cy_BLE_BAS_ApplCallback != NULL)
  52              		.loc 1 390 0
  53 0016 244B     		ldr	r3, .L9
  54 0018 1B68     		ldr	r3, [r3]
  55 001a 002B     		cmp	r3, #0
  56 001c 3DD0     		beq	.L6
 391:Generated_Source\PSoC6\pdl\middleware\ble/cy_ble_bas.c ****     {
 392:Generated_Source\PSoC6\pdl\middleware\ble/cy_ble_bas.c ****         do
 393:Generated_Source\PSoC6\pdl\middleware\ble/cy_ble_bas.c ****         {
 394:Generated_Source\PSoC6\pdl\middleware\ble/cy_ble_bas.c ****             /* Client Characteristic Configuration descriptor Write request */
 395:Generated_Source\PSoC6\pdl\middleware\ble/cy_ble_bas.c ****             if(eventParam->handleValPair.attrHandle == cy_ble_basConfigPtr->bass[locServIndex].cccd
  57              		.loc 1 395 0
  58 001e 2189     		ldrh	r1, [r4, #8]
  59 0020 214B     		ldr	r3, .L9
  60 0022 5B68     		ldr	r3, [r3, #4]
  61 0024 1A68     		ldr	r2, [r3]
ARM GAS  C:\Users\fiona\AppData\Local\Temp\cc5GuuYy.s 			page 9


  62 0026 D388     		ldrh	r3, [r2, #6]
  63 0028 9942     		cmp	r1, r3
  64 002a 38D1     		bne	.L7
 396:Generated_Source\PSoC6\pdl\middleware\ble/cy_ble_bas.c ****             {
 397:Generated_Source\PSoC6\pdl\middleware\ble/cy_ble_bas.c ****                 /* Verify that the optional notification property is enabled for the Battery Level 
 398:Generated_Source\PSoC6\pdl\middleware\ble/cy_ble_bas.c ****                 if(CY_BLE_IS_NOTIFICATION_SUPPORTED(cy_ble_basConfigPtr->bass[locServIndex].battery
  65              		.loc 1 398 0
  66 002c 1F4B     		ldr	r3, .L9+4
  67 002e 1B68     		ldr	r3, [r3]
  68 0030 196A     		ldr	r1, [r3, #32]
  69 0032 5288     		ldrh	r2, [r2, #2]
  70 0034 9300     		lsls	r3, r2, #2
  71 0036 9A18     		adds	r2, r3, r2
  72 0038 9300     		lsls	r3, r2, #2
  73 003a 143B     		subs	r3, r3, #20
  74 003c CB18     		adds	r3, r1, r3
  75 003e 5B68     		ldr	r3, [r3, #4]
  76 0040 DB02     		lsls	r3, r3, #11
  77 0042 23D5     		bpl	.L8
  78              	.LBB10:
 399:Generated_Source\PSoC6\pdl\middleware\ble/cy_ble_bas.c ****                 {
 400:Generated_Source\PSoC6\pdl\middleware\ble/cy_ble_bas.c ****                     cy_stc_ble_gatts_db_attr_val_info_t dbAttrValInfo =
  79              		.loc 1 400 0
  80 0044 01A8     		add	r0, sp, #4
  81 0046 0300     		movs	r3, r0
  82 0048 2200     		movs	r2, r4
  83 004a 62CA     		ldmia	r2!, {r1, r5, r6}
  84 004c 62C3     		stmia	r3!, {r1, r5, r6}
  85 004e 0023     		movs	r3, #0
  86 0050 8381     		strh	r3, [r0, #12]
  87 0052 A389     		ldrh	r3, [r4, #12]
  88 0054 C381     		strh	r3, [r0, #14]
  89 0056 4023     		movs	r3, #64
  90 0058 0374     		strb	r3, [r0, #16]
 401:Generated_Source\PSoC6\pdl\middleware\ble/cy_ble_bas.c ****                     {
 402:Generated_Source\PSoC6\pdl\middleware\ble/cy_ble_bas.c ****                         .handleValuePair = eventParam->handleValPair,
 403:Generated_Source\PSoC6\pdl\middleware\ble/cy_ble_bas.c ****                         .connHandle      = eventParam->connHandle,
 404:Generated_Source\PSoC6\pdl\middleware\ble/cy_ble_bas.c ****                         .offset          = 0u,
 405:Generated_Source\PSoC6\pdl\middleware\ble/cy_ble_bas.c ****                         .flags           = CY_BLE_GATT_DB_PEER_INITIATED
 406:Generated_Source\PSoC6\pdl\middleware\ble/cy_ble_bas.c ****                     };
 407:Generated_Source\PSoC6\pdl\middleware\ble/cy_ble_bas.c **** 
 408:Generated_Source\PSoC6\pdl\middleware\ble/cy_ble_bas.c ****                     gattErr = Cy_BLE_GATTS_WriteAttributeValueCCCD(&dbAttrValInfo);
  91              		.loc 1 408 0
  92 005a FFF7FEFF 		bl	Cy_BLE_GATTS_WriteAttributeValueCCCD
  93              	.LVL4:
  94 005e 051E     		subs	r5, r0, #0
  95              	.LVL5:
 409:Generated_Source\PSoC6\pdl\middleware\ble/cy_ble_bas.c ****                     if(gattErr == CY_BLE_GATT_ERR_NONE)
  96              		.loc 1 409 0
  97 0060 15D1     		bne	.L3
 410:Generated_Source\PSoC6\pdl\middleware\ble/cy_ble_bas.c ****                     {
 411:Generated_Source\PSoC6\pdl\middleware\ble/cy_ble_bas.c ****                         locCharIndex.serviceIndex = locServIndex;
  98              		.loc 1 411 0
  99 0062 06AB     		add	r3, sp, #24
 100 0064 0022     		movs	r2, #0
 101 0066 9A70     		strb	r2, [r3, #2]
 412:Generated_Source\PSoC6\pdl\middleware\ble/cy_ble_bas.c ****                         locCharIndex.charIndex = CY_BLE_BAS_BATTERY_LEVEL;
ARM GAS  C:\Users\fiona\AppData\Local\Temp\cc5GuuYy.s 			page 10


 102              		.loc 1 412 0
 103 0068 DA70     		strb	r2, [r3, #3]
 413:Generated_Source\PSoC6\pdl\middleware\ble/cy_ble_bas.c ****                         locCharIndex.value = NULL;
 104              		.loc 1 413 0
 105 006a 0792     		str	r2, [sp, #28]
 414:Generated_Source\PSoC6\pdl\middleware\ble/cy_ble_bas.c **** 
 415:Generated_Source\PSoC6\pdl\middleware\ble/cy_ble_bas.c ****                         if(CY_BLE_IS_NOTIFICATION_ENABLED_IN_PTR(eventParam->handleValPair.value.va
 106              		.loc 1 415 0
 107 006c 2368     		ldr	r3, [r4]
 108              	.LVL6:
 109              	.LBB11:
 110              	.LBB12:
 111              		.file 2 "Generated_Source\\PSoC6\\pdl\\middleware\\ble\\cy_ble_event_handler.h"
   1:Generated_Source\PSoC6\pdl\middleware\ble/cy_ble_event_handler.h **** /***************************************************************************//**
   2:Generated_Source\PSoC6\pdl\middleware\ble/cy_ble_event_handler.h **** * \file cy_ble_event_handler.h
   3:Generated_Source\PSoC6\pdl\middleware\ble/cy_ble_event_handler.h **** * \version 2.20
   4:Generated_Source\PSoC6\pdl\middleware\ble/cy_ble_event_handler.h **** *
   5:Generated_Source\PSoC6\pdl\middleware\ble/cy_ble_event_handler.h **** * \brief
   6:Generated_Source\PSoC6\pdl\middleware\ble/cy_ble_event_handler.h **** *  Contains the prototypes and constants used in the Event Handler State Machine
   7:Generated_Source\PSoC6\pdl\middleware\ble/cy_ble_event_handler.h **** *  of the BLE Middleware.
   8:Generated_Source\PSoC6\pdl\middleware\ble/cy_ble_event_handler.h **** *
   9:Generated_Source\PSoC6\pdl\middleware\ble/cy_ble_event_handler.h **** ********************************************************************************
  10:Generated_Source\PSoC6\pdl\middleware\ble/cy_ble_event_handler.h **** * \copyright
  11:Generated_Source\PSoC6\pdl\middleware\ble/cy_ble_event_handler.h **** * Copyright 2017-2018, Cypress Semiconductor Corporation.  All rights reserved.
  12:Generated_Source\PSoC6\pdl\middleware\ble/cy_ble_event_handler.h **** * You may use this file only in accordance with the license, terms, conditions,
  13:Generated_Source\PSoC6\pdl\middleware\ble/cy_ble_event_handler.h **** * disclaimers, and limitations in the end user license agreement accompanying
  14:Generated_Source\PSoC6\pdl\middleware\ble/cy_ble_event_handler.h **** * the software package with which this file was provided.
  15:Generated_Source\PSoC6\pdl\middleware\ble/cy_ble_event_handler.h **** *******************************************************************************/
  16:Generated_Source\PSoC6\pdl\middleware\ble/cy_ble_event_handler.h **** 
  17:Generated_Source\PSoC6\pdl\middleware\ble/cy_ble_event_handler.h **** 
  18:Generated_Source\PSoC6\pdl\middleware\ble/cy_ble_event_handler.h **** #ifndef CY_BLE_EVENT_HANDLER_H
  19:Generated_Source\PSoC6\pdl\middleware\ble/cy_ble_event_handler.h **** #define CY_BLE_EVENT_HANDLER_H
  20:Generated_Source\PSoC6\pdl\middleware\ble/cy_ble_event_handler.h **** 
  21:Generated_Source\PSoC6\pdl\middleware\ble/cy_ble_event_handler.h **** #include "cy_ble.h"
  22:Generated_Source\PSoC6\pdl\middleware\ble/cy_ble_event_handler.h **** #include "cy_ble_hal_pvt.h"
  23:Generated_Source\PSoC6\pdl\middleware\ble/cy_ble_event_handler.h **** #include "flash/cy_flash.h"
  24:Generated_Source\PSoC6\pdl\middleware\ble/cy_ble_event_handler.h **** 
  25:Generated_Source\PSoC6\pdl\middleware\ble/cy_ble_event_handler.h **** #if (CY_BLE_MODE_PROFILE)
  26:Generated_Source\PSoC6\pdl\middleware\ble/cy_ble_event_handler.h **** 
  27:Generated_Source\PSoC6\pdl\middleware\ble/cy_ble_event_handler.h **** /* C binding of definitions if building with C++ compiler */
  28:Generated_Source\PSoC6\pdl\middleware\ble/cy_ble_event_handler.h **** #ifdef __cplusplus
  29:Generated_Source\PSoC6\pdl\middleware\ble/cy_ble_event_handler.h **** extern "C" {
  30:Generated_Source\PSoC6\pdl\middleware\ble/cy_ble_event_handler.h **** #endif /* __cplusplus */
  31:Generated_Source\PSoC6\pdl\middleware\ble/cy_ble_event_handler.h **** 
  32:Generated_Source\PSoC6\pdl\middleware\ble/cy_ble_event_handler.h **** /***************************************
  33:Generated_Source\PSoC6\pdl\middleware\ble/cy_ble_event_handler.h **** * Service specific includes
  34:Generated_Source\PSoC6\pdl\middleware\ble/cy_ble_event_handler.h **** ***************************************/
  35:Generated_Source\PSoC6\pdl\middleware\ble/cy_ble_event_handler.h **** 
  36:Generated_Source\PSoC6\pdl\middleware\ble/cy_ble_event_handler.h **** #ifdef CY_BLE_ANCS
  37:Generated_Source\PSoC6\pdl\middleware\ble/cy_ble_event_handler.h ****     #include "cy_ble_ancs.h"
  38:Generated_Source\PSoC6\pdl\middleware\ble/cy_ble_event_handler.h **** #endif /* CY_BLE_ANCS */
  39:Generated_Source\PSoC6\pdl\middleware\ble/cy_ble_event_handler.h **** #ifdef CY_BLE_ANS
  40:Generated_Source\PSoC6\pdl\middleware\ble/cy_ble_event_handler.h ****     #include "cy_ble_ans.h"
  41:Generated_Source\PSoC6\pdl\middleware\ble/cy_ble_event_handler.h **** #endif /* CY_BLE_ANS */
  42:Generated_Source\PSoC6\pdl\middleware\ble/cy_ble_event_handler.h **** #ifdef CY_BLE_AIOS
  43:Generated_Source\PSoC6\pdl\middleware\ble/cy_ble_event_handler.h ****     #include "cy_ble_aios.h"
  44:Generated_Source\PSoC6\pdl\middleware\ble/cy_ble_event_handler.h **** #endif /* CY_BLE_AIOS */
ARM GAS  C:\Users\fiona\AppData\Local\Temp\cc5GuuYy.s 			page 11


  45:Generated_Source\PSoC6\pdl\middleware\ble/cy_ble_event_handler.h **** #ifdef CY_BLE_BAS
  46:Generated_Source\PSoC6\pdl\middleware\ble/cy_ble_event_handler.h ****     #include "cy_ble_bas.h"
  47:Generated_Source\PSoC6\pdl\middleware\ble/cy_ble_event_handler.h **** #endif /* CY_BLE_BAS */
  48:Generated_Source\PSoC6\pdl\middleware\ble/cy_ble_event_handler.h **** #ifdef CY_BLE_BLS
  49:Generated_Source\PSoC6\pdl\middleware\ble/cy_ble_event_handler.h ****     #include "cy_ble_bls.h"
  50:Generated_Source\PSoC6\pdl\middleware\ble/cy_ble_event_handler.h **** #endif /* CY_BLE_BLS */
  51:Generated_Source\PSoC6\pdl\middleware\ble/cy_ble_event_handler.h **** #ifdef CY_BLE_BCS
  52:Generated_Source\PSoC6\pdl\middleware\ble/cy_ble_event_handler.h ****     #include "cy_ble_bcs.h"
  53:Generated_Source\PSoC6\pdl\middleware\ble/cy_ble_event_handler.h **** #endif /* CY_BLE_BCS */
  54:Generated_Source\PSoC6\pdl\middleware\ble/cy_ble_event_handler.h **** #ifdef CY_BLE_BMS
  55:Generated_Source\PSoC6\pdl\middleware\ble/cy_ble_event_handler.h ****     #include "cy_ble_bms.h"
  56:Generated_Source\PSoC6\pdl\middleware\ble/cy_ble_event_handler.h **** #endif /* CY_BLE_BMS */
  57:Generated_Source\PSoC6\pdl\middleware\ble/cy_ble_event_handler.h **** #ifdef CY_BLE_BTS
  58:Generated_Source\PSoC6\pdl\middleware\ble/cy_ble_event_handler.h ****     #include "cy_ble_bts.h"
  59:Generated_Source\PSoC6\pdl\middleware\ble/cy_ble_event_handler.h **** #endif /* CY_BLE_BTS */
  60:Generated_Source\PSoC6\pdl\middleware\ble/cy_ble_event_handler.h **** #ifdef CY_BLE_CGMS
  61:Generated_Source\PSoC6\pdl\middleware\ble/cy_ble_event_handler.h ****     #include "cy_ble_cgms.h"
  62:Generated_Source\PSoC6\pdl\middleware\ble/cy_ble_event_handler.h **** #endif /* CY_BLE_CGMS */
  63:Generated_Source\PSoC6\pdl\middleware\ble/cy_ble_event_handler.h **** #ifdef CY_BLE_CPS
  64:Generated_Source\PSoC6\pdl\middleware\ble/cy_ble_event_handler.h ****     #include "cy_ble_cps.h"
  65:Generated_Source\PSoC6\pdl\middleware\ble/cy_ble_event_handler.h **** #endif /* CY_BLE_CPS */
  66:Generated_Source\PSoC6\pdl\middleware\ble/cy_ble_event_handler.h **** #ifdef CY_BLE_CSCS
  67:Generated_Source\PSoC6\pdl\middleware\ble/cy_ble_event_handler.h ****     #include "cy_ble_cscs.h"
  68:Generated_Source\PSoC6\pdl\middleware\ble/cy_ble_event_handler.h **** #endif /* CY_BLE_CSCS */
  69:Generated_Source\PSoC6\pdl\middleware\ble/cy_ble_event_handler.h **** #ifdef CY_BLE_CTS
  70:Generated_Source\PSoC6\pdl\middleware\ble/cy_ble_event_handler.h ****     #include "cy_ble_cts.h"
  71:Generated_Source\PSoC6\pdl\middleware\ble/cy_ble_event_handler.h **** #endif /* CY_BLE_CTS */
  72:Generated_Source\PSoC6\pdl\middleware\ble/cy_ble_event_handler.h **** #ifdef CY_BLE_CUSTOM
  73:Generated_Source\PSoC6\pdl\middleware\ble/cy_ble_event_handler.h ****     #include "cy_ble_custom.h"
  74:Generated_Source\PSoC6\pdl\middleware\ble/cy_ble_event_handler.h **** #endif /* CY_BLE_CUSTOM */
  75:Generated_Source\PSoC6\pdl\middleware\ble/cy_ble_event_handler.h **** #ifdef CY_BLE_DIS
  76:Generated_Source\PSoC6\pdl\middleware\ble/cy_ble_event_handler.h ****     #include "cy_ble_dis.h"
  77:Generated_Source\PSoC6\pdl\middleware\ble/cy_ble_event_handler.h **** #endif /* CY_BLE_DIS */
  78:Generated_Source\PSoC6\pdl\middleware\ble/cy_ble_event_handler.h **** #ifdef CY_BLE_ESS
  79:Generated_Source\PSoC6\pdl\middleware\ble/cy_ble_event_handler.h ****     #include "cy_ble_ess.h"
  80:Generated_Source\PSoC6\pdl\middleware\ble/cy_ble_event_handler.h **** #endif /* CY_BLE_ESS */
  81:Generated_Source\PSoC6\pdl\middleware\ble/cy_ble_event_handler.h **** #ifdef CY_BLE_GLS
  82:Generated_Source\PSoC6\pdl\middleware\ble/cy_ble_event_handler.h ****     #include "cy_ble_gls.h"
  83:Generated_Source\PSoC6\pdl\middleware\ble/cy_ble_event_handler.h **** #endif /* CY_BLE_GLS */
  84:Generated_Source\PSoC6\pdl\middleware\ble/cy_ble_event_handler.h **** #ifdef CY_BLE_HIDS
  85:Generated_Source\PSoC6\pdl\middleware\ble/cy_ble_event_handler.h ****     #include "cy_ble_hids.h"
  86:Generated_Source\PSoC6\pdl\middleware\ble/cy_ble_event_handler.h **** #endif /* CY_BLE_HIDS */
  87:Generated_Source\PSoC6\pdl\middleware\ble/cy_ble_event_handler.h **** #ifdef CY_BLE_HPS
  88:Generated_Source\PSoC6\pdl\middleware\ble/cy_ble_event_handler.h ****     #include "cy_ble_hps.h"
  89:Generated_Source\PSoC6\pdl\middleware\ble/cy_ble_event_handler.h **** #endif /* CY_BLE_HPS */
  90:Generated_Source\PSoC6\pdl\middleware\ble/cy_ble_event_handler.h **** #ifdef CY_BLE_HRS
  91:Generated_Source\PSoC6\pdl\middleware\ble/cy_ble_event_handler.h ****     #include "cy_ble_hrs.h"
  92:Generated_Source\PSoC6\pdl\middleware\ble/cy_ble_event_handler.h **** #endif /* CY_BLE_HRS */
  93:Generated_Source\PSoC6\pdl\middleware\ble/cy_ble_event_handler.h **** #ifdef CY_BLE_HTS
  94:Generated_Source\PSoC6\pdl\middleware\ble/cy_ble_event_handler.h ****     #include "cy_ble_hts.h"
  95:Generated_Source\PSoC6\pdl\middleware\ble/cy_ble_event_handler.h **** #endif /* CY_BLE_HTS */
  96:Generated_Source\PSoC6\pdl\middleware\ble/cy_ble_event_handler.h **** #ifdef CY_BLE_IAS
  97:Generated_Source\PSoC6\pdl\middleware\ble/cy_ble_event_handler.h ****     #include "cy_ble_ias.h"
  98:Generated_Source\PSoC6\pdl\middleware\ble/cy_ble_event_handler.h **** #endif /* CY_BLE_IAS */
  99:Generated_Source\PSoC6\pdl\middleware\ble/cy_ble_event_handler.h **** #ifdef CY_BLE_IPS
 100:Generated_Source\PSoC6\pdl\middleware\ble/cy_ble_event_handler.h ****     #include "cy_ble_ips.h"
 101:Generated_Source\PSoC6\pdl\middleware\ble/cy_ble_event_handler.h **** #endif /* CY_BLE_IPS */
ARM GAS  C:\Users\fiona\AppData\Local\Temp\cc5GuuYy.s 			page 12


 102:Generated_Source\PSoC6\pdl\middleware\ble/cy_ble_event_handler.h **** #ifdef CY_BLE_LLS
 103:Generated_Source\PSoC6\pdl\middleware\ble/cy_ble_event_handler.h ****     #include "cy_ble_lls.h"
 104:Generated_Source\PSoC6\pdl\middleware\ble/cy_ble_event_handler.h **** #endif /* CY_BLE_LLS */
 105:Generated_Source\PSoC6\pdl\middleware\ble/cy_ble_event_handler.h **** #ifdef CY_BLE_LNS
 106:Generated_Source\PSoC6\pdl\middleware\ble/cy_ble_event_handler.h ****     #include "cy_ble_lns.h"
 107:Generated_Source\PSoC6\pdl\middleware\ble/cy_ble_event_handler.h **** #endif /* CY_BLE_LNS */
 108:Generated_Source\PSoC6\pdl\middleware\ble/cy_ble_event_handler.h **** #ifdef CY_BLE_NDCS
 109:Generated_Source\PSoC6\pdl\middleware\ble/cy_ble_event_handler.h ****     #include "cy_ble_ndcs.h"
 110:Generated_Source\PSoC6\pdl\middleware\ble/cy_ble_event_handler.h **** #endif /* CY_BLE_NDCS */
 111:Generated_Source\PSoC6\pdl\middleware\ble/cy_ble_event_handler.h **** #ifdef CY_BLE_PASS
 112:Generated_Source\PSoC6\pdl\middleware\ble/cy_ble_event_handler.h ****     #include "cy_ble_pass.h"
 113:Generated_Source\PSoC6\pdl\middleware\ble/cy_ble_event_handler.h **** #endif /* CY_BLE_PASS */
 114:Generated_Source\PSoC6\pdl\middleware\ble/cy_ble_event_handler.h **** #ifdef CY_BLE_PLXS
 115:Generated_Source\PSoC6\pdl\middleware\ble/cy_ble_event_handler.h ****     #include "cy_ble_plxs.h"
 116:Generated_Source\PSoC6\pdl\middleware\ble/cy_ble_event_handler.h **** #endif /* CY_BLE_PLXS */
 117:Generated_Source\PSoC6\pdl\middleware\ble/cy_ble_event_handler.h **** #ifdef CY_BLE_RSCS
 118:Generated_Source\PSoC6\pdl\middleware\ble/cy_ble_event_handler.h ****     #include "cy_ble_rscs.h"
 119:Generated_Source\PSoC6\pdl\middleware\ble/cy_ble_event_handler.h **** #endif /* CY_BLE_RSCS */
 120:Generated_Source\PSoC6\pdl\middleware\ble/cy_ble_event_handler.h **** #ifdef CY_BLE_RTUS
 121:Generated_Source\PSoC6\pdl\middleware\ble/cy_ble_event_handler.h ****     #include "cy_ble_rtus.h"
 122:Generated_Source\PSoC6\pdl\middleware\ble/cy_ble_event_handler.h **** #endif /* CY_BLE_RTUS */
 123:Generated_Source\PSoC6\pdl\middleware\ble/cy_ble_event_handler.h **** #ifdef CY_BLE_SCPS
 124:Generated_Source\PSoC6\pdl\middleware\ble/cy_ble_event_handler.h ****     #include "cy_ble_scps.h"
 125:Generated_Source\PSoC6\pdl\middleware\ble/cy_ble_event_handler.h **** #endif /* CY_BLE_SCPS */
 126:Generated_Source\PSoC6\pdl\middleware\ble/cy_ble_event_handler.h **** #ifdef CY_BLE_TPS
 127:Generated_Source\PSoC6\pdl\middleware\ble/cy_ble_event_handler.h ****     #include "cy_ble_tps.h"
 128:Generated_Source\PSoC6\pdl\middleware\ble/cy_ble_event_handler.h **** #endif /* CY_BLE_TPS */
 129:Generated_Source\PSoC6\pdl\middleware\ble/cy_ble_event_handler.h **** #ifdef CY_BLE_UDS
 130:Generated_Source\PSoC6\pdl\middleware\ble/cy_ble_event_handler.h ****     #include "cy_ble_uds.h"
 131:Generated_Source\PSoC6\pdl\middleware\ble/cy_ble_event_handler.h **** #endif /* CY_BLE_UDS */
 132:Generated_Source\PSoC6\pdl\middleware\ble/cy_ble_event_handler.h **** #ifdef CY_BLE_WPTS
 133:Generated_Source\PSoC6\pdl\middleware\ble/cy_ble_event_handler.h ****     #include "cy_ble_wpts.h"
 134:Generated_Source\PSoC6\pdl\middleware\ble/cy_ble_event_handler.h **** #endif /* CY_BLE_WPTS */
 135:Generated_Source\PSoC6\pdl\middleware\ble/cy_ble_event_handler.h **** #ifdef CY_BLE_WSS
 136:Generated_Source\PSoC6\pdl\middleware\ble/cy_ble_event_handler.h ****     #include "cy_ble_wss.h"
 137:Generated_Source\PSoC6\pdl\middleware\ble/cy_ble_event_handler.h **** #endif /* CY_BLE_WSS */
 138:Generated_Source\PSoC6\pdl\middleware\ble/cy_ble_event_handler.h **** 
 139:Generated_Source\PSoC6\pdl\middleware\ble/cy_ble_event_handler.h **** 
 140:Generated_Source\PSoC6\pdl\middleware\ble/cy_ble_event_handler.h **** 
 141:Generated_Source\PSoC6\pdl\middleware\ble/cy_ble_event_handler.h **** /***************************************
 142:Generated_Source\PSoC6\pdl\middleware\ble/cy_ble_event_handler.h **** * Definitions
 143:Generated_Source\PSoC6\pdl\middleware\ble/cy_ble_event_handler.h **** ***************************************/
 144:Generated_Source\PSoC6\pdl\middleware\ble/cy_ble_event_handler.h **** /* cy_ble_eventHandlerFlag defines */
 145:Generated_Source\PSoC6\pdl\middleware\ble/cy_ble_event_handler.h **** #define CY_BLE_CALLBACK                   (0x01u)
 146:Generated_Source\PSoC6\pdl\middleware\ble/cy_ble_event_handler.h **** #define CY_BLE_AUTO_DISCOVERY             (0x02u)
 147:Generated_Source\PSoC6\pdl\middleware\ble/cy_ble_event_handler.h **** #define CY_BLE_START_FLAG                 (0x04u)
 148:Generated_Source\PSoC6\pdl\middleware\ble/cy_ble_event_handler.h **** #define CY_BLE_STOP_FLAG                  (0x08u)
 149:Generated_Source\PSoC6\pdl\middleware\ble/cy_ble_event_handler.h **** #define CY_BLE_ENABLE_ALL_EVENTS          (0x10u)
 150:Generated_Source\PSoC6\pdl\middleware\ble/cy_ble_event_handler.h **** #define CY_BLE_DISABLE_AUTOMATIC_AUTH     (0x20u)
 151:Generated_Source\PSoC6\pdl\middleware\ble/cy_ble_event_handler.h **** 
 152:Generated_Source\PSoC6\pdl\middleware\ble/cy_ble_event_handler.h **** #if (CY_BLE_GATT_ROLE_CLIENT)
 153:Generated_Source\PSoC6\pdl\middleware\ble/cy_ble_event_handler.h **** #define CY_BLE_DISC_SRVC_INFO_LEN         (4u + CY_BLE_GATT_16_BIT_UUID_SIZE)
 154:Generated_Source\PSoC6\pdl\middleware\ble/cy_ble_event_handler.h **** #define CY_BLE_DISC_SRVC_INFO_128_LEN     (4u + CY_BLE_GATT_128_BIT_UUID_SIZE)
 155:Generated_Source\PSoC6\pdl\middleware\ble/cy_ble_event_handler.h **** #define CY_BLE_DISC_INCL_INFO_LEN         (6u + CY_BLE_GATT_16_BIT_UUID_SIZE)
 156:Generated_Source\PSoC6\pdl\middleware\ble/cy_ble_event_handler.h **** #define CY_BLE_DISC_INCL_INFO_128_LEN     (6u)
 157:Generated_Source\PSoC6\pdl\middleware\ble/cy_ble_event_handler.h **** #define CY_BLE_DISC_CHAR_INFO_LEN         (5u + CY_BLE_GATT_16_BIT_UUID_SIZE)
 158:Generated_Source\PSoC6\pdl\middleware\ble/cy_ble_event_handler.h **** #define CY_BLE_DISC_CHAR_INFO_128_LEN     (5u + CY_BLE_GATT_128_BIT_UUID_SIZE)
ARM GAS  C:\Users\fiona\AppData\Local\Temp\cc5GuuYy.s 			page 13


 159:Generated_Source\PSoC6\pdl\middleware\ble/cy_ble_event_handler.h **** #define CY_BLE_DISC_DESCR_INFO_LEN        (2u + CY_BLE_GATT_16_BIT_UUID_SIZE)
 160:Generated_Source\PSoC6\pdl\middleware\ble/cy_ble_event_handler.h **** #define CY_BLE_DISC_DESCR_INFO_128_LEN    (2u + CY_BLE_GATT_128_BIT_UUID_SIZE)
 161:Generated_Source\PSoC6\pdl\middleware\ble/cy_ble_event_handler.h **** #endif /* CY_BLE_GATT_ROLE_CLIENT */
 162:Generated_Source\PSoC6\pdl\middleware\ble/cy_ble_event_handler.h **** 
 163:Generated_Source\PSoC6\pdl\middleware\ble/cy_ble_event_handler.h **** #define CY_BLE_LE_MASK_LENGTH             (0x8u)
 164:Generated_Source\PSoC6\pdl\middleware\ble/cy_ble_event_handler.h **** #define CY_BLE_LE_MASK_DEFAULT            (0x003Fu)
 165:Generated_Source\PSoC6\pdl\middleware\ble/cy_ble_event_handler.h **** #define CY_BLE_LE_MASK_DLE                ((CY_BLE_DLE_FEATURE_ENABLED) ?          (0x0040u) : (0u)
 166:Generated_Source\PSoC6\pdl\middleware\ble/cy_ble_event_handler.h **** #define CY_BLE_LE_MASK_SECURE_CONN        ((CY_BLE_SECURE_CONN_FEATURE_ENABLED) ?  (0x0180u) : (0u)
 167:Generated_Source\PSoC6\pdl\middleware\ble/cy_ble_event_handler.h **** #define CY_BLE_LE_MASK_LL_PRIVACY         ((CY_BLE_LL_PRIVACY_FEATURE_ENABLED) ?   (0x0600u) : (0u)
 168:Generated_Source\PSoC6\pdl\middleware\ble/cy_ble_event_handler.h **** #define CY_BLE_LE_MASK_PHY                ((CY_BLE_PHY_UPDATE_FEATURE_ENABLED) ?   (0x0800u) : (0u)
 169:Generated_Source\PSoC6\pdl\middleware\ble/cy_ble_event_handler.h **** #define CY_BLE_LE_MASK                    (CY_BLE_LE_MASK_DEFAULT | CY_BLE_LE_MASK_DLE | CY_BLE_LE_
 170:Generated_Source\PSoC6\pdl\middleware\ble/cy_ble_event_handler.h ****                                            | CY_BLE_LE_MASK_SECURE_CONN | CY_BLE_LE_MASK_PHY)
 171:Generated_Source\PSoC6\pdl\middleware\ble/cy_ble_event_handler.h **** /* Internal command run status defines */
 172:Generated_Source\PSoC6\pdl\middleware\ble/cy_ble_event_handler.h **** #define CY_BLE_STATUS_SET_TX_PWR_LVL      (uint32_t)(1ul << 0u)
 173:Generated_Source\PSoC6\pdl\middleware\ble/cy_ble_event_handler.h **** 
 174:Generated_Source\PSoC6\pdl\middleware\ble/cy_ble_event_handler.h **** /***************************************
 175:Generated_Source\PSoC6\pdl\middleware\ble/cy_ble_event_handler.h **** * Type Definitions
 176:Generated_Source\PSoC6\pdl\middleware\ble/cy_ble_event_handler.h **** ***************************************/
 177:Generated_Source\PSoC6\pdl\middleware\ble/cy_ble_event_handler.h **** 
 178:Generated_Source\PSoC6\pdl\middleware\ble/cy_ble_event_handler.h **** /**
 179:Generated_Source\PSoC6\pdl\middleware\ble/cy_ble_event_handler.h ****  * \addtogroup group_ble_service_api_events
 180:Generated_Source\PSoC6\pdl\middleware\ble/cy_ble_event_handler.h ****  * @{
 181:Generated_Source\PSoC6\pdl\middleware\ble/cy_ble_event_handler.h ****  */
 182:Generated_Source\PSoC6\pdl\middleware\ble/cy_ble_event_handler.h **** 
 183:Generated_Source\PSoC6\pdl\middleware\ble/cy_ble_event_handler.h **** 
 184:Generated_Source\PSoC6\pdl\middleware\ble/cy_ble_event_handler.h **** /** Service specific events  */
 185:Generated_Source\PSoC6\pdl\middleware\ble/cy_ble_event_handler.h **** typedef enum
 186:Generated_Source\PSoC6\pdl\middleware\ble/cy_ble_event_handler.h **** {
 187:Generated_Source\PSoC6\pdl\middleware\ble/cy_ble_event_handler.h ****     /****************************************
 188:Generated_Source\PSoC6\pdl\middleware\ble/cy_ble_event_handler.h ****      * Security Events
 189:Generated_Source\PSoC6\pdl\middleware\ble/cy_ble_event_handler.h ****      ***************************************/
 190:Generated_Source\PSoC6\pdl\middleware\ble/cy_ble_event_handler.h ****     /* \cond IGNORE */
 191:Generated_Source\PSoC6\pdl\middleware\ble/cy_ble_event_handler.h **** 
 192:Generated_Source\PSoC6\pdl\middleware\ble/cy_ble_event_handler.h ****     CY_BLE_AUTHENTICATION_REQUEST_REPLY = CY_BLE_EVT_MAX + 1, /* 0x10000 */
 193:Generated_Source\PSoC6\pdl\middleware\ble/cy_ble_event_handler.h ****     CY_BLE_PASSKEY_ENTRY_REQUEST_REPLY,
 194:Generated_Source\PSoC6\pdl\middleware\ble/cy_ble_event_handler.h ****     CY_BLE_LONG_TERM_KEY_REQUEST_REPLY,
 195:Generated_Source\PSoC6\pdl\middleware\ble/cy_ble_event_handler.h ****     CY_BLE_KEY_EXCHANGE_INFO_REQUEST_REPLY,
 196:Generated_Source\PSoC6\pdl\middleware\ble/cy_ble_event_handler.h ****     /* \endcond */
 197:Generated_Source\PSoC6\pdl\middleware\ble/cy_ble_event_handler.h **** 
 198:Generated_Source\PSoC6\pdl\middleware\ble/cy_ble_event_handler.h ****     /****************************************
 199:Generated_Source\PSoC6\pdl\middleware\ble/cy_ble_event_handler.h ****      * GATT Service Events
 200:Generated_Source\PSoC6\pdl\middleware\ble/cy_ble_event_handler.h ****      ***************************************/
 201:Generated_Source\PSoC6\pdl\middleware\ble/cy_ble_event_handler.h **** 
 202:Generated_Source\PSoC6\pdl\middleware\ble/cy_ble_event_handler.h ****     /** GATT Server - This event indicates that the CCCD data CRC is wrong.
 203:Generated_Source\PSoC6\pdl\middleware\ble/cy_ble_event_handler.h ****      *  If this event occurs, removing the bonding information of all devices
 204:Generated_Source\PSoC6\pdl\middleware\ble/cy_ble_event_handler.h ****      *  by using the Cy_BLE_GAP_RemoveBondedDevice() API is recommended.
 205:Generated_Source\PSoC6\pdl\middleware\ble/cy_ble_event_handler.h ****      *  The CCCD buffer in the RAM for the current connection is cleaned (set to zero) 
 206:Generated_Source\PSoC6\pdl\middleware\ble/cy_ble_event_handler.h ****      *  The event parameter is NULL.
 207:Generated_Source\PSoC6\pdl\middleware\ble/cy_ble_event_handler.h ****      */
 208:Generated_Source\PSoC6\pdl\middleware\ble/cy_ble_event_handler.h ****     CY_BLE_EVT_GATTS_EVT_CCCD_CORRUPT,
 209:Generated_Source\PSoC6\pdl\middleware\ble/cy_ble_event_handler.h **** 
 210:Generated_Source\PSoC6\pdl\middleware\ble/cy_ble_event_handler.h ****     /** GATT Server - Indication for GATT Service's "Service Changed"
 211:Generated_Source\PSoC6\pdl\middleware\ble/cy_ble_event_handler.h ****      *  Characteristic was enabled. The parameter of this event is a structure of
 212:Generated_Source\PSoC6\pdl\middleware\ble/cy_ble_event_handler.h ****      *  \ref cy_stc_ble_gatts_write_cmd_req_param_t type.
 213:Generated_Source\PSoC6\pdl\middleware\ble/cy_ble_event_handler.h ****      */
 214:Generated_Source\PSoC6\pdl\middleware\ble/cy_ble_event_handler.h ****     CY_BLE_EVT_GATTS_INDICATION_ENABLED,
 215:Generated_Source\PSoC6\pdl\middleware\ble/cy_ble_event_handler.h **** 
ARM GAS  C:\Users\fiona\AppData\Local\Temp\cc5GuuYy.s 			page 14


 216:Generated_Source\PSoC6\pdl\middleware\ble/cy_ble_event_handler.h ****     /** GATT Server - Indication for GATT Service's "Service Changed"
 217:Generated_Source\PSoC6\pdl\middleware\ble/cy_ble_event_handler.h ****      *  Characteristic was disabled. The parameter of this event is a structure of
 218:Generated_Source\PSoC6\pdl\middleware\ble/cy_ble_event_handler.h ****      *  \ref cy_stc_ble_gatts_write_cmd_req_param_t type.
 219:Generated_Source\PSoC6\pdl\middleware\ble/cy_ble_event_handler.h ****      */
 220:Generated_Source\PSoC6\pdl\middleware\ble/cy_ble_event_handler.h ****     CY_BLE_EVT_GATTS_INDICATION_DISABLED,
 221:Generated_Source\PSoC6\pdl\middleware\ble/cy_ble_event_handler.h **** 
 222:Generated_Source\PSoC6\pdl\middleware\ble/cy_ble_event_handler.h ****     /** GATT Client - GATT Service's "Service Changed" Characteristic Indication
 223:Generated_Source\PSoC6\pdl\middleware\ble/cy_ble_event_handler.h ****      *  was received. The parameter of this event is a structure
 224:Generated_Source\PSoC6\pdl\middleware\ble/cy_ble_event_handler.h ****      *  of the \ref cy_stc_ble_gattc_handle_value_ind_param_t type.
 225:Generated_Source\PSoC6\pdl\middleware\ble/cy_ble_event_handler.h ****      */
 226:Generated_Source\PSoC6\pdl\middleware\ble/cy_ble_event_handler.h ****     CY_BLE_EVT_GATTC_INDICATION,
 227:Generated_Source\PSoC6\pdl\middleware\ble/cy_ble_event_handler.h **** 
 228:Generated_Source\PSoC6\pdl\middleware\ble/cy_ble_event_handler.h **** 
 229:Generated_Source\PSoC6\pdl\middleware\ble/cy_ble_event_handler.h ****     /****************************************
 230:Generated_Source\PSoC6\pdl\middleware\ble/cy_ble_event_handler.h ****      * Service Discovery Events
 231:Generated_Source\PSoC6\pdl\middleware\ble/cy_ble_event_handler.h ****      ***************************************/
 232:Generated_Source\PSoC6\pdl\middleware\ble/cy_ble_event_handler.h **** 
 233:Generated_Source\PSoC6\pdl\middleware\ble/cy_ble_event_handler.h ****     /** GATT Client - The Service discovery procedure failed. This event may
 234:Generated_Source\PSoC6\pdl\middleware\ble/cy_ble_event_handler.h ****      *  be generated on calling Cy_BLE_GATTC_DiscoverPrimaryServices().
 235:Generated_Source\PSoC6\pdl\middleware\ble/cy_ble_event_handler.h ****      *  The parameter of this event is a structure of the cy_stc_ble_conn_handle_t type.
 236:Generated_Source\PSoC6\pdl\middleware\ble/cy_ble_event_handler.h ****      */
 237:Generated_Source\PSoC6\pdl\middleware\ble/cy_ble_event_handler.h ****     CY_BLE_EVT_GATTC_SRVC_DISCOVERY_FAILED,
 238:Generated_Source\PSoC6\pdl\middleware\ble/cy_ble_event_handler.h **** 
 239:Generated_Source\PSoC6\pdl\middleware\ble/cy_ble_event_handler.h ****     /** GATT Client - The discovery of included services failed. This event may
 240:Generated_Source\PSoC6\pdl\middleware\ble/cy_ble_event_handler.h ****      *  be generated on calling Cy_BLE_GATTC_FindIncludedServices().
 241:Generated_Source\PSoC6\pdl\middleware\ble/cy_ble_event_handler.h ****      *  The parameter of this event is a structure of the cy_stc_ble_conn_handle_t type.
 242:Generated_Source\PSoC6\pdl\middleware\ble/cy_ble_event_handler.h ****      */
 243:Generated_Source\PSoC6\pdl\middleware\ble/cy_ble_event_handler.h ****     CY_BLE_EVT_GATTC_INCL_DISCOVERY_FAILED,
 244:Generated_Source\PSoC6\pdl\middleware\ble/cy_ble_event_handler.h **** 
 245:Generated_Source\PSoC6\pdl\middleware\ble/cy_ble_event_handler.h ****     /** GATT Client - The discovery of the service's characteristics failed. This event may
 246:Generated_Source\PSoC6\pdl\middleware\ble/cy_ble_event_handler.h ****      *  be generated on calling Cy_BLE_GATTC_DiscoverCharacteristics() or
 247:Generated_Source\PSoC6\pdl\middleware\ble/cy_ble_event_handler.h ****      *  Cy_BLE_GATTC_ReadUsingCharacteristicUuid().
 248:Generated_Source\PSoC6\pdl\middleware\ble/cy_ble_event_handler.h ****      *  The parameter of this event is a structure of the cy_stc_ble_conn_handle_t type.
 249:Generated_Source\PSoC6\pdl\middleware\ble/cy_ble_event_handler.h ****      */
 250:Generated_Source\PSoC6\pdl\middleware\ble/cy_ble_event_handler.h ****     CY_BLE_EVT_GATTC_CHAR_DISCOVERY_FAILED,
 251:Generated_Source\PSoC6\pdl\middleware\ble/cy_ble_event_handler.h **** 
 252:Generated_Source\PSoC6\pdl\middleware\ble/cy_ble_event_handler.h ****     /** GATT Client - The discovery of the service's characteristics failed. This event may
 253:Generated_Source\PSoC6\pdl\middleware\ble/cy_ble_event_handler.h ****      *  be generated on calling Cy_BLE_GATTC_DiscoverCharacteristicDescriptors().
 254:Generated_Source\PSoC6\pdl\middleware\ble/cy_ble_event_handler.h ****      *  The parameter of this event is a structure of the cy_stc_ble_conn_handle_t type.
 255:Generated_Source\PSoC6\pdl\middleware\ble/cy_ble_event_handler.h ****      */
 256:Generated_Source\PSoC6\pdl\middleware\ble/cy_ble_event_handler.h ****     CY_BLE_EVT_GATTC_DESCR_DISCOVERY_FAILED,
 257:Generated_Source\PSoC6\pdl\middleware\ble/cy_ble_event_handler.h **** 
 258:Generated_Source\PSoC6\pdl\middleware\ble/cy_ble_event_handler.h ****     /** GATT Client - A duplicate service record was found during the server device
 259:Generated_Source\PSoC6\pdl\middleware\ble/cy_ble_event_handler.h ****      *  discovery. The parameter of this event is a structure of cy_stc_ble_disc_srv_info_t
 260:Generated_Source\PSoC6\pdl\middleware\ble/cy_ble_event_handler.h ****      *  type.
 261:Generated_Source\PSoC6\pdl\middleware\ble/cy_ble_event_handler.h ****      */
 262:Generated_Source\PSoC6\pdl\middleware\ble/cy_ble_event_handler.h ****     CY_BLE_EVT_GATTC_SRVC_DUPLICATION,
 263:Generated_Source\PSoC6\pdl\middleware\ble/cy_ble_event_handler.h **** 
 264:Generated_Source\PSoC6\pdl\middleware\ble/cy_ble_event_handler.h ****     /** GATT Client - Duplicate service's characteristic record was found during
 265:Generated_Source\PSoC6\pdl\middleware\ble/cy_ble_event_handler.h ****      *  server device discovery. The parameter of this event is a structure
 266:Generated_Source\PSoC6\pdl\middleware\ble/cy_ble_event_handler.h ****      *  of cy_stc_ble_disc_char_info_t type.
 267:Generated_Source\PSoC6\pdl\middleware\ble/cy_ble_event_handler.h ****      */
 268:Generated_Source\PSoC6\pdl\middleware\ble/cy_ble_event_handler.h ****     CY_BLE_EVT_GATTC_CHAR_DUPLICATION,
 269:Generated_Source\PSoC6\pdl\middleware\ble/cy_ble_event_handler.h **** 
 270:Generated_Source\PSoC6\pdl\middleware\ble/cy_ble_event_handler.h ****     /** GATT Client - A duplicate service's characteristic descriptor record was found
 271:Generated_Source\PSoC6\pdl\middleware\ble/cy_ble_event_handler.h ****      *  during server device discovery. The parameter of this event is a structure
 272:Generated_Source\PSoC6\pdl\middleware\ble/cy_ble_event_handler.h ****      *  of cy_stc_ble_disc_descr_info_t type.
ARM GAS  C:\Users\fiona\AppData\Local\Temp\cc5GuuYy.s 			page 15


 273:Generated_Source\PSoC6\pdl\middleware\ble/cy_ble_event_handler.h ****      */
 274:Generated_Source\PSoC6\pdl\middleware\ble/cy_ble_event_handler.h ****     CY_BLE_EVT_GATTC_DESCR_DUPLICATION,
 275:Generated_Source\PSoC6\pdl\middleware\ble/cy_ble_event_handler.h **** 
 276:Generated_Source\PSoC6\pdl\middleware\ble/cy_ble_event_handler.h ****     /** GATT Client - The Service discovery procedure completed successfully. This
 277:Generated_Source\PSoC6\pdl\middleware\ble/cy_ble_event_handler.h ****      *  event may be generated on calling Cy_BLE_GATTC_DiscoverPrimaryServices().
 278:Generated_Source\PSoC6\pdl\middleware\ble/cy_ble_event_handler.h ****      *  The parameter of this event is a structure of the cy_stc_ble_conn_handle_t type.
 279:Generated_Source\PSoC6\pdl\middleware\ble/cy_ble_event_handler.h ****      */
 280:Generated_Source\PSoC6\pdl\middleware\ble/cy_ble_event_handler.h ****     CY_BLE_EVT_GATTC_SRVC_DISCOVERY_COMPLETE,
 281:Generated_Source\PSoC6\pdl\middleware\ble/cy_ble_event_handler.h **** 
 282:Generated_Source\PSoC6\pdl\middleware\ble/cy_ble_event_handler.h ****     /** GATT Client - The included services discovery is completed
 283:Generated_Source\PSoC6\pdl\middleware\ble/cy_ble_event_handler.h ****      *  successfully. This event may be generated on calling
 284:Generated_Source\PSoC6\pdl\middleware\ble/cy_ble_event_handler.h ****      *  Cy_BLE_GATTC_FindIncludedServices().
 285:Generated_Source\PSoC6\pdl\middleware\ble/cy_ble_event_handler.h ****      *  The parameter of this event is a structure of the cy_stc_ble_conn_handle_t type.
 286:Generated_Source\PSoC6\pdl\middleware\ble/cy_ble_event_handler.h ****      */
 287:Generated_Source\PSoC6\pdl\middleware\ble/cy_ble_event_handler.h ****     CY_BLE_EVT_GATTC_INCL_DISCOVERY_COMPLETE,
 288:Generated_Source\PSoC6\pdl\middleware\ble/cy_ble_event_handler.h **** 
 289:Generated_Source\PSoC6\pdl\middleware\ble/cy_ble_event_handler.h ****     /** GATT Client - The discovery of service's characteristics discovery is completed
 290:Generated_Source\PSoC6\pdl\middleware\ble/cy_ble_event_handler.h ****      *  successfully. This event may be generated on calling
 291:Generated_Source\PSoC6\pdl\middleware\ble/cy_ble_event_handler.h ****      *  Cy_BLE_GATTC_DiscoverCharacteristics() or
 292:Generated_Source\PSoC6\pdl\middleware\ble/cy_ble_event_handler.h ****      *  Cy_BLE_GATTC_ReadUsingCharacteristicUuid().
 293:Generated_Source\PSoC6\pdl\middleware\ble/cy_ble_event_handler.h ****      *  The parameter of this event is a structure of the cy_stc_ble_conn_handle_t type.
 294:Generated_Source\PSoC6\pdl\middleware\ble/cy_ble_event_handler.h ****      */
 295:Generated_Source\PSoC6\pdl\middleware\ble/cy_ble_event_handler.h ****     CY_BLE_EVT_GATTC_CHAR_DISCOVERY_COMPLETE,
 296:Generated_Source\PSoC6\pdl\middleware\ble/cy_ble_event_handler.h ****     
 297:Generated_Source\PSoC6\pdl\middleware\ble/cy_ble_event_handler.h ****     /** GATT Client - The service (not defined in the GATT database) was found during
 298:Generated_Source\PSoC6\pdl\middleware\ble/cy_ble_event_handler.h ****     *  the server device discovery. The discovery procedure skips this service.
 299:Generated_Source\PSoC6\pdl\middleware\ble/cy_ble_event_handler.h ****     *  This event parameter is a structure of the cy_stc_ble_disc_srv_info_t type.
 300:Generated_Source\PSoC6\pdl\middleware\ble/cy_ble_event_handler.h ****     */
 301:Generated_Source\PSoC6\pdl\middleware\ble/cy_ble_event_handler.h ****     CY_BLE_EVT_GATTC_DISC_SKIPPED_SERVICE,
 302:Generated_Source\PSoC6\pdl\middleware\ble/cy_ble_event_handler.h ****                     
 303:Generated_Source\PSoC6\pdl\middleware\ble/cy_ble_event_handler.h ****     /** GATT Client - The discovery of a remote device completed successfully.
 304:Generated_Source\PSoC6\pdl\middleware\ble/cy_ble_event_handler.h ****      *  The parameter of this event is a structure of the cy_stc_ble_conn_handle_t type.
 305:Generated_Source\PSoC6\pdl\middleware\ble/cy_ble_event_handler.h ****      */
 306:Generated_Source\PSoC6\pdl\middleware\ble/cy_ble_event_handler.h ****     CY_BLE_EVT_GATTC_DISCOVERY_COMPLETE,
 307:Generated_Source\PSoC6\pdl\middleware\ble/cy_ble_event_handler.h **** 
 308:Generated_Source\PSoC6\pdl\middleware\ble/cy_ble_event_handler.h ****     /****************************************
 309:Generated_Source\PSoC6\pdl\middleware\ble/cy_ble_event_handler.h ****      * AIOS Service Events
 310:Generated_Source\PSoC6\pdl\middleware\ble/cy_ble_event_handler.h ****      ***************************************/
 311:Generated_Source\PSoC6\pdl\middleware\ble/cy_ble_event_handler.h **** 
 312:Generated_Source\PSoC6\pdl\middleware\ble/cy_ble_event_handler.h ****     /** AIOS Server - Notification for Automation Input Output Service Characteristic
 313:Generated_Source\PSoC6\pdl\middleware\ble/cy_ble_event_handler.h ****      *  was enabled. The parameter of this event is a structure of
 314:Generated_Source\PSoC6\pdl\middleware\ble/cy_ble_event_handler.h ****      *  cy_stc_ble_aios_char_value_t type.
 315:Generated_Source\PSoC6\pdl\middleware\ble/cy_ble_event_handler.h ****      */
 316:Generated_Source\PSoC6\pdl\middleware\ble/cy_ble_event_handler.h ****     CY_BLE_EVT_AIOSS_NOTIFICATION_ENABLED,
 317:Generated_Source\PSoC6\pdl\middleware\ble/cy_ble_event_handler.h **** 
 318:Generated_Source\PSoC6\pdl\middleware\ble/cy_ble_event_handler.h ****     /** AIOS Server - Notification for Automation Input Output Service Characteristic
 319:Generated_Source\PSoC6\pdl\middleware\ble/cy_ble_event_handler.h ****      *  was disabled. The parameter of this event is a structure of
 320:Generated_Source\PSoC6\pdl\middleware\ble/cy_ble_event_handler.h ****      *  cy_stc_ble_aios_char_value_t type.
 321:Generated_Source\PSoC6\pdl\middleware\ble/cy_ble_event_handler.h ****      */
 322:Generated_Source\PSoC6\pdl\middleware\ble/cy_ble_event_handler.h ****     CY_BLE_EVT_AIOSS_NOTIFICATION_DISABLED,
 323:Generated_Source\PSoC6\pdl\middleware\ble/cy_ble_event_handler.h **** 
 324:Generated_Source\PSoC6\pdl\middleware\ble/cy_ble_event_handler.h ****     /** AIOS Server - Indication for Automation Input Output Service Characteristic
 325:Generated_Source\PSoC6\pdl\middleware\ble/cy_ble_event_handler.h ****      *  was enabled. The parameter of this event is a structure
 326:Generated_Source\PSoC6\pdl\middleware\ble/cy_ble_event_handler.h ****      *  of cy_stc_ble_aios_char_value_t type.
 327:Generated_Source\PSoC6\pdl\middleware\ble/cy_ble_event_handler.h ****      */
 328:Generated_Source\PSoC6\pdl\middleware\ble/cy_ble_event_handler.h ****     CY_BLE_EVT_AIOSS_INDICATION_ENABLED,
 329:Generated_Source\PSoC6\pdl\middleware\ble/cy_ble_event_handler.h **** 
ARM GAS  C:\Users\fiona\AppData\Local\Temp\cc5GuuYy.s 			page 16


 330:Generated_Source\PSoC6\pdl\middleware\ble/cy_ble_event_handler.h ****     /** AIOSS Server - Indication for Automation Input Output Service Characteristic
 331:Generated_Source\PSoC6\pdl\middleware\ble/cy_ble_event_handler.h ****      *  was disabled. The parameter of this event is a structure
 332:Generated_Source\PSoC6\pdl\middleware\ble/cy_ble_event_handler.h ****      *  of cy_stc_ble_aios_char_value_t type.
 333:Generated_Source\PSoC6\pdl\middleware\ble/cy_ble_event_handler.h ****      */
 334:Generated_Source\PSoC6\pdl\middleware\ble/cy_ble_event_handler.h ****     CY_BLE_EVT_AIOSS_INDICATION_DISABLED,
 335:Generated_Source\PSoC6\pdl\middleware\ble/cy_ble_event_handler.h **** 
 336:Generated_Source\PSoC6\pdl\middleware\ble/cy_ble_event_handler.h ****     /** AIOS Server - Automation Input Output Service Characteristic
 337:Generated_Source\PSoC6\pdl\middleware\ble/cy_ble_event_handler.h ****      *  Indication was confirmed. The parameter of this event
 338:Generated_Source\PSoC6\pdl\middleware\ble/cy_ble_event_handler.h ****      *  is a structure of cy_stc_ble_aios_char_value_t type.
 339:Generated_Source\PSoC6\pdl\middleware\ble/cy_ble_event_handler.h ****      */
 340:Generated_Source\PSoC6\pdl\middleware\ble/cy_ble_event_handler.h ****     CY_BLE_EVT_AIOSS_INDICATION_CONFIRMED,
 341:Generated_Source\PSoC6\pdl\middleware\ble/cy_ble_event_handler.h **** 
 342:Generated_Source\PSoC6\pdl\middleware\ble/cy_ble_event_handler.h ****     /** AIOS Server - Write Request for Automation Input Output Service Characteristic
 343:Generated_Source\PSoC6\pdl\middleware\ble/cy_ble_event_handler.h ****      *  was received. The parameter of this event is a structure
 344:Generated_Source\PSoC6\pdl\middleware\ble/cy_ble_event_handler.h ****      *  of cy_stc_ble_aios_char_value_t type.
 345:Generated_Source\PSoC6\pdl\middleware\ble/cy_ble_event_handler.h ****      */
 346:Generated_Source\PSoC6\pdl\middleware\ble/cy_ble_event_handler.h ****     CY_BLE_EVT_AIOSS_WRITE_CHAR,
 347:Generated_Source\PSoC6\pdl\middleware\ble/cy_ble_event_handler.h **** 
 348:Generated_Source\PSoC6\pdl\middleware\ble/cy_ble_event_handler.h ****     /** AIOSS Server - Write Request for Automation Input Output Service
 349:Generated_Source\PSoC6\pdl\middleware\ble/cy_ble_event_handler.h ****      *  Characteristic Descriptor was received. The parameter of this event is a structure of
 350:Generated_Source\PSoC6\pdl\middleware\ble/cy_ble_event_handler.h ****      *  cy_stc_ble_aios_char_value_t type.
 351:Generated_Source\PSoC6\pdl\middleware\ble/cy_ble_event_handler.h ****      */
 352:Generated_Source\PSoC6\pdl\middleware\ble/cy_ble_event_handler.h ****     CY_BLE_EVT_AIOSS_DESCR_WRITE,
 353:Generated_Source\PSoC6\pdl\middleware\ble/cy_ble_event_handler.h **** 
 354:Generated_Source\PSoC6\pdl\middleware\ble/cy_ble_event_handler.h ****     /** AIOS Client - Automation Input Output Characteristic Service Notification
 355:Generated_Source\PSoC6\pdl\middleware\ble/cy_ble_event_handler.h ****      *  was received. The parameter of this event is a structure
 356:Generated_Source\PSoC6\pdl\middleware\ble/cy_ble_event_handler.h ****      *  of cy_stc_ble_aios_char_value_t type.
 357:Generated_Source\PSoC6\pdl\middleware\ble/cy_ble_event_handler.h ****      */
 358:Generated_Source\PSoC6\pdl\middleware\ble/cy_ble_event_handler.h ****     CY_BLE_EVT_AIOSC_NOTIFICATION,
 359:Generated_Source\PSoC6\pdl\middleware\ble/cy_ble_event_handler.h **** 
 360:Generated_Source\PSoC6\pdl\middleware\ble/cy_ble_event_handler.h ****     /** AIOS Client - Automation Input Output Service Characteristic
 361:Generated_Source\PSoC6\pdl\middleware\ble/cy_ble_event_handler.h ****      *  Indication was received. The parameter of this event
 362:Generated_Source\PSoC6\pdl\middleware\ble/cy_ble_event_handler.h ****      *  is a structure of cy_stc_ble_aios_char_value_t type.
 363:Generated_Source\PSoC6\pdl\middleware\ble/cy_ble_event_handler.h ****      */
 364:Generated_Source\PSoC6\pdl\middleware\ble/cy_ble_event_handler.h ****     CY_BLE_EVT_AIOSC_INDICATION,
 365:Generated_Source\PSoC6\pdl\middleware\ble/cy_ble_event_handler.h **** 
 366:Generated_Source\PSoC6\pdl\middleware\ble/cy_ble_event_handler.h ****     /** AIOS Client - Read Response for Read Request for Automation Input Output Service Characteri
 367:Generated_Source\PSoC6\pdl\middleware\ble/cy_ble_event_handler.h ****      *  Value. The parameter of this event is a structure of
 368:Generated_Source\PSoC6\pdl\middleware\ble/cy_ble_event_handler.h ****      *  cy_stc_ble_aios_char_value_t type.
 369:Generated_Source\PSoC6\pdl\middleware\ble/cy_ble_event_handler.h ****      */
 370:Generated_Source\PSoC6\pdl\middleware\ble/cy_ble_event_handler.h ****     CY_BLE_EVT_AIOSC_READ_CHAR_RESPONSE,
 371:Generated_Source\PSoC6\pdl\middleware\ble/cy_ble_event_handler.h **** 
 372:Generated_Source\PSoC6\pdl\middleware\ble/cy_ble_event_handler.h ****     /** AIOS Client - Write Response for Write Request for Automation Input Output Service
 373:Generated_Source\PSoC6\pdl\middleware\ble/cy_ble_event_handler.h ****      *  Characteristic Value. The parameter of this event is a structure of
 374:Generated_Source\PSoC6\pdl\middleware\ble/cy_ble_event_handler.h ****      *  cy_stc_ble_aios_char_value_t type.
 375:Generated_Source\PSoC6\pdl\middleware\ble/cy_ble_event_handler.h ****      */
 376:Generated_Source\PSoC6\pdl\middleware\ble/cy_ble_event_handler.h ****     CY_BLE_EVT_AIOSC_WRITE_CHAR_RESPONSE,
 377:Generated_Source\PSoC6\pdl\middleware\ble/cy_ble_event_handler.h **** 
 378:Generated_Source\PSoC6\pdl\middleware\ble/cy_ble_event_handler.h ****     /** AIOS Client - Read Response for Read Request for Automation Input Output Service
 379:Generated_Source\PSoC6\pdl\middleware\ble/cy_ble_event_handler.h ****      *  Characteristic Descriptor Read Request. The parameter of this event is a
 380:Generated_Source\PSoC6\pdl\middleware\ble/cy_ble_event_handler.h ****      *  structure of cy_stc_ble_aios_descr_value_t type.
 381:Generated_Source\PSoC6\pdl\middleware\ble/cy_ble_event_handler.h ****      */
 382:Generated_Source\PSoC6\pdl\middleware\ble/cy_ble_event_handler.h ****     CY_BLE_EVT_AIOSC_READ_DESCR_RESPONSE,
 383:Generated_Source\PSoC6\pdl\middleware\ble/cy_ble_event_handler.h **** 
 384:Generated_Source\PSoC6\pdl\middleware\ble/cy_ble_event_handler.h ****     /** AIOS Client - Write Response for Write Request for Automation Input Output Service
 385:Generated_Source\PSoC6\pdl\middleware\ble/cy_ble_event_handler.h ****      *  Client Characteristic Configuration Descriptor Value. The parameter of
 386:Generated_Source\PSoC6\pdl\middleware\ble/cy_ble_event_handler.h ****      *  this event is a structure of cy_stc_ble_aios_descr_value_t type.
ARM GAS  C:\Users\fiona\AppData\Local\Temp\cc5GuuYy.s 			page 17


 387:Generated_Source\PSoC6\pdl\middleware\ble/cy_ble_event_handler.h ****      */
 388:Generated_Source\PSoC6\pdl\middleware\ble/cy_ble_event_handler.h ****     CY_BLE_EVT_AIOSC_WRITE_DESCR_RESPONSE,
 389:Generated_Source\PSoC6\pdl\middleware\ble/cy_ble_event_handler.h **** 
 390:Generated_Source\PSoC6\pdl\middleware\ble/cy_ble_event_handler.h ****     /** AIOS Client - Error Response for Write Request for Automation Input Output Service
 391:Generated_Source\PSoC6\pdl\middleware\ble/cy_ble_event_handler.h ****      *  Characteristic Value. The parameter of this event is a structure of
 392:Generated_Source\PSoC6\pdl\middleware\ble/cy_ble_event_handler.h ****      *  cy_stc_ble_ancs_char_value_t type.
 393:Generated_Source\PSoC6\pdl\middleware\ble/cy_ble_event_handler.h ****      */
 394:Generated_Source\PSoC6\pdl\middleware\ble/cy_ble_event_handler.h ****     CY_BLE_EVT_AIOSC_ERROR_RESPONSE,
 395:Generated_Source\PSoC6\pdl\middleware\ble/cy_ble_event_handler.h **** 
 396:Generated_Source\PSoC6\pdl\middleware\ble/cy_ble_event_handler.h ****     /****************************************
 397:Generated_Source\PSoC6\pdl\middleware\ble/cy_ble_event_handler.h ****      * ANCS Service Events
 398:Generated_Source\PSoC6\pdl\middleware\ble/cy_ble_event_handler.h ****      ***************************************/
 399:Generated_Source\PSoC6\pdl\middleware\ble/cy_ble_event_handler.h **** 
 400:Generated_Source\PSoC6\pdl\middleware\ble/cy_ble_event_handler.h ****     /** ANCS Server - Notification for Apple Notification Center Service Characteristic
 401:Generated_Source\PSoC6\pdl\middleware\ble/cy_ble_event_handler.h ****      *  was enabled. The parameter of this event is a structure of
 402:Generated_Source\PSoC6\pdl\middleware\ble/cy_ble_event_handler.h ****      *  the cy_stc_ble_ancs_char_value_t type.
 403:Generated_Source\PSoC6\pdl\middleware\ble/cy_ble_event_handler.h ****      */
 404:Generated_Source\PSoC6\pdl\middleware\ble/cy_ble_event_handler.h ****     CY_BLE_EVT_ANCSS_NOTIFICATION_ENABLED,
 405:Generated_Source\PSoC6\pdl\middleware\ble/cy_ble_event_handler.h **** 
 406:Generated_Source\PSoC6\pdl\middleware\ble/cy_ble_event_handler.h ****     /** ANCS Server - Notification for Apple Notification Center Service Characteristic
 407:Generated_Source\PSoC6\pdl\middleware\ble/cy_ble_event_handler.h ****      *  was disabled. The parameter of this event is a structure of
 408:Generated_Source\PSoC6\pdl\middleware\ble/cy_ble_event_handler.h ****      *  the cy_stc_ble_ancs_char_value_t type.
 409:Generated_Source\PSoC6\pdl\middleware\ble/cy_ble_event_handler.h ****      */
 410:Generated_Source\PSoC6\pdl\middleware\ble/cy_ble_event_handler.h ****     CY_BLE_EVT_ANCSS_NOTIFICATION_DISABLED,
 411:Generated_Source\PSoC6\pdl\middleware\ble/cy_ble_event_handler.h **** 
 412:Generated_Source\PSoC6\pdl\middleware\ble/cy_ble_event_handler.h ****     /** ANCS Server - Write Request for Apple Notification Center Service Characteristic
 413:Generated_Source\PSoC6\pdl\middleware\ble/cy_ble_event_handler.h ****      *  was received. The parameter of this event is a structure
 414:Generated_Source\PSoC6\pdl\middleware\ble/cy_ble_event_handler.h ****      *  of the cy_stc_ble_ancs_char_value_t type.
 415:Generated_Source\PSoC6\pdl\middleware\ble/cy_ble_event_handler.h ****      */
 416:Generated_Source\PSoC6\pdl\middleware\ble/cy_ble_event_handler.h ****     CY_BLE_EVT_ANCSS_WRITE_CHAR,
 417:Generated_Source\PSoC6\pdl\middleware\ble/cy_ble_event_handler.h **** 
 418:Generated_Source\PSoC6\pdl\middleware\ble/cy_ble_event_handler.h ****     /** ANCS Client - Apple Notification Center Characteristic Service Notification
 419:Generated_Source\PSoC6\pdl\middleware\ble/cy_ble_event_handler.h ****      *  was received. The parameter of this event is a structure
 420:Generated_Source\PSoC6\pdl\middleware\ble/cy_ble_event_handler.h ****      *  of the cy_stc_ble_ancs_char_value_t type.
 421:Generated_Source\PSoC6\pdl\middleware\ble/cy_ble_event_handler.h ****      */
 422:Generated_Source\PSoC6\pdl\middleware\ble/cy_ble_event_handler.h ****     CY_BLE_EVT_ANCSC_NOTIFICATION,
 423:Generated_Source\PSoC6\pdl\middleware\ble/cy_ble_event_handler.h **** 
 424:Generated_Source\PSoC6\pdl\middleware\ble/cy_ble_event_handler.h ****     /** ANCS Client - Write Response for Write Request for Apple Notification Center Service
 425:Generated_Source\PSoC6\pdl\middleware\ble/cy_ble_event_handler.h ****      *  Characteristic Value. The parameter of this event is a structure of
 426:Generated_Source\PSoC6\pdl\middleware\ble/cy_ble_event_handler.h ****      *  cy_stc_ble_ancs_char_value_t type.
 427:Generated_Source\PSoC6\pdl\middleware\ble/cy_ble_event_handler.h ****      */
 428:Generated_Source\PSoC6\pdl\middleware\ble/cy_ble_event_handler.h ****     CY_BLE_EVT_ANCSC_WRITE_CHAR_RESPONSE,
 429:Generated_Source\PSoC6\pdl\middleware\ble/cy_ble_event_handler.h **** 
 430:Generated_Source\PSoC6\pdl\middleware\ble/cy_ble_event_handler.h ****     /** ANCS Client - Read Response for Read Request for Apple Notification Center Service
 431:Generated_Source\PSoC6\pdl\middleware\ble/cy_ble_event_handler.h ****      *  Characteristic Descriptor Read Request. The parameter of this event is a
 432:Generated_Source\PSoC6\pdl\middleware\ble/cy_ble_event_handler.h ****      *  structure of the cy_stc_ble_ancs_descr_value_t type.
 433:Generated_Source\PSoC6\pdl\middleware\ble/cy_ble_event_handler.h ****      */
 434:Generated_Source\PSoC6\pdl\middleware\ble/cy_ble_event_handler.h ****     CY_BLE_EVT_ANCSC_READ_DESCR_RESPONSE,
 435:Generated_Source\PSoC6\pdl\middleware\ble/cy_ble_event_handler.h **** 
 436:Generated_Source\PSoC6\pdl\middleware\ble/cy_ble_event_handler.h ****     /** ANCS Client - Write Response for Write Request for Apple Notification Center Service
 437:Generated_Source\PSoC6\pdl\middleware\ble/cy_ble_event_handler.h ****      *  Client Characteristic Configuration Descriptor Value. The parameter of
 438:Generated_Source\PSoC6\pdl\middleware\ble/cy_ble_event_handler.h ****      *  this event is a structure of the cy_stc_ble_ancs_descr_value_t type.
 439:Generated_Source\PSoC6\pdl\middleware\ble/cy_ble_event_handler.h ****      */
 440:Generated_Source\PSoC6\pdl\middleware\ble/cy_ble_event_handler.h ****     CY_BLE_EVT_ANCSC_WRITE_DESCR_RESPONSE,
 441:Generated_Source\PSoC6\pdl\middleware\ble/cy_ble_event_handler.h **** 
 442:Generated_Source\PSoC6\pdl\middleware\ble/cy_ble_event_handler.h ****     /** ANCS Client - Error Response for Write Request for Apple Notification Center Service
 443:Generated_Source\PSoC6\pdl\middleware\ble/cy_ble_event_handler.h ****      *  Characteristic Value. The parameter of this event is a structure of
ARM GAS  C:\Users\fiona\AppData\Local\Temp\cc5GuuYy.s 			page 18


 444:Generated_Source\PSoC6\pdl\middleware\ble/cy_ble_event_handler.h ****      *  the cy_stc_ble_ancs_char_value_t type.
 445:Generated_Source\PSoC6\pdl\middleware\ble/cy_ble_event_handler.h ****      */
 446:Generated_Source\PSoC6\pdl\middleware\ble/cy_ble_event_handler.h ****     CY_BLE_EVT_ANCSC_ERROR_RESPONSE,
 447:Generated_Source\PSoC6\pdl\middleware\ble/cy_ble_event_handler.h **** 
 448:Generated_Source\PSoC6\pdl\middleware\ble/cy_ble_event_handler.h **** 
 449:Generated_Source\PSoC6\pdl\middleware\ble/cy_ble_event_handler.h ****     /****************************************
 450:Generated_Source\PSoC6\pdl\middleware\ble/cy_ble_event_handler.h ****      * ANS Service Events
 451:Generated_Source\PSoC6\pdl\middleware\ble/cy_ble_event_handler.h ****      ***************************************/
 452:Generated_Source\PSoC6\pdl\middleware\ble/cy_ble_event_handler.h **** 
 453:Generated_Source\PSoC6\pdl\middleware\ble/cy_ble_event_handler.h ****     /** ANS Server - Notification for Alert Notification Service Characteristic
 454:Generated_Source\PSoC6\pdl\middleware\ble/cy_ble_event_handler.h ****      *  was enabled. The parameter of this event is a structure of
 455:Generated_Source\PSoC6\pdl\middleware\ble/cy_ble_event_handler.h ****      *  the cy_stc_ble_ans_char_value_t type.
 456:Generated_Source\PSoC6\pdl\middleware\ble/cy_ble_event_handler.h ****      */
 457:Generated_Source\PSoC6\pdl\middleware\ble/cy_ble_event_handler.h ****     CY_BLE_EVT_ANSS_NOTIFICATION_ENABLED,
 458:Generated_Source\PSoC6\pdl\middleware\ble/cy_ble_event_handler.h **** 
 459:Generated_Source\PSoC6\pdl\middleware\ble/cy_ble_event_handler.h ****     /** ANS Server - Notification for Alert Notification Service Characteristic
 460:Generated_Source\PSoC6\pdl\middleware\ble/cy_ble_event_handler.h ****      *  was disabled. The parameter of this event is a structure of
 461:Generated_Source\PSoC6\pdl\middleware\ble/cy_ble_event_handler.h ****      *  the cy_stc_ble_ans_char_value_t type.
 462:Generated_Source\PSoC6\pdl\middleware\ble/cy_ble_event_handler.h ****      */
 463:Generated_Source\PSoC6\pdl\middleware\ble/cy_ble_event_handler.h ****     CY_BLE_EVT_ANSS_NOTIFICATION_DISABLED,
 464:Generated_Source\PSoC6\pdl\middleware\ble/cy_ble_event_handler.h **** 
 465:Generated_Source\PSoC6\pdl\middleware\ble/cy_ble_event_handler.h ****     /** ANS Server - Write Request for Alert Notification Service Characteristic
 466:Generated_Source\PSoC6\pdl\middleware\ble/cy_ble_event_handler.h ****      *  was received. The parameter of this event is a structure
 467:Generated_Source\PSoC6\pdl\middleware\ble/cy_ble_event_handler.h ****      *  of the cy_stc_ble_ans_char_value_t type.
 468:Generated_Source\PSoC6\pdl\middleware\ble/cy_ble_event_handler.h ****      */
 469:Generated_Source\PSoC6\pdl\middleware\ble/cy_ble_event_handler.h ****     CY_BLE_EVT_ANSS_WRITE_CHAR,
 470:Generated_Source\PSoC6\pdl\middleware\ble/cy_ble_event_handler.h **** 
 471:Generated_Source\PSoC6\pdl\middleware\ble/cy_ble_event_handler.h ****     /** ANS Client - Alert Notification Characteristic Service Notification
 472:Generated_Source\PSoC6\pdl\middleware\ble/cy_ble_event_handler.h ****      *  was received. The parameter of this event is a structure
 473:Generated_Source\PSoC6\pdl\middleware\ble/cy_ble_event_handler.h ****      *  of the cy_stc_ble_ans_char_value_t type.
 474:Generated_Source\PSoC6\pdl\middleware\ble/cy_ble_event_handler.h ****      */
 475:Generated_Source\PSoC6\pdl\middleware\ble/cy_ble_event_handler.h ****     CY_BLE_EVT_ANSC_NOTIFICATION,
 476:Generated_Source\PSoC6\pdl\middleware\ble/cy_ble_event_handler.h **** 
 477:Generated_Source\PSoC6\pdl\middleware\ble/cy_ble_event_handler.h ****     /** ANS Client - Read Response for Alert Notification Service Characteristic
 478:Generated_Source\PSoC6\pdl\middleware\ble/cy_ble_event_handler.h ****      *  Value. The parameter of this event is a structure of
 479:Generated_Source\PSoC6\pdl\middleware\ble/cy_ble_event_handler.h ****      *  the cy_stc_ble_ans_char_value_t type.
 480:Generated_Source\PSoC6\pdl\middleware\ble/cy_ble_event_handler.h ****      */
 481:Generated_Source\PSoC6\pdl\middleware\ble/cy_ble_event_handler.h ****     CY_BLE_EVT_ANSC_READ_CHAR_RESPONSE,
 482:Generated_Source\PSoC6\pdl\middleware\ble/cy_ble_event_handler.h **** 
 483:Generated_Source\PSoC6\pdl\middleware\ble/cy_ble_event_handler.h ****     /** ANS Client - Write Response for Write Request for Alert Notification Service
 484:Generated_Source\PSoC6\pdl\middleware\ble/cy_ble_event_handler.h ****      *  Characteristic Value. The parameter of this event is a structure of
 485:Generated_Source\PSoC6\pdl\middleware\ble/cy_ble_event_handler.h ****      *  the cy_stc_ble_ans_char_value_t type.
 486:Generated_Source\PSoC6\pdl\middleware\ble/cy_ble_event_handler.h ****      */
 487:Generated_Source\PSoC6\pdl\middleware\ble/cy_ble_event_handler.h ****     CY_BLE_EVT_ANSC_WRITE_CHAR_RESPONSE,
 488:Generated_Source\PSoC6\pdl\middleware\ble/cy_ble_event_handler.h **** 
 489:Generated_Source\PSoC6\pdl\middleware\ble/cy_ble_event_handler.h ****     /** ANS Client - Read Response for Read Request for Alert Notification Service
 490:Generated_Source\PSoC6\pdl\middleware\ble/cy_ble_event_handler.h ****      *  Characteristic Descriptor Read Request. The parameter of this event is a
 491:Generated_Source\PSoC6\pdl\middleware\ble/cy_ble_event_handler.h ****      *  structure of the cy_stc_ble_ans_descr_value_t type.
 492:Generated_Source\PSoC6\pdl\middleware\ble/cy_ble_event_handler.h ****      */
 493:Generated_Source\PSoC6\pdl\middleware\ble/cy_ble_event_handler.h ****     CY_BLE_EVT_ANSC_READ_DESCR_RESPONSE,
 494:Generated_Source\PSoC6\pdl\middleware\ble/cy_ble_event_handler.h **** 
 495:Generated_Source\PSoC6\pdl\middleware\ble/cy_ble_event_handler.h ****     /** ANS Client - Write Response for Write Request for Alert Notification Service
 496:Generated_Source\PSoC6\pdl\middleware\ble/cy_ble_event_handler.h ****      *  Client Characteristic Configuration Descriptor Value. The parameter of
 497:Generated_Source\PSoC6\pdl\middleware\ble/cy_ble_event_handler.h ****      *  this event is a structure of the cy_stc_ble_ans_descr_value_t type.
 498:Generated_Source\PSoC6\pdl\middleware\ble/cy_ble_event_handler.h ****      */
 499:Generated_Source\PSoC6\pdl\middleware\ble/cy_ble_event_handler.h ****     CY_BLE_EVT_ANSC_WRITE_DESCR_RESPONSE,
 500:Generated_Source\PSoC6\pdl\middleware\ble/cy_ble_event_handler.h **** 
ARM GAS  C:\Users\fiona\AppData\Local\Temp\cc5GuuYy.s 			page 19


 501:Generated_Source\PSoC6\pdl\middleware\ble/cy_ble_event_handler.h **** 
 502:Generated_Source\PSoC6\pdl\middleware\ble/cy_ble_event_handler.h ****     /****************************************
 503:Generated_Source\PSoC6\pdl\middleware\ble/cy_ble_event_handler.h ****      * BAS Service Events
 504:Generated_Source\PSoC6\pdl\middleware\ble/cy_ble_event_handler.h ****      ***************************************/
 505:Generated_Source\PSoC6\pdl\middleware\ble/cy_ble_event_handler.h **** 
 506:Generated_Source\PSoC6\pdl\middleware\ble/cy_ble_event_handler.h ****     /** BAS Server - Notification for Battery Level Characteristic was enabled. The
 507:Generated_Source\PSoC6\pdl\middleware\ble/cy_ble_event_handler.h ****      *  parameter of this event is a structure of the cy_stc_ble_bas_char_value_t type.
 508:Generated_Source\PSoC6\pdl\middleware\ble/cy_ble_event_handler.h ****      */
 509:Generated_Source\PSoC6\pdl\middleware\ble/cy_ble_event_handler.h ****     CY_BLE_EVT_BASS_NOTIFICATION_ENABLED,
 510:Generated_Source\PSoC6\pdl\middleware\ble/cy_ble_event_handler.h **** 
 511:Generated_Source\PSoC6\pdl\middleware\ble/cy_ble_event_handler.h ****     /** BAS Server - Notification for Battery Level Characteristic was disabled. The
 512:Generated_Source\PSoC6\pdl\middleware\ble/cy_ble_event_handler.h ****      *  parameter of this event is a structure of the cy_stc_ble_bas_char_value_t type.
 513:Generated_Source\PSoC6\pdl\middleware\ble/cy_ble_event_handler.h ****      */
 514:Generated_Source\PSoC6\pdl\middleware\ble/cy_ble_event_handler.h ****     CY_BLE_EVT_BASS_NOTIFICATION_DISABLED,
 515:Generated_Source\PSoC6\pdl\middleware\ble/cy_ble_event_handler.h **** 
 516:Generated_Source\PSoC6\pdl\middleware\ble/cy_ble_event_handler.h ****     /** BAS Client - Battery Level Characteristic Notification was received. The
 517:Generated_Source\PSoC6\pdl\middleware\ble/cy_ble_event_handler.h ****      *  parameter of this event is a structure of the cy_stc_ble_bas_char_value_t type.
 518:Generated_Source\PSoC6\pdl\middleware\ble/cy_ble_event_handler.h ****      */
 519:Generated_Source\PSoC6\pdl\middleware\ble/cy_ble_event_handler.h ****     CY_BLE_EVT_BASC_NOTIFICATION,
 520:Generated_Source\PSoC6\pdl\middleware\ble/cy_ble_event_handler.h **** 
 521:Generated_Source\PSoC6\pdl\middleware\ble/cy_ble_event_handler.h ****     /** BAS Client - Read Response for Battery Level Characteristic Value. The
 522:Generated_Source\PSoC6\pdl\middleware\ble/cy_ble_event_handler.h ****      *  parameter of this event is a structure of the cy_stc_ble_bas_char_value_t type.
 523:Generated_Source\PSoC6\pdl\middleware\ble/cy_ble_event_handler.h ****      */
 524:Generated_Source\PSoC6\pdl\middleware\ble/cy_ble_event_handler.h ****     CY_BLE_EVT_BASC_READ_CHAR_RESPONSE,
 525:Generated_Source\PSoC6\pdl\middleware\ble/cy_ble_event_handler.h **** 
 526:Generated_Source\PSoC6\pdl\middleware\ble/cy_ble_event_handler.h ****     /** BAS Client - Read Response for Battery Level Characteristic Descriptor Read
 527:Generated_Source\PSoC6\pdl\middleware\ble/cy_ble_event_handler.h ****      *  Request. The parameter of this event is a structure of
 528:Generated_Source\PSoC6\pdl\middleware\ble/cy_ble_event_handler.h ****      *  the cy_stc_ble_bas_descr_value_t type.
 529:Generated_Source\PSoC6\pdl\middleware\ble/cy_ble_event_handler.h ****      */
 530:Generated_Source\PSoC6\pdl\middleware\ble/cy_ble_event_handler.h ****     CY_BLE_EVT_BASC_READ_DESCR_RESPONSE,
 531:Generated_Source\PSoC6\pdl\middleware\ble/cy_ble_event_handler.h **** 
 532:Generated_Source\PSoC6\pdl\middleware\ble/cy_ble_event_handler.h ****     /** BAS Client - Write Response for Battery Level Client Characteristic
 533:Generated_Source\PSoC6\pdl\middleware\ble/cy_ble_event_handler.h ****      *  Configuration Descriptor Value. The parameter of this event is a structure of
 534:Generated_Source\PSoC6\pdl\middleware\ble/cy_ble_event_handler.h ****      *  the cy_stc_ble_bas_descr_value_t type.
 535:Generated_Source\PSoC6\pdl\middleware\ble/cy_ble_event_handler.h ****      */
 536:Generated_Source\PSoC6\pdl\middleware\ble/cy_ble_event_handler.h ****     CY_BLE_EVT_BASC_WRITE_DESCR_RESPONSE,
 537:Generated_Source\PSoC6\pdl\middleware\ble/cy_ble_event_handler.h **** 
 538:Generated_Source\PSoC6\pdl\middleware\ble/cy_ble_event_handler.h **** 
 539:Generated_Source\PSoC6\pdl\middleware\ble/cy_ble_event_handler.h ****     /****************************************
 540:Generated_Source\PSoC6\pdl\middleware\ble/cy_ble_event_handler.h ****      * Body Composition Service Events
 541:Generated_Source\PSoC6\pdl\middleware\ble/cy_ble_event_handler.h ****      ***************************************/
 542:Generated_Source\PSoC6\pdl\middleware\ble/cy_ble_event_handler.h **** 
 543:Generated_Source\PSoC6\pdl\middleware\ble/cy_ble_event_handler.h ****     /** BCS Server - Indication for Body Composition Service Characteristic
 544:Generated_Source\PSoC6\pdl\middleware\ble/cy_ble_event_handler.h ****      *  was enabled. The parameter of this event is a structure
 545:Generated_Source\PSoC6\pdl\middleware\ble/cy_ble_event_handler.h ****      *  of the cy_stc_ble_bcs_char_value_t type.
 546:Generated_Source\PSoC6\pdl\middleware\ble/cy_ble_event_handler.h ****      */
 547:Generated_Source\PSoC6\pdl\middleware\ble/cy_ble_event_handler.h ****     CY_BLE_EVT_BCSS_INDICATION_ENABLED,
 548:Generated_Source\PSoC6\pdl\middleware\ble/cy_ble_event_handler.h **** 
 549:Generated_Source\PSoC6\pdl\middleware\ble/cy_ble_event_handler.h ****     /** BCS Server - Indication for Body Composition Service Characteristic
 550:Generated_Source\PSoC6\pdl\middleware\ble/cy_ble_event_handler.h ****      *  was disabled. The parameter of this event is a structure
 551:Generated_Source\PSoC6\pdl\middleware\ble/cy_ble_event_handler.h ****      *  of the cy_stc_ble_bcs_char_value_t type.
 552:Generated_Source\PSoC6\pdl\middleware\ble/cy_ble_event_handler.h ****      */
 553:Generated_Source\PSoC6\pdl\middleware\ble/cy_ble_event_handler.h ****     CY_BLE_EVT_BCSS_INDICATION_DISABLED,
 554:Generated_Source\PSoC6\pdl\middleware\ble/cy_ble_event_handler.h **** 
 555:Generated_Source\PSoC6\pdl\middleware\ble/cy_ble_event_handler.h ****     /** BCS Server - Body Composition Service Characteristic
 556:Generated_Source\PSoC6\pdl\middleware\ble/cy_ble_event_handler.h ****      *  Indication was confirmed. The parameter of this event
 557:Generated_Source\PSoC6\pdl\middleware\ble/cy_ble_event_handler.h ****      *  is a structure of the cy_stc_ble_bcs_char_value_t type.
ARM GAS  C:\Users\fiona\AppData\Local\Temp\cc5GuuYy.s 			page 20


 558:Generated_Source\PSoC6\pdl\middleware\ble/cy_ble_event_handler.h ****      */
 559:Generated_Source\PSoC6\pdl\middleware\ble/cy_ble_event_handler.h ****     CY_BLE_EVT_BCSS_INDICATION_CONFIRMED,
 560:Generated_Source\PSoC6\pdl\middleware\ble/cy_ble_event_handler.h **** 
 561:Generated_Source\PSoC6\pdl\middleware\ble/cy_ble_event_handler.h ****     /** BCS Client - Body Composition Service Characteristic
 562:Generated_Source\PSoC6\pdl\middleware\ble/cy_ble_event_handler.h ****      *  Indication was received. The parameter of this event
 563:Generated_Source\PSoC6\pdl\middleware\ble/cy_ble_event_handler.h ****      *  is a structure of the cy_stc_ble_bcs_char_value_t type.
 564:Generated_Source\PSoC6\pdl\middleware\ble/cy_ble_event_handler.h ****      */
 565:Generated_Source\PSoC6\pdl\middleware\ble/cy_ble_event_handler.h ****     CY_BLE_EVT_BCSC_INDICATION,
 566:Generated_Source\PSoC6\pdl\middleware\ble/cy_ble_event_handler.h **** 
 567:Generated_Source\PSoC6\pdl\middleware\ble/cy_ble_event_handler.h ****     /** BCS Client - Read Response for Read Request of Body Composition
 568:Generated_Source\PSoC6\pdl\middleware\ble/cy_ble_event_handler.h ****      *  Service Characteristic value. The parameter of this event
 569:Generated_Source\PSoC6\pdl\middleware\ble/cy_ble_event_handler.h ****      *  is a structure of the cy_stc_ble_bcs_char_value_t type.
 570:Generated_Source\PSoC6\pdl\middleware\ble/cy_ble_event_handler.h ****      */
 571:Generated_Source\PSoC6\pdl\middleware\ble/cy_ble_event_handler.h ****     CY_BLE_EVT_BCSC_READ_CHAR_RESPONSE,
 572:Generated_Source\PSoC6\pdl\middleware\ble/cy_ble_event_handler.h **** 
 573:Generated_Source\PSoC6\pdl\middleware\ble/cy_ble_event_handler.h ****     /** BCS Client - Read Response for Read Request of Body Composition
 574:Generated_Source\PSoC6\pdl\middleware\ble/cy_ble_event_handler.h ****      *  Service Characteristic Descriptor Read request. The
 575:Generated_Source\PSoC6\pdl\middleware\ble/cy_ble_event_handler.h ****      *  parameter of this event is a structure of
 576:Generated_Source\PSoC6\pdl\middleware\ble/cy_ble_event_handler.h ****      *  the cy_stc_ble_bcs_descr_value_t type.
 577:Generated_Source\PSoC6\pdl\middleware\ble/cy_ble_event_handler.h ****      */
 578:Generated_Source\PSoC6\pdl\middleware\ble/cy_ble_event_handler.h ****     CY_BLE_EVT_BCSC_READ_DESCR_RESPONSE,
 579:Generated_Source\PSoC6\pdl\middleware\ble/cy_ble_event_handler.h **** 
 580:Generated_Source\PSoC6\pdl\middleware\ble/cy_ble_event_handler.h ****     /** BCS Client - Write Response for Write Request of Body Composition
 581:Generated_Source\PSoC6\pdl\middleware\ble/cy_ble_event_handler.h ****      *  Service Characteristic Configuration Descriptor value.
 582:Generated_Source\PSoC6\pdl\middleware\ble/cy_ble_event_handler.h ****      *  The parameter of this event is a structure of
 583:Generated_Source\PSoC6\pdl\middleware\ble/cy_ble_event_handler.h ****      *  the cy_stc_ble_bcs_descr_value_t type.
 584:Generated_Source\PSoC6\pdl\middleware\ble/cy_ble_event_handler.h ****      */
 585:Generated_Source\PSoC6\pdl\middleware\ble/cy_ble_event_handler.h ****     CY_BLE_EVT_BCSC_WRITE_DESCR_RESPONSE,
 586:Generated_Source\PSoC6\pdl\middleware\ble/cy_ble_event_handler.h **** 
 587:Generated_Source\PSoC6\pdl\middleware\ble/cy_ble_event_handler.h ****     /****************************************
 588:Generated_Source\PSoC6\pdl\middleware\ble/cy_ble_event_handler.h ****      * Blood Pressure Service Events
 589:Generated_Source\PSoC6\pdl\middleware\ble/cy_ble_event_handler.h ****      ***************************************/
 590:Generated_Source\PSoC6\pdl\middleware\ble/cy_ble_event_handler.h **** 
 591:Generated_Source\PSoC6\pdl\middleware\ble/cy_ble_event_handler.h ****     /** BLS Server - Indication for Blood Pressure Service Characteristic was enabled.
 592:Generated_Source\PSoC6\pdl\middleware\ble/cy_ble_event_handler.h ****      *  The parameter of this event is a structure of the cy_stc_ble_bls_char_value_t type.
 593:Generated_Source\PSoC6\pdl\middleware\ble/cy_ble_event_handler.h ****      */
 594:Generated_Source\PSoC6\pdl\middleware\ble/cy_ble_event_handler.h ****     CY_BLE_EVT_BLSS_INDICATION_ENABLED,
 595:Generated_Source\PSoC6\pdl\middleware\ble/cy_ble_event_handler.h **** 
 596:Generated_Source\PSoC6\pdl\middleware\ble/cy_ble_event_handler.h ****     /** BLS Server - Indication for Blood Pressure Service Characteristic was
 597:Generated_Source\PSoC6\pdl\middleware\ble/cy_ble_event_handler.h ****      *  disabled. The parameter of this event is a structure of
 598:Generated_Source\PSoC6\pdl\middleware\ble/cy_ble_event_handler.h ****      *  the cy_stc_ble_bls_char_value_t type.
 599:Generated_Source\PSoC6\pdl\middleware\ble/cy_ble_event_handler.h ****      */
 600:Generated_Source\PSoC6\pdl\middleware\ble/cy_ble_event_handler.h ****     CY_BLE_EVT_BLSS_INDICATION_DISABLED,
 601:Generated_Source\PSoC6\pdl\middleware\ble/cy_ble_event_handler.h **** 
 602:Generated_Source\PSoC6\pdl\middleware\ble/cy_ble_event_handler.h ****     /** BLS Server - Blood Pressure Service Characteristic Indication was confirmed.
 603:Generated_Source\PSoC6\pdl\middleware\ble/cy_ble_event_handler.h ****      *  The parameter of this event is a structure of cy_stc_ble_bls_char_value_t type
 604:Generated_Source\PSoC6\pdl\middleware\ble/cy_ble_event_handler.h ****      */
 605:Generated_Source\PSoC6\pdl\middleware\ble/cy_ble_event_handler.h ****     CY_BLE_EVT_BLSS_INDICATION_CONFIRMED,
 606:Generated_Source\PSoC6\pdl\middleware\ble/cy_ble_event_handler.h **** 
 607:Generated_Source\PSoC6\pdl\middleware\ble/cy_ble_event_handler.h ****     /** BLS Server - Notification for Blood Pressure Service Characteristic
 608:Generated_Source\PSoC6\pdl\middleware\ble/cy_ble_event_handler.h ****      *  was enabled. The parameter of this event is a structure of
 609:Generated_Source\PSoC6\pdl\middleware\ble/cy_ble_event_handler.h ****      *  the cy_stc_ble_bls_char_value_t type.
 610:Generated_Source\PSoC6\pdl\middleware\ble/cy_ble_event_handler.h ****      */
 611:Generated_Source\PSoC6\pdl\middleware\ble/cy_ble_event_handler.h ****     CY_BLE_EVT_BLSS_NOTIFICATION_ENABLED,
 612:Generated_Source\PSoC6\pdl\middleware\ble/cy_ble_event_handler.h **** 
 613:Generated_Source\PSoC6\pdl\middleware\ble/cy_ble_event_handler.h ****     /** BLS Server - Notification for Blood Pressure Service Characteristic
 614:Generated_Source\PSoC6\pdl\middleware\ble/cy_ble_event_handler.h ****      *  was disabled. The parameter of this event is a structure of
ARM GAS  C:\Users\fiona\AppData\Local\Temp\cc5GuuYy.s 			page 21


 615:Generated_Source\PSoC6\pdl\middleware\ble/cy_ble_event_handler.h ****      *  the cy_stc_ble_bls_char_value_t type.
 616:Generated_Source\PSoC6\pdl\middleware\ble/cy_ble_event_handler.h ****      */
 617:Generated_Source\PSoC6\pdl\middleware\ble/cy_ble_event_handler.h ****     CY_BLE_EVT_BLSS_NOTIFICATION_DISABLED,
 618:Generated_Source\PSoC6\pdl\middleware\ble/cy_ble_event_handler.h **** 
 619:Generated_Source\PSoC6\pdl\middleware\ble/cy_ble_event_handler.h ****     /** BLS Client - Blood Pressure Service Characteristic Indication was received.
 620:Generated_Source\PSoC6\pdl\middleware\ble/cy_ble_event_handler.h ****      *  The parameter of this event is a structure of the cy_stc_ble_bls_char_value_t type.
 621:Generated_Source\PSoC6\pdl\middleware\ble/cy_ble_event_handler.h ****      */
 622:Generated_Source\PSoC6\pdl\middleware\ble/cy_ble_event_handler.h ****     CY_BLE_EVT_BLSC_INDICATION,
 623:Generated_Source\PSoC6\pdl\middleware\ble/cy_ble_event_handler.h **** 
 624:Generated_Source\PSoC6\pdl\middleware\ble/cy_ble_event_handler.h ****     /** BLS Client - Blood Pressure Service Characteristic Notification was received.
 625:Generated_Source\PSoC6\pdl\middleware\ble/cy_ble_event_handler.h ****      *  The parameter of this event is a structure of the cy_stc_ble_bls_char_value_t type.
 626:Generated_Source\PSoC6\pdl\middleware\ble/cy_ble_event_handler.h ****      */
 627:Generated_Source\PSoC6\pdl\middleware\ble/cy_ble_event_handler.h ****     CY_BLE_EVT_BLSC_NOTIFICATION,
 628:Generated_Source\PSoC6\pdl\middleware\ble/cy_ble_event_handler.h **** 
 629:Generated_Source\PSoC6\pdl\middleware\ble/cy_ble_event_handler.h ****     /** BLS Client - Read Response for Read Request of Blood Pressure Service
 630:Generated_Source\PSoC6\pdl\middleware\ble/cy_ble_event_handler.h ****      *  Characteristic value. The parameter of this event is a structure of
 631:Generated_Source\PSoC6\pdl\middleware\ble/cy_ble_event_handler.h ****      *  the cy_stc_ble_bls_char_value_t type.
 632:Generated_Source\PSoC6\pdl\middleware\ble/cy_ble_event_handler.h ****      */
 633:Generated_Source\PSoC6\pdl\middleware\ble/cy_ble_event_handler.h ****     CY_BLE_EVT_BLSC_READ_CHAR_RESPONSE,
 634:Generated_Source\PSoC6\pdl\middleware\ble/cy_ble_event_handler.h **** 
 635:Generated_Source\PSoC6\pdl\middleware\ble/cy_ble_event_handler.h ****     /** BLS Client - Read Response for Read Request of Blood Pressure Service
 636:Generated_Source\PSoC6\pdl\middleware\ble/cy_ble_event_handler.h ****      *  Characteristic Descriptor Read request. The parameter of this event is a
 637:Generated_Source\PSoC6\pdl\middleware\ble/cy_ble_event_handler.h ****      *  structure of the cy_stc_ble_bls_descr_value_t type.
 638:Generated_Source\PSoC6\pdl\middleware\ble/cy_ble_event_handler.h ****      */
 639:Generated_Source\PSoC6\pdl\middleware\ble/cy_ble_event_handler.h ****     CY_BLE_EVT_BLSC_READ_DESCR_RESPONSE,
 640:Generated_Source\PSoC6\pdl\middleware\ble/cy_ble_event_handler.h **** 
 641:Generated_Source\PSoC6\pdl\middleware\ble/cy_ble_event_handler.h ****     /** BLS Client - Write Response for Write Request of Blood Pressure Service
 642:Generated_Source\PSoC6\pdl\middleware\ble/cy_ble_event_handler.h ****      *  Characteristic Configuration Descriptor value. The parameter of this event
 643:Generated_Source\PSoC6\pdl\middleware\ble/cy_ble_event_handler.h ****      *  is a structure of the cy_stc_ble_bls_descr_value_t type.
 644:Generated_Source\PSoC6\pdl\middleware\ble/cy_ble_event_handler.h ****      */
 645:Generated_Source\PSoC6\pdl\middleware\ble/cy_ble_event_handler.h ****     CY_BLE_EVT_BLSC_WRITE_DESCR_RESPONSE,
 646:Generated_Source\PSoC6\pdl\middleware\ble/cy_ble_event_handler.h **** 
 647:Generated_Source\PSoC6\pdl\middleware\ble/cy_ble_event_handler.h **** 
 648:Generated_Source\PSoC6\pdl\middleware\ble/cy_ble_event_handler.h ****     /****************************************
 649:Generated_Source\PSoC6\pdl\middleware\ble/cy_ble_event_handler.h ****      * Bond Management Service Events
 650:Generated_Source\PSoC6\pdl\middleware\ble/cy_ble_event_handler.h ****      ***************************************/
 651:Generated_Source\PSoC6\pdl\middleware\ble/cy_ble_event_handler.h **** 
 652:Generated_Source\PSoC6\pdl\middleware\ble/cy_ble_event_handler.h ****     /** BMS Server - Write Request for Bond Management
 653:Generated_Source\PSoC6\pdl\middleware\ble/cy_ble_event_handler.h ****      *  was received. The parameter of this event is a structure
 654:Generated_Source\PSoC6\pdl\middleware\ble/cy_ble_event_handler.h ****      *  of the cy_stc_ble_bms_char_value_t type.
 655:Generated_Source\PSoC6\pdl\middleware\ble/cy_ble_event_handler.h ****      */
 656:Generated_Source\PSoC6\pdl\middleware\ble/cy_ble_event_handler.h ****     CY_BLE_EVT_BMSS_WRITE_CHAR,
 657:Generated_Source\PSoC6\pdl\middleware\ble/cy_ble_event_handler.h **** 
 658:Generated_Source\PSoC6\pdl\middleware\ble/cy_ble_event_handler.h ****     /** BMS Client - Read Response for Read Request of Bond Management Service
 659:Generated_Source\PSoC6\pdl\middleware\ble/cy_ble_event_handler.h ****      *  Characteristic value. The parameter of this event is a structure of
 660:Generated_Source\PSoC6\pdl\middleware\ble/cy_ble_event_handler.h ****      *  the cy_stc_ble_bms_char_value_t type.
 661:Generated_Source\PSoC6\pdl\middleware\ble/cy_ble_event_handler.h ****      */
 662:Generated_Source\PSoC6\pdl\middleware\ble/cy_ble_event_handler.h ****     CY_BLE_EVT_BMSC_READ_CHAR_RESPONSE,
 663:Generated_Source\PSoC6\pdl\middleware\ble/cy_ble_event_handler.h **** 
 664:Generated_Source\PSoC6\pdl\middleware\ble/cy_ble_event_handler.h ****     /** BMS Client - Write Response for Write Request of Bond Management
 665:Generated_Source\PSoC6\pdl\middleware\ble/cy_ble_event_handler.h ****      *  Service Characteristic value. The
 666:Generated_Source\PSoC6\pdl\middleware\ble/cy_ble_event_handler.h ****      *  parameter of this event is a structure of
 667:Generated_Source\PSoC6\pdl\middleware\ble/cy_ble_event_handler.h ****      *  the cy_stc_ble_bms_char_value_t type.
 668:Generated_Source\PSoC6\pdl\middleware\ble/cy_ble_event_handler.h ****      */
 669:Generated_Source\PSoC6\pdl\middleware\ble/cy_ble_event_handler.h ****     CY_BLE_EVT_BMSC_WRITE_CHAR_RESPONSE,
 670:Generated_Source\PSoC6\pdl\middleware\ble/cy_ble_event_handler.h **** 
 671:Generated_Source\PSoC6\pdl\middleware\ble/cy_ble_event_handler.h ****     /** BMS Client - Read Response for Read Request of Bond Management Service
ARM GAS  C:\Users\fiona\AppData\Local\Temp\cc5GuuYy.s 			page 22


 672:Generated_Source\PSoC6\pdl\middleware\ble/cy_ble_event_handler.h ****      *  Characteristic Descriptor Read request. The parameter of this event is a
 673:Generated_Source\PSoC6\pdl\middleware\ble/cy_ble_event_handler.h ****      *  structure of cy_stc_ble_bms_descr_value_t type.
 674:Generated_Source\PSoC6\pdl\middleware\ble/cy_ble_event_handler.h ****      */
 675:Generated_Source\PSoC6\pdl\middleware\ble/cy_ble_event_handler.h ****     CY_BLE_EVT_BMSC_READ_DESCR_RESPONSE,
 676:Generated_Source\PSoC6\pdl\middleware\ble/cy_ble_event_handler.h **** 
 677:Generated_Source\PSoC6\pdl\middleware\ble/cy_ble_event_handler.h **** 
 678:Generated_Source\PSoC6\pdl\middleware\ble/cy_ble_event_handler.h ****     /****************************************
 679:Generated_Source\PSoC6\pdl\middleware\ble/cy_ble_event_handler.h ****      * CGM Service Events
 680:Generated_Source\PSoC6\pdl\middleware\ble/cy_ble_event_handler.h ****      ***************************************/
 681:Generated_Source\PSoC6\pdl\middleware\ble/cy_ble_event_handler.h **** 
 682:Generated_Source\PSoC6\pdl\middleware\ble/cy_ble_event_handler.h ****     /** CGMS Server - Indication for Continuous Glucose Monitoring Service Characteristic
 683:Generated_Source\PSoC6\pdl\middleware\ble/cy_ble_event_handler.h ****      *  was enabled. The parameter of this event is a structure
 684:Generated_Source\PSoC6\pdl\middleware\ble/cy_ble_event_handler.h ****      *  of the cy_stc_ble_cgms_char_value_t type.
 685:Generated_Source\PSoC6\pdl\middleware\ble/cy_ble_event_handler.h ****      */
 686:Generated_Source\PSoC6\pdl\middleware\ble/cy_ble_event_handler.h ****     CY_BLE_EVT_CGMSS_INDICATION_ENABLED,
 687:Generated_Source\PSoC6\pdl\middleware\ble/cy_ble_event_handler.h **** 
 688:Generated_Source\PSoC6\pdl\middleware\ble/cy_ble_event_handler.h ****     /** CGMS Server - Indication for Continuous Glucose Monitoring Service Characteristic
 689:Generated_Source\PSoC6\pdl\middleware\ble/cy_ble_event_handler.h ****      *  was disabled. The parameter of this event is a structure
 690:Generated_Source\PSoC6\pdl\middleware\ble/cy_ble_event_handler.h ****      *  of the cy_stc_ble_cgms_char_value_t type.
 691:Generated_Source\PSoC6\pdl\middleware\ble/cy_ble_event_handler.h ****      */
 692:Generated_Source\PSoC6\pdl\middleware\ble/cy_ble_event_handler.h ****     CY_BLE_EVT_CGMSS_INDICATION_DISABLED,
 693:Generated_Source\PSoC6\pdl\middleware\ble/cy_ble_event_handler.h **** 
 694:Generated_Source\PSoC6\pdl\middleware\ble/cy_ble_event_handler.h ****     /** CGMS Server - Continuous Glucose Monitoring Service Characteristic
 695:Generated_Source\PSoC6\pdl\middleware\ble/cy_ble_event_handler.h ****      *  Indication was confirmed. The parameter of this event
 696:Generated_Source\PSoC6\pdl\middleware\ble/cy_ble_event_handler.h ****      *  is a structure of the cy_stc_ble_cgms_char_value_t type.
 697:Generated_Source\PSoC6\pdl\middleware\ble/cy_ble_event_handler.h ****      */
 698:Generated_Source\PSoC6\pdl\middleware\ble/cy_ble_event_handler.h ****     CY_BLE_EVT_CGMSS_INDICATION_CONFIRMED,
 699:Generated_Source\PSoC6\pdl\middleware\ble/cy_ble_event_handler.h **** 
 700:Generated_Source\PSoC6\pdl\middleware\ble/cy_ble_event_handler.h ****     /** CGMS Server - Notification for Continuous Glucose Monitoring Service Characteristic
 701:Generated_Source\PSoC6\pdl\middleware\ble/cy_ble_event_handler.h ****      *  was enabled. The parameter of this event is a structure of
 702:Generated_Source\PSoC6\pdl\middleware\ble/cy_ble_event_handler.h ****      *  the cy_stc_ble_cgms_char_value_t type.
 703:Generated_Source\PSoC6\pdl\middleware\ble/cy_ble_event_handler.h ****      */
 704:Generated_Source\PSoC6\pdl\middleware\ble/cy_ble_event_handler.h ****     CY_BLE_EVT_CGMSS_NOTIFICATION_ENABLED,
 705:Generated_Source\PSoC6\pdl\middleware\ble/cy_ble_event_handler.h **** 
 706:Generated_Source\PSoC6\pdl\middleware\ble/cy_ble_event_handler.h ****     /** CGMS Server - Notification for Continuous Glucose Monitoring Service Characteristic
 707:Generated_Source\PSoC6\pdl\middleware\ble/cy_ble_event_handler.h ****      *  was disabled. The parameter of this event is a structure
 708:Generated_Source\PSoC6\pdl\middleware\ble/cy_ble_event_handler.h ****      *  of the cy_stc_ble_cgms_char_value_t type.
 709:Generated_Source\PSoC6\pdl\middleware\ble/cy_ble_event_handler.h ****      */
 710:Generated_Source\PSoC6\pdl\middleware\ble/cy_ble_event_handler.h ****     CY_BLE_EVT_CGMSS_NOTIFICATION_DISABLED,
 711:Generated_Source\PSoC6\pdl\middleware\ble/cy_ble_event_handler.h **** 
 712:Generated_Source\PSoC6\pdl\middleware\ble/cy_ble_event_handler.h ****     /** CGMS Server - Write Request for Continuous Glucose Monitoring Service
 713:Generated_Source\PSoC6\pdl\middleware\ble/cy_ble_event_handler.h ****      *  was received. The parameter of this event is a structure
 714:Generated_Source\PSoC6\pdl\middleware\ble/cy_ble_event_handler.h ****      *  of the cy_stc_ble_cgms_char_value_t type.
 715:Generated_Source\PSoC6\pdl\middleware\ble/cy_ble_event_handler.h ****      */
 716:Generated_Source\PSoC6\pdl\middleware\ble/cy_ble_event_handler.h ****     CY_BLE_EVT_CGMSS_WRITE_CHAR,
 717:Generated_Source\PSoC6\pdl\middleware\ble/cy_ble_event_handler.h **** 
 718:Generated_Source\PSoC6\pdl\middleware\ble/cy_ble_event_handler.h ****     /** CGMS Client - Continuous Glucose Monitoring Service Characteristic
 719:Generated_Source\PSoC6\pdl\middleware\ble/cy_ble_event_handler.h ****      *  Indication was received. The parameter of this event
 720:Generated_Source\PSoC6\pdl\middleware\ble/cy_ble_event_handler.h ****      *  is a structure of the cy_stc_ble_cgms_char_value_t type.
 721:Generated_Source\PSoC6\pdl\middleware\ble/cy_ble_event_handler.h ****      */
 722:Generated_Source\PSoC6\pdl\middleware\ble/cy_ble_event_handler.h ****     CY_BLE_EVT_CGMSC_INDICATION,
 723:Generated_Source\PSoC6\pdl\middleware\ble/cy_ble_event_handler.h **** 
 724:Generated_Source\PSoC6\pdl\middleware\ble/cy_ble_event_handler.h ****     /** CGMS Client - Continuous Glucose Monitoring Service Characteristic
 725:Generated_Source\PSoC6\pdl\middleware\ble/cy_ble_event_handler.h ****      *  Notification was received. The parameter of this event
 726:Generated_Source\PSoC6\pdl\middleware\ble/cy_ble_event_handler.h ****      *  is a structure of the cy_stc_ble_cgms_char_value_t type.
 727:Generated_Source\PSoC6\pdl\middleware\ble/cy_ble_event_handler.h ****      */
 728:Generated_Source\PSoC6\pdl\middleware\ble/cy_ble_event_handler.h ****     CY_BLE_EVT_CGMSC_NOTIFICATION,
ARM GAS  C:\Users\fiona\AppData\Local\Temp\cc5GuuYy.s 			page 23


 729:Generated_Source\PSoC6\pdl\middleware\ble/cy_ble_event_handler.h **** 
 730:Generated_Source\PSoC6\pdl\middleware\ble/cy_ble_event_handler.h ****     /** CGMS Client - Read Response for Read Request of Continuous Glucose Monitoring
 731:Generated_Source\PSoC6\pdl\middleware\ble/cy_ble_event_handler.h ****      *  Service Characteristic value. The parameter of this event
 732:Generated_Source\PSoC6\pdl\middleware\ble/cy_ble_event_handler.h ****      *  is a structure of the cy_stc_ble_cgms_char_value_t type.
 733:Generated_Source\PSoC6\pdl\middleware\ble/cy_ble_event_handler.h ****      */
 734:Generated_Source\PSoC6\pdl\middleware\ble/cy_ble_event_handler.h ****     CY_BLE_EVT_CGMSC_READ_CHAR_RESPONSE,
 735:Generated_Source\PSoC6\pdl\middleware\ble/cy_ble_event_handler.h **** 
 736:Generated_Source\PSoC6\pdl\middleware\ble/cy_ble_event_handler.h ****     /** CGMS Client - Write Response for Write Request of Continuous Glucose Monitoring
 737:Generated_Source\PSoC6\pdl\middleware\ble/cy_ble_event_handler.h ****      *  Service Characteristic value. The
 738:Generated_Source\PSoC6\pdl\middleware\ble/cy_ble_event_handler.h ****      *  parameter of this event is a structure of
 739:Generated_Source\PSoC6\pdl\middleware\ble/cy_ble_event_handler.h ****      *  the cy_stc_ble_cgms_char_value_t type.
 740:Generated_Source\PSoC6\pdl\middleware\ble/cy_ble_event_handler.h ****      */
 741:Generated_Source\PSoC6\pdl\middleware\ble/cy_ble_event_handler.h ****     CY_BLE_EVT_CGMSC_WRITE_CHAR_RESPONSE,
 742:Generated_Source\PSoC6\pdl\middleware\ble/cy_ble_event_handler.h **** 
 743:Generated_Source\PSoC6\pdl\middleware\ble/cy_ble_event_handler.h ****     /** CGMS Client - Read Response for Read Request of Continuous Glucose Monitoring
 744:Generated_Source\PSoC6\pdl\middleware\ble/cy_ble_event_handler.h ****      *  Service Characteristic Descriptor Read request. The
 745:Generated_Source\PSoC6\pdl\middleware\ble/cy_ble_event_handler.h ****      *  parameter of this event is a structure of
 746:Generated_Source\PSoC6\pdl\middleware\ble/cy_ble_event_handler.h ****      *  the cy_stc_ble_cgms_descr_value_t type.
 747:Generated_Source\PSoC6\pdl\middleware\ble/cy_ble_event_handler.h ****      */
 748:Generated_Source\PSoC6\pdl\middleware\ble/cy_ble_event_handler.h ****     CY_BLE_EVT_CGMSC_READ_DESCR_RESPONSE,
 749:Generated_Source\PSoC6\pdl\middleware\ble/cy_ble_event_handler.h **** 
 750:Generated_Source\PSoC6\pdl\middleware\ble/cy_ble_event_handler.h ****     /** CGMS Client - Write Response for Write Request of Continuous Glucose Monitoring
 751:Generated_Source\PSoC6\pdl\middleware\ble/cy_ble_event_handler.h ****      *  Service Characteristic Configuration Descriptor value.
 752:Generated_Source\PSoC6\pdl\middleware\ble/cy_ble_event_handler.h ****      *  The parameter of this event is a structure of
 753:Generated_Source\PSoC6\pdl\middleware\ble/cy_ble_event_handler.h ****      *  the cy_stc_ble_cgms_descr_value_t type.
 754:Generated_Source\PSoC6\pdl\middleware\ble/cy_ble_event_handler.h ****      */
 755:Generated_Source\PSoC6\pdl\middleware\ble/cy_ble_event_handler.h ****     CY_BLE_EVT_CGMSC_WRITE_DESCR_RESPONSE,
 756:Generated_Source\PSoC6\pdl\middleware\ble/cy_ble_event_handler.h **** 
 757:Generated_Source\PSoC6\pdl\middleware\ble/cy_ble_event_handler.h **** 
 758:Generated_Source\PSoC6\pdl\middleware\ble/cy_ble_event_handler.h ****     /****************************************
 759:Generated_Source\PSoC6\pdl\middleware\ble/cy_ble_event_handler.h ****      * CPS Service Events
 760:Generated_Source\PSoC6\pdl\middleware\ble/cy_ble_event_handler.h ****      ***************************************/
 761:Generated_Source\PSoC6\pdl\middleware\ble/cy_ble_event_handler.h **** 
 762:Generated_Source\PSoC6\pdl\middleware\ble/cy_ble_event_handler.h ****     /** CPS Server - Notification for Cycling Power Service Characteristic
 763:Generated_Source\PSoC6\pdl\middleware\ble/cy_ble_event_handler.h ****      *  was enabled. The parameter of this event is a structure of
 764:Generated_Source\PSoC6\pdl\middleware\ble/cy_ble_event_handler.h ****      *  the cy_stc_ble_cps_char_value_t type.
 765:Generated_Source\PSoC6\pdl\middleware\ble/cy_ble_event_handler.h ****      */
 766:Generated_Source\PSoC6\pdl\middleware\ble/cy_ble_event_handler.h ****     CY_BLE_EVT_CPSS_NOTIFICATION_ENABLED,
 767:Generated_Source\PSoC6\pdl\middleware\ble/cy_ble_event_handler.h **** 
 768:Generated_Source\PSoC6\pdl\middleware\ble/cy_ble_event_handler.h ****     /** CPS Server - Notification for Cycling Power Service Characteristic
 769:Generated_Source\PSoC6\pdl\middleware\ble/cy_ble_event_handler.h ****      *  was disabled. The parameter of this event is a structure
 770:Generated_Source\PSoC6\pdl\middleware\ble/cy_ble_event_handler.h ****      *  of the cy_stc_ble_cps_char_value_t type.
 771:Generated_Source\PSoC6\pdl\middleware\ble/cy_ble_event_handler.h ****      */
 772:Generated_Source\PSoC6\pdl\middleware\ble/cy_ble_event_handler.h ****     CY_BLE_EVT_CPSS_NOTIFICATION_DISABLED,
 773:Generated_Source\PSoC6\pdl\middleware\ble/cy_ble_event_handler.h **** 
 774:Generated_Source\PSoC6\pdl\middleware\ble/cy_ble_event_handler.h ****     /** CPS Server - Indication for Cycling Power Service Characteristic
 775:Generated_Source\PSoC6\pdl\middleware\ble/cy_ble_event_handler.h ****      *  was enabled. The parameter of this event is a structure
 776:Generated_Source\PSoC6\pdl\middleware\ble/cy_ble_event_handler.h ****      *  of the cy_stc_ble_cps_char_value_t type.
 777:Generated_Source\PSoC6\pdl\middleware\ble/cy_ble_event_handler.h ****      */
 778:Generated_Source\PSoC6\pdl\middleware\ble/cy_ble_event_handler.h ****     CY_BLE_EVT_CPSS_INDICATION_ENABLED,
 779:Generated_Source\PSoC6\pdl\middleware\ble/cy_ble_event_handler.h **** 
 780:Generated_Source\PSoC6\pdl\middleware\ble/cy_ble_event_handler.h ****     /** CPS Server - Indication for Cycling Power Service Characteristic
 781:Generated_Source\PSoC6\pdl\middleware\ble/cy_ble_event_handler.h ****      *  was disabled. The parameter of this event is a structure
 782:Generated_Source\PSoC6\pdl\middleware\ble/cy_ble_event_handler.h ****      *  of the cy_stc_ble_cps_char_value_t type.
 783:Generated_Source\PSoC6\pdl\middleware\ble/cy_ble_event_handler.h ****      */
 784:Generated_Source\PSoC6\pdl\middleware\ble/cy_ble_event_handler.h ****     CY_BLE_EVT_CPSS_INDICATION_DISABLED,
 785:Generated_Source\PSoC6\pdl\middleware\ble/cy_ble_event_handler.h **** 
ARM GAS  C:\Users\fiona\AppData\Local\Temp\cc5GuuYy.s 			page 24


 786:Generated_Source\PSoC6\pdl\middleware\ble/cy_ble_event_handler.h ****     /** CPS Server - Cycling Power Service Characteristic
 787:Generated_Source\PSoC6\pdl\middleware\ble/cy_ble_event_handler.h ****      *  Indication was confirmed. The parameter of this event
 788:Generated_Source\PSoC6\pdl\middleware\ble/cy_ble_event_handler.h ****      *  is a structure of the cy_stc_ble_cps_char_value_t type.
 789:Generated_Source\PSoC6\pdl\middleware\ble/cy_ble_event_handler.h ****      */
 790:Generated_Source\PSoC6\pdl\middleware\ble/cy_ble_event_handler.h ****     CY_BLE_EVT_CPSS_INDICATION_CONFIRMED,
 791:Generated_Source\PSoC6\pdl\middleware\ble/cy_ble_event_handler.h **** 
 792:Generated_Source\PSoC6\pdl\middleware\ble/cy_ble_event_handler.h ****     /** CPS Server - Broadcast for Cycling Power Service Characteristic
 793:Generated_Source\PSoC6\pdl\middleware\ble/cy_ble_event_handler.h ****      *  was enabled. The parameter of this event
 794:Generated_Source\PSoC6\pdl\middleware\ble/cy_ble_event_handler.h ****      *  is a structure of the cy_stc_ble_cps_char_value_t type.
 795:Generated_Source\PSoC6\pdl\middleware\ble/cy_ble_event_handler.h ****      */
 796:Generated_Source\PSoC6\pdl\middleware\ble/cy_ble_event_handler.h ****     CY_BLE_EVT_CPSS_BROADCAST_ENABLED,
 797:Generated_Source\PSoC6\pdl\middleware\ble/cy_ble_event_handler.h **** 
 798:Generated_Source\PSoC6\pdl\middleware\ble/cy_ble_event_handler.h ****     /** CPS Server - Broadcast for Cycling Power Service Characteristic
 799:Generated_Source\PSoC6\pdl\middleware\ble/cy_ble_event_handler.h ****      *  was disabled. The parameter of this event
 800:Generated_Source\PSoC6\pdl\middleware\ble/cy_ble_event_handler.h ****      *  is a structure of the cy_stc_ble_cps_char_value_t type.
 801:Generated_Source\PSoC6\pdl\middleware\ble/cy_ble_event_handler.h ****      */
 802:Generated_Source\PSoC6\pdl\middleware\ble/cy_ble_event_handler.h ****     CY_BLE_EVT_CPSS_BROADCAST_DISABLED,
 803:Generated_Source\PSoC6\pdl\middleware\ble/cy_ble_event_handler.h **** 
 804:Generated_Source\PSoC6\pdl\middleware\ble/cy_ble_event_handler.h ****     /** CPS Server - Write Request for Cycling Power Service Characteristic
 805:Generated_Source\PSoC6\pdl\middleware\ble/cy_ble_event_handler.h ****      *  was received. The parameter of this event is a structure
 806:Generated_Source\PSoC6\pdl\middleware\ble/cy_ble_event_handler.h ****      *  of the cy_stc_ble_cps_char_value_t type.
 807:Generated_Source\PSoC6\pdl\middleware\ble/cy_ble_event_handler.h ****      */
 808:Generated_Source\PSoC6\pdl\middleware\ble/cy_ble_event_handler.h ****     CY_BLE_EVT_CPSS_WRITE_CHAR,
 809:Generated_Source\PSoC6\pdl\middleware\ble/cy_ble_event_handler.h **** 
 810:Generated_Source\PSoC6\pdl\middleware\ble/cy_ble_event_handler.h ****     /** CPS Client - Cycling Power Service Characteristic
 811:Generated_Source\PSoC6\pdl\middleware\ble/cy_ble_event_handler.h ****      *  Notification was received. The parameter of this event
 812:Generated_Source\PSoC6\pdl\middleware\ble/cy_ble_event_handler.h ****      *  is a structure of the cy_stc_ble_cps_char_value_t type.
 813:Generated_Source\PSoC6\pdl\middleware\ble/cy_ble_event_handler.h ****      */
 814:Generated_Source\PSoC6\pdl\middleware\ble/cy_ble_event_handler.h ****     CY_BLE_EVT_CPSC_NOTIFICATION,
 815:Generated_Source\PSoC6\pdl\middleware\ble/cy_ble_event_handler.h **** 
 816:Generated_Source\PSoC6\pdl\middleware\ble/cy_ble_event_handler.h ****     /** CPS Client - Cycling Power Service Characteristic
 817:Generated_Source\PSoC6\pdl\middleware\ble/cy_ble_event_handler.h ****      *  Indication was received. The parameter of this event
 818:Generated_Source\PSoC6\pdl\middleware\ble/cy_ble_event_handler.h ****      *  is a structure of the cy_stc_ble_cps_char_value_t type.
 819:Generated_Source\PSoC6\pdl\middleware\ble/cy_ble_event_handler.h ****      */
 820:Generated_Source\PSoC6\pdl\middleware\ble/cy_ble_event_handler.h ****     CY_BLE_EVT_CPSC_INDICATION,
 821:Generated_Source\PSoC6\pdl\middleware\ble/cy_ble_event_handler.h **** 
 822:Generated_Source\PSoC6\pdl\middleware\ble/cy_ble_event_handler.h ****     /** CPS Client - Read Response for Read Request of Cycling Power Service
 823:Generated_Source\PSoC6\pdl\middleware\ble/cy_ble_event_handler.h ****      *  Characteristic value. The parameter of this event
 824:Generated_Source\PSoC6\pdl\middleware\ble/cy_ble_event_handler.h ****      *  is a structure of the cy_stc_ble_cps_char_value_t type.
 825:Generated_Source\PSoC6\pdl\middleware\ble/cy_ble_event_handler.h ****      */
 826:Generated_Source\PSoC6\pdl\middleware\ble/cy_ble_event_handler.h ****     CY_BLE_EVT_CPSC_READ_CHAR_RESPONSE,
 827:Generated_Source\PSoC6\pdl\middleware\ble/cy_ble_event_handler.h **** 
 828:Generated_Source\PSoC6\pdl\middleware\ble/cy_ble_event_handler.h ****     /** CPS Client - Write Response for Write Request of Cycling Power Service
 829:Generated_Source\PSoC6\pdl\middleware\ble/cy_ble_event_handler.h ****      *  Characteristic value. The parameter of this event
 830:Generated_Source\PSoC6\pdl\middleware\ble/cy_ble_event_handler.h ****      *  is a structure of the cy_stc_ble_cps_char_value_t type.
 831:Generated_Source\PSoC6\pdl\middleware\ble/cy_ble_event_handler.h ****      */
 832:Generated_Source\PSoC6\pdl\middleware\ble/cy_ble_event_handler.h ****     CY_BLE_EVT_CPSC_WRITE_CHAR_RESPONSE,
 833:Generated_Source\PSoC6\pdl\middleware\ble/cy_ble_event_handler.h **** 
 834:Generated_Source\PSoC6\pdl\middleware\ble/cy_ble_event_handler.h ****     /** CPS Client - Read Response for Read Request of Cycling Power
 835:Generated_Source\PSoC6\pdl\middleware\ble/cy_ble_event_handler.h ****      *  Service Characteristic Descriptor Read request. The
 836:Generated_Source\PSoC6\pdl\middleware\ble/cy_ble_event_handler.h ****      *  parameter of this event is a structure of
 837:Generated_Source\PSoC6\pdl\middleware\ble/cy_ble_event_handler.h ****      *  the cy_stc_ble_cps_descr_value_t type.
 838:Generated_Source\PSoC6\pdl\middleware\ble/cy_ble_event_handler.h ****      */
 839:Generated_Source\PSoC6\pdl\middleware\ble/cy_ble_event_handler.h ****     CY_BLE_EVT_CPSC_READ_DESCR_RESPONSE,
 840:Generated_Source\PSoC6\pdl\middleware\ble/cy_ble_event_handler.h **** 
 841:Generated_Source\PSoC6\pdl\middleware\ble/cy_ble_event_handler.h ****     /** CPS Client - Write Response for Write Request of Cycling Power
 842:Generated_Source\PSoC6\pdl\middleware\ble/cy_ble_event_handler.h ****      *  Service Characteristic Configuration Descriptor value.
ARM GAS  C:\Users\fiona\AppData\Local\Temp\cc5GuuYy.s 			page 25


 843:Generated_Source\PSoC6\pdl\middleware\ble/cy_ble_event_handler.h ****      *  The parameter of this event is a structure of
 844:Generated_Source\PSoC6\pdl\middleware\ble/cy_ble_event_handler.h ****      *  the cy_stc_ble_cps_descr_value_t type.
 845:Generated_Source\PSoC6\pdl\middleware\ble/cy_ble_event_handler.h ****      */
 846:Generated_Source\PSoC6\pdl\middleware\ble/cy_ble_event_handler.h ****     CY_BLE_EVT_CPSC_WRITE_DESCR_RESPONSE,
 847:Generated_Source\PSoC6\pdl\middleware\ble/cy_ble_event_handler.h **** 
 848:Generated_Source\PSoC6\pdl\middleware\ble/cy_ble_event_handler.h ****     /** CPS Client - This event is triggered every time a device receive
 849:Generated_Source\PSoC6\pdl\middleware\ble/cy_ble_event_handler.h ****      *  non-connectable undirected advertising event.
 850:Generated_Source\PSoC6\pdl\middleware\ble/cy_ble_event_handler.h ****      *  The parameter of this event is a structure of
 851:Generated_Source\PSoC6\pdl\middleware\ble/cy_ble_event_handler.h ****      *  the cy_stc_ble_cps_char_value_t type.
 852:Generated_Source\PSoC6\pdl\middleware\ble/cy_ble_event_handler.h ****      */
 853:Generated_Source\PSoC6\pdl\middleware\ble/cy_ble_event_handler.h ****     CY_BLE_EVT_CPSC_SCAN_PROGRESS_RESULT,
 854:Generated_Source\PSoC6\pdl\middleware\ble/cy_ble_event_handler.h **** 
 855:Generated_Source\PSoC6\pdl\middleware\ble/cy_ble_event_handler.h ****     /** CPS Client - Cycling Power CP procedure timeout was received. The parameter
 856:Generated_Source\PSoC6\pdl\middleware\ble/cy_ble_event_handler.h ****      *  of this event is a structure of the cy_stc_ble_cps_char_value_t type.
 857:Generated_Source\PSoC6\pdl\middleware\ble/cy_ble_event_handler.h ****      */
 858:Generated_Source\PSoC6\pdl\middleware\ble/cy_ble_event_handler.h ****     CY_BLE_EVT_CPSC_TIMEOUT,
 859:Generated_Source\PSoC6\pdl\middleware\ble/cy_ble_event_handler.h **** 
 860:Generated_Source\PSoC6\pdl\middleware\ble/cy_ble_event_handler.h ****     /****************************************
 861:Generated_Source\PSoC6\pdl\middleware\ble/cy_ble_event_handler.h ****      * Cycling Speed and Cadence Service Events
 862:Generated_Source\PSoC6\pdl\middleware\ble/cy_ble_event_handler.h ****      ***************************************/
 863:Generated_Source\PSoC6\pdl\middleware\ble/cy_ble_event_handler.h **** 
 864:Generated_Source\PSoC6\pdl\middleware\ble/cy_ble_event_handler.h ****     /** CSCS Server - Notification for Cycling Speed and Cadence Service
 865:Generated_Source\PSoC6\pdl\middleware\ble/cy_ble_event_handler.h ****      *  Characteristic was enabled. The parameter of this event is a structure of
 866:Generated_Source\PSoC6\pdl\middleware\ble/cy_ble_event_handler.h ****      *  the cy_stc_ble_cscs_char_value_t type.
 867:Generated_Source\PSoC6\pdl\middleware\ble/cy_ble_event_handler.h ****      */
 868:Generated_Source\PSoC6\pdl\middleware\ble/cy_ble_event_handler.h ****     CY_BLE_EVT_CSCSS_NOTIFICATION_ENABLED,
 869:Generated_Source\PSoC6\pdl\middleware\ble/cy_ble_event_handler.h **** 
 870:Generated_Source\PSoC6\pdl\middleware\ble/cy_ble_event_handler.h ****     /** CSCS Server - Notification for Cycling Speed and Cadence Service
 871:Generated_Source\PSoC6\pdl\middleware\ble/cy_ble_event_handler.h ****      *  Characteristic was disabled. The parameter of this event is a structure of
 872:Generated_Source\PSoC6\pdl\middleware\ble/cy_ble_event_handler.h ****      *  the cy_stc_ble_cscs_char_value_t type.
 873:Generated_Source\PSoC6\pdl\middleware\ble/cy_ble_event_handler.h ****      */
 874:Generated_Source\PSoC6\pdl\middleware\ble/cy_ble_event_handler.h ****     CY_BLE_EVT_CSCSS_NOTIFICATION_DISABLED,
 875:Generated_Source\PSoC6\pdl\middleware\ble/cy_ble_event_handler.h **** 
 876:Generated_Source\PSoC6\pdl\middleware\ble/cy_ble_event_handler.h ****     /** CSCS Server - Indication for Cycling Speed and Cadence Service Characteristic
 877:Generated_Source\PSoC6\pdl\middleware\ble/cy_ble_event_handler.h ****      *  was enabled. The parameter of this event is a structure of
 878:Generated_Source\PSoC6\pdl\middleware\ble/cy_ble_event_handler.h ****      *  the cy_stc_ble_cscs_char_value_t type.
 879:Generated_Source\PSoC6\pdl\middleware\ble/cy_ble_event_handler.h ****      */
 880:Generated_Source\PSoC6\pdl\middleware\ble/cy_ble_event_handler.h ****     CY_BLE_EVT_CSCSS_INDICATION_ENABLED,
 881:Generated_Source\PSoC6\pdl\middleware\ble/cy_ble_event_handler.h **** 
 882:Generated_Source\PSoC6\pdl\middleware\ble/cy_ble_event_handler.h ****     /** CSCS Server - Indication for Cycling Speed and Cadence Service Characteristic
 883:Generated_Source\PSoC6\pdl\middleware\ble/cy_ble_event_handler.h ****      *  was disabled. The parameter of this event is a structure of
 884:Generated_Source\PSoC6\pdl\middleware\ble/cy_ble_event_handler.h ****      *  the cy_stc_ble_cscs_char_value_t type.
 885:Generated_Source\PSoC6\pdl\middleware\ble/cy_ble_event_handler.h ****      */
 886:Generated_Source\PSoC6\pdl\middleware\ble/cy_ble_event_handler.h ****     CY_BLE_EVT_CSCSS_INDICATION_DISABLED,
 887:Generated_Source\PSoC6\pdl\middleware\ble/cy_ble_event_handler.h **** 
 888:Generated_Source\PSoC6\pdl\middleware\ble/cy_ble_event_handler.h ****     /** CSCS Server - Cycling Speed and Cadence Service Characteristic
 889:Generated_Source\PSoC6\pdl\middleware\ble/cy_ble_event_handler.h ****      *  Indication was confirmed. The parameter of this event is a structure of
 890:Generated_Source\PSoC6\pdl\middleware\ble/cy_ble_event_handler.h ****      *  the cy_stc_ble_cscs_char_value_t type.
 891:Generated_Source\PSoC6\pdl\middleware\ble/cy_ble_event_handler.h ****      */
 892:Generated_Source\PSoC6\pdl\middleware\ble/cy_ble_event_handler.h ****     CY_BLE_EVT_CSCSS_INDICATION_CONFIRMATION,
 893:Generated_Source\PSoC6\pdl\middleware\ble/cy_ble_event_handler.h **** 
 894:Generated_Source\PSoC6\pdl\middleware\ble/cy_ble_event_handler.h ****     /** CSCS Server - Write Request for Cycling Speed and Cadence Service
 895:Generated_Source\PSoC6\pdl\middleware\ble/cy_ble_event_handler.h ****      *  Characteristic was received. The parameter of this event is a structure of
 896:Generated_Source\PSoC6\pdl\middleware\ble/cy_ble_event_handler.h ****      *  the cy_stc_ble_cscs_char_value_t type.
 897:Generated_Source\PSoC6\pdl\middleware\ble/cy_ble_event_handler.h ****      */
 898:Generated_Source\PSoC6\pdl\middleware\ble/cy_ble_event_handler.h ****     CY_BLE_EVT_CSCSS_WRITE_CHAR,
 899:Generated_Source\PSoC6\pdl\middleware\ble/cy_ble_event_handler.h **** 
ARM GAS  C:\Users\fiona\AppData\Local\Temp\cc5GuuYy.s 			page 26


 900:Generated_Source\PSoC6\pdl\middleware\ble/cy_ble_event_handler.h ****     /** CSCS Client - Cycling Speed and Cadence Service Characteristic
 901:Generated_Source\PSoC6\pdl\middleware\ble/cy_ble_event_handler.h ****      *  Notification was received. The parameter of this event is a structure of
 902:Generated_Source\PSoC6\pdl\middleware\ble/cy_ble_event_handler.h ****      *  the cy_stc_ble_cscs_char_value_t type.
 903:Generated_Source\PSoC6\pdl\middleware\ble/cy_ble_event_handler.h ****      */
 904:Generated_Source\PSoC6\pdl\middleware\ble/cy_ble_event_handler.h ****     CY_BLE_EVT_CSCSC_NOTIFICATION,
 905:Generated_Source\PSoC6\pdl\middleware\ble/cy_ble_event_handler.h **** 
 906:Generated_Source\PSoC6\pdl\middleware\ble/cy_ble_event_handler.h ****     /** CSCS Client - Cycling Speed and Cadence Service Characteristic
 907:Generated_Source\PSoC6\pdl\middleware\ble/cy_ble_event_handler.h ****      *  Indication was received. The parameter of this event is a structure of
 908:Generated_Source\PSoC6\pdl\middleware\ble/cy_ble_event_handler.h ****      *  the cy_stc_ble_cscs_char_value_t type.
 909:Generated_Source\PSoC6\pdl\middleware\ble/cy_ble_event_handler.h ****      */
 910:Generated_Source\PSoC6\pdl\middleware\ble/cy_ble_event_handler.h ****     CY_BLE_EVT_CSCSC_INDICATION,
 911:Generated_Source\PSoC6\pdl\middleware\ble/cy_ble_event_handler.h **** 
 912:Generated_Source\PSoC6\pdl\middleware\ble/cy_ble_event_handler.h ****     /** CSCS Client - Read Response for Read Request of Cycling Speed and Cadence
 913:Generated_Source\PSoC6\pdl\middleware\ble/cy_ble_event_handler.h ****      *  Service Characteristic value. The parameter of this event is a structure of
 914:Generated_Source\PSoC6\pdl\middleware\ble/cy_ble_event_handler.h ****      *  the cy_stc_ble_cscs_char_value_t type.
 915:Generated_Source\PSoC6\pdl\middleware\ble/cy_ble_event_handler.h ****      */
 916:Generated_Source\PSoC6\pdl\middleware\ble/cy_ble_event_handler.h ****     CY_BLE_EVT_CSCSC_READ_CHAR_RESPONSE,
 917:Generated_Source\PSoC6\pdl\middleware\ble/cy_ble_event_handler.h **** 
 918:Generated_Source\PSoC6\pdl\middleware\ble/cy_ble_event_handler.h ****     /** CSCS Client - Write Response for Write Request of Cycling Speed and Cadence
 919:Generated_Source\PSoC6\pdl\middleware\ble/cy_ble_event_handler.h ****      *  Service Characteristic value. The parameter of this event is a structure of
 920:Generated_Source\PSoC6\pdl\middleware\ble/cy_ble_event_handler.h ****      *  the cy_stc_ble_cscs_char_value_t type.
 921:Generated_Source\PSoC6\pdl\middleware\ble/cy_ble_event_handler.h ****      */
 922:Generated_Source\PSoC6\pdl\middleware\ble/cy_ble_event_handler.h ****     CY_BLE_EVT_CSCSC_WRITE_CHAR_RESPONSE,
 923:Generated_Source\PSoC6\pdl\middleware\ble/cy_ble_event_handler.h **** 
 924:Generated_Source\PSoC6\pdl\middleware\ble/cy_ble_event_handler.h ****     /** CSCS Client - Read Response for Read Request of Cycling Speed and Cadence
 925:Generated_Source\PSoC6\pdl\middleware\ble/cy_ble_event_handler.h ****      *  Service Characteristic Descriptor Read request. The parameter of this event
 926:Generated_Source\PSoC6\pdl\middleware\ble/cy_ble_event_handler.h ****      *  is a structure of the cy_stc_ble_cscs_descr_value_t type.
 927:Generated_Source\PSoC6\pdl\middleware\ble/cy_ble_event_handler.h ****      */
 928:Generated_Source\PSoC6\pdl\middleware\ble/cy_ble_event_handler.h ****     CY_BLE_EVT_CSCSC_READ_DESCR_RESPONSE,
 929:Generated_Source\PSoC6\pdl\middleware\ble/cy_ble_event_handler.h **** 
 930:Generated_Source\PSoC6\pdl\middleware\ble/cy_ble_event_handler.h ****     /** CSCS Client - Write Response for Write Request of Cycling Speed and Cadence
 931:Generated_Source\PSoC6\pdl\middleware\ble/cy_ble_event_handler.h ****      *  Service Characteristic Configuration Descriptor value. The parameter of
 932:Generated_Source\PSoC6\pdl\middleware\ble/cy_ble_event_handler.h ****      *  this event is a structure of  the cy_stc_ble_cscs_descr_value_t type.
 933:Generated_Source\PSoC6\pdl\middleware\ble/cy_ble_event_handler.h ****      */
 934:Generated_Source\PSoC6\pdl\middleware\ble/cy_ble_event_handler.h ****     CY_BLE_EVT_CSCSC_WRITE_DESCR_RESPONSE,
 935:Generated_Source\PSoC6\pdl\middleware\ble/cy_ble_event_handler.h **** 
 936:Generated_Source\PSoC6\pdl\middleware\ble/cy_ble_event_handler.h **** 
 937:Generated_Source\PSoC6\pdl\middleware\ble/cy_ble_event_handler.h ****     /****************************************
 938:Generated_Source\PSoC6\pdl\middleware\ble/cy_ble_event_handler.h ****      * Current Time Service Events
 939:Generated_Source\PSoC6\pdl\middleware\ble/cy_ble_event_handler.h ****      ***************************************/
 940:Generated_Source\PSoC6\pdl\middleware\ble/cy_ble_event_handler.h **** 
 941:Generated_Source\PSoC6\pdl\middleware\ble/cy_ble_event_handler.h ****     /** CTS Server - Notification for Current Time Characteristic was enabled. The
 942:Generated_Source\PSoC6\pdl\middleware\ble/cy_ble_event_handler.h ****      *  parameter of this event is a structure of the cy_stc_ble_cts_char_value_t type.
 943:Generated_Source\PSoC6\pdl\middleware\ble/cy_ble_event_handler.h ****      */
 944:Generated_Source\PSoC6\pdl\middleware\ble/cy_ble_event_handler.h ****     CY_BLE_EVT_CTSS_NOTIFICATION_ENABLED,
 945:Generated_Source\PSoC6\pdl\middleware\ble/cy_ble_event_handler.h **** 
 946:Generated_Source\PSoC6\pdl\middleware\ble/cy_ble_event_handler.h ****     /** CTS Server - Notification for Current Time Characteristic was disabled. The
 947:Generated_Source\PSoC6\pdl\middleware\ble/cy_ble_event_handler.h ****      *  parameter of this event is a structure of the cy_stc_ble_cts_char_value_t type.
 948:Generated_Source\PSoC6\pdl\middleware\ble/cy_ble_event_handler.h ****      */
 949:Generated_Source\PSoC6\pdl\middleware\ble/cy_ble_event_handler.h ****     CY_BLE_EVT_CTSS_NOTIFICATION_DISABLED,
 950:Generated_Source\PSoC6\pdl\middleware\ble/cy_ble_event_handler.h **** 
 951:Generated_Source\PSoC6\pdl\middleware\ble/cy_ble_event_handler.h ****     /** CTS Server - Write Request for Current Time Service
 952:Generated_Source\PSoC6\pdl\middleware\ble/cy_ble_event_handler.h ****      *  Characteristic was received. The parameter of this event is a structure of
 953:Generated_Source\PSoC6\pdl\middleware\ble/cy_ble_event_handler.h ****      *  the cy_stc_ble_cts_char_value_t type. When this event is received, the user is
 954:Generated_Source\PSoC6\pdl\middleware\ble/cy_ble_event_handler.h ****      *  responsible for performing any kind of data verification and writing the
 955:Generated_Source\PSoC6\pdl\middleware\ble/cy_ble_event_handler.h ****      *  data to the GATT database in case of successful verification or setting
 956:Generated_Source\PSoC6\pdl\middleware\ble/cy_ble_event_handler.h ****      *  the error if data verification fails.
ARM GAS  C:\Users\fiona\AppData\Local\Temp\cc5GuuYy.s 			page 27


 957:Generated_Source\PSoC6\pdl\middleware\ble/cy_ble_event_handler.h ****      */
 958:Generated_Source\PSoC6\pdl\middleware\ble/cy_ble_event_handler.h ****     CY_BLE_EVT_CTSS_WRITE_CHAR,
 959:Generated_Source\PSoC6\pdl\middleware\ble/cy_ble_event_handler.h **** 
 960:Generated_Source\PSoC6\pdl\middleware\ble/cy_ble_event_handler.h ****     /** CTS Client - Current Time Characteristic Notification was received. The
 961:Generated_Source\PSoC6\pdl\middleware\ble/cy_ble_event_handler.h ****      *  parameter of this event is a structure of the cy_stc_ble_cts_char_value_t type.
 962:Generated_Source\PSoC6\pdl\middleware\ble/cy_ble_event_handler.h ****      */
 963:Generated_Source\PSoC6\pdl\middleware\ble/cy_ble_event_handler.h ****     CY_BLE_EVT_CTSC_NOTIFICATION,
 964:Generated_Source\PSoC6\pdl\middleware\ble/cy_ble_event_handler.h **** 
 965:Generated_Source\PSoC6\pdl\middleware\ble/cy_ble_event_handler.h ****     /** CTS Client - Read Response for Current Time Characteristic
 966:Generated_Source\PSoC6\pdl\middleware\ble/cy_ble_event_handler.h ****      *  Value Read Request. The parameter of this event is a
 967:Generated_Source\PSoC6\pdl\middleware\ble/cy_ble_event_handler.h ****      *  structure of the cy_stc_ble_cts_char_value_t type.
 968:Generated_Source\PSoC6\pdl\middleware\ble/cy_ble_event_handler.h ****      */
 969:Generated_Source\PSoC6\pdl\middleware\ble/cy_ble_event_handler.h ****     CY_BLE_EVT_CTSC_READ_CHAR_RESPONSE,
 970:Generated_Source\PSoC6\pdl\middleware\ble/cy_ble_event_handler.h **** 
 971:Generated_Source\PSoC6\pdl\middleware\ble/cy_ble_event_handler.h ****     /** CTS Client - Read Response for Current Time Client
 972:Generated_Source\PSoC6\pdl\middleware\ble/cy_ble_event_handler.h ****      *  Characteristic Configuration Descriptor Value Read
 973:Generated_Source\PSoC6\pdl\middleware\ble/cy_ble_event_handler.h ****      *  Request. The parameter of this event is a
 974:Generated_Source\PSoC6\pdl\middleware\ble/cy_ble_event_handler.h ****      *  structure of the cy_stc_ble_cts_descr_value_t type.
 975:Generated_Source\PSoC6\pdl\middleware\ble/cy_ble_event_handler.h ****      */
 976:Generated_Source\PSoC6\pdl\middleware\ble/cy_ble_event_handler.h ****     CY_BLE_EVT_CTSC_READ_DESCR_RESPONSE,
 977:Generated_Source\PSoC6\pdl\middleware\ble/cy_ble_event_handler.h **** 
 978:Generated_Source\PSoC6\pdl\middleware\ble/cy_ble_event_handler.h ****     /** CTS Client - Write Response for Current Time Characteristic
 979:Generated_Source\PSoC6\pdl\middleware\ble/cy_ble_event_handler.h ****      *  Configuration Descriptor Value. The parameter of this
 980:Generated_Source\PSoC6\pdl\middleware\ble/cy_ble_event_handler.h ****      *  event is a structure of the cy_stc_ble_cts_descr_value_t type.
 981:Generated_Source\PSoC6\pdl\middleware\ble/cy_ble_event_handler.h ****      */
 982:Generated_Source\PSoC6\pdl\middleware\ble/cy_ble_event_handler.h ****     CY_BLE_EVT_CTSC_WRITE_DESCR_RESPONSE,
 983:Generated_Source\PSoC6\pdl\middleware\ble/cy_ble_event_handler.h **** 
 984:Generated_Source\PSoC6\pdl\middleware\ble/cy_ble_event_handler.h ****     /** CTS Client - Write Response for Current Time or Local
 985:Generated_Source\PSoC6\pdl\middleware\ble/cy_ble_event_handler.h ****      *  Time Information Characteristic Value. The parameter of this
 986:Generated_Source\PSoC6\pdl\middleware\ble/cy_ble_event_handler.h ****      *  event is a structure of the cy_stc_ble_cts_descr_value_t type.
 987:Generated_Source\PSoC6\pdl\middleware\ble/cy_ble_event_handler.h ****      */
 988:Generated_Source\PSoC6\pdl\middleware\ble/cy_ble_event_handler.h ****     CY_BLE_EVT_CTSC_WRITE_CHAR_RESPONSE,
 989:Generated_Source\PSoC6\pdl\middleware\ble/cy_ble_event_handler.h **** 
 990:Generated_Source\PSoC6\pdl\middleware\ble/cy_ble_event_handler.h ****     /****************************************
 991:Generated_Source\PSoC6\pdl\middleware\ble/cy_ble_event_handler.h ****      * DIS Service Events
 992:Generated_Source\PSoC6\pdl\middleware\ble/cy_ble_event_handler.h ****      ***************************************/
 993:Generated_Source\PSoC6\pdl\middleware\ble/cy_ble_event_handler.h **** 
 994:Generated_Source\PSoC6\pdl\middleware\ble/cy_ble_event_handler.h ****     /** DIS Client - Read Response for a Read Request for a
 995:Generated_Source\PSoC6\pdl\middleware\ble/cy_ble_event_handler.h ****      *  Device Information Service Characteristic. The parameter of this
 996:Generated_Source\PSoC6\pdl\middleware\ble/cy_ble_event_handler.h ****      *  event is a structure of the cy_stc_ble_dis_char_value_t type.
 997:Generated_Source\PSoC6\pdl\middleware\ble/cy_ble_event_handler.h ****      */
 998:Generated_Source\PSoC6\pdl\middleware\ble/cy_ble_event_handler.h ****     CY_BLE_EVT_DISC_READ_CHAR_RESPONSE,
 999:Generated_Source\PSoC6\pdl\middleware\ble/cy_ble_event_handler.h **** 
1000:Generated_Source\PSoC6\pdl\middleware\ble/cy_ble_event_handler.h **** 
1001:Generated_Source\PSoC6\pdl\middleware\ble/cy_ble_event_handler.h ****     /****************************************
1002:Generated_Source\PSoC6\pdl\middleware\ble/cy_ble_event_handler.h ****      * Environmental Sensing Service Events
1003:Generated_Source\PSoC6\pdl\middleware\ble/cy_ble_event_handler.h ****      ***************************************/
1004:Generated_Source\PSoC6\pdl\middleware\ble/cy_ble_event_handler.h **** 
1005:Generated_Source\PSoC6\pdl\middleware\ble/cy_ble_event_handler.h ****     /** ESS Server - Notification for Environmental Sensing Service
1006:Generated_Source\PSoC6\pdl\middleware\ble/cy_ble_event_handler.h ****      *  Characteristic was enabled. The parameter of this event is a structure of
1007:Generated_Source\PSoC6\pdl\middleware\ble/cy_ble_event_handler.h ****      *  cy_stc_ble_ess_char_value_t type.
1008:Generated_Source\PSoC6\pdl\middleware\ble/cy_ble_event_handler.h ****      */
1009:Generated_Source\PSoC6\pdl\middleware\ble/cy_ble_event_handler.h ****     CY_BLE_EVT_ESSS_NOTIFICATION_ENABLED,
1010:Generated_Source\PSoC6\pdl\middleware\ble/cy_ble_event_handler.h **** 
1011:Generated_Source\PSoC6\pdl\middleware\ble/cy_ble_event_handler.h ****     /** ESS Server - Notification for Environmental Sensing Service
1012:Generated_Source\PSoC6\pdl\middleware\ble/cy_ble_event_handler.h ****      *  Characteristic was disabled. The parameter of this event is a structure of
1013:Generated_Source\PSoC6\pdl\middleware\ble/cy_ble_event_handler.h ****      *  cy_stc_ble_ess_char_value_t type.
ARM GAS  C:\Users\fiona\AppData\Local\Temp\cc5GuuYy.s 			page 28


1014:Generated_Source\PSoC6\pdl\middleware\ble/cy_ble_event_handler.h ****      */
1015:Generated_Source\PSoC6\pdl\middleware\ble/cy_ble_event_handler.h ****     CY_BLE_EVT_ESSS_NOTIFICATION_DISABLED,
1016:Generated_Source\PSoC6\pdl\middleware\ble/cy_ble_event_handler.h **** 
1017:Generated_Source\PSoC6\pdl\middleware\ble/cy_ble_event_handler.h ****     /** ESS Server - Indication for Environmental Sensing Service Characteristic
1018:Generated_Source\PSoC6\pdl\middleware\ble/cy_ble_event_handler.h ****      *  was enabled. The parameter of this event is a structure of
1019:Generated_Source\PSoC6\pdl\middleware\ble/cy_ble_event_handler.h ****      *  the cy_stc_ble_ess_char_value_t type.
1020:Generated_Source\PSoC6\pdl\middleware\ble/cy_ble_event_handler.h ****      */
1021:Generated_Source\PSoC6\pdl\middleware\ble/cy_ble_event_handler.h ****     CY_BLE_EVT_ESSS_INDICATION_ENABLED,
1022:Generated_Source\PSoC6\pdl\middleware\ble/cy_ble_event_handler.h **** 
1023:Generated_Source\PSoC6\pdl\middleware\ble/cy_ble_event_handler.h ****     /** ESS Server - Indication for Environmental Sensing Service Characteristic
1024:Generated_Source\PSoC6\pdl\middleware\ble/cy_ble_event_handler.h ****      *  was disabled. The parameter of this event is a structure of
1025:Generated_Source\PSoC6\pdl\middleware\ble/cy_ble_event_handler.h ****      *  cy_stc_ble_ess_char_value_t type.
1026:Generated_Source\PSoC6\pdl\middleware\ble/cy_ble_event_handler.h ****      */
1027:Generated_Source\PSoC6\pdl\middleware\ble/cy_ble_event_handler.h ****     CY_BLE_EVT_ESSS_INDICATION_DISABLED,
1028:Generated_Source\PSoC6\pdl\middleware\ble/cy_ble_event_handler.h **** 
1029:Generated_Source\PSoC6\pdl\middleware\ble/cy_ble_event_handler.h ****     /** ESS Server - Environmental Sensing Service Characteristic
1030:Generated_Source\PSoC6\pdl\middleware\ble/cy_ble_event_handler.h ****      *  Indication was confirmed. The parameter of this event is a structure of
1031:Generated_Source\PSoC6\pdl\middleware\ble/cy_ble_event_handler.h ****      *  cy_stc_ble_ess_char_value_t type.
1032:Generated_Source\PSoC6\pdl\middleware\ble/cy_ble_event_handler.h ****      */
1033:Generated_Source\PSoC6\pdl\middleware\ble/cy_ble_event_handler.h ****     CY_BLE_EVT_ESSS_INDICATION_CONFIRMATION,
1034:Generated_Source\PSoC6\pdl\middleware\ble/cy_ble_event_handler.h **** 
1035:Generated_Source\PSoC6\pdl\middleware\ble/cy_ble_event_handler.h ****     /** ESS Server - Write Request for Environmental Sensing Service
1036:Generated_Source\PSoC6\pdl\middleware\ble/cy_ble_event_handler.h ****      *  Characteristic was received. The parameter of this event is a structure of
1037:Generated_Source\PSoC6\pdl\middleware\ble/cy_ble_event_handler.h ****      *  the cy_stc_ble_ess_char_value_t type.
1038:Generated_Source\PSoC6\pdl\middleware\ble/cy_ble_event_handler.h ****      */
1039:Generated_Source\PSoC6\pdl\middleware\ble/cy_ble_event_handler.h ****     CY_BLE_EVT_ESSS_WRITE_CHAR,
1040:Generated_Source\PSoC6\pdl\middleware\ble/cy_ble_event_handler.h **** 
1041:Generated_Source\PSoC6\pdl\middleware\ble/cy_ble_event_handler.h ****     /** ESS Server - Write Request for Environmental Sensing Service
1042:Generated_Source\PSoC6\pdl\middleware\ble/cy_ble_event_handler.h ****      *  Characteristic Descriptor was received. The parameter of this event is a structure of
1043:Generated_Source\PSoC6\pdl\middleware\ble/cy_ble_event_handler.h ****      *  the cy_stc_ble_ess_descr_value_t type. This event is generated only when write for
1044:Generated_Source\PSoC6\pdl\middleware\ble/cy_ble_event_handler.h ****      *  #CY_BLE_ESS_ES_TRIGGER_SETTINGS_DESCR1, #CY_BLE_ESS_ES_TRIGGER_SETTINGS_DESCR2, 
1045:Generated_Source\PSoC6\pdl\middleware\ble/cy_ble_event_handler.h ****      *  #CY_BLE_ESS_ES_TRIGGER_SETTINGS_DESCR3 or CY_BLE_ESS_ES_CONFIG_DESCR occurs.
1046:Generated_Source\PSoC6\pdl\middleware\ble/cy_ble_event_handler.h ****      */
1047:Generated_Source\PSoC6\pdl\middleware\ble/cy_ble_event_handler.h ****     CY_BLE_EVT_ESSS_DESCR_WRITE,
1048:Generated_Source\PSoC6\pdl\middleware\ble/cy_ble_event_handler.h **** 
1049:Generated_Source\PSoC6\pdl\middleware\ble/cy_ble_event_handler.h ****     /** ESS Client - Environmental Sensing Service Characteristic
1050:Generated_Source\PSoC6\pdl\middleware\ble/cy_ble_event_handler.h ****      *  Notification was received. The parameter of this event is a structure of
1051:Generated_Source\PSoC6\pdl\middleware\ble/cy_ble_event_handler.h ****      *  the cy_stc_ble_ess_char_value_t type.
1052:Generated_Source\PSoC6\pdl\middleware\ble/cy_ble_event_handler.h ****      */
1053:Generated_Source\PSoC6\pdl\middleware\ble/cy_ble_event_handler.h ****     CY_BLE_EVT_ESSC_NOTIFICATION,
1054:Generated_Source\PSoC6\pdl\middleware\ble/cy_ble_event_handler.h **** 
1055:Generated_Source\PSoC6\pdl\middleware\ble/cy_ble_event_handler.h ****     /** ESS Client - Environmental Sensing Service Characteristic
1056:Generated_Source\PSoC6\pdl\middleware\ble/cy_ble_event_handler.h ****      *  Indication was received. The parameter of this event is a structure of
1057:Generated_Source\PSoC6\pdl\middleware\ble/cy_ble_event_handler.h ****      *  cy_stc_ble_ess_char_value_t type.
1058:Generated_Source\PSoC6\pdl\middleware\ble/cy_ble_event_handler.h ****      */
1059:Generated_Source\PSoC6\pdl\middleware\ble/cy_ble_event_handler.h ****     CY_BLE_EVT_ESSC_INDICATION,
1060:Generated_Source\PSoC6\pdl\middleware\ble/cy_ble_event_handler.h **** 
1061:Generated_Source\PSoC6\pdl\middleware\ble/cy_ble_event_handler.h ****     /** ESS Client - Read Response for Read Request of Environmental Sensing
1062:Generated_Source\PSoC6\pdl\middleware\ble/cy_ble_event_handler.h ****      *  Service Characteristic value. The parameter of this event is a structure of
1063:Generated_Source\PSoC6\pdl\middleware\ble/cy_ble_event_handler.h ****      *  the cy_stc_ble_ess_char_value_t type.
1064:Generated_Source\PSoC6\pdl\middleware\ble/cy_ble_event_handler.h ****      */
1065:Generated_Source\PSoC6\pdl\middleware\ble/cy_ble_event_handler.h ****     CY_BLE_EVT_ESSC_READ_CHAR_RESPONSE,
1066:Generated_Source\PSoC6\pdl\middleware\ble/cy_ble_event_handler.h **** 
1067:Generated_Source\PSoC6\pdl\middleware\ble/cy_ble_event_handler.h ****     /** ESS Client - Write Response for Write Request of Environmental Sensing
1068:Generated_Source\PSoC6\pdl\middleware\ble/cy_ble_event_handler.h ****      *  Service Characteristic value. The parameter of this event is a structure of
1069:Generated_Source\PSoC6\pdl\middleware\ble/cy_ble_event_handler.h ****      *  the cy_stc_ble_ess_char_value_t type.
1070:Generated_Source\PSoC6\pdl\middleware\ble/cy_ble_event_handler.h ****      */
ARM GAS  C:\Users\fiona\AppData\Local\Temp\cc5GuuYy.s 			page 29


1071:Generated_Source\PSoC6\pdl\middleware\ble/cy_ble_event_handler.h ****     CY_BLE_EVT_ESSC_WRITE_CHAR_RESPONSE,
1072:Generated_Source\PSoC6\pdl\middleware\ble/cy_ble_event_handler.h **** 
1073:Generated_Source\PSoC6\pdl\middleware\ble/cy_ble_event_handler.h ****     /** ESS Client - Read Response for Read Request of Environmental Sensing
1074:Generated_Source\PSoC6\pdl\middleware\ble/cy_ble_event_handler.h ****      *  Service Characteristic Descriptor Read request. The parameter of this event
1075:Generated_Source\PSoC6\pdl\middleware\ble/cy_ble_event_handler.h ****      *  is a structure of the cy_stc_ble_ess_descr_value_t type.
1076:Generated_Source\PSoC6\pdl\middleware\ble/cy_ble_event_handler.h ****      */
1077:Generated_Source\PSoC6\pdl\middleware\ble/cy_ble_event_handler.h ****     CY_BLE_EVT_ESSC_READ_DESCR_RESPONSE,
1078:Generated_Source\PSoC6\pdl\middleware\ble/cy_ble_event_handler.h **** 
1079:Generated_Source\PSoC6\pdl\middleware\ble/cy_ble_event_handler.h ****     /** ESS Client - Write Response for Write Request of Environmental Sensing
1080:Generated_Source\PSoC6\pdl\middleware\ble/cy_ble_event_handler.h ****      *  Service Characteristic Configuration Descriptor value. The parameter of
1081:Generated_Source\PSoC6\pdl\middleware\ble/cy_ble_event_handler.h ****      *  this event is a structure of the cy_stc_ble_ess_descr_value_t type.
1082:Generated_Source\PSoC6\pdl\middleware\ble/cy_ble_event_handler.h ****      */
1083:Generated_Source\PSoC6\pdl\middleware\ble/cy_ble_event_handler.h ****     CY_BLE_EVT_ESSC_WRITE_DESCR_RESPONSE,
1084:Generated_Source\PSoC6\pdl\middleware\ble/cy_ble_event_handler.h **** 
1085:Generated_Source\PSoC6\pdl\middleware\ble/cy_ble_event_handler.h **** 
1086:Generated_Source\PSoC6\pdl\middleware\ble/cy_ble_event_handler.h ****     /****************************************
1087:Generated_Source\PSoC6\pdl\middleware\ble/cy_ble_event_handler.h ****      * Glucose Service Events
1088:Generated_Source\PSoC6\pdl\middleware\ble/cy_ble_event_handler.h ****      ***************************************/
1089:Generated_Source\PSoC6\pdl\middleware\ble/cy_ble_event_handler.h **** 
1090:Generated_Source\PSoC6\pdl\middleware\ble/cy_ble_event_handler.h ****     /** GLS Server - Indication for Glucose Service Characteristic
1091:Generated_Source\PSoC6\pdl\middleware\ble/cy_ble_event_handler.h ****      *  was enabled. The parameter of this event is a structure
1092:Generated_Source\PSoC6\pdl\middleware\ble/cy_ble_event_handler.h ****      *  of cy_stc_ble_gls_char_value_t type.
1093:Generated_Source\PSoC6\pdl\middleware\ble/cy_ble_event_handler.h ****      */
1094:Generated_Source\PSoC6\pdl\middleware\ble/cy_ble_event_handler.h ****     CY_BLE_EVT_GLSS_INDICATION_ENABLED,
1095:Generated_Source\PSoC6\pdl\middleware\ble/cy_ble_event_handler.h **** 
1096:Generated_Source\PSoC6\pdl\middleware\ble/cy_ble_event_handler.h ****     /** GLS Server - Indication for Glucose Service Characteristic
1097:Generated_Source\PSoC6\pdl\middleware\ble/cy_ble_event_handler.h ****      *  was disabled. The parameter of this event is a structure
1098:Generated_Source\PSoC6\pdl\middleware\ble/cy_ble_event_handler.h ****      *  of the cy_stc_ble_gls_char_value_t type.
1099:Generated_Source\PSoC6\pdl\middleware\ble/cy_ble_event_handler.h ****      */
1100:Generated_Source\PSoC6\pdl\middleware\ble/cy_ble_event_handler.h ****     CY_BLE_EVT_GLSS_INDICATION_DISABLED,
1101:Generated_Source\PSoC6\pdl\middleware\ble/cy_ble_event_handler.h **** 
1102:Generated_Source\PSoC6\pdl\middleware\ble/cy_ble_event_handler.h ****     /** GLS Server - Glucose Service Characteristic
1103:Generated_Source\PSoC6\pdl\middleware\ble/cy_ble_event_handler.h ****      *  Indication was confirmed. The parameter of this event
1104:Generated_Source\PSoC6\pdl\middleware\ble/cy_ble_event_handler.h ****      *  is a structure of the cy_stc_ble_gls_char_value_t type.
1105:Generated_Source\PSoC6\pdl\middleware\ble/cy_ble_event_handler.h ****      */
1106:Generated_Source\PSoC6\pdl\middleware\ble/cy_ble_event_handler.h ****     CY_BLE_EVT_GLSS_INDICATION_CONFIRMED,
1107:Generated_Source\PSoC6\pdl\middleware\ble/cy_ble_event_handler.h **** 
1108:Generated_Source\PSoC6\pdl\middleware\ble/cy_ble_event_handler.h ****     /** GLS Server - Notification for Glucose Service Characteristic
1109:Generated_Source\PSoC6\pdl\middleware\ble/cy_ble_event_handler.h ****      *  was enabled. The parameter of this event is a structure of
1110:Generated_Source\PSoC6\pdl\middleware\ble/cy_ble_event_handler.h ****      *  the cy_stc_ble_gls_char_value_t type.
1111:Generated_Source\PSoC6\pdl\middleware\ble/cy_ble_event_handler.h ****      */
1112:Generated_Source\PSoC6\pdl\middleware\ble/cy_ble_event_handler.h ****     CY_BLE_EVT_GLSS_NOTIFICATION_ENABLED,
1113:Generated_Source\PSoC6\pdl\middleware\ble/cy_ble_event_handler.h **** 
1114:Generated_Source\PSoC6\pdl\middleware\ble/cy_ble_event_handler.h ****     /** GLS Server - Notification for Glucose Service Characteristic
1115:Generated_Source\PSoC6\pdl\middleware\ble/cy_ble_event_handler.h ****      *  was disabled. The parameter of this event is a structure
1116:Generated_Source\PSoC6\pdl\middleware\ble/cy_ble_event_handler.h ****      *  of the cy_stc_ble_gls_char_value_t type.
1117:Generated_Source\PSoC6\pdl\middleware\ble/cy_ble_event_handler.h ****      */
1118:Generated_Source\PSoC6\pdl\middleware\ble/cy_ble_event_handler.h ****     CY_BLE_EVT_GLSS_NOTIFICATION_DISABLED,
1119:Generated_Source\PSoC6\pdl\middleware\ble/cy_ble_event_handler.h **** 
1120:Generated_Source\PSoC6\pdl\middleware\ble/cy_ble_event_handler.h ****     /** GLS Server - Write Request for Glucose Service
1121:Generated_Source\PSoC6\pdl\middleware\ble/cy_ble_event_handler.h ****      *  was received. The parameter of this event is a structure
1122:Generated_Source\PSoC6\pdl\middleware\ble/cy_ble_event_handler.h ****      *  of cy_stc_ble_gls_char_value_t type.
1123:Generated_Source\PSoC6\pdl\middleware\ble/cy_ble_event_handler.h ****      */
1124:Generated_Source\PSoC6\pdl\middleware\ble/cy_ble_event_handler.h ****     CY_BLE_EVT_GLSS_WRITE_CHAR,
1125:Generated_Source\PSoC6\pdl\middleware\ble/cy_ble_event_handler.h **** 
1126:Generated_Source\PSoC6\pdl\middleware\ble/cy_ble_event_handler.h ****     /** GLS Client - Glucose Service Characteristic
1127:Generated_Source\PSoC6\pdl\middleware\ble/cy_ble_event_handler.h ****      *  Indication was received. The parameter of this event
ARM GAS  C:\Users\fiona\AppData\Local\Temp\cc5GuuYy.s 			page 30


1128:Generated_Source\PSoC6\pdl\middleware\ble/cy_ble_event_handler.h ****      *  is a structure of the cy_stc_ble_gls_char_value_t type.
1129:Generated_Source\PSoC6\pdl\middleware\ble/cy_ble_event_handler.h ****      */
1130:Generated_Source\PSoC6\pdl\middleware\ble/cy_ble_event_handler.h ****     CY_BLE_EVT_GLSC_INDICATION,
1131:Generated_Source\PSoC6\pdl\middleware\ble/cy_ble_event_handler.h **** 
1132:Generated_Source\PSoC6\pdl\middleware\ble/cy_ble_event_handler.h ****     /** GLS Client - Glucose Service Characteristic
1133:Generated_Source\PSoC6\pdl\middleware\ble/cy_ble_event_handler.h ****      *  Notification was received. The parameter of this event
1134:Generated_Source\PSoC6\pdl\middleware\ble/cy_ble_event_handler.h ****      *  is a structure of the cy_stc_ble_gls_char_value_t type.
1135:Generated_Source\PSoC6\pdl\middleware\ble/cy_ble_event_handler.h ****      */
1136:Generated_Source\PSoC6\pdl\middleware\ble/cy_ble_event_handler.h ****     CY_BLE_EVT_GLSC_NOTIFICATION,
1137:Generated_Source\PSoC6\pdl\middleware\ble/cy_ble_event_handler.h **** 
1138:Generated_Source\PSoC6\pdl\middleware\ble/cy_ble_event_handler.h ****     /** GLS Client - Read Response for Read Request of Glucose
1139:Generated_Source\PSoC6\pdl\middleware\ble/cy_ble_event_handler.h ****      *  Service Characteristic value. The parameter of this event
1140:Generated_Source\PSoC6\pdl\middleware\ble/cy_ble_event_handler.h ****      *  is a structure of the cy_stc_ble_gls_char_value_t type.
1141:Generated_Source\PSoC6\pdl\middleware\ble/cy_ble_event_handler.h ****      */
1142:Generated_Source\PSoC6\pdl\middleware\ble/cy_ble_event_handler.h ****     CY_BLE_EVT_GLSC_READ_CHAR_RESPONSE,
1143:Generated_Source\PSoC6\pdl\middleware\ble/cy_ble_event_handler.h **** 
1144:Generated_Source\PSoC6\pdl\middleware\ble/cy_ble_event_handler.h ****     /** GLS Client - Write Response for Write Request of Glucose
1145:Generated_Source\PSoC6\pdl\middleware\ble/cy_ble_event_handler.h ****      *  Service Characteristic value. The
1146:Generated_Source\PSoC6\pdl\middleware\ble/cy_ble_event_handler.h ****      *  parameter of this event is a structure of
1147:Generated_Source\PSoC6\pdl\middleware\ble/cy_ble_event_handler.h ****      *  the cy_stc_ble_gls_char_value_t type.
1148:Generated_Source\PSoC6\pdl\middleware\ble/cy_ble_event_handler.h ****      */
1149:Generated_Source\PSoC6\pdl\middleware\ble/cy_ble_event_handler.h ****     CY_BLE_EVT_GLSC_WRITE_CHAR_RESPONSE,
1150:Generated_Source\PSoC6\pdl\middleware\ble/cy_ble_event_handler.h **** 
1151:Generated_Source\PSoC6\pdl\middleware\ble/cy_ble_event_handler.h ****     /** GLS Client - Read Response for Read Request of Glucose
1152:Generated_Source\PSoC6\pdl\middleware\ble/cy_ble_event_handler.h ****      *  Service Characteristic Descriptor Read request. The
1153:Generated_Source\PSoC6\pdl\middleware\ble/cy_ble_event_handler.h ****      *  parameter of this event is a structure of
1154:Generated_Source\PSoC6\pdl\middleware\ble/cy_ble_event_handler.h ****      *  the cy_stc_ble_gls_descr_value_t type.
1155:Generated_Source\PSoC6\pdl\middleware\ble/cy_ble_event_handler.h ****      */
1156:Generated_Source\PSoC6\pdl\middleware\ble/cy_ble_event_handler.h ****     CY_BLE_EVT_GLSC_READ_DESCR_RESPONSE,
1157:Generated_Source\PSoC6\pdl\middleware\ble/cy_ble_event_handler.h **** 
1158:Generated_Source\PSoC6\pdl\middleware\ble/cy_ble_event_handler.h ****     /** GLS Client - Write Response for Write Request of Glucose
1159:Generated_Source\PSoC6\pdl\middleware\ble/cy_ble_event_handler.h ****      *  Service Characteristic Configuration Descriptor value.
1160:Generated_Source\PSoC6\pdl\middleware\ble/cy_ble_event_handler.h ****      *  The parameter of this event is a structure of
1161:Generated_Source\PSoC6\pdl\middleware\ble/cy_ble_event_handler.h ****      *  the cy_stc_ble_gls_descr_value_t type.
1162:Generated_Source\PSoC6\pdl\middleware\ble/cy_ble_event_handler.h ****      */
1163:Generated_Source\PSoC6\pdl\middleware\ble/cy_ble_event_handler.h ****     CY_BLE_EVT_GLSC_WRITE_DESCR_RESPONSE,
1164:Generated_Source\PSoC6\pdl\middleware\ble/cy_ble_event_handler.h **** 
1165:Generated_Source\PSoC6\pdl\middleware\ble/cy_ble_event_handler.h **** 
1166:Generated_Source\PSoC6\pdl\middleware\ble/cy_ble_event_handler.h ****     /****************************************
1167:Generated_Source\PSoC6\pdl\middleware\ble/cy_ble_event_handler.h ****      * HIDS Service Events
1168:Generated_Source\PSoC6\pdl\middleware\ble/cy_ble_event_handler.h ****      ***************************************/
1169:Generated_Source\PSoC6\pdl\middleware\ble/cy_ble_event_handler.h **** 
1170:Generated_Source\PSoC6\pdl\middleware\ble/cy_ble_event_handler.h ****     /** HIDS Server - Notification for HID service was
1171:Generated_Source\PSoC6\pdl\middleware\ble/cy_ble_event_handler.h ****      *  enabled. The parameter of this event is a
1172:Generated_Source\PSoC6\pdl\middleware\ble/cy_ble_event_handler.h ****      *  structure of the cy_stc_ble_hids_char_value_t type.
1173:Generated_Source\PSoC6\pdl\middleware\ble/cy_ble_event_handler.h ****      */
1174:Generated_Source\PSoC6\pdl\middleware\ble/cy_ble_event_handler.h ****     CY_BLE_EVT_HIDSS_NOTIFICATION_ENABLED,
1175:Generated_Source\PSoC6\pdl\middleware\ble/cy_ble_event_handler.h **** 
1176:Generated_Source\PSoC6\pdl\middleware\ble/cy_ble_event_handler.h ****     /** HIDS Server - Notification for HID service was
1177:Generated_Source\PSoC6\pdl\middleware\ble/cy_ble_event_handler.h ****      *  disabled. The parameter of this event is a
1178:Generated_Source\PSoC6\pdl\middleware\ble/cy_ble_event_handler.h ****      *  structure of the cy_stc_ble_hids_char_value_t type.
1179:Generated_Source\PSoC6\pdl\middleware\ble/cy_ble_event_handler.h ****      */
1180:Generated_Source\PSoC6\pdl\middleware\ble/cy_ble_event_handler.h ****     CY_BLE_EVT_HIDSS_NOTIFICATION_DISABLED,
1181:Generated_Source\PSoC6\pdl\middleware\ble/cy_ble_event_handler.h **** 
1182:Generated_Source\PSoC6\pdl\middleware\ble/cy_ble_event_handler.h ****     /** HIDS Server - Enter boot mode request. The
1183:Generated_Source\PSoC6\pdl\middleware\ble/cy_ble_event_handler.h ****      *  parameter of this event is a structure of
1184:Generated_Source\PSoC6\pdl\middleware\ble/cy_ble_event_handler.h ****      *  the cy_stc_ble_hids_char_value_t type.
ARM GAS  C:\Users\fiona\AppData\Local\Temp\cc5GuuYy.s 			page 31


1185:Generated_Source\PSoC6\pdl\middleware\ble/cy_ble_event_handler.h ****      */
1186:Generated_Source\PSoC6\pdl\middleware\ble/cy_ble_event_handler.h ****     CY_BLE_EVT_HIDSS_BOOT_MODE_ENTER,
1187:Generated_Source\PSoC6\pdl\middleware\ble/cy_ble_event_handler.h **** 
1188:Generated_Source\PSoC6\pdl\middleware\ble/cy_ble_event_handler.h ****     /** HIDS Server - Enter report mode request. The
1189:Generated_Source\PSoC6\pdl\middleware\ble/cy_ble_event_handler.h ****      *  parameter of this event is a structure of
1190:Generated_Source\PSoC6\pdl\middleware\ble/cy_ble_event_handler.h ****      *  the cy_stc_ble_hids_char_value_t type.
1191:Generated_Source\PSoC6\pdl\middleware\ble/cy_ble_event_handler.h ****      */
1192:Generated_Source\PSoC6\pdl\middleware\ble/cy_ble_event_handler.h ****     CY_BLE_EVT_HIDSS_REPORT_MODE_ENTER,
1193:Generated_Source\PSoC6\pdl\middleware\ble/cy_ble_event_handler.h **** 
1194:Generated_Source\PSoC6\pdl\middleware\ble/cy_ble_event_handler.h ****     /** HIDS Server - Enter suspend mode request. The
1195:Generated_Source\PSoC6\pdl\middleware\ble/cy_ble_event_handler.h ****      *  parameter of this event is a structure of
1196:Generated_Source\PSoC6\pdl\middleware\ble/cy_ble_event_handler.h ****      *  cy_stc_ble_hids_char_value_t type.
1197:Generated_Source\PSoC6\pdl\middleware\ble/cy_ble_event_handler.h ****      */
1198:Generated_Source\PSoC6\pdl\middleware\ble/cy_ble_event_handler.h ****     CY_BLE_EVT_HIDSS_SUSPEND,
1199:Generated_Source\PSoC6\pdl\middleware\ble/cy_ble_event_handler.h **** 
1200:Generated_Source\PSoC6\pdl\middleware\ble/cy_ble_event_handler.h ****     /** HIDS Server - Exit suspend mode request. The
1201:Generated_Source\PSoC6\pdl\middleware\ble/cy_ble_event_handler.h ****      *  parameter of this event is a structure of
1202:Generated_Source\PSoC6\pdl\middleware\ble/cy_ble_event_handler.h ****      *  the cy_stc_ble_hids_char_value_t type.
1203:Generated_Source\PSoC6\pdl\middleware\ble/cy_ble_event_handler.h ****      */
1204:Generated_Source\PSoC6\pdl\middleware\ble/cy_ble_event_handler.h ****     CY_BLE_EVT_HIDSS_EXIT_SUSPEND,
1205:Generated_Source\PSoC6\pdl\middleware\ble/cy_ble_event_handler.h **** 
1206:Generated_Source\PSoC6\pdl\middleware\ble/cy_ble_event_handler.h ****     /** HIDS Server - Write Report Characteristic
1207:Generated_Source\PSoC6\pdl\middleware\ble/cy_ble_event_handler.h ****      *  request. The parameter of this event is a
1208:Generated_Source\PSoC6\pdl\middleware\ble/cy_ble_event_handler.h ****      *  structure of the cy_stc_ble_hids_char_value_t type.
1209:Generated_Source\PSoC6\pdl\middleware\ble/cy_ble_event_handler.h ****      */
1210:Generated_Source\PSoC6\pdl\middleware\ble/cy_ble_event_handler.h ****     CY_BLE_EVT_HIDSS_REPORT_WRITE_CHAR,
1211:Generated_Source\PSoC6\pdl\middleware\ble/cy_ble_event_handler.h **** 
1212:Generated_Source\PSoC6\pdl\middleware\ble/cy_ble_event_handler.h ****     /** HIDS Client - HID Service Characteristic
1213:Generated_Source\PSoC6\pdl\middleware\ble/cy_ble_event_handler.h ****      *  Notification was received. The parameter of this
1214:Generated_Source\PSoC6\pdl\middleware\ble/cy_ble_event_handler.h ****      *  event is a structure of the cy_stc_ble_hids_char_value_t type.
1215:Generated_Source\PSoC6\pdl\middleware\ble/cy_ble_event_handler.h ****      */
1216:Generated_Source\PSoC6\pdl\middleware\ble/cy_ble_event_handler.h ****     CY_BLE_EVT_HIDSC_NOTIFICATION,
1217:Generated_Source\PSoC6\pdl\middleware\ble/cy_ble_event_handler.h **** 
1218:Generated_Source\PSoC6\pdl\middleware\ble/cy_ble_event_handler.h ****     /** HIDS Client - Read Response for Read Request of HID
1219:Generated_Source\PSoC6\pdl\middleware\ble/cy_ble_event_handler.h ****      *  Service Characteristic value. The parameter of this
1220:Generated_Source\PSoC6\pdl\middleware\ble/cy_ble_event_handler.h ****      *  event is a structure of the cy_stc_ble_hids_descr_value_t type.
1221:Generated_Source\PSoC6\pdl\middleware\ble/cy_ble_event_handler.h ****      */
1222:Generated_Source\PSoC6\pdl\middleware\ble/cy_ble_event_handler.h ****     CY_BLE_EVT_HIDSC_READ_CHAR_RESPONSE,
1223:Generated_Source\PSoC6\pdl\middleware\ble/cy_ble_event_handler.h **** 
1224:Generated_Source\PSoC6\pdl\middleware\ble/cy_ble_event_handler.h ****     /** HIDS Client - Write Response for Write Request of
1225:Generated_Source\PSoC6\pdl\middleware\ble/cy_ble_event_handler.h ****      *  HID Service Characteristic value. The parameter
1226:Generated_Source\PSoC6\pdl\middleware\ble/cy_ble_event_handler.h ****      *  of this event is a structure of
1227:Generated_Source\PSoC6\pdl\middleware\ble/cy_ble_event_handler.h ****      *  the cy_stc_ble_hids_char_value_t type.
1228:Generated_Source\PSoC6\pdl\middleware\ble/cy_ble_event_handler.h ****      */
1229:Generated_Source\PSoC6\pdl\middleware\ble/cy_ble_event_handler.h ****     CY_BLE_EVT_HIDSC_WRITE_CHAR_RESPONSE,
1230:Generated_Source\PSoC6\pdl\middleware\ble/cy_ble_event_handler.h **** 
1231:Generated_Source\PSoC6\pdl\middleware\ble/cy_ble_event_handler.h ****     /** HIDS Client - Read Response for Read Request of HID
1232:Generated_Source\PSoC6\pdl\middleware\ble/cy_ble_event_handler.h ****      *  Service Characteristic Descriptor Read request. The
1233:Generated_Source\PSoC6\pdl\middleware\ble/cy_ble_event_handler.h ****      *  parameter of this event is a structure of
1234:Generated_Source\PSoC6\pdl\middleware\ble/cy_ble_event_handler.h ****      *  the cy_stc_ble_hids_descr_value_t type.
1235:Generated_Source\PSoC6\pdl\middleware\ble/cy_ble_event_handler.h ****      */
1236:Generated_Source\PSoC6\pdl\middleware\ble/cy_ble_event_handler.h ****     CY_BLE_EVT_HIDSC_READ_DESCR_RESPONSE,
1237:Generated_Source\PSoC6\pdl\middleware\ble/cy_ble_event_handler.h **** 
1238:Generated_Source\PSoC6\pdl\middleware\ble/cy_ble_event_handler.h ****     /** HIDS Client - Write Response for Write Request of HID
1239:Generated_Source\PSoC6\pdl\middleware\ble/cy_ble_event_handler.h ****      *  Service Characteristic Configuration Descriptor value.
1240:Generated_Source\PSoC6\pdl\middleware\ble/cy_ble_event_handler.h ****      *  The parameter of this event is a structure of
1241:Generated_Source\PSoC6\pdl\middleware\ble/cy_ble_event_handler.h ****      *  the cy_stc_ble_hids_char_value_t type.
ARM GAS  C:\Users\fiona\AppData\Local\Temp\cc5GuuYy.s 			page 32


1242:Generated_Source\PSoC6\pdl\middleware\ble/cy_ble_event_handler.h ****      */
1243:Generated_Source\PSoC6\pdl\middleware\ble/cy_ble_event_handler.h ****     CY_BLE_EVT_HIDSC_WRITE_DESCR_RESPONSE,
1244:Generated_Source\PSoC6\pdl\middleware\ble/cy_ble_event_handler.h **** 
1245:Generated_Source\PSoC6\pdl\middleware\ble/cy_ble_event_handler.h **** 
1246:Generated_Source\PSoC6\pdl\middleware\ble/cy_ble_event_handler.h ****     /****************************************
1247:Generated_Source\PSoC6\pdl\middleware\ble/cy_ble_event_handler.h ****      *  HTTP Proxy Service Events
1248:Generated_Source\PSoC6\pdl\middleware\ble/cy_ble_event_handler.h ****      ***************************************/
1249:Generated_Source\PSoC6\pdl\middleware\ble/cy_ble_event_handler.h **** 
1250:Generated_Source\PSoC6\pdl\middleware\ble/cy_ble_event_handler.h ****     /** HPS Server - Notification for HTTP Proxy Service Characteristic
1251:Generated_Source\PSoC6\pdl\middleware\ble/cy_ble_event_handler.h ****      *  was enabled. The parameter of this event is a structure
1252:Generated_Source\PSoC6\pdl\middleware\ble/cy_ble_event_handler.h ****      *  of the cy_stc_ble_hps_char_value_t type.
1253:Generated_Source\PSoC6\pdl\middleware\ble/cy_ble_event_handler.h ****      */
1254:Generated_Source\PSoC6\pdl\middleware\ble/cy_ble_event_handler.h ****     CY_BLE_EVT_HPSS_NOTIFICATION_ENABLED,
1255:Generated_Source\PSoC6\pdl\middleware\ble/cy_ble_event_handler.h **** 
1256:Generated_Source\PSoC6\pdl\middleware\ble/cy_ble_event_handler.h ****     /** HPS Server - Notification for HTTP Proxy Service Characteristic
1257:Generated_Source\PSoC6\pdl\middleware\ble/cy_ble_event_handler.h ****      *  was disabled. The parameter of this event is a structure
1258:Generated_Source\PSoC6\pdl\middleware\ble/cy_ble_event_handler.h ****      *  of the cy_stc_ble_hps_char_value_t type.
1259:Generated_Source\PSoC6\pdl\middleware\ble/cy_ble_event_handler.h ****      */
1260:Generated_Source\PSoC6\pdl\middleware\ble/cy_ble_event_handler.h ****     CY_BLE_EVT_HPSS_NOTIFICATION_DISABLED,
1261:Generated_Source\PSoC6\pdl\middleware\ble/cy_ble_event_handler.h **** 
1262:Generated_Source\PSoC6\pdl\middleware\ble/cy_ble_event_handler.h ****     /** HPS Server - Write Request for HTTP Proxy Service
1263:Generated_Source\PSoC6\pdl\middleware\ble/cy_ble_event_handler.h ****      *  Characteristic was received. The parameter of this event is a structure of
1264:Generated_Source\PSoC6\pdl\middleware\ble/cy_ble_event_handler.h ****      *  the cy_stc_ble_hps_char_value_t type.
1265:Generated_Source\PSoC6\pdl\middleware\ble/cy_ble_event_handler.h ****      */
1266:Generated_Source\PSoC6\pdl\middleware\ble/cy_ble_event_handler.h ****     CY_BLE_EVT_HPSS_WRITE_CHAR,
1267:Generated_Source\PSoC6\pdl\middleware\ble/cy_ble_event_handler.h **** 
1268:Generated_Source\PSoC6\pdl\middleware\ble/cy_ble_event_handler.h ****     /** HPS Client - HTTP Proxy Service Characteristic
1269:Generated_Source\PSoC6\pdl\middleware\ble/cy_ble_event_handler.h ****      *  Notification was received. The parameter of this event
1270:Generated_Source\PSoC6\pdl\middleware\ble/cy_ble_event_handler.h ****      *  is a structure of the cy_stc_ble_hps_char_value_t type.
1271:Generated_Source\PSoC6\pdl\middleware\ble/cy_ble_event_handler.h ****      */
1272:Generated_Source\PSoC6\pdl\middleware\ble/cy_ble_event_handler.h ****     CY_BLE_EVT_HPSC_NOTIFICATION,
1273:Generated_Source\PSoC6\pdl\middleware\ble/cy_ble_event_handler.h **** 
1274:Generated_Source\PSoC6\pdl\middleware\ble/cy_ble_event_handler.h ****     /** HPS Client - Read Response for Read Request of HTTP Proxy
1275:Generated_Source\PSoC6\pdl\middleware\ble/cy_ble_event_handler.h ****      *  Service Characteristic value. The parameter of this event
1276:Generated_Source\PSoC6\pdl\middleware\ble/cy_ble_event_handler.h ****      *  is a structure of the cy_stc_ble_hps_char_value_t type.
1277:Generated_Source\PSoC6\pdl\middleware\ble/cy_ble_event_handler.h ****      */
1278:Generated_Source\PSoC6\pdl\middleware\ble/cy_ble_event_handler.h ****     CY_BLE_EVT_HPSC_READ_CHAR_RESPONSE,
1279:Generated_Source\PSoC6\pdl\middleware\ble/cy_ble_event_handler.h **** 
1280:Generated_Source\PSoC6\pdl\middleware\ble/cy_ble_event_handler.h ****     /** HPS Client - Read Response for Read Request of HTTP Proxy
1281:Generated_Source\PSoC6\pdl\middleware\ble/cy_ble_event_handler.h ****      *  Service Characteristic Descriptor Read request. The
1282:Generated_Source\PSoC6\pdl\middleware\ble/cy_ble_event_handler.h ****      *  parameter of this event is a structure of
1283:Generated_Source\PSoC6\pdl\middleware\ble/cy_ble_event_handler.h ****      *  the cy_stc_ble_hps_descr_value_t type.
1284:Generated_Source\PSoC6\pdl\middleware\ble/cy_ble_event_handler.h ****      */
1285:Generated_Source\PSoC6\pdl\middleware\ble/cy_ble_event_handler.h ****     CY_BLE_EVT_HPSC_READ_DESCR_RESPONSE,
1286:Generated_Source\PSoC6\pdl\middleware\ble/cy_ble_event_handler.h **** 
1287:Generated_Source\PSoC6\pdl\middleware\ble/cy_ble_event_handler.h ****     /** HPS Client - Write Response for Write Request of HTTP Proxy
1288:Generated_Source\PSoC6\pdl\middleware\ble/cy_ble_event_handler.h ****      *  Service Characteristic Configuration Descriptor value.
1289:Generated_Source\PSoC6\pdl\middleware\ble/cy_ble_event_handler.h ****      *  The parameter of this event is a structure of
1290:Generated_Source\PSoC6\pdl\middleware\ble/cy_ble_event_handler.h ****      *  the cy_stc_ble_hps_descr_value_t type.
1291:Generated_Source\PSoC6\pdl\middleware\ble/cy_ble_event_handler.h ****      */
1292:Generated_Source\PSoC6\pdl\middleware\ble/cy_ble_event_handler.h ****     CY_BLE_EVT_HPSC_WRITE_DESCR_RESPONSE,
1293:Generated_Source\PSoC6\pdl\middleware\ble/cy_ble_event_handler.h **** 
1294:Generated_Source\PSoC6\pdl\middleware\ble/cy_ble_event_handler.h ****     /** HPS Client - Write Response for Write Request of HPS
1295:Generated_Source\PSoC6\pdl\middleware\ble/cy_ble_event_handler.h ****      *  Service Characteristic value. The parameter of this event
1296:Generated_Source\PSoC6\pdl\middleware\ble/cy_ble_event_handler.h ****      *  is a structure of the cy_stc_ble_hps_char_value_t type.
1297:Generated_Source\PSoC6\pdl\middleware\ble/cy_ble_event_handler.h ****      */
1298:Generated_Source\PSoC6\pdl\middleware\ble/cy_ble_event_handler.h ****     CY_BLE_EVT_HPSC_WRITE_CHAR_RESPONSE,
ARM GAS  C:\Users\fiona\AppData\Local\Temp\cc5GuuYy.s 			page 33


1299:Generated_Source\PSoC6\pdl\middleware\ble/cy_ble_event_handler.h **** 
1300:Generated_Source\PSoC6\pdl\middleware\ble/cy_ble_event_handler.h ****     /****************************************
1301:Generated_Source\PSoC6\pdl\middleware\ble/cy_ble_event_handler.h ****      * HRS Service Events
1302:Generated_Source\PSoC6\pdl\middleware\ble/cy_ble_event_handler.h ****      ***************************************/
1303:Generated_Source\PSoC6\pdl\middleware\ble/cy_ble_event_handler.h **** 
1304:Generated_Source\PSoC6\pdl\middleware\ble/cy_ble_event_handler.h ****     /** HRS Server - Reset Energy Expended. The parameter of
1305:Generated_Source\PSoC6\pdl\middleware\ble/cy_ble_event_handler.h ****      *  this event is a structure of the cy_stc_ble_hrs_char_value_t type.
1306:Generated_Source\PSoC6\pdl\middleware\ble/cy_ble_event_handler.h ****      */
1307:Generated_Source\PSoC6\pdl\middleware\ble/cy_ble_event_handler.h ****     CY_BLE_EVT_HRSS_ENERGY_EXPENDED_RESET,
1308:Generated_Source\PSoC6\pdl\middleware\ble/cy_ble_event_handler.h **** 
1309:Generated_Source\PSoC6\pdl\middleware\ble/cy_ble_event_handler.h ****     /** HRS Server - Notification for Heart Rate Measurement
1310:Generated_Source\PSoC6\pdl\middleware\ble/cy_ble_event_handler.h ****      *  Characteristic was enabled. The parameter of this
1311:Generated_Source\PSoC6\pdl\middleware\ble/cy_ble_event_handler.h ****      *  event is a structure of the cy_stc_ble_hrs_char_value_t type.
1312:Generated_Source\PSoC6\pdl\middleware\ble/cy_ble_event_handler.h ****      */
1313:Generated_Source\PSoC6\pdl\middleware\ble/cy_ble_event_handler.h **** 
1314:Generated_Source\PSoC6\pdl\middleware\ble/cy_ble_event_handler.h ****     CY_BLE_EVT_HRSS_NOTIFICATION_ENABLED,
1315:Generated_Source\PSoC6\pdl\middleware\ble/cy_ble_event_handler.h **** 
1316:Generated_Source\PSoC6\pdl\middleware\ble/cy_ble_event_handler.h ****     /** HRS Server - Notification for Heart Rate Measurement
1317:Generated_Source\PSoC6\pdl\middleware\ble/cy_ble_event_handler.h ****      *  Characteristic was disabled. The parameter of this
1318:Generated_Source\PSoC6\pdl\middleware\ble/cy_ble_event_handler.h ****      *  event is a structure of the cy_stc_ble_hrs_char_value_t type.
1319:Generated_Source\PSoC6\pdl\middleware\ble/cy_ble_event_handler.h ****      */
1320:Generated_Source\PSoC6\pdl\middleware\ble/cy_ble_event_handler.h ****     CY_BLE_EVT_HRSS_NOTIFICATION_DISABLED,
1321:Generated_Source\PSoC6\pdl\middleware\ble/cy_ble_event_handler.h **** 
1322:Generated_Source\PSoC6\pdl\middleware\ble/cy_ble_event_handler.h ****     /** HRS Client - Heart Rate Measurement Characteristic
1323:Generated_Source\PSoC6\pdl\middleware\ble/cy_ble_event_handler.h ****      *  Notification was received. The parameter of this event
1324:Generated_Source\PSoC6\pdl\middleware\ble/cy_ble_event_handler.h ****      *  is a structure of the cy_stc_ble_hrs_char_value_t type.
1325:Generated_Source\PSoC6\pdl\middleware\ble/cy_ble_event_handler.h ****      */
1326:Generated_Source\PSoC6\pdl\middleware\ble/cy_ble_event_handler.h ****     CY_BLE_EVT_HRSC_NOTIFICATION,
1327:Generated_Source\PSoC6\pdl\middleware\ble/cy_ble_event_handler.h **** 
1328:Generated_Source\PSoC6\pdl\middleware\ble/cy_ble_event_handler.h ****     /** HRS Client - Read Response for Read Request of HRS
1329:Generated_Source\PSoC6\pdl\middleware\ble/cy_ble_event_handler.h ****      *  Service Characteristic value. The parameter of this event
1330:Generated_Source\PSoC6\pdl\middleware\ble/cy_ble_event_handler.h ****      *  is a structure of the cy_stc_ble_hrs_char_value_t type.
1331:Generated_Source\PSoC6\pdl\middleware\ble/cy_ble_event_handler.h ****      */
1332:Generated_Source\PSoC6\pdl\middleware\ble/cy_ble_event_handler.h ****     CY_BLE_EVT_HRSC_READ_CHAR_RESPONSE,
1333:Generated_Source\PSoC6\pdl\middleware\ble/cy_ble_event_handler.h **** 
1334:Generated_Source\PSoC6\pdl\middleware\ble/cy_ble_event_handler.h ****     /** HRS Client - Write Response for Write Request of HRS
1335:Generated_Source\PSoC6\pdl\middleware\ble/cy_ble_event_handler.h ****      *  Service Characteristic value. The parameter of this event
1336:Generated_Source\PSoC6\pdl\middleware\ble/cy_ble_event_handler.h ****      *  is a structure of the cy_stc_ble_hrs_char_value_t type.
1337:Generated_Source\PSoC6\pdl\middleware\ble/cy_ble_event_handler.h ****      */
1338:Generated_Source\PSoC6\pdl\middleware\ble/cy_ble_event_handler.h ****     CY_BLE_EVT_HRSC_WRITE_CHAR_RESPONSE,
1339:Generated_Source\PSoC6\pdl\middleware\ble/cy_ble_event_handler.h **** 
1340:Generated_Source\PSoC6\pdl\middleware\ble/cy_ble_event_handler.h ****     /** HRS Client - Read Response for Read Request of HRS
1341:Generated_Source\PSoC6\pdl\middleware\ble/cy_ble_event_handler.h ****      *  Service Characteristic Descriptor Read request. The
1342:Generated_Source\PSoC6\pdl\middleware\ble/cy_ble_event_handler.h ****      *  parameter of this event is a structure of
1343:Generated_Source\PSoC6\pdl\middleware\ble/cy_ble_event_handler.h ****      *  the cy_stc_ble_hrs_char_value_t type.
1344:Generated_Source\PSoC6\pdl\middleware\ble/cy_ble_event_handler.h ****      */
1345:Generated_Source\PSoC6\pdl\middleware\ble/cy_ble_event_handler.h ****     CY_BLE_EVT_HRSC_READ_DESCR_RESPONSE,
1346:Generated_Source\PSoC6\pdl\middleware\ble/cy_ble_event_handler.h **** 
1347:Generated_Source\PSoC6\pdl\middleware\ble/cy_ble_event_handler.h ****     /** HRS Client - Write Response for Write Request of HRS
1348:Generated_Source\PSoC6\pdl\middleware\ble/cy_ble_event_handler.h ****      *  Service Characteristic Configuration Descriptor value.
1349:Generated_Source\PSoC6\pdl\middleware\ble/cy_ble_event_handler.h ****      *  The parameter of this event is a structure of
1350:Generated_Source\PSoC6\pdl\middleware\ble/cy_ble_event_handler.h ****      *  the cy_stc_ble_hrs_char_value_t type.
1351:Generated_Source\PSoC6\pdl\middleware\ble/cy_ble_event_handler.h ****      */
1352:Generated_Source\PSoC6\pdl\middleware\ble/cy_ble_event_handler.h ****     CY_BLE_EVT_HRSC_WRITE_DESCR_RESPONSE,
1353:Generated_Source\PSoC6\pdl\middleware\ble/cy_ble_event_handler.h **** 
1354:Generated_Source\PSoC6\pdl\middleware\ble/cy_ble_event_handler.h **** 
1355:Generated_Source\PSoC6\pdl\middleware\ble/cy_ble_event_handler.h ****     /****************************************
ARM GAS  C:\Users\fiona\AppData\Local\Temp\cc5GuuYy.s 			page 34


1356:Generated_Source\PSoC6\pdl\middleware\ble/cy_ble_event_handler.h ****      * HTS Service Events
1357:Generated_Source\PSoC6\pdl\middleware\ble/cy_ble_event_handler.h ****      ***************************************/
1358:Generated_Source\PSoC6\pdl\middleware\ble/cy_ble_event_handler.h **** 
1359:Generated_Source\PSoC6\pdl\middleware\ble/cy_ble_event_handler.h ****     /** HTS Server - Notification for Health Thermometer Service Characteristic
1360:Generated_Source\PSoC6\pdl\middleware\ble/cy_ble_event_handler.h ****      *  was enabled. The parameter of this event is a structure of
1361:Generated_Source\PSoC6\pdl\middleware\ble/cy_ble_event_handler.h ****      *  the cy_stc_ble_hts_char_value_t type.
1362:Generated_Source\PSoC6\pdl\middleware\ble/cy_ble_event_handler.h ****      */
1363:Generated_Source\PSoC6\pdl\middleware\ble/cy_ble_event_handler.h ****     CY_BLE_EVT_HTSS_NOTIFICATION_ENABLED,
1364:Generated_Source\PSoC6\pdl\middleware\ble/cy_ble_event_handler.h **** 
1365:Generated_Source\PSoC6\pdl\middleware\ble/cy_ble_event_handler.h ****     /** HTS Server - Notification for Health Thermometer Service Characteristic
1366:Generated_Source\PSoC6\pdl\middleware\ble/cy_ble_event_handler.h ****      *  was disabled. The parameter of this event is a structure
1367:Generated_Source\PSoC6\pdl\middleware\ble/cy_ble_event_handler.h ****      *  of the cy_stc_ble_hts_char_value_t type.
1368:Generated_Source\PSoC6\pdl\middleware\ble/cy_ble_event_handler.h ****      */
1369:Generated_Source\PSoC6\pdl\middleware\ble/cy_ble_event_handler.h ****     CY_BLE_EVT_HTSS_NOTIFICATION_DISABLED,
1370:Generated_Source\PSoC6\pdl\middleware\ble/cy_ble_event_handler.h **** 
1371:Generated_Source\PSoC6\pdl\middleware\ble/cy_ble_event_handler.h ****     /** HTS Server - Indication for Health Thermometer Service Characteristic
1372:Generated_Source\PSoC6\pdl\middleware\ble/cy_ble_event_handler.h ****      *  was enabled. The parameter of this event is a structure
1373:Generated_Source\PSoC6\pdl\middleware\ble/cy_ble_event_handler.h ****      *  of the cy_stc_ble_hts_char_value_t type.
1374:Generated_Source\PSoC6\pdl\middleware\ble/cy_ble_event_handler.h ****      */
1375:Generated_Source\PSoC6\pdl\middleware\ble/cy_ble_event_handler.h ****     CY_BLE_EVT_HTSS_INDICATION_ENABLED,
1376:Generated_Source\PSoC6\pdl\middleware\ble/cy_ble_event_handler.h **** 
1377:Generated_Source\PSoC6\pdl\middleware\ble/cy_ble_event_handler.h ****     /** HTS Server - Indication for Health Thermometer Service Characteristic
1378:Generated_Source\PSoC6\pdl\middleware\ble/cy_ble_event_handler.h ****      *  was disabled. The parameter of this event is a structure
1379:Generated_Source\PSoC6\pdl\middleware\ble/cy_ble_event_handler.h ****      *  of the cy_stc_ble_hts_char_value_t type.
1380:Generated_Source\PSoC6\pdl\middleware\ble/cy_ble_event_handler.h ****      */
1381:Generated_Source\PSoC6\pdl\middleware\ble/cy_ble_event_handler.h ****     CY_BLE_EVT_HTSS_INDICATION_DISABLED,
1382:Generated_Source\PSoC6\pdl\middleware\ble/cy_ble_event_handler.h **** 
1383:Generated_Source\PSoC6\pdl\middleware\ble/cy_ble_event_handler.h ****     /** HTS Server - Health Thermometer Service Characteristic
1384:Generated_Source\PSoC6\pdl\middleware\ble/cy_ble_event_handler.h ****      *  Indication was confirmed. The parameter of this event
1385:Generated_Source\PSoC6\pdl\middleware\ble/cy_ble_event_handler.h ****      *  is a structure of the cy_stc_ble_hts_char_value_t type.
1386:Generated_Source\PSoC6\pdl\middleware\ble/cy_ble_event_handler.h ****      */
1387:Generated_Source\PSoC6\pdl\middleware\ble/cy_ble_event_handler.h ****     CY_BLE_EVT_HTSS_INDICATION_CONFIRMED,
1388:Generated_Source\PSoC6\pdl\middleware\ble/cy_ble_event_handler.h **** 
1389:Generated_Source\PSoC6\pdl\middleware\ble/cy_ble_event_handler.h ****     /** HTS Server - Write Request for Health Thermometer Service Characteristic
1390:Generated_Source\PSoC6\pdl\middleware\ble/cy_ble_event_handler.h ****      *  was received. The parameter of this event is a structure
1391:Generated_Source\PSoC6\pdl\middleware\ble/cy_ble_event_handler.h ****      *  of the cy_stc_ble_hts_char_value_t type.
1392:Generated_Source\PSoC6\pdl\middleware\ble/cy_ble_event_handler.h ****      */
1393:Generated_Source\PSoC6\pdl\middleware\ble/cy_ble_event_handler.h ****     CY_BLE_EVT_HTSS_WRITE_CHAR,
1394:Generated_Source\PSoC6\pdl\middleware\ble/cy_ble_event_handler.h **** 
1395:Generated_Source\PSoC6\pdl\middleware\ble/cy_ble_event_handler.h ****     /** HTS Client - Health Thermometer Service Characteristic
1396:Generated_Source\PSoC6\pdl\middleware\ble/cy_ble_event_handler.h ****      *  Notification was received. The parameter of this event
1397:Generated_Source\PSoC6\pdl\middleware\ble/cy_ble_event_handler.h ****      *  is a structure of the cy_stc_ble_hts_char_value_t type.
1398:Generated_Source\PSoC6\pdl\middleware\ble/cy_ble_event_handler.h ****      */
1399:Generated_Source\PSoC6\pdl\middleware\ble/cy_ble_event_handler.h ****     CY_BLE_EVT_HTSC_NOTIFICATION,
1400:Generated_Source\PSoC6\pdl\middleware\ble/cy_ble_event_handler.h **** 
1401:Generated_Source\PSoC6\pdl\middleware\ble/cy_ble_event_handler.h ****     /** HTS Client - Health Thermometer Service Characteristic
1402:Generated_Source\PSoC6\pdl\middleware\ble/cy_ble_event_handler.h ****      *  Indication was received. The parameter of this event
1403:Generated_Source\PSoC6\pdl\middleware\ble/cy_ble_event_handler.h ****      *  is a structure of the cy_stc_ble_hts_char_value_t type.
1404:Generated_Source\PSoC6\pdl\middleware\ble/cy_ble_event_handler.h ****      */
1405:Generated_Source\PSoC6\pdl\middleware\ble/cy_ble_event_handler.h ****     CY_BLE_EVT_HTSC_INDICATION,
1406:Generated_Source\PSoC6\pdl\middleware\ble/cy_ble_event_handler.h **** 
1407:Generated_Source\PSoC6\pdl\middleware\ble/cy_ble_event_handler.h ****     /** HTS Client - Read Response for Read Request of Health Thermometer
1408:Generated_Source\PSoC6\pdl\middleware\ble/cy_ble_event_handler.h ****      *  Service Characteristic value. The parameter of this event
1409:Generated_Source\PSoC6\pdl\middleware\ble/cy_ble_event_handler.h ****      *  is a structure of the cy_stc_ble_hts_char_value_t type.
1410:Generated_Source\PSoC6\pdl\middleware\ble/cy_ble_event_handler.h ****      */
1411:Generated_Source\PSoC6\pdl\middleware\ble/cy_ble_event_handler.h ****     CY_BLE_EVT_HTSC_READ_CHAR_RESPONSE,
1412:Generated_Source\PSoC6\pdl\middleware\ble/cy_ble_event_handler.h **** 
ARM GAS  C:\Users\fiona\AppData\Local\Temp\cc5GuuYy.s 			page 35


1413:Generated_Source\PSoC6\pdl\middleware\ble/cy_ble_event_handler.h ****     /** HTS Client - Write Response for Write Request of Health Thermometer
1414:Generated_Source\PSoC6\pdl\middleware\ble/cy_ble_event_handler.h ****      *  Service Characteristic value. The parameter of this event
1415:Generated_Source\PSoC6\pdl\middleware\ble/cy_ble_event_handler.h ****      *  is a structure of the cy_stc_ble_hts_char_value_t type.
1416:Generated_Source\PSoC6\pdl\middleware\ble/cy_ble_event_handler.h ****      */
1417:Generated_Source\PSoC6\pdl\middleware\ble/cy_ble_event_handler.h ****     CY_BLE_EVT_HTSC_WRITE_CHAR_RESPONSE,
1418:Generated_Source\PSoC6\pdl\middleware\ble/cy_ble_event_handler.h **** 
1419:Generated_Source\PSoC6\pdl\middleware\ble/cy_ble_event_handler.h ****     /** HTS Client - Read Response for Read Request of Health Thermometer
1420:Generated_Source\PSoC6\pdl\middleware\ble/cy_ble_event_handler.h ****      *  Service Characteristic Descriptor Read request. The
1421:Generated_Source\PSoC6\pdl\middleware\ble/cy_ble_event_handler.h ****      *  parameter of this event is a structure of
1422:Generated_Source\PSoC6\pdl\middleware\ble/cy_ble_event_handler.h ****      *  the cy_stc_ble_hts_descr_value_t type.
1423:Generated_Source\PSoC6\pdl\middleware\ble/cy_ble_event_handler.h ****      */
1424:Generated_Source\PSoC6\pdl\middleware\ble/cy_ble_event_handler.h ****     CY_BLE_EVT_HTSC_READ_DESCR_RESPONSE,
1425:Generated_Source\PSoC6\pdl\middleware\ble/cy_ble_event_handler.h **** 
1426:Generated_Source\PSoC6\pdl\middleware\ble/cy_ble_event_handler.h ****     /** HTS Client - Write Response for Write Request of Health Thermometer
1427:Generated_Source\PSoC6\pdl\middleware\ble/cy_ble_event_handler.h ****      *  Service Characteristic Configuration Descriptor value.
1428:Generated_Source\PSoC6\pdl\middleware\ble/cy_ble_event_handler.h ****      *  The parameter of this event is a structure of
1429:Generated_Source\PSoC6\pdl\middleware\ble/cy_ble_event_handler.h ****      *  the cy_stc_ble_hts_descr_value_t type.
1430:Generated_Source\PSoC6\pdl\middleware\ble/cy_ble_event_handler.h ****      */
1431:Generated_Source\PSoC6\pdl\middleware\ble/cy_ble_event_handler.h ****     CY_BLE_EVT_HTSC_WRITE_DESCR_RESPONSE,
1432:Generated_Source\PSoC6\pdl\middleware\ble/cy_ble_event_handler.h **** 
1433:Generated_Source\PSoC6\pdl\middleware\ble/cy_ble_event_handler.h **** 
1434:Generated_Source\PSoC6\pdl\middleware\ble/cy_ble_event_handler.h ****     /****************************************
1435:Generated_Source\PSoC6\pdl\middleware\ble/cy_ble_event_handler.h ****      * Immediate Alert Service Events
1436:Generated_Source\PSoC6\pdl\middleware\ble/cy_ble_event_handler.h ****      ***************************************/
1437:Generated_Source\PSoC6\pdl\middleware\ble/cy_ble_event_handler.h **** 
1438:Generated_Source\PSoC6\pdl\middleware\ble/cy_ble_event_handler.h ****     /** IAS Server - Write Command Request for Alert Level
1439:Generated_Source\PSoC6\pdl\middleware\ble/cy_ble_event_handler.h ****      *  Characteristic. The parameter of this event
1440:Generated_Source\PSoC6\pdl\middleware\ble/cy_ble_event_handler.h ****      *  is a structure of the cy_stc_ble_ias_char_value_t type.
1441:Generated_Source\PSoC6\pdl\middleware\ble/cy_ble_event_handler.h ****      */
1442:Generated_Source\PSoC6\pdl\middleware\ble/cy_ble_event_handler.h ****     CY_BLE_EVT_IASS_WRITE_CHAR_CMD,
1443:Generated_Source\PSoC6\pdl\middleware\ble/cy_ble_event_handler.h **** 
1444:Generated_Source\PSoC6\pdl\middleware\ble/cy_ble_event_handler.h ****     /****************************************
1445:Generated_Source\PSoC6\pdl\middleware\ble/cy_ble_event_handler.h ****      * Indoor Positioning Service Events
1446:Generated_Source\PSoC6\pdl\middleware\ble/cy_ble_event_handler.h ****      ***************************************/
1447:Generated_Source\PSoC6\pdl\middleware\ble/cy_ble_event_handler.h **** 
1448:Generated_Source\PSoC6\pdl\middleware\ble/cy_ble_event_handler.h ****     /** IPS Server - Read Request for Indoor Positioning Service Characteristic
1449:Generated_Source\PSoC6\pdl\middleware\ble/cy_ble_event_handler.h ****      *  was received. The parameter of this event is a structure
1450:Generated_Source\PSoC6\pdl\middleware\ble/cy_ble_event_handler.h ****      *  of the cy_stc_ble_ips_char_value_t type.
1451:Generated_Source\PSoC6\pdl\middleware\ble/cy_ble_event_handler.h ****      */
1452:Generated_Source\PSoC6\pdl\middleware\ble/cy_ble_event_handler.h ****     CY_BLE_EVT_IPSS_READ_CHAR,
1453:Generated_Source\PSoC6\pdl\middleware\ble/cy_ble_event_handler.h **** 
1454:Generated_Source\PSoC6\pdl\middleware\ble/cy_ble_event_handler.h ****     /** IPS Server - Write Request for Indoor Positioning Service Characteristic
1455:Generated_Source\PSoC6\pdl\middleware\ble/cy_ble_event_handler.h ****      *  was received. The parameter of this event is a structure
1456:Generated_Source\PSoC6\pdl\middleware\ble/cy_ble_event_handler.h ****      *  of cy_stc_ble_ips_char_value_t type.
1457:Generated_Source\PSoC6\pdl\middleware\ble/cy_ble_event_handler.h ****      */
1458:Generated_Source\PSoC6\pdl\middleware\ble/cy_ble_event_handler.h ****     CY_BLE_EVT_IPSS_WRITE_CHAR,
1459:Generated_Source\PSoC6\pdl\middleware\ble/cy_ble_event_handler.h **** 
1460:Generated_Source\PSoC6\pdl\middleware\ble/cy_ble_event_handler.h ****     /** IPS Server - Write command request for Indoor Positioning Service
1461:Generated_Source\PSoC6\pdl\middleware\ble/cy_ble_event_handler.h ****      *  Characteristic. The parameter of this event
1462:Generated_Source\PSoC6\pdl\middleware\ble/cy_ble_event_handler.h ****      *  is a structure of the cy_stc_ble_ips_char_value_t type.
1463:Generated_Source\PSoC6\pdl\middleware\ble/cy_ble_event_handler.h ****      */
1464:Generated_Source\PSoC6\pdl\middleware\ble/cy_ble_event_handler.h ****     CY_BLE_EVT_IPSS_WRITE_CHAR_CMD,
1465:Generated_Source\PSoC6\pdl\middleware\ble/cy_ble_event_handler.h **** 
1466:Generated_Source\PSoC6\pdl\middleware\ble/cy_ble_event_handler.h ****     /** IPS Client - Read Response for Read Request of Indoor Positioning
1467:Generated_Source\PSoC6\pdl\middleware\ble/cy_ble_event_handler.h ****      *  Service Characteristic value. The parameter of this event
1468:Generated_Source\PSoC6\pdl\middleware\ble/cy_ble_event_handler.h ****      *  is a structure of the cy_stc_ble_ips_char_value_t type.
1469:Generated_Source\PSoC6\pdl\middleware\ble/cy_ble_event_handler.h ****      */
ARM GAS  C:\Users\fiona\AppData\Local\Temp\cc5GuuYy.s 			page 36


1470:Generated_Source\PSoC6\pdl\middleware\ble/cy_ble_event_handler.h ****     CY_BLE_EVT_IPSC_READ_CHAR_RESPONSE,
1471:Generated_Source\PSoC6\pdl\middleware\ble/cy_ble_event_handler.h **** 
1472:Generated_Source\PSoC6\pdl\middleware\ble/cy_ble_event_handler.h ****     /** IPS Client - Read Multiple Response for Read Multiple Request of
1473:Generated_Source\PSoC6\pdl\middleware\ble/cy_ble_event_handler.h ****      *  Indoor Positioning Service Characteristic value. The parameter
1474:Generated_Source\PSoC6\pdl\middleware\ble/cy_ble_event_handler.h ****      *  of this event is a structure of the cy_stc_ble_ips_char_value_t type.
1475:Generated_Source\PSoC6\pdl\middleware\ble/cy_ble_event_handler.h ****      */
1476:Generated_Source\PSoC6\pdl\middleware\ble/cy_ble_event_handler.h ****     CY_BLE_EVT_IPSC_READ_MULTIPLE_CHAR_RESPONSE,
1477:Generated_Source\PSoC6\pdl\middleware\ble/cy_ble_event_handler.h **** 
1478:Generated_Source\PSoC6\pdl\middleware\ble/cy_ble_event_handler.h ****     /** IPS Client - Write Response for Write Request of Indoor Positioning
1479:Generated_Source\PSoC6\pdl\middleware\ble/cy_ble_event_handler.h ****      *  Service Characteristic value. The parameter of this event
1480:Generated_Source\PSoC6\pdl\middleware\ble/cy_ble_event_handler.h ****      *  is a structure of the cy_stc_ble_ips_char_value_t type.
1481:Generated_Source\PSoC6\pdl\middleware\ble/cy_ble_event_handler.h ****      */
1482:Generated_Source\PSoC6\pdl\middleware\ble/cy_ble_event_handler.h ****     CY_BLE_EVT_IPSC_WRITE_CHAR_RESPONSE,
1483:Generated_Source\PSoC6\pdl\middleware\ble/cy_ble_event_handler.h **** 
1484:Generated_Source\PSoC6\pdl\middleware\ble/cy_ble_event_handler.h ****     /** IPS Client - Read Response for Read Request of Indoor Positioning
1485:Generated_Source\PSoC6\pdl\middleware\ble/cy_ble_event_handler.h ****      *  Service Characteristic Descriptor Read request. The
1486:Generated_Source\PSoC6\pdl\middleware\ble/cy_ble_event_handler.h ****      *  parameter of this event is a structure of
1487:Generated_Source\PSoC6\pdl\middleware\ble/cy_ble_event_handler.h ****      *  the cy_stc_ble_ips_descr_value_t type.
1488:Generated_Source\PSoC6\pdl\middleware\ble/cy_ble_event_handler.h ****      */
1489:Generated_Source\PSoC6\pdl\middleware\ble/cy_ble_event_handler.h ****     CY_BLE_EVT_IPSC_READ_DESCR_RESPONSE,
1490:Generated_Source\PSoC6\pdl\middleware\ble/cy_ble_event_handler.h **** 
1491:Generated_Source\PSoC6\pdl\middleware\ble/cy_ble_event_handler.h ****     /** IPS Client - Write Response for Write Request of Indoor Positioning
1492:Generated_Source\PSoC6\pdl\middleware\ble/cy_ble_event_handler.h ****      *  Service Characteristic Configuration Descriptor value.
1493:Generated_Source\PSoC6\pdl\middleware\ble/cy_ble_event_handler.h ****      *  The parameter of this event is a structure of
1494:Generated_Source\PSoC6\pdl\middleware\ble/cy_ble_event_handler.h ****      *  the cy_stc_ble_ips_descr_value_t type.
1495:Generated_Source\PSoC6\pdl\middleware\ble/cy_ble_event_handler.h ****      */
1496:Generated_Source\PSoC6\pdl\middleware\ble/cy_ble_event_handler.h ****     CY_BLE_EVT_IPSC_WRITE_DESCR_RESPONSE,
1497:Generated_Source\PSoC6\pdl\middleware\ble/cy_ble_event_handler.h **** 
1498:Generated_Source\PSoC6\pdl\middleware\ble/cy_ble_event_handler.h ****     /** IPS Client - Error Response for Write Request for Indoor Positioning
1499:Generated_Source\PSoC6\pdl\middleware\ble/cy_ble_event_handler.h ****      *  Service Characteristic Value. The parameter of this event is a structure of
1500:Generated_Source\PSoC6\pdl\middleware\ble/cy_ble_event_handler.h ****      *  the cy_stc_ble_ips_char_value_t type.
1501:Generated_Source\PSoC6\pdl\middleware\ble/cy_ble_event_handler.h ****      */
1502:Generated_Source\PSoC6\pdl\middleware\ble/cy_ble_event_handler.h ****     CY_BLE_EVT_IPSC_ERROR_RESPONSE,
1503:Generated_Source\PSoC6\pdl\middleware\ble/cy_ble_event_handler.h **** 
1504:Generated_Source\PSoC6\pdl\middleware\ble/cy_ble_event_handler.h ****     /** IPS Client - Read Response for Long Read Request of Indoor Positioning
1505:Generated_Source\PSoC6\pdl\middleware\ble/cy_ble_event_handler.h ****      *  Service Characteristic value. The parameter of this event
1506:Generated_Source\PSoC6\pdl\middleware\ble/cy_ble_event_handler.h ****      *  is a structure of the cy_stc_ble_ips_char_value_t type.
1507:Generated_Source\PSoC6\pdl\middleware\ble/cy_ble_event_handler.h ****      */
1508:Generated_Source\PSoC6\pdl\middleware\ble/cy_ble_event_handler.h ****     CY_BLE_EVT_IPSC_READ_BLOB_RSP,
1509:Generated_Source\PSoC6\pdl\middleware\ble/cy_ble_event_handler.h **** 
1510:Generated_Source\PSoC6\pdl\middleware\ble/cy_ble_event_handler.h ****     /****************************************
1511:Generated_Source\PSoC6\pdl\middleware\ble/cy_ble_event_handler.h ****      * Link Loss Service Events
1512:Generated_Source\PSoC6\pdl\middleware\ble/cy_ble_event_handler.h ****      ***************************************/
1513:Generated_Source\PSoC6\pdl\middleware\ble/cy_ble_event_handler.h **** 
1514:Generated_Source\PSoC6\pdl\middleware\ble/cy_ble_event_handler.h ****     /** LLS Server - Write request for Alert Level Characteristic.
1515:Generated_Source\PSoC6\pdl\middleware\ble/cy_ble_event_handler.h ****      *  The parameter of this event is a structure of
1516:Generated_Source\PSoC6\pdl\middleware\ble/cy_ble_event_handler.h ****      *  the cy_stc_ble_lls_char_value_t type.
1517:Generated_Source\PSoC6\pdl\middleware\ble/cy_ble_event_handler.h ****      */
1518:Generated_Source\PSoC6\pdl\middleware\ble/cy_ble_event_handler.h ****     CY_BLE_EVT_LLSS_WRITE_CHAR_REQ,
1519:Generated_Source\PSoC6\pdl\middleware\ble/cy_ble_event_handler.h **** 
1520:Generated_Source\PSoC6\pdl\middleware\ble/cy_ble_event_handler.h ****     /** LLS Client - Read response for Alert Level Characteristic.
1521:Generated_Source\PSoC6\pdl\middleware\ble/cy_ble_event_handler.h ****      *  The parameter of this event is a structure of
1522:Generated_Source\PSoC6\pdl\middleware\ble/cy_ble_event_handler.h ****      *  the cy_stc_ble_lls_char_value_t type.
1523:Generated_Source\PSoC6\pdl\middleware\ble/cy_ble_event_handler.h ****      */
1524:Generated_Source\PSoC6\pdl\middleware\ble/cy_ble_event_handler.h ****     CY_BLE_EVT_LLSC_READ_CHAR_RESPONSE,
1525:Generated_Source\PSoC6\pdl\middleware\ble/cy_ble_event_handler.h **** 
1526:Generated_Source\PSoC6\pdl\middleware\ble/cy_ble_event_handler.h ****     /** LLS Client - Write response for write request of Alert
ARM GAS  C:\Users\fiona\AppData\Local\Temp\cc5GuuYy.s 			page 37


1527:Generated_Source\PSoC6\pdl\middleware\ble/cy_ble_event_handler.h ****      *  Level Characteristic. The parameter of this event is a
1528:Generated_Source\PSoC6\pdl\middleware\ble/cy_ble_event_handler.h ****      *  structure of the cy_stc_ble_lls_char_value_t type.
1529:Generated_Source\PSoC6\pdl\middleware\ble/cy_ble_event_handler.h ****      */
1530:Generated_Source\PSoC6\pdl\middleware\ble/cy_ble_event_handler.h ****     CY_BLE_EVT_LLSC_WRITE_CHAR_RESPONSE,
1531:Generated_Source\PSoC6\pdl\middleware\ble/cy_ble_event_handler.h **** 
1532:Generated_Source\PSoC6\pdl\middleware\ble/cy_ble_event_handler.h **** 
1533:Generated_Source\PSoC6\pdl\middleware\ble/cy_ble_event_handler.h ****     /****************************************
1534:Generated_Source\PSoC6\pdl\middleware\ble/cy_ble_event_handler.h ****      * Location and Navigation Service Events
1535:Generated_Source\PSoC6\pdl\middleware\ble/cy_ble_event_handler.h ****      ***************************************/
1536:Generated_Source\PSoC6\pdl\middleware\ble/cy_ble_event_handler.h **** 
1537:Generated_Source\PSoC6\pdl\middleware\ble/cy_ble_event_handler.h ****     /** LNS Server - Indication for Location and Navigation Service Characteristic
1538:Generated_Source\PSoC6\pdl\middleware\ble/cy_ble_event_handler.h ****      *  was enabled. The parameter of this event is a structure
1539:Generated_Source\PSoC6\pdl\middleware\ble/cy_ble_event_handler.h ****      *  of the cy_stc_ble_lns_char_value_t type.
1540:Generated_Source\PSoC6\pdl\middleware\ble/cy_ble_event_handler.h ****      */
1541:Generated_Source\PSoC6\pdl\middleware\ble/cy_ble_event_handler.h ****     CY_BLE_EVT_LNSS_INDICATION_ENABLED,
1542:Generated_Source\PSoC6\pdl\middleware\ble/cy_ble_event_handler.h **** 
1543:Generated_Source\PSoC6\pdl\middleware\ble/cy_ble_event_handler.h ****     /** LNS Server - Indication for Location and Navigation Service Characteristic
1544:Generated_Source\PSoC6\pdl\middleware\ble/cy_ble_event_handler.h ****      *  was disabled. The parameter of this event is a structure
1545:Generated_Source\PSoC6\pdl\middleware\ble/cy_ble_event_handler.h ****      *  of the cy_stc_ble_lns_char_value_t type.
1546:Generated_Source\PSoC6\pdl\middleware\ble/cy_ble_event_handler.h ****      */
1547:Generated_Source\PSoC6\pdl\middleware\ble/cy_ble_event_handler.h ****     CY_BLE_EVT_LNSS_INDICATION_DISABLED,
1548:Generated_Source\PSoC6\pdl\middleware\ble/cy_ble_event_handler.h **** 
1549:Generated_Source\PSoC6\pdl\middleware\ble/cy_ble_event_handler.h ****     /** LNS Server - Location and Navigation Service Characteristic
1550:Generated_Source\PSoC6\pdl\middleware\ble/cy_ble_event_handler.h ****      *  Indication was confirmed. The parameter of this event
1551:Generated_Source\PSoC6\pdl\middleware\ble/cy_ble_event_handler.h ****      *  is a structure of the cy_stc_ble_lns_char_value_t type.
1552:Generated_Source\PSoC6\pdl\middleware\ble/cy_ble_event_handler.h ****      */
1553:Generated_Source\PSoC6\pdl\middleware\ble/cy_ble_event_handler.h ****     CY_BLE_EVT_LNSS_INDICATION_CONFIRMED,
1554:Generated_Source\PSoC6\pdl\middleware\ble/cy_ble_event_handler.h **** 
1555:Generated_Source\PSoC6\pdl\middleware\ble/cy_ble_event_handler.h ****     /** LNS Server - Notification for Location and Navigation Service Characteristic
1556:Generated_Source\PSoC6\pdl\middleware\ble/cy_ble_event_handler.h ****      *  was enabled. The parameter of this event is a structure of
1557:Generated_Source\PSoC6\pdl\middleware\ble/cy_ble_event_handler.h ****      *  the cy_stc_ble_lns_char_value_t type.
1558:Generated_Source\PSoC6\pdl\middleware\ble/cy_ble_event_handler.h ****      */
1559:Generated_Source\PSoC6\pdl\middleware\ble/cy_ble_event_handler.h ****     CY_BLE_EVT_LNSS_NOTIFICATION_ENABLED,
1560:Generated_Source\PSoC6\pdl\middleware\ble/cy_ble_event_handler.h **** 
1561:Generated_Source\PSoC6\pdl\middleware\ble/cy_ble_event_handler.h ****     /** LNS Server - Notification for Location and Navigation Service Characteristic
1562:Generated_Source\PSoC6\pdl\middleware\ble/cy_ble_event_handler.h ****      *  was disabled. The parameter of this event is a structure
1563:Generated_Source\PSoC6\pdl\middleware\ble/cy_ble_event_handler.h ****      *  of the cy_stc_ble_lns_char_value_t type.
1564:Generated_Source\PSoC6\pdl\middleware\ble/cy_ble_event_handler.h ****      */
1565:Generated_Source\PSoC6\pdl\middleware\ble/cy_ble_event_handler.h ****     CY_BLE_EVT_LNSS_NOTIFICATION_DISABLED,
1566:Generated_Source\PSoC6\pdl\middleware\ble/cy_ble_event_handler.h **** 
1567:Generated_Source\PSoC6\pdl\middleware\ble/cy_ble_event_handler.h ****     /** LNS Server - Write Request for Location and Navigation Service Characteristic
1568:Generated_Source\PSoC6\pdl\middleware\ble/cy_ble_event_handler.h ****      *  was received. The parameter of this event is a structure
1569:Generated_Source\PSoC6\pdl\middleware\ble/cy_ble_event_handler.h ****      *  of the cy_stc_ble_lns_char_value_t type.
1570:Generated_Source\PSoC6\pdl\middleware\ble/cy_ble_event_handler.h ****      */
1571:Generated_Source\PSoC6\pdl\middleware\ble/cy_ble_event_handler.h ****     CY_BLE_EVT_LNSS_WRITE_CHAR,
1572:Generated_Source\PSoC6\pdl\middleware\ble/cy_ble_event_handler.h **** 
1573:Generated_Source\PSoC6\pdl\middleware\ble/cy_ble_event_handler.h ****     /** LNS Client - Location and Navigation Service Characteristic
1574:Generated_Source\PSoC6\pdl\middleware\ble/cy_ble_event_handler.h ****      *  Indication was received. The parameter of this event
1575:Generated_Source\PSoC6\pdl\middleware\ble/cy_ble_event_handler.h ****      *  is a structure of the cy_stc_ble_lns_char_value_t type.
1576:Generated_Source\PSoC6\pdl\middleware\ble/cy_ble_event_handler.h ****      */
1577:Generated_Source\PSoC6\pdl\middleware\ble/cy_ble_event_handler.h ****     CY_BLE_EVT_LNSC_INDICATION,
1578:Generated_Source\PSoC6\pdl\middleware\ble/cy_ble_event_handler.h **** 
1579:Generated_Source\PSoC6\pdl\middleware\ble/cy_ble_event_handler.h ****     /** LNS Client - Location and Navigation Service Characteristic
1580:Generated_Source\PSoC6\pdl\middleware\ble/cy_ble_event_handler.h ****      *  Notification was received. The parameter of this event
1581:Generated_Source\PSoC6\pdl\middleware\ble/cy_ble_event_handler.h ****      *  is a structure of the cy_stc_ble_lns_char_value_t type.
1582:Generated_Source\PSoC6\pdl\middleware\ble/cy_ble_event_handler.h ****      */
1583:Generated_Source\PSoC6\pdl\middleware\ble/cy_ble_event_handler.h ****     CY_BLE_EVT_LNSC_NOTIFICATION,
ARM GAS  C:\Users\fiona\AppData\Local\Temp\cc5GuuYy.s 			page 38


1584:Generated_Source\PSoC6\pdl\middleware\ble/cy_ble_event_handler.h **** 
1585:Generated_Source\PSoC6\pdl\middleware\ble/cy_ble_event_handler.h ****     /** LNS Client - Read Response for Read Request of Location and Navigation
1586:Generated_Source\PSoC6\pdl\middleware\ble/cy_ble_event_handler.h ****      *  Service Characteristic value. The parameter of this event
1587:Generated_Source\PSoC6\pdl\middleware\ble/cy_ble_event_handler.h ****      *  is a structure of the cy_stc_ble_lns_char_value_t type.
1588:Generated_Source\PSoC6\pdl\middleware\ble/cy_ble_event_handler.h ****      */
1589:Generated_Source\PSoC6\pdl\middleware\ble/cy_ble_event_handler.h ****     CY_BLE_EVT_LNSC_READ_CHAR_RESPONSE,
1590:Generated_Source\PSoC6\pdl\middleware\ble/cy_ble_event_handler.h **** 
1591:Generated_Source\PSoC6\pdl\middleware\ble/cy_ble_event_handler.h ****     /** LNS Client - Write Response for Write Request of Location and Navigation
1592:Generated_Source\PSoC6\pdl\middleware\ble/cy_ble_event_handler.h ****      *  Service Characteristic value. The parameter of this event
1593:Generated_Source\PSoC6\pdl\middleware\ble/cy_ble_event_handler.h ****      *  is a structure of the cy_stc_ble_lns_char_value_t type.
1594:Generated_Source\PSoC6\pdl\middleware\ble/cy_ble_event_handler.h ****      */
1595:Generated_Source\PSoC6\pdl\middleware\ble/cy_ble_event_handler.h ****     CY_BLE_EVT_LNSC_WRITE_CHAR_RESPONSE,
1596:Generated_Source\PSoC6\pdl\middleware\ble/cy_ble_event_handler.h **** 
1597:Generated_Source\PSoC6\pdl\middleware\ble/cy_ble_event_handler.h ****     /** LNS Client - Read Response for Read Request of Location and Navigation
1598:Generated_Source\PSoC6\pdl\middleware\ble/cy_ble_event_handler.h ****      *  Service Characteristic Descriptor Read request. The
1599:Generated_Source\PSoC6\pdl\middleware\ble/cy_ble_event_handler.h ****      *  parameter of this event is a structure of
1600:Generated_Source\PSoC6\pdl\middleware\ble/cy_ble_event_handler.h ****      *  the cy_stc_ble_lns_descr_value_t type.
1601:Generated_Source\PSoC6\pdl\middleware\ble/cy_ble_event_handler.h ****      */
1602:Generated_Source\PSoC6\pdl\middleware\ble/cy_ble_event_handler.h ****     CY_BLE_EVT_LNSC_READ_DESCR_RESPONSE,
1603:Generated_Source\PSoC6\pdl\middleware\ble/cy_ble_event_handler.h **** 
1604:Generated_Source\PSoC6\pdl\middleware\ble/cy_ble_event_handler.h ****     /** LNS Client - Write Response for Write Request of Location and Navigation
1605:Generated_Source\PSoC6\pdl\middleware\ble/cy_ble_event_handler.h ****      *  Service Characteristic Configuration Descriptor value.
1606:Generated_Source\PSoC6\pdl\middleware\ble/cy_ble_event_handler.h ****      *  The parameter of this event is a structure of
1607:Generated_Source\PSoC6\pdl\middleware\ble/cy_ble_event_handler.h ****      *  the cy_stc_ble_lns_descr_value_t type.
1608:Generated_Source\PSoC6\pdl\middleware\ble/cy_ble_event_handler.h ****      */
1609:Generated_Source\PSoC6\pdl\middleware\ble/cy_ble_event_handler.h ****     CY_BLE_EVT_LNSC_WRITE_DESCR_RESPONSE,
1610:Generated_Source\PSoC6\pdl\middleware\ble/cy_ble_event_handler.h **** 
1611:Generated_Source\PSoC6\pdl\middleware\ble/cy_ble_event_handler.h **** 
1612:Generated_Source\PSoC6\pdl\middleware\ble/cy_ble_event_handler.h ****     /****************************************
1613:Generated_Source\PSoC6\pdl\middleware\ble/cy_ble_event_handler.h ****      * Next DST Change Service Events
1614:Generated_Source\PSoC6\pdl\middleware\ble/cy_ble_event_handler.h ****      ***************************************/
1615:Generated_Source\PSoC6\pdl\middleware\ble/cy_ble_event_handler.h **** 
1616:Generated_Source\PSoC6\pdl\middleware\ble/cy_ble_event_handler.h ****     /** NDCS Client - Read Response for Read Request of Next DST Change
1617:Generated_Source\PSoC6\pdl\middleware\ble/cy_ble_event_handler.h ****      * Service Characteristic value. The parameter of this event
1618:Generated_Source\PSoC6\pdl\middleware\ble/cy_ble_event_handler.h ****      * is a structure of the cy_stc_ble_ndcs_char_value_t type.
1619:Generated_Source\PSoC6\pdl\middleware\ble/cy_ble_event_handler.h ****      */
1620:Generated_Source\PSoC6\pdl\middleware\ble/cy_ble_event_handler.h ****     CY_BLE_EVT_NDCSC_READ_CHAR_RESPONSE,
1621:Generated_Source\PSoC6\pdl\middleware\ble/cy_ble_event_handler.h **** 
1622:Generated_Source\PSoC6\pdl\middleware\ble/cy_ble_event_handler.h **** 
1623:Generated_Source\PSoC6\pdl\middleware\ble/cy_ble_event_handler.h ****     /****************************************
1624:Generated_Source\PSoC6\pdl\middleware\ble/cy_ble_event_handler.h ****      * Phone Alert Status Service Events
1625:Generated_Source\PSoC6\pdl\middleware\ble/cy_ble_event_handler.h ****      ***************************************/
1626:Generated_Source\PSoC6\pdl\middleware\ble/cy_ble_event_handler.h **** 
1627:Generated_Source\PSoC6\pdl\middleware\ble/cy_ble_event_handler.h ****     /** PASS Server - Notification for Phone Alert Status Service Characteristic
1628:Generated_Source\PSoC6\pdl\middleware\ble/cy_ble_event_handler.h ****      *  was enabled. The parameter of this event is a structure of
1629:Generated_Source\PSoC6\pdl\middleware\ble/cy_ble_event_handler.h ****      *  the cy_stc_ble_pass_char_value_t type.
1630:Generated_Source\PSoC6\pdl\middleware\ble/cy_ble_event_handler.h ****      */
1631:Generated_Source\PSoC6\pdl\middleware\ble/cy_ble_event_handler.h ****     CY_BLE_EVT_PASSS_NOTIFICATION_ENABLED,
1632:Generated_Source\PSoC6\pdl\middleware\ble/cy_ble_event_handler.h **** 
1633:Generated_Source\PSoC6\pdl\middleware\ble/cy_ble_event_handler.h ****     /** PASS Server - Notification for Phone Alert Status Service Characteristic
1634:Generated_Source\PSoC6\pdl\middleware\ble/cy_ble_event_handler.h ****      *  was disabled. The parameter of this event is a structure
1635:Generated_Source\PSoC6\pdl\middleware\ble/cy_ble_event_handler.h ****      *  of the cy_stc_ble_pass_char_value_t type.
1636:Generated_Source\PSoC6\pdl\middleware\ble/cy_ble_event_handler.h ****      */
1637:Generated_Source\PSoC6\pdl\middleware\ble/cy_ble_event_handler.h ****     CY_BLE_EVT_PASSS_NOTIFICATION_DISABLED,
1638:Generated_Source\PSoC6\pdl\middleware\ble/cy_ble_event_handler.h **** 
1639:Generated_Source\PSoC6\pdl\middleware\ble/cy_ble_event_handler.h ****     /** PASS Server - Write Request for Phone Alert Status Service Characteristic
1640:Generated_Source\PSoC6\pdl\middleware\ble/cy_ble_event_handler.h ****      *  was received. The parameter of this event is a structure
ARM GAS  C:\Users\fiona\AppData\Local\Temp\cc5GuuYy.s 			page 39


1641:Generated_Source\PSoC6\pdl\middleware\ble/cy_ble_event_handler.h ****      *  of the cy_stc_ble_pass_char_value_t type.
1642:Generated_Source\PSoC6\pdl\middleware\ble/cy_ble_event_handler.h ****      */
1643:Generated_Source\PSoC6\pdl\middleware\ble/cy_ble_event_handler.h ****     CY_BLE_EVT_PASSS_WRITE_CHAR,
1644:Generated_Source\PSoC6\pdl\middleware\ble/cy_ble_event_handler.h **** 
1645:Generated_Source\PSoC6\pdl\middleware\ble/cy_ble_event_handler.h ****     /** PASS Client - Phone Alert Status Service Characteristic
1646:Generated_Source\PSoC6\pdl\middleware\ble/cy_ble_event_handler.h ****      *  Notification was received. The parameter of this event
1647:Generated_Source\PSoC6\pdl\middleware\ble/cy_ble_event_handler.h ****      *  is a structure of the cy_stc_ble_pass_char_value_t type.
1648:Generated_Source\PSoC6\pdl\middleware\ble/cy_ble_event_handler.h ****      */
1649:Generated_Source\PSoC6\pdl\middleware\ble/cy_ble_event_handler.h ****     CY_BLE_EVT_PASSC_NOTIFICATION,
1650:Generated_Source\PSoC6\pdl\middleware\ble/cy_ble_event_handler.h **** 
1651:Generated_Source\PSoC6\pdl\middleware\ble/cy_ble_event_handler.h ****     /** PASS Client - Read Response for Read Request of Phone Alert Status
1652:Generated_Source\PSoC6\pdl\middleware\ble/cy_ble_event_handler.h ****      *  Service Characteristic value. The parameter of this event
1653:Generated_Source\PSoC6\pdl\middleware\ble/cy_ble_event_handler.h ****      *  is a structure of cy_stc_ble_pass_char_value_t type.
1654:Generated_Source\PSoC6\pdl\middleware\ble/cy_ble_event_handler.h ****      */
1655:Generated_Source\PSoC6\pdl\middleware\ble/cy_ble_event_handler.h ****     CY_BLE_EVT_PASSC_READ_CHAR_RESPONSE,
1656:Generated_Source\PSoC6\pdl\middleware\ble/cy_ble_event_handler.h **** 
1657:Generated_Source\PSoC6\pdl\middleware\ble/cy_ble_event_handler.h ****     /** PASS Client - Read Response for Read Request of Phone Alert Status
1658:Generated_Source\PSoC6\pdl\middleware\ble/cy_ble_event_handler.h ****      *  Service Characteristic Descriptor Read request. The
1659:Generated_Source\PSoC6\pdl\middleware\ble/cy_ble_event_handler.h ****      *  parameter of this event is a structure of
1660:Generated_Source\PSoC6\pdl\middleware\ble/cy_ble_event_handler.h ****      *  the cy_stc_ble_pass_descr_value_t type.
1661:Generated_Source\PSoC6\pdl\middleware\ble/cy_ble_event_handler.h ****      */
1662:Generated_Source\PSoC6\pdl\middleware\ble/cy_ble_event_handler.h ****     CY_BLE_EVT_PASSC_READ_DESCR_RESPONSE,
1663:Generated_Source\PSoC6\pdl\middleware\ble/cy_ble_event_handler.h **** 
1664:Generated_Source\PSoC6\pdl\middleware\ble/cy_ble_event_handler.h ****     /** PASS Client - Write Response for Write Request of Phone Alert Status
1665:Generated_Source\PSoC6\pdl\middleware\ble/cy_ble_event_handler.h ****      *  Service Characteristic Configuration Descriptor value.
1666:Generated_Source\PSoC6\pdl\middleware\ble/cy_ble_event_handler.h ****      *  The parameter of this event is a structure of
1667:Generated_Source\PSoC6\pdl\middleware\ble/cy_ble_event_handler.h ****      *  the cy_stc_ble_pass_descr_value_t type.
1668:Generated_Source\PSoC6\pdl\middleware\ble/cy_ble_event_handler.h ****      */
1669:Generated_Source\PSoC6\pdl\middleware\ble/cy_ble_event_handler.h ****     CY_BLE_EVT_PASSC_WRITE_DESCR_RESPONSE,
1670:Generated_Source\PSoC6\pdl\middleware\ble/cy_ble_event_handler.h **** 
1671:Generated_Source\PSoC6\pdl\middleware\ble/cy_ble_event_handler.h **** 
1672:Generated_Source\PSoC6\pdl\middleware\ble/cy_ble_event_handler.h ****     /****************************************
1673:Generated_Source\PSoC6\pdl\middleware\ble/cy_ble_event_handler.h ****      * Pulse Oximeter Service Events
1674:Generated_Source\PSoC6\pdl\middleware\ble/cy_ble_event_handler.h ****      ***************************************/
1675:Generated_Source\PSoC6\pdl\middleware\ble/cy_ble_event_handler.h **** 
1676:Generated_Source\PSoC6\pdl\middleware\ble/cy_ble_event_handler.h ****     /** PLXS Server - Indication for Pulse Oximeter Service Characteristic
1677:Generated_Source\PSoC6\pdl\middleware\ble/cy_ble_event_handler.h ****      *  was enabled. The parameter of this event is a structure
1678:Generated_Source\PSoC6\pdl\middleware\ble/cy_ble_event_handler.h ****      *  of cy_stc_ble_plxs_char_value_t type.
1679:Generated_Source\PSoC6\pdl\middleware\ble/cy_ble_event_handler.h ****      */
1680:Generated_Source\PSoC6\pdl\middleware\ble/cy_ble_event_handler.h ****     CY_BLE_EVT_PLXSS_INDICATION_ENABLED,
1681:Generated_Source\PSoC6\pdl\middleware\ble/cy_ble_event_handler.h **** 
1682:Generated_Source\PSoC6\pdl\middleware\ble/cy_ble_event_handler.h ****     /** PLXS Server - Indication for Pulse Oximeter Service Characteristic
1683:Generated_Source\PSoC6\pdl\middleware\ble/cy_ble_event_handler.h ****      *  was disabled. The parameter of this event is a structure
1684:Generated_Source\PSoC6\pdl\middleware\ble/cy_ble_event_handler.h ****      *  of the cy_stc_ble_gls_char_value_t type.
1685:Generated_Source\PSoC6\pdl\middleware\ble/cy_ble_event_handler.h ****      */
1686:Generated_Source\PSoC6\pdl\middleware\ble/cy_ble_event_handler.h ****     CY_BLE_EVT_PLXSS_INDICATION_DISABLED,
1687:Generated_Source\PSoC6\pdl\middleware\ble/cy_ble_event_handler.h **** 
1688:Generated_Source\PSoC6\pdl\middleware\ble/cy_ble_event_handler.h ****     /** PLXS Server - Pulse Oximeter Service Characteristic
1689:Generated_Source\PSoC6\pdl\middleware\ble/cy_ble_event_handler.h ****      *  Indication was confirmed. The parameter of this event
1690:Generated_Source\PSoC6\pdl\middleware\ble/cy_ble_event_handler.h ****      *  is a structure of the cy_stc_ble_plxs_char_value_t type.
1691:Generated_Source\PSoC6\pdl\middleware\ble/cy_ble_event_handler.h ****      */
1692:Generated_Source\PSoC6\pdl\middleware\ble/cy_ble_event_handler.h ****     CY_BLE_EVT_PLXSS_INDICATION_CONFIRMED,
1693:Generated_Source\PSoC6\pdl\middleware\ble/cy_ble_event_handler.h **** 
1694:Generated_Source\PSoC6\pdl\middleware\ble/cy_ble_event_handler.h ****     /** PLXS Server - Notification for Pulse Oximeter Service Characteristic
1695:Generated_Source\PSoC6\pdl\middleware\ble/cy_ble_event_handler.h ****      *  was enabled. The parameter of this event is a structure of
1696:Generated_Source\PSoC6\pdl\middleware\ble/cy_ble_event_handler.h ****      *  the cy_stc_ble_plxs_char_value_t type.
1697:Generated_Source\PSoC6\pdl\middleware\ble/cy_ble_event_handler.h ****      */
ARM GAS  C:\Users\fiona\AppData\Local\Temp\cc5GuuYy.s 			page 40


1698:Generated_Source\PSoC6\pdl\middleware\ble/cy_ble_event_handler.h ****     CY_BLE_EVT_PLXSS_NOTIFICATION_ENABLED,
1699:Generated_Source\PSoC6\pdl\middleware\ble/cy_ble_event_handler.h **** 
1700:Generated_Source\PSoC6\pdl\middleware\ble/cy_ble_event_handler.h ****     /** PLXS Server - Notification for Pulse Oximeter Service Characteristic
1701:Generated_Source\PSoC6\pdl\middleware\ble/cy_ble_event_handler.h ****      *  was disabled. The parameter of this event is a structure
1702:Generated_Source\PSoC6\pdl\middleware\ble/cy_ble_event_handler.h ****      *  of the cy_stc_ble_plxs_char_value_t type.
1703:Generated_Source\PSoC6\pdl\middleware\ble/cy_ble_event_handler.h ****      */
1704:Generated_Source\PSoC6\pdl\middleware\ble/cy_ble_event_handler.h ****     CY_BLE_EVT_PLXSS_NOTIFICATION_DISABLED,
1705:Generated_Source\PSoC6\pdl\middleware\ble/cy_ble_event_handler.h **** 
1706:Generated_Source\PSoC6\pdl\middleware\ble/cy_ble_event_handler.h ****     /** PLXS Server - Write Request for Pulse Oximeter Service
1707:Generated_Source\PSoC6\pdl\middleware\ble/cy_ble_event_handler.h ****      *  was received. The parameter of this event is a structure
1708:Generated_Source\PSoC6\pdl\middleware\ble/cy_ble_event_handler.h ****      *  of cy_stc_ble_plxs_char_value_t type.
1709:Generated_Source\PSoC6\pdl\middleware\ble/cy_ble_event_handler.h ****      */
1710:Generated_Source\PSoC6\pdl\middleware\ble/cy_ble_event_handler.h ****     CY_BLE_EVT_PLXSS_WRITE_CHAR,
1711:Generated_Source\PSoC6\pdl\middleware\ble/cy_ble_event_handler.h **** 
1712:Generated_Source\PSoC6\pdl\middleware\ble/cy_ble_event_handler.h ****     /** PLXS Client - Pulse Oximeter Service Characteristic
1713:Generated_Source\PSoC6\pdl\middleware\ble/cy_ble_event_handler.h ****      *  Indication was received. The parameter of this event
1714:Generated_Source\PSoC6\pdl\middleware\ble/cy_ble_event_handler.h ****      *  is a structure of the cy_stc_ble_plxs_char_value_t type.
1715:Generated_Source\PSoC6\pdl\middleware\ble/cy_ble_event_handler.h ****      */
1716:Generated_Source\PSoC6\pdl\middleware\ble/cy_ble_event_handler.h ****     CY_BLE_EVT_PLXSC_INDICATION,
