ARM GAS  C:\Users\salaz\AppData\Local\Temp\ccj0QfQu.s 			page 1


   1              		.syntax unified
   2              		.cpu cortex-m0plus
   3              		.fpu softvfp
   4              		.eabi_attribute 20, 1
   5              		.eabi_attribute 21, 1
   6              		.eabi_attribute 23, 3
   7              		.eabi_attribute 24, 1
   8              		.eabi_attribute 25, 1
   9              		.eabi_attribute 26, 1
  10              		.eabi_attribute 30, 1
  11              		.eabi_attribute 34, 0
  12              		.eabi_attribute 18, 4
  13              		.thumb
  14              		.syntax unified
  15              		.file	"cy_ble_event_handler.c"
  16              		.text
  17              	.Ltext0:
  18              		.cfi_sections	.debug_frame
  19              		.section	.text.Cy_BLE_SendWriteResponse,"ax",%progbits
  20              		.align	2
  21              		.code	16
  22              		.thumb_func
  23              		.type	Cy_BLE_SendWriteResponse, %function
  24              	Cy_BLE_SendWriteResponse:
  25              	.LFB160:
  26              		.file 1 "Generated_Source\\PSoC6\\pdl\\middleware\\ble\\cy_ble_event_handler.c"
   1:Generated_Source\PSoC6\pdl\middleware\ble/cy_ble_event_handler.c **** /***************************************************************************//**
   2:Generated_Source\PSoC6\pdl\middleware\ble/cy_ble_event_handler.c **** * \file cy_ble_event_handler.c
   3:Generated_Source\PSoC6\pdl\middleware\ble/cy_ble_event_handler.c **** * \version 2.20
   4:Generated_Source\PSoC6\pdl\middleware\ble/cy_ble_event_handler.c **** *
   5:Generated_Source\PSoC6\pdl\middleware\ble/cy_ble_event_handler.c **** * \brief
   6:Generated_Source\PSoC6\pdl\middleware\ble/cy_ble_event_handler.c **** *  This file contains the source code for the Event Handler State Machine
   7:Generated_Source\PSoC6\pdl\middleware\ble/cy_ble_event_handler.c **** *  of the BLE Middleware.
   8:Generated_Source\PSoC6\pdl\middleware\ble/cy_ble_event_handler.c **** *
   9:Generated_Source\PSoC6\pdl\middleware\ble/cy_ble_event_handler.c **** ********************************************************************************
  10:Generated_Source\PSoC6\pdl\middleware\ble/cy_ble_event_handler.c **** * \copyright
  11:Generated_Source\PSoC6\pdl\middleware\ble/cy_ble_event_handler.c **** * Copyright 2017-2018, Cypress Semiconductor Corporation.  All rights reserved.
  12:Generated_Source\PSoC6\pdl\middleware\ble/cy_ble_event_handler.c **** * You may use this file only in accordance with the license, terms, conditions,
  13:Generated_Source\PSoC6\pdl\middleware\ble/cy_ble_event_handler.c **** * disclaimers, and limitations in the end user license agreement accompanying
  14:Generated_Source\PSoC6\pdl\middleware\ble/cy_ble_event_handler.c **** * the software package with which this file was provided.
  15:Generated_Source\PSoC6\pdl\middleware\ble/cy_ble_event_handler.c **** *******************************************************************************/
  16:Generated_Source\PSoC6\pdl\middleware\ble/cy_ble_event_handler.c **** 
  17:Generated_Source\PSoC6\pdl\middleware\ble/cy_ble_event_handler.c **** #include "cy_ble_event_handler.h"
  18:Generated_Source\PSoC6\pdl\middleware\ble/cy_ble_event_handler.c **** 
  19:Generated_Source\PSoC6\pdl\middleware\ble/cy_ble_event_handler.c **** /* C binding of definitions if building with C++ compiler */
  20:Generated_Source\PSoC6\pdl\middleware\ble/cy_ble_event_handler.c **** #ifdef __cplusplus
  21:Generated_Source\PSoC6\pdl\middleware\ble/cy_ble_event_handler.c **** extern "C" {
  22:Generated_Source\PSoC6\pdl\middleware\ble/cy_ble_event_handler.c **** #endif /* __cplusplus */
  23:Generated_Source\PSoC6\pdl\middleware\ble/cy_ble_event_handler.c **** 
  24:Generated_Source\PSoC6\pdl\middleware\ble/cy_ble_event_handler.c **** #if (CY_BLE_MODE_PROFILE)
  25:Generated_Source\PSoC6\pdl\middleware\ble/cy_ble_event_handler.c **** 
  26:Generated_Source\PSoC6\pdl\middleware\ble/cy_ble_event_handler.c **** /***************************************
  27:Generated_Source\PSoC6\pdl\middleware\ble/cy_ble_event_handler.c **** * Private Function Prototypes
  28:Generated_Source\PSoC6\pdl\middleware\ble/cy_ble_event_handler.c **** ***************************************/
  29:Generated_Source\PSoC6\pdl\middleware\ble/cy_ble_event_handler.c **** 
  30:Generated_Source\PSoC6\pdl\middleware\ble/cy_ble_event_handler.c **** static void Cy_BLE_TimeOutEventHandler(const cy_stc_ble_timeout_param_t *eventParam);
  31:Generated_Source\PSoC6\pdl\middleware\ble/cy_ble_event_handler.c **** 
ARM GAS  C:\Users\salaz\AppData\Local\Temp\ccj0QfQu.s 			page 2


  32:Generated_Source\PSoC6\pdl\middleware\ble/cy_ble_event_handler.c **** #if (CY_BLE_GATT_ROLE_SERVER)
  33:Generated_Source\PSoC6\pdl\middleware\ble/cy_ble_event_handler.c **** static void Cy_BLE_SendWriteResponse(const cy_stc_ble_gatts_write_cmd_req_param_t *eventParam,
  34:Generated_Source\PSoC6\pdl\middleware\ble/cy_ble_event_handler.c ****                                      cy_en_ble_gatt_err_code_t gattErr);
  35:Generated_Source\PSoC6\pdl\middleware\ble/cy_ble_event_handler.c **** #endif /* CY_BLE_GATT_ROLE_SERVER */
  36:Generated_Source\PSoC6\pdl\middleware\ble/cy_ble_event_handler.c **** 
  37:Generated_Source\PSoC6\pdl\middleware\ble/cy_ble_event_handler.c **** #if (CY_BLE_GATT_ROLE_CLIENT)
  38:Generated_Source\PSoC6\pdl\middleware\ble/cy_ble_event_handler.c **** static void Cy_BLE_GAPC_DiscoverCharacteristicsEventHandler(cy_stc_ble_disc_char_info_t *discCharIn
  39:Generated_Source\PSoC6\pdl\middleware\ble/cy_ble_event_handler.c **** #endif /* CY_BLE_GATT_ROLE_CLIENT */
  40:Generated_Source\PSoC6\pdl\middleware\ble/cy_ble_event_handler.c **** 
  41:Generated_Source\PSoC6\pdl\middleware\ble/cy_ble_event_handler.c **** 
  42:Generated_Source\PSoC6\pdl\middleware\ble/cy_ble_event_handler.c **** /***************************************
  43:Generated_Source\PSoC6\pdl\middleware\ble/cy_ble_event_handler.c **** * Global Variables
  44:Generated_Source\PSoC6\pdl\middleware\ble/cy_ble_event_handler.c **** ***************************************/
  45:Generated_Source\PSoC6\pdl\middleware\ble/cy_ble_event_handler.c **** volatile uint8_t cy_ble_busyStatus[CY_BLE_CONN_COUNT];
  46:Generated_Source\PSoC6\pdl\middleware\ble/cy_ble_event_handler.c **** volatile uint8_t cy_ble_eventHandlerFlag;
  47:Generated_Source\PSoC6\pdl\middleware\ble/cy_ble_event_handler.c **** volatile uint32_t cy_ble_cmdStatus;
  48:Generated_Source\PSoC6\pdl\middleware\ble/cy_ble_event_handler.c **** 
  49:Generated_Source\PSoC6\pdl\middleware\ble/cy_ble_event_handler.c **** #if (CY_BLE_GAP_ROLE_PERIPHERAL || CY_BLE_GAP_ROLE_BROADCASTER)
  50:Generated_Source\PSoC6\pdl\middleware\ble/cy_ble_event_handler.c **** uint8_t cy_ble_advertisingIntervalType;
  51:Generated_Source\PSoC6\pdl\middleware\ble/cy_ble_event_handler.c **** #endif /* CY_BLE_GAP_ROLE_PERIPHERAL || CY_BLE_GAP_ROLE_BROADCASTER) */
  52:Generated_Source\PSoC6\pdl\middleware\ble/cy_ble_event_handler.c **** 
  53:Generated_Source\PSoC6\pdl\middleware\ble/cy_ble_event_handler.c **** #if (CY_BLE_GAP_ROLE_CENTRAL || CY_BLE_GAP_ROLE_OBSERVER)
  54:Generated_Source\PSoC6\pdl\middleware\ble/cy_ble_event_handler.c **** uint8_t cy_ble_scanningIntervalType;
  55:Generated_Source\PSoC6\pdl\middleware\ble/cy_ble_event_handler.c **** #endif /* CY_BLE_GAP_ROLE_CENTRAL || CY_BLE_GAP_ROLE_OBSERVER */
  56:Generated_Source\PSoC6\pdl\middleware\ble/cy_ble_event_handler.c **** 
  57:Generated_Source\PSoC6\pdl\middleware\ble/cy_ble_event_handler.c **** #if (CY_BLE_GATT_ROLE_CLIENT)
  58:Generated_Source\PSoC6\pdl\middleware\ble/cy_ble_event_handler.c **** cy_stc_ble_discovery_t cy_ble_discovery[CY_BLE_GATTC_COUNT];
  59:Generated_Source\PSoC6\pdl\middleware\ble/cy_ble_event_handler.c **** cy_stc_ble_disc_srvc_info_t cy_ble_serverInfo[CY_BLE_GATTC_COUNT][CY_BLE_SRVI_COUNT];
  60:Generated_Source\PSoC6\pdl\middleware\ble/cy_ble_event_handler.c **** #endif /* CY_BLE_GATT_ROLE_CLIENT */
  61:Generated_Source\PSoC6\pdl\middleware\ble/cy_ble_event_handler.c **** 
  62:Generated_Source\PSoC6\pdl\middleware\ble/cy_ble_event_handler.c **** #if (CY_BLE_GAP_ROLE_PERIPHERAL || CY_BLE_GAP_ROLE_CENTRAL)
  63:Generated_Source\PSoC6\pdl\middleware\ble/cy_ble_event_handler.c **** cy_stc_ble_event_handler_t cy_ble_eventHandler;
  64:Generated_Source\PSoC6\pdl\middleware\ble/cy_ble_event_handler.c **** 
  65:Generated_Source\PSoC6\pdl\middleware\ble/cy_ble_event_handler.c **** 
  66:Generated_Source\PSoC6\pdl\middleware\ble/cy_ble_event_handler.c **** /******************************************************************************
  67:Generated_Source\PSoC6\pdl\middleware\ble/cy_ble_event_handler.c **** * Function Name: Cy_BLE_RegisterServiceEventHandler
  68:Generated_Source\PSoC6\pdl\middleware\ble/cy_ble_event_handler.c **** ***************************************************************************//**
  69:Generated_Source\PSoC6\pdl\middleware\ble/cy_ble_event_handler.c **** *
  70:Generated_Source\PSoC6\pdl\middleware\ble/cy_ble_event_handler.c **** *  Registration Service Event Handler
  71:Generated_Source\PSoC6\pdl\middleware\ble/cy_ble_event_handler.c **** *
  72:Generated_Source\PSoC6\pdl\middleware\ble/cy_ble_event_handler.c **** *  \param  eventHandlerFunc: The pointer to the callback procedure.
  73:Generated_Source\PSoC6\pdl\middleware\ble/cy_ble_event_handler.c **** *
  74:Generated_Source\PSoC6\pdl\middleware\ble/cy_ble_event_handler.c **** *  \return
  75:Generated_Source\PSoC6\pdl\middleware\ble/cy_ble_event_handler.c **** *  cy_en_ble_api_result_t : Return value indicates if the function succeeded or
  76:Generated_Source\PSoC6\pdl\middleware\ble/cy_ble_event_handler.c **** *  failed. The following are possible error codes.
  77:Generated_Source\PSoC6\pdl\middleware\ble/cy_ble_event_handler.c **** *
  78:Generated_Source\PSoC6\pdl\middleware\ble/cy_ble_event_handler.c **** *   Error Codes                           | Description
  79:Generated_Source\PSoC6\pdl\middleware\ble/cy_ble_event_handler.c **** *   ------------                          | -----------
  80:Generated_Source\PSoC6\pdl\middleware\ble/cy_ble_event_handler.c **** *   CY_BLE_SUCCESS                        | The function completed successfully.
  81:Generated_Source\PSoC6\pdl\middleware\ble/cy_ble_event_handler.c **** *   CY_BLE_ERROR_INVALID_PARAMETER        | On specifying NULL as input parameter.
  82:Generated_Source\PSoC6\pdl\middleware\ble/cy_ble_event_handler.c **** *   CY_BLE_ERROR_MEMORY_ALLOCATION_FAILED | Buffer overflow in the registration callback.
  83:Generated_Source\PSoC6\pdl\middleware\ble/cy_ble_event_handler.c **** *
  84:Generated_Source\PSoC6\pdl\middleware\ble/cy_ble_event_handler.c **** ******************************************************************************/
  85:Generated_Source\PSoC6\pdl\middleware\ble/cy_ble_event_handler.c **** cy_en_ble_api_result_t Cy_BLE_RegisterServiceEventHandler(cy_ble_event_handle_t eventHandlerFunc)
  86:Generated_Source\PSoC6\pdl\middleware\ble/cy_ble_event_handler.c **** {
  87:Generated_Source\PSoC6\pdl\middleware\ble/cy_ble_event_handler.c ****     cy_en_ble_api_result_t apiResult = CY_BLE_SUCCESS;
  88:Generated_Source\PSoC6\pdl\middleware\ble/cy_ble_event_handler.c ****     uint8_t existFlag = 0u;
ARM GAS  C:\Users\salaz\AppData\Local\Temp\ccj0QfQu.s 			page 3


  89:Generated_Source\PSoC6\pdl\middleware\ble/cy_ble_event_handler.c **** 
  90:Generated_Source\PSoC6\pdl\middleware\ble/cy_ble_event_handler.c ****     if(eventHandlerFunc == NULL)
  91:Generated_Source\PSoC6\pdl\middleware\ble/cy_ble_event_handler.c ****     {
  92:Generated_Source\PSoC6\pdl\middleware\ble/cy_ble_event_handler.c ****         apiResult = CY_BLE_ERROR_INVALID_PARAMETER;
  93:Generated_Source\PSoC6\pdl\middleware\ble/cy_ble_event_handler.c ****     }
  94:Generated_Source\PSoC6\pdl\middleware\ble/cy_ble_event_handler.c ****     else
  95:Generated_Source\PSoC6\pdl\middleware\ble/cy_ble_event_handler.c ****     {
  96:Generated_Source\PSoC6\pdl\middleware\ble/cy_ble_event_handler.c ****         /* Check if eventHandlerFunc has been already registered */
  97:Generated_Source\PSoC6\pdl\middleware\ble/cy_ble_event_handler.c ****         uint32_t idx;
  98:Generated_Source\PSoC6\pdl\middleware\ble/cy_ble_event_handler.c ****         for(idx = 0u; (idx < cy_ble_eventHandler.count) && (existFlag == 0u); idx++)
  99:Generated_Source\PSoC6\pdl\middleware\ble/cy_ble_event_handler.c ****         {
 100:Generated_Source\PSoC6\pdl\middleware\ble/cy_ble_event_handler.c ****             if(cy_ble_eventHandler.serviceEventHandler[idx] == eventHandlerFunc)
 101:Generated_Source\PSoC6\pdl\middleware\ble/cy_ble_event_handler.c ****             {
 102:Generated_Source\PSoC6\pdl\middleware\ble/cy_ble_event_handler.c ****                 existFlag = 1u;
 103:Generated_Source\PSoC6\pdl\middleware\ble/cy_ble_event_handler.c ****             }
 104:Generated_Source\PSoC6\pdl\middleware\ble/cy_ble_event_handler.c ****         }
 105:Generated_Source\PSoC6\pdl\middleware\ble/cy_ble_event_handler.c ****     }
 106:Generated_Source\PSoC6\pdl\middleware\ble/cy_ble_event_handler.c ****     /* Register eventHandlerFunc callback */
 107:Generated_Source\PSoC6\pdl\middleware\ble/cy_ble_event_handler.c ****     if((apiResult == CY_BLE_SUCCESS) && (existFlag == 0u))
 108:Generated_Source\PSoC6\pdl\middleware\ble/cy_ble_event_handler.c ****     {
 109:Generated_Source\PSoC6\pdl\middleware\ble/cy_ble_event_handler.c ****         if(cy_ble_eventHandler.count < CY_BLE_MAX_SRVI)
 110:Generated_Source\PSoC6\pdl\middleware\ble/cy_ble_event_handler.c ****         {
 111:Generated_Source\PSoC6\pdl\middleware\ble/cy_ble_event_handler.c ****             cy_ble_eventHandler.serviceEventHandler[cy_ble_eventHandler.count] = eventHandlerFunc;
 112:Generated_Source\PSoC6\pdl\middleware\ble/cy_ble_event_handler.c ****             cy_ble_eventHandler.count += 1u;
 113:Generated_Source\PSoC6\pdl\middleware\ble/cy_ble_event_handler.c ****         }
 114:Generated_Source\PSoC6\pdl\middleware\ble/cy_ble_event_handler.c ****         else
 115:Generated_Source\PSoC6\pdl\middleware\ble/cy_ble_event_handler.c ****         {
 116:Generated_Source\PSoC6\pdl\middleware\ble/cy_ble_event_handler.c ****             apiResult = CY_BLE_ERROR_MEMORY_ALLOCATION_FAILED;
 117:Generated_Source\PSoC6\pdl\middleware\ble/cy_ble_event_handler.c ****         }
 118:Generated_Source\PSoC6\pdl\middleware\ble/cy_ble_event_handler.c ****     }
 119:Generated_Source\PSoC6\pdl\middleware\ble/cy_ble_event_handler.c **** 
 120:Generated_Source\PSoC6\pdl\middleware\ble/cy_ble_event_handler.c ****     return(apiResult);
 121:Generated_Source\PSoC6\pdl\middleware\ble/cy_ble_event_handler.c **** }
 122:Generated_Source\PSoC6\pdl\middleware\ble/cy_ble_event_handler.c **** 
 123:Generated_Source\PSoC6\pdl\middleware\ble/cy_ble_event_handler.c **** /******************************************************************************
 124:Generated_Source\PSoC6\pdl\middleware\ble/cy_ble_event_handler.c **** * Function Name: Cy_BLE_InvokeServiceEventHandler
 125:Generated_Source\PSoC6\pdl\middleware\ble/cy_ble_event_handler.c **** ***************************************************************************//**
 126:Generated_Source\PSoC6\pdl\middleware\ble/cy_ble_event_handler.c **** *
 127:Generated_Source\PSoC6\pdl\middleware\ble/cy_ble_event_handler.c **** *  Invoke registered service event handlers.
 128:Generated_Source\PSoC6\pdl\middleware\ble/cy_ble_event_handler.c **** *
 129:Generated_Source\PSoC6\pdl\middleware\ble/cy_ble_event_handler.c **** *  \param eventCode:   The event code.
 130:Generated_Source\PSoC6\pdl\middleware\ble/cy_ble_event_handler.c **** *  \param eventParam:  The event parameters.
 131:Generated_Source\PSoC6\pdl\middleware\ble/cy_ble_event_handler.c **** *
 132:Generated_Source\PSoC6\pdl\middleware\ble/cy_ble_event_handler.c **** * \return
 133:Generated_Source\PSoC6\pdl\middleware\ble/cy_ble_event_handler.c **** *  A return value of type cy_en_ble_gatt_err_code_t.
 134:Generated_Source\PSoC6\pdl\middleware\ble/cy_ble_event_handler.c **** *
 135:Generated_Source\PSoC6\pdl\middleware\ble/cy_ble_event_handler.c **** ******************************************************************************/
 136:Generated_Source\PSoC6\pdl\middleware\ble/cy_ble_event_handler.c **** cy_en_ble_gatt_err_code_t Cy_BLE_InvokeServiceEventHandler(uint32_t eventCode,
 137:Generated_Source\PSoC6\pdl\middleware\ble/cy_ble_event_handler.c ****                                                            void *eventParam)
 138:Generated_Source\PSoC6\pdl\middleware\ble/cy_ble_event_handler.c **** {
 139:Generated_Source\PSoC6\pdl\middleware\ble/cy_ble_event_handler.c ****     uint32_t idx;
 140:Generated_Source\PSoC6\pdl\middleware\ble/cy_ble_event_handler.c ****     cy_en_ble_gatt_err_code_t gattErr = CY_BLE_GATT_ERR_NONE;
 141:Generated_Source\PSoC6\pdl\middleware\ble/cy_ble_event_handler.c **** 
 142:Generated_Source\PSoC6\pdl\middleware\ble/cy_ble_event_handler.c ****     for(idx = 0u; (idx < cy_ble_eventHandler.count) && ((cy_ble_eventHandlerFlag & CY_BLE_CALLBACK)
 143:Generated_Source\PSoC6\pdl\middleware\ble/cy_ble_event_handler.c ****     {
 144:Generated_Source\PSoC6\pdl\middleware\ble/cy_ble_event_handler.c ****         gattErr = cy_ble_eventHandler.serviceEventHandler[idx](eventCode, eventParam);
 145:Generated_Source\PSoC6\pdl\middleware\ble/cy_ble_event_handler.c ****     }
ARM GAS  C:\Users\salaz\AppData\Local\Temp\ccj0QfQu.s 			page 4


 146:Generated_Source\PSoC6\pdl\middleware\ble/cy_ble_event_handler.c **** 
 147:Generated_Source\PSoC6\pdl\middleware\ble/cy_ble_event_handler.c ****     return(gattErr);
 148:Generated_Source\PSoC6\pdl\middleware\ble/cy_ble_event_handler.c **** }
 149:Generated_Source\PSoC6\pdl\middleware\ble/cy_ble_event_handler.c **** #endif /* CY_BLE_GAP_ROLE_PERIPHERAL || CY_BLE_GAP_ROLE_CENTRAL */
 150:Generated_Source\PSoC6\pdl\middleware\ble/cy_ble_event_handler.c **** 
 151:Generated_Source\PSoC6\pdl\middleware\ble/cy_ble_event_handler.c **** #if (CY_BLE_GATT_ROLE_SERVER)
 152:Generated_Source\PSoC6\pdl\middleware\ble/cy_ble_event_handler.c **** 
 153:Generated_Source\PSoC6\pdl\middleware\ble/cy_ble_event_handler.c **** 
 154:Generated_Source\PSoC6\pdl\middleware\ble/cy_ble_event_handler.c **** /******************************************************************************
 155:Generated_Source\PSoC6\pdl\middleware\ble/cy_ble_event_handler.c **** * Function Name: Cy_BLE_SendWriteResponse
 156:Generated_Source\PSoC6\pdl\middleware\ble/cy_ble_event_handler.c **** ***************************************************************************//**
 157:Generated_Source\PSoC6\pdl\middleware\ble/cy_ble_event_handler.c **** *
 158:Generated_Source\PSoC6\pdl\middleware\ble/cy_ble_event_handler.c **** *  Sends the Write Response to Write Request when event was handled by service.
 159:Generated_Source\PSoC6\pdl\middleware\ble/cy_ble_event_handler.c **** *
 160:Generated_Source\PSoC6\pdl\middleware\ble/cy_ble_event_handler.c **** *  \param eventParam - The event parameter.
 161:Generated_Source\PSoC6\pdl\middleware\ble/cy_ble_event_handler.c **** *  \param gattErr - The error code.
 162:Generated_Source\PSoC6\pdl\middleware\ble/cy_ble_event_handler.c **** *
 163:Generated_Source\PSoC6\pdl\middleware\ble/cy_ble_event_handler.c **** * \return
 164:Generated_Source\PSoC6\pdl\middleware\ble/cy_ble_event_handler.c **** *  None.
 165:Generated_Source\PSoC6\pdl\middleware\ble/cy_ble_event_handler.c **** *
 166:Generated_Source\PSoC6\pdl\middleware\ble/cy_ble_event_handler.c **** ******************************************************************************/
 167:Generated_Source\PSoC6\pdl\middleware\ble/cy_ble_event_handler.c **** static void Cy_BLE_SendWriteResponse(const cy_stc_ble_gatts_write_cmd_req_param_t *eventParam,
 168:Generated_Source\PSoC6\pdl\middleware\ble/cy_ble_event_handler.c ****                                      cy_en_ble_gatt_err_code_t gattErr)
 169:Generated_Source\PSoC6\pdl\middleware\ble/cy_ble_event_handler.c **** {
  27              		.loc 1 169 0
  28              		.cfi_startproc
  29              		@ args = 0, pretend = 0, frame = 8
  30              		@ frame_needed = 0, uses_anonymous_args = 0
  31              	.LVL0:
  32 0000 30B5     		push	{r4, r5, lr}
  33              		.cfi_def_cfa_offset 12
  34              		.cfi_offset 4, -12
  35              		.cfi_offset 5, -8
  36              		.cfi_offset 14, -4
  37 0002 83B0     		sub	sp, sp, #12
  38              		.cfi_def_cfa_offset 24
  39 0004 0400     		movs	r4, r0
  40 0006 0D00     		movs	r5, r1
 170:Generated_Source\PSoC6\pdl\middleware\ble/cy_ble_event_handler.c ****     cy_stc_ble_gatt_err_param_t err_param =
  41              		.loc 1 170 0
  42 0008 0622     		movs	r2, #6
  43 000a 0021     		movs	r1, #0
  44              	.LVL1:
  45 000c 6846     		mov	r0, sp
  46              	.LVL2:
  47 000e FFF7FEFF 		bl	memset
  48              	.LVL3:
  49 0012 A389     		ldrh	r3, [r4, #12]
  50 0014 6A46     		mov	r2, sp
  51 0016 1380     		strh	r3, [r2]
 171:Generated_Source\PSoC6\pdl\middleware\ble/cy_ble_event_handler.c ****     {
 172:Generated_Source\PSoC6\pdl\middleware\ble/cy_ble_event_handler.c ****         .errInfo.opCode     = CY_BLE_GATT_WRITE_REQ,
 173:Generated_Source\PSoC6\pdl\middleware\ble/cy_ble_event_handler.c ****         .errInfo.attrHandle = eventParam->handleValPair.attrHandle,        
  52              		.loc 1 173 0
  53 0018 2389     		ldrh	r3, [r4, #8]
 170:Generated_Source\PSoC6\pdl\middleware\ble/cy_ble_event_handler.c ****     cy_stc_ble_gatt_err_param_t err_param =
  54              		.loc 1 170 0
ARM GAS  C:\Users\salaz\AppData\Local\Temp\ccj0QfQu.s 			page 5


  55 001a 5380     		strh	r3, [r2, #2]
  56 001c 1223     		movs	r3, #18
  57 001e 1371     		strb	r3, [r2, #4]
 174:Generated_Source\PSoC6\pdl\middleware\ble/cy_ble_event_handler.c ****         .connHandle         = eventParam->connHandle
 175:Generated_Source\PSoC6\pdl\middleware\ble/cy_ble_event_handler.c ****     };
 176:Generated_Source\PSoC6\pdl\middleware\ble/cy_ble_event_handler.c **** 
 177:Generated_Source\PSoC6\pdl\middleware\ble/cy_ble_event_handler.c ****     /* Send response when event was handled by the service */
 178:Generated_Source\PSoC6\pdl\middleware\ble/cy_ble_event_handler.c ****     if((cy_ble_eventHandlerFlag & CY_BLE_CALLBACK) == 0u)
  58              		.loc 1 178 0
  59 0020 074B     		ldr	r3, .L4
  60 0022 1B78     		ldrb	r3, [r3]
  61 0024 DB07     		lsls	r3, r3, #31
  62 0026 09D4     		bmi	.L1
 179:Generated_Source\PSoC6\pdl\middleware\ble/cy_ble_event_handler.c ****     {
 180:Generated_Source\PSoC6\pdl\middleware\ble/cy_ble_event_handler.c ****         if(gattErr != CY_BLE_GATT_ERR_NONE)
  63              		.loc 1 180 0
  64 0028 002D     		cmp	r5, #0
  65 002a 04D0     		beq	.L3
 181:Generated_Source\PSoC6\pdl\middleware\ble/cy_ble_event_handler.c ****         {
 182:Generated_Source\PSoC6\pdl\middleware\ble/cy_ble_event_handler.c ****             /* Send an Error Response */
 183:Generated_Source\PSoC6\pdl\middleware\ble/cy_ble_event_handler.c ****             err_param.errInfo.errorCode  = gattErr;
  66              		.loc 1 183 0
  67 002c 5571     		strb	r5, [r2, #5]
 184:Generated_Source\PSoC6\pdl\middleware\ble/cy_ble_event_handler.c ****             (void)Cy_BLE_GATTS_ErrorRsp(&err_param);
  68              		.loc 1 184 0
  69 002e 6846     		mov	r0, sp
  70 0030 FFF7FEFF 		bl	Cy_BLE_GATTS_ErrorRsp
  71              	.LVL4:
  72 0034 02E0     		b	.L1
  73              	.L3:
 185:Generated_Source\PSoC6\pdl\middleware\ble/cy_ble_event_handler.c ****         }
 186:Generated_Source\PSoC6\pdl\middleware\ble/cy_ble_event_handler.c ****         else
 187:Generated_Source\PSoC6\pdl\middleware\ble/cy_ble_event_handler.c ****         {
 188:Generated_Source\PSoC6\pdl\middleware\ble/cy_ble_event_handler.c ****             /* Send an Write Response */
 189:Generated_Source\PSoC6\pdl\middleware\ble/cy_ble_event_handler.c ****             (void)Cy_BLE_GATTS_WriteRsp(eventParam->connHandle);
  74              		.loc 1 189 0
  75 0036 E068     		ldr	r0, [r4, #12]
  76 0038 FFF7FEFF 		bl	Cy_BLE_GATTS_WriteRsp
  77              	.LVL5:
  78              	.L1:
 190:Generated_Source\PSoC6\pdl\middleware\ble/cy_ble_event_handler.c ****         }
 191:Generated_Source\PSoC6\pdl\middleware\ble/cy_ble_event_handler.c ****     } 
 192:Generated_Source\PSoC6\pdl\middleware\ble/cy_ble_event_handler.c **** }
  79              		.loc 1 192 0
  80 003c 03B0     		add	sp, sp, #12
  81              		@ sp needed
  82              	.LVL6:
  83 003e 30BD     		pop	{r4, r5, pc}
  84              	.L5:
  85              		.align	2
  86              	.L4:
  87 0040 00000000 		.word	cy_ble_eventHandlerFlag
  88              		.cfi_endproc
  89              	.LFE160:
  90              		.size	Cy_BLE_SendWriteResponse, .-Cy_BLE_SendWriteResponse
  91              		.section	.text.Cy_BLE_RegisterServiceEventHandler,"ax",%progbits
  92              		.align	2
ARM GAS  C:\Users\salaz\AppData\Local\Temp\ccj0QfQu.s 			page 6


  93              		.global	Cy_BLE_RegisterServiceEventHandler
  94              		.code	16
  95              		.thumb_func
  96              		.type	Cy_BLE_RegisterServiceEventHandler, %function
  97              	Cy_BLE_RegisterServiceEventHandler:
  98              	.LFB158:
  86:Generated_Source\PSoC6\pdl\middleware\ble/cy_ble_event_handler.c ****     cy_en_ble_api_result_t apiResult = CY_BLE_SUCCESS;
  99              		.loc 1 86 0
 100              		.cfi_startproc
 101              		@ args = 0, pretend = 0, frame = 0
 102              		@ frame_needed = 0, uses_anonymous_args = 0
 103              	.LVL7:
 104 0000 10B5     		push	{r4, lr}
 105              		.cfi_def_cfa_offset 8
 106              		.cfi_offset 4, -8
 107              		.cfi_offset 14, -4
 108              	.LVL8:
  90:Generated_Source\PSoC6\pdl\middleware\ble/cy_ble_event_handler.c ****     {
 109              		.loc 1 90 0
 110 0002 0028     		cmp	r0, #0
 111 0004 11D0     		beq	.L12
 112 0006 0023     		movs	r3, #0
 113 0008 0024     		movs	r4, #0
 114 000a 06E0     		b	.L8
 115              	.LVL9:
 116              	.L10:
 117              	.LBB39:
 100:Generated_Source\PSoC6\pdl\middleware\ble/cy_ble_event_handler.c ****             {
 118              		.loc 1 100 0
 119 000c 9A00     		lsls	r2, r3, #2
 120 000e 1149     		ldr	r1, .L16
 121 0010 5258     		ldr	r2, [r2, r1]
 122 0012 9042     		cmp	r0, r2
 123 0014 00D1     		bne	.L9
 102:Generated_Source\PSoC6\pdl\middleware\ble/cy_ble_event_handler.c ****             }
 124              		.loc 1 102 0
 125 0016 0124     		movs	r4, #1
 126              	.LVL10:
 127              	.L9:
  98:Generated_Source\PSoC6\pdl\middleware\ble/cy_ble_event_handler.c ****         {
 128              		.loc 1 98 0 discriminator 2
 129 0018 0133     		adds	r3, r3, #1
 130              	.LVL11:
 131              	.L8:
  98:Generated_Source\PSoC6\pdl\middleware\ble/cy_ble_event_handler.c ****         {
 132              		.loc 1 98 0 is_stmt 0 discriminator 1
 133 001a 0E4A     		ldr	r2, .L16
 134 001c 127A     		ldrb	r2, [r2, #8]
 135 001e 9342     		cmp	r3, r2
 136 0020 06D2     		bcs	.L14
  98:Generated_Source\PSoC6\pdl\middleware\ble/cy_ble_event_handler.c ****         {
 137              		.loc 1 98 0 discriminator 3
 138 0022 002C     		cmp	r4, #0
 139 0024 F2D0     		beq	.L10
 140              	.LBE39:
  87:Generated_Source\PSoC6\pdl\middleware\ble/cy_ble_event_handler.c ****     uint8_t existFlag = 0u;
 141              		.loc 1 87 0 is_stmt 1
ARM GAS  C:\Users\salaz\AppData\Local\Temp\ccj0QfQu.s 			page 7


 142 0026 0023     		movs	r3, #0
 143              	.LVL12:
 144              	.LBB40:
 145 0028 03E0     		b	.L7
 146              	.LVL13:
 147              	.L12:
 148              	.LBE40:
  88:Generated_Source\PSoC6\pdl\middleware\ble/cy_ble_event_handler.c **** 
 149              		.loc 1 88 0
 150 002a 0024     		movs	r4, #0
  92:Generated_Source\PSoC6\pdl\middleware\ble/cy_ble_event_handler.c ****     }
 151              		.loc 1 92 0
 152 002c 0A4B     		ldr	r3, .L16+4
 153 002e 00E0     		b	.L7
 154              	.LVL14:
 155              	.L14:
  87:Generated_Source\PSoC6\pdl\middleware\ble/cy_ble_event_handler.c ****     uint8_t existFlag = 0u;
 156              		.loc 1 87 0
 157 0030 0023     		movs	r3, #0
 158              	.LVL15:
 159              	.L7:
 107:Generated_Source\PSoC6\pdl\middleware\ble/cy_ble_event_handler.c ****     {
 160              		.loc 1 107 0
 161 0032 002B     		cmp	r3, #0
 162 0034 0CD1     		bne	.L11
 107:Generated_Source\PSoC6\pdl\middleware\ble/cy_ble_event_handler.c ****     {
 163              		.loc 1 107 0 is_stmt 0 discriminator 1
 164 0036 002C     		cmp	r4, #0
 165 0038 0AD1     		bne	.L11
 109:Generated_Source\PSoC6\pdl\middleware\ble/cy_ble_event_handler.c ****         {
 166              		.loc 1 109 0 is_stmt 1
 167 003a 064A     		ldr	r2, .L16
 168 003c 127A     		ldrb	r2, [r2, #8]
 169 003e 012A     		cmp	r2, #1
 170 0040 05D8     		bhi	.L15
 111:Generated_Source\PSoC6\pdl\middleware\ble/cy_ble_event_handler.c ****             cy_ble_eventHandler.count += 1u;
 171              		.loc 1 111 0
 172 0042 0449     		ldr	r1, .L16
 173 0044 9400     		lsls	r4, r2, #2
 174              	.LVL16:
 175 0046 6050     		str	r0, [r4, r1]
 112:Generated_Source\PSoC6\pdl\middleware\ble/cy_ble_event_handler.c ****         }
 176              		.loc 1 112 0
 177 0048 0132     		adds	r2, r2, #1
 178 004a 0A72     		strb	r2, [r1, #8]
 179 004c 00E0     		b	.L11
 180              	.LVL17:
 181              	.L15:
 116:Generated_Source\PSoC6\pdl\middleware\ble/cy_ble_event_handler.c ****         }
 182              		.loc 1 116 0
 183 004e 034B     		ldr	r3, .L16+8
 184              	.LVL18:
 185              	.L11:
 121:Generated_Source\PSoC6\pdl\middleware\ble/cy_ble_event_handler.c **** 
 186              		.loc 1 121 0
 187 0050 1800     		movs	r0, r3
 188              	.LVL19:
ARM GAS  C:\Users\salaz\AppData\Local\Temp\ccj0QfQu.s 			page 8


 189              		@ sp needed
 190 0052 10BD     		pop	{r4, pc}
 191              	.L17:
 192              		.align	2
 193              	.L16:
 194 0054 00000000 		.word	cy_ble_eventHandler
 195 0058 01001600 		.word	1441793
 196 005c 03001600 		.word	1441795
 197              		.cfi_endproc
 198              	.LFE158:
 199              		.size	Cy_BLE_RegisterServiceEventHandler, .-Cy_BLE_RegisterServiceEventHandler
 200              		.section	.text.Cy_BLE_InvokeServiceEventHandler,"ax",%progbits
 201              		.align	2
 202              		.global	Cy_BLE_InvokeServiceEventHandler
 203              		.code	16
 204              		.thumb_func
 205              		.type	Cy_BLE_InvokeServiceEventHandler, %function
 206              	Cy_BLE_InvokeServiceEventHandler:
 207              	.LFB159:
 138:Generated_Source\PSoC6\pdl\middleware\ble/cy_ble_event_handler.c ****     uint32_t idx;
 208              		.loc 1 138 0
 209              		.cfi_startproc
 210              		@ args = 0, pretend = 0, frame = 0
 211              		@ frame_needed = 0, uses_anonymous_args = 0
 212              	.LVL20:
 213 0000 70B5     		push	{r4, r5, r6, lr}
 214              		.cfi_def_cfa_offset 16
 215              		.cfi_offset 4, -16
 216              		.cfi_offset 5, -12
 217              		.cfi_offset 6, -8
 218              		.cfi_offset 14, -4
 219 0002 0600     		movs	r6, r0
 220 0004 0D00     		movs	r5, r1
 221              	.LVL21:
 140:Generated_Source\PSoC6\pdl\middleware\ble/cy_ble_event_handler.c **** 
 222              		.loc 1 140 0
 223 0006 0020     		movs	r0, #0
 224              	.LVL22:
 142:Generated_Source\PSoC6\pdl\middleware\ble/cy_ble_event_handler.c ****     {
 225              		.loc 1 142 0
 226 0008 0024     		movs	r4, #0
 227 000a 06E0     		b	.L19
 228              	.LVL23:
 229              	.L21:
 144:Generated_Source\PSoC6\pdl\middleware\ble/cy_ble_event_handler.c ****     }
 230              		.loc 1 144 0 discriminator 4
 231 000c A200     		lsls	r2, r4, #2
 232 000e 074B     		ldr	r3, .L22
 233 0010 D358     		ldr	r3, [r2, r3]
 234 0012 2900     		movs	r1, r5
 235 0014 3000     		movs	r0, r6
 236              	.LVL24:
 237 0016 9847     		blx	r3
 238              	.LVL25:
 142:Generated_Source\PSoC6\pdl\middleware\ble/cy_ble_event_handler.c ****     {
 239              		.loc 1 142 0 discriminator 4
 240 0018 0134     		adds	r4, r4, #1
ARM GAS  C:\Users\salaz\AppData\Local\Temp\ccj0QfQu.s 			page 9


 241              	.LVL26:
 242              	.L19:
 142:Generated_Source\PSoC6\pdl\middleware\ble/cy_ble_event_handler.c ****     {
 243              		.loc 1 142 0 is_stmt 0 discriminator 1
 244 001a 044B     		ldr	r3, .L22
 245 001c 1B7A     		ldrb	r3, [r3, #8]
 246 001e 9C42     		cmp	r4, r3
 247 0020 03D2     		bcs	.L20
 142:Generated_Source\PSoC6\pdl\middleware\ble/cy_ble_event_handler.c ****     {
 248              		.loc 1 142 0 discriminator 3
 249 0022 034B     		ldr	r3, .L22+4
 250 0024 1B78     		ldrb	r3, [r3]
 251 0026 DB07     		lsls	r3, r3, #31
 252 0028 F0D4     		bmi	.L21
 253              	.L20:
 148:Generated_Source\PSoC6\pdl\middleware\ble/cy_ble_event_handler.c **** #endif /* CY_BLE_GAP_ROLE_PERIPHERAL || CY_BLE_GAP_ROLE_CENTRAL */
 254              		.loc 1 148 0 is_stmt 1
 255              		@ sp needed
 256              	.LVL27:
 257              	.LVL28:
 258              	.LVL29:
 259 002a 70BD     		pop	{r4, r5, r6, pc}
 260              	.L23:
 261              		.align	2
 262              	.L22:
 263 002c 00000000 		.word	cy_ble_eventHandler
 264 0030 00000000 		.word	cy_ble_eventHandlerFlag
 265              		.cfi_endproc
 266              	.LFE159:
 267              		.size	Cy_BLE_InvokeServiceEventHandler, .-Cy_BLE_InvokeServiceEventHandler
 268              		.section	.text.Cy_BLE_IsDeviceAddressValid,"ax",%progbits
 269              		.align	2
 270              		.global	Cy_BLE_IsDeviceAddressValid
 271              		.code	16
 272              		.thumb_func
 273              		.type	Cy_BLE_IsDeviceAddressValid, %function
 274              	Cy_BLE_IsDeviceAddressValid:
 275              	.LFB162:
 193:Generated_Source\PSoC6\pdl\middleware\ble/cy_ble_event_handler.c **** #endif /* CY_BLE_GATT_ROLE_SERVER */
 194:Generated_Source\PSoC6\pdl\middleware\ble/cy_ble_event_handler.c **** 
 195:Generated_Source\PSoC6\pdl\middleware\ble/cy_ble_event_handler.c **** 
 196:Generated_Source\PSoC6\pdl\middleware\ble/cy_ble_event_handler.c **** /******************************************************************************
 197:Generated_Source\PSoC6\pdl\middleware\ble/cy_ble_event_handler.c **** * Function Name: Cy_BLE_TimeOutEventHandler
 198:Generated_Source\PSoC6\pdl\middleware\ble/cy_ble_event_handler.c **** ***************************************************************************//**
 199:Generated_Source\PSoC6\pdl\middleware\ble/cy_ble_event_handler.c **** *
 200:Generated_Source\PSoC6\pdl\middleware\ble/cy_ble_event_handler.c **** *  Handles a CY_BLE_EVT_TIMEOUT event from the BLE Stack.
 201:Generated_Source\PSoC6\pdl\middleware\ble/cy_ble_event_handler.c **** *
 202:Generated_Source\PSoC6\pdl\middleware\ble/cy_ble_event_handler.c **** *  \param eventParam: The pointer to a structure of type cy_stc_ble_timeout_param_t.
 203:Generated_Source\PSoC6\pdl\middleware\ble/cy_ble_event_handler.c **** *
 204:Generated_Source\PSoC6\pdl\middleware\ble/cy_ble_event_handler.c **** * \return
 205:Generated_Source\PSoC6\pdl\middleware\ble/cy_ble_event_handler.c **** *  None
 206:Generated_Source\PSoC6\pdl\middleware\ble/cy_ble_event_handler.c **** *
 207:Generated_Source\PSoC6\pdl\middleware\ble/cy_ble_event_handler.c **** ******************************************************************************/
 208:Generated_Source\PSoC6\pdl\middleware\ble/cy_ble_event_handler.c **** static void Cy_BLE_TimeOutEventHandler(const cy_stc_ble_timeout_param_t *eventParam)
 209:Generated_Source\PSoC6\pdl\middleware\ble/cy_ble_event_handler.c **** {
 210:Generated_Source\PSoC6\pdl\middleware\ble/cy_ble_event_handler.c ****     if(eventParam->reasonCode == CY_BLE_GATT_RSP_TO)
 211:Generated_Source\PSoC6\pdl\middleware\ble/cy_ble_event_handler.c ****     {
ARM GAS  C:\Users\salaz\AppData\Local\Temp\ccj0QfQu.s 			page 10


 212:Generated_Source\PSoC6\pdl\middleware\ble/cy_ble_event_handler.c ****     #if (CY_BLE_GATT_ROLE_CLIENT)
 213:Generated_Source\PSoC6\pdl\middleware\ble/cy_ble_event_handler.c ****         {
 214:Generated_Source\PSoC6\pdl\middleware\ble/cy_ble_event_handler.c ****             uint32_t discIdx = Cy_BLE_GetDiscoveryIdx(eventParam->CY_BLE_HANDLE.connHandle);
 215:Generated_Source\PSoC6\pdl\middleware\ble/cy_ble_event_handler.c ****             if((discIdx < CY_BLE_GATTC_COUNT) && (cy_ble_discovery[discIdx].autoDiscoveryFlag != 0u
 216:Generated_Source\PSoC6\pdl\middleware\ble/cy_ble_event_handler.c ****             {
 217:Generated_Source\PSoC6\pdl\middleware\ble/cy_ble_event_handler.c ****                 switch(Cy_BLE_GetConnectionState(eventParam->CY_BLE_HANDLE.connHandle))
 218:Generated_Source\PSoC6\pdl\middleware\ble/cy_ble_event_handler.c ****                 {
 219:Generated_Source\PSoC6\pdl\middleware\ble/cy_ble_event_handler.c ****                     case CY_BLE_CONN_STATE_CLIENT_SRVC_DISCOVERING:
 220:Generated_Source\PSoC6\pdl\middleware\ble/cy_ble_event_handler.c ****                         Cy_BLE_ApplCallback((uint32_t)CY_BLE_EVT_GATTC_SRVC_DISCOVERY_FAILED,
 221:Generated_Source\PSoC6\pdl\middleware\ble/cy_ble_event_handler.c ****                                             (cy_stc_ble_conn_handle_t*)&eventParam->CY_BLE_HANDLE.c
 222:Generated_Source\PSoC6\pdl\middleware\ble/cy_ble_event_handler.c ****                         break;
 223:Generated_Source\PSoC6\pdl\middleware\ble/cy_ble_event_handler.c **** 
 224:Generated_Source\PSoC6\pdl\middleware\ble/cy_ble_event_handler.c ****                     case CY_BLE_CONN_STATE_CLIENT_INCL_DISCOVERING:
 225:Generated_Source\PSoC6\pdl\middleware\ble/cy_ble_event_handler.c ****                         Cy_BLE_ApplCallback((uint32_t)CY_BLE_EVT_GATTC_INCL_DISCOVERY_FAILED,
 226:Generated_Source\PSoC6\pdl\middleware\ble/cy_ble_event_handler.c ****                                             (cy_stc_ble_conn_handle_t*)&eventParam->CY_BLE_HANDLE.c
 227:Generated_Source\PSoC6\pdl\middleware\ble/cy_ble_event_handler.c ****                         break;
 228:Generated_Source\PSoC6\pdl\middleware\ble/cy_ble_event_handler.c **** 
 229:Generated_Source\PSoC6\pdl\middleware\ble/cy_ble_event_handler.c ****                     case CY_BLE_CONN_STATE_CLIENT_CHAR_DISCOVERING:
 230:Generated_Source\PSoC6\pdl\middleware\ble/cy_ble_event_handler.c ****                         Cy_BLE_ApplCallback((uint32_t)CY_BLE_EVT_GATTC_CHAR_DISCOVERY_FAILED,
 231:Generated_Source\PSoC6\pdl\middleware\ble/cy_ble_event_handler.c ****                                             (cy_stc_ble_conn_handle_t*)&eventParam->CY_BLE_HANDLE.c
 232:Generated_Source\PSoC6\pdl\middleware\ble/cy_ble_event_handler.c ****                         break;
 233:Generated_Source\PSoC6\pdl\middleware\ble/cy_ble_event_handler.c **** 
 234:Generated_Source\PSoC6\pdl\middleware\ble/cy_ble_event_handler.c ****                     case CY_BLE_CONN_STATE_CLIENT_DESCR_DISCOVERING:
 235:Generated_Source\PSoC6\pdl\middleware\ble/cy_ble_event_handler.c ****                         Cy_BLE_ApplCallback((uint32_t)CY_BLE_EVT_GATTC_DESCR_DISCOVERY_FAILED,
 236:Generated_Source\PSoC6\pdl\middleware\ble/cy_ble_event_handler.c ****                                             (cy_stc_ble_conn_handle_t*)&eventParam->CY_BLE_HANDLE.c
 237:Generated_Source\PSoC6\pdl\middleware\ble/cy_ble_event_handler.c ****                         break;
 238:Generated_Source\PSoC6\pdl\middleware\ble/cy_ble_event_handler.c **** 
 239:Generated_Source\PSoC6\pdl\middleware\ble/cy_ble_event_handler.c ****                     default:        /* Other states should not be set in Auto discovery mode */
 240:Generated_Source\PSoC6\pdl\middleware\ble/cy_ble_event_handler.c ****                         break;
 241:Generated_Source\PSoC6\pdl\middleware\ble/cy_ble_event_handler.c ****                 }
 242:Generated_Source\PSoC6\pdl\middleware\ble/cy_ble_event_handler.c ****                 cy_ble_discovery[discIdx].autoDiscoveryFlag = 0u;
 243:Generated_Source\PSoC6\pdl\middleware\ble/cy_ble_event_handler.c ****                 Cy_BLE_SetConnectionState(eventParam->CY_BLE_HANDLE.connHandle, CY_BLE_CONN_STATE_C
 244:Generated_Source\PSoC6\pdl\middleware\ble/cy_ble_event_handler.c ****             }
 245:Generated_Source\PSoC6\pdl\middleware\ble/cy_ble_event_handler.c ****         }
 246:Generated_Source\PSoC6\pdl\middleware\ble/cy_ble_event_handler.c ****     #endif /* CY_BLE_GATT_ROLE_CLIENT */
 247:Generated_Source\PSoC6\pdl\middleware\ble/cy_ble_event_handler.c ****     }
 248:Generated_Source\PSoC6\pdl\middleware\ble/cy_ble_event_handler.c **** 
 249:Generated_Source\PSoC6\pdl\middleware\ble/cy_ble_event_handler.c ****     #if (CY_BLE_GAP_ROLE_CENTRAL)
 250:Generated_Source\PSoC6\pdl\middleware\ble/cy_ble_event_handler.c ****     /* Connection procedure timeout */
 251:Generated_Source\PSoC6\pdl\middleware\ble/cy_ble_event_handler.c ****     if((eventParam->reasonCode == CY_BLE_GENERIC_APP_TO) &&
 252:Generated_Source\PSoC6\pdl\middleware\ble/cy_ble_event_handler.c ****        (cy_ble_connectingTimeout.timerHandle == eventParam->timerHandle))
 253:Generated_Source\PSoC6\pdl\middleware\ble/cy_ble_event_handler.c ****     {
 254:Generated_Source\PSoC6\pdl\middleware\ble/cy_ble_event_handler.c ****         if(Cy_BLE_GetState() == CY_BLE_STATE_CONNECTING)
 255:Generated_Source\PSoC6\pdl\middleware\ble/cy_ble_event_handler.c ****         {
 256:Generated_Source\PSoC6\pdl\middleware\ble/cy_ble_event_handler.c ****             (void)Cy_BLE_GAPC_CancelDeviceConnection();
 257:Generated_Source\PSoC6\pdl\middleware\ble/cy_ble_event_handler.c ****         }
 258:Generated_Source\PSoC6\pdl\middleware\ble/cy_ble_event_handler.c ****     }
 259:Generated_Source\PSoC6\pdl\middleware\ble/cy_ble_event_handler.c ****     #endif /* CY_BLE_GAP_ROLE_CENTRAL */
 260:Generated_Source\PSoC6\pdl\middleware\ble/cy_ble_event_handler.c **** }
 261:Generated_Source\PSoC6\pdl\middleware\ble/cy_ble_event_handler.c **** 
 262:Generated_Source\PSoC6\pdl\middleware\ble/cy_ble_event_handler.c **** 
 263:Generated_Source\PSoC6\pdl\middleware\ble/cy_ble_event_handler.c **** #if (CY_BLE_GATT_ROLE_SERVER || CY_BLE_GATT_ROLE_CLIENT)
 264:Generated_Source\PSoC6\pdl\middleware\ble/cy_ble_event_handler.c **** 
 265:Generated_Source\PSoC6\pdl\middleware\ble/cy_ble_event_handler.c **** /******************************************************************************
 266:Generated_Source\PSoC6\pdl\middleware\ble/cy_ble_event_handler.c **** * Function Name: Cy_BLE_IsDeviceAddressValid
 267:Generated_Source\PSoC6\pdl\middleware\ble/cy_ble_event_handler.c **** ***************************************************************************//**
 268:Generated_Source\PSoC6\pdl\middleware\ble/cy_ble_event_handler.c **** *
ARM GAS  C:\Users\salaz\AppData\Local\Temp\ccj0QfQu.s 			page 11


 269:Generated_Source\PSoC6\pdl\middleware\ble/cy_ble_event_handler.c **** *  This function verifies that the device address is valid (not equal zero)
 270:Generated_Source\PSoC6\pdl\middleware\ble/cy_ble_event_handler.c **** *    
 271:Generated_Source\PSoC6\pdl\middleware\ble/cy_ble_event_handler.c **** *  \param deviceAddress: The pointer to the BD address of
 272:Generated_Source\PSoC6\pdl\middleware\ble/cy_ble_event_handler.c **** *                        type #cy_stc_ble_gap_bd_addr_t.
 273:Generated_Source\PSoC6\pdl\middleware\ble/cy_ble_event_handler.c **** *
 274:Generated_Source\PSoC6\pdl\middleware\ble/cy_ble_event_handler.c **** *  \return
 275:Generated_Source\PSoC6\pdl\middleware\ble/cy_ble_event_handler.c **** *   A non-zero value when a device address is valid
 276:Generated_Source\PSoC6\pdl\middleware\ble/cy_ble_event_handler.c **** *
 277:Generated_Source\PSoC6\pdl\middleware\ble/cy_ble_event_handler.c **** ******************************************************************************/
 278:Generated_Source\PSoC6\pdl\middleware\ble/cy_ble_event_handler.c **** uint8_t Cy_BLE_IsDeviceAddressValid(const cy_stc_ble_gap_bd_addr_t *deviceAddress)
 279:Generated_Source\PSoC6\pdl\middleware\ble/cy_ble_event_handler.c **** {
 276              		.loc 1 279 0
 277              		.cfi_startproc
 278              		@ args = 0, pretend = 0, frame = 0
 279              		@ frame_needed = 0, uses_anonymous_args = 0
 280              		@ link register save eliminated.
 281              	.LVL30:
 280:Generated_Source\PSoC6\pdl\middleware\ble/cy_ble_event_handler.c ****     uint8_t addressValid = 0u;
 281:Generated_Source\PSoC6\pdl\middleware\ble/cy_ble_event_handler.c ****     uint32_t i;
 282:Generated_Source\PSoC6\pdl\middleware\ble/cy_ble_event_handler.c **** 
 283:Generated_Source\PSoC6\pdl\middleware\ble/cy_ble_event_handler.c ****     if(deviceAddress->type == CY_BLE_GAP_ADDR_TYPE_PUBLIC)
 282              		.loc 1 283 0
 283 0000 8379     		ldrb	r3, [r0, #6]
 284 0002 002B     		cmp	r3, #0
 285 0004 06D0     		beq	.L28
 280:Generated_Source\PSoC6\pdl\middleware\ble/cy_ble_event_handler.c ****     uint8_t addressValid = 0u;
 286              		.loc 1 280 0
 287 0006 0020     		movs	r0, #0
 288              	.LVL31:
 289 0008 0AE0     		b	.L26
 290              	.LVL32:
 291              	.L27:
 284:Generated_Source\PSoC6\pdl\middleware\ble/cy_ble_event_handler.c ****     {
 285:Generated_Source\PSoC6\pdl\middleware\ble/cy_ble_event_handler.c ****         for(i = 0u; i < CY_BLE_GAP_BD_ADDR_SIZE; i++)
 286:Generated_Source\PSoC6\pdl\middleware\ble/cy_ble_event_handler.c ****         {
 287:Generated_Source\PSoC6\pdl\middleware\ble/cy_ble_event_handler.c ****             if(deviceAddress->bdAddr[i] != 0u)
 292              		.loc 1 287 0
 293 000a C25C     		ldrb	r2, [r0, r3]
 294 000c 002A     		cmp	r2, #0
 295 000e 06D1     		bne	.L29
 285:Generated_Source\PSoC6\pdl\middleware\ble/cy_ble_event_handler.c ****         {
 296              		.loc 1 285 0 discriminator 2
 297 0010 0133     		adds	r3, r3, #1
 298              	.LVL33:
 299 0012 00E0     		b	.L25
 300              	.LVL34:
 301              	.L28:
 302 0014 0023     		movs	r3, #0
 303              	.L25:
 304              	.LVL35:
 285:Generated_Source\PSoC6\pdl\middleware\ble/cy_ble_event_handler.c ****         {
 305              		.loc 1 285 0 is_stmt 0 discriminator 1
 306 0016 052B     		cmp	r3, #5
 307 0018 F7D9     		bls	.L27
 280:Generated_Source\PSoC6\pdl\middleware\ble/cy_ble_event_handler.c ****     uint8_t addressValid = 0u;
 308              		.loc 1 280 0 is_stmt 1
 309 001a 0020     		movs	r0, #0
ARM GAS  C:\Users\salaz\AppData\Local\Temp\ccj0QfQu.s 			page 12


 310              	.LVL36:
 311 001c 00E0     		b	.L26
 312              	.LVL37:
 313              	.L29:
 288:Generated_Source\PSoC6\pdl\middleware\ble/cy_ble_event_handler.c ****             {
 289:Generated_Source\PSoC6\pdl\middleware\ble/cy_ble_event_handler.c ****                 addressValid = 1u;
 314              		.loc 1 289 0
 315 001e 0120     		movs	r0, #1
 316              	.LVL38:
 317              	.L26:
 290:Generated_Source\PSoC6\pdl\middleware\ble/cy_ble_event_handler.c ****                 break;
 291:Generated_Source\PSoC6\pdl\middleware\ble/cy_ble_event_handler.c ****             }
 292:Generated_Source\PSoC6\pdl\middleware\ble/cy_ble_event_handler.c ****         }
 293:Generated_Source\PSoC6\pdl\middleware\ble/cy_ble_event_handler.c ****     }
 294:Generated_Source\PSoC6\pdl\middleware\ble/cy_ble_event_handler.c **** 
 295:Generated_Source\PSoC6\pdl\middleware\ble/cy_ble_event_handler.c ****     return(addressValid);
 296:Generated_Source\PSoC6\pdl\middleware\ble/cy_ble_event_handler.c **** }
 318              		.loc 1 296 0
 319              		@ sp needed
 320 0020 7047     		bx	lr
 321              		.cfi_endproc
 322              	.LFE162:
 323              		.size	Cy_BLE_IsDeviceAddressValid, .-Cy_BLE_IsDeviceAddressValid
 324 0022 C046     		.section	.text.Cy_BLE_EventHandler,"ax",%progbits
 325              		.align	2
 326              		.global	Cy_BLE_EventHandler
 327              		.code	16
 328              		.thumb_func
 329              		.type	Cy_BLE_EventHandler, %function
 330              	Cy_BLE_EventHandler:
 331              	.LFB163:
 297:Generated_Source\PSoC6\pdl\middleware\ble/cy_ble_event_handler.c **** #endif /* CY_BLE_GATT_ROLE_SERVER || CY_BLE_GATT_ROLE_CLIENT */
 298:Generated_Source\PSoC6\pdl\middleware\ble/cy_ble_event_handler.c **** 
 299:Generated_Source\PSoC6\pdl\middleware\ble/cy_ble_event_handler.c **** 
 300:Generated_Source\PSoC6\pdl\middleware\ble/cy_ble_event_handler.c **** /******************************************************************************
 301:Generated_Source\PSoC6\pdl\middleware\ble/cy_ble_event_handler.c **** * Function Name: Cy_BLE_EventHandler
 302:Generated_Source\PSoC6\pdl\middleware\ble/cy_ble_event_handler.c **** ***************************************************************************//**
 303:Generated_Source\PSoC6\pdl\middleware\ble/cy_ble_event_handler.c **** *
 304:Generated_Source\PSoC6\pdl\middleware\ble/cy_ble_event_handler.c **** *  Handles events from the BLE Stack.
 305:Generated_Source\PSoC6\pdl\middleware\ble/cy_ble_event_handler.c **** *
 306:Generated_Source\PSoC6\pdl\middleware\ble/cy_ble_event_handler.c **** *  \param event:   The event code.
 307:Generated_Source\PSoC6\pdl\middleware\ble/cy_ble_event_handler.c **** *  \param evParam: The event parameters.
 308:Generated_Source\PSoC6\pdl\middleware\ble/cy_ble_event_handler.c **** *
 309:Generated_Source\PSoC6\pdl\middleware\ble/cy_ble_event_handler.c **** * \return
 310:Generated_Source\PSoC6\pdl\middleware\ble/cy_ble_event_handler.c **** *  None.
 311:Generated_Source\PSoC6\pdl\middleware\ble/cy_ble_event_handler.c **** *
 312:Generated_Source\PSoC6\pdl\middleware\ble/cy_ble_event_handler.c **** ******************************************************************************/
 313:Generated_Source\PSoC6\pdl\middleware\ble/cy_ble_event_handler.c **** void Cy_BLE_EventHandler(cy_en_ble_event_t event,
 314:Generated_Source\PSoC6\pdl\middleware\ble/cy_ble_event_handler.c ****                          void *evParam)
 315:Generated_Source\PSoC6\pdl\middleware\ble/cy_ble_event_handler.c **** {
 332              		.loc 1 315 0
 333              		.cfi_startproc
 334              		@ args = 0, pretend = 0, frame = 48
 335              		@ frame_needed = 0, uses_anonymous_args = 0
 336              	.LVL39:
 337 0000 F0B5     		push	{r4, r5, r6, r7, lr}
 338              		.cfi_def_cfa_offset 20
ARM GAS  C:\Users\salaz\AppData\Local\Temp\ccj0QfQu.s 			page 13


 339              		.cfi_offset 4, -20
 340              		.cfi_offset 5, -16
 341              		.cfi_offset 6, -12
 342              		.cfi_offset 7, -8
 343              		.cfi_offset 14, -4
 344 0002 4746     		mov	r7, r8
 345 0004 80B4     		push	{r7}
 346              		.cfi_def_cfa_offset 24
 347              		.cfi_offset 8, -24
 348 0006 8CB0     		sub	sp, sp, #48
 349              		.cfi_def_cfa_offset 72
 350 0008 0400     		movs	r4, r0
 351 000a 0D00     		movs	r5, r1
 316:Generated_Source\PSoC6\pdl\middleware\ble/cy_ble_event_handler.c ****     cy_ble_eventHandlerFlag |= CY_BLE_CALLBACK;
 352              		.loc 1 316 0
 353 000c BC4A     		ldr	r2, .L106
 354 000e 1178     		ldrb	r1, [r2]
 355              	.LVL40:
 356 0010 0123     		movs	r3, #1
 357 0012 0B43     		orrs	r3, r1
 358 0014 DBB2     		uxtb	r3, r3
 359 0016 1370     		strb	r3, [r2]
 317:Generated_Source\PSoC6\pdl\middleware\ble/cy_ble_event_handler.c **** 
 318:Generated_Source\PSoC6\pdl\middleware\ble/cy_ble_event_handler.c ****     /* Common Profile event handling */
 319:Generated_Source\PSoC6\pdl\middleware\ble/cy_ble_event_handler.c ****     switch(event)
 360              		.loc 1 319 0
 361 0018 BA4B     		ldr	r3, .L106+4
 362 001a 9842     		cmp	r0, r3
 363 001c 00D1     		bne	.LCB358
 364 001e 13E2     		b	.L32	@long jump
 365              	.LCB358:
 366 0020 31D8     		bhi	.L33
 367 0022 B94B     		ldr	r3, .L106+8
 368 0024 9842     		cmp	r0, r3
 369 0026 00D1     		bne	.LCB363
 370 0028 C6E0     		b	.L34	@long jump
 371              	.LCB363:
 372 002a 15D8     		bhi	.L35
 373 002c B74B     		ldr	r3, .L106+12
 374 002e 9842     		cmp	r0, r3
 375 0030 00D1     		bne	.LCB368
 376 0032 EAE0     		b	.L36	@long jump
 377              	.LCB368:
 378 0034 07D8     		bhi	.L37
 379 0036 023B     		subs	r3, r3, #2
 380 0038 9842     		cmp	r0, r3
 381 003a 57D0     		beq	.L38
 382 003c B44B     		ldr	r3, .L106+16
 383 003e 9842     		cmp	r0, r3
 384 0040 00D1     		bne	.LCB376
 385 0042 DEE0     		b	.L39	@long jump
 386              	.LCB376:
 387 0044 79E3     		b	.L31
 388              	.L37:
 389 0046 B34B     		ldr	r3, .L106+20
 390 0048 9842     		cmp	r0, r3
 391 004a 00D1     		bne	.LCB383
ARM GAS  C:\Users\salaz\AppData\Local\Temp\ccj0QfQu.s 			page 14


 392 004c 1CE1     		b	.L40	@long jump
 393              	.LCB383:
 394 004e B24B     		ldr	r3, .L106+24
 395 0050 9842     		cmp	r0, r3
 396 0052 00D1     		bne	.LCB386
 397 0054 6CE3     		b	.L41	@long jump
 398              	.LCB386:
 399 0056 70E3     		b	.L31
 400              	.L35:
 401 0058 B04B     		ldr	r3, .L106+28
 402 005a 9842     		cmp	r0, r3
 403 005c 00D1     		bne	.LCB393
 404 005e 47E2     		b	.L42	@long jump
 405              	.LCB393:
 406 0060 08D8     		bhi	.L43
 407 0062 AF4B     		ldr	r3, .L106+32
 408 0064 9842     		cmp	r0, r3
 409 0066 00D1     		bne	.LCB398
 410 0068 9EE0     		b	.L44	@long jump
 411              	.LCB398:
 412 006a AE4B     		ldr	r3, .L106+36
 413 006c 9842     		cmp	r0, r3
 414 006e 00D1     		bne	.LCB401
 415 0070 1FE1     		b	.L45	@long jump
 416              	.LCB401:
 417 0072 62E3     		b	.L31
 418              	.L43:
 419 0074 AC4B     		ldr	r3, .L106+40
 420 0076 9842     		cmp	r0, r3
 421 0078 00D1     		bne	.LCB408
 422 007a E9E1     		b	.L46	@long jump
 423              	.LCB408:
 424 007c AB4B     		ldr	r3, .L106+44
 425 007e 9842     		cmp	r0, r3
 426 0080 00D1     		bne	.LCB411
 427 0082 31E2     		b	.L47	@long jump
 428              	.LCB411:
 429 0084 59E3     		b	.L31
 430              	.L33:
 431 0086 AA4B     		ldr	r3, .L106+48
 432 0088 9842     		cmp	r0, r3
 433 008a 00D1     		bne	.LCB418
 434 008c 14E3     		b	.L48	@long jump
 435              	.LCB418:
 436 008e 16D8     		bhi	.L49
 437 0090 A84B     		ldr	r3, .L106+52
 438 0092 9842     		cmp	r0, r3
 439 0094 00D1     		bne	.LCB423
 440 0096 C8E2     		b	.L50	@long jump
 441              	.LCB423:
 442 0098 08D8     		bhi	.L51
 443 009a A74B     		ldr	r3, .L106+56
 444 009c 9842     		cmp	r0, r3
 445 009e 00D1     		bne	.LCB428
 446 00a0 D6E1     		b	.L46	@long jump
 447              	.LCB428:
 448 00a2 A64B     		ldr	r3, .L106+60
ARM GAS  C:\Users\salaz\AppData\Local\Temp\ccj0QfQu.s 			page 15


 449 00a4 9842     		cmp	r0, r3
 450 00a6 00D1     		bne	.LCB431
 451 00a8 62E2     		b	.L52	@long jump
 452              	.LCB431:
 453 00aa 46E3     		b	.L31
 454              	.L51:
 455 00ac A44B     		ldr	r3, .L106+64
 456 00ae 9842     		cmp	r0, r3
 457 00b0 00D1     		bne	.LCB438
 458 00b2 D7E2     		b	.L53	@long jump
 459              	.LCB438:
 460 00b4 A34B     		ldr	r3, .L106+68
 461 00b6 9842     		cmp	r0, r3
 462 00b8 00D1     		bne	.LCB441
 463 00ba DBE2     		b	.L54	@long jump
 464              	.LCB441:
 465 00bc 3DE3     		b	.L31
 466              	.L49:
 467 00be A24B     		ldr	r3, .L106+72
 468 00c0 9842     		cmp	r0, r3
 469 00c2 00D1     		bne	.LCB448
 470 00c4 04E3     		b	.L55	@long jump
 471              	.LCB448:
 472 00c6 08D8     		bhi	.L56
 473 00c8 A04B     		ldr	r3, .L106+76
 474 00ca 9842     		cmp	r0, r3
 475 00cc 00D1     		bne	.LCB453
 476 00ce F7E2     		b	.L57	@long jump
 477              	.LCB453:
 478 00d0 9F4B     		ldr	r3, .L106+80
 479 00d2 9842     		cmp	r0, r3
 480 00d4 00D1     		bne	.LCB456
 481 00d6 F7E2     		b	.L58	@long jump
 482              	.LCB456:
 483 00d8 2FE3     		b	.L31
 484              	.L56:
 485 00da 9E4B     		ldr	r3, .L106+84
 486 00dc 9842     		cmp	r0, r3
 487 00de 00D1     		bne	.LCB463
 488 00e0 FAE2     		b	.L59	@long jump
 489              	.LCB463:
 490 00e2 9D4B     		ldr	r3, .L106+88
 491 00e4 9842     		cmp	r0, r3
 492 00e6 00D1     		bne	.LCB466
 493 00e8 3EE2     		b	.L60	@long jump
 494              	.LCB466:
 495 00ea 26E3     		b	.L31
 496              	.L38:
 320:Generated_Source\PSoC6\pdl\middleware\ble/cy_ble_event_handler.c ****     {
 321:Generated_Source\PSoC6\pdl\middleware\ble/cy_ble_event_handler.c ****         /**********************************************************
 322:Generated_Source\PSoC6\pdl\middleware\ble/cy_ble_event_handler.c ****          * General events
 323:Generated_Source\PSoC6\pdl\middleware\ble/cy_ble_event_handler.c ****          ************************************************************/
 324:Generated_Source\PSoC6\pdl\middleware\ble/cy_ble_event_handler.c ****         case CY_BLE_EVT_STACK_ON:
 325:Generated_Source\PSoC6\pdl\middleware\ble/cy_ble_event_handler.c **** 
 326:Generated_Source\PSoC6\pdl\middleware\ble/cy_ble_event_handler.c ****         #if (CY_BLE_GATT_ROLE_SERVER || CY_BLE_GATT_ROLE_CLIENT)
 327:Generated_Source\PSoC6\pdl\middleware\ble/cy_ble_event_handler.c ****             {
 328:Generated_Source\PSoC6\pdl\middleware\ble/cy_ble_event_handler.c ****                 /* Set a device address  */
ARM GAS  C:\Users\salaz\AppData\Local\Temp\ccj0QfQu.s 			page 16


 329:Generated_Source\PSoC6\pdl\middleware\ble/cy_ble_event_handler.c ****                 if(Cy_BLE_IsDeviceAddressValid(cy_ble_sflashDeviceAddress) != 0u)
 497              		.loc 1 329 0
 498 00ec 9B4B     		ldr	r3, .L106+92
 499 00ee 1E68     		ldr	r6, [r3]
 500 00f0 3000     		movs	r0, r6
 501              	.LVL41:
 502 00f2 FFF7FEFF 		bl	Cy_BLE_IsDeviceAddressValid
 503              	.LVL42:
 504 00f6 0028     		cmp	r0, #0
 505 00f8 0CD0     		beq	.L61
 330:Generated_Source\PSoC6\pdl\middleware\ble/cy_ble_event_handler.c ****                 {
 331:Generated_Source\PSoC6\pdl\middleware\ble/cy_ble_event_handler.c ****                     (void)Cy_BLE_GAP_SetBdAddress(cy_ble_sflashDeviceAddress);
 506              		.loc 1 331 0
 507 00fa 3000     		movs	r0, r6
 508 00fc FFF7FEFF 		bl	Cy_BLE_GAP_SetBdAddress
 509              	.LVL43:
 332:Generated_Source\PSoC6\pdl\middleware\ble/cy_ble_event_handler.c ****                 #if (CY_BLE_GAP_ROLE_PERIPHERAL || CY_BLE_GAP_ROLE_BROADCASTER)
 333:Generated_Source\PSoC6\pdl\middleware\ble/cy_ble_event_handler.c ****                     Cy_BLE_ChangeAdDeviceAddress(cy_ble_sflashDeviceAddress, 0u);
 510              		.loc 1 333 0
 511 0100 964E     		ldr	r6, .L106+92
 512 0102 0021     		movs	r1, #0
 513 0104 3068     		ldr	r0, [r6]
 514 0106 FFF7FEFF 		bl	Cy_BLE_ChangeAdDeviceAddress
 515              	.LVL44:
 334:Generated_Source\PSoC6\pdl\middleware\ble/cy_ble_event_handler.c ****                     Cy_BLE_ChangeAdDeviceAddress(cy_ble_sflashDeviceAddress, 1u);
 516              		.loc 1 334 0
 517 010a 3068     		ldr	r0, [r6]
 518 010c 0121     		movs	r1, #1
 519 010e FFF7FEFF 		bl	Cy_BLE_ChangeAdDeviceAddress
 520              	.LVL45:
 521 0112 37E0     		b	.L62
 522              	.L61:
 335:Generated_Source\PSoC6\pdl\middleware\ble/cy_ble_event_handler.c ****                 #endif /* CY_BLE_GAP_ROLE_PERIPHERAL || CY_BLE_GAP_ROLE_BROADCASTER */
 336:Generated_Source\PSoC6\pdl\middleware\ble/cy_ble_event_handler.c ****                 }
 337:Generated_Source\PSoC6\pdl\middleware\ble/cy_ble_event_handler.c ****                 else
 338:Generated_Source\PSoC6\pdl\middleware\ble/cy_ble_event_handler.c ****                 {
 339:Generated_Source\PSoC6\pdl\middleware\ble/cy_ble_event_handler.c ****                     if(cy_ble_configPtr->params->siliconDeviceAddressEnabled != 0u)
 523              		.loc 1 339 0
 524 0114 924B     		ldr	r3, .L106+96
 525 0116 1968     		ldr	r1, [r3]
 526 0118 8B6A     		ldr	r3, [r1, #40]
 527 011a 1B79     		ldrb	r3, [r3, #4]
 528 011c 002B     		cmp	r3, #0
 529 011e 22D0     		beq	.L63
 530              	.LBB88:
 340:Generated_Source\PSoC6\pdl\middleware\ble/cy_ble_event_handler.c ****                     {
 341:Generated_Source\PSoC6\pdl\middleware\ble/cy_ble_event_handler.c ****                         uint32_t bdAddrLoc;
 342:Generated_Source\PSoC6\pdl\middleware\ble/cy_ble_event_handler.c ****                         bdAddrLoc = ((uint32_t)SFLASH->DIE_X & (uint32_t)CY_BLE_SFLASH_DIE_X_MASK) 
 531              		.loc 1 342 0
 532 0120 B020     		movs	r0, #176
 533 0122 4005     		lsls	r0, r0, #21
 534 0124 8F4B     		ldr	r3, .L106+100
 535 0126 C35C     		ldrb	r3, [r0, r3]
 536 0128 3F22     		movs	r2, #63
 537 012a 1340     		ands	r3, r2
 343:Generated_Source\PSoC6\pdl\middleware\ble/cy_ble_event_handler.c ****                                     ((uint32_t)(((uint32_t)SFLASH->DIE_Y) & ((uint32_t)CY_BLE_SFLAS
 538              		.loc 1 343 0
ARM GAS  C:\Users\salaz\AppData\Local\Temp\ccj0QfQu.s 			page 17


 539 012c 8E4E     		ldr	r6, .L106+104
 540 012e 865D     		ldrb	r6, [r0, r6]
 541 0130 3240     		ands	r2, r6
 542 0132 9201     		lsls	r2, r2, #6
 342:Generated_Source\PSoC6\pdl\middleware\ble/cy_ble_event_handler.c ****                                     ((uint32_t)(((uint32_t)SFLASH->DIE_Y) & ((uint32_t)CY_BLE_SFLAS
 543              		.loc 1 342 0
 544 0134 1A43     		orrs	r2, r3
 344:Generated_Source\PSoC6\pdl\middleware\ble/cy_ble_event_handler.c ****                                      CY_BLE_SFLASH_DIE_X_BITS) |
 345:Generated_Source\PSoC6\pdl\middleware\ble/cy_ble_event_handler.c ****                                     ((uint32_t)(((uint32_t)SFLASH->DIE_WAFER) & ((uint32_t)CY_BLE_S
 545              		.loc 1 345 0
 546 0136 8D4B     		ldr	r3, .L106+108
 547 0138 C65C     		ldrb	r6, [r0, r3]
 548 013a 1F23     		movs	r3, #31
 549 013c 3340     		ands	r3, r6
 550 013e 1B03     		lsls	r3, r3, #12
 344:Generated_Source\PSoC6\pdl\middleware\ble/cy_ble_event_handler.c ****                                      CY_BLE_SFLASH_DIE_X_BITS) |
 551              		.loc 1 344 0
 552 0140 1343     		orrs	r3, r2
 346:Generated_Source\PSoC6\pdl\middleware\ble/cy_ble_event_handler.c ****                                      CY_BLE_SFLASH_DIE_XY_BITS) |
 347:Generated_Source\PSoC6\pdl\middleware\ble/cy_ble_event_handler.c ****                                     ((uint32_t)(((uint32_t)SFLASH->DIE_LOT[0]) & ((uint32_t)CY_BLE_
 553              		.loc 1 347 0
 554 0142 C022     		movs	r2, #192
 555 0144 D200     		lsls	r2, r2, #3
 556 0146 805C     		ldrb	r0, [r0, r2]
 557 0148 7F22     		movs	r2, #127
 558 014a 0240     		ands	r2, r0
 559 014c 5204     		lsls	r2, r2, #17
 342:Generated_Source\PSoC6\pdl\middleware\ble/cy_ble_event_handler.c ****                                     ((uint32_t)(((uint32_t)SFLASH->DIE_Y) & ((uint32_t)CY_BLE_SFLAS
 560              		.loc 1 342 0
 561 014e 1343     		orrs	r3, r2
 562              	.LVL46:
 348:Generated_Source\PSoC6\pdl\middleware\ble/cy_ble_event_handler.c ****                                      CY_BLE_SFLASH_DIE_XYWAFER_BITS);
 349:Generated_Source\PSoC6\pdl\middleware\ble/cy_ble_event_handler.c **** 
 350:Generated_Source\PSoC6\pdl\middleware\ble/cy_ble_event_handler.c ****                         cy_ble_configPtr->deviceAddress->bdAddr[0] = (uint8_t)bdAddrLoc;
 563              		.loc 1 350 0
 564 0150 0A6B     		ldr	r2, [r1, #48]
 565 0152 1370     		strb	r3, [r2]
 351:Generated_Source\PSoC6\pdl\middleware\ble/cy_ble_event_handler.c ****                         cy_ble_configPtr->deviceAddress->bdAddr[1] = (uint8_t)(bdAddrLoc >> 8u);
 566              		.loc 1 351 0
 567 0154 824A     		ldr	r2, .L106+96
 568 0156 1168     		ldr	r1, [r2]
 569 0158 096B     		ldr	r1, [r1, #48]
 570 015a 180A     		lsrs	r0, r3, #8
 571 015c 4870     		strb	r0, [r1, #1]
 352:Generated_Source\PSoC6\pdl\middleware\ble/cy_ble_event_handler.c ****                         cy_ble_configPtr->deviceAddress->bdAddr[2] = (uint8_t)(bdAddrLoc >> 16u);
 572              		.loc 1 352 0
 573 015e 1268     		ldr	r2, [r2]
 574 0160 126B     		ldr	r2, [r2, #48]
 575 0162 1B0C     		lsrs	r3, r3, #16
 576              	.LVL47:
 577 0164 9370     		strb	r3, [r2, #2]
 578              	.L63:
 579              	.LBE88:
 353:Generated_Source\PSoC6\pdl\middleware\ble/cy_ble_event_handler.c ****                     }
 354:Generated_Source\PSoC6\pdl\middleware\ble/cy_ble_event_handler.c ****                     (void)Cy_BLE_GAP_SetBdAddress(cy_ble_configPtr->deviceAddress);
 580              		.loc 1 354 0
 581 0166 7E4E     		ldr	r6, .L106+96
ARM GAS  C:\Users\salaz\AppData\Local\Temp\ccj0QfQu.s 			page 18


 582 0168 3368     		ldr	r3, [r6]
 583 016a 186B     		ldr	r0, [r3, #48]
 584 016c FFF7FEFF 		bl	Cy_BLE_GAP_SetBdAddress
 585              	.LVL48:
 355:Generated_Source\PSoC6\pdl\middleware\ble/cy_ble_event_handler.c **** 
 356:Generated_Source\PSoC6\pdl\middleware\ble/cy_ble_event_handler.c ****                 #if (CY_BLE_GAP_ROLE_PERIPHERAL || CY_BLE_GAP_ROLE_BROADCASTER)
 357:Generated_Source\PSoC6\pdl\middleware\ble/cy_ble_event_handler.c ****                     Cy_BLE_ChangeAdDeviceAddress(cy_ble_configPtr->deviceAddress, 0u);
 586              		.loc 1 357 0
 587 0170 3368     		ldr	r3, [r6]
 588 0172 186B     		ldr	r0, [r3, #48]
 589 0174 0021     		movs	r1, #0
 590 0176 FFF7FEFF 		bl	Cy_BLE_ChangeAdDeviceAddress
 591              	.LVL49:
 358:Generated_Source\PSoC6\pdl\middleware\ble/cy_ble_event_handler.c ****                     Cy_BLE_ChangeAdDeviceAddress(cy_ble_configPtr->deviceAddress, 1u);
 592              		.loc 1 358 0
 593 017a 3368     		ldr	r3, [r6]
 594 017c 186B     		ldr	r0, [r3, #48]
 595 017e 0121     		movs	r1, #1
 596 0180 FFF7FEFF 		bl	Cy_BLE_ChangeAdDeviceAddress
 597              	.LVL50:
 598              	.L62:
 359:Generated_Source\PSoC6\pdl\middleware\ble/cy_ble_event_handler.c ****                 #endif /* CY_BLE_GAP_ROLE_PERIPHERAL || CY_BLE_GAP_ROLE_BROADCASTER */
 360:Generated_Source\PSoC6\pdl\middleware\ble/cy_ble_event_handler.c ****                 }
 361:Generated_Source\PSoC6\pdl\middleware\ble/cy_ble_event_handler.c ****                 /* Set the device IO Capability  */
 362:Generated_Source\PSoC6\pdl\middleware\ble/cy_ble_event_handler.c ****                 (void)Cy_BLE_GAP_SetIoCap((cy_en_ble_gap_iocap_t*)&cy_ble_configPtr->params->securi
 599              		.loc 1 362 0
 600 0184 764B     		ldr	r3, .L106+96
 601 0186 1B68     		ldr	r3, [r3]
 602 0188 986A     		ldr	r0, [r3, #40]
 603 018a 0230     		adds	r0, r0, #2
 604 018c FFF7FEFF 		bl	Cy_BLE_GAP_SetIoCap
 605              	.LVL51:
 606              	.LBB89:
 363:Generated_Source\PSoC6\pdl\middleware\ble/cy_ble_event_handler.c ****                 {
 364:Generated_Source\PSoC6\pdl\middleware\ble/cy_ble_event_handler.c ****                     /* Enable all 4.1 events and configured 4.2 events */
 365:Generated_Source\PSoC6\pdl\middleware\ble/cy_ble_event_handler.c ****                     uint8_t leMask[CY_BLE_LE_MASK_LENGTH] = { CY_LO8(CY_BLE_LE_MASK),
 607              		.loc 1 365 0
 608 0190 0822     		movs	r2, #8
 609 0192 7749     		ldr	r1, .L106+112
 610 0194 05A8     		add	r0, sp, #20
 611 0196 FFF7FEFF 		bl	memcpy
 612              	.LVL52:
 366:Generated_Source\PSoC6\pdl\middleware\ble/cy_ble_event_handler.c ****                                                               CY_HI8(CY_BLE_LE_MASK),0u,  0u, 0u, 0
 367:Generated_Source\PSoC6\pdl\middleware\ble/cy_ble_event_handler.c ****                     (void)Cy_BLE_SetLeEventMask(leMask);
 613              		.loc 1 367 0
 614 019a 05A8     		add	r0, sp, #20
 615 019c FFF7FEFF 		bl	Cy_BLE_SetLeEventMask
 616              	.LVL53:
 617              	.LBE89:
 368:Generated_Source\PSoC6\pdl\middleware\ble/cy_ble_event_handler.c ****                 }
 369:Generated_Source\PSoC6\pdl\middleware\ble/cy_ble_event_handler.c ****             }
 370:Generated_Source\PSoC6\pdl\middleware\ble/cy_ble_event_handler.c ****         #endif /* CY_BLE_GATT_ROLE_SERVER || CY_BLE_GATT_ROLE_CLIENT */
 371:Generated_Source\PSoC6\pdl\middleware\ble/cy_ble_event_handler.c ****             Cy_BLE_SetState(CY_BLE_STATE_ON);
 618              		.loc 1 371 0
 619 01a0 0222     		movs	r2, #2
 620 01a2 744B     		ldr	r3, .L106+116
 621 01a4 1A70     		strb	r2, [r3]
ARM GAS  C:\Users\salaz\AppData\Local\Temp\ccj0QfQu.s 			page 19


 372:Generated_Source\PSoC6\pdl\middleware\ble/cy_ble_event_handler.c ****             break;
 622              		.loc 1 372 0
 623 01a6 C8E2     		b	.L31
 624              	.LVL54:
 625              	.L44:
 373:Generated_Source\PSoC6\pdl\middleware\ble/cy_ble_event_handler.c **** 
 374:Generated_Source\PSoC6\pdl\middleware\ble/cy_ble_event_handler.c ****         case CY_BLE_EVT_STACK_SHUTDOWN_COMPLETE:
 375:Generated_Source\PSoC6\pdl\middleware\ble/cy_ble_event_handler.c ****             Cy_BLE_SetState(CY_BLE_STATE_STOPPED);
 626              		.loc 1 375 0
 627 01a8 0023     		movs	r3, #0
 628 01aa 724A     		ldr	r2, .L106+116
 629 01ac 1370     		strb	r3, [r2]
 630              	.LVL55:
 631              	.LBB90:
 632              	.LBB91:
 633              		.file 2 "Generated_Source\\PSoC6\\pdl\\middleware\\ble\\cy_ble_gap.h"
   1:Generated_Source\PSoC6\pdl\middleware\ble/cy_ble_gap.h **** /***************************************************************************//**
   2:Generated_Source\PSoC6\pdl\middleware\ble/cy_ble_gap.h **** * \file cy_ble_gap.h
   3:Generated_Source\PSoC6\pdl\middleware\ble/cy_ble_gap.h **** * \version 2.20
   4:Generated_Source\PSoC6\pdl\middleware\ble/cy_ble_gap.h **** *
   5:Generated_Source\PSoC6\pdl\middleware\ble/cy_ble_gap.h **** * \brief
   6:Generated_Source\PSoC6\pdl\middleware\ble/cy_ble_gap.h **** *  Contains the prototypes and constants used in the BLE GAP profile.
   7:Generated_Source\PSoC6\pdl\middleware\ble/cy_ble_gap.h **** *
   8:Generated_Source\PSoC6\pdl\middleware\ble/cy_ble_gap.h **** ********************************************************************************
   9:Generated_Source\PSoC6\pdl\middleware\ble/cy_ble_gap.h **** * \copyright
  10:Generated_Source\PSoC6\pdl\middleware\ble/cy_ble_gap.h **** * Copyright 2017-2018, Cypress Semiconductor Corporation.  All rights reserved.
  11:Generated_Source\PSoC6\pdl\middleware\ble/cy_ble_gap.h **** * You may use this file only in accordance with the license, terms, conditions,
  12:Generated_Source\PSoC6\pdl\middleware\ble/cy_ble_gap.h **** * disclaimers, and limitations in the end user license agreement accompanying
  13:Generated_Source\PSoC6\pdl\middleware\ble/cy_ble_gap.h **** * the software package with which this file was provided.
  14:Generated_Source\PSoC6\pdl\middleware\ble/cy_ble_gap.h **** *******************************************************************************/
  15:Generated_Source\PSoC6\pdl\middleware\ble/cy_ble_gap.h **** 
  16:Generated_Source\PSoC6\pdl\middleware\ble/cy_ble_gap.h **** 
  17:Generated_Source\PSoC6\pdl\middleware\ble/cy_ble_gap.h **** #ifndef CY_BLE_GAP_H
  18:Generated_Source\PSoC6\pdl\middleware\ble/cy_ble_gap.h **** #define CY_BLE_GAP_H
  19:Generated_Source\PSoC6\pdl\middleware\ble/cy_ble_gap.h ****     
  20:Generated_Source\PSoC6\pdl\middleware\ble/cy_ble_gap.h **** #include "cy_ble_config.h"
  21:Generated_Source\PSoC6\pdl\middleware\ble/cy_ble_gap.h **** 
  22:Generated_Source\PSoC6\pdl\middleware\ble/cy_ble_gap.h **** /***************************************
  23:Generated_Source\PSoC6\pdl\middleware\ble/cy_ble_gap.h **** * BLE Stack includes
  24:Generated_Source\PSoC6\pdl\middleware\ble/cy_ble_gap.h **** ***************************************/
  25:Generated_Source\PSoC6\pdl\middleware\ble/cy_ble_gap.h **** #include "cy_ble_stack_gatt.h"    
  26:Generated_Source\PSoC6\pdl\middleware\ble/cy_ble_gap.h **** #include "cy_ble_stack_gap.h"
  27:Generated_Source\PSoC6\pdl\middleware\ble/cy_ble_gap.h **** #include "cy_ble_stack_gap_central.h"
  28:Generated_Source\PSoC6\pdl\middleware\ble/cy_ble_gap.h **** #include "cy_ble_stack_gap_peripheral.h"
  29:Generated_Source\PSoC6\pdl\middleware\ble/cy_ble_gap.h **** 
  30:Generated_Source\PSoC6\pdl\middleware\ble/cy_ble_gap.h **** /* C binding of definitions if building with C++ compiler */
  31:Generated_Source\PSoC6\pdl\middleware\ble/cy_ble_gap.h **** #ifdef __cplusplus
  32:Generated_Source\PSoC6\pdl\middleware\ble/cy_ble_gap.h **** extern "C" {
  33:Generated_Source\PSoC6\pdl\middleware\ble/cy_ble_gap.h **** #endif /* __cplusplus */
  34:Generated_Source\PSoC6\pdl\middleware\ble/cy_ble_gap.h **** 
  35:Generated_Source\PSoC6\pdl\middleware\ble/cy_ble_gap.h **** /***************************************
  36:Generated_Source\PSoC6\pdl\middleware\ble/cy_ble_gap.h **** * Conditional Compilation Parameters
  37:Generated_Source\PSoC6\pdl\middleware\ble/cy_ble_gap.h **** ***************************************/
  38:Generated_Source\PSoC6\pdl\middleware\ble/cy_ble_gap.h **** /**
  39:Generated_Source\PSoC6\pdl\middleware\ble/cy_ble_gap.h ****  * The BLE operation mode.
  40:Generated_Source\PSoC6\pdl\middleware\ble/cy_ble_gap.h ****  */
  41:Generated_Source\PSoC6\pdl\middleware\ble/cy_ble_gap.h **** #define CY_BLE_MODE                          (CY_BLE_CONFIG_MODE)
ARM GAS  C:\Users\salaz\AppData\Local\Temp\ccj0QfQu.s 			page 20


  42:Generated_Source\PSoC6\pdl\middleware\ble/cy_ble_gap.h **** 
  43:Generated_Source\PSoC6\pdl\middleware\ble/cy_ble_gap.h **** /** 
  44:Generated_Source\PSoC6\pdl\middleware\ble/cy_ble_gap.h ****  * Maximum number of BLE connections
  45:Generated_Source\PSoC6\pdl\middleware\ble/cy_ble_gap.h ****  * This parameter displays how many BLE connections (both Central and 
  46:Generated_Source\PSoC6\pdl\middleware\ble/cy_ble_gap.h ****  * Peripheral) are allowed. Valid range is from 1 to 4.
  47:Generated_Source\PSoC6\pdl\middleware\ble/cy_ble_gap.h ****  */
  48:Generated_Source\PSoC6\pdl\middleware\ble/cy_ble_gap.h **** #define CY_BLE_CONN_COUNT                    (CY_BLE_CONFIG_CONN_COUNT)
  49:Generated_Source\PSoC6\pdl\middleware\ble/cy_ble_gap.h ****  
  50:Generated_Source\PSoC6\pdl\middleware\ble/cy_ble_gap.h **** /**
  51:Generated_Source\PSoC6\pdl\middleware\ble/cy_ble_gap.h ****  * The GAP Role 
  52:Generated_Source\PSoC6\pdl\middleware\ble/cy_ble_gap.h ****  * The following defined mask can be used:
  53:Generated_Source\PSoC6\pdl\middleware\ble/cy_ble_gap.h ****  * CY_BLE_GAP_PERIPHERAL  (0x01u) - device operates as peripheral.
  54:Generated_Source\PSoC6\pdl\middleware\ble/cy_ble_gap.h ****  * CY_BLE_GAP_CENTRAL     (0x02u) - device operates as central. 
  55:Generated_Source\PSoC6\pdl\middleware\ble/cy_ble_gap.h ****  * CY_BLE_GAP_BROADCASTER (0x04u) - device operates as broadcaster.
  56:Generated_Source\PSoC6\pdl\middleware\ble/cy_ble_gap.h ****  * CY_BLE_GAP_OBSERVER    (0x08u) - device operates as observer.
  57:Generated_Source\PSoC6\pdl\middleware\ble/cy_ble_gap.h ****  * CY_BLE_GAP_HCI         (0x00u) - used when BLE operates in HCI mode.
  58:Generated_Source\PSoC6\pdl\middleware\ble/cy_ble_gap.h ****  */ 
  59:Generated_Source\PSoC6\pdl\middleware\ble/cy_ble_gap.h **** #define CY_BLE_GAP_ROLE                       (CY_BLE_CONFIG_GAP_ROLE)
  60:Generated_Source\PSoC6\pdl\middleware\ble/cy_ble_gap.h **** 
  61:Generated_Source\PSoC6\pdl\middleware\ble/cy_ble_gap.h **** /** The number of GAP Peripheral configurations structures */
  62:Generated_Source\PSoC6\pdl\middleware\ble/cy_ble_gap.h **** #define CY_BLE_GAP_PERIPHERAL_COUNT           (CY_BLE_CONFIG_GAP_PERIPHERAL_COUNT)
  63:Generated_Source\PSoC6\pdl\middleware\ble/cy_ble_gap.h **** 
  64:Generated_Source\PSoC6\pdl\middleware\ble/cy_ble_gap.h **** /** The number of GAP Broadcaster configurations structures */
  65:Generated_Source\PSoC6\pdl\middleware\ble/cy_ble_gap.h **** #define CY_BLE_GAP_BROADCASTER_COUNT          (CY_BLE_CONFIG_GAP_BROADCASTER_COUNT)
  66:Generated_Source\PSoC6\pdl\middleware\ble/cy_ble_gap.h **** 
  67:Generated_Source\PSoC6\pdl\middleware\ble/cy_ble_gap.h **** /** The number of GAP Central configurations structures */
  68:Generated_Source\PSoC6\pdl\middleware\ble/cy_ble_gap.h **** #define CY_BLE_GAP_CENTRAL_COUNT              (CY_BLE_CONFIG_GAP_CENTRAL_COUNT)
  69:Generated_Source\PSoC6\pdl\middleware\ble/cy_ble_gap.h **** 
  70:Generated_Source\PSoC6\pdl\middleware\ble/cy_ble_gap.h **** /** The number of GAP Observer configurations structures */
  71:Generated_Source\PSoC6\pdl\middleware\ble/cy_ble_gap.h **** #define CY_BLE_GAP_OBSERVER_COUNT             (CY_BLE_CONFIG_GAP_OBSERVER_COUNT)
  72:Generated_Source\PSoC6\pdl\middleware\ble/cy_ble_gap.h **** 
  73:Generated_Source\PSoC6\pdl\middleware\ble/cy_ble_gap.h **** /** The number of Security configurations structures */
  74:Generated_Source\PSoC6\pdl\middleware\ble/cy_ble_gap.h **** #define CY_BLE_AUTH_INFO_COUNT                (CY_BLE_CONFIG_AUTH_INFO_COUNT)
  75:Generated_Source\PSoC6\pdl\middleware\ble/cy_ble_gap.h **** 
  76:Generated_Source\PSoC6\pdl\middleware\ble/cy_ble_gap.h **** /** The Bonding Requirement structures */
  77:Generated_Source\PSoC6\pdl\middleware\ble/cy_ble_gap.h **** #define CY_BLE_BONDING_REQUIREMENT            (CY_BLE_CONFIG_BONDING_REQUIREMENT)
  78:Generated_Source\PSoC6\pdl\middleware\ble/cy_ble_gap.h **** 
  79:Generated_Source\PSoC6\pdl\middleware\ble/cy_ble_gap.h **** /** The GAP Role defines */
  80:Generated_Source\PSoC6\pdl\middleware\ble/cy_ble_gap.h **** #define CY_BLE_GAP_ROLE_PERIPHERAL            (0u != (CY_BLE_GAP_ROLE & CY_BLE_GAP_PERIPHERAL))
  81:Generated_Source\PSoC6\pdl\middleware\ble/cy_ble_gap.h **** #define CY_BLE_GAP_ROLE_CENTRAL               (0u != (CY_BLE_GAP_ROLE & CY_BLE_GAP_CENTRAL))
  82:Generated_Source\PSoC6\pdl\middleware\ble/cy_ble_gap.h **** #define CY_BLE_GAP_ROLE_OBSERVER              (0u != (CY_BLE_GAP_ROLE & CY_BLE_GAP_OBSERVER))
  83:Generated_Source\PSoC6\pdl\middleware\ble/cy_ble_gap.h **** #define CY_BLE_GAP_ROLE_BROADCASTER           (0u != (CY_BLE_GAP_ROLE & CY_BLE_GAP_BROADCASTER))
  84:Generated_Source\PSoC6\pdl\middleware\ble/cy_ble_gap.h **** 
  85:Generated_Source\PSoC6\pdl\middleware\ble/cy_ble_gap.h **** #define CY_BLE_GAPP_CONF_COUNT                (CY_BLE_GAP_PERIPHERAL_COUNT + CY_BLE_GAP_BROADCASTER
  86:Generated_Source\PSoC6\pdl\middleware\ble/cy_ble_gap.h **** #define CY_BLE_GAPC_CONF_COUNT                (CY_BLE_GAP_CENTRAL_COUNT + CY_BLE_GAP_OBSERVER_COUNT
  87:Generated_Source\PSoC6\pdl\middleware\ble/cy_ble_gap.h **** 
  88:Generated_Source\PSoC6\pdl\middleware\ble/cy_ble_gap.h **** /***************************************
  89:Generated_Source\PSoC6\pdl\middleware\ble/cy_ble_gap.h **** * Type Definitions
  90:Generated_Source\PSoC6\pdl\middleware\ble/cy_ble_gap.h **** ***************************************/
  91:Generated_Source\PSoC6\pdl\middleware\ble/cy_ble_gap.h **** 
  92:Generated_Source\PSoC6\pdl\middleware\ble/cy_ble_gap.h **** #if (CY_BLE_MODE_PROFILE)
  93:Generated_Source\PSoC6\pdl\middleware\ble/cy_ble_gap.h **** 
  94:Generated_Source\PSoC6\pdl\middleware\ble/cy_ble_gap.h **** /***************************************
  95:Generated_Source\PSoC6\pdl\middleware\ble/cy_ble_gap.h **** * Enumerated Types and Structures
  96:Generated_Source\PSoC6\pdl\middleware\ble/cy_ble_gap.h **** ***************************************/
  97:Generated_Source\PSoC6\pdl\middleware\ble/cy_ble_gap.h **** 
  98:Generated_Source\PSoC6\pdl\middleware\ble/cy_ble_gap.h **** /**
ARM GAS  C:\Users\salaz\AppData\Local\Temp\ccj0QfQu.s 			page 21


  99:Generated_Source\PSoC6\pdl\middleware\ble/cy_ble_gap.h ****  * \addtogroup group_ble_common_api_gap_definitions
 100:Generated_Source\PSoC6\pdl\middleware\ble/cy_ble_gap.h ****  * @{
 101:Generated_Source\PSoC6\pdl\middleware\ble/cy_ble_gap.h ****  */
 102:Generated_Source\PSoC6\pdl\middleware\ble/cy_ble_gap.h **** 
 103:Generated_Source\PSoC6\pdl\middleware\ble/cy_ble_gap.h **** /** BLE state machine type */
 104:Generated_Source\PSoC6\pdl\middleware\ble/cy_ble_gap.h **** typedef enum
 105:Generated_Source\PSoC6\pdl\middleware\ble/cy_ble_gap.h **** {
 106:Generated_Source\PSoC6\pdl\middleware\ble/cy_ble_gap.h ****     CY_BLE_STATE_STOPPED,                             /**< BLE is turned off */
 107:Generated_Source\PSoC6\pdl\middleware\ble/cy_ble_gap.h ****     CY_BLE_STATE_INITIALIZING,                        /**< Initializing state */
 108:Generated_Source\PSoC6\pdl\middleware\ble/cy_ble_gap.h ****     CY_BLE_STATE_ON,                                  /**< BLE is turned on */
 109:Generated_Source\PSoC6\pdl\middleware\ble/cy_ble_gap.h **** #if (CY_BLE_GAP_ROLE_CENTRAL)
 110:Generated_Source\PSoC6\pdl\middleware\ble/cy_ble_gap.h ****     CY_BLE_STATE_CONNECTING,                          /**< Connecting */
 111:Generated_Source\PSoC6\pdl\middleware\ble/cy_ble_gap.h **** #endif /* CY_BLE_GAP_ROLE_CENTRAL */
 112:Generated_Source\PSoC6\pdl\middleware\ble/cy_ble_gap.h **** } cy_en_ble_state_t;
 113:Generated_Source\PSoC6\pdl\middleware\ble/cy_ble_gap.h **** 
 114:Generated_Source\PSoC6\pdl\middleware\ble/cy_ble_gap.h **** 
 115:Generated_Source\PSoC6\pdl\middleware\ble/cy_ble_gap.h **** /** Scanning state machine type */
 116:Generated_Source\PSoC6\pdl\middleware\ble/cy_ble_gap.h **** typedef enum
 117:Generated_Source\PSoC6\pdl\middleware\ble/cy_ble_gap.h **** {
 118:Generated_Source\PSoC6\pdl\middleware\ble/cy_ble_gap.h ****     CY_BLE_SCAN_STATE_STOPPED,                        /**< Scanning is stopped */
 119:Generated_Source\PSoC6\pdl\middleware\ble/cy_ble_gap.h ****     CY_BLE_SCAN_STATE_SCAN_INITIATED,                 /**< Scanning is initiated */
 120:Generated_Source\PSoC6\pdl\middleware\ble/cy_ble_gap.h ****     CY_BLE_SCAN_STATE_SCANNING,                       /**< Scanning process */
 121:Generated_Source\PSoC6\pdl\middleware\ble/cy_ble_gap.h ****     CY_BLE_SCAN_STATE_STOP_INITIATED                  /**< Stop scanning is initiated */
 122:Generated_Source\PSoC6\pdl\middleware\ble/cy_ble_gap.h **** } cy_en_ble_scan_state_t;
 123:Generated_Source\PSoC6\pdl\middleware\ble/cy_ble_gap.h **** 
 124:Generated_Source\PSoC6\pdl\middleware\ble/cy_ble_gap.h **** /** Advertising state machine type */
 125:Generated_Source\PSoC6\pdl\middleware\ble/cy_ble_gap.h **** typedef enum
 126:Generated_Source\PSoC6\pdl\middleware\ble/cy_ble_gap.h **** {
 127:Generated_Source\PSoC6\pdl\middleware\ble/cy_ble_gap.h ****     CY_BLE_ADV_STATE_STOPPED,                         /**< Advertising is stopped */
 128:Generated_Source\PSoC6\pdl\middleware\ble/cy_ble_gap.h ****     CY_BLE_ADV_STATE_ADV_INITIATED,                   /**< Advertising is initiated */
 129:Generated_Source\PSoC6\pdl\middleware\ble/cy_ble_gap.h ****     CY_BLE_ADV_STATE_ADVERTISING,                     /**< Advertising process */
 130:Generated_Source\PSoC6\pdl\middleware\ble/cy_ble_gap.h ****     CY_BLE_ADV_STATE_STOP_INITIATED                   /**< Stop advertising is initiated */
 131:Generated_Source\PSoC6\pdl\middleware\ble/cy_ble_gap.h **** } cy_en_ble_adv_state_t;
 132:Generated_Source\PSoC6\pdl\middleware\ble/cy_ble_gap.h **** 
 133:Generated_Source\PSoC6\pdl\middleware\ble/cy_ble_gap.h **** /** Connection state machine type */
 134:Generated_Source\PSoC6\pdl\middleware\ble/cy_ble_gap.h **** typedef enum
 135:Generated_Source\PSoC6\pdl\middleware\ble/cy_ble_gap.h **** {
 136:Generated_Source\PSoC6\pdl\middleware\ble/cy_ble_gap.h ****     CY_BLE_CONN_STATE_DISCONNECTED,                   /**< Essentially idle state */
 137:Generated_Source\PSoC6\pdl\middleware\ble/cy_ble_gap.h ****     CY_BLE_CONN_STATE_CLIENT_DISCONNECTED_DISCOVERED, /**< Server is disconnected but discovered */
 138:Generated_Source\PSoC6\pdl\middleware\ble/cy_ble_gap.h ****     CY_BLE_CONN_STATE_CONNECTED,                      /**< Peer device is connected for this and fo
 139:Generated_Source\PSoC6\pdl\middleware\ble/cy_ble_gap.h ****     CY_BLE_CONN_STATE_CLIENT_SRVC_DISCOVERING,        /**< Server services are being discovered */
 140:Generated_Source\PSoC6\pdl\middleware\ble/cy_ble_gap.h ****     CY_BLE_CONN_STATE_CLIENT_INCL_DISCOVERING,        /**< Server included services are being disco
 141:Generated_Source\PSoC6\pdl\middleware\ble/cy_ble_gap.h ****     CY_BLE_CONN_STATE_CLIENT_CHAR_DISCOVERING,        /**< Server characteristics are being discove
 142:Generated_Source\PSoC6\pdl\middleware\ble/cy_ble_gap.h ****     CY_BLE_CONN_STATE_CLIENT_DESCR_DISCOVERING,       /**< Server char. descriptors are being disco
 143:Generated_Source\PSoC6\pdl\middleware\ble/cy_ble_gap.h ****     CY_BLE_CONN_STATE_CLIENT_DISCOVERED               /**< Server is discovered */
 144:Generated_Source\PSoC6\pdl\middleware\ble/cy_ble_gap.h **** } cy_en_ble_conn_state_t;
 145:Generated_Source\PSoC6\pdl\middleware\ble/cy_ble_gap.h **** 
 146:Generated_Source\PSoC6\pdl\middleware\ble/cy_ble_gap.h **** /** Structure with Generic Access Profile Service (GAPS) attribute handles */
 147:Generated_Source\PSoC6\pdl\middleware\ble/cy_ble_gap.h **** typedef struct
 148:Generated_Source\PSoC6\pdl\middleware\ble/cy_ble_gap.h **** {
 149:Generated_Source\PSoC6\pdl\middleware\ble/cy_ble_gap.h ****     /** Service handle*/
 150:Generated_Source\PSoC6\pdl\middleware\ble/cy_ble_gap.h ****     cy_ble_gatt_db_attr_handle_t serviceHandle;
 151:Generated_Source\PSoC6\pdl\middleware\ble/cy_ble_gap.h **** 
 152:Generated_Source\PSoC6\pdl\middleware\ble/cy_ble_gap.h ****     /** Handle of the GAPS Device Name Characteristic */
 153:Generated_Source\PSoC6\pdl\middleware\ble/cy_ble_gap.h ****     cy_ble_gatt_db_attr_handle_t deviceNameCharHandle;
 154:Generated_Source\PSoC6\pdl\middleware\ble/cy_ble_gap.h **** 
 155:Generated_Source\PSoC6\pdl\middleware\ble/cy_ble_gap.h ****     /** Handle of the GAPS Appearance Characteristic */
ARM GAS  C:\Users\salaz\AppData\Local\Temp\ccj0QfQu.s 			page 22


 156:Generated_Source\PSoC6\pdl\middleware\ble/cy_ble_gap.h ****     cy_ble_gatt_db_attr_handle_t appearanceCharHandle;
 157:Generated_Source\PSoC6\pdl\middleware\ble/cy_ble_gap.h **** 
 158:Generated_Source\PSoC6\pdl\middleware\ble/cy_ble_gap.h ****     /** Handle of the GAPS Peripheral Preferred Connection Parameters Characteristic */
 159:Generated_Source\PSoC6\pdl\middleware\ble/cy_ble_gap.h ****     cy_ble_gatt_db_attr_handle_t prefConnParamCharHandle;
 160:Generated_Source\PSoC6\pdl\middleware\ble/cy_ble_gap.h **** 
 161:Generated_Source\PSoC6\pdl\middleware\ble/cy_ble_gap.h ****     /** Handle of the GAPS Central Address Resolution characteristic */
 162:Generated_Source\PSoC6\pdl\middleware\ble/cy_ble_gap.h ****     cy_ble_gatt_db_attr_handle_t centralAddrResolutionCharHandle;
 163:Generated_Source\PSoC6\pdl\middleware\ble/cy_ble_gap.h **** 
 164:Generated_Source\PSoC6\pdl\middleware\ble/cy_ble_gap.h ****     /** Handle of the GAPS Resolvable Private Address Only characteristic */
 165:Generated_Source\PSoC6\pdl\middleware\ble/cy_ble_gap.h ****     cy_ble_gatt_db_attr_handle_t resolvablePrivateAddressOnly;
 166:Generated_Source\PSoC6\pdl\middleware\ble/cy_ble_gap.h **** } cy_stc_ble_gaps_t;
 167:Generated_Source\PSoC6\pdl\middleware\ble/cy_ble_gap.h **** 
 168:Generated_Source\PSoC6\pdl\middleware\ble/cy_ble_gap.h **** /** GAP Service characteristics server's GATT DB handles structure type */
 169:Generated_Source\PSoC6\pdl\middleware\ble/cy_ble_gap.h **** typedef struct
 170:Generated_Source\PSoC6\pdl\middleware\ble/cy_ble_gap.h **** {
 171:Generated_Source\PSoC6\pdl\middleware\ble/cy_ble_gap.h ****     /** Handle of the GAPS Device Name Characteristic */
 172:Generated_Source\PSoC6\pdl\middleware\ble/cy_ble_gap.h ****     cy_ble_gatt_db_attr_handle_t deviceNameCharHandle;
 173:Generated_Source\PSoC6\pdl\middleware\ble/cy_ble_gap.h **** 
 174:Generated_Source\PSoC6\pdl\middleware\ble/cy_ble_gap.h ****     /** Handle of the GAPS Appearance Characteristic */
 175:Generated_Source\PSoC6\pdl\middleware\ble/cy_ble_gap.h ****     cy_ble_gatt_db_attr_handle_t appearanceCharHandle;
 176:Generated_Source\PSoC6\pdl\middleware\ble/cy_ble_gap.h **** 
 177:Generated_Source\PSoC6\pdl\middleware\ble/cy_ble_gap.h ****     /** Handle of the GAPS Peripheral Privacy Flag Parameters Characteristic */
 178:Generated_Source\PSoC6\pdl\middleware\ble/cy_ble_gap.h ****     cy_ble_gatt_db_attr_handle_t periphPrivacyCharHandle;
 179:Generated_Source\PSoC6\pdl\middleware\ble/cy_ble_gap.h **** 
 180:Generated_Source\PSoC6\pdl\middleware\ble/cy_ble_gap.h ****     /** Handle of the GAPS Reconnection Address Characteristic */
 181:Generated_Source\PSoC6\pdl\middleware\ble/cy_ble_gap.h ****     cy_ble_gatt_db_attr_handle_t reconnAddrCharHandle;
 182:Generated_Source\PSoC6\pdl\middleware\ble/cy_ble_gap.h **** 
 183:Generated_Source\PSoC6\pdl\middleware\ble/cy_ble_gap.h ****     /** Handle of the GAPS Peripheral Preferred Connection Parameters Characteristic */
 184:Generated_Source\PSoC6\pdl\middleware\ble/cy_ble_gap.h ****     cy_ble_gatt_db_attr_handle_t prefConnParamCharHandle;
 185:Generated_Source\PSoC6\pdl\middleware\ble/cy_ble_gap.h **** 
 186:Generated_Source\PSoC6\pdl\middleware\ble/cy_ble_gap.h ****     /** Handle of the GAPS Central Address Resolution characteristic */
 187:Generated_Source\PSoC6\pdl\middleware\ble/cy_ble_gap.h ****     cy_ble_gatt_db_attr_handle_t centralAddrResolutionCharHandle;
 188:Generated_Source\PSoC6\pdl\middleware\ble/cy_ble_gap.h **** 
 189:Generated_Source\PSoC6\pdl\middleware\ble/cy_ble_gap.h ****     /** Handle of the GAPS Resolvable Private Address Only characteristic */
 190:Generated_Source\PSoC6\pdl\middleware\ble/cy_ble_gap.h ****     cy_ble_gatt_db_attr_handle_t resolvablePrivateAddressOnly;
 191:Generated_Source\PSoC6\pdl\middleware\ble/cy_ble_gap.h **** }cy_stc_ble_gapc_t;
 192:Generated_Source\PSoC6\pdl\middleware\ble/cy_ble_gap.h **** 
 193:Generated_Source\PSoC6\pdl\middleware\ble/cy_ble_gap.h **** /* Stack mode defines */
 194:Generated_Source\PSoC6\pdl\middleware\ble/cy_ble_gap.h **** 
 195:Generated_Source\PSoC6\pdl\middleware\ble/cy_ble_gap.h **** /** Advertisement SIG assigned numbers */
 196:Generated_Source\PSoC6\pdl\middleware\ble/cy_ble_gap.h **** typedef enum
 197:Generated_Source\PSoC6\pdl\middleware\ble/cy_ble_gap.h **** {
 198:Generated_Source\PSoC6\pdl\middleware\ble/cy_ble_gap.h ****     /** Flags */
 199:Generated_Source\PSoC6\pdl\middleware\ble/cy_ble_gap.h ****     CY_BLE_GAP_ADV_FLAGS = 0x01u,
 200:Generated_Source\PSoC6\pdl\middleware\ble/cy_ble_gap.h **** 
 201:Generated_Source\PSoC6\pdl\middleware\ble/cy_ble_gap.h ****     /** Incomplete List of 16-bit Service Class UUIDs */
 202:Generated_Source\PSoC6\pdl\middleware\ble/cy_ble_gap.h ****     CY_BLE_GAP_ADV_INCOMPL_16UUID,
 203:Generated_Source\PSoC6\pdl\middleware\ble/cy_ble_gap.h **** 
 204:Generated_Source\PSoC6\pdl\middleware\ble/cy_ble_gap.h ****     /** Complete List of 16-bit Service Class UUIDs */
 205:Generated_Source\PSoC6\pdl\middleware\ble/cy_ble_gap.h ****     CY_BLE_GAP_ADV_COMPL_16UUID,
 206:Generated_Source\PSoC6\pdl\middleware\ble/cy_ble_gap.h **** 
 207:Generated_Source\PSoC6\pdl\middleware\ble/cy_ble_gap.h ****     /** Incomplete List of 32-bit Service Class UUIDs */
 208:Generated_Source\PSoC6\pdl\middleware\ble/cy_ble_gap.h ****     CY_BLE_GAP_ADV_INCOMPL_32_UUID,
 209:Generated_Source\PSoC6\pdl\middleware\ble/cy_ble_gap.h **** 
 210:Generated_Source\PSoC6\pdl\middleware\ble/cy_ble_gap.h ****     /** Complete List of 32-bit Service Class UUIDs */
 211:Generated_Source\PSoC6\pdl\middleware\ble/cy_ble_gap.h ****     CY_BLE_GAP_ADV_COMPL_32_UUID,
 212:Generated_Source\PSoC6\pdl\middleware\ble/cy_ble_gap.h **** 
ARM GAS  C:\Users\salaz\AppData\Local\Temp\ccj0QfQu.s 			page 23


 213:Generated_Source\PSoC6\pdl\middleware\ble/cy_ble_gap.h ****     /** Incomplete List of 128-bit Service Class UUIDs */
 214:Generated_Source\PSoC6\pdl\middleware\ble/cy_ble_gap.h ****     CY_BLE_GAP_ADV_INCOMPL_128_UUID,
 215:Generated_Source\PSoC6\pdl\middleware\ble/cy_ble_gap.h **** 
 216:Generated_Source\PSoC6\pdl\middleware\ble/cy_ble_gap.h ****     /** Complete List of 128-bit Service Class UUIDs */
 217:Generated_Source\PSoC6\pdl\middleware\ble/cy_ble_gap.h ****     CY_BLE_GAP_ADV_COMPL_128_UUID,
 218:Generated_Source\PSoC6\pdl\middleware\ble/cy_ble_gap.h **** 
 219:Generated_Source\PSoC6\pdl\middleware\ble/cy_ble_gap.h ****     /** Shortened Local Name */
 220:Generated_Source\PSoC6\pdl\middleware\ble/cy_ble_gap.h ****     CY_BLE_GAP_ADV_SHORT_NAME,
 221:Generated_Source\PSoC6\pdl\middleware\ble/cy_ble_gap.h **** 
 222:Generated_Source\PSoC6\pdl\middleware\ble/cy_ble_gap.h ****     /** Complete Local Name */
 223:Generated_Source\PSoC6\pdl\middleware\ble/cy_ble_gap.h ****     CY_BLE_GAP_ADV_COMPL_NAME,
 224:Generated_Source\PSoC6\pdl\middleware\ble/cy_ble_gap.h **** 
 225:Generated_Source\PSoC6\pdl\middleware\ble/cy_ble_gap.h ****     /** Tx Power Level */
 226:Generated_Source\PSoC6\pdl\middleware\ble/cy_ble_gap.h ****     CY_BLE_GAP_ADV_TX_PWR_LVL,
 227:Generated_Source\PSoC6\pdl\middleware\ble/cy_ble_gap.h **** 
 228:Generated_Source\PSoC6\pdl\middleware\ble/cy_ble_gap.h ****     /** Class of Device */
 229:Generated_Source\PSoC6\pdl\middleware\ble/cy_ble_gap.h ****     CY_BLE_GAP_ADV_CLASS_OF_DEVICE = 0x0Du,
 230:Generated_Source\PSoC6\pdl\middleware\ble/cy_ble_gap.h **** 
 231:Generated_Source\PSoC6\pdl\middleware\ble/cy_ble_gap.h ****     /** Simple Pairing Hash C */
 232:Generated_Source\PSoC6\pdl\middleware\ble/cy_ble_gap.h ****     CY_BLE_GAP_ADV_SMPL_PAIR_HASH_C,
 233:Generated_Source\PSoC6\pdl\middleware\ble/cy_ble_gap.h **** 
 234:Generated_Source\PSoC6\pdl\middleware\ble/cy_ble_gap.h ****     /** Simple Pairing Randomizer R */
 235:Generated_Source\PSoC6\pdl\middleware\ble/cy_ble_gap.h ****     CY_BLE_GAP_ADV_SMPL_PAIR_RANDOM_R,
 236:Generated_Source\PSoC6\pdl\middleware\ble/cy_ble_gap.h **** 
 237:Generated_Source\PSoC6\pdl\middleware\ble/cy_ble_gap.h ****     /** Device ID*/
 238:Generated_Source\PSoC6\pdl\middleware\ble/cy_ble_gap.h ****     CY_BLE_GAP_ADV_DEVICE_ID,
 239:Generated_Source\PSoC6\pdl\middleware\ble/cy_ble_gap.h **** 
 240:Generated_Source\PSoC6\pdl\middleware\ble/cy_ble_gap.h ****     /** Security Manager TK Value */
 241:Generated_Source\PSoC6\pdl\middleware\ble/cy_ble_gap.h ****     CY_BLE_GAP_ADV_SCRT_MNGR_TK_VAL = 0x10u,
 242:Generated_Source\PSoC6\pdl\middleware\ble/cy_ble_gap.h **** 
 243:Generated_Source\PSoC6\pdl\middleware\ble/cy_ble_gap.h ****     /** Security Manager Out of Band Flags */
 244:Generated_Source\PSoC6\pdl\middleware\ble/cy_ble_gap.h ****     CY_BLE_GAP_ADV_SCRT_MNGR_OOB_FLAGS,
 245:Generated_Source\PSoC6\pdl\middleware\ble/cy_ble_gap.h **** 
 246:Generated_Source\PSoC6\pdl\middleware\ble/cy_ble_gap.h ****     /** Slave Connection Interval Range */
 247:Generated_Source\PSoC6\pdl\middleware\ble/cy_ble_gap.h ****     CY_BLE_GAP_ADV_SLAVE_CONN_INTRV_RANGE,
 248:Generated_Source\PSoC6\pdl\middleware\ble/cy_ble_gap.h **** 
 249:Generated_Source\PSoC6\pdl\middleware\ble/cy_ble_gap.h ****     /** List of 16-bit Service Solicitation UUIDs */
 250:Generated_Source\PSoC6\pdl\middleware\ble/cy_ble_gap.h ****     CY_BLE_GAP_ADV_SOLICIT_16UUID = 0x14u,
 251:Generated_Source\PSoC6\pdl\middleware\ble/cy_ble_gap.h **** 
 252:Generated_Source\PSoC6\pdl\middleware\ble/cy_ble_gap.h ****     /** List of 128-bit Service Solicitation UUIDs */
 253:Generated_Source\PSoC6\pdl\middleware\ble/cy_ble_gap.h ****     CY_BLE_GAP_ADV_SOLICIT_128UUID,
 254:Generated_Source\PSoC6\pdl\middleware\ble/cy_ble_gap.h **** 
 255:Generated_Source\PSoC6\pdl\middleware\ble/cy_ble_gap.h ****     /** Service Data - 16-bit UUID */
 256:Generated_Source\PSoC6\pdl\middleware\ble/cy_ble_gap.h ****     CY_BLE_GAP_ADV_SRVC_DATA_16UUID,
 257:Generated_Source\PSoC6\pdl\middleware\ble/cy_ble_gap.h **** 
 258:Generated_Source\PSoC6\pdl\middleware\ble/cy_ble_gap.h ****     /** Public Target Address */
 259:Generated_Source\PSoC6\pdl\middleware\ble/cy_ble_gap.h ****     CY_BLE_GAP_ADV_PUBLIC_TARGET_ADDR,
 260:Generated_Source\PSoC6\pdl\middleware\ble/cy_ble_gap.h **** 
 261:Generated_Source\PSoC6\pdl\middleware\ble/cy_ble_gap.h ****     /** Random Target Address */
 262:Generated_Source\PSoC6\pdl\middleware\ble/cy_ble_gap.h ****     CY_BLE_GAP_ADV_RANDOM_TARGET_ADDR,
 263:Generated_Source\PSoC6\pdl\middleware\ble/cy_ble_gap.h **** 
 264:Generated_Source\PSoC6\pdl\middleware\ble/cy_ble_gap.h ****     /** Appearance */
 265:Generated_Source\PSoC6\pdl\middleware\ble/cy_ble_gap.h ****     CY_BLE_GAP_ADV_APPEARANCE,
 266:Generated_Source\PSoC6\pdl\middleware\ble/cy_ble_gap.h **** 
 267:Generated_Source\PSoC6\pdl\middleware\ble/cy_ble_gap.h ****     /** Advertising Interval */
 268:Generated_Source\PSoC6\pdl\middleware\ble/cy_ble_gap.h ****     CY_BLE_GAP_ADV_ADVERT_INTERVAL,
 269:Generated_Source\PSoC6\pdl\middleware\ble/cy_ble_gap.h **** 
ARM GAS  C:\Users\salaz\AppData\Local\Temp\ccj0QfQu.s 			page 24


 270:Generated_Source\PSoC6\pdl\middleware\ble/cy_ble_gap.h ****     /** LE Bluetooth Device Address */
 271:Generated_Source\PSoC6\pdl\middleware\ble/cy_ble_gap.h ****     CY_BLE_GAP_ADV_LE_BT_DEVICE_ADDR,
 272:Generated_Source\PSoC6\pdl\middleware\ble/cy_ble_gap.h **** 
 273:Generated_Source\PSoC6\pdl\middleware\ble/cy_ble_gap.h ****     /** LE Role */
 274:Generated_Source\PSoC6\pdl\middleware\ble/cy_ble_gap.h ****     CY_BLE_GAP_ADV_LE_ROLE,
 275:Generated_Source\PSoC6\pdl\middleware\ble/cy_ble_gap.h **** 
 276:Generated_Source\PSoC6\pdl\middleware\ble/cy_ble_gap.h ****     /** Simple Pairing Hash C-256 */
 277:Generated_Source\PSoC6\pdl\middleware\ble/cy_ble_gap.h ****     CY_BLE_GAP_ADV_SMPL_PAIR_HASH_C256,
 278:Generated_Source\PSoC6\pdl\middleware\ble/cy_ble_gap.h **** 
 279:Generated_Source\PSoC6\pdl\middleware\ble/cy_ble_gap.h ****     /** Simple Pairing Randomizer R-256 */
 280:Generated_Source\PSoC6\pdl\middleware\ble/cy_ble_gap.h ****     CY_BLE_GAP_ADV_SMPL_PAIR_RANDOM_R256,
 281:Generated_Source\PSoC6\pdl\middleware\ble/cy_ble_gap.h **** 
 282:Generated_Source\PSoC6\pdl\middleware\ble/cy_ble_gap.h ****     /** List of 32-bit Service Solicitation UUIDs */
 283:Generated_Source\PSoC6\pdl\middleware\ble/cy_ble_gap.h ****     CY_BLE_GAP_ADV_SOLICIT_32UUID,
 284:Generated_Source\PSoC6\pdl\middleware\ble/cy_ble_gap.h **** 
 285:Generated_Source\PSoC6\pdl\middleware\ble/cy_ble_gap.h ****     /** Service Data - 32-bit UUID */
 286:Generated_Source\PSoC6\pdl\middleware\ble/cy_ble_gap.h ****     CY_BLE_GAP_ADV_SRVC_DATA_32UUID,
 287:Generated_Source\PSoC6\pdl\middleware\ble/cy_ble_gap.h **** 
 288:Generated_Source\PSoC6\pdl\middleware\ble/cy_ble_gap.h ****     /** Service Data - 128-bit UUID */
 289:Generated_Source\PSoC6\pdl\middleware\ble/cy_ble_gap.h ****     CY_BLE_GAP_ADV_SRVC_DATA_128UUID,
 290:Generated_Source\PSoC6\pdl\middleware\ble/cy_ble_gap.h **** 
 291:Generated_Source\PSoC6\pdl\middleware\ble/cy_ble_gap.h ****     /** 3D Information Data */
 292:Generated_Source\PSoC6\pdl\middleware\ble/cy_ble_gap.h ****     CY_BLE_GAP_ADV_3D_INFO_DATA = 0x3D,
 293:Generated_Source\PSoC6\pdl\middleware\ble/cy_ble_gap.h **** 
 294:Generated_Source\PSoC6\pdl\middleware\ble/cy_ble_gap.h ****     /** Manufacturer Specific Data */
 295:Generated_Source\PSoC6\pdl\middleware\ble/cy_ble_gap.h ****     CY_BLE_GAP_ADV_MANUFACTURER_SPECIFIC_DATA = 0xFF
 296:Generated_Source\PSoC6\pdl\middleware\ble/cy_ble_gap.h **** }cy_en_ble_gap_adv_assign_numbers_t;
 297:Generated_Source\PSoC6\pdl\middleware\ble/cy_ble_gap.h **** 
 298:Generated_Source\PSoC6\pdl\middleware\ble/cy_ble_gap.h **** /** GAPP advertising configuration parameters structure */
 299:Generated_Source\PSoC6\pdl\middleware\ble/cy_ble_gap.h **** typedef struct
 300:Generated_Source\PSoC6\pdl\middleware\ble/cy_ble_gap.h **** {
 301:Generated_Source\PSoC6\pdl\middleware\ble/cy_ble_gap.h ****     /** The minimum interval for fast advertising the data and establishing the LE Connection */
 302:Generated_Source\PSoC6\pdl\middleware\ble/cy_ble_gap.h ****     uint16_t fastAdvIntervalMin;
 303:Generated_Source\PSoC6\pdl\middleware\ble/cy_ble_gap.h **** 
 304:Generated_Source\PSoC6\pdl\middleware\ble/cy_ble_gap.h ****     /** The maximum interval for fast advertising the data and establishing the LE Connection */
 305:Generated_Source\PSoC6\pdl\middleware\ble/cy_ble_gap.h ****     uint16_t fastAdvIntervalMax;
 306:Generated_Source\PSoC6\pdl\middleware\ble/cy_ble_gap.h **** 
 307:Generated_Source\PSoC6\pdl\middleware\ble/cy_ble_gap.h ****     /** The timeout value of  fast advertising with fast advertising interval parameters */
 308:Generated_Source\PSoC6\pdl\middleware\ble/cy_ble_gap.h ****     uint16_t fastAdvTimeOut;
 309:Generated_Source\PSoC6\pdl\middleware\ble/cy_ble_gap.h **** 
 310:Generated_Source\PSoC6\pdl\middleware\ble/cy_ble_gap.h ****     /** Slow advertising enable */
 311:Generated_Source\PSoC6\pdl\middleware\ble/cy_ble_gap.h ****     uint8_t  slowAdvEnable;
 312:Generated_Source\PSoC6\pdl\middleware\ble/cy_ble_gap.h **** 
 313:Generated_Source\PSoC6\pdl\middleware\ble/cy_ble_gap.h ****     /** The minimum interval for slow advertising the data and establishing the LE Connection */
 314:Generated_Source\PSoC6\pdl\middleware\ble/cy_ble_gap.h ****     uint16_t slowAdvIntervalMin;
 315:Generated_Source\PSoC6\pdl\middleware\ble/cy_ble_gap.h **** 
 316:Generated_Source\PSoC6\pdl\middleware\ble/cy_ble_gap.h ****     /** The maximum interval for slow  advertising the data and establishing the LE Connection */
 317:Generated_Source\PSoC6\pdl\middleware\ble/cy_ble_gap.h ****     uint16_t slowAdvIntervalMax;
 318:Generated_Source\PSoC6\pdl\middleware\ble/cy_ble_gap.h **** 
 319:Generated_Source\PSoC6\pdl\middleware\ble/cy_ble_gap.h ****     /** The timeout value of slow advertising with slow advertising interval parameters */
 320:Generated_Source\PSoC6\pdl\middleware\ble/cy_ble_gap.h ****     uint16_t slowAdvTimeOut;
 321:Generated_Source\PSoC6\pdl\middleware\ble/cy_ble_gap.h **** }cy_stc_ble_gapp_adv_params_t;
 322:Generated_Source\PSoC6\pdl\middleware\ble/cy_ble_gap.h **** 
 323:Generated_Source\PSoC6\pdl\middleware\ble/cy_ble_gap.h **** /** GAPC advertising configuration parameters structure */
 324:Generated_Source\PSoC6\pdl\middleware\ble/cy_ble_gap.h **** typedef struct
 325:Generated_Source\PSoC6\pdl\middleware\ble/cy_ble_gap.h **** {
 326:Generated_Source\PSoC6\pdl\middleware\ble/cy_ble_gap.h ****     /** The scan interval when operating in Fast connection */
ARM GAS  C:\Users\salaz\AppData\Local\Temp\ccj0QfQu.s 			page 25


 327:Generated_Source\PSoC6\pdl\middleware\ble/cy_ble_gap.h ****     uint16_t fastScanInterval;
 328:Generated_Source\PSoC6\pdl\middleware\ble/cy_ble_gap.h **** 
 329:Generated_Source\PSoC6\pdl\middleware\ble/cy_ble_gap.h ****     /** Defines the scan window when operating in Fast connection */
 330:Generated_Source\PSoC6\pdl\middleware\ble/cy_ble_gap.h ****     uint16_t fastScanWindow;
 331:Generated_Source\PSoC6\pdl\middleware\ble/cy_ble_gap.h **** 
 332:Generated_Source\PSoC6\pdl\middleware\ble/cy_ble_gap.h ****     /** The timeout value of scanning with fast scan parameters */
 333:Generated_Source\PSoC6\pdl\middleware\ble/cy_ble_gap.h ****     uint16_t fastScanTimeOut;
 334:Generated_Source\PSoC6\pdl\middleware\ble/cy_ble_gap.h **** 
 335:Generated_Source\PSoC6\pdl\middleware\ble/cy_ble_gap.h ****     /** Slow scan enable/disable */
 336:Generated_Source\PSoC6\pdl\middleware\ble/cy_ble_gap.h ****     uint8_t  slowScanEnabled;
 337:Generated_Source\PSoC6\pdl\middleware\ble/cy_ble_gap.h **** 
 338:Generated_Source\PSoC6\pdl\middleware\ble/cy_ble_gap.h ****     /** The scan interval when operating in Slow connection */
 339:Generated_Source\PSoC6\pdl\middleware\ble/cy_ble_gap.h ****     uint16_t slowScanInterval;
 340:Generated_Source\PSoC6\pdl\middleware\ble/cy_ble_gap.h **** 
 341:Generated_Source\PSoC6\pdl\middleware\ble/cy_ble_gap.h ****     /** Defines the scan window when operating in Slow connection */
 342:Generated_Source\PSoC6\pdl\middleware\ble/cy_ble_gap.h ****     uint16_t slowScanWindow;
 343:Generated_Source\PSoC6\pdl\middleware\ble/cy_ble_gap.h **** 
 344:Generated_Source\PSoC6\pdl\middleware\ble/cy_ble_gap.h ****     /** The timeout value of scanning with Slow scan parameters */
 345:Generated_Source\PSoC6\pdl\middleware\ble/cy_ble_gap.h ****     uint16_t slowScanTimeOut;
 346:Generated_Source\PSoC6\pdl\middleware\ble/cy_ble_gap.h **** 
 347:Generated_Source\PSoC6\pdl\middleware\ble/cy_ble_gap.h ****     /** The minimum permissible connection time value to be used during a connection event */
 348:Generated_Source\PSoC6\pdl\middleware\ble/cy_ble_gap.h ****     uint16_t gapcConnectionIntervalMin;
 349:Generated_Source\PSoC6\pdl\middleware\ble/cy_ble_gap.h **** 
 350:Generated_Source\PSoC6\pdl\middleware\ble/cy_ble_gap.h ****     /** The maximum permissible connection time value to be used during a connection event */
 351:Generated_Source\PSoC6\pdl\middleware\ble/cy_ble_gap.h ****     uint16_t gapcConnectionIntervalMax;
 352:Generated_Source\PSoC6\pdl\middleware\ble/cy_ble_gap.h **** 
 353:Generated_Source\PSoC6\pdl\middleware\ble/cy_ble_gap.h ****     /** Defines the maximum time between two received Data Packet PDUs before
 354:Generated_Source\PSoC6\pdl\middleware\ble/cy_ble_gap.h ****      *  the connection is considered lost */
 355:Generated_Source\PSoC6\pdl\middleware\ble/cy_ble_gap.h ****     uint16_t gapcConnectionSlaveLatency;
 356:Generated_Source\PSoC6\pdl\middleware\ble/cy_ble_gap.h **** 
 357:Generated_Source\PSoC6\pdl\middleware\ble/cy_ble_gap.h ****     /** Defines the LE link supervision timeout interval */
 358:Generated_Source\PSoC6\pdl\middleware\ble/cy_ble_gap.h ****     uint16_t gapcConnectionTimeOut;
 359:Generated_Source\PSoC6\pdl\middleware\ble/cy_ble_gap.h **** }cy_stc_ble_gapc_scan_params_t;
 360:Generated_Source\PSoC6\pdl\middleware\ble/cy_ble_gap.h **** 
 361:Generated_Source\PSoC6\pdl\middleware\ble/cy_ble_gap.h **** /** Store BLE Application Data parameter into flash */
 362:Generated_Source\PSoC6\pdl\middleware\ble/cy_ble_gap.h **** typedef struct
 363:Generated_Source\PSoC6\pdl\middleware\ble/cy_ble_gap.h **** {
 364:Generated_Source\PSoC6\pdl\middleware\ble/cy_ble_gap.h ****     /** Source buffer */
 365:Generated_Source\PSoC6\pdl\middleware\ble/cy_ble_gap.h ****     const uint8_t *srcBuff;
 366:Generated_Source\PSoC6\pdl\middleware\ble/cy_ble_gap.h **** 
 367:Generated_Source\PSoC6\pdl\middleware\ble/cy_ble_gap.h ****     /** Destination buffer */
 368:Generated_Source\PSoC6\pdl\middleware\ble/cy_ble_gap.h ****     const uint8_t *destAddr;
 369:Generated_Source\PSoC6\pdl\middleware\ble/cy_ble_gap.h **** 
 370:Generated_Source\PSoC6\pdl\middleware\ble/cy_ble_gap.h ****     /** Source buffer length */
 371:Generated_Source\PSoC6\pdl\middleware\ble/cy_ble_gap.h ****     uint32_t      buffLen;
 372:Generated_Source\PSoC6\pdl\middleware\ble/cy_ble_gap.h ****     
 373:Generated_Source\PSoC6\pdl\middleware\ble/cy_ble_gap.h ****     /** Write mode: blocking (default) / non-blocking */
 374:Generated_Source\PSoC6\pdl\middleware\ble/cy_ble_gap.h ****     uint32_t      writeMode;
 375:Generated_Source\PSoC6\pdl\middleware\ble/cy_ble_gap.h ****     
 376:Generated_Source\PSoC6\pdl\middleware\ble/cy_ble_gap.h **** } cy_stc_ble_app_flash_param_t;
 377:Generated_Source\PSoC6\pdl\middleware\ble/cy_ble_gap.h **** 
 378:Generated_Source\PSoC6\pdl\middleware\ble/cy_ble_gap.h **** /** @} group_ble_common_api_gap_definitions */
 379:Generated_Source\PSoC6\pdl\middleware\ble/cy_ble_gap.h ****  
 380:Generated_Source\PSoC6\pdl\middleware\ble/cy_ble_gap.h **** /***************************************
 381:Generated_Source\PSoC6\pdl\middleware\ble/cy_ble_gap.h **** * API Constants
 382:Generated_Source\PSoC6\pdl\middleware\ble/cy_ble_gap.h **** ***************************************/
 383:Generated_Source\PSoC6\pdl\middleware\ble/cy_ble_gap.h **** #define CY_BLE_AD_TYPE_MORE16UUID                  (0x02u)
ARM GAS  C:\Users\salaz\AppData\Local\Temp\ccj0QfQu.s 			page 26


 384:Generated_Source\PSoC6\pdl\middleware\ble/cy_ble_gap.h **** #define CY_BLE_AD_TYPE_CMPL16UUID                  (0x03u)
 385:Generated_Source\PSoC6\pdl\middleware\ble/cy_ble_gap.h **** #define CY_BLE_AD_TYPE_MORE32UUID                  (0x04u)
 386:Generated_Source\PSoC6\pdl\middleware\ble/cy_ble_gap.h **** #define CY_BLE_AD_TYPE_CMPL32UUID                  (0x05u)
 387:Generated_Source\PSoC6\pdl\middleware\ble/cy_ble_gap.h **** #define CY_BLE_AD_TYPE_MORE128UUID                 (0x06u)
 388:Generated_Source\PSoC6\pdl\middleware\ble/cy_ble_gap.h **** #define CY_BLE_AD_TYPE_CMPL128UUID                 (0x07u)
 389:Generated_Source\PSoC6\pdl\middleware\ble/cy_ble_gap.h **** 
 390:Generated_Source\PSoC6\pdl\middleware\ble/cy_ble_gap.h **** #define CY_BLE_AD_TYPE_SERVICE_DATA                (0x16u)
 391:Generated_Source\PSoC6\pdl\middleware\ble/cy_ble_gap.h **** #define CY_BLE_AD_SERVICE_DATA_OVERHEAD            (0x03u)
 392:Generated_Source\PSoC6\pdl\middleware\ble/cy_ble_gap.h **** 
 393:Generated_Source\PSoC6\pdl\middleware\ble/cy_ble_gap.h **** #define CY_BLE_DISCOVERY_IDLE                      (0x00u)
 394:Generated_Source\PSoC6\pdl\middleware\ble/cy_ble_gap.h **** #define CY_BLE_DISCOVERY_SERVICE                   (0x01u)
 395:Generated_Source\PSoC6\pdl\middleware\ble/cy_ble_gap.h **** #define CY_BLE_DISCOVERY_CHAR                      (0x02u)
 396:Generated_Source\PSoC6\pdl\middleware\ble/cy_ble_gap.h **** #define CY_BLE_DISCOVERY_DESCR                     (0x03u)
 397:Generated_Source\PSoC6\pdl\middleware\ble/cy_ble_gap.h **** #define CY_BLE_DISCOVERY_DONE                      (0x04u)
 398:Generated_Source\PSoC6\pdl\middleware\ble/cy_ble_gap.h **** 
 399:Generated_Source\PSoC6\pdl\middleware\ble/cy_ble_gap.h **** /* Cy_BLE_NextCharDscrDiscovery parameters */
 400:Generated_Source\PSoC6\pdl\middleware\ble/cy_ble_gap.h **** #define CY_BLE_DISCOVERY_INIT                      (0x00u)
 401:Generated_Source\PSoC6\pdl\middleware\ble/cy_ble_gap.h **** #define CY_BLE_DISCOVERY_CONTINUE                  (0x01u)
 402:Generated_Source\PSoC6\pdl\middleware\ble/cy_ble_gap.h **** 
 403:Generated_Source\PSoC6\pdl\middleware\ble/cy_ble_gap.h **** #define CY_BLE_SFLASH_DIE_X_MASK                   (0x3Fu)
 404:Generated_Source\PSoC6\pdl\middleware\ble/cy_ble_gap.h **** #define CY_BLE_SFLASH_DIE_X_BITS                   (6u)
 405:Generated_Source\PSoC6\pdl\middleware\ble/cy_ble_gap.h **** #define CY_BLE_SFLASH_DIE_Y_MASK                   (0x3Fu)
 406:Generated_Source\PSoC6\pdl\middleware\ble/cy_ble_gap.h **** #define CY_BLE_SFLASH_DIE_Y_BITS                   (6u)
 407:Generated_Source\PSoC6\pdl\middleware\ble/cy_ble_gap.h **** #define CY_BLE_SFLASH_DIE_XY_BITS                  (CY_BLE_SFLASH_DIE_X_BITS + CY_BLE_SFLASH_DIE_Y_
 408:Generated_Source\PSoC6\pdl\middleware\ble/cy_ble_gap.h **** #define CY_BLE_SFLASH_DIE_WAFER_MASK               (0x1Fu)
 409:Generated_Source\PSoC6\pdl\middleware\ble/cy_ble_gap.h **** #define CY_BLE_SFLASH_DIE_WAFER_BITS               (5u)
 410:Generated_Source\PSoC6\pdl\middleware\ble/cy_ble_gap.h **** #define CY_BLE_SFLASH_DIE_XYWAFER_BITS             (CY_BLE_SFLASH_DIE_XY_BITS + CY_BLE_SFLASH_DIE_W
 411:Generated_Source\PSoC6\pdl\middleware\ble/cy_ble_gap.h **** #define CY_BLE_SFLASH_DIE_LOT_MASK                 (0x7Fu)
 412:Generated_Source\PSoC6\pdl\middleware\ble/cy_ble_gap.h **** #define CY_BLE_SFLASH_DIE_LOT_BITS                 (7u)
 413:Generated_Source\PSoC6\pdl\middleware\ble/cy_ble_gap.h **** 
 414:Generated_Source\PSoC6\pdl\middleware\ble/cy_ble_gap.h **** /* Device address stored by user in ROW4 of the SFLASH */
 415:Generated_Source\PSoC6\pdl\middleware\ble/cy_ble_gap.h **** #define CY_BLE_SFLASH_DEVICE_ADDRESS_PTR           ((cy_stc_ble_gap_bd_addr_t*)(SFLASH->BLE_DEVICE_
 416:Generated_Source\PSoC6\pdl\middleware\ble/cy_ble_gap.h **** #define CY_BLE_AD_STRUCTURE_MAX_LENGTH             (31u)
 417:Generated_Source\PSoC6\pdl\middleware\ble/cy_ble_gap.h **** 
 418:Generated_Source\PSoC6\pdl\middleware\ble/cy_ble_gap.h **** /* AD types for complete, shortened local name and device address */
 419:Generated_Source\PSoC6\pdl\middleware\ble/cy_ble_gap.h **** #define CY_BLE_SHORT_LOCAL_NAME                    (0x08u)  /**< Shortened Local Name */
 420:Generated_Source\PSoC6\pdl\middleware\ble/cy_ble_gap.h **** #define CY_BLE_COMPLETE_LOCAL_NAME                 (0x09u)  /**< Complete Local Name */
 421:Generated_Source\PSoC6\pdl\middleware\ble/cy_ble_gap.h **** #define CY_BLE_ADV_DEVICE_ADDR                     (0x1Bu)  /**< LE Bluetooth Device Address */
 422:Generated_Source\PSoC6\pdl\middleware\ble/cy_ble_gap.h **** 
 423:Generated_Source\PSoC6\pdl\middleware\ble/cy_ble_gap.h **** #define CY_BLE_ADVERTISING_FAST                    (0x00u)
 424:Generated_Source\PSoC6\pdl\middleware\ble/cy_ble_gap.h **** #define CY_BLE_ADVERTISING_SLOW                    (0x01u)
 425:Generated_Source\PSoC6\pdl\middleware\ble/cy_ble_gap.h **** #define CY_BLE_ADVERTISING_CUSTOM                  (0x02u)
 426:Generated_Source\PSoC6\pdl\middleware\ble/cy_ble_gap.h **** 
 427:Generated_Source\PSoC6\pdl\middleware\ble/cy_ble_gap.h **** #define CY_BLE_SCANNING_FAST                       (0x00u)
 428:Generated_Source\PSoC6\pdl\middleware\ble/cy_ble_gap.h **** #define CY_BLE_SCANNING_SLOW                       (0x01u)
 429:Generated_Source\PSoC6\pdl\middleware\ble/cy_ble_gap.h **** #define CY_BLE_SCANNING_CUSTOM                     (0x02u)
 430:Generated_Source\PSoC6\pdl\middleware\ble/cy_ble_gap.h **** 
 431:Generated_Source\PSoC6\pdl\middleware\ble/cy_ble_gap.h **** #define CY_BLE_PENDING_STACK_FLASH_WRITE_BIT       (0x01u)
 432:Generated_Source\PSoC6\pdl\middleware\ble/cy_ble_gap.h **** #define CY_BLE_PENDING_CCCD_FLASH_WRITE_BIT        (0x02u)
 433:Generated_Source\PSoC6\pdl\middleware\ble/cy_ble_gap.h **** #define CY_BLE_PENDING_CCCD_FLASH_CLEAR_BIT        (0x04u)
 434:Generated_Source\PSoC6\pdl\middleware\ble/cy_ble_gap.h **** #define CY_BLE_PENDING_CCCD_FLASH_CLEAR_ALL_BIT    (0x08u)
 435:Generated_Source\PSoC6\pdl\middleware\ble/cy_ble_gap.h **** #define CY_BLE_PENDING_CCCD_FLASH_CLEAR_MASK \
 436:Generated_Source\PSoC6\pdl\middleware\ble/cy_ble_gap.h ****     (CY_BLE_PENDING_CCCD_FLASH_CLEAR_BIT | CY_BLE_PENDING_CCCD_FLASH_CLEAR_ALL_BIT)
 437:Generated_Source\PSoC6\pdl\middleware\ble/cy_ble_gap.h ****   
 438:Generated_Source\PSoC6\pdl\middleware\ble/cy_ble_gap.h **** /**
 439:Generated_Source\PSoC6\pdl\middleware\ble/cy_ble_gap.h ****  * \addtogroup group_ble_common_api_macros
 440:Generated_Source\PSoC6\pdl\middleware\ble/cy_ble_gap.h ****  * @{
ARM GAS  C:\Users\salaz\AppData\Local\Temp\ccj0QfQu.s 			page 27


 441:Generated_Source\PSoC6\pdl\middleware\ble/cy_ble_gap.h ****  */
 442:Generated_Source\PSoC6\pdl\middleware\ble/cy_ble_gap.h ****  
 443:Generated_Source\PSoC6\pdl\middleware\ble/cy_ble_gap.h **** /* GAP Advertisement Flags */
 444:Generated_Source\PSoC6\pdl\middleware\ble/cy_ble_gap.h **** #define CY_BLE_GAP_ADV_FLAG_LE_LIMITED_DISC_MODE        (0x01u)     /**< LE Limited Discoverable Mo
 445:Generated_Source\PSoC6\pdl\middleware\ble/cy_ble_gap.h **** #define CY_BLE_GAP_ADV_FLAG_LE_GENERAL_DISC_MODE        (0x02u)     /**< LE General Discoverable Mo
 446:Generated_Source\PSoC6\pdl\middleware\ble/cy_ble_gap.h **** #define CY_BLE_GAP_ADV_FLAG_BR_EDR_NOT_SUPPORTED        (0x04u)     /**< BR/EDR not supported. */
 447:Generated_Source\PSoC6\pdl\middleware\ble/cy_ble_gap.h **** #define CY_BLE_GAP_ADV_FLAG_LE_BR_EDR_CONTROLLER        (0x08u)     /**< Simultaneous LE and BR/EDR
 448:Generated_Source\PSoC6\pdl\middleware\ble/cy_ble_gap.h **** #define CY_BLE_GAP_ADV_FLAG_LE_BR_EDR_HOST              (0x10u)     /**< Simultaneous LE and BR/EDR
 449:Generated_Source\PSoC6\pdl\middleware\ble/cy_ble_gap.h **** #define CY_BLE_GAP_ADV_FLAGS_PACKET_LENGTH              (0x02u)     /**< Length of flags in an adve
 450:Generated_Source\PSoC6\pdl\middleware\ble/cy_ble_gap.h **** 
 451:Generated_Source\PSoC6\pdl\middleware\ble/cy_ble_gap.h **** /* GAP Advertising interval min and max */
 452:Generated_Source\PSoC6\pdl\middleware\ble/cy_ble_gap.h **** #define CY_BLE_GAP_ADV_ADVERT_INTERVAL_MIN              (0x0020u)   /**< Minimum Advertising interv
 453:Generated_Source\PSoC6\pdl\middleware\ble/cy_ble_gap.h ****                                                                      *   i.e. 20 ms. */
 454:Generated_Source\PSoC6\pdl\middleware\ble/cy_ble_gap.h **** #define CY_BLE_GAP_ADV_ADVERT_INTERVAL_NONCON_MIN       (0x00A0u)   /**< Minimum Advertising interv
 455:Generated_Source\PSoC6\pdl\middleware\ble/cy_ble_gap.h ****                                                                      *   for non connectable mode, 
 456:Generated_Source\PSoC6\pdl\middleware\ble/cy_ble_gap.h **** #define CY_BLE_GAP_ADV_ADVERT_INTERVAL_MAX              (0x4000u)   /**< Maximum Advertising interv
 457:Generated_Source\PSoC6\pdl\middleware\ble/cy_ble_gap.h ****                                                                      *   i.e. 10.24 s. */
 458:Generated_Source\PSoC6\pdl\middleware\ble/cy_ble_gap.h **** #define CY_BLE_GAP_ADV_ADVERT_INTERVAL_PACKET_LENGTH    (0x03u)     /**< Length of the Advertising 
 459:Generated_Source\PSoC6\pdl\middleware\ble/cy_ble_gap.h ****                                                                      *   an advertisement packet */
 460:Generated_Source\PSoC6\pdl\middleware\ble/cy_ble_gap.h **** #define CY_BLE_GAPC_CONNECTING_TIMEOUT                  (30u)       /**< Seconds */
 461:Generated_Source\PSoC6\pdl\middleware\ble/cy_ble_gap.h **** #define CY_BLE_INVALID_CONN_HANDLE_VALUE                (0xFFu)     /**< Invalid Connection Handle 
 462:Generated_Source\PSoC6\pdl\middleware\ble/cy_ble_gap.h **** 
 463:Generated_Source\PSoC6\pdl\middleware\ble/cy_ble_gap.h **** /* Write mode for Cy_BLE_StoreAppData */
 464:Generated_Source\PSoC6\pdl\middleware\ble/cy_ble_gap.h **** #define CY_BLE_STORE_DATA_MODE_BLOCKING                 (0x0u)      /**< Blocking write */
 465:Generated_Source\PSoC6\pdl\middleware\ble/cy_ble_gap.h **** #define CY_BLE_STORE_DATA_MODE_NON_BLOCKING             (0x1u)      /**< Non-blocking write */
 466:Generated_Source\PSoC6\pdl\middleware\ble/cy_ble_gap.h **** 
 467:Generated_Source\PSoC6\pdl\middleware\ble/cy_ble_gap.h **** /** @} group_ble_common_api_macros */
 468:Generated_Source\PSoC6\pdl\middleware\ble/cy_ble_gap.h **** 
 469:Generated_Source\PSoC6\pdl\middleware\ble/cy_ble_gap.h **** /***************************************
 470:Generated_Source\PSoC6\pdl\middleware\ble/cy_ble_gap.h **** * Private Function Prototypes
 471:Generated_Source\PSoC6\pdl\middleware\ble/cy_ble_gap.h **** ***************************************/
 472:Generated_Source\PSoC6\pdl\middleware\ble/cy_ble_gap.h **** void Cy_BLE_ServiceInit(void);
 473:Generated_Source\PSoC6\pdl\middleware\ble/cy_ble_gap.h **** uint32_t Cy_BLE_GetDiscoveryIdx(cy_stc_ble_conn_handle_t connHandle);
 474:Generated_Source\PSoC6\pdl\middleware\ble/cy_ble_gap.h **** 
 475:Generated_Source\PSoC6\pdl\middleware\ble/cy_ble_gap.h **** /***************************************
 476:Generated_Source\PSoC6\pdl\middleware\ble/cy_ble_gap.h **** * Function Prototypes
 477:Generated_Source\PSoC6\pdl\middleware\ble/cy_ble_gap.h **** ***************************************/
 478:Generated_Source\PSoC6\pdl\middleware\ble/cy_ble_gap.h **** /**
 479:Generated_Source\PSoC6\pdl\middleware\ble/cy_ble_gap.h ****  * \addtogroup group_ble_common_api_functions
 480:Generated_Source\PSoC6\pdl\middleware\ble/cy_ble_gap.h ****  * @{
 481:Generated_Source\PSoC6\pdl\middleware\ble/cy_ble_gap.h ****  */
 482:Generated_Source\PSoC6\pdl\middleware\ble/cy_ble_gap.h **** 
 483:Generated_Source\PSoC6\pdl\middleware\ble/cy_ble_gap.h **** cy_en_ble_api_result_t Cy_BLE_StoreAppData(const cy_stc_ble_app_flash_param_t *param);
 484:Generated_Source\PSoC6\pdl\middleware\ble/cy_ble_gap.h **** 
 485:Generated_Source\PSoC6\pdl\middleware\ble/cy_ble_gap.h **** #if ((CY_BLE_GAP_ROLE_PERIPHERAL || CY_BLE_GAP_ROLE_CENTRAL) && (CY_BLE_BONDING_REQUIREMENT == CY_B
 486:Generated_Source\PSoC6\pdl\middleware\ble/cy_ble_gap.h **** cy_en_ble_api_result_t Cy_BLE_StoreBondingData(void);
 487:Generated_Source\PSoC6\pdl\middleware\ble/cy_ble_gap.h **** cy_en_ble_api_result_t Cy_BLE_GAP_RemoveBondedDevice(cy_stc_ble_gap_bd_addr_t* bdAddr);
 488:Generated_Source\PSoC6\pdl\middleware\ble/cy_ble_gap.h **** #endif /* (CY_BLE_GAP_ROLE_PERIPHERAL || CY_BLE_GAP_ROLE_CENTRAL) && (CY_BLE_BONDING_REQUIREMENT ==
 489:Generated_Source\PSoC6\pdl\middleware\ble/cy_ble_gap.h **** 
 490:Generated_Source\PSoC6\pdl\middleware\ble/cy_ble_gap.h **** #if (CY_BLE_GAP_ROLE_PERIPHERAL || CY_BLE_GAP_ROLE_CENTRAL)
 491:Generated_Source\PSoC6\pdl\middleware\ble/cy_ble_gap.h **** bool Cy_BLE_IsPeerConnected(uint8_t *bdAddr);
 492:Generated_Source\PSoC6\pdl\middleware\ble/cy_ble_gap.h **** bool Cy_BLE_IsDevicePaired(cy_stc_ble_conn_handle_t *connHandle);
 493:Generated_Source\PSoC6\pdl\middleware\ble/cy_ble_gap.h **** uint8_t Cy_BLE_GetDeviceRole(cy_stc_ble_conn_handle_t *connHandle);
 494:Generated_Source\PSoC6\pdl\middleware\ble/cy_ble_gap.h **** 
 495:Generated_Source\PSoC6\pdl\middleware\ble/cy_ble_gap.h **** cy_en_ble_api_result_t Cy_BLE_GetRssiPeer(uint8_t  bdHandle);
 496:Generated_Source\PSoC6\pdl\middleware\ble/cy_ble_gap.h **** #endif /* (CY_BLE_GAP_ROLE_PERIPHERAL || CY_BLE_GAP_ROLE_CENTRAL) */
 497:Generated_Source\PSoC6\pdl\middleware\ble/cy_ble_gap.h **** /** @} group_ble_common_api_functions */
ARM GAS  C:\Users\salaz\AppData\Local\Temp\ccj0QfQu.s 			page 28


 498:Generated_Source\PSoC6\pdl\middleware\ble/cy_ble_gap.h **** 
 499:Generated_Source\PSoC6\pdl\middleware\ble/cy_ble_gap.h **** /**
 500:Generated_Source\PSoC6\pdl\middleware\ble/cy_ble_gap.h ****  * \addtogroup group_ble_common_api_gap_peripheral_functions
 501:Generated_Source\PSoC6\pdl\middleware\ble/cy_ble_gap.h ****  * @{
 502:Generated_Source\PSoC6\pdl\middleware\ble/cy_ble_gap.h ****  */
 503:Generated_Source\PSoC6\pdl\middleware\ble/cy_ble_gap.h ****  
 504:Generated_Source\PSoC6\pdl\middleware\ble/cy_ble_gap.h **** #if (CY_BLE_GAP_ROLE_PERIPHERAL || CY_BLE_GAP_ROLE_BROADCASTER)
 505:Generated_Source\PSoC6\pdl\middleware\ble/cy_ble_gap.h **** cy_en_ble_api_result_t Cy_BLE_GAPP_StartAdvertisement(uint8_t advertisingIntervalType, uint8_t adve
 506:Generated_Source\PSoC6\pdl\middleware\ble/cy_ble_gap.h **** cy_en_ble_api_result_t Cy_BLE_GAPP_StopAdvertisement(void);
 507:Generated_Source\PSoC6\pdl\middleware\ble/cy_ble_gap.h **** 
 508:Generated_Source\PSoC6\pdl\middleware\ble/cy_ble_gap.h **** /** \cond IGNORE */
 509:Generated_Source\PSoC6\pdl\middleware\ble/cy_ble_gap.h **** void Cy_BLE_ChangeAdDeviceAddress(const cy_stc_ble_gap_bd_addr_t* bdAddr, uint8_t dest);
 510:Generated_Source\PSoC6\pdl\middleware\ble/cy_ble_gap.h **** /** \endcond */
 511:Generated_Source\PSoC6\pdl\middleware\ble/cy_ble_gap.h **** 
 512:Generated_Source\PSoC6\pdl\middleware\ble/cy_ble_gap.h **** #endif /* CY_BLE_GAP_ROLE_PERIPHERAL */
 513:Generated_Source\PSoC6\pdl\middleware\ble/cy_ble_gap.h **** 
 514:Generated_Source\PSoC6\pdl\middleware\ble/cy_ble_gap.h **** /** @} group_ble_common_api_gap_peripheral_functions */
 515:Generated_Source\PSoC6\pdl\middleware\ble/cy_ble_gap.h **** 
 516:Generated_Source\PSoC6\pdl\middleware\ble/cy_ble_gap.h **** /**
 517:Generated_Source\PSoC6\pdl\middleware\ble/cy_ble_gap.h ****  * \addtogroup group_ble_common_api_gap_central_functions
 518:Generated_Source\PSoC6\pdl\middleware\ble/cy_ble_gap.h ****  * @{
 519:Generated_Source\PSoC6\pdl\middleware\ble/cy_ble_gap.h ****  */
 520:Generated_Source\PSoC6\pdl\middleware\ble/cy_ble_gap.h ****  
 521:Generated_Source\PSoC6\pdl\middleware\ble/cy_ble_gap.h **** #if (CY_BLE_GAP_ROLE_CENTRAL || CY_BLE_GAP_ROLE_OBSERVER)
 522:Generated_Source\PSoC6\pdl\middleware\ble/cy_ble_gap.h **** cy_en_ble_api_result_t Cy_BLE_GAPC_StartScan(uint8_t scanningIntervalType, uint8_t scanParamIndex);
 523:Generated_Source\PSoC6\pdl\middleware\ble/cy_ble_gap.h **** cy_en_ble_api_result_t Cy_BLE_GAPC_StopScan(void);
 524:Generated_Source\PSoC6\pdl\middleware\ble/cy_ble_gap.h **** #endif /* CY_BLE_GAP_ROLE_CENTRAL || CY_BLE_GAP_ROLE_OBSERVER */
 525:Generated_Source\PSoC6\pdl\middleware\ble/cy_ble_gap.h **** 
 526:Generated_Source\PSoC6\pdl\middleware\ble/cy_ble_gap.h **** #if (CY_BLE_GAP_ROLE_CENTRAL)
 527:Generated_Source\PSoC6\pdl\middleware\ble/cy_ble_gap.h **** cy_en_ble_api_result_t Cy_BLE_GAPC_ConnectDevice(const cy_stc_ble_gap_bd_addr_t * address, uint8_t 
 528:Generated_Source\PSoC6\pdl\middleware\ble/cy_ble_gap.h **** cy_en_ble_api_result_t Cy_BLE_GAPC_CancelDeviceConnection(void);
 529:Generated_Source\PSoC6\pdl\middleware\ble/cy_ble_gap.h **** #endif /* CY_BLE_GAP_ROLE_CENTRAL */
 530:Generated_Source\PSoC6\pdl\middleware\ble/cy_ble_gap.h **** 
 531:Generated_Source\PSoC6\pdl\middleware\ble/cy_ble_gap.h **** /** @} group_ble_common_api_gap_central_functions */
 532:Generated_Source\PSoC6\pdl\middleware\ble/cy_ble_gap.h **** 
 533:Generated_Source\PSoC6\pdl\middleware\ble/cy_ble_gap.h **** /***************************************
 534:Generated_Source\PSoC6\pdl\middleware\ble/cy_ble_gap.h **** * External data references
 535:Generated_Source\PSoC6\pdl\middleware\ble/cy_ble_gap.h **** ***************************************/
 536:Generated_Source\PSoC6\pdl\middleware\ble/cy_ble_gap.h **** extern volatile uint8_t cy_ble_eventHandlerFlag;
 537:Generated_Source\PSoC6\pdl\middleware\ble/cy_ble_gap.h **** extern cy_stc_ble_gap_bd_addr_t *cy_ble_sflashDeviceAddress;
 538:Generated_Source\PSoC6\pdl\middleware\ble/cy_ble_gap.h **** extern cy_stc_ble_gap_bd_addr_t cy_ble_deviceAddress;
 539:Generated_Source\PSoC6\pdl\middleware\ble/cy_ble_gap.h **** extern cy_en_ble_state_t cy_ble_state;
 540:Generated_Source\PSoC6\pdl\middleware\ble/cy_ble_gap.h **** 
 541:Generated_Source\PSoC6\pdl\middleware\ble/cy_ble_gap.h **** #if ((CY_BLE_GAP_ROLE_PERIPHERAL || CY_BLE_GAP_ROLE_CENTRAL))
 542:Generated_Source\PSoC6\pdl\middleware\ble/cy_ble_gap.h **** extern cy_stc_ble_gap_auth_info_t cy_ble_authInfo[CY_BLE_AUTH_INFO_COUNT];
 543:Generated_Source\PSoC6\pdl\middleware\ble/cy_ble_gap.h **** #endif /* ((CY_BLE_GAP_ROLE_PERIPHERAL || CY_BLE_GAP_ROLE_CENTRAL)) */
 544:Generated_Source\PSoC6\pdl\middleware\ble/cy_ble_gap.h **** 
 545:Generated_Source\PSoC6\pdl\middleware\ble/cy_ble_gap.h **** #if (CY_BLE_GAP_ROLE_PERIPHERAL || CY_BLE_GAP_ROLE_BROADCASTER)
 546:Generated_Source\PSoC6\pdl\middleware\ble/cy_ble_gap.h **** extern cy_en_ble_adv_state_t cy_ble_advState;
 547:Generated_Source\PSoC6\pdl\middleware\ble/cy_ble_gap.h **** extern uint8_t cy_ble_advIndex;
 548:Generated_Source\PSoC6\pdl\middleware\ble/cy_ble_gap.h **** #endif  /* (CY_BLE_GAP_ROLE_PERIPHERAL || CY_BLE_GAP_ROLE_BROADCASTER) */
 549:Generated_Source\PSoC6\pdl\middleware\ble/cy_ble_gap.h **** 
 550:Generated_Source\PSoC6\pdl\middleware\ble/cy_ble_gap.h **** #if (CY_BLE_GAP_ROLE_CENTRAL || CY_BLE_GAP_ROLE_OBSERVER)
 551:Generated_Source\PSoC6\pdl\middleware\ble/cy_ble_gap.h **** extern cy_en_ble_scan_state_t cy_ble_scanState;
 552:Generated_Source\PSoC6\pdl\middleware\ble/cy_ble_gap.h **** extern uint8_t cy_ble_scanIndex;
 553:Generated_Source\PSoC6\pdl\middleware\ble/cy_ble_gap.h **** #endif /* (CY_BLE_GAP_ROLE_CENTRAL || CY_BLE_GAP_ROLE_OBSERVER) */
 554:Generated_Source\PSoC6\pdl\middleware\ble/cy_ble_gap.h **** 
ARM GAS  C:\Users\salaz\AppData\Local\Temp\ccj0QfQu.s 			page 29


 555:Generated_Source\PSoC6\pdl\middleware\ble/cy_ble_gap.h **** #if ((CY_BLE_GAP_ROLE_PERIPHERAL || CY_BLE_GAP_ROLE_CENTRAL))
 556:Generated_Source\PSoC6\pdl\middleware\ble/cy_ble_gap.h **** extern cy_stc_ble_conn_handle_t cy_ble_connHandle[CY_BLE_CONN_COUNT];
 557:Generated_Source\PSoC6\pdl\middleware\ble/cy_ble_gap.h **** extern cy_en_ble_conn_state_t cy_ble_connState[CY_BLE_CONN_COUNT];
 558:Generated_Source\PSoC6\pdl\middleware\ble/cy_ble_gap.h **** 
 559:Generated_Source\PSoC6\pdl\middleware\ble/cy_ble_gap.h **** extern volatile uint8_t cy_ble_devConnRole[CY_BLE_CONN_COUNT];                                     
 560:Generated_Source\PSoC6\pdl\middleware\ble/cy_ble_gap.h **** extern volatile bool cy_ble_pairStatus[CY_BLE_CONN_COUNT];
 561:Generated_Source\PSoC6\pdl\middleware\ble/cy_ble_gap.h **** 
 562:Generated_Source\PSoC6\pdl\middleware\ble/cy_ble_gap.h **** #endif /* ((CY_BLE_GAP_ROLE_PERIPHERAL || CY_BLE_GAP_ROLE_CENTRAL)) */
 563:Generated_Source\PSoC6\pdl\middleware\ble/cy_ble_gap.h **** 
 564:Generated_Source\PSoC6\pdl\middleware\ble/cy_ble_gap.h **** #if (CY_BLE_GAP_ROLE_CENTRAL || CY_BLE_GAP_ROLE_OBSERVER)
 565:Generated_Source\PSoC6\pdl\middleware\ble/cy_ble_gap.h **** extern cy_stc_ble_gapc_disc_info_t cy_ble_discoveryInfo[CY_BLE_GAPC_CONF_COUNT];
 566:Generated_Source\PSoC6\pdl\middleware\ble/cy_ble_gap.h **** #endif /* CY_BLE_GAP_ROLE_CENTRAL || CY_BLE_GAP_ROLE_OBSERVER */
 567:Generated_Source\PSoC6\pdl\middleware\ble/cy_ble_gap.h **** 
 568:Generated_Source\PSoC6\pdl\middleware\ble/cy_ble_gap.h **** #if (CY_BLE_GAP_ROLE_CENTRAL)
 569:Generated_Source\PSoC6\pdl\middleware\ble/cy_ble_gap.h **** extern cy_stc_ble_gapc_conn_info_t cy_ble_connectionParameters;
 570:Generated_Source\PSoC6\pdl\middleware\ble/cy_ble_gap.h **** extern cy_stc_ble_timer_info_t cy_ble_connectingTimeout;
 571:Generated_Source\PSoC6\pdl\middleware\ble/cy_ble_gap.h **** #endif /* CY_BLE_GAP_ROLE_CENTRAL */
 572:Generated_Source\PSoC6\pdl\middleware\ble/cy_ble_gap.h **** 
 573:Generated_Source\PSoC6\pdl\middleware\ble/cy_ble_gap.h **** #if (CY_BLE_GAP_ROLE_PERIPHERAL || CY_BLE_GAP_ROLE_BROADCASTER)
 574:Generated_Source\PSoC6\pdl\middleware\ble/cy_ble_gap.h **** extern cy_stc_ble_gapp_disc_mode_info_t cy_ble_discoveryModeInfo[CY_BLE_GAPP_CONF_COUNT];
 575:Generated_Source\PSoC6\pdl\middleware\ble/cy_ble_gap.h **** extern cy_stc_ble_gapp_disc_param_t cy_ble_discoveryParam[CY_BLE_GAPP_CONF_COUNT];
 576:Generated_Source\PSoC6\pdl\middleware\ble/cy_ble_gap.h **** extern cy_stc_ble_gapp_disc_data_t cy_ble_discoveryData[CY_BLE_GAPP_CONF_COUNT];
 577:Generated_Source\PSoC6\pdl\middleware\ble/cy_ble_gap.h **** extern cy_stc_ble_gapp_scan_rsp_data_t cy_ble_scanRspData[CY_BLE_GAPP_CONF_COUNT];
 578:Generated_Source\PSoC6\pdl\middleware\ble/cy_ble_gap.h **** #endif /* CY_BLE_GAP_ROLE_PERIPHERAL || CY_BLE_GAP_ROLE_BROADCASTER */
 579:Generated_Source\PSoC6\pdl\middleware\ble/cy_ble_gap.h **** 
 580:Generated_Source\PSoC6\pdl\middleware\ble/cy_ble_gap.h **** #if ((CY_BLE_GAP_ROLE_PERIPHERAL || CY_BLE_GAP_ROLE_CENTRAL) && (CY_BLE_BONDING_REQUIREMENT == CY_B
 581:Generated_Source\PSoC6\pdl\middleware\ble/cy_ble_gap.h **** 
 582:Generated_Source\PSoC6\pdl\middleware\ble/cy_ble_gap.h **** /**
 583:Generated_Source\PSoC6\pdl\middleware\ble/cy_ble_gap.h ****  * \addtogroup group_ble_common_api_global_variables
 584:Generated_Source\PSoC6\pdl\middleware\ble/cy_ble_gap.h ****  * @{
 585:Generated_Source\PSoC6\pdl\middleware\ble/cy_ble_gap.h ****  */  
 586:Generated_Source\PSoC6\pdl\middleware\ble/cy_ble_gap.h **** /** This is a two-bit variable that contains status of pending write to flash operation.
 587:Generated_Source\PSoC6\pdl\middleware\ble/cy_ble_gap.h ****  * This variable is initialized to zero in Cy_BLE_Init().
 588:Generated_Source\PSoC6\pdl\middleware\ble/cy_ble_gap.h ****  * CY_BLE_PENDING_CCCD_FLASH_WRITE_BIT flag is set after write to CCCD event when a
 589:Generated_Source\PSoC6\pdl\middleware\ble/cy_ble_gap.h ****  * peer device supports bonding (cy_ble_peerBonding[eventParam->connHandle.attId] == CY_BLE_GAP_BON
 590:Generated_Source\PSoC6\pdl\middleware\ble/cy_ble_gap.h ****  * CY_BLE_PENDING_STACK_FLASH_WRITE_BIT flag is set after CY_BLE_EVT_PENDING_FLASH_WRITE event.
 591:Generated_Source\PSoC6\pdl\middleware\ble/cy_ble_gap.h ****  * Cy_BLE_StoreBondingData() should be called to store pending bonding data.
 592:Generated_Source\PSoC6\pdl\middleware\ble/cy_ble_gap.h ****  * This function automatically clears pending bits after write operation is complete.
 593:Generated_Source\PSoC6\pdl\middleware\ble/cy_ble_gap.h ****  */
 594:Generated_Source\PSoC6\pdl\middleware\ble/cy_ble_gap.h **** extern uint8_t cy_ble_pendingFlashWrite;
 595:Generated_Source\PSoC6\pdl\middleware\ble/cy_ble_gap.h **** /** @} group_ble_common_api_global_variables */
 596:Generated_Source\PSoC6\pdl\middleware\ble/cy_ble_gap.h ****     
 597:Generated_Source\PSoC6\pdl\middleware\ble/cy_ble_gap.h **** /** Bonding type setting of peer device, CY_BLE_GAP_BONDING_NONE or CY_BLE_GAP_BONDING.
 598:Generated_Source\PSoC6\pdl\middleware\ble/cy_ble_gap.h ****  * It is initialized after pairing with peer device and used for cy_ble_pendingFlashWrite variable
 599:Generated_Source\PSoC6\pdl\middleware\ble/cy_ble_gap.h ****  * setting.
 600:Generated_Source\PSoC6\pdl\middleware\ble/cy_ble_gap.h ****  */
 601:Generated_Source\PSoC6\pdl\middleware\ble/cy_ble_gap.h **** extern uint8_t cy_ble_peerBonding[CY_BLE_CONN_COUNT];
 602:Generated_Source\PSoC6\pdl\middleware\ble/cy_ble_gap.h **** 
 603:Generated_Source\PSoC6\pdl\middleware\ble/cy_ble_gap.h **** #endif  /* (CY_BLE_BONDING_REQUIREMENT == CY_BLE_BONDING_YES) */
 604:Generated_Source\PSoC6\pdl\middleware\ble/cy_ble_gap.h **** 
 605:Generated_Source\PSoC6\pdl\middleware\ble/cy_ble_gap.h **** 
 606:Generated_Source\PSoC6\pdl\middleware\ble/cy_ble_gap.h **** /***************************************
 607:Generated_Source\PSoC6\pdl\middleware\ble/cy_ble_gap.h **** * Exported Functions (MACROS)
 608:Generated_Source\PSoC6\pdl\middleware\ble/cy_ble_gap.h **** ***************************************/
 609:Generated_Source\PSoC6\pdl\middleware\ble/cy_ble_gap.h **** #if ((CY_BLE_GAP_ROLE_PERIPHERAL || CY_BLE_GAP_ROLE_CENTRAL))
 610:Generated_Source\PSoC6\pdl\middleware\ble/cy_ble_gap.h ****    
 611:Generated_Source\PSoC6\pdl\middleware\ble/cy_ble_gap.h **** /******************************************************************************
ARM GAS  C:\Users\salaz\AppData\Local\Temp\ccj0QfQu.s 			page 30


 612:Generated_Source\PSoC6\pdl\middleware\ble/cy_ble_gap.h **** * Function Name: Cy_BLE_GetConnHandleIdx
 613:Generated_Source\PSoC6\pdl\middleware\ble/cy_ble_gap.h **** ***************************************************************************//**
 614:Generated_Source\PSoC6\pdl\middleware\ble/cy_ble_gap.h **** *
 615:Generated_Source\PSoC6\pdl\middleware\ble/cy_ble_gap.h **** *  This function searches the array of connection handles (cy_ble_connHandle[])
 616:Generated_Source\PSoC6\pdl\middleware\ble/cy_ble_gap.h **** *  for the location (index) of a handle that corresponds to the input parameter
 617:Generated_Source\PSoC6\pdl\middleware\ble/cy_ble_gap.h **** *  connHandle. bdHandle.
 618:Generated_Source\PSoC6\pdl\middleware\ble/cy_ble_gap.h **** *
 619:Generated_Source\PSoC6\pdl\middleware\ble/cy_ble_gap.h **** *  This function is designated for internal usage. 
 620:Generated_Source\PSoC6\pdl\middleware\ble/cy_ble_gap.h **** *    
 621:Generated_Source\PSoC6\pdl\middleware\ble/cy_ble_gap.h **** *  \param connHandle: The connection handle.
 622:Generated_Source\PSoC6\pdl\middleware\ble/cy_ble_gap.h **** *
 623:Generated_Source\PSoC6\pdl\middleware\ble/cy_ble_gap.h **** *  \return
 624:Generated_Source\PSoC6\pdl\middleware\ble/cy_ble_gap.h **** *  retValue: the index of connHandle  
 625:Generated_Source\PSoC6\pdl\middleware\ble/cy_ble_gap.h **** *    
 626:Generated_Source\PSoC6\pdl\middleware\ble/cy_ble_gap.h **** ******************************************************************************/
 627:Generated_Source\PSoC6\pdl\middleware\ble/cy_ble_gap.h **** __STATIC_INLINE uint8_t Cy_BLE_GetConnHandleIdx(cy_stc_ble_conn_handle_t connHandle)
 628:Generated_Source\PSoC6\pdl\middleware\ble/cy_ble_gap.h **** {
 629:Generated_Source\PSoC6\pdl\middleware\ble/cy_ble_gap.h ****     uint8_t idx;
 630:Generated_Source\PSoC6\pdl\middleware\ble/cy_ble_gap.h ****     uint8_t retValue = CY_BLE_CONN_COUNT;
 631:Generated_Source\PSoC6\pdl\middleware\ble/cy_ble_gap.h **** 
 632:Generated_Source\PSoC6\pdl\middleware\ble/cy_ble_gap.h ****     for(idx = 0u; idx < CY_BLE_CONN_COUNT; idx++)
 633:Generated_Source\PSoC6\pdl\middleware\ble/cy_ble_gap.h ****     {
 634:Generated_Source\PSoC6\pdl\middleware\ble/cy_ble_gap.h ****         if(cy_ble_connHandle[idx].bdHandle == connHandle.bdHandle)
 635:Generated_Source\PSoC6\pdl\middleware\ble/cy_ble_gap.h ****         {
 636:Generated_Source\PSoC6\pdl\middleware\ble/cy_ble_gap.h ****             retValue = idx;
 637:Generated_Source\PSoC6\pdl\middleware\ble/cy_ble_gap.h ****             break;
 638:Generated_Source\PSoC6\pdl\middleware\ble/cy_ble_gap.h ****         }
 639:Generated_Source\PSoC6\pdl\middleware\ble/cy_ble_gap.h ****     }
 640:Generated_Source\PSoC6\pdl\middleware\ble/cy_ble_gap.h ****     if(retValue == CY_BLE_CONN_COUNT)
 641:Generated_Source\PSoC6\pdl\middleware\ble/cy_ble_gap.h ****     {
 642:Generated_Source\PSoC6\pdl\middleware\ble/cy_ble_gap.h ****         /* HALT in debug mode */
 643:Generated_Source\PSoC6\pdl\middleware\ble/cy_ble_gap.h ****         CY_ASSERT(retValue != CY_BLE_CONN_COUNT);
 644:Generated_Source\PSoC6\pdl\middleware\ble/cy_ble_gap.h ****         retValue = 0u;
 645:Generated_Source\PSoC6\pdl\middleware\ble/cy_ble_gap.h ****     }
 646:Generated_Source\PSoC6\pdl\middleware\ble/cy_ble_gap.h **** 
 647:Generated_Source\PSoC6\pdl\middleware\ble/cy_ble_gap.h ****     return(retValue);
 648:Generated_Source\PSoC6\pdl\middleware\ble/cy_ble_gap.h **** }
 649:Generated_Source\PSoC6\pdl\middleware\ble/cy_ble_gap.h **** #endif  /* ((CY_BLE_GAP_ROLE_PERIPHERAL || CY_BLE_GAP_ROLE_CENTRAL)) */
 650:Generated_Source\PSoC6\pdl\middleware\ble/cy_ble_gap.h **** 
 651:Generated_Source\PSoC6\pdl\middleware\ble/cy_ble_gap.h **** /**
 652:Generated_Source\PSoC6\pdl\middleware\ble/cy_ble_gap.h ****  * \addtogroup group_ble_common_api_functions
 653:Generated_Source\PSoC6\pdl\middleware\ble/cy_ble_gap.h ****  * @{
 654:Generated_Source\PSoC6\pdl\middleware\ble/cy_ble_gap.h **** */
 655:Generated_Source\PSoC6\pdl\middleware\ble/cy_ble_gap.h **** /******************************************************************************
 656:Generated_Source\PSoC6\pdl\middleware\ble/cy_ble_gap.h **** * Function Name: Cy_BLE_GetState
 657:Generated_Source\PSoC6\pdl\middleware\ble/cy_ble_gap.h **** ***************************************************************************//**
 658:Generated_Source\PSoC6\pdl\middleware\ble/cy_ble_gap.h **** *
 659:Generated_Source\PSoC6\pdl\middleware\ble/cy_ble_gap.h **** *  This function is used to determine the current state of the BLE Middleware
 660:Generated_Source\PSoC6\pdl\middleware\ble/cy_ble_gap.h **** *  state machine :
 661:Generated_Source\PSoC6\pdl\middleware\ble/cy_ble_gap.h **** *
 662:Generated_Source\PSoC6\pdl\middleware\ble/cy_ble_gap.h **** *  \image html ble_middleware_state_machine.png
 663:Generated_Source\PSoC6\pdl\middleware\ble/cy_ble_gap.h **** *
 664:Generated_Source\PSoC6\pdl\middleware\ble/cy_ble_gap.h **** *  The BLE Middleware is in the state #CY_BLE_STATE_INITIALIZING after the 
 665:Generated_Source\PSoC6\pdl\middleware\ble/cy_ble_gap.h **** *  Cy_BLE_Enable() is called and until the #CY_BLE_EVT_STACK_ON event is not 
 666:Generated_Source\PSoC6\pdl\middleware\ble/cy_ble_gap.h **** *  received. After successful initialization the state is changed to 
 667:Generated_Source\PSoC6\pdl\middleware\ble/cy_ble_gap.h **** *  #CY_BLE_STATE_ON.
 668:Generated_Source\PSoC6\pdl\middleware\ble/cy_ble_gap.h **** *
ARM GAS  C:\Users\salaz\AppData\Local\Temp\ccj0QfQu.s 			page 31


 669:Generated_Source\PSoC6\pdl\middleware\ble/cy_ble_gap.h **** *  The BLE Middleware is in the state #CY_BLE_STATE_STOPPED 
 670:Generated_Source\PSoC6\pdl\middleware\ble/cy_ble_gap.h **** *  when the #CY_BLE_EVT_STACK_SHUTDOWN_COMPLETE event is received (after the 
 671:Generated_Source\PSoC6\pdl\middleware\ble/cy_ble_gap.h **** *  Cy_BLE_Disable() is called).
 672:Generated_Source\PSoC6\pdl\middleware\ble/cy_ble_gap.h **** *  
 673:Generated_Source\PSoC6\pdl\middleware\ble/cy_ble_gap.h **** *  For GAP Central role when the Cy_BLE_GAPC_ConnectDevice() is called, the state
 674:Generated_Source\PSoC6\pdl\middleware\ble/cy_ble_gap.h **** *  is changed to #CY_BLE_STATE_CONNECTING. After successful connection indicated
 675:Generated_Source\PSoC6\pdl\middleware\ble/cy_ble_gap.h **** *  by #CY_BLE_EVT_GAP_DEVICE_CONNECTED or #CY_BLE_EVT_GAP_ENHANCE_CONN_COMPLETE
 676:Generated_Source\PSoC6\pdl\middleware\ble/cy_ble_gap.h **** *  event or the timeout indicated by #CY_BLE_EVT_TIMEOUT event, the state is
 677:Generated_Source\PSoC6\pdl\middleware\ble/cy_ble_gap.h **** *  changed to #CY_BLE_STATE_ON.
 678:Generated_Source\PSoC6\pdl\middleware\ble/cy_ble_gap.h **** *
 679:Generated_Source\PSoC6\pdl\middleware\ble/cy_ble_gap.h **** * \return
 680:Generated_Source\PSoC6\pdl\middleware\ble/cy_ble_gap.h **** * \ref cy_en_ble_state_t : The current BLE Middleware state. The following are 
 681:Generated_Source\PSoC6\pdl\middleware\ble/cy_ble_gap.h **** *                         possible states:
 682:Generated_Source\PSoC6\pdl\middleware\ble/cy_ble_gap.h **** *
 683:Generated_Source\PSoC6\pdl\middleware\ble/cy_ble_gap.h **** *   State                      | Description
 684:Generated_Source\PSoC6\pdl\middleware\ble/cy_ble_gap.h **** *   -------------------------- | -----------
 685:Generated_Source\PSoC6\pdl\middleware\ble/cy_ble_gap.h **** *   CY_BLE_STATE_STOPPED       | BLE is turned off.
 686:Generated_Source\PSoC6\pdl\middleware\ble/cy_ble_gap.h **** *   CY_BLE_STATE_INITIALIZING  | BLE is initializing (waiting for #CY_BLE_EVT_STACK_ON event).
 687:Generated_Source\PSoC6\pdl\middleware\ble/cy_ble_gap.h **** *   CY_BLE_STATE_ON            | BLE is turned on.
 688:Generated_Source\PSoC6\pdl\middleware\ble/cy_ble_gap.h **** *   CY_BLE_STATE_CONNECTING    | BLE is connecting.
 689:Generated_Source\PSoC6\pdl\middleware\ble/cy_ble_gap.h **** 
 690:Generated_Source\PSoC6\pdl\middleware\ble/cy_ble_gap.h **** ******************************************************************************/
 691:Generated_Source\PSoC6\pdl\middleware\ble/cy_ble_gap.h **** #define Cy_BLE_GetState()    (cy_ble_state)
 692:Generated_Source\PSoC6\pdl\middleware\ble/cy_ble_gap.h **** 
 693:Generated_Source\PSoC6\pdl\middleware\ble/cy_ble_gap.h **** /** \cond IGNORE */
 694:Generated_Source\PSoC6\pdl\middleware\ble/cy_ble_gap.h **** /******************************************************************************
 695:Generated_Source\PSoC6\pdl\middleware\ble/cy_ble_gap.h **** * Function Name: Cy_BLE_SetState
 696:Generated_Source\PSoC6\pdl\middleware\ble/cy_ble_gap.h **** ***************************************************************************//**
 697:Generated_Source\PSoC6\pdl\middleware\ble/cy_ble_gap.h **** *
 698:Generated_Source\PSoC6\pdl\middleware\ble/cy_ble_gap.h **** *  Used to set the BLE Middleware state machine's state.
 699:Generated_Source\PSoC6\pdl\middleware\ble/cy_ble_gap.h **** *
 700:Generated_Source\PSoC6\pdl\middleware\ble/cy_ble_gap.h **** *  \param state: The desired state to which the event handler's
 701:Generated_Source\PSoC6\pdl\middleware\ble/cy_ble_gap.h **** *   state machine should be set. The parameter state is a variable
 702:Generated_Source\PSoC6\pdl\middleware\ble/cy_ble_gap.h **** *   of type cy_en_ble_state_t.
 703:Generated_Source\PSoC6\pdl\middleware\ble/cy_ble_gap.h **** *
 704:Generated_Source\PSoC6\pdl\middleware\ble/cy_ble_gap.h **** * \return
 705:Generated_Source\PSoC6\pdl\middleware\ble/cy_ble_gap.h **** *  None
 706:Generated_Source\PSoC6\pdl\middleware\ble/cy_ble_gap.h **** *
 707:Generated_Source\PSoC6\pdl\middleware\ble/cy_ble_gap.h **** ******************************************************************************/
 708:Generated_Source\PSoC6\pdl\middleware\ble/cy_ble_gap.h **** #define Cy_BLE_SetState(state)    (cy_ble_state = (state))
 709:Generated_Source\PSoC6\pdl\middleware\ble/cy_ble_gap.h **** /** \endcond */
 710:Generated_Source\PSoC6\pdl\middleware\ble/cy_ble_gap.h **** 
 711:Generated_Source\PSoC6\pdl\middleware\ble/cy_ble_gap.h **** #if (CY_BLE_GAP_ROLE_PERIPHERAL || CY_BLE_GAP_ROLE_BROADCASTER)
 712:Generated_Source\PSoC6\pdl\middleware\ble/cy_ble_gap.h **** 
 713:Generated_Source\PSoC6\pdl\middleware\ble/cy_ble_gap.h **** 
 714:Generated_Source\PSoC6\pdl\middleware\ble/cy_ble_gap.h **** /******************************************************************************
 715:Generated_Source\PSoC6\pdl\middleware\ble/cy_ble_gap.h **** * Function Name: Cy_BLE_GetAdvertisementState
 716:Generated_Source\PSoC6\pdl\middleware\ble/cy_ble_gap.h **** ***************************************************************************//**
 717:Generated_Source\PSoC6\pdl\middleware\ble/cy_ble_gap.h **** *    
 718:Generated_Source\PSoC6\pdl\middleware\ble/cy_ble_gap.h **** *  This function returns the state of the link layer hardware advertisement
 719:Generated_Source\PSoC6\pdl\middleware\ble/cy_ble_gap.h **** *  engine.
 720:Generated_Source\PSoC6\pdl\middleware\ble/cy_ble_gap.h **** *
 721:Generated_Source\PSoC6\pdl\middleware\ble/cy_ble_gap.h **** *  \image html ble_advertisement_state_machine.png
 722:Generated_Source\PSoC6\pdl\middleware\ble/cy_ble_gap.h **** *
 723:Generated_Source\PSoC6\pdl\middleware\ble/cy_ble_gap.h **** *  When Cy_BLE_GAPP_StartAdvertisement() is called, the state is set to
 724:Generated_Source\PSoC6\pdl\middleware\ble/cy_ble_gap.h **** *  #CY_BLE_ADV_STATE_ADV_INITIATED. It automatically changes to
 725:Generated_Source\PSoC6\pdl\middleware\ble/cy_ble_gap.h **** *  #CY_BLE_ADV_STATE_ADVERTISING when #CY_BLE_EVT_GAPP_ADVERTISEMENT_START_STOP
ARM GAS  C:\Users\salaz\AppData\Local\Temp\ccj0QfQu.s 			page 32


 726:Generated_Source\PSoC6\pdl\middleware\ble/cy_ble_gap.h **** *  event is received. When Cy_BLE_GAPP_StopAdvertisement() is called, the
 727:Generated_Source\PSoC6\pdl\middleware\ble/cy_ble_gap.h **** *  state is set to #CY_BLE_ADV_STATE_STOP_INITIATED. It automatically changes
 728:Generated_Source\PSoC6\pdl\middleware\ble/cy_ble_gap.h **** *  to #CY_BLE_ADV_STATE_STOPPED when the #CY_BLE_EVT_GAPP_ADVERTISEMENT_START_STOP
 729:Generated_Source\PSoC6\pdl\middleware\ble/cy_ble_gap.h **** *  event is received.
 730:Generated_Source\PSoC6\pdl\middleware\ble/cy_ble_gap.h **** *
 731:Generated_Source\PSoC6\pdl\middleware\ble/cy_ble_gap.h **** * \return
 732:Generated_Source\PSoC6\pdl\middleware\ble/cy_ble_gap.h **** * \ref cy_en_ble_adv_state_t :The current advertising state. The following are 
 733:Generated_Source\PSoC6\pdl\middleware\ble/cy_ble_gap.h **** *                              possible states.
 734:Generated_Source\PSoC6\pdl\middleware\ble/cy_ble_gap.h **** *
 735:Generated_Source\PSoC6\pdl\middleware\ble/cy_ble_gap.h **** *               State                |         Description
 736:Generated_Source\PSoC6\pdl\middleware\ble/cy_ble_gap.h **** *   -------------------------------- | -----------------------------
 737:Generated_Source\PSoC6\pdl\middleware\ble/cy_ble_gap.h **** *   CY_BLE_ADV_STATE_STOPPED         | Advertising is stopped.
 738:Generated_Source\PSoC6\pdl\middleware\ble/cy_ble_gap.h **** *   CY_BLE_ADV_STATE_ADV_INITIATED   | Advertising is initiated.
 739:Generated_Source\PSoC6\pdl\middleware\ble/cy_ble_gap.h **** *   CY_BLE_ADV_STATE_ADVERTISING     | Advertising is initiated.
 740:Generated_Source\PSoC6\pdl\middleware\ble/cy_ble_gap.h **** *   CY_BLE_ADV_STATE_STOP_INITIATED  | Stop advertising is initiated.
 741:Generated_Source\PSoC6\pdl\middleware\ble/cy_ble_gap.h **** *
 742:Generated_Source\PSoC6\pdl\middleware\ble/cy_ble_gap.h **** ******************************************************************************/
 743:Generated_Source\PSoC6\pdl\middleware\ble/cy_ble_gap.h **** __STATIC_INLINE cy_en_ble_adv_state_t Cy_BLE_GetAdvertisementState(void)
 744:Generated_Source\PSoC6\pdl\middleware\ble/cy_ble_gap.h **** {
 745:Generated_Source\PSoC6\pdl\middleware\ble/cy_ble_gap.h ****     return(cy_ble_advState);
 746:Generated_Source\PSoC6\pdl\middleware\ble/cy_ble_gap.h **** }
 747:Generated_Source\PSoC6\pdl\middleware\ble/cy_ble_gap.h **** 
 748:Generated_Source\PSoC6\pdl\middleware\ble/cy_ble_gap.h **** /** \cond IGNORE */
 749:Generated_Source\PSoC6\pdl\middleware\ble/cy_ble_gap.h **** /******************************************************************************
 750:Generated_Source\PSoC6\pdl\middleware\ble/cy_ble_gap.h **** * Function Name: Cy_BLE_SetAdvertisementState
 751:Generated_Source\PSoC6\pdl\middleware\ble/cy_ble_gap.h **** ***************************************************************************//**
 752:Generated_Source\PSoC6\pdl\middleware\ble/cy_ble_gap.h **** *
 753:Generated_Source\PSoC6\pdl\middleware\ble/cy_ble_gap.h **** *  Used to set the state of the link layer hardware advertisement engine.
 754:Generated_Source\PSoC6\pdl\middleware\ble/cy_ble_gap.h **** *
 755:Generated_Source\PSoC6\pdl\middleware\ble/cy_ble_gap.h **** *  \param state: The desired state.
 756:Generated_Source\PSoC6\pdl\middleware\ble/cy_ble_gap.h **** *
 757:Generated_Source\PSoC6\pdl\middleware\ble/cy_ble_gap.h **** * \return
 758:Generated_Source\PSoC6\pdl\middleware\ble/cy_ble_gap.h **** *  None
 759:Generated_Source\PSoC6\pdl\middleware\ble/cy_ble_gap.h **** *
 760:Generated_Source\PSoC6\pdl\middleware\ble/cy_ble_gap.h **** ******************************************************************************/
 761:Generated_Source\PSoC6\pdl\middleware\ble/cy_ble_gap.h **** __STATIC_INLINE void Cy_BLE_SetAdvertisementState(cy_en_ble_adv_state_t state)
 762:Generated_Source\PSoC6\pdl\middleware\ble/cy_ble_gap.h **** {
 763:Generated_Source\PSoC6\pdl\middleware\ble/cy_ble_gap.h ****     cy_ble_advState = state;
 634              		.loc 2 763 0
 635 01ae 724A     		ldr	r2, .L106+120
 636 01b0 1370     		strb	r3, [r2]
 637              	.LVL56:
 638              	.LBE91:
 639              	.LBE90:
 376:Generated_Source\PSoC6\pdl\middleware\ble/cy_ble_event_handler.c **** 
 377:Generated_Source\PSoC6\pdl\middleware\ble/cy_ble_event_handler.c ****         #if (CY_BLE_GAP_ROLE_PERIPHERAL || CY_BLE_GAP_ROLE_BROADCASTER)
 378:Generated_Source\PSoC6\pdl\middleware\ble/cy_ble_event_handler.c ****             Cy_BLE_SetAdvertisementState(CY_BLE_ADV_STATE_STOPPED);
 379:Generated_Source\PSoC6\pdl\middleware\ble/cy_ble_event_handler.c ****         #endif  /* (CY_BLE_GAP_ROLE_PERIPHERAL || CY_BLE_GAP_ROLE_BROADCASTER) */
 380:Generated_Source\PSoC6\pdl\middleware\ble/cy_ble_event_handler.c **** 
 381:Generated_Source\PSoC6\pdl\middleware\ble/cy_ble_event_handler.c ****         #if (CY_BLE_GAP_ROLE_CENTRAL || CY_BLE_GAP_ROLE_OBSERVER)
 382:Generated_Source\PSoC6\pdl\middleware\ble/cy_ble_event_handler.c ****             Cy_BLE_SetScanState(CY_BLE_SCAN_STATE_STOPPED);
 383:Generated_Source\PSoC6\pdl\middleware\ble/cy_ble_event_handler.c ****         #endif /* (CY_BLE_GAP_ROLE_CENTRAL || CY_BLE_GAP_ROLE_OBSERVER) */
 384:Generated_Source\PSoC6\pdl\middleware\ble/cy_ble_event_handler.c ****             
 385:Generated_Source\PSoC6\pdl\middleware\ble/cy_ble_event_handler.c ****             /**
 386:Generated_Source\PSoC6\pdl\middleware\ble/cy_ble_event_handler.c ****              * Adding a delay of 10ms to ensure that the controller is completely 
 387:Generated_Source\PSoC6\pdl\middleware\ble/cy_ble_event_handler.c ****              * shut-down before generating the event to the application.
 388:Generated_Source\PSoC6\pdl\middleware\ble/cy_ble_event_handler.c ****              * Controller generates CY_BLE_EVT_STACK_SHUTDOWN_COMPLETE event immediately 
ARM GAS  C:\Users\salaz\AppData\Local\Temp\ccj0QfQu.s 			page 33


 389:Generated_Source\PSoC6\pdl\middleware\ble/cy_ble_event_handler.c ****              * after accepting the shut-down command (before resetting the controller), 
 390:Generated_Source\PSoC6\pdl\middleware\ble/cy_ble_event_handler.c ****              * once this behaviour is fixed, this delay will no longer be required 
 391:Generated_Source\PSoC6\pdl\middleware\ble/cy_ble_event_handler.c ****              */
 392:Generated_Source\PSoC6\pdl\middleware\ble/cy_ble_event_handler.c ****             #if(CY_BLE_STACK_MODE_HOST_IPC)
 393:Generated_Source\PSoC6\pdl\middleware\ble/cy_ble_event_handler.c ****                 Cy_SysLib_Delay(10u);
 394:Generated_Source\PSoC6\pdl\middleware\ble/cy_ble_event_handler.c ****             #endif /* CY_BLE_STACK_MODE_HOST_IPC */   
 395:Generated_Source\PSoC6\pdl\middleware\ble/cy_ble_event_handler.c ****             
 396:Generated_Source\PSoC6\pdl\middleware\ble/cy_ble_event_handler.c ****             /* Unregister BLE callback for Deepsleep/Sleep */
 397:Generated_Source\PSoC6\pdl\middleware\ble/cy_ble_event_handler.c ****             Cy_BLE_UnregisterHostPMCallbacks();
 640              		.loc 1 397 0
 641 01b2 FFF7FEFF 		bl	Cy_BLE_UnregisterHostPMCallbacks
 642              	.LVL57:
 398:Generated_Source\PSoC6\pdl\middleware\ble/cy_ble_event_handler.c ****             break;
 643              		.loc 1 398 0
 644 01b6 C0E2     		b	.L31
 645              	.LVL58:
 646              	.L34:
 399:Generated_Source\PSoC6\pdl\middleware\ble/cy_ble_event_handler.c **** 
 400:Generated_Source\PSoC6\pdl\middleware\ble/cy_ble_event_handler.c ****         case CY_BLE_EVT_LE_SET_EVENT_MASK_COMPLETE:
 401:Generated_Source\PSoC6\pdl\middleware\ble/cy_ble_event_handler.c ****         #if (CY_BLE_MODE_PROFILE)
 402:Generated_Source\PSoC6\pdl\middleware\ble/cy_ble_event_handler.c ****             {
 403:Generated_Source\PSoC6\pdl\middleware\ble/cy_ble_event_handler.c ****                 if((cy_ble_cmdStatus & CY_BLE_STATUS_SET_TX_PWR_LVL) == 0u)
 647              		.loc 1 403 0
 648 01b8 704B     		ldr	r3, .L106+124
 649 01ba 1B68     		ldr	r3, [r3]
 650 01bc DB07     		lsls	r3, r3, #31
 651 01be 00D5     		bpl	.LCB622
 652 01c0 BBE2     		b	.L31	@long jump
 653              	.LCB622:
 654              	.LBB92:
 404:Generated_Source\PSoC6\pdl\middleware\ble/cy_ble_event_handler.c ****                 {
 405:Generated_Source\PSoC6\pdl\middleware\ble/cy_ble_event_handler.c ****                     cy_stc_ble_tx_pwr_lvl_info_t bleSsPowerLevel = { .pwrConfigParam.bdHandle = 0x0
 655              		.loc 1 405 0
 656 01c2 05AE     		add	r6, sp, #20
 657 01c4 0322     		movs	r2, #3
 658 01c6 0021     		movs	r1, #0
 659 01c8 3000     		movs	r0, r6
 660              	.LVL59:
 661 01ca FFF7FEFF 		bl	memset
 662              	.LVL60:
 406:Generated_Source\PSoC6\pdl\middleware\ble/cy_ble_event_handler.c **** 
 407:Generated_Source\PSoC6\pdl\middleware\ble/cy_ble_event_handler.c ****                     /* Set the Tx Power Level for advertising and connection channels */
 408:Generated_Source\PSoC6\pdl\middleware\ble/cy_ble_event_handler.c ****                     bleSsPowerLevel.blePwrLevel = cy_ble_configPtr->params->txPowerLevelAdv;
 663              		.loc 1 408 0
 664 01ce 644F     		ldr	r7, .L106+96
 665 01d0 3B68     		ldr	r3, [r7]
 666 01d2 9B6A     		ldr	r3, [r3, #40]
 667 01d4 1B78     		ldrb	r3, [r3]
 668 01d6 5BB2     		sxtb	r3, r3
 669 01d8 3370     		strb	r3, [r6]
 409:Generated_Source\PSoC6\pdl\middleware\ble/cy_ble_event_handler.c ****                     bleSsPowerLevel.pwrConfigParam.bleSsChId = CY_BLE_LL_ADV_CH_TYPE;
 410:Generated_Source\PSoC6\pdl\middleware\ble/cy_ble_event_handler.c ****                     (void)Cy_BLE_SetTxPowerLevel(&bleSsPowerLevel);
 670              		.loc 1 410 0
 671 01da 3000     		movs	r0, r6
 672 01dc FFF7FEFF 		bl	Cy_BLE_SetTxPowerLevel
 673              	.LVL61:
 411:Generated_Source\PSoC6\pdl\middleware\ble/cy_ble_event_handler.c **** 
ARM GAS  C:\Users\salaz\AppData\Local\Temp\ccj0QfQu.s 			page 34


 412:Generated_Source\PSoC6\pdl\middleware\ble/cy_ble_event_handler.c ****                     bleSsPowerLevel.blePwrLevel = cy_ble_configPtr->params->txPowerLevelConn;
 674              		.loc 1 412 0
 675 01e0 3B68     		ldr	r3, [r7]
 676 01e2 9B6A     		ldr	r3, [r3, #40]
 677 01e4 5B78     		ldrb	r3, [r3, #1]
 678 01e6 5BB2     		sxtb	r3, r3
 679 01e8 3370     		strb	r3, [r6]
 413:Generated_Source\PSoC6\pdl\middleware\ble/cy_ble_event_handler.c ****                     bleSsPowerLevel.pwrConfigParam.bleSsChId = CY_BLE_LL_CONN_CH_TYPE;
 680              		.loc 1 413 0
 681 01ea 0127     		movs	r7, #1
 682 01ec 7770     		strb	r7, [r6, #1]
 414:Generated_Source\PSoC6\pdl\middleware\ble/cy_ble_event_handler.c ****                     bleSsPowerLevel.pwrConfigParam.bdHandle = 0xFFu; /* Set the tx power level valu
 683              		.loc 1 414 0
 684 01ee FF23     		movs	r3, #255
 685 01f0 B370     		strb	r3, [r6, #2]
 415:Generated_Source\PSoC6\pdl\middleware\ble/cy_ble_event_handler.c ****                     (void)Cy_BLE_SetTxPowerLevel(&bleSsPowerLevel);
 686              		.loc 1 415 0
 687 01f2 3000     		movs	r0, r6
 688 01f4 FFF7FEFF 		bl	Cy_BLE_SetTxPowerLevel
 689              	.LVL62:
 416:Generated_Source\PSoC6\pdl\middleware\ble/cy_ble_event_handler.c ****                     
 417:Generated_Source\PSoC6\pdl\middleware\ble/cy_ble_event_handler.c ****                     /* Set flag that executed Cy_BLE_SetTxPowerLevel during BLE start-up  */
 418:Generated_Source\PSoC6\pdl\middleware\ble/cy_ble_event_handler.c ****                     cy_ble_cmdStatus |= CY_BLE_STATUS_SET_TX_PWR_LVL;
 690              		.loc 1 418 0
 691 01f8 604B     		ldr	r3, .L106+124
 692 01fa 1A68     		ldr	r2, [r3]
 693 01fc 1743     		orrs	r7, r2
 694 01fe 1F60     		str	r7, [r3]
 695 0200 9BE2     		b	.L31
 696              	.LVL63:
 697              	.L39:
 698              	.LBE92:
 419:Generated_Source\PSoC6\pdl\middleware\ble/cy_ble_event_handler.c ****                 }
 420:Generated_Source\PSoC6\pdl\middleware\ble/cy_ble_event_handler.c ****             }
 421:Generated_Source\PSoC6\pdl\middleware\ble/cy_ble_event_handler.c ****         #endif /* CY_BLE_MODE_PROFILE */
 422:Generated_Source\PSoC6\pdl\middleware\ble/cy_ble_event_handler.c ****             break;
 423:Generated_Source\PSoC6\pdl\middleware\ble/cy_ble_event_handler.c ****             
 424:Generated_Source\PSoC6\pdl\middleware\ble/cy_ble_event_handler.c ****         case CY_BLE_EVT_TIMEOUT:
 425:Generated_Source\PSoC6\pdl\middleware\ble/cy_ble_event_handler.c ****             Cy_BLE_TimeOutEventHandler((cy_stc_ble_timeout_param_t*)evParam);
 426:Generated_Source\PSoC6\pdl\middleware\ble/cy_ble_event_handler.c ****         #if (CY_BLE_GAP_ROLE_PERIPHERAL || CY_BLE_GAP_ROLE_CENTRAL)
 427:Generated_Source\PSoC6\pdl\middleware\ble/cy_ble_event_handler.c ****             (void)Cy_BLE_InvokeServiceEventHandler((uint32_t)event, (void*)evParam);
 699              		.loc 1 427 0
 700 0202 2900     		movs	r1, r5
 701 0204 FFF7FEFF 		bl	Cy_BLE_InvokeServiceEventHandler
 702              	.LVL64:
 428:Generated_Source\PSoC6\pdl\middleware\ble/cy_ble_event_handler.c ****         #endif /*(CY_BLE_GAP_ROLE_PERIPHERAL || CY_BLE_GAP_ROLE_CENTRAL)*/
 429:Generated_Source\PSoC6\pdl\middleware\ble/cy_ble_event_handler.c ****             break;
 703              		.loc 1 429 0
 704 0208 97E2     		b	.L31
 705              	.LVL65:
 706              	.L36:
 430:Generated_Source\PSoC6\pdl\middleware\ble/cy_ble_event_handler.c **** 
 431:Generated_Source\PSoC6\pdl\middleware\ble/cy_ble_event_handler.c ****         case CY_BLE_EVT_STACK_BUSY_STATUS:
 432:Generated_Source\PSoC6\pdl\middleware\ble/cy_ble_event_handler.c ****         #if (CY_BLE_GAP_ROLE_PERIPHERAL || CY_BLE_GAP_ROLE_CENTRAL)
 433:Generated_Source\PSoC6\pdl\middleware\ble/cy_ble_event_handler.c ****             cy_ble_busyStatus[Cy_BLE_GetConnHandleByBdHandle(((cy_stc_ble_l2cap_state_info_t*)evPar
 707              		.loc 1 433 0
 708 020a 6B78     		ldrb	r3, [r5, #1]
ARM GAS  C:\Users\salaz\AppData\Local\Temp\ccj0QfQu.s 			page 35


 709 020c 9846     		mov	r8, r3
 710              	.LVL66:
 711              	.LBB93:
 712              	.LBB94:
 764:Generated_Source\PSoC6\pdl\middleware\ble/cy_ble_gap.h **** }
 765:Generated_Source\PSoC6\pdl\middleware\ble/cy_ble_gap.h **** /** \endcond */
 766:Generated_Source\PSoC6\pdl\middleware\ble/cy_ble_gap.h **** 
 767:Generated_Source\PSoC6\pdl\middleware\ble/cy_ble_gap.h **** #endif /* (CY_BLE_GAP_ROLE_PERIPHERAL || CY_BLE_GAP_ROLE_BROADCASTER) */
 768:Generated_Source\PSoC6\pdl\middleware\ble/cy_ble_gap.h **** 
 769:Generated_Source\PSoC6\pdl\middleware\ble/cy_ble_gap.h **** #if (CY_BLE_GAP_ROLE_CENTRAL || CY_BLE_GAP_ROLE_OBSERVER)
 770:Generated_Source\PSoC6\pdl\middleware\ble/cy_ble_gap.h **** 
 771:Generated_Source\PSoC6\pdl\middleware\ble/cy_ble_gap.h **** /******************************************************************************
 772:Generated_Source\PSoC6\pdl\middleware\ble/cy_ble_gap.h **** * Function Name: Cy_BLE_GetScanState
 773:Generated_Source\PSoC6\pdl\middleware\ble/cy_ble_gap.h **** ***************************************************************************//**
 774:Generated_Source\PSoC6\pdl\middleware\ble/cy_ble_gap.h **** *    
 775:Generated_Source\PSoC6\pdl\middleware\ble/cy_ble_gap.h **** *  This returns the state of the link layer hardware scan engine.
 776:Generated_Source\PSoC6\pdl\middleware\ble/cy_ble_gap.h **** *
 777:Generated_Source\PSoC6\pdl\middleware\ble/cy_ble_gap.h **** *  \image html ble_scanning_state_machine.png
 778:Generated_Source\PSoC6\pdl\middleware\ble/cy_ble_gap.h **** *   
 779:Generated_Source\PSoC6\pdl\middleware\ble/cy_ble_gap.h **** *  When Cy_BLE_GAPC_StartScan() is called the state is set to
 780:Generated_Source\PSoC6\pdl\middleware\ble/cy_ble_gap.h **** *  #CY_BLE_SCAN_STATE_SCAN_INITIATED. It automatically changes to
 781:Generated_Source\PSoC6\pdl\middleware\ble/cy_ble_gap.h **** *  #CY_BLE_SCAN_STATE_SCANNING when the #CY_BLE_EVT_GAPC_SCAN_START_STOP event is
 782:Generated_Source\PSoC6\pdl\middleware\ble/cy_ble_gap.h **** *  received. 
 783:Generated_Source\PSoC6\pdl\middleware\ble/cy_ble_gap.h **** *  When Cy_BLE_GAPC_StopScan() is called, the state is set to
 784:Generated_Source\PSoC6\pdl\middleware\ble/cy_ble_gap.h **** *  #CY_BLE_SCAN_STATE_STOP_INITIATED. It automatically changes to
 785:Generated_Source\PSoC6\pdl\middleware\ble/cy_ble_gap.h **** *  #CY_BLE_SCAN_STATE_STOPPED when the #CY_BLE_EVT_GAPC_SCAN_START_STOP event is
 786:Generated_Source\PSoC6\pdl\middleware\ble/cy_ble_gap.h **** *  received.
 787:Generated_Source\PSoC6\pdl\middleware\ble/cy_ble_gap.h **** *
 788:Generated_Source\PSoC6\pdl\middleware\ble/cy_ble_gap.h **** *  \return
 789:Generated_Source\PSoC6\pdl\middleware\ble/cy_ble_gap.h **** *  \ref cy_en_ble_scan_state_t : The current scan state. The following are 
 790:Generated_Source\PSoC6\pdl\middleware\ble/cy_ble_gap.h **** *                                possible states.
 791:Generated_Source\PSoC6\pdl\middleware\ble/cy_ble_gap.h **** *
 792:Generated_Source\PSoC6\pdl\middleware\ble/cy_ble_gap.h **** *               State                |         Description
 793:Generated_Source\PSoC6\pdl\middleware\ble/cy_ble_gap.h **** *   -------------------------------- | -----------------------------
 794:Generated_Source\PSoC6\pdl\middleware\ble/cy_ble_gap.h **** *   CY_BLE_SCAN_STATE_STOPPED        | Scanning is stopped.
 795:Generated_Source\PSoC6\pdl\middleware\ble/cy_ble_gap.h **** *   CY_BLE_SCAN_STATE_SCAN_INITIATED | Scanning is initiated.
 796:Generated_Source\PSoC6\pdl\middleware\ble/cy_ble_gap.h **** *   CY_BLE_SCAN_STATE_SCANNING       | Scanning process.
 797:Generated_Source\PSoC6\pdl\middleware\ble/cy_ble_gap.h **** *   CY_BLE_SCAN_STATE_STOP_INITIATED | Stop scanning is initiated.
 798:Generated_Source\PSoC6\pdl\middleware\ble/cy_ble_gap.h **** *
 799:Generated_Source\PSoC6\pdl\middleware\ble/cy_ble_gap.h **** ******************************************************************************/
 800:Generated_Source\PSoC6\pdl\middleware\ble/cy_ble_gap.h **** __STATIC_INLINE cy_en_ble_scan_state_t Cy_BLE_GetScanState(void)
 801:Generated_Source\PSoC6\pdl\middleware\ble/cy_ble_gap.h **** {
 802:Generated_Source\PSoC6\pdl\middleware\ble/cy_ble_gap.h ****     return(cy_ble_scanState);
 803:Generated_Source\PSoC6\pdl\middleware\ble/cy_ble_gap.h **** }
 804:Generated_Source\PSoC6\pdl\middleware\ble/cy_ble_gap.h **** 
 805:Generated_Source\PSoC6\pdl\middleware\ble/cy_ble_gap.h **** /** \cond IGNORE */
 806:Generated_Source\PSoC6\pdl\middleware\ble/cy_ble_gap.h **** /******************************************************************************
 807:Generated_Source\PSoC6\pdl\middleware\ble/cy_ble_gap.h **** * Function Name: Cy_BLE_SetScanState
 808:Generated_Source\PSoC6\pdl\middleware\ble/cy_ble_gap.h **** ***************************************************************************//**
 809:Generated_Source\PSoC6\pdl\middleware\ble/cy_ble_gap.h **** *
 810:Generated_Source\PSoC6\pdl\middleware\ble/cy_ble_gap.h **** *  Used to set the state of the link layer hardware scan engine.
 811:Generated_Source\PSoC6\pdl\middleware\ble/cy_ble_gap.h **** *
 812:Generated_Source\PSoC6\pdl\middleware\ble/cy_ble_gap.h **** *  \param state: The desired state.
 813:Generated_Source\PSoC6\pdl\middleware\ble/cy_ble_gap.h **** *
 814:Generated_Source\PSoC6\pdl\middleware\ble/cy_ble_gap.h **** *  \return
 815:Generated_Source\PSoC6\pdl\middleware\ble/cy_ble_gap.h **** *  None
 816:Generated_Source\PSoC6\pdl\middleware\ble/cy_ble_gap.h **** *
ARM GAS  C:\Users\salaz\AppData\Local\Temp\ccj0QfQu.s 			page 36


 817:Generated_Source\PSoC6\pdl\middleware\ble/cy_ble_gap.h **** ******************************************************************************/
 818:Generated_Source\PSoC6\pdl\middleware\ble/cy_ble_gap.h **** __STATIC_INLINE void Cy_BLE_SetScanState(cy_en_ble_scan_state_t state)
 819:Generated_Source\PSoC6\pdl\middleware\ble/cy_ble_gap.h **** {
 820:Generated_Source\PSoC6\pdl\middleware\ble/cy_ble_gap.h ****     cy_ble_scanState = state;
 821:Generated_Source\PSoC6\pdl\middleware\ble/cy_ble_gap.h **** }
 822:Generated_Source\PSoC6\pdl\middleware\ble/cy_ble_gap.h **** /** \endcond */
 823:Generated_Source\PSoC6\pdl\middleware\ble/cy_ble_gap.h **** 
 824:Generated_Source\PSoC6\pdl\middleware\ble/cy_ble_gap.h **** #endif  /* (CY_BLE_GAP_ROLE_CENTRAL || CY_BLE_GAP_ROLE_OBSERVER) */
 825:Generated_Source\PSoC6\pdl\middleware\ble/cy_ble_gap.h **** 
 826:Generated_Source\PSoC6\pdl\middleware\ble/cy_ble_gap.h ****  
 827:Generated_Source\PSoC6\pdl\middleware\ble/cy_ble_gap.h **** #if ((CY_BLE_GAP_ROLE_PERIPHERAL || CY_BLE_GAP_ROLE_CENTRAL))
 828:Generated_Source\PSoC6\pdl\middleware\ble/cy_ble_gap.h **** 
 829:Generated_Source\PSoC6\pdl\middleware\ble/cy_ble_gap.h **** /******************************************************************************
 830:Generated_Source\PSoC6\pdl\middleware\ble/cy_ble_gap.h **** * Function Name: Cy_BLE_GetConnectionState
 831:Generated_Source\PSoC6\pdl\middleware\ble/cy_ble_gap.h **** ***************************************************************************//**
 832:Generated_Source\PSoC6\pdl\middleware\ble/cy_ble_gap.h **** *  This function returns the state of the BLE link for the specified connection
 833:Generated_Source\PSoC6\pdl\middleware\ble/cy_ble_gap.h **** *  handle.
 834:Generated_Source\PSoC6\pdl\middleware\ble/cy_ble_gap.h **** *
 835:Generated_Source\PSoC6\pdl\middleware\ble/cy_ble_gap.h **** *  The state is set to #CY_BLE_CONN_STATE_CONNECTED when #CY_BLE_EVT_GATT_CONNECT_IND
 836:Generated_Source\PSoC6\pdl\middleware\ble/cy_ble_gap.h **** *  event is received with the corresponding connection handle.
 837:Generated_Source\PSoC6\pdl\middleware\ble/cy_ble_gap.h **** *  The state is set to #CY_BLE_CONN_STATE_DISCONNECTED when the
 838:Generated_Source\PSoC6\pdl\middleware\ble/cy_ble_gap.h **** *  #CY_BLE_EVT_GATT_DISCONNECT_IND event is received.
 839:Generated_Source\PSoC6\pdl\middleware\ble/cy_ble_gap.h **** *
 840:Generated_Source\PSoC6\pdl\middleware\ble/cy_ble_gap.h **** *  For GATT Client role when Cy_BLE_GATTC_StartDiscovery() is called, the state
 841:Generated_Source\PSoC6\pdl\middleware\ble/cy_ble_gap.h **** *  indicates the current flow of the discovery procedure by
 842:Generated_Source\PSoC6\pdl\middleware\ble/cy_ble_gap.h **** *  #CY_BLE_CONN_STATE_CLIENT_SRVC_DISCOVERING,
 843:Generated_Source\PSoC6\pdl\middleware\ble/cy_ble_gap.h **** *  #CY_BLE_CONN_STATE_CLIENT_INCL_DISCOVERING,
 844:Generated_Source\PSoC6\pdl\middleware\ble/cy_ble_gap.h **** *  #CY_BLE_CONN_STATE_CLIENT_CHAR_DISCOVERING,
 845:Generated_Source\PSoC6\pdl\middleware\ble/cy_ble_gap.h **** *  #CY_BLE_CONN_STATE_CLIENT_DESCR_DISCOVERING and changes to
 846:Generated_Source\PSoC6\pdl\middleware\ble/cy_ble_gap.h **** *  #CY_BLE_CONN_STATE_CLIENT_DISCOVERED when the procedure successfully completes.
 847:Generated_Source\PSoC6\pdl\middleware\ble/cy_ble_gap.h **** *
 848:Generated_Source\PSoC6\pdl\middleware\ble/cy_ble_gap.h **** *  The state changes from #CY_BLE_CONN_STATE_CLIENT_DISCOVERED to
 849:Generated_Source\PSoC6\pdl\middleware\ble/cy_ble_gap.h **** *  #CY_BLE_CONN_STATE_CLIENT_DISCONNECTED_DISCOVERED when
 850:Generated_Source\PSoC6\pdl\middleware\ble/cy_ble_gap.h **** *  the #CY_BLE_EVT_GATT_DISCONNECT_IND event is received.
 851:Generated_Source\PSoC6\pdl\middleware\ble/cy_ble_gap.h **** *  The state comes backs to #CY_BLE_CONN_STATE_CLIENT_DISCOVERED when
 852:Generated_Source\PSoC6\pdl\middleware\ble/cy_ble_gap.h **** *  #CY_BLE_EVT_GATT_CONNECT_IND event is received and resolvable device
 853:Generated_Source\PSoC6\pdl\middleware\ble/cy_ble_gap.h **** *  address is not changed.
 854:Generated_Source\PSoC6\pdl\middleware\ble/cy_ble_gap.h **** *
 855:Generated_Source\PSoC6\pdl\middleware\ble/cy_ble_gap.h **** *  \param connHandle: The connection handle.
 856:Generated_Source\PSoC6\pdl\middleware\ble/cy_ble_gap.h **** *
 857:Generated_Source\PSoC6\pdl\middleware\ble/cy_ble_gap.h **** * \return
 858:Generated_Source\PSoC6\pdl\middleware\ble/cy_ble_gap.h **** * \ref cy_en_ble_conn_state_t : The current client state. The following are 
 859:Generated_Source\PSoC6\pdl\middleware\ble/cy_ble_gap.h **** *                               possible states.
 860:Generated_Source\PSoC6\pdl\middleware\ble/cy_ble_gap.h **** *
 861:Generated_Source\PSoC6\pdl\middleware\ble/cy_ble_gap.h **** *               State                                |         Description
 862:Generated_Source\PSoC6\pdl\middleware\ble/cy_ble_gap.h **** *   ------------------------------------------------ | -----------------------------
 863:Generated_Source\PSoC6\pdl\middleware\ble/cy_ble_gap.h **** *   CY_BLE_CONN_STATE_DISCONNECTED                   | Essentially idle state
 864:Generated_Source\PSoC6\pdl\middleware\ble/cy_ble_gap.h **** *   CY_BLE_CONN_STATE_CLIENT_DISCONNECTED_DISCOVERED | Server is disconnected but discovered.
 865:Generated_Source\PSoC6\pdl\middleware\ble/cy_ble_gap.h **** *   CY_BLE_CONN_STATE_CONNECTED                      | Peer device is connected for this and follow
 866:Generated_Source\PSoC6\pdl\middleware\ble/cy_ble_gap.h **** *   CY_BLE_CONN_STATE_CLIENT_SRVC_DISCOVERING        | Server services are being discovered.
 867:Generated_Source\PSoC6\pdl\middleware\ble/cy_ble_gap.h **** *   CY_BLE_CONN_STATE_CLIENT_INCL_DISCOVERING        | Server included services are being discovere
 868:Generated_Source\PSoC6\pdl\middleware\ble/cy_ble_gap.h **** *   CY_BLE_CONN_STATE_CLIENT_CHAR_DISCOVERING        | Server characteristics are being discovered
 869:Generated_Source\PSoC6\pdl\middleware\ble/cy_ble_gap.h **** *   CY_BLE_CONN_STATE_CLIENT_DESCR_DISCOVERING       | Server char. descriptors are being discovere
 870:Generated_Source\PSoC6\pdl\middleware\ble/cy_ble_gap.h **** *   CY_BLE_CONN_STATE_CLIENT_DISCOVERED              | Server is discovered   
 871:Generated_Source\PSoC6\pdl\middleware\ble/cy_ble_gap.h **** *
 872:Generated_Source\PSoC6\pdl\middleware\ble/cy_ble_gap.h **** *
 873:Generated_Source\PSoC6\pdl\middleware\ble/cy_ble_gap.h **** ******************************************************************************/
ARM GAS  C:\Users\salaz\AppData\Local\Temp\ccj0QfQu.s 			page 37


 874:Generated_Source\PSoC6\pdl\middleware\ble/cy_ble_gap.h **** __STATIC_INLINE cy_en_ble_conn_state_t Cy_BLE_GetConnectionState(cy_stc_ble_conn_handle_t connHandl
 875:Generated_Source\PSoC6\pdl\middleware\ble/cy_ble_gap.h **** {
 876:Generated_Source\PSoC6\pdl\middleware\ble/cy_ble_gap.h ****     return((connHandle.attId < CY_BLE_CONN_COUNT) ? cy_ble_connState[connHandle.attId] : CY_BLE_CON
 877:Generated_Source\PSoC6\pdl\middleware\ble/cy_ble_gap.h **** }
 878:Generated_Source\PSoC6\pdl\middleware\ble/cy_ble_gap.h **** 
 879:Generated_Source\PSoC6\pdl\middleware\ble/cy_ble_gap.h **** /** \cond IGNORE */
 880:Generated_Source\PSoC6\pdl\middleware\ble/cy_ble_gap.h **** /******************************************************************************
 881:Generated_Source\PSoC6\pdl\middleware\ble/cy_ble_gap.h **** * Function Name: Cy_BLE_SetConnectionState
 882:Generated_Source\PSoC6\pdl\middleware\ble/cy_ble_gap.h **** ***************************************************************************//**
 883:Generated_Source\PSoC6\pdl\middleware\ble/cy_ble_gap.h **** *
 884:Generated_Source\PSoC6\pdl\middleware\ble/cy_ble_gap.h **** *  Used to set BLE link state for the specified connection handle.
 885:Generated_Source\PSoC6\pdl\middleware\ble/cy_ble_gap.h **** *
 886:Generated_Source\PSoC6\pdl\middleware\ble/cy_ble_gap.h **** *  \param connHandle: Peer device handle
 887:Generated_Source\PSoC6\pdl\middleware\ble/cy_ble_gap.h **** *  \param state:  The state that is desired to be set
 888:Generated_Source\PSoC6\pdl\middleware\ble/cy_ble_gap.h **** *
 889:Generated_Source\PSoC6\pdl\middleware\ble/cy_ble_gap.h **** ******************************************************************************/
 890:Generated_Source\PSoC6\pdl\middleware\ble/cy_ble_gap.h **** __STATIC_INLINE void Cy_BLE_SetConnectionState(cy_stc_ble_conn_handle_t connHandle,
 891:Generated_Source\PSoC6\pdl\middleware\ble/cy_ble_gap.h ****                                                cy_en_ble_conn_state_t state)
 892:Generated_Source\PSoC6\pdl\middleware\ble/cy_ble_gap.h **** {
 893:Generated_Source\PSoC6\pdl\middleware\ble/cy_ble_gap.h ****     if(connHandle.attId < CY_BLE_CONN_COUNT)
 894:Generated_Source\PSoC6\pdl\middleware\ble/cy_ble_gap.h ****     {
 895:Generated_Source\PSoC6\pdl\middleware\ble/cy_ble_gap.h ****         cy_ble_connState[connHandle.attId] = state;
 896:Generated_Source\PSoC6\pdl\middleware\ble/cy_ble_gap.h ****     }
 897:Generated_Source\PSoC6\pdl\middleware\ble/cy_ble_gap.h ****     else
 898:Generated_Source\PSoC6\pdl\middleware\ble/cy_ble_gap.h ****     {
 899:Generated_Source\PSoC6\pdl\middleware\ble/cy_ble_gap.h ****         /* Halt in debug mode*/
 900:Generated_Source\PSoC6\pdl\middleware\ble/cy_ble_gap.h ****         CY_ASSERT(connHandle.attId >= CY_BLE_CONN_COUNT);
 901:Generated_Source\PSoC6\pdl\middleware\ble/cy_ble_gap.h ****     }
 902:Generated_Source\PSoC6\pdl\middleware\ble/cy_ble_gap.h **** }
 903:Generated_Source\PSoC6\pdl\middleware\ble/cy_ble_gap.h **** /** \endcond */
 904:Generated_Source\PSoC6\pdl\middleware\ble/cy_ble_gap.h **** 
 905:Generated_Source\PSoC6\pdl\middleware\ble/cy_ble_gap.h **** /******************************************************************************
 906:Generated_Source\PSoC6\pdl\middleware\ble/cy_ble_gap.h **** * Function Name: Cy_BLE_GetNumOfActiveConn
 907:Generated_Source\PSoC6\pdl\middleware\ble/cy_ble_gap.h **** ***************************************************************************//**
 908:Generated_Source\PSoC6\pdl\middleware\ble/cy_ble_gap.h **** *
 909:Generated_Source\PSoC6\pdl\middleware\ble/cy_ble_gap.h **** *  Used to get active number of connections.
 910:Generated_Source\PSoC6\pdl\middleware\ble/cy_ble_gap.h **** *
 911:Generated_Source\PSoC6\pdl\middleware\ble/cy_ble_gap.h **** *  \return
 912:Generated_Source\PSoC6\pdl\middleware\ble/cy_ble_gap.h **** *  connNum - number of active connections
 913:Generated_Source\PSoC6\pdl\middleware\ble/cy_ble_gap.h **** *
 914:Generated_Source\PSoC6\pdl\middleware\ble/cy_ble_gap.h **** ******************************************************************************/
 915:Generated_Source\PSoC6\pdl\middleware\ble/cy_ble_gap.h **** __STATIC_INLINE uint8_t Cy_BLE_GetNumOfActiveConn(void)
 916:Generated_Source\PSoC6\pdl\middleware\ble/cy_ble_gap.h **** {
 917:Generated_Source\PSoC6\pdl\middleware\ble/cy_ble_gap.h ****     uint32_t i;
 918:Generated_Source\PSoC6\pdl\middleware\ble/cy_ble_gap.h ****     uint8_t connNum = 0u;
 919:Generated_Source\PSoC6\pdl\middleware\ble/cy_ble_gap.h **** 
 920:Generated_Source\PSoC6\pdl\middleware\ble/cy_ble_gap.h ****     for(i = 0u; i < CY_BLE_CONN_COUNT; i++)
 921:Generated_Source\PSoC6\pdl\middleware\ble/cy_ble_gap.h ****     {
 922:Generated_Source\PSoC6\pdl\middleware\ble/cy_ble_gap.h ****         if(cy_ble_connState[i] >= CY_BLE_CONN_STATE_CONNECTED)
 923:Generated_Source\PSoC6\pdl\middleware\ble/cy_ble_gap.h ****         {
 924:Generated_Source\PSoC6\pdl\middleware\ble/cy_ble_gap.h ****             connNum++;
 925:Generated_Source\PSoC6\pdl\middleware\ble/cy_ble_gap.h ****         }
 926:Generated_Source\PSoC6\pdl\middleware\ble/cy_ble_gap.h ****     }
 927:Generated_Source\PSoC6\pdl\middleware\ble/cy_ble_gap.h **** 
 928:Generated_Source\PSoC6\pdl\middleware\ble/cy_ble_gap.h ****     return(connNum);
 929:Generated_Source\PSoC6\pdl\middleware\ble/cy_ble_gap.h **** }
 930:Generated_Source\PSoC6\pdl\middleware\ble/cy_ble_gap.h **** 
ARM GAS  C:\Users\salaz\AppData\Local\Temp\ccj0QfQu.s 			page 38


 931:Generated_Source\PSoC6\pdl\middleware\ble/cy_ble_gap.h **** 
 932:Generated_Source\PSoC6\pdl\middleware\ble/cy_ble_gap.h **** /******************************************************************************
 933:Generated_Source\PSoC6\pdl\middleware\ble/cy_ble_gap.h **** * Function Name: Cy_BLE_GetConnHandleByBdHandle
 934:Generated_Source\PSoC6\pdl\middleware\ble/cy_ble_gap.h **** ***************************************************************************//**
 935:Generated_Source\PSoC6\pdl\middleware\ble/cy_ble_gap.h **** *
 936:Generated_Source\PSoC6\pdl\middleware\ble/cy_ble_gap.h **** *  Used to get connection handle by bdHandle
 937:Generated_Source\PSoC6\pdl\middleware\ble/cy_ble_gap.h **** *  This function halts in debug mode if bdHandle does not exist in the connected device
 938:Generated_Source\PSoC6\pdl\middleware\ble/cy_ble_gap.h **** *  list
 939:Generated_Source\PSoC6\pdl\middleware\ble/cy_ble_gap.h **** *
 940:Generated_Source\PSoC6\pdl\middleware\ble/cy_ble_gap.h **** *  \param bdHandle: Peer device handle
 941:Generated_Source\PSoC6\pdl\middleware\ble/cy_ble_gap.h **** *
 942:Generated_Source\PSoC6\pdl\middleware\ble/cy_ble_gap.h **** *  \return
 943:Generated_Source\PSoC6\pdl\middleware\ble/cy_ble_gap.h **** *  * connHandle: Full connection handle.
 944:Generated_Source\PSoC6\pdl\middleware\ble/cy_ble_gap.h **** *  * connHandle.attId = CY_BLE_INVALID_CONN_HANDLE_VALUE: invalid bdHandle
 945:Generated_Source\PSoC6\pdl\middleware\ble/cy_ble_gap.h **** *
 946:Generated_Source\PSoC6\pdl\middleware\ble/cy_ble_gap.h **** ******************************************************************************/
 947:Generated_Source\PSoC6\pdl\middleware\ble/cy_ble_gap.h **** __STATIC_INLINE cy_stc_ble_conn_handle_t Cy_BLE_GetConnHandleByBdHandle(uint8_t bdHandle)
 948:Generated_Source\PSoC6\pdl\middleware\ble/cy_ble_gap.h **** {
 949:Generated_Source\PSoC6\pdl\middleware\ble/cy_ble_gap.h ****     uint32_t i;
 950:Generated_Source\PSoC6\pdl\middleware\ble/cy_ble_gap.h ****     cy_stc_ble_conn_handle_t cHandle =
 713              		.loc 2 950 0
 714 020e 0222     		movs	r2, #2
 715 0210 5749     		ldr	r1, .L106+112
 716 0212 0831     		adds	r1, r1, #8
 717 0214 05A8     		add	r0, sp, #20
 718              	.LVL67:
 719 0216 FFF7FEFF 		bl	memcpy
 720              	.LVL68:
 951:Generated_Source\PSoC6\pdl\middleware\ble/cy_ble_gap.h ****     {
 952:Generated_Source\PSoC6\pdl\middleware\ble/cy_ble_gap.h ****         .attId    = CY_BLE_INVALID_CONN_HANDLE_VALUE,
 953:Generated_Source\PSoC6\pdl\middleware\ble/cy_ble_gap.h ****         .bdHandle = CY_BLE_INVALID_CONN_HANDLE_VALUE
 954:Generated_Source\PSoC6\pdl\middleware\ble/cy_ble_gap.h ****     };
 955:Generated_Source\PSoC6\pdl\middleware\ble/cy_ble_gap.h **** 
 956:Generated_Source\PSoC6\pdl\middleware\ble/cy_ble_gap.h ****     for(i = 0u; i < CY_BLE_CONN_COUNT; i++)
 721              		.loc 2 956 0
 722 021a 0026     		movs	r6, #0
 723 021c 1DE0     		b	.L64
 724              	.LVL69:
 725              	.L68:
 726 021e 02AF     		add	r7, sp, #8
 727 0220 7300     		lsls	r3, r6, #1
 728 0222 5749     		ldr	r1, .L106+128
 729 0224 C918     		adds	r1, r1, r3
 730 0226 0222     		movs	r2, #2
 731 0228 3800     		movs	r0, r7
 732 022a FFF7FEFF 		bl	memcpy
 733              	.LVL70:
 734              	.LBB95:
 735              	.LBB96:
 876:Generated_Source\PSoC6\pdl\middleware\ble/cy_ble_gap.h **** }
 736              		.loc 2 876 0
 737 022e 7B78     		ldrb	r3, [r7, #1]
 738 0230 002B     		cmp	r3, #0
 739 0232 02D1     		bne	.L102
 740 0234 534A     		ldr	r2, .L106+132
 741 0236 D35C     		ldrb	r3, [r2, r3]
 742 0238 00E0     		b	.L65
ARM GAS  C:\Users\salaz\AppData\Local\Temp\ccj0QfQu.s 			page 39


 743              	.L102:
 744 023a 0023     		movs	r3, #0
 745              	.L65:
 746              	.LBE96:
 747              	.LBE95:
 957:Generated_Source\PSoC6\pdl\middleware\ble/cy_ble_gap.h ****     {
 958:Generated_Source\PSoC6\pdl\middleware\ble/cy_ble_gap.h ****         if((Cy_BLE_GetConnectionState(cy_ble_connHandle[i]) >= CY_BLE_CONN_STATE_CONNECTED) &&
 748              		.loc 2 958 0
 749 023c 012B     		cmp	r3, #1
 750 023e 0BD9     		bls	.L66
 959:Generated_Source\PSoC6\pdl\middleware\ble/cy_ble_gap.h ****                 (cy_ble_connHandle[i].bdHandle == bdHandle))
 751              		.loc 2 959 0
 752 0240 7300     		lsls	r3, r6, #1
 753 0242 4F4A     		ldr	r2, .L106+128
 754 0244 9B5C     		ldrb	r3, [r3, r2]
 958:Generated_Source\PSoC6\pdl\middleware\ble/cy_ble_gap.h ****                 (cy_ble_connHandle[i].bdHandle == bdHandle))
 755              		.loc 2 958 0
 756 0246 9845     		cmp	r8, r3
 757 0248 06D1     		bne	.L66
 960:Generated_Source\PSoC6\pdl\middleware\ble/cy_ble_gap.h ****         {
 961:Generated_Source\PSoC6\pdl\middleware\ble/cy_ble_gap.h ****             cHandle = cy_ble_connHandle[i];
 758              		.loc 2 961 0
 759 024a 7600     		lsls	r6, r6, #1
 760              	.LVL71:
 761 024c 9119     		adds	r1, r2, r6
 762 024e 0222     		movs	r2, #2
 763 0250 05A8     		add	r0, sp, #20
 764 0252 FFF7FEFF 		bl	memcpy
 765              	.LVL72:
 766 0256 02E0     		b	.L67
 767              	.LVL73:
 768              	.L66:
 956:Generated_Source\PSoC6\pdl\middleware\ble/cy_ble_gap.h ****     {
 769              		.loc 2 956 0
 770 0258 0136     		adds	r6, r6, #1
 771              	.LVL74:
 772              	.L64:
 773 025a 002E     		cmp	r6, #0
 774 025c DFD0     		beq	.L68
 775              	.LVL75:
 776              	.L67:
 962:Generated_Source\PSoC6\pdl\middleware\ble/cy_ble_gap.h ****             break;
 963:Generated_Source\PSoC6\pdl\middleware\ble/cy_ble_gap.h ****         }
 964:Generated_Source\PSoC6\pdl\middleware\ble/cy_ble_gap.h ****     }
 965:Generated_Source\PSoC6\pdl\middleware\ble/cy_ble_gap.h ****     if(cHandle.attId == CY_BLE_INVALID_CONN_HANDLE_VALUE)
 777              		.loc 2 965 0
 778 025e 05AB     		add	r3, sp, #20
 779 0260 5B78     		ldrb	r3, [r3, #1]
 780 0262 FF2B     		cmp	r3, #255
 781 0264 05D1     		bne	.L69
 966:Generated_Source\PSoC6\pdl\middleware\ble/cy_ble_gap.h ****     {
 967:Generated_Source\PSoC6\pdl\middleware\ble/cy_ble_gap.h ****         /* HALT in debug mode */
 968:Generated_Source\PSoC6\pdl\middleware\ble/cy_ble_gap.h ****         CY_ASSERT(cHandle.attId != CY_BLE_INVALID_CONN_HANDLE_VALUE);
 782              		.loc 2 968 0
 783 0266 04D1     		bne	.L69
 784 0268 F221     		movs	r1, #242
 785 026a 8900     		lsls	r1, r1, #2
ARM GAS  C:\Users\salaz\AppData\Local\Temp\ccj0QfQu.s 			page 40


 786 026c 4648     		ldr	r0, .L106+136
 787 026e FFF7FEFF 		bl	Cy_SysLib_AssertFailed
 788              	.LVL76:
 789              	.L69:
 969:Generated_Source\PSoC6\pdl\middleware\ble/cy_ble_gap.h ****     }
 970:Generated_Source\PSoC6\pdl\middleware\ble/cy_ble_gap.h **** 
 971:Generated_Source\PSoC6\pdl\middleware\ble/cy_ble_gap.h ****     return cHandle;
 790              		.loc 2 971 0
 791 0272 05AB     		add	r3, sp, #20
 792 0274 1B88     		ldrh	r3, [r3]
 793 0276 08AA     		add	r2, sp, #32
 794 0278 1380     		strh	r3, [r2]
 795 027a 07AA     		add	r2, sp, #28
 796 027c 1380     		strh	r3, [r2]
 797              	.LVL77:
 798              	.LBE94:
 799              	.LBE93:
 800              		.loc 1 433 0
 801 027e 1B0A     		lsrs	r3, r3, #8
 434:Generated_Source\PSoC6\pdl\middleware\ble/cy_ble_event_handler.c ****                 ((cy_stc_ble_l2cap_state_info_t*)evParam)->flowState;
 802              		.loc 1 434 0
 803 0280 2978     		ldrb	r1, [r5]
 433:Generated_Source\PSoC6\pdl\middleware\ble/cy_ble_event_handler.c ****                 ((cy_stc_ble_l2cap_state_info_t*)evParam)->flowState;
 804              		.loc 1 433 0
 805 0282 424A     		ldr	r2, .L106+140
 806 0284 D154     		strb	r1, [r2, r3]
 435:Generated_Source\PSoC6\pdl\middleware\ble/cy_ble_event_handler.c ****         #endif /*(CY_BLE_GAP_ROLE_PERIPHERAL || CY_BLE_GAP_ROLE_CENTRAL)*/
 436:Generated_Source\PSoC6\pdl\middleware\ble/cy_ble_event_handler.c ****             break;
 807              		.loc 1 436 0
 808 0286 58E2     		b	.L31
 809              	.LVL78:
 810              	.L40:
 811              	.LBB97:
 437:Generated_Source\PSoC6\pdl\middleware\ble/cy_ble_event_handler.c **** 
 438:Generated_Source\PSoC6\pdl\middleware\ble/cy_ble_event_handler.c ****         case CY_BLE_EVT_MEMORY_REQUEST:
 439:Generated_Source\PSoC6\pdl\middleware\ble/cy_ble_event_handler.c ****         #if (CY_BLE_MODE_PROFILE)
 440:Generated_Source\PSoC6\pdl\middleware\ble/cy_ble_event_handler.c ****             {
 441:Generated_Source\PSoC6\pdl\middleware\ble/cy_ble_event_handler.c ****                 cy_stc_ble_memory_request_t *memReq = (cy_stc_ble_memory_request_t*)evParam;
 442:Generated_Source\PSoC6\pdl\middleware\ble/cy_ble_event_handler.c ****                 if(memReq->request == CY_BLE_PREPARED_WRITE_REQUEST)
 812              		.loc 1 442 0
 813 0288 2B78     		ldrb	r3, [r5]
 814 028a 002B     		cmp	r3, #0
 815 028c 00D0     		beq	.LCB789
 816 028e 54E2     		b	.L31	@long jump
 817              	.LCB789:
 443:Generated_Source\PSoC6\pdl\middleware\ble/cy_ble_event_handler.c ****                 {
 444:Generated_Source\PSoC6\pdl\middleware\ble/cy_ble_event_handler.c ****             #if (CY_BLE_GATT_ENABLE_EXTERNAL_PREP_WRITE_BUFF == 0u)
 445:Generated_Source\PSoC6\pdl\middleware\ble/cy_ble_event_handler.c ****                     /* Stack requests to provide memory to process a remote request */
 446:Generated_Source\PSoC6\pdl\middleware\ble/cy_ble_event_handler.c ****                     if(memReq->allocFree == CY_BLE_ALLOC_MEMORY)
 818              		.loc 1 446 0
 819 0290 2B7A     		ldrb	r3, [r5, #8]
 820 0292 002B     		cmp	r3, #0
 821 0294 07D1     		bne	.L70
 822              	.LBB98:
 447:Generated_Source\PSoC6\pdl\middleware\ble/cy_ble_event_handler.c ****                     {
 448:Generated_Source\PSoC6\pdl\middleware\ble/cy_ble_event_handler.c ****                         static cy_stc_ble_prepare_write_request_memory_t gPrepWriteReqMem;
 449:Generated_Source\PSoC6\pdl\middleware\ble/cy_ble_event_handler.c **** 
ARM GAS  C:\Users\salaz\AppData\Local\Temp\ccj0QfQu.s 			page 41


 450:Generated_Source\PSoC6\pdl\middleware\ble/cy_ble_event_handler.c ****                         /* Configure and return a statically allocated buffer at the end of the cy_
 451:Generated_Source\PSoC6\pdl\middleware\ble/cy_ble_event_handler.c ****                         gPrepWriteReqMem.prepareWriteQueueSize = CY_BLE_GATT_MAX_PREPARE_BUFF_COUNT
 823              		.loc 1 451 0
 824 0296 3E4B     		ldr	r3, .L106+144
 825 0298 0F22     		movs	r2, #15
 826 029a DA80     		strh	r2, [r3, #6]
 452:Generated_Source\PSoC6\pdl\middleware\ble/cy_ble_event_handler.c ****                         gPrepWriteReqMem.totalAttrValueLength = CY_BLE_GATT_PREPARE_LENGTH_ALIGN;
 827              		.loc 1 452 0
 828 029c F132     		adds	r2, r2, #241
 829 029e 9A80     		strh	r2, [r3, #4]
 453:Generated_Source\PSoC6\pdl\middleware\ble/cy_ble_event_handler.c ****                         gPrepWriteReqMem.queueBuffer = &cy_ble_stackMemoryRam[CY_BLE_STACK_RAM_SIZE
 830              		.loc 1 453 0
 831 02a0 3C4A     		ldr	r2, .L106+148
 832 02a2 1A60     		str	r2, [r3]
 454:Generated_Source\PSoC6\pdl\middleware\ble/cy_ble_event_handler.c ****                                                                               CY_BLE_GATT_PREPARE_W
 455:Generated_Source\PSoC6\pdl\middleware\ble/cy_ble_event_handler.c ****                         memReq->configMemory = &gPrepWriteReqMem;
 833              		.loc 1 455 0
 834 02a4 6B60     		str	r3, [r5, #4]
 835              	.L70:
 836              	.LBE98:
 456:Generated_Source\PSoC6\pdl\middleware\ble/cy_ble_event_handler.c ****                     }
 457:Generated_Source\PSoC6\pdl\middleware\ble/cy_ble_event_handler.c ****                     /* Clear the CY_BLE_CALLBACK flag not to provide a handled event to the applica
 458:Generated_Source\PSoC6\pdl\middleware\ble/cy_ble_event_handler.c ****                     cy_ble_eventHandlerFlag &= (uint8_t) ~CY_BLE_CALLBACK;
 837              		.loc 1 458 0
 838 02a6 164A     		ldr	r2, .L106
 839 02a8 1378     		ldrb	r3, [r2]
 840 02aa 0121     		movs	r1, #1
 841 02ac 8B43     		bics	r3, r1
 842 02ae 1370     		strb	r3, [r2]
 843 02b0 43E2     		b	.L31
 844              	.LVL79:
 845              	.L45:
 846              	.LBE97:
 847              	.LBB99:
 459:Generated_Source\PSoC6\pdl\middleware\ble/cy_ble_event_handler.c ****             #endif  /* CY_BLE_GATT_ENABLE_EXTERNAL_PREP_WRITE_BUFF == 0u */
 460:Generated_Source\PSoC6\pdl\middleware\ble/cy_ble_event_handler.c ****                 }
 461:Generated_Source\PSoC6\pdl\middleware\ble/cy_ble_event_handler.c ****             }
 462:Generated_Source\PSoC6\pdl\middleware\ble/cy_ble_event_handler.c ****         #endif /* CY_BLE_MODE_PROFILE */
 463:Generated_Source\PSoC6\pdl\middleware\ble/cy_ble_event_handler.c ****             break;
 464:Generated_Source\PSoC6\pdl\middleware\ble/cy_ble_event_handler.c **** 
 465:Generated_Source\PSoC6\pdl\middleware\ble/cy_ble_event_handler.c ****         /**********************************************************
 466:Generated_Source\PSoC6\pdl\middleware\ble/cy_ble_event_handler.c ****          * GAP events
 467:Generated_Source\PSoC6\pdl\middleware\ble/cy_ble_event_handler.c ****          ************************************************************/
 468:Generated_Source\PSoC6\pdl\middleware\ble/cy_ble_event_handler.c ****         case CY_BLE_EVT_GAP_AUTH_REQ:
 469:Generated_Source\PSoC6\pdl\middleware\ble/cy_ble_event_handler.c ****             break;
 470:Generated_Source\PSoC6\pdl\middleware\ble/cy_ble_event_handler.c **** 
 471:Generated_Source\PSoC6\pdl\middleware\ble/cy_ble_event_handler.c ****         case CY_BLE_EVT_GAP_AUTH_COMPLETE:
 472:Generated_Source\PSoC6\pdl\middleware\ble/cy_ble_event_handler.c ****         #if ((CY_BLE_GAP_ROLE_PERIPHERAL || CY_BLE_GAP_ROLE_CENTRAL) && (CY_BLE_BONDING_REQUIREMENT
 473:Generated_Source\PSoC6\pdl\middleware\ble/cy_ble_event_handler.c ****             {
 474:Generated_Source\PSoC6\pdl\middleware\ble/cy_ble_event_handler.c ****                 cy_stc_ble_conn_handle_t connectedHandle;
 475:Generated_Source\PSoC6\pdl\middleware\ble/cy_ble_event_handler.c ****                 connectedHandle = Cy_BLE_GetConnHandleByBdHandle(((cy_stc_ble_gap_auth_info_t*)evPa
 848              		.loc 1 475 0
 849 02b2 6B79     		ldrb	r3, [r5, #5]
 850 02b4 9846     		mov	r8, r3
 851              	.LVL80:
 852              	.LBB100:
 853              	.LBB101:
ARM GAS  C:\Users\salaz\AppData\Local\Temp\ccj0QfQu.s 			page 42


 950:Generated_Source\PSoC6\pdl\middleware\ble/cy_ble_gap.h ****     {
 854              		.loc 2 950 0
 855 02b6 0222     		movs	r2, #2
 856 02b8 2D49     		ldr	r1, .L106+112
 857 02ba 0831     		adds	r1, r1, #8
 858 02bc 05A8     		add	r0, sp, #20
 859              	.LVL81:
 860 02be FFF7FEFF 		bl	memcpy
 861              	.LVL82:
 956:Generated_Source\PSoC6\pdl\middleware\ble/cy_ble_gap.h ****     {
 862              		.loc 2 956 0
 863 02c2 0026     		movs	r6, #0
 864 02c4 69E0     		b	.L71
 865              	.LVL83:
 866              	.L75:
 867 02c6 03AF     		add	r7, sp, #12
 868 02c8 7300     		lsls	r3, r6, #1
 869 02ca 2D49     		ldr	r1, .L106+128
 870 02cc C918     		adds	r1, r1, r3
 871 02ce 0222     		movs	r2, #2
 872 02d0 3800     		movs	r0, r7
 873 02d2 FFF7FEFF 		bl	memcpy
 874              	.LVL84:
 875              	.LBB102:
 876              	.LBB103:
 876:Generated_Source\PSoC6\pdl\middleware\ble/cy_ble_gap.h **** }
 877              		.loc 2 876 0
 878 02d6 7B78     		ldrb	r3, [r7, #1]
 879 02d8 002B     		cmp	r3, #0
 880 02da 02D1     		bne	.L103
 881 02dc 294A     		ldr	r2, .L106+132
 882 02de D35C     		ldrb	r3, [r2, r3]
 883 02e0 00E0     		b	.L72
 884              	.L103:
 885 02e2 0023     		movs	r3, #0
 886              	.L72:
 887              	.LBE103:
 888              	.LBE102:
 958:Generated_Source\PSoC6\pdl\middleware\ble/cy_ble_gap.h ****                 (cy_ble_connHandle[i].bdHandle == bdHandle))
 889              		.loc 2 958 0
 890 02e4 012B     		cmp	r3, #1
 891 02e6 57D9     		bls	.L73
 959:Generated_Source\PSoC6\pdl\middleware\ble/cy_ble_gap.h ****         {
 892              		.loc 2 959 0
 893 02e8 7300     		lsls	r3, r6, #1
 894 02ea 254A     		ldr	r2, .L106+128
 895 02ec 9B5C     		ldrb	r3, [r3, r2]
 958:Generated_Source\PSoC6\pdl\middleware\ble/cy_ble_gap.h ****                 (cy_ble_connHandle[i].bdHandle == bdHandle))
 896              		.loc 2 958 0
 897 02ee 9845     		cmp	r8, r3
 898 02f0 52D1     		bne	.L73
 961:Generated_Source\PSoC6\pdl\middleware\ble/cy_ble_gap.h ****             break;
 899              		.loc 2 961 0
 900 02f2 7600     		lsls	r6, r6, #1
 901              	.LVL85:
 902 02f4 9119     		adds	r1, r2, r6
 903 02f6 0222     		movs	r2, #2
ARM GAS  C:\Users\salaz\AppData\Local\Temp\ccj0QfQu.s 			page 43


 904 02f8 05A8     		add	r0, sp, #20
 905 02fa FFF7FEFF 		bl	memcpy
 906              	.LVL86:
 907 02fe 4EE0     		b	.L74
 908              	.L107:
 909              		.align	2
 910              	.L106:
 911 0300 00000000 		.word	cy_ble_eventHandlerFlag
 912 0304 0A400000 		.word	16394
 913 0308 04200000 		.word	8196
 914 030c 02100000 		.word	4098
 915 0310 01100000 		.word	4097
 916 0314 03100000 		.word	4099
 917 0318 04100000 		.word	4100
 918 031c 06400000 		.word	16390
 919 0320 12300000 		.word	12306
 920 0324 04400000 		.word	16388
 921 0328 07400000 		.word	16391
 922 032c 08400000 		.word	16392
 923 0330 0E500000 		.word	20494
 924 0334 02500000 		.word	20482
 925 0338 10400000 		.word	16400
 926 033c 01500000 		.word	20481
 927 0340 03500000 		.word	20483
 928 0344 0C500000 		.word	20492
 929 0348 14500000 		.word	20500
 930 034c 0F500000 		.word	20495
 931 0350 10500000 		.word	20496
 932 0354 17500000 		.word	20503
 933 0358 01600000 		.word	24577
 934 035c 00000000 		.word	cy_ble_sflashDeviceAddress
 935 0360 00000000 		.word	cy_ble_configPtr
 936 0364 04060000 		.word	1540
 937 0368 05060000 		.word	1541
 938 036c 03060000 		.word	1539
 939 0370 00000000 		.word	.LANCHOR0
 940 0374 00000000 		.word	cy_ble_state
 941 0378 00000000 		.word	cy_ble_advState
 942 037c 00000000 		.word	cy_ble_cmdStatus
 943 0380 00000000 		.word	cy_ble_connHandle
 944 0384 00000000 		.word	cy_ble_connState
 945 0388 00000000 		.word	.LC15
 946 038c 00000000 		.word	cy_ble_busyStatus
 947 0390 00000000 		.word	.LANCHOR1
 948 0394 54290000 		.word	cy_ble_stackMemoryRam+10580
 949              	.LVL87:
 950              	.L73:
 956:Generated_Source\PSoC6\pdl\middleware\ble/cy_ble_gap.h ****     {
 951              		.loc 2 956 0
 952 0398 0136     		adds	r6, r6, #1
 953              	.LVL88:
 954              	.L71:
 955 039a 002E     		cmp	r6, #0
 956 039c 93D0     		beq	.L75
 957              	.LVL89:
 958              	.L74:
 965:Generated_Source\PSoC6\pdl\middleware\ble/cy_ble_gap.h ****     {
ARM GAS  C:\Users\salaz\AppData\Local\Temp\ccj0QfQu.s 			page 44


 959              		.loc 2 965 0
 960 039e 05AB     		add	r3, sp, #20
 961 03a0 5B78     		ldrb	r3, [r3, #1]
 962 03a2 FF2B     		cmp	r3, #255
 963 03a4 05D1     		bne	.L76
 968:Generated_Source\PSoC6\pdl\middleware\ble/cy_ble_gap.h ****     }
 964              		.loc 2 968 0
 965 03a6 04D1     		bne	.L76
 966 03a8 F221     		movs	r1, #242
 967 03aa 8900     		lsls	r1, r1, #2
 968 03ac CE48     		ldr	r0, .L108
 969 03ae FFF7FEFF 		bl	Cy_SysLib_AssertFailed
 970              	.LVL90:
 971              	.L76:
 972              		.loc 2 971 0
 973 03b2 05AA     		add	r2, sp, #20
 974 03b4 1388     		ldrh	r3, [r2]
 975 03b6 09A9     		add	r1, sp, #36
 976 03b8 0B80     		strh	r3, [r1]
 977 03ba 1380     		strh	r3, [r2]
 978              	.LVL91:
 979              	.LBE101:
 980              	.LBE100:
 476:Generated_Source\PSoC6\pdl\middleware\ble/cy_ble_event_handler.c ****                 cy_ble_peerBonding[connectedHandle.attId] = ((cy_stc_ble_gap_auth_info_t*)evParam)-
 981              		.loc 1 476 0
 982 03bc 1B0A     		lsrs	r3, r3, #8
 983 03be 6978     		ldrb	r1, [r5, #1]
 984 03c0 CA4A     		ldr	r2, .L108+4
 985 03c2 D154     		strb	r1, [r2, r3]
 986              	.LBE99:
 477:Generated_Source\PSoC6\pdl\middleware\ble/cy_ble_event_handler.c ****             }
 478:Generated_Source\PSoC6\pdl\middleware\ble/cy_ble_event_handler.c ****         #endif  /* CY_BLE_BONDING_REQUIREMENT == CY_BLE_BONDING_YES */
 479:Generated_Source\PSoC6\pdl\middleware\ble/cy_ble_event_handler.c ****         
 480:Generated_Source\PSoC6\pdl\middleware\ble/cy_ble_event_handler.c ****         #if ((CY_BLE_GAP_ROLE_PERIPHERAL || CY_BLE_GAP_ROLE_CENTRAL))
 481:Generated_Source\PSoC6\pdl\middleware\ble/cy_ble_event_handler.c ****             if(((cy_stc_ble_gap_auth_info_t *)evParam)->authErr == CY_BLE_GAP_AUTH_ERROR_NONE)
 987              		.loc 1 481 0
 988 03c4 EB78     		ldrb	r3, [r5, #3]
 989 03c6 002B     		cmp	r3, #0
 990 03c8 00D0     		beq	.LCB973
 991 03ca B6E1     		b	.L31	@long jump
 992              	.LCB973:
 993              	.LBB104:
 482:Generated_Source\PSoC6\pdl\middleware\ble/cy_ble_event_handler.c ****             {
 483:Generated_Source\PSoC6\pdl\middleware\ble/cy_ble_event_handler.c ****                 cy_stc_ble_conn_handle_t connectedHandle;
 484:Generated_Source\PSoC6\pdl\middleware\ble/cy_ble_event_handler.c ****                 connectedHandle = Cy_BLE_GetConnHandleByBdHandle(((cy_stc_ble_gap_auth_info_t *)evP
 994              		.loc 1 484 0
 995 03cc 6B79     		ldrb	r3, [r5, #5]
 996 03ce 9846     		mov	r8, r3
 997              	.LVL92:
 998              	.LBB105:
 999              	.LBB106:
 950:Generated_Source\PSoC6\pdl\middleware\ble/cy_ble_gap.h ****     {
 1000              		.loc 2 950 0
 1001 03d0 0222     		movs	r2, #2
 1002 03d2 C749     		ldr	r1, .L108+8
 1003 03d4 0831     		adds	r1, r1, #8
 1004 03d6 05A8     		add	r0, sp, #20
ARM GAS  C:\Users\salaz\AppData\Local\Temp\ccj0QfQu.s 			page 45


 1005 03d8 FFF7FEFF 		bl	memcpy
 1006              	.LVL93:
 956:Generated_Source\PSoC6\pdl\middleware\ble/cy_ble_gap.h ****     {
 1007              		.loc 2 956 0
 1008 03dc 0026     		movs	r6, #0
 1009 03de 1DE0     		b	.L77
 1010              	.LVL94:
 1011              	.L81:
 1012 03e0 04AF     		add	r7, sp, #16
 1013 03e2 7300     		lsls	r3, r6, #1
 1014 03e4 C349     		ldr	r1, .L108+12
 1015 03e6 C918     		adds	r1, r1, r3
 1016 03e8 0222     		movs	r2, #2
 1017 03ea 3800     		movs	r0, r7
 1018 03ec FFF7FEFF 		bl	memcpy
 1019              	.LVL95:
 1020              	.LBB107:
 1021              	.LBB108:
 876:Generated_Source\PSoC6\pdl\middleware\ble/cy_ble_gap.h **** }
 1022              		.loc 2 876 0
 1023 03f0 7B78     		ldrb	r3, [r7, #1]
 1024 03f2 002B     		cmp	r3, #0
 1025 03f4 02D1     		bne	.L104
 1026 03f6 C04A     		ldr	r2, .L108+16
 1027 03f8 D35C     		ldrb	r3, [r2, r3]
 1028 03fa 00E0     		b	.L78
 1029              	.L104:
 1030 03fc 0023     		movs	r3, #0
 1031              	.L78:
 1032              	.LBE108:
 1033              	.LBE107:
 958:Generated_Source\PSoC6\pdl\middleware\ble/cy_ble_gap.h ****                 (cy_ble_connHandle[i].bdHandle == bdHandle))
 1034              		.loc 2 958 0
 1035 03fe 012B     		cmp	r3, #1
 1036 0400 0BD9     		bls	.L79
 959:Generated_Source\PSoC6\pdl\middleware\ble/cy_ble_gap.h ****         {
 1037              		.loc 2 959 0
 1038 0402 7300     		lsls	r3, r6, #1
 1039 0404 BB4A     		ldr	r2, .L108+12
 1040 0406 9B5C     		ldrb	r3, [r3, r2]
 958:Generated_Source\PSoC6\pdl\middleware\ble/cy_ble_gap.h ****                 (cy_ble_connHandle[i].bdHandle == bdHandle))
 1041              		.loc 2 958 0
 1042 0408 9845     		cmp	r8, r3
 1043 040a 06D1     		bne	.L79
 961:Generated_Source\PSoC6\pdl\middleware\ble/cy_ble_gap.h ****             break;
 1044              		.loc 2 961 0
 1045 040c 7600     		lsls	r6, r6, #1
 1046              	.LVL96:
 1047 040e 9119     		adds	r1, r2, r6
 1048 0410 0222     		movs	r2, #2
 1049 0412 05A8     		add	r0, sp, #20
 1050 0414 FFF7FEFF 		bl	memcpy
 1051              	.LVL97:
 1052 0418 02E0     		b	.L80
 1053              	.LVL98:
 1054              	.L79:
 956:Generated_Source\PSoC6\pdl\middleware\ble/cy_ble_gap.h ****     {
ARM GAS  C:\Users\salaz\AppData\Local\Temp\ccj0QfQu.s 			page 46


 1055              		.loc 2 956 0
 1056 041a 0136     		adds	r6, r6, #1
 1057              	.LVL99:
 1058              	.L77:
 1059 041c 002E     		cmp	r6, #0
 1060 041e DFD0     		beq	.L81
 1061              	.LVL100:
 1062              	.L80:
 965:Generated_Source\PSoC6\pdl\middleware\ble/cy_ble_gap.h ****     {
 1063              		.loc 2 965 0
 1064 0420 05AB     		add	r3, sp, #20
 1065 0422 5B78     		ldrb	r3, [r3, #1]
 1066 0424 FF2B     		cmp	r3, #255
 1067 0426 05D1     		bne	.L82
 968:Generated_Source\PSoC6\pdl\middleware\ble/cy_ble_gap.h ****     }
 1068              		.loc 2 968 0
 1069 0428 04D1     		bne	.L82
 1070 042a F221     		movs	r1, #242
 1071 042c 8900     		lsls	r1, r1, #2
 1072 042e AE48     		ldr	r0, .L108
 1073 0430 FFF7FEFF 		bl	Cy_SysLib_AssertFailed
 1074              	.LVL101:
 1075              	.L82:
 1076              		.loc 2 971 0
 1077 0434 05AA     		add	r2, sp, #20
 1078 0436 1388     		ldrh	r3, [r2]
 1079 0438 0AA9     		add	r1, sp, #40
 1080 043a 0B80     		strh	r3, [r1]
 1081 043c 1380     		strh	r3, [r2]
 1082              	.LVL102:
 1083              	.LBE106:
 1084              	.LBE105:
 485:Generated_Source\PSoC6\pdl\middleware\ble/cy_ble_event_handler.c ****                 cy_ble_pairStatus[connectedHandle.attId] = true;
 1085              		.loc 1 485 0
 1086 043e 1B0A     		lsrs	r3, r3, #8
 1087 0440 0121     		movs	r1, #1
 1088 0442 AE4A     		ldr	r2, .L108+20
 1089 0444 D154     		strb	r1, [r2, r3]
 1090 0446 78E1     		b	.L31
 1091              	.LVL103:
 1092              	.L32:
 1093              	.LBE104:
 486:Generated_Source\PSoC6\pdl\middleware\ble/cy_ble_event_handler.c ****             }
 487:Generated_Source\PSoC6\pdl\middleware\ble/cy_ble_event_handler.c ****         #endif /* ((CY_BLE_GAP_ROLE_PERIPHERAL || CY_BLE_GAP_ROLE_CENTRAL)) */ 
 488:Generated_Source\PSoC6\pdl\middleware\ble/cy_ble_event_handler.c ****             break;
 489:Generated_Source\PSoC6\pdl\middleware\ble/cy_ble_event_handler.c **** 
 490:Generated_Source\PSoC6\pdl\middleware\ble/cy_ble_event_handler.c ****         case CY_BLE_EVT_GAP_CONNECTION_UPDATE_COMPLETE:
 491:Generated_Source\PSoC6\pdl\middleware\ble/cy_ble_event_handler.c ****         #if (CY_BLE_GAP_ROLE_PERIPHERAL || CY_BLE_GAP_ROLE_CENTRAL)
 492:Generated_Source\PSoC6\pdl\middleware\ble/cy_ble_event_handler.c ****             (void)Cy_BLE_InvokeServiceEventHandler((uint32_t)event, (void*)evParam);
 1094              		.loc 1 492 0
 1095 0448 2900     		movs	r1, r5
 1096 044a FFF7FEFF 		bl	Cy_BLE_InvokeServiceEventHandler
 1097              	.LVL104:
 493:Generated_Source\PSoC6\pdl\middleware\ble/cy_ble_event_handler.c ****         #endif /*(CY_BLE_GAP_ROLE_PERIPHERAL || CY_BLE_GAP_ROLE_CENTRAL) */
 494:Generated_Source\PSoC6\pdl\middleware\ble/cy_ble_event_handler.c ****             break;
 1098              		.loc 1 494 0
 1099 044e 74E1     		b	.L31
ARM GAS  C:\Users\salaz\AppData\Local\Temp\ccj0QfQu.s 			page 47


 1100              	.LVL105:
 1101              	.L46:
 1102              	.LBB109:
 495:Generated_Source\PSoC6\pdl\middleware\ble/cy_ble_event_handler.c ****     
 496:Generated_Source\PSoC6\pdl\middleware\ble/cy_ble_event_handler.c ****         case CY_BLE_EVT_GAP_ENHANCE_CONN_COMPLETE:
 497:Generated_Source\PSoC6\pdl\middleware\ble/cy_ble_event_handler.c ****         case CY_BLE_EVT_GAP_DEVICE_CONNECTED:
 498:Generated_Source\PSoC6\pdl\middleware\ble/cy_ble_event_handler.c ****             {           
 499:Generated_Source\PSoC6\pdl\middleware\ble/cy_ble_event_handler.c ****             #if (CY_BLE_LL_PRIVACY_FEATURE != 0u)
 500:Generated_Source\PSoC6\pdl\middleware\ble/cy_ble_event_handler.c ****                 cy_stc_ble_gap_enhance_conn_complete_param_t *tEvParam = 
 501:Generated_Source\PSoC6\pdl\middleware\ble/cy_ble_event_handler.c ****                     (cy_stc_ble_gap_enhance_conn_complete_param_t *)evParam;
 502:Generated_Source\PSoC6\pdl\middleware\ble/cy_ble_event_handler.c ****             #else
 503:Generated_Source\PSoC6\pdl\middleware\ble/cy_ble_event_handler.c ****                 cy_stc_ble_gap_connected_param_t *tEvParam = (cy_stc_ble_gap_connected_param_t *)ev
 504:Generated_Source\PSoC6\pdl\middleware\ble/cy_ble_event_handler.c ****             #endif /* (CY_BLE_LL_PRIVACY_FEATURE != 0u) */    
 505:Generated_Source\PSoC6\pdl\middleware\ble/cy_ble_event_handler.c ****                 if(tEvParam->status == CY_BLE_HCI_SUCCESS)
 1103              		.loc 1 505 0
 1104 0450 AB7E     		ldrb	r3, [r5, #26]
 1105 0452 002B     		cmp	r3, #0
 1106 0454 44D1     		bne	.L83
 506:Generated_Source\PSoC6\pdl\middleware\ble/cy_ble_event_handler.c ****                 {
 507:Generated_Source\PSoC6\pdl\middleware\ble/cy_ble_event_handler.c ****                     /* Advertising is automatically stopped if a Slave is connected,
 508:Generated_Source\PSoC6\pdl\middleware\ble/cy_ble_event_handler.c ****                        so update the adv state to CY_BLE_ADV_STATE_STOPPED  */
 509:Generated_Source\PSoC6\pdl\middleware\ble/cy_ble_event_handler.c ****                     #if (CY_BLE_GAP_ROLE_PERIPHERAL || CY_BLE_GAP_ROLE_BROADCASTER)
 510:Generated_Source\PSoC6\pdl\middleware\ble/cy_ble_event_handler.c ****                         if(tEvParam->role == CY_BLE_GAP_LL_ROLE_SLAVE)
 1107              		.loc 1 510 0
 1108 0456 2B7E     		ldrb	r3, [r5, #24]
 1109 0458 012B     		cmp	r3, #1
 1110 045a 02D1     		bne	.L84
 1111              	.LVL106:
 1112              	.LBB110:
 1113              	.LBB111:
 763:Generated_Source\PSoC6\pdl\middleware\ble/cy_ble_gap.h **** }
 1114              		.loc 2 763 0
 1115 045c 0022     		movs	r2, #0
 1116 045e A84B     		ldr	r3, .L108+24
 1117 0460 1A70     		strb	r2, [r3]
 1118              	.LVL107:
 1119              	.L84:
 1120              	.LBE111:
 1121              	.LBE110:
 1122              	.LBB112:
 511:Generated_Source\PSoC6\pdl\middleware\ble/cy_ble_event_handler.c ****                         {
 512:Generated_Source\PSoC6\pdl\middleware\ble/cy_ble_event_handler.c ****                             Cy_BLE_SetAdvertisementState(CY_BLE_ADV_STATE_STOPPED);
 513:Generated_Source\PSoC6\pdl\middleware\ble/cy_ble_event_handler.c ****                         }
 514:Generated_Source\PSoC6\pdl\middleware\ble/cy_ble_event_handler.c ****                     #endif /* (CY_BLE_GAP_ROLE_PERIPHERAL || CY_BLE_GAP_ROLE_BROADCASTER) */
 515:Generated_Source\PSoC6\pdl\middleware\ble/cy_ble_event_handler.c ****                     
 516:Generated_Source\PSoC6\pdl\middleware\ble/cy_ble_event_handler.c ****                     /* Stop Timer in central mode (if timer was started) */
 517:Generated_Source\PSoC6\pdl\middleware\ble/cy_ble_event_handler.c ****                     #if (CY_BLE_GAP_ROLE_CENTRAL)
 518:Generated_Source\PSoC6\pdl\middleware\ble/cy_ble_event_handler.c ****                         if(cy_ble_connectingTimeout.timeout != 0u)
 519:Generated_Source\PSoC6\pdl\middleware\ble/cy_ble_event_handler.c ****                         {
 520:Generated_Source\PSoC6\pdl\middleware\ble/cy_ble_event_handler.c ****                             (void)Cy_BLE_StopTimer(&cy_ble_connectingTimeout);
 521:Generated_Source\PSoC6\pdl\middleware\ble/cy_ble_event_handler.c ****                         }
 522:Generated_Source\PSoC6\pdl\middleware\ble/cy_ble_event_handler.c ****                     #endif /* CY_BLE_GAP_ROLE_CENTRAL */
 523:Generated_Source\PSoC6\pdl\middleware\ble/cy_ble_event_handler.c ****                     
 524:Generated_Source\PSoC6\pdl\middleware\ble/cy_ble_event_handler.c ****                     /* Store information about role of device connected (Master/Slave)*/
 525:Generated_Source\PSoC6\pdl\middleware\ble/cy_ble_event_handler.c ****                     #if ((CY_BLE_GAP_ROLE_PERIPHERAL || CY_BLE_GAP_ROLE_CENTRAL))
 526:Generated_Source\PSoC6\pdl\middleware\ble/cy_ble_event_handler.c ****                     {   
 527:Generated_Source\PSoC6\pdl\middleware\ble/cy_ble_event_handler.c ****                         cy_stc_ble_conn_handle_t tconnHandle = Cy_BLE_GetConnHandleByBdHandle(tEvPa
ARM GAS  C:\Users\salaz\AppData\Local\Temp\ccj0QfQu.s 			page 48


 1123              		.loc 1 527 0
 1124 0462 EB7E     		ldrb	r3, [r5, #27]
 1125 0464 9846     		mov	r8, r3
 1126              	.LVL108:
 1127              	.LBB113:
 1128              	.LBB114:
 950:Generated_Source\PSoC6\pdl\middleware\ble/cy_ble_gap.h ****     {
 1129              		.loc 2 950 0
 1130 0466 0222     		movs	r2, #2
 1131 0468 A149     		ldr	r1, .L108+8
 1132 046a 0831     		adds	r1, r1, #8
 1133 046c 04A8     		add	r0, sp, #16
 1134              	.LVL109:
 1135 046e FFF7FEFF 		bl	memcpy
 1136              	.LVL110:
 956:Generated_Source\PSoC6\pdl\middleware\ble/cy_ble_gap.h ****     {
 1137              		.loc 2 956 0
 1138 0472 0026     		movs	r6, #0
 1139 0474 1DE0     		b	.L85
 1140              	.LVL111:
 1141              	.L89:
 1142 0476 05AF     		add	r7, sp, #20
 1143 0478 7300     		lsls	r3, r6, #1
 1144 047a 9E49     		ldr	r1, .L108+12
 1145 047c C918     		adds	r1, r1, r3
 1146 047e 0222     		movs	r2, #2
 1147 0480 3800     		movs	r0, r7
 1148 0482 FFF7FEFF 		bl	memcpy
 1149              	.LVL112:
 1150              	.LBB115:
 1151              	.LBB116:
 876:Generated_Source\PSoC6\pdl\middleware\ble/cy_ble_gap.h **** }
 1152              		.loc 2 876 0
 1153 0486 7B78     		ldrb	r3, [r7, #1]
 1154 0488 002B     		cmp	r3, #0
 1155 048a 02D1     		bne	.L105
 1156 048c 9A4A     		ldr	r2, .L108+16
 1157 048e D35C     		ldrb	r3, [r2, r3]
 1158 0490 00E0     		b	.L86
 1159              	.L105:
 1160 0492 0023     		movs	r3, #0
 1161              	.L86:
 1162              	.LBE116:
 1163              	.LBE115:
 958:Generated_Source\PSoC6\pdl\middleware\ble/cy_ble_gap.h ****                 (cy_ble_connHandle[i].bdHandle == bdHandle))
 1164              		.loc 2 958 0
 1165 0494 012B     		cmp	r3, #1
 1166 0496 0BD9     		bls	.L87
 959:Generated_Source\PSoC6\pdl\middleware\ble/cy_ble_gap.h ****         {
 1167              		.loc 2 959 0
 1168 0498 7300     		lsls	r3, r6, #1
 1169 049a 964A     		ldr	r2, .L108+12
 1170 049c 9B5C     		ldrb	r3, [r3, r2]
 958:Generated_Source\PSoC6\pdl\middleware\ble/cy_ble_gap.h ****                 (cy_ble_connHandle[i].bdHandle == bdHandle))
 1171              		.loc 2 958 0
 1172 049e 9845     		cmp	r8, r3
 1173 04a0 06D1     		bne	.L87
ARM GAS  C:\Users\salaz\AppData\Local\Temp\ccj0QfQu.s 			page 49


 961:Generated_Source\PSoC6\pdl\middleware\ble/cy_ble_gap.h ****             break;
 1174              		.loc 2 961 0
 1175 04a2 7600     		lsls	r6, r6, #1
 1176              	.LVL113:
 1177 04a4 9119     		adds	r1, r2, r6
 1178 04a6 0222     		movs	r2, #2
 1179 04a8 04A8     		add	r0, sp, #16
 1180 04aa FFF7FEFF 		bl	memcpy
 1181              	.LVL114:
 1182 04ae 02E0     		b	.L88
 1183              	.LVL115:
 1184              	.L87:
 956:Generated_Source\PSoC6\pdl\middleware\ble/cy_ble_gap.h ****     {
 1185              		.loc 2 956 0
 1186 04b0 0136     		adds	r6, r6, #1
 1187              	.LVL116:
 1188              	.L85:
 1189 04b2 002E     		cmp	r6, #0
 1190 04b4 DFD0     		beq	.L89
 1191              	.LVL117:
 1192              	.L88:
 965:Generated_Source\PSoC6\pdl\middleware\ble/cy_ble_gap.h ****     {
 1193              		.loc 2 965 0
 1194 04b6 04AB     		add	r3, sp, #16
 1195 04b8 5B78     		ldrb	r3, [r3, #1]
 1196 04ba FF2B     		cmp	r3, #255
 1197 04bc 05D1     		bne	.L90
 968:Generated_Source\PSoC6\pdl\middleware\ble/cy_ble_gap.h ****     }
 1198              		.loc 2 968 0
 1199 04be 04D1     		bne	.L90
 1200 04c0 F221     		movs	r1, #242
 1201 04c2 8900     		lsls	r1, r1, #2
 1202 04c4 8848     		ldr	r0, .L108
 1203 04c6 FFF7FEFF 		bl	Cy_SysLib_AssertFailed
 1204              	.LVL118:
 1205              	.L90:
 1206              		.loc 2 971 0
 1207 04ca 04AA     		add	r2, sp, #16
 1208 04cc 1388     		ldrh	r3, [r2]
 1209 04ce 0BA9     		add	r1, sp, #44
 1210 04d0 0B80     		strh	r3, [r1]
 1211 04d2 1380     		strh	r3, [r2]
 1212              	.LVL119:
 1213              	.LBE114:
 1214              	.LBE113:
 528:Generated_Source\PSoC6\pdl\middleware\ble/cy_ble_event_handler.c ****                         if( tconnHandle.attId != CY_BLE_INVALID_CONN_HANDLE_VALUE)   
 1215              		.loc 1 528 0
 1216 04d4 1B0A     		lsrs	r3, r3, #8
 1217 04d6 FF2B     		cmp	r3, #255
 1218 04d8 02D0     		beq	.L83
 529:Generated_Source\PSoC6\pdl\middleware\ble/cy_ble_event_handler.c ****                         {
 530:Generated_Source\PSoC6\pdl\middleware\ble/cy_ble_event_handler.c ****                             cy_ble_devConnRole[tconnHandle.attId] = tEvParam->role;
 1219              		.loc 1 530 0
 1220 04da 297E     		ldrb	r1, [r5, #24]
 1221 04dc 894A     		ldr	r2, .L108+28
 1222 04de D154     		strb	r1, [r2, r3]
 1223              	.L83:
ARM GAS  C:\Users\salaz\AppData\Local\Temp\ccj0QfQu.s 			page 50


 1224              	.LBE112:
 531:Generated_Source\PSoC6\pdl\middleware\ble/cy_ble_event_handler.c ****                         }
 532:Generated_Source\PSoC6\pdl\middleware\ble/cy_ble_event_handler.c ****                     }
 533:Generated_Source\PSoC6\pdl\middleware\ble/cy_ble_event_handler.c ****                     #endif /*((CY_BLE_GAP_ROLE_PERIPHERAL || CY_BLE_GAP_ROLE_CENTRAL))*/
 534:Generated_Source\PSoC6\pdl\middleware\ble/cy_ble_event_handler.c ****                 }
 535:Generated_Source\PSoC6\pdl\middleware\ble/cy_ble_event_handler.c ****                 Cy_BLE_SetState(CY_BLE_STATE_ON);
 1225              		.loc 1 535 0
 1226 04e0 0222     		movs	r2, #2
 1227 04e2 894B     		ldr	r3, .L108+32
 1228 04e4 1A70     		strb	r2, [r3]
 1229              	.LBE109:
 536:Generated_Source\PSoC6\pdl\middleware\ble/cy_ble_event_handler.c ****             }
 537:Generated_Source\PSoC6\pdl\middleware\ble/cy_ble_event_handler.c ****             break;
 1230              		.loc 1 537 0
 1231 04e6 28E1     		b	.L31
 1232              	.LVL120:
 1233              	.L47:
 538:Generated_Source\PSoC6\pdl\middleware\ble/cy_ble_event_handler.c **** 
 539:Generated_Source\PSoC6\pdl\middleware\ble/cy_ble_event_handler.c ****         case CY_BLE_EVT_GAP_DEVICE_DISCONNECTED:
 540:Generated_Source\PSoC6\pdl\middleware\ble/cy_ble_event_handler.c ****             Cy_BLE_SetState(CY_BLE_STATE_ON);
 1234              		.loc 1 540 0
 1235 04e8 0222     		movs	r2, #2
 1236 04ea 874B     		ldr	r3, .L108+32
 1237 04ec 1A70     		strb	r2, [r3]
 541:Generated_Source\PSoC6\pdl\middleware\ble/cy_ble_event_handler.c ****             break;
 1238              		.loc 1 541 0
 1239 04ee 24E1     		b	.L31
 1240              	.L42:
 542:Generated_Source\PSoC6\pdl\middleware\ble/cy_ble_event_handler.c ****         
 543:Generated_Source\PSoC6\pdl\middleware\ble/cy_ble_event_handler.c ****         #if (CY_BLE_GAP_ROLE_PERIPHERAL || CY_BLE_GAP_ROLE_BROADCASTER)
 544:Generated_Source\PSoC6\pdl\middleware\ble/cy_ble_event_handler.c ****         case CY_BLE_EVT_GAPP_ADVERTISEMENT_START_STOP:
 545:Generated_Source\PSoC6\pdl\middleware\ble/cy_ble_event_handler.c ****         #if (CY_BLE_GAP_ROLE_PERIPHERAL || CY_BLE_GAP_ROLE_CENTRAL)
 546:Generated_Source\PSoC6\pdl\middleware\ble/cy_ble_event_handler.c ****             (void)Cy_BLE_InvokeServiceEventHandler((uint32_t)event, (void*)evParam);
 1241              		.loc 1 546 0
 1242 04f0 2900     		movs	r1, r5
 1243 04f2 FFF7FEFF 		bl	Cy_BLE_InvokeServiceEventHandler
 1244              	.LVL121:
 547:Generated_Source\PSoC6\pdl\middleware\ble/cy_ble_event_handler.c ****         #endif /* (CY_BLE_GAP_ROLE_PERIPHERAL || CY_BLE_GAP_ROLE_CENTRAL) */
 548:Generated_Source\PSoC6\pdl\middleware\ble/cy_ble_event_handler.c **** 
 549:Generated_Source\PSoC6\pdl\middleware\ble/cy_ble_event_handler.c ****             if((cy_ble_eventHandlerFlag & CY_BLE_CALLBACK) != 0u)
 1245              		.loc 1 549 0
 1246 04f6 854B     		ldr	r3, .L108+36
 1247 04f8 1B78     		ldrb	r3, [r3]
 1248 04fa DB07     		lsls	r3, r3, #31
 1249 04fc 00D4     		bmi	.LCB1260
 1250 04fe 1CE1     		b	.L31	@long jump
 1251              	.LCB1260:
 1252              	.LBB117:
 1253              	.LBB118:
 745:Generated_Source\PSoC6\pdl\middleware\ble/cy_ble_gap.h **** }
 1254              		.loc 2 745 0
 1255 0500 7F4B     		ldr	r3, .L108+24
 1256 0502 1B78     		ldrb	r3, [r3]
 1257              	.LBE118:
 1258              	.LBE117:
 550:Generated_Source\PSoC6\pdl\middleware\ble/cy_ble_event_handler.c ****             {
 551:Generated_Source\PSoC6\pdl\middleware\ble/cy_ble_event_handler.c ****                 /* After Cy_BLE_GAPP_StartAdvertisement, the first event indicates that advertising
ARM GAS  C:\Users\salaz\AppData\Local\Temp\ccj0QfQu.s 			page 51


 552:Generated_Source\PSoC6\pdl\middleware\ble/cy_ble_event_handler.c ****                 if(Cy_BLE_GetAdvertisementState() == CY_BLE_ADV_STATE_ADV_INITIATED)
 1259              		.loc 1 552 0
 1260 0504 012B     		cmp	r3, #1
 1261 0506 03D1     		bne	.L92
 1262              	.LVL122:
 1263              	.LBB119:
 1264              	.LBB120:
 763:Generated_Source\PSoC6\pdl\middleware\ble/cy_ble_gap.h **** }
 1265              		.loc 2 763 0
 1266 0508 0222     		movs	r2, #2
 1267 050a 7D4B     		ldr	r3, .L108+24
 1268 050c 1A70     		strb	r2, [r3]
 1269 050e 14E1     		b	.L31
 1270              	.LVL123:
 1271              	.L92:
 1272              	.LBE120:
 1273              	.LBE119:
 553:Generated_Source\PSoC6\pdl\middleware\ble/cy_ble_event_handler.c ****                 {
 554:Generated_Source\PSoC6\pdl\middleware\ble/cy_ble_event_handler.c ****                     Cy_BLE_SetAdvertisementState(CY_BLE_ADV_STATE_ADVERTISING);
 555:Generated_Source\PSoC6\pdl\middleware\ble/cy_ble_event_handler.c ****                 }
 556:Generated_Source\PSoC6\pdl\middleware\ble/cy_ble_event_handler.c ****                 /* When the application initiated a stop advertisement */
 557:Generated_Source\PSoC6\pdl\middleware\ble/cy_ble_event_handler.c ****                 else if(Cy_BLE_GetAdvertisementState() == CY_BLE_ADV_STATE_STOP_INITIATED)
 1274              		.loc 1 557 0
 1275 0510 032B     		cmp	r3, #3
 1276 0512 03D1     		bne	.L93
 1277              	.LVL124:
 1278              	.LBB121:
 1279              	.LBB122:
 763:Generated_Source\PSoC6\pdl\middleware\ble/cy_ble_gap.h **** }
 1280              		.loc 2 763 0
 1281 0514 0022     		movs	r2, #0
 1282 0516 7A4B     		ldr	r3, .L108+24
 1283 0518 1A70     		strb	r2, [r3]
 1284 051a 0EE1     		b	.L31
 1285              	.LVL125:
 1286              	.L93:
 1287              	.LBE122:
 1288              	.LBE121:
 558:Generated_Source\PSoC6\pdl\middleware\ble/cy_ble_event_handler.c ****                 {
 559:Generated_Source\PSoC6\pdl\middleware\ble/cy_ble_event_handler.c ****                     Cy_BLE_SetAdvertisementState(CY_BLE_ADV_STATE_STOPPED);
 560:Generated_Source\PSoC6\pdl\middleware\ble/cy_ble_event_handler.c ****                 }
 561:Generated_Source\PSoC6\pdl\middleware\ble/cy_ble_event_handler.c ****                 else /* The following event indicates that advertising has been stopped */
 562:Generated_Source\PSoC6\pdl\middleware\ble/cy_ble_event_handler.c ****                 {
 563:Generated_Source\PSoC6\pdl\middleware\ble/cy_ble_event_handler.c ****                     if(Cy_BLE_GetAdvertisementState() == CY_BLE_ADV_STATE_ADVERTISING)
 1289              		.loc 1 563 0
 1290 051c 022B     		cmp	r3, #2
 1291 051e 00D0     		beq	.LCB1298
 1292 0520 0BE1     		b	.L31	@long jump
 1293              	.LCB1298:
 1294              	.LVL126:
 1295              	.LBB123:
 1296              	.LBB124:
 763:Generated_Source\PSoC6\pdl\middleware\ble/cy_ble_gap.h **** }
 1297              		.loc 2 763 0
 1298 0522 0022     		movs	r2, #0
 1299 0524 764B     		ldr	r3, .L108+24
 1300 0526 1A70     		strb	r2, [r3]
ARM GAS  C:\Users\salaz\AppData\Local\Temp\ccj0QfQu.s 			page 52


 1301              	.LVL127:
 1302              	.LBE124:
 1303              	.LBE123:
 564:Generated_Source\PSoC6\pdl\middleware\ble/cy_ble_event_handler.c ****                     {
 565:Generated_Source\PSoC6\pdl\middleware\ble/cy_ble_event_handler.c ****                         Cy_BLE_SetAdvertisementState(CY_BLE_ADV_STATE_STOPPED);
 566:Generated_Source\PSoC6\pdl\middleware\ble/cy_ble_event_handler.c ****                         if((cy_ble_configPtr->gappAdvParams[cy_ble_advIndex].slowAdvEnable != 0u) &
 1304              		.loc 1 566 0
 1305 0528 794B     		ldr	r3, .L108+40
 1306 052a 1B68     		ldr	r3, [r3]
 1307 052c 5868     		ldr	r0, [r3, #4]
 1308 052e 794B     		ldr	r3, .L108+44
 1309 0530 1978     		ldrb	r1, [r3]
 1310 0532 CA00     		lsls	r2, r1, #3
 1311 0534 531A     		subs	r3, r2, r1
 1312 0536 5B00     		lsls	r3, r3, #1
 1313 0538 C318     		adds	r3, r0, r3
 1314 053a 9A79     		ldrb	r2, [r3, #6]
 1315 053c 002A     		cmp	r2, #0
 1316 053e 00D1     		bne	.LCB1319
 1317 0540 FBE0     		b	.L31	@long jump
 1318              	.LCB1319:
 567:Generated_Source\PSoC6\pdl\middleware\ble/cy_ble_event_handler.c ****                            (cy_ble_configPtr->gappAdvParams[cy_ble_advIndex].fastAdvTimeOut != 0u))
 1319              		.loc 1 567 0 discriminator 1
 1320 0542 9B88     		ldrh	r3, [r3, #4]
 566:Generated_Source\PSoC6\pdl\middleware\ble/cy_ble_event_handler.c ****                            (cy_ble_configPtr->gappAdvParams[cy_ble_advIndex].fastAdvTimeOut != 0u))
 1321              		.loc 1 566 0 discriminator 1
 1322 0544 002B     		cmp	r3, #0
 1323 0546 00D1     		bne	.LCB1322
 1324 0548 F7E0     		b	.L31	@long jump
 1325              	.LCB1322:
 568:Generated_Source\PSoC6\pdl\middleware\ble/cy_ble_event_handler.c ****                         {
 569:Generated_Source\PSoC6\pdl\middleware\ble/cy_ble_event_handler.c ****                             if(cy_ble_advertisingIntervalType == CY_BLE_ADVERTISING_FAST)
 1326              		.loc 1 569 0
 1327 054a 734B     		ldr	r3, .L108+48
 1328 054c 1B78     		ldrb	r3, [r3]
 1329 054e 002B     		cmp	r3, #0
 1330 0550 00D0     		beq	.LCB1326
 1331 0552 F2E0     		b	.L31	@long jump
 1332              	.LCB1326:
 570:Generated_Source\PSoC6\pdl\middleware\ble/cy_ble_event_handler.c ****                             {
 571:Generated_Source\PSoC6\pdl\middleware\ble/cy_ble_event_handler.c ****                                 /* When fast advertising time out occur: Start slow advertising */
 572:Generated_Source\PSoC6\pdl\middleware\ble/cy_ble_event_handler.c ****                                 if(Cy_BLE_GAPP_StartAdvertisement(CY_BLE_ADVERTISING_SLOW, cy_ble_a
 1333              		.loc 1 572 0
 1334 0554 0120     		movs	r0, #1
 1335 0556 FFF7FEFF 		bl	Cy_BLE_GAPP_StartAdvertisement
 1336              	.LVL128:
 1337 055a 0028     		cmp	r0, #0
 1338 055c 00D0     		beq	.LCB1331
 1339 055e ECE0     		b	.L31	@long jump
 1340              	.LCB1331:
 1341              	.LVL129:
 1342              	.LBB125:
 1343              	.LBB126:
 763:Generated_Source\PSoC6\pdl\middleware\ble/cy_ble_gap.h **** }
 1344              		.loc 2 763 0
 1345 0560 0122     		movs	r2, #1
 1346 0562 674B     		ldr	r3, .L108+24
ARM GAS  C:\Users\salaz\AppData\Local\Temp\ccj0QfQu.s 			page 53


 1347 0564 1A70     		strb	r2, [r3]
 1348 0566 E8E0     		b	.L31
 1349              	.LVL130:
 1350              	.L60:
 1351              	.LBE126:
 1352              	.LBE125:
 573:Generated_Source\PSoC6\pdl\middleware\ble/cy_ble_event_handler.c ****                                    CY_BLE_SUCCESS)
 574:Generated_Source\PSoC6\pdl\middleware\ble/cy_ble_event_handler.c ****                                 {
 575:Generated_Source\PSoC6\pdl\middleware\ble/cy_ble_event_handler.c ****                                     Cy_BLE_SetAdvertisementState(CY_BLE_ADV_STATE_ADV_INITIATED);
 576:Generated_Source\PSoC6\pdl\middleware\ble/cy_ble_event_handler.c ****                                 }
 577:Generated_Source\PSoC6\pdl\middleware\ble/cy_ble_event_handler.c ****                             }
 578:Generated_Source\PSoC6\pdl\middleware\ble/cy_ble_event_handler.c ****                         }
 579:Generated_Source\PSoC6\pdl\middleware\ble/cy_ble_event_handler.c ****                     }
 580:Generated_Source\PSoC6\pdl\middleware\ble/cy_ble_event_handler.c ****                 }
 581:Generated_Source\PSoC6\pdl\middleware\ble/cy_ble_event_handler.c ****             }
 582:Generated_Source\PSoC6\pdl\middleware\ble/cy_ble_event_handler.c ****             break;
 583:Generated_Source\PSoC6\pdl\middleware\ble/cy_ble_event_handler.c ****         #endif /* CY_BLE_GAP_ROLE_PERIPHERAL || CY_BLE_GAP_ROLE_BROADCASTER */
 584:Generated_Source\PSoC6\pdl\middleware\ble/cy_ble_event_handler.c **** 
 585:Generated_Source\PSoC6\pdl\middleware\ble/cy_ble_event_handler.c ****         #if (CY_BLE_GAP_ROLE_CENTRAL || CY_BLE_GAP_ROLE_OBSERVER)
 586:Generated_Source\PSoC6\pdl\middleware\ble/cy_ble_event_handler.c ****         case CY_BLE_EVT_GAPC_SCAN_START_STOP:
 587:Generated_Source\PSoC6\pdl\middleware\ble/cy_ble_event_handler.c ****         #if (CY_BLE_GAP_ROLE_CENTRAL)
 588:Generated_Source\PSoC6\pdl\middleware\ble/cy_ble_event_handler.c ****             (void)Cy_BLE_InvokeServiceEventHandler((uint32_t)event, (void*)evParam);
 589:Generated_Source\PSoC6\pdl\middleware\ble/cy_ble_event_handler.c ****         #endif /* (CY_BLE_GAP_ROLE_CENTRAL) */
 590:Generated_Source\PSoC6\pdl\middleware\ble/cy_ble_event_handler.c **** 
 591:Generated_Source\PSoC6\pdl\middleware\ble/cy_ble_event_handler.c ****             if((cy_ble_eventHandlerFlag & CY_BLE_CALLBACK) != 0u)
 592:Generated_Source\PSoC6\pdl\middleware\ble/cy_ble_event_handler.c ****             {
 593:Generated_Source\PSoC6\pdl\middleware\ble/cy_ble_event_handler.c ****                 /* After Cy_BLE_GAPC_StartScan, the first event indicates that scanning has been st
 594:Generated_Source\PSoC6\pdl\middleware\ble/cy_ble_event_handler.c ****                 if(Cy_BLE_GetScanState() == CY_BLE_SCAN_STATE_SCAN_INITIATED)
 595:Generated_Source\PSoC6\pdl\middleware\ble/cy_ble_event_handler.c ****                 {
 596:Generated_Source\PSoC6\pdl\middleware\ble/cy_ble_event_handler.c ****                     Cy_BLE_SetScanState(CY_BLE_SCAN_STATE_SCANNING);
 597:Generated_Source\PSoC6\pdl\middleware\ble/cy_ble_event_handler.c ****                 }
 598:Generated_Source\PSoC6\pdl\middleware\ble/cy_ble_event_handler.c ****                 /* When the application initiated stop scanning */
 599:Generated_Source\PSoC6\pdl\middleware\ble/cy_ble_event_handler.c ****                 else if(Cy_BLE_GetScanState() == CY_BLE_SCAN_STATE_STOP_INITIATED)
 600:Generated_Source\PSoC6\pdl\middleware\ble/cy_ble_event_handler.c ****                 {
 601:Generated_Source\PSoC6\pdl\middleware\ble/cy_ble_event_handler.c ****                     Cy_BLE_SetScanState(CY_BLE_SCAN_STATE_STOPPED);
 602:Generated_Source\PSoC6\pdl\middleware\ble/cy_ble_event_handler.c ****                 }
 603:Generated_Source\PSoC6\pdl\middleware\ble/cy_ble_event_handler.c ****                 else /* The following event indicates that scanning has been stopped by BLE Stack *
 604:Generated_Source\PSoC6\pdl\middleware\ble/cy_ble_event_handler.c ****                 {
 605:Generated_Source\PSoC6\pdl\middleware\ble/cy_ble_event_handler.c ****                     if(Cy_BLE_GetScanState() == CY_BLE_SCAN_STATE_SCANNING)
 606:Generated_Source\PSoC6\pdl\middleware\ble/cy_ble_event_handler.c ****                     {
 607:Generated_Source\PSoC6\pdl\middleware\ble/cy_ble_event_handler.c ****                         Cy_BLE_SetScanState(CY_BLE_SCAN_STATE_STOPPED);
 608:Generated_Source\PSoC6\pdl\middleware\ble/cy_ble_event_handler.c ****                         if((cy_ble_configPtr->gapcScanParams[cy_ble_scanIndex].slowScanEnabled != 0
 609:Generated_Source\PSoC6\pdl\middleware\ble/cy_ble_event_handler.c ****                            (cy_ble_configPtr->gapcScanParams[cy_ble_scanIndex].fastScanTimeOut != 0
 610:Generated_Source\PSoC6\pdl\middleware\ble/cy_ble_event_handler.c ****                         {
 611:Generated_Source\PSoC6\pdl\middleware\ble/cy_ble_event_handler.c ****                             if(cy_ble_scanningIntervalType == CY_BLE_SCANNING_FAST)
 612:Generated_Source\PSoC6\pdl\middleware\ble/cy_ble_event_handler.c ****                             {
 613:Generated_Source\PSoC6\pdl\middleware\ble/cy_ble_event_handler.c ****                                 /* When a fast scanning timeout occurs: Start slow scanning */
 614:Generated_Source\PSoC6\pdl\middleware\ble/cy_ble_event_handler.c ****                                 if(Cy_BLE_GAPC_StartScan(CY_BLE_SCANNING_SLOW, cy_ble_scanIndex) ==
 615:Generated_Source\PSoC6\pdl\middleware\ble/cy_ble_event_handler.c ****                                 {
 616:Generated_Source\PSoC6\pdl\middleware\ble/cy_ble_event_handler.c ****                                     Cy_BLE_SetScanState(CY_BLE_SCAN_STATE_SCAN_INITIATED);
 617:Generated_Source\PSoC6\pdl\middleware\ble/cy_ble_event_handler.c ****                                 }
 618:Generated_Source\PSoC6\pdl\middleware\ble/cy_ble_event_handler.c ****                             }
 619:Generated_Source\PSoC6\pdl\middleware\ble/cy_ble_event_handler.c ****                         }
 620:Generated_Source\PSoC6\pdl\middleware\ble/cy_ble_event_handler.c ****                     }
 621:Generated_Source\PSoC6\pdl\middleware\ble/cy_ble_event_handler.c ****                 }
 622:Generated_Source\PSoC6\pdl\middleware\ble/cy_ble_event_handler.c ****             }
 623:Generated_Source\PSoC6\pdl\middleware\ble/cy_ble_event_handler.c ****             break;
ARM GAS  C:\Users\salaz\AppData\Local\Temp\ccj0QfQu.s 			page 54


 624:Generated_Source\PSoC6\pdl\middleware\ble/cy_ble_event_handler.c ****         #endif /* CY_BLE_GAP_ROLE_CENTRAL || CY_BLE_GAP_ROLE_OBSERVER */
 625:Generated_Source\PSoC6\pdl\middleware\ble/cy_ble_event_handler.c **** 
 626:Generated_Source\PSoC6\pdl\middleware\ble/cy_ble_event_handler.c ****         /**********************************************************
 627:Generated_Source\PSoC6\pdl\middleware\ble/cy_ble_event_handler.c ****          * L2AP events
 628:Generated_Source\PSoC6\pdl\middleware\ble/cy_ble_event_handler.c ****          ************************************************************/
 629:Generated_Source\PSoC6\pdl\middleware\ble/cy_ble_event_handler.c ****         case CY_BLE_EVT_L2CAP_CONN_PARAM_UPDATE_RSP:
 630:Generated_Source\PSoC6\pdl\middleware\ble/cy_ble_event_handler.c ****         #if (CY_BLE_GAP_ROLE_PERIPHERAL || CY_BLE_GAP_ROLE_CENTRAL)
 631:Generated_Source\PSoC6\pdl\middleware\ble/cy_ble_event_handler.c ****             (void)Cy_BLE_InvokeServiceEventHandler((uint32_t)event, (void*)evParam);
 1353              		.loc 1 631 0
 1354 0568 2900     		movs	r1, r5
 1355 056a FFF7FEFF 		bl	Cy_BLE_InvokeServiceEventHandler
 1356              	.LVL131:
 632:Generated_Source\PSoC6\pdl\middleware\ble/cy_ble_event_handler.c ****         #endif /* (CY_BLE_GAP_ROLE_PERIPHERAL || CY_BLE_GAP_ROLE_CENTRAL) */
 633:Generated_Source\PSoC6\pdl\middleware\ble/cy_ble_event_handler.c ****             break;
 1357              		.loc 1 633 0
 1358 056e E4E0     		b	.L31
 1359              	.LVL132:
 1360              	.L52:
 1361 0570 0222     		movs	r2, #2
 1362 0572 2900     		movs	r1, r5
 1363 0574 6846     		mov	r0, sp
 1364              	.LVL133:
 1365 0576 FFF7FEFF 		bl	memcpy
 1366              	.LVL134:
 1367              	.LBB127:
 1368              	.LBB128:
 893:Generated_Source\PSoC6\pdl\middleware\ble/cy_ble_gap.h ****     {
 1369              		.loc 2 893 0
 1370 057a 6B46     		mov	r3, sp
 1371 057c 5B78     		ldrb	r3, [r3, #1]
 1372 057e 002B     		cmp	r3, #0
 1373 0580 03D1     		bne	.L94
 895:Generated_Source\PSoC6\pdl\middleware\ble/cy_ble_gap.h ****     }
 1374              		.loc 2 895 0
 1375 0582 0221     		movs	r1, #2
 1376 0584 5C4A     		ldr	r2, .L108+16
 1377 0586 D154     		strb	r1, [r2, r3]
 1378 0588 06E0     		b	.L95
 1379              	.L94:
 900:Generated_Source\PSoC6\pdl\middleware\ble/cy_ble_gap.h ****     }
 1380              		.loc 2 900 0
 1381 058a 002B     		cmp	r3, #0
 1382 058c 04D1     		bne	.L95
 1383 058e E121     		movs	r1, #225
 1384 0590 8900     		lsls	r1, r1, #2
 1385 0592 5548     		ldr	r0, .L108
 1386 0594 FFF7FEFF 		bl	Cy_SysLib_AssertFailed
 1387              	.LVL135:
 1388              	.L95:
 1389              	.LBE128:
 1390              	.LBE127:
 634:Generated_Source\PSoC6\pdl\middleware\ble/cy_ble_event_handler.c **** 
 635:Generated_Source\PSoC6\pdl\middleware\ble/cy_ble_event_handler.c ****             /**********************************************************
 636:Generated_Source\PSoC6\pdl\middleware\ble/cy_ble_event_handler.c ****              * GATT events
 637:Generated_Source\PSoC6\pdl\middleware\ble/cy_ble_event_handler.c ****              ************************************************************/
 638:Generated_Source\PSoC6\pdl\middleware\ble/cy_ble_event_handler.c ****         #if ((CY_BLE_GATT_ROLE_SERVER) || (CY_BLE_GATT_ROLE_CLIENT))
 639:Generated_Source\PSoC6\pdl\middleware\ble/cy_ble_event_handler.c ****         case CY_BLE_EVT_GATT_CONNECT_IND:
ARM GAS  C:\Users\salaz\AppData\Local\Temp\ccj0QfQu.s 			page 55


 640:Generated_Source\PSoC6\pdl\middleware\ble/cy_ble_event_handler.c ****         #if (CY_BLE_GATT_ROLE_CLIENT)
 641:Generated_Source\PSoC6\pdl\middleware\ble/cy_ble_event_handler.c ****             /* If connected to the same device which is already discovered */
 642:Generated_Source\PSoC6\pdl\middleware\ble/cy_ble_event_handler.c ****             if((Cy_BLE_GetConnectionState(*(cy_stc_ble_conn_handle_t*)evParam) ==
 643:Generated_Source\PSoC6\pdl\middleware\ble/cy_ble_event_handler.c ****                 CY_BLE_CONN_STATE_CLIENT_DISCONNECTED_DISCOVERED) &&
 644:Generated_Source\PSoC6\pdl\middleware\ble/cy_ble_event_handler.c ****                (((cy_stc_ble_conn_handle_t*)evParam)->bdHandle ==
 645:Generated_Source\PSoC6\pdl\middleware\ble/cy_ble_event_handler.c ****                 cy_ble_connHandle[((cy_stc_ble_conn_handle_t*)evParam)->attId].bdHandle))
 646:Generated_Source\PSoC6\pdl\middleware\ble/cy_ble_event_handler.c ****             {   /* Set a discovered state */
 647:Generated_Source\PSoC6\pdl\middleware\ble/cy_ble_event_handler.c ****                 Cy_BLE_SetConnectionState(*(cy_stc_ble_conn_handle_t*)evParam, CY_BLE_CONN_STATE_CL
 648:Generated_Source\PSoC6\pdl\middleware\ble/cy_ble_event_handler.c ****             }
 649:Generated_Source\PSoC6\pdl\middleware\ble/cy_ble_event_handler.c ****             else    /* Connected to a new device */
 650:Generated_Source\PSoC6\pdl\middleware\ble/cy_ble_event_handler.c ****         #endif /* CY_BLE_GATT_ROLE_CLIENT */
 651:Generated_Source\PSoC6\pdl\middleware\ble/cy_ble_event_handler.c ****             {
 652:Generated_Source\PSoC6\pdl\middleware\ble/cy_ble_event_handler.c ****                 /* Clear the discovery index for the Client role */
 653:Generated_Source\PSoC6\pdl\middleware\ble/cy_ble_event_handler.c ****             #if (CY_BLE_GATT_ROLE_CLIENT)
 654:Generated_Source\PSoC6\pdl\middleware\ble/cy_ble_event_handler.c ****                 (void)Cy_BLE_GATTC_RemoveConnHandle(*(cy_stc_ble_conn_handle_t*)evParam);
 655:Generated_Source\PSoC6\pdl\middleware\ble/cy_ble_event_handler.c ****             #endif /* CY_BLE_GATT_ROLE_CLIENT */
 656:Generated_Source\PSoC6\pdl\middleware\ble/cy_ble_event_handler.c ****                 Cy_BLE_SetConnectionState(*(cy_stc_ble_conn_handle_t*)evParam, CY_BLE_CONN_STATE_CO
 657:Generated_Source\PSoC6\pdl\middleware\ble/cy_ble_event_handler.c ****                 cy_ble_connHandle[((cy_stc_ble_conn_handle_t*)evParam)->attId] = *(cy_stc_ble_conn_
 1391              		.loc 1 657 0
 1392 0598 6878     		ldrb	r0, [r5, #1]
 1393 059a 4000     		lsls	r0, r0, #1
 1394 059c 554B     		ldr	r3, .L108+12
 1395 059e 1818     		adds	r0, r3, r0
 1396 05a0 0222     		movs	r2, #2
 1397 05a2 2900     		movs	r1, r5
 1398 05a4 FFF7FEFF 		bl	memcpy
 1399              	.LVL136:
 658:Generated_Source\PSoC6\pdl\middleware\ble/cy_ble_event_handler.c ****             }
 659:Generated_Source\PSoC6\pdl\middleware\ble/cy_ble_event_handler.c **** 
 660:Generated_Source\PSoC6\pdl\middleware\ble/cy_ble_event_handler.c ****             cy_ble_busyStatus[((cy_stc_ble_conn_handle_t*)evParam)->attId] = CY_BLE_STACK_STATE_FRE
 1400              		.loc 1 660 0
 1401 05a8 6B78     		ldrb	r3, [r5, #1]
 1402 05aa 0021     		movs	r1, #0
 1403 05ac 5B4A     		ldr	r2, .L108+52
 1404 05ae D154     		strb	r1, [r2, r3]
 661:Generated_Source\PSoC6\pdl\middleware\ble/cy_ble_event_handler.c **** 
 662:Generated_Source\PSoC6\pdl\middleware\ble/cy_ble_event_handler.c ****         #if ((CY_BLE_GATT_ROLE_SERVER) && (CY_BLE_GATT_DB_CCCD_COUNT != 0u) && \
 663:Generated_Source\PSoC6\pdl\middleware\ble/cy_ble_event_handler.c ****             (CY_BLE_BONDING_REQUIREMENT == CY_BLE_BONDING_YES))
 664:Generated_Source\PSoC6\pdl\middleware\ble/cy_ble_event_handler.c ****             
 665:Generated_Source\PSoC6\pdl\middleware\ble/cy_ble_event_handler.c ****             /* Initialize the CCCD values in the RAM when bonding is enabled */
 666:Generated_Source\PSoC6\pdl\middleware\ble/cy_ble_event_handler.c ****             (void)memcpy((uint8_t*)cy_ble_attValuesCccdMultiple[((cy_stc_ble_conn_handle_t*)evParam
 1405              		.loc 1 666 0
 1406 05b0 9800     		lsls	r0, r3, #2
 1407 05b2 C018     		adds	r0, r0, r3
 1408 05b4 4000     		lsls	r0, r0, #1
 1409 05b6 C018     		adds	r0, r0, r3
 1410 05b8 594E     		ldr	r6, .L108+56
 1411 05ba 8019     		adds	r0, r0, r6
 667:Generated_Source\PSoC6\pdl\middleware\ble/cy_ble_event_handler.c ****                          cy_ble_configPtr->flashStorage->attValuesCCCDFlashMemory[((cy_stc_ble_conn
 1412              		.loc 1 667 0
 1413 05bc 544B     		ldr	r3, .L108+40
 1414 05be 1B68     		ldr	r3, [r3]
 1415 05c0 1969     		ldr	r1, [r3, #16]
 1416 05c2 2B78     		ldrb	r3, [r5]
 1417 05c4 9A00     		lsls	r2, r3, #2
 1418 05c6 D218     		adds	r2, r2, r3
 1419 05c8 5200     		lsls	r2, r2, #1
ARM GAS  C:\Users\salaz\AppData\Local\Temp\ccj0QfQu.s 			page 56


 1420 05ca D318     		adds	r3, r2, r3
 1421 05cc 554A     		ldr	r2, .L108+60
 1422 05ce 9446     		mov	ip, r2
 1423 05d0 6344     		add	r3, r3, ip
 1424 05d2 C918     		adds	r1, r1, r3
 1425 05d4 0631     		adds	r1, r1, #6
 666:Generated_Source\PSoC6\pdl\middleware\ble/cy_ble_event_handler.c ****                          cy_ble_configPtr->flashStorage->attValuesCCCDFlashMemory[((cy_stc_ble_conn
 1426              		.loc 1 666 0
 1427 05d6 0B22     		movs	r2, #11
 1428 05d8 FFF7FEFF 		bl	memcpy
 1429              	.LVL137:
 1430              	.LBB129:
 668:Generated_Source\PSoC6\pdl\middleware\ble/cy_ble_event_handler.c ****                                                                                    bdHandle],
 669:Generated_Source\PSoC6\pdl\middleware\ble/cy_ble_event_handler.c ****                          CY_BLE_GATT_DB_CCCD_COUNT + CY_BLE_CCCD_CRC_BYTE);
 670:Generated_Source\PSoC6\pdl\middleware\ble/cy_ble_event_handler.c **** 
 671:Generated_Source\PSoC6\pdl\middleware\ble/cy_ble_event_handler.c ****             /* Check CRC for CCCD data */
 672:Generated_Source\PSoC6\pdl\middleware\ble/cy_ble_event_handler.c ****             {
 673:Generated_Source\PSoC6\pdl\middleware\ble/cy_ble_event_handler.c ****                 uint8_t cccdCrc = Cy_BLE_HAL_CalcCRC8(cy_ble_attValuesCccdMultiple[((cy_stc_ble_con
 1431              		.loc 1 673 0
 1432 05dc 6B78     		ldrb	r3, [r5, #1]
 1433 05de 9800     		lsls	r0, r3, #2
 1434 05e0 C018     		adds	r0, r0, r3
 1435 05e2 4000     		lsls	r0, r0, #1
 1436 05e4 C018     		adds	r0, r0, r3
 1437 05e6 8019     		adds	r0, r0, r6
 1438 05e8 0A21     		movs	r1, #10
 1439 05ea FFF7FEFF 		bl	Cy_BLE_HAL_CalcCRC8
 1440              	.LVL138:
 674:Generated_Source\PSoC6\pdl\middleware\ble/cy_ble_event_handler.c ****                                                       CY_BLE_GATT_DB_CCCD_COUNT);
 675:Generated_Source\PSoC6\pdl\middleware\ble/cy_ble_event_handler.c **** 
 676:Generated_Source\PSoC6\pdl\middleware\ble/cy_ble_event_handler.c ****                 if(cy_ble_attValuesCccdMultiple[((cy_stc_ble_conn_handle_t*)evParam)->attId][CY_BLE
 1441              		.loc 1 676 0
 1442 05ee 6B78     		ldrb	r3, [r5, #1]
 1443 05f0 9A00     		lsls	r2, r3, #2
 1444 05f2 D218     		adds	r2, r2, r3
 1445 05f4 5200     		lsls	r2, r2, #1
 1446 05f6 D318     		adds	r3, r2, r3
 1447 05f8 F618     		adds	r6, r6, r3
 1448 05fa B37A     		ldrb	r3, [r6, #10]
 1449 05fc 9842     		cmp	r0, r3
 1450 05fe 0FD0     		beq	.L96
 677:Generated_Source\PSoC6\pdl\middleware\ble/cy_ble_event_handler.c ****                 {
 678:Generated_Source\PSoC6\pdl\middleware\ble/cy_ble_event_handler.c ****                     /* Inform that the CRC for CCCD is wrong */
 679:Generated_Source\PSoC6\pdl\middleware\ble/cy_ble_event_handler.c ****                     Cy_BLE_ApplCallback((uint32_t)CY_BLE_EVT_GATTS_EVT_CCCD_CORRUPT, NULL);
 1451              		.loc 1 679 0
 1452 0600 494B     		ldr	r3, .L108+64
 1453 0602 1B68     		ldr	r3, [r3]
 1454 0604 0021     		movs	r1, #0
 1455 0606 4948     		ldr	r0, .L108+68
 1456              	.LVL139:
 1457 0608 9847     		blx	r3
 1458              	.LVL140:
 680:Generated_Source\PSoC6\pdl\middleware\ble/cy_ble_event_handler.c ****                     
 681:Generated_Source\PSoC6\pdl\middleware\ble/cy_ble_event_handler.c ****                     /* Clean the CCCD buffer in the RAM */
 682:Generated_Source\PSoC6\pdl\middleware\ble/cy_ble_event_handler.c ****                     (void)memset((uint8_t*)cy_ble_attValuesCccdMultiple[((cy_stc_ble_conn_handle_t*
 1459              		.loc 1 682 0
 1460 060a 6B78     		ldrb	r3, [r5, #1]
ARM GAS  C:\Users\salaz\AppData\Local\Temp\ccj0QfQu.s 			page 57


 1461 060c 9800     		lsls	r0, r3, #2
 1462 060e C018     		adds	r0, r0, r3
 1463 0610 4000     		lsls	r0, r0, #1
 1464 0612 C318     		adds	r3, r0, r3
 1465 0614 4248     		ldr	r0, .L108+56
 1466 0616 1818     		adds	r0, r3, r0
 1467 0618 0B22     		movs	r2, #11
 1468 061a 0021     		movs	r1, #0
 1469 061c FFF7FEFF 		bl	memset
 1470              	.LVL141:
 1471              	.L96:
 1472              	.LBE129:
 683:Generated_Source\PSoC6\pdl\middleware\ble/cy_ble_event_handler.c ****                                   0, CY_BLE_GATT_DB_CCCD_COUNT + CY_BLE_CCCD_CRC_BYTE);
 684:Generated_Source\PSoC6\pdl\middleware\ble/cy_ble_event_handler.c ****                 }            
 685:Generated_Source\PSoC6\pdl\middleware\ble/cy_ble_event_handler.c ****             }        
 686:Generated_Source\PSoC6\pdl\middleware\ble/cy_ble_event_handler.c ****         #endif /* CY_BLE_GATT_ROLE_SERVER && (CY_BLE_BONDING_REQUIREMENT == CY_BLE_BONDING_YES) */
 687:Generated_Source\PSoC6\pdl\middleware\ble/cy_ble_event_handler.c **** 
 688:Generated_Source\PSoC6\pdl\middleware\ble/cy_ble_event_handler.c ****             (void)Cy_BLE_InvokeServiceEventHandler((uint32_t)event, (void*)evParam);
 1473              		.loc 1 688 0
 1474 0620 2900     		movs	r1, r5
 1475 0622 2000     		movs	r0, r4
 1476 0624 FFF7FEFF 		bl	Cy_BLE_InvokeServiceEventHandler
 1477              	.LVL142:
 689:Generated_Source\PSoC6\pdl\middleware\ble/cy_ble_event_handler.c ****             break;
 1478              		.loc 1 689 0
 1479 0628 87E0     		b	.L31
 1480              	.LVL143:
 1481              	.L50:
 1482 062a 01AE     		add	r6, sp, #4
 1483 062c 0222     		movs	r2, #2
 1484 062e 2900     		movs	r1, r5
 1485 0630 3000     		movs	r0, r6
 1486              	.LVL144:
 1487 0632 FFF7FEFF 		bl	memcpy
 1488              	.LVL145:
 1489              	.LBB130:
 1490              	.LBB131:
 893:Generated_Source\PSoC6\pdl\middleware\ble/cy_ble_gap.h ****     {
 1491              		.loc 2 893 0
 1492 0636 7378     		ldrb	r3, [r6, #1]
 1493 0638 002B     		cmp	r3, #0
 1494 063a 03D1     		bne	.L97
 895:Generated_Source\PSoC6\pdl\middleware\ble/cy_ble_gap.h ****     }
 1495              		.loc 2 895 0
 1496 063c 0021     		movs	r1, #0
 1497 063e 2E4A     		ldr	r2, .L108+16
 1498 0640 D154     		strb	r1, [r2, r3]
 1499 0642 06E0     		b	.L98
 1500              	.L97:
 900:Generated_Source\PSoC6\pdl\middleware\ble/cy_ble_gap.h ****     }
 1501              		.loc 2 900 0
 1502 0644 002B     		cmp	r3, #0
 1503 0646 04D1     		bne	.L98
 1504 0648 E121     		movs	r1, #225
 1505 064a 8900     		lsls	r1, r1, #2
 1506 064c 2648     		ldr	r0, .L108
 1507 064e FFF7FEFF 		bl	Cy_SysLib_AssertFailed
ARM GAS  C:\Users\salaz\AppData\Local\Temp\ccj0QfQu.s 			page 58


 1508              	.LVL146:
 1509              	.L98:
 1510              	.LBE131:
 1511              	.LBE130:
 690:Generated_Source\PSoC6\pdl\middleware\ble/cy_ble_event_handler.c **** 
 691:Generated_Source\PSoC6\pdl\middleware\ble/cy_ble_event_handler.c ****         case CY_BLE_EVT_GATT_DISCONNECT_IND:
 692:Generated_Source\PSoC6\pdl\middleware\ble/cy_ble_event_handler.c ****         #if (CY_BLE_GATT_ROLE_CLIENT)
 693:Generated_Source\PSoC6\pdl\middleware\ble/cy_ble_event_handler.c ****             if((Cy_BLE_GetConnectionState(*(cy_stc_ble_conn_handle_t*)evParam) == CY_BLE_CONN_STATE
 694:Generated_Source\PSoC6\pdl\middleware\ble/cy_ble_event_handler.c ****                (CY_BLE_BONDING_REQUIREMENT == CY_BLE_BONDING_YES))
 695:Generated_Source\PSoC6\pdl\middleware\ble/cy_ble_event_handler.c ****             {
 696:Generated_Source\PSoC6\pdl\middleware\ble/cy_ble_event_handler.c ****                 Cy_BLE_SetConnectionState(*(cy_stc_ble_conn_handle_t*)evParam,
 697:Generated_Source\PSoC6\pdl\middleware\ble/cy_ble_event_handler.c ****                                           CY_BLE_CONN_STATE_CLIENT_DISCONNECTED_DISCOVERED);
 698:Generated_Source\PSoC6\pdl\middleware\ble/cy_ble_event_handler.c ****             }
 699:Generated_Source\PSoC6\pdl\middleware\ble/cy_ble_event_handler.c ****             else
 700:Generated_Source\PSoC6\pdl\middleware\ble/cy_ble_event_handler.c ****         #endif /* CY_BLE_GATT_ROLE_CLIENT */
 701:Generated_Source\PSoC6\pdl\middleware\ble/cy_ble_event_handler.c ****             {
 702:Generated_Source\PSoC6\pdl\middleware\ble/cy_ble_event_handler.c ****                 Cy_BLE_SetConnectionState(*(cy_stc_ble_conn_handle_t*)evParam, CY_BLE_CONN_STATE_DI
 703:Generated_Source\PSoC6\pdl\middleware\ble/cy_ble_event_handler.c ****             #if (CY_BLE_GATT_ROLE_CLIENT)
 704:Generated_Source\PSoC6\pdl\middleware\ble/cy_ble_event_handler.c ****                 (void)Cy_BLE_GATTC_RemoveConnHandle(*(cy_stc_ble_conn_handle_t*)evParam);
 705:Generated_Source\PSoC6\pdl\middleware\ble/cy_ble_event_handler.c ****             #endif /* CY_BLE_GATT_ROLE_CLIENT */
 706:Generated_Source\PSoC6\pdl\middleware\ble/cy_ble_event_handler.c ****             }
 707:Generated_Source\PSoC6\pdl\middleware\ble/cy_ble_event_handler.c **** 
 708:Generated_Source\PSoC6\pdl\middleware\ble/cy_ble_event_handler.c ****             #if ((CY_BLE_GAP_ROLE_PERIPHERAL || CY_BLE_GAP_ROLE_CENTRAL))
 709:Generated_Source\PSoC6\pdl\middleware\ble/cy_ble_event_handler.c ****                 cy_ble_pairStatus[(*(cy_stc_ble_conn_handle_t *)evParam).attId] = false;
 1512              		.loc 1 709 0
 1513 0652 6B78     		ldrb	r3, [r5, #1]
 1514 0654 0021     		movs	r1, #0
 1515 0656 294A     		ldr	r2, .L108+20
 1516 0658 D154     		strb	r1, [r2, r3]
 710:Generated_Source\PSoC6\pdl\middleware\ble/cy_ble_event_handler.c ****             #endif /*((CY_BLE_GAP_ROLE_PERIPHERAL || CY_BLE_GAP_ROLE_CENTRAL))*/
 711:Generated_Source\PSoC6\pdl\middleware\ble/cy_ble_event_handler.c ****         
 712:Generated_Source\PSoC6\pdl\middleware\ble/cy_ble_event_handler.c ****             (void)Cy_BLE_InvokeServiceEventHandler((uint32_t)event, (void*)evParam);
 1517              		.loc 1 712 0
 1518 065a 2900     		movs	r1, r5
 1519 065c 2000     		movs	r0, r4
 1520 065e FFF7FEFF 		bl	Cy_BLE_InvokeServiceEventHandler
 1521              	.LVL147:
 713:Generated_Source\PSoC6\pdl\middleware\ble/cy_ble_event_handler.c ****             break;
 1522              		.loc 1 713 0
 1523 0662 6AE0     		b	.L31
 1524              	.LVL148:
 1525              	.L53:
 1526              	.LBB132:
 714:Generated_Source\PSoC6\pdl\middleware\ble/cy_ble_event_handler.c **** 
 715:Generated_Source\PSoC6\pdl\middleware\ble/cy_ble_event_handler.c ****         case CY_BLE_EVT_GATTS_XCNHG_MTU_REQ:
 716:Generated_Source\PSoC6\pdl\middleware\ble/cy_ble_event_handler.c ****         {
 717:Generated_Source\PSoC6\pdl\middleware\ble/cy_ble_event_handler.c ****             cy_stc_ble_gatt_xchg_mtu_param_t mtuParam;
 718:Generated_Source\PSoC6\pdl\middleware\ble/cy_ble_event_handler.c ****             mtuParam.connHandle = ((cy_stc_ble_gatt_xchg_mtu_param_t*)evParam)->connHandle;
 1527              		.loc 1 718 0
 1528 0664 05A8     		add	r0, sp, #20
 1529              	.LVL149:
 1530 0666 2B88     		ldrh	r3, [r5]
 1531 0668 0380     		strh	r3, [r0]
 719:Generated_Source\PSoC6\pdl\middleware\ble/cy_ble_event_handler.c ****             mtuParam.mtu = CY_BLE_GATT_MTU;
 1532              		.loc 1 719 0
 1533 066a 1723     		movs	r3, #23
 1534 066c 4380     		strh	r3, [r0, #2]
ARM GAS  C:\Users\salaz\AppData\Local\Temp\ccj0QfQu.s 			page 59


 720:Generated_Source\PSoC6\pdl\middleware\ble/cy_ble_event_handler.c ****             
 721:Generated_Source\PSoC6\pdl\middleware\ble/cy_ble_event_handler.c ****             (void)Cy_BLE_GATTS_ExchangeMtuRsp(&mtuParam);
 1535              		.loc 1 721 0
 1536 066e FFF7FEFF 		bl	Cy_BLE_GATTS_ExchangeMtuRsp
 1537              	.LVL150:
 1538              	.LBE132:
 722:Generated_Source\PSoC6\pdl\middleware\ble/cy_ble_event_handler.c ****         }
 723:Generated_Source\PSoC6\pdl\middleware\ble/cy_ble_event_handler.c ****         break;
 1539              		.loc 1 723 0
 1540 0672 62E0     		b	.L31
 1541              	.LVL151:
 1542              	.L54:
 1543              	.LBB133:
 724:Generated_Source\PSoC6\pdl\middleware\ble/cy_ble_event_handler.c ****     #endif /* CY_BLE_GATT_ROLE_SERVER || CY_BLE_GATT_ROLE_CLIENT */
 725:Generated_Source\PSoC6\pdl\middleware\ble/cy_ble_event_handler.c **** 
 726:Generated_Source\PSoC6\pdl\middleware\ble/cy_ble_event_handler.c ****     #if (CY_BLE_GATT_ROLE_CLIENT)
 727:Generated_Source\PSoC6\pdl\middleware\ble/cy_ble_event_handler.c ****         case CY_BLE_EVT_GAPC_SCAN_PROGRESS_RESULT:
 728:Generated_Source\PSoC6\pdl\middleware\ble/cy_ble_event_handler.c ****             (void)Cy_BLE_InvokeServiceEventHandler((uint32_t)event, (void*)evParam);
 729:Generated_Source\PSoC6\pdl\middleware\ble/cy_ble_event_handler.c ****             break;
 730:Generated_Source\PSoC6\pdl\middleware\ble/cy_ble_event_handler.c ****     #endif /* CY_BLE_GATT_ROLE_CLIENT */
 731:Generated_Source\PSoC6\pdl\middleware\ble/cy_ble_event_handler.c **** 
 732:Generated_Source\PSoC6\pdl\middleware\ble/cy_ble_event_handler.c ****     #if (CY_BLE_GATT_ROLE_SERVER)
 733:Generated_Source\PSoC6\pdl\middleware\ble/cy_ble_event_handler.c ****         case CY_BLE_EVT_GATTS_WRITE_REQ:
 734:Generated_Source\PSoC6\pdl\middleware\ble/cy_ble_event_handler.c ****         {
 735:Generated_Source\PSoC6\pdl\middleware\ble/cy_ble_event_handler.c ****             cy_en_ble_gatt_err_code_t gattErr; 
 736:Generated_Source\PSoC6\pdl\middleware\ble/cy_ble_event_handler.c ****             if((((cy_stc_ble_gatts_write_cmd_req_param_t*)evParam)->handleValPair.attrHandle > CY_B
 1544              		.loc 1 736 0
 1545 0674 2A89     		ldrh	r2, [r5, #8]
 1546 0676 531E     		subs	r3, r2, #1
 1547 0678 9BB2     		uxth	r3, r3
 1548 067a 272B     		cmp	r3, #39
 1549 067c 0ED9     		bls	.L99
 1550              	.LBB134:
 737:Generated_Source\PSoC6\pdl\middleware\ble/cy_ble_event_handler.c ****                (((cy_stc_ble_gatts_write_cmd_req_param_t*)evParam)->handleValPair.attrHandle == 0u)
 738:Generated_Source\PSoC6\pdl\middleware\ble/cy_ble_event_handler.c ****             {
 739:Generated_Source\PSoC6\pdl\middleware\ble/cy_ble_event_handler.c ****                 /* Processing unknown attr handle (send an Error Response) */
 740:Generated_Source\PSoC6\pdl\middleware\ble/cy_ble_event_handler.c ****                 cy_stc_ble_gatt_err_param_t err_param =
 1551              		.loc 1 740 0
 1552 067e 05A8     		add	r0, sp, #20
 1553              	.LVL152:
 1554 0680 AB89     		ldrh	r3, [r5, #12]
 1555 0682 0380     		strh	r3, [r0]
 1556 0684 4280     		strh	r2, [r0, #2]
 1557 0686 1223     		movs	r3, #18
 1558 0688 0371     		strb	r3, [r0, #4]
 1559 068a 0126     		movs	r6, #1
 1560 068c 4671     		strb	r6, [r0, #5]
 741:Generated_Source\PSoC6\pdl\middleware\ble/cy_ble_event_handler.c ****                 {
 742:Generated_Source\PSoC6\pdl\middleware\ble/cy_ble_event_handler.c ****                     .errInfo.opCode     = CY_BLE_GATT_WRITE_REQ,
 743:Generated_Source\PSoC6\pdl\middleware\ble/cy_ble_event_handler.c ****                     .errInfo.attrHandle = ((cy_stc_ble_gatts_write_cmd_req_param_t*)evParam)->handl
 744:Generated_Source\PSoC6\pdl\middleware\ble/cy_ble_event_handler.c ****                     .connHandle         = ((cy_stc_ble_gatts_write_cmd_req_param_t*)evParam)->connH
 745:Generated_Source\PSoC6\pdl\middleware\ble/cy_ble_event_handler.c ****                     .errInfo.errorCode  = CY_BLE_GATT_ERR_INVALID_HANDLE
 746:Generated_Source\PSoC6\pdl\middleware\ble/cy_ble_event_handler.c ****                 };
 747:Generated_Source\PSoC6\pdl\middleware\ble/cy_ble_event_handler.c ****                 
 748:Generated_Source\PSoC6\pdl\middleware\ble/cy_ble_event_handler.c ****                 (void)Cy_BLE_GATTS_ErrorRsp(&err_param);
 1561              		.loc 1 748 0
 1562 068e FFF7FEFF 		bl	Cy_BLE_GATTS_ErrorRsp
ARM GAS  C:\Users\salaz\AppData\Local\Temp\ccj0QfQu.s 			page 60


 1563              	.LVL153:
 749:Generated_Source\PSoC6\pdl\middleware\ble/cy_ble_event_handler.c ****                 cy_ble_eventHandlerFlag &= (uint8_t) ~CY_BLE_CALLBACK;
 1564              		.loc 1 749 0
 1565 0692 1E4A     		ldr	r2, .L108+36
 1566 0694 1378     		ldrb	r3, [r2]
 1567 0696 B343     		bics	r3, r6
 1568 0698 1370     		strb	r3, [r2]
 1569              	.LBE134:
 1570 069a 4EE0     		b	.L31
 1571              	.LVL154:
 1572              	.L99:
 750:Generated_Source\PSoC6\pdl\middleware\ble/cy_ble_event_handler.c ****             }        
 751:Generated_Source\PSoC6\pdl\middleware\ble/cy_ble_event_handler.c ****             else
 752:Generated_Source\PSoC6\pdl\middleware\ble/cy_ble_event_handler.c ****             {
 753:Generated_Source\PSoC6\pdl\middleware\ble/cy_ble_event_handler.c ****                 gattErr = Cy_BLE_GATTS_WriteEventHandler((cy_stc_ble_gatts_write_cmd_req_param_t*)e
 1573              		.loc 1 753 0
 1574 069c 2800     		movs	r0, r5
 1575              	.LVL155:
 1576 069e FFF7FEFF 		bl	Cy_BLE_GATTS_WriteEventHandler
 1577              	.LVL156:
 1578 06a2 011E     		subs	r1, r0, #0
 1579              	.LVL157:
 754:Generated_Source\PSoC6\pdl\middleware\ble/cy_ble_event_handler.c ****                 if(gattErr == CY_BLE_GATT_ERR_NONE)
 1580              		.loc 1 754 0
 1581 06a4 04D1     		bne	.L100
 755:Generated_Source\PSoC6\pdl\middleware\ble/cy_ble_event_handler.c ****                 {
 756:Generated_Source\PSoC6\pdl\middleware\ble/cy_ble_event_handler.c ****                     gattErr = Cy_BLE_InvokeServiceEventHandler((uint32_t)event, (void*)evParam);
 1582              		.loc 1 756 0
 1583 06a6 2900     		movs	r1, r5
 1584 06a8 2000     		movs	r0, r4
 1585              	.LVL158:
 1586 06aa FFF7FEFF 		bl	Cy_BLE_InvokeServiceEventHandler
 1587              	.LVL159:
 1588 06ae 0100     		movs	r1, r0
 1589              	.LVL160:
 1590              	.L100:
 757:Generated_Source\PSoC6\pdl\middleware\ble/cy_ble_event_handler.c ****                 }
 758:Generated_Source\PSoC6\pdl\middleware\ble/cy_ble_event_handler.c ****                 Cy_BLE_SendWriteResponse((cy_stc_ble_gatts_write_cmd_req_param_t*)evParam, gattErr)
 1591              		.loc 1 758 0
 1592 06b0 2800     		movs	r0, r5
 1593 06b2 FFF7FEFF 		bl	Cy_BLE_SendWriteResponse
 1594              	.LVL161:
 1595 06b6 40E0     		b	.L31
 1596              	.LVL162:
 1597              	.L48:
 1598              	.LBE133:
 759:Generated_Source\PSoC6\pdl\middleware\ble/cy_ble_event_handler.c ****             }
 760:Generated_Source\PSoC6\pdl\middleware\ble/cy_ble_event_handler.c ****         }
 761:Generated_Source\PSoC6\pdl\middleware\ble/cy_ble_event_handler.c ****         break;
 762:Generated_Source\PSoC6\pdl\middleware\ble/cy_ble_event_handler.c **** 
 763:Generated_Source\PSoC6\pdl\middleware\ble/cy_ble_event_handler.c ****         case CY_BLE_EVT_GATTS_WRITE_CMD_REQ:
 764:Generated_Source\PSoC6\pdl\middleware\ble/cy_ble_event_handler.c ****             (void)Cy_BLE_InvokeServiceEventHandler((uint32_t)event, (void*)evParam);
 1599              		.loc 1 764 0
 1600 06b8 2900     		movs	r1, r5
 1601 06ba FFF7FEFF 		bl	Cy_BLE_InvokeServiceEventHandler
 1602              	.LVL163:
 765:Generated_Source\PSoC6\pdl\middleware\ble/cy_ble_event_handler.c ****             break;
ARM GAS  C:\Users\salaz\AppData\Local\Temp\ccj0QfQu.s 			page 61


 1603              		.loc 1 765 0
 1604 06be 3CE0     		b	.L31
 1605              	.LVL164:
 1606              	.L57:
 766:Generated_Source\PSoC6\pdl\middleware\ble/cy_ble_event_handler.c **** 
 767:Generated_Source\PSoC6\pdl\middleware\ble/cy_ble_event_handler.c ****         case CY_BLE_EVT_GATTS_PREP_WRITE_REQ:
 768:Generated_Source\PSoC6\pdl\middleware\ble/cy_ble_event_handler.c ****             (void)Cy_BLE_InvokeServiceEventHandler((uint32_t)event, (void*)evParam);
 1607              		.loc 1 768 0
 1608 06c0 2900     		movs	r1, r5
 1609 06c2 FFF7FEFF 		bl	Cy_BLE_InvokeServiceEventHandler
 1610              	.LVL165:
 769:Generated_Source\PSoC6\pdl\middleware\ble/cy_ble_event_handler.c ****             break;
 1611              		.loc 1 769 0
 1612 06c6 38E0     		b	.L31
 1613              	.LVL166:
 1614              	.L58:
 770:Generated_Source\PSoC6\pdl\middleware\ble/cy_ble_event_handler.c **** 
 771:Generated_Source\PSoC6\pdl\middleware\ble/cy_ble_event_handler.c ****         case CY_BLE_EVT_GATTS_EXEC_WRITE_REQ:
 772:Generated_Source\PSoC6\pdl\middleware\ble/cy_ble_event_handler.c ****             (void)Cy_BLE_InvokeServiceEventHandler((uint32_t)event, (void*)evParam);
 1615              		.loc 1 772 0
 1616 06c8 2900     		movs	r1, r5
 1617 06ca FFF7FEFF 		bl	Cy_BLE_InvokeServiceEventHandler
 1618              	.LVL167:
 773:Generated_Source\PSoC6\pdl\middleware\ble/cy_ble_event_handler.c ****             break;
 1619              		.loc 1 773 0
 1620 06ce 34E0     		b	.L31
 1621              	.LVL168:
 1622              	.L55:
 774:Generated_Source\PSoC6\pdl\middleware\ble/cy_ble_event_handler.c **** 
 775:Generated_Source\PSoC6\pdl\middleware\ble/cy_ble_event_handler.c ****         case CY_BLE_EVT_GATTS_HANDLE_VALUE_CNF:
 776:Generated_Source\PSoC6\pdl\middleware\ble/cy_ble_event_handler.c ****             (void)Cy_BLE_InvokeServiceEventHandler((uint32_t)event, (void*)evParam);
 1623              		.loc 1 776 0
 1624 06d0 2900     		movs	r1, r5
 1625 06d2 FFF7FEFF 		bl	Cy_BLE_InvokeServiceEventHandler
 1626              	.LVL169:
 777:Generated_Source\PSoC6\pdl\middleware\ble/cy_ble_event_handler.c ****             break;
 1627              		.loc 1 777 0
 1628 06d6 30E0     		b	.L31
 1629              	.LVL170:
 1630              	.L59:
 778:Generated_Source\PSoC6\pdl\middleware\ble/cy_ble_event_handler.c **** 
 779:Generated_Source\PSoC6\pdl\middleware\ble/cy_ble_event_handler.c ****         case CY_BLE_EVT_GATTS_READ_CHAR_VAL_ACCESS_REQ:
 780:Generated_Source\PSoC6\pdl\middleware\ble/cy_ble_event_handler.c ****         #if (CY_BLE_GATT_DB_CCCD_COUNT != 0u)
 781:Generated_Source\PSoC6\pdl\middleware\ble/cy_ble_event_handler.c ****             (void)Cy_BLE_GATTS_ReadAttributeValueCCCDReqHandler((cy_stc_ble_gatts_char_val_read_req
 1631              		.loc 1 781 0
 1632 06d8 2800     		movs	r0, r5
 1633              	.LVL171:
 1634 06da FFF7FEFF 		bl	Cy_BLE_GATTS_ReadAttributeValueCCCDReqHandler
 1635              	.LVL172:
 782:Generated_Source\PSoC6\pdl\middleware\ble/cy_ble_event_handler.c ****         #endif  /* (CY_BLE_GATT_DB_CCCD_COUNT != 0u) */
 783:Generated_Source\PSoC6\pdl\middleware\ble/cy_ble_event_handler.c ****             (void)Cy_BLE_InvokeServiceEventHandler((uint32_t)event, (void*)evParam);
 1636              		.loc 1 783 0
 1637 06de 2900     		movs	r1, r5
 1638 06e0 2000     		movs	r0, r4
 1639 06e2 FFF7FEFF 		bl	Cy_BLE_InvokeServiceEventHandler
 1640              	.LVL173:
 784:Generated_Source\PSoC6\pdl\middleware\ble/cy_ble_event_handler.c ****             break;
ARM GAS  C:\Users\salaz\AppData\Local\Temp\ccj0QfQu.s 			page 62


 1641              		.loc 1 784 0
 1642 06e6 28E0     		b	.L31
 1643              	.L109:
 1644              		.align	2
 1645              	.L108:
 1646 06e8 00000000 		.word	.LC15
 1647 06ec 00000000 		.word	cy_ble_peerBonding
 1648 06f0 00000000 		.word	.LANCHOR0
 1649 06f4 00000000 		.word	cy_ble_connHandle
 1650 06f8 00000000 		.word	cy_ble_connState
 1651 06fc 00000000 		.word	cy_ble_pairStatus
 1652 0700 00000000 		.word	cy_ble_advState
 1653 0704 00000000 		.word	cy_ble_devConnRole
 1654 0708 00000000 		.word	cy_ble_state
 1655 070c 00000000 		.word	cy_ble_eventHandlerFlag
 1656 0710 00000000 		.word	cy_ble_configPtr
 1657 0714 00000000 		.word	cy_ble_advIndex
 1658 0718 00000000 		.word	cy_ble_advertisingIntervalType
 1659 071c 00000000 		.word	cy_ble_busyStatus
 1660 0720 00000000 		.word	cy_ble_attValuesCccdMultiple
 1661 0724 90100000 		.word	4240
 1662 0728 00000000 		.word	Cy_BLE_ApplCallback
 1663 072c 04000100 		.word	65540
 1664              	.LVL174:
 1665              	.L41:
 785:Generated_Source\PSoC6\pdl\middleware\ble/cy_ble_event_handler.c ****     #endif /* CY_BLE_GATT_ROLE_SERVER */
 786:Generated_Source\PSoC6\pdl\middleware\ble/cy_ble_event_handler.c **** 
 787:Generated_Source\PSoC6\pdl\middleware\ble/cy_ble_event_handler.c ****     #if (CY_BLE_GATT_ROLE_CLIENT)
 788:Generated_Source\PSoC6\pdl\middleware\ble/cy_ble_event_handler.c ****         case CY_BLE_EVT_GATTC_READ_BY_GROUP_TYPE_RSP:
 789:Generated_Source\PSoC6\pdl\middleware\ble/cy_ble_event_handler.c ****             Cy_BLE_ReadByGroupEventHandler((cy_stc_ble_gattc_read_by_grp_rsp_param_t*)evParam);
 790:Generated_Source\PSoC6\pdl\middleware\ble/cy_ble_event_handler.c ****             break;
 791:Generated_Source\PSoC6\pdl\middleware\ble/cy_ble_event_handler.c **** 
 792:Generated_Source\PSoC6\pdl\middleware\ble/cy_ble_event_handler.c ****         case CY_BLE_EVT_GATTC_READ_BY_TYPE_RSP:
 793:Generated_Source\PSoC6\pdl\middleware\ble/cy_ble_event_handler.c ****             Cy_BLE_ReadByTypeEventHandler((cy_stc_ble_gattc_read_by_type_rsp_param_t*)evParam);
 794:Generated_Source\PSoC6\pdl\middleware\ble/cy_ble_event_handler.c ****             break;
 795:Generated_Source\PSoC6\pdl\middleware\ble/cy_ble_event_handler.c **** 
 796:Generated_Source\PSoC6\pdl\middleware\ble/cy_ble_event_handler.c ****         case CY_BLE_EVT_GATTC_READ_BLOB_RSP:
 797:Generated_Source\PSoC6\pdl\middleware\ble/cy_ble_event_handler.c ****             (void)Cy_BLE_InvokeServiceEventHandler((uint32_t)event, (void*)evParam);
 798:Generated_Source\PSoC6\pdl\middleware\ble/cy_ble_event_handler.c ****             break;
 799:Generated_Source\PSoC6\pdl\middleware\ble/cy_ble_event_handler.c **** 
 800:Generated_Source\PSoC6\pdl\middleware\ble/cy_ble_event_handler.c ****         case CY_BLE_EVT_GATTC_LONG_PROCEDURE_END:
 801:Generated_Source\PSoC6\pdl\middleware\ble/cy_ble_event_handler.c ****             Cy_BLE_LongProcedureEndEventHandler(((cy_stc_ble_gattc_long_procedure_end_param_t*)evPa
 802:Generated_Source\PSoC6\pdl\middleware\ble/cy_ble_event_handler.c ****             break;
 803:Generated_Source\PSoC6\pdl\middleware\ble/cy_ble_event_handler.c **** 
 804:Generated_Source\PSoC6\pdl\middleware\ble/cy_ble_event_handler.c ****         case CY_BLE_EVT_GATTC_FIND_INFO_RSP:
 805:Generated_Source\PSoC6\pdl\middleware\ble/cy_ble_event_handler.c ****             Cy_BLE_FindInfoEventHandler((cy_stc_ble_gattc_find_info_rsp_param_t*)evParam);
 806:Generated_Source\PSoC6\pdl\middleware\ble/cy_ble_event_handler.c ****             break;
 807:Generated_Source\PSoC6\pdl\middleware\ble/cy_ble_event_handler.c **** 
 808:Generated_Source\PSoC6\pdl\middleware\ble/cy_ble_event_handler.c ****         case CY_BLE_EVT_GATTC_ERROR_RSP:
 809:Generated_Source\PSoC6\pdl\middleware\ble/cy_ble_event_handler.c ****             Cy_BLE_ErrorResponseEventHandler((cy_stc_ble_gatt_err_param_t*)evParam);
 810:Generated_Source\PSoC6\pdl\middleware\ble/cy_ble_event_handler.c ****             (void)Cy_BLE_InvokeServiceEventHandler((uint32_t)event, (void*)evParam);
 811:Generated_Source\PSoC6\pdl\middleware\ble/cy_ble_event_handler.c ****             break;
 812:Generated_Source\PSoC6\pdl\middleware\ble/cy_ble_event_handler.c **** 
 813:Generated_Source\PSoC6\pdl\middleware\ble/cy_ble_event_handler.c ****         case CY_BLE_EVT_GATTC_HANDLE_VALUE_NTF:
 814:Generated_Source\PSoC6\pdl\middleware\ble/cy_ble_event_handler.c ****             (void)Cy_BLE_InvokeServiceEventHandler((uint32_t)event, (void*)evParam);
 815:Generated_Source\PSoC6\pdl\middleware\ble/cy_ble_event_handler.c ****             break;
 816:Generated_Source\PSoC6\pdl\middleware\ble/cy_ble_event_handler.c **** 
ARM GAS  C:\Users\salaz\AppData\Local\Temp\ccj0QfQu.s 			page 63


 817:Generated_Source\PSoC6\pdl\middleware\ble/cy_ble_event_handler.c ****         case CY_BLE_EVT_GATTC_HANDLE_VALUE_IND:
 818:Generated_Source\PSoC6\pdl\middleware\ble/cy_ble_event_handler.c ****             Cy_BLE_GATTC_IndicationEventHandler((cy_stc_ble_gattc_handle_value_ind_param_t*)evParam
 819:Generated_Source\PSoC6\pdl\middleware\ble/cy_ble_event_handler.c ****             (void)Cy_BLE_InvokeServiceEventHandler((uint32_t)event, (void*)evParam);
 820:Generated_Source\PSoC6\pdl\middleware\ble/cy_ble_event_handler.c **** 
 821:Generated_Source\PSoC6\pdl\middleware\ble/cy_ble_event_handler.c ****             /* Respond with a Handle Value Confirmation when request handled */
 822:Generated_Source\PSoC6\pdl\middleware\ble/cy_ble_event_handler.c ****             if((cy_ble_eventHandlerFlag & CY_BLE_CALLBACK) == 0u)
 823:Generated_Source\PSoC6\pdl\middleware\ble/cy_ble_event_handler.c ****             {
 824:Generated_Source\PSoC6\pdl\middleware\ble/cy_ble_event_handler.c ****                 cy_stc_ble_gattc_confirmation_req_t confirmationParam;
 825:Generated_Source\PSoC6\pdl\middleware\ble/cy_ble_event_handler.c ****                 confirmationParam.connHandle = ((cy_stc_ble_gattc_handle_value_ind_param_t*)evParam
 826:Generated_Source\PSoC6\pdl\middleware\ble/cy_ble_event_handler.c **** 
 827:Generated_Source\PSoC6\pdl\middleware\ble/cy_ble_event_handler.c ****                 (void)Cy_BLE_GATTC_Confirmation(&confirmationParam);
 828:Generated_Source\PSoC6\pdl\middleware\ble/cy_ble_event_handler.c ****             }
 829:Generated_Source\PSoC6\pdl\middleware\ble/cy_ble_event_handler.c ****             break;
 830:Generated_Source\PSoC6\pdl\middleware\ble/cy_ble_event_handler.c **** 
 831:Generated_Source\PSoC6\pdl\middleware\ble/cy_ble_event_handler.c ****         case CY_BLE_EVT_GATTC_READ_RSP:
 832:Generated_Source\PSoC6\pdl\middleware\ble/cy_ble_event_handler.c ****             (void)Cy_BLE_InvokeServiceEventHandler((uint32_t)event, (void*)evParam);
 833:Generated_Source\PSoC6\pdl\middleware\ble/cy_ble_event_handler.c ****             break;
 834:Generated_Source\PSoC6\pdl\middleware\ble/cy_ble_event_handler.c **** 
 835:Generated_Source\PSoC6\pdl\middleware\ble/cy_ble_event_handler.c ****         case CY_BLE_EVT_GATTC_READ_MULTI_RSP:
 836:Generated_Source\PSoC6\pdl\middleware\ble/cy_ble_event_handler.c ****             (void)Cy_BLE_InvokeServiceEventHandler((uint32_t)event, (void*)evParam);
 837:Generated_Source\PSoC6\pdl\middleware\ble/cy_ble_event_handler.c ****             break;
 838:Generated_Source\PSoC6\pdl\middleware\ble/cy_ble_event_handler.c **** 
 839:Generated_Source\PSoC6\pdl\middleware\ble/cy_ble_event_handler.c ****         case CY_BLE_EVT_GATTC_WRITE_RSP:
 840:Generated_Source\PSoC6\pdl\middleware\ble/cy_ble_event_handler.c ****             (void)Cy_BLE_InvokeServiceEventHandler((uint32_t)event, (void*)evParam);
 841:Generated_Source\PSoC6\pdl\middleware\ble/cy_ble_event_handler.c ****             break;
 842:Generated_Source\PSoC6\pdl\middleware\ble/cy_ble_event_handler.c **** 
 843:Generated_Source\PSoC6\pdl\middleware\ble/cy_ble_event_handler.c ****         case CY_BLE_EVT_GATTC_EXEC_WRITE_RSP:
 844:Generated_Source\PSoC6\pdl\middleware\ble/cy_ble_event_handler.c ****             (void)Cy_BLE_InvokeServiceEventHandler((uint32_t)event, (void*)evParam);
 845:Generated_Source\PSoC6\pdl\middleware\ble/cy_ble_event_handler.c ****             break;
 846:Generated_Source\PSoC6\pdl\middleware\ble/cy_ble_event_handler.c ****             
 847:Generated_Source\PSoC6\pdl\middleware\ble/cy_ble_event_handler.c ****         case CY_BLE_EVT_GATTC_STOP_CMD_COMPLETE:
 848:Generated_Source\PSoC6\pdl\middleware\ble/cy_ble_event_handler.c ****             {
 849:Generated_Source\PSoC6\pdl\middleware\ble/cy_ble_event_handler.c ****                 uint32_t discIdx = Cy_BLE_GetDiscoveryIdx(*(cy_stc_ble_conn_handle_t *)evParam);
 850:Generated_Source\PSoC6\pdl\middleware\ble/cy_ble_event_handler.c ****                 if( (Cy_BLE_GetConnectionState(*(cy_stc_ble_conn_handle_t *)evParam) == CY_BLE_CONN
 851:Generated_Source\PSoC6\pdl\middleware\ble/cy_ble_event_handler.c ****                     (discIdx < CY_BLE_GATTC_COUNT) && (cy_ble_discovery[discIdx].autoDiscoveryFlag 
 852:Generated_Source\PSoC6\pdl\middleware\ble/cy_ble_event_handler.c ****                 {    
 853:Generated_Source\PSoC6\pdl\middleware\ble/cy_ble_event_handler.c ****                     
 854:Generated_Source\PSoC6\pdl\middleware\ble/cy_ble_event_handler.c ****                     cy_stc_ble_gattc_read_req_t readReqParam =
 855:Generated_Source\PSoC6\pdl\middleware\ble/cy_ble_event_handler.c ****                     {
 856:Generated_Source\PSoC6\pdl\middleware\ble/cy_ble_event_handler.c ****                         .attrHandle = cy_ble_discovery[discIdx].inclInfo.inclHandleRange.startHandl
 857:Generated_Source\PSoC6\pdl\middleware\ble/cy_ble_event_handler.c ****                         .connHandle = *(cy_stc_ble_conn_handle_t *)evParam
 858:Generated_Source\PSoC6\pdl\middleware\ble/cy_ble_event_handler.c ****                     };
 859:Generated_Source\PSoC6\pdl\middleware\ble/cy_ble_event_handler.c ****                     
 860:Generated_Source\PSoC6\pdl\middleware\ble/cy_ble_event_handler.c ****                     /* Get the included service UUID when the included service uses a 128-bit
 861:Generated_Source\PSoC6\pdl\middleware\ble/cy_ble_event_handler.c ****                      * UUID, a Read Request is used. The Attribute Handle for the Read Request is
 862:Generated_Source\PSoC6\pdl\middleware\ble/cy_ble_event_handler.c ****                      * the Attribute Handle of the included service.
 863:Generated_Source\PSoC6\pdl\middleware\ble/cy_ble_event_handler.c ****                      */
 864:Generated_Source\PSoC6\pdl\middleware\ble/cy_ble_event_handler.c **** 
 865:Generated_Source\PSoC6\pdl\middleware\ble/cy_ble_event_handler.c ****                     if(Cy_BLE_GATTC_ReadCharacteristicValue(&readReqParam) != CY_BLE_SUCCESS)
 866:Generated_Source\PSoC6\pdl\middleware\ble/cy_ble_event_handler.c ****                     {
 867:Generated_Source\PSoC6\pdl\middleware\ble/cy_ble_event_handler.c ****                         Cy_BLE_ApplCallback((uint32_t)CY_BLE_EVT_GATTC_INCL_DISCOVERY_FAILED, (cy_s
 868:Generated_Source\PSoC6\pdl\middleware\ble/cy_ble_event_handler.c ****                         cy_ble_discovery[discIdx].autoDiscoveryFlag = 0u;
 869:Generated_Source\PSoC6\pdl\middleware\ble/cy_ble_event_handler.c ****                     }
 870:Generated_Source\PSoC6\pdl\middleware\ble/cy_ble_event_handler.c ****                     
 871:Generated_Source\PSoC6\pdl\middleware\ble/cy_ble_event_handler.c ****                     cy_ble_eventHandlerFlag &= (uint8_t) ~CY_BLE_CALLBACK;
 872:Generated_Source\PSoC6\pdl\middleware\ble/cy_ble_event_handler.c ****                 }
 873:Generated_Source\PSoC6\pdl\middleware\ble/cy_ble_event_handler.c ****             }     
ARM GAS  C:\Users\salaz\AppData\Local\Temp\ccj0QfQu.s 			page 64


 874:Generated_Source\PSoC6\pdl\middleware\ble/cy_ble_event_handler.c ****             break;
 875:Generated_Source\PSoC6\pdl\middleware\ble/cy_ble_event_handler.c ****     #endif /* CY_BLE_GATT_ROLE_CLIENT */
 876:Generated_Source\PSoC6\pdl\middleware\ble/cy_ble_event_handler.c **** 
 877:Generated_Source\PSoC6\pdl\middleware\ble/cy_ble_event_handler.c ****     #if ((CY_BLE_GAP_ROLE_PERIPHERAL || CY_BLE_GAP_ROLE_CENTRAL) && (CY_BLE_BONDING_REQUIREMENT == 
 878:Generated_Source\PSoC6\pdl\middleware\ble/cy_ble_event_handler.c ****         case CY_BLE_EVT_PENDING_FLASH_WRITE:
 879:Generated_Source\PSoC6\pdl\middleware\ble/cy_ble_event_handler.c ****             cy_ble_pendingFlashWrite |= CY_BLE_PENDING_STACK_FLASH_WRITE_BIT;
 1666              		.loc 1 879 0
 1667 0730 0B4A     		ldr	r2, .L110
 1668 0732 1178     		ldrb	r1, [r2]
 1669 0734 0123     		movs	r3, #1
 1670 0736 0B43     		orrs	r3, r1
 1671 0738 1370     		strb	r3, [r2]
 1672              	.LVL175:
 1673              	.L31:
 880:Generated_Source\PSoC6\pdl\middleware\ble/cy_ble_event_handler.c ****             break;
 881:Generated_Source\PSoC6\pdl\middleware\ble/cy_ble_event_handler.c ****     #endif  /* (CY_BLE_BONDING_REQUIREMENT == CY_BLE_BONDING_YES) */
 882:Generated_Source\PSoC6\pdl\middleware\ble/cy_ble_event_handler.c **** 
 883:Generated_Source\PSoC6\pdl\middleware\ble/cy_ble_event_handler.c ****         default:
 884:Generated_Source\PSoC6\pdl\middleware\ble/cy_ble_event_handler.c ****             break;
 885:Generated_Source\PSoC6\pdl\middleware\ble/cy_ble_event_handler.c ****     }
 886:Generated_Source\PSoC6\pdl\middleware\ble/cy_ble_event_handler.c **** 
 887:Generated_Source\PSoC6\pdl\middleware\ble/cy_ble_event_handler.c ****     if((cy_ble_eventHandlerFlag & (CY_BLE_CALLBACK | CY_BLE_ENABLE_ALL_EVENTS)) != 0u)
 1674              		.loc 1 887 0
 1675 073a 0A4B     		ldr	r3, .L110+4
 1676 073c 1A78     		ldrb	r2, [r3]
 1677 073e 1123     		movs	r3, #17
 1678 0740 1A42     		tst	r2, r3
 1679 0742 09D0     		beq	.L30
 888:Generated_Source\PSoC6\pdl\middleware\ble/cy_ble_event_handler.c ****     {
 889:Generated_Source\PSoC6\pdl\middleware\ble/cy_ble_event_handler.c ****         cy_ble_eventHandlerFlag &= (uint8_t) ~CY_BLE_CALLBACK;
 1680              		.loc 1 889 0
 1681 0744 074A     		ldr	r2, .L110+4
 1682 0746 1378     		ldrb	r3, [r2]
 1683 0748 0121     		movs	r1, #1
 1684 074a 8B43     		bics	r3, r1
 1685 074c 1370     		strb	r3, [r2]
 890:Generated_Source\PSoC6\pdl\middleware\ble/cy_ble_event_handler.c ****         Cy_BLE_ApplCallback((uint32_t)event, evParam);
 1686              		.loc 1 890 0
 1687 074e 064B     		ldr	r3, .L110+8
 1688 0750 1B68     		ldr	r3, [r3]
 1689 0752 2900     		movs	r1, r5
 1690 0754 2000     		movs	r0, r4
 1691 0756 9847     		blx	r3
 1692              	.LVL176:
 1693              	.L30:
 891:Generated_Source\PSoC6\pdl\middleware\ble/cy_ble_event_handler.c ****     }
 892:Generated_Source\PSoC6\pdl\middleware\ble/cy_ble_event_handler.c **** }
 1694              		.loc 1 892 0
 1695 0758 0CB0     		add	sp, sp, #48
 1696              		@ sp needed
 1697              	.LVL177:
 1698 075a 04BC     		pop	{r2}
 1699 075c 9046     		mov	r8, r2
 1700 075e F0BD     		pop	{r4, r5, r6, r7, pc}
 1701              	.L111:
 1702              		.align	2
 1703              	.L110:
ARM GAS  C:\Users\salaz\AppData\Local\Temp\ccj0QfQu.s 			page 65


 1704 0760 00000000 		.word	cy_ble_pendingFlashWrite
 1705 0764 00000000 		.word	cy_ble_eventHandlerFlag
 1706 0768 00000000 		.word	Cy_BLE_ApplCallback
 1707              		.cfi_endproc
 1708              	.LFE163:
 1709              		.size	Cy_BLE_EventHandler, .-Cy_BLE_EventHandler
 1710              		.comm	cy_ble_eventHandler,12,4
 1711              		.comm	cy_ble_advertisingIntervalType,1,1
 1712              		.comm	cy_ble_cmdStatus,4,4
 1713              		.comm	cy_ble_eventHandlerFlag,1,1
 1714              		.comm	cy_ble_busyStatus,1,4
 1715              		.section	.rodata
 1716              		.align	2
 1717              		.set	.LANCHOR0,. + 0
 1718              	.LC0:
 1719 0000 3F       		.byte	63
 1720 0001 06       		.byte	6
 1721 0002 00       		.byte	0
 1722 0003 00       		.byte	0
 1723 0004 00       		.byte	0
 1724 0005 00       		.byte	0
 1725 0006 00       		.byte	0
 1726 0007 00       		.byte	0
 1727              	.LC1:
 1728 0008 FF       		.byte	-1
 1729 0009 FF       		.byte	-1
 1730              		.section	.rodata.str1.4,"aMS",%progbits,1
 1731              		.align	2
 1732              	.LC15:
 1733 0000 47656E65 		.ascii	"Generated_Source\\PSoC6\\pdl\\middleware\\ble\\cy_b"
 1733      72617465 
 1733      645F536F 
 1733      75726365 
 1733      5C50536F 
 1734 002e 6C655F67 		.ascii	"le_gap.h\000"
 1734      61702E68 
 1734      00
 1735              		.bss
 1736              		.align	2
 1737              		.set	.LANCHOR1,. + 0
 1738              		.type	gPrepWriteReqMem.12445, %object
 1739              		.size	gPrepWriteReqMem.12445, 12
 1740              	gPrepWriteReqMem.12445:
 1741 0000 00000000 		.space	12
 1741      00000000 
 1741      00000000 
 1742              		.text
 1743              	.Letext0:
 1744              		.file 3 "c:\\program files (x86)\\cypress\\psoc creator\\4.2\\psoc creator\\import\\gnu\\arm\\5.4.
 1745              		.file 4 "c:\\program files (x86)\\cypress\\psoc creator\\4.2\\psoc creator\\import\\gnu\\arm\\5.4.
 1746              		.file 5 "Generated_Source\\PSoC6\\pdl\\devices/psoc6/psoc63/include/cyble_416045_02.h"
 1747              		.file 6 "Generated_Source\\PSoC6\\pdl\\devices/psoc6/ip/cyip_sflash.h"
 1748              		.file 7 "Generated_Source\\PSoC6\\pdl\\drivers/peripheral/syslib/cy_syslib.h"
 1749              		.file 8 "Generated_Source\\PSoC6\\pdl\\drivers/peripheral/sysint/cy_sysint.h"
 1750              		.file 9 "Generated_Source\\PSoC6\\pdl\\middleware\\ble\\cy_ble_stack.h"
 1751              		.file 10 "Generated_Source\\PSoC6\\pdl\\middleware\\ble\\cy_ble_stack_host_main.h"
 1752              		.file 11 "Generated_Source\\PSoC6\\pdl\\middleware\\ble\\cy_ble_stack_gatt.h"
ARM GAS  C:\Users\salaz\AppData\Local\Temp\ccj0QfQu.s 			page 66


 1753              		.file 12 "Generated_Source\\PSoC6\\pdl\\middleware\\ble\\cy_ble_stack_gap.h"
 1754              		.file 13 "Generated_Source\\PSoC6\\pdl\\middleware\\ble\\cy_ble_stack_gap_central.h"
 1755              		.file 14 "Generated_Source\\PSoC6\\pdl\\middleware\\ble\\cy_ble_stack_gap_peripheral.h"
 1756              		.file 15 "Generated_Source\\PSoC6\\pdl\\middleware\\ble\\cy_ble_stack_gatt_server.h"
 1757              		.file 16 "Generated_Source\\PSoC6\\pdl\\middleware\\ble\\cy_ble_stack_gatt_db.h"
 1758              		.file 17 "Generated_Source\\PSoC6\\pdl\\middleware\\ble\\cy_ble_gatt.h"
 1759              		.file 18 "Generated_Source\\PSoC6\\pdl\\middleware\\ble\\cy_ble_stack_l2cap.h"
 1760              		.file 19 "Generated_Source\\PSoC6\\pdl\\middleware\\ble\\cy_ble.h"
 1761              		.file 20 "Generated_Source\\PSoC6\\pdl\\middleware\\ble\\cy_ble_event_handler.h"
 1762              		.file 21 "Generated_Source\\PSoC6\\pdl\\middleware\\ble\\cy_ble_hal_pvt.h"
 1763              		.section	.debug_info,"",%progbits
 1764              	.Ldebug_info0:
 1765 0000 B03A0000 		.4byte	0x3ab0
 1766 0004 0400     		.2byte	0x4
 1767 0006 00000000 		.4byte	.Ldebug_abbrev0
 1768 000a 04       		.byte	0x4
 1769 000b 01       		.uleb128 0x1
 1770 000c BD4F0000 		.4byte	.LASF1154
 1771 0010 0C       		.byte	0xc
 1772 0011 DA650000 		.4byte	.LASF1155
 1773 0015 55710000 		.4byte	.LASF1156
 1774 0019 18000000 		.4byte	.Ldebug_ranges0+0x18
 1775 001d 00000000 		.4byte	0
 1776 0021 00000000 		.4byte	.Ldebug_line0
 1777 0025 02       		.uleb128 0x2
 1778 0026 04       		.byte	0x4
 1779 0027 05       		.byte	0x5
 1780 0028 696E7400 		.ascii	"int\000"
 1781 002c 03       		.uleb128 0x3
 1782 002d 04       		.byte	0x4
 1783 002e 07       		.byte	0x7
 1784 002f 6C7A0000 		.4byte	.LASF0
 1785 0033 03       		.uleb128 0x3
 1786 0034 08       		.byte	0x8
 1787 0035 05       		.byte	0x5
 1788 0036 2E000000 		.4byte	.LASF1
 1789 003a 03       		.uleb128 0x3
 1790 003b 08       		.byte	0x8
 1791 003c 04       		.byte	0x4
 1792 003d AE0B0000 		.4byte	.LASF2
 1793 0041 03       		.uleb128 0x3
 1794 0042 01       		.byte	0x1
 1795 0043 06       		.byte	0x6
 1796 0044 37620000 		.4byte	.LASF3
 1797 0048 04       		.uleb128 0x4
 1798 0049 CA1A0000 		.4byte	.LASF6
 1799 004d 03       		.byte	0x3
 1800 004e 1D       		.byte	0x1d
 1801 004f 53000000 		.4byte	0x53
 1802 0053 03       		.uleb128 0x3
 1803 0054 01       		.byte	0x1
 1804 0055 08       		.byte	0x8
 1805 0056 F33F0000 		.4byte	.LASF4
 1806 005a 03       		.uleb128 0x3
 1807 005b 02       		.byte	0x2
 1808 005c 05       		.byte	0x5
 1809 005d 4E550000 		.4byte	.LASF5
ARM GAS  C:\Users\salaz\AppData\Local\Temp\ccj0QfQu.s 			page 67


 1810 0061 04       		.uleb128 0x4
 1811 0062 8B290000 		.4byte	.LASF7
 1812 0066 03       		.byte	0x3
 1813 0067 2B       		.byte	0x2b
 1814 0068 6C000000 		.4byte	0x6c
 1815 006c 03       		.uleb128 0x3
 1816 006d 02       		.byte	0x2
 1817 006e 07       		.byte	0x7
 1818 006f 8C390000 		.4byte	.LASF8
 1819 0073 03       		.uleb128 0x3
 1820 0074 04       		.byte	0x4
 1821 0075 05       		.byte	0x5
 1822 0076 C8590000 		.4byte	.LASF9
 1823 007a 04       		.uleb128 0x4
 1824 007b E5480000 		.4byte	.LASF10
 1825 007f 03       		.byte	0x3
 1826 0080 41       		.byte	0x41
 1827 0081 85000000 		.4byte	0x85
 1828 0085 03       		.uleb128 0x3
 1829 0086 04       		.byte	0x4
 1830 0087 07       		.byte	0x7
 1831 0088 B2010000 		.4byte	.LASF11
 1832 008c 03       		.uleb128 0x3
 1833 008d 08       		.byte	0x8
 1834 008e 07       		.byte	0x7
 1835 008f A9670000 		.4byte	.LASF12
 1836 0093 03       		.uleb128 0x3
 1837 0094 04       		.byte	0x4
 1838 0095 07       		.byte	0x7
 1839 0096 3A5C0000 		.4byte	.LASF13
 1840 009a 05       		.uleb128 0x5
 1841 009b 04       		.byte	0x4
 1842 009c 03       		.uleb128 0x3
 1843 009d 01       		.byte	0x1
 1844 009e 08       		.byte	0x8
 1845 009f AD6C0000 		.4byte	.LASF14
 1846 00a3 04       		.uleb128 0x4
 1847 00a4 B73C0000 		.4byte	.LASF15
 1848 00a8 04       		.byte	0x4
 1849 00a9 18       		.byte	0x18
 1850 00aa 48000000 		.4byte	0x48
 1851 00ae 04       		.uleb128 0x4
 1852 00af CA660000 		.4byte	.LASF16
 1853 00b3 04       		.byte	0x4
 1854 00b4 24       		.byte	0x24
 1855 00b5 61000000 		.4byte	0x61
 1856 00b9 04       		.uleb128 0x4
 1857 00ba F7090000 		.4byte	.LASF17
 1858 00be 04       		.byte	0x4
 1859 00bf 30       		.byte	0x30
 1860 00c0 7A000000 		.4byte	0x7a
 1861 00c4 06       		.uleb128 0x6
 1862 00c5 02       		.byte	0x2
 1863 00c6 5A000000 		.4byte	0x5a
 1864 00ca 05       		.byte	0x5
 1865 00cb 24       		.byte	0x24
 1866 00cc BB010000 		.4byte	0x1bb
ARM GAS  C:\Users\salaz\AppData\Local\Temp\ccj0QfQu.s 			page 68


 1867 00d0 07       		.uleb128 0x7
 1868 00d1 C7700000 		.4byte	.LASF18
 1869 00d5 71       		.sleb128 -15
 1870 00d6 07       		.uleb128 0x7
 1871 00d7 051F0000 		.4byte	.LASF19
 1872 00db 72       		.sleb128 -14
 1873 00dc 07       		.uleb128 0x7
 1874 00dd 5F450000 		.4byte	.LASF20
 1875 00e1 73       		.sleb128 -13
 1876 00e2 07       		.uleb128 0x7
 1877 00e3 C7750000 		.4byte	.LASF21
 1878 00e7 7B       		.sleb128 -5
 1879 00e8 07       		.uleb128 0x7
 1880 00e9 FE760000 		.4byte	.LASF22
 1881 00ed 7E       		.sleb128 -2
 1882 00ee 07       		.uleb128 0x7
 1883 00ef 44170000 		.4byte	.LASF23
 1884 00f3 7F       		.sleb128 -1
 1885 00f4 08       		.uleb128 0x8
 1886 00f5 0E4D0000 		.4byte	.LASF24
 1887 00f9 00       		.byte	0
 1888 00fa 08       		.uleb128 0x8
 1889 00fb 036F0000 		.4byte	.LASF25
 1890 00ff 01       		.byte	0x1
 1891 0100 08       		.uleb128 0x8
 1892 0101 231D0000 		.4byte	.LASF26
 1893 0105 02       		.byte	0x2
 1894 0106 08       		.uleb128 0x8
 1895 0107 31450000 		.4byte	.LASF27
 1896 010b 03       		.byte	0x3
 1897 010c 08       		.uleb128 0x8
 1898 010d 17690000 		.4byte	.LASF28
 1899 0111 04       		.byte	0x4
 1900 0112 08       		.uleb128 0x8
 1901 0113 B3150000 		.4byte	.LASF29
 1902 0117 05       		.byte	0x5
 1903 0118 08       		.uleb128 0x8
 1904 0119 193C0000 		.4byte	.LASF30
 1905 011d 06       		.byte	0x6
 1906 011e 08       		.uleb128 0x8
 1907 011f 09610000 		.4byte	.LASF31
 1908 0123 07       		.byte	0x7
 1909 0124 08       		.uleb128 0x8
 1910 0125 5C0C0000 		.4byte	.LASF32
 1911 0129 08       		.byte	0x8
 1912 012a 08       		.uleb128 0x8
 1913 012b 41330000 		.4byte	.LASF33
 1914 012f 09       		.byte	0x9
 1915 0130 08       		.uleb128 0x8
 1916 0131 AA060000 		.4byte	.LASF34
 1917 0135 0A       		.byte	0xa
 1918 0136 08       		.uleb128 0x8
 1919 0137 132F0000 		.4byte	.LASF35
 1920 013b 0B       		.byte	0xb
 1921 013c 08       		.uleb128 0x8
 1922 013d FB550000 		.4byte	.LASF36
 1923 0141 0C       		.byte	0xc
ARM GAS  C:\Users\salaz\AppData\Local\Temp\ccj0QfQu.s 			page 69


 1924 0142 08       		.uleb128 0x8
 1925 0143 DA780000 		.4byte	.LASF37
 1926 0147 0D       		.byte	0xd
 1927 0148 08       		.uleb128 0x8
 1928 0149 DA270000 		.4byte	.LASF38
 1929 014d 0E       		.byte	0xe
 1930 014e 08       		.uleb128 0x8
 1931 014f D54D0000 		.4byte	.LASF39
 1932 0153 0F       		.byte	0xf
 1933 0154 08       		.uleb128 0x8
 1934 0155 D2700000 		.4byte	.LASF40
 1935 0159 10       		.byte	0x10
 1936 015a 08       		.uleb128 0x8
 1937 015b 531F0000 		.4byte	.LASF41
 1938 015f 11       		.byte	0x11
 1939 0160 08       		.uleb128 0x8
 1940 0161 56460000 		.4byte	.LASF42
 1941 0165 12       		.byte	0x12
 1942 0166 08       		.uleb128 0x8
 1943 0167 4B6A0000 		.4byte	.LASF43
 1944 016b 13       		.byte	0x13
 1945 016c 08       		.uleb128 0x8
 1946 016d 93760000 		.4byte	.LASF44
 1947 0171 14       		.byte	0x14
 1948 0172 08       		.uleb128 0x8
 1949 0173 23250000 		.4byte	.LASF45
 1950 0177 15       		.byte	0x15
 1951 0178 08       		.uleb128 0x8
 1952 0179 EA4B0000 		.4byte	.LASF46
 1953 017d 16       		.byte	0x16
 1954 017e 08       		.uleb128 0x8
 1955 017f BB6E0000 		.4byte	.LASF47
 1956 0183 17       		.byte	0x17
 1957 0184 08       		.uleb128 0x8
 1958 0185 A31C0000 		.4byte	.LASF48
 1959 0189 18       		.byte	0x18
 1960 018a 08       		.uleb128 0x8
 1961 018b 2B430000 		.4byte	.LASF49
 1962 018f 19       		.byte	0x19
 1963 0190 08       		.uleb128 0x8
 1964 0191 C0670000 		.4byte	.LASF50
 1965 0195 1A       		.byte	0x1a
 1966 0196 08       		.uleb128 0x8
 1967 0197 05150000 		.4byte	.LASF51
 1968 019b 1B       		.byte	0x1b
 1969 019c 08       		.uleb128 0x8
 1970 019d B63A0000 		.4byte	.LASF52
 1971 01a1 1C       		.byte	0x1c
 1972 01a2 08       		.uleb128 0x8
 1973 01a3 07600000 		.4byte	.LASF53
 1974 01a7 1D       		.byte	0x1d
 1975 01a8 08       		.uleb128 0x8
 1976 01a9 266C0000 		.4byte	.LASF54
 1977 01ad 1E       		.byte	0x1e
 1978 01ae 08       		.uleb128 0x8
 1979 01af 39190000 		.4byte	.LASF55
 1980 01b3 1F       		.byte	0x1f
ARM GAS  C:\Users\salaz\AppData\Local\Temp\ccj0QfQu.s 			page 70


 1981 01b4 08       		.uleb128 0x8
 1982 01b5 24210000 		.4byte	.LASF56
 1983 01b9 F0       		.byte	0xf0
 1984 01ba 00       		.byte	0
 1985 01bb 04       		.uleb128 0x4
 1986 01bc 6D5E0000 		.4byte	.LASF57
 1987 01c0 05       		.byte	0x5
 1988 01c1 F4       		.byte	0xf4
 1989 01c2 C4000000 		.4byte	0xc4
 1990 01c6 06       		.uleb128 0x6
 1991 01c7 01       		.byte	0x1
 1992 01c8 53000000 		.4byte	0x53
 1993 01cc 05       		.byte	0x5
 1994 01cd FD       		.byte	0xfd
 1995 01ce 4B050000 		.4byte	0x54b
 1996 01d2 08       		.uleb128 0x8
 1997 01d3 82440000 		.4byte	.LASF58
 1998 01d7 00       		.byte	0
 1999 01d8 08       		.uleb128 0x8
 2000 01d9 D2680000 		.4byte	.LASF59
 2001 01dd 01       		.byte	0x1
 2002 01de 08       		.uleb128 0x8
 2003 01df 3F150000 		.4byte	.LASF60
 2004 01e3 02       		.byte	0x2
 2005 01e4 08       		.uleb128 0x8
 2006 01e5 B93B0000 		.4byte	.LASF61
 2007 01e9 03       		.byte	0x3
 2008 01ea 08       		.uleb128 0x8
 2009 01eb BE600000 		.4byte	.LASF62
 2010 01ef 04       		.byte	0x4
 2011 01f0 08       		.uleb128 0x8
 2012 01f1 920B0000 		.4byte	.LASF63
 2013 01f5 05       		.byte	0x5
 2014 01f6 08       		.uleb128 0x8
 2015 01f7 EF320000 		.4byte	.LASF64
 2016 01fb 06       		.byte	0x6
 2017 01fc 08       		.uleb128 0x8
 2018 01fd FE5A0000 		.4byte	.LASF65
 2019 0201 07       		.byte	0x7
 2020 0202 08       		.uleb128 0x8
 2021 0203 1D030000 		.4byte	.LASF66
 2022 0207 08       		.byte	0x8
 2023 0208 08       		.uleb128 0x8
 2024 0209 1D2C0000 		.4byte	.LASF67
 2025 020d 09       		.byte	0x9
 2026 020e 08       		.uleb128 0x8
 2027 020f 20470000 		.4byte	.LASF68
 2028 0213 0A       		.byte	0xa
 2029 0214 08       		.uleb128 0x8
 2030 0215 7F6A0000 		.4byte	.LASF69
 2031 0219 0B       		.byte	0xb
 2032 021a 08       		.uleb128 0x8
 2033 021b 4C180000 		.4byte	.LASF70
 2034 021f 0C       		.byte	0xc
 2035 0220 08       		.uleb128 0x8
 2036 0221 083E0000 		.4byte	.LASF71
 2037 0225 0D       		.byte	0xd
ARM GAS  C:\Users\salaz\AppData\Local\Temp\ccj0QfQu.s 			page 71


 2038 0226 08       		.uleb128 0x8
 2039 0227 01630000 		.4byte	.LASF72
 2040 022b 0E       		.byte	0xe
 2041 022c 08       		.uleb128 0x8
 2042 022d 4F430000 		.4byte	.LASF73
 2043 0231 0F       		.byte	0xf
 2044 0232 08       		.uleb128 0x8
 2045 0233 5A6A0000 		.4byte	.LASF74
 2046 0237 10       		.byte	0x10
 2047 0238 08       		.uleb128 0x8
 2048 0239 7D380000 		.4byte	.LASF75
 2049 023d 11       		.byte	0x11
 2050 023e 08       		.uleb128 0x8
 2051 023f AC030000 		.4byte	.LASF76
 2052 0243 12       		.byte	0x12
 2053 0244 08       		.uleb128 0x8
 2054 0245 63080000 		.4byte	.LASF77
 2055 0249 13       		.byte	0x13
 2056 024a 08       		.uleb128 0x8
 2057 024b 20300000 		.4byte	.LASF78
 2058 024f 14       		.byte	0x14
 2059 0250 08       		.uleb128 0x8
 2060 0251 ED3D0000 		.4byte	.LASF79
 2061 0255 15       		.byte	0x15
 2062 0256 08       		.uleb128 0x8
 2063 0257 7E0B0000 		.4byte	.LASF80
 2064 025b 16       		.byte	0x16
 2065 025c 08       		.uleb128 0x8
 2066 025d 32780000 		.4byte	.LASF81
 2067 0261 17       		.byte	0x17
 2068 0262 08       		.uleb128 0x8
 2069 0263 A32D0000 		.4byte	.LASF82
 2070 0267 18       		.byte	0x18
 2071 0268 08       		.uleb128 0x8
 2072 0269 64770000 		.4byte	.LASF83
 2073 026d 19       		.byte	0x19
 2074 026e 08       		.uleb128 0x8
 2075 026f 86580000 		.4byte	.LASF84
 2076 0273 1A       		.byte	0x1a
 2077 0274 08       		.uleb128 0x8
 2078 0275 C04C0000 		.4byte	.LASF85
 2079 0279 1B       		.byte	0x1b
 2080 027a 08       		.uleb128 0x8
 2081 027b 516F0000 		.4byte	.LASF86
 2082 027f 1C       		.byte	0x1c
 2083 0280 08       		.uleb128 0x8
 2084 0281 53230000 		.4byte	.LASF87
 2085 0285 1D       		.byte	0x1d
 2086 0286 08       		.uleb128 0x8
 2087 0287 66440000 		.4byte	.LASF88
 2088 028b 1E       		.byte	0x1e
 2089 028c 08       		.uleb128 0x8
 2090 028d B6680000 		.4byte	.LASF89
 2091 0291 1F       		.byte	0x1f
 2092 0292 08       		.uleb128 0x8
 2093 0293 4B690000 		.4byte	.LASF90
 2094 0297 20       		.byte	0x20
ARM GAS  C:\Users\salaz\AppData\Local\Temp\ccj0QfQu.s 			page 72


 2095 0298 08       		.uleb128 0x8
 2096 0299 9D3B0000 		.4byte	.LASF91
 2097 029d 21       		.byte	0x21
 2098 029e 08       		.uleb128 0x8
 2099 029f A2600000 		.4byte	.LASF92
 2100 02a3 22       		.byte	0x22
 2101 02a4 08       		.uleb128 0x8
 2102 02a5 CE0D0000 		.4byte	.LASF93
 2103 02a9 23       		.byte	0x23
 2104 02aa 08       		.uleb128 0x8
 2105 02ab 0C340000 		.4byte	.LASF94
 2106 02af 24       		.byte	0x24
 2107 02b0 08       		.uleb128 0x8
 2108 02b1 8C5B0000 		.4byte	.LASF95
 2109 02b5 25       		.byte	0x25
 2110 02b6 08       		.uleb128 0x8
 2111 02b7 BA040000 		.4byte	.LASF96
 2112 02bb 26       		.byte	0x26
 2113 02bc 08       		.uleb128 0x8
 2114 02bd B82D0000 		.4byte	.LASF97
 2115 02c1 27       		.byte	0x27
 2116 02c2 08       		.uleb128 0x8
 2117 02c3 58550000 		.4byte	.LASF98
 2118 02c7 28       		.byte	0x28
 2119 02c8 08       		.uleb128 0x8
 2120 02c9 B47A0000 		.4byte	.LASF99
 2121 02cd 29       		.byte	0x29
 2122 02ce 08       		.uleb128 0x8
 2123 02cf 94410000 		.4byte	.LASF100
 2124 02d3 2A       		.byte	0x2a
 2125 02d4 08       		.uleb128 0x8
 2126 02d5 D6000000 		.4byte	.LASF101
 2127 02d9 2B       		.byte	0x2b
 2128 02da 08       		.uleb128 0x8
 2129 02db 68420000 		.4byte	.LASF102
 2130 02df 2C       		.byte	0x2c
 2131 02e0 08       		.uleb128 0x8
 2132 02e1 C4010000 		.4byte	.LASF103
 2133 02e5 2D       		.byte	0x2d
 2134 02e6 08       		.uleb128 0x8
 2135 02e7 3A430000 		.4byte	.LASF104
 2136 02eb 2E       		.byte	0x2e
 2137 02ec 08       		.uleb128 0x8
 2138 02ed 08030000 		.4byte	.LASF105
 2139 02f1 2F       		.byte	0x2f
 2140 02f2 08       		.uleb128 0x8
 2141 02f3 31440000 		.4byte	.LASF106
 2142 02f7 30       		.byte	0x30
 2143 02f8 08       		.uleb128 0x8
 2144 02f9 48380000 		.4byte	.LASF107
 2145 02fd 31       		.byte	0x31
 2146 02fe 08       		.uleb128 0x8
 2147 02ff 672F0000 		.4byte	.LASF108
 2148 0303 32       		.byte	0x32
 2149 0304 08       		.uleb128 0x8
 2150 0305 CC560000 		.4byte	.LASF109
 2151 0309 33       		.byte	0x33
ARM GAS  C:\Users\salaz\AppData\Local\Temp\ccj0QfQu.s 			page 73


 2152 030a 08       		.uleb128 0x8
 2153 030b 1C7A0000 		.4byte	.LASF110
 2154 030f 34       		.byte	0x34
 2155 0310 08       		.uleb128 0x8
 2156 0311 E9270000 		.4byte	.LASF111
 2157 0315 35       		.byte	0x35
 2158 0316 08       		.uleb128 0x8
 2159 0317 A14F0000 		.4byte	.LASF112
 2160 031b 36       		.byte	0x36
 2161 031c 08       		.uleb128 0x8
 2162 031d 90710000 		.4byte	.LASF113
 2163 0321 37       		.byte	0x37
 2164 0322 08       		.uleb128 0x8
 2165 0323 621F0000 		.4byte	.LASF114
 2166 0327 38       		.byte	0x38
 2167 0328 08       		.uleb128 0x8
 2168 0329 B7470000 		.4byte	.LASF115
 2169 032d 39       		.byte	0x39
 2170 032e 08       		.uleb128 0x8
 2171 032f D16A0000 		.4byte	.LASF116
 2172 0333 3A       		.byte	0x3a
 2173 0334 08       		.uleb128 0x8
 2174 0335 B1180000 		.4byte	.LASF117
 2175 0339 3B       		.byte	0x3b
 2176 033a 08       		.uleb128 0x8
 2177 033b 98630000 		.4byte	.LASF118
 2178 033f 3C       		.byte	0x3c
 2179 0340 08       		.uleb128 0x8
 2180 0341 CB100000 		.4byte	.LASF119
 2181 0345 3D       		.byte	0x3d
 2182 0346 08       		.uleb128 0x8
 2183 0347 14370000 		.4byte	.LASF120
 2184 034b 3E       		.byte	0x3e
 2185 034c 08       		.uleb128 0x8
 2186 034d 9C5C0000 		.4byte	.LASF121
 2187 0351 3F       		.byte	0x3f
 2188 0352 08       		.uleb128 0x8
 2189 0353 97070000 		.4byte	.LASF122
 2190 0357 40       		.byte	0x40
 2191 0358 08       		.uleb128 0x8
 2192 0359 DE2F0000 		.4byte	.LASF123
 2193 035d 41       		.byte	0x41
 2194 035e 08       		.uleb128 0x8
 2195 035f F7520000 		.4byte	.LASF124
 2196 0363 42       		.byte	0x42
 2197 0364 08       		.uleb128 0x8
 2198 0365 74750000 		.4byte	.LASF125
 2199 0369 43       		.byte	0x43
 2200 036a 08       		.uleb128 0x8
 2201 036b 76230000 		.4byte	.LASF126
 2202 036f 44       		.byte	0x44
 2203 0370 08       		.uleb128 0x8
 2204 0371 B84A0000 		.4byte	.LASF127
 2205 0375 45       		.byte	0x45
 2206 0376 08       		.uleb128 0x8
 2207 0377 4A6D0000 		.4byte	.LASF128
 2208 037b 46       		.byte	0x46
ARM GAS  C:\Users\salaz\AppData\Local\Temp\ccj0QfQu.s 			page 74


 2209 037c 08       		.uleb128 0x8
 2210 037d 5E1B0000 		.4byte	.LASF129
 2211 0381 47       		.byte	0x47
 2212 0382 08       		.uleb128 0x8
 2213 0383 E9410000 		.4byte	.LASF130
 2214 0387 48       		.byte	0x48
 2215 0388 08       		.uleb128 0x8
 2216 0389 8A660000 		.4byte	.LASF131
 2217 038d 49       		.byte	0x49
 2218 038e 08       		.uleb128 0x8
 2219 038f 5E130000 		.4byte	.LASF132
 2220 0393 4A       		.byte	0x4a
 2221 0394 08       		.uleb128 0x8
 2222 0395 56390000 		.4byte	.LASF133
 2223 0399 4B       		.byte	0x4b
 2224 039a 08       		.uleb128 0x8
 2225 039b 561C0000 		.4byte	.LASF134
 2226 039f 4C       		.byte	0x4c
 2227 03a0 08       		.uleb128 0x8
 2228 03a1 F0430000 		.4byte	.LASF135
 2229 03a5 4D       		.byte	0x4d
 2230 03a6 08       		.uleb128 0x8
 2231 03a7 4F680000 		.4byte	.LASF136
 2232 03ab 4E       		.byte	0x4e
 2233 03ac 08       		.uleb128 0x8
 2234 03ad D4140000 		.4byte	.LASF137
 2235 03b1 4F       		.byte	0x4f
 2236 03b2 08       		.uleb128 0x8
 2237 03b3 5D3B0000 		.4byte	.LASF138
 2238 03b7 50       		.byte	0x50
 2239 03b8 08       		.uleb128 0x8
 2240 03b9 5A600000 		.4byte	.LASF139
 2241 03bd 51       		.byte	0x51
 2242 03be 08       		.uleb128 0x8
 2243 03bf 3C300000 		.4byte	.LASF140
 2244 03c3 52       		.byte	0x52
 2245 03c4 08       		.uleb128 0x8
 2246 03c5 49580000 		.4byte	.LASF141
 2247 03c9 53       		.byte	0x53
 2248 03ca 08       		.uleb128 0x8
 2249 03cb 96500000 		.4byte	.LASF142
 2250 03cf 54       		.byte	0x54
 2251 03d0 08       		.uleb128 0x8
 2252 03d1 BF580000 		.4byte	.LASF143
 2253 03d5 55       		.byte	0x55
 2254 03d6 08       		.uleb128 0x8
 2255 03d7 CD460000 		.4byte	.LASF144
 2256 03db 56       		.byte	0x56
 2257 03dc 08       		.uleb128 0x8
 2258 03dd 060D0000 		.4byte	.LASF145
 2259 03e1 57       		.byte	0x57
 2260 03e2 08       		.uleb128 0x8
 2261 03e3 0F1B0000 		.4byte	.LASF146
 2262 03e7 58       		.byte	0x58
 2263 03e8 08       		.uleb128 0x8
 2264 03e9 F90B0000 		.4byte	.LASF147
 2265 03ed 59       		.byte	0x59
ARM GAS  C:\Users\salaz\AppData\Local\Temp\ccj0QfQu.s 			page 75


 2266 03ee 08       		.uleb128 0x8
 2267 03ef F9190000 		.4byte	.LASF148
 2268 03f3 5A       		.byte	0x5a
 2269 03f4 08       		.uleb128 0x8
 2270 03f5 A0400000 		.4byte	.LASF149
 2271 03f9 5B       		.byte	0x5b
 2272 03fa 08       		.uleb128 0x8
 2273 03fb 89640000 		.4byte	.LASF150
 2274 03ff 5C       		.byte	0x5c
 2275 0400 08       		.uleb128 0x8
 2276 0401 FD110000 		.4byte	.LASF151
 2277 0405 5D       		.byte	0x5d
 2278 0406 08       		.uleb128 0x8
 2279 0407 97370000 		.4byte	.LASF152
 2280 040b 5E       		.byte	0x5e
 2281 040c 08       		.uleb128 0x8
 2282 040d A65D0000 		.4byte	.LASF153
 2283 0411 5F       		.byte	0x5f
 2284 0412 08       		.uleb128 0x8
 2285 0413 AE080000 		.4byte	.LASF154
 2286 0417 60       		.byte	0x60
 2287 0418 08       		.uleb128 0x8
 2288 0419 06300000 		.4byte	.LASF155
 2289 041d 61       		.byte	0x61
 2290 041e 08       		.uleb128 0x8
 2291 041f AD700000 		.4byte	.LASF156
 2292 0423 62       		.byte	0x62
 2293 0424 08       		.uleb128 0x8
 2294 0425 1C1E0000 		.4byte	.LASF157
 2295 0429 63       		.byte	0x63
 2296 042a 08       		.uleb128 0x8
 2297 042b 2C460000 		.4byte	.LASF158
 2298 042f 64       		.byte	0x64
 2299 0430 08       		.uleb128 0x8
 2300 0431 316A0000 		.4byte	.LASF159
 2301 0435 65       		.byte	0x65
 2302 0436 08       		.uleb128 0x8
 2303 0437 8F170000 		.4byte	.LASF160
 2304 043b 66       		.byte	0x66
 2305 043c 08       		.uleb128 0x8
 2306 043d BF3C0000 		.4byte	.LASF161
 2307 0441 67       		.byte	0x67
 2308 0442 08       		.uleb128 0x8
 2309 0443 EB610000 		.4byte	.LASF162
 2310 0447 68       		.byte	0x68
 2311 0448 08       		.uleb128 0x8
 2312 0449 1E0F0000 		.4byte	.LASF163
 2313 044d 69       		.byte	0x69
 2314 044e 08       		.uleb128 0x8
 2315 044f 29340000 		.4byte	.LASF164
 2316 0453 6A       		.byte	0x6a
 2317 0454 08       		.uleb128 0x8
 2318 0455 B75B0000 		.4byte	.LASF165
 2319 0459 6B       		.byte	0x6b
 2320 045a 08       		.uleb128 0x8
 2321 045b 895A0000 		.4byte	.LASF166
 2322 045f 6C       		.byte	0x6c
ARM GAS  C:\Users\salaz\AppData\Local\Temp\ccj0QfQu.s 			page 76


 2323 0460 08       		.uleb128 0x8
 2324 0461 53030000 		.4byte	.LASF167
 2325 0465 6D       		.byte	0x6d
 2326 0466 08       		.uleb128 0x8
 2327 0467 772C0000 		.4byte	.LASF168
 2328 046b 6E       		.byte	0x6e
 2329 046c 08       		.uleb128 0x8
 2330 046d 33540000 		.4byte	.LASF169
 2331 0471 6F       		.byte	0x6f
 2332 0472 08       		.uleb128 0x8
 2333 0473 F0750000 		.4byte	.LASF170
 2334 0477 70       		.byte	0x70
 2335 0478 08       		.uleb128 0x8
 2336 0479 87240000 		.4byte	.LASF171
 2337 047d 71       		.byte	0x71
 2338 047e 08       		.uleb128 0x8
 2339 047f 5D4C0000 		.4byte	.LASF172
 2340 0483 72       		.byte	0x72
 2341 0484 08       		.uleb128 0x8
 2342 0485 FF6D0000 		.4byte	.LASF173
 2343 0489 73       		.byte	0x73
 2344 048a 08       		.uleb128 0x8
 2345 048b 031C0000 		.4byte	.LASF174
 2346 048f 74       		.byte	0x74
 2347 0490 08       		.uleb128 0x8
 2348 0491 A4430000 		.4byte	.LASF175
 2349 0495 75       		.byte	0x75
 2350 0496 08       		.uleb128 0x8
 2351 0497 93510000 		.4byte	.LASF176
 2352 049b 76       		.byte	0x76
 2353 049c 08       		.uleb128 0x8
 2354 049d 35730000 		.4byte	.LASF177
 2355 04a1 77       		.byte	0x77
 2356 04a2 08       		.uleb128 0x8
 2357 04a3 5F210000 		.4byte	.LASF178
 2358 04a7 78       		.byte	0x78
 2359 04a8 08       		.uleb128 0x8
 2360 04a9 F0480000 		.4byte	.LASF179
 2361 04ad 79       		.byte	0x79
 2362 04ae 08       		.uleb128 0x8
 2363 04af CC210000 		.4byte	.LASF180
 2364 04b3 7A       		.byte	0x7a
 2365 04b4 08       		.uleb128 0x8
 2366 04b5 444A0000 		.4byte	.LASF181
 2367 04b9 7B       		.byte	0x7b
 2368 04ba 08       		.uleb128 0x8
 2369 04bb 196D0000 		.4byte	.LASF182
 2370 04bf 7C       		.byte	0x7c
 2371 04c0 08       		.uleb128 0x8
 2372 04c1 F91A0000 		.4byte	.LASF183
 2373 04c5 7D       		.byte	0x7d
 2374 04c6 08       		.uleb128 0x8
 2375 04c7 A9410000 		.4byte	.LASF184
 2376 04cb 7E       		.byte	0x7e
 2377 04cc 08       		.uleb128 0x8
 2378 04cd C4650000 		.4byte	.LASF185
 2379 04d1 7F       		.byte	0x7f
ARM GAS  C:\Users\salaz\AppData\Local\Temp\ccj0QfQu.s 			page 77


 2380 04d2 08       		.uleb128 0x8
 2381 04d3 1B130000 		.4byte	.LASF186
 2382 04d7 80       		.byte	0x80
 2383 04d8 08       		.uleb128 0x8
 2384 04d9 5B380000 		.4byte	.LASF187
 2385 04dd 81       		.byte	0x81
 2386 04de 08       		.uleb128 0x8
 2387 04df 285F0000 		.4byte	.LASF188
 2388 04e3 82       		.byte	0x82
 2389 04e4 08       		.uleb128 0x8
 2390 04e5 C2090000 		.4byte	.LASF189
 2391 04e9 83       		.byte	0x83
 2392 04ea 08       		.uleb128 0x8
 2393 04eb 17590000 		.4byte	.LASF190
 2394 04ef 84       		.byte	0x84
 2395 04f0 08       		.uleb128 0x8
 2396 04f1 0F010000 		.4byte	.LASF191
 2397 04f5 85       		.byte	0x85
 2398 04f6 08       		.uleb128 0x8
 2399 04f7 74290000 		.4byte	.LASF192
 2400 04fb 86       		.byte	0x86
 2401 04fc 08       		.uleb128 0x8
 2402 04fd F8510000 		.4byte	.LASF193
 2403 0501 87       		.byte	0x87
 2404 0502 08       		.uleb128 0x8
 2405 0503 BA730000 		.4byte	.LASF194
 2406 0507 88       		.byte	0x88
 2407 0508 08       		.uleb128 0x8
 2408 0509 0D210000 		.4byte	.LASF195
 2409 050d 89       		.byte	0x89
 2410 050e 08       		.uleb128 0x8
 2411 050f 4A220000 		.4byte	.LASF196
 2412 0513 8A       		.byte	0x8a
 2413 0514 08       		.uleb128 0x8
 2414 0515 B63E0000 		.4byte	.LASF197
 2415 0519 8B       		.byte	0x8b
 2416 051a 08       		.uleb128 0x8
 2417 051b E4220000 		.4byte	.LASF198
 2418 051f 8C       		.byte	0x8c
 2419 0520 08       		.uleb128 0x8
 2420 0521 E0640000 		.4byte	.LASF199
 2421 0525 8D       		.byte	0x8d
 2422 0526 08       		.uleb128 0x8
 2423 0527 820F0000 		.4byte	.LASF200
 2424 052b 8E       		.byte	0x8e
 2425 052c 08       		.uleb128 0x8
 2426 052d 2E170000 		.4byte	.LASF201
 2427 0531 8F       		.byte	0x8f
 2428 0532 08       		.uleb128 0x8
 2429 0533 74260000 		.4byte	.LASF202
 2430 0537 90       		.byte	0x90
 2431 0538 08       		.uleb128 0x8
 2432 0539 B2590000 		.4byte	.LASF203
 2433 053d 91       		.byte	0x91
 2434 053e 08       		.uleb128 0x8
 2435 053f 5B0A0000 		.4byte	.LASF204
 2436 0543 92       		.byte	0x92
ARM GAS  C:\Users\salaz\AppData\Local\Temp\ccj0QfQu.s 			page 78


 2437 0544 08       		.uleb128 0x8
 2438 0545 DC4C0000 		.4byte	.LASF205
 2439 0549 F0       		.byte	0xf0
 2440 054a 00       		.byte	0
 2441 054b 09       		.uleb128 0x9
 2442 054c 960F0000 		.4byte	.LASF206
 2443 0550 05       		.byte	0x5
 2444 0551 9201     		.2byte	0x192
 2445 0553 C6010000 		.4byte	0x1c6
 2446 0557 0A       		.uleb128 0xa
 2447 0558 B9000000 		.4byte	0xb9
 2448 055c 0B       		.uleb128 0xb
 2449 055d 57050000 		.4byte	0x557
 2450 0561 0C       		.uleb128 0xc
 2451 0562 0080     		.2byte	0x8000
 2452 0564 06       		.byte	0x6
 2453 0565 21       		.byte	0x21
 2454 0566 150B0000 		.4byte	0xb15
 2455 056a 0D       		.uleb128 0xd
 2456 056b 2F560000 		.4byte	.LASF207
 2457 056f 06       		.byte	0x6
 2458 0570 22       		.byte	0x22
 2459 0571 1A0B0000 		.4byte	0xb1a
 2460 0575 00       		.byte	0
 2461 0576 0D       		.uleb128 0xd
 2462 0577 832F0000 		.4byte	.LASF208
 2463 057b 06       		.byte	0x6
 2464 057c 23       		.byte	0x23
 2465 057d 150B0000 		.4byte	0xb15
 2466 0581 01       		.byte	0x1
 2467 0582 0D       		.uleb128 0xd
 2468 0583 FB2F0000 		.4byte	.LASF209
 2469 0587 06       		.byte	0x6
 2470 0588 24       		.byte	0x24
 2471 0589 1F0B0000 		.4byte	0xb1f
 2472 058d 02       		.byte	0x2
 2473 058e 0D       		.uleb128 0xd
 2474 058f 5C3A0000 		.4byte	.LASF210
 2475 0593 06       		.byte	0x6
 2476 0594 25       		.byte	0x25
 2477 0595 390B0000 		.4byte	0xb39
 2478 0599 04       		.byte	0x4
 2479 059a 0D       		.uleb128 0xd
 2480 059b 9C5D0000 		.4byte	.LASF211
 2481 059f 06       		.byte	0x6
 2482 05a0 26       		.byte	0x26
 2483 05a1 1F0B0000 		.4byte	0xb1f
 2484 05a5 0C       		.byte	0xc
 2485 05a6 0D       		.uleb128 0xd
 2486 05a7 663A0000 		.4byte	.LASF212
 2487 05ab 06       		.byte	0x6
 2488 05ac 27       		.byte	0x27
 2489 05ad 590B0000 		.4byte	0xb59
 2490 05b1 0E       		.byte	0xe
 2491 05b2 0E       		.uleb128 0xe
 2492 05b3 3D0D0000 		.4byte	.LASF213
 2493 05b7 06       		.byte	0x6
ARM GAS  C:\Users\salaz\AppData\Local\Temp\ccj0QfQu.s 			page 79


 2494 05b8 28       		.byte	0x28
 2495 05b9 6E0B0000 		.4byte	0xb6e
 2496 05bd 0006     		.2byte	0x600
 2497 05bf 0E       		.uleb128 0xe
 2498 05c0 E5320000 		.4byte	.LASF214
 2499 05c4 06       		.byte	0x6
 2500 05c5 29       		.byte	0x29
 2501 05c6 150B0000 		.4byte	0xb15
 2502 05ca 0306     		.2byte	0x603
 2503 05cc 0E       		.uleb128 0xe
 2504 05cd 01090000 		.4byte	.LASF215
 2505 05d1 06       		.byte	0x6
 2506 05d2 2A       		.byte	0x2a
 2507 05d3 150B0000 		.4byte	0xb15
 2508 05d7 0406     		.2byte	0x604
 2509 05d9 0E       		.uleb128 0xe
 2510 05da 07090000 		.4byte	.LASF216
 2511 05de 06       		.byte	0x6
 2512 05df 2B       		.byte	0x2b
 2513 05e0 150B0000 		.4byte	0xb15
 2514 05e4 0506     		.2byte	0x605
 2515 05e6 0E       		.uleb128 0xe
 2516 05e7 170E0000 		.4byte	.LASF217
 2517 05eb 06       		.byte	0x6
 2518 05ec 2C       		.byte	0x2c
 2519 05ed 150B0000 		.4byte	0xb15
 2520 05f1 0606     		.2byte	0x606
 2521 05f3 0E       		.uleb128 0xe
 2522 05f4 510A0000 		.4byte	.LASF218
 2523 05f8 06       		.byte	0x6
 2524 05f9 2D       		.byte	0x2d
 2525 05fa 150B0000 		.4byte	0xb15
 2526 05fe 0706     		.2byte	0x607
 2527 0600 0E       		.uleb128 0xe
 2528 0601 1C4D0000 		.4byte	.LASF219
 2529 0605 06       		.byte	0x6
 2530 0606 2E       		.byte	0x2e
 2531 0607 150B0000 		.4byte	0xb15
 2532 060b 0806     		.2byte	0x608
 2533 060d 0E       		.uleb128 0xe
 2534 060e CB350000 		.4byte	.LASF220
 2535 0612 06       		.byte	0x6
 2536 0613 2F       		.byte	0x2f
 2537 0614 150B0000 		.4byte	0xb15
 2538 0618 0906     		.2byte	0x609
 2539 061a 0E       		.uleb128 0xe
 2540 061b 05620000 		.4byte	.LASF221
 2541 061f 06       		.byte	0x6
 2542 0620 30       		.byte	0x30
 2543 0621 150B0000 		.4byte	0xb15
 2544 0625 0A06     		.2byte	0x60a
 2545 0627 0E       		.uleb128 0xe
 2546 0628 703A0000 		.4byte	.LASF222
 2547 062c 06       		.byte	0x6
 2548 062d 31       		.byte	0x31
 2549 062e 880B0000 		.4byte	0xb88
 2550 0632 0B06     		.2byte	0x60b
ARM GAS  C:\Users\salaz\AppData\Local\Temp\ccj0QfQu.s 			page 80


 2551 0634 0E       		.uleb128 0xe
 2552 0635 F1140000 		.4byte	.LASF223
 2553 0639 06       		.byte	0x6
 2554 063a 32       		.byte	0x32
 2555 063b 1F0B0000 		.4byte	0xb1f
 2556 063f 4806     		.2byte	0x648
 2557 0641 0E       		.uleb128 0xe
 2558 0642 1F4C0000 		.4byte	.LASF224
 2559 0646 06       		.byte	0x6
 2560 0647 33       		.byte	0x33
 2561 0648 1F0B0000 		.4byte	0xb1f
 2562 064c 4A06     		.2byte	0x64a
 2563 064e 0E       		.uleb128 0xe
 2564 064f 7A3A0000 		.4byte	.LASF225
 2565 0653 06       		.byte	0x6
 2566 0654 34       		.byte	0x34
 2567 0655 A20B0000 		.4byte	0xba2
 2568 0659 4C06     		.2byte	0x64c
 2569 065b 0E       		.uleb128 0xe
 2570 065c FD1F0000 		.4byte	.LASF226
 2571 0660 06       		.byte	0x6
 2572 0661 35       		.byte	0x35
 2573 0662 57050000 		.4byte	0x557
 2574 0666 6C06     		.2byte	0x66c
 2575 0668 0E       		.uleb128 0xe
 2576 0669 843A0000 		.4byte	.LASF227
 2577 066d 06       		.byte	0x6
 2578 066e 36       		.byte	0x36
 2579 066f BC0B0000 		.4byte	0xbbc
 2580 0673 7006     		.2byte	0x670
 2581 0675 0E       		.uleb128 0xe
 2582 0676 5A4A0000 		.4byte	.LASF228
 2583 067a 06       		.byte	0x6
 2584 067b 37       		.byte	0x37
 2585 067c 150B0000 		.4byte	0xb15
 2586 0680 4007     		.2byte	0x740
 2587 0682 0E       		.uleb128 0xe
 2588 0683 ED550000 		.4byte	.LASF229
 2589 0687 06       		.byte	0x6
 2590 0688 38       		.byte	0x38
 2591 0689 150B0000 		.4byte	0xb15
 2592 068d 4107     		.2byte	0x741
 2593 068f 0E       		.uleb128 0xe
 2594 0690 8E3A0000 		.4byte	.LASF230
 2595 0694 06       		.byte	0x6
 2596 0695 39       		.byte	0x39
 2597 0696 D60B0000 		.4byte	0xbd6
 2598 069a 4207     		.2byte	0x742
 2599 069c 0E       		.uleb128 0xe
 2600 069d 435C0000 		.4byte	.LASF231
 2601 06a1 06       		.byte	0x6
 2602 06a2 3A       		.byte	0x3a
 2603 06a3 EB0B0000 		.4byte	0xbeb
 2604 06a7 0008     		.2byte	0x800
 2605 06a9 0E       		.uleb128 0xe
 2606 06aa 71090000 		.4byte	.LASF232
 2607 06ae 06       		.byte	0x6
ARM GAS  C:\Users\salaz\AppData\Local\Temp\ccj0QfQu.s 			page 81


 2608 06af 3B       		.byte	0x3b
 2609 06b0 F00B0000 		.4byte	0xbf0
 2610 06b4 000A     		.2byte	0xa00
 2611 06b6 0E       		.uleb128 0xe
 2612 06b7 80090000 		.4byte	.LASF233
 2613 06bb 06       		.byte	0x6
 2614 06bc 3C       		.byte	0x3c
 2615 06bd F50B0000 		.4byte	0xbf5
 2616 06c1 000C     		.2byte	0xc00
 2617 06c3 0E       		.uleb128 0xe
 2618 06c4 8F090000 		.4byte	.LASF234
 2619 06c8 06       		.byte	0x6
 2620 06c9 3D       		.byte	0x3d
 2621 06ca FA0B0000 		.4byte	0xbfa
 2622 06ce 000E     		.2byte	0xe00
 2623 06d0 0E       		.uleb128 0xe
 2624 06d1 983A0000 		.4byte	.LASF235
 2625 06d5 06       		.byte	0x6
 2626 06d6 3E       		.byte	0x3e
 2627 06d7 150C0000 		.4byte	0xc15
 2628 06db 0010     		.2byte	0x1000
 2629 06dd 0E       		.uleb128 0xe
 2630 06de D32F0000 		.4byte	.LASF236
 2631 06e2 06       		.byte	0x6
 2632 06e3 3F       		.byte	0x3f
 2633 06e4 2A0C0000 		.4byte	0xc2a
 2634 06e8 B814     		.2byte	0x14b8
 2635 06ea 0E       		.uleb128 0xe
 2636 06eb F8570000 		.4byte	.LASF237
 2637 06ef 06       		.byte	0x6
 2638 06f0 40       		.byte	0x40
 2639 06f1 2F0C0000 		.4byte	0xc2f
 2640 06f5 C814     		.2byte	0x14c8
 2641 06f7 0E       		.uleb128 0xe
 2642 06f8 17360000 		.4byte	.LASF238
 2643 06fc 06       		.byte	0x6
 2644 06fd 41       		.byte	0x41
 2645 06fe 440C0000 		.4byte	0xc44
 2646 0702 D814     		.2byte	0x14d8
 2647 0704 0E       		.uleb128 0xe
 2648 0705 352B0000 		.4byte	.LASF239
 2649 0709 06       		.byte	0x6
 2650 070a 42       		.byte	0x42
 2651 070b 490C0000 		.4byte	0xc49
 2652 070f 1815     		.2byte	0x1518
 2653 0711 0E       		.uleb128 0xe
 2654 0712 B4570000 		.4byte	.LASF240
 2655 0716 06       		.byte	0x6
 2656 0717 43       		.byte	0x43
 2657 0718 4E0C0000 		.4byte	0xc4e
 2658 071c 5815     		.2byte	0x1558
 2659 071e 0E       		.uleb128 0xe
 2660 071f 9F210000 		.4byte	.LASF241
 2661 0723 06       		.byte	0x6
 2662 0724 44       		.byte	0x44
 2663 0725 530C0000 		.4byte	0xc53
 2664 0729 9815     		.2byte	0x1598
ARM GAS  C:\Users\salaz\AppData\Local\Temp\ccj0QfQu.s 			page 82


 2665 072b 0E       		.uleb128 0xe
 2666 072c B7100000 		.4byte	.LASF242
 2667 0730 06       		.byte	0x6
 2668 0731 45       		.byte	0x45
 2669 0732 580C0000 		.4byte	0xc58
 2670 0736 D815     		.2byte	0x15d8
 2671 0738 0E       		.uleb128 0xe
 2672 0739 A23A0000 		.4byte	.LASF243
 2673 073d 06       		.byte	0x6
 2674 073e 46       		.byte	0x46
 2675 073f 720C0000 		.4byte	0xc72
 2676 0743 1816     		.2byte	0x1618
 2677 0745 0E       		.uleb128 0xe
 2678 0746 684A0000 		.4byte	.LASF244
 2679 074a 06       		.byte	0x6
 2680 074b 47       		.byte	0x47
 2681 074c 1F0B0000 		.4byte	0xb1f
 2682 0750 0018     		.2byte	0x1800
 2683 0752 0E       		.uleb128 0xe
 2684 0753 AC3A0000 		.4byte	.LASF245
 2685 0757 06       		.byte	0x6
 2686 0758 48       		.byte	0x48
 2687 0759 4F0B0000 		.4byte	0xb4f
 2688 075d 0218     		.2byte	0x1802
 2689 075f 0E       		.uleb128 0xe
 2690 0760 05420000 		.4byte	.LASF246
 2691 0764 06       		.byte	0x6
 2692 0765 49       		.byte	0x49
 2693 0766 57050000 		.4byte	0x557
 2694 076a 0418     		.2byte	0x1804
 2695 076c 0E       		.uleb128 0xe
 2696 076d 1A420000 		.4byte	.LASF247
 2697 0771 06       		.byte	0x6
 2698 0772 4A       		.byte	0x4a
 2699 0773 57050000 		.4byte	0x557
 2700 0777 0818     		.2byte	0x1808
 2701 0779 0E       		.uleb128 0xe
 2702 077a 2F420000 		.4byte	.LASF248
 2703 077e 06       		.byte	0x6
 2704 077f 4B       		.byte	0x4b
 2705 0780 57050000 		.4byte	0x557
 2706 0784 0C18     		.2byte	0x180c
 2707 0786 0E       		.uleb128 0xe
 2708 0787 52790000 		.4byte	.LASF249
 2709 078b 06       		.byte	0x6
 2710 078c 4C       		.byte	0x4c
 2711 078d 57050000 		.4byte	0x557
 2712 0791 1018     		.2byte	0x1810
 2713 0793 0E       		.uleb128 0xe
 2714 0794 82020000 		.4byte	.LASF250
 2715 0798 06       		.byte	0x6
 2716 0799 4D       		.byte	0x4d
 2717 079a 4F0B0000 		.4byte	0xb4f
 2718 079e 1418     		.2byte	0x1814
 2719 07a0 0E       		.uleb128 0xe
 2720 07a1 A63E0000 		.4byte	.LASF251
 2721 07a5 06       		.byte	0x6
ARM GAS  C:\Users\salaz\AppData\Local\Temp\ccj0QfQu.s 			page 83


 2722 07a6 4E       		.byte	0x4e
 2723 07a7 1F0B0000 		.4byte	0xb1f
 2724 07ab 1618     		.2byte	0x1816
 2725 07ad 0E       		.uleb128 0xe
 2726 07ae FE770000 		.4byte	.LASF252
 2727 07b2 06       		.byte	0x6
 2728 07b3 4F       		.byte	0x4f
 2729 07b4 57050000 		.4byte	0x557
 2730 07b8 1818     		.2byte	0x1818
 2731 07ba 0E       		.uleb128 0xe
 2732 07bb 50730000 		.4byte	.LASF253
 2733 07bf 06       		.byte	0x6
 2734 07c0 50       		.byte	0x50
 2735 07c1 57050000 		.4byte	0x557
 2736 07c5 1C18     		.2byte	0x181c
 2737 07c7 0E       		.uleb128 0xe
 2738 07c8 A52B0000 		.4byte	.LASF254
 2739 07cc 06       		.byte	0x6
 2740 07cd 51       		.byte	0x51
 2741 07ce 57050000 		.4byte	0x557
 2742 07d2 2018     		.2byte	0x1820
 2743 07d4 0E       		.uleb128 0xe
 2744 07d5 E2510000 		.4byte	.LASF255
 2745 07d9 06       		.byte	0x6
 2746 07da 52       		.byte	0x52
 2747 07db 57050000 		.4byte	0x557
 2748 07df 2418     		.2byte	0x1824
 2749 07e1 0E       		.uleb128 0xe
 2750 07e2 8D020000 		.4byte	.LASF256
 2751 07e6 06       		.byte	0x6
 2752 07e7 53       		.byte	0x53
 2753 07e8 8C0C0000 		.4byte	0xc8c
 2754 07ec 2818     		.2byte	0x1828
 2755 07ee 0E       		.uleb128 0xe
 2756 07ef 222F0000 		.4byte	.LASF257
 2757 07f3 06       		.byte	0x6
 2758 07f4 54       		.byte	0x54
 2759 07f5 57050000 		.4byte	0x557
 2760 07f9 4418     		.2byte	0x1844
 2761 07fb 0E       		.uleb128 0xe
 2762 07fc C8080000 		.4byte	.LASF258
 2763 0800 06       		.byte	0x6
 2764 0801 55       		.byte	0x55
 2765 0802 57050000 		.4byte	0x557
 2766 0806 4818     		.2byte	0x1848
 2767 0808 0E       		.uleb128 0xe
 2768 0809 F43E0000 		.4byte	.LASF259
 2769 080d 06       		.byte	0x6
 2770 080e 56       		.byte	0x56
 2771 080f 57050000 		.4byte	0x557
 2772 0813 4C18     		.2byte	0x184c
 2773 0815 0E       		.uleb128 0xe
 2774 0816 D96C0000 		.4byte	.LASF260
 2775 081a 06       		.byte	0x6
 2776 081b 57       		.byte	0x57
 2777 081c 57050000 		.4byte	0x557
 2778 0820 5018     		.2byte	0x1850
ARM GAS  C:\Users\salaz\AppData\Local\Temp\ccj0QfQu.s 			page 84


 2779 0822 0E       		.uleb128 0xe
 2780 0823 98020000 		.4byte	.LASF261
 2781 0827 06       		.byte	0x6
 2782 0828 58       		.byte	0x58
 2783 0829 A70C0000 		.4byte	0xca7
 2784 082d 5418     		.2byte	0x1854
 2785 082f 0E       		.uleb128 0xe
 2786 0830 674F0000 		.4byte	.LASF262
 2787 0834 06       		.byte	0x6
 2788 0835 59       		.byte	0x59
 2789 0836 57050000 		.4byte	0x557
 2790 083a 0020     		.2byte	0x2000
 2791 083c 0E       		.uleb128 0xe
 2792 083d 21080000 		.4byte	.LASF263
 2793 0841 06       		.byte	0x6
 2794 0842 5A       		.byte	0x5a
 2795 0843 57050000 		.4byte	0x557
 2796 0847 0420     		.2byte	0x2004
 2797 0849 0E       		.uleb128 0xe
 2798 084a 4C1D0000 		.4byte	.LASF264
 2799 084e 06       		.byte	0x6
 2800 084f 5B       		.byte	0x5b
 2801 0850 57050000 		.4byte	0x557
 2802 0854 0820     		.2byte	0x2008
 2803 0856 0E       		.uleb128 0xe
 2804 0857 784C0000 		.4byte	.LASF265
 2805 085b 06       		.byte	0x6
 2806 085c 5C       		.byte	0x5c
 2807 085d 57050000 		.4byte	0x557
 2808 0861 0C20     		.2byte	0x200c
 2809 0863 0E       		.uleb128 0xe
 2810 0864 190C0000 		.4byte	.LASF266
 2811 0868 06       		.byte	0x6
 2812 0869 5D       		.byte	0x5d
 2813 086a 57050000 		.4byte	0x557
 2814 086e 1020     		.2byte	0x2010
 2815 0870 0E       		.uleb128 0xe
 2816 0871 621E0000 		.4byte	.LASF267
 2817 0875 06       		.byte	0x6
 2818 0876 5E       		.byte	0x5e
 2819 0877 57050000 		.4byte	0x557
 2820 087b 1420     		.2byte	0x2014
 2821 087d 0E       		.uleb128 0xe
 2822 087e A3020000 		.4byte	.LASF268
 2823 0882 06       		.byte	0x6
 2824 0883 5F       		.byte	0x5f
 2825 0884 C10C0000 		.4byte	0xcc1
 2826 0888 1820     		.2byte	0x2018
 2827 088a 0E       		.uleb128 0xe
 2828 088b C2790000 		.4byte	.LASF269
 2829 088f 06       		.byte	0x6
 2830 0890 60       		.byte	0x60
 2831 0891 D70C0000 		.4byte	0xcd7
 2832 0895 D820     		.2byte	0x20d8
 2833 0897 0E       		.uleb128 0xe
 2834 0898 AE020000 		.4byte	.LASF270
 2835 089c 06       		.byte	0x6
ARM GAS  C:\Users\salaz\AppData\Local\Temp\ccj0QfQu.s 			page 85


 2836 089d 61       		.byte	0x61
 2837 089e F20C0000 		.4byte	0xcf2
 2838 08a2 0042     		.2byte	0x4200
 2839 08a4 0E       		.uleb128 0xe
 2840 08a5 A6530000 		.4byte	.LASF271
 2841 08a9 06       		.byte	0x6
 2842 08aa 62       		.byte	0x62
 2843 08ab 080D0000 		.4byte	0xd08
 2844 08af 005A     		.2byte	0x5a00
 2845 08b1 0E       		.uleb128 0xe
 2846 08b2 91330000 		.4byte	.LASF272
 2847 08b6 06       		.byte	0x6
 2848 08b7 63       		.byte	0x63
 2849 08b8 1E0D0000 		.4byte	0xd1e
 2850 08bc 0066     		.2byte	0x6600
 2851 08be 0E       		.uleb128 0xe
 2852 08bf B9020000 		.4byte	.LASF273
 2853 08c3 06       		.byte	0x6
 2854 08c4 64       		.byte	0x64
 2855 08c5 390D0000 		.4byte	0xd39
 2856 08c9 006C     		.2byte	0x6c00
 2857 08cb 0E       		.uleb128 0xe
 2858 08cc C71F0000 		.4byte	.LASF274
 2859 08d0 06       		.byte	0x6
 2860 08d1 65       		.byte	0x65
 2861 08d2 57050000 		.4byte	0x557
 2862 08d6 0078     		.2byte	0x7800
 2863 08d8 0E       		.uleb128 0xe
 2864 08d9 D2620000 		.4byte	.LASF275
 2865 08dd 06       		.byte	0x6
 2866 08de 67       		.byte	0x67
 2867 08df 57050000 		.4byte	0x557
 2868 08e3 0478     		.2byte	0x7804
 2869 08e5 0E       		.uleb128 0xe
 2870 08e6 20260000 		.4byte	.LASF276
 2871 08ea 06       		.byte	0x6
 2872 08eb 68       		.byte	0x68
 2873 08ec 57050000 		.4byte	0x557
 2874 08f0 0878     		.2byte	0x7808
 2875 08f2 0E       		.uleb128 0xe
 2876 08f3 350B0000 		.4byte	.LASF277
 2877 08f7 06       		.byte	0x6
 2878 08f8 6A       		.byte	0x6a
 2879 08f9 57050000 		.4byte	0x557
 2880 08fd 0C78     		.2byte	0x780c
 2881 08ff 0E       		.uleb128 0xe
 2882 0900 7C320000 		.4byte	.LASF278
 2883 0904 06       		.byte	0x6
 2884 0905 6B       		.byte	0x6b
 2885 0906 57050000 		.4byte	0x557
 2886 090a 1078     		.2byte	0x7810
 2887 090c 0E       		.uleb128 0xe
 2888 090d ED6A0000 		.4byte	.LASF279
 2889 0911 06       		.byte	0x6
 2890 0912 6C       		.byte	0x6c
 2891 0913 57050000 		.4byte	0x557
 2892 0917 1478     		.2byte	0x7814
ARM GAS  C:\Users\salaz\AppData\Local\Temp\ccj0QfQu.s 			page 86


 2893 0919 0E       		.uleb128 0xe
 2894 091a C60F0000 		.4byte	.LASF280
 2895 091e 06       		.byte	0x6
 2896 091f 6D       		.byte	0x6d
 2897 0920 57050000 		.4byte	0x557
 2898 0924 1878     		.2byte	0x7818
 2899 0926 0E       		.uleb128 0xe
 2900 0927 392C0000 		.4byte	.LASF281
 2901 092b 06       		.byte	0x6
 2902 092c 6E       		.byte	0x6e
 2903 092d 57050000 		.4byte	0x557
 2904 0931 1C78     		.2byte	0x781c
 2905 0933 0E       		.uleb128 0xe
 2906 0934 C4020000 		.4byte	.LASF282
 2907 0938 06       		.byte	0x6
 2908 0939 6F       		.byte	0x6f
 2909 093a 530D0000 		.4byte	0xd53
 2910 093e 2078     		.2byte	0x7820
 2911 0940 0E       		.uleb128 0xe
 2912 0941 8E4E0000 		.4byte	.LASF283
 2913 0945 06       		.byte	0x6
 2914 0946 70       		.byte	0x70
 2915 0947 57050000 		.4byte	0x557
 2916 094b FC79     		.2byte	0x79fc
 2917 094d 0E       		.uleb128 0xe
 2918 094e 72480000 		.4byte	.LASF284
 2919 0952 06       		.byte	0x6
 2920 0953 71       		.byte	0x71
 2921 0954 57050000 		.4byte	0x557
 2922 0958 007A     		.2byte	0x7a00
 2923 095a 0E       		.uleb128 0xe
 2924 095b C05D0000 		.4byte	.LASF285
 2925 095f 06       		.byte	0x6
 2926 0960 73       		.byte	0x73
 2927 0961 57050000 		.4byte	0x557
 2928 0965 047A     		.2byte	0x7a04
 2929 0967 0E       		.uleb128 0xe
 2930 0968 F75D0000 		.4byte	.LASF286
 2931 096c 06       		.byte	0x6
 2932 096d 74       		.byte	0x74
 2933 096e 57050000 		.4byte	0x557
 2934 0972 087A     		.2byte	0x7a08
 2935 0974 0E       		.uleb128 0xe
 2936 0975 CE550000 		.4byte	.LASF287
 2937 0979 06       		.byte	0x6
 2938 097a 76       		.byte	0x76
 2939 097b 57050000 		.4byte	0x557
 2940 097f 0C7A     		.2byte	0x7a0c
 2941 0981 0E       		.uleb128 0xe
 2942 0982 191F0000 		.4byte	.LASF288
 2943 0986 06       		.byte	0x6
 2944 0987 77       		.byte	0x77
 2945 0988 57050000 		.4byte	0x557
 2946 098c 107A     		.2byte	0x7a10
 2947 098e 0E       		.uleb128 0xe
 2948 098f 68360000 		.4byte	.LASF289
 2949 0993 06       		.byte	0x6
ARM GAS  C:\Users\salaz\AppData\Local\Temp\ccj0QfQu.s 			page 87


 2950 0994 78       		.byte	0x78
 2951 0995 57050000 		.4byte	0x557
 2952 0999 147A     		.2byte	0x7a14
 2953 099b 0E       		.uleb128 0xe
 2954 099c C11B0000 		.4byte	.LASF290
 2955 09a0 06       		.byte	0x6
 2956 09a1 7A       		.byte	0x7a
 2957 09a2 57050000 		.4byte	0x557
 2958 09a6 187A     		.2byte	0x7a18
 2959 09a8 0E       		.uleb128 0xe
 2960 09a9 CF020000 		.4byte	.LASF291
 2961 09ad 06       		.byte	0x6
 2962 09ae 7B       		.byte	0x7b
 2963 09af 6D0D0000 		.4byte	0xd6d
 2964 09b3 1C7A     		.2byte	0x7a1c
 2965 09b5 0E       		.uleb128 0xe
 2966 09b6 1E630000 		.4byte	.LASF292
 2967 09ba 06       		.byte	0x6
 2968 09bb 7C       		.byte	0x7c
 2969 09bc 57050000 		.4byte	0x557
 2970 09c0 FC7B     		.2byte	0x7bfc
 2971 09c2 0E       		.uleb128 0xe
 2972 09c3 A8300000 		.4byte	.LASF293
 2973 09c7 06       		.byte	0x6
 2974 09c8 7E       		.byte	0x7e
 2975 09c9 57050000 		.4byte	0x557
 2976 09cd 007C     		.2byte	0x7c00
 2977 09cf 0E       		.uleb128 0xe
 2978 09d0 CC6F0000 		.4byte	.LASF294
 2979 09d4 06       		.byte	0x6
 2980 09d5 80       		.byte	0x80
 2981 09d6 57050000 		.4byte	0x557
 2982 09da 047C     		.2byte	0x7c04
 2983 09dc 0E       		.uleb128 0xe
 2984 09dd 0E2D0000 		.4byte	.LASF295
 2985 09e1 06       		.byte	0x6
 2986 09e2 81       		.byte	0x81
 2987 09e3 57050000 		.4byte	0x557
 2988 09e7 087C     		.2byte	0x7c08
 2989 09e9 0E       		.uleb128 0xe
 2990 09ea 15720000 		.4byte	.LASF296
 2991 09ee 06       		.byte	0x6
 2992 09ef 82       		.byte	0x82
 2993 09f0 57050000 		.4byte	0x557
 2994 09f4 0C7C     		.2byte	0x7c0c
 2995 09f6 0E       		.uleb128 0xe
 2996 09f7 F6720000 		.4byte	.LASF297
 2997 09fb 06       		.byte	0x6
 2998 09fc 84       		.byte	0x84
 2999 09fd 57050000 		.4byte	0x557
 3000 0a01 107C     		.2byte	0x7c10
 3001 0a03 0E       		.uleb128 0xe
 3002 0a04 372A0000 		.4byte	.LASF298
 3003 0a08 06       		.byte	0x6
 3004 0a09 85       		.byte	0x85
 3005 0a0a 57050000 		.4byte	0x557
 3006 0a0e 147C     		.2byte	0x7c14
ARM GAS  C:\Users\salaz\AppData\Local\Temp\ccj0QfQu.s 			page 88


 3007 0a10 0E       		.uleb128 0xe
 3008 0a11 527A0000 		.4byte	.LASF299
 3009 0a15 06       		.byte	0x6
 3010 0a16 87       		.byte	0x87
 3011 0a17 57050000 		.4byte	0x557
 3012 0a1b 187C     		.2byte	0x7c18
 3013 0a1d 0E       		.uleb128 0xe
 3014 0a1e 6F570000 		.4byte	.LASF300
 3015 0a22 06       		.byte	0x6
 3016 0a23 88       		.byte	0x88
 3017 0a24 57050000 		.4byte	0x557
 3018 0a28 1C7C     		.2byte	0x7c1c
 3019 0a2a 0E       		.uleb128 0xe
 3020 0a2b 205B0000 		.4byte	.LASF301
 3021 0a2f 06       		.byte	0x6
 3022 0a30 8A       		.byte	0x8a
 3023 0a31 57050000 		.4byte	0x557
 3024 0a35 207C     		.2byte	0x7c20
 3025 0a37 0E       		.uleb128 0xe
 3026 0a38 132E0000 		.4byte	.LASF302
 3027 0a3c 06       		.byte	0x6
 3028 0a3d 8D       		.byte	0x8d
 3029 0a3e 57050000 		.4byte	0x557
 3030 0a42 247C     		.2byte	0x7c24
 3031 0a44 0E       		.uleb128 0xe
 3032 0a45 DA020000 		.4byte	.LASF303
 3033 0a49 06       		.byte	0x6
 3034 0a4a 8F       		.byte	0x8f
 3035 0a4b 870D0000 		.4byte	0xd87
 3036 0a4f 287C     		.2byte	0x7c28
 3037 0a51 0E       		.uleb128 0xe
 3038 0a52 A3080000 		.4byte	.LASF304
 3039 0a56 06       		.byte	0x6
 3040 0a57 90       		.byte	0x90
 3041 0a58 57050000 		.4byte	0x557
 3042 0a5c F87D     		.2byte	0x7df8
 3043 0a5e 0E       		.uleb128 0xe
 3044 0a5f 386E0000 		.4byte	.LASF305
 3045 0a63 06       		.byte	0x6
 3046 0a64 91       		.byte	0x91
 3047 0a65 57050000 		.4byte	0x557
 3048 0a69 FC7D     		.2byte	0x7dfc
 3049 0a6b 0E       		.uleb128 0xe
 3050 0a6c 55590000 		.4byte	.LASF306
 3051 0a70 06       		.byte	0x6
 3052 0a71 92       		.byte	0x92
 3053 0a72 57050000 		.4byte	0x557
 3054 0a76 007E     		.2byte	0x7e00
 3055 0a78 0E       		.uleb128 0xe
 3056 0a79 1B000000 		.4byte	.LASF307
 3057 0a7d 06       		.byte	0x6
 3058 0a7e 94       		.byte	0x94
 3059 0a7f 57050000 		.4byte	0x557
 3060 0a83 047E     		.2byte	0x7e04
 3061 0a85 0E       		.uleb128 0xe
 3062 0a86 226F0000 		.4byte	.LASF308
 3063 0a8a 06       		.byte	0x6
ARM GAS  C:\Users\salaz\AppData\Local\Temp\ccj0QfQu.s 			page 89


 3064 0a8b 95       		.byte	0x95
 3065 0a8c 57050000 		.4byte	0x557
 3066 0a90 087E     		.2byte	0x7e08
 3067 0a92 0E       		.uleb128 0xe
 3068 0a93 68430000 		.4byte	.LASF309
 3069 0a97 06       		.byte	0x6
 3070 0a98 96       		.byte	0x96
 3071 0a99 57050000 		.4byte	0x557
 3072 0a9d 0C7E     		.2byte	0x7e0c
 3073 0a9f 0E       		.uleb128 0xe
 3074 0aa0 6B3F0000 		.4byte	.LASF310
 3075 0aa4 06       		.byte	0x6
 3076 0aa5 98       		.byte	0x98
 3077 0aa6 57050000 		.4byte	0x557
 3078 0aaa 107E     		.2byte	0x7e10
 3079 0aac 0E       		.uleb128 0xe
 3080 0aad 68610000 		.4byte	.LASF311
 3081 0ab1 06       		.byte	0x6
 3082 0ab2 99       		.byte	0x99
 3083 0ab3 57050000 		.4byte	0x557
 3084 0ab7 147E     		.2byte	0x7e14
 3085 0ab9 0E       		.uleb128 0xe
 3086 0aba AA4B0000 		.4byte	.LASF312
 3087 0abe 06       		.byte	0x6
 3088 0abf 9B       		.byte	0x9b
 3089 0ac0 57050000 		.4byte	0x557
 3090 0ac4 187E     		.2byte	0x7e18
 3091 0ac6 0E       		.uleb128 0xe
 3092 0ac7 6E6B0000 		.4byte	.LASF313
 3093 0acb 06       		.byte	0x6
 3094 0acc 9C       		.byte	0x9c
 3095 0acd 57050000 		.4byte	0x557
 3096 0ad1 1C7E     		.2byte	0x7e1c
 3097 0ad3 0E       		.uleb128 0xe
 3098 0ad4 48190000 		.4byte	.LASF314
 3099 0ad8 06       		.byte	0x6
 3100 0ad9 9E       		.byte	0x9e
 3101 0ada 57050000 		.4byte	0x557
 3102 0ade 207E     		.2byte	0x7e20
 3103 0ae0 0E       		.uleb128 0xe
 3104 0ae1 03700000 		.4byte	.LASF315
 3105 0ae5 06       		.byte	0x6
 3106 0ae6 A1       		.byte	0xa1
 3107 0ae7 57050000 		.4byte	0x557
 3108 0aeb 247E     		.2byte	0x7e24
 3109 0aed 0E       		.uleb128 0xe
 3110 0aee E5020000 		.4byte	.LASF316
 3111 0af2 06       		.byte	0x6
 3112 0af3 A4       		.byte	0xa4
 3113 0af4 910D0000 		.4byte	0xd91
 3114 0af8 287E     		.2byte	0x7e28
 3115 0afa 0E       		.uleb128 0xe
 3116 0afb DB030000 		.4byte	.LASF317
 3117 0aff 06       		.byte	0x6
 3118 0b00 A5       		.byte	0xa5
 3119 0b01 57050000 		.4byte	0x557
 3120 0b05 F87F     		.2byte	0x7ff8
ARM GAS  C:\Users\salaz\AppData\Local\Temp\ccj0QfQu.s 			page 90


 3121 0b07 0E       		.uleb128 0xe
 3122 0b08 462D0000 		.4byte	.LASF318
 3123 0b0c 06       		.byte	0x6
 3124 0b0d A6       		.byte	0xa6
 3125 0b0e 57050000 		.4byte	0x557
 3126 0b12 FC7F     		.2byte	0x7ffc
 3127 0b14 00       		.byte	0
 3128 0b15 0A       		.uleb128 0xa
 3129 0b16 A3000000 		.4byte	0xa3
 3130 0b1a 0B       		.uleb128 0xb
 3131 0b1b 150B0000 		.4byte	0xb15
 3132 0b1f 0A       		.uleb128 0xa
 3133 0b20 AE000000 		.4byte	0xae
 3134 0b24 0F       		.uleb128 0xf
 3135 0b25 5C050000 		.4byte	0x55c
 3136 0b29 340B0000 		.4byte	0xb34
 3137 0b2d 10       		.uleb128 0x10
 3138 0b2e 93000000 		.4byte	0x93
 3139 0b32 01       		.byte	0x1
 3140 0b33 00       		.byte	0
 3141 0b34 0A       		.uleb128 0xa
 3142 0b35 240B0000 		.4byte	0xb24
 3143 0b39 0B       		.uleb128 0xb
 3144 0b3a 340B0000 		.4byte	0xb34
 3145 0b3e 0F       		.uleb128 0xf
 3146 0b3f 4F0B0000 		.4byte	0xb4f
 3147 0b43 4F0B0000 		.4byte	0xb4f
 3148 0b47 11       		.uleb128 0x11
 3149 0b48 93000000 		.4byte	0x93
 3150 0b4c F802     		.2byte	0x2f8
 3151 0b4e 00       		.byte	0
 3152 0b4f 0B       		.uleb128 0xb
 3153 0b50 1F0B0000 		.4byte	0xb1f
 3154 0b54 0A       		.uleb128 0xa
 3155 0b55 3E0B0000 		.4byte	0xb3e
 3156 0b59 0B       		.uleb128 0xb
 3157 0b5a 540B0000 		.4byte	0xb54
 3158 0b5e 0F       		.uleb128 0xf
 3159 0b5f 150B0000 		.4byte	0xb15
 3160 0b63 6E0B0000 		.4byte	0xb6e
 3161 0b67 10       		.uleb128 0x10
 3162 0b68 93000000 		.4byte	0x93
 3163 0b6c 02       		.byte	0x2
 3164 0b6d 00       		.byte	0
 3165 0b6e 0A       		.uleb128 0xa
 3166 0b6f 5E0B0000 		.4byte	0xb5e
 3167 0b73 0F       		.uleb128 0xf
 3168 0b74 1A0B0000 		.4byte	0xb1a
 3169 0b78 830B0000 		.4byte	0xb83
 3170 0b7c 10       		.uleb128 0x10
 3171 0b7d 93000000 		.4byte	0x93
 3172 0b81 3C       		.byte	0x3c
 3173 0b82 00       		.byte	0
 3174 0b83 0A       		.uleb128 0xa
 3175 0b84 730B0000 		.4byte	0xb73
 3176 0b88 0B       		.uleb128 0xb
 3177 0b89 830B0000 		.4byte	0xb83
ARM GAS  C:\Users\salaz\AppData\Local\Temp\ccj0QfQu.s 			page 91


 3178 0b8d 0F       		.uleb128 0xf
 3179 0b8e 5C050000 		.4byte	0x55c
 3180 0b92 9D0B0000 		.4byte	0xb9d
 3181 0b96 10       		.uleb128 0x10
 3182 0b97 93000000 		.4byte	0x93
 3183 0b9b 07       		.byte	0x7
 3184 0b9c 00       		.byte	0
 3185 0b9d 0A       		.uleb128 0xa
 3186 0b9e 8D0B0000 		.4byte	0xb8d
 3187 0ba2 0B       		.uleb128 0xb
 3188 0ba3 9D0B0000 		.4byte	0xb9d
 3189 0ba7 0F       		.uleb128 0xf
 3190 0ba8 5C050000 		.4byte	0x55c
 3191 0bac B70B0000 		.4byte	0xbb7
 3192 0bb0 10       		.uleb128 0x10
 3193 0bb1 93000000 		.4byte	0x93
 3194 0bb5 33       		.byte	0x33
 3195 0bb6 00       		.byte	0
 3196 0bb7 0A       		.uleb128 0xa
 3197 0bb8 A70B0000 		.4byte	0xba7
 3198 0bbc 0B       		.uleb128 0xb
 3199 0bbd B70B0000 		.4byte	0xbb7
 3200 0bc1 0F       		.uleb128 0xf
 3201 0bc2 4F0B0000 		.4byte	0xb4f
 3202 0bc6 D10B0000 		.4byte	0xbd1
 3203 0bca 10       		.uleb128 0x10
 3204 0bcb 93000000 		.4byte	0x93
 3205 0bcf 5E       		.byte	0x5e
 3206 0bd0 00       		.byte	0
 3207 0bd1 0A       		.uleb128 0xa
 3208 0bd2 C10B0000 		.4byte	0xbc1
 3209 0bd6 0B       		.uleb128 0xb
 3210 0bd7 D10B0000 		.4byte	0xbd1
 3211 0bdb 0F       		.uleb128 0xf
 3212 0bdc 57050000 		.4byte	0x557
 3213 0be0 EB0B0000 		.4byte	0xbeb
 3214 0be4 10       		.uleb128 0x10
 3215 0be5 93000000 		.4byte	0x93
 3216 0be9 7F       		.byte	0x7f
 3217 0bea 00       		.byte	0
 3218 0beb 0A       		.uleb128 0xa
 3219 0bec DB0B0000 		.4byte	0xbdb
 3220 0bf0 0A       		.uleb128 0xa
 3221 0bf1 DB0B0000 		.4byte	0xbdb
 3222 0bf5 0A       		.uleb128 0xa
 3223 0bf6 DB0B0000 		.4byte	0xbdb
 3224 0bfa 0A       		.uleb128 0xa
 3225 0bfb DB0B0000 		.4byte	0xbdb
 3226 0bff 0F       		.uleb128 0xf
 3227 0c00 5C050000 		.4byte	0x55c
 3228 0c04 100C0000 		.4byte	0xc10
 3229 0c08 11       		.uleb128 0x11
 3230 0c09 93000000 		.4byte	0x93
 3231 0c0d 2D01     		.2byte	0x12d
 3232 0c0f 00       		.byte	0
 3233 0c10 0A       		.uleb128 0xa
 3234 0c11 FF0B0000 		.4byte	0xbff
ARM GAS  C:\Users\salaz\AppData\Local\Temp\ccj0QfQu.s 			page 92


 3235 0c15 0B       		.uleb128 0xb
 3236 0c16 100C0000 		.4byte	0xc10
 3237 0c1a 0F       		.uleb128 0xf
 3238 0c1b 150B0000 		.4byte	0xb15
 3239 0c1f 2A0C0000 		.4byte	0xc2a
 3240 0c23 10       		.uleb128 0x10
 3241 0c24 93000000 		.4byte	0x93
 3242 0c28 0F       		.byte	0xf
 3243 0c29 00       		.byte	0
 3244 0c2a 0A       		.uleb128 0xa
 3245 0c2b 1A0C0000 		.4byte	0xc1a
 3246 0c2f 0A       		.uleb128 0xa
 3247 0c30 1A0C0000 		.4byte	0xc1a
 3248 0c34 0F       		.uleb128 0xf
 3249 0c35 57050000 		.4byte	0x557
 3250 0c39 440C0000 		.4byte	0xc44
 3251 0c3d 10       		.uleb128 0x10
 3252 0c3e 93000000 		.4byte	0x93
 3253 0c42 0F       		.byte	0xf
 3254 0c43 00       		.byte	0
 3255 0c44 0A       		.uleb128 0xa
 3256 0c45 340C0000 		.4byte	0xc34
 3257 0c49 0A       		.uleb128 0xa
 3258 0c4a 340C0000 		.4byte	0xc34
 3259 0c4e 0A       		.uleb128 0xa
 3260 0c4f 340C0000 		.4byte	0xc34
 3261 0c53 0A       		.uleb128 0xa
 3262 0c54 340C0000 		.4byte	0xc34
 3263 0c58 0A       		.uleb128 0xa
 3264 0c59 340C0000 		.4byte	0xc34
 3265 0c5d 0F       		.uleb128 0xf
 3266 0c5e 5C050000 		.4byte	0x55c
 3267 0c62 6D0C0000 		.4byte	0xc6d
 3268 0c66 10       		.uleb128 0x10
 3269 0c67 93000000 		.4byte	0x93
 3270 0c6b 79       		.byte	0x79
 3271 0c6c 00       		.byte	0
 3272 0c6d 0A       		.uleb128 0xa
 3273 0c6e 5D0C0000 		.4byte	0xc5d
 3274 0c72 0B       		.uleb128 0xb
 3275 0c73 6D0C0000 		.4byte	0xc6d
 3276 0c77 0F       		.uleb128 0xf
 3277 0c78 5C050000 		.4byte	0x55c
 3278 0c7c 870C0000 		.4byte	0xc87
 3279 0c80 10       		.uleb128 0x10
 3280 0c81 93000000 		.4byte	0x93
 3281 0c85 06       		.byte	0x6
 3282 0c86 00       		.byte	0
 3283 0c87 0A       		.uleb128 0xa
 3284 0c88 770C0000 		.4byte	0xc77
 3285 0c8c 0B       		.uleb128 0xb
 3286 0c8d 870C0000 		.4byte	0xc87
 3287 0c91 0F       		.uleb128 0xf
 3288 0c92 5C050000 		.4byte	0x55c
 3289 0c96 A20C0000 		.4byte	0xca2
 3290 0c9a 11       		.uleb128 0x11
 3291 0c9b 93000000 		.4byte	0x93
ARM GAS  C:\Users\salaz\AppData\Local\Temp\ccj0QfQu.s 			page 93


 3292 0c9f EA01     		.2byte	0x1ea
 3293 0ca1 00       		.byte	0
 3294 0ca2 0A       		.uleb128 0xa
 3295 0ca3 910C0000 		.4byte	0xc91
 3296 0ca7 0B       		.uleb128 0xb
 3297 0ca8 A20C0000 		.4byte	0xca2
 3298 0cac 0F       		.uleb128 0xf
 3299 0cad 5C050000 		.4byte	0x55c
 3300 0cb1 BC0C0000 		.4byte	0xcbc
 3301 0cb5 10       		.uleb128 0x10
 3302 0cb6 93000000 		.4byte	0x93
 3303 0cba 2F       		.byte	0x2f
 3304 0cbb 00       		.byte	0
 3305 0cbc 0A       		.uleb128 0xa
 3306 0cbd AC0C0000 		.4byte	0xcac
 3307 0cc1 0B       		.uleb128 0xb
 3308 0cc2 BC0C0000 		.4byte	0xcbc
 3309 0cc6 0F       		.uleb128 0xf
 3310 0cc7 150B0000 		.4byte	0xb15
 3311 0ccb D70C0000 		.4byte	0xcd7
 3312 0ccf 11       		.uleb128 0x11
 3313 0cd0 93000000 		.4byte	0x93
 3314 0cd4 2721     		.2byte	0x2127
 3315 0cd6 00       		.byte	0
 3316 0cd7 0A       		.uleb128 0xa
 3317 0cd8 C60C0000 		.4byte	0xcc6
 3318 0cdc 0F       		.uleb128 0xf
 3319 0cdd 5C050000 		.4byte	0x55c
 3320 0ce1 ED0C0000 		.4byte	0xced
 3321 0ce5 11       		.uleb128 0x11
 3322 0ce6 93000000 		.4byte	0x93
 3323 0cea FF05     		.2byte	0x5ff
 3324 0cec 00       		.byte	0
 3325 0ced 0A       		.uleb128 0xa
 3326 0cee DC0C0000 		.4byte	0xcdc
 3327 0cf2 0B       		.uleb128 0xb
 3328 0cf3 ED0C0000 		.4byte	0xced
 3329 0cf7 0F       		.uleb128 0xf
 3330 0cf8 150B0000 		.4byte	0xb15
 3331 0cfc 080D0000 		.4byte	0xd08
 3332 0d00 11       		.uleb128 0x11
 3333 0d01 93000000 		.4byte	0x93
 3334 0d05 FF0B     		.2byte	0xbff
 3335 0d07 00       		.byte	0
 3336 0d08 0A       		.uleb128 0xa
 3337 0d09 F70C0000 		.4byte	0xcf7
 3338 0d0d 0F       		.uleb128 0xf
 3339 0d0e 57050000 		.4byte	0x557
 3340 0d12 1E0D0000 		.4byte	0xd1e
 3341 0d16 11       		.uleb128 0x11
 3342 0d17 93000000 		.4byte	0x93
 3343 0d1b 7F01     		.2byte	0x17f
 3344 0d1d 00       		.byte	0
 3345 0d1e 0A       		.uleb128 0xa
 3346 0d1f 0D0D0000 		.4byte	0xd0d
 3347 0d23 0F       		.uleb128 0xf
 3348 0d24 5C050000 		.4byte	0x55c
ARM GAS  C:\Users\salaz\AppData\Local\Temp\ccj0QfQu.s 			page 94


 3349 0d28 340D0000 		.4byte	0xd34
 3350 0d2c 11       		.uleb128 0x11
 3351 0d2d 93000000 		.4byte	0x93
 3352 0d31 FF02     		.2byte	0x2ff
 3353 0d33 00       		.byte	0
 3354 0d34 0A       		.uleb128 0xa
 3355 0d35 230D0000 		.4byte	0xd23
 3356 0d39 0B       		.uleb128 0xb
 3357 0d3a 340D0000 		.4byte	0xd34
 3358 0d3e 0F       		.uleb128 0xf
 3359 0d3f 5C050000 		.4byte	0x55c
 3360 0d43 4E0D0000 		.4byte	0xd4e
 3361 0d47 10       		.uleb128 0x10
 3362 0d48 93000000 		.4byte	0x93
 3363 0d4c 76       		.byte	0x76
 3364 0d4d 00       		.byte	0
 3365 0d4e 0A       		.uleb128 0xa
 3366 0d4f 3E0D0000 		.4byte	0xd3e
 3367 0d53 0B       		.uleb128 0xb
 3368 0d54 4E0D0000 		.4byte	0xd4e
 3369 0d58 0F       		.uleb128 0xf
 3370 0d59 5C050000 		.4byte	0x55c
 3371 0d5d 680D0000 		.4byte	0xd68
 3372 0d61 10       		.uleb128 0x10
 3373 0d62 93000000 		.4byte	0x93
 3374 0d66 77       		.byte	0x77
 3375 0d67 00       		.byte	0
 3376 0d68 0A       		.uleb128 0xa
 3377 0d69 580D0000 		.4byte	0xd58
 3378 0d6d 0B       		.uleb128 0xb
 3379 0d6e 680D0000 		.4byte	0xd68
 3380 0d72 0F       		.uleb128 0xf
 3381 0d73 5C050000 		.4byte	0x55c
 3382 0d77 820D0000 		.4byte	0xd82
 3383 0d7b 10       		.uleb128 0x10
 3384 0d7c 93000000 		.4byte	0x93
 3385 0d80 73       		.byte	0x73
 3386 0d81 00       		.byte	0
 3387 0d82 0A       		.uleb128 0xa
 3388 0d83 720D0000 		.4byte	0xd72
 3389 0d87 0B       		.uleb128 0xb
 3390 0d88 820D0000 		.4byte	0xd82
 3391 0d8c 0A       		.uleb128 0xa
 3392 0d8d 720D0000 		.4byte	0xd72
 3393 0d91 0B       		.uleb128 0xb
 3394 0d92 8C0D0000 		.4byte	0xd8c
 3395 0d96 04       		.uleb128 0x4
 3396 0d97 92540000 		.4byte	.LASF319
 3397 0d9b 06       		.byte	0x6
 3398 0d9c A8       		.byte	0xa8
 3399 0d9d 61050000 		.4byte	0x561
 3400 0da1 0F       		.uleb128 0xf
 3401 0da2 A3000000 		.4byte	0xa3
 3402 0da6 B10D0000 		.4byte	0xdb1
 3403 0daa 10       		.uleb128 0x10
 3404 0dab 93000000 		.4byte	0x93
 3405 0daf 07       		.byte	0x7
ARM GAS  C:\Users\salaz\AppData\Local\Temp\ccj0QfQu.s 			page 95


 3406 0db0 00       		.byte	0
 3407 0db1 09       		.uleb128 0x9
 3408 0db2 5B150000 		.4byte	.LASF320
 3409 0db6 07       		.byte	0x7
 3410 0db7 C401     		.2byte	0x1c4
 3411 0db9 9C000000 		.4byte	0x9c
 3412 0dbd 03       		.uleb128 0x3
 3413 0dbe 04       		.byte	0x4
 3414 0dbf 04       		.byte	0x4
 3415 0dc0 653F0000 		.4byte	.LASF321
 3416 0dc4 03       		.uleb128 0x3
 3417 0dc5 08       		.byte	0x8
 3418 0dc6 04       		.byte	0x4
 3419 0dc7 35210000 		.4byte	.LASF322
 3420 0dcb 12       		.uleb128 0x12
 3421 0dcc 08       		.byte	0x8
 3422 0dcd 08       		.byte	0x8
 3423 0dce EB       		.byte	0xeb
 3424 0dcf F80D0000 		.4byte	0xdf8
 3425 0dd3 0D       		.uleb128 0xd
 3426 0dd4 01400000 		.4byte	.LASF323
 3427 0dd8 08       		.byte	0x8
 3428 0dd9 EC       		.byte	0xec
 3429 0dda BB010000 		.4byte	0x1bb
 3430 0dde 00       		.byte	0
 3431 0ddf 0D       		.uleb128 0xd
 3432 0de0 43620000 		.4byte	.LASF324
 3433 0de4 08       		.byte	0x8
 3434 0de5 EE       		.byte	0xee
 3435 0de6 4B050000 		.4byte	0x54b
 3436 0dea 02       		.byte	0x2
 3437 0deb 0D       		.uleb128 0xd
 3438 0dec 42680000 		.4byte	.LASF325
 3439 0df0 08       		.byte	0x8
 3440 0df1 F0       		.byte	0xf0
 3441 0df2 B9000000 		.4byte	0xb9
 3442 0df6 04       		.byte	0x4
 3443 0df7 00       		.byte	0
 3444 0df8 04       		.uleb128 0x4
 3445 0df9 34480000 		.4byte	.LASF326
 3446 0dfd 08       		.byte	0x8
 3447 0dfe F1       		.byte	0xf1
 3448 0dff CB0D0000 		.4byte	0xdcb
 3449 0e03 13       		.uleb128 0x13
 3450 0e04 02       		.byte	0x2
 3451 0e05 6C000000 		.4byte	0x6c
 3452 0e09 09       		.byte	0x9
 3453 0e0a 4201     		.2byte	0x142
 3454 0e0c 3C110000 		.4byte	0x113c
 3455 0e10 08       		.uleb128 0x8
 3456 0e11 731C0000 		.4byte	.LASF327
 3457 0e15 00       		.byte	0
 3458 0e16 14       		.uleb128 0x14
 3459 0e17 454B0000 		.4byte	.LASF328
 3460 0e1b 0010     		.2byte	0x1000
 3461 0e1d 14       		.uleb128 0x14
 3462 0e1e D1730000 		.4byte	.LASF329
ARM GAS  C:\Users\salaz\AppData\Local\Temp\ccj0QfQu.s 			page 96


 3463 0e22 0110     		.2byte	0x1001
 3464 0e24 14       		.uleb128 0x14
 3465 0e25 D5350000 		.4byte	.LASF330
 3466 0e29 0210     		.2byte	0x1002
 3467 0e2b 14       		.uleb128 0x14
 3468 0e2c DE0F0000 		.4byte	.LASF331
 3469 0e30 0310     		.2byte	0x1003
 3470 0e32 14       		.uleb128 0x14
 3471 0e33 781E0000 		.4byte	.LASF332
 3472 0e37 0410     		.2byte	0x1004
 3473 0e39 14       		.uleb128 0x14
 3474 0e3a 25770000 		.4byte	.LASF333
 3475 0e3e 0510     		.2byte	0x1005
 3476 0e40 14       		.uleb128 0x14
 3477 0e41 B40D0000 		.4byte	.LASF334
 3478 0e45 0020     		.2byte	0x2000
 3479 0e47 14       		.uleb128 0x14
 3480 0e48 2A050000 		.4byte	.LASF335
 3481 0e4c 0120     		.2byte	0x2001
 3482 0e4e 14       		.uleb128 0x14
 3483 0e4f 3F360000 		.4byte	.LASF336
 3484 0e53 0220     		.2byte	0x2002
 3485 0e55 14       		.uleb128 0x14
 3486 0e56 96730000 		.4byte	.LASF337
 3487 0e5a 0320     		.2byte	0x2003
 3488 0e5c 14       		.uleb128 0x14
 3489 0e5d FB050000 		.4byte	.LASF338
 3490 0e61 0420     		.2byte	0x2004
 3491 0e63 14       		.uleb128 0x14
 3492 0e64 EE4C0000 		.4byte	.LASF339
 3493 0e68 0520     		.2byte	0x2005
 3494 0e6a 14       		.uleb128 0x14
 3495 0e6b 7F080000 		.4byte	.LASF340
 3496 0e6f 0620     		.2byte	0x2006
 3497 0e71 14       		.uleb128 0x14
 3498 0e72 AD0C0000 		.4byte	.LASF341
 3499 0e76 0720     		.2byte	0x2007
 3500 0e78 14       		.uleb128 0x14
 3501 0e79 746E0000 		.4byte	.LASF342
 3502 0e7d 0820     		.2byte	0x2008
 3503 0e7f 14       		.uleb128 0x14
 3504 0e80 8F150000 		.4byte	.LASF343
 3505 0e84 0920     		.2byte	0x2009
 3506 0e86 14       		.uleb128 0x14
 3507 0e87 65010000 		.4byte	.LASF344
 3508 0e8b 0A20     		.2byte	0x200a
 3509 0e8d 14       		.uleb128 0x14
 3510 0e8e B1370000 		.4byte	.LASF345
 3511 0e92 0B20     		.2byte	0x200b
 3512 0e94 14       		.uleb128 0x14
 3513 0e95 1A190000 		.4byte	.LASF346
 3514 0e99 0C20     		.2byte	0x200c
 3515 0e9b 14       		.uleb128 0x14
 3516 0e9c DE250000 		.4byte	.LASF347
 3517 0ea0 0D20     		.2byte	0x200d
 3518 0ea2 14       		.uleb128 0x14
 3519 0ea3 FD4E0000 		.4byte	.LASF348
ARM GAS  C:\Users\salaz\AppData\Local\Temp\ccj0QfQu.s 			page 97


 3520 0ea7 0E20     		.2byte	0x200e
 3521 0ea9 14       		.uleb128 0x14
 3522 0eaa 775E0000 		.4byte	.LASF349
 3523 0eae 0F20     		.2byte	0x200f
 3524 0eb0 14       		.uleb128 0x14
 3525 0eb1 C9190000 		.4byte	.LASF350
 3526 0eb5 1020     		.2byte	0x2010
 3527 0eb7 14       		.uleb128 0x14
 3528 0eb8 7D360000 		.4byte	.LASF351
 3529 0ebc 1120     		.2byte	0x2011
 3530 0ebe 14       		.uleb128 0x14
 3531 0ebf DD0E0000 		.4byte	.LASF352
 3532 0ec3 1220     		.2byte	0x2012
 3533 0ec5 14       		.uleb128 0x14
 3534 0ec6 9F390000 		.4byte	.LASF353
 3535 0eca 1320     		.2byte	0x2013
 3536 0ecc 14       		.uleb128 0x14
 3537 0ecd 7E1F0000 		.4byte	.LASF354
 3538 0ed1 1420     		.2byte	0x2014
 3539 0ed3 14       		.uleb128 0x14
 3540 0ed4 493F0000 		.4byte	.LASF355
 3541 0ed8 1520     		.2byte	0x2015
 3542 0eda 14       		.uleb128 0x14
 3543 0edb 37390000 		.4byte	.LASF356
 3544 0edf 1620     		.2byte	0x2016
 3545 0ee1 14       		.uleb128 0x14
 3546 0ee2 E3390000 		.4byte	.LASF357
 3547 0ee6 1720     		.2byte	0x2017
 3548 0ee8 14       		.uleb128 0x14
 3549 0ee9 09510000 		.4byte	.LASF358
 3550 0eed 0030     		.2byte	0x3000
 3551 0eef 14       		.uleb128 0x14
 3552 0ef0 76490000 		.4byte	.LASF359
 3553 0ef4 0130     		.2byte	0x3001
 3554 0ef6 14       		.uleb128 0x14
 3555 0ef7 D2790000 		.4byte	.LASF360
 3556 0efb 0230     		.2byte	0x3002
 3557 0efd 14       		.uleb128 0x14
 3558 0efe A6660000 		.4byte	.LASF361
 3559 0f02 0330     		.2byte	0x3003
 3560 0f04 14       		.uleb128 0x14
 3561 0f05 32250000 		.4byte	.LASF362
 3562 0f09 0430     		.2byte	0x3004
 3563 0f0b 14       		.uleb128 0x14
 3564 0f0c A92E0000 		.4byte	.LASF363
 3565 0f10 0530     		.2byte	0x3005
 3566 0f12 14       		.uleb128 0x14
 3567 0f13 040B0000 		.4byte	.LASF364
 3568 0f17 0630     		.2byte	0x3006
 3569 0f19 14       		.uleb128 0x14
 3570 0f1a 10040000 		.4byte	.LASF365
 3571 0f1e 0730     		.2byte	0x3007
 3572 0f20 14       		.uleb128 0x14
 3573 0f21 83530000 		.4byte	.LASF366
 3574 0f25 0830     		.2byte	0x3008
 3575 0f27 14       		.uleb128 0x14
 3576 0f28 846D0000 		.4byte	.LASF367
ARM GAS  C:\Users\salaz\AppData\Local\Temp\ccj0QfQu.s 			page 98


 3577 0f2c 0930     		.2byte	0x3009
 3578 0f2e 14       		.uleb128 0x14
 3579 0f2f 4E540000 		.4byte	.LASF368
 3580 0f33 0A30     		.2byte	0x300a
 3581 0f35 14       		.uleb128 0x14
 3582 0f36 4C280000 		.4byte	.LASF369
 3583 0f3a 0B30     		.2byte	0x300b
 3584 0f3c 14       		.uleb128 0x14
 3585 0f3d 5A650000 		.4byte	.LASF370
 3586 0f41 0C30     		.2byte	0x300c
 3587 0f43 14       		.uleb128 0x14
 3588 0f44 17680000 		.4byte	.LASF371
 3589 0f48 1130     		.2byte	0x3011
 3590 0f4a 14       		.uleb128 0x14
 3591 0f4b 055F0000 		.4byte	.LASF372
 3592 0f4f 1230     		.2byte	0x3012
 3593 0f51 14       		.uleb128 0x14
 3594 0f52 623E0000 		.4byte	.LASF373
 3595 0f56 1330     		.2byte	0x3013
 3596 0f58 14       		.uleb128 0x14
 3597 0f59 BA0B0000 		.4byte	.LASF374
 3598 0f5d 1430     		.2byte	0x3014
 3599 0f5f 14       		.uleb128 0x14
 3600 0f60 D44A0000 		.4byte	.LASF375
 3601 0f64 1530     		.2byte	0x3015
 3602 0f66 14       		.uleb128 0x14
 3603 0f67 78190000 		.4byte	.LASF376
 3604 0f6b 1630     		.2byte	0x3016
 3605 0f6d 14       		.uleb128 0x14
 3606 0f6e 95490000 		.4byte	.LASF377
 3607 0f72 1730     		.2byte	0x3017
 3608 0f74 14       		.uleb128 0x14
 3609 0f75 225A0000 		.4byte	.LASF378
 3610 0f79 1830     		.2byte	0x3018
 3611 0f7b 14       		.uleb128 0x14
 3612 0f7c 253E0000 		.4byte	.LASF379
 3613 0f80 0040     		.2byte	0x4000
 3614 0f82 14       		.uleb128 0x14
 3615 0f83 A66F0000 		.4byte	.LASF380
 3616 0f87 0140     		.2byte	0x4001
 3617 0f89 14       		.uleb128 0x14
 3618 0f8a 8D590000 		.4byte	.LASF381
 3619 0f8e 0240     		.2byte	0x4002
 3620 0f90 14       		.uleb128 0x14
 3621 0f91 594B0000 		.4byte	.LASF382
 3622 0f95 0340     		.2byte	0x4003
 3623 0f97 14       		.uleb128 0x14
 3624 0f98 65460000 		.4byte	.LASF383
 3625 0f9c 0440     		.2byte	0x4004
 3626 0f9e 14       		.uleb128 0x14
 3627 0f9f C9220000 		.4byte	.LASF384
 3628 0fa3 0540     		.2byte	0x4005
 3629 0fa5 14       		.uleb128 0x14
 3630 0fa6 F3170000 		.4byte	.LASF385
 3631 0faa 0640     		.2byte	0x4006
 3632 0fac 14       		.uleb128 0x14
 3633 0fad AF2C0000 		.4byte	.LASF386
ARM GAS  C:\Users\salaz\AppData\Local\Temp\ccj0QfQu.s 			page 99


 3634 0fb1 0740     		.2byte	0x4007
 3635 0fb3 14       		.uleb128 0x14
 3636 0fb4 2F720000 		.4byte	.LASF387
 3637 0fb8 0840     		.2byte	0x4008
 3638 0fba 14       		.uleb128 0x14
 3639 0fbb 6F5D0000 		.4byte	.LASF388
 3640 0fbf 0940     		.2byte	0x4009
 3641 0fc1 14       		.uleb128 0x14
 3642 0fc2 E4130000 		.4byte	.LASF389
 3643 0fc6 0A40     		.2byte	0x400a
 3644 0fc8 14       		.uleb128 0x14
 3645 0fc9 D90B0000 		.4byte	.LASF390
 3646 0fcd 0B40     		.2byte	0x400b
 3647 0fcf 14       		.uleb128 0x14
 3648 0fd0 BE5F0000 		.4byte	.LASF391
 3649 0fd4 0C40     		.2byte	0x400c
 3650 0fd6 14       		.uleb128 0x14
 3651 0fd7 1A490000 		.4byte	.LASF392
 3652 0fdb 0D40     		.2byte	0x400d
 3653 0fdd 14       		.uleb128 0x14
 3654 0fde DA6D0000 		.4byte	.LASF393
 3655 0fe2 0E40     		.2byte	0x400e
 3656 0fe4 14       		.uleb128 0x14
 3657 0fe5 971B0000 		.4byte	.LASF394
 3658 0fe9 0F40     		.2byte	0x400f
 3659 0feb 14       		.uleb128 0x14
 3660 0fec 57040000 		.4byte	.LASF395
 3661 0ff0 1040     		.2byte	0x4010
 3662 0ff2 14       		.uleb128 0x14
 3663 0ff3 2C410000 		.4byte	.LASF396
 3664 0ff7 1140     		.2byte	0x4011
 3665 0ff9 14       		.uleb128 0x14
 3666 0ffa 971E0000 		.4byte	.LASF397
 3667 0ffe 1240     		.2byte	0x4012
 3668 1000 14       		.uleb128 0x14
 3669 1001 D8300000 		.4byte	.LASF398
 3670 1005 1340     		.2byte	0x4013
 3671 1007 14       		.uleb128 0x14
 3672 1008 83430000 		.4byte	.LASF399
 3673 100c 1440     		.2byte	0x4014
 3674 100e 14       		.uleb128 0x14
 3675 100f 460E0000 		.4byte	.LASF400
 3676 1013 1540     		.2byte	0x4015
 3677 1015 14       		.uleb128 0x14
 3678 1016 13530000 		.4byte	.LASF401
 3679 101a 1640     		.2byte	0x4016
 3680 101c 14       		.uleb128 0x14
 3681 101d 853F0000 		.4byte	.LASF402
 3682 1021 1740     		.2byte	0x4017
 3683 1023 14       		.uleb128 0x14
 3684 1024 8C2B0000 		.4byte	.LASF403
 3685 1028 1840     		.2byte	0x4018
 3686 102a 14       		.uleb128 0x14
 3687 102b 7A130000 		.4byte	.LASF404
 3688 102f 1940     		.2byte	0x4019
 3689 1031 14       		.uleb128 0x14
 3690 1032 7B330000 		.4byte	.LASF405
ARM GAS  C:\Users\salaz\AppData\Local\Temp\ccj0QfQu.s 			page 100


 3691 1036 1A40     		.2byte	0x401a
 3692 1038 14       		.uleb128 0x14
 3693 1039 3B400000 		.4byte	.LASF406
 3694 103d 0050     		.2byte	0x5000
 3695 103f 14       		.uleb128 0x14
 3696 1040 EB2B0000 		.4byte	.LASF407
 3697 1044 0150     		.2byte	0x5001
 3698 1046 14       		.uleb128 0x14
 3699 1047 E1260000 		.4byte	.LASF408
 3700 104b 0250     		.2byte	0x5002
 3701 104d 14       		.uleb128 0x14
 3702 104e B9300000 		.4byte	.LASF409
 3703 1052 0350     		.2byte	0x5003
 3704 1054 14       		.uleb128 0x14
 3705 1055 235D0000 		.4byte	.LASF410
 3706 1059 0450     		.2byte	0x5004
 3707 105b 14       		.uleb128 0x14
 3708 105c 17290000 		.4byte	.LASF411
 3709 1060 0550     		.2byte	0x5005
 3710 1062 14       		.uleb128 0x14
 3711 1063 D3370000 		.4byte	.LASF412
 3712 1067 0650     		.2byte	0x5006
 3713 1069 14       		.uleb128 0x14
 3714 106a BB270000 		.4byte	.LASF413
 3715 106e 0750     		.2byte	0x5007
 3716 1070 14       		.uleb128 0x14
 3717 1071 EB2E0000 		.4byte	.LASF414
 3718 1075 0850     		.2byte	0x5008
 3719 1077 14       		.uleb128 0x14
 3720 1078 9B380000 		.4byte	.LASF415
 3721 107c 0950     		.2byte	0x5009
 3722 107e 14       		.uleb128 0x14
 3723 107f F3440000 		.4byte	.LASF416
 3724 1083 0A50     		.2byte	0x500a
 3725 1085 14       		.uleb128 0x14
 3726 1086 DE310000 		.4byte	.LASF417
 3727 108a 0B50     		.2byte	0x500b
 3728 108c 14       		.uleb128 0x14
 3729 108d 0A770000 		.4byte	.LASF418
 3730 1091 0C50     		.2byte	0x500c
 3731 1093 14       		.uleb128 0x14
 3732 1094 6C160000 		.4byte	.LASF419
 3733 1098 0D50     		.2byte	0x500d
 3734 109a 14       		.uleb128 0x14
 3735 109b 9C4E0000 		.4byte	.LASF420
 3736 109f 0E50     		.2byte	0x500e
 3737 10a1 14       		.uleb128 0x14
 3738 10a2 67700000 		.4byte	.LASF421
 3739 10a6 0F50     		.2byte	0x500f
 3740 10a8 14       		.uleb128 0x14
 3741 10a9 1A3D0000 		.4byte	.LASF422
 3742 10ad 1050     		.2byte	0x5010
 3743 10af 14       		.uleb128 0x14
 3744 10b0 46440000 		.4byte	.LASF423
 3745 10b4 1150     		.2byte	0x5011
 3746 10b6 14       		.uleb128 0x14
 3747 10b7 A3640000 		.4byte	.LASF424
ARM GAS  C:\Users\salaz\AppData\Local\Temp\ccj0QfQu.s 			page 101


 3748 10bb 1250     		.2byte	0x5012
 3749 10bd 14       		.uleb128 0x14
 3750 10be 8A030000 		.4byte	.LASF425
 3751 10c2 1350     		.2byte	0x5013
 3752 10c4 14       		.uleb128 0x14
 3753 10c5 17610000 		.4byte	.LASF426
 3754 10c9 1450     		.2byte	0x5014
 3755 10cb 14       		.uleb128 0x14
 3756 10cc 391B0000 		.4byte	.LASF427
 3757 10d0 1550     		.2byte	0x5015
 3758 10d2 14       		.uleb128 0x14
 3759 10d3 B4070000 		.4byte	.LASF428
 3760 10d7 1650     		.2byte	0x5016
 3761 10d9 14       		.uleb128 0x14
 3762 10da BF410000 		.4byte	.LASF429
 3763 10de 1750     		.2byte	0x5017
 3764 10e0 14       		.uleb128 0x14
 3765 10e1 472E0000 		.4byte	.LASF430
 3766 10e5 1850     		.2byte	0x5018
 3767 10e7 14       		.uleb128 0x14
 3768 10e8 D2160000 		.4byte	.LASF431
 3769 10ec 0060     		.2byte	0x6000
 3770 10ee 14       		.uleb128 0x14
 3771 10ef 4F250000 		.4byte	.LASF432
 3772 10f3 0160     		.2byte	0x6001
 3773 10f5 14       		.uleb128 0x14
 3774 10f6 2B380000 		.4byte	.LASF433
 3775 10fa 0260     		.2byte	0x6002
 3776 10fc 14       		.uleb128 0x14
 3777 10fd 84480000 		.4byte	.LASF434
 3778 1101 0360     		.2byte	0x6003
 3779 1103 14       		.uleb128 0x14
 3780 1104 EB230000 		.4byte	.LASF435
 3781 1108 0460     		.2byte	0x6004
 3782 110a 14       		.uleb128 0x14
 3783 110b A0790000 		.4byte	.LASF436
 3784 110f 0560     		.2byte	0x6005
 3785 1111 14       		.uleb128 0x14
 3786 1112 E4590000 		.4byte	.LASF437
 3787 1116 0660     		.2byte	0x6006
 3788 1118 14       		.uleb128 0x14
 3789 1119 B1530000 		.4byte	.LASF438
 3790 111d 0760     		.2byte	0x6007
 3791 111f 14       		.uleb128 0x14
 3792 1120 43530000 		.4byte	.LASF439
 3793 1124 0860     		.2byte	0x6008
 3794 1126 14       		.uleb128 0x14
 3795 1127 CC1D0000 		.4byte	.LASF440
 3796 112b 0960     		.2byte	0x6009
 3797 112d 14       		.uleb128 0x14
 3798 112e D84E0000 		.4byte	.LASF441
 3799 1132 0A60     		.2byte	0x600a
 3800 1134 14       		.uleb128 0x14
 3801 1135 2E200000 		.4byte	.LASF442
 3802 1139 FFFF     		.2byte	0xffff
 3803 113b 00       		.byte	0
 3804 113c 09       		.uleb128 0x9
ARM GAS  C:\Users\salaz\AppData\Local\Temp\ccj0QfQu.s 			page 102


 3805 113d B95C0000 		.4byte	.LASF443
 3806 1141 09       		.byte	0x9
 3807 1142 B504     		.2byte	0x4b5
 3808 1144 030E0000 		.4byte	0xe03
 3809 1148 13       		.uleb128 0x13
 3810 1149 04       		.byte	0x4
 3811 114a 2C000000 		.4byte	0x2c
 3812 114e 09       		.byte	0x9
 3813 114f BF04     		.2byte	0x4bf
 3814 1151 61120000 		.4byte	0x1261
 3815 1155 08       		.uleb128 0x8
 3816 1156 0B5E0000 		.4byte	.LASF444
 3817 115a 00       		.byte	0
 3818 115b 15       		.uleb128 0x15
 3819 115c 393B0000 		.4byte	.LASF445
 3820 1160 01001400 		.4byte	0x140001
 3821 1164 15       		.uleb128 0x15
 3822 1165 8A560000 		.4byte	.LASF446
 3823 1169 01001600 		.4byte	0x160001
 3824 116d 15       		.uleb128 0x15
 3825 116e 7D620000 		.4byte	.LASF447
 3826 1172 02001600 		.4byte	0x160002
 3827 1176 15       		.uleb128 0x15
 3828 1177 90320000 		.4byte	.LASF448
 3829 117b 03001600 		.4byte	0x160003
 3830 117f 15       		.uleb128 0x15
 3831 1180 B90E0000 		.4byte	.LASF449
 3832 1184 04001600 		.4byte	0x160004
 3833 1188 15       		.uleb128 0x15
 3834 1189 44480000 		.4byte	.LASF450
 3835 118d 05001600 		.4byte	0x160005
 3836 1191 15       		.uleb128 0x15
 3837 1192 B2500000 		.4byte	.LASF451
 3838 1196 06001600 		.4byte	0x160006
 3839 119a 15       		.uleb128 0x15
 3840 119b 7B1A0000 		.4byte	.LASF452
 3841 119f 07001600 		.4byte	0x160007
 3842 11a3 15       		.uleb128 0x15
 3843 11a4 C8230000 		.4byte	.LASF453
 3844 11a8 08001600 		.4byte	0x160008
 3845 11ac 15       		.uleb128 0x15
 3846 11ad 3E4C0000 		.4byte	.LASF454
 3847 11b1 09001600 		.4byte	0x160009
 3848 11b5 15       		.uleb128 0x15
 3849 11b6 CE290000 		.4byte	.LASF455
 3850 11ba 0A001600 		.4byte	0x16000a
 3851 11be 15       		.uleb128 0x15
 3852 11bf 84200000 		.4byte	.LASF456
 3853 11c3 0B001600 		.4byte	0x16000b
 3854 11c7 15       		.uleb128 0x15
 3855 11c8 40320000 		.4byte	.LASF457
 3856 11cc 0C001600 		.4byte	0x16000c
 3857 11d0 15       		.uleb128 0x15
 3858 11d1 522A0000 		.4byte	.LASF458
 3859 11d5 0D001600 		.4byte	0x16000d
 3860 11d9 15       		.uleb128 0x15
 3861 11da 46160000 		.4byte	.LASF459
ARM GAS  C:\Users\salaz\AppData\Local\Temp\ccj0QfQu.s 			page 103


 3862 11de 0E001600 		.4byte	0x16000e
 3863 11e2 15       		.uleb128 0x15
 3864 11e3 3E5F0000 		.4byte	.LASF460
 3865 11e7 0F001600 		.4byte	0x16000f
 3866 11eb 15       		.uleb128 0x15
 3867 11ec F6660000 		.4byte	.LASF461
 3868 11f0 10001600 		.4byte	0x160010
 3869 11f4 15       		.uleb128 0x15
 3870 11f5 6C400000 		.4byte	.LASF462
 3871 11f9 11001600 		.4byte	0x160011
 3872 11fd 15       		.uleb128 0x15
 3873 11fe F75B0000 		.4byte	.LASF463
 3874 1202 12001600 		.4byte	0x160012
 3875 1206 15       		.uleb128 0x15
 3876 1207 B3210000 		.4byte	.LASF464
 3877 120b 13001600 		.4byte	0x160013
 3878 120f 15       		.uleb128 0x15
 3879 1210 C8360000 		.4byte	.LASF465
 3880 1214 14001600 		.4byte	0x160014
 3881 1218 15       		.uleb128 0x15
 3882 1219 C5390000 		.4byte	.LASF466
 3883 121d 15001600 		.4byte	0x160015
 3884 1221 15       		.uleb128 0x15
 3885 1222 8B570000 		.4byte	.LASF467
 3886 1226 16001600 		.4byte	0x160016
 3887 122a 15       		.uleb128 0x15
 3888 122b 387A0000 		.4byte	.LASF468
 3889 122f 17001600 		.4byte	0x160017
 3890 1233 15       		.uleb128 0x15
 3891 1234 4E410000 		.4byte	.LASF469
 3892 1238 18001600 		.4byte	0x160018
 3893 123c 15       		.uleb128 0x15
 3894 123d 765F0000 		.4byte	.LASF470
 3895 1241 19001600 		.4byte	0x160019
 3896 1245 15       		.uleb128 0x15
 3897 1246 0F520000 		.4byte	.LASF471
 3898 124a FE001600 		.4byte	0x1600fe
 3899 124e 15       		.uleb128 0x15
 3900 124f 763C0000 		.4byte	.LASF472
 3901 1253 FF001600 		.4byte	0x1600ff
 3902 1257 15       		.uleb128 0x15
 3903 1258 5E5D0000 		.4byte	.LASF473
 3904 125c FFFF1600 		.4byte	0x16ffff
 3905 1260 00       		.byte	0
 3906 1261 09       		.uleb128 0x9
 3907 1262 C1110000 		.4byte	.LASF474
 3908 1266 09       		.byte	0x9
 3909 1267 2205     		.2byte	0x522
 3910 1269 48110000 		.4byte	0x1148
 3911 126d 16       		.uleb128 0x16
 3912 126e 07       		.byte	0x7
 3913 126f 09       		.byte	0x9
 3914 1270 4005     		.2byte	0x540
 3915 1272 91120000 		.4byte	0x1291
 3916 1276 17       		.uleb128 0x17
 3917 1277 1E1C0000 		.4byte	.LASF475
 3918 127b 09       		.byte	0x9
ARM GAS  C:\Users\salaz\AppData\Local\Temp\ccj0QfQu.s 			page 104


 3919 127c 4305     		.2byte	0x543
 3920 127e 91120000 		.4byte	0x1291
 3921 1282 00       		.byte	0
 3922 1283 17       		.uleb128 0x17
 3923 1284 12450000 		.4byte	.LASF476
 3924 1288 09       		.byte	0x9
 3925 1289 4605     		.2byte	0x546
 3926 128b A3000000 		.4byte	0xa3
 3927 128f 06       		.byte	0x6
 3928 1290 00       		.byte	0
 3929 1291 0F       		.uleb128 0xf
 3930 1292 A3000000 		.4byte	0xa3
 3931 1296 A1120000 		.4byte	0x12a1
 3932 129a 10       		.uleb128 0x10
 3933 129b 93000000 		.4byte	0x93
 3934 129f 05       		.byte	0x5
 3935 12a0 00       		.byte	0
 3936 12a1 09       		.uleb128 0x9
 3937 12a2 244D0000 		.4byte	.LASF477
 3938 12a6 09       		.byte	0x9
 3939 12a7 4805     		.2byte	0x548
 3940 12a9 6D120000 		.4byte	0x126d
 3941 12ad 18       		.uleb128 0x18
 3942 12ae 04       		.byte	0x4
 3943 12af A3000000 		.4byte	0xa3
 3944 12b3 13       		.uleb128 0x13
 3945 12b4 01       		.byte	0x1
 3946 12b5 41000000 		.4byte	0x41
 3947 12b9 09       		.byte	0x9
 3948 12ba 1606     		.2byte	0x616
 3949 12bc E5120000 		.4byte	0x12e5
 3950 12c0 07       		.uleb128 0x7
 3951 12c1 251C0000 		.4byte	.LASF478
 3952 12c5 6C       		.sleb128 -20
 3953 12c6 07       		.uleb128 0x7
 3954 12c7 E85E0000 		.4byte	.LASF479
 3955 12cb 70       		.sleb128 -16
 3956 12cc 07       		.uleb128 0x7
 3957 12cd C7130000 		.4byte	.LASF480
 3958 12d1 74       		.sleb128 -12
 3959 12d2 07       		.uleb128 0x7
 3960 12d3 C2310000 		.4byte	.LASF481
 3961 12d7 7A       		.sleb128 -6
 3962 12d8 08       		.uleb128 0x8
 3963 12d9 BF1E0000 		.4byte	.LASF482
 3964 12dd 00       		.byte	0
 3965 12de 08       		.uleb128 0x8
 3966 12df 56400000 		.4byte	.LASF483
 3967 12e3 04       		.byte	0x4
 3968 12e4 00       		.byte	0
 3969 12e5 09       		.uleb128 0x9
 3970 12e6 72390000 		.4byte	.LASF484
 3971 12ea 09       		.byte	0x9
 3972 12eb 2906     		.2byte	0x629
 3973 12ed B3120000 		.4byte	0x12b3
 3974 12f1 13       		.uleb128 0x13
 3975 12f2 01       		.byte	0x1
ARM GAS  C:\Users\salaz\AppData\Local\Temp\ccj0QfQu.s 			page 105


 3976 12f3 53000000 		.4byte	0x53
 3977 12f7 09       		.byte	0x9
 3978 12f8 2D06     		.2byte	0x62d
 3979 12fa 11130000 		.4byte	0x1311
 3980 12fe 08       		.uleb128 0x8
 3981 12ff C1150000 		.4byte	.LASF485
 3982 1303 00       		.byte	0
 3983 1304 08       		.uleb128 0x8
 3984 1305 BC2F0000 		.4byte	.LASF486
 3985 1309 01       		.byte	0x1
 3986 130a 08       		.uleb128 0x8
 3987 130b 4B620000 		.4byte	.LASF487
 3988 130f 02       		.byte	0x2
 3989 1310 00       		.byte	0
 3990 1311 09       		.uleb128 0x9
 3991 1312 A0450000 		.4byte	.LASF488
 3992 1316 09       		.byte	0x9
 3993 1317 3706     		.2byte	0x637
 3994 1319 F1120000 		.4byte	0x12f1
 3995 131d 13       		.uleb128 0x13
 3996 131e 01       		.byte	0x1
 3997 131f 53000000 		.4byte	0x53
 3998 1323 0A       		.byte	0xa
 3999 1324 0301     		.2byte	0x103
 4000 1326 43130000 		.4byte	0x1343
 4001 132a 08       		.uleb128 0x8
 4002 132b FB200000 		.4byte	.LASF489
 4003 132f 01       		.byte	0x1
 4004 1330 08       		.uleb128 0x8
 4005 1331 073D0000 		.4byte	.LASF490
 4006 1335 02       		.byte	0x2
 4007 1336 08       		.uleb128 0x8
 4008 1337 16750000 		.4byte	.LASF491
 4009 133b 03       		.byte	0x3
 4010 133c 08       		.uleb128 0x8
 4011 133d 7C040000 		.4byte	.LASF492
 4012 1341 04       		.byte	0x4
 4013 1342 00       		.byte	0
 4014 1343 09       		.uleb128 0x9
 4015 1344 7D780000 		.4byte	.LASF493
 4016 1348 0A       		.byte	0xa
 4017 1349 1001     		.2byte	0x110
 4018 134b 1D130000 		.4byte	0x131d
 4019 134f 13       		.uleb128 0x13
 4020 1350 01       		.byte	0x1
 4021 1351 53000000 		.4byte	0x53
 4022 1355 0A       		.byte	0xa
 4023 1356 1401     		.2byte	0x114
 4024 1358 69130000 		.4byte	0x1369
 4025 135c 08       		.uleb128 0x8
 4026 135d 6B5A0000 		.4byte	.LASF494
 4027 1361 00       		.byte	0
 4028 1362 08       		.uleb128 0x8
 4029 1363 81110000 		.4byte	.LASF495
 4030 1367 01       		.byte	0x1
 4031 1368 00       		.byte	0
 4032 1369 09       		.uleb128 0x9
ARM GAS  C:\Users\salaz\AppData\Local\Temp\ccj0QfQu.s 			page 106


 4033 136a 796C0000 		.4byte	.LASF496
 4034 136e 0A       		.byte	0xa
 4035 136f 1B01     		.2byte	0x11b
 4036 1371 4F130000 		.4byte	0x134f
 4037 1375 16       		.uleb128 0x16
 4038 1376 02       		.byte	0x2
 4039 1377 0A       		.byte	0xa
 4040 1378 5B01     		.2byte	0x15b
 4041 137a 99130000 		.4byte	0x1399
 4042 137e 17       		.uleb128 0x17
 4043 137f 03340000 		.4byte	.LASF497
 4044 1383 0A       		.byte	0xa
 4045 1384 6501     		.2byte	0x165
 4046 1386 A3000000 		.4byte	0xa3
 4047 138a 00       		.byte	0
 4048 138b 17       		.uleb128 0x17
 4049 138c 49020000 		.4byte	.LASF498
 4050 1390 0A       		.byte	0xa
 4051 1391 6901     		.2byte	0x169
 4052 1393 A3000000 		.4byte	0xa3
 4053 1397 01       		.byte	0x1
 4054 1398 00       		.byte	0
 4055 1399 09       		.uleb128 0x9
 4056 139a 7E280000 		.4byte	.LASF499
 4057 139e 0A       		.byte	0xa
 4058 139f 6B01     		.2byte	0x16b
 4059 13a1 75130000 		.4byte	0x1375
 4060 13a5 16       		.uleb128 0x16
 4061 13a6 02       		.byte	0x2
 4062 13a7 0A       		.byte	0xa
 4063 13a8 9201     		.2byte	0x192
 4064 13aa C9130000 		.4byte	0x13c9
 4065 13ae 17       		.uleb128 0x17
 4066 13af 24170000 		.4byte	.LASF500
 4067 13b3 0A       		.byte	0xa
 4068 13b4 9501     		.2byte	0x195
 4069 13b6 11130000 		.4byte	0x1311
 4070 13ba 00       		.byte	0
 4071 13bb 17       		.uleb128 0x17
 4072 13bc 03340000 		.4byte	.LASF497
 4073 13c0 0A       		.byte	0xa
 4074 13c1 9801     		.2byte	0x198
 4075 13c3 A3000000 		.4byte	0xa3
 4076 13c7 01       		.byte	0x1
 4077 13c8 00       		.byte	0
 4078 13c9 09       		.uleb128 0x9
 4079 13ca 99040000 		.4byte	.LASF501
 4080 13ce 0A       		.byte	0xa
 4081 13cf 9A01     		.2byte	0x19a
 4082 13d1 A5130000 		.4byte	0x13a5
 4083 13d5 16       		.uleb128 0x16
 4084 13d6 03       		.byte	0x3
 4085 13d7 0A       		.byte	0xa
 4086 13d8 9D01     		.2byte	0x19d
 4087 13da F9130000 		.4byte	0x13f9
 4088 13de 17       		.uleb128 0x17
 4089 13df F80F0000 		.4byte	.LASF502
ARM GAS  C:\Users\salaz\AppData\Local\Temp\ccj0QfQu.s 			page 107


 4090 13e3 0A       		.byte	0xa
 4091 13e4 A001     		.2byte	0x1a0
 4092 13e6 E5120000 		.4byte	0x12e5
 4093 13ea 00       		.byte	0
 4094 13eb 17       		.uleb128 0x17
 4095 13ec 8D5D0000 		.4byte	.LASF503
 4096 13f0 0A       		.byte	0xa
 4097 13f1 A301     		.2byte	0x1a3
 4098 13f3 C9130000 		.4byte	0x13c9
 4099 13f7 01       		.byte	0x1
 4100 13f8 00       		.byte	0
 4101 13f9 09       		.uleb128 0x9
 4102 13fa 922C0000 		.4byte	.LASF504
 4103 13fe 0A       		.byte	0xa
 4104 13ff A501     		.2byte	0x1a5
 4105 1401 D5130000 		.4byte	0x13d5
 4106 1405 16       		.uleb128 0x16
 4107 1406 0C       		.byte	0xc
 4108 1407 0A       		.byte	0xa
 4109 1408 F402     		.2byte	0x2f4
 4110 140a 43140000 		.4byte	0x1443
 4111 140e 17       		.uleb128 0x17
 4112 140f 38070000 		.4byte	.LASF505
 4113 1413 0A       		.byte	0xa
 4114 1414 F702     		.2byte	0x2f7
 4115 1416 69130000 		.4byte	0x1369
 4116 141a 00       		.byte	0
 4117 141b 17       		.uleb128 0x17
 4118 141c 56080000 		.4byte	.LASF506
 4119 1420 0A       		.byte	0xa
 4120 1421 FF02     		.2byte	0x2ff
 4121 1423 9A000000 		.4byte	0x9a
 4122 1427 04       		.byte	0x4
 4123 1428 17       		.uleb128 0x17
 4124 1429 97280000 		.4byte	.LASF507
 4125 142d 0A       		.byte	0xa
 4126 142e 0403     		.2byte	0x304
 4127 1430 A3000000 		.4byte	0xa3
 4128 1434 08       		.byte	0x8
 4129 1435 17       		.uleb128 0x17
 4130 1436 AE000000 		.4byte	.LASF508
 4131 143a 0A       		.byte	0xa
 4132 143b 0703     		.2byte	0x307
 4133 143d 99130000 		.4byte	0x1399
 4134 1441 09       		.byte	0x9
 4135 1442 00       		.byte	0
 4136 1443 09       		.uleb128 0x9
 4137 1444 FB280000 		.4byte	.LASF509
 4138 1448 0A       		.byte	0xa
 4139 1449 0903     		.2byte	0x309
 4140 144b 05140000 		.4byte	0x1405
 4141 144f 19       		.uleb128 0x19
 4142 1450 02       		.byte	0x2
 4143 1451 0A       		.byte	0xa
 4144 1452 2103     		.2byte	0x321
 4145 1454 71140000 		.4byte	0x1471
 4146 1458 1A       		.uleb128 0x1a
ARM GAS  C:\Users\salaz\AppData\Local\Temp\ccj0QfQu.s 			page 108


 4147 1459 AE000000 		.4byte	.LASF508
 4148 145d 0A       		.byte	0xa
 4149 145e 2403     		.2byte	0x324
 4150 1460 99130000 		.4byte	0x1399
 4151 1464 1A       		.uleb128 0x1a
 4152 1465 03340000 		.4byte	.LASF497
 4153 1469 0A       		.byte	0xa
 4154 146a 2703     		.2byte	0x327
 4155 146c A3000000 		.4byte	0xa3
 4156 1470 00       		.byte	0
 4157 1471 16       		.uleb128 0x16
 4158 1472 04       		.byte	0x4
 4159 1473 0A       		.byte	0xa
 4160 1474 1B03     		.2byte	0x31b
 4161 1476 A2140000 		.4byte	0x14a2
 4162 147a 17       		.uleb128 0x17
 4163 147b 93520000 		.4byte	.LASF510
 4164 147f 0A       		.byte	0xa
 4165 1480 1E03     		.2byte	0x31e
 4166 1482 43130000 		.4byte	0x1343
 4167 1486 00       		.byte	0
 4168 1487 17       		.uleb128 0x17
 4169 1488 797A0000 		.4byte	.LASF511
 4170 148c 0A       		.byte	0xa
 4171 148d 2903     		.2byte	0x329
 4172 148f 4F140000 		.4byte	0x144f
 4173 1493 01       		.byte	0x1
 4174 1494 17       		.uleb128 0x17
 4175 1495 6E030000 		.4byte	.LASF512
 4176 1499 0A       		.byte	0xa
 4177 149a 2C03     		.2byte	0x32c
 4178 149c A3000000 		.4byte	0xa3
 4179 14a0 03       		.byte	0x3
 4180 14a1 00       		.byte	0
 4181 14a2 09       		.uleb128 0x9
 4182 14a3 DC520000 		.4byte	.LASF513
 4183 14a7 0A       		.byte	0xa
 4184 14a8 2E03     		.2byte	0x32e
 4185 14aa 71140000 		.4byte	0x1471
 4186 14ae 06       		.uleb128 0x6
 4187 14af 01       		.byte	0x1
 4188 14b0 53000000 		.4byte	0x53
 4189 14b4 0B       		.byte	0xb
 4190 14b5 4E       		.byte	0x4e
 4191 14b6 69150000 		.4byte	0x1569
 4192 14ba 08       		.uleb128 0x8
 4193 14bb D52D0000 		.4byte	.LASF514
 4194 14bf 01       		.byte	0x1
 4195 14c0 08       		.uleb128 0x8
 4196 14c1 C1030000 		.4byte	.LASF515
 4197 14c5 02       		.byte	0x2
 4198 14c6 08       		.uleb128 0x8
 4199 14c7 39030000 		.4byte	.LASF516
 4200 14cb 03       		.byte	0x3
 4201 14cc 08       		.uleb128 0x8
 4202 14cd 083B0000 		.4byte	.LASF517
 4203 14d1 04       		.byte	0x4
ARM GAS  C:\Users\salaz\AppData\Local\Temp\ccj0QfQu.s 			page 109


 4204 14d2 08       		.uleb128 0x8
 4205 14d3 0A200000 		.4byte	.LASF518
 4206 14d7 05       		.byte	0x5
 4207 14d8 08       		.uleb128 0x8
 4208 14d9 74370000 		.4byte	.LASF519
 4209 14dd 06       		.byte	0x6
 4210 14de 08       		.uleb128 0x8
 4211 14df 61470000 		.4byte	.LASF520
 4212 14e3 07       		.byte	0x7
 4213 14e4 08       		.uleb128 0x8
 4214 14e5 C8480000 		.4byte	.LASF521
 4215 14e9 08       		.byte	0x8
 4216 14ea 08       		.uleb128 0x8
 4217 14eb 53560000 		.4byte	.LASF522
 4218 14ef 09       		.byte	0x9
 4219 14f0 08       		.uleb128 0x8
 4220 14f1 34020000 		.4byte	.LASF523
 4221 14f5 0A       		.byte	0xa
 4222 14f6 08       		.uleb128 0x8
 4223 14f7 56120000 		.4byte	.LASF524
 4224 14fb 0B       		.byte	0xb
 4225 14fc 08       		.uleb128 0x8
 4226 14fd D7580000 		.4byte	.LASF525
 4227 1501 0C       		.byte	0xc
 4228 1502 08       		.uleb128 0x8
 4229 1503 B5630000 		.4byte	.LASF526
 4230 1507 0D       		.byte	0xd
 4231 1508 08       		.uleb128 0x8
 4232 1509 FE1D0000 		.4byte	.LASF527
 4233 150d 0E       		.byte	0xe
 4234 150e 08       		.uleb128 0x8
 4235 150f E8420000 		.4byte	.LASF528
 4236 1513 0F       		.byte	0xf
 4237 1514 08       		.uleb128 0x8
 4238 1515 F1100000 		.4byte	.LASF529
 4239 1519 10       		.byte	0x10
 4240 151a 08       		.uleb128 0x8
 4241 151b 494F0000 		.4byte	.LASF530
 4242 151f 11       		.byte	0x11
 4243 1520 08       		.uleb128 0x8
 4244 1521 3C000000 		.4byte	.LASF531
 4245 1525 12       		.byte	0x12
 4246 1526 08       		.uleb128 0x8
 4247 1527 5E100000 		.4byte	.LASF532
 4248 152b 13       		.byte	0x13
 4249 152c 08       		.uleb128 0x8
 4250 152d EE680000 		.4byte	.LASF533
 4251 1531 52       		.byte	0x52
 4252 1532 08       		.uleb128 0x8
 4253 1533 9F610000 		.4byte	.LASF534
 4254 1537 16       		.byte	0x16
 4255 1538 08       		.uleb128 0x8
 4256 1539 E56E0000 		.4byte	.LASF535
 4257 153d 17       		.byte	0x17
 4258 153e 08       		.uleb128 0x8
 4259 153f 8B6B0000 		.4byte	.LASF536
 4260 1543 18       		.byte	0x18
ARM GAS  C:\Users\salaz\AppData\Local\Temp\ccj0QfQu.s 			page 110


 4261 1544 08       		.uleb128 0x8
 4262 1545 34790000 		.4byte	.LASF537
 4263 1549 19       		.byte	0x19
 4264 154a 08       		.uleb128 0x8
 4265 154b 40070000 		.4byte	.LASF538
 4266 154f 1B       		.byte	0x1b
 4267 1550 08       		.uleb128 0x8
 4268 1551 62220000 		.4byte	.LASF539
 4269 1555 1D       		.byte	0x1d
 4270 1556 08       		.uleb128 0x8
 4271 1557 15780000 		.4byte	.LASF540
 4272 155b 1E       		.byte	0x1e
 4273 155c 08       		.uleb128 0x8
 4274 155d E4620000 		.4byte	.LASF541
 4275 1561 D2       		.byte	0xd2
 4276 1562 08       		.uleb128 0x8
 4277 1563 EB240000 		.4byte	.LASF542
 4278 1567 FF       		.byte	0xff
 4279 1568 00       		.byte	0
 4280 1569 04       		.uleb128 0x4
 4281 156a 5F6E0000 		.4byte	.LASF543
 4282 156e 0B       		.byte	0xb
 4283 156f A6       		.byte	0xa6
 4284 1570 AE140000 		.4byte	0x14ae
 4285 1574 06       		.uleb128 0x6
 4286 1575 01       		.byte	0x1
 4287 1576 53000000 		.4byte	0x53
 4288 157a 0B       		.byte	0xb
 4289 157b AA       		.byte	0xaa
 4290 157c 65160000 		.4byte	0x1665
 4291 1580 08       		.uleb128 0x8
 4292 1581 75000000 		.4byte	.LASF544
 4293 1585 00       		.byte	0
 4294 1586 08       		.uleb128 0x8
 4295 1587 01260000 		.4byte	.LASF545
 4296 158b 01       		.byte	0x1
 4297 158c 08       		.uleb128 0x8
 4298 158d 0B270000 		.4byte	.LASF546
 4299 1591 02       		.byte	0x2
 4300 1592 08       		.uleb128 0x8
 4301 1593 CF170000 		.4byte	.LASF547
 4302 1597 03       		.byte	0x3
 4303 1598 08       		.uleb128 0x8
 4304 1599 42100000 		.4byte	.LASF548
 4305 159d 04       		.byte	0x4
 4306 159e 08       		.uleb128 0x8
 4307 159f 8F270000 		.4byte	.LASF549
 4308 15a3 05       		.byte	0x5
 4309 15a4 08       		.uleb128 0x8
 4310 15a5 8B1D0000 		.4byte	.LASF550
 4311 15a9 06       		.byte	0x6
 4312 15aa 08       		.uleb128 0x8
 4313 15ab CF540000 		.4byte	.LASF551
 4314 15af 07       		.byte	0x7
 4315 15b0 08       		.uleb128 0x8
 4316 15b1 CF630000 		.4byte	.LASF552
 4317 15b5 08       		.byte	0x8
ARM GAS  C:\Users\salaz\AppData\Local\Temp\ccj0QfQu.s 			page 111


 4318 15b6 08       		.uleb128 0x8
 4319 15b7 49270000 		.4byte	.LASF553
 4320 15bb 09       		.byte	0x9
 4321 15bc 08       		.uleb128 0x8
 4322 15bd E5500000 		.4byte	.LASF554
 4323 15c1 0A       		.byte	0xa
 4324 15c2 08       		.uleb128 0x8
 4325 15c3 D5570000 		.4byte	.LASF555
 4326 15c7 0B       		.byte	0xb
 4327 15c8 08       		.uleb128 0x8
 4328 15c9 52720000 		.4byte	.LASF556
 4329 15cd 0C       		.byte	0xc
 4330 15ce 08       		.uleb128 0x8
 4331 15cf D7070000 		.4byte	.LASF557
 4332 15d3 0D       		.byte	0xd
 4333 15d4 08       		.uleb128 0x8
 4334 15d5 A8130000 		.4byte	.LASF558
 4335 15d9 0E       		.byte	0xe
 4336 15da 08       		.uleb128 0x8
 4337 15db A4330000 		.4byte	.LASF559
 4338 15df 0F       		.byte	0xf
 4339 15e0 08       		.uleb128 0x8
 4340 15e1 4D370000 		.4byte	.LASF560
 4341 15e5 10       		.byte	0x10
 4342 15e6 08       		.uleb128 0x8
 4343 15e7 F1580000 		.4byte	.LASF561
 4344 15eb 11       		.byte	0x11
 4345 15ec 08       		.uleb128 0x8
 4346 15ed 90750000 		.4byte	.LASF562
 4347 15f1 80       		.byte	0x80
 4348 15f2 08       		.uleb128 0x8
 4349 15f3 C7720000 		.4byte	.LASF563
 4350 15f7 80       		.byte	0x80
 4351 15f8 08       		.uleb128 0x8
 4352 15f9 CC6B0000 		.4byte	.LASF564
 4353 15fd 80       		.byte	0x80
 4354 15fe 08       		.uleb128 0x8
 4355 15ff 2D630000 		.4byte	.LASF565
 4356 1603 80       		.byte	0x80
 4357 1604 08       		.uleb128 0x8
 4358 1605 56670000 		.4byte	.LASF566
 4359 1609 80       		.byte	0x80
 4360 160a 08       		.uleb128 0x8
 4361 160b 29750000 		.4byte	.LASF567
 4362 160f 80       		.byte	0x80
 4363 1610 08       		.uleb128 0x8
 4364 1611 61620000 		.4byte	.LASF568
 4365 1615 80       		.byte	0x80
 4366 1616 08       		.uleb128 0x8
 4367 1617 EB0D0000 		.4byte	.LASF569
 4368 161b 81       		.byte	0x81
 4369 161c 08       		.uleb128 0x8
 4370 161d C97A0000 		.4byte	.LASF570
 4371 1621 81       		.byte	0x81
 4372 1622 08       		.uleb128 0x8
 4373 1623 9D0E0000 		.4byte	.LASF571
 4374 1627 81       		.byte	0x81
ARM GAS  C:\Users\salaz\AppData\Local\Temp\ccj0QfQu.s 			page 112


 4375 1628 08       		.uleb128 0x8
 4376 1629 0A240000 		.4byte	.LASF572
 4377 162d 81       		.byte	0x81
 4378 162e 08       		.uleb128 0x8
 4379 162f 0F710000 		.4byte	.LASF573
 4380 1633 82       		.byte	0x82
 4381 1634 08       		.uleb128 0x8
 4382 1635 922F0000 		.4byte	.LASF574
 4383 1639 A0       		.byte	0xa0
 4384 163a 08       		.uleb128 0x8
 4385 163b 71500000 		.4byte	.LASF575
 4386 163f A0       		.byte	0xa0
 4387 1640 08       		.uleb128 0x8
 4388 1641 D8110000 		.4byte	.LASF576
 4389 1645 A1       		.byte	0xa1
 4390 1646 08       		.uleb128 0x8
 4391 1647 EC380000 		.4byte	.LASF577
 4392 164b A2       		.byte	0xa2
 4393 164c 08       		.uleb128 0x8
 4394 164d 7C720000 		.4byte	.LASF578
 4395 1651 A3       		.byte	0xa3
 4396 1652 08       		.uleb128 0x8
 4397 1653 56110000 		.4byte	.LASF579
 4398 1657 FD       		.byte	0xfd
 4399 1658 08       		.uleb128 0x8
 4400 1659 9B190000 		.4byte	.LASF580
 4401 165d FE       		.byte	0xfe
 4402 165e 08       		.uleb128 0x8
 4403 165f 0D050000 		.4byte	.LASF581
 4404 1663 FF       		.byte	0xff
 4405 1664 00       		.byte	0
 4406 1665 09       		.uleb128 0x9
 4407 1666 CB5C0000 		.4byte	.LASF582
 4408 166a 0B       		.byte	0xb
 4409 166b 6101     		.2byte	0x161
 4410 166d 74150000 		.4byte	0x1574
 4411 1671 09       		.uleb128 0x9
 4412 1672 A2580000 		.4byte	.LASF583
 4413 1676 0B       		.byte	0xb
 4414 1677 7F01     		.2byte	0x17f
 4415 1679 AE000000 		.4byte	0xae
 4416 167d 16       		.uleb128 0x16
 4417 167e 08       		.byte	0x8
 4418 167f 0B       		.byte	0xb
 4419 1680 9401     		.2byte	0x194
 4420 1682 AE160000 		.4byte	0x16ae
 4421 1686 1B       		.uleb128 0x1b
 4422 1687 76616C00 		.ascii	"val\000"
 4423 168b 0B       		.byte	0xb
 4424 168c 9701     		.2byte	0x197
 4425 168e AD120000 		.4byte	0x12ad
 4426 1692 00       		.byte	0
 4427 1693 1B       		.uleb128 0x1b
 4428 1694 6C656E00 		.ascii	"len\000"
 4429 1698 0B       		.byte	0xb
 4430 1699 9A01     		.2byte	0x19a
 4431 169b AE000000 		.4byte	0xae
ARM GAS  C:\Users\salaz\AppData\Local\Temp\ccj0QfQu.s 			page 113


 4432 169f 04       		.byte	0x4
 4433 16a0 17       		.uleb128 0x17
 4434 16a1 2F1B0000 		.4byte	.LASF584
 4435 16a5 0B       		.byte	0xb
 4436 16a6 A101     		.2byte	0x1a1
 4437 16a8 AE000000 		.4byte	0xae
 4438 16ac 06       		.byte	0x6
 4439 16ad 00       		.byte	0
 4440 16ae 09       		.uleb128 0x9
 4441 16af 4A3E0000 		.4byte	.LASF585
 4442 16b3 0B       		.byte	0xb
 4443 16b4 A301     		.2byte	0x1a3
 4444 16b6 7D160000 		.4byte	0x167d
 4445 16ba 16       		.uleb128 0x16
 4446 16bb 0C       		.byte	0xc
 4447 16bc 0B       		.byte	0xb
 4448 16bd A601     		.2byte	0x1a6
 4449 16bf DE160000 		.4byte	0x16de
 4450 16c3 17       		.uleb128 0x17
 4451 16c4 14490000 		.4byte	.LASF586
 4452 16c8 0B       		.byte	0xb
 4453 16c9 A901     		.2byte	0x1a9
 4454 16cb AE160000 		.4byte	0x16ae
 4455 16cf 00       		.byte	0
 4456 16d0 17       		.uleb128 0x17
 4457 16d1 16600000 		.4byte	.LASF587
 4458 16d5 0B       		.byte	0xb
 4459 16d6 AC01     		.2byte	0x1ac
 4460 16d8 71160000 		.4byte	0x1671
 4461 16dc 08       		.byte	0x8
 4462 16dd 00       		.byte	0
 4463 16de 09       		.uleb128 0x9
 4464 16df FA630000 		.4byte	.LASF588
 4465 16e3 0B       		.byte	0xb
 4466 16e4 AE01     		.2byte	0x1ae
 4467 16e6 BA160000 		.4byte	0x16ba
 4468 16ea 16       		.uleb128 0x16
 4469 16eb 04       		.byte	0x4
 4470 16ec 0B       		.byte	0xb
 4471 16ed BC01     		.2byte	0x1bc
 4472 16ef 0E170000 		.4byte	0x170e
 4473 16f3 17       		.uleb128 0x17
 4474 16f4 AE000000 		.4byte	.LASF508
 4475 16f8 0B       		.byte	0xb
 4476 16f9 BF01     		.2byte	0x1bf
 4477 16fb 99130000 		.4byte	0x1399
 4478 16ff 00       		.byte	0
 4479 1700 1B       		.uleb128 0x1b
 4480 1701 6D747500 		.ascii	"mtu\000"
 4481 1705 0B       		.byte	0xb
 4482 1706 C201     		.2byte	0x1c2
 4483 1708 AE000000 		.4byte	0xae
 4484 170c 02       		.byte	0x2
 4485 170d 00       		.byte	0
 4486 170e 09       		.uleb128 0x9
 4487 170f DA280000 		.4byte	.LASF589
 4488 1713 0B       		.byte	0xb
ARM GAS  C:\Users\salaz\AppData\Local\Temp\ccj0QfQu.s 			page 114


 4489 1714 C401     		.2byte	0x1c4
 4490 1716 EA160000 		.4byte	0x16ea
 4491 171a 16       		.uleb128 0x16
 4492 171b 10       		.byte	0x10
 4493 171c 0B       		.byte	0xb
 4494 171d D201     		.2byte	0x1d2
 4495 171f 3E170000 		.4byte	0x173e
 4496 1723 17       		.uleb128 0x17
 4497 1724 2B3A0000 		.4byte	.LASF590
 4498 1728 0B       		.byte	0xb
 4499 1729 D501     		.2byte	0x1d5
 4500 172b DE160000 		.4byte	0x16de
 4501 172f 00       		.byte	0
 4502 1730 17       		.uleb128 0x17
 4503 1731 AE000000 		.4byte	.LASF508
 4504 1735 0B       		.byte	0xb
 4505 1736 D801     		.2byte	0x1d8
 4506 1738 99130000 		.4byte	0x1399
 4507 173c 0C       		.byte	0xc
 4508 173d 00       		.byte	0
 4509 173e 09       		.uleb128 0x9
 4510 173f 1C4A0000 		.4byte	.LASF591
 4511 1743 0B       		.byte	0xb
 4512 1744 DA01     		.2byte	0x1da
 4513 1746 1A170000 		.4byte	0x171a
 4514 174a 16       		.uleb128 0x16
 4515 174b 04       		.byte	0x4
 4516 174c 0B       		.byte	0xb
 4517 174d DD01     		.2byte	0x1dd
 4518 174f 7B170000 		.4byte	0x177b
 4519 1753 17       		.uleb128 0x17
 4520 1754 16600000 		.4byte	.LASF587
 4521 1758 0B       		.byte	0xb
 4522 1759 E001     		.2byte	0x1e0
 4523 175b 71160000 		.4byte	0x1671
 4524 175f 00       		.byte	0
 4525 1760 17       		.uleb128 0x17
 4526 1761 E9750000 		.4byte	.LASF592
 4527 1765 0B       		.byte	0xb
 4528 1766 E301     		.2byte	0x1e3
 4529 1768 69150000 		.4byte	0x1569
 4530 176c 02       		.byte	0x2
 4531 176d 17       		.uleb128 0x17
 4532 176e 3A4A0000 		.4byte	.LASF593
 4533 1772 0B       		.byte	0xb
 4534 1773 E601     		.2byte	0x1e6
 4535 1775 65160000 		.4byte	0x1665
 4536 1779 03       		.byte	0x3
 4537 177a 00       		.byte	0
 4538 177b 09       		.uleb128 0x9
 4539 177c 45140000 		.4byte	.LASF594
 4540 1780 0B       		.byte	0xb
 4541 1781 E801     		.2byte	0x1e8
 4542 1783 4A170000 		.4byte	0x174a
 4543 1787 16       		.uleb128 0x16
 4544 1788 06       		.byte	0x6
 4545 1789 0B       		.byte	0xb
ARM GAS  C:\Users\salaz\AppData\Local\Temp\ccj0QfQu.s 			page 115


 4546 178a EB01     		.2byte	0x1eb
 4547 178c AB170000 		.4byte	0x17ab
 4548 1790 17       		.uleb128 0x17
 4549 1791 AE000000 		.4byte	.LASF508
 4550 1795 0B       		.byte	0xb
 4551 1796 EE01     		.2byte	0x1ee
 4552 1798 99130000 		.4byte	0x1399
 4553 179c 00       		.byte	0
 4554 179d 17       		.uleb128 0x17
 4555 179e AA010000 		.4byte	.LASF595
 4556 17a2 0B       		.byte	0xb
 4557 17a3 F101     		.2byte	0x1f1
 4558 17a5 7B170000 		.4byte	0x177b
 4559 17a9 02       		.byte	0x2
 4560 17aa 00       		.byte	0
 4561 17ab 09       		.uleb128 0x9
 4562 17ac 5C190000 		.4byte	.LASF596
 4563 17b0 0B       		.byte	0xb
 4564 17b1 F301     		.2byte	0x1f3
 4565 17b3 87170000 		.4byte	0x1787
 4566 17b7 16       		.uleb128 0x16
 4567 17b8 0C       		.byte	0xc
 4568 17b9 0B       		.byte	0xb
 4569 17ba 0302     		.2byte	0x203
 4570 17bc F5170000 		.4byte	0x17f5
 4571 17c0 17       		.uleb128 0x17
 4572 17c1 CE280000 		.4byte	.LASF597
 4573 17c5 0B       		.byte	0xb
 4574 17c6 0802     		.2byte	0x208
 4575 17c8 AD120000 		.4byte	0x12ad
 4576 17cc 00       		.byte	0
 4577 17cd 17       		.uleb128 0x17
 4578 17ce DD060000 		.4byte	.LASF598
 4579 17d2 0B       		.byte	0xb
 4580 17d3 0D02     		.2byte	0x20d
 4581 17d5 AE000000 		.4byte	0xae
 4582 17d9 04       		.byte	0x4
 4583 17da 17       		.uleb128 0x17
 4584 17db 4B780000 		.4byte	.LASF599
 4585 17df 0B       		.byte	0xb
 4586 17e0 1302     		.2byte	0x213
 4587 17e2 AE000000 		.4byte	0xae
 4588 17e6 06       		.byte	0x6
 4589 17e7 17       		.uleb128 0x17
 4590 17e8 AE000000 		.4byte	.LASF508
 4591 17ec 0B       		.byte	0xb
 4592 17ed 1602     		.2byte	0x216
 4593 17ef 99130000 		.4byte	0x1399
 4594 17f3 08       		.byte	0x8
 4595 17f4 00       		.byte	0
 4596 17f5 09       		.uleb128 0x9
 4597 17f6 CC330000 		.4byte	.LASF600
 4598 17fa 0B       		.byte	0xb
 4599 17fb 1802     		.2byte	0x218
 4600 17fd B7170000 		.4byte	0x17b7
 4601 1801 06       		.uleb128 0x6
 4602 1802 01       		.byte	0x1
ARM GAS  C:\Users\salaz\AppData\Local\Temp\ccj0QfQu.s 			page 116


 4603 1803 53000000 		.4byte	0x53
 4604 1807 0C       		.byte	0xc
 4605 1808 D0       		.byte	0xd0
 4606 1809 2C180000 		.4byte	0x182c
 4607 180d 08       		.uleb128 0x8
 4608 180e 16480000 		.4byte	.LASF601
 4609 1812 00       		.byte	0
 4610 1813 08       		.uleb128 0x8
 4611 1814 D53B0000 		.4byte	.LASF602
 4612 1818 01       		.byte	0x1
 4613 1819 08       		.uleb128 0x8
 4614 181a 49610000 		.4byte	.LASF603
 4615 181e 02       		.byte	0x2
 4616 181f 08       		.uleb128 0x8
 4617 1820 4F500000 		.4byte	.LASF604
 4618 1824 03       		.byte	0x3
 4619 1825 08       		.uleb128 0x8
 4620 1826 7D420000 		.4byte	.LASF605
 4621 182a 04       		.byte	0x4
 4622 182b 00       		.byte	0
 4623 182c 04       		.uleb128 0x4
 4624 182d E8560000 		.4byte	.LASF606
 4625 1831 0C       		.byte	0xc
 4626 1832 E2       		.byte	0xe2
 4627 1833 01180000 		.4byte	0x1801
 4628 1837 06       		.uleb128 0x6
 4629 1838 01       		.byte	0x1
 4630 1839 53000000 		.4byte	0x53
 4631 183d 0C       		.byte	0xc
 4632 183e E6       		.byte	0xe6
 4633 183f AA180000 		.4byte	0x18aa
 4634 1843 08       		.uleb128 0x8
 4635 1844 9C6A0000 		.4byte	.LASF607
 4636 1848 00       		.byte	0
 4637 1849 08       		.uleb128 0x8
 4638 184a 14150000 		.4byte	.LASF608
 4639 184e 01       		.byte	0x1
 4640 184f 08       		.uleb128 0x8
 4641 1850 31130000 		.4byte	.LASF609
 4642 1854 02       		.byte	0x2
 4643 1855 08       		.uleb128 0x8
 4644 1856 991A0000 		.4byte	.LASF610
 4645 185a 03       		.byte	0x3
 4646 185b 08       		.uleb128 0x8
 4647 185c D71E0000 		.4byte	.LASF611
 4648 1860 04       		.byte	0x4
 4649 1861 08       		.uleb128 0x8
 4650 1862 D7040000 		.4byte	.LASF612
 4651 1866 05       		.byte	0x5
 4652 1867 08       		.uleb128 0x8
 4653 1868 5F4D0000 		.4byte	.LASF613
 4654 186c 06       		.byte	0x6
 4655 186d 08       		.uleb128 0x8
 4656 186e 361E0000 		.4byte	.LASF614
 4657 1872 07       		.byte	0x7
 4658 1873 08       		.uleb128 0x8
 4659 1874 131A0000 		.4byte	.LASF615
ARM GAS  C:\Users\salaz\AppData\Local\Temp\ccj0QfQu.s 			page 117


 4660 1878 08       		.byte	0x8
 4661 1879 08       		.uleb128 0x8
 4662 187a 9F720000 		.4byte	.LASF616
 4663 187e 09       		.byte	0x9
 4664 187f 08       		.uleb128 0x8
 4665 1880 98110000 		.4byte	.LASF617
 4666 1884 0A       		.byte	0xa
 4667 1885 08       		.uleb128 0x8
 4668 1886 1A5E0000 		.4byte	.LASF618
 4669 188a 0B       		.byte	0xb
 4670 188b 08       		.uleb128 0x8
 4671 188c 1E550000 		.4byte	.LASF619
 4672 1890 0C       		.byte	0xc
 4673 1891 08       		.uleb128 0x8
 4674 1892 BF430000 		.4byte	.LASF620
 4675 1896 0D       		.byte	0xd
 4676 1897 08       		.uleb128 0x8
 4677 1898 3F740000 		.4byte	.LASF621
 4678 189c 0E       		.byte	0xe
 4679 189d 08       		.uleb128 0x8
 4680 189e FE560000 		.4byte	.LASF622
 4681 18a2 15       		.byte	0x15
 4682 18a3 08       		.uleb128 0x8
 4683 18a4 CB3F0000 		.4byte	.LASF623
 4684 18a8 18       		.byte	0x18
 4685 18a9 00       		.byte	0
 4686 18aa 09       		.uleb128 0x9
 4687 18ab 60140000 		.4byte	.LASF624
 4688 18af 0C       		.byte	0xc
 4689 18b0 2301     		.2byte	0x123
 4690 18b2 37180000 		.4byte	0x1837
 4691 18b6 13       		.uleb128 0x13
 4692 18b7 01       		.byte	0x1
 4693 18b8 53000000 		.4byte	0x53
 4694 18bc 0C       		.byte	0xc
 4695 18bd 4D01     		.2byte	0x14d
 4696 18bf DC180000 		.4byte	0x18dc
 4697 18c3 08       		.uleb128 0x8
 4698 18c4 47660000 		.4byte	.LASF625
 4699 18c8 00       		.byte	0
 4700 18c9 08       		.uleb128 0x8
 4701 18ca B26C0000 		.4byte	.LASF626
 4702 18ce 01       		.byte	0x1
 4703 18cf 08       		.uleb128 0x8
 4704 18d0 F43B0000 		.4byte	.LASF627
 4705 18d4 02       		.byte	0x2
 4706 18d5 08       		.uleb128 0x8
 4707 18d6 BA400000 		.4byte	.LASF628
 4708 18da 03       		.byte	0x3
 4709 18db 00       		.byte	0
 4710 18dc 09       		.uleb128 0x9
 4711 18dd 335B0000 		.4byte	.LASF629
 4712 18e1 0C       		.byte	0xc
 4713 18e2 5A01     		.2byte	0x15a
 4714 18e4 B6180000 		.4byte	0x18b6
 4715 18e8 09       		.uleb128 0x9
 4716 18e9 76150000 		.4byte	.LASF630
ARM GAS  C:\Users\salaz\AppData\Local\Temp\ccj0QfQu.s 			page 118


 4717 18ed 0C       		.byte	0xc
 4718 18ee 6101     		.2byte	0x161
 4719 18f0 A1120000 		.4byte	0x12a1
 4720 18f4 16       		.uleb128 0x16
 4721 18f5 06       		.byte	0x6
 4722 18f6 0C       		.byte	0xc
 4723 18f7 E501     		.2byte	0x1e5
 4724 18f9 4C190000 		.4byte	0x194c
 4725 18fd 17       		.uleb128 0x17
 4726 18fe F4180000 		.4byte	.LASF631
 4727 1902 0C       		.byte	0xc
 4728 1903 EE01     		.2byte	0x1ee
 4729 1905 A3000000 		.4byte	0xa3
 4730 1909 00       		.byte	0
 4731 190a 17       		.uleb128 0x17
 4732 190b 93380000 		.4byte	.LASF632
 4733 190f 0C       		.byte	0xc
 4734 1910 F401     		.2byte	0x1f4
 4735 1912 A3000000 		.4byte	0xa3
 4736 1916 01       		.byte	0x1
 4737 1917 17       		.uleb128 0x17
 4738 1918 1A670000 		.4byte	.LASF633
 4739 191c 0C       		.byte	0xc
 4740 191d FB01     		.2byte	0x1fb
 4741 191f A3000000 		.4byte	0xa3
 4742 1923 02       		.byte	0x2
 4743 1924 17       		.uleb128 0x17
 4744 1925 8C410000 		.4byte	.LASF634
 4745 1929 0C       		.byte	0xc
 4746 192a FF01     		.2byte	0x1ff
 4747 192c AA180000 		.4byte	0x18aa
 4748 1930 03       		.byte	0x3
 4749 1931 17       		.uleb128 0x17
 4750 1932 0F3F0000 		.4byte	.LASF635
 4751 1936 0C       		.byte	0xc
 4752 1937 0902     		.2byte	0x209
 4753 1939 A3000000 		.4byte	0xa3
 4754 193d 04       		.byte	0x4
 4755 193e 17       		.uleb128 0x17
 4756 193f 03340000 		.4byte	.LASF497
 4757 1943 0C       		.byte	0xc
 4758 1944 0C02     		.2byte	0x20c
 4759 1946 A3000000 		.4byte	0xa3
 4760 194a 05       		.byte	0x5
 4761 194b 00       		.byte	0
 4762 194c 09       		.uleb128 0x9
 4763 194d 00000000 		.4byte	.LASF636
 4764 1951 0C       		.byte	0xc
 4765 1952 0E02     		.2byte	0x20e
 4766 1954 F4180000 		.4byte	0x18f4
 4767 1958 16       		.uleb128 0x16
 4768 1959 1C       		.byte	0x1c
 4769 195a 0C       		.byte	0xc
 4770 195b 1003     		.2byte	0x310
 4771 195d F1190000 		.4byte	0x19f1
 4772 1961 17       		.uleb128 0x17
 4773 1962 0B490000 		.4byte	.LASF637
ARM GAS  C:\Users\salaz\AppData\Local\Temp\ccj0QfQu.s 			page 119


 4774 1966 0C       		.byte	0xc
 4775 1967 1603     		.2byte	0x316
 4776 1969 AE000000 		.4byte	0xae
 4777 196d 00       		.byte	0
 4778 196e 17       		.uleb128 0x17
 4779 196f E4290000 		.4byte	.LASF638
 4780 1973 0C       		.byte	0xc
 4781 1974 1B03     		.2byte	0x31b
 4782 1976 AE000000 		.4byte	0xae
 4783 197a 02       		.byte	0x2
 4784 197b 17       		.uleb128 0x17
 4785 197c 08410000 		.4byte	.LASF639
 4786 1980 0C       		.byte	0xc
 4787 1981 2103     		.2byte	0x321
 4788 1983 AE000000 		.4byte	0xae
 4789 1987 04       		.byte	0x4
 4790 1988 17       		.uleb128 0x17
 4791 1989 9F060000 		.4byte	.LASF640
 4792 198d 0C       		.byte	0xc
 4793 198e 2403     		.2byte	0x324
 4794 1990 AD120000 		.4byte	0x12ad
 4795 1994 08       		.byte	0x8
 4796 1995 17       		.uleb128 0x17
 4797 1996 376F0000 		.4byte	.LASF641
 4798 199a 0C       		.byte	0xc
 4799 199b 2703     		.2byte	0x327
 4800 199d DC180000 		.4byte	0x18dc
 4801 19a1 0C       		.byte	0xc
 4802 19a2 17       		.uleb128 0x17
 4803 19a3 223B0000 		.4byte	.LASF642
 4804 19a7 0C       		.byte	0xc
 4805 19a8 3103     		.2byte	0x331
 4806 19aa AD120000 		.4byte	0x12ad
 4807 19ae 10       		.byte	0x10
 4808 19af 17       		.uleb128 0x17
 4809 19b0 66320000 		.4byte	.LASF643
 4810 19b4 0C       		.byte	0xc
 4811 19b5 3A03     		.2byte	0x33a
 4812 19b7 AD120000 		.4byte	0x12ad
 4813 19bb 14       		.byte	0x14
 4814 19bc 17       		.uleb128 0x17
 4815 19bd 404B0000 		.4byte	.LASF644
 4816 19c1 0C       		.byte	0xc
 4817 19c2 3E03     		.2byte	0x33e
 4818 19c4 A3000000 		.4byte	0xa3
 4819 19c8 18       		.byte	0x18
 4820 19c9 17       		.uleb128 0x17
 4821 19ca 62150000 		.4byte	.LASF645
 4822 19ce 0C       		.byte	0xc
 4823 19cf 4A03     		.2byte	0x34a
 4824 19d1 A3000000 		.4byte	0xa3
 4825 19d5 19       		.byte	0x19
 4826 19d6 17       		.uleb128 0x17
 4827 19d7 6F230000 		.4byte	.LASF646
 4828 19db 0C       		.byte	0xc
 4829 19dc 5003     		.2byte	0x350
 4830 19de A3000000 		.4byte	0xa3
ARM GAS  C:\Users\salaz\AppData\Local\Temp\ccj0QfQu.s 			page 120


 4831 19e2 1A       		.byte	0x1a
 4832 19e3 17       		.uleb128 0x17
 4833 19e4 03340000 		.4byte	.LASF497
 4834 19e8 0C       		.byte	0xc
 4835 19e9 5303     		.2byte	0x353
 4836 19eb A3000000 		.4byte	0xa3
 4837 19ef 1B       		.byte	0x1b
 4838 19f0 00       		.byte	0
 4839 19f1 09       		.uleb128 0x9
 4840 19f2 877A0000 		.4byte	.LASF647
 4841 19f6 0C       		.byte	0xc
 4842 19f7 5503     		.2byte	0x355
 4843 19f9 58190000 		.4byte	0x1958
 4844 19fd 12       		.uleb128 0x12
 4845 19fe 0C       		.byte	0xc
 4846 19ff 0D       		.byte	0xd
 4847 1a00 6D       		.byte	0x6d
 4848 1a01 661A0000 		.4byte	0x1a66
 4849 1a05 0D       		.uleb128 0xd
 4850 1a06 ED460000 		.4byte	.LASF648
 4851 1a0a 0D       		.byte	0xd
 4852 1a0b 74       		.byte	0x74
 4853 1a0c A3000000 		.4byte	0xa3
 4854 1a10 00       		.byte	0
 4855 1a11 0D       		.uleb128 0xd
 4856 1a12 1B660000 		.4byte	.LASF649
 4857 1a16 0D       		.byte	0xd
 4858 1a17 7A       		.byte	0x7a
 4859 1a18 A3000000 		.4byte	0xa3
 4860 1a1c 01       		.byte	0x1
 4861 1a1d 0D       		.uleb128 0xd
 4862 1a1e 06710000 		.4byte	.LASF650
 4863 1a22 0D       		.byte	0xd
 4864 1a23 81       		.byte	0x81
 4865 1a24 AE000000 		.4byte	0xae
 4866 1a28 02       		.byte	0x2
 4867 1a29 0D       		.uleb128 0xd
 4868 1a2a 690D0000 		.4byte	.LASF651
 4869 1a2e 0D       		.byte	0xd
 4870 1a2f 88       		.byte	0x88
 4871 1a30 AE000000 		.4byte	0xae
 4872 1a34 04       		.byte	0x4
 4873 1a35 0D       		.uleb128 0xd
 4874 1a36 71380000 		.4byte	.LASF652
 4875 1a3a 0D       		.byte	0xd
 4876 1a3b 90       		.byte	0x90
 4877 1a3c A3000000 		.4byte	0xa3
 4878 1a40 06       		.byte	0x6
 4879 1a41 0D       		.uleb128 0xd
 4880 1a42 3F290000 		.4byte	.LASF653
 4881 1a46 0D       		.byte	0xd
 4882 1a47 98       		.byte	0x98
 4883 1a48 A3000000 		.4byte	0xa3
 4884 1a4c 07       		.byte	0x7
 4885 1a4d 0D       		.uleb128 0xd
 4886 1a4e FF0C0000 		.4byte	.LASF654
 4887 1a52 0D       		.byte	0xd
ARM GAS  C:\Users\salaz\AppData\Local\Temp\ccj0QfQu.s 			page 121


 4888 1a53 9C       		.byte	0x9c
 4889 1a54 AE000000 		.4byte	0xae
 4890 1a58 08       		.byte	0x8
 4891 1a59 0D       		.uleb128 0xd
 4892 1a5a 7B2B0000 		.4byte	.LASF655
 4893 1a5e 0D       		.byte	0xd
 4894 1a5f A6       		.byte	0xa6
 4895 1a60 A3000000 		.4byte	0xa3
 4896 1a64 0A       		.byte	0xa
 4897 1a65 00       		.byte	0
 4898 1a66 04       		.uleb128 0x4
 4899 1a67 70060000 		.4byte	.LASF656
 4900 1a6b 0D       		.byte	0xd
 4901 1a6c A8       		.byte	0xa8
 4902 1a6d FD190000 		.4byte	0x19fd
 4903 1a71 06       		.uleb128 0x6
 4904 1a72 01       		.byte	0x1
 4905 1a73 53000000 		.4byte	0x53
 4906 1a77 0E       		.byte	0xe
 4907 1a78 39       		.byte	0x39
 4908 1a79 9C1A0000 		.4byte	0x1a9c
 4909 1a7d 08       		.uleb128 0x8
 4910 1a7e CD180000 		.4byte	.LASF657
 4911 1a82 00       		.byte	0
 4912 1a83 08       		.uleb128 0x8
 4913 1a84 C6050000 		.4byte	.LASF658
 4914 1a88 01       		.byte	0x1
 4915 1a89 08       		.uleb128 0x8
 4916 1a8a 72070000 		.4byte	.LASF659
 4917 1a8e 02       		.byte	0x2
 4918 1a8f 08       		.uleb128 0x8
 4919 1a90 F9160000 		.4byte	.LASF660
 4920 1a94 03       		.byte	0x3
 4921 1a95 08       		.uleb128 0x8
 4922 1a96 4F330000 		.4byte	.LASF661
 4923 1a9a 04       		.byte	0x4
 4924 1a9b 00       		.byte	0
 4925 1a9c 04       		.uleb128 0x4
 4926 1a9d FF220000 		.4byte	.LASF662
 4927 1aa1 0E       		.byte	0xe
 4928 1aa2 49       		.byte	0x49
 4929 1aa3 711A0000 		.4byte	0x1a71
 4930 1aa7 12       		.uleb128 0x12
 4931 1aa8 10       		.byte	0x10
 4932 1aa9 0E       		.byte	0xe
 4933 1aaa 51       		.byte	0x51
 4934 1aab 101B0000 		.4byte	0x1b10
 4935 1aaf 0D       		.uleb128 0xd
 4936 1ab0 B21C0000 		.4byte	.LASF663
 4937 1ab4 0E       		.byte	0xe
 4938 1ab5 59       		.byte	0x59
 4939 1ab6 AE000000 		.4byte	0xae
 4940 1aba 00       		.byte	0
 4941 1abb 0D       		.uleb128 0xd
 4942 1abc 6D0E0000 		.4byte	.LASF664
 4943 1ac0 0E       		.byte	0xe
 4944 1ac1 61       		.byte	0x61
ARM GAS  C:\Users\salaz\AppData\Local\Temp\ccj0QfQu.s 			page 122


 4945 1ac2 AE000000 		.4byte	0xae
 4946 1ac6 02       		.byte	0x2
 4947 1ac7 0D       		.uleb128 0xd
 4948 1ac8 F3050000 		.4byte	.LASF665
 4949 1acc 0E       		.byte	0xe
 4950 1acd 6A       		.byte	0x6a
 4951 1ace 9C1A0000 		.4byte	0x1a9c
 4952 1ad2 04       		.byte	0x4
 4953 1ad3 0D       		.uleb128 0xd
 4954 1ad4 71380000 		.4byte	.LASF652
 4955 1ad8 0E       		.byte	0xe
 4956 1ad9 72       		.byte	0x72
 4957 1ada A3000000 		.4byte	0xa3
 4958 1ade 05       		.byte	0x5
 4959 1adf 0D       		.uleb128 0xd
 4960 1ae0 2E0C0000 		.4byte	.LASF666
 4961 1ae4 0E       		.byte	0xe
 4962 1ae5 79       		.byte	0x79
 4963 1ae6 A3000000 		.4byte	0xa3
 4964 1aea 06       		.byte	0x6
 4965 1aeb 0D       		.uleb128 0xd
 4966 1aec EE540000 		.4byte	.LASF667
 4967 1af0 0E       		.byte	0xe
 4968 1af1 7F       		.byte	0x7f
 4969 1af2 91120000 		.4byte	0x1291
 4970 1af6 07       		.byte	0x7
 4971 1af7 0D       		.uleb128 0xd
 4972 1af8 530B0000 		.4byte	.LASF668
 4973 1afc 0E       		.byte	0xe
 4974 1afd 87       		.byte	0x87
 4975 1afe A3000000 		.4byte	0xa3
 4976 1b02 0D       		.byte	0xd
 4977 1b03 0D       		.uleb128 0xd
 4978 1b04 39610000 		.4byte	.LASF669
 4979 1b08 0E       		.byte	0xe
 4980 1b09 93       		.byte	0x93
 4981 1b0a A3000000 		.4byte	0xa3
 4982 1b0e 0E       		.byte	0xe
 4983 1b0f 00       		.byte	0
 4984 1b10 04       		.uleb128 0x4
 4985 1b11 B9000000 		.4byte	.LASF670
 4986 1b15 0E       		.byte	0xe
 4987 1b16 95       		.byte	0x95
 4988 1b17 A71A0000 		.4byte	0x1aa7
 4989 1b1b 12       		.uleb128 0x12
 4990 1b1c 20       		.byte	0x20
 4991 1b1d 0E       		.byte	0xe
 4992 1b1e 98       		.byte	0x98
 4993 1b1f 3C1B0000 		.4byte	0x1b3c
 4994 1b23 0D       		.uleb128 0xd
 4995 1b24 AC540000 		.4byte	.LASF671
 4996 1b28 0E       		.byte	0xe
 4997 1b29 9B       		.byte	0x9b
 4998 1b2a 3C1B0000 		.4byte	0x1b3c
 4999 1b2e 00       		.byte	0
 5000 1b2f 0D       		.uleb128 0xd
 5001 1b30 466F0000 		.4byte	.LASF672
ARM GAS  C:\Users\salaz\AppData\Local\Temp\ccj0QfQu.s 			page 123


 5002 1b34 0E       		.byte	0xe
 5003 1b35 9E       		.byte	0x9e
 5004 1b36 A3000000 		.4byte	0xa3
 5005 1b3a 1F       		.byte	0x1f
 5006 1b3b 00       		.byte	0
 5007 1b3c 0F       		.uleb128 0xf
 5008 1b3d A3000000 		.4byte	0xa3
 5009 1b41 4C1B0000 		.4byte	0x1b4c
 5010 1b45 10       		.uleb128 0x10
 5011 1b46 93000000 		.4byte	0x93
 5012 1b4a 1E       		.byte	0x1e
 5013 1b4b 00       		.byte	0
 5014 1b4c 04       		.uleb128 0x4
 5015 1b4d 67530000 		.4byte	.LASF673
 5016 1b51 0E       		.byte	0xe
 5017 1b52 A0       		.byte	0xa0
 5018 1b53 1B1B0000 		.4byte	0x1b1b
 5019 1b57 12       		.uleb128 0x12
 5020 1b58 20       		.byte	0x20
 5021 1b59 0E       		.byte	0xe
 5022 1b5a A3       		.byte	0xa3
 5023 1b5b 781B0000 		.4byte	0x1b78
 5024 1b5f 0D       		.uleb128 0xd
 5025 1b60 55240000 		.4byte	.LASF674
 5026 1b64 0E       		.byte	0xe
 5027 1b65 A7       		.byte	0xa7
 5028 1b66 3C1B0000 		.4byte	0x1b3c
 5029 1b6a 00       		.byte	0
 5030 1b6b 0D       		.uleb128 0xd
 5031 1b6c AE510000 		.4byte	.LASF675
 5032 1b70 0E       		.byte	0xe
 5033 1b71 AA       		.byte	0xaa
 5034 1b72 A3000000 		.4byte	0xa3
 5035 1b76 1F       		.byte	0x1f
 5036 1b77 00       		.byte	0
 5037 1b78 04       		.uleb128 0x4
 5038 1b79 3F450000 		.4byte	.LASF676
 5039 1b7d 0E       		.byte	0xe
 5040 1b7e AC       		.byte	0xac
 5041 1b7f 571B0000 		.4byte	0x1b57
 5042 1b83 12       		.uleb128 0x12
 5043 1b84 14       		.byte	0x14
 5044 1b85 0E       		.byte	0xe
 5045 1b86 AF       		.byte	0xaf
 5046 1b87 C81B0000 		.4byte	0x1bc8
 5047 1b8b 0D       		.uleb128 0xd
 5048 1b8c 1C180000 		.4byte	.LASF677
 5049 1b90 0E       		.byte	0xe
 5050 1b91 B7       		.byte	0xb7
 5051 1b92 A3000000 		.4byte	0xa3
 5052 1b96 00       		.byte	0
 5053 1b97 0D       		.uleb128 0xd
 5054 1b98 E8100000 		.4byte	.LASF678
 5055 1b9c 0E       		.byte	0xe
 5056 1b9d BC       		.byte	0xbc
 5057 1b9e C81B0000 		.4byte	0x1bc8
 5058 1ba2 04       		.byte	0x4
ARM GAS  C:\Users\salaz\AppData\Local\Temp\ccj0QfQu.s 			page 124


 5059 1ba3 0D       		.uleb128 0xd
 5060 1ba4 AC540000 		.4byte	.LASF671
 5061 1ba8 0E       		.byte	0xe
 5062 1ba9 BE       		.byte	0xbe
 5063 1baa CE1B0000 		.4byte	0x1bce
 5064 1bae 08       		.byte	0x8
 5065 1baf 0D       		.uleb128 0xd
 5066 1bb0 55240000 		.4byte	.LASF674
 5067 1bb4 0E       		.byte	0xe
 5068 1bb5 C0       		.byte	0xc0
 5069 1bb6 D41B0000 		.4byte	0x1bd4
 5070 1bba 0C       		.byte	0xc
 5071 1bbb 0D       		.uleb128 0xd
 5072 1bbc 485A0000 		.4byte	.LASF679
 5073 1bc0 0E       		.byte	0xe
 5074 1bc1 CA       		.byte	0xca
 5075 1bc2 AE000000 		.4byte	0xae
 5076 1bc6 10       		.byte	0x10
 5077 1bc7 00       		.byte	0
 5078 1bc8 18       		.uleb128 0x18
 5079 1bc9 04       		.byte	0x4
 5080 1bca 101B0000 		.4byte	0x1b10
 5081 1bce 18       		.uleb128 0x18
 5082 1bcf 04       		.byte	0x4
 5083 1bd0 4C1B0000 		.4byte	0x1b4c
 5084 1bd4 18       		.uleb128 0x18
 5085 1bd5 04       		.byte	0x4
 5086 1bd6 781B0000 		.4byte	0x1b78
 5087 1bda 04       		.uleb128 0x4
 5088 1bdb 48520000 		.4byte	.LASF680
 5089 1bdf 0E       		.byte	0xe
 5090 1be0 CC       		.byte	0xcc
 5091 1be1 831B0000 		.4byte	0x1b83
 5092 1be5 06       		.uleb128 0x6
 5093 1be6 01       		.byte	0x1
 5094 1be7 53000000 		.4byte	0x53
 5095 1beb 02       		.byte	0x2
 5096 1bec 69       		.byte	0x69
 5097 1bed 041C0000 		.4byte	0x1c04
 5098 1bf1 08       		.uleb128 0x8
 5099 1bf2 E4730000 		.4byte	.LASF681
 5100 1bf6 00       		.byte	0
 5101 1bf7 08       		.uleb128 0x8
 5102 1bf8 2F3F0000 		.4byte	.LASF682
 5103 1bfc 01       		.byte	0x1
 5104 1bfd 08       		.uleb128 0x8
 5105 1bfe 7A030000 		.4byte	.LASF683
 5106 1c02 02       		.byte	0x2
 5107 1c03 00       		.byte	0
 5108 1c04 04       		.uleb128 0x4
 5109 1c05 B6320000 		.4byte	.LASF684
 5110 1c09 02       		.byte	0x2
 5111 1c0a 70       		.byte	0x70
 5112 1c0b E51B0000 		.4byte	0x1be5
 5113 1c0f 06       		.uleb128 0x6
 5114 1c10 01       		.byte	0x1
 5115 1c11 53000000 		.4byte	0x53
ARM GAS  C:\Users\salaz\AppData\Local\Temp\ccj0QfQu.s 			page 125


 5116 1c15 02       		.byte	0x2
 5117 1c16 7E       		.byte	0x7e
 5118 1c17 341C0000 		.4byte	0x1c34
 5119 1c1b 08       		.uleb128 0x8
 5120 1c1c 8F300000 		.4byte	.LASF685
 5121 1c20 00       		.byte	0
 5122 1c21 08       		.uleb128 0x8
 5123 1c22 045D0000 		.4byte	.LASF686
 5124 1c26 01       		.byte	0x1
 5125 1c27 08       		.uleb128 0x8
 5126 1c28 72270000 		.4byte	.LASF687
 5127 1c2c 02       		.byte	0x2
 5128 1c2d 08       		.uleb128 0x8
 5129 1c2e 8B690000 		.4byte	.LASF688
 5130 1c32 03       		.byte	0x3
 5131 1c33 00       		.byte	0
 5132 1c34 04       		.uleb128 0x4
 5133 1c35 64170000 		.4byte	.LASF689
 5134 1c39 02       		.byte	0x2
 5135 1c3a 83       		.byte	0x83
 5136 1c3b 0F1C0000 		.4byte	0x1c0f
 5137 1c3f 06       		.uleb128 0x6
 5138 1c40 01       		.byte	0x1
 5139 1c41 53000000 		.4byte	0x53
 5140 1c45 02       		.byte	0x2
 5141 1c46 87       		.byte	0x87
 5142 1c47 7C1C0000 		.4byte	0x1c7c
 5143 1c4b 08       		.uleb128 0x8
 5144 1c4c 7D740000 		.4byte	.LASF690
 5145 1c50 00       		.byte	0
 5146 1c51 08       		.uleb128 0x8
 5147 1c52 BA2A0000 		.4byte	.LASF691
 5148 1c56 01       		.byte	0x1
 5149 1c57 08       		.uleb128 0x8
 5150 1c58 425D0000 		.4byte	.LASF692
 5151 1c5c 02       		.byte	0x2
 5152 1c5d 08       		.uleb128 0x8
 5153 1c5e 435E0000 		.4byte	.LASF693
 5154 1c62 03       		.byte	0x3
 5155 1c63 08       		.uleb128 0x8
 5156 1c64 04100000 		.4byte	.LASF694
 5157 1c68 04       		.byte	0x4
 5158 1c69 08       		.uleb128 0x8
 5159 1c6a 1F580000 		.4byte	.LASF695
 5160 1c6e 05       		.byte	0x5
 5161 1c6f 08       		.uleb128 0x8
 5162 1c70 77600000 		.4byte	.LASF696
 5163 1c74 06       		.byte	0x6
 5164 1c75 08       		.uleb128 0x8
 5165 1c76 532C0000 		.4byte	.LASF697
 5166 1c7a 07       		.byte	0x7
 5167 1c7b 00       		.byte	0
 5168 1c7c 04       		.uleb128 0x4
 5169 1c7d 9C740000 		.4byte	.LASF698
 5170 1c81 02       		.byte	0x2
 5171 1c82 90       		.byte	0x90
 5172 1c83 3F1C0000 		.4byte	0x1c3f
ARM GAS  C:\Users\salaz\AppData\Local\Temp\ccj0QfQu.s 			page 126


 5173 1c87 12       		.uleb128 0x12
 5174 1c88 0C       		.byte	0xc
 5175 1c89 02       		.byte	0x2
 5176 1c8a 93       		.byte	0x93
 5177 1c8b D81C0000 		.4byte	0x1cd8
 5178 1c8f 0D       		.uleb128 0xd
 5179 1c90 A95B0000 		.4byte	.LASF699
 5180 1c94 02       		.byte	0x2
 5181 1c95 96       		.byte	0x96
 5182 1c96 71160000 		.4byte	0x1671
 5183 1c9a 00       		.byte	0
 5184 1c9b 0D       		.uleb128 0xd
 5185 1c9c E95A0000 		.4byte	.LASF700
 5186 1ca0 02       		.byte	0x2
 5187 1ca1 99       		.byte	0x99
 5188 1ca2 71160000 		.4byte	0x1671
 5189 1ca6 02       		.byte	0x2
 5190 1ca7 0D       		.uleb128 0xd
 5191 1ca8 74760000 		.4byte	.LASF701
 5192 1cac 02       		.byte	0x2
 5193 1cad 9C       		.byte	0x9c
 5194 1cae 71160000 		.4byte	0x1671
 5195 1cb2 04       		.byte	0x4
 5196 1cb3 0D       		.uleb128 0xd
 5197 1cb4 CD500000 		.4byte	.LASF702
 5198 1cb8 02       		.byte	0x2
 5199 1cb9 9F       		.byte	0x9f
 5200 1cba 71160000 		.4byte	0x1671
 5201 1cbe 06       		.byte	0x6
 5202 1cbf 0D       		.uleb128 0xd
 5203 1cc0 832D0000 		.4byte	.LASF703
 5204 1cc4 02       		.byte	0x2
 5205 1cc5 A2       		.byte	0xa2
 5206 1cc6 71160000 		.4byte	0x1671
 5207 1cca 08       		.byte	0x8
 5208 1ccb 0D       		.uleb128 0xd
 5209 1ccc FD180000 		.4byte	.LASF704
 5210 1cd0 02       		.byte	0x2
 5211 1cd1 A5       		.byte	0xa5
 5212 1cd2 71160000 		.4byte	0x1671
 5213 1cd6 0A       		.byte	0xa
 5214 1cd7 00       		.byte	0
 5215 1cd8 04       		.uleb128 0x4
 5216 1cd9 43340000 		.4byte	.LASF705
 5217 1cdd 02       		.byte	0x2
 5218 1cde A6       		.byte	0xa6
 5219 1cdf 871C0000 		.4byte	0x1c87
 5220 1ce3 16       		.uleb128 0x16
 5221 1ce4 0E       		.byte	0xe
 5222 1ce5 02       		.byte	0x2
 5223 1ce6 2B01     		.2byte	0x12b
 5224 1ce8 481D0000 		.4byte	0x1d48
 5225 1cec 17       		.uleb128 0x17
 5226 1ced 8C060000 		.4byte	.LASF706
 5227 1cf1 02       		.byte	0x2
 5228 1cf2 2E01     		.2byte	0x12e
 5229 1cf4 AE000000 		.4byte	0xae
ARM GAS  C:\Users\salaz\AppData\Local\Temp\ccj0QfQu.s 			page 127


 5230 1cf8 00       		.byte	0
 5231 1cf9 17       		.uleb128 0x17
 5232 1cfa 98780000 		.4byte	.LASF707
 5233 1cfe 02       		.byte	0x2
 5234 1cff 3101     		.2byte	0x131
 5235 1d01 AE000000 		.4byte	0xae
 5236 1d05 02       		.byte	0x2
 5237 1d06 17       		.uleb128 0x17
 5238 1d07 0F0F0000 		.4byte	.LASF708
 5239 1d0b 02       		.byte	0x2
 5240 1d0c 3401     		.2byte	0x134
 5241 1d0e AE000000 		.4byte	0xae
 5242 1d12 04       		.byte	0x4
 5243 1d13 17       		.uleb128 0x17
 5244 1d14 3B640000 		.4byte	.LASF709
 5245 1d18 02       		.byte	0x2
 5246 1d19 3701     		.2byte	0x137
 5247 1d1b A3000000 		.4byte	0xa3
 5248 1d1f 06       		.byte	0x6
 5249 1d20 17       		.uleb128 0x17
 5250 1d21 D1590000 		.4byte	.LASF710
 5251 1d25 02       		.byte	0x2
 5252 1d26 3A01     		.2byte	0x13a
 5253 1d28 AE000000 		.4byte	0xae
 5254 1d2c 08       		.byte	0x8
 5255 1d2d 17       		.uleb128 0x17
 5256 1d2e C3520000 		.4byte	.LASF711
 5257 1d32 02       		.byte	0x2
 5258 1d33 3D01     		.2byte	0x13d
 5259 1d35 AE000000 		.4byte	0xae
 5260 1d39 0A       		.byte	0xa
 5261 1d3a 17       		.uleb128 0x17
 5262 1d3b 63480000 		.4byte	.LASF712
 5263 1d3f 02       		.byte	0x2
 5264 1d40 4001     		.2byte	0x140
 5265 1d42 AE000000 		.4byte	0xae
 5266 1d46 0C       		.byte	0xc
 5267 1d47 00       		.byte	0
 5268 1d48 09       		.uleb128 0x9
 5269 1d49 87340000 		.4byte	.LASF713
 5270 1d4d 02       		.byte	0x2
 5271 1d4e 4101     		.2byte	0x141
 5272 1d50 E31C0000 		.4byte	0x1ce3
 5273 1d54 16       		.uleb128 0x16
 5274 1d55 16       		.byte	0x16
 5275 1d56 02       		.byte	0x2
 5276 1d57 4401     		.2byte	0x144
 5277 1d59 ED1D0000 		.4byte	0x1ded
 5278 1d5d 17       		.uleb128 0x17
 5279 1d5e AF4C0000 		.4byte	.LASF714
 5280 1d62 02       		.byte	0x2
 5281 1d63 4701     		.2byte	0x147
 5282 1d65 AE000000 		.4byte	0xae
 5283 1d69 00       		.byte	0
 5284 1d6a 17       		.uleb128 0x17
 5285 1d6b 2F4C0000 		.4byte	.LASF715
 5286 1d6f 02       		.byte	0x2
ARM GAS  C:\Users\salaz\AppData\Local\Temp\ccj0QfQu.s 			page 128


 5287 1d70 4A01     		.2byte	0x14a
 5288 1d72 AE000000 		.4byte	0xae
 5289 1d76 02       		.byte	0x2
 5290 1d77 17       		.uleb128 0x17
 5291 1d78 46460000 		.4byte	.LASF716
 5292 1d7c 02       		.byte	0x2
 5293 1d7d 4D01     		.2byte	0x14d
 5294 1d7f AE000000 		.4byte	0xae
 5295 1d83 04       		.byte	0x4
 5296 1d84 17       		.uleb128 0x17
 5297 1d85 552D0000 		.4byte	.LASF717
 5298 1d89 02       		.byte	0x2
 5299 1d8a 5001     		.2byte	0x150
 5300 1d8c A3000000 		.4byte	0xa3
 5301 1d90 06       		.byte	0x6
 5302 1d91 17       		.uleb128 0x17
 5303 1d92 30330000 		.4byte	.LASF718
 5304 1d96 02       		.byte	0x2
 5305 1d97 5301     		.2byte	0x153
 5306 1d99 AE000000 		.4byte	0xae
 5307 1d9d 08       		.byte	0x8
 5308 1d9e 17       		.uleb128 0x17
 5309 1d9f 54050000 		.4byte	.LASF719
 5310 1da3 02       		.byte	0x2
 5311 1da4 5601     		.2byte	0x156
 5312 1da6 AE000000 		.4byte	0xae
 5313 1daa 0A       		.byte	0xa
 5314 1dab 17       		.uleb128 0x17
 5315 1dac 4E5A0000 		.4byte	.LASF720
 5316 1db0 02       		.byte	0x2
 5317 1db1 5901     		.2byte	0x159
 5318 1db3 AE000000 		.4byte	0xae
 5319 1db7 0C       		.byte	0xc
 5320 1db8 17       		.uleb128 0x17
 5321 1db9 B76A0000 		.4byte	.LASF721
 5322 1dbd 02       		.byte	0x2
 5323 1dbe 5C01     		.2byte	0x15c
 5324 1dc0 AE000000 		.4byte	0xae
 5325 1dc4 0E       		.byte	0xe
 5326 1dc5 17       		.uleb128 0x17
 5327 1dc6 795C0000 		.4byte	.LASF722
 5328 1dca 02       		.byte	0x2
 5329 1dcb 5F01     		.2byte	0x15f
 5330 1dcd AE000000 		.4byte	0xae
 5331 1dd1 10       		.byte	0x10
 5332 1dd2 17       		.uleb128 0x17
 5333 1dd3 964D0000 		.4byte	.LASF723
 5334 1dd7 02       		.byte	0x2
 5335 1dd8 6301     		.2byte	0x163
 5336 1dda AE000000 		.4byte	0xae
 5337 1dde 12       		.byte	0x12
 5338 1ddf 17       		.uleb128 0x17
 5339 1de0 44600000 		.4byte	.LASF724
 5340 1de4 02       		.byte	0x2
 5341 1de5 6601     		.2byte	0x166
 5342 1de7 AE000000 		.4byte	0xae
 5343 1deb 14       		.byte	0x14
ARM GAS  C:\Users\salaz\AppData\Local\Temp\ccj0QfQu.s 			page 129


 5344 1dec 00       		.byte	0
 5345 1ded 09       		.uleb128 0x9
 5346 1dee AA360000 		.4byte	.LASF725
 5347 1df2 02       		.byte	0x2
 5348 1df3 6701     		.2byte	0x167
 5349 1df5 541D0000 		.4byte	0x1d54
 5350 1df9 04       		.uleb128 0x4
 5351 1dfa C42B0000 		.4byte	.LASF726
 5352 1dfe 0F       		.byte	0xf
 5353 1dff 74       		.byte	0x74
 5354 1e00 3E170000 		.4byte	0x173e
 5355 1e04 12       		.uleb128 0x12
 5356 1e05 06       		.byte	0x6
 5357 1e06 0F       		.byte	0xf
 5358 1e07 7E       		.byte	0x7e
 5359 1e08 311E0000 		.4byte	0x1e31
 5360 1e0c 0D       		.uleb128 0xd
 5361 1e0d AE000000 		.4byte	.LASF508
 5362 1e11 0F       		.byte	0xf
 5363 1e12 81       		.byte	0x81
 5364 1e13 99130000 		.4byte	0x1399
 5365 1e17 00       		.byte	0
 5366 1e18 0D       		.uleb128 0xd
 5367 1e19 16600000 		.4byte	.LASF587
 5368 1e1d 0F       		.byte	0xf
 5369 1e1e 84       		.byte	0x84
 5370 1e1f 71160000 		.4byte	0x1671
 5371 1e23 02       		.byte	0x2
 5372 1e24 0D       		.uleb128 0xd
 5373 1e25 0E140000 		.4byte	.LASF727
 5374 1e29 0F       		.byte	0xf
 5375 1e2a 8A       		.byte	0x8a
 5376 1e2b 65160000 		.4byte	0x1665
 5377 1e2f 04       		.byte	0x4
 5378 1e30 00       		.byte	0
 5379 1e31 04       		.uleb128 0x4
 5380 1e32 AB780000 		.4byte	.LASF728
 5381 1e36 0F       		.byte	0xf
 5382 1e37 8C       		.byte	0x8c
 5383 1e38 041E0000 		.4byte	0x1e04
 5384 1e3c 12       		.uleb128 0x12
 5385 1e3d 08       		.byte	0x8
 5386 1e3e 10       		.byte	0x10
 5387 1e3f D6       		.byte	0xd6
 5388 1e40 5D1E0000 		.4byte	0x1e5d
 5389 1e44 0D       		.uleb128 0xd
 5390 1e45 2E310000 		.4byte	.LASF729
 5391 1e49 10       		.byte	0x10
 5392 1e4a D9       		.byte	0xd9
 5393 1e4b AE000000 		.4byte	0xae
 5394 1e4f 00       		.byte	0
 5395 1e50 0D       		.uleb128 0xd
 5396 1e51 A76D0000 		.4byte	.LASF730
 5397 1e55 10       		.byte	0x10
 5398 1e56 DE       		.byte	0xde
 5399 1e57 9A000000 		.4byte	0x9a
 5400 1e5b 04       		.byte	0x4
ARM GAS  C:\Users\salaz\AppData\Local\Temp\ccj0QfQu.s 			page 130


 5401 1e5c 00       		.byte	0
 5402 1e5d 04       		.uleb128 0x4
 5403 1e5e 5F310000 		.4byte	.LASF731
 5404 1e62 10       		.byte	0x10
 5405 1e63 E0       		.byte	0xe0
 5406 1e64 3C1E0000 		.4byte	0x1e3c
 5407 1e68 12       		.uleb128 0x12
 5408 1e69 08       		.byte	0x8
 5409 1e6a 10       		.byte	0x10
 5410 1e6b E3       		.byte	0xe3
 5411 1e6c 891E0000 		.4byte	0x1e89
 5412 1e70 0D       		.uleb128 0xd
 5413 1e71 BE6F0000 		.4byte	.LASF732
 5414 1e75 10       		.byte	0x10
 5415 1e76 E6       		.byte	0xe6
 5416 1e77 AE000000 		.4byte	0xae
 5417 1e7b 00       		.byte	0
 5418 1e7c 0D       		.uleb128 0xd
 5419 1e7d 982E0000 		.4byte	.LASF733
 5420 1e81 10       		.byte	0x10
 5421 1e82 EB       		.byte	0xeb
 5422 1e83 891E0000 		.4byte	0x1e89
 5423 1e87 04       		.byte	0x4
 5424 1e88 00       		.byte	0
 5425 1e89 18       		.uleb128 0x18
 5426 1e8a 04       		.byte	0x4
 5427 1e8b 5D1E0000 		.4byte	0x1e5d
 5428 1e8f 04       		.uleb128 0x4
 5429 1e90 7E650000 		.4byte	.LASF734
 5430 1e94 10       		.byte	0x10
 5431 1e95 ED       		.byte	0xed
 5432 1e96 681E0000 		.4byte	0x1e68
 5433 1e9a 1C       		.uleb128 0x1c
 5434 1e9b 08       		.byte	0x8
 5435 1e9c 10       		.byte	0x10
 5436 1e9d F0       		.byte	0xf0
 5437 1e9e B91E0000 		.4byte	0x1eb9
 5438 1ea2 1D       		.uleb128 0x1d
 5439 1ea3 4B6B0000 		.4byte	.LASF735
 5440 1ea7 10       		.byte	0x10
 5441 1ea8 F6       		.byte	0xf6
 5442 1ea9 8F1E0000 		.4byte	0x1e8f
 5443 1ead 1D       		.uleb128 0x1d
 5444 1eae F6330000 		.4byte	.LASF736
 5445 1eb2 10       		.byte	0x10
 5446 1eb3 F9       		.byte	0xf9
 5447 1eb4 AE000000 		.4byte	0xae
 5448 1eb8 00       		.byte	0
 5449 1eb9 04       		.uleb128 0x4
 5450 1eba E70A0000 		.4byte	.LASF737
 5451 1ebe 10       		.byte	0x10
 5452 1ebf FB       		.byte	0xfb
 5453 1ec0 9A1E0000 		.4byte	0x1e9a
 5454 1ec4 12       		.uleb128 0x12
 5455 1ec5 14       		.byte	0x14
 5456 1ec6 10       		.byte	0x10
 5457 1ec7 FE       		.byte	0xfe
ARM GAS  C:\Users\salaz\AppData\Local\Temp\ccj0QfQu.s 			page 131


 5458 1ec8 0E1F0000 		.4byte	0x1f0e
 5459 1ecc 17       		.uleb128 0x17
 5460 1ecd 6C3C0000 		.4byte	.LASF738
 5461 1ed1 10       		.byte	0x10
 5462 1ed2 0101     		.2byte	0x101
 5463 1ed4 AE000000 		.4byte	0xae
 5464 1ed8 00       		.byte	0
 5465 1ed9 17       		.uleb128 0x17
 5466 1eda A1280000 		.4byte	.LASF739
 5467 1ede 10       		.byte	0x10
 5468 1edf 0701     		.2byte	0x107
 5469 1ee1 AE000000 		.4byte	0xae
 5470 1ee5 02       		.byte	0x2
 5471 1ee6 17       		.uleb128 0x17
 5472 1ee7 00270000 		.4byte	.LASF740
 5473 1eeb 10       		.byte	0x10
 5474 1eec 1501     		.2byte	0x115
 5475 1eee B9000000 		.4byte	0xb9
 5476 1ef2 04       		.byte	0x4
 5477 1ef3 17       		.uleb128 0x17
 5478 1ef4 726A0000 		.4byte	.LASF741
 5479 1ef8 10       		.byte	0x10
 5480 1ef9 1801     		.2byte	0x118
 5481 1efb AE000000 		.4byte	0xae
 5482 1eff 08       		.byte	0x8
 5483 1f00 17       		.uleb128 0x17
 5484 1f01 FD700000 		.4byte	.LASF742
 5485 1f05 10       		.byte	0x10
 5486 1f06 2101     		.2byte	0x121
 5487 1f08 B91E0000 		.4byte	0x1eb9
 5488 1f0c 0C       		.byte	0xc
 5489 1f0d 00       		.byte	0
 5490 1f0e 09       		.uleb128 0x9
 5491 1f0f 072C0000 		.4byte	.LASF743
 5492 1f13 10       		.byte	0x10
 5493 1f14 2301     		.2byte	0x123
 5494 1f16 C41E0000 		.4byte	0x1ec4
 5495 1f1a 18       		.uleb128 0x18
 5496 1f1b 04       		.byte	0x4
 5497 1f1c 201F0000 		.4byte	0x1f20
 5498 1f20 0B       		.uleb128 0xb
 5499 1f21 0E1F0000 		.4byte	0x1f0e
 5500 1f25 12       		.uleb128 0x12
 5501 1f26 06       		.byte	0x6
 5502 1f27 11       		.byte	0x11
 5503 1f28 87       		.byte	0x87
 5504 1f29 521F0000 		.4byte	0x1f52
 5505 1f2d 0D       		.uleb128 0xd
 5506 1f2e A95B0000 		.4byte	.LASF699
 5507 1f32 11       		.byte	0x11
 5508 1f33 89       		.byte	0x89
 5509 1f34 71160000 		.4byte	0x1671
 5510 1f38 00       		.byte	0
 5511 1f39 0D       		.uleb128 0xd
 5512 1f3a 5D070000 		.4byte	.LASF744
 5513 1f3e 11       		.byte	0x11
 5514 1f3f 8A       		.byte	0x8a
ARM GAS  C:\Users\salaz\AppData\Local\Temp\ccj0QfQu.s 			page 132


 5515 1f40 71160000 		.4byte	0x1671
 5516 1f44 02       		.byte	0x2
 5517 1f45 0D       		.uleb128 0xd
 5518 1f46 B3740000 		.4byte	.LASF745
 5519 1f4a 11       		.byte	0x11
 5520 1f4b 8B       		.byte	0x8b
 5521 1f4c 71160000 		.4byte	0x1671
 5522 1f50 04       		.byte	0x4
 5523 1f51 00       		.byte	0
 5524 1f52 04       		.uleb128 0x4
 5525 1f53 04690000 		.4byte	.LASF746
 5526 1f57 11       		.byte	0x11
 5527 1f58 8C       		.byte	0x8c
 5528 1f59 251F0000 		.4byte	0x1f25
 5529 1f5d 12       		.uleb128 0x12
 5530 1f5e 02       		.byte	0x2
 5531 1f5f 12       		.byte	0x12
 5532 1f60 C1       		.byte	0xc1
 5533 1f61 7E1F0000 		.4byte	0x1f7e
 5534 1f65 0D       		.uleb128 0xd
 5535 1f66 D0780000 		.4byte	.LASF747
 5536 1f6a 12       		.byte	0x12
 5537 1f6b D4       		.byte	0xd4
 5538 1f6c A3000000 		.4byte	0xa3
 5539 1f70 00       		.byte	0
 5540 1f71 0D       		.uleb128 0xd
 5541 1f72 03340000 		.4byte	.LASF497
 5542 1f76 12       		.byte	0x12
 5543 1f77 D7       		.byte	0xd7
 5544 1f78 A3000000 		.4byte	0xa3
 5545 1f7c 01       		.byte	0x1
 5546 1f7d 00       		.byte	0
 5547 1f7e 04       		.uleb128 0x4
 5548 1f7f 222D0000 		.4byte	.LASF748
 5549 1f83 12       		.byte	0x12
 5550 1f84 D9       		.byte	0xd9
 5551 1f85 5D1F0000 		.4byte	0x1f5d
 5552 1f89 04       		.uleb128 0x4
 5553 1f8a 67730000 		.4byte	.LASF749
 5554 1f8e 13       		.byte	0x13
 5555 1f8f 40       		.byte	0x40
 5556 1f90 941F0000 		.4byte	0x1f94
 5557 1f94 18       		.uleb128 0x18
 5558 1f95 04       		.byte	0x4
 5559 1f96 9A1F0000 		.4byte	0x1f9a
 5560 1f9a 1E       		.uleb128 0x1e
 5561 1f9b AA1F0000 		.4byte	0x1faa
 5562 1f9f 1F       		.uleb128 0x1f
 5563 1fa0 B9000000 		.4byte	0xb9
 5564 1fa4 1F       		.uleb128 0x1f
 5565 1fa5 9A000000 		.4byte	0x9a
 5566 1fa9 00       		.byte	0
 5567 1faa 03       		.uleb128 0x3
 5568 1fab 01       		.byte	0x1
 5569 1fac 02       		.byte	0x2
 5570 1fad 402D0000 		.4byte	.LASF750
 5571 1fb1 20       		.uleb128 0x20
ARM GAS  C:\Users\salaz\AppData\Local\Temp\ccj0QfQu.s 			page 133


 5572 1fb2 5311     		.2byte	0x1153
 5573 1fb4 13       		.byte	0x13
 5574 1fb5 D901     		.2byte	0x1d9
 5575 1fb7 F31F0000 		.4byte	0x1ff3
 5576 1fbb 17       		.uleb128 0x17
 5577 1fbc 9E540000 		.4byte	.LASF751
 5578 1fc0 13       		.byte	0x13
 5579 1fc1 DC01     		.2byte	0x1dc
 5580 1fc3 F31F0000 		.4byte	0x1ff3
 5581 1fc7 00       		.byte	0
 5582 1fc8 21       		.uleb128 0x21
 5583 1fc9 466E0000 		.4byte	.LASF752
 5584 1fcd 13       		.byte	0x13
 5585 1fce DF01     		.2byte	0x1df
 5586 1fd0 04200000 		.4byte	0x2004
 5587 1fd4 9610     		.2byte	0x1096
 5588 1fd6 21       		.uleb128 0x21
 5589 1fd7 24200000 		.4byte	.LASF753
 5590 1fdb 13       		.byte	0x13
 5591 1fdc E201     		.2byte	0x1e2
 5592 1fde A3000000 		.4byte	0xa3
 5593 1fe2 5111     		.2byte	0x1151
 5594 1fe4 21       		.uleb128 0x21
 5595 1fe5 83520000 		.4byte	.LASF754
 5596 1fe9 13       		.byte	0x13
 5597 1fea E501     		.2byte	0x1e5
 5598 1fec A3000000 		.4byte	0xa3
 5599 1ff0 5211     		.2byte	0x1152
 5600 1ff2 00       		.byte	0
 5601 1ff3 0F       		.uleb128 0xf
 5602 1ff4 A3000000 		.4byte	0xa3
 5603 1ff8 04200000 		.4byte	0x2004
 5604 1ffc 11       		.uleb128 0x11
 5605 1ffd 93000000 		.4byte	0x93
 5606 2001 9510     		.2byte	0x1095
 5607 2003 00       		.byte	0
 5608 2004 0F       		.uleb128 0xf
 5609 2005 A3000000 		.4byte	0xa3
 5610 2009 1A200000 		.4byte	0x201a
 5611 200d 10       		.uleb128 0x10
 5612 200e 93000000 		.4byte	0x93
 5613 2012 10       		.byte	0x10
 5614 2013 10       		.uleb128 0x10
 5615 2014 93000000 		.4byte	0x93
 5616 2018 0A       		.byte	0xa
 5617 2019 00       		.byte	0
 5618 201a 09       		.uleb128 0x9
 5619 201b 311D0000 		.4byte	.LASF755
 5620 201f 13       		.byte	0x13
 5621 2020 E601     		.2byte	0x1e6
 5622 2022 B11F0000 		.4byte	0x1fb1
 5623 2026 16       		.uleb128 0x16
 5624 2027 08       		.byte	0x8
 5625 2028 13       		.byte	0x13
 5626 2029 E901     		.2byte	0x1e9
 5627 202b 7E200000 		.4byte	0x207e
 5628 202f 17       		.uleb128 0x17
ARM GAS  C:\Users\salaz\AppData\Local\Temp\ccj0QfQu.s 			page 134


 5629 2030 B5380000 		.4byte	.LASF756
 5630 2034 13       		.byte	0x13
 5631 2035 EC01     		.2byte	0x1ec
 5632 2037 E5120000 		.4byte	0x12e5
 5633 203b 00       		.byte	0
 5634 203c 17       		.uleb128 0x17
 5635 203d 116F0000 		.4byte	.LASF757
 5636 2041 13       		.byte	0x13
 5637 2042 EF01     		.2byte	0x1ef
 5638 2044 E5120000 		.4byte	0x12e5
 5639 2048 01       		.byte	0x1
 5640 2049 17       		.uleb128 0x17
 5641 204a 7A170000 		.4byte	.LASF758
 5642 204e 13       		.byte	0x13
 5643 204f F201     		.2byte	0x1f2
 5644 2051 2C180000 		.4byte	0x182c
 5645 2055 02       		.byte	0x2
 5646 2056 17       		.uleb128 0x17
 5647 2057 D3750000 		.4byte	.LASF759
 5648 205b 13       		.byte	0x13
 5649 205c F501     		.2byte	0x1f5
 5650 205e A3000000 		.4byte	0xa3
 5651 2062 03       		.byte	0x3
 5652 2063 17       		.uleb128 0x17
 5653 2064 03580000 		.4byte	.LASF760
 5654 2068 13       		.byte	0x13
 5655 2069 F801     		.2byte	0x1f8
 5656 206b A3000000 		.4byte	0xa3
 5657 206f 04       		.byte	0x4
 5658 2070 17       		.uleb128 0x17
 5659 2071 1D310000 		.4byte	.LASF761
 5660 2075 13       		.byte	0x13
 5661 2076 FB01     		.2byte	0x1fb
 5662 2078 AE000000 		.4byte	0xae
 5663 207c 06       		.byte	0x6
 5664 207d 00       		.byte	0
 5665 207e 09       		.uleb128 0x9
 5666 207f 926F0000 		.4byte	.LASF762
 5667 2083 13       		.byte	0x13
 5668 2084 FC01     		.2byte	0x1fc
 5669 2086 26200000 		.4byte	0x2026
 5670 208a 16       		.uleb128 0x16
 5671 208b 38       		.byte	0x38
 5672 208c 13       		.byte	0x13
 5673 208d 0002     		.2byte	0x200
 5674 208f 4A210000 		.4byte	0x214a
 5675 2093 17       		.uleb128 0x17
 5676 2094 BC290000 		.4byte	.LASF763
 5677 2098 13       		.byte	0x13
 5678 2099 0402     		.2byte	0x204
 5679 209b 4A210000 		.4byte	0x214a
 5680 209f 00       		.byte	0
 5681 20a0 17       		.uleb128 0x17
 5682 20a1 48670000 		.4byte	.LASF764
 5683 20a5 13       		.byte	0x13
 5684 20a6 0702     		.2byte	0x207
 5685 20a8 50210000 		.4byte	0x2150
ARM GAS  C:\Users\salaz\AppData\Local\Temp\ccj0QfQu.s 			page 135


 5686 20ac 04       		.byte	0x4
 5687 20ad 17       		.uleb128 0x17
 5688 20ae F01D0000 		.4byte	.LASF765
 5689 20b2 13       		.byte	0x13
 5690 20b3 0A02     		.2byte	0x20a
 5691 20b5 56210000 		.4byte	0x2156
 5692 20b9 08       		.byte	0x8
 5693 20ba 17       		.uleb128 0x17
 5694 20bb 9B350000 		.4byte	.LASF766
 5695 20bf 13       		.byte	0x13
 5696 20c0 0D02     		.2byte	0x20d
 5697 20c2 5C210000 		.4byte	0x215c
 5698 20c6 0C       		.byte	0xc
 5699 20c7 17       		.uleb128 0x17
 5700 20c8 2E400000 		.4byte	.LASF767
 5701 20cc 13       		.byte	0x13
 5702 20cd 1002     		.2byte	0x210
 5703 20cf 62210000 		.4byte	0x2162
 5704 20d3 10       		.byte	0x10
 5705 20d4 17       		.uleb128 0x17
 5706 20d5 D6520000 		.4byte	.LASF768
 5707 20d9 13       		.byte	0x13
 5708 20da 1302     		.2byte	0x213
 5709 20dc 6D210000 		.4byte	0x216d
 5710 20e0 14       		.byte	0x14
 5711 20e1 17       		.uleb128 0x17
 5712 20e2 21060000 		.4byte	.LASF769
 5713 20e6 13       		.byte	0x13
 5714 20e7 1602     		.2byte	0x216
 5715 20e9 78210000 		.4byte	0x2178
 5716 20ed 18       		.byte	0x18
 5717 20ee 17       		.uleb128 0x17
 5718 20ef 213F0000 		.4byte	.LASF770
 5719 20f3 13       		.byte	0x13
 5720 20f4 1902     		.2byte	0x219
 5721 20f6 AD120000 		.4byte	0x12ad
 5722 20fa 1C       		.byte	0x1c
 5723 20fb 17       		.uleb128 0x17
 5724 20fc 67690000 		.4byte	.LASF771
 5725 2100 13       		.byte	0x13
 5726 2101 1C02     		.2byte	0x21c
 5727 2103 1A1F0000 		.4byte	0x1f1a
 5728 2107 20       		.byte	0x20
 5729 2108 17       		.uleb128 0x17
 5730 2109 BB2B0000 		.4byte	.LASF772
 5731 210d 13       		.byte	0x13
 5732 210e 1F02     		.2byte	0x21f
 5733 2110 83210000 		.4byte	0x2183
 5734 2114 24       		.byte	0x24
 5735 2115 17       		.uleb128 0x17
 5736 2116 CD140000 		.4byte	.LASF773
 5737 211a 13       		.byte	0x13
 5738 211b 2202     		.2byte	0x222
 5739 211d 89210000 		.4byte	0x2189
 5740 2121 28       		.byte	0x28
 5741 2122 17       		.uleb128 0x17
 5742 2123 611D0000 		.4byte	.LASF774
ARM GAS  C:\Users\salaz\AppData\Local\Temp\ccj0QfQu.s 			page 136


 5743 2127 13       		.byte	0x13
 5744 2128 2602     		.2byte	0x226
 5745 212a 891F0000 		.4byte	0x1f89
 5746 212e 2C       		.byte	0x2c
 5747 212f 17       		.uleb128 0x17
 5748 2130 70280000 		.4byte	.LASF775
 5749 2134 13       		.byte	0x13
 5750 2135 2902     		.2byte	0x229
 5751 2137 94210000 		.4byte	0x2194
 5752 213b 30       		.byte	0x30
 5753 213c 17       		.uleb128 0x17
 5754 213d 60570000 		.4byte	.LASF776
 5755 2141 13       		.byte	0x13
 5756 2142 2D02     		.2byte	0x22d
 5757 2144 9A210000 		.4byte	0x219a
 5758 2148 34       		.byte	0x34
 5759 2149 00       		.byte	0
 5760 214a 18       		.uleb128 0x18
 5761 214b 04       		.byte	0x4
 5762 214c DA1B0000 		.4byte	0x1bda
 5763 2150 18       		.uleb128 0x18
 5764 2151 04       		.byte	0x4
 5765 2152 481D0000 		.4byte	0x1d48
 5766 2156 18       		.uleb128 0x18
 5767 2157 04       		.byte	0x4
 5768 2158 661A0000 		.4byte	0x1a66
 5769 215c 18       		.uleb128 0x18
 5770 215d 04       		.byte	0x4
 5771 215e ED1D0000 		.4byte	0x1ded
 5772 2162 18       		.uleb128 0x18
 5773 2163 04       		.byte	0x4
 5774 2164 68210000 		.4byte	0x2168
 5775 2168 0B       		.uleb128 0xb
 5776 2169 1A200000 		.4byte	0x201a
 5777 216d 18       		.uleb128 0x18
 5778 216e 04       		.byte	0x4
 5779 216f 73210000 		.4byte	0x2173
 5780 2173 0B       		.uleb128 0xb
 5781 2174 521F0000 		.4byte	0x1f52
 5782 2178 18       		.uleb128 0x18
 5783 2179 04       		.byte	0x4
 5784 217a 7E210000 		.4byte	0x217e
 5785 217e 0B       		.uleb128 0xb
 5786 217f D81C0000 		.4byte	0x1cd8
 5787 2183 18       		.uleb128 0x18
 5788 2184 04       		.byte	0x4
 5789 2185 4C190000 		.4byte	0x194c
 5790 2189 18       		.uleb128 0x18
 5791 218a 04       		.byte	0x4
 5792 218b 8F210000 		.4byte	0x218f
 5793 218f 0B       		.uleb128 0xb
 5794 2190 7E200000 		.4byte	0x207e
 5795 2194 18       		.uleb128 0x18
 5796 2195 04       		.byte	0x4
 5797 2196 E8180000 		.4byte	0x18e8
 5798 219a 18       		.uleb128 0x18
 5799 219b 04       		.byte	0x4
ARM GAS  C:\Users\salaz\AppData\Local\Temp\ccj0QfQu.s 			page 137


 5800 219c A0210000 		.4byte	0x21a0
 5801 21a0 0B       		.uleb128 0xb
 5802 21a1 F80D0000 		.4byte	0xdf8
 5803 21a5 09       		.uleb128 0x9
 5804 21a6 421C0000 		.4byte	.LASF777
 5805 21aa 13       		.byte	0x13
 5806 21ab 4402     		.2byte	0x244
 5807 21ad 8A200000 		.4byte	0x208a
 5808 21b1 06       		.uleb128 0x6
 5809 21b2 04       		.byte	0x4
 5810 21b3 2C000000 		.4byte	0x2c
 5811 21b7 14       		.byte	0x14
 5812 21b8 BA       		.byte	0xba
 5813 21b9 922C0000 		.4byte	0x2c92
 5814 21bd 15       		.uleb128 0x15
 5815 21be C7610000 		.4byte	.LASF778
 5816 21c2 00000100 		.4byte	0x10000
 5817 21c6 15       		.uleb128 0x15
 5818 21c7 15070000 		.4byte	.LASF779
 5819 21cb 01000100 		.4byte	0x10001
 5820 21cf 15       		.uleb128 0x15
 5821 21d0 F4670000 		.4byte	.LASF780
 5822 21d4 02000100 		.4byte	0x10002
 5823 21d8 15       		.uleb128 0x15
 5824 21d9 2E590000 		.4byte	.LASF781
 5825 21dd 03000100 		.4byte	0x10003
 5826 21e1 15       		.uleb128 0x15
 5827 21e2 273C0000 		.4byte	.LASF782
 5828 21e6 04000100 		.4byte	0x10004
 5829 21ea 15       		.uleb128 0x15
 5830 21eb 9E440000 		.4byte	.LASF783
 5831 21ef 05000100 		.4byte	0x10005
 5832 21f3 15       		.uleb128 0x15
 5833 21f4 D81F0000 		.4byte	.LASF784
 5834 21f8 06000100 		.4byte	0x10006
 5835 21fc 15       		.uleb128 0x15
 5836 21fd 74100000 		.4byte	.LASF785
 5837 2201 07000100 		.4byte	0x10007
 5838 2205 15       		.uleb128 0x15
 5839 2206 7F3E0000 		.4byte	.LASF786
 5840 220a 08000100 		.4byte	0x10008
 5841 220e 15       		.uleb128 0x15
 5842 220f C00A0000 		.4byte	.LASF787
 5843 2213 09000100 		.4byte	0x10009
 5844 2217 15       		.uleb128 0x15
 5845 2218 A63D0000 		.4byte	.LASF788
 5846 221c 0A000100 		.4byte	0x1000a
 5847 2220 15       		.uleb128 0x15
 5848 2221 A6550000 		.4byte	.LASF789
 5849 2225 0B000100 		.4byte	0x1000b
 5850 2229 15       		.uleb128 0x15
 5851 222a A2650000 		.4byte	.LASF790
 5852 222e 0C000100 		.4byte	0x1000c
 5853 2232 15       		.uleb128 0x15
 5854 2233 A25E0000 		.4byte	.LASF791
 5855 2237 0D000100 		.4byte	0x1000d
 5856 223b 15       		.uleb128 0x15
ARM GAS  C:\Users\salaz\AppData\Local\Temp\ccj0QfQu.s 			page 138


 5857 223c A30F0000 		.4byte	.LASF792
 5858 2240 0E000100 		.4byte	0x1000e
 5859 2244 15       		.uleb128 0x15
 5860 2245 E7030000 		.4byte	.LASF793
 5861 2249 0F000100 		.4byte	0x1000f
 5862 224d 15       		.uleb128 0x15
 5863 224e 1C140000 		.4byte	.LASF794
 5864 2252 10000100 		.4byte	0x10010
 5865 2256 15       		.uleb128 0x15
 5866 2257 3E2F0000 		.4byte	.LASF795
 5867 225b 11000100 		.4byte	0x10011
 5868 225f 15       		.uleb128 0x15
 5869 2260 87700000 		.4byte	.LASF796
 5870 2264 12000100 		.4byte	0x10012
 5871 2268 15       		.uleb128 0x15
 5872 2269 E8690000 		.4byte	.LASF797
 5873 226d 13000100 		.4byte	0x10013
 5874 2271 15       		.uleb128 0x15
 5875 2272 87160000 		.4byte	.LASF798
 5876 2276 14000100 		.4byte	0x10014
 5877 227a 15       		.uleb128 0x15
 5878 227b EE710000 		.4byte	.LASF799
 5879 227f 15000100 		.4byte	0x10015
 5880 2283 15       		.uleb128 0x15
 5881 2284 380F0000 		.4byte	.LASF800
 5882 2288 16000100 		.4byte	0x10016
 5883 228c 15       		.uleb128 0x15
 5884 228d 780E0000 		.4byte	.LASF801
 5885 2291 17000100 		.4byte	0x10017
 5886 2295 15       		.uleb128 0x15
 5887 2296 394D0000 		.4byte	.LASF802
 5888 229a 18000100 		.4byte	0x10018
 5889 229e 15       		.uleb128 0x15
 5890 229f 61780000 		.4byte	.LASF803
 5891 22a3 19000100 		.4byte	0x10019
 5892 22a7 15       		.uleb128 0x15
 5893 22a8 1E640000 		.4byte	.LASF804
 5894 22ac 1A000100 		.4byte	0x1001a
 5895 22b0 15       		.uleb128 0x15
 5896 22b1 1A6E0000 		.4byte	.LASF805
 5897 22b5 1B000100 		.4byte	0x1001b
 5898 22b9 15       		.uleb128 0x15
 5899 22ba 065A0000 		.4byte	.LASF806
 5900 22be 1C000100 		.4byte	0x1001c
 5901 22c2 15       		.uleb128 0x15
 5902 22c3 3C1A0000 		.4byte	.LASF807
 5903 22c7 1D000100 		.4byte	0x1001d
 5904 22cb 15       		.uleb128 0x15
 5905 22cc BD510000 		.4byte	.LASF808
 5906 22d0 1E000100 		.4byte	0x1001e
 5907 22d4 15       		.uleb128 0x15
 5908 22d5 44200000 		.4byte	.LASF809
 5909 22d9 1F000100 		.4byte	0x1001f
 5910 22dd 15       		.uleb128 0x15
 5911 22de 61240000 		.4byte	.LASF810
 5912 22e2 20000100 		.4byte	0x10020
 5913 22e6 15       		.uleb128 0x15
ARM GAS  C:\Users\salaz\AppData\Local\Temp\ccj0QfQu.s 			page 139


 5914 22e7 1F740000 		.4byte	.LASF811
 5915 22eb 21000100 		.4byte	0x10021
 5916 22ef 15       		.uleb128 0x15
 5917 22f0 AB690000 		.4byte	.LASF812
 5918 22f4 22000100 		.4byte	0x10022
 5919 22f8 15       		.uleb128 0x15
 5920 22f9 90100000 		.4byte	.LASF813
 5921 22fd 23000100 		.4byte	0x10023
 5922 2301 15       		.uleb128 0x15
 5923 2302 D2710000 		.4byte	.LASF814
 5924 2306 24000100 		.4byte	0x10024
 5925 230a 15       		.uleb128 0x15
 5926 230b 75550000 		.4byte	.LASF815
 5927 230f 25000100 		.4byte	0x10025
 5928 2313 15       		.uleb128 0x15
 5929 2314 2E1F0000 		.4byte	.LASF816
 5930 2318 26000100 		.4byte	0x10026
 5931 231c 15       		.uleb128 0x15
 5932 231d 80770000 		.4byte	.LASF817
 5933 2321 27000100 		.4byte	0x10027
 5934 2325 15       		.uleb128 0x15
 5935 2326 3E770000 		.4byte	.LASF818
 5936 232a 28000100 		.4byte	0x10028
 5937 232e 15       		.uleb128 0x15
 5938 232f CD3D0000 		.4byte	.LASF819
 5939 2333 29000100 		.4byte	0x10029
 5940 2337 15       		.uleb128 0x15
 5941 2338 AD620000 		.4byte	.LASF820
 5942 233c 2A000100 		.4byte	0x1002a
 5943 2340 15       		.uleb128 0x15
 5944 2341 552B0000 		.4byte	.LASF821
 5945 2345 2B000100 		.4byte	0x1002b
 5946 2349 15       		.uleb128 0x15
 5947 234a CF2C0000 		.4byte	.LASF822
 5948 234e 2C000100 		.4byte	0x1002c
 5949 2352 15       		.uleb128 0x15
 5950 2353 6E690000 		.4byte	.LASF823
 5951 2357 2D000100 		.4byte	0x1002d
 5952 235b 15       		.uleb128 0x15
 5953 235c 21600000 		.4byte	.LASF824
 5954 2360 2E000100 		.4byte	0x1002e
 5955 2364 15       		.uleb128 0x15
 5956 2365 EB000000 		.4byte	.LASF825
 5957 2369 2F000100 		.4byte	0x1002f
 5958 236d 15       		.uleb128 0x15
 5959 236e D35D0000 		.4byte	.LASF826
 5960 2372 30000100 		.4byte	0x10030
 5961 2376 15       		.uleb128 0x15
 5962 2377 6D6F0000 		.4byte	.LASF827
 5963 237b 31000100 		.4byte	0x10031
 5964 237f 15       		.uleb128 0x15
 5965 2380 09400000 		.4byte	.LASF828
 5966 2384 32000100 		.4byte	0x10032
 5967 2388 15       		.uleb128 0x15
 5968 2389 08220000 		.4byte	.LASF829
 5969 238d 33000100 		.4byte	0x10033
 5970 2391 15       		.uleb128 0x15
ARM GAS  C:\Users\salaz\AppData\Local\Temp\ccj0QfQu.s 			page 140


 5971 2392 E4080000 		.4byte	.LASF830
 5972 2396 34000100 		.4byte	0x10034
 5973 239a 15       		.uleb128 0x15
 5974 239b 493C0000 		.4byte	.LASF831
 5975 239f 35000100 		.4byte	0x10035
 5976 23a3 15       		.uleb128 0x15
 5977 23a4 FD070000 		.4byte	.LASF832
 5978 23a8 36000100 		.4byte	0x10036
 5979 23ac 15       		.uleb128 0x15
 5980 23ad 444E0000 		.4byte	.LASF833
 5981 23b1 37000100 		.4byte	0x10037
 5982 23b5 15       		.uleb128 0x15
 5983 23b6 A5770000 		.4byte	.LASF834
 5984 23ba 38000100 		.4byte	0x10038
 5985 23be 15       		.uleb128 0x15
 5986 23bf BD260000 		.4byte	.LASF835
 5987 23c3 39000100 		.4byte	0x10039
 5988 23c7 15       		.uleb128 0x15
 5989 23c8 31760000 		.4byte	.LASF836
 5990 23cc 3A000100 		.4byte	0x1003a
 5991 23d0 15       		.uleb128 0x15
 5992 23d1 31090000 		.4byte	.LASF837
 5993 23d5 3B000100 		.4byte	0x1003b
 5994 23d9 15       		.uleb128 0x15
 5995 23da 33080000 		.4byte	.LASF838
 5996 23de 3C000100 		.4byte	0x1003c
 5997 23e2 15       		.uleb128 0x15
 5998 23e3 3D470000 		.4byte	.LASF839
 5999 23e7 3D000100 		.4byte	0x1003d
 6000 23eb 15       		.uleb128 0x15
 6001 23ec 9E520000 		.4byte	.LASF840
 6002 23f0 3E000100 		.4byte	0x1003e
 6003 23f4 15       		.uleb128 0x15
 6004 23f5 17120000 		.4byte	.LASF841
 6005 23f9 3F000100 		.4byte	0x1003f
 6006 23fd 15       		.uleb128 0x15
 6007 23fe 68410000 		.4byte	.LASF842
 6008 2402 40000100 		.4byte	0x10040
 6009 2406 15       		.uleb128 0x15
 6010 2407 1B4B0000 		.4byte	.LASF843
 6011 240b 41000100 		.4byte	0x10041
 6012 240f 15       		.uleb128 0x15
 6013 2410 F6120000 		.4byte	.LASF844
 6014 2414 42000100 		.4byte	0x10042
 6015 2418 15       		.uleb128 0x15
 6016 2419 96290000 		.4byte	.LASF845
 6017 241d 43000100 		.4byte	0x10043
 6018 2421 15       		.uleb128 0x15
 6019 2422 B03F0000 		.4byte	.LASF846
 6020 2426 44000100 		.4byte	0x10044
 6021 242a 15       		.uleb128 0x15
 6022 242b BB4E0000 		.4byte	.LASF847
 6023 242f 45000100 		.4byte	0x10045
 6024 2433 15       		.uleb128 0x15
 6025 2434 DA1C0000 		.4byte	.LASF848
 6026 2438 46000100 		.4byte	0x10046
 6027 243c 15       		.uleb128 0x15
ARM GAS  C:\Users\salaz\AppData\Local\Temp\ccj0QfQu.s 			page 141


 6028 243d 9A5F0000 		.4byte	.LASF849
 6029 2441 47000100 		.4byte	0x10047
 6030 2445 15       		.uleb128 0x15
 6031 2446 7A210000 		.4byte	.LASF850
 6032 244a 48000100 		.4byte	0x10048
 6033 244e 15       		.uleb128 0x15
 6034 244f 2F6D0000 		.4byte	.LASF851
 6035 2453 49000100 		.4byte	0x10049
 6036 2457 15       		.uleb128 0x15
 6037 2458 42010000 		.4byte	.LASF852
 6038 245c 4A000100 		.4byte	0x1004a
 6039 2460 15       		.uleb128 0x15
 6040 2461 A2240000 		.4byte	.LASF853
 6041 2465 4B000100 		.4byte	0x1004b
 6042 2469 15       		.uleb128 0x15
 6043 246a 86010000 		.4byte	.LASF854
 6044 246e 4C000100 		.4byte	0x1004c
 6045 2472 15       		.uleb128 0x15
 6046 2473 B9060000 		.4byte	.LASF855
 6047 2477 4D000100 		.4byte	0x1004d
 6048 247b 15       		.uleb128 0x15
 6049 247c 952A0000 		.4byte	.LASF856
 6050 2480 4E000100 		.4byte	0x1004e
 6051 2484 15       		.uleb128 0x15
 6052 2485 B8250000 		.4byte	.LASF857
 6053 2489 4F000100 		.4byte	0x1004f
 6054 248d 15       		.uleb128 0x15
 6055 248e 6C680000 		.4byte	.LASF858
 6056 2492 50000100 		.4byte	0x10050
 6057 2496 15       		.uleb128 0x15
 6058 2497 33510000 		.4byte	.LASF859
 6059 249b 51000100 		.4byte	0x10051
 6060 249f 15       		.uleb128 0x15
 6061 24a0 31370000 		.4byte	.LASF860
 6062 24a4 52000100 		.4byte	0x10052
 6063 24a8 15       		.uleb128 0x15
 6064 24a9 284E0000 		.4byte	.LASF861
 6065 24ad 53000100 		.4byte	0x10053
 6066 24b1 15       		.uleb128 0x15
 6067 24b2 A45A0000 		.4byte	.LASF862
 6068 24b6 54000100 		.4byte	0x10054
 6069 24ba 15       		.uleb128 0x15
 6070 24bb B5120000 		.4byte	.LASF863
 6071 24bf 55000100 		.4byte	0x10055
 6072 24c3 15       		.uleb128 0x15
 6073 24c4 7B450000 		.4byte	.LASF864
 6074 24c8 56000100 		.4byte	0x10056
 6075 24cc 15       		.uleb128 0x15
 6076 24cd C54B0000 		.4byte	.LASF865
 6077 24d1 57000100 		.4byte	0x10057
 6078 24d5 15       		.uleb128 0x15
 6079 24d6 0B760000 		.4byte	.LASF866
 6080 24da 58000100 		.4byte	0x10058
 6081 24de 15       		.uleb128 0x15
 6082 24df A3480000 		.4byte	.LASF867
 6083 24e3 59000100 		.4byte	0x10059
 6084 24e7 15       		.uleb128 0x15
ARM GAS  C:\Users\salaz\AppData\Local\Temp\ccj0QfQu.s 			page 142


 6085 24e8 C2420000 		.4byte	.LASF868
 6086 24ec 5A000100 		.4byte	0x1005a
 6087 24f0 15       		.uleb128 0x15
 6088 24f1 84470000 		.4byte	.LASF869
 6089 24f5 5B000100 		.4byte	0x1005b
 6090 24f9 15       		.uleb128 0x15
 6091 24fa 8A000000 		.4byte	.LASF870
 6092 24fe 5C000100 		.4byte	0x1005c
 6093 2502 15       		.uleb128 0x15
 6094 2503 5A510000 		.4byte	.LASF871
 6095 2507 5D000100 		.4byte	0x1005d
 6096 250b 15       		.uleb128 0x15
 6097 250c 046C0000 		.4byte	.LASF872
 6098 2510 5E000100 		.4byte	0x1005e
 6099 2514 15       		.uleb128 0x15
 6100 2515 774A0000 		.4byte	.LASF873
 6101 2519 5F000100 		.4byte	0x1005f
 6102 251d 15       		.uleb128 0x15
 6103 251e CA6E0000 		.4byte	.LASF874
 6104 2522 60000100 		.4byte	0x10060
 6105 2526 15       		.uleb128 0x15
 6106 2527 00310000 		.4byte	.LASF875
 6107 252b 61000100 		.4byte	0x10061
 6108 252f 15       		.uleb128 0x15
 6109 2530 864F0000 		.4byte	.LASF876
 6110 2534 62000100 		.4byte	0x10062
 6111 2538 15       		.uleb128 0x15
 6112 2539 986E0000 		.4byte	.LASF877
 6113 253d 63000100 		.4byte	0x10063
 6114 2541 15       		.uleb128 0x15
 6115 2542 0D440000 		.4byte	.LASF878
 6116 2546 64000100 		.4byte	0x10064
 6117 254a 15       		.uleb128 0x15
 6118 254b A5220000 		.4byte	.LASF879
 6119 254f 65000100 		.4byte	0x10065
 6120 2553 15       		.uleb128 0x15
 6121 2554 0A560000 		.4byte	.LASF880
 6122 2558 66000100 		.4byte	0x10066
 6123 255c 15       		.uleb128 0x15
 6124 255d F5370000 		.4byte	.LASF881
 6125 2561 67000100 		.4byte	0x10067
 6126 2565 15       		.uleb128 0x15
 6127 2566 64790000 		.4byte	.LASF882
 6128 256a 68000100 		.4byte	0x10068
 6129 256e 15       		.uleb128 0x15
 6130 256f A7140000 		.4byte	.LASF883
 6131 2573 69000100 		.4byte	0x10069
 6132 2577 15       		.uleb128 0x15
 6133 2578 224F0000 		.4byte	.LASF884
 6134 257c 6A000100 		.4byte	0x1006a
 6135 2580 15       		.uleb128 0x15
 6136 2581 356C0000 		.4byte	.LASF885
 6137 2585 6B000100 		.4byte	0x1006b
 6138 2589 15       		.uleb128 0x15
 6139 258a 0F020000 		.4byte	.LASF886
 6140 258e 6C000100 		.4byte	0x1006c
 6141 2592 15       		.uleb128 0x15
ARM GAS  C:\Users\salaz\AppData\Local\Temp\ccj0QfQu.s 			page 143


 6142 2593 DA1B0000 		.4byte	.LASF887
 6143 2597 6D000100 		.4byte	0x1006d
 6144 259b 15       		.uleb128 0x15
 6145 259c 2E220000 		.4byte	.LASF888
 6146 25a0 6E000100 		.4byte	0x1006e
 6147 25a4 15       		.uleb128 0x15
 6148 25a5 9C200000 		.4byte	.LASF889
 6149 25a9 6F000100 		.4byte	0x1006f
 6150 25ad 15       		.uleb128 0x15
 6151 25ae E2770000 		.4byte	.LASF890
 6152 25b2 70000100 		.4byte	0x10070
 6153 25b6 15       		.uleb128 0x15
 6154 25b7 83140000 		.4byte	.LASF891
 6155 25bb 71000100 		.4byte	0x10071
 6156 25bf 15       		.uleb128 0x15
 6157 25c0 C0450000 		.4byte	.LASF892
 6158 25c4 72000100 		.4byte	0x10072
 6159 25c8 15       		.uleb128 0x15
 6160 25c9 C6240000 		.4byte	.LASF893
 6161 25cd 73000100 		.4byte	0x10073
 6162 25d1 15       		.uleb128 0x15
 6163 25d2 E2210000 		.4byte	.LASF894
 6164 25d6 74000100 		.4byte	0x10074
 6165 25da 15       		.uleb128 0x15
 6166 25db 694E0000 		.4byte	.LASF895
 6167 25df 75000100 		.4byte	0x10075
 6168 25e3 15       		.uleb128 0x15
 6169 25e4 F6790000 		.4byte	.LASF896
 6170 25e8 76000100 		.4byte	0x10076
 6171 25ec 15       		.uleb128 0x15
 6172 25ed 2C2E0000 		.4byte	.LASF897
 6173 25f1 77000100 		.4byte	0x10077
 6174 25f5 15       		.uleb128 0x15
 6175 25f6 C8320000 		.4byte	.LASF898
 6176 25fa 78000100 		.4byte	0x10078
 6177 25fe 15       		.uleb128 0x15
 6178 25ff F7640000 		.4byte	.LASF899
 6179 2603 79000100 		.4byte	0x10079
 6180 2607 15       		.uleb128 0x15
 6181 2608 BA200000 		.4byte	.LASF900
 6182 260c 7A000100 		.4byte	0x1007a
 6183 2610 15       		.uleb128 0x15
 6184 2611 675B0000 		.4byte	.LASF901
 6185 2615 7B000100 		.4byte	0x1007b
 6186 2619 15       		.uleb128 0x15
 6187 261a 44420000 		.4byte	.LASF902
 6188 261e 7C000100 		.4byte	0x1007c
 6189 2622 15       		.uleb128 0x15
 6190 2623 142A0000 		.4byte	.LASF903
 6191 2627 7D000100 		.4byte	0x1007d
 6192 262b 15       		.uleb128 0x15
 6193 262c CF670000 		.4byte	.LASF904
 6194 2630 7E000100 		.4byte	0x1007e
 6195 2634 15       		.uleb128 0x15
 6196 2635 0F730000 		.4byte	.LASF905
 6197 2639 7F000100 		.4byte	0x1007f
 6198 263d 15       		.uleb128 0x15
ARM GAS  C:\Users\salaz\AppData\Local\Temp\ccj0QfQu.s 			page 144


 6199 263e 393A0000 		.4byte	.LASF906
 6200 2642 80000100 		.4byte	0x10080
 6201 2646 15       		.uleb128 0x15
 6202 2647 E35F0000 		.4byte	.LASF907
 6203 264b 81000100 		.4byte	0x10081
 6204 264f 15       		.uleb128 0x15
 6205 2650 EB2D0000 		.4byte	.LASF908
 6206 2654 82000100 		.4byte	0x10082
 6207 2658 15       		.uleb128 0x15
 6208 2659 B7490000 		.4byte	.LASF909
 6209 265d 83000100 		.4byte	0x10083
 6210 2661 15       		.uleb128 0x15
 6211 2662 37230000 		.4byte	.LASF910
 6212 2666 84000100 		.4byte	0x10084
 6213 266a 15       		.uleb128 0x15
 6214 266b FF340000 		.4byte	.LASF911
 6215 266f 85000100 		.4byte	0x10085
 6216 2673 15       		.uleb128 0x15
 6217 2674 33260000 		.4byte	.LASF912
 6218 2678 86000100 		.4byte	0x10086
 6219 267c 15       		.uleb128 0x15
 6220 267d 9F420000 		.4byte	.LASF913
 6221 2681 87000100 		.4byte	0x10087
 6222 2685 15       		.uleb128 0x15
 6223 2686 22160000 		.4byte	.LASF914
 6224 268a 88000100 		.4byte	0x10088
 6225 268e 15       		.uleb128 0x15
 6226 268f 33040000 		.4byte	.LASF915
 6227 2693 89000100 		.4byte	0x10089
 6228 2697 15       		.uleb128 0x15
 6229 2698 4F750000 		.4byte	.LASF916
 6230 269c 8A000100 		.4byte	0x1008a
 6231 26a0 15       		.uleb128 0x15
 6232 26a1 C82E0000 		.4byte	.LASF917
 6233 26a5 8B000100 		.4byte	0x1008b
 6234 26a9 15       		.uleb128 0x15
 6235 26aa 0D090000 		.4byte	.LASF918
 6236 26ae 8C000100 		.4byte	0x1008c
 6237 26b2 15       		.uleb128 0x15
 6238 26b3 BE340000 		.4byte	.LASF919
 6239 26b7 8D000100 		.4byte	0x1008d
 6240 26bb 15       		.uleb128 0x15
 6241 26bc 0F790000 		.4byte	.LASF920
 6242 26c0 8E000100 		.4byte	0x1008e
 6243 26c4 15       		.uleb128 0x15
 6244 26c5 AC710000 		.4byte	.LASF921
 6245 26c9 8F000100 		.4byte	0x1008f
 6246 26cd 15       		.uleb128 0x15
 6247 26ce 740D0000 		.4byte	.LASF922
 6248 26d2 90000100 		.4byte	0x10090
 6249 26d6 15       		.uleb128 0x15
 6250 26d7 C5640000 		.4byte	.LASF923
 6251 26db 91000100 		.4byte	0x10091
 6252 26df 15       		.uleb128 0x15
 6253 26e0 1C350000 		.4byte	.LASF924
 6254 26e4 92000100 		.4byte	0x10092
 6255 26e8 15       		.uleb128 0x15
ARM GAS  C:\Users\salaz\AppData\Local\Temp\ccj0QfQu.s 			page 145


 6256 26e9 52000000 		.4byte	.LASF925
 6257 26ed 93000100 		.4byte	0x10093
 6258 26f1 15       		.uleb128 0x15
 6259 26f2 8B4C0000 		.4byte	.LASF926
 6260 26f6 94000100 		.4byte	0x10094
 6261 26fa 15       		.uleb128 0x15
 6262 26fb 7E050000 		.4byte	.LASF927
 6263 26ff 95000100 		.4byte	0x10095
 6264 2703 15       		.uleb128 0x15
 6265 2704 8F0D0000 		.4byte	.LASF928
 6266 2708 96000100 		.4byte	0x10096
 6267 270c 15       		.uleb128 0x15
 6268 270d F54A0000 		.4byte	.LASF929
 6269 2711 97000100 		.4byte	0x10097
 6270 2715 15       		.uleb128 0x15
 6271 2716 740A0000 		.4byte	.LASF930
 6272 271a 98000100 		.4byte	0x10098
 6273 271e 15       		.uleb128 0x15
 6274 271f D1530000 		.4byte	.LASF931
 6275 2723 99000100 		.4byte	0x10099
 6276 2727 15       		.uleb128 0x15
 6277 2728 3C210000 		.4byte	.LASF932
 6278 272c 9A000100 		.4byte	0x1009a
 6279 2730 15       		.uleb128 0x15
 6280 2731 7C2A0000 		.4byte	.LASF933
 6281 2735 9B000100 		.4byte	0x1009b
 6282 2739 15       		.uleb128 0x15
 6283 273a 9A250000 		.4byte	.LASF934
 6284 273e 9C000100 		.4byte	0x1009c
 6285 2742 15       		.uleb128 0x15
 6286 2743 24660000 		.4byte	.LASF935
 6287 2747 9D000100 		.4byte	0x1009d
 6288 274b 15       		.uleb128 0x15
 6289 274c 9A4A0000 		.4byte	.LASF936
 6290 2750 9E000100 		.4byte	0x1009e
 6291 2754 15       		.uleb128 0x15
 6292 2755 A2050000 		.4byte	.LASF937
 6293 2759 9F000100 		.4byte	0x1009f
 6294 275d 15       		.uleb128 0x15
 6295 275e 9B0A0000 		.4byte	.LASF938
 6296 2762 A0000100 		.4byte	0x100a0
 6297 2766 15       		.uleb128 0x15
 6298 2767 A21F0000 		.4byte	.LASF939
 6299 276b A1000100 		.4byte	0x100a1
 6300 276f 15       		.uleb128 0x15
 6301 2770 67590000 		.4byte	.LASF940
 6302 2774 A2000100 		.4byte	0x100a2
 6303 2778 15       		.uleb128 0x15
 6304 2779 0B330000 		.4byte	.LASF941
 6305 277d A3000100 		.4byte	0x100a3
 6306 2781 15       		.uleb128 0x15
 6307 2782 8F120000 		.4byte	.LASF942
 6308 2786 A4000100 		.4byte	0x100a4
 6309 278a 15       		.uleb128 0x15
 6310 278b B11D0000 		.4byte	.LASF943
 6311 278f A5000100 		.4byte	0x100a5
 6312 2793 15       		.uleb128 0x15
ARM GAS  C:\Users\salaz\AppData\Local\Temp\ccj0QfQu.s 			page 146


 6313 2794 7A1B0000 		.4byte	.LASF944
 6314 2798 A6000100 		.4byte	0x100a6
 6315 279c 15       		.uleb128 0x15
 6316 279d A96B0000 		.4byte	.LASF945
 6317 27a1 A7000100 		.4byte	0x100a7
 6318 27a5 15       		.uleb128 0x15
 6319 27a6 85670000 		.4byte	.LASF946
 6320 27aa A8000100 		.4byte	0x100a8
 6321 27ae 15       		.uleb128 0x15
 6322 27af 06430000 		.4byte	.LASF947
 6323 27b3 A9000100 		.4byte	0x100a9
 6324 27b7 15       		.uleb128 0x15
 6325 27b8 6A0C0000 		.4byte	.LASF948
 6326 27bc AA000100 		.4byte	0x100aa
 6327 27c0 15       		.uleb128 0x15
 6328 27c1 722E0000 		.4byte	.LASF949
 6329 27c5 AB000100 		.4byte	0x100ab
 6330 27c9 15       		.uleb128 0x15
 6331 27ca F2350000 		.4byte	.LASF950
 6332 27ce AC000100 		.4byte	0x100ac
 6333 27d2 15       		.uleb128 0x15
 6334 27d3 016B0000 		.4byte	.LASF951
 6335 27d7 AD000100 		.4byte	0x100ad
 6336 27db 15       		.uleb128 0x15
 6337 27dc 861C0000 		.4byte	.LASF952
 6338 27e0 AE000100 		.4byte	0x100ae
 6339 27e4 15       		.uleb128 0x15
 6340 27e5 7A3B0000 		.4byte	.LASF953
 6341 27e9 AF000100 		.4byte	0x100af
 6342 27ed 15       		.uleb128 0x15
 6343 27ee 804B0000 		.4byte	.LASF954
 6344 27f2 B0000100 		.4byte	0x100b0
 6345 27f6 15       		.uleb128 0x15
 6346 27f7 EB2A0000 		.4byte	.LASF955
 6347 27fb B1000100 		.4byte	0x100b1
 6348 27ff 15       		.uleb128 0x15
 6349 2800 FB460000 		.4byte	.LASF956
 6350 2804 B2000100 		.4byte	0x100b2
 6351 2808 15       		.uleb128 0x15
 6352 2809 C53A0000 		.4byte	.LASF957
 6353 280d B3000100 		.4byte	0x100b3
 6354 2811 15       		.uleb128 0x15
 6355 2812 024E0000 		.4byte	.LASF958
 6356 2816 B4000100 		.4byte	0x100b4
 6357 281a 15       		.uleb128 0x15
 6358 281b A2760000 		.4byte	.LASF959
 6359 281f B5000100 		.4byte	0x100b5
 6360 2823 15       		.uleb128 0x15
 6361 2824 D3470000 		.4byte	.LASF960
 6362 2828 B6000100 		.4byte	0x100b6
 6363 282c 15       		.uleb128 0x15
 6364 282d B56D0000 		.4byte	.LASF961
 6365 2831 B7000100 		.4byte	0x100b7
 6366 2835 15       		.uleb128 0x15
 6367 2836 38560000 		.4byte	.LASF962
 6368 283a B8000100 		.4byte	0x100b8
 6369 283e 15       		.uleb128 0x15
ARM GAS  C:\Users\salaz\AppData\Local\Temp\ccj0QfQu.s 			page 147


 6370 283f 6E1D0000 		.4byte	.LASF963
 6371 2843 B9000100 		.4byte	0x100b9
 6372 2847 15       		.uleb128 0x15
 6373 2848 A7310000 		.4byte	.LASF964
 6374 284c BA000100 		.4byte	0x100ba
 6375 2850 15       		.uleb128 0x15
 6376 2851 F2060000 		.4byte	.LASF965
 6377 2855 BB000100 		.4byte	0x100bb
 6378 2859 15       		.uleb128 0x15
 6379 285a 000A0000 		.4byte	.LASF966
 6380 285e BC000100 		.4byte	0x100bc
 6381 2862 15       		.uleb128 0x15
 6382 2863 36650000 		.4byte	.LASF967
 6383 2867 BD000100 		.4byte	0x100bd
 6384 286b 15       		.uleb128 0x15
 6385 286c D2490000 		.4byte	.LASF968
 6386 2870 BE000100 		.4byte	0x100be
 6387 2874 15       		.uleb128 0x15
 6388 2875 39350000 		.4byte	.LASF969
 6389 2879 BF000100 		.4byte	0x100bf
 6390 287d 15       		.uleb128 0x15
 6391 287e 70560000 		.4byte	.LASF970
 6392 2882 C0000100 		.4byte	0x100c0
 6393 2886 15       		.uleb128 0x15
 6394 2887 926C0000 		.4byte	.LASF971
 6395 288b C1000100 		.4byte	0x100c1
 6396 288f 15       		.uleb128 0x15
 6397 2890 E55C0000 		.4byte	.LASF972
 6398 2894 C2000100 		.4byte	0x100c2
 6399 2898 15       		.uleb128 0x15
 6400 2899 0F110000 		.4byte	.LASF973
 6401 289d C3000100 		.4byte	0x100c3
 6402 28a1 15       		.uleb128 0x15
 6403 28a2 3A3D0000 		.4byte	.LASF974
 6404 28a6 C4000100 		.4byte	0x100c4
 6405 28aa 15       		.uleb128 0x15
 6406 28ab B14D0000 		.4byte	.LASF975
 6407 28af C5000100 		.4byte	0x100c5
 6408 28b3 15       		.uleb128 0x15
 6409 28b4 EA2C0000 		.4byte	.LASF976
 6410 28b8 C6000100 		.4byte	0x100c6
 6411 28bc 15       		.uleb128 0x15
 6412 28bd F46C0000 		.4byte	.LASF977
 6413 28c1 C7000100 		.4byte	0x100c7
 6414 28c5 15       		.uleb128 0x15
 6415 28c6 36710000 		.4byte	.LASF978
 6416 28ca C8000100 		.4byte	0x100c8
 6417 28ce 15       		.uleb128 0x15
 6418 28cf FE310000 		.4byte	.LASF979
 6419 28d3 C9000100 		.4byte	0x100c9
 6420 28d7 15       		.uleb128 0x15
 6421 28d8 67580000 		.4byte	.LASF980
 6422 28dc CA000100 		.4byte	0x100ca
 6423 28e0 15       		.uleb128 0x15
 6424 28e1 A9560000 		.4byte	.LASF981
 6425 28e5 CB000100 		.4byte	0x100cb
 6426 28e9 15       		.uleb128 0x15
ARM GAS  C:\Users\salaz\AppData\Local\Temp\ccj0QfQu.s 			page 148


 6427 28ea D7150000 		.4byte	.LASF982
 6428 28ee CC000100 		.4byte	0x100cc
 6429 28f2 15       		.uleb128 0x15
 6430 28f3 8E180000 		.4byte	.LASF983
 6431 28f7 CD000100 		.4byte	0x100cd
 6432 28fb 15       		.uleb128 0x15
 6433 28fc 6B120000 		.4byte	.LASF984
 6434 2900 CE000100 		.4byte	0x100ce
 6435 2904 15       		.uleb128 0x15
 6436 2905 663D0000 		.4byte	.LASF985
 6437 2909 CF000100 		.4byte	0x100cf
 6438 290d 15       		.uleb128 0x15
 6439 290e 0C6A0000 		.4byte	.LASF986
 6440 2912 D0000100 		.4byte	0x100d0
 6441 2916 15       		.uleb128 0x15
 6442 2917 4E260000 		.4byte	.LASF987
 6443 291b D1000100 		.4byte	0x100d1
 6444 291f 15       		.uleb128 0x15
 6445 2920 F2530000 		.4byte	.LASF988
 6446 2924 D2000100 		.4byte	0x100d2
 6447 2928 15       		.uleb128 0x15
 6448 2929 6E640000 		.4byte	.LASF989
 6449 292d D3000100 		.4byte	0x100d3
 6450 2931 15       		.uleb128 0x15
 6451 2932 DE200000 		.4byte	.LASF990
 6452 2936 D4000100 		.4byte	0x100d4
 6453 293a 15       		.uleb128 0x15
 6454 293b 14230000 		.4byte	.LASF991
 6455 293f D5000100 		.4byte	0x100d5
 6456 2943 15       		.uleb128 0x15
 6457 2944 6E540000 		.4byte	.LASF992
 6458 2948 D6000100 		.4byte	0x100d6
 6459 294c 15       		.uleb128 0x15
 6460 294d 3B310000 		.4byte	.LASF993
 6461 2951 D7000100 		.4byte	0x100d7
 6462 2955 15       		.uleb128 0x15
 6463 2956 D9760000 		.4byte	.LASF994
 6464 295a D8000100 		.4byte	0x100d8
 6465 295e 15       		.uleb128 0x15
 6466 295f DB0C0000 		.4byte	.LASF995
 6467 2963 D9000100 		.4byte	0x100d9
 6468 2967 15       		.uleb128 0x15
 6469 2968 5C0F0000 		.4byte	.LASF996
 6470 296c DA000100 		.4byte	0x100da
 6471 2970 15       		.uleb128 0x15
 6472 2971 25180000 		.4byte	.LASF997
 6473 2975 DB000100 		.4byte	0x100db
 6474 2979 15       		.uleb128 0x15
 6475 297a 2B570000 		.4byte	.LASF998
 6476 297e DC000100 		.4byte	0x100dc
 6477 2982 15       		.uleb128 0x15
 6478 2983 7D350000 		.4byte	.LASF999
 6479 2987 DD000100 		.4byte	0x100dd
 6480 298b 15       		.uleb128 0x15
 6481 298c 450D0000 		.4byte	.LASF1000
 6482 2990 DE000100 		.4byte	0x100de
 6483 2994 15       		.uleb128 0x15
ARM GAS  C:\Users\salaz\AppData\Local\Temp\ccj0QfQu.s 			page 149


 6484 2995 E4600000 		.4byte	.LASF1001
 6485 2999 DF000100 		.4byte	0x100df
 6486 299d 15       		.uleb128 0x15
 6487 299e E9010000 		.4byte	.LASF1002
 6488 29a2 E0000100 		.4byte	0x100e0
 6489 29a6 15       		.uleb128 0x15
 6490 29a7 13390000 		.4byte	.LASF1003
 6491 29ab E1000100 		.4byte	0x100e1
 6492 29af 15       		.uleb128 0x15
 6493 29b0 82310000 		.4byte	.LASF1004
 6494 29b4 E2000100 		.4byte	0x100e2
 6495 29b8 15       		.uleb128 0x15
 6496 29b9 A9170000 		.4byte	.LASF1005
 6497 29bd E3000100 		.4byte	0x100e3
 6498 29c1 15       		.uleb128 0x15
 6499 29c2 D15B0000 		.4byte	.LASF1006
 6500 29c6 E4000100 		.4byte	0x100e4
 6501 29ca 15       		.uleb128 0x15
 6502 29cb C25A0000 		.4byte	.LASF1007
 6503 29cf E5000100 		.4byte	0x100e5
 6504 29d3 15       		.uleb128 0x15
 6505 29d4 44490000 		.4byte	.LASF1008
 6506 29d8 E6000100 		.4byte	0x100e6
 6507 29dc 15       		.uleb128 0x15
 6508 29dd 07250000 		.4byte	.LASF1009
 6509 29e1 E7000100 		.4byte	0x100e7
 6510 29e5 15       		.uleb128 0x15
 6511 29e6 652D0000 		.4byte	.LASF1010
 6512 29ea E8000100 		.4byte	0x100e8
 6513 29ee 15       		.uleb128 0x15
 6514 29ef 32110000 		.4byte	.LASF1011
 6515 29f3 E9000100 		.4byte	0x100e9
 6516 29f7 15       		.uleb128 0x15
 6517 29f8 DE6F0000 		.4byte	.LASF1012
 6518 29fc EA000100 		.4byte	0x100ea
 6519 2a00 15       		.uleb128 0x15
 6520 2a01 F9540000 		.4byte	.LASF1013
 6521 2a05 EB000100 		.4byte	0x100eb
 6522 2a09 15       		.uleb128 0x15
 6523 2a0a 25690000 		.4byte	.LASF1014
 6524 2a0e EC000100 		.4byte	0x100ec
 6525 2a12 15       		.uleb128 0x15
 6526 2a13 47570000 		.4byte	.LASF1015
 6527 2a17 ED000100 		.4byte	0x100ed
 6528 2a1b 15       		.uleb128 0x15
 6529 2a1c E9780000 		.4byte	.LASF1016
 6530 2a20 EE000100 		.4byte	0x100ee
 6531 2a24 15       		.uleb128 0x15
 6532 2a25 FB150000 		.4byte	.LASF1017
 6533 2a29 EF000100 		.4byte	0x100ef
 6534 2a2d 15       		.uleb128 0x15
 6535 2a2e C45E0000 		.4byte	.LASF1018
 6536 2a32 F0000100 		.4byte	0x100f0
 6537 2a36 15       		.uleb128 0x15
 6538 2a37 A8460000 		.4byte	.LASF1019
 6539 2a3b F1000100 		.4byte	0x100f1
 6540 2a3f 15       		.uleb128 0x15
ARM GAS  C:\Users\salaz\AppData\Local\Temp\ccj0QfQu.s 			page 150


 6541 2a40 DF400000 		.4byte	.LASF1020
 6542 2a44 F2000100 		.4byte	0x100f2
 6543 2a48 15       		.uleb128 0x15
 6544 2a49 1A650000 		.4byte	.LASF1021
 6545 2a4d F3000100 		.4byte	0x100f3
 6546 2a51 15       		.uleb128 0x15
 6547 2a52 EA3A0000 		.4byte	.LASF1022
 6548 2a56 F4000100 		.4byte	0x100f4
 6549 2a5a 15       		.uleb128 0x15
 6550 2a5b E1700000 		.4byte	.LASF1023
 6551 2a5f F5000100 		.4byte	0x100f5
 6552 2a63 15       		.uleb128 0x15
 6553 2a64 92680000 		.4byte	.LASF1024
 6554 2a68 F6000100 		.4byte	0x100f6
 6555 2a6c 15       		.uleb128 0x15
 6556 2a6d 4C090000 		.4byte	.LASF1025
 6557 2a71 F7000100 		.4byte	0x100f7
 6558 2a75 15       		.uleb128 0x15
 6559 2a76 49640000 		.4byte	.LASF1026
 6560 2a7a F8000100 		.4byte	0x100f8
 6561 2a7e 15       		.uleb128 0x15
 6562 2a7f 7F220000 		.4byte	.LASF1027
 6563 2a83 F9000100 		.4byte	0x100f9
 6564 2a87 15       		.uleb128 0x15
 6565 2a88 596C0000 		.4byte	.LASF1028
 6566 2a8c FA000100 		.4byte	0x100fa
 6567 2a90 15       		.uleb128 0x15
 6568 2a91 1C320000 		.4byte	.LASF1029
 6569 2a95 FB000100 		.4byte	0x100fb
 6570 2a99 15       		.uleb128 0x15
 6571 2a9a 913C0000 		.4byte	.LASF1030
 6572 2a9e FC000100 		.4byte	0x100fc
 6573 2aa2 15       		.uleb128 0x15
 6574 2aa3 63660000 		.4byte	.LASF1031
 6575 2aa7 FD000100 		.4byte	0x100fd
 6576 2aab 15       		.uleb128 0x15
 6577 2aac 0E620000 		.4byte	.LASF1032
 6578 2ab0 FE000100 		.4byte	0x100fe
 6579 2ab4 15       		.uleb128 0x15
 6580 2ab5 56760000 		.4byte	.LASF1033
 6581 2ab9 FF000100 		.4byte	0x100ff
 6582 2abd 15       		.uleb128 0x15
 6583 2abe 69180000 		.4byte	.LASF1034
 6584 2ac2 00010100 		.4byte	0x10100
 6585 2ac6 15       		.uleb128 0x15
 6586 2ac7 F94B0000 		.4byte	.LASF1035
 6587 2acb 01010100 		.4byte	0x10101
 6588 2acf 15       		.uleb128 0x15
 6589 2ad0 23670000 		.4byte	.LASF1036
 6590 2ad4 02010100 		.4byte	0x10102
 6591 2ad8 15       		.uleb128 0x15
 6592 2ad9 72630000 		.4byte	.LASF1037
 6593 2add 03010100 		.4byte	0x10103
 6594 2ae1 15       		.uleb128 0x15
 6595 2ae2 5A300000 		.4byte	.LASF1038
 6596 2ae6 04010100 		.4byte	0x10104
 6597 2aea 15       		.uleb128 0x15
ARM GAS  C:\Users\salaz\AppData\Local\Temp\ccj0QfQu.s 			page 151


 6598 2aeb D3660000 		.4byte	.LASF1039
 6599 2aef 05010100 		.4byte	0x10105
 6600 2af3 15       		.uleb128 0x15
 6601 2af4 7C790000 		.4byte	.LASF1040
 6602 2af8 06010100 		.4byte	0x10106
 6603 2afc 15       		.uleb128 0x15
 6604 2afd E1740000 		.4byte	.LASF1041
 6605 2b01 07010100 		.4byte	0x10107
 6606 2b05 15       		.uleb128 0x15
 6607 2b06 083A0000 		.4byte	.LASF1042
 6608 2b0a 08010100 		.4byte	0x10108
 6609 2b0e 15       		.uleb128 0x15
 6610 2b0f 76250000 		.4byte	.LASF1043
 6611 2b13 09010100 		.4byte	0x10109
 6612 2b17 15       		.uleb128 0x15
 6613 2b18 58350000 		.4byte	.LASF1044
 6614 2b1c 0A010100 		.4byte	0x1010a
 6615 2b20 15       		.uleb128 0x15
 6616 2b21 26060000 		.4byte	.LASF1045
 6617 2b25 0B010100 		.4byte	0x1010b
 6618 2b29 15       		.uleb128 0x15
 6619 2b2a 200E0000 		.4byte	.LASF1046
 6620 2b2e 0C010100 		.4byte	0x1010c
 6621 2b32 15       		.uleb128 0x15
 6622 2b33 A4340000 		.4byte	.LASF1047
 6623 2b37 0D010100 		.4byte	0x1010d
 6624 2b3b 15       		.uleb128 0x15
 6625 2b3c 8B3D0000 		.4byte	.LASF1048
 6626 2b40 0E010100 		.4byte	0x1010e
 6627 2b44 15       		.uleb128 0x15
 6628 2b45 601A0000 		.4byte	.LASF1049
 6629 2b49 0F010100 		.4byte	0x1010f
 6630 2b4d 15       		.uleb128 0x15
 6631 2b4e 610B0000 		.4byte	.LASF1050
 6632 2b52 10010100 		.4byte	0x10110
 6633 2b56 15       		.uleb128 0x15
 6634 2b57 E5450000 		.4byte	.LASF1051
 6635 2b5b 11010100 		.4byte	0x10111
 6636 2b5f 15       		.uleb128 0x15
 6637 2b60 4E630000 		.4byte	.LASF1052
 6638 2b64 12010100 		.4byte	0x10112
 6639 2b68 15       		.uleb128 0x15
 6640 2b69 08460000 		.4byte	.LASF1053
 6641 2b6d 13010100 		.4byte	0x10113
 6642 2b71 15       		.uleb128 0x15
 6643 2b72 AD160000 		.4byte	.LASF1054
 6644 2b76 14010100 		.4byte	0x10114
 6645 2b7a 15       		.uleb128 0x15
 6646 2b7b F7470000 		.4byte	.LASF1055
 6647 2b7f 15010100 		.4byte	0x10115
 6648 2b83 15       		.uleb128 0x15
 6649 2b84 FD1C0000 		.4byte	.LASF1056
 6650 2b88 16010100 		.4byte	0x10116
 6651 2b8c 15       		.uleb128 0x15
 6652 2b8d C5380000 		.4byte	.LASF1057
 6653 2b91 17010100 		.4byte	0x10117
 6654 2b95 15       		.uleb128 0x15
ARM GAS  C:\Users\salaz\AppData\Local\Temp\ccj0QfQu.s 			page 152


 6655 2b96 F0290000 		.4byte	.LASF1058
 6656 2b9a 18010100 		.4byte	0x10118
 6657 2b9e 15       		.uleb128 0x15
 6658 2b9f 4B060000 		.4byte	.LASF1059
 6659 2ba3 19010100 		.4byte	0x10119
 6660 2ba7 15       		.uleb128 0x15
 6661 2ba8 0D540000 		.4byte	.LASF1060
 6662 2bac 1A010100 		.4byte	0x1011a
 6663 2bb0 15       		.uleb128 0x15
 6664 2bb1 8B260000 		.4byte	.LASF1061
 6665 2bb5 1B010100 		.4byte	0x1011b
 6666 2bb9 15       		.uleb128 0x15
 6667 2bba E44D0000 		.4byte	.LASF1062
 6668 2bbe 1C010100 		.4byte	0x1011c
 6669 2bc2 15       		.uleb128 0x15
 6670 2bc3 26010000 		.4byte	.LASF1063
 6671 2bc7 1D010100 		.4byte	0x1011d
 6672 2bcb 15       		.uleb128 0x15
 6673 2bcc F7490000 		.4byte	.LASF1064
 6674 2bd0 1E010100 		.4byte	0x1011e
 6675 2bd4 15       		.uleb128 0x15
 6676 2bd5 9E090000 		.4byte	.LASF1065
 6677 2bd9 1F010100 		.4byte	0x1011f
 6678 2bdd 15       		.uleb128 0x15
 6679 2bde A9280000 		.4byte	.LASF1066
 6680 2be2 20010100 		.4byte	0x10120
 6681 2be6 15       		.uleb128 0x15
 6682 2be7 0F2B0000 		.4byte	.LASF1067
 6683 2beb 21010100 		.4byte	0x10121
 6684 2bef 15       		.uleb128 0x15
 6685 2bf0 D13E0000 		.4byte	.LASF1068
 6686 2bf4 22010100 		.4byte	0x10122
 6687 2bf8 15       		.uleb128 0x15
 6688 2bf9 276B0000 		.4byte	.LASF1069
 6689 2bfd 23010100 		.4byte	0x10123
 6690 2c01 15       		.uleb128 0x15
 6691 2c02 1D700000 		.4byte	.LASF1070
 6692 2c06 24010100 		.4byte	0x10124
 6693 2c0a 15       		.uleb128 0x15
 6694 2c0b 69200000 		.4byte	.LASF1071
 6695 2c0f 25010100 		.4byte	0x10125
 6696 2c13 15       		.uleb128 0x15
 6697 2c14 BE740000 		.4byte	.LASF1072
 6698 2c18 26010100 		.4byte	0x10126
 6699 2c1c 15       		.uleb128 0x15
 6700 2c1d 92230000 		.4byte	.LASF1073
 6701 2c21 27010100 		.4byte	0x10127
 6702 2c25 15       		.uleb128 0x15
 6703 2c26 42700000 		.4byte	.LASF1074
 6704 2c2a 28010100 		.4byte	0x10128
 6705 2c2e 15       		.uleb128 0x15
 6706 2c2f D41A0000 		.4byte	.LASF1075
 6707 2c33 29010100 		.4byte	0x10129
 6708 2c37 15       		.uleb128 0x15
 6709 2c38 2F240000 		.4byte	.LASF1076
 6710 2c3c 2A010100 		.4byte	0x1012a
 6711 2c40 15       		.uleb128 0x15
ARM GAS  C:\Users\salaz\AppData\Local\Temp\ccj0QfQu.s 			page 153


 6712 2c41 C8770000 		.4byte	.LASF1077
 6713 2c45 2B010100 		.4byte	0x1012b
 6714 2c49 15       		.uleb128 0x15
 6715 2c4a 2E280000 		.4byte	.LASF1078
 6716 2c4e 2C010100 		.4byte	0x1012c
 6717 2c52 15       		.uleb128 0x15
 6718 2c53 D4440000 		.4byte	.LASF1079
 6719 2c57 2D010100 		.4byte	0x1012d
 6720 2c5b 15       		.uleb128 0x15
 6721 2c5c 8E0C0000 		.4byte	.LASF1080
 6722 2c60 2E010100 		.4byte	0x1012e
 6723 2c64 15       		.uleb128 0x15
 6724 2c65 666D0000 		.4byte	.LASF1081
 6725 2c69 2F010100 		.4byte	0x1012f
 6726 2c6d 15       		.uleb128 0x15
 6727 2c6e B4540000 		.4byte	.LASF1082
 6728 2c72 30010100 		.4byte	0x10130
 6729 2c76 15       		.uleb128 0x15
 6730 2c77 63050000 		.4byte	.LASF1083
 6731 2c7b 31010100 		.4byte	0x10131
 6732 2c7f 15       		.uleb128 0x15
 6733 2c80 240A0000 		.4byte	.LASF1084
 6734 2c84 32010100 		.4byte	0x10132
 6735 2c88 15       		.uleb128 0x15
 6736 2c89 82460000 		.4byte	.LASF1085
 6737 2c8d 33010100 		.4byte	0x10133
 6738 2c91 00       		.byte	0
 6739 2c92 09       		.uleb128 0x9
 6740 2c93 FE360000 		.4byte	.LASF1086
 6741 2c97 14       		.byte	0x14
 6742 2c98 4709     		.2byte	0x947
 6743 2c9a 9E2C0000 		.4byte	0x2c9e
 6744 2c9e 18       		.uleb128 0x18
 6745 2c9f 04       		.byte	0x4
 6746 2ca0 A42C0000 		.4byte	0x2ca4
 6747 2ca4 22       		.uleb128 0x22
 6748 2ca5 65160000 		.4byte	0x1665
 6749 2ca9 B82C0000 		.4byte	0x2cb8
 6750 2cad 1F       		.uleb128 0x1f
 6751 2cae B9000000 		.4byte	0xb9
 6752 2cb2 1F       		.uleb128 0x1f
 6753 2cb3 9A000000 		.4byte	0x9a
 6754 2cb7 00       		.byte	0
 6755 2cb8 16       		.uleb128 0x16
 6756 2cb9 0C       		.byte	0xc
 6757 2cba 14       		.byte	0x14
 6758 2cbb 4A09     		.2byte	0x94a
 6759 2cbd DC2C0000 		.4byte	0x2cdc
 6760 2cc1 17       		.uleb128 0x17
 6761 2cc2 7F510000 		.4byte	.LASF1087
 6762 2cc6 14       		.byte	0x14
 6763 2cc7 4D09     		.2byte	0x94d
 6764 2cc9 DC2C0000 		.4byte	0x2cdc
 6765 2ccd 00       		.byte	0
 6766 2cce 17       		.uleb128 0x17
 6767 2ccf A44B0000 		.4byte	.LASF1088
 6768 2cd3 14       		.byte	0x14
ARM GAS  C:\Users\salaz\AppData\Local\Temp\ccj0QfQu.s 			page 154


 6769 2cd4 5009     		.2byte	0x950
 6770 2cd6 A3000000 		.4byte	0xa3
 6771 2cda 08       		.byte	0x8
 6772 2cdb 00       		.byte	0
 6773 2cdc 0F       		.uleb128 0xf
 6774 2cdd 922C0000 		.4byte	0x2c92
 6775 2ce1 EC2C0000 		.4byte	0x2cec
 6776 2ce5 10       		.uleb128 0x10
 6777 2ce6 93000000 		.4byte	0x93
 6778 2cea 01       		.byte	0x1
 6779 2ceb 00       		.byte	0
 6780 2cec 09       		.uleb128 0x9
 6781 2ced 84610000 		.4byte	.LASF1089
 6782 2cf1 14       		.byte	0x14
 6783 2cf2 5109     		.2byte	0x951
 6784 2cf4 B82C0000 		.4byte	0x2cb8
 6785 2cf8 23       		.uleb128 0x23
 6786 2cf9 17450000 		.4byte	.LASF1104
 6787 2cfd 02       		.byte	0x2
 6788 2cfe 6A03     		.2byte	0x36a
 6789 2d00 7C1C0000 		.4byte	0x1c7c
 6790 2d04 03       		.byte	0x3
 6791 2d05 162D0000 		.4byte	0x2d16
 6792 2d09 24       		.uleb128 0x24
 6793 2d0a AE000000 		.4byte	.LASF508
 6794 2d0e 02       		.byte	0x2
 6795 2d0f 6A03     		.2byte	0x36a
 6796 2d11 99130000 		.4byte	0x1399
 6797 2d15 00       		.byte	0
 6798 2d16 25       		.uleb128 0x25
 6799 2d17 D9120000 		.4byte	.LASF1091
 6800 2d1b 02       		.byte	0x2
 6801 2d1c F902     		.2byte	0x2f9
 6802 2d1e 03       		.byte	0x3
 6803 2d1f 302D0000 		.4byte	0x2d30
 6804 2d23 24       		.uleb128 0x24
 6805 2d24 1A5B0000 		.4byte	.LASF1090
 6806 2d28 02       		.byte	0x2
 6807 2d29 F902     		.2byte	0x2f9
 6808 2d2b 341C0000 		.4byte	0x1c34
 6809 2d2f 00       		.byte	0
 6810 2d30 26       		.uleb128 0x26
 6811 2d31 BD1C0000 		.4byte	.LASF1157
 6812 2d35 02       		.byte	0x2
 6813 2d36 E702     		.2byte	0x2e7
 6814 2d38 341C0000 		.4byte	0x1c34
 6815 2d3c 03       		.byte	0x3
 6816 2d3d 25       		.uleb128 0x25
 6817 2d3e 69520000 		.4byte	.LASF1092
 6818 2d42 02       		.byte	0x2
 6819 2d43 7A03     		.2byte	0x37a
 6820 2d45 03       		.byte	0x3
 6821 2d46 632D0000 		.4byte	0x2d63
 6822 2d4a 24       		.uleb128 0x24
 6823 2d4b AE000000 		.4byte	.LASF508
 6824 2d4f 02       		.byte	0x2
 6825 2d50 7A03     		.2byte	0x37a
ARM GAS  C:\Users\salaz\AppData\Local\Temp\ccj0QfQu.s 			page 155


 6826 2d52 99130000 		.4byte	0x1399
 6827 2d56 24       		.uleb128 0x24
 6828 2d57 1A5B0000 		.4byte	.LASF1090
 6829 2d5b 02       		.byte	0x2
 6830 2d5c 7B03     		.2byte	0x37b
 6831 2d5e 7C1C0000 		.4byte	0x1c7c
 6832 2d62 00       		.byte	0
 6833 2d63 27       		.uleb128 0x27
 6834 2d64 E5360000 		.4byte	.LASF1158
 6835 2d68 01       		.byte	0x1
 6836 2d69 A7       		.byte	0xa7
 6837 2d6a 00000000 		.4byte	.LFB160
 6838 2d6e 44000000 		.4byte	.LFE160-.LFB160
 6839 2d72 01       		.uleb128 0x1
 6840 2d73 9C       		.byte	0x9c
 6841 2d74 E02D0000 		.4byte	0x2de0
 6842 2d78 28       		.uleb128 0x28
 6843 2d79 69290000 		.4byte	.LASF1093
 6844 2d7d 01       		.byte	0x1
 6845 2d7e A7       		.byte	0xa7
 6846 2d7f E02D0000 		.4byte	0x2de0
 6847 2d83 00000000 		.4byte	.LLST0
 6848 2d87 28       		.uleb128 0x28
 6849 2d88 87300000 		.4byte	.LASF1094
 6850 2d8c 01       		.byte	0x1
 6851 2d8d A8       		.byte	0xa8
 6852 2d8e 65160000 		.4byte	0x1665
 6853 2d92 2C000000 		.4byte	.LLST1
 6854 2d96 29       		.uleb128 0x29
 6855 2d97 BB390000 		.4byte	.LASF1096
 6856 2d9b 01       		.byte	0x1
 6857 2d9c AA       		.byte	0xaa
 6858 2d9d AB170000 		.4byte	0x17ab
 6859 2da1 02       		.uleb128 0x2
 6860 2da2 91       		.byte	0x91
 6861 2da3 68       		.sleb128 -24
 6862 2da4 2A       		.uleb128 0x2a
 6863 2da5 12000000 		.4byte	.LVL3
 6864 2da9 FC390000 		.4byte	0x39fc
 6865 2dad C22D0000 		.4byte	0x2dc2
 6866 2db1 2B       		.uleb128 0x2b
 6867 2db2 01       		.uleb128 0x1
 6868 2db3 50       		.byte	0x50
 6869 2db4 02       		.uleb128 0x2
 6870 2db5 7D       		.byte	0x7d
 6871 2db6 00       		.sleb128 0
 6872 2db7 2B       		.uleb128 0x2b
 6873 2db8 01       		.uleb128 0x1
 6874 2db9 51       		.byte	0x51
 6875 2dba 01       		.uleb128 0x1
 6876 2dbb 30       		.byte	0x30
 6877 2dbc 2B       		.uleb128 0x2b
 6878 2dbd 01       		.uleb128 0x1
 6879 2dbe 52       		.byte	0x52
 6880 2dbf 01       		.uleb128 0x1
 6881 2dc0 36       		.byte	0x36
 6882 2dc1 00       		.byte	0
ARM GAS  C:\Users\salaz\AppData\Local\Temp\ccj0QfQu.s 			page 156


 6883 2dc2 2A       		.uleb128 0x2a
 6884 2dc3 34000000 		.4byte	.LVL4
 6885 2dc7 053A0000 		.4byte	0x3a05
 6886 2dcb D62D0000 		.4byte	0x2dd6
 6887 2dcf 2B       		.uleb128 0x2b
 6888 2dd0 01       		.uleb128 0x1
 6889 2dd1 50       		.byte	0x50
 6890 2dd2 02       		.uleb128 0x2
 6891 2dd3 7D       		.byte	0x7d
 6892 2dd4 00       		.sleb128 0
 6893 2dd5 00       		.byte	0
 6894 2dd6 2C       		.uleb128 0x2c
 6895 2dd7 3C000000 		.4byte	.LVL5
 6896 2ddb 113A0000 		.4byte	0x3a11
 6897 2ddf 00       		.byte	0
 6898 2de0 18       		.uleb128 0x18
 6899 2de1 04       		.byte	0x4
 6900 2de2 E62D0000 		.4byte	0x2de6
 6901 2de6 0B       		.uleb128 0xb
 6902 2de7 F91D0000 		.4byte	0x1df9
 6903 2deb 2D       		.uleb128 0x2d
 6904 2dec 565C0000 		.4byte	.LASF1099
 6905 2df0 01       		.byte	0x1
 6906 2df1 55       		.byte	0x55
 6907 2df2 61120000 		.4byte	0x1261
 6908 2df6 00000000 		.4byte	.LFB158
 6909 2dfa 60000000 		.4byte	.LFE158-.LFB158
 6910 2dfe 01       		.uleb128 0x1
 6911 2dff 9C       		.byte	0x9c
 6912 2e00 472E0000 		.4byte	0x2e47
 6913 2e04 28       		.uleb128 0x28
 6914 2e05 55340000 		.4byte	.LASF1095
 6915 2e09 01       		.byte	0x1
 6916 2e0a 55       		.byte	0x55
 6917 2e0b 922C0000 		.4byte	0x2c92
 6918 2e0f 4D000000 		.4byte	.LLST2
 6919 2e13 2E       		.uleb128 0x2e
 6920 2e14 89760000 		.4byte	.LASF1097
 6921 2e18 01       		.byte	0x1
 6922 2e19 57       		.byte	0x57
 6923 2e1a 61120000 		.4byte	0x1261
 6924 2e1e 6E000000 		.4byte	.LLST3
 6925 2e22 2E       		.uleb128 0x2e
 6926 2e23 03050000 		.4byte	.LASF1098
 6927 2e27 01       		.byte	0x1
 6928 2e28 58       		.byte	0x58
 6929 2e29 A3000000 		.4byte	0xa3
 6930 2e2d 8D000000 		.4byte	.LLST4
 6931 2e31 2F       		.uleb128 0x2f
 6932 2e32 00000000 		.4byte	.Ldebug_ranges0+0
 6933 2e36 30       		.uleb128 0x30
 6934 2e37 69647800 		.ascii	"idx\000"
 6935 2e3b 01       		.byte	0x1
 6936 2e3c 61       		.byte	0x61
 6937 2e3d B9000000 		.4byte	0xb9
 6938 2e41 CE000000 		.4byte	.LLST5
 6939 2e45 00       		.byte	0
ARM GAS  C:\Users\salaz\AppData\Local\Temp\ccj0QfQu.s 			page 157


 6940 2e46 00       		.byte	0
 6941 2e47 2D       		.uleb128 0x2d
 6942 2e48 AA350000 		.4byte	.LASF1100
 6943 2e4c 01       		.byte	0x1
 6944 2e4d 88       		.byte	0x88
 6945 2e4e 65160000 		.4byte	0x1665
 6946 2e52 00000000 		.4byte	.LFB159
 6947 2e56 34000000 		.4byte	.LFE159-.LFB159
 6948 2e5a 01       		.uleb128 0x1
 6949 2e5b 9C       		.byte	0x9c
 6950 2e5c AF2E0000 		.4byte	0x2eaf
 6951 2e60 28       		.uleb128 0x28
 6952 2e61 DA600000 		.4byte	.LASF1101
 6953 2e65 01       		.byte	0x1
 6954 2e66 88       		.byte	0x88
 6955 2e67 B9000000 		.4byte	0xb9
 6956 2e6b EC000000 		.4byte	.LLST6
 6957 2e6f 28       		.uleb128 0x28
 6958 2e70 69290000 		.4byte	.LASF1093
 6959 2e74 01       		.byte	0x1
 6960 2e75 89       		.byte	0x89
 6961 2e76 9A000000 		.4byte	0x9a
 6962 2e7a 18010000 		.4byte	.LLST7
 6963 2e7e 30       		.uleb128 0x30
 6964 2e7f 69647800 		.ascii	"idx\000"
 6965 2e83 01       		.byte	0x1
 6966 2e84 8B       		.byte	0x8b
 6967 2e85 B9000000 		.4byte	0xb9
 6968 2e89 44010000 		.4byte	.LLST8
 6969 2e8d 2E       		.uleb128 0x2e
 6970 2e8e 87300000 		.4byte	.LASF1094
 6971 2e92 01       		.byte	0x1
 6972 2e93 8C       		.byte	0x8c
 6973 2e94 65160000 		.4byte	0x1665
 6974 2e98 63010000 		.4byte	.LLST9
 6975 2e9c 31       		.uleb128 0x31
 6976 2e9d 18000000 		.4byte	.LVL25
 6977 2ea1 2B       		.uleb128 0x2b
 6978 2ea2 01       		.uleb128 0x1
 6979 2ea3 50       		.byte	0x50
 6980 2ea4 02       		.uleb128 0x2
 6981 2ea5 76       		.byte	0x76
 6982 2ea6 00       		.sleb128 0
 6983 2ea7 2B       		.uleb128 0x2b
 6984 2ea8 01       		.uleb128 0x1
 6985 2ea9 51       		.byte	0x51
 6986 2eaa 02       		.uleb128 0x2
 6987 2eab 75       		.byte	0x75
 6988 2eac 00       		.sleb128 0
 6989 2ead 00       		.byte	0
 6990 2eae 00       		.byte	0
 6991 2eaf 32       		.uleb128 0x32
 6992 2eb0 E3340000 		.4byte	.LASF1102
 6993 2eb4 01       		.byte	0x1
 6994 2eb5 1601     		.2byte	0x116
 6995 2eb7 A3000000 		.4byte	0xa3
 6996 2ebb 00000000 		.4byte	.LFB162
ARM GAS  C:\Users\salaz\AppData\Local\Temp\ccj0QfQu.s 			page 158


 6997 2ebf 22000000 		.4byte	.LFE162-.LFB162
 6998 2ec3 01       		.uleb128 0x1
 6999 2ec4 9C       		.byte	0x9c
 7000 2ec5 F82E0000 		.4byte	0x2ef8
 7001 2ec9 33       		.uleb128 0x33
 7002 2eca 70280000 		.4byte	.LASF775
 7003 2ece 01       		.byte	0x1
 7004 2ecf 1601     		.2byte	0x116
 7005 2ed1 F82E0000 		.4byte	0x2ef8
 7006 2ed5 8D010000 		.4byte	.LLST10
 7007 2ed9 34       		.uleb128 0x34
 7008 2eda 6E450000 		.4byte	.LASF1103
 7009 2ede 01       		.byte	0x1
 7010 2edf 1801     		.2byte	0x118
 7011 2ee1 A3000000 		.4byte	0xa3
 7012 2ee5 E0010000 		.4byte	.LLST11
 7013 2ee9 35       		.uleb128 0x35
 7014 2eea 6900     		.ascii	"i\000"
 7015 2eec 01       		.byte	0x1
 7016 2eed 1901     		.2byte	0x119
 7017 2eef B9000000 		.4byte	0xb9
 7018 2ef3 FF010000 		.4byte	.LLST12
 7019 2ef7 00       		.byte	0
 7020 2ef8 18       		.uleb128 0x18
 7021 2ef9 04       		.byte	0x4
 7022 2efa FE2E0000 		.4byte	0x2efe
 7023 2efe 0B       		.uleb128 0xb
 7024 2eff E8180000 		.4byte	0x18e8
 7025 2f03 23       		.uleb128 0x23
 7026 2f04 3D0C0000 		.4byte	.LASF1105
 7027 2f08 02       		.byte	0x2
 7028 2f09 B303     		.2byte	0x3b3
 7029 2f0b 99130000 		.4byte	0x1399
 7030 2f0f 03       		.byte	0x3
 7031 2f10 372F0000 		.4byte	0x2f37
 7032 2f14 24       		.uleb128 0x24
 7033 2f15 03340000 		.4byte	.LASF497
 7034 2f19 02       		.byte	0x2
 7035 2f1a B303     		.2byte	0x3b3
 7036 2f1c A3000000 		.4byte	0xa3
 7037 2f20 36       		.uleb128 0x36
 7038 2f21 6900     		.ascii	"i\000"
 7039 2f23 02       		.byte	0x2
 7040 2f24 B503     		.2byte	0x3b5
 7041 2f26 B9000000 		.4byte	0xb9
 7042 2f2a 37       		.uleb128 0x37
 7043 2f2b 7E4F0000 		.4byte	.LASF1106
 7044 2f2f 02       		.byte	0x2
 7045 2f30 B603     		.2byte	0x3b6
 7046 2f32 99130000 		.4byte	0x1399
 7047 2f36 00       		.byte	0
 7048 2f37 38       		.uleb128 0x38
 7049 2f38 4F020000 		.4byte	.LASF1159
 7050 2f3c 01       		.byte	0x1
 7051 2f3d 3901     		.2byte	0x139
 7052 2f3f 00000000 		.4byte	.LFB163
 7053 2f43 6C070000 		.4byte	.LFE163-.LFB163
ARM GAS  C:\Users\salaz\AppData\Local\Temp\ccj0QfQu.s 			page 159


 7054 2f47 01       		.uleb128 0x1
 7055 2f48 9C       		.byte	0x9c
 7056 2f49 62380000 		.4byte	0x3862
 7057 2f4d 33       		.uleb128 0x33
 7058 2f4e AD150000 		.4byte	.LASF1107
 7059 2f52 01       		.byte	0x1
 7060 2f53 3901     		.2byte	0x139
 7061 2f55 3C110000 		.4byte	0x113c
 7062 2f59 1D020000 		.4byte	.LLST13
 7063 2f5d 33       		.uleb128 0x33
 7064 2f5e 37360000 		.4byte	.LASF1108
 7065 2f62 01       		.byte	0x1
 7066 2f63 3A01     		.2byte	0x13a
 7067 2f65 9A000000 		.4byte	0x9a
 7068 2f69 32040000 		.4byte	.LLST14
 7069 2f6d 39       		.uleb128 0x39
 7070 2f6e 20010000 		.4byte	.LBB88
 7071 2f72 46000000 		.4byte	.LBE88-.LBB88
 7072 2f76 8B2F0000 		.4byte	0x2f8b
 7073 2f7a 34       		.uleb128 0x34
 7074 2f7b BD610000 		.4byte	.LASF1109
 7075 2f7f 01       		.byte	0x1
 7076 2f80 5501     		.2byte	0x155
 7077 2f82 B9000000 		.4byte	0xb9
 7078 2f86 5E040000 		.4byte	.LLST15
 7079 2f8a 00       		.byte	0
 7080 2f8b 39       		.uleb128 0x39
 7081 2f8c 90010000 		.4byte	.LBB89
 7082 2f90 10000000 		.4byte	.LBE89-.LBB89
 7083 2f94 DA2F0000 		.4byte	0x2fda
 7084 2f98 3A       		.uleb128 0x3a
 7085 2f99 3D200000 		.4byte	.LASF1110
 7086 2f9d 01       		.byte	0x1
 7087 2f9e 6D01     		.2byte	0x16d
 7088 2fa0 A10D0000 		.4byte	0xda1
 7089 2fa4 02       		.uleb128 0x2
 7090 2fa5 91       		.byte	0x91
 7091 2fa6 4C       		.sleb128 -52
 7092 2fa7 2A       		.uleb128 0x2a
 7093 2fa8 9A010000 		.4byte	.LVL52
 7094 2fac 1D3A0000 		.4byte	0x3a1d
 7095 2fb0 C92F0000 		.4byte	0x2fc9
 7096 2fb4 2B       		.uleb128 0x2b
 7097 2fb5 01       		.uleb128 0x1
 7098 2fb6 50       		.byte	0x50
 7099 2fb7 02       		.uleb128 0x2
 7100 2fb8 91       		.byte	0x91
 7101 2fb9 4C       		.sleb128 -52
 7102 2fba 2B       		.uleb128 0x2b
 7103 2fbb 01       		.uleb128 0x1
 7104 2fbc 51       		.byte	0x51
 7105 2fbd 05       		.uleb128 0x5
 7106 2fbe 03       		.byte	0x3
 7107 2fbf 00000000 		.4byte	.LANCHOR0
 7108 2fc3 2B       		.uleb128 0x2b
 7109 2fc4 01       		.uleb128 0x1
 7110 2fc5 52       		.byte	0x52
ARM GAS  C:\Users\salaz\AppData\Local\Temp\ccj0QfQu.s 			page 160


 7111 2fc6 01       		.uleb128 0x1
 7112 2fc7 38       		.byte	0x38
 7113 2fc8 00       		.byte	0
 7114 2fc9 3B       		.uleb128 0x3b
 7115 2fca A0010000 		.4byte	.LVL53
 7116 2fce 263A0000 		.4byte	0x3a26
 7117 2fd2 2B       		.uleb128 0x2b
 7118 2fd3 01       		.uleb128 0x1
 7119 2fd4 50       		.byte	0x50
 7120 2fd5 02       		.uleb128 0x2
 7121 2fd6 91       		.byte	0x91
 7122 2fd7 4C       		.sleb128 -52
 7123 2fd8 00       		.byte	0
 7124 2fd9 00       		.byte	0
 7125 2fda 3C       		.uleb128 0x3c
 7126 2fdb 162D0000 		.4byte	0x2d16
 7127 2fdf AE010000 		.4byte	.LBB90
 7128 2fe3 04000000 		.4byte	.LBE90-.LBB90
 7129 2fe7 01       		.byte	0x1
 7130 2fe8 7A01     		.2byte	0x17a
 7131 2fea F82F0000 		.4byte	0x2ff8
 7132 2fee 3D       		.uleb128 0x3d
 7133 2fef 232D0000 		.4byte	0x2d23
 7134 2ff3 71040000 		.4byte	.LLST16
 7135 2ff7 00       		.byte	0
 7136 2ff8 39       		.uleb128 0x39
 7137 2ff9 C2010000 		.4byte	.LBB92
 7138 2ffd 40000000 		.4byte	.LBE92-.LBB92
 7139 3001 57300000 		.4byte	0x3057
 7140 3005 3A       		.uleb128 0x3a
 7141 3006 D9010000 		.4byte	.LASF1111
 7142 300a 01       		.byte	0x1
 7143 300b 9501     		.2byte	0x195
 7144 300d F9130000 		.4byte	0x13f9
 7145 3011 02       		.uleb128 0x2
 7146 3012 91       		.byte	0x91
 7147 3013 4C       		.sleb128 -52
 7148 3014 2A       		.uleb128 0x2a
 7149 3015 CE010000 		.4byte	.LVL60
 7150 3019 FC390000 		.4byte	0x39fc
 7151 301d 32300000 		.4byte	0x3032
 7152 3021 2B       		.uleb128 0x2b
 7153 3022 01       		.uleb128 0x1
 7154 3023 50       		.byte	0x50
 7155 3024 02       		.uleb128 0x2
 7156 3025 76       		.byte	0x76
 7157 3026 00       		.sleb128 0
 7158 3027 2B       		.uleb128 0x2b
 7159 3028 01       		.uleb128 0x1
 7160 3029 51       		.byte	0x51
 7161 302a 01       		.uleb128 0x1
 7162 302b 30       		.byte	0x30
 7163 302c 2B       		.uleb128 0x2b
 7164 302d 01       		.uleb128 0x1
 7165 302e 52       		.byte	0x52
 7166 302f 01       		.uleb128 0x1
 7167 3030 33       		.byte	0x33
ARM GAS  C:\Users\salaz\AppData\Local\Temp\ccj0QfQu.s 			page 161


 7168 3031 00       		.byte	0
 7169 3032 2A       		.uleb128 0x2a
 7170 3033 E0010000 		.4byte	.LVL61
 7171 3037 323A0000 		.4byte	0x3a32
 7172 303b 46300000 		.4byte	0x3046
 7173 303f 2B       		.uleb128 0x2b
 7174 3040 01       		.uleb128 0x1
 7175 3041 50       		.byte	0x50
 7176 3042 02       		.uleb128 0x2
 7177 3043 76       		.byte	0x76
 7178 3044 00       		.sleb128 0
 7179 3045 00       		.byte	0
 7180 3046 3B       		.uleb128 0x3b
 7181 3047 F8010000 		.4byte	.LVL62
 7182 304b 323A0000 		.4byte	0x3a32
 7183 304f 2B       		.uleb128 0x2b
 7184 3050 01       		.uleb128 0x1
 7185 3051 50       		.byte	0x50
 7186 3052 02       		.uleb128 0x2
 7187 3053 76       		.byte	0x76
 7188 3054 00       		.sleb128 0
 7189 3055 00       		.byte	0
 7190 3056 00       		.byte	0
 7191 3057 3C       		.uleb128 0x3c
 7192 3058 032F0000 		.4byte	0x2f03
 7193 305c 0E020000 		.4byte	.LBB93
 7194 3060 70000000 		.4byte	.LBE93-.LBB93
 7195 3064 01       		.byte	0x1
 7196 3065 B101     		.2byte	0x1b1
 7197 3067 02310000 		.4byte	0x3102
 7198 306b 3D       		.uleb128 0x3d
 7199 306c 142F0000 		.4byte	0x2f14
 7200 3070 85040000 		.4byte	.LLST17
 7201 3074 3E       		.uleb128 0x3e
 7202 3075 0E020000 		.4byte	.LBB94
 7203 3079 70000000 		.4byte	.LBE94-.LBB94
 7204 307d 3F       		.uleb128 0x3f
 7205 307e 202F0000 		.4byte	0x2f20
 7206 3082 98040000 		.4byte	.LLST18
 7207 3086 40       		.uleb128 0x40
 7208 3087 2A2F0000 		.4byte	0x2f2a
 7209 308b 02       		.uleb128 0x2
 7210 308c 91       		.byte	0x91
 7211 308d 4C       		.sleb128 -52
 7212 308e 3C       		.uleb128 0x3c
 7213 308f F82C0000 		.4byte	0x2cf8
 7214 3093 2E020000 		.4byte	.LBB95
 7215 3097 0E000000 		.4byte	.LBE95-.LBB95
 7216 309b 02       		.byte	0x2
 7217 309c BE03     		.2byte	0x3be
 7218 309e AB300000 		.4byte	0x30ab
 7219 30a2 41       		.uleb128 0x41
 7220 30a3 092D0000 		.4byte	0x2d09
 7221 30a7 02       		.uleb128 0x2
 7222 30a8 91       		.byte	0x91
 7223 30a9 40       		.sleb128 -64
 7224 30aa 00       		.byte	0
ARM GAS  C:\Users\salaz\AppData\Local\Temp\ccj0QfQu.s 			page 162


 7225 30ab 2A       		.uleb128 0x2a
 7226 30ac 1A020000 		.4byte	.LVL68
 7227 30b0 1D3A0000 		.4byte	0x3a1d
 7228 30b4 CD300000 		.4byte	0x30cd
 7229 30b8 2B       		.uleb128 0x2b
 7230 30b9 01       		.uleb128 0x1
 7231 30ba 50       		.byte	0x50
 7232 30bb 02       		.uleb128 0x2
 7233 30bc 91       		.byte	0x91
 7234 30bd 4C       		.sleb128 -52
 7235 30be 2B       		.uleb128 0x2b
 7236 30bf 01       		.uleb128 0x1
 7237 30c0 51       		.byte	0x51
 7238 30c1 05       		.uleb128 0x5
 7239 30c2 03       		.byte	0x3
 7240 30c3 08000000 		.4byte	.LANCHOR0+8
 7241 30c7 2B       		.uleb128 0x2b
 7242 30c8 01       		.uleb128 0x1
 7243 30c9 52       		.byte	0x52
 7244 30ca 01       		.uleb128 0x1
 7245 30cb 32       		.byte	0x32
 7246 30cc 00       		.byte	0
 7247 30cd 2A       		.uleb128 0x2a
 7248 30ce 56020000 		.4byte	.LVL72
 7249 30d2 1D3A0000 		.4byte	0x3a1d
 7250 30d6 E6300000 		.4byte	0x30e6
 7251 30da 2B       		.uleb128 0x2b
 7252 30db 01       		.uleb128 0x1
 7253 30dc 50       		.byte	0x50
 7254 30dd 02       		.uleb128 0x2
 7255 30de 91       		.byte	0x91
 7256 30df 4C       		.sleb128 -52
 7257 30e0 2B       		.uleb128 0x2b
 7258 30e1 01       		.uleb128 0x1
 7259 30e2 52       		.byte	0x52
 7260 30e3 01       		.uleb128 0x1
 7261 30e4 32       		.byte	0x32
 7262 30e5 00       		.byte	0
 7263 30e6 3B       		.uleb128 0x3b
 7264 30e7 72020000 		.4byte	.LVL76
 7265 30eb 3E3A0000 		.4byte	0x3a3e
 7266 30ef 2B       		.uleb128 0x2b
 7267 30f0 01       		.uleb128 0x1
 7268 30f1 50       		.byte	0x50
 7269 30f2 05       		.uleb128 0x5
 7270 30f3 03       		.byte	0x3
 7271 30f4 00000000 		.4byte	.LC15
 7272 30f8 2B       		.uleb128 0x2b
 7273 30f9 01       		.uleb128 0x1
 7274 30fa 51       		.byte	0x51
 7275 30fb 03       		.uleb128 0x3
 7276 30fc 0A       		.byte	0xa
 7277 30fd C803     		.2byte	0x3c8
 7278 30ff 00       		.byte	0
 7279 3100 00       		.byte	0
 7280 3101 00       		.byte	0
 7281 3102 39       		.uleb128 0x39
ARM GAS  C:\Users\salaz\AppData\Local\Temp\ccj0QfQu.s 			page 163


 7282 3103 88020000 		.4byte	.LBB97
 7283 3107 2A000000 		.4byte	.LBE97-.LBB97
 7284 310b 3C310000 		.4byte	0x313c
 7285 310f 34       		.uleb128 0x34
 7286 3110 18740000 		.4byte	.LASF1112
 7287 3114 01       		.byte	0x1
 7288 3115 B901     		.2byte	0x1b9
 7289 3117 62380000 		.4byte	0x3862
 7290 311b C2040000 		.4byte	.LLST19
 7291 311f 3E       		.uleb128 0x3e
 7292 3120 96020000 		.4byte	.LBB98
 7293 3124 10000000 		.4byte	.LBE98-.LBB98
 7294 3128 3A       		.uleb128 0x3a
 7295 3129 1A380000 		.4byte	.LASF1113
 7296 312d 01       		.byte	0x1
 7297 312e C001     		.2byte	0x1c0
 7298 3130 F5170000 		.4byte	0x17f5
 7299 3134 05       		.uleb128 0x5
 7300 3135 03       		.byte	0x3
 7301 3136 00000000 		.4byte	gPrepWriteReqMem.12445
 7302 313a 00       		.byte	0
 7303 313b 00       		.byte	0
 7304 313c 39       		.uleb128 0x39
 7305 313d B2020000 		.4byte	.LBB99
 7306 3141 12010000 		.4byte	.LBE99-.LBB99
 7307 3145 00320000 		.4byte	0x3200
 7308 3149 3A       		.uleb128 0x3a
 7309 314a 06750000 		.4byte	.LASF1114
 7310 314e 01       		.byte	0x1
 7311 314f DA01     		.2byte	0x1da
 7312 3151 99130000 		.4byte	0x1399
 7313 3155 02       		.uleb128 0x2
 7314 3156 91       		.byte	0x91
 7315 3157 4C       		.sleb128 -52
 7316 3158 42       		.uleb128 0x42
 7317 3159 032F0000 		.4byte	0x2f03
 7318 315d B6020000 		.4byte	.LBB100
 7319 3161 06010000 		.4byte	.LBE100-.LBB100
 7320 3165 01       		.byte	0x1
 7321 3166 DB01     		.2byte	0x1db
 7322 3168 3D       		.uleb128 0x3d
 7323 3169 142F0000 		.4byte	0x2f14
 7324 316d D5040000 		.4byte	.LLST20
 7325 3171 3E       		.uleb128 0x3e
 7326 3172 B6020000 		.4byte	.LBB101
 7327 3176 06010000 		.4byte	.LBE101-.LBB101
 7328 317a 3F       		.uleb128 0x3f
 7329 317b 202F0000 		.4byte	0x2f20
 7330 317f E8040000 		.4byte	.LLST21
 7331 3183 40       		.uleb128 0x40
 7332 3184 2A2F0000 		.4byte	0x2f2a
 7333 3188 02       		.uleb128 0x2
 7334 3189 91       		.byte	0x91
 7335 318a 4C       		.sleb128 -52
 7336 318b 3C       		.uleb128 0x3c
 7337 318c F82C0000 		.4byte	0x2cf8
 7338 3190 D6020000 		.4byte	.LBB102
ARM GAS  C:\Users\salaz\AppData\Local\Temp\ccj0QfQu.s 			page 164


 7339 3194 0E000000 		.4byte	.LBE102-.LBB102
 7340 3198 02       		.byte	0x2
 7341 3199 BE03     		.2byte	0x3be
 7342 319b A8310000 		.4byte	0x31a8
 7343 319f 41       		.uleb128 0x41
 7344 31a0 092D0000 		.4byte	0x2d09
 7345 31a4 02       		.uleb128 0x2
 7346 31a5 91       		.byte	0x91
 7347 31a6 44       		.sleb128 -60
 7348 31a7 00       		.byte	0
 7349 31a8 2A       		.uleb128 0x2a
 7350 31a9 C2020000 		.4byte	.LVL82
 7351 31ad 1D3A0000 		.4byte	0x3a1d
 7352 31b1 CA310000 		.4byte	0x31ca
 7353 31b5 2B       		.uleb128 0x2b
 7354 31b6 01       		.uleb128 0x1
 7355 31b7 50       		.byte	0x50
 7356 31b8 02       		.uleb128 0x2
 7357 31b9 91       		.byte	0x91
 7358 31ba 4C       		.sleb128 -52
 7359 31bb 2B       		.uleb128 0x2b
 7360 31bc 01       		.uleb128 0x1
 7361 31bd 51       		.byte	0x51
 7362 31be 05       		.uleb128 0x5
 7363 31bf 03       		.byte	0x3
 7364 31c0 08000000 		.4byte	.LANCHOR0+8
 7365 31c4 2B       		.uleb128 0x2b
 7366 31c5 01       		.uleb128 0x1
 7367 31c6 52       		.byte	0x52
 7368 31c7 01       		.uleb128 0x1
 7369 31c8 32       		.byte	0x32
 7370 31c9 00       		.byte	0
 7371 31ca 2A       		.uleb128 0x2a
 7372 31cb FE020000 		.4byte	.LVL86
 7373 31cf 1D3A0000 		.4byte	0x3a1d
 7374 31d3 E3310000 		.4byte	0x31e3
 7375 31d7 2B       		.uleb128 0x2b
 7376 31d8 01       		.uleb128 0x1
 7377 31d9 50       		.byte	0x50
 7378 31da 02       		.uleb128 0x2
 7379 31db 91       		.byte	0x91
 7380 31dc 4C       		.sleb128 -52
 7381 31dd 2B       		.uleb128 0x2b
 7382 31de 01       		.uleb128 0x1
 7383 31df 52       		.byte	0x52
 7384 31e0 01       		.uleb128 0x1
 7385 31e1 32       		.byte	0x32
 7386 31e2 00       		.byte	0
 7387 31e3 3B       		.uleb128 0x3b
 7388 31e4 B2030000 		.4byte	.LVL90
 7389 31e8 3E3A0000 		.4byte	0x3a3e
 7390 31ec 2B       		.uleb128 0x2b
 7391 31ed 01       		.uleb128 0x1
 7392 31ee 50       		.byte	0x50
 7393 31ef 05       		.uleb128 0x5
 7394 31f0 03       		.byte	0x3
 7395 31f1 00000000 		.4byte	.LC15
ARM GAS  C:\Users\salaz\AppData\Local\Temp\ccj0QfQu.s 			page 165


 7396 31f5 2B       		.uleb128 0x2b
 7397 31f6 01       		.uleb128 0x1
 7398 31f7 51       		.byte	0x51
 7399 31f8 03       		.uleb128 0x3
 7400 31f9 0A       		.byte	0xa
 7401 31fa C803     		.2byte	0x3c8
 7402 31fc 00       		.byte	0
 7403 31fd 00       		.byte	0
 7404 31fe 00       		.byte	0
 7405 31ff 00       		.byte	0
 7406 3200 39       		.uleb128 0x39
 7407 3201 CC030000 		.4byte	.LBB104
 7408 3205 7C000000 		.4byte	.LBE104-.LBB104
 7409 3209 C4320000 		.4byte	0x32c4
 7410 320d 3A       		.uleb128 0x3a
 7411 320e 06750000 		.4byte	.LASF1114
 7412 3212 01       		.byte	0x1
 7413 3213 E301     		.2byte	0x1e3
 7414 3215 99130000 		.4byte	0x1399
 7415 3219 02       		.uleb128 0x2
 7416 321a 91       		.byte	0x91
 7417 321b 4C       		.sleb128 -52
 7418 321c 42       		.uleb128 0x42
 7419 321d 032F0000 		.4byte	0x2f03
 7420 3221 D0030000 		.4byte	.LBB105
 7421 3225 6E000000 		.4byte	.LBE105-.LBB105
 7422 3229 01       		.byte	0x1
 7423 322a E401     		.2byte	0x1e4
 7424 322c 3D       		.uleb128 0x3d
 7425 322d 142F0000 		.4byte	0x2f14
 7426 3231 12050000 		.4byte	.LLST22
 7427 3235 3E       		.uleb128 0x3e
 7428 3236 D0030000 		.4byte	.LBB106
 7429 323a 6E000000 		.4byte	.LBE106-.LBB106
 7430 323e 3F       		.uleb128 0x3f
 7431 323f 202F0000 		.4byte	0x2f20
 7432 3243 25050000 		.4byte	.LLST23
 7433 3247 40       		.uleb128 0x40
 7434 3248 2A2F0000 		.4byte	0x2f2a
 7435 324c 02       		.uleb128 0x2
 7436 324d 91       		.byte	0x91
 7437 324e 4C       		.sleb128 -52
 7438 324f 3C       		.uleb128 0x3c
 7439 3250 F82C0000 		.4byte	0x2cf8
 7440 3254 F0030000 		.4byte	.LBB107
 7441 3258 0E000000 		.4byte	.LBE107-.LBB107
 7442 325c 02       		.byte	0x2
 7443 325d BE03     		.2byte	0x3be
 7444 325f 6C320000 		.4byte	0x326c
 7445 3263 41       		.uleb128 0x41
 7446 3264 092D0000 		.4byte	0x2d09
 7447 3268 02       		.uleb128 0x2
 7448 3269 91       		.byte	0x91
 7449 326a 48       		.sleb128 -56
 7450 326b 00       		.byte	0
 7451 326c 2A       		.uleb128 0x2a
 7452 326d DC030000 		.4byte	.LVL93
ARM GAS  C:\Users\salaz\AppData\Local\Temp\ccj0QfQu.s 			page 166


 7453 3271 1D3A0000 		.4byte	0x3a1d
 7454 3275 8E320000 		.4byte	0x328e
 7455 3279 2B       		.uleb128 0x2b
 7456 327a 01       		.uleb128 0x1
 7457 327b 50       		.byte	0x50
 7458 327c 02       		.uleb128 0x2
 7459 327d 91       		.byte	0x91
 7460 327e 4C       		.sleb128 -52
 7461 327f 2B       		.uleb128 0x2b
 7462 3280 01       		.uleb128 0x1
 7463 3281 51       		.byte	0x51
 7464 3282 05       		.uleb128 0x5
 7465 3283 03       		.byte	0x3
 7466 3284 08000000 		.4byte	.LANCHOR0+8
 7467 3288 2B       		.uleb128 0x2b
 7468 3289 01       		.uleb128 0x1
 7469 328a 52       		.byte	0x52
 7470 328b 01       		.uleb128 0x1
 7471 328c 32       		.byte	0x32
 7472 328d 00       		.byte	0
 7473 328e 2A       		.uleb128 0x2a
 7474 328f 18040000 		.4byte	.LVL97
 7475 3293 1D3A0000 		.4byte	0x3a1d
 7476 3297 A7320000 		.4byte	0x32a7
 7477 329b 2B       		.uleb128 0x2b
 7478 329c 01       		.uleb128 0x1
 7479 329d 50       		.byte	0x50
 7480 329e 02       		.uleb128 0x2
 7481 329f 91       		.byte	0x91
 7482 32a0 4C       		.sleb128 -52
 7483 32a1 2B       		.uleb128 0x2b
 7484 32a2 01       		.uleb128 0x1
 7485 32a3 52       		.byte	0x52
 7486 32a4 01       		.uleb128 0x1
 7487 32a5 32       		.byte	0x32
 7488 32a6 00       		.byte	0
 7489 32a7 3B       		.uleb128 0x3b
 7490 32a8 34040000 		.4byte	.LVL101
 7491 32ac 3E3A0000 		.4byte	0x3a3e
 7492 32b0 2B       		.uleb128 0x2b
 7493 32b1 01       		.uleb128 0x1
 7494 32b2 50       		.byte	0x50
 7495 32b3 05       		.uleb128 0x5
 7496 32b4 03       		.byte	0x3
 7497 32b5 00000000 		.4byte	.LC15
 7498 32b9 2B       		.uleb128 0x2b
 7499 32ba 01       		.uleb128 0x1
 7500 32bb 51       		.byte	0x51
 7501 32bc 03       		.uleb128 0x3
 7502 32bd 0A       		.byte	0xa
 7503 32be C803     		.2byte	0x3c8
 7504 32c0 00       		.byte	0
 7505 32c1 00       		.byte	0
 7506 32c2 00       		.byte	0
 7507 32c3 00       		.byte	0
 7508 32c4 39       		.uleb128 0x39
 7509 32c5 50040000 		.4byte	.LBB109
ARM GAS  C:\Users\salaz\AppData\Local\Temp\ccj0QfQu.s 			page 167


 7510 32c9 96000000 		.4byte	.LBE109-.LBB109
 7511 32cd C0330000 		.4byte	0x33c0
 7512 32d1 34       		.uleb128 0x34
 7513 32d2 6D5F0000 		.4byte	.LASF1115
 7514 32d6 01       		.byte	0x1
 7515 32d7 F401     		.2byte	0x1f4
 7516 32d9 68380000 		.4byte	0x3868
 7517 32dd 4F050000 		.4byte	.LLST24
 7518 32e1 3C       		.uleb128 0x3c
 7519 32e2 162D0000 		.4byte	0x2d16
 7520 32e6 5C040000 		.4byte	.LBB110
 7521 32ea 06000000 		.4byte	.LBE110-.LBB110
 7522 32ee 01       		.byte	0x1
 7523 32ef 0002     		.2byte	0x200
 7524 32f1 FF320000 		.4byte	0x32ff
 7525 32f5 3D       		.uleb128 0x3d
 7526 32f6 232D0000 		.4byte	0x2d23
 7527 32fa 62050000 		.4byte	.LLST25
 7528 32fe 00       		.byte	0
 7529 32ff 3E       		.uleb128 0x3e
 7530 3300 62040000 		.4byte	.LBB112
 7531 3304 7E000000 		.4byte	.LBE112-.LBB112
 7532 3308 3A       		.uleb128 0x3a
 7533 3309 84710000 		.4byte	.LASF1116
 7534 330d 01       		.byte	0x1
 7535 330e 0F02     		.2byte	0x20f
 7536 3310 99130000 		.4byte	0x1399
 7537 3314 02       		.uleb128 0x2
 7538 3315 91       		.byte	0x91
 7539 3316 48       		.sleb128 -56
 7540 3317 42       		.uleb128 0x42
 7541 3318 032F0000 		.4byte	0x2f03
 7542 331c 66040000 		.4byte	.LBB113
 7543 3320 6E000000 		.4byte	.LBE113-.LBB113
 7544 3324 01       		.byte	0x1
 7545 3325 0F02     		.2byte	0x20f
 7546 3327 3D       		.uleb128 0x3d
 7547 3328 142F0000 		.4byte	0x2f14
 7548 332c 76050000 		.4byte	.LLST26
 7549 3330 3E       		.uleb128 0x3e
 7550 3331 66040000 		.4byte	.LBB114
 7551 3335 6E000000 		.4byte	.LBE114-.LBB114
 7552 3339 3F       		.uleb128 0x3f
 7553 333a 202F0000 		.4byte	0x2f20
 7554 333e 89050000 		.4byte	.LLST27
 7555 3342 40       		.uleb128 0x40
 7556 3343 2A2F0000 		.4byte	0x2f2a
 7557 3347 02       		.uleb128 0x2
 7558 3348 91       		.byte	0x91
 7559 3349 48       		.sleb128 -56
 7560 334a 3C       		.uleb128 0x3c
 7561 334b F82C0000 		.4byte	0x2cf8
 7562 334f 86040000 		.4byte	.LBB115
 7563 3353 0E000000 		.4byte	.LBE115-.LBB115
 7564 3357 02       		.byte	0x2
 7565 3358 BE03     		.2byte	0x3be
 7566 335a 67330000 		.4byte	0x3367
ARM GAS  C:\Users\salaz\AppData\Local\Temp\ccj0QfQu.s 			page 168


 7567 335e 41       		.uleb128 0x41
 7568 335f 092D0000 		.4byte	0x2d09
 7569 3363 02       		.uleb128 0x2
 7570 3364 91       		.byte	0x91
 7571 3365 4C       		.sleb128 -52
 7572 3366 00       		.byte	0
 7573 3367 2A       		.uleb128 0x2a
 7574 3368 72040000 		.4byte	.LVL110
 7575 336c 1D3A0000 		.4byte	0x3a1d
 7576 3370 89330000 		.4byte	0x3389
 7577 3374 2B       		.uleb128 0x2b
 7578 3375 01       		.uleb128 0x1
 7579 3376 50       		.byte	0x50
 7580 3377 02       		.uleb128 0x2
 7581 3378 91       		.byte	0x91
 7582 3379 48       		.sleb128 -56
 7583 337a 2B       		.uleb128 0x2b
 7584 337b 01       		.uleb128 0x1
 7585 337c 51       		.byte	0x51
 7586 337d 05       		.uleb128 0x5
 7587 337e 03       		.byte	0x3
 7588 337f 08000000 		.4byte	.LANCHOR0+8
 7589 3383 2B       		.uleb128 0x2b
 7590 3384 01       		.uleb128 0x1
 7591 3385 52       		.byte	0x52
 7592 3386 01       		.uleb128 0x1
 7593 3387 32       		.byte	0x32
 7594 3388 00       		.byte	0
 7595 3389 2A       		.uleb128 0x2a
 7596 338a AE040000 		.4byte	.LVL114
 7597 338e 1D3A0000 		.4byte	0x3a1d
 7598 3392 A2330000 		.4byte	0x33a2
 7599 3396 2B       		.uleb128 0x2b
 7600 3397 01       		.uleb128 0x1
 7601 3398 50       		.byte	0x50
 7602 3399 02       		.uleb128 0x2
 7603 339a 91       		.byte	0x91
 7604 339b 48       		.sleb128 -56
 7605 339c 2B       		.uleb128 0x2b
 7606 339d 01       		.uleb128 0x1
 7607 339e 52       		.byte	0x52
 7608 339f 01       		.uleb128 0x1
 7609 33a0 32       		.byte	0x32
 7610 33a1 00       		.byte	0
 7611 33a2 3B       		.uleb128 0x3b
 7612 33a3 CA040000 		.4byte	.LVL118
 7613 33a7 3E3A0000 		.4byte	0x3a3e
 7614 33ab 2B       		.uleb128 0x2b
 7615 33ac 01       		.uleb128 0x1
 7616 33ad 50       		.byte	0x50
 7617 33ae 05       		.uleb128 0x5
 7618 33af 03       		.byte	0x3
 7619 33b0 00000000 		.4byte	.LC15
 7620 33b4 2B       		.uleb128 0x2b
 7621 33b5 01       		.uleb128 0x1
 7622 33b6 51       		.byte	0x51
 7623 33b7 03       		.uleb128 0x3
ARM GAS  C:\Users\salaz\AppData\Local\Temp\ccj0QfQu.s 			page 169


 7624 33b8 0A       		.byte	0xa
 7625 33b9 C803     		.2byte	0x3c8
 7626 33bb 00       		.byte	0
 7627 33bc 00       		.byte	0
 7628 33bd 00       		.byte	0
 7629 33be 00       		.byte	0
 7630 33bf 00       		.byte	0
 7631 33c0 43       		.uleb128 0x43
 7632 33c1 302D0000 		.4byte	0x2d30
 7633 33c5 00050000 		.4byte	.LBB117
 7634 33c9 04000000 		.4byte	.LBE117-.LBB117
 7635 33cd 01       		.byte	0x1
 7636 33ce 2802     		.2byte	0x228
 7637 33d0 3C       		.uleb128 0x3c
 7638 33d1 162D0000 		.4byte	0x2d16
 7639 33d5 08050000 		.4byte	.LBB119
 7640 33d9 08000000 		.4byte	.LBE119-.LBB119
 7641 33dd 01       		.byte	0x1
 7642 33de 2A02     		.2byte	0x22a
 7643 33e0 EE330000 		.4byte	0x33ee
 7644 33e4 3D       		.uleb128 0x3d
 7645 33e5 232D0000 		.4byte	0x2d23
 7646 33e9 B3050000 		.4byte	.LLST28
 7647 33ed 00       		.byte	0
 7648 33ee 3C       		.uleb128 0x3c
 7649 33ef 162D0000 		.4byte	0x2d16
 7650 33f3 14050000 		.4byte	.LBB121
 7651 33f7 08000000 		.4byte	.LBE121-.LBB121
 7652 33fb 01       		.byte	0x1
 7653 33fc 2F02     		.2byte	0x22f
 7654 33fe 0C340000 		.4byte	0x340c
 7655 3402 3D       		.uleb128 0x3d
 7656 3403 232D0000 		.4byte	0x2d23
 7657 3407 C7050000 		.4byte	.LLST29
 7658 340b 00       		.byte	0
 7659 340c 3C       		.uleb128 0x3c
 7660 340d 162D0000 		.4byte	0x2d16
 7661 3411 22050000 		.4byte	.LBB123
 7662 3415 06000000 		.4byte	.LBE123-.LBB123
 7663 3419 01       		.byte	0x1
 7664 341a 3502     		.2byte	0x235
 7665 341c 2A340000 		.4byte	0x342a
 7666 3420 3D       		.uleb128 0x3d
 7667 3421 232D0000 		.4byte	0x2d23
 7668 3425 DB050000 		.4byte	.LLST30
 7669 3429 00       		.byte	0
 7670 342a 3C       		.uleb128 0x3c
 7671 342b 162D0000 		.4byte	0x2d16
 7672 342f 60050000 		.4byte	.LBB125
 7673 3433 08000000 		.4byte	.LBE125-.LBB125
 7674 3437 01       		.byte	0x1
 7675 3438 3F02     		.2byte	0x23f
 7676 343a 48340000 		.4byte	0x3448
 7677 343e 3D       		.uleb128 0x3d
 7678 343f 232D0000 		.4byte	0x2d23
 7679 3443 EF050000 		.4byte	.LLST31
 7680 3447 00       		.byte	0
ARM GAS  C:\Users\salaz\AppData\Local\Temp\ccj0QfQu.s 			page 170


 7681 3448 3C       		.uleb128 0x3c
 7682 3449 3D2D0000 		.4byte	0x2d3d
 7683 344d 7A050000 		.4byte	.LBB127
 7684 3451 1E000000 		.4byte	.LBE127-.LBB127
 7685 3455 01       		.byte	0x1
 7686 3456 9002     		.2byte	0x290
 7687 3458 89340000 		.4byte	0x3489
 7688 345c 3D       		.uleb128 0x3d
 7689 345d 562D0000 		.4byte	0x2d56
 7690 3461 03060000 		.4byte	.LLST32
 7691 3465 41       		.uleb128 0x41
 7692 3466 4A2D0000 		.4byte	0x2d4a
 7693 346a 03       		.uleb128 0x3
 7694 346b 91       		.byte	0x91
 7695 346c B87F     		.sleb128 -72
 7696 346e 3B       		.uleb128 0x3b
 7697 346f 98050000 		.4byte	.LVL135
 7698 3473 3E3A0000 		.4byte	0x3a3e
 7699 3477 2B       		.uleb128 0x2b
 7700 3478 01       		.uleb128 0x1
 7701 3479 50       		.byte	0x50
 7702 347a 05       		.uleb128 0x5
 7703 347b 03       		.byte	0x3
 7704 347c 00000000 		.4byte	.LC15
 7705 3480 2B       		.uleb128 0x2b
 7706 3481 01       		.uleb128 0x1
 7707 3482 51       		.byte	0x51
 7708 3483 03       		.uleb128 0x3
 7709 3484 0A       		.byte	0xa
 7710 3485 8403     		.2byte	0x384
 7711 3487 00       		.byte	0
 7712 3488 00       		.byte	0
 7713 3489 39       		.uleb128 0x39
 7714 348a DC050000 		.4byte	.LBB129
 7715 348e 44000000 		.4byte	.LBE129-.LBB129
 7716 3492 E6340000 		.4byte	0x34e6
 7717 3496 34       		.uleb128 0x34
 7718 3497 3A120000 		.4byte	.LASF1117
 7719 349b 01       		.byte	0x1
 7720 349c A102     		.2byte	0x2a1
 7721 349e A3000000 		.4byte	0xa3
 7722 34a2 17060000 		.4byte	.LLST33
 7723 34a6 2A       		.uleb128 0x2a
 7724 34a7 EE050000 		.4byte	.LVL138
 7725 34ab 4A3A0000 		.4byte	0x3a4a
 7726 34af B9340000 		.4byte	0x34b9
 7727 34b3 2B       		.uleb128 0x2b
 7728 34b4 01       		.uleb128 0x1
 7729 34b5 51       		.byte	0x51
 7730 34b6 01       		.uleb128 0x1
 7731 34b7 3A       		.byte	0x3a
 7732 34b8 00       		.byte	0
 7733 34b9 44       		.uleb128 0x44
 7734 34ba 0A060000 		.4byte	.LVL140
 7735 34be D1340000 		.4byte	0x34d1
 7736 34c2 2B       		.uleb128 0x2b
 7737 34c3 01       		.uleb128 0x1
ARM GAS  C:\Users\salaz\AppData\Local\Temp\ccj0QfQu.s 			page 171


 7738 34c4 50       		.byte	0x50
 7739 34c5 05       		.uleb128 0x5
 7740 34c6 0C       		.byte	0xc
 7741 34c7 04000100 		.4byte	0x10004
 7742 34cb 2B       		.uleb128 0x2b
 7743 34cc 01       		.uleb128 0x1
 7744 34cd 51       		.byte	0x51
 7745 34ce 01       		.uleb128 0x1
 7746 34cf 30       		.byte	0x30
 7747 34d0 00       		.byte	0
 7748 34d1 3B       		.uleb128 0x3b
 7749 34d2 20060000 		.4byte	.LVL141
 7750 34d6 FC390000 		.4byte	0x39fc
 7751 34da 2B       		.uleb128 0x2b
 7752 34db 01       		.uleb128 0x1
 7753 34dc 51       		.byte	0x51
 7754 34dd 01       		.uleb128 0x1
 7755 34de 30       		.byte	0x30
 7756 34df 2B       		.uleb128 0x2b
 7757 34e0 01       		.uleb128 0x1
 7758 34e1 52       		.byte	0x52
 7759 34e2 01       		.uleb128 0x1
 7760 34e3 3B       		.byte	0x3b
 7761 34e4 00       		.byte	0
 7762 34e5 00       		.byte	0
 7763 34e6 3C       		.uleb128 0x3c
 7764 34e7 3D2D0000 		.4byte	0x2d3d
 7765 34eb 36060000 		.4byte	.LBB130
 7766 34ef 1C000000 		.4byte	.LBE130-.LBB130
 7767 34f3 01       		.byte	0x1
 7768 34f4 BE02     		.2byte	0x2be
 7769 34f6 27350000 		.4byte	0x3527
 7770 34fa 3D       		.uleb128 0x3d
 7771 34fb 562D0000 		.4byte	0x2d56
 7772 34ff 2A060000 		.4byte	.LLST34
 7773 3503 41       		.uleb128 0x41
 7774 3504 4A2D0000 		.4byte	0x2d4a
 7775 3508 03       		.uleb128 0x3
 7776 3509 91       		.byte	0x91
 7777 350a BC7F     		.sleb128 -68
 7778 350c 3B       		.uleb128 0x3b
 7779 350d 52060000 		.4byte	.LVL146
 7780 3511 3E3A0000 		.4byte	0x3a3e
 7781 3515 2B       		.uleb128 0x2b
 7782 3516 01       		.uleb128 0x1
 7783 3517 50       		.byte	0x50
 7784 3518 05       		.uleb128 0x5
 7785 3519 03       		.byte	0x3
 7786 351a 00000000 		.4byte	.LC15
 7787 351e 2B       		.uleb128 0x2b
 7788 351f 01       		.uleb128 0x1
 7789 3520 51       		.byte	0x51
 7790 3521 03       		.uleb128 0x3
 7791 3522 0A       		.byte	0xa
 7792 3523 8403     		.2byte	0x384
 7793 3525 00       		.byte	0
 7794 3526 00       		.byte	0
ARM GAS  C:\Users\salaz\AppData\Local\Temp\ccj0QfQu.s 			page 172


 7795 3527 39       		.uleb128 0x39
 7796 3528 64060000 		.4byte	.LBB132
 7797 352c 0E000000 		.4byte	.LBE132-.LBB132
 7798 3530 54350000 		.4byte	0x3554
 7799 3534 3A       		.uleb128 0x3a
 7800 3535 935C0000 		.4byte	.LASF1118
 7801 3539 01       		.byte	0x1
 7802 353a CD02     		.2byte	0x2cd
 7803 353c 0E170000 		.4byte	0x170e
 7804 3540 02       		.uleb128 0x2
 7805 3541 91       		.byte	0x91
 7806 3542 4C       		.sleb128 -52
 7807 3543 3B       		.uleb128 0x3b
 7808 3544 72060000 		.4byte	.LVL150
 7809 3548 553A0000 		.4byte	0x3a55
 7810 354c 2B       		.uleb128 0x2b
 7811 354d 01       		.uleb128 0x1
 7812 354e 50       		.byte	0x50
 7813 354f 02       		.uleb128 0x2
 7814 3550 91       		.byte	0x91
 7815 3551 4C       		.sleb128 -52
 7816 3552 00       		.byte	0
 7817 3553 00       		.byte	0
 7818 3554 39       		.uleb128 0x39
 7819 3555 74060000 		.4byte	.LBB133
 7820 3559 44000000 		.4byte	.LBE133-.LBB133
 7821 355d DD350000 		.4byte	0x35dd
 7822 3561 34       		.uleb128 0x34
 7823 3562 87300000 		.4byte	.LASF1094
 7824 3566 01       		.byte	0x1
 7825 3567 DF02     		.2byte	0x2df
 7826 3569 65160000 		.4byte	0x1665
 7827 356d 3E060000 		.4byte	.LLST35
 7828 3571 39       		.uleb128 0x39
 7829 3572 7E060000 		.4byte	.LBB134
 7830 3576 1C000000 		.4byte	.LBE134-.LBB134
 7831 357a 9E350000 		.4byte	0x359e
 7832 357e 3A       		.uleb128 0x3a
 7833 357f BB390000 		.4byte	.LASF1096
 7834 3583 01       		.byte	0x1
 7835 3584 E402     		.2byte	0x2e4
 7836 3586 AB170000 		.4byte	0x17ab
 7837 358a 02       		.uleb128 0x2
 7838 358b 91       		.byte	0x91
 7839 358c 4C       		.sleb128 -52
 7840 358d 3B       		.uleb128 0x3b
 7841 358e 92060000 		.4byte	.LVL153
 7842 3592 053A0000 		.4byte	0x3a05
 7843 3596 2B       		.uleb128 0x2b
 7844 3597 01       		.uleb128 0x1
 7845 3598 50       		.byte	0x50
 7846 3599 02       		.uleb128 0x2
 7847 359a 91       		.byte	0x91
 7848 359b 4C       		.sleb128 -52
 7849 359c 00       		.byte	0
 7850 359d 00       		.byte	0
 7851 359e 2A       		.uleb128 0x2a
ARM GAS  C:\Users\salaz\AppData\Local\Temp\ccj0QfQu.s 			page 173


 7852 359f A2060000 		.4byte	.LVL156
 7853 35a3 613A0000 		.4byte	0x3a61
 7854 35a7 B2350000 		.4byte	0x35b2
 7855 35ab 2B       		.uleb128 0x2b
 7856 35ac 01       		.uleb128 0x1
 7857 35ad 50       		.byte	0x50
 7858 35ae 02       		.uleb128 0x2
 7859 35af 75       		.byte	0x75
 7860 35b0 00       		.sleb128 0
 7861 35b1 00       		.byte	0
 7862 35b2 2A       		.uleb128 0x2a
 7863 35b3 AE060000 		.4byte	.LVL159
 7864 35b7 472E0000 		.4byte	0x2e47
 7865 35bb CC350000 		.4byte	0x35cc
 7866 35bf 2B       		.uleb128 0x2b
 7867 35c0 01       		.uleb128 0x1
 7868 35c1 50       		.byte	0x50
 7869 35c2 02       		.uleb128 0x2
 7870 35c3 74       		.byte	0x74
 7871 35c4 00       		.sleb128 0
 7872 35c5 2B       		.uleb128 0x2b
 7873 35c6 01       		.uleb128 0x1
 7874 35c7 51       		.byte	0x51
 7875 35c8 02       		.uleb128 0x2
 7876 35c9 75       		.byte	0x75
 7877 35ca 00       		.sleb128 0
 7878 35cb 00       		.byte	0
 7879 35cc 3B       		.uleb128 0x3b
 7880 35cd B6060000 		.4byte	.LVL161
 7881 35d1 632D0000 		.4byte	0x2d63
 7882 35d5 2B       		.uleb128 0x2b
 7883 35d6 01       		.uleb128 0x1
 7884 35d7 50       		.byte	0x50
 7885 35d8 02       		.uleb128 0x2
 7886 35d9 75       		.byte	0x75
 7887 35da 00       		.sleb128 0
 7888 35db 00       		.byte	0
 7889 35dc 00       		.byte	0
 7890 35dd 2A       		.uleb128 0x2a
 7891 35de F6000000 		.4byte	.LVL42
 7892 35e2 AF2E0000 		.4byte	0x2eaf
 7893 35e6 F1350000 		.4byte	0x35f1
 7894 35ea 2B       		.uleb128 0x2b
 7895 35eb 01       		.uleb128 0x1
 7896 35ec 50       		.byte	0x50
 7897 35ed 02       		.uleb128 0x2
 7898 35ee 76       		.byte	0x76
 7899 35ef 00       		.sleb128 0
 7900 35f0 00       		.byte	0
 7901 35f1 2A       		.uleb128 0x2a
 7902 35f2 00010000 		.4byte	.LVL43
 7903 35f6 6C3A0000 		.4byte	0x3a6c
 7904 35fa 05360000 		.4byte	0x3605
 7905 35fe 2B       		.uleb128 0x2b
 7906 35ff 01       		.uleb128 0x1
 7907 3600 50       		.byte	0x50
 7908 3601 02       		.uleb128 0x2
ARM GAS  C:\Users\salaz\AppData\Local\Temp\ccj0QfQu.s 			page 174


 7909 3602 76       		.byte	0x76
 7910 3603 00       		.sleb128 0
 7911 3604 00       		.byte	0
 7912 3605 2A       		.uleb128 0x2a
 7913 3606 0A010000 		.4byte	.LVL44
 7914 360a 783A0000 		.4byte	0x3a78
 7915 360e 18360000 		.4byte	0x3618
 7916 3612 2B       		.uleb128 0x2b
 7917 3613 01       		.uleb128 0x1
 7918 3614 51       		.byte	0x51
 7919 3615 01       		.uleb128 0x1
 7920 3616 30       		.byte	0x30
 7921 3617 00       		.byte	0
 7922 3618 2A       		.uleb128 0x2a
 7923 3619 12010000 		.4byte	.LVL45
 7924 361d 783A0000 		.4byte	0x3a78
 7925 3621 2B360000 		.4byte	0x362b
 7926 3625 2B       		.uleb128 0x2b
 7927 3626 01       		.uleb128 0x1
 7928 3627 51       		.byte	0x51
 7929 3628 01       		.uleb128 0x1
 7930 3629 31       		.byte	0x31
 7931 362a 00       		.byte	0
 7932 362b 2C       		.uleb128 0x2c
 7933 362c 70010000 		.4byte	.LVL48
 7934 3630 6C3A0000 		.4byte	0x3a6c
 7935 3634 2A       		.uleb128 0x2a
 7936 3635 7A010000 		.4byte	.LVL49
 7937 3639 783A0000 		.4byte	0x3a78
 7938 363d 47360000 		.4byte	0x3647
 7939 3641 2B       		.uleb128 0x2b
 7940 3642 01       		.uleb128 0x1
 7941 3643 51       		.byte	0x51
 7942 3644 01       		.uleb128 0x1
 7943 3645 30       		.byte	0x30
 7944 3646 00       		.byte	0
 7945 3647 2A       		.uleb128 0x2a
 7946 3648 84010000 		.4byte	.LVL50
 7947 364c 783A0000 		.4byte	0x3a78
 7948 3650 5A360000 		.4byte	0x365a
 7949 3654 2B       		.uleb128 0x2b
 7950 3655 01       		.uleb128 0x1
 7951 3656 51       		.byte	0x51
 7952 3657 01       		.uleb128 0x1
 7953 3658 31       		.byte	0x31
 7954 3659 00       		.byte	0
 7955 365a 2C       		.uleb128 0x2c
 7956 365b 90010000 		.4byte	.LVL51
 7957 365f 843A0000 		.4byte	0x3a84
 7958 3663 2C       		.uleb128 0x2c
 7959 3664 B6010000 		.4byte	.LVL57
 7960 3668 903A0000 		.4byte	0x3a90
 7961 366c 2A       		.uleb128 0x2a
 7962 366d 08020000 		.4byte	.LVL64
 7963 3671 472E0000 		.4byte	0x2e47
 7964 3675 80360000 		.4byte	0x3680
 7965 3679 2B       		.uleb128 0x2b
ARM GAS  C:\Users\salaz\AppData\Local\Temp\ccj0QfQu.s 			page 175


 7966 367a 01       		.uleb128 0x1
 7967 367b 51       		.byte	0x51
 7968 367c 02       		.uleb128 0x2
 7969 367d 75       		.byte	0x75
 7970 367e 00       		.sleb128 0
 7971 367f 00       		.byte	0
 7972 3680 2A       		.uleb128 0x2a
 7973 3681 2E020000 		.4byte	.LVL70
 7974 3685 1D3A0000 		.4byte	0x3a1d
 7975 3689 99360000 		.4byte	0x3699
 7976 368d 2B       		.uleb128 0x2b
 7977 368e 01       		.uleb128 0x1
 7978 368f 50       		.byte	0x50
 7979 3690 02       		.uleb128 0x2
 7980 3691 77       		.byte	0x77
 7981 3692 00       		.sleb128 0
 7982 3693 2B       		.uleb128 0x2b
 7983 3694 01       		.uleb128 0x1
 7984 3695 52       		.byte	0x52
 7985 3696 01       		.uleb128 0x1
 7986 3697 32       		.byte	0x32
 7987 3698 00       		.byte	0
 7988 3699 2A       		.uleb128 0x2a
 7989 369a D6020000 		.4byte	.LVL84
 7990 369e 1D3A0000 		.4byte	0x3a1d
 7991 36a2 B2360000 		.4byte	0x36b2
 7992 36a6 2B       		.uleb128 0x2b
 7993 36a7 01       		.uleb128 0x1
 7994 36a8 50       		.byte	0x50
 7995 36a9 02       		.uleb128 0x2
 7996 36aa 77       		.byte	0x77
 7997 36ab 00       		.sleb128 0
 7998 36ac 2B       		.uleb128 0x2b
 7999 36ad 01       		.uleb128 0x1
 8000 36ae 52       		.byte	0x52
 8001 36af 01       		.uleb128 0x1
 8002 36b0 32       		.byte	0x32
 8003 36b1 00       		.byte	0
 8004 36b2 2A       		.uleb128 0x2a
 8005 36b3 F0030000 		.4byte	.LVL95
 8006 36b7 1D3A0000 		.4byte	0x3a1d
 8007 36bb CB360000 		.4byte	0x36cb
 8008 36bf 2B       		.uleb128 0x2b
 8009 36c0 01       		.uleb128 0x1
 8010 36c1 50       		.byte	0x50
 8011 36c2 02       		.uleb128 0x2
 8012 36c3 77       		.byte	0x77
 8013 36c4 00       		.sleb128 0
 8014 36c5 2B       		.uleb128 0x2b
 8015 36c6 01       		.uleb128 0x1
 8016 36c7 52       		.byte	0x52
 8017 36c8 01       		.uleb128 0x1
 8018 36c9 32       		.byte	0x32
 8019 36ca 00       		.byte	0
 8020 36cb 2A       		.uleb128 0x2a
 8021 36cc 4E040000 		.4byte	.LVL104
 8022 36d0 472E0000 		.4byte	0x2e47
ARM GAS  C:\Users\salaz\AppData\Local\Temp\ccj0QfQu.s 			page 176


 8023 36d4 DF360000 		.4byte	0x36df
 8024 36d8 2B       		.uleb128 0x2b
 8025 36d9 01       		.uleb128 0x1
 8026 36da 51       		.byte	0x51
 8027 36db 02       		.uleb128 0x2
 8028 36dc 75       		.byte	0x75
 8029 36dd 00       		.sleb128 0
 8030 36de 00       		.byte	0
 8031 36df 2A       		.uleb128 0x2a
 8032 36e0 86040000 		.4byte	.LVL112
 8033 36e4 1D3A0000 		.4byte	0x3a1d
 8034 36e8 F8360000 		.4byte	0x36f8
 8035 36ec 2B       		.uleb128 0x2b
 8036 36ed 01       		.uleb128 0x1
 8037 36ee 50       		.byte	0x50
 8038 36ef 02       		.uleb128 0x2
 8039 36f0 77       		.byte	0x77
 8040 36f1 00       		.sleb128 0
 8041 36f2 2B       		.uleb128 0x2b
 8042 36f3 01       		.uleb128 0x1
 8043 36f4 52       		.byte	0x52
 8044 36f5 01       		.uleb128 0x1
 8045 36f6 32       		.byte	0x32
 8046 36f7 00       		.byte	0
 8047 36f8 2A       		.uleb128 0x2a
 8048 36f9 F6040000 		.4byte	.LVL121
 8049 36fd 472E0000 		.4byte	0x2e47
 8050 3701 0C370000 		.4byte	0x370c
 8051 3705 2B       		.uleb128 0x2b
 8052 3706 01       		.uleb128 0x1
 8053 3707 51       		.byte	0x51
 8054 3708 02       		.uleb128 0x2
 8055 3709 75       		.byte	0x75
 8056 370a 00       		.sleb128 0
 8057 370b 00       		.byte	0
 8058 370c 2A       		.uleb128 0x2a
 8059 370d 5A050000 		.4byte	.LVL128
 8060 3711 9C3A0000 		.4byte	0x3a9c
 8061 3715 1F370000 		.4byte	0x371f
 8062 3719 2B       		.uleb128 0x2b
 8063 371a 01       		.uleb128 0x1
 8064 371b 50       		.byte	0x50
 8065 371c 01       		.uleb128 0x1
 8066 371d 31       		.byte	0x31
 8067 371e 00       		.byte	0
 8068 371f 2A       		.uleb128 0x2a
 8069 3720 6E050000 		.4byte	.LVL131
 8070 3724 472E0000 		.4byte	0x2e47
 8071 3728 33370000 		.4byte	0x3733
 8072 372c 2B       		.uleb128 0x2b
 8073 372d 01       		.uleb128 0x1
 8074 372e 51       		.byte	0x51
 8075 372f 02       		.uleb128 0x2
 8076 3730 75       		.byte	0x75
 8077 3731 00       		.sleb128 0
 8078 3732 00       		.byte	0
 8079 3733 2A       		.uleb128 0x2a
ARM GAS  C:\Users\salaz\AppData\Local\Temp\ccj0QfQu.s 			page 177


 8080 3734 7A050000 		.4byte	.LVL134
 8081 3738 1D3A0000 		.4byte	0x3a1d
 8082 373c 52370000 		.4byte	0x3752
 8083 3740 2B       		.uleb128 0x2b
 8084 3741 01       		.uleb128 0x1
 8085 3742 50       		.byte	0x50
 8086 3743 02       		.uleb128 0x2
 8087 3744 7D       		.byte	0x7d
 8088 3745 00       		.sleb128 0
 8089 3746 2B       		.uleb128 0x2b
 8090 3747 01       		.uleb128 0x1
 8091 3748 51       		.byte	0x51
 8092 3749 02       		.uleb128 0x2
 8093 374a 75       		.byte	0x75
 8094 374b 00       		.sleb128 0
 8095 374c 2B       		.uleb128 0x2b
 8096 374d 01       		.uleb128 0x1
 8097 374e 52       		.byte	0x52
 8098 374f 01       		.uleb128 0x1
 8099 3750 32       		.byte	0x32
 8100 3751 00       		.byte	0
 8101 3752 2A       		.uleb128 0x2a
 8102 3753 A8050000 		.4byte	.LVL136
 8103 3757 1D3A0000 		.4byte	0x3a1d
 8104 375b 6B370000 		.4byte	0x376b
 8105 375f 2B       		.uleb128 0x2b
 8106 3760 01       		.uleb128 0x1
 8107 3761 51       		.byte	0x51
 8108 3762 02       		.uleb128 0x2
 8109 3763 75       		.byte	0x75
 8110 3764 00       		.sleb128 0
 8111 3765 2B       		.uleb128 0x2b
 8112 3766 01       		.uleb128 0x1
 8113 3767 52       		.byte	0x52
 8114 3768 01       		.uleb128 0x1
 8115 3769 32       		.byte	0x32
 8116 376a 00       		.byte	0
 8117 376b 2A       		.uleb128 0x2a
 8118 376c DC050000 		.4byte	.LVL137
 8119 3770 1D3A0000 		.4byte	0x3a1d
 8120 3774 7E370000 		.4byte	0x377e
 8121 3778 2B       		.uleb128 0x2b
 8122 3779 01       		.uleb128 0x1
 8123 377a 52       		.byte	0x52
 8124 377b 01       		.uleb128 0x1
 8125 377c 3B       		.byte	0x3b
 8126 377d 00       		.byte	0
 8127 377e 2A       		.uleb128 0x2a
 8128 377f 28060000 		.4byte	.LVL142
 8129 3783 472E0000 		.4byte	0x2e47
 8130 3787 98370000 		.4byte	0x3798
 8131 378b 2B       		.uleb128 0x2b
 8132 378c 01       		.uleb128 0x1
 8133 378d 50       		.byte	0x50
 8134 378e 02       		.uleb128 0x2
 8135 378f 74       		.byte	0x74
 8136 3790 00       		.sleb128 0
ARM GAS  C:\Users\salaz\AppData\Local\Temp\ccj0QfQu.s 			page 178


 8137 3791 2B       		.uleb128 0x2b
 8138 3792 01       		.uleb128 0x1
 8139 3793 51       		.byte	0x51
 8140 3794 02       		.uleb128 0x2
 8141 3795 75       		.byte	0x75
 8142 3796 00       		.sleb128 0
 8143 3797 00       		.byte	0
 8144 3798 2A       		.uleb128 0x2a
 8145 3799 36060000 		.4byte	.LVL145
 8146 379d 1D3A0000 		.4byte	0x3a1d
 8147 37a1 B7370000 		.4byte	0x37b7
 8148 37a5 2B       		.uleb128 0x2b
 8149 37a6 01       		.uleb128 0x1
 8150 37a7 50       		.byte	0x50
 8151 37a8 02       		.uleb128 0x2
 8152 37a9 76       		.byte	0x76
 8153 37aa 00       		.sleb128 0
 8154 37ab 2B       		.uleb128 0x2b
 8155 37ac 01       		.uleb128 0x1
 8156 37ad 51       		.byte	0x51
 8157 37ae 02       		.uleb128 0x2
 8158 37af 75       		.byte	0x75
 8159 37b0 00       		.sleb128 0
 8160 37b1 2B       		.uleb128 0x2b
 8161 37b2 01       		.uleb128 0x1
 8162 37b3 52       		.byte	0x52
 8163 37b4 01       		.uleb128 0x1
 8164 37b5 32       		.byte	0x32
 8165 37b6 00       		.byte	0
 8166 37b7 2A       		.uleb128 0x2a
 8167 37b8 62060000 		.4byte	.LVL147
 8168 37bc 472E0000 		.4byte	0x2e47
 8169 37c0 D1370000 		.4byte	0x37d1
 8170 37c4 2B       		.uleb128 0x2b
 8171 37c5 01       		.uleb128 0x1
 8172 37c6 50       		.byte	0x50
 8173 37c7 02       		.uleb128 0x2
 8174 37c8 74       		.byte	0x74
 8175 37c9 00       		.sleb128 0
 8176 37ca 2B       		.uleb128 0x2b
 8177 37cb 01       		.uleb128 0x1
 8178 37cc 51       		.byte	0x51
 8179 37cd 02       		.uleb128 0x2
 8180 37ce 75       		.byte	0x75
 8181 37cf 00       		.sleb128 0
 8182 37d0 00       		.byte	0
 8183 37d1 2A       		.uleb128 0x2a
 8184 37d2 BE060000 		.4byte	.LVL163
 8185 37d6 472E0000 		.4byte	0x2e47
 8186 37da E5370000 		.4byte	0x37e5
 8187 37de 2B       		.uleb128 0x2b
 8188 37df 01       		.uleb128 0x1
 8189 37e0 51       		.byte	0x51
 8190 37e1 02       		.uleb128 0x2
 8191 37e2 75       		.byte	0x75
 8192 37e3 00       		.sleb128 0
 8193 37e4 00       		.byte	0
ARM GAS  C:\Users\salaz\AppData\Local\Temp\ccj0QfQu.s 			page 179


 8194 37e5 2A       		.uleb128 0x2a
 8195 37e6 C6060000 		.4byte	.LVL165
 8196 37ea 472E0000 		.4byte	0x2e47
 8197 37ee F9370000 		.4byte	0x37f9
 8198 37f2 2B       		.uleb128 0x2b
 8199 37f3 01       		.uleb128 0x1
 8200 37f4 51       		.byte	0x51
 8201 37f5 02       		.uleb128 0x2
 8202 37f6 75       		.byte	0x75
 8203 37f7 00       		.sleb128 0
 8204 37f8 00       		.byte	0
 8205 37f9 2A       		.uleb128 0x2a
 8206 37fa CE060000 		.4byte	.LVL167
 8207 37fe 472E0000 		.4byte	0x2e47
 8208 3802 0D380000 		.4byte	0x380d
 8209 3806 2B       		.uleb128 0x2b
 8210 3807 01       		.uleb128 0x1
 8211 3808 51       		.byte	0x51
 8212 3809 02       		.uleb128 0x2
 8213 380a 75       		.byte	0x75
 8214 380b 00       		.sleb128 0
 8215 380c 00       		.byte	0
 8216 380d 2A       		.uleb128 0x2a
 8217 380e D6060000 		.4byte	.LVL169
 8218 3812 472E0000 		.4byte	0x2e47
 8219 3816 21380000 		.4byte	0x3821
 8220 381a 2B       		.uleb128 0x2b
 8221 381b 01       		.uleb128 0x1
 8222 381c 51       		.byte	0x51
 8223 381d 02       		.uleb128 0x2
 8224 381e 75       		.byte	0x75
 8225 381f 00       		.sleb128 0
 8226 3820 00       		.byte	0
 8227 3821 2A       		.uleb128 0x2a
 8228 3822 DE060000 		.4byte	.LVL172
 8229 3826 A83A0000 		.4byte	0x3aa8
 8230 382a 35380000 		.4byte	0x3835
 8231 382e 2B       		.uleb128 0x2b
 8232 382f 01       		.uleb128 0x1
 8233 3830 50       		.byte	0x50
 8234 3831 02       		.uleb128 0x2
 8235 3832 75       		.byte	0x75
 8236 3833 00       		.sleb128 0
 8237 3834 00       		.byte	0
 8238 3835 2A       		.uleb128 0x2a
 8239 3836 E6060000 		.4byte	.LVL173
 8240 383a 472E0000 		.4byte	0x2e47
 8241 383e 4F380000 		.4byte	0x384f
 8242 3842 2B       		.uleb128 0x2b
 8243 3843 01       		.uleb128 0x1
 8244 3844 50       		.byte	0x50
 8245 3845 02       		.uleb128 0x2
 8246 3846 74       		.byte	0x74
 8247 3847 00       		.sleb128 0
 8248 3848 2B       		.uleb128 0x2b
 8249 3849 01       		.uleb128 0x1
 8250 384a 51       		.byte	0x51
ARM GAS  C:\Users\salaz\AppData\Local\Temp\ccj0QfQu.s 			page 180


 8251 384b 02       		.uleb128 0x2
 8252 384c 75       		.byte	0x75
 8253 384d 00       		.sleb128 0
 8254 384e 00       		.byte	0
 8255 384f 31       		.uleb128 0x31
 8256 3850 58070000 		.4byte	.LVL176
 8257 3854 2B       		.uleb128 0x2b
 8258 3855 01       		.uleb128 0x1
 8259 3856 50       		.byte	0x50
 8260 3857 02       		.uleb128 0x2
 8261 3858 74       		.byte	0x74
 8262 3859 00       		.sleb128 0
 8263 385a 2B       		.uleb128 0x2b
 8264 385b 01       		.uleb128 0x1
 8265 385c 51       		.byte	0x51
 8266 385d 02       		.uleb128 0x2
 8267 385e 75       		.byte	0x75
 8268 385f 00       		.sleb128 0
 8269 3860 00       		.byte	0
 8270 3861 00       		.byte	0
 8271 3862 18       		.uleb128 0x18
 8272 3863 04       		.byte	0x4
 8273 3864 43140000 		.4byte	0x1443
 8274 3868 18       		.uleb128 0x18
 8275 3869 04       		.byte	0x4
 8276 386a F1190000 		.4byte	0x19f1
 8277 386e 45       		.uleb128 0x45
 8278 386f 05280000 		.4byte	.LASF1119
 8279 3873 01       		.byte	0x1
 8280 3874 2E       		.byte	0x2e
 8281 3875 150B0000 		.4byte	0xb15
 8282 3879 05       		.uleb128 0x5
 8283 387a 03       		.byte	0x3
 8284 387b 00000000 		.4byte	cy_ble_eventHandlerFlag
 8285 387f 46       		.uleb128 0x46
 8286 3880 2E270000 		.4byte	.LASF1120
 8287 3884 02       		.byte	0x2
 8288 3885 1902     		.2byte	0x219
 8289 3887 94210000 		.4byte	0x2194
 8290 388b 46       		.uleb128 0x46
 8291 388c 5E5A0000 		.4byte	.LASF1121
 8292 3890 02       		.byte	0x2
 8293 3891 1B02     		.2byte	0x21b
 8294 3893 041C0000 		.4byte	0x1c04
 8295 3897 46       		.uleb128 0x46
 8296 3898 A7470000 		.4byte	.LASF1122
 8297 389c 02       		.byte	0x2
 8298 389d 2202     		.2byte	0x222
 8299 389f 341C0000 		.4byte	0x1c34
 8300 38a3 46       		.uleb128 0x46
 8301 38a4 77300000 		.4byte	.LASF1123
 8302 38a8 02       		.byte	0x2
 8303 38a9 2302     		.2byte	0x223
 8304 38ab A3000000 		.4byte	0xa3
 8305 38af 0F       		.uleb128 0xf
 8306 38b0 99130000 		.4byte	0x1399
 8307 38b4 BF380000 		.4byte	0x38bf
ARM GAS  C:\Users\salaz\AppData\Local\Temp\ccj0QfQu.s 			page 181


 8308 38b8 10       		.uleb128 0x10
 8309 38b9 93000000 		.4byte	0x93
 8310 38bd 00       		.byte	0
 8311 38be 00       		.byte	0
 8312 38bf 46       		.uleb128 0x46
 8313 38c0 230B0000 		.4byte	.LASF1124
 8314 38c4 02       		.byte	0x2
 8315 38c5 2C02     		.2byte	0x22c
 8316 38c7 AF380000 		.4byte	0x38af
 8317 38cb 0F       		.uleb128 0xf
 8318 38cc 7C1C0000 		.4byte	0x1c7c
 8319 38d0 DB380000 		.4byte	0x38db
 8320 38d4 10       		.uleb128 0x10
 8321 38d5 93000000 		.4byte	0x93
 8322 38d9 00       		.byte	0
 8323 38da 00       		.byte	0
 8324 38db 46       		.uleb128 0x46
 8325 38dc 400A0000 		.4byte	.LASF1125
 8326 38e0 02       		.byte	0x2
 8327 38e1 2D02     		.2byte	0x22d
 8328 38e3 CB380000 		.4byte	0x38cb
 8329 38e7 0F       		.uleb128 0xf
 8330 38e8 150B0000 		.4byte	0xb15
 8331 38ec F7380000 		.4byte	0x38f7
 8332 38f0 10       		.uleb128 0x10
 8333 38f1 93000000 		.4byte	0x93
 8334 38f5 00       		.byte	0
 8335 38f6 00       		.byte	0
 8336 38f7 46       		.uleb128 0x46
 8337 38f8 93550000 		.4byte	.LASF1126
 8338 38fc 02       		.byte	0x2
 8339 38fd 2F02     		.2byte	0x22f
 8340 38ff 03390000 		.4byte	0x3903
 8341 3903 0A       		.uleb128 0xa
 8342 3904 E7380000 		.4byte	0x38e7
 8343 3908 0F       		.uleb128 0xf
 8344 3909 18390000 		.4byte	0x3918
 8345 390d 18390000 		.4byte	0x3918
 8346 3911 10       		.uleb128 0x10
 8347 3912 93000000 		.4byte	0x93
 8348 3916 00       		.byte	0
 8349 3917 00       		.byte	0
 8350 3918 0A       		.uleb128 0xa
 8351 3919 AA1F0000 		.4byte	0x1faa
 8352 391d 46       		.uleb128 0x46
 8353 391e B6230000 		.4byte	.LASF1127
 8354 3922 02       		.byte	0x2
 8355 3923 3002     		.2byte	0x230
 8356 3925 29390000 		.4byte	0x3929
 8357 3929 0A       		.uleb128 0xa
 8358 392a 08390000 		.4byte	0x3908
 8359 392e 46       		.uleb128 0x46
 8360 392f 50290000 		.4byte	.LASF1128
 8361 3933 02       		.byte	0x2
 8362 3934 5202     		.2byte	0x252
 8363 3936 A3000000 		.4byte	0xa3
 8364 393a 0F       		.uleb128 0xf
ARM GAS  C:\Users\salaz\AppData\Local\Temp\ccj0QfQu.s 			page 182


 8365 393b A3000000 		.4byte	0xa3
 8366 393f 4A390000 		.4byte	0x394a
 8367 3943 10       		.uleb128 0x10
 8368 3944 93000000 		.4byte	0x93
 8369 3948 00       		.byte	0
 8370 3949 00       		.byte	0
 8371 394a 46       		.uleb128 0x46
 8372 394b 51170000 		.4byte	.LASF1129
 8373 394f 02       		.byte	0x2
 8374 3950 5902     		.2byte	0x259
 8375 3952 3A390000 		.4byte	0x393a
 8376 3956 0F       		.uleb128 0xf
 8377 3957 A3000000 		.4byte	0xa3
 8378 395b 6C390000 		.4byte	0x396c
 8379 395f 10       		.uleb128 0x10
 8380 3960 93000000 		.4byte	0x93
 8381 3964 00       		.byte	0
 8382 3965 10       		.uleb128 0x10
 8383 3966 93000000 		.4byte	0x93
 8384 396a 0A       		.byte	0xa
 8385 396b 00       		.byte	0
 8386 396c 46       		.uleb128 0x46
 8387 396d 79730000 		.4byte	.LASF1130
 8388 3971 11       		.byte	0x11
 8389 3972 0401     		.2byte	0x104
 8390 3974 56390000 		.4byte	0x3956
 8391 3978 46       		.uleb128 0x46
 8392 3979 2E100000 		.4byte	.LASF1131
 8393 397d 13       		.byte	0x13
 8394 397e 6E02     		.2byte	0x26e
 8395 3980 891F0000 		.4byte	0x1f89
 8396 3984 0F       		.uleb128 0xf
 8397 3985 A3000000 		.4byte	0xa3
 8398 3989 95390000 		.4byte	0x3995
 8399 398d 11       		.uleb128 0x11
 8400 398e 93000000 		.4byte	0x93
 8401 3992 432B     		.2byte	0x2b43
 8402 3994 00       		.byte	0
 8403 3995 46       		.uleb128 0x46
 8404 3996 60490000 		.4byte	.LASF1132
 8405 399a 13       		.byte	0x13
 8406 399b 7402     		.2byte	0x274
 8407 399d 84390000 		.4byte	0x3984
 8408 39a1 46       		.uleb128 0x46
 8409 39a2 1D280000 		.4byte	.LASF1133
 8410 39a6 13       		.byte	0x13
 8411 39a7 7902     		.2byte	0x279
 8412 39a9 AD390000 		.4byte	0x39ad
 8413 39ad 18       		.uleb128 0x18
 8414 39ae 04       		.byte	0x4
 8415 39af A5210000 		.4byte	0x21a5
 8416 39b3 45       		.uleb128 0x45
 8417 39b4 C5760000 		.4byte	.LASF1134
 8418 39b8 01       		.byte	0x1
 8419 39b9 3F       		.byte	0x3f
 8420 39ba EC2C0000 		.4byte	0x2cec
 8421 39be 05       		.uleb128 0x5
ARM GAS  C:\Users\salaz\AppData\Local\Temp\ccj0QfQu.s 			page 183


 8422 39bf 03       		.byte	0x3
 8423 39c0 00000000 		.4byte	cy_ble_eventHandler
 8424 39c4 45       		.uleb128 0x45
 8425 39c5 C2440000 		.4byte	.LASF1135
 8426 39c9 01       		.byte	0x1
 8427 39ca 2D       		.byte	0x2d
 8428 39cb D5390000 		.4byte	0x39d5
 8429 39cf 05       		.uleb128 0x5
 8430 39d0 03       		.byte	0x3
 8431 39d1 00000000 		.4byte	cy_ble_busyStatus
 8432 39d5 0A       		.uleb128 0xa
 8433 39d6 E7380000 		.4byte	0x38e7
 8434 39da 45       		.uleb128 0x45
 8435 39db 9C620000 		.4byte	.LASF1136
 8436 39df 01       		.byte	0x1
 8437 39e0 2F       		.byte	0x2f
 8438 39e1 57050000 		.4byte	0x557
 8439 39e5 05       		.uleb128 0x5
 8440 39e6 03       		.byte	0x3
 8441 39e7 00000000 		.4byte	cy_ble_cmdStatus
 8442 39eb 45       		.uleb128 0x45
 8443 39ec F9730000 		.4byte	.LASF1137
 8444 39f0 01       		.byte	0x1
 8445 39f1 32       		.byte	0x32
 8446 39f2 A3000000 		.4byte	0xa3
 8447 39f6 05       		.uleb128 0x5
 8448 39f7 03       		.byte	0x3
 8449 39f8 00000000 		.4byte	cy_ble_advertisingIntervalType
 8450 39fc 47       		.uleb128 0x47
 8451 39fd 92040000 		.4byte	.LASF1140
 8452 3a01 92040000 		.4byte	.LASF1140
 8453 3a05 48       		.uleb128 0x48
 8454 3a06 515B0000 		.4byte	.LASF1138
 8455 3a0a 515B0000 		.4byte	.LASF1138
 8456 3a0e 0F       		.byte	0xf
 8457 3a0f 1101     		.2byte	0x111
 8458 3a11 48       		.uleb128 0x48
 8459 3a12 A7260000 		.4byte	.LASF1139
 8460 3a16 A7260000 		.4byte	.LASF1139
 8461 3a1a 0F       		.byte	0xf
 8462 3a1b 5F01     		.2byte	0x15f
 8463 3a1d 47       		.uleb128 0x47
 8464 3a1e 6B2E0000 		.4byte	.LASF1141
 8465 3a22 6B2E0000 		.4byte	.LASF1141
 8466 3a26 48       		.uleb128 0x48
 8467 3a27 16410000 		.4byte	.LASF1142
 8468 3a2b 16410000 		.4byte	.LASF1142
 8469 3a2f 0A       		.byte	0xa
 8470 3a30 2305     		.2byte	0x523
 8471 3a32 48       		.uleb128 0x48
 8472 3a33 D1690000 		.4byte	.LASF1143
 8473 3a37 D1690000 		.4byte	.LASF1143
 8474 3a3b 0A       		.byte	0xa
 8475 3a3c 5C04     		.2byte	0x45c
 8476 3a3e 48       		.uleb128 0x48
 8477 3a3f 260D0000 		.4byte	.LASF1144
 8478 3a43 260D0000 		.4byte	.LASF1144
ARM GAS  C:\Users\salaz\AppData\Local\Temp\ccj0QfQu.s 			page 184


 8479 3a47 07       		.byte	0x7
 8480 3a48 2A03     		.2byte	0x32a
 8481 3a4a 49       		.uleb128 0x49
 8482 3a4b 42120000 		.4byte	.LASF1145
 8483 3a4f 42120000 		.4byte	.LASF1145
 8484 3a53 15       		.byte	0x15
 8485 3a54 C7       		.byte	0xc7
 8486 3a55 48       		.uleb128 0x48
 8487 3a56 2C520000 		.4byte	.LASF1146
 8488 3a5a 2C520000 		.4byte	.LASF1146
 8489 3a5e 0F       		.byte	0xf
 8490 3a5f 3B01     		.2byte	0x13b
 8491 3a61 49       		.uleb128 0x49
 8492 3a62 D8090000 		.4byte	.LASF1147
 8493 3a66 D8090000 		.4byte	.LASF1147
 8494 3a6a 11       		.byte	0x11
 8495 3a6b EC       		.byte	0xec
 8496 3a6c 48       		.uleb128 0x48
 8497 3a6d F0020000 		.4byte	.LASF1148
 8498 3a71 F0020000 		.4byte	.LASF1148
 8499 3a75 0C       		.byte	0xc
 8500 3a76 8806     		.2byte	0x688
 8501 3a78 48       		.uleb128 0x48
 8502 3a79 1D5C0000 		.4byte	.LASF1149
 8503 3a7d 1D5C0000 		.4byte	.LASF1149
 8504 3a81 02       		.byte	0x2
 8505 3a82 FD01     		.2byte	0x1fd
 8506 3a84 48       		.uleb128 0x48
 8507 3a85 5A6B0000 		.4byte	.LASF1150
 8508 3a89 5A6B0000 		.4byte	.LASF1150
 8509 3a8d 0C       		.byte	0xc
 8510 3a8e A803     		.2byte	0x3a8
 8511 3a90 48       		.uleb128 0x48
 8512 3a91 66340000 		.4byte	.LASF1151
 8513 3a95 66340000 		.4byte	.LASF1151
 8514 3a99 13       		.byte	0x13
 8515 3a9a 4E02     		.2byte	0x24e
 8516 3a9c 48       		.uleb128 0x48
 8517 3a9d 63020000 		.4byte	.LASF1152
 8518 3aa1 63020000 		.4byte	.LASF1152
 8519 3aa5 02       		.byte	0x2
 8520 3aa6 F901     		.2byte	0x1f9
 8521 3aa8 49       		.uleb128 0x49
 8522 3aa9 D93C0000 		.4byte	.LASF1153
 8523 3aad D93C0000 		.4byte	.LASF1153
 8524 3ab1 11       		.byte	0x11
 8525 3ab2 ED       		.byte	0xed
 8526 3ab3 00       		.byte	0
 8527              		.section	.debug_abbrev,"",%progbits
 8528              	.Ldebug_abbrev0:
 8529 0000 01       		.uleb128 0x1
 8530 0001 11       		.uleb128 0x11
 8531 0002 01       		.byte	0x1
 8532 0003 25       		.uleb128 0x25
 8533 0004 0E       		.uleb128 0xe
 8534 0005 13       		.uleb128 0x13
 8535 0006 0B       		.uleb128 0xb
ARM GAS  C:\Users\salaz\AppData\Local\Temp\ccj0QfQu.s 			page 185


 8536 0007 03       		.uleb128 0x3
 8537 0008 0E       		.uleb128 0xe
 8538 0009 1B       		.uleb128 0x1b
 8539 000a 0E       		.uleb128 0xe
 8540 000b 55       		.uleb128 0x55
 8541 000c 17       		.uleb128 0x17
 8542 000d 11       		.uleb128 0x11
 8543 000e 01       		.uleb128 0x1
 8544 000f 10       		.uleb128 0x10
 8545 0010 17       		.uleb128 0x17
 8546 0011 00       		.byte	0
 8547 0012 00       		.byte	0
 8548 0013 02       		.uleb128 0x2
 8549 0014 24       		.uleb128 0x24
 8550 0015 00       		.byte	0
 8551 0016 0B       		.uleb128 0xb
 8552 0017 0B       		.uleb128 0xb
 8553 0018 3E       		.uleb128 0x3e
 8554 0019 0B       		.uleb128 0xb
 8555 001a 03       		.uleb128 0x3
 8556 001b 08       		.uleb128 0x8
 8557 001c 00       		.byte	0
 8558 001d 00       		.byte	0
 8559 001e 03       		.uleb128 0x3
 8560 001f 24       		.uleb128 0x24
 8561 0020 00       		.byte	0
 8562 0021 0B       		.uleb128 0xb
 8563 0022 0B       		.uleb128 0xb
 8564 0023 3E       		.uleb128 0x3e
 8565 0024 0B       		.uleb128 0xb
 8566 0025 03       		.uleb128 0x3
 8567 0026 0E       		.uleb128 0xe
 8568 0027 00       		.byte	0
 8569 0028 00       		.byte	0
 8570 0029 04       		.uleb128 0x4
 8571 002a 16       		.uleb128 0x16
 8572 002b 00       		.byte	0
 8573 002c 03       		.uleb128 0x3
 8574 002d 0E       		.uleb128 0xe
 8575 002e 3A       		.uleb128 0x3a
 8576 002f 0B       		.uleb128 0xb
 8577 0030 3B       		.uleb128 0x3b
 8578 0031 0B       		.uleb128 0xb
 8579 0032 49       		.uleb128 0x49
 8580 0033 13       		.uleb128 0x13
 8581 0034 00       		.byte	0
 8582 0035 00       		.byte	0
 8583 0036 05       		.uleb128 0x5
 8584 0037 0F       		.uleb128 0xf
 8585 0038 00       		.byte	0
 8586 0039 0B       		.uleb128 0xb
 8587 003a 0B       		.uleb128 0xb
 8588 003b 00       		.byte	0
 8589 003c 00       		.byte	0
 8590 003d 06       		.uleb128 0x6
 8591 003e 04       		.uleb128 0x4
 8592 003f 01       		.byte	0x1
ARM GAS  C:\Users\salaz\AppData\Local\Temp\ccj0QfQu.s 			page 186


 8593 0040 0B       		.uleb128 0xb
 8594 0041 0B       		.uleb128 0xb
 8595 0042 49       		.uleb128 0x49
 8596 0043 13       		.uleb128 0x13
 8597 0044 3A       		.uleb128 0x3a
 8598 0045 0B       		.uleb128 0xb
 8599 0046 3B       		.uleb128 0x3b
 8600 0047 0B       		.uleb128 0xb
 8601 0048 01       		.uleb128 0x1
 8602 0049 13       		.uleb128 0x13
 8603 004a 00       		.byte	0
 8604 004b 00       		.byte	0
 8605 004c 07       		.uleb128 0x7
 8606 004d 28       		.uleb128 0x28
 8607 004e 00       		.byte	0
 8608 004f 03       		.uleb128 0x3
 8609 0050 0E       		.uleb128 0xe
 8610 0051 1C       		.uleb128 0x1c
 8611 0052 0D       		.uleb128 0xd
 8612 0053 00       		.byte	0
 8613 0054 00       		.byte	0
 8614 0055 08       		.uleb128 0x8
 8615 0056 28       		.uleb128 0x28
 8616 0057 00       		.byte	0
 8617 0058 03       		.uleb128 0x3
 8618 0059 0E       		.uleb128 0xe
 8619 005a 1C       		.uleb128 0x1c
 8620 005b 0B       		.uleb128 0xb
 8621 005c 00       		.byte	0
 8622 005d 00       		.byte	0
 8623 005e 09       		.uleb128 0x9
 8624 005f 16       		.uleb128 0x16
 8625 0060 00       		.byte	0
 8626 0061 03       		.uleb128 0x3
 8627 0062 0E       		.uleb128 0xe
 8628 0063 3A       		.uleb128 0x3a
 8629 0064 0B       		.uleb128 0xb
 8630 0065 3B       		.uleb128 0x3b
 8631 0066 05       		.uleb128 0x5
 8632 0067 49       		.uleb128 0x49
 8633 0068 13       		.uleb128 0x13
 8634 0069 00       		.byte	0
 8635 006a 00       		.byte	0
 8636 006b 0A       		.uleb128 0xa
 8637 006c 35       		.uleb128 0x35
 8638 006d 00       		.byte	0
 8639 006e 49       		.uleb128 0x49
 8640 006f 13       		.uleb128 0x13
 8641 0070 00       		.byte	0
 8642 0071 00       		.byte	0
 8643 0072 0B       		.uleb128 0xb
 8644 0073 26       		.uleb128 0x26
 8645 0074 00       		.byte	0
 8646 0075 49       		.uleb128 0x49
 8647 0076 13       		.uleb128 0x13
 8648 0077 00       		.byte	0
 8649 0078 00       		.byte	0
ARM GAS  C:\Users\salaz\AppData\Local\Temp\ccj0QfQu.s 			page 187


 8650 0079 0C       		.uleb128 0xc
 8651 007a 13       		.uleb128 0x13
 8652 007b 01       		.byte	0x1
 8653 007c 0B       		.uleb128 0xb
 8654 007d 05       		.uleb128 0x5
 8655 007e 3A       		.uleb128 0x3a
 8656 007f 0B       		.uleb128 0xb
 8657 0080 3B       		.uleb128 0x3b
 8658 0081 0B       		.uleb128 0xb
 8659 0082 01       		.uleb128 0x1
 8660 0083 13       		.uleb128 0x13
 8661 0084 00       		.byte	0
 8662 0085 00       		.byte	0
 8663 0086 0D       		.uleb128 0xd
 8664 0087 0D       		.uleb128 0xd
 8665 0088 00       		.byte	0
 8666 0089 03       		.uleb128 0x3
 8667 008a 0E       		.uleb128 0xe
 8668 008b 3A       		.uleb128 0x3a
 8669 008c 0B       		.uleb128 0xb
 8670 008d 3B       		.uleb128 0x3b
 8671 008e 0B       		.uleb128 0xb
 8672 008f 49       		.uleb128 0x49
 8673 0090 13       		.uleb128 0x13
 8674 0091 38       		.uleb128 0x38
 8675 0092 0B       		.uleb128 0xb
 8676 0093 00       		.byte	0
 8677 0094 00       		.byte	0
 8678 0095 0E       		.uleb128 0xe
 8679 0096 0D       		.uleb128 0xd
 8680 0097 00       		.byte	0
 8681 0098 03       		.uleb128 0x3
 8682 0099 0E       		.uleb128 0xe
 8683 009a 3A       		.uleb128 0x3a
 8684 009b 0B       		.uleb128 0xb
 8685 009c 3B       		.uleb128 0x3b
 8686 009d 0B       		.uleb128 0xb
 8687 009e 49       		.uleb128 0x49
 8688 009f 13       		.uleb128 0x13
 8689 00a0 38       		.uleb128 0x38
 8690 00a1 05       		.uleb128 0x5
 8691 00a2 00       		.byte	0
 8692 00a3 00       		.byte	0
 8693 00a4 0F       		.uleb128 0xf
 8694 00a5 01       		.uleb128 0x1
 8695 00a6 01       		.byte	0x1
 8696 00a7 49       		.uleb128 0x49
 8697 00a8 13       		.uleb128 0x13
 8698 00a9 01       		.uleb128 0x1
 8699 00aa 13       		.uleb128 0x13
 8700 00ab 00       		.byte	0
 8701 00ac 00       		.byte	0
 8702 00ad 10       		.uleb128 0x10
 8703 00ae 21       		.uleb128 0x21
 8704 00af 00       		.byte	0
 8705 00b0 49       		.uleb128 0x49
 8706 00b1 13       		.uleb128 0x13
ARM GAS  C:\Users\salaz\AppData\Local\Temp\ccj0QfQu.s 			page 188


 8707 00b2 2F       		.uleb128 0x2f
 8708 00b3 0B       		.uleb128 0xb
 8709 00b4 00       		.byte	0
 8710 00b5 00       		.byte	0
 8711 00b6 11       		.uleb128 0x11
 8712 00b7 21       		.uleb128 0x21
 8713 00b8 00       		.byte	0
 8714 00b9 49       		.uleb128 0x49
 8715 00ba 13       		.uleb128 0x13
 8716 00bb 2F       		.uleb128 0x2f
 8717 00bc 05       		.uleb128 0x5
 8718 00bd 00       		.byte	0
 8719 00be 00       		.byte	0
 8720 00bf 12       		.uleb128 0x12
 8721 00c0 13       		.uleb128 0x13
 8722 00c1 01       		.byte	0x1
 8723 00c2 0B       		.uleb128 0xb
 8724 00c3 0B       		.uleb128 0xb
 8725 00c4 3A       		.uleb128 0x3a
 8726 00c5 0B       		.uleb128 0xb
 8727 00c6 3B       		.uleb128 0x3b
 8728 00c7 0B       		.uleb128 0xb
 8729 00c8 01       		.uleb128 0x1
 8730 00c9 13       		.uleb128 0x13
 8731 00ca 00       		.byte	0
 8732 00cb 00       		.byte	0
 8733 00cc 13       		.uleb128 0x13
 8734 00cd 04       		.uleb128 0x4
 8735 00ce 01       		.byte	0x1
 8736 00cf 0B       		.uleb128 0xb
 8737 00d0 0B       		.uleb128 0xb
 8738 00d1 49       		.uleb128 0x49
 8739 00d2 13       		.uleb128 0x13
 8740 00d3 3A       		.uleb128 0x3a
 8741 00d4 0B       		.uleb128 0xb
 8742 00d5 3B       		.uleb128 0x3b
 8743 00d6 05       		.uleb128 0x5
 8744 00d7 01       		.uleb128 0x1
 8745 00d8 13       		.uleb128 0x13
 8746 00d9 00       		.byte	0
 8747 00da 00       		.byte	0
 8748 00db 14       		.uleb128 0x14
 8749 00dc 28       		.uleb128 0x28
 8750 00dd 00       		.byte	0
 8751 00de 03       		.uleb128 0x3
 8752 00df 0E       		.uleb128 0xe
 8753 00e0 1C       		.uleb128 0x1c
 8754 00e1 05       		.uleb128 0x5
 8755 00e2 00       		.byte	0
 8756 00e3 00       		.byte	0
 8757 00e4 15       		.uleb128 0x15
 8758 00e5 28       		.uleb128 0x28
 8759 00e6 00       		.byte	0
 8760 00e7 03       		.uleb128 0x3
 8761 00e8 0E       		.uleb128 0xe
 8762 00e9 1C       		.uleb128 0x1c
 8763 00ea 06       		.uleb128 0x6
ARM GAS  C:\Users\salaz\AppData\Local\Temp\ccj0QfQu.s 			page 189


 8764 00eb 00       		.byte	0
 8765 00ec 00       		.byte	0
 8766 00ed 16       		.uleb128 0x16
 8767 00ee 13       		.uleb128 0x13
 8768 00ef 01       		.byte	0x1
 8769 00f0 0B       		.uleb128 0xb
 8770 00f1 0B       		.uleb128 0xb
 8771 00f2 3A       		.uleb128 0x3a
 8772 00f3 0B       		.uleb128 0xb
 8773 00f4 3B       		.uleb128 0x3b
 8774 00f5 05       		.uleb128 0x5
 8775 00f6 01       		.uleb128 0x1
 8776 00f7 13       		.uleb128 0x13
 8777 00f8 00       		.byte	0
 8778 00f9 00       		.byte	0
 8779 00fa 17       		.uleb128 0x17
 8780 00fb 0D       		.uleb128 0xd
 8781 00fc 00       		.byte	0
 8782 00fd 03       		.uleb128 0x3
 8783 00fe 0E       		.uleb128 0xe
 8784 00ff 3A       		.uleb128 0x3a
 8785 0100 0B       		.uleb128 0xb
 8786 0101 3B       		.uleb128 0x3b
 8787 0102 05       		.uleb128 0x5
 8788 0103 49       		.uleb128 0x49
 8789 0104 13       		.uleb128 0x13
 8790 0105 38       		.uleb128 0x38
 8791 0106 0B       		.uleb128 0xb
 8792 0107 00       		.byte	0
 8793 0108 00       		.byte	0
 8794 0109 18       		.uleb128 0x18
 8795 010a 0F       		.uleb128 0xf
 8796 010b 00       		.byte	0
 8797 010c 0B       		.uleb128 0xb
 8798 010d 0B       		.uleb128 0xb
 8799 010e 49       		.uleb128 0x49
 8800 010f 13       		.uleb128 0x13
 8801 0110 00       		.byte	0
 8802 0111 00       		.byte	0
 8803 0112 19       		.uleb128 0x19
 8804 0113 17       		.uleb128 0x17
 8805 0114 01       		.byte	0x1
 8806 0115 0B       		.uleb128 0xb
 8807 0116 0B       		.uleb128 0xb
 8808 0117 3A       		.uleb128 0x3a
 8809 0118 0B       		.uleb128 0xb
 8810 0119 3B       		.uleb128 0x3b
 8811 011a 05       		.uleb128 0x5
 8812 011b 01       		.uleb128 0x1
 8813 011c 13       		.uleb128 0x13
 8814 011d 00       		.byte	0
 8815 011e 00       		.byte	0
 8816 011f 1A       		.uleb128 0x1a
 8817 0120 0D       		.uleb128 0xd
 8818 0121 00       		.byte	0
 8819 0122 03       		.uleb128 0x3
 8820 0123 0E       		.uleb128 0xe
ARM GAS  C:\Users\salaz\AppData\Local\Temp\ccj0QfQu.s 			page 190


 8821 0124 3A       		.uleb128 0x3a
 8822 0125 0B       		.uleb128 0xb
 8823 0126 3B       		.uleb128 0x3b
 8824 0127 05       		.uleb128 0x5
 8825 0128 49       		.uleb128 0x49
 8826 0129 13       		.uleb128 0x13
 8827 012a 00       		.byte	0
 8828 012b 00       		.byte	0
 8829 012c 1B       		.uleb128 0x1b
 8830 012d 0D       		.uleb128 0xd
 8831 012e 00       		.byte	0
 8832 012f 03       		.uleb128 0x3
 8833 0130 08       		.uleb128 0x8
 8834 0131 3A       		.uleb128 0x3a
 8835 0132 0B       		.uleb128 0xb
 8836 0133 3B       		.uleb128 0x3b
 8837 0134 05       		.uleb128 0x5
 8838 0135 49       		.uleb128 0x49
 8839 0136 13       		.uleb128 0x13
 8840 0137 38       		.uleb128 0x38
 8841 0138 0B       		.uleb128 0xb
 8842 0139 00       		.byte	0
 8843 013a 00       		.byte	0
 8844 013b 1C       		.uleb128 0x1c
 8845 013c 17       		.uleb128 0x17
 8846 013d 01       		.byte	0x1
 8847 013e 0B       		.uleb128 0xb
 8848 013f 0B       		.uleb128 0xb
 8849 0140 3A       		.uleb128 0x3a
 8850 0141 0B       		.uleb128 0xb
 8851 0142 3B       		.uleb128 0x3b
 8852 0143 0B       		.uleb128 0xb
 8853 0144 01       		.uleb128 0x1
 8854 0145 13       		.uleb128 0x13
 8855 0146 00       		.byte	0
 8856 0147 00       		.byte	0
 8857 0148 1D       		.uleb128 0x1d
 8858 0149 0D       		.uleb128 0xd
 8859 014a 00       		.byte	0
 8860 014b 03       		.uleb128 0x3
 8861 014c 0E       		.uleb128 0xe
 8862 014d 3A       		.uleb128 0x3a
 8863 014e 0B       		.uleb128 0xb
 8864 014f 3B       		.uleb128 0x3b
 8865 0150 0B       		.uleb128 0xb
 8866 0151 49       		.uleb128 0x49
 8867 0152 13       		.uleb128 0x13
 8868 0153 00       		.byte	0
 8869 0154 00       		.byte	0
 8870 0155 1E       		.uleb128 0x1e
 8871 0156 15       		.uleb128 0x15
 8872 0157 01       		.byte	0x1
 8873 0158 27       		.uleb128 0x27
 8874 0159 19       		.uleb128 0x19
 8875 015a 01       		.uleb128 0x1
 8876 015b 13       		.uleb128 0x13
 8877 015c 00       		.byte	0
ARM GAS  C:\Users\salaz\AppData\Local\Temp\ccj0QfQu.s 			page 191


 8878 015d 00       		.byte	0
 8879 015e 1F       		.uleb128 0x1f
 8880 015f 05       		.uleb128 0x5
 8881 0160 00       		.byte	0
 8882 0161 49       		.uleb128 0x49
 8883 0162 13       		.uleb128 0x13
 8884 0163 00       		.byte	0
 8885 0164 00       		.byte	0
 8886 0165 20       		.uleb128 0x20
 8887 0166 13       		.uleb128 0x13
 8888 0167 01       		.byte	0x1
 8889 0168 0B       		.uleb128 0xb
 8890 0169 05       		.uleb128 0x5
 8891 016a 3A       		.uleb128 0x3a
 8892 016b 0B       		.uleb128 0xb
 8893 016c 3B       		.uleb128 0x3b
 8894 016d 05       		.uleb128 0x5
 8895 016e 01       		.uleb128 0x1
 8896 016f 13       		.uleb128 0x13
 8897 0170 00       		.byte	0
 8898 0171 00       		.byte	0
 8899 0172 21       		.uleb128 0x21
 8900 0173 0D       		.uleb128 0xd
 8901 0174 00       		.byte	0
 8902 0175 03       		.uleb128 0x3
 8903 0176 0E       		.uleb128 0xe
 8904 0177 3A       		.uleb128 0x3a
 8905 0178 0B       		.uleb128 0xb
 8906 0179 3B       		.uleb128 0x3b
 8907 017a 05       		.uleb128 0x5
 8908 017b 49       		.uleb128 0x49
 8909 017c 13       		.uleb128 0x13
 8910 017d 38       		.uleb128 0x38
 8911 017e 05       		.uleb128 0x5
 8912 017f 00       		.byte	0
 8913 0180 00       		.byte	0
 8914 0181 22       		.uleb128 0x22
 8915 0182 15       		.uleb128 0x15
 8916 0183 01       		.byte	0x1
 8917 0184 27       		.uleb128 0x27
 8918 0185 19       		.uleb128 0x19
 8919 0186 49       		.uleb128 0x49
 8920 0187 13       		.uleb128 0x13
 8921 0188 01       		.uleb128 0x1
 8922 0189 13       		.uleb128 0x13
 8923 018a 00       		.byte	0
 8924 018b 00       		.byte	0
 8925 018c 23       		.uleb128 0x23
 8926 018d 2E       		.uleb128 0x2e
 8927 018e 01       		.byte	0x1
 8928 018f 03       		.uleb128 0x3
 8929 0190 0E       		.uleb128 0xe
 8930 0191 3A       		.uleb128 0x3a
 8931 0192 0B       		.uleb128 0xb
 8932 0193 3B       		.uleb128 0x3b
 8933 0194 05       		.uleb128 0x5
 8934 0195 27       		.uleb128 0x27
ARM GAS  C:\Users\salaz\AppData\Local\Temp\ccj0QfQu.s 			page 192


 8935 0196 19       		.uleb128 0x19
 8936 0197 49       		.uleb128 0x49
 8937 0198 13       		.uleb128 0x13
 8938 0199 20       		.uleb128 0x20
 8939 019a 0B       		.uleb128 0xb
 8940 019b 01       		.uleb128 0x1
 8941 019c 13       		.uleb128 0x13
 8942 019d 00       		.byte	0
 8943 019e 00       		.byte	0
 8944 019f 24       		.uleb128 0x24
 8945 01a0 05       		.uleb128 0x5
 8946 01a1 00       		.byte	0
 8947 01a2 03       		.uleb128 0x3
 8948 01a3 0E       		.uleb128 0xe
 8949 01a4 3A       		.uleb128 0x3a
 8950 01a5 0B       		.uleb128 0xb
 8951 01a6 3B       		.uleb128 0x3b
 8952 01a7 05       		.uleb128 0x5
 8953 01a8 49       		.uleb128 0x49
 8954 01a9 13       		.uleb128 0x13
 8955 01aa 00       		.byte	0
 8956 01ab 00       		.byte	0
 8957 01ac 25       		.uleb128 0x25
 8958 01ad 2E       		.uleb128 0x2e
 8959 01ae 01       		.byte	0x1
 8960 01af 03       		.uleb128 0x3
 8961 01b0 0E       		.uleb128 0xe
 8962 01b1 3A       		.uleb128 0x3a
 8963 01b2 0B       		.uleb128 0xb
 8964 01b3 3B       		.uleb128 0x3b
 8965 01b4 05       		.uleb128 0x5
 8966 01b5 27       		.uleb128 0x27
 8967 01b6 19       		.uleb128 0x19
 8968 01b7 20       		.uleb128 0x20
 8969 01b8 0B       		.uleb128 0xb
 8970 01b9 01       		.uleb128 0x1
 8971 01ba 13       		.uleb128 0x13
 8972 01bb 00       		.byte	0
 8973 01bc 00       		.byte	0
 8974 01bd 26       		.uleb128 0x26
 8975 01be 2E       		.uleb128 0x2e
 8976 01bf 00       		.byte	0
 8977 01c0 03       		.uleb128 0x3
 8978 01c1 0E       		.uleb128 0xe
 8979 01c2 3A       		.uleb128 0x3a
 8980 01c3 0B       		.uleb128 0xb
 8981 01c4 3B       		.uleb128 0x3b
 8982 01c5 05       		.uleb128 0x5
 8983 01c6 27       		.uleb128 0x27
 8984 01c7 19       		.uleb128 0x19
 8985 01c8 49       		.uleb128 0x49
 8986 01c9 13       		.uleb128 0x13
 8987 01ca 20       		.uleb128 0x20
 8988 01cb 0B       		.uleb128 0xb
 8989 01cc 00       		.byte	0
 8990 01cd 00       		.byte	0
 8991 01ce 27       		.uleb128 0x27
ARM GAS  C:\Users\salaz\AppData\Local\Temp\ccj0QfQu.s 			page 193


 8992 01cf 2E       		.uleb128 0x2e
 8993 01d0 01       		.byte	0x1
 8994 01d1 03       		.uleb128 0x3
 8995 01d2 0E       		.uleb128 0xe
 8996 01d3 3A       		.uleb128 0x3a
 8997 01d4 0B       		.uleb128 0xb
 8998 01d5 3B       		.uleb128 0x3b
 8999 01d6 0B       		.uleb128 0xb
 9000 01d7 27       		.uleb128 0x27
 9001 01d8 19       		.uleb128 0x19
 9002 01d9 11       		.uleb128 0x11
 9003 01da 01       		.uleb128 0x1
 9004 01db 12       		.uleb128 0x12
 9005 01dc 06       		.uleb128 0x6
 9006 01dd 40       		.uleb128 0x40
 9007 01de 18       		.uleb128 0x18
 9008 01df 9742     		.uleb128 0x2117
 9009 01e1 19       		.uleb128 0x19
 9010 01e2 01       		.uleb128 0x1
 9011 01e3 13       		.uleb128 0x13
 9012 01e4 00       		.byte	0
 9013 01e5 00       		.byte	0
 9014 01e6 28       		.uleb128 0x28
 9015 01e7 05       		.uleb128 0x5
 9016 01e8 00       		.byte	0
 9017 01e9 03       		.uleb128 0x3
 9018 01ea 0E       		.uleb128 0xe
 9019 01eb 3A       		.uleb128 0x3a
 9020 01ec 0B       		.uleb128 0xb
 9021 01ed 3B       		.uleb128 0x3b
 9022 01ee 0B       		.uleb128 0xb
 9023 01ef 49       		.uleb128 0x49
 9024 01f0 13       		.uleb128 0x13
 9025 01f1 02       		.uleb128 0x2
 9026 01f2 17       		.uleb128 0x17
 9027 01f3 00       		.byte	0
 9028 01f4 00       		.byte	0
 9029 01f5 29       		.uleb128 0x29
 9030 01f6 34       		.uleb128 0x34
 9031 01f7 00       		.byte	0
 9032 01f8 03       		.uleb128 0x3
 9033 01f9 0E       		.uleb128 0xe
 9034 01fa 3A       		.uleb128 0x3a
 9035 01fb 0B       		.uleb128 0xb
 9036 01fc 3B       		.uleb128 0x3b
 9037 01fd 0B       		.uleb128 0xb
 9038 01fe 49       		.uleb128 0x49
 9039 01ff 13       		.uleb128 0x13
 9040 0200 02       		.uleb128 0x2
 9041 0201 18       		.uleb128 0x18
 9042 0202 00       		.byte	0
 9043 0203 00       		.byte	0
 9044 0204 2A       		.uleb128 0x2a
 9045 0205 898201   		.uleb128 0x4109
 9046 0208 01       		.byte	0x1
 9047 0209 11       		.uleb128 0x11
 9048 020a 01       		.uleb128 0x1
ARM GAS  C:\Users\salaz\AppData\Local\Temp\ccj0QfQu.s 			page 194


 9049 020b 31       		.uleb128 0x31
 9050 020c 13       		.uleb128 0x13
 9051 020d 01       		.uleb128 0x1
 9052 020e 13       		.uleb128 0x13
 9053 020f 00       		.byte	0
 9054 0210 00       		.byte	0
 9055 0211 2B       		.uleb128 0x2b
 9056 0212 8A8201   		.uleb128 0x410a
 9057 0215 00       		.byte	0
 9058 0216 02       		.uleb128 0x2
 9059 0217 18       		.uleb128 0x18
 9060 0218 9142     		.uleb128 0x2111
 9061 021a 18       		.uleb128 0x18
 9062 021b 00       		.byte	0
 9063 021c 00       		.byte	0
 9064 021d 2C       		.uleb128 0x2c
 9065 021e 898201   		.uleb128 0x4109
 9066 0221 00       		.byte	0
 9067 0222 11       		.uleb128 0x11
 9068 0223 01       		.uleb128 0x1
 9069 0224 31       		.uleb128 0x31
 9070 0225 13       		.uleb128 0x13
 9071 0226 00       		.byte	0
 9072 0227 00       		.byte	0
 9073 0228 2D       		.uleb128 0x2d
 9074 0229 2E       		.uleb128 0x2e
 9075 022a 01       		.byte	0x1
 9076 022b 3F       		.uleb128 0x3f
 9077 022c 19       		.uleb128 0x19
 9078 022d 03       		.uleb128 0x3
 9079 022e 0E       		.uleb128 0xe
 9080 022f 3A       		.uleb128 0x3a
 9081 0230 0B       		.uleb128 0xb
 9082 0231 3B       		.uleb128 0x3b
 9083 0232 0B       		.uleb128 0xb
 9084 0233 27       		.uleb128 0x27
 9085 0234 19       		.uleb128 0x19
 9086 0235 49       		.uleb128 0x49
 9087 0236 13       		.uleb128 0x13
 9088 0237 11       		.uleb128 0x11
 9089 0238 01       		.uleb128 0x1
 9090 0239 12       		.uleb128 0x12
 9091 023a 06       		.uleb128 0x6
 9092 023b 40       		.uleb128 0x40
 9093 023c 18       		.uleb128 0x18
 9094 023d 9742     		.uleb128 0x2117
 9095 023f 19       		.uleb128 0x19
 9096 0240 01       		.uleb128 0x1
 9097 0241 13       		.uleb128 0x13
 9098 0242 00       		.byte	0
 9099 0243 00       		.byte	0
 9100 0244 2E       		.uleb128 0x2e
 9101 0245 34       		.uleb128 0x34
 9102 0246 00       		.byte	0
 9103 0247 03       		.uleb128 0x3
 9104 0248 0E       		.uleb128 0xe
 9105 0249 3A       		.uleb128 0x3a
ARM GAS  C:\Users\salaz\AppData\Local\Temp\ccj0QfQu.s 			page 195


 9106 024a 0B       		.uleb128 0xb
 9107 024b 3B       		.uleb128 0x3b
 9108 024c 0B       		.uleb128 0xb
 9109 024d 49       		.uleb128 0x49
 9110 024e 13       		.uleb128 0x13
 9111 024f 02       		.uleb128 0x2
 9112 0250 17       		.uleb128 0x17
 9113 0251 00       		.byte	0
 9114 0252 00       		.byte	0
 9115 0253 2F       		.uleb128 0x2f
 9116 0254 0B       		.uleb128 0xb
 9117 0255 01       		.byte	0x1
 9118 0256 55       		.uleb128 0x55
 9119 0257 17       		.uleb128 0x17
 9120 0258 00       		.byte	0
 9121 0259 00       		.byte	0
 9122 025a 30       		.uleb128 0x30
 9123 025b 34       		.uleb128 0x34
 9124 025c 00       		.byte	0
 9125 025d 03       		.uleb128 0x3
 9126 025e 08       		.uleb128 0x8
 9127 025f 3A       		.uleb128 0x3a
 9128 0260 0B       		.uleb128 0xb
 9129 0261 3B       		.uleb128 0x3b
 9130 0262 0B       		.uleb128 0xb
 9131 0263 49       		.uleb128 0x49
 9132 0264 13       		.uleb128 0x13
 9133 0265 02       		.uleb128 0x2
 9134 0266 17       		.uleb128 0x17
 9135 0267 00       		.byte	0
 9136 0268 00       		.byte	0
 9137 0269 31       		.uleb128 0x31
 9138 026a 898201   		.uleb128 0x4109
 9139 026d 01       		.byte	0x1
 9140 026e 11       		.uleb128 0x11
 9141 026f 01       		.uleb128 0x1
 9142 0270 00       		.byte	0
 9143 0271 00       		.byte	0
 9144 0272 32       		.uleb128 0x32
 9145 0273 2E       		.uleb128 0x2e
 9146 0274 01       		.byte	0x1
 9147 0275 3F       		.uleb128 0x3f
 9148 0276 19       		.uleb128 0x19
 9149 0277 03       		.uleb128 0x3
 9150 0278 0E       		.uleb128 0xe
 9151 0279 3A       		.uleb128 0x3a
 9152 027a 0B       		.uleb128 0xb
 9153 027b 3B       		.uleb128 0x3b
 9154 027c 05       		.uleb128 0x5
 9155 027d 27       		.uleb128 0x27
 9156 027e 19       		.uleb128 0x19
 9157 027f 49       		.uleb128 0x49
 9158 0280 13       		.uleb128 0x13
 9159 0281 11       		.uleb128 0x11
 9160 0282 01       		.uleb128 0x1
 9161 0283 12       		.uleb128 0x12
 9162 0284 06       		.uleb128 0x6
ARM GAS  C:\Users\salaz\AppData\Local\Temp\ccj0QfQu.s 			page 196


 9163 0285 40       		.uleb128 0x40
 9164 0286 18       		.uleb128 0x18
 9165 0287 9742     		.uleb128 0x2117
 9166 0289 19       		.uleb128 0x19
 9167 028a 01       		.uleb128 0x1
 9168 028b 13       		.uleb128 0x13
 9169 028c 00       		.byte	0
 9170 028d 00       		.byte	0
 9171 028e 33       		.uleb128 0x33
 9172 028f 05       		.uleb128 0x5
 9173 0290 00       		.byte	0
 9174 0291 03       		.uleb128 0x3
 9175 0292 0E       		.uleb128 0xe
 9176 0293 3A       		.uleb128 0x3a
 9177 0294 0B       		.uleb128 0xb
 9178 0295 3B       		.uleb128 0x3b
 9179 0296 05       		.uleb128 0x5
 9180 0297 49       		.uleb128 0x49
 9181 0298 13       		.uleb128 0x13
 9182 0299 02       		.uleb128 0x2
 9183 029a 17       		.uleb128 0x17
 9184 029b 00       		.byte	0
 9185 029c 00       		.byte	0
 9186 029d 34       		.uleb128 0x34
 9187 029e 34       		.uleb128 0x34
 9188 029f 00       		.byte	0
 9189 02a0 03       		.uleb128 0x3
 9190 02a1 0E       		.uleb128 0xe
 9191 02a2 3A       		.uleb128 0x3a
 9192 02a3 0B       		.uleb128 0xb
 9193 02a4 3B       		.uleb128 0x3b
 9194 02a5 05       		.uleb128 0x5
 9195 02a6 49       		.uleb128 0x49
 9196 02a7 13       		.uleb128 0x13
 9197 02a8 02       		.uleb128 0x2
 9198 02a9 17       		.uleb128 0x17
 9199 02aa 00       		.byte	0
 9200 02ab 00       		.byte	0
 9201 02ac 35       		.uleb128 0x35
 9202 02ad 34       		.uleb128 0x34
 9203 02ae 00       		.byte	0
 9204 02af 03       		.uleb128 0x3
 9205 02b0 08       		.uleb128 0x8
 9206 02b1 3A       		.uleb128 0x3a
 9207 02b2 0B       		.uleb128 0xb
 9208 02b3 3B       		.uleb128 0x3b
 9209 02b4 05       		.uleb128 0x5
 9210 02b5 49       		.uleb128 0x49
 9211 02b6 13       		.uleb128 0x13
 9212 02b7 02       		.uleb128 0x2
 9213 02b8 17       		.uleb128 0x17
 9214 02b9 00       		.byte	0
 9215 02ba 00       		.byte	0
 9216 02bb 36       		.uleb128 0x36
 9217 02bc 34       		.uleb128 0x34
 9218 02bd 00       		.byte	0
 9219 02be 03       		.uleb128 0x3
ARM GAS  C:\Users\salaz\AppData\Local\Temp\ccj0QfQu.s 			page 197


 9220 02bf 08       		.uleb128 0x8
 9221 02c0 3A       		.uleb128 0x3a
 9222 02c1 0B       		.uleb128 0xb
 9223 02c2 3B       		.uleb128 0x3b
 9224 02c3 05       		.uleb128 0x5
 9225 02c4 49       		.uleb128 0x49
 9226 02c5 13       		.uleb128 0x13
 9227 02c6 00       		.byte	0
 9228 02c7 00       		.byte	0
 9229 02c8 37       		.uleb128 0x37
 9230 02c9 34       		.uleb128 0x34
 9231 02ca 00       		.byte	0
 9232 02cb 03       		.uleb128 0x3
 9233 02cc 0E       		.uleb128 0xe
 9234 02cd 3A       		.uleb128 0x3a
 9235 02ce 0B       		.uleb128 0xb
 9236 02cf 3B       		.uleb128 0x3b
 9237 02d0 05       		.uleb128 0x5
 9238 02d1 49       		.uleb128 0x49
 9239 02d2 13       		.uleb128 0x13
 9240 02d3 00       		.byte	0
 9241 02d4 00       		.byte	0
 9242 02d5 38       		.uleb128 0x38
 9243 02d6 2E       		.uleb128 0x2e
 9244 02d7 01       		.byte	0x1
 9245 02d8 3F       		.uleb128 0x3f
 9246 02d9 19       		.uleb128 0x19
 9247 02da 03       		.uleb128 0x3
 9248 02db 0E       		.uleb128 0xe
 9249 02dc 3A       		.uleb128 0x3a
 9250 02dd 0B       		.uleb128 0xb
 9251 02de 3B       		.uleb128 0x3b
 9252 02df 05       		.uleb128 0x5
 9253 02e0 27       		.uleb128 0x27
 9254 02e1 19       		.uleb128 0x19
 9255 02e2 11       		.uleb128 0x11
 9256 02e3 01       		.uleb128 0x1
 9257 02e4 12       		.uleb128 0x12
 9258 02e5 06       		.uleb128 0x6
 9259 02e6 40       		.uleb128 0x40
 9260 02e7 18       		.uleb128 0x18
 9261 02e8 9742     		.uleb128 0x2117
 9262 02ea 19       		.uleb128 0x19
 9263 02eb 01       		.uleb128 0x1
 9264 02ec 13       		.uleb128 0x13
 9265 02ed 00       		.byte	0
 9266 02ee 00       		.byte	0
 9267 02ef 39       		.uleb128 0x39
 9268 02f0 0B       		.uleb128 0xb
 9269 02f1 01       		.byte	0x1
 9270 02f2 11       		.uleb128 0x11
 9271 02f3 01       		.uleb128 0x1
 9272 02f4 12       		.uleb128 0x12
 9273 02f5 06       		.uleb128 0x6
 9274 02f6 01       		.uleb128 0x1
 9275 02f7 13       		.uleb128 0x13
 9276 02f8 00       		.byte	0
ARM GAS  C:\Users\salaz\AppData\Local\Temp\ccj0QfQu.s 			page 198


 9277 02f9 00       		.byte	0
 9278 02fa 3A       		.uleb128 0x3a
 9279 02fb 34       		.uleb128 0x34
 9280 02fc 00       		.byte	0
 9281 02fd 03       		.uleb128 0x3
 9282 02fe 0E       		.uleb128 0xe
 9283 02ff 3A       		.uleb128 0x3a
 9284 0300 0B       		.uleb128 0xb
 9285 0301 3B       		.uleb128 0x3b
 9286 0302 05       		.uleb128 0x5
 9287 0303 49       		.uleb128 0x49
 9288 0304 13       		.uleb128 0x13
 9289 0305 02       		.uleb128 0x2
 9290 0306 18       		.uleb128 0x18
 9291 0307 00       		.byte	0
 9292 0308 00       		.byte	0
 9293 0309 3B       		.uleb128 0x3b
 9294 030a 898201   		.uleb128 0x4109
 9295 030d 01       		.byte	0x1
 9296 030e 11       		.uleb128 0x11
 9297 030f 01       		.uleb128 0x1
 9298 0310 31       		.uleb128 0x31
 9299 0311 13       		.uleb128 0x13
 9300 0312 00       		.byte	0
 9301 0313 00       		.byte	0
 9302 0314 3C       		.uleb128 0x3c
 9303 0315 1D       		.uleb128 0x1d
 9304 0316 01       		.byte	0x1
 9305 0317 31       		.uleb128 0x31
 9306 0318 13       		.uleb128 0x13
 9307 0319 11       		.uleb128 0x11
 9308 031a 01       		.uleb128 0x1
 9309 031b 12       		.uleb128 0x12
 9310 031c 06       		.uleb128 0x6
 9311 031d 58       		.uleb128 0x58
 9312 031e 0B       		.uleb128 0xb
 9313 031f 59       		.uleb128 0x59
 9314 0320 05       		.uleb128 0x5
 9315 0321 01       		.uleb128 0x1
 9316 0322 13       		.uleb128 0x13
 9317 0323 00       		.byte	0
 9318 0324 00       		.byte	0
 9319 0325 3D       		.uleb128 0x3d
 9320 0326 05       		.uleb128 0x5
 9321 0327 00       		.byte	0
 9322 0328 31       		.uleb128 0x31
 9323 0329 13       		.uleb128 0x13
 9324 032a 02       		.uleb128 0x2
 9325 032b 17       		.uleb128 0x17
 9326 032c 00       		.byte	0
 9327 032d 00       		.byte	0
 9328 032e 3E       		.uleb128 0x3e
 9329 032f 0B       		.uleb128 0xb
 9330 0330 01       		.byte	0x1
 9331 0331 11       		.uleb128 0x11
 9332 0332 01       		.uleb128 0x1
 9333 0333 12       		.uleb128 0x12
ARM GAS  C:\Users\salaz\AppData\Local\Temp\ccj0QfQu.s 			page 199


 9334 0334 06       		.uleb128 0x6
 9335 0335 00       		.byte	0
 9336 0336 00       		.byte	0
 9337 0337 3F       		.uleb128 0x3f
 9338 0338 34       		.uleb128 0x34
 9339 0339 00       		.byte	0
 9340 033a 31       		.uleb128 0x31
 9341 033b 13       		.uleb128 0x13
 9342 033c 02       		.uleb128 0x2
 9343 033d 17       		.uleb128 0x17
 9344 033e 00       		.byte	0
 9345 033f 00       		.byte	0
 9346 0340 40       		.uleb128 0x40
 9347 0341 34       		.uleb128 0x34
 9348 0342 00       		.byte	0
 9349 0343 31       		.uleb128 0x31
 9350 0344 13       		.uleb128 0x13
 9351 0345 02       		.uleb128 0x2
 9352 0346 18       		.uleb128 0x18
 9353 0347 00       		.byte	0
 9354 0348 00       		.byte	0
 9355 0349 41       		.uleb128 0x41
 9356 034a 05       		.uleb128 0x5
 9357 034b 00       		.byte	0
 9358 034c 31       		.uleb128 0x31
 9359 034d 13       		.uleb128 0x13
 9360 034e 02       		.uleb128 0x2
 9361 034f 18       		.uleb128 0x18
 9362 0350 00       		.byte	0
 9363 0351 00       		.byte	0
 9364 0352 42       		.uleb128 0x42
 9365 0353 1D       		.uleb128 0x1d
 9366 0354 01       		.byte	0x1
 9367 0355 31       		.uleb128 0x31
 9368 0356 13       		.uleb128 0x13
 9369 0357 11       		.uleb128 0x11
 9370 0358 01       		.uleb128 0x1
 9371 0359 12       		.uleb128 0x12
 9372 035a 06       		.uleb128 0x6
 9373 035b 58       		.uleb128 0x58
 9374 035c 0B       		.uleb128 0xb
 9375 035d 59       		.uleb128 0x59
 9376 035e 05       		.uleb128 0x5
 9377 035f 00       		.byte	0
 9378 0360 00       		.byte	0
 9379 0361 43       		.uleb128 0x43
 9380 0362 1D       		.uleb128 0x1d
 9381 0363 00       		.byte	0
 9382 0364 31       		.uleb128 0x31
 9383 0365 13       		.uleb128 0x13
 9384 0366 11       		.uleb128 0x11
 9385 0367 01       		.uleb128 0x1
 9386 0368 12       		.uleb128 0x12
 9387 0369 06       		.uleb128 0x6
 9388 036a 58       		.uleb128 0x58
 9389 036b 0B       		.uleb128 0xb
 9390 036c 59       		.uleb128 0x59
ARM GAS  C:\Users\salaz\AppData\Local\Temp\ccj0QfQu.s 			page 200


 9391 036d 05       		.uleb128 0x5
 9392 036e 00       		.byte	0
 9393 036f 00       		.byte	0
 9394 0370 44       		.uleb128 0x44
 9395 0371 898201   		.uleb128 0x4109
 9396 0374 01       		.byte	0x1
 9397 0375 11       		.uleb128 0x11
 9398 0376 01       		.uleb128 0x1
 9399 0377 01       		.uleb128 0x1
 9400 0378 13       		.uleb128 0x13
 9401 0379 00       		.byte	0
 9402 037a 00       		.byte	0
 9403 037b 45       		.uleb128 0x45
 9404 037c 34       		.uleb128 0x34
 9405 037d 00       		.byte	0
 9406 037e 03       		.uleb128 0x3
 9407 037f 0E       		.uleb128 0xe
 9408 0380 3A       		.uleb128 0x3a
 9409 0381 0B       		.uleb128 0xb
 9410 0382 3B       		.uleb128 0x3b
 9411 0383 0B       		.uleb128 0xb
 9412 0384 49       		.uleb128 0x49
 9413 0385 13       		.uleb128 0x13
 9414 0386 3F       		.uleb128 0x3f
 9415 0387 19       		.uleb128 0x19
 9416 0388 02       		.uleb128 0x2
 9417 0389 18       		.uleb128 0x18
 9418 038a 00       		.byte	0
 9419 038b 00       		.byte	0
 9420 038c 46       		.uleb128 0x46
 9421 038d 34       		.uleb128 0x34
 9422 038e 00       		.byte	0
 9423 038f 03       		.uleb128 0x3
 9424 0390 0E       		.uleb128 0xe
 9425 0391 3A       		.uleb128 0x3a
 9426 0392 0B       		.uleb128 0xb
 9427 0393 3B       		.uleb128 0x3b
 9428 0394 05       		.uleb128 0x5
 9429 0395 49       		.uleb128 0x49
 9430 0396 13       		.uleb128 0x13
 9431 0397 3F       		.uleb128 0x3f
 9432 0398 19       		.uleb128 0x19
 9433 0399 3C       		.uleb128 0x3c
 9434 039a 19       		.uleb128 0x19
 9435 039b 00       		.byte	0
 9436 039c 00       		.byte	0
 9437 039d 47       		.uleb128 0x47
 9438 039e 2E       		.uleb128 0x2e
 9439 039f 00       		.byte	0
 9440 03a0 3F       		.uleb128 0x3f
 9441 03a1 19       		.uleb128 0x19
 9442 03a2 3C       		.uleb128 0x3c
 9443 03a3 19       		.uleb128 0x19
 9444 03a4 6E       		.uleb128 0x6e
 9445 03a5 0E       		.uleb128 0xe
 9446 03a6 03       		.uleb128 0x3
 9447 03a7 0E       		.uleb128 0xe
ARM GAS  C:\Users\salaz\AppData\Local\Temp\ccj0QfQu.s 			page 201


 9448 03a8 00       		.byte	0
 9449 03a9 00       		.byte	0
 9450 03aa 48       		.uleb128 0x48
 9451 03ab 2E       		.uleb128 0x2e
 9452 03ac 00       		.byte	0
 9453 03ad 3F       		.uleb128 0x3f
 9454 03ae 19       		.uleb128 0x19
 9455 03af 3C       		.uleb128 0x3c
 9456 03b0 19       		.uleb128 0x19
 9457 03b1 6E       		.uleb128 0x6e
 9458 03b2 0E       		.uleb128 0xe
 9459 03b3 03       		.uleb128 0x3
 9460 03b4 0E       		.uleb128 0xe
 9461 03b5 3A       		.uleb128 0x3a
 9462 03b6 0B       		.uleb128 0xb
 9463 03b7 3B       		.uleb128 0x3b
 9464 03b8 05       		.uleb128 0x5
 9465 03b9 00       		.byte	0
 9466 03ba 00       		.byte	0
 9467 03bb 49       		.uleb128 0x49
 9468 03bc 2E       		.uleb128 0x2e
 9469 03bd 00       		.byte	0
 9470 03be 3F       		.uleb128 0x3f
 9471 03bf 19       		.uleb128 0x19
 9472 03c0 3C       		.uleb128 0x3c
 9473 03c1 19       		.uleb128 0x19
 9474 03c2 6E       		.uleb128 0x6e
 9475 03c3 0E       		.uleb128 0xe
 9476 03c4 03       		.uleb128 0x3
 9477 03c5 0E       		.uleb128 0xe
 9478 03c6 3A       		.uleb128 0x3a
 9479 03c7 0B       		.uleb128 0xb
 9480 03c8 3B       		.uleb128 0x3b
 9481 03c9 0B       		.uleb128 0xb
 9482 03ca 00       		.byte	0
 9483 03cb 00       		.byte	0
 9484 03cc 00       		.byte	0
 9485              		.section	.debug_loc,"",%progbits
 9486              	.Ldebug_loc0:
 9487              	.LLST0:
 9488 0000 00000000 		.4byte	.LVL0
 9489 0004 0E000000 		.4byte	.LVL2
 9490 0008 0100     		.2byte	0x1
 9491 000a 50       		.byte	0x50
 9492 000b 0E000000 		.4byte	.LVL2
 9493 000f 3E000000 		.4byte	.LVL6
 9494 0013 0100     		.2byte	0x1
 9495 0015 54       		.byte	0x54
 9496 0016 3E000000 		.4byte	.LVL6
 9497 001a 44000000 		.4byte	.LFE160
 9498 001e 0400     		.2byte	0x4
 9499 0020 F3       		.byte	0xf3
 9500 0021 01       		.uleb128 0x1
 9501 0022 50       		.byte	0x50
 9502 0023 9F       		.byte	0x9f
 9503 0024 00000000 		.4byte	0
 9504 0028 00000000 		.4byte	0
ARM GAS  C:\Users\salaz\AppData\Local\Temp\ccj0QfQu.s 			page 202


 9505              	.LLST1:
 9506 002c 00000000 		.4byte	.LVL0
 9507 0030 0C000000 		.4byte	.LVL1
 9508 0034 0100     		.2byte	0x1
 9509 0036 51       		.byte	0x51
 9510 0037 0C000000 		.4byte	.LVL1
 9511 003b 44000000 		.4byte	.LFE160
 9512 003f 0400     		.2byte	0x4
 9513 0041 F3       		.byte	0xf3
 9514 0042 01       		.uleb128 0x1
 9515 0043 51       		.byte	0x51
 9516 0044 9F       		.byte	0x9f
 9517 0045 00000000 		.4byte	0
 9518 0049 00000000 		.4byte	0
 9519              	.LLST2:
 9520 004d 00000000 		.4byte	.LVL7
 9521 0051 52000000 		.4byte	.LVL19
 9522 0055 0100     		.2byte	0x1
 9523 0057 50       		.byte	0x50
 9524 0058 52000000 		.4byte	.LVL19
 9525 005c 60000000 		.4byte	.LFE158
 9526 0060 0400     		.2byte	0x4
 9527 0062 F3       		.byte	0xf3
 9528 0063 01       		.uleb128 0x1
 9529 0064 50       		.byte	0x50
 9530 0065 9F       		.byte	0x9f
 9531 0066 00000000 		.4byte	0
 9532 006a 00000000 		.4byte	0
 9533              	.LLST3:
 9534 006e 02000000 		.4byte	.LVL8
 9535 0072 32000000 		.4byte	.LVL15
 9536 0076 0200     		.2byte	0x2
 9537 0078 30       		.byte	0x30
 9538 0079 9F       		.byte	0x9f
 9539 007a 32000000 		.4byte	.LVL15
 9540 007e 60000000 		.4byte	.LFE158
 9541 0082 0100     		.2byte	0x1
 9542 0084 53       		.byte	0x53
 9543 0085 00000000 		.4byte	0
 9544 0089 00000000 		.4byte	0
 9545              	.LLST4:
 9546 008d 02000000 		.4byte	.LVL8
 9547 0091 0C000000 		.4byte	.LVL9
 9548 0095 0200     		.2byte	0x2
 9549 0097 30       		.byte	0x30
 9550 0098 9F       		.byte	0x9f
 9551 0099 0C000000 		.4byte	.LVL9
 9552 009d 2A000000 		.4byte	.LVL13
 9553 00a1 0100     		.2byte	0x1
 9554 00a3 54       		.byte	0x54
 9555 00a4 2A000000 		.4byte	.LVL13
 9556 00a8 30000000 		.4byte	.LVL14
 9557 00ac 0200     		.2byte	0x2
 9558 00ae 30       		.byte	0x30
 9559 00af 9F       		.byte	0x9f
 9560 00b0 30000000 		.4byte	.LVL14
 9561 00b4 46000000 		.4byte	.LVL16
ARM GAS  C:\Users\salaz\AppData\Local\Temp\ccj0QfQu.s 			page 203


 9562 00b8 0100     		.2byte	0x1
 9563 00ba 54       		.byte	0x54
 9564 00bb 4E000000 		.4byte	.LVL17
 9565 00bf 50000000 		.4byte	.LVL18
 9566 00c3 0100     		.2byte	0x1
 9567 00c5 54       		.byte	0x54
 9568 00c6 00000000 		.4byte	0
 9569 00ca 00000000 		.4byte	0
 9570              	.LLST5:
 9571 00ce 0C000000 		.4byte	.LVL9
 9572 00d2 28000000 		.4byte	.LVL12
 9573 00d6 0100     		.2byte	0x1
 9574 00d8 53       		.byte	0x53
 9575 00d9 30000000 		.4byte	.LVL14
 9576 00dd 32000000 		.4byte	.LVL15
 9577 00e1 0100     		.2byte	0x1
 9578 00e3 53       		.byte	0x53
 9579 00e4 00000000 		.4byte	0
 9580 00e8 00000000 		.4byte	0
 9581              	.LLST6:
 9582 00ec 00000000 		.4byte	.LVL20
 9583 00f0 08000000 		.4byte	.LVL22
 9584 00f4 0100     		.2byte	0x1
 9585 00f6 50       		.byte	0x50
 9586 00f7 08000000 		.4byte	.LVL22
 9587 00fb 2A000000 		.4byte	.LVL29
 9588 00ff 0100     		.2byte	0x1
 9589 0101 56       		.byte	0x56
 9590 0102 2A000000 		.4byte	.LVL29
 9591 0106 34000000 		.4byte	.LFE159
 9592 010a 0400     		.2byte	0x4
 9593 010c F3       		.byte	0xf3
 9594 010d 01       		.uleb128 0x1
 9595 010e 50       		.byte	0x50
 9596 010f 9F       		.byte	0x9f
 9597 0110 00000000 		.4byte	0
 9598 0114 00000000 		.4byte	0
 9599              	.LLST7:
 9600 0118 00000000 		.4byte	.LVL20
 9601 011c 0C000000 		.4byte	.LVL23
 9602 0120 0100     		.2byte	0x1
 9603 0122 51       		.byte	0x51
 9604 0123 0C000000 		.4byte	.LVL23
 9605 0127 2A000000 		.4byte	.LVL28
 9606 012b 0100     		.2byte	0x1
 9607 012d 55       		.byte	0x55
 9608 012e 2A000000 		.4byte	.LVL28
 9609 0132 34000000 		.4byte	.LFE159
 9610 0136 0400     		.2byte	0x4
 9611 0138 F3       		.byte	0xf3
 9612 0139 01       		.uleb128 0x1
 9613 013a 51       		.byte	0x51
 9614 013b 9F       		.byte	0x9f
 9615 013c 00000000 		.4byte	0
 9616 0140 00000000 		.4byte	0
 9617              	.LLST8:
 9618 0144 06000000 		.4byte	.LVL21
ARM GAS  C:\Users\salaz\AppData\Local\Temp\ccj0QfQu.s 			page 204


 9619 0148 0C000000 		.4byte	.LVL23
 9620 014c 0200     		.2byte	0x2
 9621 014e 30       		.byte	0x30
 9622 014f 9F       		.byte	0x9f
 9623 0150 0C000000 		.4byte	.LVL23
 9624 0154 2A000000 		.4byte	.LVL27
 9625 0158 0100     		.2byte	0x1
 9626 015a 54       		.byte	0x54
 9627 015b 00000000 		.4byte	0
 9628 015f 00000000 		.4byte	0
 9629              	.LLST9:
 9630 0163 06000000 		.4byte	.LVL21
 9631 0167 0C000000 		.4byte	.LVL23
 9632 016b 0200     		.2byte	0x2
 9633 016d 30       		.byte	0x30
 9634 016e 9F       		.byte	0x9f
 9635 016f 0C000000 		.4byte	.LVL23
 9636 0173 16000000 		.4byte	.LVL24
 9637 0177 0100     		.2byte	0x1
 9638 0179 50       		.byte	0x50
 9639 017a 18000000 		.4byte	.LVL25
 9640 017e 34000000 		.4byte	.LFE159
 9641 0182 0100     		.2byte	0x1
 9642 0184 50       		.byte	0x50
 9643 0185 00000000 		.4byte	0
 9644 0189 00000000 		.4byte	0
 9645              	.LLST10:
 9646 018d 00000000 		.4byte	.LVL30
 9647 0191 08000000 		.4byte	.LVL31
 9648 0195 0100     		.2byte	0x1
 9649 0197 50       		.byte	0x50
 9650 0198 08000000 		.4byte	.LVL31
 9651 019c 0A000000 		.4byte	.LVL32
 9652 01a0 0400     		.2byte	0x4
 9653 01a2 F3       		.byte	0xf3
 9654 01a3 01       		.uleb128 0x1
 9655 01a4 50       		.byte	0x50
 9656 01a5 9F       		.byte	0x9f
 9657 01a6 0A000000 		.4byte	.LVL32
 9658 01aa 1C000000 		.4byte	.LVL36
 9659 01ae 0100     		.2byte	0x1
 9660 01b0 50       		.byte	0x50
 9661 01b1 1C000000 		.4byte	.LVL36
 9662 01b5 1E000000 		.4byte	.LVL37
 9663 01b9 0400     		.2byte	0x4
 9664 01bb F3       		.byte	0xf3
 9665 01bc 01       		.uleb128 0x1
 9666 01bd 50       		.byte	0x50
 9667 01be 9F       		.byte	0x9f
 9668 01bf 1E000000 		.4byte	.LVL37
 9669 01c3 20000000 		.4byte	.LVL38
 9670 01c7 0100     		.2byte	0x1
 9671 01c9 50       		.byte	0x50
 9672 01ca 20000000 		.4byte	.LVL38
 9673 01ce 22000000 		.4byte	.LFE162
 9674 01d2 0400     		.2byte	0x4
 9675 01d4 F3       		.byte	0xf3
ARM GAS  C:\Users\salaz\AppData\Local\Temp\ccj0QfQu.s 			page 205


 9676 01d5 01       		.uleb128 0x1
 9677 01d6 50       		.byte	0x50
 9678 01d7 9F       		.byte	0x9f
 9679 01d8 00000000 		.4byte	0
 9680 01dc 00000000 		.4byte	0
 9681              	.LLST11:
 9682 01e0 00000000 		.4byte	.LVL30
 9683 01e4 20000000 		.4byte	.LVL38
 9684 01e8 0200     		.2byte	0x2
 9685 01ea 30       		.byte	0x30
 9686 01eb 9F       		.byte	0x9f
 9687 01ec 20000000 		.4byte	.LVL38
 9688 01f0 22000000 		.4byte	.LFE162
 9689 01f4 0100     		.2byte	0x1
 9690 01f6 50       		.byte	0x50
 9691 01f7 00000000 		.4byte	0
 9692 01fb 00000000 		.4byte	0
 9693              	.LLST12:
 9694 01ff 0A000000 		.4byte	.LVL32
 9695 0203 14000000 		.4byte	.LVL34
 9696 0207 0100     		.2byte	0x1
 9697 0209 53       		.byte	0x53
 9698 020a 16000000 		.4byte	.LVL35
 9699 020e 20000000 		.4byte	.LVL38
 9700 0212 0100     		.2byte	0x1
 9701 0214 53       		.byte	0x53
 9702 0215 00000000 		.4byte	0
 9703 0219 00000000 		.4byte	0
 9704              	.LLST13:
 9705 021d 00000000 		.4byte	.LVL39
 9706 0221 F2000000 		.4byte	.LVL41
 9707 0225 0100     		.2byte	0x1
 9708 0227 50       		.byte	0x50
 9709 0228 F2000000 		.4byte	.LVL41
 9710 022c A8010000 		.4byte	.LVL54
 9711 0230 0400     		.2byte	0x4
 9712 0232 F3       		.byte	0xf3
 9713 0233 01       		.uleb128 0x1
 9714 0234 50       		.byte	0x50
 9715 0235 9F       		.byte	0x9f
 9716 0236 A8010000 		.4byte	.LVL54
 9717 023a B5010000 		.4byte	.LVL57-1
 9718 023e 0100     		.2byte	0x1
 9719 0240 50       		.byte	0x50
 9720 0241 B5010000 		.4byte	.LVL57-1
 9721 0245 B8010000 		.4byte	.LVL58
 9722 0249 0400     		.2byte	0x4
 9723 024b F3       		.byte	0xf3
 9724 024c 01       		.uleb128 0x1
 9725 024d 50       		.byte	0x50
 9726 024e 9F       		.byte	0x9f
 9727 024f B8010000 		.4byte	.LVL58
 9728 0253 CA010000 		.4byte	.LVL59
 9729 0257 0100     		.2byte	0x1
 9730 0259 50       		.byte	0x50
 9731 025a CA010000 		.4byte	.LVL59
 9732 025e 02020000 		.4byte	.LVL63
ARM GAS  C:\Users\salaz\AppData\Local\Temp\ccj0QfQu.s 			page 206


 9733 0262 0400     		.2byte	0x4
 9734 0264 F3       		.byte	0xf3
 9735 0265 01       		.uleb128 0x1
 9736 0266 50       		.byte	0x50
 9737 0267 9F       		.byte	0x9f
 9738 0268 02020000 		.4byte	.LVL63
 9739 026c 07020000 		.4byte	.LVL64-1
 9740 0270 0100     		.2byte	0x1
 9741 0272 50       		.byte	0x50
 9742 0273 07020000 		.4byte	.LVL64-1
 9743 0277 0A020000 		.4byte	.LVL65
 9744 027b 0400     		.2byte	0x4
 9745 027d F3       		.byte	0xf3
 9746 027e 01       		.uleb128 0x1
 9747 027f 50       		.byte	0x50
 9748 0280 9F       		.byte	0x9f
 9749 0281 0A020000 		.4byte	.LVL65
 9750 0285 16020000 		.4byte	.LVL67
 9751 0289 0100     		.2byte	0x1
 9752 028b 50       		.byte	0x50
 9753 028c 16020000 		.4byte	.LVL67
 9754 0290 88020000 		.4byte	.LVL78
 9755 0294 0400     		.2byte	0x4
 9756 0296 F3       		.byte	0xf3
 9757 0297 01       		.uleb128 0x1
 9758 0298 50       		.byte	0x50
 9759 0299 9F       		.byte	0x9f
 9760 029a 88020000 		.4byte	.LVL78
 9761 029e BE020000 		.4byte	.LVL81
 9762 02a2 0100     		.2byte	0x1
 9763 02a4 50       		.byte	0x50
 9764 02a5 BE020000 		.4byte	.LVL81
 9765 02a9 48040000 		.4byte	.LVL103
 9766 02ad 0400     		.2byte	0x4
 9767 02af F3       		.byte	0xf3
 9768 02b0 01       		.uleb128 0x1
 9769 02b1 50       		.byte	0x50
 9770 02b2 9F       		.byte	0x9f
 9771 02b3 48040000 		.4byte	.LVL103
 9772 02b7 4D040000 		.4byte	.LVL104-1
 9773 02bb 0100     		.2byte	0x1
 9774 02bd 50       		.byte	0x50
 9775 02be 4D040000 		.4byte	.LVL104-1
 9776 02c2 50040000 		.4byte	.LVL105
 9777 02c6 0400     		.2byte	0x4
 9778 02c8 F3       		.byte	0xf3
 9779 02c9 01       		.uleb128 0x1
 9780 02ca 50       		.byte	0x50
 9781 02cb 9F       		.byte	0x9f
 9782 02cc 50040000 		.4byte	.LVL105
 9783 02d0 6E040000 		.4byte	.LVL109
 9784 02d4 0100     		.2byte	0x1
 9785 02d6 50       		.byte	0x50
 9786 02d7 6E040000 		.4byte	.LVL109
 9787 02db E8040000 		.4byte	.LVL120
 9788 02df 0400     		.2byte	0x4
 9789 02e1 F3       		.byte	0xf3
ARM GAS  C:\Users\salaz\AppData\Local\Temp\ccj0QfQu.s 			page 207


 9790 02e2 01       		.uleb128 0x1
 9791 02e3 50       		.byte	0x50
 9792 02e4 9F       		.byte	0x9f
 9793 02e5 E8040000 		.4byte	.LVL120
 9794 02e9 F5040000 		.4byte	.LVL121-1
 9795 02ed 0100     		.2byte	0x1
 9796 02ef 50       		.byte	0x50
 9797 02f0 F5040000 		.4byte	.LVL121-1
 9798 02f4 68050000 		.4byte	.LVL130
 9799 02f8 0400     		.2byte	0x4
 9800 02fa F3       		.byte	0xf3
 9801 02fb 01       		.uleb128 0x1
 9802 02fc 50       		.byte	0x50
 9803 02fd 9F       		.byte	0x9f
 9804 02fe 68050000 		.4byte	.LVL130
 9805 0302 6D050000 		.4byte	.LVL131-1
 9806 0306 0100     		.2byte	0x1
 9807 0308 50       		.byte	0x50
 9808 0309 6D050000 		.4byte	.LVL131-1
 9809 030d 70050000 		.4byte	.LVL132
 9810 0311 0400     		.2byte	0x4
 9811 0313 F3       		.byte	0xf3
 9812 0314 01       		.uleb128 0x1
 9813 0315 50       		.byte	0x50
 9814 0316 9F       		.byte	0x9f
 9815 0317 70050000 		.4byte	.LVL132
 9816 031b 76050000 		.4byte	.LVL133
 9817 031f 0100     		.2byte	0x1
 9818 0321 50       		.byte	0x50
 9819 0322 76050000 		.4byte	.LVL133
 9820 0326 2A060000 		.4byte	.LVL143
 9821 032a 0400     		.2byte	0x4
 9822 032c F3       		.byte	0xf3
 9823 032d 01       		.uleb128 0x1
 9824 032e 50       		.byte	0x50
 9825 032f 9F       		.byte	0x9f
 9826 0330 2A060000 		.4byte	.LVL143
 9827 0334 32060000 		.4byte	.LVL144
 9828 0338 0100     		.2byte	0x1
 9829 033a 50       		.byte	0x50
 9830 033b 32060000 		.4byte	.LVL144
 9831 033f 64060000 		.4byte	.LVL148
 9832 0343 0400     		.2byte	0x4
 9833 0345 F3       		.byte	0xf3
 9834 0346 01       		.uleb128 0x1
 9835 0347 50       		.byte	0x50
 9836 0348 9F       		.byte	0x9f
 9837 0349 64060000 		.4byte	.LVL148
 9838 034d 66060000 		.4byte	.LVL149
 9839 0351 0100     		.2byte	0x1
 9840 0353 50       		.byte	0x50
 9841 0354 66060000 		.4byte	.LVL149
 9842 0358 74060000 		.4byte	.LVL151
 9843 035c 0400     		.2byte	0x4
 9844 035e F3       		.byte	0xf3
 9845 035f 01       		.uleb128 0x1
 9846 0360 50       		.byte	0x50
ARM GAS  C:\Users\salaz\AppData\Local\Temp\ccj0QfQu.s 			page 208


 9847 0361 9F       		.byte	0x9f
 9848 0362 74060000 		.4byte	.LVL151
 9849 0366 80060000 		.4byte	.LVL152
 9850 036a 0100     		.2byte	0x1
 9851 036c 50       		.byte	0x50
 9852 036d 80060000 		.4byte	.LVL152
 9853 0371 9C060000 		.4byte	.LVL154
 9854 0375 0400     		.2byte	0x4
 9855 0377 F3       		.byte	0xf3
 9856 0378 01       		.uleb128 0x1
 9857 0379 50       		.byte	0x50
 9858 037a 9F       		.byte	0x9f
 9859 037b 9C060000 		.4byte	.LVL154
 9860 037f 9E060000 		.4byte	.LVL155
 9861 0383 0100     		.2byte	0x1
 9862 0385 50       		.byte	0x50
 9863 0386 9E060000 		.4byte	.LVL155
 9864 038a B8060000 		.4byte	.LVL162
 9865 038e 0400     		.2byte	0x4
 9866 0390 F3       		.byte	0xf3
 9867 0391 01       		.uleb128 0x1
 9868 0392 50       		.byte	0x50
 9869 0393 9F       		.byte	0x9f
 9870 0394 B8060000 		.4byte	.LVL162
 9871 0398 BD060000 		.4byte	.LVL163-1
 9872 039c 0100     		.2byte	0x1
 9873 039e 50       		.byte	0x50
 9874 039f BD060000 		.4byte	.LVL163-1
 9875 03a3 C0060000 		.4byte	.LVL164
 9876 03a7 0400     		.2byte	0x4
 9877 03a9 F3       		.byte	0xf3
 9878 03aa 01       		.uleb128 0x1
 9879 03ab 50       		.byte	0x50
 9880 03ac 9F       		.byte	0x9f
 9881 03ad C0060000 		.4byte	.LVL164
 9882 03b1 C5060000 		.4byte	.LVL165-1
 9883 03b5 0100     		.2byte	0x1
 9884 03b7 50       		.byte	0x50
 9885 03b8 C5060000 		.4byte	.LVL165-1
 9886 03bc C8060000 		.4byte	.LVL166
 9887 03c0 0400     		.2byte	0x4
 9888 03c2 F3       		.byte	0xf3
 9889 03c3 01       		.uleb128 0x1
 9890 03c4 50       		.byte	0x50
 9891 03c5 9F       		.byte	0x9f
 9892 03c6 C8060000 		.4byte	.LVL166
 9893 03ca CD060000 		.4byte	.LVL167-1
 9894 03ce 0100     		.2byte	0x1
 9895 03d0 50       		.byte	0x50
 9896 03d1 CD060000 		.4byte	.LVL167-1
 9897 03d5 D0060000 		.4byte	.LVL168
 9898 03d9 0400     		.2byte	0x4
 9899 03db F3       		.byte	0xf3
 9900 03dc 01       		.uleb128 0x1
 9901 03dd 50       		.byte	0x50
 9902 03de 9F       		.byte	0x9f
 9903 03df D0060000 		.4byte	.LVL168
ARM GAS  C:\Users\salaz\AppData\Local\Temp\ccj0QfQu.s 			page 209


 9904 03e3 D5060000 		.4byte	.LVL169-1
 9905 03e7 0100     		.2byte	0x1
 9906 03e9 50       		.byte	0x50
 9907 03ea D5060000 		.4byte	.LVL169-1
 9908 03ee D8060000 		.4byte	.LVL170
 9909 03f2 0400     		.2byte	0x4
 9910 03f4 F3       		.byte	0xf3
 9911 03f5 01       		.uleb128 0x1
 9912 03f6 50       		.byte	0x50
 9913 03f7 9F       		.byte	0x9f
 9914 03f8 D8060000 		.4byte	.LVL170
 9915 03fc DA060000 		.4byte	.LVL171
 9916 0400 0100     		.2byte	0x1
 9917 0402 50       		.byte	0x50
 9918 0403 DA060000 		.4byte	.LVL171
 9919 0407 30070000 		.4byte	.LVL174
 9920 040b 0400     		.2byte	0x4
 9921 040d F3       		.byte	0xf3
 9922 040e 01       		.uleb128 0x1
 9923 040f 50       		.byte	0x50
 9924 0410 9F       		.byte	0x9f
 9925 0411 30070000 		.4byte	.LVL174
 9926 0415 3A070000 		.4byte	.LVL175
 9927 0419 0100     		.2byte	0x1
 9928 041b 50       		.byte	0x50
 9929 041c 3A070000 		.4byte	.LVL175
 9930 0420 6C070000 		.4byte	.LFE163
 9931 0424 0400     		.2byte	0x4
 9932 0426 F3       		.byte	0xf3
 9933 0427 01       		.uleb128 0x1
 9934 0428 50       		.byte	0x50
 9935 0429 9F       		.byte	0x9f
 9936 042a 00000000 		.4byte	0
 9937 042e 00000000 		.4byte	0
 9938              	.LLST14:
 9939 0432 00000000 		.4byte	.LVL39
 9940 0436 10000000 		.4byte	.LVL40
 9941 043a 0100     		.2byte	0x1
 9942 043c 51       		.byte	0x51
 9943 043d 10000000 		.4byte	.LVL40
 9944 0441 5A070000 		.4byte	.LVL177
 9945 0445 0100     		.2byte	0x1
 9946 0447 55       		.byte	0x55
 9947 0448 5A070000 		.4byte	.LVL177
 9948 044c 6C070000 		.4byte	.LFE163
 9949 0450 0400     		.2byte	0x4
 9950 0452 F3       		.byte	0xf3
 9951 0453 01       		.uleb128 0x1
 9952 0454 51       		.byte	0x51
 9953 0455 9F       		.byte	0x9f
 9954 0456 00000000 		.4byte	0
 9955 045a 00000000 		.4byte	0
 9956              	.LLST15:
 9957 045e 50010000 		.4byte	.LVL46
 9958 0462 64010000 		.4byte	.LVL47
 9959 0466 0100     		.2byte	0x1
 9960 0468 53       		.byte	0x53
ARM GAS  C:\Users\salaz\AppData\Local\Temp\ccj0QfQu.s 			page 210


 9961 0469 00000000 		.4byte	0
 9962 046d 00000000 		.4byte	0
 9963              	.LLST16:
 9964 0471 AE010000 		.4byte	.LVL55
 9965 0475 B2010000 		.4byte	.LVL56
 9966 0479 0200     		.2byte	0x2
 9967 047b 30       		.byte	0x30
 9968 047c 9F       		.byte	0x9f
 9969 047d 00000000 		.4byte	0
 9970 0481 00000000 		.4byte	0
 9971              	.LLST17:
 9972 0485 0E020000 		.4byte	.LVL66
 9973 0489 7E020000 		.4byte	.LVL77
 9974 048d 0100     		.2byte	0x1
 9975 048f 58       		.byte	0x58
 9976 0490 00000000 		.4byte	0
 9977 0494 00000000 		.4byte	0
 9978              	.LLST18:
 9979 0498 1A020000 		.4byte	.LVL68
 9980 049c 1E020000 		.4byte	.LVL69
 9981 04a0 0200     		.2byte	0x2
 9982 04a2 30       		.byte	0x30
 9983 04a3 9F       		.byte	0x9f
 9984 04a4 1E020000 		.4byte	.LVL69
 9985 04a8 4C020000 		.4byte	.LVL71
 9986 04ac 0100     		.2byte	0x1
 9987 04ae 56       		.byte	0x56
 9988 04af 58020000 		.4byte	.LVL73
 9989 04b3 5E020000 		.4byte	.LVL75
 9990 04b7 0100     		.2byte	0x1
 9991 04b9 56       		.byte	0x56
 9992 04ba 00000000 		.4byte	0
 9993 04be 00000000 		.4byte	0
 9994              	.LLST19:
 9995 04c2 88020000 		.4byte	.LVL78
 9996 04c6 B2020000 		.4byte	.LVL79
 9997 04ca 0100     		.2byte	0x1
 9998 04cc 55       		.byte	0x55
 9999 04cd 00000000 		.4byte	0
 10000 04d1 00000000 		.4byte	0
 10001              	.LLST20:
 10002 04d5 B6020000 		.4byte	.LVL80
 10003 04d9 BC030000 		.4byte	.LVL91
 10004 04dd 0100     		.2byte	0x1
 10005 04df 58       		.byte	0x58
 10006 04e0 00000000 		.4byte	0
 10007 04e4 00000000 		.4byte	0
 10008              	.LLST21:
 10009 04e8 C2020000 		.4byte	.LVL82
 10010 04ec C6020000 		.4byte	.LVL83
 10011 04f0 0200     		.2byte	0x2
 10012 04f2 30       		.byte	0x30
 10013 04f3 9F       		.byte	0x9f
 10014 04f4 C6020000 		.4byte	.LVL83
 10015 04f8 F4020000 		.4byte	.LVL85
 10016 04fc 0100     		.2byte	0x1
 10017 04fe 56       		.byte	0x56
ARM GAS  C:\Users\salaz\AppData\Local\Temp\ccj0QfQu.s 			page 211


 10018 04ff 98030000 		.4byte	.LVL87
 10019 0503 9E030000 		.4byte	.LVL89
 10020 0507 0100     		.2byte	0x1
 10021 0509 56       		.byte	0x56
 10022 050a 00000000 		.4byte	0
 10023 050e 00000000 		.4byte	0
 10024              	.LLST22:
 10025 0512 D0030000 		.4byte	.LVL92
 10026 0516 3E040000 		.4byte	.LVL102
 10027 051a 0100     		.2byte	0x1
 10028 051c 58       		.byte	0x58
 10029 051d 00000000 		.4byte	0
 10030 0521 00000000 		.4byte	0
 10031              	.LLST23:
 10032 0525 DC030000 		.4byte	.LVL93
 10033 0529 E0030000 		.4byte	.LVL94
 10034 052d 0200     		.2byte	0x2
 10035 052f 30       		.byte	0x30
 10036 0530 9F       		.byte	0x9f
 10037 0531 E0030000 		.4byte	.LVL94
 10038 0535 0E040000 		.4byte	.LVL96
 10039 0539 0100     		.2byte	0x1
 10040 053b 56       		.byte	0x56
 10041 053c 1A040000 		.4byte	.LVL98
 10042 0540 20040000 		.4byte	.LVL100
 10043 0544 0100     		.2byte	0x1
 10044 0546 56       		.byte	0x56
 10045 0547 00000000 		.4byte	0
 10046 054b 00000000 		.4byte	0
 10047              	.LLST24:
 10048 054f 50040000 		.4byte	.LVL105
 10049 0553 E8040000 		.4byte	.LVL120
 10050 0557 0100     		.2byte	0x1
 10051 0559 55       		.byte	0x55
 10052 055a 00000000 		.4byte	0
 10053 055e 00000000 		.4byte	0
 10054              	.LLST25:
 10055 0562 5C040000 		.4byte	.LVL106
 10056 0566 62040000 		.4byte	.LVL107
 10057 056a 0200     		.2byte	0x2
 10058 056c 30       		.byte	0x30
 10059 056d 9F       		.byte	0x9f
 10060 056e 00000000 		.4byte	0
 10061 0572 00000000 		.4byte	0
 10062              	.LLST26:
 10063 0576 66040000 		.4byte	.LVL108
 10064 057a D4040000 		.4byte	.LVL119
 10065 057e 0100     		.2byte	0x1
 10066 0580 58       		.byte	0x58
 10067 0581 00000000 		.4byte	0
 10068 0585 00000000 		.4byte	0
 10069              	.LLST27:
 10070 0589 72040000 		.4byte	.LVL110
 10071 058d 76040000 		.4byte	.LVL111
 10072 0591 0200     		.2byte	0x2
 10073 0593 30       		.byte	0x30
 10074 0594 9F       		.byte	0x9f
ARM GAS  C:\Users\salaz\AppData\Local\Temp\ccj0QfQu.s 			page 212


 10075 0595 76040000 		.4byte	.LVL111
 10076 0599 A4040000 		.4byte	.LVL113
 10077 059d 0100     		.2byte	0x1
 10078 059f 56       		.byte	0x56
 10079 05a0 B0040000 		.4byte	.LVL115
 10080 05a4 B6040000 		.4byte	.LVL117
 10081 05a8 0100     		.2byte	0x1
 10082 05aa 56       		.byte	0x56
 10083 05ab 00000000 		.4byte	0
 10084 05af 00000000 		.4byte	0
 10085              	.LLST28:
 10086 05b3 08050000 		.4byte	.LVL122
 10087 05b7 10050000 		.4byte	.LVL123
 10088 05bb 0200     		.2byte	0x2
 10089 05bd 32       		.byte	0x32
 10090 05be 9F       		.byte	0x9f
 10091 05bf 00000000 		.4byte	0
 10092 05c3 00000000 		.4byte	0
 10093              	.LLST29:
 10094 05c7 14050000 		.4byte	.LVL124
 10095 05cb 1C050000 		.4byte	.LVL125
 10096 05cf 0200     		.2byte	0x2
 10097 05d1 30       		.byte	0x30
 10098 05d2 9F       		.byte	0x9f
 10099 05d3 00000000 		.4byte	0
 10100 05d7 00000000 		.4byte	0
 10101              	.LLST30:
 10102 05db 22050000 		.4byte	.LVL126
 10103 05df 28050000 		.4byte	.LVL127
 10104 05e3 0200     		.2byte	0x2
 10105 05e5 30       		.byte	0x30
 10106 05e6 9F       		.byte	0x9f
 10107 05e7 00000000 		.4byte	0
 10108 05eb 00000000 		.4byte	0
 10109              	.LLST31:
 10110 05ef 60050000 		.4byte	.LVL129
 10111 05f3 68050000 		.4byte	.LVL130
 10112 05f7 0200     		.2byte	0x2
 10113 05f9 31       		.byte	0x31
 10114 05fa 9F       		.byte	0x9f
 10115 05fb 00000000 		.4byte	0
 10116 05ff 00000000 		.4byte	0
 10117              	.LLST32:
 10118 0603 7A050000 		.4byte	.LVL134
 10119 0607 98050000 		.4byte	.LVL135
 10120 060b 0200     		.2byte	0x2
 10121 060d 32       		.byte	0x32
 10122 060e 9F       		.byte	0x9f
 10123 060f 00000000 		.4byte	0
 10124 0613 00000000 		.4byte	0
 10125              	.LLST33:
 10126 0617 EE050000 		.4byte	.LVL138
 10127 061b 08060000 		.4byte	.LVL139
 10128 061f 0100     		.2byte	0x1
 10129 0621 50       		.byte	0x50
 10130 0622 00000000 		.4byte	0
 10131 0626 00000000 		.4byte	0
ARM GAS  C:\Users\salaz\AppData\Local\Temp\ccj0QfQu.s 			page 213


 10132              	.LLST34:
 10133 062a 36060000 		.4byte	.LVL145
 10134 062e 52060000 		.4byte	.LVL146
 10135 0632 0200     		.2byte	0x2
 10136 0634 30       		.byte	0x30
 10137 0635 9F       		.byte	0x9f
 10138 0636 00000000 		.4byte	0
 10139 063a 00000000 		.4byte	0
 10140              	.LLST35:
 10141 063e A4060000 		.4byte	.LVL157
 10142 0642 AA060000 		.4byte	.LVL158
 10143 0646 0100     		.2byte	0x1
 10144 0648 50       		.byte	0x50
 10145 0649 B0060000 		.4byte	.LVL160
 10146 064d B5060000 		.4byte	.LVL161-1
 10147 0651 0100     		.2byte	0x1
 10148 0653 51       		.byte	0x51
 10149 0654 00000000 		.4byte	0
 10150 0658 00000000 		.4byte	0
 10151              		.section	.debug_aranges,"",%progbits
 10152 0000 3C000000 		.4byte	0x3c
 10153 0004 0200     		.2byte	0x2
 10154 0006 00000000 		.4byte	.Ldebug_info0
 10155 000a 04       		.byte	0x4
 10156 000b 00       		.byte	0
 10157 000c 0000     		.2byte	0
 10158 000e 0000     		.2byte	0
 10159 0010 00000000 		.4byte	.LFB160
 10160 0014 44000000 		.4byte	.LFE160-.LFB160
 10161 0018 00000000 		.4byte	.LFB158
 10162 001c 60000000 		.4byte	.LFE158-.LFB158
 10163 0020 00000000 		.4byte	.LFB159
 10164 0024 34000000 		.4byte	.LFE159-.LFB159
 10165 0028 00000000 		.4byte	.LFB162
 10166 002c 22000000 		.4byte	.LFE162-.LFB162
 10167 0030 00000000 		.4byte	.LFB163
 10168 0034 6C070000 		.4byte	.LFE163-.LFB163
 10169 0038 00000000 		.4byte	0
 10170 003c 00000000 		.4byte	0
 10171              		.section	.debug_ranges,"",%progbits
 10172              	.Ldebug_ranges0:
 10173 0000 0C000000 		.4byte	.LBB39
 10174 0004 26000000 		.4byte	.LBE39
 10175 0008 28000000 		.4byte	.LBB40
 10176 000c 2A000000 		.4byte	.LBE40
 10177 0010 00000000 		.4byte	0
 10178 0014 00000000 		.4byte	0
 10179 0018 00000000 		.4byte	.LFB160
 10180 001c 44000000 		.4byte	.LFE160
 10181 0020 00000000 		.4byte	.LFB158
 10182 0024 60000000 		.4byte	.LFE158
 10183 0028 00000000 		.4byte	.LFB159
 10184 002c 34000000 		.4byte	.LFE159
 10185 0030 00000000 		.4byte	.LFB162
 10186 0034 22000000 		.4byte	.LFE162
 10187 0038 00000000 		.4byte	.LFB163
 10188 003c 6C070000 		.4byte	.LFE163
ARM GAS  C:\Users\salaz\AppData\Local\Temp\ccj0QfQu.s 			page 214


 10189 0040 00000000 		.4byte	0
 10190 0044 00000000 		.4byte	0
 10191              		.section	.debug_line,"",%progbits
 10192              	.Ldebug_line0:
 10193 0000 D1050000 		.section	.debug_str,"MS",%progbits,1
 10193      0200AB03 
 10193      00000201 
 10193      FB0E0D00 
 10193      01010101 
 10194              	.LASF636:
 10195 0000 63795F73 		.ascii	"cy_stc_ble_gap_auth_info_t\000"
 10195      74635F62 
 10195      6C655F67 
 10195      61705F61 
 10195      7574685F 
 10196              	.LASF307:
 10197 001b 52544F43 		.ascii	"RTOC2_MAGIC_NUMBER\000"
 10197      325F4D41 
 10197      4749435F 
 10197      4E554D42 
 10197      455200
 10198              	.LASF1:
 10199 002e 6C6F6E67 		.ascii	"long long int\000"
 10199      206C6F6E 
 10199      6720696E 
 10199      7400
 10200              	.LASF531:
 10201 003c 43595F42 		.ascii	"CY_BLE_GATT_WRITE_REQ\000"
 10201      4C455F47 
 10201      4154545F 
 10201      57524954 
 10201      455F5245 
 10202              	.LASF925:
 10203 0052 43595F42 		.ascii	"CY_BLE_EVT_GLSC_READ_CHAR_RESPONSE\000"
 10203      4C455F45 
 10203      56545F47 
 10203      4C53435F 
 10203      52454144 
 10204              	.LASF544:
 10205 0075 43595F42 		.ascii	"CY_BLE_GATT_ERR_NONE\000"
 10205      4C455F47 
 10205      4154545F 
 10205      4552525F 
 10205      4E4F4E45 
 10206              	.LASF870:
 10207 008a 43595F42 		.ascii	"CY_BLE_EVT_CPSS_INDICATION_DISABLED\000"
 10207      4C455F45 
 10207      56545F43 
 10207      5053535F 
 10207      494E4449 
 10208              	.LASF508:
 10209 00ae 636F6E6E 		.ascii	"connHandle\000"
 10209      48616E64 
 10209      6C6500
 10210              	.LASF670:
 10211 00b9 63795F73 		.ascii	"cy_stc_ble_gapp_disc_param_t\000"
 10211      74635F62 
ARM GAS  C:\Users\salaz\AppData\Local\Temp\ccj0QfQu.s 			page 215


 10211      6C655F67 
 10211      6170705F 
 10211      64697363 
 10212              	.LASF101:
 10213 00d6 7363625F 		.ascii	"scb_2_interrupt_IRQn\000"
 10213      325F696E 
 10213      74657272 
 10213      7570745F 
 10213      4952516E 
 10214              	.LASF825:
 10215 00eb 43595F42 		.ascii	"CY_BLE_EVT_ANSC_WRITE_CHAR_RESPONSE\000"
 10215      4C455F45 
 10215      56545F41 
 10215      4E53435F 
 10215      57524954 
 10216              	.LASF191:
 10217 010f 7564625F 		.ascii	"udb_interrupts_11_IRQn\000"
 10217      696E7465 
 10217      72727570 
 10217      74735F31 
 10217      315F4952 
 10218              	.LASF1063:
 10219 0126 43595F42 		.ascii	"CY_BLE_EVT_WPTSC_INDICATION\000"
 10219      4C455F45 
 10219      56545F57 
 10219      50545343 
 10219      5F494E44 
 10220              	.LASF852:
 10221 0142 43595F42 		.ascii	"CY_BLE_EVT_BMSC_READ_CHAR_RESPONSE\000"
 10221      4C455F45 
 10221      56545F42 
 10221      4D53435F 
 10221      52454144 
 10222              	.LASF344:
 10223 0165 43595F42 		.ascii	"CY_BLE_EVT_GET_PEER_RPA_COMPLETE\000"
 10223      4C455F45 
 10223      56545F47 
 10223      45545F50 
 10223      4545525F 
 10224              	.LASF854:
 10225 0186 43595F42 		.ascii	"CY_BLE_EVT_BMSC_READ_DESCR_RESPONSE\000"
 10225      4C455F45 
 10225      56545F42 
 10225      4D53435F 
 10225      52454144 
 10226              	.LASF595:
 10227 01aa 65727249 		.ascii	"errInfo\000"
 10227      6E666F00 
 10228              	.LASF11:
 10229 01b2 6C6F6E67 		.ascii	"long unsigned int\000"
 10229      20756E73 
 10229      69676E65 
 10229      6420696E 
 10229      7400
 10230              	.LASF103:
 10231 01c4 7363625F 		.ascii	"scb_4_interrupt_IRQn\000"
 10231      345F696E 
ARM GAS  C:\Users\salaz\AppData\Local\Temp\ccj0QfQu.s 			page 216


 10231      74657272 
 10231      7570745F 
 10231      4952516E 
 10232              	.LASF1111:
 10233 01d9 626C6553 		.ascii	"bleSsPowerLevel\000"
 10233      73506F77 
 10233      65724C65 
 10233      76656C00 
 10234              	.LASF1002:
 10235 01e9 43595F42 		.ascii	"CY_BLE_EVT_PASSC_WRITE_DESCR_RESPONSE\000"
 10235      4C455F45 
 10235      56545F50 
 10235      41535343 
 10235      5F575249 
 10236              	.LASF886:
 10237 020f 43595F42 		.ascii	"CY_BLE_EVT_CSCSS_INDICATION_DISABLED\000"
 10237      4C455F45 
 10237      56545F43 
 10237      53435353 
 10237      5F494E44 
 10238              	.LASF523:
 10239 0234 43595F42 		.ascii	"CY_BLE_GATT_READ_REQ\000"
 10239      4C455F47 
 10239      4154545F 
 10239      52454144 
 10239      5F524551 
 10240              	.LASF498:
 10241 0249 61747449 		.ascii	"attId\000"
 10241      6400
 10242              	.LASF1159:
 10243 024f 43795F42 		.ascii	"Cy_BLE_EventHandler\000"
 10243      4C455F45 
 10243      76656E74 
 10243      48616E64 
 10243      6C657200 
 10244              	.LASF1152:
 10245 0263 43795F42 		.ascii	"Cy_BLE_GAPP_StartAdvertisement\000"
 10245      4C455F47 
 10245      4150505F 
 10245      53746172 
 10245      74416476 
 10246              	.LASF250:
 10247 0282 52455345 		.ascii	"RESERVED10\000"
 10247      52564544 
 10247      313000
 10248              	.LASF256:
 10249 028d 52455345 		.ascii	"RESERVED11\000"
 10249      52564544 
 10249      313100
 10250              	.LASF261:
 10251 0298 52455345 		.ascii	"RESERVED12\000"
 10251      52564544 
 10251      313200
 10252              	.LASF268:
 10253 02a3 52455345 		.ascii	"RESERVED13\000"
 10253      52564544 
 10253      313300
ARM GAS  C:\Users\salaz\AppData\Local\Temp\ccj0QfQu.s 			page 217


 10254              	.LASF270:
 10255 02ae 52455345 		.ascii	"RESERVED14\000"
 10255      52564544 
 10255      313400
 10256              	.LASF273:
 10257 02b9 52455345 		.ascii	"RESERVED15\000"
 10257      52564544 
 10257      313500
 10258              	.LASF282:
 10259 02c4 52455345 		.ascii	"RESERVED16\000"
 10259      52564544 
 10259      313600
 10260              	.LASF291:
 10261 02cf 52455345 		.ascii	"RESERVED17\000"
 10261      52564544 
 10261      313700
 10262              	.LASF303:
 10263 02da 52455345 		.ascii	"RESERVED18\000"
 10263      52564544 
 10263      313800
 10264              	.LASF316:
 10265 02e5 52455345 		.ascii	"RESERVED19\000"
 10265      52564544 
 10265      313900
 10266              	.LASF1148:
 10267 02f0 43795F42 		.ascii	"Cy_BLE_GAP_SetBdAddress\000"
 10267      4C455F47 
 10267      41505F53 
 10267      65744264 
 10267      41646472 
 10268              	.LASF105:
 10269 0308 7363625F 		.ascii	"scb_6_interrupt_IRQn\000"
 10269      365F696E 
 10269      74657272 
 10269      7570745F 
 10269      4952516E 
 10270              	.LASF66:
 10271 031d 696F7373 		.ascii	"ioss_interrupts_gpio_8_IRQn\000"
 10271      5F696E74 
 10271      65727275 
 10271      7074735F 
 10271      6770696F 
 10272              	.LASF516:
 10273 0339 43595F42 		.ascii	"CY_BLE_GATT_XCHNG_MTU_RSP\000"
 10273      4C455F47 
 10273      4154545F 
 10273      5843484E 
 10273      475F4D54 
 10274              	.LASF167:
 10275 0353 74637077 		.ascii	"tcpwm_1_interrupts_11_IRQn\000"
 10275      6D5F315F 
 10275      696E7465 
 10275      72727570 
 10275      74735F31 
 10276              	.LASF512:
 10277 036e 74696D65 		.ascii	"timerHandle\000"
 10277      7248616E 
ARM GAS  C:\Users\salaz\AppData\Local\Temp\ccj0QfQu.s 			page 218


 10277      646C6500 
 10278              	.LASF683:
 10279 037a 43595F42 		.ascii	"CY_BLE_STATE_ON\000"
 10279      4C455F53 
 10279      54415445 
 10279      5F4F4E00 
 10280              	.LASF425:
 10281 038a 43595F42 		.ascii	"CY_BLE_EVT_GATTC_HANDLE_VALUE_IND\000"
 10281      4C455F45 
 10281      56545F47 
 10281      41545443 
 10281      5F48414E 
 10282              	.LASF76:
 10283 03ac 7363625F 		.ascii	"scb_8_interrupt_IRQn\000"
 10283      385F696E 
 10283      74657272 
 10283      7570745F 
 10283      4952516E 
 10284              	.LASF515:
 10285 03c1 43595F42 		.ascii	"CY_BLE_GATT_XCNHG_MTU_REQ\000"
 10285      4C455F47 
 10285      4154545F 
 10285      58434E48 
 10285      475F4D54 
 10286              	.LASF317:
 10287 03db 52544F43 		.ascii	"RTOC2_FLAGS\000"
 10287      325F464C 
 10287      41475300 
 10288              	.LASF793:
 10289 03e7 43595F42 		.ascii	"CY_BLE_EVT_GATTC_SRVC_DISCOVERY_COMPLETE\000"
 10289      4C455F45 
 10289      56545F47 
 10289      41545443 
 10289      5F535256 
 10290              	.LASF365:
 10291 0410 43595F42 		.ascii	"CY_BLE_EVT_GET_CLK_CONFIG_COMPLETE\000"
 10291      4C455F45 
 10291      56545F47 
 10291      45545F43 
 10291      4C4B5F43 
 10292              	.LASF915:
 10293 0433 43595F42 		.ascii	"CY_BLE_EVT_ESSC_READ_DESCR_RESPONSE\000"
 10293      4C455F45 
 10293      56545F45 
 10293      5353435F 
 10293      52454144 
 10294              	.LASF395:
 10295 0457 43595F42 		.ascii	"CY_BLE_EVT_GAP_ENHANCE_CONN_COMPLETE\000"
 10295      4C455F45 
 10295      56545F47 
 10295      41505F45 
 10295      4E48414E 
 10296              	.LASF492:
 10297 047c 43595F42 		.ascii	"CY_BLE_GENERIC_APP_TO\000"
 10297      4C455F47 
 10297      454E4552 
 10297      49435F41 
ARM GAS  C:\Users\salaz\AppData\Local\Temp\ccj0QfQu.s 			page 219


 10297      50505F54 
 10298              	.LASF1140:
 10299 0492 6D656D73 		.ascii	"memset\000"
 10299      657400
 10300              	.LASF501:
 10301 0499 63795F73 		.ascii	"cy_stc_ble_tx_pwr_config_param_t\000"
 10301      74635F62 
 10301      6C655F74 
 10301      785F7077 
 10301      725F636F 
 10302              	.LASF96:
 10303 04ba 63707573 		.ascii	"cpuss_interrupts_ipc_13_IRQn\000"
 10303      735F696E 
 10303      74657272 
 10303      75707473 
 10303      5F697063 
 10304              	.LASF612:
 10305 04d7 43595F42 		.ascii	"CY_BLE_GAP_AUTH_ERROR_PAIRING_NOT_SUPPORTED\000"
 10305      4C455F47 
 10305      41505F41 
 10305      5554485F 
 10305      4552524F 
 10306              	.LASF1098:
 10307 0503 65786973 		.ascii	"existFlag\000"
 10307      74466C61 
 10307      6700
 10308              	.LASF581:
 10309 050d 43595F42 		.ascii	"CY_BLE_GATT_ERR_OUT_OF_RANGE\000"
 10309      4C455F47 
 10309      4154545F 
 10309      4552525F 
 10309      4F55545F 
 10310              	.LASF335:
 10311 052a 43595F42 		.ascii	"CY_BLE_EVT_WRITE_AUTH_PAYLOAD_TO_COMPLETE\000"
 10311      4C455F45 
 10311      56545F57 
 10311      52495445 
 10311      5F415554 
 10312              	.LASF719:
 10313 0554 736C6F77 		.ascii	"slowScanWindow\000"
 10313      5363616E 
 10313      57696E64 
 10313      6F7700
 10314              	.LASF1083:
 10315 0563 43595F42 		.ascii	"CY_BLE_EVT_GATTC_DISC_CHAR\000"
 10315      4C455F45 
 10315      56545F47 
 10315      41545443 
 10315      5F444953 
 10316              	.LASF927:
 10317 057e 43595F42 		.ascii	"CY_BLE_EVT_GLSC_READ_DESCR_RESPONSE\000"
 10317      4C455F45 
 10317      56545F47 
 10317      4C53435F 
 10317      52454144 
 10318              	.LASF937:
 10319 05a2 43595F42 		.ascii	"CY_BLE_EVT_HIDSC_READ_CHAR_RESPONSE\000"
ARM GAS  C:\Users\salaz\AppData\Local\Temp\ccj0QfQu.s 			page 220


 10319      4C455F45 
 10319      56545F48 
 10319      49445343 
 10319      5F524541 
 10320              	.LASF658:
 10321 05c6 43595F42 		.ascii	"CY_BLE_GAPP_CONNECTABLE_HIGH_DC_DIRECTED_ADV\000"
 10321      4C455F47 
 10321      4150505F 
 10321      434F4E4E 
 10321      45435441 
 10322              	.LASF665:
 10323 05f3 61647654 		.ascii	"advType\000"
 10323      79706500 
 10324              	.LASF338:
 10325 05fb 43595F42 		.ascii	"CY_BLE_EVT_LE_SET_EVENT_MASK_COMPLETE\000"
 10325      4C455F45 
 10325      56545F4C 
 10325      455F5345 
 10325      545F4556 
 10326              	.LASF769:
 10327 0621 67617073 		.ascii	"gaps\000"
 10327      00
 10328              	.LASF1045:
 10329 0626 43595F42 		.ascii	"CY_BLE_EVT_UDSS_NOTIFICATION_ENABLED\000"
 10329      4C455F45 
 10329      56545F55 
 10329      4453535F 
 10329      4E4F5449 
 10330              	.LASF1059:
 10331 064b 43595F42 		.ascii	"CY_BLE_EVT_WPTSS_INDICATION_DISABLED\000"
 10331      4C455F45 
 10331      56545F57 
 10331      50545353 
 10331      5F494E44 
 10332              	.LASF656:
 10333 0670 63795F73 		.ascii	"cy_stc_ble_gapc_disc_info_t\000"
 10333      74635F62 
 10333      6C655F67 
 10333      6170635F 
 10333      64697363 
 10334              	.LASF706:
 10335 068c 66617374 		.ascii	"fastAdvIntervalMin\000"
 10335      41647649 
 10335      6E746572 
 10335      76616C4D 
 10335      696E00
 10336              	.LASF640:
 10337 069f 70656572 		.ascii	"peerBdAddr\000"
 10337      42644164 
 10337      647200
 10338              	.LASF34:
 10339 06aa 4E766963 		.ascii	"NvicMux10_IRQn\000"
 10339      4D757831 
 10339      305F4952 
 10339      516E00
 10340              	.LASF855:
 10341 06b9 43595F42 		.ascii	"CY_BLE_EVT_CGMSS_INDICATION_ENABLED\000"
ARM GAS  C:\Users\salaz\AppData\Local\Temp\ccj0QfQu.s 			page 221


 10341      4C455F45 
 10341      56545F43 
 10341      474D5353 
 10341      5F494E44 
 10342              	.LASF598:
 10343 06dd 746F7461 		.ascii	"totalAttrValueLength\000"
 10343      6C417474 
 10343      7256616C 
 10343      75654C65 
 10343      6E677468 
 10344              	.LASF965:
 10345 06f2 43595F42 		.ascii	"CY_BLE_EVT_HTSC_READ_CHAR_RESPONSE\000"
 10345      4C455F45 
 10345      56545F48 
 10345      5453435F 
 10345      52454144 
 10346              	.LASF779:
 10347 0715 43595F42 		.ascii	"CY_BLE_PASSKEY_ENTRY_REQUEST_REPLY\000"
 10347      4C455F50 
 10347      4153534B 
 10347      45595F45 
 10347      4E545259 
 10348              	.LASF505:
 10349 0738 72657175 		.ascii	"request\000"
 10349      65737400 
 10350              	.LASF538:
 10351 0740 43595F42 		.ascii	"CY_BLE_GATT_HANDLE_VALUE_NTF\000"
 10351      4C455F47 
 10351      4154545F 
 10351      48414E44 
 10351      4C455F56 
 10352              	.LASF744:
 10353 075d 73657276 		.ascii	"serviceChangedHandle\000"
 10353      69636543 
 10353      68616E67 
 10353      65644861 
 10353      6E646C65 
 10354              	.LASF659:
 10355 0772 43595F42 		.ascii	"CY_BLE_GAPP_SCANNABLE_UNDIRECTED_ADV\000"
 10355      4C455F47 
 10355      4150505F 
 10355      5343414E 
 10355      4E41424C 
 10356              	.LASF122:
 10357 0797 63707573 		.ascii	"cpuss_interrupts_dw0_14_IRQn\000"
 10357      735F696E 
 10357      74657272 
 10357      75707473 
 10357      5F647730 
 10358              	.LASF428:
 10359 07b4 43595F42 		.ascii	"CY_BLE_EVT_GATTC_STOP_CMD_COMPLETE\000"
 10359      4C455F45 
 10359      56545F47 
 10359      41545443 
 10359      5F53544F 
 10360              	.LASF557:
 10361 07d7 43595F42 		.ascii	"CY_BLE_GATT_ERR_INVALID_ATTRIBUTE_LEN\000"
ARM GAS  C:\Users\salaz\AppData\Local\Temp\ccj0QfQu.s 			page 222


 10361      4C455F47 
 10361      4154545F 
 10361      4552525F 
 10361      494E5641 
 10362              	.LASF832:
 10363 07fd 43595F42 		.ascii	"CY_BLE_EVT_BASC_READ_DESCR_RESPONSE\000"
 10363      4C455F45 
 10363      56545F42 
 10363      4153435F 
 10363      52454144 
 10364              	.LASF263:
 10365 0821 464C4153 		.ascii	"FLASH_BOOT_APP_ID\000"
 10365      485F424F 
 10365      4F545F41 
 10365      50505F49 
 10365      4400
 10366              	.LASF838:
 10367 0833 43595F42 		.ascii	"CY_BLE_EVT_BCSC_READ_CHAR_RESPONSE\000"
 10367      4C455F45 
 10367      56545F42 
 10367      4353435F 
 10367      52454144 
 10368              	.LASF506:
 10369 0856 636F6E66 		.ascii	"configMemory\000"
 10369      69674D65 
 10369      6D6F7279 
 10369      00
 10370              	.LASF77:
 10371 0863 73727373 		.ascii	"srss_interrupt_mcwdt_0_IRQn\000"
 10371      5F696E74 
 10371      65727275 
 10371      70745F6D 
 10371      63776474 
 10372              	.LASF340:
 10373 087f 43595F42 		.ascii	"CY_BLE_EVT_SET_DATA_LENGTH_COMPLETE\000"
 10373      4C455F45 
 10373      56545F53 
 10373      45545F44 
 10373      4154415F 
 10374              	.LASF304:
 10375 08a3 544F4332 		.ascii	"TOC2_FLAGS\000"
 10375      5F464C41 
 10375      475300
 10376              	.LASF154:
 10377 08ae 74637077 		.ascii	"tcpwm_0_interrupts_6_IRQn\000"
 10377      6D5F305F 
 10377      696E7465 
 10377      72727570 
 10377      74735F36 
 10378              	.LASF258:
 10379 08c8 43505553 		.ascii	"CPUSS_TRIM_RAM_CTL_HALF_ULP\000"
 10379      535F5452 
 10379      494D5F52 
 10379      414D5F43 
 10379      544C5F48 
 10380              	.LASF830:
 10381 08e4 43595F42 		.ascii	"CY_BLE_EVT_BASC_NOTIFICATION\000"
ARM GAS  C:\Users\salaz\AppData\Local\Temp\ccj0QfQu.s 			page 223


 10381      4C455F45 
 10381      56545F42 
 10381      4153435F 
 10381      4E4F5449 
 10382              	.LASF215:
 10383 0901 4449455F 		.ascii	"DIE_X\000"
 10383      5800
 10384              	.LASF216:
 10385 0907 4449455F 		.ascii	"DIE_Y\000"
 10385      5900
 10386              	.LASF918:
 10387 090d 43595F42 		.ascii	"CY_BLE_EVT_GLSS_INDICATION_DISABLED\000"
 10387      4C455F45 
 10387      56545F47 
 10387      4C53535F 
 10387      494E4449 
 10388              	.LASF837:
 10389 0931 43595F42 		.ascii	"CY_BLE_EVT_BCSC_INDICATION\000"
 10389      4C455F45 
 10389      56545F42 
 10389      4353435F 
 10389      494E4449 
 10390              	.LASF1025:
 10391 094c 43595F42 		.ascii	"CY_BLE_EVT_RSCSC_WRITE_CHAR_RESPONSE\000"
 10391      4C455F45 
 10391      56545F52 
 10391      53435343 
 10391      5F575249 
 10392              	.LASF232:
 10393 0971 55534552 		.ascii	"USER_FREE_ROW1\000"
 10393      5F465245 
 10393      455F524F 
 10393      573100
 10394              	.LASF233:
 10395 0980 55534552 		.ascii	"USER_FREE_ROW2\000"
 10395      5F465245 
 10395      455F524F 
 10395      573200
 10396              	.LASF234:
 10397 098f 55534552 		.ascii	"USER_FREE_ROW3\000"
 10397      5F465245 
 10397      455F524F 
 10397      573300
 10398              	.LASF1065:
 10399 099e 43595F42 		.ascii	"CY_BLE_EVT_WPTSC_READ_CHAR_RESPONSE\000"
 10399      4C455F45 
 10399      56545F57 
 10399      50545343 
 10399      5F524541 
 10400              	.LASF189:
 10401 09c2 7564625F 		.ascii	"udb_interrupts_9_IRQn\000"
 10401      696E7465 
 10401      72727570 
 10401      74735F39 
 10401      5F495251 
 10402              	.LASF1147:
 10403 09d8 43795F42 		.ascii	"Cy_BLE_GATTS_WriteEventHandler\000"
ARM GAS  C:\Users\salaz\AppData\Local\Temp\ccj0QfQu.s 			page 224


 10403      4C455F47 
 10403      41545453 
 10403      5F577269 
 10403      74654576 
 10404              	.LASF17:
 10405 09f7 75696E74 		.ascii	"uint32_t\000"
 10405      33325F74 
 10405      00
 10406              	.LASF966:
 10407 0a00 43595F42 		.ascii	"CY_BLE_EVT_HTSC_WRITE_CHAR_RESPONSE\000"
 10407      4C455F45 
 10407      56545F48 
 10407      5453435F 
 10407      57524954 
 10408              	.LASF1084:
 10409 0a24 43595F42 		.ascii	"CY_BLE_EVT_GATTC_DISC_DESCR\000"
 10409      4C455F45 
 10409      56545F47 
 10409      41545443 
 10409      5F444953 
 10410              	.LASF1125:
 10411 0a40 63795F62 		.ascii	"cy_ble_connState\000"
 10411      6C655F63 
 10411      6F6E6E53 
 10411      74617465 
 10411      00
 10412              	.LASF218:
 10413 0a51 4449455F 		.ascii	"DIE_MINOR\000"
 10413      4D494E4F 
 10413      5200
 10414              	.LASF204:
 10415 0a5b 70617373 		.ascii	"pass_interrupt_dacs_IRQn\000"
 10415      5F696E74 
 10415      65727275 
 10415      70745F64 
 10415      6163735F 
 10416              	.LASF930:
 10417 0a74 43595F42 		.ascii	"CY_BLE_EVT_HIDSS_NOTIFICATION_DISABLED\000"
 10417      4C455F45 
 10417      56545F48 
 10417      49445353 
 10417      5F4E4F54 
 10418              	.LASF938:
 10419 0a9b 43595F42 		.ascii	"CY_BLE_EVT_HIDSC_WRITE_CHAR_RESPONSE\000"
 10419      4C455F45 
 10419      56545F48 
 10419      49445343 
 10419      5F575249 
 10420              	.LASF787:
 10421 0ac0 43595F42 		.ascii	"CY_BLE_EVT_GATTC_INCL_DISCOVERY_FAILED\000"
 10421      4C455F45 
 10421      56545F47 
 10421      41545443 
 10421      5F494E43 
 10422              	.LASF737:
 10423 0ae7 63795F73 		.ascii	"cy_stc_ble_gatts_att_value_t\000"
 10423      74635F62 
ARM GAS  C:\Users\salaz\AppData\Local\Temp\ccj0QfQu.s 			page 225


 10423      6C655F67 
 10423      61747473 
 10423      5F617474 
 10424              	.LASF364:
 10425 0b04 43595F42 		.ascii	"CY_BLE_EVT_SET_TX_PWR_COMPLETE\000"
 10425      4C455F45 
 10425      56545F53 
 10425      45545F54 
 10425      585F5057 
 10426              	.LASF1124:
 10427 0b23 63795F62 		.ascii	"cy_ble_connHandle\000"
 10427      6C655F63 
 10427      6F6E6E48 
 10427      616E646C 
 10427      6500
 10428              	.LASF277:
 10429 0b35 544F4331 		.ascii	"TOC1_SFLASH_GENERAL_TRIM_ADDR\000"
 10429      5F53464C 
 10429      4153485F 
 10429      47454E45 
 10429      52414C5F 
 10430              	.LASF668:
 10431 0b53 61647643 		.ascii	"advChannelMap\000"
 10431      68616E6E 
 10431      656C4D61 
 10431      7000
 10432              	.LASF1050:
 10433 0b61 43595F42 		.ascii	"CY_BLE_EVT_UDSC_NOTIFICATION\000"
 10433      4C455F45 
 10433      56545F55 
 10433      4453435F 
 10433      4E4F5449 
 10434              	.LASF80:
 10435 0b7e 73727373 		.ascii	"srss_interrupt_IRQn\000"
 10435      5F696E74 
 10435      65727275 
 10435      70745F49 
 10435      52516E00 
 10436              	.LASF63:
 10437 0b92 696F7373 		.ascii	"ioss_interrupts_gpio_5_IRQn\000"
 10437      5F696E74 
 10437      65727275 
 10437      7074735F 
 10437      6770696F 
 10438              	.LASF2:
 10439 0bae 6C6F6E67 		.ascii	"long double\000"
 10439      20646F75 
 10439      626C6500 
 10440              	.LASF374:
 10441 0bba 43595F42 		.ascii	"CY_BLE_EVT_RADIO_VOLTAGE_LEVEL\000"
 10441      4C455F45 
 10441      56545F52 
 10441      4144494F 
 10441      5F564F4C 
 10442              	.LASF390:
 10443 0bd9 43595F42 		.ascii	"CY_BLE_EVT_GAPC_SCAN_START_STOP\000"
 10443      4C455F45 
ARM GAS  C:\Users\salaz\AppData\Local\Temp\ccj0QfQu.s 			page 226


 10443      56545F47 
 10443      4150435F 
 10443      5343414E 
 10444              	.LASF147:
 10445 0bf9 63707573 		.ascii	"cpuss_interrupts_cm4_cti_1_IRQn\000"
 10445      735F696E 
 10445      74657272 
 10445      75707473 
 10445      5F636D34 
 10446              	.LASF266:
 10447 0c19 464C4153 		.ascii	"FLASH_BOOT_VT_OFFSET\000"
 10447      485F424F 
 10447      4F545F56 
 10447      545F4F46 
 10447      46534554 
 10448              	.LASF666:
 10449 0c2e 64697265 		.ascii	"directAddrType\000"
 10449      63744164 
 10449      64725479 
 10449      706500
 10450              	.LASF1105:
 10451 0c3d 43795F42 		.ascii	"Cy_BLE_GetConnHandleByBdHandle\000"
 10451      4C455F47 
 10451      6574436F 
 10451      6E6E4861 
 10451      6E646C65 
 10452              	.LASF32:
 10453 0c5c 4E766963 		.ascii	"NvicMux8_IRQn\000"
 10453      4D757838 
 10453      5F495251 
 10453      6E00
 10454              	.LASF948:
 10455 0c6a 43595F42 		.ascii	"CY_BLE_EVT_HPSC_WRITE_CHAR_RESPONSE\000"
 10455      4C455F45 
 10455      56545F48 
 10455      5053435F 
 10455      57524954 
 10456              	.LASF1080:
 10457 0c8e 43595F42 		.ascii	"CY_BLE_EVT_BTSS_EXEC_WRITE_REQ\000"
 10457      4C455F45 
 10457      56545F42 
 10457      5453535F 
 10457      45584543 
 10458              	.LASF341:
 10459 0cad 43595F42 		.ascii	"CY_BLE_EVT_SET_SUGGESTED_DATA_LENGTH_COMPLETE\000"
 10459      4C455F45 
 10459      56545F53 
 10459      45545F53 
 10459      55474745 
 10460              	.LASF995:
 10461 0cdb 43595F42 		.ascii	"CY_BLE_EVT_NDCSC_READ_CHAR_RESPONSE\000"
 10461      4C455F45 
 10461      56545F4E 
 10461      44435343 
 10461      5F524541 
 10462              	.LASF654:
 10463 0cff 7363616E 		.ascii	"scanTo\000"
ARM GAS  C:\Users\salaz\AppData\Local\Temp\ccj0QfQu.s 			page 227


 10463      546F00
 10464              	.LASF145:
 10465 0d06 63707573 		.ascii	"cpuss_interrupts_cm0_cti_1_IRQn\000"
 10465      735F696E 
 10465      74657272 
 10465      75707473 
 10465      5F636D30 
 10466              	.LASF1144:
 10467 0d26 43795F53 		.ascii	"Cy_SysLib_AssertFailed\000"
 10467      79734C69 
 10467      625F4173 
 10467      73657274 
 10467      4661696C 
 10468              	.LASF213:
 10469 0d3d 4449455F 		.ascii	"DIE_LOT\000"
 10469      4C4F5400 
 10470              	.LASF1000:
 10471 0d45 43595F42 		.ascii	"CY_BLE_EVT_PASSC_READ_CHAR_RESPONSE\000"
 10471      4C455F45 
 10471      56545F50 
 10471      41535343 
 10471      5F524541 
 10472              	.LASF651:
 10473 0d69 7363616E 		.ascii	"scanWindow\000"
 10473      57696E64 
 10473      6F7700
 10474              	.LASF922:
 10475 0d74 43595F42 		.ascii	"CY_BLE_EVT_GLSS_WRITE_CHAR\000"
 10475      4C455F45 
 10475      56545F47 
 10475      4C53535F 
 10475      57524954 
 10476              	.LASF928:
 10477 0d8f 43595F42 		.ascii	"CY_BLE_EVT_GLSC_WRITE_DESCR_RESPONSE\000"
 10477      4C455F45 
 10477      56545F47 
 10477      4C53435F 
 10477      57524954 
 10478              	.LASF334:
 10479 0db4 43595F42 		.ascii	"CY_BLE_EVT_HARDWARE_ERROR\000"
 10479      4C455F45 
 10479      56545F48 
 10479      41524457 
 10479      4152455F 
 10480              	.LASF93:
 10481 0dce 63707573 		.ascii	"cpuss_interrupts_ipc_10_IRQn\000"
 10481      735F696E 
 10481      74657272 
 10481      75707473 
 10481      5F697063 
 10482              	.LASF569:
 10483 0deb 43595F42 		.ascii	"CY_BLE_GATTS_ERR_CCCD_IMPROPERLY_CONFIGURED\000"
 10483      4C455F47 
 10483      41545453 
 10483      5F455252 
 10483      5F434343 
 10484              	.LASF217:
ARM GAS  C:\Users\salaz\AppData\Local\Temp\ccj0QfQu.s 			page 228


 10485 0e17 4449455F 		.ascii	"DIE_SORT\000"
 10485      534F5254 
 10485      00
 10486              	.LASF1046:
 10487 0e20 43595F42 		.ascii	"CY_BLE_EVT_UDSS_NOTIFICATION_DISABLED\000"
 10487      4C455F45 
 10487      56545F55 
 10487      4453535F 
 10487      4E4F5449 
 10488              	.LASF400:
 10489 0e46 43595F42 		.ascii	"CY_BLE_EVT_GAP_RESOLVE_DEVICE_COMPLETE\000"
 10489      4C455F45 
 10489      56545F47 
 10489      41505F52 
 10489      45534F4C 
 10490              	.LASF664:
 10491 0e6d 61647649 		.ascii	"advIntvMax\000"
 10491      6E74764D 
 10491      617800
 10492              	.LASF801:
 10493 0e78 43595F42 		.ascii	"CY_BLE_EVT_AIOSS_INDICATION_DISABLED\000"
 10493      4C455F45 
 10493      56545F41 
 10493      494F5353 
 10493      5F494E44 
 10494              	.LASF571:
 10495 0e9d 43595F42 		.ascii	"CY_BLE_GATT_ERR_INVALID_CRC\000"
 10495      4C455F47 
 10495      4154545F 
 10495      4552525F 
 10495      494E5641 
 10496              	.LASF449:
 10497 0eb9 43595F42 		.ascii	"CY_BLE_ERROR_INSUFFICIENT_RESOURCES\000"
 10497      4C455F45 
 10497      52524F52 
 10497      5F494E53 
 10497      55464649 
 10498              	.LASF352:
 10499 0edd 43595F42 		.ascii	"CY_BLE_EVT_REMOVE_DEVICE_FROM_WHITE_LIST_COMPLETE\000"
 10499      4C455F45 
 10499      56545F52 
 10499      454D4F56 
 10499      455F4445 
 10500              	.LASF708:
 10501 0f0f 66617374 		.ascii	"fastAdvTimeOut\000"
 10501      41647654 
 10501      696D654F 
 10501      757400
 10502              	.LASF163:
 10503 0f1e 74637077 		.ascii	"tcpwm_1_interrupts_7_IRQn\000"
 10503      6D5F315F 
 10503      696E7465 
 10503      72727570 
 10503      74735F37 
 10504              	.LASF800:
 10505 0f38 43595F42 		.ascii	"CY_BLE_EVT_AIOSS_INDICATION_ENABLED\000"
 10505      4C455F45 
ARM GAS  C:\Users\salaz\AppData\Local\Temp\ccj0QfQu.s 			page 229


 10505      56545F41 
 10505      494F5353 
 10505      5F494E44 
 10506              	.LASF996:
 10507 0f5c 43595F42 		.ascii	"CY_BLE_EVT_PASSS_NOTIFICATION_ENABLED\000"
 10507      4C455F45 
 10507      56545F50 
 10507      41535353 
 10507      5F4E4F54 
 10508              	.LASF200:
 10509 0f82 736D6966 		.ascii	"smif_interrupt_IRQn\000"
 10509      5F696E74 
 10509      65727275 
 10509      70745F49 
 10509      52516E00 
 10510              	.LASF206:
 10511 0f96 63795F65 		.ascii	"cy_en_intr_t\000"
 10511      6E5F696E 
 10511      74725F74 
 10511      00
 10512              	.LASF792:
 10513 0fa3 43595F42 		.ascii	"CY_BLE_EVT_GATTC_DESCR_DUPLICATION\000"
 10513      4C455F45 
 10513      56545F47 
 10513      41545443 
 10513      5F444553 
 10514              	.LASF280:
 10515 0fc6 544F4331 		.ascii	"TOC1_SYSCALL_TABLE_ADDR\000"
 10515      5F535953 
 10515      43414C4C 
 10515      5F544142 
 10515      4C455F41 
 10516              	.LASF331:
 10517 0fde 43595F42 		.ascii	"CY_BLE_EVT_MEMORY_REQUEST\000"
 10517      4C455F45 
 10517      56545F4D 
 10517      454D4F52 
 10517      595F5245 
 10518              	.LASF502:
 10519 0ff8 626C6550 		.ascii	"blePwrLevel\000"
 10519      77724C65 
 10519      76656C00 
 10520              	.LASF694:
 10521 1004 43595F42 		.ascii	"CY_BLE_CONN_STATE_CLIENT_INCL_DISCOVERING\000"
 10521      4C455F43 
 10521      4F4E4E5F 
 10521      53544154 
 10521      455F434C 
 10522              	.LASF1131:
 10523 102e 43795F42 		.ascii	"Cy_BLE_ApplCallback\000"
 10523      4C455F41 
 10523      70706C43 
 10523      616C6C62 
 10523      61636B00 
 10524              	.LASF548:
 10525 1042 43595F42 		.ascii	"CY_BLE_GATT_ERR_INVALID_PDU\000"
 10525      4C455F47 
ARM GAS  C:\Users\salaz\AppData\Local\Temp\ccj0QfQu.s 			page 230


 10525      4154545F 
 10525      4552525F 
 10525      494E5641 
 10526              	.LASF532:
 10527 105e 43595F42 		.ascii	"CY_BLE_GATT_WRITE_RSP\000"
 10527      4C455F47 
 10527      4154545F 
 10527      57524954 
 10527      455F5253 
 10528              	.LASF785:
 10529 1074 43595F42 		.ascii	"CY_BLE_EVT_GATTC_INDICATION\000"
 10529      4C455F45 
 10529      56545F47 
 10529      41545443 
 10529      5F494E44 
 10530              	.LASF813:
 10531 1090 43595F42 		.ascii	"CY_BLE_EVT_ANCSS_NOTIFICATION_DISABLED\000"
 10531      4C455F45 
 10531      56545F41 
 10531      4E435353 
 10531      5F4E4F54 
 10532              	.LASF242:
 10533 10b7 5354414E 		.ascii	"STANDARD_PPU_STRUCT\000"
 10533      44415244 
 10533      5F505055 
 10533      5F535452 
 10533      55435400 
 10534              	.LASF119:
 10535 10cb 63707573 		.ascii	"cpuss_interrupts_dw0_11_IRQn\000"
 10535      735F696E 
 10535      74657272 
 10535      75707473 
 10535      5F647730 
 10536              	.LASF678:
 10537 10e8 61647650 		.ascii	"advParam\000"
 10537      6172616D 
 10537      00
 10538              	.LASF529:
 10539 10f1 43595F42 		.ascii	"CY_BLE_GATT_READ_BY_GROUP_REQ\000"
 10539      4C455F47 
 10539      4154545F 
 10539      52454144 
 10539      5F42595F 
 10540              	.LASF973:
 10541 110f 43595F42 		.ascii	"CY_BLE_EVT_IPSC_READ_CHAR_RESPONSE\000"
 10541      4C455F45 
 10541      56545F49 
 10541      5053435F 
 10541      52454144 
 10542              	.LASF1011:
 10543 1132 43595F42 		.ascii	"CY_BLE_EVT_PLXSC_READ_CHAR_RESPONSE\000"
 10543      4C455F45 
 10543      56545F50 
 10543      4C585343 
 10543      5F524541 
 10544              	.LASF579:
 10545 1156 43595F42 		.ascii	"CY_BLE_GATT_ERR_CCCD_IMPROPERLY_CONFIGURED\000"
ARM GAS  C:\Users\salaz\AppData\Local\Temp\ccj0QfQu.s 			page 231


 10545      4C455F47 
 10545      4154545F 
 10545      4552525F 
 10545      43434344 
 10546              	.LASF495:
 10547 1181 43595F42 		.ascii	"CY_BLE_INVALID_REQUEST\000"
 10547      4C455F49 
 10547      4E56414C 
 10547      49445F52 
 10547      45515545 
 10548              	.LASF617:
 10549 1198 43595F42 		.ascii	"CY_BLE_GAP_AUTH_ERROR_INVALID_PARAMETERS\000"
 10549      4C455F47 
 10549      41505F41 
 10549      5554485F 
 10549      4552524F 
 10550              	.LASF474:
 10551 11c1 63795F65 		.ascii	"cy_en_ble_api_result_t\000"
 10551      6E5F626C 
 10551      655F6170 
 10551      695F7265 
 10551      73756C74 
 10552              	.LASF576:
 10553 11d8 43595F42 		.ascii	"CY_BLE_GATT_ERR_ANCS_INVALID_COMMAND\000"
 10553      4C455F47 
 10553      4154545F 
 10553      4552525F 
 10553      414E4353 
 10554              	.LASF151:
 10555 11fd 74637077 		.ascii	"tcpwm_0_interrupts_3_IRQn\000"
 10555      6D5F305F 
 10555      696E7465 
 10555      72727570 
 10555      74735F33 
 10556              	.LASF841:
 10557 1217 43595F42 		.ascii	"CY_BLE_EVT_BLSS_INDICATION_ENABLED\000"
 10557      4C455F45 
 10557      56545F42 
 10557      4C53535F 
 10557      494E4449 
 10558              	.LASF1117:
 10559 123a 63636364 		.ascii	"cccdCrc\000"
 10559      43726300 
 10560              	.LASF1145:
 10561 1242 43795F42 		.ascii	"Cy_BLE_HAL_CalcCRC8\000"
 10561      4C455F48 
 10561      414C5F43 
 10561      616C6343 
 10561      52433800 
 10562              	.LASF524:
 10563 1256 43595F42 		.ascii	"CY_BLE_GATT_READ_RSP\000"
 10563      4C455F47 
 10563      4154545F 
 10563      52454144 
 10563      5F525350 
 10564              	.LASF984:
 10565 126b 43595F42 		.ascii	"CY_BLE_EVT_LNSS_INDICATION_DISABLED\000"
ARM GAS  C:\Users\salaz\AppData\Local\Temp\ccj0QfQu.s 			page 232


 10565      4C455F45 
 10565      56545F4C 
 10565      4E53535F 
 10565      494E4449 
 10566              	.LASF942:
 10567 128f 43595F42 		.ascii	"CY_BLE_EVT_HPSS_NOTIFICATION_DISABLED\000"
 10567      4C455F45 
 10567      56545F48 
 10567      5053535F 
 10567      4E4F5449 
 10568              	.LASF863:
 10569 12b5 43595F42 		.ascii	"CY_BLE_EVT_CGMSC_READ_CHAR_RESPONSE\000"
 10569      4C455F45 
 10569      56545F43 
 10569      474D5343 
 10569      5F524541 
 10570              	.LASF1091:
 10571 12d9 43795F42 		.ascii	"Cy_BLE_SetAdvertisementState\000"
 10571      4C455F53 
 10571      65744164 
 10571      76657274 
 10571      6973656D 
 10572              	.LASF844:
 10573 12f6 43595F42 		.ascii	"CY_BLE_EVT_BLSS_NOTIFICATION_ENABLED\000"
 10573      4C455F45 
 10573      56545F42 
 10573      4C53535F 
 10573      4E4F5449 
 10574              	.LASF186:
 10575 131b 7564625F 		.ascii	"udb_interrupts_6_IRQn\000"
 10575      696E7465 
 10575      72727570 
 10575      74735F36 
 10575      5F495251 
 10576              	.LASF609:
 10577 1331 43595F42 		.ascii	"CY_BLE_GAP_AUTH_ERROR_OOB_DATA_NOT_AVAILABLE\000"
 10577      4C455F47 
 10577      41505F41 
 10577      5554485F 
 10577      4552524F 
 10578              	.LASF132:
 10579 135e 63707573 		.ascii	"cpuss_interrupts_dw1_8_IRQn\000"
 10579      735F696E 
 10579      74657272 
 10579      75707473 
 10579      5F647731 
 10580              	.LASF404:
 10581 137a 43595F42 		.ascii	"CY_BLE_EVT_GAPP_UPDATE_ADV_SCAN_DATA_COMPLETE\000"
 10581      4C455F45 
 10581      56545F47 
 10581      4150505F 
 10581      55504441 
 10582              	.LASF558:
 10583 13a8 43595F42 		.ascii	"CY_BLE_GATT_ERR_UNLIKELY_ERROR\000"
 10583      4C455F47 
 10583      4154545F 
 10583      4552525F 
ARM GAS  C:\Users\salaz\AppData\Local\Temp\ccj0QfQu.s 			page 233


 10583      554E4C49 
 10584              	.LASF480:
 10585 13c7 43595F42 		.ascii	"CY_BLE_LL_PWR_LVL_NEG_12_DBM\000"
 10585      4C455F4C 
 10585      4C5F5057 
 10585      525F4C56 
 10585      4C5F4E45 
 10586              	.LASF389:
 10587 13e4 43595F42 		.ascii	"CY_BLE_EVT_GAP_CONNECTION_UPDATE_COMPLETE\000"
 10587      4C455F45 
 10587      56545F47 
 10587      41505F43 
 10587      4F4E4E45 
 10588              	.LASF727:
 10589 140e 67617474 		.ascii	"gattErrorCode\000"
 10589      4572726F 
 10589      72436F64 
 10589      6500
 10590              	.LASF794:
 10591 141c 43595F42 		.ascii	"CY_BLE_EVT_GATTC_INCL_DISCOVERY_COMPLETE\000"
 10591      4C455F45 
 10591      56545F47 
 10591      41545443 
 10591      5F494E43 
 10592              	.LASF594:
 10593 1445 63795F73 		.ascii	"cy_stc_ble_gatt_err_info_t\000"
 10593      74635F62 
 10593      6C655F67 
 10593      6174745F 
 10593      6572725F 
 10594              	.LASF624:
 10595 1460 63795F65 		.ascii	"cy_en_ble_gap_auth_failed_reason_t\000"
 10595      6E5F626C 
 10595      655F6761 
 10595      705F6175 
 10595      74685F66 
 10596              	.LASF891:
 10597 1483 43595F42 		.ascii	"CY_BLE_EVT_CSCSC_READ_CHAR_RESPONSE\000"
 10597      4C455F45 
 10597      56545F43 
 10597      53435343 
 10597      5F524541 
 10598              	.LASF883:
 10599 14a7 43595F42 		.ascii	"CY_BLE_EVT_CSCSS_NOTIFICATION_ENABLED\000"
 10599      4C455F45 
 10599      56545F43 
 10599      53435353 
 10599      5F4E4F54 
 10600              	.LASF773:
 10601 14cd 70617261 		.ascii	"params\000"
 10601      6D7300
 10602              	.LASF137:
 10603 14d4 63707573 		.ascii	"cpuss_interrupts_dw1_13_IRQn\000"
 10603      735F696E 
 10603      74657272 
 10603      75707473 
 10603      5F647731 
ARM GAS  C:\Users\salaz\AppData\Local\Temp\ccj0QfQu.s 			page 234


 10604              	.LASF223:
 10605 14f1 5341525F 		.ascii	"SAR_TEMP_MULTIPLIER\000"
 10605      54454D50 
 10605      5F4D554C 
 10605      5449504C 
 10605      49455200 
 10606              	.LASF51:
 10607 1505 4E766963 		.ascii	"NvicMux27_IRQn\000"
 10607      4D757832 
 10607      375F4952 
 10607      516E00
 10608              	.LASF608:
 10609 1514 43595F42 		.ascii	"CY_BLE_GAP_AUTH_ERROR_PASSKEY_ENTRY_FAILED\000"
 10609      4C455F47 
 10609      41505F41 
 10609      5554485F 
 10609      4552524F 
 10610              	.LASF60:
 10611 153f 696F7373 		.ascii	"ioss_interrupts_gpio_2_IRQn\000"
 10611      5F696E74 
 10611      65727275 
 10611      7074735F 
 10611      6770696F 
 10612              	.LASF320:
 10613 155b 63686172 		.ascii	"char_t\000"
 10613      5F7400
 10614              	.LASF645:
 10615 1562 6D617374 		.ascii	"masterClockAccuracy\000"
 10615      6572436C 
 10615      6F636B41 
 10615      63637572 
 10615      61637900 
 10616              	.LASF630:
 10617 1576 63795F73 		.ascii	"cy_stc_ble_gap_bd_addr_t\000"
 10617      74635F62 
 10617      6C655F67 
 10617      61705F62 
 10617      645F6164 
 10618              	.LASF343:
 10619 158f 43595F42 		.ascii	"CY_BLE_EVT_DATA_LENGTH_CHANGE\000"
 10619      4C455F45 
 10619      56545F44 
 10619      4154415F 
 10619      4C454E47 
 10620              	.LASF1107:
 10621 15ad 6576656E 		.ascii	"event\000"
 10621      7400
 10622              	.LASF29:
 10623 15b3 4E766963 		.ascii	"NvicMux5_IRQn\000"
 10623      4D757835 
 10623      5F495251 
 10623      6E00
 10624              	.LASF485:
 10625 15c1 43595F42 		.ascii	"CY_BLE_LL_ADV_CH_TYPE\000"
 10625      4C455F4C 
 10625      4C5F4144 
 10625      565F4348 
ARM GAS  C:\Users\salaz\AppData\Local\Temp\ccj0QfQu.s 			page 235


 10625      5F545950 
 10626              	.LASF982:
 10627 15d7 43595F42 		.ascii	"CY_BLE_EVT_LLSC_WRITE_CHAR_RESPONSE\000"
 10627      4C455F45 
 10627      56545F4C 
 10627      4C53435F 
 10627      57524954 
 10628              	.LASF1017:
 10629 15fb 43595F42 		.ascii	"CY_BLE_EVT_RSCSS_NOTIFICATION_DISABLED\000"
 10629      4C455F45 
 10629      56545F52 
 10629      53435353 
 10629      5F4E4F54 
 10630              	.LASF914:
 10631 1622 43595F42 		.ascii	"CY_BLE_EVT_ESSC_WRITE_CHAR_RESPONSE\000"
 10631      4C455F45 
 10631      56545F45 
 10631      5353435F 
 10631      57524954 
 10632              	.LASF459:
 10633 1646 43595F42 		.ascii	"CY_BLE_ERROR_L2CAP_PSM_NOT_REGISTERED\000"
 10633      4C455F45 
 10633      52524F52 
 10633      5F4C3243 
 10633      41505F50 
 10634              	.LASF419:
 10635 166c 43595F42 		.ascii	"CY_BLE_EVT_GATTC_WRITE_RSP\000"
 10635      4C455F45 
 10635      56545F47 
 10635      41545443 
 10635      5F575249 
 10636              	.LASF798:
 10637 1687 43595F42 		.ascii	"CY_BLE_EVT_AIOSS_NOTIFICATION_ENABLED\000"
 10637      4C455F45 
 10637      56545F41 
 10637      494F5353 
 10637      5F4E4F54 
 10638              	.LASF1054:
 10639 16ad 43595F42 		.ascii	"CY_BLE_EVT_UDSC_WRITE_DESCR_RESPONSE\000"
 10639      4C455F45 
 10639      56545F55 
 10639      4453435F 
 10639      57524954 
 10640              	.LASF431:
 10641 16d2 43595F42 		.ascii	"CY_BLE_EVT_L2CAP_CONN_PARAM_UPDATE_REQ\000"
 10641      4C455F45 
 10641      56545F4C 
 10641      32434150 
 10641      5F434F4E 
 10642              	.LASF660:
 10643 16f9 43595F42 		.ascii	"CY_BLE_GAPP_NON_CONNECTABLE_UNDIRECTED_ADV\000"
 10643      4C455F47 
 10643      4150505F 
 10643      4E4F4E5F 
 10643      434F4E4E 
 10644              	.LASF500:
 10645 1724 626C6553 		.ascii	"bleSsChId\000"
ARM GAS  C:\Users\salaz\AppData\Local\Temp\ccj0QfQu.s 			page 236


 10645      73436849 
 10645      6400
 10646              	.LASF201:
 10647 172e 7573625F 		.ascii	"usb_interrupt_hi_IRQn\000"
 10647      696E7465 
 10647      72727570 
 10647      745F6869 
 10647      5F495251 
 10648              	.LASF23:
 10649 1744 53797354 		.ascii	"SysTick_IRQn\000"
 10649      69636B5F 
 10649      4952516E 
 10649      00
 10650              	.LASF1129:
 10651 1751 63795F62 		.ascii	"cy_ble_peerBonding\000"
 10651      6C655F70 
 10651      65657242 
 10651      6F6E6469 
 10651      6E6700
 10652              	.LASF689:
 10653 1764 63795F65 		.ascii	"cy_en_ble_adv_state_t\000"
 10653      6E5F626C 
 10653      655F6164 
 10653      765F7374 
 10653      6174655F 
 10654              	.LASF758:
 10655 177a 73656375 		.ascii	"securityIoCapability\000"
 10655      72697479 
 10655      496F4361 
 10655      70616269 
 10655      6C697479 
 10656              	.LASF160:
 10657 178f 74637077 		.ascii	"tcpwm_1_interrupts_4_IRQn\000"
 10657      6D5F315F 
 10657      696E7465 
 10657      72727570 
 10657      74735F34 
 10658              	.LASF1005:
 10659 17a9 43595F42 		.ascii	"CY_BLE_EVT_PLXSS_INDICATION_CONFIRMED\000"
 10659      4C455F45 
 10659      56545F50 
 10659      4C585353 
 10659      5F494E44 
 10660              	.LASF547:
 10661 17cf 43595F42 		.ascii	"CY_BLE_GATT_ERR_WRITE_NOT_PERMITTED\000"
 10661      4C455F47 
 10661      4154545F 
 10661      4552525F 
 10661      57524954 
 10662              	.LASF385:
 10663 17f3 43595F42 		.ascii	"CY_BLE_EVT_GAPP_ADVERTISEMENT_START_STOP\000"
 10663      4C455F45 
 10663      56545F47 
 10663      4150505F 
 10663      41445645 
 10664              	.LASF677:
 10665 181c 64697363 		.ascii	"discMode\000"
ARM GAS  C:\Users\salaz\AppData\Local\Temp\ccj0QfQu.s 			page 237


 10665      4D6F6465 
 10665      00
 10666              	.LASF997:
 10667 1825 43595F42 		.ascii	"CY_BLE_EVT_PASSS_NOTIFICATION_DISABLED\000"
 10667      4C455F45 
 10667      56545F50 
 10667      41535353 
 10667      5F4E4F54 
 10668              	.LASF70:
 10669 184c 696F7373 		.ascii	"ioss_interrupts_gpio_12_IRQn\000"
 10669      5F696E74 
 10669      65727275 
 10669      7074735F 
 10669      6770696F 
 10670              	.LASF1034:
 10671 1869 43595F42 		.ascii	"CY_BLE_EVT_SCPSC_READ_DESCR_RESPONSE\000"
 10671      4C455F45 
 10671      56545F53 
 10671      43505343 
 10671      5F524541 
 10672              	.LASF983:
 10673 188e 43595F42 		.ascii	"CY_BLE_EVT_LNSS_INDICATION_ENABLED\000"
 10673      4C455F45 
 10673      56545F4C 
 10673      4E53535F 
 10673      494E4449 
 10674              	.LASF117:
 10675 18b1 63707573 		.ascii	"cpuss_interrupts_dw0_9_IRQn\000"
 10675      735F696E 
 10675      74657272 
 10675      75707473 
 10675      5F647730 
 10676              	.LASF657:
 10677 18cd 43595F42 		.ascii	"CY_BLE_GAPP_CONNECTABLE_UNDIRECTED_ADV\000"
 10677      4C455F47 
 10677      4150505F 
 10677      434F4E4E 
 10677      45435441 
 10678              	.LASF631:
 10679 18f4 73656375 		.ascii	"security\000"
 10679      72697479 
 10679      00
 10680              	.LASF704:
 10681 18fd 7265736F 		.ascii	"resolvablePrivateAddressOnly\000"
 10681      6C766162 
 10681      6C655072 
 10681      69766174 
 10681      65416464 
 10682              	.LASF346:
 10683 191a 43595F42 		.ascii	"CY_BLE_EVT_SET_RPA_TO_COMPLETE\000"
 10683      4C455F45 
 10683      56545F53 
 10683      45545F52 
 10683      50415F54 
 10684              	.LASF55:
 10685 1939 4E766963 		.ascii	"NvicMux31_IRQn\000"
 10685      4D757833 
ARM GAS  C:\Users\salaz\AppData\Local\Temp\ccj0QfQu.s 			page 238


 10685      315F4952 
 10685      516E00
 10686              	.LASF314:
 10687 1948 52544F43 		.ascii	"RTOC2_SHASH_OBJECTS\000"
 10687      325F5348 
 10687      4153485F 
 10687      4F424A45 
 10687      43545300 
 10688              	.LASF596:
 10689 195c 63795F73 		.ascii	"cy_stc_ble_gatt_err_param_t\000"
 10689      74635F62 
 10689      6C655F67 
 10689      6174745F 
 10689      6572725F 
 10690              	.LASF376:
 10691 1978 43595F42 		.ascii	"CY_BLE_EVT_SET_EVENT_MASK_COMPLETE\000"
 10691      4C455F45 
 10691      56545F53 
 10691      45545F45 
 10691      56454E54 
 10692              	.LASF580:
 10693 199b 43595F42 		.ascii	"CY_BLE_GATT_ERR_PROCEDURE_ALREADY_IN_PROGRESS\000"
 10693      4C455F47 
 10693      4154545F 
 10693      4552525F 
 10693      50524F43 
 10694              	.LASF350:
 10695 19c9 43595F42 		.ascii	"CY_BLE_EVT_REMOVE_DEVICE_FROM_RPA_LIST_COMPLETE\000"
 10695      4C455F45 
 10695      56545F52 
 10695      454D4F56 
 10695      455F4445 
 10696              	.LASF148:
 10697 19f9 74637077 		.ascii	"tcpwm_0_interrupts_0_IRQn\000"
 10697      6D5F305F 
 10697      696E7465 
 10697      72727570 
 10697      74735F30 
 10698              	.LASF615:
 10699 1a13 43595F42 		.ascii	"CY_BLE_GAP_AUTH_ERROR_UNSPECIFIED_REASON\000"
 10699      4C455F47 
 10699      41505F41 
 10699      5554485F 
 10699      4552524F 
 10700              	.LASF807:
 10701 1a3c 43595F42 		.ascii	"CY_BLE_EVT_AIOSC_READ_CHAR_RESPONSE\000"
 10701      4C455F45 
 10701      56545F41 
 10701      494F5343 
 10701      5F524541 
 10702              	.LASF1049:
 10703 1a60 43595F42 		.ascii	"CY_BLE_EVT_UDSC_INDICATION\000"
 10703      4C455F45 
 10703      56545F55 
 10703      4453435F 
 10703      494E4449 
 10704              	.LASF452:
ARM GAS  C:\Users\salaz\AppData\Local\Temp\ccj0QfQu.s 			page 239


 10705 1a7b 43595F42 		.ascii	"CY_BLE_ERROR_NO_DEVICE_ENTITY\000"
 10705      4C455F45 
 10705      52524F52 
 10705      5F4E4F5F 
 10705      44455649 
 10706              	.LASF610:
 10707 1a99 43595F42 		.ascii	"CY_BLE_GAP_AUTH_ERROR_AUTHENTICATION_REQ_NOT_MET\000"
 10707      4C455F47 
 10707      41505F41 
 10707      5554485F 
 10707      4552524F 
 10708              	.LASF6:
 10709 1aca 5F5F7569 		.ascii	"__uint8_t\000"
 10709      6E74385F 
 10709      7400
 10710              	.LASF1075:
 10711 1ad4 43595F42 		.ascii	"CY_BLE_EVT_BTSS_NOTIFICATION_ENABLED\000"
 10711      4C455F45 
 10711      56545F42 
 10711      5453535F 
 10711      4E4F5449 
 10712              	.LASF183:
 10713 1af9 7564625F 		.ascii	"udb_interrupts_3_IRQn\000"
 10713      696E7465 
 10713      72727570 
 10713      74735F33 
 10713      5F495251 
 10714              	.LASF146:
 10715 1b0f 63707573 		.ascii	"cpuss_interrupts_cm4_cti_0_IRQn\000"
 10715      735F696E 
 10715      74657272 
 10715      75707473 
 10715      5F636D34 
 10716              	.LASF584:
 10717 1b2f 61637475 		.ascii	"actualLen\000"
 10717      616C4C65 
 10717      6E00
 10718              	.LASF427:
 10719 1b39 43595F42 		.ascii	"CY_BLE_EVT_GATTS_DATA_SIGNED_CMD_REQ\000"
 10719      4C455F45 
 10719      56545F47 
 10719      41545453 
 10719      5F444154 
 10720              	.LASF129:
 10721 1b5e 63707573 		.ascii	"cpuss_interrupts_dw1_5_IRQn\000"
 10721      735F696E 
 10721      74657272 
 10721      75707473 
 10721      5F647731 
 10722              	.LASF944:
 10723 1b7a 43595F42 		.ascii	"CY_BLE_EVT_HPSC_NOTIFICATION\000"
 10723      4C455F45 
 10723      56545F48 
 10723      5053435F 
 10723      4E4F5449 
 10724              	.LASF394:
 10725 1b97 43595F42 		.ascii	"CY_BLE_EVT_GAP_OOB_GENERATED_NOTIFICATION\000"
ARM GAS  C:\Users\salaz\AppData\Local\Temp\ccj0QfQu.s 			page 240


 10725      4C455F45 
 10725      56545F47 
 10725      41505F4F 
 10725      4F425F47 
 10726              	.LASF290:
 10727 1bc1 52544F43 		.ascii	"RTOC1_SYSCALL_TABLE_ADDR\000"
 10727      315F5359 
 10727      5343414C 
 10727      4C5F5441 
 10727      424C455F 
 10728              	.LASF887:
 10729 1bda 43595F42 		.ascii	"CY_BLE_EVT_CSCSS_INDICATION_CONFIRMATION\000"
 10729      4C455F45 
 10729      56545F43 
 10729      53435353 
 10729      5F494E44 
 10730              	.LASF174:
 10731 1c03 74637077 		.ascii	"tcpwm_1_interrupts_18_IRQn\000"
 10731      6D5F315F 
 10731      696E7465 
 10731      72727570 
 10731      74735F31 
 10732              	.LASF475:
 10733 1c1e 62644164 		.ascii	"bdAddr\000"
 10733      647200
 10734              	.LASF478:
 10735 1c25 43595F42 		.ascii	"CY_BLE_LL_PWR_LVL_NEG_20_DBM\000"
 10735      4C455F4C 
 10735      4C5F5057 
 10735      525F4C56 
 10735      4C5F4E45 
 10736              	.LASF777:
 10737 1c42 63795F73 		.ascii	"cy_stc_ble_config_t\000"
 10737      74635F62 
 10737      6C655F63 
 10737      6F6E6669 
 10737      675F7400 
 10738              	.LASF134:
 10739 1c56 63707573 		.ascii	"cpuss_interrupts_dw1_10_IRQn\000"
 10739      735F696E 
 10739      74657272 
 10739      75707473 
 10739      5F647731 
 10740              	.LASF327:
 10741 1c73 43595F42 		.ascii	"CY_BLE_EVT_INVALID\000"
 10741      4C455F45 
 10741      56545F49 
 10741      4E56414C 
 10741      494400
 10742              	.LASF952:
 10743 1c86 43595F42 		.ascii	"CY_BLE_EVT_HRSC_NOTIFICATION\000"
 10743      4C455F45 
 10743      56545F48 
 10743      5253435F 
 10743      4E4F5449 
 10744              	.LASF48:
 10745 1ca3 4E766963 		.ascii	"NvicMux24_IRQn\000"
ARM GAS  C:\Users\salaz\AppData\Local\Temp\ccj0QfQu.s 			page 241


 10745      4D757832 
 10745      345F4952 
 10745      516E00
 10746              	.LASF663:
 10747 1cb2 61647649 		.ascii	"advIntvMin\000"
 10747      6E74764D 
 10747      696E00
 10748              	.LASF1157:
 10749 1cbd 43795F42 		.ascii	"Cy_BLE_GetAdvertisementState\000"
 10749      4C455F47 
 10749      65744164 
 10749      76657274 
 10749      6973656D 
 10750              	.LASF848:
 10751 1cda 43595F42 		.ascii	"CY_BLE_EVT_BLSC_READ_CHAR_RESPONSE\000"
 10751      4C455F45 
 10751      56545F42 
 10751      4C53435F 
 10751      52454144 
 10752              	.LASF1056:
 10753 1cfd 43595F42 		.ascii	"CY_BLE_EVT_WPTSS_NOTIFICATION_ENABLED\000"
 10753      4C455F45 
 10753      56545F57 
 10753      50545353 
 10753      5F4E4F54 
 10754              	.LASF26:
 10755 1d23 4E766963 		.ascii	"NvicMux2_IRQn\000"
 10755      4D757832 
 10755      5F495251 
 10755      6E00
 10756              	.LASF755:
 10757 1d31 63795F73 		.ascii	"cy_stc_ble_flash_storage_t\000"
 10757      74635F62 
 10757      6C655F66 
 10757      6C617368 
 10757      5F73746F 
 10758              	.LASF264:
 10759 1d4c 464C4153 		.ascii	"FLASH_BOOT_ATTRIBUTE\000"
 10759      485F424F 
 10759      4F545F41 
 10759      54545249 
 10759      42555445 
 10760              	.LASF774:
 10761 1d61 63616C6C 		.ascii	"callbackFunc\000"
 10761      6261636B 
 10761      46756E63 
 10761      00
 10762              	.LASF963:
 10763 1d6e 43595F42 		.ascii	"CY_BLE_EVT_HTSC_NOTIFICATION\000"
 10763      4C455F45 
 10763      56545F48 
 10763      5453435F 
 10763      4E4F5449 
 10764              	.LASF550:
 10765 1d8b 43595F42 		.ascii	"CY_BLE_GATT_ERR_REQUEST_NOT_SUPPORTED\000"
 10765      4C455F47 
 10765      4154545F 
ARM GAS  C:\Users\salaz\AppData\Local\Temp\ccj0QfQu.s 			page 242


 10765      4552525F 
 10765      52455155 
 10766              	.LASF943:
 10767 1db1 43595F42 		.ascii	"CY_BLE_EVT_HPSS_WRITE_CHAR\000"
 10767      4C455F45 
 10767      56545F48 
 10767      5053535F 
 10767      57524954 
 10768              	.LASF440:
 10769 1dcc 43595F42 		.ascii	"CY_BLE_EVT_L2CAP_CBFC_TX_CREDIT_IND\000"
 10769      4C455F45 
 10769      56545F4C 
 10769      32434150 
 10769      5F434246 
 10770              	.LASF765:
 10771 1df0 64697363 		.ascii	"discoveryInfo\000"
 10771      6F766572 
 10771      79496E66 
 10771      6F00
 10772              	.LASF527:
 10773 1dfe 43595F42 		.ascii	"CY_BLE_GATT_READ_MULTIPLE_REQ\000"
 10773      4C455F47 
 10773      4154545F 
 10773      52454144 
 10773      5F4D554C 
 10774              	.LASF157:
 10775 1e1c 74637077 		.ascii	"tcpwm_1_interrupts_1_IRQn\000"
 10775      6D5F315F 
 10775      696E7465 
 10775      72727570 
 10775      74735F31 
 10776              	.LASF614:
 10777 1e36 43595F42 		.ascii	"CY_BLE_GAP_AUTH_ERROR_COMMAND_NOT_SUPPORTED\000"
 10777      4C455F47 
 10777      41505F41 
 10777      5554485F 
 10777      4552524F 
 10778              	.LASF267:
 10779 1e62 464C4153 		.ascii	"FLASH_BOOT_CORE_CPUID\000"
 10779      485F424F 
 10779      4F545F43 
 10779      4F52455F 
 10779      43505549 
 10780              	.LASF332:
 10781 1e78 43595F42 		.ascii	"CY_BLE_EVT_PENDING_FLASH_WRITE\000"
 10781      4C455F45 
 10781      56545F50 
 10781      454E4449 
 10781      4E475F46 
 10782              	.LASF397:
 10783 1e97 43595F42 		.ascii	"CY_BLE_EVT_GAP_SMP_NEGOTIATED_AUTH_INFO\000"
 10783      4C455F45 
 10783      56545F47 
 10783      41505F53 
 10783      4D505F4E 
 10784              	.LASF482:
 10785 1ebf 43595F42 		.ascii	"CY_BLE_LL_PWR_LVL_0_DBM\000"
ARM GAS  C:\Users\salaz\AppData\Local\Temp\ccj0QfQu.s 			page 243


 10785      4C455F4C 
 10785      4C5F5057 
 10785      525F4C56 
 10785      4C5F305F 
 10786              	.LASF611:
 10787 1ed7 43595F42 		.ascii	"CY_BLE_GAP_AUTH_ERROR_CONFIRM_VALUE_NOT_MATCH\000"
 10787      4C455F47 
 10787      41505F41 
 10787      5554485F 
 10787      4552524F 
 10788              	.LASF19:
 10789 1f05 4E6F6E4D 		.ascii	"NonMaskableInt_IRQn\000"
 10789      61736B61 
 10789      626C6549 
 10789      6E745F49 
 10789      52516E00 
 10790              	.LASF288:
 10791 1f19 52544F43 		.ascii	"RTOC1_UNIQUE_ID_ADDR\000"
 10791      315F554E 
 10791      49515545 
 10791      5F49445F 
 10791      41444452 
 10792              	.LASF816:
 10793 1f2e 43595F42 		.ascii	"CY_BLE_EVT_ANCSC_WRITE_CHAR_RESPONSE\000"
 10793      4C455F45 
 10793      56545F41 
 10793      4E435343 
 10793      5F575249 
 10794              	.LASF41:
 10795 1f53 4E766963 		.ascii	"NvicMux17_IRQn\000"
 10795      4D757831 
 10795      375F4952 
 10795      516E00
 10796              	.LASF114:
 10797 1f62 63707573 		.ascii	"cpuss_interrupts_dw0_6_IRQn\000"
 10797      735F696E 
 10797      74657272 
 10797      75707473 
 10797      5F647730 
 10798              	.LASF354:
 10799 1f7e 43595F42 		.ascii	"CY_BLE_EVT_SET_DEFAULT_PHY_COMPLETE\000"
 10799      4C455F45 
 10799      56545F53 
 10799      45545F44 
 10799      45464155 
 10800              	.LASF939:
 10801 1fa2 43595F42 		.ascii	"CY_BLE_EVT_HIDSC_READ_DESCR_RESPONSE\000"
 10801      4C455F45 
 10801      56545F48 
 10801      49445343 
 10801      5F524541 
 10802              	.LASF274:
 10803 1fc7 544F4331 		.ascii	"TOC1_OBJECT_SIZE\000"
 10803      5F4F424A 
 10803      4543545F 
 10803      53495A45 
 10803      00
ARM GAS  C:\Users\salaz\AppData\Local\Temp\ccj0QfQu.s 			page 244


 10804              	.LASF784:
 10805 1fd8 43595F42 		.ascii	"CY_BLE_EVT_GATTS_INDICATION_DISABLED\000"
 10805      4C455F45 
 10805      56545F47 
 10805      41545453 
 10805      5F494E44 
 10806              	.LASF226:
 10807 1ffd 4353505F 		.ascii	"CSP_PANEL_ID\000"
 10807      50414E45 
 10807      4C5F4944 
 10807      00
 10808              	.LASF518:
 10809 200a 43595F42 		.ascii	"CY_BLE_GATT_FIND_INFO_RSP\000"
 10809      4C455F47 
 10809      4154545F 
 10809      46494E44 
 10809      5F494E46 
 10810              	.LASF753:
 10811 2024 63636364 		.ascii	"cccdCount\000"
 10811      436F756E 
 10811      7400
 10812              	.LASF442:
 10813 202e 43595F42 		.ascii	"CY_BLE_EVT_MAX\000"
 10813      4C455F45 
 10813      56545F4D 
 10813      415800
 10814              	.LASF1110:
 10815 203d 6C654D61 		.ascii	"leMask\000"
 10815      736B00
 10816              	.LASF809:
 10817 2044 43595F42 		.ascii	"CY_BLE_EVT_AIOSC_READ_DESCR_RESPONSE\000"
 10817      4C455F45 
 10817      56545F41 
 10817      494F5343 
 10817      5F524541 
 10818              	.LASF1071:
 10819 2069 43595F42 		.ascii	"CY_BLE_EVT_WSSC_INDICATION\000"
 10819      4C455F45 
 10819      56545F57 
 10819      5353435F 
 10819      494E4449 
 10820              	.LASF456:
 10821 2084 43595F42 		.ascii	"CY_BLE_ERROR_SEC_FAILED\000"
 10821      4C455F45 
 10821      52524F52 
 10821      5F534543 
 10821      5F464149 
 10822              	.LASF889:
 10823 209c 43595F42 		.ascii	"CY_BLE_EVT_CSCSC_NOTIFICATION\000"
 10823      4C455F45 
 10823      56545F43 
 10823      53435343 
 10823      5F4E4F54 
 10824              	.LASF900:
 10825 20ba 43595F42 		.ascii	"CY_BLE_EVT_CTSC_READ_DESCR_RESPONSE\000"
 10825      4C455F45 
 10825      56545F43 
ARM GAS  C:\Users\salaz\AppData\Local\Temp\ccj0QfQu.s 			page 245


 10825      5453435F 
 10825      52454144 
 10826              	.LASF990:
 10827 20de 43595F42 		.ascii	"CY_BLE_EVT_LNSC_NOTIFICATION\000"
 10827      4C455F45 
 10827      56545F4C 
 10827      4E53435F 
 10827      4E4F5449 
 10828              	.LASF489:
 10829 20fb 43595F42 		.ascii	"CY_BLE_GAP_ADV_TO\000"
 10829      4C455F47 
 10829      41505F41 
 10829      44565F54 
 10829      4F00
 10830              	.LASF195:
 10831 210d 7564625F 		.ascii	"udb_interrupts_15_IRQn\000"
 10831      696E7465 
 10831      72727570 
 10831      74735F31 
 10831      355F4952 
 10832              	.LASF56:
 10833 2124 756E636F 		.ascii	"unconnected_IRQn\000"
 10833      6E6E6563 
 10833      7465645F 
 10833      4952516E 
 10833      00
 10834              	.LASF322:
 10835 2135 646F7562 		.ascii	"double\000"
 10835      6C6500
 10836              	.LASF932:
 10837 213c 43595F42 		.ascii	"CY_BLE_EVT_HIDSS_REPORT_MODE_ENTER\000"
 10837      4C455F45 
 10837      56545F48 
 10837      49445353 
 10837      5F524550 
 10838              	.LASF178:
 10839 215f 74637077 		.ascii	"tcpwm_1_interrupts_22_IRQn\000"
 10839      6D5F315F 
 10839      696E7465 
 10839      72727570 
 10839      74735F32 
 10840              	.LASF850:
 10841 217a 43595F42 		.ascii	"CY_BLE_EVT_BLSC_WRITE_DESCR_RESPONSE\000"
 10841      4C455F45 
 10841      56545F42 
 10841      4C53435F 
 10841      57524954 
 10842              	.LASF241:
 10843 219f 5354414E 		.ascii	"STANDARD_MPU_STRUCT\000"
 10843      44415244 
 10843      5F4D5055 
 10843      5F535452 
 10843      55435400 
 10844              	.LASF464:
 10845 21b3 43595F42 		.ascii	"CY_BLE_ERROR_FLASH_WRITE\000"
 10845      4C455F45 
 10845      52524F52 
ARM GAS  C:\Users\salaz\AppData\Local\Temp\ccj0QfQu.s 			page 246


 10845      5F464C41 
 10845      53485F57 
 10846              	.LASF180:
 10847 21cc 7564625F 		.ascii	"udb_interrupts_0_IRQn\000"
 10847      696E7465 
 10847      72727570 
 10847      74735F30 
 10847      5F495251 
 10848              	.LASF894:
 10849 21e2 43595F42 		.ascii	"CY_BLE_EVT_CSCSC_WRITE_DESCR_RESPONSE\000"
 10849      4C455F45 
 10849      56545F43 
 10849      53435343 
 10849      5F575249 
 10850              	.LASF829:
 10851 2208 43595F42 		.ascii	"CY_BLE_EVT_BASS_NOTIFICATION_DISABLED\000"
 10851      4C455F45 
 10851      56545F42 
 10851      4153535F 
 10851      4E4F5449 
 10852              	.LASF888:
 10853 222e 43595F42 		.ascii	"CY_BLE_EVT_CSCSS_WRITE_CHAR\000"
 10853      4C455F45 
 10853      56545F43 
 10853      53435353 
 10853      5F575249 
 10854              	.LASF196:
 10855 224a 70617373 		.ascii	"pass_interrupt_sar_IRQn\000"
 10855      5F696E74 
 10855      65727275 
 10855      70745F73 
 10855      61725F49 
 10856              	.LASF539:
 10857 2262 43595F42 		.ascii	"CY_BLE_GATT_HANDLE_VALUE_IND\000"
 10857      4C455F47 
 10857      4154545F 
 10857      48414E44 
 10857      4C455F56 
 10858              	.LASF1027:
 10859 227f 43595F42 		.ascii	"CY_BLE_EVT_RSCSC_WRITE_DESCR_RESPONSE\000"
 10859      4C455F45 
 10859      56545F52 
 10859      53435343 
 10859      5F575249 
 10860              	.LASF879:
 10861 22a5 43595F42 		.ascii	"CY_BLE_EVT_CPSC_READ_DESCR_RESPONSE\000"
 10861      4C455F45 
 10861      56545F43 
 10861      5053435F 
 10861      52454144 
 10862              	.LASF384:
 10863 22c9 43595F42 		.ascii	"CY_BLE_EVT_GAP_AUTH_FAILED\000"
 10863      4C455F45 
 10863      56545F47 
 10863      41505F41 
 10863      5554485F 
 10864              	.LASF198:
ARM GAS  C:\Users\salaz\AppData\Local\Temp\ccj0QfQu.s 			page 247


 10865 22e4 61756469 		.ascii	"audioss_interrupt_pdm_IRQn\000"
 10865      6F73735F 
 10865      696E7465 
 10865      72727570 
 10865      745F7064 
 10866              	.LASF662:
 10867 22ff 63795F65 		.ascii	"cy_en_ble_gapp_adv_t\000"
 10867      6E5F626C 
 10867      655F6761 
 10867      70705F61 
 10867      64765F74 
 10868              	.LASF991:
 10869 2314 43595F42 		.ascii	"CY_BLE_EVT_LNSC_READ_CHAR_RESPONSE\000"
 10869      4C455F45 
 10869      56545F4C 
 10869      4E53435F 
 10869      52454144 
 10870              	.LASF910:
 10871 2337 43595F42 		.ascii	"CY_BLE_EVT_ESSS_DESCR_WRITE\000"
 10871      4C455F45 
 10871      56545F45 
 10871      5353535F 
 10871      44455343 
 10872              	.LASF87:
 10873 2353 63707573 		.ascii	"cpuss_interrupts_ipc_4_IRQn\000"
 10873      735F696E 
 10873      74657272 
 10873      75707473 
 10873      5F697063 
 10874              	.LASF646:
 10875 236f 73746174 		.ascii	"status\000"
 10875      757300
 10876              	.LASF126:
 10877 2376 63707573 		.ascii	"cpuss_interrupts_dw1_2_IRQn\000"
 10877      735F696E 
 10877      74657272 
 10877      75707473 
 10877      5F647731 
 10878              	.LASF1073:
 10879 2392 43595F42 		.ascii	"CY_BLE_EVT_WSSC_READ_DESCR_RESPONSE\000"
 10879      4C455F45 
 10879      56545F57 
 10879      5353435F 
 10879      52454144 
 10880              	.LASF1127:
 10881 23b6 63795F62 		.ascii	"cy_ble_pairStatus\000"
 10881      6C655F70 
 10881      61697253 
 10881      74617475 
 10881      7300
 10882              	.LASF453:
 10883 23c8 43595F42 		.ascii	"CY_BLE_ERROR_DEVICE_ALREADY_EXISTS\000"
 10883      4C455F45 
 10883      52524F52 
 10883      5F444556 
 10883      4943455F 
 10884              	.LASF435:
ARM GAS  C:\Users\salaz\AppData\Local\Temp\ccj0QfQu.s 			page 248


 10885 23eb 43595F42 		.ascii	"CY_BLE_EVT_L2CAP_CBFC_CONN_CNF\000"
 10885      4C455F45 
 10885      56545F4C 
 10885      32434150 
 10885      5F434246 
 10886              	.LASF572:
 10887 240a 43595F42 		.ascii	"CY_BLE_GATTS_ERR_HPS_INVALID_REQUEST\000"
 10887      4C455F47 
 10887      41545453 
 10887      5F455252 
 10887      5F485053 
 10888              	.LASF1076:
 10889 242f 43595F42 		.ascii	"CY_BLE_EVT_BTSS_NOTIFICATION_DISABLED\000"
 10889      4C455F45 
 10889      56545F42 
 10889      5453535F 
 10889      4E4F5449 
 10890              	.LASF674:
 10891 2455 7363616E 		.ascii	"scanRspData\000"
 10891      52737044 
 10891      61746100 
 10892              	.LASF810:
 10893 2461 43595F42 		.ascii	"CY_BLE_EVT_AIOSC_WRITE_DESCR_RESPONSE\000"
 10893      4C455F45 
 10893      56545F41 
 10893      494F5343 
 10893      5F575249 
 10894              	.LASF171:
 10895 2487 74637077 		.ascii	"tcpwm_1_interrupts_15_IRQn\000"
 10895      6D5F315F 
 10895      696E7465 
 10895      72727570 
 10895      74735F31 
 10896              	.LASF853:
 10897 24a2 43595F42 		.ascii	"CY_BLE_EVT_BMSC_WRITE_CHAR_RESPONSE\000"
 10897      4C455F45 
 10897      56545F42 
 10897      4D53435F 
 10897      57524954 
 10898              	.LASF893:
 10899 24c6 43595F42 		.ascii	"CY_BLE_EVT_CSCSC_READ_DESCR_RESPONSE\000"
 10899      4C455F45 
 10899      56545F43 
 10899      53435343 
 10899      5F524541 
 10900              	.LASF542:
 10901 24eb 43595F42 		.ascii	"CY_BLE_GATT_UNKNOWN_PDU_IND\000"
 10901      4C455F47 
 10901      4154545F 
 10901      554E4B4E 
 10901      4F574E5F 
 10902              	.LASF1009:
 10903 2507 43595F42 		.ascii	"CY_BLE_EVT_PLXSC_INDICATION\000"
 10903      4C455F45 
 10903      56545F50 
 10903      4C585343 
 10903      5F494E44 
ARM GAS  C:\Users\salaz\AppData\Local\Temp\ccj0QfQu.s 			page 249


 10904              	.LASF45:
 10905 2523 4E766963 		.ascii	"NvicMux21_IRQn\000"
 10905      4D757832 
 10905      315F4952 
 10905      516E00
 10906              	.LASF362:
 10907 2532 43595F42 		.ascii	"CY_BLE_EVT_GET_RSSI_COMPLETE\000"
 10907      4C455F45 
 10907      56545F47 
 10907      45545F52 
 10907      5353495F 
 10908              	.LASF432:
 10909 254f 43595F42 		.ascii	"CY_BLE_EVT_L2CAP_CONN_PARAM_UPDATE_RSP\000"
 10909      4C455F45 
 10909      56545F4C 
 10909      32434150 
 10909      5F434F4E 
 10910              	.LASF1043:
 10911 2576 43595F42 		.ascii	"CY_BLE_EVT_UDSS_INDICATION_DISABLED\000"
 10911      4C455F45 
 10911      56545F55 
 10911      4453535F 
 10911      494E4449 
 10912              	.LASF934:
 10913 259a 43595F42 		.ascii	"CY_BLE_EVT_HIDSS_EXIT_SUSPEND\000"
 10913      4C455F45 
 10913      56545F48 
 10913      49445353 
 10913      5F455849 
 10914              	.LASF857:
 10915 25b8 43595F42 		.ascii	"CY_BLE_EVT_CGMSS_INDICATION_CONFIRMED\000"
 10915      4C455F45 
 10915      56545F43 
 10915      474D5353 
 10915      5F494E44 
 10916              	.LASF347:
 10917 25de 43595F42 		.ascii	"CY_BLE_EVT_SET_RPA_ENABLE_COMPLETE\000"
 10917      4C455F45 
 10917      56545F53 
 10917      45545F52 
 10917      50415F45 
 10918              	.LASF545:
 10919 2601 43595F42 		.ascii	"CY_BLE_GATT_ERR_INVALID_HANDLE\000"
 10919      4C455F47 
 10919      4154545F 
 10919      4552525F 
 10919      494E5641 
 10920              	.LASF276:
 10921 2620 544F4331 		.ascii	"TOC1_FHASH_OBJECTS\000"
 10921      5F464841 
 10921      53485F4F 
 10921      424A4543 
 10921      545300
 10922              	.LASF912:
 10923 2633 43595F42 		.ascii	"CY_BLE_EVT_ESSC_INDICATION\000"
 10923      4C455F45 
 10923      56545F45 
ARM GAS  C:\Users\salaz\AppData\Local\Temp\ccj0QfQu.s 			page 250


 10923      5353435F 
 10923      494E4449 
 10924              	.LASF987:
 10925 264e 43595F42 		.ascii	"CY_BLE_EVT_LNSS_NOTIFICATION_DISABLED\000"
 10925      4C455F45 
 10925      56545F4C 
 10925      4E53535F 
 10925      4E4F5449 
 10926              	.LASF202:
 10927 2674 7573625F 		.ascii	"usb_interrupt_med_IRQn\000"
 10927      696E7465 
 10927      72727570 
 10927      745F6D65 
 10927      645F4952 
 10928              	.LASF1061:
 10929 268b 43595F42 		.ascii	"CY_BLE_EVT_WPTSS_WRITE_CHAR\000"
 10929      4C455F45 
 10929      56545F57 
 10929      50545353 
 10929      5F575249 
 10930              	.LASF1139:
 10931 26a7 43795F42 		.ascii	"Cy_BLE_GATTS_WriteRsp\000"
 10931      4C455F47 
 10931      41545453 
 10931      5F577269 
 10931      74655273 
 10932              	.LASF835:
 10933 26bd 43595F42 		.ascii	"CY_BLE_EVT_BCSS_INDICATION_DISABLED\000"
 10933      4C455F45 
 10933      56545F42 
 10933      4353535F 
 10933      494E4449 
 10934              	.LASF408:
 10935 26e1 43595F42 		.ascii	"CY_BLE_EVT_GATT_DISCONNECT_IND\000"
 10935      4C455F45 
 10935      56545F47 
 10935      4154545F 
 10935      44495343 
 10936              	.LASF740:
 10937 2700 7065726D 		.ascii	"permission\000"
 10937      69737369 
 10937      6F6E00
 10938              	.LASF546:
 10939 270b 43595F42 		.ascii	"CY_BLE_GATT_ERR_READ_NOT_PERMITTED\000"
 10939      4C455F47 
 10939      4154545F 
 10939      4552525F 
 10939      52454144 
 10940              	.LASF1120:
 10941 272e 63795F62 		.ascii	"cy_ble_sflashDeviceAddress\000"
 10941      6C655F73 
 10941      666C6173 
 10941      68446576 
 10941      69636541 
 10942              	.LASF553:
 10943 2749 43595F42 		.ascii	"CY_BLE_GATT_ERR_PREPARE_WRITE_QUEUE_FULL\000"
 10943      4C455F47 
ARM GAS  C:\Users\salaz\AppData\Local\Temp\ccj0QfQu.s 			page 251


 10943      4154545F 
 10943      4552525F 
 10943      50524550 
 10944              	.LASF687:
 10945 2772 43595F42 		.ascii	"CY_BLE_ADV_STATE_ADVERTISING\000"
 10945      4C455F41 
 10945      44565F53 
 10945      54415445 
 10945      5F414456 
 10946              	.LASF549:
 10947 278f 43595F42 		.ascii	"CY_BLE_GATT_ERR_INSUFFICIENT_AUTHENTICATION\000"
 10947      4C455F47 
 10947      4154545F 
 10947      4552525F 
 10947      494E5355 
 10948              	.LASF413:
 10949 27bb 43595F42 		.ascii	"CY_BLE_EVT_GATTC_FIND_INFO_RSP\000"
 10949      4C455F45 
 10949      56545F47 
 10949      41545443 
 10949      5F46494E 
 10950              	.LASF38:
 10951 27da 4E766963 		.ascii	"NvicMux14_IRQn\000"
 10951      4D757831 
 10951      345F4952 
 10951      516E00
 10952              	.LASF111:
 10953 27e9 63707573 		.ascii	"cpuss_interrupts_dw0_3_IRQn\000"
 10953      735F696E 
 10953      74657272 
 10953      75707473 
 10953      5F647730 
 10954              	.LASF1119:
 10955 2805 63795F62 		.ascii	"cy_ble_eventHandlerFlag\000"
 10955      6C655F65 
 10955      76656E74 
 10955      48616E64 
 10955      6C657246 
 10956              	.LASF1133:
 10957 281d 63795F62 		.ascii	"cy_ble_configPtr\000"
 10957      6C655F63 
 10957      6F6E6669 
 10957      67507472 
 10957      00
 10958              	.LASF1078:
 10959 282e 43595F42 		.ascii	"CY_BLE_EVT_BTSS_WRITE_CMD_REQ\000"
 10959      4C455F45 
 10959      56545F42 
 10959      5453535F 
 10959      57524954 
 10960              	.LASF369:
 10961 284c 43595F42 		.ascii	"CY_BLE_EVT_AES_CCM_ENCRYPT_COMPLETE\000"
 10961      4C455F45 
 10961      56545F41 
 10961      45535F43 
 10961      434D5F45 
 10962              	.LASF775:
ARM GAS  C:\Users\salaz\AppData\Local\Temp\ccj0QfQu.s 			page 252


 10963 2870 64657669 		.ascii	"deviceAddress\000"
 10963      63654164 
 10963      64726573 
 10963      7300
 10964              	.LASF499:
 10965 287e 63795F73 		.ascii	"cy_stc_ble_conn_handle_t\000"
 10965      74635F62 
 10965      6C655F63 
 10965      6F6E6E5F 
 10965      68616E64 
 10966              	.LASF507:
 10967 2897 616C6C6F 		.ascii	"allocFree\000"
 10967      63467265 
 10967      6500
 10968              	.LASF739:
 10969 28a1 61747454 		.ascii	"attType\000"
 10969      79706500 
 10970              	.LASF1066:
 10971 28a9 43595F42 		.ascii	"CY_BLE_EVT_WPTSC_READ_DESCR_RESPONSE\000"
 10971      4C455F45 
 10971      56545F57 
 10971      50545343 
 10971      5F524541 
 10972              	.LASF597:
 10973 28ce 71756575 		.ascii	"queueBuffer\000"
 10973      65427566 
 10973      66657200 
 10974              	.LASF589:
 10975 28da 63795F73 		.ascii	"cy_stc_ble_gatt_xchg_mtu_param_t\000"
 10975      74635F62 
 10975      6C655F67 
 10975      6174745F 
 10975      78636867 
 10976              	.LASF509:
 10977 28fb 63795F73 		.ascii	"cy_stc_ble_memory_request_t\000"
 10977      74635F62 
 10977      6C655F6D 
 10977      656D6F72 
 10977      795F7265 
 10978              	.LASF411:
 10979 2917 43595F42 		.ascii	"CY_BLE_EVT_GATTC_READ_BY_GROUP_TYPE_RSP\000"
 10979      4C455F45 
 10979      56545F47 
 10979      41545443 
 10979      5F524541 
 10980              	.LASF653:
 10981 293f 7363616E 		.ascii	"scanFilterPolicy\000"
 10981      46696C74 
 10981      6572506F 
 10981      6C696379 
 10981      00
 10982              	.LASF1128:
 10983 2950 63795F62 		.ascii	"cy_ble_pendingFlashWrite\000"
 10983      6C655F70 
 10983      656E6469 
 10983      6E67466C 
 10983      61736857 
ARM GAS  C:\Users\salaz\AppData\Local\Temp\ccj0QfQu.s 			page 253


 10984              	.LASF1093:
 10985 2969 6576656E 		.ascii	"eventParam\000"
 10985      74506172 
 10985      616D00
 10986              	.LASF192:
 10987 2974 7564625F 		.ascii	"udb_interrupts_12_IRQn\000"
 10987      696E7465 
 10987      72727570 
 10987      74735F31 
 10987      325F4952 
 10988              	.LASF7:
 10989 298b 5F5F7569 		.ascii	"__uint16_t\000"
 10989      6E743136 
 10989      5F7400
 10990              	.LASF845:
 10991 2996 43595F42 		.ascii	"CY_BLE_EVT_BLSS_NOTIFICATION_DISABLED\000"
 10991      4C455F45 
 10991      56545F42 
 10991      4C53535F 
 10991      4E4F5449 
 10992              	.LASF763:
 10993 29bc 64697363 		.ascii	"discoveryModeInfo\000"
 10993      6F766572 
 10993      794D6F64 
 10993      65496E66 
 10993      6F00
 10994              	.LASF455:
 10995 29ce 43595F42 		.ascii	"CY_BLE_ERROR_GAP_ROLE\000"
 10995      4C455F45 
 10995      52524F52 
 10995      5F474150 
 10995      5F524F4C 
 10996              	.LASF638:
 10997 29e4 636F6E6E 		.ascii	"connLatency\000"
 10997      4C617465 
 10997      6E637900 
 10998              	.LASF1058:
 10999 29f0 43595F42 		.ascii	"CY_BLE_EVT_WPTSS_INDICATION_ENABLED\000"
 10999      4C455F45 
 10999      56545F57 
 10999      50545353 
 10999      5F494E44 
 11000              	.LASF903:
 11001 2a14 43595F42 		.ascii	"CY_BLE_EVT_DISC_READ_CHAR_RESPONSE\000"
 11001      4C455F45 
 11001      56545F44 
 11001      4953435F 
 11001      52454144 
 11002              	.LASF298:
 11003 2a37 544F4332 		.ascii	"TOC2_FIRST_USER_APP_FORMAT\000"
 11003      5F464952 
 11003      53545F55 
 11003      5345525F 
 11003      4150505F 
 11004              	.LASF458:
 11005 2a52 43595F42 		.ascii	"CY_BLE_ERROR_L2CAP_PSM_ALREADY_REGISTERED\000"
 11005      4C455F45 
ARM GAS  C:\Users\salaz\AppData\Local\Temp\ccj0QfQu.s 			page 254


 11005      52524F52 
 11005      5F4C3243 
 11005      41505F50 
 11006              	.LASF933:
 11007 2a7c 43595F42 		.ascii	"CY_BLE_EVT_HIDSS_SUSPEND\000"
 11007      4C455F45 
 11007      56545F48 
 11007      49445353 
 11007      5F535553 
 11008              	.LASF856:
 11009 2a95 43595F42 		.ascii	"CY_BLE_EVT_CGMSS_INDICATION_DISABLED\000"
 11009      4C455F45 
 11009      56545F43 
 11009      474D5353 
 11009      5F494E44 
 11010              	.LASF691:
 11011 2aba 43595F42 		.ascii	"CY_BLE_CONN_STATE_CLIENT_DISCONNECTED_DISCOVERED\000"
 11011      4C455F43 
 11011      4F4E4E5F 
 11011      53544154 
 11011      455F434C 
 11012              	.LASF955:
 11013 2aeb 43595F42 		.ascii	"CY_BLE_EVT_HRSC_READ_DESCR_RESPONSE\000"
 11013      4C455F45 
 11013      56545F48 
 11013      5253435F 
 11013      52454144 
 11014              	.LASF1067:
 11015 2b0f 43595F42 		.ascii	"CY_BLE_EVT_WPTSC_WRITE_DESCR_RESPONSE\000"
 11015      4C455F45 
 11015      56545F57 
 11015      50545343 
 11015      5F575249 
 11016              	.LASF239:
 11017 2b35 5354414E 		.ascii	"STANDARD_SMPU_STRUCT_SLAVE_ATTR\000"
 11017      44415244 
 11017      5F534D50 
 11017      555F5354 
 11017      52554354 
 11018              	.LASF821:
 11019 2b55 43595F42 		.ascii	"CY_BLE_EVT_ANSS_NOTIFICATION_DISABLED\000"
 11019      4C455F45 
 11019      56545F41 
 11019      4E53535F 
 11019      4E4F5449 
 11020              	.LASF655:
 11021 2b7b 66696C74 		.ascii	"filterDuplicates\000"
 11021      65724475 
 11021      706C6963 
 11021      61746573 
 11021      00
 11022              	.LASF403:
 11023 2b8c 43595F42 		.ascii	"CY_BLE_EVT_GAP_CONN_ESTB\000"
 11023      4C455F45 
 11023      56545F47 
 11023      41505F43 
 11023      4F4E4E5F 
ARM GAS  C:\Users\salaz\AppData\Local\Temp\ccj0QfQu.s 			page 255


 11024              	.LASF254:
 11025 2ba5 43505553 		.ascii	"CPUSS_TRIM_ROM_CTL_LP\000"
 11025      535F5452 
 11025      494D5F52 
 11025      4F4D5F43 
 11025      544C5F4C 
 11026              	.LASF772:
 11027 2bbb 61757468 		.ascii	"authInfo\000"
 11027      496E666F 
 11027      00
 11028              	.LASF726:
 11029 2bc4 63795F73 		.ascii	"cy_stc_ble_gatts_write_cmd_req_param_t\000"
 11029      74635F62 
 11029      6C655F67 
 11029      61747473 
 11029      5F777269 
 11030              	.LASF407:
 11031 2beb 43595F42 		.ascii	"CY_BLE_EVT_GATT_CONNECT_IND\000"
 11031      4C455F45 
 11031      56545F47 
 11031      4154545F 
 11031      434F4E4E 
 11032              	.LASF743:
 11033 2c07 63795F73 		.ascii	"cy_stc_ble_gatts_db_t\000"
 11033      74635F62 
 11033      6C655F67 
 11033      61747473 
 11033      5F64625F 
 11034              	.LASF67:
 11035 2c1d 696F7373 		.ascii	"ioss_interrupts_gpio_9_IRQn\000"
 11035      5F696E74 
 11035      65727275 
 11035      7074735F 
 11035      6770696F 
 11036              	.LASF281:
 11037 2c39 544F4331 		.ascii	"TOC1_BOOT_PROTECTION_ADDR\000"
 11037      5F424F4F 
 11037      545F5052 
 11037      4F544543 
 11037      54494F4E 
 11038              	.LASF697:
 11039 2c53 43595F42 		.ascii	"CY_BLE_CONN_STATE_CLIENT_DISCOVERED\000"
 11039      4C455F43 
 11039      4F4E4E5F 
 11039      53544154 
 11039      455F434C 
 11040              	.LASF168:
 11041 2c77 74637077 		.ascii	"tcpwm_1_interrupts_12_IRQn\000"
 11041      6D5F315F 
 11041      696E7465 
 11041      72727570 
 11041      74735F31 
 11042              	.LASF504:
 11043 2c92 63795F73 		.ascii	"cy_stc_ble_tx_pwr_lvl_info_t\000"
 11043      74635F62 
 11043      6C655F74 
 11043      785F7077 
ARM GAS  C:\Users\salaz\AppData\Local\Temp\ccj0QfQu.s 			page 256


 11043      725F6C76 
 11044              	.LASF386:
 11045 2caf 43595F42 		.ascii	"CY_BLE_EVT_GAP_DEVICE_CONNECTED\000"
 11045      4C455F45 
 11045      56545F47 
 11045      41505F44 
 11045      45564943 
 11046              	.LASF822:
 11047 2ccf 43595F42 		.ascii	"CY_BLE_EVT_ANSS_WRITE_CHAR\000"
 11047      4C455F45 
 11047      56545F41 
 11047      4E53535F 
 11047      57524954 
 11048              	.LASF976:
 11049 2cea 43595F42 		.ascii	"CY_BLE_EVT_IPSC_READ_DESCR_RESPONSE\000"
 11049      4C455F45 
 11049      56545F49 
 11049      5053435F 
 11049      52454144 
 11050              	.LASF295:
 11051 2d0e 544F4332 		.ascii	"TOC2_KEY_BLOCK_ADDR\000"
 11051      5F4B4559 
 11051      5F424C4F 
 11051      434B5F41 
 11051      44445200 
 11052              	.LASF748:
 11053 2d22 63795F73 		.ascii	"cy_stc_ble_l2cap_state_info_t\000"
 11053      74635F62 
 11053      6C655F6C 
 11053      32636170 
 11053      5F737461 
 11054              	.LASF750:
 11055 2d40 5F426F6F 		.ascii	"_Bool\000"
 11055      6C00
 11056              	.LASF318:
 11057 2d46 52544F43 		.ascii	"RTOC2_CRC_ADDR\000"
 11057      325F4352 
 11057      435F4144 
 11057      445200
 11058              	.LASF717:
 11059 2d55 736C6F77 		.ascii	"slowScanEnabled\000"
 11059      5363616E 
 11059      456E6162 
 11059      6C656400 
 11060              	.LASF1010:
 11061 2d65 43595F42 		.ascii	"CY_BLE_EVT_PLXSC_NOTIFICATION\000"
 11061      4C455F45 
 11061      56545F50 
 11061      4C585343 
 11061      5F4E4F54 
 11062              	.LASF703:
 11063 2d83 63656E74 		.ascii	"centralAddrResolutionCharHandle\000"
 11063      72616C41 
 11063      64647252 
 11063      65736F6C 
 11063      7574696F 
 11064              	.LASF82:
ARM GAS  C:\Users\salaz\AppData\Local\Temp\ccj0QfQu.s 			page 257


 11065 2da3 626C6573 		.ascii	"bless_interrupt_IRQn\000"
 11065      735F696E 
 11065      74657272 
 11065      7570745F 
 11065      4952516E 
 11066              	.LASF97:
 11067 2db8 63707573 		.ascii	"cpuss_interrupts_ipc_14_IRQn\000"
 11067      735F696E 
 11067      74657272 
 11067      75707473 
 11067      5F697063 
 11068              	.LASF514:
 11069 2dd5 43595F42 		.ascii	"CY_BLE_GATT_ERROR_RSP\000"
 11069      4C455F47 
 11069      4154545F 
 11069      4552524F 
 11069      525F5253 
 11070              	.LASF908:
 11071 2deb 43595F42 		.ascii	"CY_BLE_EVT_ESSS_INDICATION_CONFIRMATION\000"
 11071      4C455F45 
 11071      56545F45 
 11071      5353535F 
 11071      494E4449 
 11072              	.LASF302:
 11073 2e13 544F4332 		.ascii	"TOC2_SIGNATURE_VERIF_KEY\000"
 11073      5F534947 
 11073      4E415455 
 11073      52455F56 
 11073      45524946 
 11074              	.LASF897:
 11075 2e2c 43595F42 		.ascii	"CY_BLE_EVT_CTSS_WRITE_CHAR\000"
 11075      4C455F45 
 11075      56545F43 
 11075      5453535F 
 11075      57524954 
 11076              	.LASF430:
 11077 2e47 43595F42 		.ascii	"CY_BLE_EVT_GATTC_LONG_PROCEDURE_END\000"
 11077      4C455F45 
 11077      56545F47 
 11077      41545443 
 11077      5F4C4F4E 
 11078              	.LASF1141:
 11079 2e6b 6D656D63 		.ascii	"memcpy\000"
 11079      707900
 11080              	.LASF949:
 11081 2e72 43595F42 		.ascii	"CY_BLE_EVT_HRSS_ENERGY_EXPENDED_RESET\000"
 11081      4C455F45 
 11081      56545F48 
 11081      5253535F 
 11081      454E4552 
 11082              	.LASF733:
 11083 2e98 61747447 		.ascii	"attGenericValLen\000"
 11083      656E6572 
 11083      69635661 
 11083      6C4C656E 
 11083      00
 11084              	.LASF363:
ARM GAS  C:\Users\salaz\AppData\Local\Temp\ccj0QfQu.s 			page 258


 11085 2ea9 43595F42 		.ascii	"CY_BLE_EVT_GET_TX_PWR_COMPLETE\000"
 11085      4C455F45 
 11085      56545F47 
 11085      45545F54 
 11085      585F5057 
 11086              	.LASF917:
 11087 2ec8 43595F42 		.ascii	"CY_BLE_EVT_GLSS_INDICATION_ENABLED\000"
 11087      4C455F45 
 11087      56545F47 
 11087      4C53535F 
 11087      494E4449 
 11088              	.LASF414:
 11089 2eeb 43595F42 		.ascii	"CY_BLE_EVT_GATTC_FIND_BY_TYPE_VALUE_RSP\000"
 11089      4C455F45 
 11089      56545F47 
 11089      41545443 
 11089      5F46494E 
 11090              	.LASF35:
 11091 2f13 4E766963 		.ascii	"NvicMux11_IRQn\000"
 11091      4D757831 
 11091      315F4952 
 11091      516E00
 11092              	.LASF257:
 11093 2f22 43505553 		.ascii	"CPUSS_TRIM_ROM_CTL_HALF_ULP\000"
 11093      535F5452 
 11093      494D5F52 
 11093      4F4D5F43 
 11093      544C5F48 
 11094              	.LASF795:
 11095 2f3e 43595F42 		.ascii	"CY_BLE_EVT_GATTC_CHAR_DISCOVERY_COMPLETE\000"
 11095      4C455F45 
 11095      56545F47 
 11095      41545443 
 11095      5F434841 
 11096              	.LASF108:
 11097 2f67 63707573 		.ascii	"cpuss_interrupts_dw0_0_IRQn\000"
 11097      735F696E 
 11097      74657272 
 11097      75707473 
 11097      5F647730 
 11098              	.LASF208:
 11099 2f83 53495F52 		.ascii	"SI_REVISION_ID\000"
 11099      45564953 
 11099      494F4E5F 
 11099      494400
 11100              	.LASF574:
 11101 2f92 43595F42 		.ascii	"CY_BLE_GATT_ERR_ANS_COMMAND_NOT_SUPPORTED\000"
 11101      4C455F47 
 11101      4154545F 
 11101      4552525F 
 11101      414E535F 
 11102              	.LASF486:
 11103 2fbc 43595F42 		.ascii	"CY_BLE_LL_CONN_CH_TYPE\000"
 11103      4C455F4C 
 11103      4C5F434F 
 11103      4E4E5F43 
 11103      485F5459 
ARM GAS  C:\Users\salaz\AppData\Local\Temp\ccj0QfQu.s 			page 259


 11104              	.LASF236:
 11105 2fd3 44455649 		.ascii	"DEVICE_UID\000"
 11105      43455F55 
 11105      494400
 11106              	.LASF123:
 11107 2fde 63707573 		.ascii	"cpuss_interrupts_dw0_15_IRQn\000"
 11107      735F696E 
 11107      74657272 
 11107      75707473 
 11107      5F647730 
 11108              	.LASF209:
 11109 2ffb 53494C49 		.ascii	"SILICON_ID\000"
 11109      434F4E5F 
 11109      494400
 11110              	.LASF155:
 11111 3006 74637077 		.ascii	"tcpwm_0_interrupts_7_IRQn\000"
 11111      6D5F305F 
 11111      696E7465 
 11111      72727570 
 11111      74735F37 
 11112              	.LASF78:
 11113 3020 73727373 		.ascii	"srss_interrupt_mcwdt_1_IRQn\000"
 11113      5F696E74 
 11113      65727275 
 11113      70745F6D 
 11113      63776474 
 11114              	.LASF140:
 11115 303c 63707573 		.ascii	"cpuss_interrupts_fault_0_IRQn\000"
 11115      735F696E 
 11115      74657272 
 11115      75707473 
 11115      5F666175 
 11116              	.LASF1038:
 11117 305a 43595F42 		.ascii	"CY_BLE_EVT_TPSC_NOTIFICATION\000"
 11117      4C455F45 
 11117      56545F54 
 11117      5053435F 
 11117      4E4F5449 
 11118              	.LASF1123:
 11119 3077 63795F62 		.ascii	"cy_ble_advIndex\000"
 11119      6C655F61 
 11119      6476496E 
 11119      64657800 
 11120              	.LASF1094:
 11121 3087 67617474 		.ascii	"gattErr\000"
 11121      45727200 
 11122              	.LASF685:
 11123 308f 43595F42 		.ascii	"CY_BLE_ADV_STATE_STOPPED\000"
 11123      4C455F41 
 11123      44565F53 
 11123      54415445 
 11123      5F53544F 
 11124              	.LASF293:
 11125 30a8 544F4332 		.ascii	"TOC2_OBJECT_SIZE\000"
 11125      5F4F424A 
 11125      4543545F 
 11125      53495A45 
ARM GAS  C:\Users\salaz\AppData\Local\Temp\ccj0QfQu.s 			page 260


 11125      00
 11126              	.LASF409:
 11127 30b9 43595F42 		.ascii	"CY_BLE_EVT_GATTS_XCNHG_MTU_REQ\000"
 11127      4C455F45 
 11127      56545F47 
 11127      41545453 
 11127      5F58434E 
 11128              	.LASF398:
 11129 30d8 43595F42 		.ascii	"CY_BLE_EVT_GAP_DEVICE_ADDR_GEN_COMPLETE\000"
 11129      4C455F45 
 11129      56545F47 
 11129      41505F44 
 11129      45564943 
 11130              	.LASF875:
 11131 3100 43595F42 		.ascii	"CY_BLE_EVT_CPSC_NOTIFICATION\000"
 11131      4C455F45 
 11131      56545F43 
 11131      5053435F 
 11131      4E4F5449 
 11132              	.LASF761:
 11133 311d 67617474 		.ascii	"gattDbIndexCount\000"
 11133      4462496E 
 11133      64657843 
 11133      6F756E74 
 11133      00
 11134              	.LASF729:
 11135 312e 61637475 		.ascii	"actualLength\000"
 11135      616C4C65 
 11135      6E677468 
 11135      00
 11136              	.LASF993:
 11137 313b 43595F42 		.ascii	"CY_BLE_EVT_LNSC_READ_DESCR_RESPONSE\000"
 11137      4C455F45 
 11137      56545F4C 
 11137      4E53435F 
 11137      52454144 
 11138              	.LASF731:
 11139 315f 63795F73 		.ascii	"cy_stc_ble_gatts_att_gen_val_len_t\000"
 11139      74635F62 
 11139      6C655F67 
 11139      61747473 
 11139      5F617474 
 11140              	.LASF1004:
 11141 3182 43595F42 		.ascii	"CY_BLE_EVT_PLXSS_INDICATION_DISABLED\000"
 11141      4C455F45 
 11141      56545F50 
 11141      4C585353 
 11141      5F494E44 
 11142              	.LASF964:
 11143 31a7 43595F42 		.ascii	"CY_BLE_EVT_HTSC_INDICATION\000"
 11143      4C455F45 
 11143      56545F48 
 11143      5453435F 
 11143      494E4449 
 11144              	.LASF481:
 11145 31c2 43595F42 		.ascii	"CY_BLE_LL_PWR_LVL_NEG_6_DBM\000"
 11145      4C455F4C 
ARM GAS  C:\Users\salaz\AppData\Local\Temp\ccj0QfQu.s 			page 261


 11145      4C5F5057 
 11145      525F4C56 
 11145      4C5F4E45 
 11146              	.LASF417:
 11147 31de 43595F42 		.ascii	"CY_BLE_EVT_GATTC_READ_MULTI_RSP\000"
 11147      4C455F45 
 11147      56545F47 
 11147      41545443 
 11147      5F524541 
 11148              	.LASF979:
 11149 31fe 43595F42 		.ascii	"CY_BLE_EVT_IPSC_READ_BLOB_RSP\000"
 11149      4C455F45 
 11149      56545F49 
 11149      5053435F 
 11149      52454144 
 11150              	.LASF1029:
 11151 321c 43595F42 		.ascii	"CY_BLE_EVT_RTUSC_READ_CHAR_RESPONSE\000"
 11151      4C455F45 
 11151      56545F52 
 11151      54555343 
 11151      5F524541 
 11152              	.LASF457:
 11153 3240 43595F42 		.ascii	"CY_BLE_ERROR_L2CAP_PSM_WRONG_ENCODING\000"
 11153      4C455F45 
 11153      52524F52 
 11153      5F4C3243 
 11153      41505F50 
 11154              	.LASF643:
 11155 3266 70656572 		.ascii	"peerResolvablePvtAddr\000"
 11155      5265736F 
 11155      6C766162 
 11155      6C655076 
 11155      74416464 
 11156              	.LASF278:
 11157 327c 544F4331 		.ascii	"TOC1_UNIQUE_ID_ADDR\000"
 11157      5F554E49 
 11157      5155455F 
 11157      49445F41 
 11157      44445200 
 11158              	.LASF448:
 11159 3290 43595F42 		.ascii	"CY_BLE_ERROR_MEMORY_ALLOCATION_FAILED\000"
 11159      4C455F45 
 11159      52524F52 
 11159      5F4D454D 
 11159      4F52595F 
 11160              	.LASF684:
 11161 32b6 63795F65 		.ascii	"cy_en_ble_state_t\000"
 11161      6E5F626C 
 11161      655F7374 
 11161      6174655F 
 11161      7400
 11162              	.LASF898:
 11163 32c8 43595F42 		.ascii	"CY_BLE_EVT_CTSC_NOTIFICATION\000"
 11163      4C455F45 
 11163      56545F43 
 11163      5453435F 
 11163      4E4F5449 
ARM GAS  C:\Users\salaz\AppData\Local\Temp\ccj0QfQu.s 			page 262


 11164              	.LASF214:
 11165 32e5 4449455F 		.ascii	"DIE_WAFER\000"
 11165      57414645 
 11165      5200
 11166              	.LASF64:
 11167 32ef 696F7373 		.ascii	"ioss_interrupts_gpio_6_IRQn\000"
 11167      5F696E74 
 11167      65727275 
 11167      7074735F 
 11167      6770696F 
 11168              	.LASF941:
 11169 330b 43595F42 		.ascii	"CY_BLE_EVT_HPSS_NOTIFICATION_ENABLED\000"
 11169      4C455F45 
 11169      56545F48 
 11169      5053535F 
 11169      4E4F5449 
 11170              	.LASF718:
 11171 3330 736C6F77 		.ascii	"slowScanInterval\000"
 11171      5363616E 
 11171      496E7465 
 11171      7276616C 
 11171      00
 11172              	.LASF33:
 11173 3341 4E766963 		.ascii	"NvicMux9_IRQn\000"
 11173      4D757839 
 11173      5F495251 
 11173      6E00
 11174              	.LASF661:
 11175 334f 43595F42 		.ascii	"CY_BLE_GAPP_CONNECTABLE_LOW_DC_DIRECTED_ADV\000"
 11175      4C455F47 
 11175      4150505F 
 11175      434F4E4E 
 11175      45435441 
 11176              	.LASF405:
 11177 337b 43595F42 		.ascii	"CY_BLE_EVT_GAP_ADV_TX\000"
 11177      4C455F45 
 11177      56545F47 
 11177      41505F41 
 11177      44565F54 
 11178              	.LASF272:
 11179 3391 424F4F54 		.ascii	"BOOT_PROT_SETTINGS\000"
 11179      5F50524F 
 11179      545F5345 
 11179      5454494E 
 11179      475300
 11180              	.LASF559:
 11181 33a4 43595F42 		.ascii	"CY_BLE_GATT_ERR_INSUFFICIENT_ENCRYPTION\000"
 11181      4C455F47 
 11181      4154545F 
 11181      4552525F 
 11181      494E5355 
 11182              	.LASF600:
 11183 33cc 63795F73 		.ascii	"cy_stc_ble_prepare_write_request_memory_t\000"
 11183      74635F62 
 11183      6C655F70 
 11183      72657061 
 11183      72655F77 
ARM GAS  C:\Users\salaz\AppData\Local\Temp\ccj0QfQu.s 			page 263


 11184              	.LASF736:
 11185 33f6 61747456 		.ascii	"attValueUuid\000"
 11185      616C7565 
 11185      55756964 
 11185      00
 11186              	.LASF497:
 11187 3403 62644861 		.ascii	"bdHandle\000"
 11187      6E646C65 
 11187      00
 11188              	.LASF94:
 11189 340c 63707573 		.ascii	"cpuss_interrupts_ipc_11_IRQn\000"
 11189      735F696E 
 11189      74657272 
 11189      75707473 
 11189      5F697063 
 11190              	.LASF164:
 11191 3429 74637077 		.ascii	"tcpwm_1_interrupts_8_IRQn\000"
 11191      6D5F315F 
 11191      696E7465 
 11191      72727570 
 11191      74735F38 
 11192              	.LASF705:
 11193 3443 63795F73 		.ascii	"cy_stc_ble_gaps_t\000"
 11193      74635F62 
 11193      6C655F67 
 11193      6170735F 
 11193      7400
 11194              	.LASF1095:
 11195 3455 6576656E 		.ascii	"eventHandlerFunc\000"
 11195      7448616E 
 11195      646C6572 
 11195      46756E63 
 11195      00
 11196              	.LASF1151:
 11197 3466 43795F42 		.ascii	"Cy_BLE_UnregisterHostPMCallbacks\000"
 11197      4C455F55 
 11197      6E726567 
 11197      69737465 
 11197      72486F73 
 11198              	.LASF713:
 11199 3487 63795F73 		.ascii	"cy_stc_ble_gapp_adv_params_t\000"
 11199      74635F62 
 11199      6C655F67 
 11199      6170705F 
 11199      6164765F 
 11200              	.LASF1047:
 11201 34a4 43595F42 		.ascii	"CY_BLE_EVT_UDSS_READ_CHAR\000"
 11201      4C455F45 
 11201      56545F55 
 11201      4453535F 
 11201      52454144 
 11202              	.LASF919:
 11203 34be 43595F42 		.ascii	"CY_BLE_EVT_GLSS_INDICATION_CONFIRMED\000"
 11203      4C455F45 
 11203      56545F47 
 11203      4C53535F 
 11203      494E4449 
ARM GAS  C:\Users\salaz\AppData\Local\Temp\ccj0QfQu.s 			page 264


 11204              	.LASF1102:
 11205 34e3 43795F42 		.ascii	"Cy_BLE_IsDeviceAddressValid\000"
 11205      4C455F49 
 11205      73446576 
 11205      69636541 
 11205      64647265 
 11206              	.LASF911:
 11207 34ff 43595F42 		.ascii	"CY_BLE_EVT_ESSC_NOTIFICATION\000"
 11207      4C455F45 
 11207      56545F45 
 11207      5353435F 
 11207      4E4F5449 
 11208              	.LASF924:
 11209 351c 43595F42 		.ascii	"CY_BLE_EVT_GLSC_NOTIFICATION\000"
 11209      4C455F45 
 11209      56545F47 
 11209      4C53435F 
 11209      4E4F5449 
 11210              	.LASF969:
 11211 3539 43595F42 		.ascii	"CY_BLE_EVT_IASS_WRITE_CHAR_CMD\000"
 11211      4C455F45 
 11211      56545F49 
 11211      4153535F 
 11211      57524954 
 11212              	.LASF1044:
 11213 3558 43595F42 		.ascii	"CY_BLE_EVT_UDSS_INDICATION_CONFIRMED\000"
 11213      4C455F45 
 11213      56545F55 
 11213      4453535F 
 11213      494E4449 
 11214              	.LASF999:
 11215 357d 43595F42 		.ascii	"CY_BLE_EVT_PASSC_NOTIFICATION\000"
 11215      4C455F45 
 11215      56545F50 
 11215      41535343 
 11215      5F4E4F54 
 11216              	.LASF766:
 11217 359b 67617063 		.ascii	"gapcScanParams\000"
 11217      5363616E 
 11217      50617261 
 11217      6D7300
 11218              	.LASF1100:
 11219 35aa 43795F42 		.ascii	"Cy_BLE_InvokeServiceEventHandler\000"
 11219      4C455F49 
 11219      6E766F6B 
 11219      65536572 
 11219      76696365 
 11220              	.LASF220:
 11221 35cb 4449455F 		.ascii	"DIE_MONTH\000"
 11221      4D4F4E54 
 11221      4800
 11222              	.LASF330:
 11223 35d5 43595F42 		.ascii	"CY_BLE_EVT_STACK_BUSY_STATUS\000"
 11223      4C455F45 
 11223      56545F53 
 11223      5441434B 
 11223      5F425553 
ARM GAS  C:\Users\salaz\AppData\Local\Temp\ccj0QfQu.s 			page 265


 11224              	.LASF950:
 11225 35f2 43595F42 		.ascii	"CY_BLE_EVT_HRSS_NOTIFICATION_ENABLED\000"
 11225      4C455F45 
 11225      56545F48 
 11225      5253535F 
 11225      4E4F5449 
 11226              	.LASF238:
 11227 3617 5354414E 		.ascii	"STANDARD_SMPU_STRUCT_SLAVE_ADDR\000"
 11227      44415244 
 11227      5F534D50 
 11227      555F5354 
 11227      52554354 
 11228              	.LASF1108:
 11229 3637 65765061 		.ascii	"evParam\000"
 11229      72616D00 
 11230              	.LASF336:
 11231 363f 43595F42 		.ascii	"CY_BLE_EVT_READ_AUTH_PAYLOAD_TO_COMPLETE\000"
 11231      4C455F45 
 11231      56545F52 
 11231      4541445F 
 11231      41555448 
 11232              	.LASF289:
 11233 3668 52544F43 		.ascii	"RTOC1_FB_OBJECT_ADDR\000"
 11233      315F4642 
 11233      5F4F424A 
 11233      4543545F 
 11233      41444452 
 11234              	.LASF351:
 11235 367d 43595F42 		.ascii	"CY_BLE_EVT_ADD_DEVICE_TO_WHITE_LIST_COMPLETE\000"
 11235      4C455F45 
 11235      56545F41 
 11235      44445F44 
 11235      45564943 
 11236              	.LASF725:
 11237 36aa 63795F73 		.ascii	"cy_stc_ble_gapc_scan_params_t\000"
 11237      74635F62 
 11237      6C655F67 
 11237      6170635F 
 11237      7363616E 
 11238              	.LASF465:
 11239 36c8 43595F42 		.ascii	"CY_BLE_ERROR_MIC_AUTH_FAILED\000"
 11239      4C455F45 
 11239      52524F52 
 11239      5F4D4943 
 11239      5F415554 
 11240              	.LASF1158:
 11241 36e5 43795F42 		.ascii	"Cy_BLE_SendWriteResponse\000"
 11241      4C455F53 
 11241      656E6457 
 11241      72697465 
 11241      52657370 
 11242              	.LASF1086:
 11243 36fe 63795F62 		.ascii	"cy_ble_event_handle_t\000"
 11243      6C655F65 
 11243      76656E74 
 11243      5F68616E 
 11243      646C655F 
ARM GAS  C:\Users\salaz\AppData\Local\Temp\ccj0QfQu.s 			page 266


 11244              	.LASF120:
 11245 3714 63707573 		.ascii	"cpuss_interrupts_dw0_12_IRQn\000"
 11245      735F696E 
 11245      74657272 
 11245      75707473 
 11245      5F647730 
 11246              	.LASF860:
 11247 3731 43595F42 		.ascii	"CY_BLE_EVT_CGMSS_WRITE_CHAR\000"
 11247      4C455F45 
 11247      56545F43 
 11247      474D5353 
 11247      5F575249 
 11248              	.LASF560:
 11249 374d 43595F42 		.ascii	"CY_BLE_GATT_ERR_UNSUPPORTED_GROUP_TYPE\000"
 11249      4C455F47 
 11249      4154545F 
 11249      4552525F 
 11249      554E5355 
 11250              	.LASF519:
 11251 3774 43595F42 		.ascii	"CY_BLE_GATT_FIND_BY_TYPE_VALUE_REQ\000"
 11251      4C455F47 
 11251      4154545F 
 11251      46494E44 
 11251      5F42595F 
 11252              	.LASF152:
 11253 3797 74637077 		.ascii	"tcpwm_0_interrupts_4_IRQn\000"
 11253      6D5F305F 
 11253      696E7465 
 11253      72727570 
 11253      74735F34 
 11254              	.LASF345:
 11255 37b1 43595F42 		.ascii	"CY_BLE_EVT_GET_LOCAL_RPA_COMPLETE\000"
 11255      4C455F45 
 11255      56545F47 
 11255      45545F4C 
 11255      4F43414C 
 11256              	.LASF412:
 11257 37d3 43595F42 		.ascii	"CY_BLE_EVT_GATTC_READ_BY_TYPE_RSP\000"
 11257      4C455F45 
 11257      56545F47 
 11257      41545443 
 11257      5F524541 
 11258              	.LASF881:
 11259 37f5 43595F42 		.ascii	"CY_BLE_EVT_CPSC_SCAN_PROGRESS_RESULT\000"
 11259      4C455F45 
 11259      56545F43 
 11259      5053435F 
 11259      5343414E 
 11260              	.LASF1113:
 11261 381a 67507265 		.ascii	"gPrepWriteReqMem\000"
 11261      70577269 
 11261      74655265 
 11261      714D656D 
 11261      00
 11262              	.LASF433:
 11263 382b 43595F42 		.ascii	"CY_BLE_EVT_L2CAP_COMMAND_REJ\000"
 11263      4C455F45 
ARM GAS  C:\Users\salaz\AppData\Local\Temp\ccj0QfQu.s 			page 267


 11263      56545F4C 
 11263      32434150 
 11263      5F434F4D 
 11264              	.LASF107:
 11265 3848 6373645F 		.ascii	"csd_interrupt_IRQn\000"
 11265      696E7465 
 11265      72727570 
 11265      745F4952 
 11265      516E00
 11266              	.LASF187:
 11267 385b 7564625F 		.ascii	"udb_interrupts_7_IRQn\000"
 11267      696E7465 
 11267      72727570 
 11267      74735F37 
 11267      5F495251 
 11268              	.LASF652:
 11269 3871 6F776E41 		.ascii	"ownAddrType\000"
 11269      64647254 
 11269      79706500 
 11270              	.LASF75:
 11271 387d 6C70636F 		.ascii	"lpcomp_interrupt_IRQn\000"
 11271      6D705F69 
 11271      6E746572 
 11271      72757074 
 11271      5F495251 
 11272              	.LASF632:
 11273 3893 626F6E64 		.ascii	"bonding\000"
 11273      696E6700 
 11274              	.LASF415:
 11275 389b 43595F42 		.ascii	"CY_BLE_EVT_GATTC_READ_RSP\000"
 11275      4C455F45 
 11275      56545F47 
 11275      41545443 
 11275      5F524541 
 11276              	.LASF756:
 11277 38b5 7478506F 		.ascii	"txPowerLevelAdv\000"
 11277      7765724C 
 11277      6576656C 
 11277      41647600 
 11278              	.LASF1057:
 11279 38c5 43595F42 		.ascii	"CY_BLE_EVT_WPTSS_NOTIFICATION_DISABLED\000"
 11279      4C455F45 
 11279      56545F57 
 11279      50545353 
 11279      5F4E4F54 
 11280              	.LASF577:
 11281 38ec 43595F42 		.ascii	"CY_BLE_GATT_ERR_ANCS_INVALID_PARAMETER\000"
 11281      4C455F47 
 11281      4154545F 
 11281      4552525F 
 11281      414E4353 
 11282              	.LASF1003:
 11283 3913 43595F42 		.ascii	"CY_BLE_EVT_PLXSS_INDICATION_ENABLED\000"
 11283      4C455F45 
 11283      56545F50 
 11283      4C585353 
 11283      5F494E44 
ARM GAS  C:\Users\salaz\AppData\Local\Temp\ccj0QfQu.s 			page 268


 11284              	.LASF356:
 11285 3937 43595F42 		.ascii	"CY_BLE_EVT_PHY_UPDATE_COMPLETE\000"
 11285      4C455F45 
 11285      56545F50 
 11285      48595F55 
 11285      50444154 
 11286              	.LASF133:
 11287 3956 63707573 		.ascii	"cpuss_interrupts_dw1_9_IRQn\000"
 11287      735F696E 
 11287      74657272 
 11287      75707473 
 11287      5F647731 
 11288              	.LASF484:
 11289 3972 63795F65 		.ascii	"cy_en_ble_bless_pwr_lvl_t\000"
 11289      6E5F626C 
 11289      655F626C 
 11289      6573735F 
 11289      7077725F 
 11290              	.LASF8:
 11291 398c 73686F72 		.ascii	"short unsigned int\000"
 11291      7420756E 
 11291      7369676E 
 11291      65642069 
 11291      6E7400
 11292              	.LASF353:
 11293 399f 43595F42 		.ascii	"CY_BLE_EVT_GET_PHY_COMPLETE\000"
 11293      4C455F45 
 11293      56545F47 
 11293      45545F50 
 11293      48595F43 
 11294              	.LASF1096:
 11295 39bb 6572725F 		.ascii	"err_param\000"
 11295      70617261 
 11295      6D00
 11296              	.LASF466:
 11297 39c5 43595F42 		.ascii	"CY_BLE_ERROR_HARDWARE_FAILURE\000"
 11297      4C455F45 
 11297      52524F52 
 11297      5F484152 
 11297      44574152 
 11298              	.LASF357:
 11299 39e3 43595F42 		.ascii	"CY_BLE_EVT_SET_PRIVACY_MODE_COMPLETE\000"
 11299      4C455F45 
 11299      56545F53 
 11299      45545F50 
 11299      52495641 
 11300              	.LASF1042:
 11301 3a08 43595F42 		.ascii	"CY_BLE_EVT_UDSS_INDICATION_ENABLED\000"
 11301      4C455F45 
 11301      56545F55 
 11301      4453535F 
 11301      494E4449 
 11302              	.LASF590:
 11303 3a2b 68616E64 		.ascii	"handleValPair\000"
 11303      6C655661 
 11303      6C506169 
 11303      7200
ARM GAS  C:\Users\salaz\AppData\Local\Temp\ccj0QfQu.s 			page 269


 11304              	.LASF906:
 11305 3a39 43595F42 		.ascii	"CY_BLE_EVT_ESSS_INDICATION_ENABLED\000"
 11305      4C455F45 
 11305      56545F45 
 11305      5353535F 
 11305      494E4449 
 11306              	.LASF210:
 11307 3a5c 52455345 		.ascii	"RESERVED1\000"
 11307      52564544 
 11307      3100
 11308              	.LASF212:
 11309 3a66 52455345 		.ascii	"RESERVED2\000"
 11309      52564544 
 11309      3200
 11310              	.LASF222:
 11311 3a70 52455345 		.ascii	"RESERVED3\000"
 11311      52564544 
 11311      3300
 11312              	.LASF225:
 11313 3a7a 52455345 		.ascii	"RESERVED4\000"
 11313      52564544 
 11313      3400
 11314              	.LASF227:
 11315 3a84 52455345 		.ascii	"RESERVED5\000"
 11315      52564544 
 11315      3500
 11316              	.LASF230:
 11317 3a8e 52455345 		.ascii	"RESERVED6\000"
 11317      52564544 
 11317      3600
 11318              	.LASF235:
 11319 3a98 52455345 		.ascii	"RESERVED7\000"
 11319      52564544 
 11319      3700
 11320              	.LASF243:
 11321 3aa2 52455345 		.ascii	"RESERVED8\000"
 11321      52564544 
 11321      3800
 11322              	.LASF245:
 11323 3aac 52455345 		.ascii	"RESERVED9\000"
 11323      52564544 
 11323      3900
 11324              	.LASF52:
 11325 3ab6 4E766963 		.ascii	"NvicMux28_IRQn\000"
 11325      4D757832 
 11325      385F4952 
 11325      516E00
 11326              	.LASF957:
 11327 3ac5 43595F42 		.ascii	"CY_BLE_EVT_HTSS_NOTIFICATION_ENABLED\000"
 11327      4C455F45 
 11327      56545F48 
 11327      5453535F 
 11327      4E4F5449 
 11328              	.LASF1022:
 11329 3aea 43595F42 		.ascii	"CY_BLE_EVT_RSCSC_NOTIFICATION\000"
 11329      4C455F45 
 11329      56545F52 
ARM GAS  C:\Users\salaz\AppData\Local\Temp\ccj0QfQu.s 			page 270


 11329      53435343 
 11329      5F4E4F54 
 11330              	.LASF517:
 11331 3b08 43595F42 		.ascii	"CY_BLE_GATT_FIND_INFO_REQ\000"
 11331      4C455F47 
 11331      4154545F 
 11331      46494E44 
 11331      5F494E46 
 11332              	.LASF642:
 11333 3b22 6C6F6361 		.ascii	"localResolvablePvtAddr\000"
 11333      6C526573 
 11333      6F6C7661 
 11333      626C6550 
 11333      76744164 
 11334              	.LASF445:
 11335 3b39 43595F42 		.ascii	"CY_BLE_INFO_FLASH_WRITE_IN_PROGRESS\000"
 11335      4C455F49 
 11335      4E464F5F 
 11335      464C4153 
 11335      485F5752 
 11336              	.LASF138:
 11337 3b5d 63707573 		.ascii	"cpuss_interrupts_dw1_14_IRQn\000"
 11337      735F696E 
 11337      74657272 
 11337      75707473 
 11337      5F647731 
 11338              	.LASF953:
 11339 3b7a 43595F42 		.ascii	"CY_BLE_EVT_HRSC_READ_CHAR_RESPONSE\000"
 11339      4C455F45 
 11339      56545F48 
 11339      5253435F 
 11339      52454144 
 11340              	.LASF91:
 11341 3b9d 63707573 		.ascii	"cpuss_interrupts_ipc_8_IRQn\000"
 11341      735F696E 
 11341      74657272 
 11341      75707473 
 11341      5F697063 
 11342              	.LASF61:
 11343 3bb9 696F7373 		.ascii	"ioss_interrupts_gpio_3_IRQn\000"
 11343      5F696E74 
 11343      65727275 
 11343      7074735F 
 11343      6770696F 
 11344              	.LASF602:
 11345 3bd5 43595F42 		.ascii	"CY_BLE_GAP_IOCAP_DISPLAY_YESNO\000"
 11345      4C455F47 
 11345      41505F49 
 11345      4F434150 
 11345      5F444953 
 11346              	.LASF627:
 11347 3bf4 43595F42 		.ascii	"CY_BLE_GAP_PUBLIC_IDENTITY_ADDR_TYPE\000"
 11347      4C455F47 
 11347      41505F50 
 11347      55424C49 
 11347      435F4944 
 11348              	.LASF30:
ARM GAS  C:\Users\salaz\AppData\Local\Temp\ccj0QfQu.s 			page 271


 11349 3c19 4E766963 		.ascii	"NvicMux6_IRQn\000"
 11349      4D757836 
 11349      5F495251 
 11349      6E00
 11350              	.LASF782:
 11351 3c27 43595F42 		.ascii	"CY_BLE_EVT_GATTS_EVT_CCCD_CORRUPT\000"
 11351      4C455F45 
 11351      56545F47 
 11351      41545453 
 11351      5F455654 
 11352              	.LASF831:
 11353 3c49 43595F42 		.ascii	"CY_BLE_EVT_BASC_READ_CHAR_RESPONSE\000"
 11353      4C455F45 
 11353      56545F42 
 11353      4153435F 
 11353      52454144 
 11354              	.LASF738:
 11355 3c6c 61747448 		.ascii	"attHandle\000"
 11355      616E646C 
 11355      6500
 11356              	.LASF472:
 11357 3c76 43595F42 		.ascii	"CY_BLE_ERROR_INVALID_STATE\000"
 11357      4C455F45 
 11357      52524F52 
 11357      5F494E56 
 11357      414C4944 
 11358              	.LASF1030:
 11359 3c91 43595F42 		.ascii	"CY_BLE_EVT_SCPSS_NOTIFICATION_ENABLED\000"
 11359      4C455F45 
 11359      56545F53 
 11359      43505353 
 11359      5F4E4F54 
 11360              	.LASF15:
 11361 3cb7 75696E74 		.ascii	"uint8_t\000"
 11361      385F7400 
 11362              	.LASF161:
 11363 3cbf 74637077 		.ascii	"tcpwm_1_interrupts_5_IRQn\000"
 11363      6D5F315F 
 11363      696E7465 
 11363      72727570 
 11363      74735F35 
 11364              	.LASF1153:
 11365 3cd9 43795F42 		.ascii	"Cy_BLE_GATTS_ReadAttributeValueCCCDReqHandler\000"
 11365      4C455F47 
 11365      41545453 
 11365      5F526561 
 11365      64417474 
 11366              	.LASF490:
 11367 3d07 43595F42 		.ascii	"CY_BLE_GAP_SCAN_TO\000"
 11367      4C455F47 
 11367      41505F53 
 11367      43414E5F 
 11367      544F00
 11368              	.LASF422:
 11369 3d1a 43595F42 		.ascii	"CY_BLE_EVT_GATTS_EXEC_WRITE_REQ\000"
 11369      4C455F45 
 11369      56545F47 
ARM GAS  C:\Users\salaz\AppData\Local\Temp\ccj0QfQu.s 			page 272


 11369      41545453 
 11369      5F455845 
 11370              	.LASF974:
 11371 3d3a 43595F42 		.ascii	"CY_BLE_EVT_IPSC_READ_MULTIPLE_CHAR_RESPONSE\000"
 11371      4C455F45 
 11371      56545F49 
 11371      5053435F 
 11371      52454144 
 11372              	.LASF985:
 11373 3d66 43595F42 		.ascii	"CY_BLE_EVT_LNSS_INDICATION_CONFIRMED\000"
 11373      4C455F45 
 11373      56545F4C 
 11373      4E53535F 
 11373      494E4449 
 11374              	.LASF1048:
 11375 3d8b 43595F42 		.ascii	"CY_BLE_EVT_UDSS_WRITE_CHAR\000"
 11375      4C455F45 
 11375      56545F55 
 11375      4453535F 
 11375      57524954 
 11376              	.LASF788:
 11377 3da6 43595F42 		.ascii	"CY_BLE_EVT_GATTC_CHAR_DISCOVERY_FAILED\000"
 11377      4C455F45 
 11377      56545F47 
 11377      41545443 
 11377      5F434841 
 11378              	.LASF819:
 11379 3dcd 43595F42 		.ascii	"CY_BLE_EVT_ANCSC_ERROR_RESPONSE\000"
 11379      4C455F45 
 11379      56545F41 
 11379      4E435343 
 11379      5F455252 
 11380              	.LASF79:
 11381 3ded 73727373 		.ascii	"srss_interrupt_backup_IRQn\000"
 11381      5F696E74 
 11381      65727275 
 11381      70745F62 
 11381      61636B75 
 11382              	.LASF71:
 11383 3e08 696F7373 		.ascii	"ioss_interrupts_gpio_13_IRQn\000"
 11383      5F696E74 
 11383      65727275 
 11383      7074735F 
 11383      6770696F 
 11384              	.LASF379:
 11385 3e25 43595F42 		.ascii	"CY_BLE_EVT_GAPC_SCAN_PROGRESS_RESULT\000"
 11385      4C455F45 
 11385      56545F47 
 11385      4150435F 
 11385      5343414E 
 11386              	.LASF585:
 11387 3e4a 63795F73 		.ascii	"cy_stc_ble_gatt_value_t\000"
 11387      74635F62 
 11387      6C655F67 
 11387      6174745F 
 11387      76616C75 
 11388              	.LASF373:
ARM GAS  C:\Users\salaz\AppData\Local\Temp\ccj0QfQu.s 			page 273


 11389 3e62 43595F42 		.ascii	"CY_BLE_EVT_RADIO_TEMPERATURE\000"
 11389      4C455F45 
 11389      56545F52 
 11389      4144494F 
 11389      5F54454D 
 11390              	.LASF786:
 11391 3e7f 43595F42 		.ascii	"CY_BLE_EVT_GATTC_SRVC_DISCOVERY_FAILED\000"
 11391      4C455F45 
 11391      56545F47 
 11391      41545443 
 11391      5F535256 
 11392              	.LASF251:
 11393 3ea6 52414449 		.ascii	"RADIO_LDO_TRIMS\000"
 11393      4F5F4C44 
 11393      4F5F5452 
 11393      494D5300 
 11394              	.LASF197:
 11395 3eb6 61756469 		.ascii	"audioss_interrupt_i2s_IRQn\000"
 11395      6F73735F 
 11395      696E7465 
 11395      72727570 
 11395      745F6932 
 11396              	.LASF1068:
 11397 3ed1 43595F42 		.ascii	"CY_BLE_EVT_WSSS_INDICATION_ENABLED\000"
 11397      4C455F45 
 11397      56545F57 
 11397      5353535F 
 11397      494E4449 
 11398              	.LASF259:
 11399 3ef4 43505553 		.ascii	"CPUSS_TRIM_ROM_CTL_HALF_LP\000"
 11399      535F5452 
 11399      494D5F52 
 11399      4F4D5F43 
 11399      544C5F48 
 11400              	.LASF635:
 11401 3f0f 70616972 		.ascii	"pairingProperties\000"
 11401      696E6750 
 11401      726F7065 
 11401      72746965 
 11401      7300
 11402              	.LASF770:
 11403 3f21 61747456 		.ascii	"attValuesCCCD\000"
 11403      616C7565 
 11403      73434343 
 11403      4400
 11404              	.LASF682:
 11405 3f2f 43595F42 		.ascii	"CY_BLE_STATE_INITIALIZING\000"
 11405      4C455F53 
 11405      54415445 
 11405      5F494E49 
 11405      5449414C 
 11406              	.LASF355:
 11407 3f49 43595F42 		.ascii	"CY_BLE_EVT_SET_PHY_COMPLETE\000"
 11407      4C455F45 
 11407      56545F53 
 11407      45545F50 
 11407      48595F43 
ARM GAS  C:\Users\salaz\AppData\Local\Temp\ccj0QfQu.s 			page 274


 11408              	.LASF321:
 11409 3f65 666C6F61 		.ascii	"float\000"
 11409      7400
 11410              	.LASF310:
 11411 3f6b 52544F43 		.ascii	"RTOC2_FIRST_USER_APP_ADDR\000"
 11411      325F4649 
 11411      5253545F 
 11411      55534552 
 11411      5F415050 
 11412              	.LASF402:
 11413 3f85 43595F42 		.ascii	"CY_BLE_EVT_GAP_CREATE_CONN_CANCEL_COMPLETE\000"
 11413      4C455F45 
 11413      56545F47 
 11413      41505F43 
 11413      52454154 
 11414              	.LASF846:
 11415 3fb0 43595F42 		.ascii	"CY_BLE_EVT_BLSC_INDICATION\000"
 11415      4C455F45 
 11415      56545F42 
 11415      4C53435F 
 11415      494E4449 
 11416              	.LASF623:
 11417 3fcb 43595F42 		.ascii	"CY_BLE_GAP_AUTH_ERROR_LINK_DISCONNECTED\000"
 11417      4C455F47 
 11417      41505F41 
 11417      5554485F 
 11417      4552524F 
 11418              	.LASF4:
 11419 3ff3 756E7369 		.ascii	"unsigned char\000"
 11419      676E6564 
 11419      20636861 
 11419      7200
 11420              	.LASF323:
 11421 4001 696E7472 		.ascii	"intrSrc\000"
 11421      53726300 
 11422              	.LASF828:
 11423 4009 43595F42 		.ascii	"CY_BLE_EVT_BASS_NOTIFICATION_ENABLED\000"
 11423      4C455F45 
 11423      56545F42 
 11423      4153535F 
 11423      4E4F5449 
 11424              	.LASF767:
 11425 402e 666C6173 		.ascii	"flashStorage\000"
 11425      6853746F 
 11425      72616765 
 11425      00
 11426              	.LASF406:
 11427 403b 43595F42 		.ascii	"CY_BLE_EVT_GATTC_ERROR_RSP\000"
 11427      4C455F45 
 11427      56545F47 
 11427      41545443 
 11427      5F455252 
 11428              	.LASF483:
 11429 4056 43595F42 		.ascii	"CY_BLE_LL_PWR_LVL_MAX\000"
 11429      4C455F4C 
 11429      4C5F5057 
 11429      525F4C56 
ARM GAS  C:\Users\salaz\AppData\Local\Temp\ccj0QfQu.s 			page 275


 11429      4C5F4D41 
 11430              	.LASF462:
 11431 406c 43595F42 		.ascii	"CY_BLE_ERROR_UNSUPPORTED_FEATURE_OR_PARAMETER_VALUE"
 11431      4C455F45 
 11431      52524F52 
 11431      5F554E53 
 11431      5550504F 
 11432 409f 00       		.ascii	"\000"
 11433              	.LASF149:
 11434 40a0 74637077 		.ascii	"tcpwm_0_interrupts_1_IRQn\000"
 11434      6D5F305F 
 11434      696E7465 
 11434      72727570 
 11434      74735F31 
 11435              	.LASF628:
 11436 40ba 43595F42 		.ascii	"CY_BLE_GAP_RANDOM_IDENTITY_ADDR_TYPE\000"
 11436      4C455F47 
 11436      41505F52 
 11436      414E444F 
 11436      4D5F4944 
 11437              	.LASF1020:
 11438 40df 43595F42 		.ascii	"CY_BLE_EVT_RSCSS_INDICATION_CONFIRMATION\000"
 11438      4C455F45 
 11438      56545F52 
 11438      53435353 
 11438      5F494E44 
 11439              	.LASF639:
 11440 4108 73757065 		.ascii	"supervisionTo\000"
 11440      72766973 
 11440      696F6E54 
 11440      6F00
 11441              	.LASF1142:
 11442 4116 43795F42 		.ascii	"Cy_BLE_SetLeEventMask\000"
 11442      4C455F53 
 11442      65744C65 
 11442      4576656E 
 11442      744D6173 
 11443              	.LASF396:
 11444 412c 43595F42 		.ascii	"CY_BLE_EVT_GAPC_DIRECT_ADV_REPORT\000"
 11444      4C455F45 
 11444      56545F47 
 11444      4150435F 
 11444      44495245 
 11445              	.LASF469:
 11446 414e 43595F42 		.ascii	"CY_BLE_ERROR_IND_DISABLED\000"
 11446      4C455F45 
 11446      52524F52 
 11446      5F494E44 
 11446      5F444953 
 11447              	.LASF842:
 11448 4168 43595F42 		.ascii	"CY_BLE_EVT_BLSS_INDICATION_DISABLED\000"
 11448      4C455F45 
 11448      56545F42 
 11448      4C53535F 
 11448      494E4449 
 11449              	.LASF634:
 11450 418c 61757468 		.ascii	"authErr\000"
ARM GAS  C:\Users\salaz\AppData\Local\Temp\ccj0QfQu.s 			page 276


 11450      45727200 
 11451              	.LASF100:
 11452 4194 7363625F 		.ascii	"scb_1_interrupt_IRQn\000"
 11452      315F696E 
 11452      74657272 
 11452      7570745F 
 11452      4952516E 
 11453              	.LASF184:
 11454 41a9 7564625F 		.ascii	"udb_interrupts_4_IRQn\000"
 11454      696E7465 
 11454      72727570 
 11454      74735F34 
 11454      5F495251 
 11455              	.LASF429:
 11456 41bf 43595F42 		.ascii	"CY_BLE_EVT_GATTS_READ_CHAR_VAL_ACCESS_REQ\000"
 11456      4C455F45 
 11456      56545F47 
 11456      41545453 
 11456      5F524541 
 11457              	.LASF130:
 11458 41e9 63707573 		.ascii	"cpuss_interrupts_dw1_6_IRQn\000"
 11458      735F696E 
 11458      74657272 
 11458      75707473 
 11458      5F647731 
 11459              	.LASF246:
 11460 4205 43534456 		.ascii	"CSDV2_CSD0_ADC_VREF0\000"
 11460      325F4353 
 11460      44305F41 
 11460      44435F56 
 11460      52454630 
 11461              	.LASF247:
 11462 421a 43534456 		.ascii	"CSDV2_CSD0_ADC_VREF1\000"
 11462      325F4353 
 11462      44305F41 
 11462      44435F56 
 11462      52454631 
 11463              	.LASF248:
 11464 422f 43534456 		.ascii	"CSDV2_CSD0_ADC_VREF2\000"
 11464      325F4353 
 11464      44305F41 
 11464      44435F56 
 11464      52454632 
 11465              	.LASF902:
 11466 4244 43595F42 		.ascii	"CY_BLE_EVT_CTSC_WRITE_CHAR_RESPONSE\000"
 11466      4C455F45 
 11466      56545F43 
 11466      5453435F 
 11466      57524954 
 11467              	.LASF102:
 11468 4268 7363625F 		.ascii	"scb_3_interrupt_IRQn\000"
 11468      335F696E 
 11468      74657272 
 11468      7570745F 
 11468      4952516E 
 11469              	.LASF605:
 11470 427d 43595F42 		.ascii	"CY_BLE_GAP_IOCAP_KEYBOARD_DISPLAY\000"
ARM GAS  C:\Users\salaz\AppData\Local\Temp\ccj0QfQu.s 			page 277


 11470      4C455F47 
 11470      41505F49 
 11470      4F434150 
 11470      5F4B4559 
 11471              	.LASF913:
 11472 429f 43595F42 		.ascii	"CY_BLE_EVT_ESSC_READ_CHAR_RESPONSE\000"
 11472      4C455F45 
 11472      56545F45 
 11472      5353435F 
 11472      52454144 
 11473              	.LASF868:
 11474 42c2 43595F42 		.ascii	"CY_BLE_EVT_CPSS_NOTIFICATION_DISABLED\000"
 11474      4C455F45 
 11474      56545F43 
 11474      5053535F 
 11474      4E4F5449 
 11475              	.LASF528:
 11476 42e8 43595F42 		.ascii	"CY_BLE_GATT_READ_MULTIPLE_RSP\000"
 11476      4C455F47 
 11476      4154545F 
 11476      52454144 
 11476      5F4D554C 
 11477              	.LASF947:
 11478 4306 43595F42 		.ascii	"CY_BLE_EVT_HPSC_WRITE_DESCR_RESPONSE\000"
 11478      4C455F45 
 11478      56545F48 
 11478      5053435F 
 11478      57524954 
 11479              	.LASF49:
 11480 432b 4E766963 		.ascii	"NvicMux25_IRQn\000"
 11480      4D757832 
 11480      355F4952 
 11480      516E00
 11481              	.LASF104:
 11482 433a 7363625F 		.ascii	"scb_5_interrupt_IRQn\000"
 11482      355F696E 
 11482      74657272 
 11482      7570745F 
 11482      4952516E 
 11483              	.LASF73:
 11484 434f 696F7373 		.ascii	"ioss_interrupt_gpio_IRQn\000"
 11484      5F696E74 
 11484      65727275 
 11484      70745F67 
 11484      70696F5F 
 11485              	.LASF309:
 11486 4368 52544F43 		.ascii	"RTOC2_SMIF_CFG_STRUCT_ADDR\000"
 11486      325F534D 
 11486      49465F43 
 11486      46475F53 
 11486      54525543 
 11487              	.LASF399:
 11488 4383 43595F42 		.ascii	"CY_BLE_EVT_GAP_KEYS_GEN_COMPLETE\000"
 11488      4C455F45 
 11488      56545F47 
 11488      41505F4B 
 11488      4559535F 
ARM GAS  C:\Users\salaz\AppData\Local\Temp\ccj0QfQu.s 			page 278


 11489              	.LASF175:
 11490 43a4 74637077 		.ascii	"tcpwm_1_interrupts_19_IRQn\000"
 11490      6D5F315F 
 11490      696E7465 
 11490      72727570 
 11490      74735F31 
 11491              	.LASF620:
 11492 43bf 43595F42 		.ascii	"CY_BLE_GAP_AUTH_ERROR_BR_EDR_PAIRING_IN_PROGRESS\000"
 11492      4C455F47 
 11492      41505F41 
 11492      5554485F 
 11492      4552524F 
 11493              	.LASF135:
 11494 43f0 63707573 		.ascii	"cpuss_interrupts_dw1_11_IRQn\000"
 11494      735F696E 
 11494      74657272 
 11494      75707473 
 11494      5F647731 
 11495              	.LASF878:
 11496 440d 43595F42 		.ascii	"CY_BLE_EVT_CPSC_WRITE_CHAR_RESPONSE\000"
 11496      4C455F45 
 11496      56545F43 
 11496      5053435F 
 11496      57524954 
 11497              	.LASF106:
 11498 4431 7363625F 		.ascii	"scb_7_interrupt_IRQn\000"
 11498      375F696E 
 11498      74657272 
 11498      7570745F 
 11498      4952516E 
 11499              	.LASF423:
 11500 4446 43595F42 		.ascii	"CY_BLE_EVT_GATTC_EXEC_WRITE_RSP\000"
 11500      4C455F45 
 11500      56545F47 
 11500      41545443 
 11500      5F455845 
 11501              	.LASF88:
 11502 4466 63707573 		.ascii	"cpuss_interrupts_ipc_5_IRQn\000"
 11502      735F696E 
 11502      74657272 
 11502      75707473 
 11502      5F697063 
 11503              	.LASF58:
 11504 4482 696F7373 		.ascii	"ioss_interrupts_gpio_0_IRQn\000"
 11504      5F696E74 
 11504      65727275 
 11504      7074735F 
 11504      6770696F 
 11505              	.LASF783:
 11506 449e 43595F42 		.ascii	"CY_BLE_EVT_GATTS_INDICATION_ENABLED\000"
 11506      4C455F45 
 11506      56545F47 
 11506      41545453 
 11506      5F494E44 
 11507              	.LASF1135:
 11508 44c2 63795F62 		.ascii	"cy_ble_busyStatus\000"
 11508      6C655F62 
ARM GAS  C:\Users\salaz\AppData\Local\Temp\ccj0QfQu.s 			page 279


 11508      75737953 
 11508      74617475 
 11508      7300
 11509              	.LASF1079:
 11510 44d4 43595F42 		.ascii	"CY_BLE_EVT_BTSS_PREP_WRITE_REQ\000"
 11510      4C455F45 
 11510      56545F42 
 11510      5453535F 
 11510      50524550 
 11511              	.LASF416:
 11512 44f3 43595F42 		.ascii	"CY_BLE_EVT_GATTC_READ_BLOB_RSP\000"
 11512      4C455F45 
 11512      56545F47 
 11512      41545443 
 11512      5F524541 
 11513              	.LASF476:
 11514 4512 74797065 		.ascii	"type\000"
 11514      00
 11515              	.LASF1104:
 11516 4517 43795F42 		.ascii	"Cy_BLE_GetConnectionState\000"
 11516      4C455F47 
 11516      6574436F 
 11516      6E6E6563 
 11516      74696F6E 
 11517              	.LASF27:
 11518 4531 4E766963 		.ascii	"NvicMux3_IRQn\000"
 11518      4D757833 
 11518      5F495251 
 11518      6E00
 11519              	.LASF676:
 11520 453f 63795F73 		.ascii	"cy_stc_ble_gapp_scan_rsp_data_t\000"
 11520      74635F62 
 11520      6C655F67 
 11520      6170705F 
 11520      7363616E 
 11521              	.LASF20:
 11522 455f 48617264 		.ascii	"HardFault_IRQn\000"
 11522      4661756C 
 11522      745F4952 
 11522      516E00
 11523              	.LASF1103:
 11524 456e 61646472 		.ascii	"addressValid\000"
 11524      65737356 
 11524      616C6964 
 11524      00
 11525              	.LASF864:
 11526 457b 43595F42 		.ascii	"CY_BLE_EVT_CGMSC_WRITE_CHAR_RESPONSE\000"
 11526      4C455F45 
 11526      56545F43 
 11526      474D5343 
 11526      5F575249 
 11527              	.LASF488:
 11528 45a0 63795F65 		.ascii	"cy_en_ble_bless_phy_ch_grp_id_t\000"
 11528      6E5F626C 
 11528      655F626C 
 11528      6573735F 
 11528      7068795F 
ARM GAS  C:\Users\salaz\AppData\Local\Temp\ccj0QfQu.s 			page 280


 11529              	.LASF892:
 11530 45c0 43595F42 		.ascii	"CY_BLE_EVT_CSCSC_WRITE_CHAR_RESPONSE\000"
 11530      4C455F45 
 11530      56545F43 
 11530      53435343 
 11530      5F575249 
 11531              	.LASF1051:
 11532 45e5 43595F42 		.ascii	"CY_BLE_EVT_UDSC_READ_CHAR_RESPONSE\000"
 11532      4C455F45 
 11532      56545F55 
 11532      4453435F 
 11532      52454144 
 11533              	.LASF1053:
 11534 4608 43595F42 		.ascii	"CY_BLE_EVT_UDSC_READ_DESCR_RESPONSE\000"
 11534      4C455F45 
 11534      56545F55 
 11534      4453435F 
 11534      52454144 
 11535              	.LASF158:
 11536 462c 74637077 		.ascii	"tcpwm_1_interrupts_2_IRQn\000"
 11536      6D5F315F 
 11536      696E7465 
 11536      72727570 
 11536      74735F32 
 11537              	.LASF716:
 11538 4646 66617374 		.ascii	"fastScanTimeOut\000"
 11538      5363616E 
 11538      54696D65 
 11538      4F757400 
 11539              	.LASF42:
 11540 4656 4E766963 		.ascii	"NvicMux18_IRQn\000"
 11540      4D757831 
 11540      385F4952 
 11540      516E00
 11541              	.LASF383:
 11542 4665 43595F42 		.ascii	"CY_BLE_EVT_GAP_AUTH_COMPLETE\000"
 11542      4C455F45 
 11542      56545F47 
 11542      41505F41 
 11542      5554485F 
 11543              	.LASF1085:
 11544 4682 43595F42 		.ascii	"CY_BLE_EVT_GATTC_DISC_DESCR_GET_RANGE\000"
 11544      4C455F45 
 11544      56545F47 
 11544      41545443 
 11544      5F444953 
 11545              	.LASF1019:
 11546 46a8 43595F42 		.ascii	"CY_BLE_EVT_RSCSS_INDICATION_DISABLED\000"
 11546      4C455F45 
 11546      56545F52 
 11546      53435353 
 11546      5F494E44 
 11547              	.LASF144:
 11548 46cd 63707573 		.ascii	"cpuss_interrupts_cm0_cti_0_IRQn\000"
 11548      735F696E 
 11548      74657272 
 11548      75707473 
ARM GAS  C:\Users\salaz\AppData\Local\Temp\ccj0QfQu.s 			page 281


 11548      5F636D30 
 11549              	.LASF648:
 11550 46ed 64697363 		.ascii	"discProcedure\000"
 11550      50726F63 
 11550      65647572 
 11550      6500
 11551              	.LASF956:
 11552 46fb 43595F42 		.ascii	"CY_BLE_EVT_HRSC_WRITE_DESCR_RESPONSE\000"
 11552      4C455F45 
 11552      56545F48 
 11552      5253435F 
 11552      57524954 
 11553              	.LASF68:
 11554 4720 696F7373 		.ascii	"ioss_interrupts_gpio_10_IRQn\000"
 11554      5F696E74 
 11554      65727275 
 11554      7074735F 
 11554      6770696F 
 11555              	.LASF839:
 11556 473d 43595F42 		.ascii	"CY_BLE_EVT_BCSC_READ_DESCR_RESPONSE\000"
 11556      4C455F45 
 11556      56545F42 
 11556      4353435F 
 11556      52454144 
 11557              	.LASF520:
 11558 4761 43595F42 		.ascii	"CY_BLE_GATT_FIND_BY_TYPE_VALUE_RSP\000"
 11558      4C455F47 
 11558      4154545F 
 11558      46494E44 
 11558      5F42595F 
 11559              	.LASF869:
 11560 4784 43595F42 		.ascii	"CY_BLE_EVT_CPSS_INDICATION_ENABLED\000"
 11560      4C455F45 
 11560      56545F43 
 11560      5053535F 
 11560      494E4449 
 11561              	.LASF1122:
 11562 47a7 63795F62 		.ascii	"cy_ble_advState\000"
 11562      6C655F61 
 11562      64765374 
 11562      61746500 
 11563              	.LASF115:
 11564 47b7 63707573 		.ascii	"cpuss_interrupts_dw0_7_IRQn\000"
 11564      735F696E 
 11564      74657272 
 11564      75707473 
 11564      5F647730 
 11565              	.LASF960:
 11566 47d3 43595F42 		.ascii	"CY_BLE_EVT_HTSS_INDICATION_DISABLED\000"
 11566      4C455F45 
 11566      56545F48 
 11566      5453535F 
 11566      494E4449 
 11567              	.LASF1055:
 11568 47f7 43595F42 		.ascii	"CY_BLE_EVT_UDSC_ERROR_RESPONSE\000"
 11568      4C455F45 
 11568      56545F55 
ARM GAS  C:\Users\salaz\AppData\Local\Temp\ccj0QfQu.s 			page 282


 11568      4453435F 
 11568      4552524F 
 11569              	.LASF601:
 11570 4816 43595F42 		.ascii	"CY_BLE_GAP_IOCAP_DISPLAY_ONLY\000"
 11570      4C455F47 
 11570      41505F49 
 11570      4F434150 
 11570      5F444953 
 11571              	.LASF326:
 11572 4834 63795F73 		.ascii	"cy_stc_sysint_t\000"
 11572      74635F73 
 11572      7973696E 
 11572      745F7400 
 11573              	.LASF450:
 11574 4844 43595F42 		.ascii	"CY_BLE_ERROR_OOB_NOT_AVAILABLE\000"
 11574      4C455F45 
 11574      52524F52 
 11574      5F4F4F42 
 11574      5F4E4F54 
 11575              	.LASF712:
 11576 4863 736C6F77 		.ascii	"slowAdvTimeOut\000"
 11576      41647654 
 11576      696D654F 
 11576      757400
 11577              	.LASF284:
 11578 4872 52544F43 		.ascii	"RTOC1_OBJECT_SIZE\000"
 11578      315F4F42 
 11578      4A454354 
 11578      5F53495A 
 11578      4500
 11579              	.LASF434:
 11580 4884 43595F42 		.ascii	"CY_BLE_EVT_L2CAP_CBFC_CONN_IND\000"
 11580      4C455F45 
 11580      56545F4C 
 11580      32434150 
 11580      5F434246 
 11581              	.LASF867:
 11582 48a3 43595F42 		.ascii	"CY_BLE_EVT_CPSS_NOTIFICATION_ENABLED\000"
 11582      4C455F45 
 11582      56545F43 
 11582      5053535F 
 11582      4E4F5449 
 11583              	.LASF521:
 11584 48c8 43595F42 		.ascii	"CY_BLE_GATT_READ_BY_TYPE_REQ\000"
 11584      4C455F47 
 11584      4154545F 
 11584      52454144 
 11584      5F42595F 
 11585              	.LASF10:
 11586 48e5 5F5F7569 		.ascii	"__uint32_t\000"
 11586      6E743332 
 11586      5F7400
 11587              	.LASF179:
 11588 48f0 74637077 		.ascii	"tcpwm_1_interrupts_23_IRQn\000"
 11588      6D5F315F 
 11588      696E7465 
 11588      72727570 
ARM GAS  C:\Users\salaz\AppData\Local\Temp\ccj0QfQu.s 			page 283


 11588      74735F32 
 11589              	.LASF637:
 11590 490b 636F6E6E 		.ascii	"connIntv\000"
 11590      496E7476 
 11590      00
 11591              	.LASF586:
 11592 4914 76616C75 		.ascii	"value\000"
 11592      6500
 11593              	.LASF392:
 11594 491a 43595F42 		.ascii	"CY_BLE_EVT_GAP_NUMERIC_COMPARISON_REQUEST\000"
 11594      4C455F45 
 11594      56545F47 
 11594      41505F4E 
 11594      554D4552 
 11595              	.LASF1008:
 11596 4944 43595F42 		.ascii	"CY_BLE_EVT_PLXSS_WRITE_CHAR\000"
 11596      4C455F45 
 11596      56545F50 
 11596      4C585353 
 11596      5F575249 
 11597              	.LASF1132:
 11598 4960 63795F62 		.ascii	"cy_ble_stackMemoryRam\000"
 11598      6C655F73 
 11598      7461636B 
 11598      4D656D6F 
 11598      72795261 
 11599              	.LASF359:
 11600 4976 43595F42 		.ascii	"CY_BLE_EVT_SOFT_RESET_COMPLETE\000"
 11600      4C455F45 
 11600      56545F53 
 11600      4F46545F 
 11600      52455345 
 11601              	.LASF377:
 11602 4995 43595F42 		.ascii	"CY_BLE_EVT_SET_CE_LENGTH_COMPLETE\000"
 11602      4C455F45 
 11602      56545F53 
 11602      45545F43 
 11602      455F4C45 
 11603              	.LASF909:
 11604 49b7 43595F42 		.ascii	"CY_BLE_EVT_ESSS_WRITE_CHAR\000"
 11604      4C455F45 
 11604      56545F45 
 11604      5353535F 
 11604      57524954 
 11605              	.LASF968:
 11606 49d2 43595F42 		.ascii	"CY_BLE_EVT_HTSC_WRITE_DESCR_RESPONSE\000"
 11606      4C455F45 
 11606      56545F48 
 11606      5453435F 
 11606      57524954 
 11607              	.LASF1064:
 11608 49f7 43595F42 		.ascii	"CY_BLE_EVT_WPTSC_WRITE_CHAR_RESPONSE\000"
 11608      4C455F45 
 11608      56545F57 
 11608      50545343 
 11608      5F575249 
 11609              	.LASF591:
ARM GAS  C:\Users\salaz\AppData\Local\Temp\ccj0QfQu.s 			page 284


 11610 4a1c 63795F73 		.ascii	"cy_stc_ble_gatt_write_param_t\000"
 11610      74635F62 
 11610      6C655F67 
 11610      6174745F 
 11610      77726974 
 11611              	.LASF593:
 11612 4a3a 6572726F 		.ascii	"errorCode\000"
 11612      72436F64 
 11612      6500
 11613              	.LASF181:
 11614 4a44 7564625F 		.ascii	"udb_interrupts_1_IRQn\000"
 11614      696E7465 
 11614      72727570 
 11614      74735F31 
 11614      5F495251 
 11615              	.LASF228:
 11616 4a5a 4C444F5F 		.ascii	"LDO_0P9V_TRIM\000"
 11616      30503956 
 11616      5F545249 
 11616      4D00
 11617              	.LASF244:
 11618 4a68 50494C4F 		.ascii	"PILO_FREQ_STEP\000"
 11618      5F465245 
 11618      515F5354 
 11618      455000
 11619              	.LASF873:
 11620 4a77 43595F42 		.ascii	"CY_BLE_EVT_CPSS_BROADCAST_DISABLED\000"
 11620      4C455F45 
 11620      56545F43 
 11620      5053535F 
 11620      42524F41 
 11621              	.LASF936:
 11622 4a9a 43595F42 		.ascii	"CY_BLE_EVT_HIDSC_NOTIFICATION\000"
 11622      4C455F45 
 11622      56545F48 
 11622      49445343 
 11622      5F4E4F54 
 11623              	.LASF127:
 11624 4ab8 63707573 		.ascii	"cpuss_interrupts_dw1_3_IRQn\000"
 11624      735F696E 
 11624      74657272 
 11624      75707473 
 11624      5F647731 
 11625              	.LASF375:
 11626 4ad4 43595F42 		.ascii	"CY_BLE_EVT_AES_CMAC_GEN_COMPLETE\000"
 11626      4C455F45 
 11626      56545F41 
 11626      45535F43 
 11626      4D41435F 
 11627              	.LASF929:
 11628 4af5 43595F42 		.ascii	"CY_BLE_EVT_HIDSS_NOTIFICATION_ENABLED\000"
 11628      4C455F45 
 11628      56545F48 
 11628      49445353 
 11628      5F4E4F54 
 11629              	.LASF843:
 11630 4b1b 43595F42 		.ascii	"CY_BLE_EVT_BLSS_INDICATION_CONFIRMED\000"
ARM GAS  C:\Users\salaz\AppData\Local\Temp\ccj0QfQu.s 			page 285


 11630      4C455F45 
 11630      56545F42 
 11630      4C53535F 
 11630      494E4449 
 11631              	.LASF644:
 11632 4b40 726F6C65 		.ascii	"role\000"
 11632      00
 11633              	.LASF328:
 11634 4b45 43595F42 		.ascii	"CY_BLE_EVT_STACK_ON\000"
 11634      4C455F45 
 11634      56545F53 
 11634      5441434B 
 11634      5F4F4E00 
 11635              	.LASF382:
 11636 4b59 43595F42 		.ascii	"CY_BLE_EVT_GAP_PASSKEY_DISPLAY_REQUEST\000"
 11636      4C455F45 
 11636      56545F47 
 11636      41505F50 
 11636      4153534B 
 11637              	.LASF954:
 11638 4b80 43595F42 		.ascii	"CY_BLE_EVT_HRSC_WRITE_CHAR_RESPONSE\000"
 11638      4C455F45 
 11638      56545F48 
 11638      5253435F 
 11638      57524954 
 11639              	.LASF1088:
 11640 4ba4 636F756E 		.ascii	"count\000"
 11640      7400
 11641              	.LASF312:
 11642 4baa 52544F43 		.ascii	"RTOC2_SECOND_USER_APP_ADDR\000"
 11642      325F5345 
 11642      434F4E44 
 11642      5F555345 
 11642      525F4150 
 11643              	.LASF865:
 11644 4bc5 43595F42 		.ascii	"CY_BLE_EVT_CGMSC_READ_DESCR_RESPONSE\000"
 11644      4C455F45 
 11644      56545F43 
 11644      474D5343 
 11644      5F524541 
 11645              	.LASF46:
 11646 4bea 4E766963 		.ascii	"NvicMux22_IRQn\000"
 11646      4D757832 
 11646      325F4952 
 11646      516E00
 11647              	.LASF1035:
 11648 4bf9 43595F42 		.ascii	"CY_BLE_EVT_SCPSC_WRITE_DESCR_RESPONSE\000"
 11648      4C455F45 
 11648      56545F53 
 11648      43505343 
 11648      5F575249 
 11649              	.LASF224:
 11650 4c1f 5341525F 		.ascii	"SAR_TEMP_OFFSET\000"
 11650      54454D50 
 11650      5F4F4646 
 11650      53455400 
 11651              	.LASF715:
ARM GAS  C:\Users\salaz\AppData\Local\Temp\ccj0QfQu.s 			page 286


 11652 4c2f 66617374 		.ascii	"fastScanWindow\000"
 11652      5363616E 
 11652      57696E64 
 11652      6F7700
 11653              	.LASF454:
 11654 4c3e 43595F42 		.ascii	"CY_BLE_ERROR_REPEATED_ATTEMPTS\000"
 11654      4C455F45 
 11654      52524F52 
 11654      5F524550 
 11654      45415445 
 11655              	.LASF172:
 11656 4c5d 74637077 		.ascii	"tcpwm_1_interrupts_16_IRQn\000"
 11656      6D5F315F 
 11656      696E7465 
 11656      72727570 
 11656      74735F31 
 11657              	.LASF265:
 11658 4c78 464C4153 		.ascii	"FLASH_BOOT_N_CORES\000"
 11658      485F424F 
 11658      4F545F4E 
 11658      5F434F52 
 11658      455300
 11659              	.LASF926:
 11660 4c8b 43595F42 		.ascii	"CY_BLE_EVT_GLSC_WRITE_CHAR_RESPONSE\000"
 11660      4C455F45 
 11660      56545F47 
 11660      4C53435F 
 11660      57524954 
 11661              	.LASF714:
 11662 4caf 66617374 		.ascii	"fastScanInterval\000"
 11662      5363616E 
 11662      496E7465 
 11662      7276616C 
 11662      00
 11663              	.LASF85:
 11664 4cc0 63707573 		.ascii	"cpuss_interrupts_ipc_2_IRQn\000"
 11664      735F696E 
 11664      74657272 
 11664      75707473 
 11664      5F697063 
 11665              	.LASF205:
 11666 4cdc 64697363 		.ascii	"disconnected_IRQn\000"
 11666      6F6E6E65 
 11666      63746564 
 11666      5F495251 
 11666      6E00
 11667              	.LASF339:
 11668 4cee 43595F42 		.ascii	"CY_BLE_EVT_LE_PING_AUTH_TIMEOUT\000"
 11668      4C455F45 
 11668      56545F4C 
 11668      455F5049 
 11668      4E475F41 
 11669              	.LASF24:
 11670 4d0e 4E766963 		.ascii	"NvicMux0_IRQn\000"
 11670      4D757830 
 11670      5F495251 
 11670      6E00
ARM GAS  C:\Users\salaz\AppData\Local\Temp\ccj0QfQu.s 			page 287


 11671              	.LASF219:
 11672 4d1c 4449455F 		.ascii	"DIE_DAY\000"
 11672      44415900 
 11673              	.LASF477:
 11674 4d24 63795F73 		.ascii	"cy_stc_ble_bd_addr_t\000"
 11674      74635F62 
 11674      6C655F62 
 11674      645F6164 
 11674      64725F74 
 11675              	.LASF802:
 11676 4d39 43595F42 		.ascii	"CY_BLE_EVT_AIOSS_INDICATION_CONFIRMED\000"
 11676      4C455F45 
 11676      56545F41 
 11676      494F5353 
 11676      5F494E44 
 11677              	.LASF613:
 11678 4d5f 43595F42 		.ascii	"CY_BLE_GAP_AUTH_ERROR_INSUFFICIENT_ENCRYPTION_KEY_S"
 11678      4C455F47 
 11678      41505F41 
 11678      5554485F 
 11678      4552524F 
 11679 4d92 495A4500 		.ascii	"IZE\000"
 11680              	.LASF723:
 11681 4d96 67617063 		.ascii	"gapcConnectionSlaveLatency\000"
 11681      436F6E6E 
 11681      65637469 
 11681      6F6E536C 
 11681      6176654C 
 11682              	.LASF975:
 11683 4db1 43595F42 		.ascii	"CY_BLE_EVT_IPSC_WRITE_CHAR_RESPONSE\000"
 11683      4C455F45 
 11683      56545F49 
 11683      5053435F 
 11683      57524954 
 11684              	.LASF39:
 11685 4dd5 4E766963 		.ascii	"NvicMux15_IRQn\000"
 11685      4D757831 
 11685      355F4952 
 11685      516E00
 11686              	.LASF1062:
 11687 4de4 43595F42 		.ascii	"CY_BLE_EVT_WPTSC_NOTIFICATION\000"
 11687      4C455F45 
 11687      56545F57 
 11687      50545343 
 11687      5F4E4F54 
 11688              	.LASF958:
 11689 4e02 43595F42 		.ascii	"CY_BLE_EVT_HTSS_NOTIFICATION_DISABLED\000"
 11689      4C455F45 
 11689      56545F48 
 11689      5453535F 
 11689      4E4F5449 
 11690              	.LASF861:
 11691 4e28 43595F42 		.ascii	"CY_BLE_EVT_CGMSC_INDICATION\000"
 11691      4C455F45 
 11691      56545F43 
 11691      474D5343 
 11691      5F494E44 
ARM GAS  C:\Users\salaz\AppData\Local\Temp\ccj0QfQu.s 			page 288


 11692              	.LASF833:
 11693 4e44 43595F42 		.ascii	"CY_BLE_EVT_BASC_WRITE_DESCR_RESPONSE\000"
 11693      4C455F45 
 11693      56545F42 
 11693      4153435F 
 11693      57524954 
 11694              	.LASF895:
 11695 4e69 43595F42 		.ascii	"CY_BLE_EVT_CTSS_NOTIFICATION_ENABLED\000"
 11695      4C455F45 
 11695      56545F43 
 11695      5453535F 
 11695      4E4F5449 
 11696              	.LASF283:
 11697 4e8e 544F4331 		.ascii	"TOC1_CRC_ADDR\000"
 11697      5F435243 
 11697      5F414444 
 11697      5200
 11698              	.LASF420:
 11699 4e9c 43595F42 		.ascii	"CY_BLE_EVT_GATTS_WRITE_CMD_REQ\000"
 11699      4C455F45 
 11699      56545F47 
 11699      41545453 
 11699      5F575249 
 11700              	.LASF847:
 11701 4ebb 43595F42 		.ascii	"CY_BLE_EVT_BLSC_NOTIFICATION\000"
 11701      4C455F45 
 11701      56545F42 
 11701      4C53435F 
 11701      4E4F5449 
 11702              	.LASF441:
 11703 4ed8 43595F42 		.ascii	"CY_BLE_EVT_L2CAP_CBFC_DATA_WRITE_IND\000"
 11703      4C455F45 
 11703      56545F4C 
 11703      32434150 
 11703      5F434246 
 11704              	.LASF348:
 11705 4efd 43595F42 		.ascii	"CY_BLE_EVT_SET_HOST_CHANNEL_COMPLETE\000"
 11705      4C455F45 
 11705      56545F53 
 11705      45545F48 
 11705      4F53545F 
 11706              	.LASF884:
 11707 4f22 43595F42 		.ascii	"CY_BLE_EVT_CSCSS_NOTIFICATION_DISABLED\000"
 11707      4C455F45 
 11707      56545F43 
 11707      53435353 
 11707      5F4E4F54 
 11708              	.LASF530:
 11709 4f49 43595F42 		.ascii	"CY_BLE_GATT_READ_BY_GROUP_RSP\000"
 11709      4C455F47 
 11709      4154545F 
 11709      52454144 
 11709      5F42595F 
 11710              	.LASF262:
 11711 4f67 464C4153 		.ascii	"FLASH_BOOT_OBJECT_SIZE\000"
 11711      485F424F 
 11711      4F545F4F 
ARM GAS  C:\Users\salaz\AppData\Local\Temp\ccj0QfQu.s 			page 289


 11711      424A4543 
 11711      545F5349 
 11712              	.LASF1106:
 11713 4f7e 6348616E 		.ascii	"cHandle\000"
 11713      646C6500 
 11714              	.LASF876:
 11715 4f86 43595F42 		.ascii	"CY_BLE_EVT_CPSC_INDICATION\000"
 11715      4C455F45 
 11715      56545F43 
 11715      5053435F 
 11715      494E4449 
 11716              	.LASF112:
 11717 4fa1 63707573 		.ascii	"cpuss_interrupts_dw0_4_IRQn\000"
 11717      735F696E 
 11717      74657272 
 11717      75707473 
 11717      5F647730 
 11718              	.LASF1154:
 11719 4fbd 474E5520 		.ascii	"GNU C11 5.4.1 20160609 (release) [ARM/embedded-5-br"
 11719      43313120 
 11719      352E342E 
 11719      31203230 
 11719      31363036 
 11720 4ff0 616E6368 		.ascii	"anch revision 237715] -mcpu=cortex-m0plus -mthumb -"
 11720      20726576 
 11720      6973696F 
 11720      6E203233 
 11720      37373135 
 11721 5023 67202D4F 		.ascii	"g -Og -ffunction-sections -ffat-lto-objects\000"
 11721      67202D66 
 11721      66756E63 
 11721      74696F6E 
 11721      2D736563 
 11722              	.LASF604:
 11723 504f 43595F42 		.ascii	"CY_BLE_GAP_IOCAP_NOINPUT_NOOUTPUT\000"
 11723      4C455F47 
 11723      41505F49 
 11723      4F434150 
 11723      5F4E4F49 
 11724              	.LASF575:
 11725 5071 43595F42 		.ascii	"CY_BLE_GATT_ERR_ANCS_UNKNOWN_COMMAND\000"
 11725      4C455F47 
 11725      4154545F 
 11725      4552525F 
 11725      414E4353 
 11726              	.LASF142:
 11727 5096 63707573 		.ascii	"cpuss_interrupt_crypto_IRQn\000"
 11727      735F696E 
 11727      74657272 
 11727      7570745F 
 11727      63727970 
 11728              	.LASF451:
 11729 50b2 43595F42 		.ascii	"CY_BLE_ERROR_NO_CONNECTION\000"
 11729      4C455F45 
 11729      52524F52 
 11729      5F4E4F5F 
 11729      434F4E4E 
ARM GAS  C:\Users\salaz\AppData\Local\Temp\ccj0QfQu.s 			page 290


 11730              	.LASF702:
 11731 50cd 70726566 		.ascii	"prefConnParamCharHandle\000"
 11731      436F6E6E 
 11731      50617261 
 11731      6D436861 
 11731      7248616E 
 11732              	.LASF554:
 11733 50e5 43595F42 		.ascii	"CY_BLE_GATT_ERR_ATTRIBUTE_NOT_FOUND\000"
 11733      4C455F47 
 11733      4154545F 
 11733      4552525F 
 11733      41545452 
 11734              	.LASF358:
 11735 5109 43595F42 		.ascii	"CY_BLE_EVT_LL_CNTRL_PROC_PENDING_COMPLETE\000"
 11735      4C455F45 
 11735      56545F4C 
 11735      4C5F434E 
 11735      54524C5F 
 11736              	.LASF859:
 11737 5133 43595F42 		.ascii	"CY_BLE_EVT_CGMSS_NOTIFICATION_DISABLED\000"
 11737      4C455F45 
 11737      56545F43 
 11737      474D5353 
 11737      5F4E4F54 
 11738              	.LASF871:
 11739 515a 43595F42 		.ascii	"CY_BLE_EVT_CPSS_INDICATION_CONFIRMED\000"
 11739      4C455F45 
 11739      56545F43 
 11739      5053535F 
 11739      494E4449 
 11740              	.LASF1087:
 11741 517f 73657276 		.ascii	"serviceEventHandler\000"
 11741      69636545 
 11741      76656E74 
 11741      48616E64 
 11741      6C657200 
 11742              	.LASF176:
 11743 5193 74637077 		.ascii	"tcpwm_1_interrupts_20_IRQn\000"
 11743      6D5F315F 
 11743      696E7465 
 11743      72727570 
 11743      74735F32 
 11744              	.LASF675:
 11745 51ae 7363616E 		.ascii	"scanRspDataLen\000"
 11745      52737044 
 11745      6174614C 
 11745      656E00
 11746              	.LASF808:
 11747 51bd 43595F42 		.ascii	"CY_BLE_EVT_AIOSC_WRITE_CHAR_RESPONSE\000"
 11747      4C455F45 
 11747      56545F41 
 11747      494F5343 
 11747      5F575249 
 11748              	.LASF255:
 11749 51e2 43505553 		.ascii	"CPUSS_TRIM_RAM_CTL_LP\000"
 11749      535F5452 
 11749      494D5F52 
ARM GAS  C:\Users\salaz\AppData\Local\Temp\ccj0QfQu.s 			page 291


 11749      414D5F43 
 11749      544C5F4C 
 11750              	.LASF193:
 11751 51f8 7564625F 		.ascii	"udb_interrupts_13_IRQn\000"
 11751      696E7465 
 11751      72727570 
 11751      74735F31 
 11751      335F4952 
 11752              	.LASF471:
 11753 520f 43595F42 		.ascii	"CY_BLE_ERROR_CONTROLLER_BUSY\000"
 11753      4C455F45 
 11753      52524F52 
 11753      5F434F4E 
 11753      54524F4C 
 11754              	.LASF1146:
 11755 522c 43795F42 		.ascii	"Cy_BLE_GATTS_ExchangeMtuRsp\000"
 11755      4C455F47 
 11755      41545453 
 11755      5F457863 
 11755      68616E67 
 11756              	.LASF680:
 11757 5248 63795F73 		.ascii	"cy_stc_ble_gapp_disc_mode_info_t\000"
 11757      74635F62 
 11757      6C655F67 
 11757      6170705F 
 11757      64697363 
 11758              	.LASF1092:
 11759 5269 43795F42 		.ascii	"Cy_BLE_SetConnectionState\000"
 11759      4C455F53 
 11759      6574436F 
 11759      6E6E6563 
 11759      74696F6E 
 11760              	.LASF754:
 11761 5283 626F756E 		.ascii	"boundedDevCount\000"
 11761      64656444 
 11761      6576436F 
 11761      756E7400 
 11762              	.LASF510:
 11763 5293 72656173 		.ascii	"reasonCode\000"
 11763      6F6E436F 
 11763      646500
 11764              	.LASF840:
 11765 529e 43595F42 		.ascii	"CY_BLE_EVT_BCSC_WRITE_DESCR_RESPONSE\000"
 11765      4C455F45 
 11765      56545F42 
 11765      4353435F 
 11765      57524954 
 11766              	.LASF711:
 11767 52c3 736C6F77 		.ascii	"slowAdvIntervalMax\000"
 11767      41647649 
 11767      6E746572 
 11767      76616C4D 
 11767      617800
 11768              	.LASF768:
 11769 52d6 67617474 		.ascii	"gatts\000"
 11769      7300
 11770              	.LASF513:
ARM GAS  C:\Users\salaz\AppData\Local\Temp\ccj0QfQu.s 			page 292


 11771 52dc 63795F73 		.ascii	"cy_stc_ble_timeout_param_t\000"
 11771      74635F62 
 11771      6C655F74 
 11771      696D656F 
 11771      75745F70 
 11772              	.LASF124:
 11773 52f7 63707573 		.ascii	"cpuss_interrupts_dw1_0_IRQn\000"
 11773      735F696E 
 11773      74657272 
 11773      75707473 
 11773      5F647731 
 11774              	.LASF401:
 11775 5313 43595F42 		.ascii	"CY_BLE_EVT_GAP_GEN_SET_LOCAL_P256_KEYS_COMPLETE\000"
 11775      4C455F45 
 11775      56545F47 
 11775      41505F47 
 11775      454E5F53 
 11776              	.LASF439:
 11777 5343 43595F42 		.ascii	"CY_BLE_EVT_L2CAP_CBFC_RX_CREDIT_IND\000"
 11777      4C455F45 
 11777      56545F4C 
 11777      32434150 
 11777      5F434246 
 11778              	.LASF673:
 11779 5367 63795F73 		.ascii	"cy_stc_ble_gapp_disc_data_t\000"
 11779      74635F62 
 11779      6C655F67 
 11779      6170705F 
 11779      64697363 
 11780              	.LASF366:
 11781 5383 43595F42 		.ascii	"CY_BLE_EVT_SET_CLK_CONFIG_COMPLETE\000"
 11781      4C455F45 
 11781      56545F53 
 11781      45545F43 
 11781      4C4B5F43 
 11782              	.LASF271:
 11783 53a6 5055424C 		.ascii	"PUBLIC_KEY\000"
 11783      49435F4B 
 11783      455900
 11784              	.LASF438:
 11785 53b1 43595F42 		.ascii	"CY_BLE_EVT_L2CAP_CBFC_DATA_READ\000"
 11785      4C455F45 
 11785      56545F4C 
 11785      32434150 
 11785      5F434246 
 11786              	.LASF931:
 11787 53d1 43595F42 		.ascii	"CY_BLE_EVT_HIDSS_BOOT_MODE_ENTER\000"
 11787      4C455F45 
 11787      56545F48 
 11787      49445353 
 11787      5F424F4F 
 11788              	.LASF988:
 11789 53f2 43595F42 		.ascii	"CY_BLE_EVT_LNSS_WRITE_CHAR\000"
 11789      4C455F45 
 11789      56545F4C 
 11789      4E53535F 
 11789      57524954 
ARM GAS  C:\Users\salaz\AppData\Local\Temp\ccj0QfQu.s 			page 293


 11790              	.LASF1060:
 11791 540d 43595F42 		.ascii	"CY_BLE_EVT_WPTSS_INDICATION_CONFIRMED\000"
 11791      4C455F45 
 11791      56545F57 
 11791      50545353 
 11791      5F494E44 
 11792              	.LASF169:
 11793 5433 74637077 		.ascii	"tcpwm_1_interrupts_13_IRQn\000"
 11793      6D5F315F 
 11793      696E7465 
 11793      72727570 
 11793      74735F31 
 11794              	.LASF368:
 11795 544e 43595F42 		.ascii	"CY_BLE_EVT_AES_ENCRYPT_COMPLETE\000"
 11795      4C455F45 
 11795      56545F41 
 11795      45535F45 
 11795      4E435259 
 11796              	.LASF992:
 11797 546e 43595F42 		.ascii	"CY_BLE_EVT_LNSC_WRITE_CHAR_RESPONSE\000"
 11797      4C455F45 
 11797      56545F4C 
 11797      4E53435F 
 11797      57524954 
 11798              	.LASF319:
 11799 5492 53464C41 		.ascii	"SFLASH_Type\000"
 11799      53485F54 
 11799      79706500 
 11800              	.LASF751:
 11801 549e 73746163 		.ascii	"stackFlashptr\000"
 11801      6B466C61 
 11801      73687074 
 11801      7200
 11802              	.LASF671:
 11803 54ac 61647644 		.ascii	"advData\000"
 11803      61746100 
 11804              	.LASF1082:
 11805 54b4 43595F42 		.ascii	"CY_BLE_EVT_GATTC_DISC_INCL\000"
 11805      4C455F45 
 11805      56545F47 
 11805      41545443 
 11805      5F444953 
 11806              	.LASF551:
 11807 54cf 43595F42 		.ascii	"CY_BLE_GATT_ERR_INVALID_OFFSET\000"
 11807      4C455F47 
 11807      4154545F 
 11807      4552525F 
 11807      494E5641 
 11808              	.LASF667:
 11809 54ee 64697265 		.ascii	"directAddr\000"
 11809      63744164 
 11809      647200
 11810              	.LASF1013:
 11811 54f9 43595F42 		.ascii	"CY_BLE_EVT_PLXSC_READ_DESCR_RESPONSE\000"
 11811      4C455F45 
 11811      56545F50 
 11811      4C585343 
ARM GAS  C:\Users\salaz\AppData\Local\Temp\ccj0QfQu.s 			page 294


 11811      5F524541 
 11812              	.LASF619:
 11813 551e 43595F42 		.ascii	"CY_BLE_GAP_AUTH_ERROR_NUMERIC_COMPARISON_FAILED\000"
 11813      4C455F47 
 11813      41505F41 
 11813      5554485F 
 11813      4552524F 
 11814              	.LASF5:
 11815 554e 73686F72 		.ascii	"short int\000"
 11815      7420696E 
 11815      7400
 11816              	.LASF98:
 11817 5558 63707573 		.ascii	"cpuss_interrupts_ipc_15_IRQn\000"
 11817      735F696E 
 11817      74657272 
 11817      75707473 
 11817      5F697063 
 11818              	.LASF815:
 11819 5575 43595F42 		.ascii	"CY_BLE_EVT_ANCSC_NOTIFICATION\000"
 11819      4C455F45 
 11819      56545F41 
 11819      4E435343 
 11819      5F4E4F54 
 11820              	.LASF1126:
 11821 5593 63795F62 		.ascii	"cy_ble_devConnRole\000"
 11821      6C655F64 
 11821      6576436F 
 11821      6E6E526F 
 11821      6C6500
 11822              	.LASF789:
 11823 55a6 43595F42 		.ascii	"CY_BLE_EVT_GATTC_DESCR_DISCOVERY_FAILED\000"
 11823      4C455F45 
 11823      56545F47 
 11823      41545443 
 11823      5F444553 
 11824              	.LASF287:
 11825 55ce 52544F43 		.ascii	"RTOC1_SFLASH_GENERAL_TRIM_ADDR\000"
 11825      315F5346 
 11825      4C415348 
 11825      5F47454E 
 11825      4552414C 
 11826              	.LASF229:
 11827 55ed 4C444F5F 		.ascii	"LDO_1P1V_TRIM\000"
 11827      31503156 
 11827      5F545249 
 11827      4D00
 11828              	.LASF36:
 11829 55fb 4E766963 		.ascii	"NvicMux12_IRQn\000"
 11829      4D757831 
 11829      325F4952 
 11829      516E00
 11830              	.LASF880:
 11831 560a 43595F42 		.ascii	"CY_BLE_EVT_CPSC_WRITE_DESCR_RESPONSE\000"
 11831      4C455F45 
 11831      56545F43 
 11831      5053435F 
 11831      57524954 
ARM GAS  C:\Users\salaz\AppData\Local\Temp\ccj0QfQu.s 			page 295


 11832              	.LASF207:
 11833 562f 52455345 		.ascii	"RESERVED\000"
 11833      52564544 
 11833      00
 11834              	.LASF962:
 11835 5638 43595F42 		.ascii	"CY_BLE_EVT_HTSS_WRITE_CHAR\000"
 11835      4C455F45 
 11835      56545F48 
 11835      5453535F 
 11835      57524954 
 11836              	.LASF522:
 11837 5653 43595F42 		.ascii	"CY_BLE_GATT_READ_BY_TYPE_RSP\000"
 11837      4C455F47 
 11837      4154545F 
 11837      52454144 
 11837      5F42595F 
 11838              	.LASF970:
 11839 5670 43595F42 		.ascii	"CY_BLE_EVT_IPSS_READ_CHAR\000"
 11839      4C455F45 
 11839      56545F49 
 11839      5053535F 
 11839      52454144 
 11840              	.LASF446:
 11841 568a 43595F42 		.ascii	"CY_BLE_ERROR_INVALID_PARAMETER\000"
 11841      4C455F45 
 11841      52524F52 
 11841      5F494E56 
 11841      414C4944 
 11842              	.LASF981:
 11843 56a9 43595F42 		.ascii	"CY_BLE_EVT_LLSC_READ_CHAR_RESPONSE\000"
 11843      4C455F45 
 11843      56545F4C 
 11843      4C53435F 
 11843      52454144 
 11844              	.LASF109:
 11845 56cc 63707573 		.ascii	"cpuss_interrupts_dw0_1_IRQn\000"
 11845      735F696E 
 11845      74657272 
 11845      75707473 
 11845      5F647730 
 11846              	.LASF606:
 11847 56e8 63795F65 		.ascii	"cy_en_ble_gap_iocap_t\000"
 11847      6E5F626C 
 11847      655F6761 
 11847      705F696F 
 11847      6361705F 
 11848              	.LASF622:
 11849 56fe 43595F42 		.ascii	"CY_BLE_GAP_AUTH_ERROR_AUTHENTICATION_TIMEOUT\000"
 11849      4C455F47 
 11849      41505F41 
 11849      5554485F 
 11849      4552524F 
 11850              	.LASF998:
 11851 572b 43595F42 		.ascii	"CY_BLE_EVT_PASSS_WRITE_CHAR\000"
 11851      4C455F45 
 11851      56545F50 
 11851      41535353 
ARM GAS  C:\Users\salaz\AppData\Local\Temp\ccj0QfQu.s 			page 296


 11851      5F575249 
 11852              	.LASF1015:
 11853 5747 43595F42 		.ascii	"CY_BLE_EVT_PLXSC_TIMEOUT\000"
 11853      4C455F45 
 11853      56545F50 
 11853      4C585343 
 11853      5F54494D 
 11854              	.LASF776:
 11855 5760 626C6573 		.ascii	"blessIsrConfig\000"
 11855      73497372 
 11855      436F6E66 
 11855      696700
 11856              	.LASF300:
 11857 576f 544F4332 		.ascii	"TOC2_SECOND_USER_APP_FORMAT\000"
 11857      5F534543 
 11857      4F4E445F 
 11857      55534552 
 11857      5F415050 
 11858              	.LASF467:
 11859 578b 43595F42 		.ascii	"CY_BLE_ERROR_GATT_DB_INVALID_ATTR_HANDLE\000"
 11859      4C455F45 
 11859      52524F52 
 11859      5F474154 
 11859      545F4442 
 11860              	.LASF240:
 11861 57b4 5354414E 		.ascii	"STANDARD_SMPU_STRUCT_MASTER_ATTR\000"
 11861      44415244 
 11861      5F534D50 
 11861      555F5354 
 11861      52554354 
 11862              	.LASF555:
 11863 57d5 43595F42 		.ascii	"CY_BLE_GATT_ERR_ATTRIBUTE_NOT_LONG\000"
 11863      4C455F47 
 11863      4154545F 
 11863      4552525F 
 11863      41545452 
 11864              	.LASF237:
 11865 57f8 4D415354 		.ascii	"MASTER_KEY\000"
 11865      45525F4B 
 11865      455900
 11866              	.LASF760:
 11867 5803 73696C69 		.ascii	"siliconDeviceAddressEnabled\000"
 11867      636F6E44 
 11867      65766963 
 11867      65416464 
 11867      72657373 
 11868              	.LASF695:
 11869 581f 43595F42 		.ascii	"CY_BLE_CONN_STATE_CLIENT_CHAR_DISCOVERING\000"
 11869      4C455F43 
 11869      4F4E4E5F 
 11869      53544154 
 11869      455F434C 
 11870              	.LASF141:
 11871 5849 63707573 		.ascii	"cpuss_interrupts_fault_1_IRQn\000"
 11871      735F696E 
 11871      74657272 
 11871      75707473 
ARM GAS  C:\Users\salaz\AppData\Local\Temp\ccj0QfQu.s 			page 297


 11871      5F666175 
 11872              	.LASF980:
 11873 5867 43595F42 		.ascii	"CY_BLE_EVT_LLSS_WRITE_CHAR_REQ\000"
 11873      4C455F45 
 11873      56545F4C 
 11873      4C53535F 
 11873      57524954 
 11874              	.LASF84:
 11875 5886 63707573 		.ascii	"cpuss_interrupts_ipc_1_IRQn\000"
 11875      735F696E 
 11875      74657272 
 11875      75707473 
 11875      5F697063 
 11876              	.LASF583:
 11877 58a2 63795F62 		.ascii	"cy_ble_gatt_db_attr_handle_t\000"
 11877      6C655F67 
 11877      6174745F 
 11877      64625F61 
 11877      7474725F 
 11878              	.LASF143:
 11879 58bf 63707573 		.ascii	"cpuss_interrupt_fm_IRQn\000"
 11879      735F696E 
 11879      74657272 
 11879      7570745F 
 11879      666D5F49 
 11880              	.LASF525:
 11881 58d7 43595F42 		.ascii	"CY_BLE_GATT_READ_BLOB_REQ\000"
 11881      4C455F47 
 11881      4154545F 
 11881      52454144 
 11881      5F424C4F 
 11882              	.LASF561:
 11883 58f1 43595F42 		.ascii	"CY_BLE_GATT_ERR_INSUFFICIENT_RESOURCE\000"
 11883      4C455F47 
 11883      4154545F 
 11883      4552525F 
 11883      494E5355 
 11884              	.LASF190:
 11885 5917 7564625F 		.ascii	"udb_interrupts_10_IRQn\000"
 11885      696E7465 
 11885      72727570 
 11885      74735F31 
 11885      305F4952 
 11886              	.LASF781:
 11887 592e 43595F42 		.ascii	"CY_BLE_KEY_EXCHANGE_INFO_REQUEST_REPLY\000"
 11887      4C455F4B 
 11887      45595F45 
 11887      58434841 
 11887      4E47455F 
 11888              	.LASF306:
 11889 5955 52544F43 		.ascii	"RTOC2_OBJECT_SIZE\000"
 11889      325F4F42 
 11889      4A454354 
 11889      5F53495A 
 11889      4500
 11890              	.LASF940:
 11891 5967 43595F42 		.ascii	"CY_BLE_EVT_HIDSC_WRITE_DESCR_RESPONSE\000"
ARM GAS  C:\Users\salaz\AppData\Local\Temp\ccj0QfQu.s 			page 298


 11891      4C455F45 
 11891      56545F48 
 11891      49445343 
 11891      5F575249 
 11892              	.LASF381:
 11893 598d 43595F42 		.ascii	"CY_BLE_EVT_GAP_PASSKEY_ENTRY_REQUEST\000"
 11893      4C455F45 
 11893      56545F47 
 11893      41505F50 
 11893      4153534B 
 11894              	.LASF203:
 11895 59b2 7573625F 		.ascii	"usb_interrupt_lo_IRQn\000"
 11895      696E7465 
 11895      72727570 
 11895      745F6C6F 
 11895      5F495251 
 11896              	.LASF9:
 11897 59c8 6C6F6E67 		.ascii	"long int\000"
 11897      20696E74 
 11897      00
 11898              	.LASF710:
 11899 59d1 736C6F77 		.ascii	"slowAdvIntervalMin\000"
 11899      41647649 
 11899      6E746572 
 11899      76616C4D 
 11899      696E00
 11900              	.LASF437:
 11901 59e4 43595F42 		.ascii	"CY_BLE_EVT_L2CAP_CBFC_DISCONN_CNF\000"
 11901      4C455F45 
 11901      56545F4C 
 11901      32434150 
 11901      5F434246 
 11902              	.LASF806:
 11903 5a06 43595F42 		.ascii	"CY_BLE_EVT_AIOSC_INDICATION\000"
 11903      4C455F45 
 11903      56545F41 
 11903      494F5343 
 11903      5F494E44 
 11904              	.LASF378:
 11905 5a22 43595F42 		.ascii	"CY_BLE_EVT_SET_CONN_PRIORITY_COMPLETE\000"
 11905      4C455F45 
 11905      56545F53 
 11905      45545F43 
 11905      4F4E4E5F 
 11906              	.LASF679:
 11907 5a48 61647654 		.ascii	"advTo\000"
 11907      6F00
 11908              	.LASF720:
 11909 5a4e 736C6F77 		.ascii	"slowScanTimeOut\000"
 11909      5363616E 
 11909      54696D65 
 11909      4F757400 
 11910              	.LASF1121:
 11911 5a5e 63795F62 		.ascii	"cy_ble_state\000"
 11911      6C655F73 
 11911      74617465 
 11911      00
ARM GAS  C:\Users\salaz\AppData\Local\Temp\ccj0QfQu.s 			page 299


 11912              	.LASF494:
 11913 5a6b 43595F42 		.ascii	"CY_BLE_PREPARED_WRITE_REQUEST\000"
 11913      4C455F50 
 11913      52455041 
 11913      5245445F 
 11913      57524954 
 11914              	.LASF166:
 11915 5a89 74637077 		.ascii	"tcpwm_1_interrupts_10_IRQn\000"
 11915      6D5F315F 
 11915      696E7465 
 11915      72727570 
 11915      74735F31 
 11916              	.LASF862:
 11917 5aa4 43595F42 		.ascii	"CY_BLE_EVT_CGMSC_NOTIFICATION\000"
 11917      4C455F45 
 11917      56545F43 
 11917      474D5343 
 11917      5F4E4F54 
 11918              	.LASF1007:
 11919 5ac2 43595F42 		.ascii	"CY_BLE_EVT_PLXSS_NOTIFICATION_DISABLED\000"
 11919      4C455F45 
 11919      56545F50 
 11919      4C585353 
 11919      5F4E4F54 
 11920              	.LASF700:
 11921 5ae9 64657669 		.ascii	"deviceNameCharHandle\000"
 11921      63654E61 
 11921      6D654368 
 11921      61724861 
 11921      6E646C65 
 11922              	.LASF65:
 11923 5afe 696F7373 		.ascii	"ioss_interrupts_gpio_7_IRQn\000"
 11923      5F696E74 
 11923      65727275 
 11923      7074735F 
 11923      6770696F 
 11924              	.LASF1090:
 11925 5b1a 73746174 		.ascii	"state\000"
 11925      6500
 11926              	.LASF301:
 11927 5b20 544F4332 		.ascii	"TOC2_SHASH_OBJECTS\000"
 11927      5F534841 
 11927      53485F4F 
 11927      424A4543 
 11927      545300
 11928              	.LASF629:
 11929 5b33 63795F65 		.ascii	"cy_en_ble_gap_adv_addr_type_t\000"
 11929      6E5F626C 
 11929      655F6761 
 11929      705F6164 
 11929      765F6164 
 11930              	.LASF1138:
 11931 5b51 43795F42 		.ascii	"Cy_BLE_GATTS_ErrorRsp\000"
 11931      4C455F47 
 11931      41545453 
 11931      5F457272 
 11931      6F725273 
ARM GAS  C:\Users\salaz\AppData\Local\Temp\ccj0QfQu.s 			page 300


 11932              	.LASF901:
 11933 5b67 43595F42 		.ascii	"CY_BLE_EVT_CTSC_WRITE_DESCR_RESPONSE\000"
 11933      4C455F45 
 11933      56545F43 
 11933      5453435F 
 11933      57524954 
 11934              	.LASF95:
 11935 5b8c 63707573 		.ascii	"cpuss_interrupts_ipc_12_IRQn\000"
 11935      735F696E 
 11935      74657272 
 11935      75707473 
 11935      5F697063 
 11936              	.LASF699:
 11937 5ba9 73657276 		.ascii	"serviceHandle\000"
 11937      69636548 
 11937      616E646C 
 11937      6500
 11938              	.LASF165:
 11939 5bb7 74637077 		.ascii	"tcpwm_1_interrupts_9_IRQn\000"
 11939      6D5F315F 
 11939      696E7465 
 11939      72727570 
 11939      74735F39 
 11940              	.LASF1006:
 11941 5bd1 43595F42 		.ascii	"CY_BLE_EVT_PLXSS_NOTIFICATION_ENABLED\000"
 11941      4C455F45 
 11941      56545F50 
 11941      4C585353 
 11941      5F4E4F54 
 11942              	.LASF463:
 11943 5bf7 43595F42 		.ascii	"CY_BLE_ERROR_FLASH_WRITE_NOT_PERMITED\000"
 11943      4C455F45 
 11943      52524F52 
 11943      5F464C41 
 11943      53485F57 
 11944              	.LASF1149:
 11945 5c1d 43795F42 		.ascii	"Cy_BLE_ChangeAdDeviceAddress\000"
 11945      4C455F43 
 11945      68616E67 
 11945      65416444 
 11945      65766963 
 11946              	.LASF13:
 11947 5c3a 73697A65 		.ascii	"sizetype\000"
 11947      74797065 
 11947      00
 11948              	.LASF231:
 11949 5c43 424C455F 		.ascii	"BLE_DEVICE_ADDRESS\000"
 11949      44455649 
 11949      43455F41 
 11949      44445245 
 11949      535300
 11950              	.LASF1099:
 11951 5c56 43795F42 		.ascii	"Cy_BLE_RegisterServiceEventHandler\000"
 11951      4C455F52 
 11951      65676973 
 11951      74657253 
 11951      65727669 
ARM GAS  C:\Users\salaz\AppData\Local\Temp\ccj0QfQu.s 			page 301


 11952              	.LASF722:
 11953 5c79 67617063 		.ascii	"gapcConnectionIntervalMax\000"
 11953      436F6E6E 
 11953      65637469 
 11953      6F6E496E 
 11953      74657276 
 11954              	.LASF1118:
 11955 5c93 6D747550 		.ascii	"mtuParam\000"
 11955      6172616D 
 11955      00
 11956              	.LASF121:
 11957 5c9c 63707573 		.ascii	"cpuss_interrupts_dw0_13_IRQn\000"
 11957      735F696E 
 11957      74657272 
 11957      75707473 
 11957      5F647730 
 11958              	.LASF443:
 11959 5cb9 63795F65 		.ascii	"cy_en_ble_event_t\000"
 11959      6E5F626C 
 11959      655F6576 
 11959      656E745F 
 11959      7400
 11960              	.LASF582:
 11961 5ccb 63795F65 		.ascii	"cy_en_ble_gatt_err_code_t\000"
 11961      6E5F626C 
 11961      655F6761 
 11961      74745F65 
 11961      72725F63 
 11962              	.LASF972:
 11963 5ce5 43595F42 		.ascii	"CY_BLE_EVT_IPSS_WRITE_CHAR_CMD\000"
 11963      4C455F45 
 11963      56545F49 
 11963      5053535F 
 11963      57524954 
 11964              	.LASF686:
 11965 5d04 43595F42 		.ascii	"CY_BLE_ADV_STATE_ADV_INITIATED\000"
 11965      4C455F41 
 11965      44565F53 
 11965      54415445 
 11965      5F414456 
 11966              	.LASF410:
 11967 5d23 43595F42 		.ascii	"CY_BLE_EVT_GATTC_XCHNG_MTU_RSP\000"
 11967      4C455F45 
 11967      56545F47 
 11967      41545443 
 11967      5F584348 
 11968              	.LASF692:
 11969 5d42 43595F42 		.ascii	"CY_BLE_CONN_STATE_CONNECTED\000"
 11969      4C455F43 
 11969      4F4E4E5F 
 11969      53544154 
 11969      455F434F 
 11970              	.LASF473:
 11971 5d5e 43595F42 		.ascii	"CY_BLE_ERROR_MAX\000"
 11971      4C455F45 
 11971      52524F52 
 11971      5F4D4158 
ARM GAS  C:\Users\salaz\AppData\Local\Temp\ccj0QfQu.s 			page 302


 11971      00
 11972              	.LASF388:
 11973 5d6f 43595F42 		.ascii	"CY_BLE_EVT_GAP_ENCRYPT_CHANGE\000"
 11973      4C455F45 
 11973      56545F47 
 11973      41505F45 
 11973      4E435259 
 11974              	.LASF503:
 11975 5d8d 70777243 		.ascii	"pwrConfigParam\000"
 11975      6F6E6669 
 11975      67506172 
 11975      616D00
 11976              	.LASF211:
 11977 5d9c 46414D49 		.ascii	"FAMILY_ID\000"
 11977      4C595F49 
 11977      4400
 11978              	.LASF153:
 11979 5da6 74637077 		.ascii	"tcpwm_0_interrupts_5_IRQn\000"
 11979      6D5F305F 
 11979      696E7465 
 11979      72727570 
 11979      74735F35 
 11980              	.LASF285:
 11981 5dc0 52544F43 		.ascii	"RTOC1_MAGIC_NUMBER\000"
 11981      315F4D41 
 11981      4749435F 
 11981      4E554D42 
 11981      455200
 11982              	.LASF826:
 11983 5dd3 43595F42 		.ascii	"CY_BLE_EVT_ANSC_READ_DESCR_RESPONSE\000"
 11983      4C455F45 
 11983      56545F41 
 11983      4E53435F 
 11983      52454144 
 11984              	.LASF286:
 11985 5df7 52544F43 		.ascii	"RTOC1_FHASH_OBJECTS\000"
 11985      315F4648 
 11985      4153485F 
 11985      4F424A45 
 11985      43545300 
 11986              	.LASF444:
 11987 5e0b 43595F42 		.ascii	"CY_BLE_SUCCESS\000"
 11987      4C455F53 
 11987      55434345 
 11987      535300
 11988              	.LASF618:
 11989 5e1a 43595F42 		.ascii	"CY_BLE_GAP_AUTH_ERROR_DHKEY_CHECK_FAILED\000"
 11989      4C455F47 
 11989      41505F41 
 11989      5554485F 
 11989      4552524F 
 11990              	.LASF693:
 11991 5e43 43595F42 		.ascii	"CY_BLE_CONN_STATE_CLIENT_SRVC_DISCOVERING\000"
 11991      4C455F43 
 11991      4F4E4E5F 
 11991      53544154 
 11991      455F434C 
ARM GAS  C:\Users\salaz\AppData\Local\Temp\ccj0QfQu.s 			page 303


 11992              	.LASF57:
 11993 5e6d 4952516E 		.ascii	"IRQn_Type\000"
 11993      5F547970 
 11993      6500
 11994              	.LASF349:
 11995 5e77 43595F42 		.ascii	"CY_BLE_EVT_ADD_DEVICE_TO_RPA_LIST_COMPLETE\000"
 11995      4C455F45 
 11995      56545F41 
 11995      44445F44 
 11995      45564943 
 11996              	.LASF791:
 11997 5ea2 43595F42 		.ascii	"CY_BLE_EVT_GATTC_CHAR_DUPLICATION\000"
 11997      4C455F45 
 11997      56545F47 
 11997      41545443 
 11997      5F434841 
 11998              	.LASF1018:
 11999 5ec4 43595F42 		.ascii	"CY_BLE_EVT_RSCSS_INDICATION_ENABLED\000"
 11999      4C455F45 
 11999      56545F52 
 11999      53435353 
 11999      5F494E44 
 12000              	.LASF479:
 12001 5ee8 43595F42 		.ascii	"CY_BLE_LL_PWR_LVL_NEG_16_DBM\000"
 12001      4C455F4C 
 12001      4C5F5057 
 12001      525F4C56 
 12001      4C5F4E45 
 12002              	.LASF372:
 12003 5f05 43595F42 		.ascii	"CY_BLE_EVT_STACK_SHUTDOWN_COMPLETE\000"
 12003      4C455F45 
 12003      56545F53 
 12003      5441434B 
 12003      5F534855 
 12004              	.LASF188:
 12005 5f28 7564625F 		.ascii	"udb_interrupts_8_IRQn\000"
 12005      696E7465 
 12005      72727570 
 12005      74735F38 
 12005      5F495251 
 12006              	.LASF460:
 12007 5f3e 43595F42 		.ascii	"CY_BLE_ERROR_L2CAP_CONNECTION_ENTITY_NOT_FOUND\000"
 12007      4C455F45 
 12007      52524F52 
 12007      5F4C3243 
 12007      41505F43 
 12008              	.LASF1115:
 12009 5f6d 74457650 		.ascii	"tEvParam\000"
 12009      6172616D 
 12009      00
 12010              	.LASF470:
 12011 5f76 43595F42 		.ascii	"CY_BLE_ERROR_CHAR_IS_NOT_DISCOVERED\000"
 12011      4C455F45 
 12011      52524F52 
 12011      5F434841 
 12011      525F4953 
 12012              	.LASF849:
ARM GAS  C:\Users\salaz\AppData\Local\Temp\ccj0QfQu.s 			page 304


 12013 5f9a 43595F42 		.ascii	"CY_BLE_EVT_BLSC_READ_DESCR_RESPONSE\000"
 12013      4C455F45 
 12013      56545F42 
 12013      4C53435F 
 12013      52454144 
 12014              	.LASF391:
 12015 5fbe 43595F42 		.ascii	"CY_BLE_EVT_GAP_KEYINFO_EXCHNGE_CMPLT\000"
 12015      4C455F45 
 12015      56545F47 
 12015      41505F4B 
 12015      4559494E 
 12016              	.LASF907:
 12017 5fe3 43595F42 		.ascii	"CY_BLE_EVT_ESSS_INDICATION_DISABLED\000"
 12017      4C455F45 
 12017      56545F45 
 12017      5353535F 
 12017      494E4449 
 12018              	.LASF53:
 12019 6007 4E766963 		.ascii	"NvicMux29_IRQn\000"
 12019      4D757832 
 12019      395F4952 
 12019      516E00
 12020              	.LASF587:
 12021 6016 61747472 		.ascii	"attrHandle\000"
 12021      48616E64 
 12021      6C6500
 12022              	.LASF824:
 12023 6021 43595F42 		.ascii	"CY_BLE_EVT_ANSC_READ_CHAR_RESPONSE\000"
 12023      4C455F45 
 12023      56545F41 
 12023      4E53435F 
 12023      52454144 
 12024              	.LASF724:
 12025 6044 67617063 		.ascii	"gapcConnectionTimeOut\000"
 12025      436F6E6E 
 12025      65637469 
 12025      6F6E5469 
 12025      6D654F75 
 12026              	.LASF139:
 12027 605a 63707573 		.ascii	"cpuss_interrupts_dw1_15_IRQn\000"
 12027      735F696E 
 12027      74657272 
 12027      75707473 
 12027      5F647731 
 12028              	.LASF696:
 12029 6077 43595F42 		.ascii	"CY_BLE_CONN_STATE_CLIENT_DESCR_DISCOVERING\000"
 12029      4C455F43 
 12029      4F4E4E5F 
 12029      53544154 
 12029      455F434C 
 12030              	.LASF92:
 12031 60a2 63707573 		.ascii	"cpuss_interrupts_ipc_9_IRQn\000"
 12031      735F696E 
 12031      74657272 
 12031      75707473 
 12031      5F697063 
 12032              	.LASF62:
ARM GAS  C:\Users\salaz\AppData\Local\Temp\ccj0QfQu.s 			page 305


 12033 60be 696F7373 		.ascii	"ioss_interrupts_gpio_4_IRQn\000"
 12033      5F696E74 
 12033      65727275 
 12033      7074735F 
 12033      6770696F 
 12034              	.LASF1101:
 12035 60da 6576656E 		.ascii	"eventCode\000"
 12035      74436F64 
 12035      6500
 12036              	.LASF1001:
 12037 60e4 43595F42 		.ascii	"CY_BLE_EVT_PASSC_READ_DESCR_RESPONSE\000"
 12037      4C455F45 
 12037      56545F50 
 12037      41535343 
 12037      5F524541 
 12038              	.LASF31:
 12039 6109 4E766963 		.ascii	"NvicMux7_IRQn\000"
 12039      4D757837 
 12039      5F495251 
 12039      6E00
 12040              	.LASF426:
 12041 6117 43595F42 		.ascii	"CY_BLE_EVT_GATTS_HANDLE_VALUE_CNF\000"
 12041      4C455F45 
 12041      56545F47 
 12041      41545453 
 12041      5F48414E 
 12042              	.LASF669:
 12043 6139 61647646 		.ascii	"advFilterPolicy\000"
 12043      696C7465 
 12043      72506F6C 
 12043      69637900 
 12044              	.LASF603:
 12045 6149 43595F42 		.ascii	"CY_BLE_GAP_IOCAP_KEYBOARD_ONLY\000"
 12045      4C455F47 
 12045      41505F49 
 12045      4F434150 
 12045      5F4B4559 
 12046              	.LASF311:
 12047 6168 52544F43 		.ascii	"RTOC2_FIRST_USER_APP_FORMAT\000"
 12047      325F4649 
 12047      5253545F 
 12047      55534552 
 12047      5F415050 
 12048              	.LASF1089:
 12049 6184 63795F73 		.ascii	"cy_stc_ble_event_handler_t\000"
 12049      74635F62 
 12049      6C655F65 
 12049      76656E74 
 12049      5F68616E 
 12050              	.LASF534:
 12051 619f 43595F42 		.ascii	"CY_BLE_GATT_PREPARE_WRITE_REQ\000"
 12051      4C455F47 
 12051      4154545F 
 12051      50524550 
 12051      4152455F 
 12052              	.LASF1109:
 12053 61bd 62644164 		.ascii	"bdAddrLoc\000"
ARM GAS  C:\Users\salaz\AppData\Local\Temp\ccj0QfQu.s 			page 306


 12053      64724C6F 
 12053      6300
 12054              	.LASF778:
 12055 61c7 43595F42 		.ascii	"CY_BLE_AUTHENTICATION_REQUEST_REPLY\000"
 12055      4C455F41 
 12055      55544845 
 12055      4E544943 
 12055      4154494F 
 12056              	.LASF162:
 12057 61eb 74637077 		.ascii	"tcpwm_1_interrupts_6_IRQn\000"
 12057      6D5F315F 
 12057      696E7465 
 12057      72727570 
 12057      74735F36 
 12058              	.LASF221:
 12059 6205 4449455F 		.ascii	"DIE_YEAR\000"
 12059      59454152 
 12059      00
 12060              	.LASF1032:
 12061 620e 43595F42 		.ascii	"CY_BLE_EVT_SCPSS_SCAN_INT_WIN_WRITE_CHAR\000"
 12061      4C455F45 
 12061      56545F53 
 12061      43505353 
 12061      5F534341 
 12062              	.LASF3:
 12063 6237 7369676E 		.ascii	"signed char\000"
 12063      65642063 
 12063      68617200 
 12064              	.LASF324:
 12065 6243 636D3070 		.ascii	"cm0pSrc\000"
 12065      53726300 
 12066              	.LASF487:
 12067 624b 43595F42 		.ascii	"CY_BLE_LL_MAX_CH_TYPE\000"
 12067      4C455F4C 
 12067      4C5F4D41 
 12067      585F4348 
 12067      5F545950 
 12068              	.LASF568:
 12069 6261 43595F42 		.ascii	"CY_BLE_GATT_ERR_MISSING_CRC\000"
 12069      4C455F47 
 12069      4154545F 
 12069      4552525F 
 12069      4D495353 
 12070              	.LASF447:
 12071 627d 43595F42 		.ascii	"CY_BLE_ERROR_INVALID_OPERATION\000"
 12071      4C455F45 
 12071      52524F52 
 12071      5F494E56 
 12071      414C4944 
 12072              	.LASF1136:
 12073 629c 63795F62 		.ascii	"cy_ble_cmdStatus\000"
 12073      6C655F63 
 12073      6D645374 
 12073      61747573 
 12073      00
 12074              	.LASF820:
 12075 62ad 43595F42 		.ascii	"CY_BLE_EVT_ANSS_NOTIFICATION_ENABLED\000"
ARM GAS  C:\Users\salaz\AppData\Local\Temp\ccj0QfQu.s 			page 307


 12075      4C455F45 
 12075      56545F41 
 12075      4E53535F 
 12075      4E4F5449 
 12076              	.LASF275:
 12077 62d2 544F4331 		.ascii	"TOC1_MAGIC_NUMBER\000"
 12077      5F4D4147 
 12077      49435F4E 
 12077      554D4245 
 12077      5200
 12078              	.LASF541:
 12079 62e4 43595F42 		.ascii	"CY_BLE_GATT_SIGNED_WRITE_CMD\000"
 12079      4C455F47 
 12079      4154545F 
 12079      5349474E 
 12079      45445F57 
 12080              	.LASF72:
 12081 6301 696F7373 		.ascii	"ioss_interrupts_gpio_14_IRQn\000"
 12081      5F696E74 
 12081      65727275 
 12081      7074735F 
 12081      6770696F 
 12082              	.LASF292:
 12083 631e 52544F43 		.ascii	"RTOC1_CRC_ADDR\000"
 12083      315F4352 
 12083      435F4144 
 12083      445200
 12084              	.LASF565:
 12085 632d 43595F42 		.ascii	"CY_BLE_GATT_ERR_HTS_OUT_OF_RANGE\000"
 12085      4C455F47 
 12085      4154545F 
 12085      4552525F 
 12085      4854535F 
 12086              	.LASF1052:
 12087 634e 43595F42 		.ascii	"CY_BLE_EVT_UDSC_WRITE_CHAR_RESPONSE\000"
 12087      4C455F45 
 12087      56545F55 
 12087      4453435F 
 12087      57524954 
 12088              	.LASF1037:
 12089 6372 43595F42 		.ascii	"CY_BLE_EVT_TPSS_NOTIFICATION_DISABLED\000"
 12089      4C455F45 
 12089      56545F54 
 12089      5053535F 
 12089      4E4F5449 
 12090              	.LASF118:
 12091 6398 63707573 		.ascii	"cpuss_interrupts_dw0_10_IRQn\000"
 12091      735F696E 
 12091      74657272 
 12091      75707473 
 12091      5F647730 
 12092              	.LASF526:
 12093 63b5 43595F42 		.ascii	"CY_BLE_GATT_READ_BLOB_RSP\000"
 12093      4C455F47 
 12093      4154545F 
 12093      52454144 
 12093      5F424C4F 
ARM GAS  C:\Users\salaz\AppData\Local\Temp\ccj0QfQu.s 			page 308


 12094              	.LASF552:
 12095 63cf 43595F42 		.ascii	"CY_BLE_GATT_ERR_INSUFFICIENT_AUTHORIZATION\000"
 12095      4C455F47 
 12095      4154545F 
 12095      4552525F 
 12095      494E5355 
 12096              	.LASF588:
 12097 63fa 63795F73 		.ascii	"cy_stc_ble_gatt_handle_value_pair_t\000"
 12097      74635F62 
 12097      6C655F67 
 12097      6174745F 
 12097      68616E64 
 12098              	.LASF804:
 12099 641e 43595F42 		.ascii	"CY_BLE_EVT_AIOSS_DESCR_WRITE\000"
 12099      4C455F45 
 12099      56545F41 
 12099      494F5353 
 12099      5F444553 
 12100              	.LASF709:
 12101 643b 736C6F77 		.ascii	"slowAdvEnable\000"
 12101      41647645 
 12101      6E61626C 
 12101      6500
 12102              	.LASF1026:
 12103 6449 43595F42 		.ascii	"CY_BLE_EVT_RSCSC_READ_DESCR_RESPONSE\000"
 12103      4C455F45 
 12103      56545F52 
 12103      53435343 
 12103      5F524541 
 12104              	.LASF989:
 12105 646e 43595F42 		.ascii	"CY_BLE_EVT_LNSC_INDICATION\000"
 12105      4C455F45 
 12105      56545F4C 
 12105      4E53435F 
 12105      494E4449 
 12106              	.LASF150:
 12107 6489 74637077 		.ascii	"tcpwm_0_interrupts_2_IRQn\000"
 12107      6D5F305F 
 12107      696E7465 
 12107      72727570 
 12107      74735F32 
 12108              	.LASF424:
 12109 64a3 43595F42 		.ascii	"CY_BLE_EVT_GATTC_HANDLE_VALUE_NTF\000"
 12109      4C455F45 
 12109      56545F47 
 12109      41545443 
 12109      5F48414E 
 12110              	.LASF923:
 12111 64c5 43595F42 		.ascii	"CY_BLE_EVT_GLSC_INDICATION\000"
 12111      4C455F45 
 12111      56545F47 
 12111      4C53435F 
 12111      494E4449 
 12112              	.LASF199:
 12113 64e0 70726F66 		.ascii	"profile_interrupt_IRQn\000"
 12113      696C655F 
 12113      696E7465 
ARM GAS  C:\Users\salaz\AppData\Local\Temp\ccj0QfQu.s 			page 309


 12113      72727570 
 12113      745F4952 
 12114              	.LASF899:
 12115 64f7 43595F42 		.ascii	"CY_BLE_EVT_CTSC_READ_CHAR_RESPONSE\000"
 12115      4C455F45 
 12115      56545F43 
 12115      5453435F 
 12115      52454144 
 12116              	.LASF1021:
 12117 651a 43595F42 		.ascii	"CY_BLE_EVT_RSCSS_WRITE_CHAR\000"
 12117      4C455F45 
 12117      56545F52 
 12117      53435353 
 12117      5F575249 
 12118              	.LASF967:
 12119 6536 43595F42 		.ascii	"CY_BLE_EVT_HTSC_READ_DESCR_RESPONSE\000"
 12119      4C455F45 
 12119      56545F48 
 12119      5453435F 
 12119      52454144 
 12120              	.LASF370:
 12121 655a 43595F42 		.ascii	"CY_BLE_EVT_AES_CCM_DECRYPT_COMPLETE\000"
 12121      4C455F45 
 12121      56545F41 
 12121      45535F43 
 12121      434D5F44 
 12122              	.LASF734:
 12123 657e 63795F73 		.ascii	"cy_stc_ble_gatts_att_pack_val_len_t\000"
 12123      74635F62 
 12123      6C655F67 
 12123      61747473 
 12123      5F617474 
 12124              	.LASF790:
 12125 65a2 43595F42 		.ascii	"CY_BLE_EVT_GATTC_SRVC_DUPLICATION\000"
 12125      4C455F45 
 12125      56545F47 
 12125      41545443 
 12125      5F535256 
 12126              	.LASF185:
 12127 65c4 7564625F 		.ascii	"udb_interrupts_5_IRQn\000"
 12127      696E7465 
 12127      72727570 
 12127      74735F35 
 12127      5F495251 
 12128              	.LASF1155:
 12129 65da 47656E65 		.ascii	"Generated_Source\\PSoC6\\pdl\\middleware\\ble\\cy_b"
 12129      72617465 
 12129      645F536F 
 12129      75726365 
 12129      5C50536F 
 12130 6608 6C655F65 		.ascii	"le_event_handler.c\000"
 12130      76656E74 
 12130      5F68616E 
 12130      646C6572 
 12130      2E6300
 12131              	.LASF649:
 12132 661b 7363616E 		.ascii	"scanType\000"
ARM GAS  C:\Users\salaz\AppData\Local\Temp\ccj0QfQu.s 			page 310


 12132      54797065 
 12132      00
 12133              	.LASF935:
 12134 6624 43595F42 		.ascii	"CY_BLE_EVT_HIDSS_REPORT_WRITE_CHAR\000"
 12134      4C455F45 
 12134      56545F48 
 12134      49445353 
 12134      5F524550 
 12135              	.LASF625:
 12136 6647 43595F42 		.ascii	"CY_BLE_GAP_PUBLIC_ADDR_TYPE\000"
 12136      4C455F47 
 12136      41505F50 
 12136      55424C49 
 12136      435F4144 
 12137              	.LASF1031:
 12138 6663 43595F42 		.ascii	"CY_BLE_EVT_SCPSS_NOTIFICATION_DISABLED\000"
 12138      4C455F45 
 12138      56545F53 
 12138      43505353 
 12138      5F4E4F54 
 12139              	.LASF131:
 12140 668a 63707573 		.ascii	"cpuss_interrupts_dw1_7_IRQn\000"
 12140      735F696E 
 12140      74657272 
 12140      75707473 
 12140      5F647731 
 12141              	.LASF361:
 12142 66a6 43595F42 		.ascii	"CY_BLE_EVT_GET_DEVICE_ADDR_COMPLETE\000"
 12142      4C455F45 
 12142      56545F47 
 12142      45545F44 
 12142      45564943 
 12143              	.LASF16:
 12144 66ca 75696E74 		.ascii	"uint16_t\000"
 12144      31365F74 
 12144      00
 12145              	.LASF1039:
 12146 66d3 43595F42 		.ascii	"CY_BLE_EVT_TPSC_READ_CHAR_RESPONSE\000"
 12146      4C455F45 
 12146      56545F54 
 12146      5053435F 
 12146      52454144 
 12147              	.LASF461:
 12148 66f6 43595F42 		.ascii	"CY_BLE_ERROR_L2CAP_PSM_NOT_IN_RANGE\000"
 12148      4C455F45 
 12148      52524F52 
 12148      5F4C3243 
 12148      41505F50 
 12149              	.LASF633:
 12150 671a 656B6579 		.ascii	"ekeySize\000"
 12150      53697A65 
 12150      00
 12151              	.LASF1036:
 12152 6723 43595F42 		.ascii	"CY_BLE_EVT_TPSS_NOTIFICATION_ENABLED\000"
 12152      4C455F45 
 12152      56545F54 
 12152      5053535F 
ARM GAS  C:\Users\salaz\AppData\Local\Temp\ccj0QfQu.s 			page 311


 12152      4E4F5449 
 12153              	.LASF764:
 12154 6748 67617070 		.ascii	"gappAdvParams\000"
 12154      41647650 
 12154      6172616D 
 12154      7300
 12155              	.LASF566:
 12156 6756 43595F42 		.ascii	"CY_BLE_GATTS_ERR_PROCEDURE_ALREADY_IN_PROGRESS\000"
 12156      4C455F47 
 12156      41545453 
 12156      5F455252 
 12156      5F50524F 
 12157              	.LASF946:
 12158 6785 43595F42 		.ascii	"CY_BLE_EVT_HPSC_READ_DESCR_RESPONSE\000"
 12158      4C455F45 
 12158      56545F48 
 12158      5053435F 
 12158      52454144 
 12159              	.LASF12:
 12160 67a9 6C6F6E67 		.ascii	"long long unsigned int\000"
 12160      206C6F6E 
 12160      6720756E 
 12160      7369676E 
 12160      65642069 
 12161              	.LASF50:
 12162 67c0 4E766963 		.ascii	"NvicMux26_IRQn\000"
 12162      4D757832 
 12162      365F4952 
 12162      516E00
 12163              	.LASF904:
 12164 67cf 43595F42 		.ascii	"CY_BLE_EVT_ESSS_NOTIFICATION_ENABLED\000"
 12164      4C455F45 
 12164      56545F45 
 12164      5353535F 
 12164      4E4F5449 
 12165              	.LASF780:
 12166 67f4 43595F42 		.ascii	"CY_BLE_LONG_TERM_KEY_REQUEST_REPLY\000"
 12166      4C455F4C 
 12166      4F4E475F 
 12166      5445524D 
 12166      5F4B4559 
 12167              	.LASF371:
 12168 6817 43595F42 		.ascii	"CY_BLE_EVT_SET_SLAVE_LATENCY_MODE_COMPLETE\000"
 12168      4C455F45 
 12168      56545F53 
 12168      45545F53 
 12168      4C415645 
 12169              	.LASF325:
 12170 6842 696E7472 		.ascii	"intrPriority\000"
 12170      5072696F 
 12170      72697479 
 12170      00
 12171              	.LASF136:
 12172 684f 63707573 		.ascii	"cpuss_interrupts_dw1_12_IRQn\000"
 12172      735F696E 
 12172      74657272 
 12172      75707473 
ARM GAS  C:\Users\salaz\AppData\Local\Temp\ccj0QfQu.s 			page 312


 12172      5F647731 
 12173              	.LASF858:
 12174 686c 43595F42 		.ascii	"CY_BLE_EVT_CGMSS_NOTIFICATION_ENABLED\000"
 12174      4C455F45 
 12174      56545F43 
 12174      474D5353 
 12174      5F4E4F54 
 12175              	.LASF1024:
 12176 6892 43595F42 		.ascii	"CY_BLE_EVT_RSCSC_READ_CHAR_RESPONSE\000"
 12176      4C455F45 
 12176      56545F52 
 12176      53435343 
 12176      5F524541 
 12177              	.LASF89:
 12178 68b6 63707573 		.ascii	"cpuss_interrupts_ipc_6_IRQn\000"
 12178      735F696E 
 12178      74657272 
 12178      75707473 
 12178      5F697063 
 12179              	.LASF59:
 12180 68d2 696F7373 		.ascii	"ioss_interrupts_gpio_1_IRQn\000"
 12180      5F696E74 
 12180      65727275 
 12180      7074735F 
 12180      6770696F 
 12181              	.LASF533:
 12182 68ee 43595F42 		.ascii	"CY_BLE_GATT_WRITE_CMD\000"
 12182      4C455F47 
 12182      4154545F 
 12182      57524954 
 12182      455F434D 
 12183              	.LASF746:
 12184 6904 63795F73 		.ascii	"cy_stc_ble_gatts_t\000"
 12184      74635F62 
 12184      6C655F67 
 12184      61747473 
 12184      5F7400
 12185              	.LASF28:
 12186 6917 4E766963 		.ascii	"NvicMux4_IRQn\000"
 12186      4D757834 
 12186      5F495251 
 12186      6E00
 12187              	.LASF1014:
 12188 6925 43595F42 		.ascii	"CY_BLE_EVT_PLXSC_WRITE_DESCR_RESPONSE\000"
 12188      4C455F45 
 12188      56545F50 
 12188      4C585343 
 12188      5F575249 
 12189              	.LASF90:
 12190 694b 63707573 		.ascii	"cpuss_interrupts_ipc_7_IRQn\000"
 12190      735F696E 
 12190      74657272 
 12190      75707473 
 12190      5F697063 
 12191              	.LASF771:
 12192 6967 67617474 		.ascii	"gattDB\000"
 12192      444200
ARM GAS  C:\Users\salaz\AppData\Local\Temp\ccj0QfQu.s 			page 313


 12193              	.LASF823:
 12194 696e 43595F42 		.ascii	"CY_BLE_EVT_ANSC_NOTIFICATION\000"
 12194      4C455F45 
 12194      56545F41 
 12194      4E53435F 
 12194      4E4F5449 
 12195              	.LASF688:
 12196 698b 43595F42 		.ascii	"CY_BLE_ADV_STATE_STOP_INITIATED\000"
 12196      4C455F41 
 12196      44565F53 
 12196      54415445 
 12196      5F53544F 
 12197              	.LASF812:
 12198 69ab 43595F42 		.ascii	"CY_BLE_EVT_ANCSS_NOTIFICATION_ENABLED\000"
 12198      4C455F45 
 12198      56545F41 
 12198      4E435353 
 12198      5F4E4F54 
 12199              	.LASF1143:
 12200 69d1 43795F42 		.ascii	"Cy_BLE_SetTxPowerLevel\000"
 12200      4C455F53 
 12200      65745478 
 12200      506F7765 
 12200      724C6576 
 12201              	.LASF797:
 12202 69e8 43595F42 		.ascii	"CY_BLE_EVT_GATTC_DISCOVERY_COMPLETE\000"
 12202      4C455F45 
 12202      56545F47 
 12202      41545443 
 12202      5F444953 
 12203              	.LASF986:
 12204 6a0c 43595F42 		.ascii	"CY_BLE_EVT_LNSS_NOTIFICATION_ENABLED\000"
 12204      4C455F45 
 12204      56545F4C 
 12204      4E53535F 
 12204      4E4F5449 
 12205              	.LASF159:
 12206 6a31 74637077 		.ascii	"tcpwm_1_interrupts_3_IRQn\000"
 12206      6D5F315F 
 12206      696E7465 
 12206      72727570 
 12206      74735F33 
 12207              	.LASF43:
 12208 6a4b 4E766963 		.ascii	"NvicMux19_IRQn\000"
 12208      4D757831 
 12208      395F4952 
 12208      516E00
 12209              	.LASF74:
 12210 6a5a 696F7373 		.ascii	"ioss_interrupt_vdd_IRQn\000"
 12210      5F696E74 
 12210      65727275 
 12210      70745F76 
 12210      64645F49 
 12211              	.LASF741:
 12212 6a72 61747445 		.ascii	"attEndHandle\000"
 12212      6E644861 
 12212      6E646C65 
ARM GAS  C:\Users\salaz\AppData\Local\Temp\ccj0QfQu.s 			page 314


 12212      00
 12213              	.LASF69:
 12214 6a7f 696F7373 		.ascii	"ioss_interrupts_gpio_11_IRQn\000"
 12214      5F696E74 
 12214      65727275 
 12214      7074735F 
 12214      6770696F 
 12215              	.LASF607:
 12216 6a9c 43595F42 		.ascii	"CY_BLE_GAP_AUTH_ERROR_NONE\000"
 12216      4C455F47 
 12216      41505F41 
 12216      5554485F 
 12216      4552524F 
 12217              	.LASF721:
 12218 6ab7 67617063 		.ascii	"gapcConnectionIntervalMin\000"
 12218      436F6E6E 
 12218      65637469 
 12218      6F6E496E 
 12218      74657276 
 12219              	.LASF116:
 12220 6ad1 63707573 		.ascii	"cpuss_interrupts_dw0_8_IRQn\000"
 12220      735F696E 
 12220      74657272 
 12220      75707473 
 12220      5F647730 
 12221              	.LASF279:
 12222 6aed 544F4331 		.ascii	"TOC1_FB_OBJECT_ADDR\000"
 12222      5F46425F 
 12222      4F424A45 
 12222      43545F41 
 12222      44445200 
 12223              	.LASF951:
 12224 6b01 43595F42 		.ascii	"CY_BLE_EVT_HRSS_NOTIFICATION_DISABLED\000"
 12224      4C455F45 
 12224      56545F48 
 12224      5253535F 
 12224      4E4F5449 
 12225              	.LASF1069:
 12226 6b27 43595F42 		.ascii	"CY_BLE_EVT_WSSS_INDICATION_DISABLED\000"
 12226      4C455F45 
 12226      56545F57 
 12226      5353535F 
 12226      494E4449 
 12227              	.LASF735:
 12228 6b4b 61747446 		.ascii	"attFormatValue\000"
 12228      6F726D61 
 12228      7456616C 
 12228      756500
 12229              	.LASF1150:
 12230 6b5a 43795F42 		.ascii	"Cy_BLE_GAP_SetIoCap\000"
 12230      4C455F47 
 12230      41505F53 
 12230      6574496F 
 12230      43617000 
 12231              	.LASF313:
 12232 6b6e 52544F43 		.ascii	"RTOC2_SECOND_USER_APP_FORMAT\000"
 12232      325F5345 
ARM GAS  C:\Users\salaz\AppData\Local\Temp\ccj0QfQu.s 			page 315


 12232      434F4E44 
 12232      5F555345 
 12232      525F4150 
 12233              	.LASF536:
 12234 6b8b 43595F42 		.ascii	"CY_BLE_GATT_EXECUTE_WRITE_REQ\000"
 12234      4C455F47 
 12234      4154545F 
 12234      45584543 
 12234      5554455F 
 12235              	.LASF945:
 12236 6ba9 43595F42 		.ascii	"CY_BLE_EVT_HPSC_READ_CHAR_RESPONSE\000"
 12236      4C455F45 
 12236      56545F48 
 12236      5053435F 
 12236      52454144 
 12237              	.LASF564:
 12238 6bcc 43595F42 		.ascii	"CY_BLE_GATT_ERR_CPS_INAPPROPRIATE_CONNECTION_PARAME"
 12238      4C455F47 
 12238      4154545F 
 12238      4552525F 
 12238      4350535F 
 12239 6bff 54455253 		.ascii	"TERS\000"
 12239      00
 12240              	.LASF872:
 12241 6c04 43595F42 		.ascii	"CY_BLE_EVT_CPSS_BROADCAST_ENABLED\000"
 12241      4C455F45 
 12241      56545F43 
 12241      5053535F 
 12241      42524F41 
 12242              	.LASF54:
 12243 6c26 4E766963 		.ascii	"NvicMux30_IRQn\000"
 12243      4D757833 
 12243      305F4952 
 12243      516E00
 12244              	.LASF885:
 12245 6c35 43595F42 		.ascii	"CY_BLE_EVT_CSCSS_INDICATION_ENABLED\000"
 12245      4C455F45 
 12245      56545F43 
 12245      53435353 
 12245      5F494E44 
 12246              	.LASF1028:
 12247 6c59 43595F42 		.ascii	"CY_BLE_EVT_RTUSS_WRITE_CHAR_CMD\000"
 12247      4C455F45 
 12247      56545F52 
 12247      54555353 
 12247      5F575249 
 12248              	.LASF496:
 12249 6c79 63795F65 		.ascii	"cy_en_ble_protocol_req_t\000"
 12249      6E5F626C 
 12249      655F7072 
 12249      6F746F63 
 12249      6F6C5F72 
 12250              	.LASF971:
 12251 6c92 43595F42 		.ascii	"CY_BLE_EVT_IPSS_WRITE_CHAR\000"
 12251      4C455F45 
 12251      56545F49 
 12251      5053535F 
ARM GAS  C:\Users\salaz\AppData\Local\Temp\ccj0QfQu.s 			page 316


 12251      57524954 
 12252              	.LASF14:
 12253 6cad 63686172 		.ascii	"char\000"
 12253      00
 12254              	.LASF626:
 12255 6cb2 43595F42 		.ascii	"CY_BLE_GAP_RANDOM_RESOLVABLE_ADDR_TYPE\000"
 12255      4C455F47 
 12255      41505F52 
 12255      414E444F 
 12255      4D5F5245 
 12256              	.LASF260:
 12257 6cd9 43505553 		.ascii	"CPUSS_TRIM_RAM_CTL_HALF_LP\000"
 12257      535F5452 
 12257      494D5F52 
 12257      414D5F43 
 12257      544C5F48 
 12258              	.LASF977:
 12259 6cf4 43595F42 		.ascii	"CY_BLE_EVT_IPSC_WRITE_DESCR_RESPONSE\000"
 12259      4C455F45 
 12259      56545F49 
 12259      5053435F 
 12259      57524954 
 12260              	.LASF182:
 12261 6d19 7564625F 		.ascii	"udb_interrupts_2_IRQn\000"
 12261      696E7465 
 12261      72727570 
 12261      74735F32 
 12261      5F495251 
 12262              	.LASF851:
 12263 6d2f 43595F42 		.ascii	"CY_BLE_EVT_BMSS_WRITE_CHAR\000"
 12263      4C455F45 
 12263      56545F42 
 12263      4D53535F 
 12263      57524954 
 12264              	.LASF128:
 12265 6d4a 63707573 		.ascii	"cpuss_interrupts_dw1_4_IRQn\000"
 12265      735F696E 
 12265      74657272 
 12265      75707473 
 12265      5F647731 
 12266              	.LASF1081:
 12267 6d66 43595F42 		.ascii	"CY_BLE_EVT_GATTC_DISC_SERVICE\000"
 12267      4C455F45 
 12267      56545F47 
 12267      41545443 
 12267      5F444953 
 12268              	.LASF367:
 12269 6d84 43595F42 		.ascii	"CY_BLE_EVT_RANDOM_NUM_GEN_COMPLETE\000"
 12269      4C455F45 
 12269      56545F52 
 12269      414E444F 
 12269      4D5F4E55 
 12270              	.LASF730:
 12271 6da7 61747447 		.ascii	"attGenericVal\000"
 12271      656E6572 
 12271      69635661 
 12271      6C00
ARM GAS  C:\Users\salaz\AppData\Local\Temp\ccj0QfQu.s 			page 317


 12272              	.LASF961:
 12273 6db5 43595F42 		.ascii	"CY_BLE_EVT_HTSS_INDICATION_CONFIRMED\000"
 12273      4C455F45 
 12273      56545F48 
 12273      5453535F 
 12273      494E4449 
 12274              	.LASF393:
 12275 6dda 43595F42 		.ascii	"CY_BLE_EVT_GAP_KEYPRESS_NOTIFICATION\000"
 12275      4C455F45 
 12275      56545F47 
 12275      41505F4B 
 12275      45595052 
 12276              	.LASF173:
 12277 6dff 74637077 		.ascii	"tcpwm_1_interrupts_17_IRQn\000"
 12277      6D5F315F 
 12277      696E7465 
 12277      72727570 
 12277      74735F31 
 12278              	.LASF805:
 12279 6e1a 43595F42 		.ascii	"CY_BLE_EVT_AIOSC_NOTIFICATION\000"
 12279      4C455F45 
 12279      56545F41 
 12279      494F5343 
 12279      5F4E4F54 
 12280              	.LASF305:
 12281 6e38 544F4332 		.ascii	"TOC2_CRC_ADDR\000"
 12281      5F435243 
 12281      5F414444 
 12281      5200
 12282              	.LASF752:
 12283 6e46 61747456 		.ascii	"attValuesCCCDFlashMemory\000"
 12283      616C7565 
 12283      73434343 
 12283      44466C61 
 12283      73684D65 
 12284              	.LASF543:
 12285 6e5f 63795F65 		.ascii	"cy_en_ble_gatt_pdu_t\000"
 12285      6E5F626C 
 12285      655F6761 
 12285      74745F70 
 12285      64755F74 
 12286              	.LASF342:
 12287 6e74 43595F42 		.ascii	"CY_BLE_EVT_GET_DATA_LENGTH_COMPLETE\000"
 12287      4C455F45 
 12287      56545F47 
 12287      45545F44 
 12287      4154415F 
 12288              	.LASF877:
 12289 6e98 43595F42 		.ascii	"CY_BLE_EVT_CPSC_READ_CHAR_RESPONSE\000"
 12289      4C455F45 
 12289      56545F43 
 12289      5053435F 
 12289      52454144 
 12290              	.LASF47:
 12291 6ebb 4E766963 		.ascii	"NvicMux23_IRQn\000"
 12291      4D757832 
 12291      335F4952 
ARM GAS  C:\Users\salaz\AppData\Local\Temp\ccj0QfQu.s 			page 318


 12291      516E00
 12292              	.LASF874:
 12293 6eca 43595F42 		.ascii	"CY_BLE_EVT_CPSS_WRITE_CHAR\000"
 12293      4C455F45 
 12293      56545F43 
 12293      5053535F 
 12293      57524954 
 12294              	.LASF535:
 12295 6ee5 43595F42 		.ascii	"CY_BLE_GATT_PREPARE_WRITE_RSP\000"
 12295      4C455F47 
 12295      4154545F 
 12295      50524550 
 12295      4152455F 
 12296              	.LASF25:
 12297 6f03 4E766963 		.ascii	"NvicMux1_IRQn\000"
 12297      4D757831 
 12297      5F495251 
 12297      6E00
 12298              	.LASF757:
 12299 6f11 7478506F 		.ascii	"txPowerLevelConn\000"
 12299      7765724C 
 12299      6576656C 
 12299      436F6E6E 
 12299      00
 12300              	.LASF308:
 12301 6f22 52544F43 		.ascii	"RTOC2_KEY_BLOCK_ADDR\000"
 12301      325F4B45 
 12301      595F424C 
 12301      4F434B5F 
 12301      41444452 
 12302              	.LASF641:
 12303 6f37 70656572 		.ascii	"peerBdAddrType\000"
 12303      42644164 
 12303      64725479 
 12303      706500
 12304              	.LASF672:
 12305 6f46 61647644 		.ascii	"advDataLen\000"
 12305      6174614C 
 12305      656E00
 12306              	.LASF86:
 12307 6f51 63707573 		.ascii	"cpuss_interrupts_ipc_3_IRQn\000"
 12307      735F696E 
 12307      74657272 
 12307      75707473 
 12307      5F697063 
 12308              	.LASF827:
 12309 6f6d 43595F42 		.ascii	"CY_BLE_EVT_ANSC_WRITE_DESCR_RESPONSE\000"
 12309      4C455F45 
 12309      56545F41 
 12309      4E53435F 
 12309      57524954 
 12310              	.LASF762:
 12311 6f92 63795F73 		.ascii	"cy_stc_ble_params_t\000"
 12311      74635F62 
 12311      6C655F70 
 12311      6172616D 
 12311      735F7400 
ARM GAS  C:\Users\salaz\AppData\Local\Temp\ccj0QfQu.s 			page 319


 12312              	.LASF380:
 12313 6fa6 43595F42 		.ascii	"CY_BLE_EVT_GAP_AUTH_REQ\000"
 12313      4C455F45 
 12313      56545F47 
 12313      41505F41 
 12313      5554485F 
 12314              	.LASF732:
 12315 6fbe 6D617841 		.ascii	"maxAttrLength\000"
 12315      7474724C 
 12315      656E6774 
 12315      6800
 12316              	.LASF294:
 12317 6fcc 544F4332 		.ascii	"TOC2_MAGIC_NUMBER\000"
 12317      5F4D4147 
 12317      49435F4E 
 12317      554D4245 
 12317      5200
 12318              	.LASF1012:
 12319 6fde 43595F42 		.ascii	"CY_BLE_EVT_PLXSC_WRITE_CHAR_RESPONSE\000"
 12319      4C455F45 
 12319      56545F50 
 12319      4C585343 
 12319      5F575249 
 12320              	.LASF315:
 12321 7003 52544F43 		.ascii	"RTOC2_SIGNATURE_VERIF_KEY\000"
 12321      325F5349 
 12321      474E4154 
 12321      5552455F 
 12321      56455249 
 12322              	.LASF1070:
 12323 701d 43595F42 		.ascii	"CY_BLE_EVT_WSSS_INDICATION_CONFIRMED\000"
 12323      4C455F45 
 12323      56545F57 
 12323      5353535F 
 12323      494E4449 
 12324              	.LASF1074:
 12325 7042 43595F42 		.ascii	"CY_BLE_EVT_WSSC_WRITE_DESCR_RESPONSE\000"
 12325      4C455F45 
 12325      56545F57 
 12325      5353435F 
 12325      57524954 
 12326              	.LASF421:
 12327 7067 43595F42 		.ascii	"CY_BLE_EVT_GATTS_PREP_WRITE_REQ\000"
 12327      4C455F45 
 12327      56545F47 
 12327      41545453 
 12327      5F505245 
 12328              	.LASF796:
 12329 7087 43595F42 		.ascii	"CY_BLE_EVT_GATTC_DISC_SKIPPED_SERVICE\000"
 12329      4C455F45 
 12329      56545F47 
 12329      41545443 
 12329      5F444953 
 12330              	.LASF156:
 12331 70ad 74637077 		.ascii	"tcpwm_1_interrupts_0_IRQn\000"
 12331      6D5F315F 
 12331      696E7465 
ARM GAS  C:\Users\salaz\AppData\Local\Temp\ccj0QfQu.s 			page 320


 12331      72727570 
 12331      74735F30 
 12332              	.LASF18:
 12333 70c7 52657365 		.ascii	"Reset_IRQn\000"
 12333      745F4952 
 12333      516E00
 12334              	.LASF40:
 12335 70d2 4E766963 		.ascii	"NvicMux16_IRQn\000"
 12335      4D757831 
 12335      365F4952 
 12335      516E00
 12336              	.LASF1023:
 12337 70e1 43595F42 		.ascii	"CY_BLE_EVT_RSCSC_INDICATION\000"
 12337      4C455F45 
 12337      56545F52 
 12337      53435343 
 12337      5F494E44 
 12338              	.LASF742:
 12339 70fd 61747456 		.ascii	"attValue\000"
 12339      616C7565 
 12339      00
 12340              	.LASF650:
 12341 7106 7363616E 		.ascii	"scanIntv\000"
 12341      496E7476 
 12341      00
 12342              	.LASF573:
 12343 710f 43595F42 		.ascii	"CY_BLE_GATTS_ERR_NETWORK_NOT_AVAILABLE\000"
 12343      4C455F47 
 12343      41545453 
 12343      5F455252 
 12343      5F4E4554 
 12344              	.LASF978:
 12345 7136 43595F42 		.ascii	"CY_BLE_EVT_IPSC_ERROR_RESPONSE\000"
 12345      4C455F45 
 12345      56545F49 
 12345      5053435F 
 12345      4552524F 
 12346              	.LASF1156:
 12347 7155 433A5C55 		.ascii	"C:\\Users\\salaz\\Desktop\\SmartHandle\\James.cydsn"
 12347      73657273 
 12347      5C73616C 
 12347      617A5C44 
 12347      65736B74 
 12348 7183 00       		.ascii	"\000"
 12349              	.LASF1116:
 12350 7184 74636F6E 		.ascii	"tconnHandle\000"
 12350      6E48616E 
 12350      646C6500 
 12351              	.LASF113:
 12352 7190 63707573 		.ascii	"cpuss_interrupts_dw0_5_IRQn\000"
 12352      735F696E 
 12352      74657272 
 12352      75707473 
 12352      5F647730 
 12353              	.LASF921:
 12354 71ac 43595F42 		.ascii	"CY_BLE_EVT_GLSS_NOTIFICATION_DISABLED\000"
 12354      4C455F45 
ARM GAS  C:\Users\salaz\AppData\Local\Temp\ccj0QfQu.s 			page 321


 12354      56545F47 
 12354      4C53535F 
 12354      4E4F5449 
 12355              	.LASF814:
 12356 71d2 43595F42 		.ascii	"CY_BLE_EVT_ANCSS_WRITE_CHAR\000"
 12356      4C455F45 
 12356      56545F41 
 12356      4E435353 
 12356      5F575249 
 12357              	.LASF799:
 12358 71ee 43595F42 		.ascii	"CY_BLE_EVT_AIOSS_NOTIFICATION_DISABLED\000"
 12358      4C455F45 
 12358      56545F41 
 12358      494F5353 
 12358      5F4E4F54 
 12359              	.LASF296:
 12360 7215 544F4332 		.ascii	"TOC2_SMIF_CFG_STRUCT_ADDR\000"
 12360      5F534D49 
 12360      465F4346 
 12360      475F5354 
 12360      52554354 
 12361              	.LASF387:
 12362 722f 43595F42 		.ascii	"CY_BLE_EVT_GAP_DEVICE_DISCONNECTED\000"
 12362      4C455F45 
 12362      56545F47 
 12362      41505F44 
 12362      45564943 
 12363              	.LASF556:
 12364 7252 43595F42 		.ascii	"CY_BLE_GATT_ERR_INSUFFICIENT_ENC_KEY_SIZE\000"
 12364      4C455F47 
 12364      4154545F 
 12364      4552525F 
 12364      494E5355 
 12365              	.LASF578:
 12366 727c 43595F42 		.ascii	"CY_BLE_GATT_ERR_ANCS_ACTION_FAILED\000"
 12366      4C455F47 
 12366      4154545F 
 12366      4552525F 
 12366      414E4353 
 12367              	.LASF616:
 12368 729f 43595F42 		.ascii	"CY_BLE_GAP_AUTH_ERROR_REPEATED_ATTEMPTS\000"
 12368      4C455F47 
 12368      41505F41 
 12368      5554485F 
 12368      4552524F 
 12369              	.LASF563:
 12370 72c7 43595F42 		.ascii	"CY_BLE_GATT_ERR_USER_DATA_ACCESS_NOT_PERMITTED\000"
 12370      4C455F47 
 12370      4154545F 
 12370      4552525F 
 12370      55534552 
 12371              	.LASF297:
 12372 72f6 544F4332 		.ascii	"TOC2_FIRST_USER_APP_ADDR\000"
 12372      5F464952 
 12372      53545F55 
 12372      5345525F 
 12372      4150505F 
ARM GAS  C:\Users\salaz\AppData\Local\Temp\ccj0QfQu.s 			page 322


 12373              	.LASF905:
 12374 730f 43595F42 		.ascii	"CY_BLE_EVT_ESSS_NOTIFICATION_DISABLED\000"
 12374      4C455F45 
 12374      56545F45 
 12374      5353535F 
 12374      4E4F5449 
 12375              	.LASF177:
 12376 7335 74637077 		.ascii	"tcpwm_1_interrupts_21_IRQn\000"
 12376      6D5F315F 
 12376      696E7465 
 12376      72727570 
 12376      74735F32 
 12377              	.LASF253:
 12378 7350 43505553 		.ascii	"CPUSS_TRIM_RAM_CTL_ULP\000"
 12378      535F5452 
 12378      494D5F52 
 12378      414D5F43 
 12378      544C5F55 
 12379              	.LASF749:
 12380 7367 63795F62 		.ascii	"cy_ble_callback_t\000"
 12380      6C655F63 
 12380      616C6C62 
 12380      61636B5F 
 12380      7400
 12381              	.LASF1130:
 12382 7379 63795F62 		.ascii	"cy_ble_attValuesCccdMultiple\000"
 12382      6C655F61 
 12382      74745661 
 12382      6C756573 
 12382      43636364 
 12383              	.LASF337:
 12384 7396 43595F42 		.ascii	"CY_BLE_EVT_GET_CHANNEL_MAP_COMPLETE\000"
 12384      4C455F45 
 12384      56545F47 
 12384      45545F43 
 12384      48414E4E 
 12385              	.LASF194:
 12386 73ba 7564625F 		.ascii	"udb_interrupts_14_IRQn\000"
 12386      696E7465 
 12386      72727570 
 12386      74735F31 
 12386      345F4952 
 12387              	.LASF329:
 12388 73d1 43595F42 		.ascii	"CY_BLE_EVT_TIMEOUT\000"
 12388      4C455F45 
 12388      56545F54 
 12388      494D454F 
 12388      555400
 12389              	.LASF681:
 12390 73e4 43595F42 		.ascii	"CY_BLE_STATE_STOPPED\000"
 12390      4C455F53 
 12390      54415445 
 12390      5F53544F 
 12390      50504544 
 12391              	.LASF1137:
 12392 73f9 63795F62 		.ascii	"cy_ble_advertisingIntervalType\000"
 12392      6C655F61 
ARM GAS  C:\Users\salaz\AppData\Local\Temp\ccj0QfQu.s 			page 323


 12392      64766572 
 12392      74697369 
 12392      6E67496E 
 12393              	.LASF1112:
 12394 7418 6D656D52 		.ascii	"memReq\000"
 12394      657100
 12395              	.LASF811:
 12396 741f 43595F42 		.ascii	"CY_BLE_EVT_AIOSC_ERROR_RESPONSE\000"
 12396      4C455F45 
 12396      56545F41 
 12396      494F5343 
 12396      5F455252 
 12397              	.LASF621:
 12398 743f 43595F42 		.ascii	"CY_BLE_GAP_AUTH_ERROR_CROSS_TRANSPORT_KEY_GEN_DER_N"
 12398      4C455F47 
 12398      41505F41 
 12398      5554485F 
 12398      4552524F 
 12399 7472 4F545F41 		.ascii	"OT_ALLOWED\000"
 12399      4C4C4F57 
 12399      454400
 12400              	.LASF690:
 12401 747d 43595F42 		.ascii	"CY_BLE_CONN_STATE_DISCONNECTED\000"
 12401      4C455F43 
 12401      4F4E4E5F 
 12401      53544154 
 12401      455F4449 
 12402              	.LASF698:
 12403 749c 63795F65 		.ascii	"cy_en_ble_conn_state_t\000"
 12403      6E5F626C 
 12403      655F636F 
 12403      6E6E5F73 
 12403      74617465 
 12404              	.LASF745:
 12405 74b3 63636364 		.ascii	"cccdHandle\000"
 12405      48616E64 
 12405      6C6500
 12406              	.LASF1072:
 12407 74be 43595F42 		.ascii	"CY_BLE_EVT_WSSC_READ_CHAR_RESPONSE\000"
 12407      4C455F45 
 12407      56545F57 
 12407      5353435F 
 12407      52454144 
 12408              	.LASF1041:
 12409 74e1 43595F42 		.ascii	"CY_BLE_EVT_TPSC_WRITE_DESCR_RESPONSE\000"
 12409      4C455F45 
 12409      56545F54 
 12409      5053435F 
 12409      57524954 
 12410              	.LASF1114:
 12411 7506 636F6E6E 		.ascii	"connectedHandle\000"
 12411      65637465 
 12411      6448616E 
 12411      646C6500 
 12412              	.LASF491:
 12413 7516 43595F42 		.ascii	"CY_BLE_GATT_RSP_TO\000"
 12413      4C455F47 
ARM GAS  C:\Users\salaz\AppData\Local\Temp\ccj0QfQu.s 			page 324


 12413      4154545F 
 12413      5253505F 
 12413      544F00
 12414              	.LASF567:
 12415 7529 43595F42 		.ascii	"CY_BLE_GATT_ERR_OP_CODE_NOT_SUPPORTED\000"
 12415      4C455F47 
 12415      4154545F 
 12415      4552525F 
 12415      4F505F43 
 12416              	.LASF916:
 12417 754f 43595F42 		.ascii	"CY_BLE_EVT_ESSC_WRITE_DESCR_RESPONSE\000"
 12417      4C455F45 
 12417      56545F45 
 12417      5353435F 
 12417      57524954 
 12418              	.LASF125:
 12419 7574 63707573 		.ascii	"cpuss_interrupts_dw1_1_IRQn\000"
 12419      735F696E 
 12419      74657272 
 12419      75707473 
 12419      5F647731 
 12420              	.LASF562:
 12421 7590 43595F42 		.ascii	"CY_BLE_GATT_ERR_HEART_RATE_CONTROL_POINT_NOT_SUPPOR"
 12421      4C455F47 
 12421      4154545F 
 12421      4552525F 
 12421      48454152 
 12422 75c3 54454400 		.ascii	"TED\000"
 12423              	.LASF21:
 12424 75c7 53564361 		.ascii	"SVCall_IRQn\000"
 12424      6C6C5F49 
 12424      52516E00 
 12425              	.LASF759:
 12426 75d3 73656375 		.ascii	"securityPairingMethod\000"
 12426      72697479 
 12426      50616972 
 12426      696E674D 
 12426      6574686F 
 12427              	.LASF592:
 12428 75e9 6F70436F 		.ascii	"opCode\000"
 12428      646500
 12429              	.LASF170:
 12430 75f0 74637077 		.ascii	"tcpwm_1_interrupts_14_IRQn\000"
 12430      6D5F315F 
 12430      696E7465 
 12430      72727570 
 12430      74735F31 
 12431              	.LASF866:
 12432 760b 43595F42 		.ascii	"CY_BLE_EVT_CGMSC_WRITE_DESCR_RESPONSE\000"
 12432      4C455F45 
 12432      56545F43 
 12432      474D5343 
 12432      5F575249 
 12433              	.LASF836:
 12434 7631 43595F42 		.ascii	"CY_BLE_EVT_BCSS_INDICATION_CONFIRMED\000"
 12434      4C455F45 
 12434      56545F42 
ARM GAS  C:\Users\salaz\AppData\Local\Temp\ccj0QfQu.s 			page 325


 12434      4353535F 
 12434      494E4449 
 12435              	.LASF1033:
 12436 7656 43595F42 		.ascii	"CY_BLE_EVT_SCPSC_NOTIFICATION\000"
 12436      4C455F45 
 12436      56545F53 
 12436      43505343 
 12436      5F4E4F54 
 12437              	.LASF701:
 12438 7674 61707065 		.ascii	"appearanceCharHandle\000"
 12438      6172616E 
 12438      63654368 
 12438      61724861 
 12438      6E646C65 
 12439              	.LASF1097:
 12440 7689 61706952 		.ascii	"apiResult\000"
 12440      6573756C 
 12440      7400
 12441              	.LASF44:
 12442 7693 4E766963 		.ascii	"NvicMux20_IRQn\000"
 12442      4D757832 
 12442      305F4952 
 12442      516E00
 12443              	.LASF959:
 12444 76a2 43595F42 		.ascii	"CY_BLE_EVT_HTSS_INDICATION_ENABLED\000"
 12444      4C455F45 
 12444      56545F48 
 12444      5453535F 
 12444      494E4449 
 12445              	.LASF1134:
 12446 76c5 63795F62 		.ascii	"cy_ble_eventHandler\000"
 12446      6C655F65 
 12446      76656E74 
 12446      48616E64 
 12446      6C657200 
 12447              	.LASF994:
 12448 76d9 43595F42 		.ascii	"CY_BLE_EVT_LNSC_WRITE_DESCR_RESPONSE\000"
 12448      4C455F45 
 12448      56545F4C 
 12448      4E53435F 
 12448      57524954 
 12449              	.LASF22:
 12450 76fe 50656E64 		.ascii	"PendSV_IRQn\000"
 12450      53565F49 
 12450      52516E00 
 12451              	.LASF418:
 12452 770a 43595F42 		.ascii	"CY_BLE_EVT_GATTS_WRITE_REQ\000"
 12452      4C455F45 
 12452      56545F47 
 12452      41545453 
 12452      5F575249 
 12453              	.LASF333:
 12454 7725 43595F42 		.ascii	"CY_BLE_EVT_FLASH_CORRUPT\000"
 12454      4C455F45 
 12454      56545F46 
 12454      4C415348 
 12454      5F434F52 
ARM GAS  C:\Users\salaz\AppData\Local\Temp\ccj0QfQu.s 			page 326


 12455              	.LASF818:
 12456 773e 43595F42 		.ascii	"CY_BLE_EVT_ANCSC_WRITE_DESCR_RESPONSE\000"
 12456      4C455F45 
 12456      56545F41 
 12456      4E435343 
 12456      5F575249 
 12457              	.LASF83:
 12458 7764 63707573 		.ascii	"cpuss_interrupts_ipc_0_IRQn\000"
 12458      735F696E 
 12458      74657272 
 12458      75707473 
 12458      5F697063 
 12459              	.LASF817:
 12460 7780 43595F42 		.ascii	"CY_BLE_EVT_ANCSC_READ_DESCR_RESPONSE\000"
 12460      4C455F45 
 12460      56545F41 
 12460      4E435343 
 12460      5F524541 
 12461              	.LASF834:
 12462 77a5 43595F42 		.ascii	"CY_BLE_EVT_BCSS_INDICATION_ENABLED\000"
 12462      4C455F45 
 12462      56545F42 
 12462      4353535F 
 12462      494E4449 
 12463              	.LASF1077:
 12464 77c8 43595F42 		.ascii	"CY_BLE_EVT_BTSS_WRITE_REQ\000"
 12464      4C455F45 
 12464      56545F42 
 12464      5453535F 
 12464      57524954 
 12465              	.LASF890:
 12466 77e2 43595F42 		.ascii	"CY_BLE_EVT_CSCSC_INDICATION\000"
 12466      4C455F45 
 12466      56545F43 
 12466      53435343 
 12466      5F494E44 
 12467              	.LASF252:
 12468 77fe 43505553 		.ascii	"CPUSS_TRIM_ROM_CTL_ULP\000"
 12468      535F5452 
 12468      494D5F52 
 12468      4F4D5F43 
 12468      544C5F55 
 12469              	.LASF540:
 12470 7815 43595F42 		.ascii	"CY_BLE_GATT_HANDLE_VALUE_CNF\000"
 12470      4C455F47 
 12470      4154545F 
 12470      48414E44 
 12470      4C455F56 
 12471              	.LASF81:
 12472 7832 70617373 		.ascii	"pass_interrupt_ctbs_IRQn\000"
 12472      5F696E74 
 12472      65727275 
 12472      70745F63 
 12472      7462735F 
 12473              	.LASF599:
 12474 784b 70726570 		.ascii	"prepareWriteQueueSize\000"
 12474      61726557 
ARM GAS  C:\Users\salaz\AppData\Local\Temp\ccj0QfQu.s 			page 327


 12474      72697465 
 12474      51756575 
 12474      6553697A 
 12475              	.LASF803:
 12476 7861 43595F42 		.ascii	"CY_BLE_EVT_AIOSS_WRITE_CHAR\000"
 12476      4C455F45 
 12476      56545F41 
 12476      494F5353 
 12476      5F575249 
 12477              	.LASF493:
 12478 787d 63795F65 		.ascii	"cy_en_ble_to_reason_code_t\000"
 12478      6E5F626C 
 12478      655F746F 
 12478      5F726561 
 12478      736F6E5F 
 12479              	.LASF707:
 12480 7898 66617374 		.ascii	"fastAdvIntervalMax\000"
 12480      41647649 
 12480      6E746572 
 12480      76616C4D 
 12480      617800
 12481              	.LASF728:
 12482 78ab 63795F73 		.ascii	"cy_stc_ble_gatts_char_val_read_req_t\000"
 12482      74635F62 
 12482      6C655F67 
 12482      61747473 
 12482      5F636861 
 12483              	.LASF747:
 12484 78d0 666C6F77 		.ascii	"flowState\000"
 12484      53746174 
 12484      6500
 12485              	.LASF37:
 12486 78da 4E766963 		.ascii	"NvicMux13_IRQn\000"
 12486      4D757831 
 12486      335F4952 
 12486      516E00
 12487              	.LASF1016:
 12488 78e9 43595F42 		.ascii	"CY_BLE_EVT_RSCSS_NOTIFICATION_ENABLED\000"
 12488      4C455F45 
 12488      56545F52 
 12488      53435353 
 12488      5F4E4F54 
 12489              	.LASF920:
 12490 790f 43595F42 		.ascii	"CY_BLE_EVT_GLSS_NOTIFICATION_ENABLED\000"
 12490      4C455F45 
 12490      56545F47 
 12490      4C53535F 
 12490      4E4F5449 
 12491              	.LASF537:
 12492 7934 43595F42 		.ascii	"CY_BLE_GATT_EXECUTE_WRITE_RSP\000"
 12492      4C455F47 
 12492      4154545F 
 12492      45584543 
 12492      5554455F 
 12493              	.LASF249:
 12494 7952 5057525F 		.ascii	"PWR_TRIM_WAKE_CTL\000"
 12494      5452494D 
ARM GAS  C:\Users\salaz\AppData\Local\Temp\ccj0QfQu.s 			page 328


 12494      5F57414B 
 12494      455F4354 
 12494      4C00
 12495              	.LASF882:
 12496 7964 43595F42 		.ascii	"CY_BLE_EVT_CPSC_TIMEOUT\000"
 12496      4C455F45 
 12496      56545F43 
 12496      5053435F 
 12496      54494D45 
 12497              	.LASF1040:
 12498 797c 43595F42 		.ascii	"CY_BLE_EVT_TPSC_READ_DESCR_RESPONSE\000"
 12498      4C455F45 
 12498      56545F54 
 12498      5053435F 
 12498      52454144 
 12499              	.LASF436:
 12500 79a0 43595F42 		.ascii	"CY_BLE_EVT_L2CAP_CBFC_DISCONN_IND\000"
 12500      4C455F45 
 12500      56545F4C 
 12500      32434150 
 12500      5F434246 
 12501              	.LASF269:
 12502 79c2 464C4153 		.ascii	"FLASH_BOOT_CODE\000"
 12502      485F424F 
 12502      4F545F43 
 12502      4F444500 
 12503              	.LASF360:
 12504 79d2 43595F42 		.ascii	"CY_BLE_EVT_SET_DEVICE_ADDR_COMPLETE\000"
 12504      4C455F45 
 12504      56545F53 
 12504      45545F44 
 12504      45564943 
 12505              	.LASF896:
 12506 79f6 43595F42 		.ascii	"CY_BLE_EVT_CTSS_NOTIFICATION_DISABLED\000"
 12506      4C455F45 
 12506      56545F43 
 12506      5453535F 
 12506      4E4F5449 
 12507              	.LASF110:
 12508 7a1c 63707573 		.ascii	"cpuss_interrupts_dw0_2_IRQn\000"
 12508      735F696E 
 12508      74657272 
 12508      75707473 
 12508      5F647730 
 12509              	.LASF468:
 12510 7a38 43595F42 		.ascii	"CY_BLE_ERROR_NTF_DISABLED\000"
 12510      4C455F45 
 12510      52524F52 
 12510      5F4E5446 
 12510      5F444953 
 12511              	.LASF299:
 12512 7a52 544F4332 		.ascii	"TOC2_SECOND_USER_APP_ADDR\000"
 12512      5F534543 
 12512      4F4E445F 
 12512      55534552 
 12512      5F415050 
 12513              	.LASF0:
ARM GAS  C:\Users\salaz\AppData\Local\Temp\ccj0QfQu.s 			page 329


 12514 7a6c 756E7369 		.ascii	"unsigned int\000"
 12514      676E6564 
 12514      20696E74 
 12514      00
 12515              	.LASF511:
 12516 7a79 43595F42 		.ascii	"CY_BLE_HANDLE\000"
 12516      4C455F48 
 12516      414E444C 
 12516      4500
 12517              	.LASF647:
 12518 7a87 63795F73 		.ascii	"cy_stc_ble_gap_enhance_conn_complete_param_t\000"
 12518      74635F62 
 12518      6C655F67 
 12518      61705F65 
 12518      6E68616E 
 12519              	.LASF99:
 12520 7ab4 7363625F 		.ascii	"scb_0_interrupt_IRQn\000"
 12520      305F696E 
 12520      74657272 
 12520      7570745F 
 12520      4952516E 
 12521              	.LASF570:
 12522 7ac9 43595F42 		.ascii	"CY_BLE_GATTS_ERR_OPERATION_FAILED\000"
 12522      4C455F47 
 12522      41545453 
 12522      5F455252 
 12522      5F4F5045 
 12523              		.ident	"GCC: (GNU Tools for ARM Embedded Processors) 5.4.1 20160609 (release) [ARM/embedded-5-bran
