ARM GAS  C:\Users\fiona\AppData\Local\Temp\ccAW88pR.s 			page 1


   1              		.syntax unified
   2              		.cpu cortex-m0plus
   3              		.fpu softvfp
   4              		.eabi_attribute 20, 1
   5              		.eabi_attribute 21, 1
   6              		.eabi_attribute 23, 3
   7              		.eabi_attribute 24, 1
   8              		.eabi_attribute 25, 1
   9              		.eabi_attribute 26, 1
  10              		.eabi_attribute 30, 1
  11              		.eabi_attribute 34, 0
  12              		.eabi_attribute 18, 4
  13              		.thumb
  14              		.syntax unified
  15              		.file	"DataBuffer.c"
  16              		.text
  17              	.Ltext0:
  18              		.cfi_sections	.debug_frame
  19              		.section	.text.DataBuffer_QueryNextJob,"ax",%progbits
  20              		.align	2
  21              		.global	DataBuffer_QueryNextJob
  22              		.code	16
  23              		.thumb_func
  24              		.type	DataBuffer_QueryNextJob, %function
  25              	DataBuffer_QueryNextJob:
  26              	.LFB841:
  27              		.file 1 "DataBuffer.c"
   1:DataBuffer.c  **** #include <DataBuffer.h>
   2:DataBuffer.c  **** 
   3:DataBuffer.c  **** #include "debug.h"
   4:DataBuffer.c  **** 
   5:DataBuffer.c  **** static uint8 *job_queue; // Circular buffer pointer
   6:DataBuffer.c  **** static uint8 jobs = 0; // Active Jobs
   7:DataBuffer.c  **** static uint32 head = 0; // Buffer Head
   8:DataBuffer.c  **** static uint32 tail = 0; // Buffer Tail
   9:DataBuffer.c  **** static uint32 size = 0; // Buffer Size
  10:DataBuffer.c  **** 
  11:DataBuffer.c  **** void DataBuffer_Init()
  12:DataBuffer.c  **** {
  13:DataBuffer.c  ****     job_queue = (uint8*) malloc(JOB_BUFFER_SIZE);
  14:DataBuffer.c  **** 
  15:DataBuffer.c  ****     uint8 *body;
  16:DataBuffer.c  ****     
  17:DataBuffer.c  ****     for(uint8 byte = 0; byte < JOB_BUFFER_SIZE; byte++)
  18:DataBuffer.c  ****     {             
  19:DataBuffer.c  ****         body = (uint8*)(job_queue + (byte) );
  20:DataBuffer.c  ****         *body = 0x00; // Set body to 0x00 for all slots
  21:DataBuffer.c  ****     }
  22:DataBuffer.c  ****     jobs = 0; // Reset jobs
  23:DataBuffer.c  ****     head = 0; // Reset head
  24:DataBuffer.c  ****     tail = 0; // Reset tail
  25:DataBuffer.c  ****     size = 0; // Reset size
  26:DataBuffer.c  ****     
  27:DataBuffer.c  ****     for(uint8 type = 1; type<NUM_OF_SENSORS+1; type++)
  28:DataBuffer.c  ****     {
  29:DataBuffer.c  ****         DataBuffer_SetNumerator(1,type); // Set numerator of all sensors to 1
  30:DataBuffer.c  ****         DataBuffer_SetDenominator(1,type); // Set denominator of all sensors to 1
ARM GAS  C:\Users\fiona\AppData\Local\Temp\ccAW88pR.s 			page 2


  31:DataBuffer.c  ****     }
  32:DataBuffer.c  **** }
  33:DataBuffer.c  **** uint8 DataBuffer_QueryNextJob()
  34:DataBuffer.c  **** {
  28              		.loc 1 34 0
  29              		.cfi_startproc
  30              		@ args = 0, pretend = 0, frame = 0
  31              		@ frame_needed = 0, uses_anonymous_args = 0
  32              		@ link register save eliminated.
  35:DataBuffer.c  ****     uint8 *status = (uint8*)(job_queue + tail);
  33              		.loc 1 35 0
  34 0000 094B     		ldr	r3, .L5
  35 0002 1A68     		ldr	r2, [r3]
  36 0004 5B68     		ldr	r3, [r3, #4]
  37              	.LVL0:
  36:DataBuffer.c  ****     
  37:DataBuffer.c  ****     bool locked = (*status >> 7) & 0x01; // Status Bit 8
  38              		.loc 1 37 0
  39 0006 D25C     		ldrb	r2, [r2, r3]
  40              	.LVL1:
  41 0008 D109     		lsrs	r1, r2, #7
  42              	.LVL2:
  38:DataBuffer.c  ****     bool valid  = (*status >> 6) & 0x01; // Status Bit 7
  43              		.loc 1 38 0
  44 000a 9309     		lsrs	r3, r2, #6
  45              	.LVL3:
  46 000c 0120     		movs	r0, #1
  47 000e 1840     		ands	r0, r3
  48              	.LVL4:
  39:DataBuffer.c  ****     uint8 type  = (*status >> 0) & 0x3F; // Data Type
  49              		.loc 1 39 0
  50 0010 3F23     		movs	r3, #63
  51 0012 1A40     		ands	r2, r3
  52              	.LVL5:
  40:DataBuffer.c  ****     
  41:DataBuffer.c  ****     if(!locked && valid)
  53              		.loc 1 41 0
  54 0014 0029     		cmp	r1, #0
  55 0016 02D1     		bne	.L3
  56              		.loc 1 41 0 is_stmt 0 discriminator 1
  57 0018 0028     		cmp	r0, #0
  58 001a 02D1     		bne	.L4
  59 001c 02E0     		b	.L2
  60              	.L3:
  42:DataBuffer.c  ****     {
  43:DataBuffer.c  ****         return type;
  44:DataBuffer.c  ****     }
  45:DataBuffer.c  ****     return EMPTYSLOT;
  61              		.loc 1 45 0 is_stmt 1
  62 001e 0020     		movs	r0, #0
  63              	.LVL6:
  64 0020 00E0     		b	.L2
  65              	.LVL7:
  66              	.L4:
  43:DataBuffer.c  ****     }
  67              		.loc 1 43 0
  68 0022 1000     		movs	r0, r2
ARM GAS  C:\Users\fiona\AppData\Local\Temp\ccAW88pR.s 			page 3


  69              	.LVL8:
  70              	.L2:
  46:DataBuffer.c  **** }
  71              		.loc 1 46 0
  72              		@ sp needed
  73 0024 7047     		bx	lr
  74              	.L6:
  75 0026 C046     		.align	2
  76              	.L5:
  77 0028 00000000 		.word	.LANCHOR0
  78              		.cfi_endproc
  79              	.LFE841:
  80              		.size	DataBuffer_QueryNextJob, .-DataBuffer_QueryNextJob
  81              		.section	.text.DataBuffer_OpenWriteSlot,"ax",%progbits
  82              		.align	2
  83              		.global	DataBuffer_OpenWriteSlot
  84              		.code	16
  85              		.thumb_func
  86              		.type	DataBuffer_OpenWriteSlot, %function
  87              	DataBuffer_OpenWriteSlot:
  88              	.LFB842:
  47:DataBuffer.c  **** bool DataBuffer_OpenWriteSlot(uint8** sample, uint8 type, uint32 num_bytes)
  48:DataBuffer.c  **** {
  89              		.loc 1 48 0
  90              		.cfi_startproc
  91              		@ args = 0, pretend = 0, frame = 8
  92              		@ frame_needed = 0, uses_anonymous_args = 0
  93              	.LVL9:
  94 0000 F0B5     		push	{r4, r5, r6, r7, lr}
  95              		.cfi_def_cfa_offset 20
  96              		.cfi_offset 4, -20
  97              		.cfi_offset 5, -16
  98              		.cfi_offset 6, -12
  99              		.cfi_offset 7, -8
 100              		.cfi_offset 14, -4
 101 0002 83B0     		sub	sp, sp, #12
 102              		.cfi_def_cfa_offset 32
  49:DataBuffer.c  ****     if( num_bytes > (JOB_BUFFER_SIZE - size) )
 103              		.loc 1 49 0
 104 0004 234B     		ldr	r3, .L18
 105 0006 9C68     		ldr	r4, [r3, #8]
 106 0008 FF23     		movs	r3, #255
 107 000a 1B1B     		subs	r3, r3, r4
 108 000c 9342     		cmp	r3, r2
 109 000e 3DD3     		bcc	.L15
  50:DataBuffer.c  ****     {
  51:DataBuffer.c  ****         return false; // Cant fit
  52:DataBuffer.c  ****     }
  53:DataBuffer.c  ****     size = size + num_bytes;
 110              		.loc 1 53 0
 111 0010 A418     		adds	r4, r4, r2
 112 0012 204B     		ldr	r3, .L18
 113 0014 9C60     		str	r4, [r3, #8]
  54:DataBuffer.c  ****     
  55:DataBuffer.c  ****     uint8* tmp  = (uint8*)(job_queue + head); // Points to reserved byte
 114              		.loc 1 55 0
 115 0016 1F68     		ldr	r7, [r3]
ARM GAS  C:\Users\fiona\AppData\Local\Temp\ccAW88pR.s 			page 4


 116 0018 DC68     		ldr	r4, [r3, #12]
 117 001a 3B19     		adds	r3, r7, r4
 118 001c 9C46     		mov	ip, r3
 119              	.LVL10:
  56:DataBuffer.c  ****     bool locked = (*tmp >> 7) & 0x01;         // Status Bit 8
 120              		.loc 1 56 0
 121 001e 1B78     		ldrb	r3, [r3]
 122              	.LVL11:
 123 0020 DD09     		lsrs	r5, r3, #7
 124              	.LVL12:
  57:DataBuffer.c  ****     bool valid  = (*tmp >> 6) & 0x01;         // Status Bit 7
 125              		.loc 1 57 0
 126 0022 9B09     		lsrs	r3, r3, #6
 127 0024 0126     		movs	r6, #1
 128 0026 3340     		ands	r3, r6
 129              	.LVL13:
  58:DataBuffer.c  ****     bool result = (!locked && !valid);
 130              		.loc 1 58 0
 131 0028 002D     		cmp	r5, #0
 132 002a 03D1     		bne	.L16
 133              		.loc 1 58 0 is_stmt 0 discriminator 1
 134 002c 002B     		cmp	r3, #0
 135 002e 03D0     		beq	.L17
 136              		.loc 1 58 0
 137 0030 0026     		movs	r6, #0
 138 0032 02E0     		b	.L9
 139              	.L16:
 140 0034 0026     		movs	r6, #0
 141 0036 00E0     		b	.L9
 142              	.L17:
 143 0038 0126     		movs	r6, #1
 144              	.L9:
 145              		.loc 1 58 0 discriminator 6
 146 003a 0196     		str	r6, [sp, #4]
 147              	.LVL14:
  59:DataBuffer.c  ****     
  60:DataBuffer.c  ****     if(result)
 148              		.loc 1 60 0 is_stmt 1 discriminator 6
 149 003c 002E     		cmp	r6, #0
 150 003e 21D0     		beq	.L10
 151              	.LBB2:
  61:DataBuffer.c  ****     {           
  62:DataBuffer.c  ****         *tmp = 0x80 | type; // Locked and Invalid        
 152              		.loc 1 62 0
 153 0040 8023     		movs	r3, #128
 154              	.LVL15:
 155 0042 5B42     		rsbs	r3, r3, #0
 156 0044 1943     		orrs	r1, r3
 157              	.LVL16:
 158 0046 6346     		mov	r3, ip
 159 0048 1970     		strb	r1, [r3]
 160              	.LVL17:
  63:DataBuffer.c  ****         
  64:DataBuffer.c  ****         uint8* buffer_ptr;
  65:DataBuffer.c  ****         uint8* sample_ptr = (uint8*) *sample; 
 161              		.loc 1 65 0
 162 004a 0668     		ldr	r6, [r0]
ARM GAS  C:\Users\fiona\AppData\Local\Temp\ccAW88pR.s 			page 5


 163              	.LVL18:
  66:DataBuffer.c  **** 		if(++head == JOB_BUFFER_SIZE) head = 0;
 164              		.loc 1 66 0
 165 004c 0134     		adds	r4, r4, #1
 166 004e 114B     		ldr	r3, .L18
 167 0050 DC60     		str	r4, [r3, #12]
 168 0052 FF2C     		cmp	r4, #255
 169 0054 01D1     		bne	.L11
 170              		.loc 1 66 0 is_stmt 0 discriminator 1
 171 0056 0021     		movs	r1, #0
 172 0058 D960     		str	r1, [r3, #12]
 173              	.L11:
 174              	.LBE2:
  58:DataBuffer.c  ****     
 175              		.loc 1 58 0 is_stmt 1 discriminator 1
 176 005a 0021     		movs	r1, #0
 177 005c 0BE0     		b	.L12
 178              	.LVL19:
 179              	.L14:
 180              	.LBB4:
 181              	.LBB3:
  67:DataBuffer.c  ****         
  68:DataBuffer.c  **** 		for(uint32 index=0; index<(num_bytes-1); index++)
  69:DataBuffer.c  **** 		{
  70:DataBuffer.c  **** 			buffer_ptr = (uint8*)(job_queue + head);
 182              		.loc 1 70 0
 183 005e 0D4C     		ldr	r4, .L18
 184 0060 E368     		ldr	r3, [r4, #12]
 185              	.LVL20:
  71:DataBuffer.c  **** 			*buffer_ptr = *(sample_ptr + index + 1);
 186              		.loc 1 71 0
 187 0062 0131     		adds	r1, r1, #1
 188              	.LVL21:
 189 0064 755C     		ldrb	r5, [r6, r1]
 190 0066 FD54     		strb	r5, [r7, r3]
  72:DataBuffer.c  ****             
  73:DataBuffer.c  **** 			if(++head == JOB_BUFFER_SIZE) head = 0;
 191              		.loc 1 73 0
 192 0068 0133     		adds	r3, r3, #1
 193              	.LVL22:
 194 006a E360     		str	r3, [r4, #12]
 195 006c FF2B     		cmp	r3, #255
 196 006e 02D1     		bne	.L12
 197              		.loc 1 73 0 is_stmt 0 discriminator 1
 198 0070 0024     		movs	r4, #0
 199 0072 084B     		ldr	r3, .L18
 200 0074 DC60     		str	r4, [r3, #12]
 201              	.LVL23:
 202              	.L12:
  68:DataBuffer.c  **** 		{
 203              		.loc 1 68 0 is_stmt 1 discriminator 1
 204 0076 531E     		subs	r3, r2, #1
 205 0078 9942     		cmp	r1, r3
 206 007a F0D3     		bcc	.L14
 207              	.LBE3:
  74:DataBuffer.c  **** 		}        
  75:DataBuffer.c  ****         *sample = tmp;
ARM GAS  C:\Users\fiona\AppData\Local\Temp\ccAW88pR.s 			page 6


 208              		.loc 1 75 0
 209 007c 6346     		mov	r3, ip
 210 007e 0360     		str	r3, [r0]
 211              	.LBE4:
  76:DataBuffer.c  ****         // Sample pointer points to location of tmp in the buffer
  77:DataBuffer.c  ****     }
  78:DataBuffer.c  ****     else
  79:DataBuffer.c  ****     {
  80:DataBuffer.c  ****         *sample = NULL;
  81:DataBuffer.c  ****         // Log Error
  82:DataBuffer.c  ****     }
  83:DataBuffer.c  ****     return(result);
 212              		.loc 1 83 0
 213 0080 0198     		ldr	r0, [sp, #4]
 214              	.LVL24:
 215 0082 04E0     		b	.L8
 216              	.LVL25:
 217              	.L10:
  80:DataBuffer.c  ****         // Log Error
 218              		.loc 1 80 0
 219 0084 0023     		movs	r3, #0
 220              	.LVL26:
 221 0086 0360     		str	r3, [r0]
 222              	.LVL27:
 223              		.loc 1 83 0
 224 0088 0198     		ldr	r0, [sp, #4]
 225              	.LVL28:
 226 008a 00E0     		b	.L8
 227              	.LVL29:
 228              	.L15:
  51:DataBuffer.c  ****     }
 229              		.loc 1 51 0
 230 008c 0020     		movs	r0, #0
 231              	.LVL30:
 232              	.L8:
  84:DataBuffer.c  **** }
 233              		.loc 1 84 0
 234 008e 03B0     		add	sp, sp, #12
 235              		@ sp needed
 236 0090 F0BD     		pop	{r4, r5, r6, r7, pc}
 237              	.L19:
 238 0092 C046     		.align	2
 239              	.L18:
 240 0094 00000000 		.word	.LANCHOR0
 241              		.cfi_endproc
 242              	.LFE842:
 243              		.size	DataBuffer_OpenWriteSlot, .-DataBuffer_OpenWriteSlot
 244              		.section	.text.DataBuffer_CloseWriteSlot,"ax",%progbits
 245              		.align	2
 246              		.global	DataBuffer_CloseWriteSlot
 247              		.code	16
 248              		.thumb_func
 249              		.type	DataBuffer_CloseWriteSlot, %function
 250              	DataBuffer_CloseWriteSlot:
 251              	.LFB843:
  85:DataBuffer.c  **** bool DataBuffer_CloseWriteSlot(uint8** sample, uint8 type)
  86:DataBuffer.c  **** {    
ARM GAS  C:\Users\fiona\AppData\Local\Temp\ccAW88pR.s 			page 7


 252              		.loc 1 86 0
 253              		.cfi_startproc
 254              		@ args = 0, pretend = 0, frame = 0
 255              		@ frame_needed = 0, uses_anonymous_args = 0
 256              		@ link register save eliminated.
 257              	.LVL31:
  87:DataBuffer.c  ****     uint8* tmp = *sample;
 258              		.loc 1 87 0
 259 0000 0268     		ldr	r2, [r0]
 260              	.LVL32:
  88:DataBuffer.c  ****     if((*tmp & 0x3F) != type) // Type mismatch
 261              		.loc 1 88 0
 262 0002 1378     		ldrb	r3, [r2]
 263 0004 3F20     		movs	r0, #63
 264              	.LVL33:
 265 0006 0340     		ands	r3, r0
 266 0008 8B42     		cmp	r3, r1
 267 000a 08D1     		bne	.L22
  89:DataBuffer.c  ****     {
  90:DataBuffer.c  ****         return false;
  91:DataBuffer.c  ****         // Log Error
  92:DataBuffer.c  ****     }
  93:DataBuffer.c  ****     *tmp = 0x40 | type; // Unlocked and Valid
 268              		.loc 1 93 0
 269 000c 4023     		movs	r3, #64
 270 000e 1943     		orrs	r1, r3
 271              	.LVL34:
 272 0010 1170     		strb	r1, [r2]
  94:DataBuffer.c  ****     jobs = jobs + 1;
 273              		.loc 1 94 0
 274 0012 044A     		ldr	r2, .L23
 275              	.LVL35:
 276 0014 137C     		ldrb	r3, [r2, #16]
 277 0016 0133     		adds	r3, r3, #1
 278 0018 1374     		strb	r3, [r2, #16]
  95:DataBuffer.c  ****     
  96:DataBuffer.c  ****     return true;
 279              		.loc 1 96 0
 280 001a 3E38     		subs	r0, r0, #62
 281 001c 00E0     		b	.L21
 282              	.LVL36:
 283              	.L22:
  90:DataBuffer.c  ****         // Log Error
 284              		.loc 1 90 0
 285 001e 0020     		movs	r0, #0
 286              	.LVL37:
 287              	.L21:
  97:DataBuffer.c  **** }
 288              		.loc 1 97 0
 289              		@ sp needed
 290 0020 7047     		bx	lr
 291              	.L24:
 292 0022 C046     		.align	2
 293              	.L23:
 294 0024 00000000 		.word	.LANCHOR0
 295              		.cfi_endproc
 296              	.LFE843:
ARM GAS  C:\Users\fiona\AppData\Local\Temp\ccAW88pR.s 			page 8


 297              		.size	DataBuffer_CloseWriteSlot, .-DataBuffer_CloseWriteSlot
 298              		.section	.text.DataBuffer_OpenReadSlot,"ax",%progbits
 299              		.align	2
 300              		.global	DataBuffer_OpenReadSlot
 301              		.code	16
 302              		.thumb_func
 303              		.type	DataBuffer_OpenReadSlot, %function
 304              	DataBuffer_OpenReadSlot:
 305              	.LFB844:
  98:DataBuffer.c  **** bool DataBuffer_OpenReadSlot(uint8** sample, uint8 type, uint32 num_bytes)
  99:DataBuffer.c  **** {   
 306              		.loc 1 99 0
 307              		.cfi_startproc
 308              		@ args = 0, pretend = 0, frame = 8
 309              		@ frame_needed = 0, uses_anonymous_args = 0
 310              	.LVL38:
 311 0000 F0B5     		push	{r4, r5, r6, r7, lr}
 312              		.cfi_def_cfa_offset 20
 313              		.cfi_offset 4, -20
 314              		.cfi_offset 5, -16
 315              		.cfi_offset 6, -12
 316              		.cfi_offset 7, -8
 317              		.cfi_offset 14, -4
 318 0002 83B0     		sub	sp, sp, #12
 319              		.cfi_def_cfa_offset 32
 320              	.LVL39:
 100:DataBuffer.c  ****     uint8* tracker_ptr = *sample;
 101:DataBuffer.c  ****     uint8* tmp = (uint8*)(job_queue + tail);
 321              		.loc 1 101 0
 322 0004 274B     		ldr	r3, .L37
 323 0006 1E68     		ldr	r6, [r3]
 324 0008 5D68     		ldr	r5, [r3, #4]
 325 000a 7319     		adds	r3, r6, r5
 326 000c 9C46     		mov	ip, r3
 327              	.LVL40:
 102:DataBuffer.c  ****     
 103:DataBuffer.c  ****     if((*tmp & 0x3F) != type)
 328              		.loc 1 103 0
 329 000e 1C78     		ldrb	r4, [r3]
 330 0010 3F23     		movs	r3, #63
 331              	.LVL41:
 332 0012 2340     		ands	r3, r4
 333 0014 8B42     		cmp	r3, r1
 334 0016 40D1     		bne	.L33
 104:DataBuffer.c  ****     {
 105:DataBuffer.c  ****         return false;
 106:DataBuffer.c  ****         // Log Error
 107:DataBuffer.c  ****     }
 108:DataBuffer.c  ****     if (num_bytes > size)
 335              		.loc 1 108 0
 336 0018 224B     		ldr	r3, .L37
 337 001a 9B68     		ldr	r3, [r3, #8]
 338 001c 9342     		cmp	r3, r2
 339 001e 3ED3     		bcc	.L34
 109:DataBuffer.c  ****     {
 110:DataBuffer.c  ****         return false;
 111:DataBuffer.c  ****     }
ARM GAS  C:\Users\fiona\AppData\Local\Temp\ccAW88pR.s 			page 9


 112:DataBuffer.c  ****     size = size - num_bytes;
 340              		.loc 1 112 0
 341 0020 9B1A     		subs	r3, r3, r2
 342 0022 204F     		ldr	r7, .L37
 343 0024 BB60     		str	r3, [r7, #8]
 113:DataBuffer.c  ****     
 114:DataBuffer.c  ****     bool locked = (*tmp >> 7) & 0x01;    // Status Bit 8
 344              		.loc 1 114 0
 345 0026 E309     		lsrs	r3, r4, #7
 346              	.LVL42:
 115:DataBuffer.c  ****     bool valid  = (*tmp >> 6) & 0x01;    // Status Bit 7
 347              		.loc 1 115 0
 348 0028 A409     		lsrs	r4, r4, #6
 349 002a 0127     		movs	r7, #1
 350 002c 3C40     		ands	r4, r7
 351              	.LVL43:
 116:DataBuffer.c  ****     bool result = (!locked && valid);
 352              		.loc 1 116 0
 353 002e 002B     		cmp	r3, #0
 354 0030 03D1     		bne	.L35
 355              		.loc 1 116 0 is_stmt 0 discriminator 1
 356 0032 002C     		cmp	r4, #0
 357 0034 03D1     		bne	.L36
 358              		.loc 1 116 0
 359 0036 0027     		movs	r7, #0
 360 0038 02E0     		b	.L27
 361              	.L35:
 362 003a 0027     		movs	r7, #0
 363 003c 00E0     		b	.L27
 364              	.L36:
 365 003e 0127     		movs	r7, #1
 366              	.L27:
 367              		.loc 1 116 0 discriminator 6
 368 0040 0197     		str	r7, [sp, #4]
 369              	.LVL44:
 117:DataBuffer.c  ****     
 118:DataBuffer.c  ****     if(result)
 370              		.loc 1 118 0 is_stmt 1 discriminator 6
 371 0042 002F     		cmp	r7, #0
 372 0044 25D0     		beq	.L28
 373              	.LBB5:
 119:DataBuffer.c  ****     {
 120:DataBuffer.c  ****         *tmp = 0xC0 | type; // Locked and Valid       
 374              		.loc 1 120 0
 375 0046 4023     		movs	r3, #64
 376              	.LVL45:
 377 0048 5B42     		rsbs	r3, r3, #0
 378 004a 1943     		orrs	r1, r3
 379              	.LVL46:
 380 004c 6346     		mov	r3, ip
 381 004e 1970     		strb	r1, [r3]
 382              	.LVL47:
 121:DataBuffer.c  ****         
 122:DataBuffer.c  ****         uint8* buffer_ptr = (uint8*) job_queue;
 123:DataBuffer.c  ****         uint8* sample_ptr;
 124:DataBuffer.c  ****         uint8* sample_init = (uint8*) *sample;
 383              		.loc 1 124 0
ARM GAS  C:\Users\fiona\AppData\Local\Temp\ccAW88pR.s 			page 10


 384 0050 0768     		ldr	r7, [r0]
 385              	.LVL48:
 125:DataBuffer.c  ****         if(++tail == JOB_BUFFER_SIZE) tail = 0;
 386              		.loc 1 125 0
 387 0052 0135     		adds	r5, r5, #1
 388 0054 134B     		ldr	r3, .L37
 389 0056 5D60     		str	r5, [r3, #4]
 390 0058 FF2D     		cmp	r5, #255
 391 005a 01D1     		bne	.L29
 392              		.loc 1 125 0 is_stmt 0 discriminator 1
 393 005c 0021     		movs	r1, #0
 394 005e 5960     		str	r1, [r3, #4]
 395              	.L29:
 396              	.LBE5:
 116:DataBuffer.c  ****     
 397              		.loc 1 116 0 is_stmt 1 discriminator 1
 398 0060 0021     		movs	r1, #0
 399 0062 0FE0     		b	.L30
 400              	.LVL49:
 401              	.L32:
 402              	.LBB7:
 403              	.LBB6:
 126:DataBuffer.c  ****         
 127:DataBuffer.c  ****         for(uint32 index=0; index<(num_bytes-1); index++)
 128:DataBuffer.c  **** 		{
 129:DataBuffer.c  ****             sample_ptr = (uint8*) (sample_init + index + 1);
 404              		.loc 1 129 0
 405 0064 0131     		adds	r1, r1, #1
 406              	.LVL50:
 130:DataBuffer.c  ****             *sample_ptr = *(buffer_ptr + tail);
 407              		.loc 1 130 0
 408 0066 0F4C     		ldr	r4, .L37
 409 0068 6368     		ldr	r3, [r4, #4]
 410 006a F518     		adds	r5, r6, r3
 411 006c 2B78     		ldrb	r3, [r5]
 412 006e 7B54     		strb	r3, [r7, r1]
 131:DataBuffer.c  ****             *(buffer_ptr + tail) = 0;
 413              		.loc 1 131 0
 414 0070 0023     		movs	r3, #0
 415 0072 2B70     		strb	r3, [r5]
 132:DataBuffer.c  ****             
 133:DataBuffer.c  **** 			if(++tail == JOB_BUFFER_SIZE) tail = 0;
 416              		.loc 1 133 0
 417 0074 6368     		ldr	r3, [r4, #4]
 418 0076 0133     		adds	r3, r3, #1
 419 0078 6360     		str	r3, [r4, #4]
 420 007a FF2B     		cmp	r3, #255
 421 007c 02D1     		bne	.L30
 422              		.loc 1 133 0 is_stmt 0 discriminator 1
 423 007e 0024     		movs	r4, #0
 424 0080 084B     		ldr	r3, .L37
 425 0082 5C60     		str	r4, [r3, #4]
 426              	.LVL51:
 427              	.L30:
 127:DataBuffer.c  **** 		{
 428              		.loc 1 127 0 is_stmt 1 discriminator 1
 429 0084 531E     		subs	r3, r2, #1
ARM GAS  C:\Users\fiona\AppData\Local\Temp\ccAW88pR.s 			page 11


 430 0086 9942     		cmp	r1, r3
 431 0088 ECD3     		bcc	.L32
 432              	.LBE6:
 134:DataBuffer.c  **** 		}
 135:DataBuffer.c  ****         *sample = tmp;
 433              		.loc 1 135 0
 434 008a 6346     		mov	r3, ip
 435 008c 0360     		str	r3, [r0]
 436              	.LBE7:
 136:DataBuffer.c  ****     }
 137:DataBuffer.c  ****     else
 138:DataBuffer.c  ****     {
 139:DataBuffer.c  ****         *sample = NULL;
 140:DataBuffer.c  ****     }
 141:DataBuffer.c  ****     return(result);
 437              		.loc 1 141 0
 438 008e 0198     		ldr	r0, [sp, #4]
 439              	.LVL52:
 440 0090 06E0     		b	.L26
 441              	.LVL53:
 442              	.L28:
 139:DataBuffer.c  ****     }
 443              		.loc 1 139 0
 444 0092 0023     		movs	r3, #0
 445              	.LVL54:
 446 0094 0360     		str	r3, [r0]
 447              	.LVL55:
 448              		.loc 1 141 0
 449 0096 0198     		ldr	r0, [sp, #4]
 450              	.LVL56:
 451 0098 02E0     		b	.L26
 452              	.LVL57:
 453              	.L33:
 105:DataBuffer.c  ****         // Log Error
 454              		.loc 1 105 0
 455 009a 0020     		movs	r0, #0
 456              	.LVL58:
 457 009c 00E0     		b	.L26
 458              	.LVL59:
 459              	.L34:
 110:DataBuffer.c  ****     }
 460              		.loc 1 110 0
 461 009e 0020     		movs	r0, #0
 462              	.LVL60:
 463              	.L26:
 142:DataBuffer.c  **** }
 464              		.loc 1 142 0
 465 00a0 03B0     		add	sp, sp, #12
 466              		@ sp needed
 467 00a2 F0BD     		pop	{r4, r5, r6, r7, pc}
 468              	.L38:
 469              		.align	2
 470              	.L37:
 471 00a4 00000000 		.word	.LANCHOR0
 472              		.cfi_endproc
 473              	.LFE844:
 474              		.size	DataBuffer_OpenReadSlot, .-DataBuffer_OpenReadSlot
ARM GAS  C:\Users\fiona\AppData\Local\Temp\ccAW88pR.s 			page 12


 475              		.section	.text.DataBuffer_CloseReadSlot,"ax",%progbits
 476              		.align	2
 477              		.global	DataBuffer_CloseReadSlot
 478              		.code	16
 479              		.thumb_func
 480              		.type	DataBuffer_CloseReadSlot, %function
 481              	DataBuffer_CloseReadSlot:
 482              	.LFB845:
 143:DataBuffer.c  **** bool DataBuffer_CloseReadSlot(uint8** sample, uint8 type)
 144:DataBuffer.c  **** {   
 483              		.loc 1 144 0
 484              		.cfi_startproc
 485              		@ args = 0, pretend = 0, frame = 0
 486              		@ frame_needed = 0, uses_anonymous_args = 0
 487              		@ link register save eliminated.
 488              	.LVL61:
 145:DataBuffer.c  ****     uint8* tmp = *sample;
 489              		.loc 1 145 0
 490 0000 0268     		ldr	r2, [r0]
 491              	.LVL62:
 146:DataBuffer.c  ****     if((*tmp & 0x3F) != type) // Type mismatch
 492              		.loc 1 146 0
 493 0002 1378     		ldrb	r3, [r2]
 494 0004 3F20     		movs	r0, #63
 495              	.LVL63:
 496 0006 0340     		ands	r3, r0
 497 0008 8B42     		cmp	r3, r1
 498 000a 07D1     		bne	.L41
 147:DataBuffer.c  ****     {
 148:DataBuffer.c  ****         return false;
 149:DataBuffer.c  ****         // Log Error
 150:DataBuffer.c  ****     }
 151:DataBuffer.c  ****     *tmp = 0x00 | EMPTYSLOT; // Unlocked and Invalid
 499              		.loc 1 151 0
 500 000c 0023     		movs	r3, #0
 501 000e 1370     		strb	r3, [r2]
 152:DataBuffer.c  ****     jobs = jobs - 1; 
 502              		.loc 1 152 0
 503 0010 034A     		ldr	r2, .L42
 504              	.LVL64:
 505 0012 137C     		ldrb	r3, [r2, #16]
 506 0014 013B     		subs	r3, r3, #1
 507 0016 1374     		strb	r3, [r2, #16]
 153:DataBuffer.c  ****     return true;
 508              		.loc 1 153 0
 509 0018 3E38     		subs	r0, r0, #62
 510 001a 00E0     		b	.L40
 511              	.LVL65:
 512              	.L41:
 148:DataBuffer.c  ****         // Log Error
 513              		.loc 1 148 0
 514 001c 0020     		movs	r0, #0
 515              	.LVL66:
 516              	.L40:
 154:DataBuffer.c  **** }
 517              		.loc 1 154 0
 518              		@ sp needed
ARM GAS  C:\Users\fiona\AppData\Local\Temp\ccAW88pR.s 			page 13


 519 001e 7047     		bx	lr
 520              	.L43:
 521              		.align	2
 522              	.L42:
 523 0020 00000000 		.word	.LANCHOR0
 524              		.cfi_endproc
 525              	.LFE845:
 526              		.size	DataBuffer_CloseReadSlot, .-DataBuffer_CloseReadSlot
 527              		.section	.text.DataBuffer_GetNumerator,"ax",%progbits
 528              		.align	2
 529              		.global	DataBuffer_GetNumerator
 530              		.code	16
 531              		.thumb_func
 532              		.type	DataBuffer_GetNumerator, %function
 533              	DataBuffer_GetNumerator:
 534              	.LFB846:
 155:DataBuffer.c  **** 
 156:DataBuffer.c  **** uint8 DataBuffer_GetNumerator(uint8 type)
 157:DataBuffer.c  **** {
 535              		.loc 1 157 0
 536              		.cfi_startproc
 537              		@ args = 0, pretend = 0, frame = 0
 538              		@ frame_needed = 0, uses_anonymous_args = 0
 539              		@ link register save eliminated.
 540              	.LVL67:
 158:DataBuffer.c  ****     return numerators[type-1];
 541              		.loc 1 158 0
 542 0000 0138     		subs	r0, r0, #1
 543              	.LVL68:
 544 0002 8000     		lsls	r0, r0, #2
 545 0004 014B     		ldr	r3, .L45
 546 0006 185C     		ldrb	r0, [r3, r0]
 159:DataBuffer.c  **** }
 547              		.loc 1 159 0
 548              		@ sp needed
 549 0008 7047     		bx	lr
 550              	.L46:
 551 000a C046     		.align	2
 552              	.L45:
 553 000c 00000000 		.word	numerators
 554              		.cfi_endproc
 555              	.LFE846:
 556              		.size	DataBuffer_GetNumerator, .-DataBuffer_GetNumerator
 557              		.section	.text.DataBuffer_SetNumerator,"ax",%progbits
 558              		.align	2
 559              		.global	DataBuffer_SetNumerator
 560              		.code	16
 561              		.thumb_func
 562              		.type	DataBuffer_SetNumerator, %function
 563              	DataBuffer_SetNumerator:
 564              	.LFB847:
 160:DataBuffer.c  **** void DataBuffer_SetNumerator(uint8 num, uint8 type)
 161:DataBuffer.c  **** {
 565              		.loc 1 161 0
 566              		.cfi_startproc
 567              		@ args = 0, pretend = 0, frame = 0
 568              		@ frame_needed = 0, uses_anonymous_args = 0
ARM GAS  C:\Users\fiona\AppData\Local\Temp\ccAW88pR.s 			page 14


 569              		@ link register save eliminated.
 570              	.LVL69:
 162:DataBuffer.c  ****     numerators[type-1] = num;
 571              		.loc 1 162 0
 572 0000 0139     		subs	r1, r1, #1
 573              	.LVL70:
 574 0002 8900     		lsls	r1, r1, #2
 575 0004 014B     		ldr	r3, .L48
 576 0006 C850     		str	r0, [r1, r3]
 163:DataBuffer.c  **** }
 577              		.loc 1 163 0
 578              		@ sp needed
 579 0008 7047     		bx	lr
 580              	.L49:
 581 000a C046     		.align	2
 582              	.L48:
 583 000c 00000000 		.word	numerators
 584              		.cfi_endproc
 585              	.LFE847:
 586              		.size	DataBuffer_SetNumerator, .-DataBuffer_SetNumerator
 587              		.section	.text.DataBuffer_GetDenominator,"ax",%progbits
 588              		.align	2
 589              		.global	DataBuffer_GetDenominator
 590              		.code	16
 591              		.thumb_func
 592              		.type	DataBuffer_GetDenominator, %function
 593              	DataBuffer_GetDenominator:
 594              	.LFB848:
 164:DataBuffer.c  **** 
 165:DataBuffer.c  **** uint8 DataBuffer_GetDenominator(uint8 type)
 166:DataBuffer.c  **** {
 595              		.loc 1 166 0
 596              		.cfi_startproc
 597              		@ args = 0, pretend = 0, frame = 0
 598              		@ frame_needed = 0, uses_anonymous_args = 0
 599              		@ link register save eliminated.
 600              	.LVL71:
 167:DataBuffer.c  ****     return denominators[type-1];
 601              		.loc 1 167 0
 602 0000 0138     		subs	r0, r0, #1
 603              	.LVL72:
 604 0002 8000     		lsls	r0, r0, #2
 605 0004 014B     		ldr	r3, .L51
 606 0006 185C     		ldrb	r0, [r3, r0]
 168:DataBuffer.c  **** }
 607              		.loc 1 168 0
 608              		@ sp needed
 609 0008 7047     		bx	lr
 610              	.L52:
 611 000a C046     		.align	2
 612              	.L51:
 613 000c 00000000 		.word	denominators
 614              		.cfi_endproc
 615              	.LFE848:
 616              		.size	DataBuffer_GetDenominator, .-DataBuffer_GetDenominator
 617              		.section	.text.DataBuffer_SetDenominator,"ax",%progbits
 618              		.align	2
ARM GAS  C:\Users\fiona\AppData\Local\Temp\ccAW88pR.s 			page 15


 619              		.global	DataBuffer_SetDenominator
 620              		.code	16
 621              		.thumb_func
 622              		.type	DataBuffer_SetDenominator, %function
 623              	DataBuffer_SetDenominator:
 624              	.LFB849:
 169:DataBuffer.c  **** void DataBuffer_SetDenominator(uint8 den, uint8 type)
 170:DataBuffer.c  **** {
 625              		.loc 1 170 0
 626              		.cfi_startproc
 627              		@ args = 0, pretend = 0, frame = 0
 628              		@ frame_needed = 0, uses_anonymous_args = 0
 629              		@ link register save eliminated.
 630              	.LVL73:
 171:DataBuffer.c  ****     denominators[type-1] = den;
 631              		.loc 1 171 0
 632 0000 0139     		subs	r1, r1, #1
 633              	.LVL74:
 634 0002 8900     		lsls	r1, r1, #2
 635 0004 014B     		ldr	r3, .L54
 636 0006 C850     		str	r0, [r1, r3]
 172:DataBuffer.c  **** }...
 637              		.loc 1 172 0
 638              		@ sp needed
 639 0008 7047     		bx	lr
 640              	.L55:
 641 000a C046     		.align	2
 642              	.L54:
 643 000c 00000000 		.word	denominators
 644              		.cfi_endproc
 645              	.LFE849:
 646              		.size	DataBuffer_SetDenominator, .-DataBuffer_SetDenominator
 647              		.section	.text.DataBuffer_Init,"ax",%progbits
 648              		.align	2
 649              		.global	DataBuffer_Init
 650              		.code	16
 651              		.thumb_func
 652              		.type	DataBuffer_Init, %function
 653              	DataBuffer_Init:
 654              	.LFB840:
  12:DataBuffer.c  **** {
 655              		.loc 1 12 0
 656              		.cfi_startproc
 657              		@ args = 0, pretend = 0, frame = 0
 658              		@ frame_needed = 0, uses_anonymous_args = 0
 659 0000 10B5     		push	{r4, lr}
 660              		.cfi_def_cfa_offset 8
 661              		.cfi_offset 4, -8
 662              		.cfi_offset 14, -4
  13:DataBuffer.c  ****     job_queue = (uint8*) malloc(JOB_BUFFER_SIZE);
 663              		.loc 1 13 0
 664 0002 FF20     		movs	r0, #255
 665 0004 FFF7FEFF 		bl	malloc
 666              	.LVL75:
 667 0008 0F4B     		ldr	r3, .L61
 668 000a 1860     		str	r0, [r3]
 669              	.LVL76:
ARM GAS  C:\Users\fiona\AppData\Local\Temp\ccAW88pR.s 			page 16


 670              	.LBB8:
  17:DataBuffer.c  ****     for(uint8 byte = 0; byte < JOB_BUFFER_SIZE; byte++)
 671              		.loc 1 17 0
 672 000c 0023     		movs	r3, #0
 673 000e 04E0     		b	.L57
 674              	.LVL77:
 675              	.L58:
  19:DataBuffer.c  ****         body = (uint8*)(job_queue + (byte) );
 676              		.loc 1 19 0 discriminator 3
 677 0010 C218     		adds	r2, r0, r3
 678              	.LVL78:
  20:DataBuffer.c  ****         *body = 0x00; // Set body to 0x00 for all slots
 679              		.loc 1 20 0 discriminator 3
 680 0012 0021     		movs	r1, #0
 681 0014 1170     		strb	r1, [r2]
  17:DataBuffer.c  ****     for(uint8 byte = 0; byte < JOB_BUFFER_SIZE; byte++)
 682              		.loc 1 17 0 discriminator 3
 683 0016 0133     		adds	r3, r3, #1
 684              	.LVL79:
 685 0018 DBB2     		uxtb	r3, r3
 686              	.LVL80:
 687              	.L57:
  17:DataBuffer.c  ****     for(uint8 byte = 0; byte < JOB_BUFFER_SIZE; byte++)
 688              		.loc 1 17 0 is_stmt 0 discriminator 1
 689 001a FF2B     		cmp	r3, #255
 690 001c F8D1     		bne	.L58
 691              	.LBE8:
  22:DataBuffer.c  ****     jobs = 0; // Reset jobs
 692              		.loc 1 22 0 is_stmt 1
 693 001e 0A4B     		ldr	r3, .L61
 694              	.LVL81:
 695 0020 0022     		movs	r2, #0
 696 0022 1A74     		strb	r2, [r3, #16]
  23:DataBuffer.c  ****     head = 0; // Reset head
 697              		.loc 1 23 0
 698 0024 DA60     		str	r2, [r3, #12]
  24:DataBuffer.c  ****     tail = 0; // Reset tail
 699              		.loc 1 24 0
 700 0026 5A60     		str	r2, [r3, #4]
  25:DataBuffer.c  ****     size = 0; // Reset size
 701              		.loc 1 25 0
 702 0028 9A60     		str	r2, [r3, #8]
 703              	.LVL82:
 704              	.LBB9:
  27:DataBuffer.c  ****     for(uint8 type = 1; type<NUM_OF_SENSORS+1; type++)
 705              		.loc 1 27 0
 706 002a 0124     		movs	r4, #1
 707 002c 09E0     		b	.L59
 708              	.LVL83:
 709              	.L60:
  29:DataBuffer.c  ****         DataBuffer_SetNumerator(1,type); // Set numerator of all sensors to 1
 710              		.loc 1 29 0 discriminator 3
 711 002e 2100     		movs	r1, r4
 712 0030 0120     		movs	r0, #1
 713 0032 FFF7FEFF 		bl	DataBuffer_SetNumerator
 714              	.LVL84:
  30:DataBuffer.c  ****         DataBuffer_SetDenominator(1,type); // Set denominator of all sensors to 1
ARM GAS  C:\Users\fiona\AppData\Local\Temp\ccAW88pR.s 			page 17


 715              		.loc 1 30 0 discriminator 3
 716 0036 2100     		movs	r1, r4
 717 0038 0120     		movs	r0, #1
 718 003a FFF7FEFF 		bl	DataBuffer_SetDenominator
 719              	.LVL85:
  27:DataBuffer.c  ****     for(uint8 type = 1; type<NUM_OF_SENSORS+1; type++)
 720              		.loc 1 27 0 discriminator 3
 721 003e 0134     		adds	r4, r4, #1
 722              	.LVL86:
 723 0040 E4B2     		uxtb	r4, r4
 724              	.LVL87:
 725              	.L59:
  27:DataBuffer.c  ****     for(uint8 type = 1; type<NUM_OF_SENSORS+1; type++)
 726              		.loc 1 27 0 is_stmt 0 discriminator 1
 727 0042 0A2C     		cmp	r4, #10
 728 0044 F3D9     		bls	.L60
 729              	.LBE9:
  32:DataBuffer.c  **** }
 730              		.loc 1 32 0 is_stmt 1
 731              		@ sp needed
 732              	.LVL88:
 733 0046 10BD     		pop	{r4, pc}
 734              	.L62:
 735              		.align	2
 736              	.L61:
 737 0048 00000000 		.word	.LANCHOR0
 738              		.cfi_endproc
 739              	.LFE840:
 740              		.size	DataBuffer_Init, .-DataBuffer_Init
 741              		.comm	denominators,40,4
 742              		.comm	numerators,40,4
 743              		.bss
 744              		.align	2
 745              		.set	.LANCHOR0,. + 0
 746              		.type	job_queue, %object
 747              		.size	job_queue, 4
 748              	job_queue:
 749 0000 00000000 		.space	4
 750              		.type	tail, %object
 751              		.size	tail, 4
 752              	tail:
 753 0004 00000000 		.space	4
 754              		.type	size, %object
 755              		.size	size, 4
 756              	size:
 757 0008 00000000 		.space	4
 758              		.type	head, %object
 759              		.size	head, 4
 760              	head:
 761 000c 00000000 		.space	4
 762              		.type	jobs, %object
 763              		.size	jobs, 1
 764              	jobs:
 765 0010 00       		.space	1
 766              		.text
 767              	.Letext0:
 768              		.file 2 "c:\\program files (x86)\\cypress\\psoc creator\\4.2\\psoc creator\\import\\gnu\\arm\\5.4.
ARM GAS  C:\Users\fiona\AppData\Local\Temp\ccAW88pR.s 			page 18


 769              		.file 3 "c:\\program files (x86)\\cypress\\psoc creator\\4.2\\psoc creator\\import\\gnu\\arm\\5.4.
 770              		.file 4 "Generated_Source\\PSoC6\\pdl\\drivers/peripheral/syslib/cy_syslib.h"
 771              		.file 5 "Generated_Source\\PSoC6\\pdl\\drivers/peripheral/tcpwm/cy_tcpwm_counter.h"
 772              		.file 6 "Generated_Source\\PSoC6\\pdl\\drivers/peripheral/tcpwm/cy_tcpwm_pwm.h"
 773              		.file 7 "Generated_Source\\PSoC6\\pdl\\drivers/peripheral/scb/cy_scb_i2c.h"
 774              		.file 8 "Generated_Source\\PSoC6\\pdl\\drivers/peripheral/scb/cy_scb_uart.h"
 775              		.file 9 "Generated_Source\\PSoC6\\pdl\\drivers/peripheral/sar/cy_sar.h"
 776              		.file 10 "Generated_Source\\PSoC6\\pdl\\middleware/ble/cy_ble_stack.h"
 777              		.file 11 "Generated_Source\\PSoC6\\pdl\\middleware/ble/cy_ble_stack_host_main.h"
 778              		.file 12 "Generated_Source\\PSoC6\\pdl\\middleware/ble/cy_ble_gap.h"
 779              		.file 13 "Generated_Source\\PSoC6/ADC.h"
 780              		.file 14 "Generated_Source\\PSoC6\\pdl\\drivers/peripheral/rtc/cy_rtc.h"
 781              		.file 15 "Generated_Source\\PSoC6/UART_DEBUG.h"
 782              		.file 16 "Generated_Source\\PSoC6/SensorBus.h"
 783              		.file 17 "Generated_Source\\PSoC6/LightOutputC.h"
 784              		.file 18 "Generated_Source\\PSoC6/LightOutputA.h"
 785              		.file 19 "Generated_Source\\PSoC6/LightTimer.h"
 786              		.file 20 "Generated_Source\\PSoC6/LightOutputB.h"
 787              		.file 21 "Generated_Source\\PSoC6/MotorOutput.h"
 788              		.file 22 "Generated_Source\\PSoC6/MotorTimer.h"
 789              		.file 23 "Generated_Source\\PSoC6/ChimeOutput.h"
 790              		.file 24 "Generated_Source\\PSoC6/ChimeTimer.h"
 791              		.file 25 "./DataBuffer.h"
 792              		.file 26 "c:\\program files (x86)\\cypress\\psoc creator\\4.2\\psoc creator\\import\\gnu\\arm\\5.4