ARM GAS  C:\Users\fiona\AppData\Local\Temp\ccLijNn7.s 			page 1


   1              		.syntax unified
   2              		.cpu cortex-m0plus
   3              		.fpu softvfp
   4              		.eabi_attribute 20, 1
   5              		.eabi_attribute 21, 1
   6              		.eabi_attribute 23, 3
   7              		.eabi_attribute 24, 1
   8              		.eabi_attribute 25, 1
   9              		.eabi_attribute 26, 1
  10              		.eabi_attribute 30, 1
  11              		.eabi_attribute 34, 0
  12              		.eabi_attribute 18, 4
  13              		.thumb
  14              		.syntax unified
  15              		.file	"RxBuffer.c"
  16              		.text
  17              	.Ltext0:
  18              		.cfi_sections	.debug_frame
  19              		.section	.text.RxBuffer_MemoryToBuffer,"ax",%progbits
  20              		.align	2
  21              		.global	RxBuffer_MemoryToBuffer
  22              		.code	16
  23              		.thumb_func
  24              		.type	RxBuffer_MemoryToBuffer, %function
  25              	RxBuffer_MemoryToBuffer:
  26              	.LFB837:
  27              		.file 1 "RxBuffer.c"
   1:RxBuffer.c    **** 
   2:RxBuffer.c    **** #include <RxBuffer.h>
   3:RxBuffer.c    **** #include <KinOS.h>
   4:RxBuffer.c    **** 
   5:RxBuffer.c    **** //-------------------------------------------------------------//
   6:RxBuffer.c    **** 
   7:RxBuffer.c    **** static uint8 *buffer; // Circular Buffer
   8:RxBuffer.c    **** static uint32 head = 0; // Buffer Head
   9:RxBuffer.c    **** static uint32 tail = 0; // Buffer Tail
  10:RxBuffer.c    **** static uint32 size = 0; // Buffer Size
  11:RxBuffer.c    **** 
  12:RxBuffer.c    **** //-------------------------------------------------------------//
  13:RxBuffer.c    **** //------------------------DATA-TRANSFER------------------------//
  14:RxBuffer.c    **** //-------------------------------------------------------------//
  15:RxBuffer.c    **** 
  16:RxBuffer.c    **** bool RxBuffer_MemoryToBuffer(uint32 num_bytes, uint8 *data)
  17:RxBuffer.c    **** {    
  28              		.loc 1 17 0
  29              		.cfi_startproc
  30              		@ args = 0, pretend = 0, frame = 0
  31              		@ frame_needed = 0, uses_anonymous_args = 0
  32              	.LVL0:
  33 0000 30B5     		push	{r4, r5, lr}
  34              		.cfi_def_cfa_offset 12
  35              		.cfi_offset 4, -12
  36              		.cfi_offset 5, -8
  37              		.cfi_offset 14, -4
  18:RxBuffer.c    ****     if( num_bytes > (RX_BUFFER_SIZE-size) ) 
  38              		.loc 1 18 0
  39 0002 0E4B     		ldr	r3, .L8
ARM GAS  C:\Users\fiona\AppData\Local\Temp\ccLijNn7.s 			page 2


  40 0004 1A68     		ldr	r2, [r3]
  41 0006 6423     		movs	r3, #100
  42 0008 9B1A     		subs	r3, r3, r2
  43 000a 8342     		cmp	r3, r0
  44 000c 14D3     		bcc	.L6
  19:RxBuffer.c    ****     {
  20:RxBuffer.c    ****         return false; // Cant fit
  21:RxBuffer.c    ****     }
  22:RxBuffer.c    ****     size = size + num_bytes;
  45              		.loc 1 22 0
  46 000e 1218     		adds	r2, r2, r0
  47 0010 0A4B     		ldr	r3, .L8
  48 0012 1A60     		str	r2, [r3]
  23:RxBuffer.c    ****     
  24:RxBuffer.c    ****     static uint8 *ptr;
  25:RxBuffer.c    ****     uint32 offset = head;
  49              		.loc 1 25 0
  50 0014 5B68     		ldr	r3, [r3, #4]
  51              	.LVL1:
  52              	.LBB2:
  26:RxBuffer.c    ****     
  27:RxBuffer.c    ****     for( uint32 i=0; i<num_bytes; i++ )
  53              		.loc 1 27 0
  54 0016 0022     		movs	r2, #0
  55 0018 08E0     		b	.L3
  56              	.LVL2:
  57              	.L5:
  28:RxBuffer.c    ****     {
  29:RxBuffer.c    ****         ptr = (uint8*)(buffer + offset);
  58              		.loc 1 29 0
  59 001a 084C     		ldr	r4, .L8
  60 001c A468     		ldr	r4, [r4, #8]
  30:RxBuffer.c    ****         *ptr = data[i];
  61              		.loc 1 30 0
  62 001e 8D5C     		ldrb	r5, [r1, r2]
  63 0020 E554     		strb	r5, [r4, r3]
  31:RxBuffer.c    ****         
  32:RxBuffer.c    ****         if( ++offset == RX_BUFFER_SIZE ) offset = 0;
  64              		.loc 1 32 0
  65 0022 0133     		adds	r3, r3, #1
  66              	.LVL3:
  67 0024 642B     		cmp	r3, #100
  68 0026 00D1     		bne	.L4
  69 0028 0023     		movs	r3, #0
  70              	.LVL4:
  71              	.L4:
  27:RxBuffer.c    ****     {
  72              		.loc 1 27 0 discriminator 2
  73 002a 0132     		adds	r2, r2, #1
  74              	.LVL5:
  75              	.L3:
  27:RxBuffer.c    ****     {
  76              		.loc 1 27 0 is_stmt 0 discriminator 1
  77 002c 8242     		cmp	r2, r0
  78 002e F4D3     		bcc	.L5
  79              	.LBE2:
  33:RxBuffer.c    ****     }
ARM GAS  C:\Users\fiona\AppData\Local\Temp\ccLijNn7.s 			page 3


  34:RxBuffer.c    ****     head = offset;
  80              		.loc 1 34 0 is_stmt 1
  81 0030 024A     		ldr	r2, .L8
  82              	.LVL6:
  83 0032 5360     		str	r3, [r2, #4]
  35:RxBuffer.c    ****     
  36:RxBuffer.c    ****     return true;
  84              		.loc 1 36 0
  85 0034 0120     		movs	r0, #1
  86              	.LVL7:
  87 0036 00E0     		b	.L2
  88              	.LVL8:
  89              	.L6:
  20:RxBuffer.c    ****     }
  90              		.loc 1 20 0
  91 0038 0020     		movs	r0, #0
  92              	.LVL9:
  93              	.L2:
  37:RxBuffer.c    **** }
  94              		.loc 1 37 0
  95              		@ sp needed
  96 003a 30BD     		pop	{r4, r5, pc}
  97              	.L9:
  98              		.align	2
  99              	.L8:
 100 003c 00000000 		.word	.LANCHOR0
 101              		.cfi_endproc
 102              	.LFE837:
 103              		.size	RxBuffer_MemoryToBuffer, .-RxBuffer_MemoryToBuffer
 104              		.section	.text.RxBuffer_BufferToMemory,"ax",%progbits
 105              		.align	2
 106              		.global	RxBuffer_BufferToMemory
 107              		.code	16
 108              		.thumb_func
 109              		.type	RxBuffer_BufferToMemory, %function
 110              	RxBuffer_BufferToMemory:
 111              	.LFB838:
  38:RxBuffer.c    **** bool RxBuffer_BufferToMemory(uint32 num_bytes, uint8 *data)
  39:RxBuffer.c    **** {
 112              		.loc 1 39 0
 113              		.cfi_startproc
 114              		@ args = 0, pretend = 0, frame = 0
 115              		@ frame_needed = 0, uses_anonymous_args = 0
 116              	.LVL10:
 117 0000 10B5     		push	{r4, lr}
 118              		.cfi_def_cfa_offset 8
 119              		.cfi_offset 4, -8
 120              		.cfi_offset 14, -4
  40:RxBuffer.c    ****     if (num_bytes > size)
 121              		.loc 1 40 0
 122 0002 0D4B     		ldr	r3, .L17
 123 0004 1B68     		ldr	r3, [r3]
 124 0006 8342     		cmp	r3, r0
 125 0008 14D3     		bcc	.L15
  41:RxBuffer.c    ****     {
  42:RxBuffer.c    ****         return false;
  43:RxBuffer.c    ****     }
ARM GAS  C:\Users\fiona\AppData\Local\Temp\ccLijNn7.s 			page 4


  44:RxBuffer.c    ****     size = size - num_bytes;
 126              		.loc 1 44 0
 127 000a 1B1A     		subs	r3, r3, r0
 128 000c 0A4A     		ldr	r2, .L17
 129 000e 1360     		str	r3, [r2]
  45:RxBuffer.c    ****     
  46:RxBuffer.c    ****     static uint8 *ptr;
  47:RxBuffer.c    ****     uint32 offset = tail;
 130              		.loc 1 47 0
 131 0010 D368     		ldr	r3, [r2, #12]
 132              	.LVL11:
 133              	.LBB3:
  48:RxBuffer.c    ****     
  49:RxBuffer.c    ****     for( uint32 i=0; i<num_bytes; i++ )
 134              		.loc 1 49 0
 135 0012 0022     		movs	r2, #0
 136 0014 08E0     		b	.L12
 137              	.LVL12:
 138              	.L14:
  50:RxBuffer.c    ****     {
  51:RxBuffer.c    ****         ptr = (uint8*)(buffer + offset);
 139              		.loc 1 51 0
 140 0016 084C     		ldr	r4, .L17
 141 0018 A468     		ldr	r4, [r4, #8]
  52:RxBuffer.c    ****         data[i] = *ptr;
 142              		.loc 1 52 0
 143 001a E45C     		ldrb	r4, [r4, r3]
 144 001c 8C54     		strb	r4, [r1, r2]
  53:RxBuffer.c    ****         
  54:RxBuffer.c    ****         if( ++offset == RX_BUFFER_SIZE ) offset = 0;
 145              		.loc 1 54 0
 146 001e 0133     		adds	r3, r3, #1
 147              	.LVL13:
 148 0020 642B     		cmp	r3, #100
 149 0022 00D1     		bne	.L13
 150 0024 0023     		movs	r3, #0
 151              	.LVL14:
 152              	.L13:
  49:RxBuffer.c    ****     {
 153              		.loc 1 49 0 discriminator 2
 154 0026 0132     		adds	r2, r2, #1
 155              	.LVL15:
 156              	.L12:
  49:RxBuffer.c    ****     {
 157              		.loc 1 49 0 is_stmt 0 discriminator 1
 158 0028 8242     		cmp	r2, r0
 159 002a F4D3     		bcc	.L14
 160              	.LBE3:
  55:RxBuffer.c    ****     }
  56:RxBuffer.c    ****     tail = offset;
 161              		.loc 1 56 0 is_stmt 1
 162 002c 024A     		ldr	r2, .L17
 163              	.LVL16:
 164 002e D360     		str	r3, [r2, #12]
  57:RxBuffer.c    ****     
  58:RxBuffer.c    ****     return true;
 165              		.loc 1 58 0
ARM GAS  C:\Users\fiona\AppData\Local\Temp\ccLijNn7.s 			page 5


 166 0030 0120     		movs	r0, #1
 167              	.LVL17:
 168 0032 00E0     		b	.L11
 169              	.LVL18:
 170              	.L15:
  42:RxBuffer.c    ****     }
 171              		.loc 1 42 0
 172 0034 0020     		movs	r0, #0
 173              	.LVL19:
 174              	.L11:
  59:RxBuffer.c    **** }
 175              		.loc 1 59 0
 176              		@ sp needed
 177 0036 10BD     		pop	{r4, pc}
 178              	.L18:
 179              		.align	2
 180              	.L17:
 181 0038 00000000 		.word	.LANCHOR0
 182              		.cfi_endproc
 183              	.LFE838:
 184              		.size	RxBuffer_BufferToMemory, .-RxBuffer_BufferToMemory
 185              		.section	.text.RxBuffer_Init,"ax",%progbits
 186              		.align	2
 187              		.global	RxBuffer_Init
 188              		.code	16
 189              		.thumb_func
 190              		.type	RxBuffer_Init, %function
 191              	RxBuffer_Init:
 192              	.LFB839:
  60:RxBuffer.c    **** //-------------------------------------------------------------//
  61:RxBuffer.c    **** //------------------------INITIALIZATION-----------------------//
  62:RxBuffer.c    **** //-------------------------------------------------------------//
  63:RxBuffer.c    **** 
  64:RxBuffer.c    **** void RxBuffer_Init()
  65:RxBuffer.c    **** {
 193              		.loc 1 65 0
 194              		.cfi_startproc
 195              		@ args = 0, pretend = 0, frame = 0
 196              		@ frame_needed = 0, uses_anonymous_args = 0
 197 0000 10B5     		push	{r4, lr}
 198              		.cfi_def_cfa_offset 8
 199              		.cfi_offset 4, -8
 200              		.cfi_offset 14, -4
  66:RxBuffer.c    ****     buffer = (uint8*) malloc(RX_BUFFER_SIZE);
 201              		.loc 1 66 0
 202 0002 6420     		movs	r0, #100
 203 0004 FFF7FEFF 		bl	malloc
 204              	.LVL20:
 205 0008 064B     		ldr	r3, .L22
 206 000a 9860     		str	r0, [r3, #8]
  67:RxBuffer.c    ****     head = 0;
 207              		.loc 1 67 0
 208 000c 0022     		movs	r2, #0
 209 000e 5A60     		str	r2, [r3, #4]
  68:RxBuffer.c    ****     tail = 0;
 210              		.loc 1 68 0
 211 0010 DA60     		str	r2, [r3, #12]
ARM GAS  C:\Users\fiona\AppData\Local\Temp\ccLijNn7.s 			page 6


 212              	.LVL21:
 213              	.LBB4:
  69:RxBuffer.c    ****     
  70:RxBuffer.c    ****     uint8 *ptr;
  71:RxBuffer.c    ****     for(uint32 offset = 0; offset < RX_BUFFER_SIZE; offset++)
 214              		.loc 1 71 0
 215 0012 0023     		movs	r3, #0
 216 0014 03E0     		b	.L20
 217              	.LVL22:
 218              	.L21:
  72:RxBuffer.c    ****     {
  73:RxBuffer.c    ****         ptr = (uint8*)(buffer + offset);
 219              		.loc 1 73 0 discriminator 3
 220 0016 C218     		adds	r2, r0, r3
 221              	.LVL23:
  74:RxBuffer.c    ****         *ptr = 0x00;
 222              		.loc 1 74 0 discriminator 3
 223 0018 0021     		movs	r1, #0
 224 001a 1170     		strb	r1, [r2]
  71:RxBuffer.c    ****     {
 225              		.loc 1 71 0 discriminator 3
 226 001c 0133     		adds	r3, r3, #1
 227              	.LVL24:
 228              	.L20:
  71:RxBuffer.c    ****     {
 229              		.loc 1 71 0 is_stmt 0 discriminator 1
 230 001e 632B     		cmp	r3, #99
 231 0020 F9D9     		bls	.L21
 232              	.LBE4:
  75:RxBuffer.c    ****     }
  76:RxBuffer.c    **** }
 233              		.loc 1 76 0 is_stmt 1
 234              		@ sp needed
 235 0022 10BD     		pop	{r4, pc}
 236              	.L23:
 237              		.align	2
 238              	.L22:
 239 0024 00000000 		.word	.LANCHOR0
 240              		.cfi_endproc
 241              	.LFE839:
 242              		.size	RxBuffer_Init, .-RxBuffer_Init
 243              		.bss
 244              		.align	2
 245              		.set	.LANCHOR0,. + 0
 246              		.type	size, %object
 247              		.size	size, 4
 248              	size:
 249 0000 00000000 		.space	4
 250              		.type	head, %object
 251              		.size	head, 4
 252              	head:
 253 0004 00000000 		.space	4
 254              		.type	buffer, %object
 255              		.size	buffer, 4
 256              	buffer:
 257 0008 00000000 		.space	4
 258              		.type	tail, %object
ARM GAS  C:\Users\fiona\AppData\Local\Temp\ccLijNn7.s 			page 7


 259              		.size	tail, 4
 260              	tail:
 261 000c 00000000 		.space	4
 262              		.text
 263              	.Letext0:
 264              		.file 2 "c:\\program files (x86)\\cypress\\psoc creator\\4.2\\psoc creator\\import\\gnu\\arm\\5.4.
 265              		.file 3 "c:\\program files (x86)\\cypress\\psoc creator\\4.2\\psoc creator\\import\\gnu\\arm\\5.4.
 266              		.file 4 "Generated_Source\\PSoC6\\pdl\\drivers/peripheral/syslib/cy_syslib.h"
 267              		.file 5 "Generated_Source\\PSoC6\\pdl\\drivers/peripheral/tcpwm/cy_tcpwm_counter.h"
 268              		.file 6 "Generated_Source\\PSoC6\\pdl\\drivers/peripheral/tcpwm/cy_tcpwm_pwm.h"
 269              		.file 7 "Generated_Source\\PSoC6\\pdl\\drivers/peripheral/scb/cy_scb_i2c.h"
 270              		.file 8 "Generated_Source\\PSoC6\\pdl\\drivers/peripheral/scb/cy_scb_uart.h"
 271              		.file 9 "Generated_Source\\PSoC6\\pdl\\drivers/peripheral/sar/cy_sar.h"
 272              		.file 10 "Generated_Source\\PSoC6\\pdl\\middleware/ble/cy_ble_stack.h"
 273              		.file 11 "Generated_Source\\PSoC6\\pdl\\middleware/ble/cy_ble_stack_host_main.h"
 274              		.file 12 "Generated_Source\\PSoC6\\pdl\\middleware/ble/cy_ble_gap.h"
 275              		.file 13 "Generated_Source\\PSoC6/ADC.h"
 276              		.file 14 "Generated_Source\\PSoC6\\pdl\\drivers/peripheral/rtc/cy_rtc.h"
 277              		.file 15 "Generated_Source\\PSoC6/UART_DEBUG.h"
 278              		.file 16 "Generated_Source\\PSoC6/SensorBus.h"
 279              		.file 17 "Generated_Source\\PSoC6/LightOutputC.h"
 280              		.file 18 "Generated_Source\\PSoC6/LightOutputA.h"
 281              		.file 19 "Generated_Source\\PSoC6/LightTimer.h"
 282              		.file 20 "Generated_Source\\PSoC6/LightOutputB.h"
 283              		.file 21 "Generated_Source\\PSoC6/MotorOutput.h"
 284              		.file 22 "Generated_Source\\PSoC6/MotorTimer.h"
 285              		.file 23 "Generated_Source\\PSoC6/ChimeOutput.h"
 286              		.file 24 "Generated_Source\\PSoC6/ChimeTimer.h"
 287              		.file 25 "c:\\program files (x86)\\cypress\\psoc creator\\4.2\\psoc creator\\import\\gnu\\arm\\5.4