ARM GAS  C:\Users\fiona\AppData\Local\Temp\cc5ift8g.s 			page 1


   1              		.syntax unified
   2              		.cpu cortex-m0plus
   3              		.fpu softvfp
   4              		.eabi_attribute 20, 1
   5              		.eabi_attribute 21, 1
   6              		.eabi_attribute 23, 3
   7              		.eabi_attribute 24, 1
   8              		.eabi_attribute 25, 1
   9              		.eabi_attribute 26, 1
  10              		.eabi_attribute 30, 1
  11              		.eabi_attribute 34, 0
  12              		.eabi_attribute 18, 4
  13              		.thumb
  14              		.syntax unified
  15              		.file	"SensorBus.c"
  16              		.text
  17              	.Ltext0:
  18              		.cfi_sections	.debug_frame
  19              		.section	.text.SensorBus_Interrupt,"ax",%progbits
  20              		.align	2
  21              		.code	16
  22              		.thumb_func
  23              		.type	SensorBus_Interrupt, %function
  24              	SensorBus_Interrupt:
  25              	.LFB152:
  26              		.file 1 "Generated_Source\\PSoC6\\SensorBus.h"
   1:Generated_Source\PSoC6/SensorBus.h **** /***************************************************************************//**
   2:Generated_Source\PSoC6/SensorBus.h **** * \file SensorBus.c
   3:Generated_Source\PSoC6/SensorBus.h **** * \version 2.0
   4:Generated_Source\PSoC6/SensorBus.h **** *
   5:Generated_Source\PSoC6/SensorBus.h **** *  This file provides constants and parameter values for the I2C component.
   6:Generated_Source\PSoC6/SensorBus.h **** *
   7:Generated_Source\PSoC6/SensorBus.h **** ********************************************************************************
   8:Generated_Source\PSoC6/SensorBus.h **** * \copyright
   9:Generated_Source\PSoC6/SensorBus.h **** * Copyright 2016-2017, Cypress Semiconductor Corporation. All rights reserved.
  10:Generated_Source\PSoC6/SensorBus.h **** * You may use this file only in accordance with the license, terms, conditions,
  11:Generated_Source\PSoC6/SensorBus.h **** * disclaimers, and limitations in the end user license agreement accompanying
  12:Generated_Source\PSoC6/SensorBus.h **** * the software package with which this file was provided.
  13:Generated_Source\PSoC6/SensorBus.h **** *******************************************************************************/
  14:Generated_Source\PSoC6/SensorBus.h **** 
  15:Generated_Source\PSoC6/SensorBus.h **** #if !defined(SensorBus_CY_SCB_I2C_PDL_H)
  16:Generated_Source\PSoC6/SensorBus.h **** #define SensorBus_CY_SCB_I2C_PDL_H
  17:Generated_Source\PSoC6/SensorBus.h **** 
  18:Generated_Source\PSoC6/SensorBus.h **** #include "cyfitter.h"
  19:Generated_Source\PSoC6/SensorBus.h **** #include "scb/cy_scb_i2c.h"
  20:Generated_Source\PSoC6/SensorBus.h **** 
  21:Generated_Source\PSoC6/SensorBus.h **** #if defined(__cplusplus)
  22:Generated_Source\PSoC6/SensorBus.h **** extern "C" {
  23:Generated_Source\PSoC6/SensorBus.h **** #endif
  24:Generated_Source\PSoC6/SensorBus.h **** 
  25:Generated_Source\PSoC6/SensorBus.h **** /***************************************
  26:Generated_Source\PSoC6/SensorBus.h **** *   Initial Parameter Constants
  27:Generated_Source\PSoC6/SensorBus.h **** ****************************************/
  28:Generated_Source\PSoC6/SensorBus.h **** 
  29:Generated_Source\PSoC6/SensorBus.h **** #define SensorBus_MODE               (0x2U)
  30:Generated_Source\PSoC6/SensorBus.h **** #define SensorBus_MODE_SLAVE_MASK    (0x1U)
  31:Generated_Source\PSoC6/SensorBus.h **** #define SensorBus_MODE_MASTER_MASK   (0x2U)
ARM GAS  C:\Users\fiona\AppData\Local\Temp\cc5ift8g.s 			page 2


  32:Generated_Source\PSoC6/SensorBus.h **** 
  33:Generated_Source\PSoC6/SensorBus.h **** #define SensorBus_ENABLE_SLAVE       (0UL != (SensorBus_MODE & SensorBus_MODE_SLAVE_MASK))
  34:Generated_Source\PSoC6/SensorBus.h **** #define SensorBus_ENABLE_MASTER      (0UL != (SensorBus_MODE & SensorBus_MODE_MASTER_MASK))
  35:Generated_Source\PSoC6/SensorBus.h **** #define SensorBus_MANUAL_SCL_CONTROL (0U)
  36:Generated_Source\PSoC6/SensorBus.h **** 
  37:Generated_Source\PSoC6/SensorBus.h **** 
  38:Generated_Source\PSoC6/SensorBus.h **** /***************************************
  39:Generated_Source\PSoC6/SensorBus.h **** *        Function Prototypes
  40:Generated_Source\PSoC6/SensorBus.h **** ***************************************/
  41:Generated_Source\PSoC6/SensorBus.h **** /**
  42:Generated_Source\PSoC6/SensorBus.h **** * \addtogroup group_general
  43:Generated_Source\PSoC6/SensorBus.h **** * @{
  44:Generated_Source\PSoC6/SensorBus.h **** */
  45:Generated_Source\PSoC6/SensorBus.h **** /* Component only APIs. */
  46:Generated_Source\PSoC6/SensorBus.h **** void SensorBus_Start(void);
  47:Generated_Source\PSoC6/SensorBus.h **** 
  48:Generated_Source\PSoC6/SensorBus.h **** /* Basic functions. */
  49:Generated_Source\PSoC6/SensorBus.h **** __STATIC_INLINE cy_en_scb_i2c_status_t SensorBus_Init(cy_stc_scb_i2c_config_t const *config);
  50:Generated_Source\PSoC6/SensorBus.h **** __STATIC_INLINE void SensorBus_DeInit (void);
  51:Generated_Source\PSoC6/SensorBus.h **** __STATIC_INLINE void SensorBus_Enable (void);
  52:Generated_Source\PSoC6/SensorBus.h **** __STATIC_INLINE void SensorBus_Disable(void);
  53:Generated_Source\PSoC6/SensorBus.h **** 
  54:Generated_Source\PSoC6/SensorBus.h **** /* Data rate configuration functions. */
  55:Generated_Source\PSoC6/SensorBus.h **** __STATIC_INLINE uint32_t SensorBus_SetDataRate(uint32_t dataRateHz, uint32_t scbClockHz);
  56:Generated_Source\PSoC6/SensorBus.h **** __STATIC_INLINE uint32_t SensorBus_GetDataRate(uint32_t scbClockHz);
  57:Generated_Source\PSoC6/SensorBus.h **** 
  58:Generated_Source\PSoC6/SensorBus.h **** /* Register callbacks. */
  59:Generated_Source\PSoC6/SensorBus.h **** __STATIC_INLINE void SensorBus_RegisterEventCallback(cy_cb_scb_i2c_handle_events_t callback);
  60:Generated_Source\PSoC6/SensorBus.h **** #if (SensorBus_ENABLE_SLAVE)
  61:Generated_Source\PSoC6/SensorBus.h **** __STATIC_INLINE void SensorBus_RegisterAddrCallback (cy_cb_scb_i2c_handle_addr_t callback);
  62:Generated_Source\PSoC6/SensorBus.h **** #endif /* (SensorBus_ENABLE_SLAVE) */
  63:Generated_Source\PSoC6/SensorBus.h **** 
  64:Generated_Source\PSoC6/SensorBus.h **** /* Configuration functions. */
  65:Generated_Source\PSoC6/SensorBus.h **** #if (SensorBus_ENABLE_SLAVE)
  66:Generated_Source\PSoC6/SensorBus.h **** __STATIC_INLINE void     SensorBus_SlaveSetAddress(uint8_t addr);
  67:Generated_Source\PSoC6/SensorBus.h **** __STATIC_INLINE uint32_t SensorBus_SlaveGetAddress(void);
  68:Generated_Source\PSoC6/SensorBus.h **** __STATIC_INLINE void     SensorBus_SlaveSetAddressMask(uint8_t addrMask);
  69:Generated_Source\PSoC6/SensorBus.h **** __STATIC_INLINE uint32_t SensorBus_SlaveGetAddressMask(void);
  70:Generated_Source\PSoC6/SensorBus.h **** #endif /* (SensorBus_ENABLE_SLAVE) */
  71:Generated_Source\PSoC6/SensorBus.h **** 
  72:Generated_Source\PSoC6/SensorBus.h **** #if (SensorBus_ENABLE_MASTER)
  73:Generated_Source\PSoC6/SensorBus.h **** __STATIC_INLINE void SensorBus_MasterSetLowPhaseDutyCycle (uint32_t clockCycles);
  74:Generated_Source\PSoC6/SensorBus.h **** __STATIC_INLINE void SensorBus_MasterSetHighPhaseDutyCycle(uint32_t clockCycles);
  75:Generated_Source\PSoC6/SensorBus.h **** #endif /* (SensorBus_ENABLE_MASTER) */
  76:Generated_Source\PSoC6/SensorBus.h **** 
  77:Generated_Source\PSoC6/SensorBus.h **** /* Bus status. */
  78:Generated_Source\PSoC6/SensorBus.h **** __STATIC_INLINE bool     SensorBus_IsBusBusy(void);
  79:Generated_Source\PSoC6/SensorBus.h **** 
  80:Generated_Source\PSoC6/SensorBus.h **** /* Slave functions. */
  81:Generated_Source\PSoC6/SensorBus.h **** #if (SensorBus_ENABLE_SLAVE)
  82:Generated_Source\PSoC6/SensorBus.h **** __STATIC_INLINE uint32_t SensorBus_SlaveGetStatus(void);
  83:Generated_Source\PSoC6/SensorBus.h **** 
  84:Generated_Source\PSoC6/SensorBus.h **** __STATIC_INLINE void     SensorBus_SlaveConfigReadBuf(uint8_t *buffer, uint32_t size);
  85:Generated_Source\PSoC6/SensorBus.h **** __STATIC_INLINE void     SensorBus_SlaveAbortRead(void);
  86:Generated_Source\PSoC6/SensorBus.h **** __STATIC_INLINE uint32_t SensorBus_SlaveGetReadTransferCount(void);
  87:Generated_Source\PSoC6/SensorBus.h **** __STATIC_INLINE uint32_t SensorBus_SlaveClearReadStatus(void);
  88:Generated_Source\PSoC6/SensorBus.h **** 
ARM GAS  C:\Users\fiona\AppData\Local\Temp\cc5ift8g.s 			page 3


  89:Generated_Source\PSoC6/SensorBus.h **** __STATIC_INLINE void     SensorBus_SlaveConfigWriteBuf(uint8_t *buffer, uint32_t size);
  90:Generated_Source\PSoC6/SensorBus.h **** __STATIC_INLINE void     SensorBus_SlaveAbortWrite(void);
  91:Generated_Source\PSoC6/SensorBus.h **** __STATIC_INLINE uint32_t SensorBus_SlaveGetWriteTransferCount(void);
  92:Generated_Source\PSoC6/SensorBus.h **** __STATIC_INLINE uint32_t SensorBus_SlaveClearWriteStatus(void);
  93:Generated_Source\PSoC6/SensorBus.h **** #endif /* (SensorBus_ENABLE_SLAVE) */
  94:Generated_Source\PSoC6/SensorBus.h **** 
  95:Generated_Source\PSoC6/SensorBus.h **** /* Master interrupt processing functions. */
  96:Generated_Source\PSoC6/SensorBus.h **** #if (SensorBus_ENABLE_MASTER)
  97:Generated_Source\PSoC6/SensorBus.h **** __STATIC_INLINE uint32_t SensorBus_MasterGetStatus(void);
  98:Generated_Source\PSoC6/SensorBus.h **** 
  99:Generated_Source\PSoC6/SensorBus.h **** __STATIC_INLINE cy_en_scb_i2c_status_t SensorBus_MasterRead(cy_stc_scb_i2c_master_xfer_config_t *xf
 100:Generated_Source\PSoC6/SensorBus.h **** __STATIC_INLINE void SensorBus_MasterAbortRead(void);
 101:Generated_Source\PSoC6/SensorBus.h **** __STATIC_INLINE cy_en_scb_i2c_status_t SensorBus_MasterWrite(cy_stc_scb_i2c_master_xfer_config_t *x
 102:Generated_Source\PSoC6/SensorBus.h **** __STATIC_INLINE void SensorBus_MasterAbortWrite(void);
 103:Generated_Source\PSoC6/SensorBus.h **** __STATIC_INLINE uint32_t SensorBus_MasterGetTransferCount(void);
 104:Generated_Source\PSoC6/SensorBus.h **** 
 105:Generated_Source\PSoC6/SensorBus.h **** /* Master manual processing functions. */
 106:Generated_Source\PSoC6/SensorBus.h **** __STATIC_INLINE cy_en_scb_i2c_status_t SensorBus_MasterSendStart(uint32_t address, cy_en_scb_i2c_di
 107:Generated_Source\PSoC6/SensorBus.h **** __STATIC_INLINE cy_en_scb_i2c_status_t SensorBus_MasterSendReStart(uint32_t address, cy_en_scb_i2c_
 108:Generated_Source\PSoC6/SensorBus.h **** __STATIC_INLINE cy_en_scb_i2c_status_t SensorBus_MasterSendStop(uint32_t timeoutMs);
 109:Generated_Source\PSoC6/SensorBus.h **** __STATIC_INLINE cy_en_scb_i2c_status_t SensorBus_MasterReadByte(cy_en_scb_i2c_command_t ackNack, ui
 110:Generated_Source\PSoC6/SensorBus.h **** __STATIC_INLINE cy_en_scb_i2c_status_t SensorBus_MasterWriteByte(uint8_t byte, uint32_t timeoutMs);
 111:Generated_Source\PSoC6/SensorBus.h **** #endif /* (SensorBus_ENABLE_MASTER) */
 112:Generated_Source\PSoC6/SensorBus.h **** 
 113:Generated_Source\PSoC6/SensorBus.h **** /* Interrupt handler. */
 114:Generated_Source\PSoC6/SensorBus.h **** __STATIC_INLINE void SensorBus_Interrupt(void);
 115:Generated_Source\PSoC6/SensorBus.h **** /** @} group_general */
 116:Generated_Source\PSoC6/SensorBus.h **** 
 117:Generated_Source\PSoC6/SensorBus.h **** 
 118:Generated_Source\PSoC6/SensorBus.h **** /***************************************
 119:Generated_Source\PSoC6/SensorBus.h **** *    Variables with External Linkage
 120:Generated_Source\PSoC6/SensorBus.h **** ***************************************/
 121:Generated_Source\PSoC6/SensorBus.h **** /**
 122:Generated_Source\PSoC6/SensorBus.h **** * \addtogroup group_globals
 123:Generated_Source\PSoC6/SensorBus.h **** * @{
 124:Generated_Source\PSoC6/SensorBus.h **** */
 125:Generated_Source\PSoC6/SensorBus.h **** extern uint8_t SensorBus_initVar;
 126:Generated_Source\PSoC6/SensorBus.h **** extern cy_stc_scb_i2c_config_t const SensorBus_config;
 127:Generated_Source\PSoC6/SensorBus.h **** extern cy_stc_scb_i2c_context_t SensorBus_context;
 128:Generated_Source\PSoC6/SensorBus.h **** /** @} group_globals */
 129:Generated_Source\PSoC6/SensorBus.h **** 
 130:Generated_Source\PSoC6/SensorBus.h **** 
 131:Generated_Source\PSoC6/SensorBus.h **** /***************************************
 132:Generated_Source\PSoC6/SensorBus.h **** *         Preprocessor Macros
 133:Generated_Source\PSoC6/SensorBus.h **** ***************************************/
 134:Generated_Source\PSoC6/SensorBus.h **** /**
 135:Generated_Source\PSoC6/SensorBus.h **** * \addtogroup group_macros
 136:Generated_Source\PSoC6/SensorBus.h **** * @{
 137:Generated_Source\PSoC6/SensorBus.h **** */
 138:Generated_Source\PSoC6/SensorBus.h **** /** The pointer to the base address of the SCB instance */
 139:Generated_Source\PSoC6/SensorBus.h **** #define SensorBus_HW     ((CySCB_Type *) SensorBus_SCB__HW)
 140:Generated_Source\PSoC6/SensorBus.h **** 
 141:Generated_Source\PSoC6/SensorBus.h **** /** The desired data rate in Hz */
 142:Generated_Source\PSoC6/SensorBus.h **** #define SensorBus_DATA_RATE_HZ      (100000U)
 143:Generated_Source\PSoC6/SensorBus.h **** 
 144:Generated_Source\PSoC6/SensorBus.h **** /** The frequency of the clock used by the Component in Hz */
 145:Generated_Source\PSoC6/SensorBus.h **** #define SensorBus_CLK_FREQ_HZ       (1562500U)
ARM GAS  C:\Users\fiona\AppData\Local\Temp\cc5ift8g.s 			page 4


 146:Generated_Source\PSoC6/SensorBus.h **** 
 147:Generated_Source\PSoC6/SensorBus.h **** /** The number of Component clocks used by the master to generate the SCL
 148:Generated_Source\PSoC6/SensorBus.h **** * low phase. This number is calculated by GUI based on the selected data rate.
 149:Generated_Source\PSoC6/SensorBus.h **** */
 150:Generated_Source\PSoC6/SensorBus.h **** #define SensorBus_LOW_PHASE_DUTY_CYCLE   (8U)
 151:Generated_Source\PSoC6/SensorBus.h **** 
 152:Generated_Source\PSoC6/SensorBus.h **** /** The number of Component clocks used by the master to generate the SCL
 153:Generated_Source\PSoC6/SensorBus.h **** * high phase. This number is calculated by GUI based on the selected data rate.
 154:Generated_Source\PSoC6/SensorBus.h **** */
 155:Generated_Source\PSoC6/SensorBus.h **** #define SensorBus_HIGH_PHASE_DUTY_CYCLE  (8U)
 156:Generated_Source\PSoC6/SensorBus.h **** /** @} group_macros */
 157:Generated_Source\PSoC6/SensorBus.h **** 
 158:Generated_Source\PSoC6/SensorBus.h **** 
 159:Generated_Source\PSoC6/SensorBus.h **** /***************************************
 160:Generated_Source\PSoC6/SensorBus.h **** *    In-line Function Implementation
 161:Generated_Source\PSoC6/SensorBus.h **** ***************************************/
 162:Generated_Source\PSoC6/SensorBus.h **** 
 163:Generated_Source\PSoC6/SensorBus.h **** /*******************************************************************************
 164:Generated_Source\PSoC6/SensorBus.h **** * Function Name: SensorBus_Init
 165:Generated_Source\PSoC6/SensorBus.h **** ****************************************************************************//**
 166:Generated_Source\PSoC6/SensorBus.h **** *
 167:Generated_Source\PSoC6/SensorBus.h **** * Invokes the Cy_SCB_I2C_Init() PDL driver function.
 168:Generated_Source\PSoC6/SensorBus.h **** *
 169:Generated_Source\PSoC6/SensorBus.h **** *******************************************************************************/
 170:Generated_Source\PSoC6/SensorBus.h **** __STATIC_INLINE cy_en_scb_i2c_status_t SensorBus_Init(cy_stc_scb_i2c_config_t const *config)
 171:Generated_Source\PSoC6/SensorBus.h **** {
 172:Generated_Source\PSoC6/SensorBus.h ****     return Cy_SCB_I2C_Init(SensorBus_HW, config, &SensorBus_context);
 173:Generated_Source\PSoC6/SensorBus.h **** }
 174:Generated_Source\PSoC6/SensorBus.h **** 
 175:Generated_Source\PSoC6/SensorBus.h **** 
 176:Generated_Source\PSoC6/SensorBus.h **** /*******************************************************************************
 177:Generated_Source\PSoC6/SensorBus.h **** *  Function Name: SensorBus_DeInit
 178:Generated_Source\PSoC6/SensorBus.h **** ****************************************************************************//**
 179:Generated_Source\PSoC6/SensorBus.h **** *
 180:Generated_Source\PSoC6/SensorBus.h **** * Invokes the Cy_SCB_I2C_DeInit() PDL driver function.
 181:Generated_Source\PSoC6/SensorBus.h **** *
 182:Generated_Source\PSoC6/SensorBus.h **** *******************************************************************************/
 183:Generated_Source\PSoC6/SensorBus.h **** __STATIC_INLINE void SensorBus_DeInit(void)
 184:Generated_Source\PSoC6/SensorBus.h **** {
 185:Generated_Source\PSoC6/SensorBus.h ****     Cy_SCB_I2C_DeInit(SensorBus_HW);
 186:Generated_Source\PSoC6/SensorBus.h **** }
 187:Generated_Source\PSoC6/SensorBus.h **** 
 188:Generated_Source\PSoC6/SensorBus.h **** 
 189:Generated_Source\PSoC6/SensorBus.h **** /*******************************************************************************
 190:Generated_Source\PSoC6/SensorBus.h **** * Function Name: SensorBus_Enable
 191:Generated_Source\PSoC6/SensorBus.h **** ****************************************************************************//**
 192:Generated_Source\PSoC6/SensorBus.h **** *
 193:Generated_Source\PSoC6/SensorBus.h **** * Invokes the Cy_SCB_I2C_Enable() PDL driver function.
 194:Generated_Source\PSoC6/SensorBus.h **** *
 195:Generated_Source\PSoC6/SensorBus.h **** *******************************************************************************/
 196:Generated_Source\PSoC6/SensorBus.h **** __STATIC_INLINE void SensorBus_Enable(void)
 197:Generated_Source\PSoC6/SensorBus.h **** {
 198:Generated_Source\PSoC6/SensorBus.h ****     Cy_SCB_I2C_Enable(SensorBus_HW);
 199:Generated_Source\PSoC6/SensorBus.h **** }
 200:Generated_Source\PSoC6/SensorBus.h **** 
 201:Generated_Source\PSoC6/SensorBus.h **** 
 202:Generated_Source\PSoC6/SensorBus.h **** /*******************************************************************************
ARM GAS  C:\Users\fiona\AppData\Local\Temp\cc5ift8g.s 			page 5


 203:Generated_Source\PSoC6/SensorBus.h **** * Function Name: SensorBus_Disable
 204:Generated_Source\PSoC6/SensorBus.h **** ****************************************************************************//**
 205:Generated_Source\PSoC6/SensorBus.h **** *
 206:Generated_Source\PSoC6/SensorBus.h **** * Invokes the Cy_SCB_I2C_Disable() PDL driver function.
 207:Generated_Source\PSoC6/SensorBus.h **** *
 208:Generated_Source\PSoC6/SensorBus.h **** *******************************************************************************/
 209:Generated_Source\PSoC6/SensorBus.h **** __STATIC_INLINE void SensorBus_Disable(void)
 210:Generated_Source\PSoC6/SensorBus.h **** {
 211:Generated_Source\PSoC6/SensorBus.h ****     Cy_SCB_I2C_Disable(SensorBus_HW, &SensorBus_context);
 212:Generated_Source\PSoC6/SensorBus.h **** }
 213:Generated_Source\PSoC6/SensorBus.h **** 
 214:Generated_Source\PSoC6/SensorBus.h **** 
 215:Generated_Source\PSoC6/SensorBus.h **** /*******************************************************************************
 216:Generated_Source\PSoC6/SensorBus.h **** * Function Name: SensorBus_SetDataRate
 217:Generated_Source\PSoC6/SensorBus.h **** ****************************************************************************//**
 218:Generated_Source\PSoC6/SensorBus.h **** *
 219:Generated_Source\PSoC6/SensorBus.h **** * Invokes the Cy_SCB_I2C_SetDataRate() PDL driver function.
 220:Generated_Source\PSoC6/SensorBus.h **** *
 221:Generated_Source\PSoC6/SensorBus.h **** *******************************************************************************/
 222:Generated_Source\PSoC6/SensorBus.h **** __STATIC_INLINE uint32_t SensorBus_SetDataRate(uint32_t dataRateHz, uint32_t scbClockHz)
 223:Generated_Source\PSoC6/SensorBus.h **** {
 224:Generated_Source\PSoC6/SensorBus.h ****     return Cy_SCB_I2C_SetDataRate(SensorBus_HW, dataRateHz, scbClockHz);
 225:Generated_Source\PSoC6/SensorBus.h **** }
 226:Generated_Source\PSoC6/SensorBus.h **** 
 227:Generated_Source\PSoC6/SensorBus.h **** 
 228:Generated_Source\PSoC6/SensorBus.h **** /*******************************************************************************
 229:Generated_Source\PSoC6/SensorBus.h **** * Function Name: SensorBus_GetDataRate
 230:Generated_Source\PSoC6/SensorBus.h **** ****************************************************************************//**
 231:Generated_Source\PSoC6/SensorBus.h **** *
 232:Generated_Source\PSoC6/SensorBus.h **** * Invokes the Cy_SCB_I2C_GetDataRate() PDL driver function.
 233:Generated_Source\PSoC6/SensorBus.h **** *
 234:Generated_Source\PSoC6/SensorBus.h **** *******************************************************************************/
 235:Generated_Source\PSoC6/SensorBus.h **** __STATIC_INLINE uint32_t SensorBus_GetDataRate(uint32_t scbClockHz)
 236:Generated_Source\PSoC6/SensorBus.h **** {
 237:Generated_Source\PSoC6/SensorBus.h ****     return Cy_SCB_I2C_GetDataRate(SensorBus_HW, scbClockHz);
 238:Generated_Source\PSoC6/SensorBus.h **** }
 239:Generated_Source\PSoC6/SensorBus.h **** 
 240:Generated_Source\PSoC6/SensorBus.h **** 
 241:Generated_Source\PSoC6/SensorBus.h **** /*******************************************************************************
 242:Generated_Source\PSoC6/SensorBus.h **** * Function Name: SensorBus_RegisterEventCallback
 243:Generated_Source\PSoC6/SensorBus.h **** ****************************************************************************//**
 244:Generated_Source\PSoC6/SensorBus.h **** *
 245:Generated_Source\PSoC6/SensorBus.h **** * Invokes the Cy_SCB_I2C_RegisterEventCallback() PDL driver function.
 246:Generated_Source\PSoC6/SensorBus.h **** *
 247:Generated_Source\PSoC6/SensorBus.h **** *******************************************************************************/
 248:Generated_Source\PSoC6/SensorBus.h **** __STATIC_INLINE void SensorBus_RegisterEventCallback(cy_cb_scb_i2c_handle_events_t callback)
 249:Generated_Source\PSoC6/SensorBus.h **** {
 250:Generated_Source\PSoC6/SensorBus.h ****     Cy_SCB_I2C_RegisterEventCallback(SensorBus_HW, callback, &SensorBus_context);
 251:Generated_Source\PSoC6/SensorBus.h **** }
 252:Generated_Source\PSoC6/SensorBus.h **** 
 253:Generated_Source\PSoC6/SensorBus.h **** 
 254:Generated_Source\PSoC6/SensorBus.h **** #if (SensorBus_ENABLE_SLAVE)
 255:Generated_Source\PSoC6/SensorBus.h **** /*******************************************************************************
 256:Generated_Source\PSoC6/SensorBus.h **** * Function Name: SensorBus_RegisterAddrCallback
 257:Generated_Source\PSoC6/SensorBus.h **** ****************************************************************************//**
 258:Generated_Source\PSoC6/SensorBus.h **** *
 259:Generated_Source\PSoC6/SensorBus.h **** * Invokes the Cy_SCB_I2C_RegisterAddrCallback() PDL driver function.
ARM GAS  C:\Users\fiona\AppData\Local\Temp\cc5ift8g.s 			page 6


 260:Generated_Source\PSoC6/SensorBus.h **** *
 261:Generated_Source\PSoC6/SensorBus.h **** *******************************************************************************/
 262:Generated_Source\PSoC6/SensorBus.h **** __STATIC_INLINE void SensorBus_RegisterAddrCallback(cy_cb_scb_i2c_handle_addr_t callback)
 263:Generated_Source\PSoC6/SensorBus.h **** {
 264:Generated_Source\PSoC6/SensorBus.h ****     Cy_SCB_I2C_RegisterAddrCallback(SensorBus_HW, callback, &SensorBus_context);
 265:Generated_Source\PSoC6/SensorBus.h **** }
 266:Generated_Source\PSoC6/SensorBus.h **** #endif /* (SensorBus_ENABLE_SLAVE) */
 267:Generated_Source\PSoC6/SensorBus.h **** 
 268:Generated_Source\PSoC6/SensorBus.h **** 
 269:Generated_Source\PSoC6/SensorBus.h **** /*******************************************************************************
 270:Generated_Source\PSoC6/SensorBus.h **** * Function Name: SensorBus_IsBusBusy
 271:Generated_Source\PSoC6/SensorBus.h **** ****************************************************************************//**
 272:Generated_Source\PSoC6/SensorBus.h **** *
 273:Generated_Source\PSoC6/SensorBus.h **** * Invokes the Cy_SCB_I2C_IsBusBusy() PDL driver function.
 274:Generated_Source\PSoC6/SensorBus.h **** *
 275:Generated_Source\PSoC6/SensorBus.h **** *******************************************************************************/
 276:Generated_Source\PSoC6/SensorBus.h **** __STATIC_INLINE bool SensorBus_IsBusBusy(void)
 277:Generated_Source\PSoC6/SensorBus.h **** {
 278:Generated_Source\PSoC6/SensorBus.h ****     return Cy_SCB_I2C_IsBusBusy(SensorBus_HW);
 279:Generated_Source\PSoC6/SensorBus.h **** }
 280:Generated_Source\PSoC6/SensorBus.h **** 
 281:Generated_Source\PSoC6/SensorBus.h **** 
 282:Generated_Source\PSoC6/SensorBus.h **** #if (SensorBus_ENABLE_SLAVE)
 283:Generated_Source\PSoC6/SensorBus.h **** /*******************************************************************************
 284:Generated_Source\PSoC6/SensorBus.h **** * Function Name: SensorBus_SlaveSetAddress
 285:Generated_Source\PSoC6/SensorBus.h **** ****************************************************************************//**
 286:Generated_Source\PSoC6/SensorBus.h **** *
 287:Generated_Source\PSoC6/SensorBus.h **** * Invokes the Cy_SCB_I2C_SlaveGetAddress() PDL driver function.
 288:Generated_Source\PSoC6/SensorBus.h **** *
 289:Generated_Source\PSoC6/SensorBus.h **** *******************************************************************************/
 290:Generated_Source\PSoC6/SensorBus.h **** __STATIC_INLINE void SensorBus_SlaveSetAddress(uint8_t addr)
 291:Generated_Source\PSoC6/SensorBus.h **** {
 292:Generated_Source\PSoC6/SensorBus.h ****     Cy_SCB_I2C_SlaveSetAddress(SensorBus_HW, addr);
 293:Generated_Source\PSoC6/SensorBus.h **** }
 294:Generated_Source\PSoC6/SensorBus.h **** 
 295:Generated_Source\PSoC6/SensorBus.h **** 
 296:Generated_Source\PSoC6/SensorBus.h **** /*******************************************************************************
 297:Generated_Source\PSoC6/SensorBus.h **** * Function Name: SensorBus_SlaveGetAddress
 298:Generated_Source\PSoC6/SensorBus.h **** ****************************************************************************//**
 299:Generated_Source\PSoC6/SensorBus.h **** *
 300:Generated_Source\PSoC6/SensorBus.h **** * Invokes the Cy_SCB_I2C_SlaveGetAddress() PDL driver function.
 301:Generated_Source\PSoC6/SensorBus.h **** *
 302:Generated_Source\PSoC6/SensorBus.h **** *******************************************************************************/
 303:Generated_Source\PSoC6/SensorBus.h **** __STATIC_INLINE uint32_t SensorBus_SlaveGetAddress(void)
 304:Generated_Source\PSoC6/SensorBus.h **** {
 305:Generated_Source\PSoC6/SensorBus.h ****     return Cy_SCB_I2C_SlaveGetAddress(SensorBus_HW);
 306:Generated_Source\PSoC6/SensorBus.h **** }
 307:Generated_Source\PSoC6/SensorBus.h **** 
 308:Generated_Source\PSoC6/SensorBus.h **** 
 309:Generated_Source\PSoC6/SensorBus.h **** /*******************************************************************************
 310:Generated_Source\PSoC6/SensorBus.h **** * Function Name: SensorBus_SlaveSetAddressMask
 311:Generated_Source\PSoC6/SensorBus.h **** ****************************************************************************//**
 312:Generated_Source\PSoC6/SensorBus.h **** *
 313:Generated_Source\PSoC6/SensorBus.h **** * Invokes the Cy_SCB_I2C_SlaveSetAddressMask() PDL driver function.
 314:Generated_Source\PSoC6/SensorBus.h **** *
 315:Generated_Source\PSoC6/SensorBus.h **** *******************************************************************************/
 316:Generated_Source\PSoC6/SensorBus.h **** __STATIC_INLINE void SensorBus_SlaveSetAddressMask(uint8_t addrMask)
ARM GAS  C:\Users\fiona\AppData\Local\Temp\cc5ift8g.s 			page 7


 317:Generated_Source\PSoC6/SensorBus.h **** {
 318:Generated_Source\PSoC6/SensorBus.h ****     Cy_SCB_I2C_SlaveSetAddressMask(SensorBus_HW, addrMask);
 319:Generated_Source\PSoC6/SensorBus.h **** }
 320:Generated_Source\PSoC6/SensorBus.h **** 
 321:Generated_Source\PSoC6/SensorBus.h **** 
 322:Generated_Source\PSoC6/SensorBus.h **** /*******************************************************************************
 323:Generated_Source\PSoC6/SensorBus.h **** * Function Name: SensorBus_SlaveGetAddressMask
 324:Generated_Source\PSoC6/SensorBus.h **** ****************************************************************************//**
 325:Generated_Source\PSoC6/SensorBus.h **** *
 326:Generated_Source\PSoC6/SensorBus.h **** * Invokes the Cy_SCB_I2C_SlaveGetAddressMask() PDL driver function.
 327:Generated_Source\PSoC6/SensorBus.h **** *
 328:Generated_Source\PSoC6/SensorBus.h **** *******************************************************************************/
 329:Generated_Source\PSoC6/SensorBus.h **** __STATIC_INLINE uint32_t SensorBus_SlaveGetAddressMask(void)
 330:Generated_Source\PSoC6/SensorBus.h **** {
 331:Generated_Source\PSoC6/SensorBus.h ****     return Cy_SCB_I2C_SlaveGetAddressMask(SensorBus_HW);
 332:Generated_Source\PSoC6/SensorBus.h **** }
 333:Generated_Source\PSoC6/SensorBus.h **** #endif /* (SensorBus_ENABLE_SLAVE) */
 334:Generated_Source\PSoC6/SensorBus.h **** 
 335:Generated_Source\PSoC6/SensorBus.h **** #if (SensorBus_ENABLE_MASTER)
 336:Generated_Source\PSoC6/SensorBus.h **** /*******************************************************************************
 337:Generated_Source\PSoC6/SensorBus.h **** * Function Name: SensorBus_MasterSetLowPhaseDutyCycle
 338:Generated_Source\PSoC6/SensorBus.h **** ****************************************************************************//**
 339:Generated_Source\PSoC6/SensorBus.h **** *
 340:Generated_Source\PSoC6/SensorBus.h **** * Invokes the Cy_SCB_I2C_MasterSetLowPhaseDutyCycle() PDL driver function.
 341:Generated_Source\PSoC6/SensorBus.h **** *
 342:Generated_Source\PSoC6/SensorBus.h **** *******************************************************************************/
 343:Generated_Source\PSoC6/SensorBus.h **** __STATIC_INLINE void SensorBus_MasterSetLowPhaseDutyCycle(uint32_t clockCycles)
 344:Generated_Source\PSoC6/SensorBus.h **** {
 345:Generated_Source\PSoC6/SensorBus.h ****     Cy_SCB_I2C_MasterSetLowPhaseDutyCycle(SensorBus_HW, clockCycles);
 346:Generated_Source\PSoC6/SensorBus.h **** }
 347:Generated_Source\PSoC6/SensorBus.h **** 
 348:Generated_Source\PSoC6/SensorBus.h **** 
 349:Generated_Source\PSoC6/SensorBus.h **** /*******************************************************************************
 350:Generated_Source\PSoC6/SensorBus.h **** * Function Name: SensorBus_MasterSetHighPhaseDutyCycle
 351:Generated_Source\PSoC6/SensorBus.h **** ****************************************************************************//**
 352:Generated_Source\PSoC6/SensorBus.h **** *
 353:Generated_Source\PSoC6/SensorBus.h **** * Invokes the Cy_SCB_I2C_MasterSetHighPhaseDutyCycle() PDL driver function.
 354:Generated_Source\PSoC6/SensorBus.h **** *
 355:Generated_Source\PSoC6/SensorBus.h **** *******************************************************************************/
 356:Generated_Source\PSoC6/SensorBus.h **** __STATIC_INLINE void SensorBus_MasterSetHighPhaseDutyCycle(uint32_t clockCycles)
 357:Generated_Source\PSoC6/SensorBus.h **** {
 358:Generated_Source\PSoC6/SensorBus.h ****     Cy_SCB_I2C_MasterSetHighPhaseDutyCycle(SensorBus_HW, clockCycles);
 359:Generated_Source\PSoC6/SensorBus.h **** }
 360:Generated_Source\PSoC6/SensorBus.h **** #endif /* (SensorBus_ENABLE_MASTER) */
 361:Generated_Source\PSoC6/SensorBus.h **** 
 362:Generated_Source\PSoC6/SensorBus.h **** 
 363:Generated_Source\PSoC6/SensorBus.h **** #if (SensorBus_ENABLE_SLAVE)
 364:Generated_Source\PSoC6/SensorBus.h **** /*******************************************************************************
 365:Generated_Source\PSoC6/SensorBus.h **** * Function Name: SensorBus_SlaveGetStatus
 366:Generated_Source\PSoC6/SensorBus.h **** ****************************************************************************//**
 367:Generated_Source\PSoC6/SensorBus.h **** *
 368:Generated_Source\PSoC6/SensorBus.h **** * Invokes the Cy_SCB_I2C_SlaveGetStatus() PDL driver function.
 369:Generated_Source\PSoC6/SensorBus.h **** *
 370:Generated_Source\PSoC6/SensorBus.h **** *******************************************************************************/
 371:Generated_Source\PSoC6/SensorBus.h **** __STATIC_INLINE uint32_t SensorBus_SlaveGetStatus(void)
 372:Generated_Source\PSoC6/SensorBus.h **** {
 373:Generated_Source\PSoC6/SensorBus.h ****     return Cy_SCB_I2C_SlaveGetStatus(SensorBus_HW, &SensorBus_context);
ARM GAS  C:\Users\fiona\AppData\Local\Temp\cc5ift8g.s 			page 8


 374:Generated_Source\PSoC6/SensorBus.h **** }
 375:Generated_Source\PSoC6/SensorBus.h **** 
 376:Generated_Source\PSoC6/SensorBus.h **** 
 377:Generated_Source\PSoC6/SensorBus.h **** /*******************************************************************************
 378:Generated_Source\PSoC6/SensorBus.h **** * Function Name: SensorBus_SlaveConfigReadBuf
 379:Generated_Source\PSoC6/SensorBus.h **** ****************************************************************************//**
 380:Generated_Source\PSoC6/SensorBus.h **** *
 381:Generated_Source\PSoC6/SensorBus.h **** * Invokes the Cy_SCB_I2C_SlaveConfigReadBuf() PDL driver function.
 382:Generated_Source\PSoC6/SensorBus.h **** *
 383:Generated_Source\PSoC6/SensorBus.h **** *******************************************************************************/
 384:Generated_Source\PSoC6/SensorBus.h **** __STATIC_INLINE void SensorBus_SlaveConfigReadBuf(uint8_t *buffer, uint32_t size)
 385:Generated_Source\PSoC6/SensorBus.h **** {
 386:Generated_Source\PSoC6/SensorBus.h ****     Cy_SCB_I2C_SlaveConfigReadBuf(SensorBus_HW, buffer, size, &SensorBus_context);
 387:Generated_Source\PSoC6/SensorBus.h **** }
 388:Generated_Source\PSoC6/SensorBus.h **** 
 389:Generated_Source\PSoC6/SensorBus.h **** 
 390:Generated_Source\PSoC6/SensorBus.h **** /*******************************************************************************
 391:Generated_Source\PSoC6/SensorBus.h **** * Function Name: SensorBus_SlaveAbortRead
 392:Generated_Source\PSoC6/SensorBus.h **** ****************************************************************************//**
 393:Generated_Source\PSoC6/SensorBus.h **** *
 394:Generated_Source\PSoC6/SensorBus.h **** * Invokes the Cy_SCB_I2C_SlaveAbortRead() PDL driver function.
 395:Generated_Source\PSoC6/SensorBus.h **** *
 396:Generated_Source\PSoC6/SensorBus.h **** *******************************************************************************/
 397:Generated_Source\PSoC6/SensorBus.h **** __STATIC_INLINE void SensorBus_SlaveAbortRead(void)
 398:Generated_Source\PSoC6/SensorBus.h **** {
 399:Generated_Source\PSoC6/SensorBus.h ****     Cy_SCB_I2C_SlaveAbortRead(SensorBus_HW, &SensorBus_context);
 400:Generated_Source\PSoC6/SensorBus.h **** }
 401:Generated_Source\PSoC6/SensorBus.h **** 
 402:Generated_Source\PSoC6/SensorBus.h **** 
 403:Generated_Source\PSoC6/SensorBus.h **** /*******************************************************************************
 404:Generated_Source\PSoC6/SensorBus.h **** * Function Name: SensorBus_SlaveGetReadTransferCount
 405:Generated_Source\PSoC6/SensorBus.h **** ****************************************************************************//**
 406:Generated_Source\PSoC6/SensorBus.h **** *
 407:Generated_Source\PSoC6/SensorBus.h **** * Invokes the Cy_SCB_I2C_SlaveGetReadTransferCount() PDL driver function.
 408:Generated_Source\PSoC6/SensorBus.h **** *
 409:Generated_Source\PSoC6/SensorBus.h **** *******************************************************************************/
 410:Generated_Source\PSoC6/SensorBus.h **** __STATIC_INLINE uint32_t SensorBus_SlaveGetReadTransferCount(void)
 411:Generated_Source\PSoC6/SensorBus.h **** {
 412:Generated_Source\PSoC6/SensorBus.h ****     return Cy_SCB_I2C_SlaveGetReadTransferCount(SensorBus_HW, &SensorBus_context);
 413:Generated_Source\PSoC6/SensorBus.h **** }
 414:Generated_Source\PSoC6/SensorBus.h **** 
 415:Generated_Source\PSoC6/SensorBus.h **** 
 416:Generated_Source\PSoC6/SensorBus.h **** /*******************************************************************************
 417:Generated_Source\PSoC6/SensorBus.h **** * Function Name: SensorBus_SlaveClearReadStatus
 418:Generated_Source\PSoC6/SensorBus.h **** ****************************************************************************//**
 419:Generated_Source\PSoC6/SensorBus.h **** *
 420:Generated_Source\PSoC6/SensorBus.h **** * Invokes the Cy_SCB_I2C_SlaveClearReadStatus() PDL driver function.
 421:Generated_Source\PSoC6/SensorBus.h **** *
 422:Generated_Source\PSoC6/SensorBus.h **** *******************************************************************************/
 423:Generated_Source\PSoC6/SensorBus.h **** __STATIC_INLINE uint32_t SensorBus_SlaveClearReadStatus(void)
 424:Generated_Source\PSoC6/SensorBus.h **** {
 425:Generated_Source\PSoC6/SensorBus.h ****     return Cy_SCB_I2C_SlaveClearReadStatus(SensorBus_HW, &SensorBus_context);
 426:Generated_Source\PSoC6/SensorBus.h **** }
 427:Generated_Source\PSoC6/SensorBus.h **** 
 428:Generated_Source\PSoC6/SensorBus.h **** 
 429:Generated_Source\PSoC6/SensorBus.h **** /*******************************************************************************
 430:Generated_Source\PSoC6/SensorBus.h **** * Function Name: SensorBus_SlaveConfigWriteBuf
ARM GAS  C:\Users\fiona\AppData\Local\Temp\cc5ift8g.s 			page 9


 431:Generated_Source\PSoC6/SensorBus.h **** ****************************************************************************//**
 432:Generated_Source\PSoC6/SensorBus.h **** *
 433:Generated_Source\PSoC6/SensorBus.h **** * Invokes the Cy_SCB_I2C_SlaveConfigWriteBuf() PDL driver function.
 434:Generated_Source\PSoC6/SensorBus.h **** *
 435:Generated_Source\PSoC6/SensorBus.h **** *******************************************************************************/
 436:Generated_Source\PSoC6/SensorBus.h **** __STATIC_INLINE void SensorBus_SlaveConfigWriteBuf(uint8_t *buffer, uint32_t size)
 437:Generated_Source\PSoC6/SensorBus.h **** {
 438:Generated_Source\PSoC6/SensorBus.h ****     Cy_SCB_I2C_SlaveConfigWriteBuf(SensorBus_HW, buffer, size, &SensorBus_context);
 439:Generated_Source\PSoC6/SensorBus.h **** }
 440:Generated_Source\PSoC6/SensorBus.h **** 
 441:Generated_Source\PSoC6/SensorBus.h **** 
 442:Generated_Source\PSoC6/SensorBus.h **** /*******************************************************************************
 443:Generated_Source\PSoC6/SensorBus.h **** * Function Name: SensorBus_SlaveAbortWrite
 444:Generated_Source\PSoC6/SensorBus.h **** ****************************************************************************//**
 445:Generated_Source\PSoC6/SensorBus.h **** *
 446:Generated_Source\PSoC6/SensorBus.h **** * Invokes the Cy_SCB_I2C_SlaveAbortWrite() PDL driver function.
 447:Generated_Source\PSoC6/SensorBus.h **** *
 448:Generated_Source\PSoC6/SensorBus.h **** *******************************************************************************/
 449:Generated_Source\PSoC6/SensorBus.h **** __STATIC_INLINE void SensorBus_SlaveAbortWrite(void)
 450:Generated_Source\PSoC6/SensorBus.h **** {
 451:Generated_Source\PSoC6/SensorBus.h ****     Cy_SCB_I2C_SlaveAbortWrite(SensorBus_HW, &SensorBus_context);
 452:Generated_Source\PSoC6/SensorBus.h **** }
 453:Generated_Source\PSoC6/SensorBus.h **** 
 454:Generated_Source\PSoC6/SensorBus.h **** 
 455:Generated_Source\PSoC6/SensorBus.h **** /*******************************************************************************
 456:Generated_Source\PSoC6/SensorBus.h **** * Function Name: SensorBus_SlaveGetWriteTransferCount
 457:Generated_Source\PSoC6/SensorBus.h **** ****************************************************************************//**
 458:Generated_Source\PSoC6/SensorBus.h **** *
 459:Generated_Source\PSoC6/SensorBus.h **** * Invokes the Cy_SCB_I2C_SlaveGetWriteTransferCount() PDL driver function.
 460:Generated_Source\PSoC6/SensorBus.h **** *
 461:Generated_Source\PSoC6/SensorBus.h **** *******************************************************************************/
 462:Generated_Source\PSoC6/SensorBus.h **** __STATIC_INLINE uint32_t SensorBus_SlaveGetWriteTransferCount(void)
 463:Generated_Source\PSoC6/SensorBus.h **** {
 464:Generated_Source\PSoC6/SensorBus.h ****     return Cy_SCB_I2C_SlaveGetWriteTransferCount(SensorBus_HW, &SensorBus_context);
 465:Generated_Source\PSoC6/SensorBus.h **** }
 466:Generated_Source\PSoC6/SensorBus.h **** 
 467:Generated_Source\PSoC6/SensorBus.h **** 
 468:Generated_Source\PSoC6/SensorBus.h **** /*******************************************************************************
 469:Generated_Source\PSoC6/SensorBus.h **** * Function Name: SensorBus_SlaveClearWriteStatus
 470:Generated_Source\PSoC6/SensorBus.h **** ****************************************************************************//**
 471:Generated_Source\PSoC6/SensorBus.h **** *
 472:Generated_Source\PSoC6/SensorBus.h **** * Invokes the Cy_SCB_I2C_SlaveClearWriteStatus() PDL driver function.
 473:Generated_Source\PSoC6/SensorBus.h **** *
 474:Generated_Source\PSoC6/SensorBus.h **** *******************************************************************************/
 475:Generated_Source\PSoC6/SensorBus.h **** __STATIC_INLINE uint32_t SensorBus_SlaveClearWriteStatus(void)
 476:Generated_Source\PSoC6/SensorBus.h **** {
 477:Generated_Source\PSoC6/SensorBus.h ****     return Cy_SCB_I2C_SlaveClearWriteStatus(SensorBus_HW, &SensorBus_context);
 478:Generated_Source\PSoC6/SensorBus.h **** }
 479:Generated_Source\PSoC6/SensorBus.h **** #endif /* (SensorBus_ENABLE_SLAVE) */
 480:Generated_Source\PSoC6/SensorBus.h **** 
 481:Generated_Source\PSoC6/SensorBus.h **** 
 482:Generated_Source\PSoC6/SensorBus.h **** #if (SensorBus_ENABLE_MASTER)
 483:Generated_Source\PSoC6/SensorBus.h **** /*******************************************************************************
 484:Generated_Source\PSoC6/SensorBus.h **** * Function Name: SensorBus_MasterGetStatus
 485:Generated_Source\PSoC6/SensorBus.h **** ****************************************************************************//**
 486:Generated_Source\PSoC6/SensorBus.h **** *
 487:Generated_Source\PSoC6/SensorBus.h **** * Invokes the Cy_SCB_I2C_MasterGetStatus() PDL driver function.
ARM GAS  C:\Users\fiona\AppData\Local\Temp\cc5ift8g.s 			page 10


 488:Generated_Source\PSoC6/SensorBus.h **** *
 489:Generated_Source\PSoC6/SensorBus.h **** *******************************************************************************/
 490:Generated_Source\PSoC6/SensorBus.h **** __STATIC_INLINE uint32_t SensorBus_MasterGetStatus(void)
 491:Generated_Source\PSoC6/SensorBus.h **** {
 492:Generated_Source\PSoC6/SensorBus.h ****     return Cy_SCB_I2C_MasterGetStatus(SensorBus_HW, &SensorBus_context);
 493:Generated_Source\PSoC6/SensorBus.h **** }
 494:Generated_Source\PSoC6/SensorBus.h **** 
 495:Generated_Source\PSoC6/SensorBus.h **** 
 496:Generated_Source\PSoC6/SensorBus.h **** /*******************************************************************************
 497:Generated_Source\PSoC6/SensorBus.h **** * Function Name: SensorBus_MasterRead
 498:Generated_Source\PSoC6/SensorBus.h **** ****************************************************************************//**
 499:Generated_Source\PSoC6/SensorBus.h **** *
 500:Generated_Source\PSoC6/SensorBus.h **** * Invokes the Cy_SCB_I2C_MasterRead() PDL driver function.
 501:Generated_Source\PSoC6/SensorBus.h **** *
 502:Generated_Source\PSoC6/SensorBus.h **** *******************************************************************************/
 503:Generated_Source\PSoC6/SensorBus.h **** __STATIC_INLINE cy_en_scb_i2c_status_t SensorBus_MasterRead(cy_stc_scb_i2c_master_xfer_config_t *xf
 504:Generated_Source\PSoC6/SensorBus.h **** {
 505:Generated_Source\PSoC6/SensorBus.h ****     return Cy_SCB_I2C_MasterRead(SensorBus_HW, xferConfig, &SensorBus_context);
 506:Generated_Source\PSoC6/SensorBus.h **** }
 507:Generated_Source\PSoC6/SensorBus.h **** 
 508:Generated_Source\PSoC6/SensorBus.h **** 
 509:Generated_Source\PSoC6/SensorBus.h **** /*******************************************************************************
 510:Generated_Source\PSoC6/SensorBus.h **** * Function Name: SensorBus_MasterAbortRead
 511:Generated_Source\PSoC6/SensorBus.h **** ****************************************************************************//**
 512:Generated_Source\PSoC6/SensorBus.h **** *
 513:Generated_Source\PSoC6/SensorBus.h **** * Invokes the Cy_SCB_I2C_MasterAbortRead() PDL driver function.
 514:Generated_Source\PSoC6/SensorBus.h **** *
 515:Generated_Source\PSoC6/SensorBus.h **** ******************************************************************************/
 516:Generated_Source\PSoC6/SensorBus.h **** __STATIC_INLINE void SensorBus_MasterAbortRead(void)
 517:Generated_Source\PSoC6/SensorBus.h **** {
 518:Generated_Source\PSoC6/SensorBus.h ****     Cy_SCB_I2C_MasterAbortRead(SensorBus_HW, &SensorBus_context);
 519:Generated_Source\PSoC6/SensorBus.h **** }
 520:Generated_Source\PSoC6/SensorBus.h **** 
 521:Generated_Source\PSoC6/SensorBus.h **** 
 522:Generated_Source\PSoC6/SensorBus.h **** /*******************************************************************************
 523:Generated_Source\PSoC6/SensorBus.h **** * Function Name: SensorBus_MasterWrite
 524:Generated_Source\PSoC6/SensorBus.h **** ****************************************************************************//**
 525:Generated_Source\PSoC6/SensorBus.h **** *
 526:Generated_Source\PSoC6/SensorBus.h **** * Invokes the Cy_SCB_I2C_MasterWrite() PDL driver function.
 527:Generated_Source\PSoC6/SensorBus.h **** *
 528:Generated_Source\PSoC6/SensorBus.h **** *******************************************************************************/
 529:Generated_Source\PSoC6/SensorBus.h **** __STATIC_INLINE cy_en_scb_i2c_status_t SensorBus_MasterWrite(cy_stc_scb_i2c_master_xfer_config_t *x
 530:Generated_Source\PSoC6/SensorBus.h **** {
 531:Generated_Source\PSoC6/SensorBus.h ****     return Cy_SCB_I2C_MasterWrite(SensorBus_HW, xferConfig, &SensorBus_context);
 532:Generated_Source\PSoC6/SensorBus.h **** }
 533:Generated_Source\PSoC6/SensorBus.h **** 
 534:Generated_Source\PSoC6/SensorBus.h **** 
 535:Generated_Source\PSoC6/SensorBus.h **** /*******************************************************************************
 536:Generated_Source\PSoC6/SensorBus.h **** * Function Name: SensorBus_MasterAbortWrite
 537:Generated_Source\PSoC6/SensorBus.h **** ****************************************************************************//**
 538:Generated_Source\PSoC6/SensorBus.h **** *
 539:Generated_Source\PSoC6/SensorBus.h **** * Invokes the Cy_SCB_I2C_MasterAbortWrite() PDL driver function.
 540:Generated_Source\PSoC6/SensorBus.h **** *
 541:Generated_Source\PSoC6/SensorBus.h **** *******************************************************************************/
 542:Generated_Source\PSoC6/SensorBus.h **** __STATIC_INLINE void SensorBus_MasterAbortWrite(void)
 543:Generated_Source\PSoC6/SensorBus.h **** {
 544:Generated_Source\PSoC6/SensorBus.h ****     Cy_SCB_I2C_MasterAbortWrite(SensorBus_HW, &SensorBus_context);
ARM GAS  C:\Users\fiona\AppData\Local\Temp\cc5ift8g.s 			page 11


 545:Generated_Source\PSoC6/SensorBus.h **** }
 546:Generated_Source\PSoC6/SensorBus.h **** 
 547:Generated_Source\PSoC6/SensorBus.h **** 
 548:Generated_Source\PSoC6/SensorBus.h **** /*******************************************************************************
 549:Generated_Source\PSoC6/SensorBus.h **** * Function Name: SensorBus_MasterGetTransferCount
 550:Generated_Source\PSoC6/SensorBus.h **** ****************************************************************************//**
 551:Generated_Source\PSoC6/SensorBus.h **** *
 552:Generated_Source\PSoC6/SensorBus.h **** * Invokes the Cy_SCB_I2C_MasterGetTransferCount() PDL driver function.
 553:Generated_Source\PSoC6/SensorBus.h **** *
 554:Generated_Source\PSoC6/SensorBus.h **** *******************************************************************************/
 555:Generated_Source\PSoC6/SensorBus.h **** __STATIC_INLINE uint32_t SensorBus_MasterGetTransferCount(void)
 556:Generated_Source\PSoC6/SensorBus.h **** {
 557:Generated_Source\PSoC6/SensorBus.h ****     return Cy_SCB_I2C_MasterGetTransferCount(SensorBus_HW, &SensorBus_context);
 558:Generated_Source\PSoC6/SensorBus.h **** }
 559:Generated_Source\PSoC6/SensorBus.h **** 
 560:Generated_Source\PSoC6/SensorBus.h **** 
 561:Generated_Source\PSoC6/SensorBus.h **** /*******************************************************************************
 562:Generated_Source\PSoC6/SensorBus.h **** * Function Name: SensorBus_MasterSendStart
 563:Generated_Source\PSoC6/SensorBus.h **** ****************************************************************************//**
 564:Generated_Source\PSoC6/SensorBus.h **** *
 565:Generated_Source\PSoC6/SensorBus.h **** * Invokes the Cy_SCB_I2C_MasterSendStart() PDL driver function.
 566:Generated_Source\PSoC6/SensorBus.h **** *
 567:Generated_Source\PSoC6/SensorBus.h **** *******************************************************************************/
 568:Generated_Source\PSoC6/SensorBus.h **** __STATIC_INLINE cy_en_scb_i2c_status_t SensorBus_MasterSendStart(uint32_t address, cy_en_scb_i2c_di
 569:Generated_Source\PSoC6/SensorBus.h **** {
 570:Generated_Source\PSoC6/SensorBus.h ****     return Cy_SCB_I2C_MasterSendStart(SensorBus_HW, address, bitRnW, timeoutMs, &SensorBus_context)
 571:Generated_Source\PSoC6/SensorBus.h **** }
 572:Generated_Source\PSoC6/SensorBus.h **** 
 573:Generated_Source\PSoC6/SensorBus.h **** 
 574:Generated_Source\PSoC6/SensorBus.h **** /*******************************************************************************
 575:Generated_Source\PSoC6/SensorBus.h **** * Function Name: SensorBus_MasterSendReStart
 576:Generated_Source\PSoC6/SensorBus.h **** ****************************************************************************//**
 577:Generated_Source\PSoC6/SensorBus.h **** *
 578:Generated_Source\PSoC6/SensorBus.h **** * Invokes the Cy_SCB_I2C_MasterSendReStart() PDL driver function.
 579:Generated_Source\PSoC6/SensorBus.h **** *
 580:Generated_Source\PSoC6/SensorBus.h **** *******************************************************************************/
 581:Generated_Source\PSoC6/SensorBus.h **** __STATIC_INLINE cy_en_scb_i2c_status_t SensorBus_MasterSendReStart(uint32_t address, cy_en_scb_i2c_
 582:Generated_Source\PSoC6/SensorBus.h **** {
 583:Generated_Source\PSoC6/SensorBus.h ****     return Cy_SCB_I2C_MasterSendReStart(SensorBus_HW, address, bitRnW, timeoutMs, &SensorBus_contex
 584:Generated_Source\PSoC6/SensorBus.h **** }
 585:Generated_Source\PSoC6/SensorBus.h **** 
 586:Generated_Source\PSoC6/SensorBus.h **** 
 587:Generated_Source\PSoC6/SensorBus.h **** /*******************************************************************************
 588:Generated_Source\PSoC6/SensorBus.h **** * Function Name: SensorBus_MasterSendStop
 589:Generated_Source\PSoC6/SensorBus.h **** ****************************************************************************//**
 590:Generated_Source\PSoC6/SensorBus.h **** *
 591:Generated_Source\PSoC6/SensorBus.h **** * Invokes the Cy_SCB_I2C_MasterSendStop() PDL driver function.
 592:Generated_Source\PSoC6/SensorBus.h **** *
 593:Generated_Source\PSoC6/SensorBus.h **** *******************************************************************************/
 594:Generated_Source\PSoC6/SensorBus.h **** __STATIC_INLINE cy_en_scb_i2c_status_t SensorBus_MasterSendStop(uint32_t timeoutMs)
 595:Generated_Source\PSoC6/SensorBus.h **** {
 596:Generated_Source\PSoC6/SensorBus.h ****     return Cy_SCB_I2C_MasterSendStop(SensorBus_HW, timeoutMs, &SensorBus_context);
 597:Generated_Source\PSoC6/SensorBus.h **** }
 598:Generated_Source\PSoC6/SensorBus.h **** 
 599:Generated_Source\PSoC6/SensorBus.h **** 
 600:Generated_Source\PSoC6/SensorBus.h **** /*******************************************************************************
 601:Generated_Source\PSoC6/SensorBus.h **** * Function Name: SensorBus_MasterReadByte
ARM GAS  C:\Users\fiona\AppData\Local\Temp\cc5ift8g.s 			page 12


 602:Generated_Source\PSoC6/SensorBus.h **** ****************************************************************************//**
 603:Generated_Source\PSoC6/SensorBus.h **** *
 604:Generated_Source\PSoC6/SensorBus.h **** * Invokes the Cy_SCB_I2C_MasterReadByte() PDL driver function.
 605:Generated_Source\PSoC6/SensorBus.h **** *
 606:Generated_Source\PSoC6/SensorBus.h **** *******************************************************************************/
 607:Generated_Source\PSoC6/SensorBus.h **** __STATIC_INLINE cy_en_scb_i2c_status_t SensorBus_MasterReadByte(cy_en_scb_i2c_command_t ackNack, ui
 608:Generated_Source\PSoC6/SensorBus.h **** {
 609:Generated_Source\PSoC6/SensorBus.h ****     return Cy_SCB_I2C_MasterReadByte(SensorBus_HW, ackNack, byte, timeoutMs, &SensorBus_context);
 610:Generated_Source\PSoC6/SensorBus.h **** }
 611:Generated_Source\PSoC6/SensorBus.h **** 
 612:Generated_Source\PSoC6/SensorBus.h **** 
 613:Generated_Source\PSoC6/SensorBus.h **** /*******************************************************************************
 614:Generated_Source\PSoC6/SensorBus.h **** * Function Name: SensorBus_MasterWriteByte
 615:Generated_Source\PSoC6/SensorBus.h **** ****************************************************************************//**
 616:Generated_Source\PSoC6/SensorBus.h **** *
 617:Generated_Source\PSoC6/SensorBus.h **** * Invokes the Cy_SCB_I2C_MasterWriteByte() PDL driver function.
 618:Generated_Source\PSoC6/SensorBus.h **** *
 619:Generated_Source\PSoC6/SensorBus.h **** *******************************************************************************/
 620:Generated_Source\PSoC6/SensorBus.h **** __STATIC_INLINE cy_en_scb_i2c_status_t SensorBus_MasterWriteByte(uint8_t byte, uint32_t timeoutMs)
 621:Generated_Source\PSoC6/SensorBus.h **** {
 622:Generated_Source\PSoC6/SensorBus.h ****     return Cy_SCB_I2C_MasterWriteByte(SensorBus_HW, byte, timeoutMs, &SensorBus_context);
 623:Generated_Source\PSoC6/SensorBus.h **** }
 624:Generated_Source\PSoC6/SensorBus.h **** #endif /* (SensorBus_ENABLE_MASTER) */
 625:Generated_Source\PSoC6/SensorBus.h **** 
 626:Generated_Source\PSoC6/SensorBus.h **** 
 627:Generated_Source\PSoC6/SensorBus.h **** /*******************************************************************************
 628:Generated_Source\PSoC6/SensorBus.h **** * Function Name: SensorBus_Interrupt
 629:Generated_Source\PSoC6/SensorBus.h **** ****************************************************************************//**
 630:Generated_Source\PSoC6/SensorBus.h **** *
 631:Generated_Source\PSoC6/SensorBus.h **** * Invokes the Cy_SCB_I2C_Interrupt() PDL driver function.
 632:Generated_Source\PSoC6/SensorBus.h **** *
 633:Generated_Source\PSoC6/SensorBus.h **** *******************************************************************************/
 634:Generated_Source\PSoC6/SensorBus.h **** __STATIC_INLINE void SensorBus_Interrupt(void)
 635:Generated_Source\PSoC6/SensorBus.h **** {
  27              		.loc 1 635 0
  28              		.cfi_startproc
  29              		@ args = 0, pretend = 0, frame = 0
  30              		@ frame_needed = 0, uses_anonymous_args = 0
  31 0000 10B5     		push	{r4, lr}
  32              		.cfi_def_cfa_offset 8
  33              		.cfi_offset 4, -8
  34              		.cfi_offset 14, -4
 636:Generated_Source\PSoC6/SensorBus.h ****     Cy_SCB_I2C_Interrupt(SensorBus_HW, &SensorBus_context);
  35              		.loc 1 636 0
  36 0002 0249     		ldr	r1, .L2
  37 0004 0248     		ldr	r0, .L2+4
  38 0006 FFF7FEFF 		bl	Cy_SCB_I2C_Interrupt
  39              	.LVL0:
 637:Generated_Source\PSoC6/SensorBus.h **** }
  40              		.loc 1 637 0
  41              		@ sp needed
  42 000a 10BD     		pop	{r4, pc}
  43              	.L3:
  44              		.align	2
  45              	.L2:
  46 000c 00000000 		.word	SensorBus_context
  47 0010 00006240 		.word	1080164352
ARM GAS  C:\Users\fiona\AppData\Local\Temp\cc5ift8g.s 			page 13


  48              		.cfi_endproc
  49              	.LFE152:
  50              		.size	SensorBus_Interrupt, .-SensorBus_Interrupt
  51              		.section	.text.SensorBus_Start,"ax",%progbits
  52              		.align	2
  53              		.global	SensorBus_Start
  54              		.code	16
  55              		.thumb_func
  56              		.type	SensorBus_Start, %function
  57              	SensorBus_Start:
  58              	.LFB155:
  59              		.file 2 "Generated_Source\\PSoC6\\SensorBus.c"
   1:Generated_Source\PSoC6/SensorBus.c **** /***************************************************************************//**
   2:Generated_Source\PSoC6/SensorBus.c **** * \file SensorBus.c
   3:Generated_Source\PSoC6/SensorBus.c **** * \version 2.0
   4:Generated_Source\PSoC6/SensorBus.c **** *
   5:Generated_Source\PSoC6/SensorBus.c **** *  This file provides the source code to the API for the I2C Component.
   6:Generated_Source\PSoC6/SensorBus.c **** *
   7:Generated_Source\PSoC6/SensorBus.c **** ********************************************************************************
   8:Generated_Source\PSoC6/SensorBus.c **** * \copyright
   9:Generated_Source\PSoC6/SensorBus.c **** * Copyright 2016-2017, Cypress Semiconductor Corporation. All rights reserved.
  10:Generated_Source\PSoC6/SensorBus.c **** * You may use this file only in accordance with the license, terms, conditions,
  11:Generated_Source\PSoC6/SensorBus.c **** * disclaimers, and limitations in the end user license agreement accompanying
  12:Generated_Source\PSoC6/SensorBus.c **** * the software package with which this file was provided.
  13:Generated_Source\PSoC6/SensorBus.c **** *******************************************************************************/
  14:Generated_Source\PSoC6/SensorBus.c **** 
  15:Generated_Source\PSoC6/SensorBus.c **** #include "SensorBus.h"
  16:Generated_Source\PSoC6/SensorBus.c **** #include "sysint/cy_sysint.h"
  17:Generated_Source\PSoC6/SensorBus.c **** #include "cyfitter_sysint.h"
  18:Generated_Source\PSoC6/SensorBus.c **** #include "cyfitter_sysint_cfg.h"
  19:Generated_Source\PSoC6/SensorBus.c **** 
  20:Generated_Source\PSoC6/SensorBus.c **** 
  21:Generated_Source\PSoC6/SensorBus.c **** #if defined(__cplusplus)
  22:Generated_Source\PSoC6/SensorBus.c **** extern "C" {
  23:Generated_Source\PSoC6/SensorBus.c **** #endif
  24:Generated_Source\PSoC6/SensorBus.c **** 
  25:Generated_Source\PSoC6/SensorBus.c **** /***************************************
  26:Generated_Source\PSoC6/SensorBus.c **** *     Global variables
  27:Generated_Source\PSoC6/SensorBus.c **** ***************************************/
  28:Generated_Source\PSoC6/SensorBus.c **** 
  29:Generated_Source\PSoC6/SensorBus.c **** /** SensorBus_initVar indicates whether the SensorBus
  30:Generated_Source\PSoC6/SensorBus.c **** *  component has been initialized. The variable is initialized to 0
  31:Generated_Source\PSoC6/SensorBus.c **** *  and set to 1 the first time SensorBus_Start() is called.
  32:Generated_Source\PSoC6/SensorBus.c **** *  This allows  the component to restart without reinitialization
  33:Generated_Source\PSoC6/SensorBus.c **** *  after the first call to the SensorBus_Start() routine.
  34:Generated_Source\PSoC6/SensorBus.c **** *
  35:Generated_Source\PSoC6/SensorBus.c **** *  If re-initialization of the component is required, then the
  36:Generated_Source\PSoC6/SensorBus.c **** *  SensorBus_Init() function can be called before the
  37:Generated_Source\PSoC6/SensorBus.c **** *  SensorBus_Start() or SensorBus_Enable() function.
  38:Generated_Source\PSoC6/SensorBus.c **** */
  39:Generated_Source\PSoC6/SensorBus.c **** uint8_t SensorBus_initVar = 0U;
  40:Generated_Source\PSoC6/SensorBus.c **** 
  41:Generated_Source\PSoC6/SensorBus.c **** /** The instance-specific configuration structure.
  42:Generated_Source\PSoC6/SensorBus.c **** * The pointer to this structure should be passed to Cy_SCB_I2C_Init function
  43:Generated_Source\PSoC6/SensorBus.c **** * to initialize component with GUI selected settings.
  44:Generated_Source\PSoC6/SensorBus.c **** */
  45:Generated_Source\PSoC6/SensorBus.c **** cy_stc_scb_i2c_config_t const SensorBus_config =
ARM GAS  C:\Users\fiona\AppData\Local\Temp\cc5ift8g.s 			page 14


  46:Generated_Source\PSoC6/SensorBus.c **** {
  47:Generated_Source\PSoC6/SensorBus.c ****     .i2cMode    = CY_SCB_I2C_MASTER,
  48:Generated_Source\PSoC6/SensorBus.c **** 
  49:Generated_Source\PSoC6/SensorBus.c ****     .useRxFifo = false,
  50:Generated_Source\PSoC6/SensorBus.c ****     .useTxFifo = false,
  51:Generated_Source\PSoC6/SensorBus.c **** 
  52:Generated_Source\PSoC6/SensorBus.c ****     .slaveAddress        = 0U,
  53:Generated_Source\PSoC6/SensorBus.c ****     .slaveAddressMask    = 0U,
  54:Generated_Source\PSoC6/SensorBus.c ****     .acceptAddrInFifo    = false,
  55:Generated_Source\PSoC6/SensorBus.c ****     .ackGeneralAddr      = false,
  56:Generated_Source\PSoC6/SensorBus.c **** 
  57:Generated_Source\PSoC6/SensorBus.c ****     .enableWakeFromSleep = false
  58:Generated_Source\PSoC6/SensorBus.c **** };
  59:Generated_Source\PSoC6/SensorBus.c **** 
  60:Generated_Source\PSoC6/SensorBus.c **** /** The instance-specific context structure.
  61:Generated_Source\PSoC6/SensorBus.c **** * It is used while the driver operation for internal configuration and
  62:Generated_Source\PSoC6/SensorBus.c **** * data keeping for the I2C. The user should not modify anything in this
  63:Generated_Source\PSoC6/SensorBus.c **** * structure.
  64:Generated_Source\PSoC6/SensorBus.c **** */
  65:Generated_Source\PSoC6/SensorBus.c **** cy_stc_scb_i2c_context_t SensorBus_context;
  66:Generated_Source\PSoC6/SensorBus.c **** 
  67:Generated_Source\PSoC6/SensorBus.c **** 
  68:Generated_Source\PSoC6/SensorBus.c **** /*******************************************************************************
  69:Generated_Source\PSoC6/SensorBus.c **** * Function Name: SensorBus_Start
  70:Generated_Source\PSoC6/SensorBus.c **** ****************************************************************************//**
  71:Generated_Source\PSoC6/SensorBus.c **** *
  72:Generated_Source\PSoC6/SensorBus.c **** * Invokes SensorBus_Init() and SensorBus_Enable().
  73:Generated_Source\PSoC6/SensorBus.c **** * Also configures interrupt and low and high oversampling phases.
  74:Generated_Source\PSoC6/SensorBus.c **** * After this function call the component is enabled and ready for operation.
  75:Generated_Source\PSoC6/SensorBus.c **** * This is the preferred method to begin component operation.
  76:Generated_Source\PSoC6/SensorBus.c **** *
  77:Generated_Source\PSoC6/SensorBus.c **** * \globalvars
  78:Generated_Source\PSoC6/SensorBus.c **** * \ref SensorBus_initVar - used to check initial configuration,
  79:Generated_Source\PSoC6/SensorBus.c **** * modified  on first function call.
  80:Generated_Source\PSoC6/SensorBus.c **** *
  81:Generated_Source\PSoC6/SensorBus.c **** *******************************************************************************/
  82:Generated_Source\PSoC6/SensorBus.c **** void SensorBus_Start(void)
  83:Generated_Source\PSoC6/SensorBus.c **** {
  60              		.loc 2 83 0
  61              		.cfi_startproc
  62              		@ args = 0, pretend = 0, frame = 0
  63              		@ frame_needed = 0, uses_anonymous_args = 0
  64 0000 10B5     		push	{r4, lr}
  65              		.cfi_def_cfa_offset 8
  66              		.cfi_offset 4, -8
  67              		.cfi_offset 14, -4
  84:Generated_Source\PSoC6/SensorBus.c ****     if (0U == SensorBus_initVar)
  68              		.loc 2 84 0
  69 0002 144B     		ldr	r3, .L7
  70 0004 1B78     		ldrb	r3, [r3]
  71 0006 002B     		cmp	r3, #0
  72 0008 11D1     		bne	.L5
  85:Generated_Source\PSoC6/SensorBus.c ****     {
  86:Generated_Source\PSoC6/SensorBus.c ****         /* Configure component */
  87:Generated_Source\PSoC6/SensorBus.c ****         (void) Cy_SCB_I2C_Init(SensorBus_HW, &SensorBus_config, &SensorBus_context);
  73              		.loc 2 87 0
  74 000a 134C     		ldr	r4, .L7+4
ARM GAS  C:\Users\fiona\AppData\Local\Temp\cc5ift8g.s 			page 15


  75 000c 134A     		ldr	r2, .L7+8
  76 000e 1449     		ldr	r1, .L7+12
  77 0010 2000     		movs	r0, r4
  78 0012 FFF7FEFF 		bl	Cy_SCB_I2C_Init
  79              	.LVL1:
  88:Generated_Source\PSoC6/SensorBus.c **** 
  89:Generated_Source\PSoC6/SensorBus.c ****     #if (SensorBus_ENABLE_MASTER)
  90:Generated_Source\PSoC6/SensorBus.c ****         /* Configure desired data rate */
  91:Generated_Source\PSoC6/SensorBus.c ****         (void) Cy_SCB_I2C_SetDataRate(SensorBus_HW, SensorBus_DATA_RATE_HZ, SensorBus_CLK_FREQ_HZ);
  80              		.loc 2 91 0
  81 0016 134A     		ldr	r2, .L7+16
  82 0018 1349     		ldr	r1, .L7+20
  83 001a 2000     		movs	r0, r4
  84 001c FFF7FEFF 		bl	Cy_SCB_I2C_SetDataRate
  85              	.LVL2:
  92:Generated_Source\PSoC6/SensorBus.c **** 
  93:Generated_Source\PSoC6/SensorBus.c ****         #if (SensorBus_MANUAL_SCL_CONTROL)
  94:Generated_Source\PSoC6/SensorBus.c ****             Cy_SCB_I2C_MasterSetLowPhaseDutyCycle (SensorBus_HW, SensorBus_LOW_PHASE_DUTY_CYCLE);
  95:Generated_Source\PSoC6/SensorBus.c ****             Cy_SCB_I2C_MasterSetHighPhaseDutyCycle(SensorBus_HW, SensorBus_HIGH_PHASE_DUTY_CYCLE);
  96:Generated_Source\PSoC6/SensorBus.c ****         #endif /* (SensorBus_MANUAL_SCL_CONTROL) */
  97:Generated_Source\PSoC6/SensorBus.c ****     #endif /* (SensorBus_ENABLE_MASTER) */
  98:Generated_Source\PSoC6/SensorBus.c **** 
  99:Generated_Source\PSoC6/SensorBus.c ****         /* Hook interrupt service routine */
 100:Generated_Source\PSoC6/SensorBus.c ****     #if defined(SensorBus_SCB_IRQ__INTC_ASSIGNED)
 101:Generated_Source\PSoC6/SensorBus.c ****         (void) Cy_SysInt_Init(&SensorBus_SCB_IRQ_cfg, &SensorBus_Interrupt);
  86              		.loc 2 101 0
  87 0020 1249     		ldr	r1, .L7+24
  88 0022 1348     		ldr	r0, .L7+28
  89 0024 FFF7FEFF 		bl	Cy_SysInt_Init
  90              	.LVL3:
 102:Generated_Source\PSoC6/SensorBus.c ****     #endif /* (SensorBus_SCB_IRQ__INTC_ASSIGNED) */
 103:Generated_Source\PSoC6/SensorBus.c **** 
 104:Generated_Source\PSoC6/SensorBus.c ****         SensorBus_initVar = 1U;
  91              		.loc 2 104 0
  92 0028 0122     		movs	r2, #1
  93 002a 0A4B     		ldr	r3, .L7
  94 002c 1A70     		strb	r2, [r3]
  95              	.L5:
 105:Generated_Source\PSoC6/SensorBus.c ****     }
 106:Generated_Source\PSoC6/SensorBus.c **** 
 107:Generated_Source\PSoC6/SensorBus.c ****     /* Enable interrupt in NVIC */
 108:Generated_Source\PSoC6/SensorBus.c **** #if defined(SensorBus_SCB_IRQ__INTC_ASSIGNED)
 109:Generated_Source\PSoC6/SensorBus.c ****     NVIC_EnableIRQ((IRQn_Type) SensorBus_SCB_IRQ_cfg.intrSrc);
  96              		.loc 2 109 0
  97 002e 104B     		ldr	r3, .L7+28
  98 0030 0022     		movs	r2, #0
  99 0032 9A5E     		ldrsh	r2, [r3, r2]
 100              	.LVL4:
 101              	.LBB6:
 102              	.LBB7:
 103              		.file 3 "Generated_Source\\PSoC6\\pdl\\cmsis/include/core_cm0plus.h"
   1:Generated_Source\PSoC6\pdl\cmsis/include/core_cm0plus.h **** /**************************************************************************//**
   2:Generated_Source\PSoC6\pdl\cmsis/include/core_cm0plus.h ****  * @file     core_cm0plus.h
   3:Generated_Source\PSoC6\pdl\cmsis/include/core_cm0plus.h ****  * @brief    CMSIS Cortex-M0+ Core Peripheral Access Layer Header File
   4:Generated_Source\PSoC6\pdl\cmsis/include/core_cm0plus.h ****  * @version  V5.0.1
   5:Generated_Source\PSoC6\pdl\cmsis/include/core_cm0plus.h ****  * @date     25. November 2016
   6:Generated_Source\PSoC6\pdl\cmsis/include/core_cm0plus.h ****  ******************************************************************************/
ARM GAS  C:\Users\fiona\AppData\Local\Temp\cc5ift8g.s 			page 16


   7:Generated_Source\PSoC6\pdl\cmsis/include/core_cm0plus.h **** /*
   8:Generated_Source\PSoC6\pdl\cmsis/include/core_cm0plus.h ****  * Copyright (c) 2009-2016 ARM Limited. All rights reserved.
   9:Generated_Source\PSoC6\pdl\cmsis/include/core_cm0plus.h ****  *
  10:Generated_Source\PSoC6\pdl\cmsis/include/core_cm0plus.h ****  * SPDX-License-Identifier: Apache-2.0
  11:Generated_Source\PSoC6\pdl\cmsis/include/core_cm0plus.h ****  *
  12:Generated_Source\PSoC6\pdl\cmsis/include/core_cm0plus.h ****  * Licensed under the Apache License, Version 2.0 (the License); you may
  13:Generated_Source\PSoC6\pdl\cmsis/include/core_cm0plus.h ****  * not use this file except in compliance with the License.
  14:Generated_Source\PSoC6\pdl\cmsis/include/core_cm0plus.h ****  * You may obtain a copy of the License at
  15:Generated_Source\PSoC6\pdl\cmsis/include/core_cm0plus.h ****  *
  16:Generated_Source\PSoC6\pdl\cmsis/include/core_cm0plus.h ****  * www.apache.org/licenses/LICENSE-2.0
  17:Generated_Source\PSoC6\pdl\cmsis/include/core_cm0plus.h ****  *
  18:Generated_Source\PSoC6\pdl\cmsis/include/core_cm0plus.h ****  * Unless required by applicable law or agreed to in writing, software
  19:Generated_Source\PSoC6\pdl\cmsis/include/core_cm0plus.h ****  * distributed under the License is distributed on an AS IS BASIS, WITHOUT
  20:Generated_Source\PSoC6\pdl\cmsis/include/core_cm0plus.h ****  * WARRANTIES OR CONDITIONS OF ANY KIND, either express or implied.
  21:Generated_Source\PSoC6\pdl\cmsis/include/core_cm0plus.h ****  * See the License for the specific language governing permissions and
  22:Generated_Source\PSoC6\pdl\cmsis/include/core_cm0plus.h ****  * limitations under the License.
  23:Generated_Source\PSoC6\pdl\cmsis/include/core_cm0plus.h ****  */
  24:Generated_Source\PSoC6\pdl\cmsis/include/core_cm0plus.h **** 
  25:Generated_Source\PSoC6\pdl\cmsis/include/core_cm0plus.h **** #if   defined ( __ICCARM__ )
  26:Generated_Source\PSoC6\pdl\cmsis/include/core_cm0plus.h ****  #pragma system_include         /* treat file as system include file for MISRA check */
  27:Generated_Source\PSoC6\pdl\cmsis/include/core_cm0plus.h **** #elif defined (__ARMCC_VERSION) && (__ARMCC_VERSION >= 6010050)
  28:Generated_Source\PSoC6\pdl\cmsis/include/core_cm0plus.h ****   #pragma clang system_header   /* treat file as system include file */
  29:Generated_Source\PSoC6\pdl\cmsis/include/core_cm0plus.h **** #endif
  30:Generated_Source\PSoC6\pdl\cmsis/include/core_cm0plus.h **** 
  31:Generated_Source\PSoC6\pdl\cmsis/include/core_cm0plus.h **** #ifndef __CORE_CM0PLUS_H_GENERIC
  32:Generated_Source\PSoC6\pdl\cmsis/include/core_cm0plus.h **** #define __CORE_CM0PLUS_H_GENERIC
  33:Generated_Source\PSoC6\pdl\cmsis/include/core_cm0plus.h **** 
  34:Generated_Source\PSoC6\pdl\cmsis/include/core_cm0plus.h **** #include <stdint.h>
  35:Generated_Source\PSoC6\pdl\cmsis/include/core_cm0plus.h **** 
  36:Generated_Source\PSoC6\pdl\cmsis/include/core_cm0plus.h **** #ifdef __cplusplus
  37:Generated_Source\PSoC6\pdl\cmsis/include/core_cm0plus.h ****  extern "C" {
  38:Generated_Source\PSoC6\pdl\cmsis/include/core_cm0plus.h **** #endif
  39:Generated_Source\PSoC6\pdl\cmsis/include/core_cm0plus.h **** 
  40:Generated_Source\PSoC6\pdl\cmsis/include/core_cm0plus.h **** /**
  41:Generated_Source\PSoC6\pdl\cmsis/include/core_cm0plus.h ****   \page CMSIS_MISRA_Exceptions  MISRA-C:2004 Compliance Exceptions
  42:Generated_Source\PSoC6\pdl\cmsis/include/core_cm0plus.h ****   CMSIS violates the following MISRA-C:2004 rules:
  43:Generated_Source\PSoC6\pdl\cmsis/include/core_cm0plus.h **** 
  44:Generated_Source\PSoC6\pdl\cmsis/include/core_cm0plus.h ****    \li Required Rule 8.5, object/function definition in header file.<br>
  45:Generated_Source\PSoC6\pdl\cmsis/include/core_cm0plus.h ****      Function definitions in header files are used to allow 'inlining'.
  46:Generated_Source\PSoC6\pdl\cmsis/include/core_cm0plus.h **** 
  47:Generated_Source\PSoC6\pdl\cmsis/include/core_cm0plus.h ****    \li Required Rule 18.4, declaration of union type or object of union type: '{...}'.<br>
  48:Generated_Source\PSoC6\pdl\cmsis/include/core_cm0plus.h ****      Unions are used for effective representation of core registers.
  49:Generated_Source\PSoC6\pdl\cmsis/include/core_cm0plus.h **** 
  50:Generated_Source\PSoC6\pdl\cmsis/include/core_cm0plus.h ****    \li Advisory Rule 19.7, Function-like macro defined.<br>
  51:Generated_Source\PSoC6\pdl\cmsis/include/core_cm0plus.h ****      Function-like macros are used to allow more efficient code.
  52:Generated_Source\PSoC6\pdl\cmsis/include/core_cm0plus.h ****  */
  53:Generated_Source\PSoC6\pdl\cmsis/include/core_cm0plus.h **** 
  54:Generated_Source\PSoC6\pdl\cmsis/include/core_cm0plus.h **** 
  55:Generated_Source\PSoC6\pdl\cmsis/include/core_cm0plus.h **** /*******************************************************************************
  56:Generated_Source\PSoC6\pdl\cmsis/include/core_cm0plus.h ****  *                 CMSIS definitions
  57:Generated_Source\PSoC6\pdl\cmsis/include/core_cm0plus.h ****  ******************************************************************************/
  58:Generated_Source\PSoC6\pdl\cmsis/include/core_cm0plus.h **** /**
  59:Generated_Source\PSoC6\pdl\cmsis/include/core_cm0plus.h ****   \ingroup Cortex-M0+
  60:Generated_Source\PSoC6\pdl\cmsis/include/core_cm0plus.h ****   @{
  61:Generated_Source\PSoC6\pdl\cmsis/include/core_cm0plus.h ****  */
  62:Generated_Source\PSoC6\pdl\cmsis/include/core_cm0plus.h **** 
  63:Generated_Source\PSoC6\pdl\cmsis/include/core_cm0plus.h **** /*  CMSIS CM0+ definitions */
ARM GAS  C:\Users\fiona\AppData\Local\Temp\cc5ift8g.s 			page 17


  64:Generated_Source\PSoC6\pdl\cmsis/include/core_cm0plus.h **** #define __CM0PLUS_CMSIS_VERSION_MAIN ( 5U)                                      /*!< [31:16] CMSIS 
  65:Generated_Source\PSoC6\pdl\cmsis/include/core_cm0plus.h **** #define __CM0PLUS_CMSIS_VERSION_SUB  ( 0U)                                      /*!< [15:0]  CMSIS 
  66:Generated_Source\PSoC6\pdl\cmsis/include/core_cm0plus.h **** #define __CM0PLUS_CMSIS_VERSION      ((__CM0PLUS_CMSIS_VERSION_MAIN << 16U) | \
  67:Generated_Source\PSoC6\pdl\cmsis/include/core_cm0plus.h ****                                        __CM0PLUS_CMSIS_VERSION_SUB           )  /*!< CMSIS HAL vers
  68:Generated_Source\PSoC6\pdl\cmsis/include/core_cm0plus.h **** 
  69:Generated_Source\PSoC6\pdl\cmsis/include/core_cm0plus.h **** #define __CORTEX_M                   (0U)                                       /*!< Cortex-M Core 
  70:Generated_Source\PSoC6\pdl\cmsis/include/core_cm0plus.h **** 
  71:Generated_Source\PSoC6\pdl\cmsis/include/core_cm0plus.h **** /** __FPU_USED indicates whether an FPU is used or not.
  72:Generated_Source\PSoC6\pdl\cmsis/include/core_cm0plus.h ****     This core does not support an FPU at all
  73:Generated_Source\PSoC6\pdl\cmsis/include/core_cm0plus.h **** */
  74:Generated_Source\PSoC6\pdl\cmsis/include/core_cm0plus.h **** #define __FPU_USED       0U
  75:Generated_Source\PSoC6\pdl\cmsis/include/core_cm0plus.h **** 
  76:Generated_Source\PSoC6\pdl\cmsis/include/core_cm0plus.h **** #if defined ( __CC_ARM )
  77:Generated_Source\PSoC6\pdl\cmsis/include/core_cm0plus.h ****   #if defined __TARGET_FPU_VFP
  78:Generated_Source\PSoC6\pdl\cmsis/include/core_cm0plus.h ****     #error "Compiler generates FPU instructions for a device without an FPU (check __FPU_PRESENT)"
  79:Generated_Source\PSoC6\pdl\cmsis/include/core_cm0plus.h ****   #endif
  80:Generated_Source\PSoC6\pdl\cmsis/include/core_cm0plus.h **** 
  81:Generated_Source\PSoC6\pdl\cmsis/include/core_cm0plus.h **** #elif defined (__ARMCC_VERSION) && (__ARMCC_VERSION >= 6010050)
  82:Generated_Source\PSoC6\pdl\cmsis/include/core_cm0plus.h ****   #if defined __ARM_PCS_VFP
  83:Generated_Source\PSoC6\pdl\cmsis/include/core_cm0plus.h ****     #error "Compiler generates FPU instructions for a device without an FPU (check __FPU_PRESENT)"
  84:Generated_Source\PSoC6\pdl\cmsis/include/core_cm0plus.h ****   #endif
  85:Generated_Source\PSoC6\pdl\cmsis/include/core_cm0plus.h **** 
  86:Generated_Source\PSoC6\pdl\cmsis/include/core_cm0plus.h **** #elif defined ( __GNUC__ )
  87:Generated_Source\PSoC6\pdl\cmsis/include/core_cm0plus.h ****   #if defined (__VFP_FP__) && !defined(__SOFTFP__)
  88:Generated_Source\PSoC6\pdl\cmsis/include/core_cm0plus.h ****     #error "Compiler generates FPU instructions for a device without an FPU (check __FPU_PRESENT)"
  89:Generated_Source\PSoC6\pdl\cmsis/include/core_cm0plus.h ****   #endif
  90:Generated_Source\PSoC6\pdl\cmsis/include/core_cm0plus.h **** 
  91:Generated_Source\PSoC6\pdl\cmsis/include/core_cm0plus.h **** #elif defined ( __ICCARM__ )
  92:Generated_Source\PSoC6\pdl\cmsis/include/core_cm0plus.h ****   #if defined __ARMVFP__
  93:Generated_Source\PSoC6\pdl\cmsis/include/core_cm0plus.h ****     #error "Compiler generates FPU instructions for a device without an FPU (check __FPU_PRESENT)"
  94:Generated_Source\PSoC6\pdl\cmsis/include/core_cm0plus.h ****   #endif
  95:Generated_Source\PSoC6\pdl\cmsis/include/core_cm0plus.h **** 
  96:Generated_Source\PSoC6\pdl\cmsis/include/core_cm0plus.h **** #elif defined ( __TI_ARM__ )
  97:Generated_Source\PSoC6\pdl\cmsis/include/core_cm0plus.h ****   #if defined __TI_VFP_SUPPORT__
  98:Generated_Source\PSoC6\pdl\cmsis/include/core_cm0plus.h ****     #error "Compiler generates FPU instructions for a device without an FPU (check __FPU_PRESENT)"
  99:Generated_Source\PSoC6\pdl\cmsis/include/core_cm0plus.h ****   #endif
 100:Generated_Source\PSoC6\pdl\cmsis/include/core_cm0plus.h **** 
 101:Generated_Source\PSoC6\pdl\cmsis/include/core_cm0plus.h **** #elif defined ( __TASKING__ )
 102:Generated_Source\PSoC6\pdl\cmsis/include/core_cm0plus.h ****   #if defined __FPU_VFP__
 103:Generated_Source\PSoC6\pdl\cmsis/include/core_cm0plus.h ****     #error "Compiler generates FPU instructions for a device without an FPU (check __FPU_PRESENT)"
 104:Generated_Source\PSoC6\pdl\cmsis/include/core_cm0plus.h ****   #endif
 105:Generated_Source\PSoC6\pdl\cmsis/include/core_cm0plus.h **** 
 106:Generated_Source\PSoC6\pdl\cmsis/include/core_cm0plus.h **** #elif defined ( __CSMC__ )
 107:Generated_Source\PSoC6\pdl\cmsis/include/core_cm0plus.h ****   #if ( __CSMC__ & 0x400U)
 108:Generated_Source\PSoC6\pdl\cmsis/include/core_cm0plus.h ****     #error "Compiler generates FPU instructions for a device without an FPU (check __FPU_PRESENT)"
 109:Generated_Source\PSoC6\pdl\cmsis/include/core_cm0plus.h ****   #endif
 110:Generated_Source\PSoC6\pdl\cmsis/include/core_cm0plus.h **** 
 111:Generated_Source\PSoC6\pdl\cmsis/include/core_cm0plus.h **** #endif
 112:Generated_Source\PSoC6\pdl\cmsis/include/core_cm0plus.h **** 
 113:Generated_Source\PSoC6\pdl\cmsis/include/core_cm0plus.h **** #include "cmsis_compiler.h"               /* CMSIS compiler specific defines */
 114:Generated_Source\PSoC6\pdl\cmsis/include/core_cm0plus.h **** 
 115:Generated_Source\PSoC6\pdl\cmsis/include/core_cm0plus.h **** 
 116:Generated_Source\PSoC6\pdl\cmsis/include/core_cm0plus.h **** #ifdef __cplusplus
 117:Generated_Source\PSoC6\pdl\cmsis/include/core_cm0plus.h **** }
 118:Generated_Source\PSoC6\pdl\cmsis/include/core_cm0plus.h **** #endif
 119:Generated_Source\PSoC6\pdl\cmsis/include/core_cm0plus.h **** 
 120:Generated_Source\PSoC6\pdl\cmsis/include/core_cm0plus.h **** #endif /* __CORE_CM0PLUS_H_GENERIC */
ARM GAS  C:\Users\fiona\AppData\Local\Temp\cc5ift8g.s 			page 18


 121:Generated_Source\PSoC6\pdl\cmsis/include/core_cm0plus.h **** 
 122:Generated_Source\PSoC6\pdl\cmsis/include/core_cm0plus.h **** #ifndef __CMSIS_GENERIC
 123:Generated_Source\PSoC6\pdl\cmsis/include/core_cm0plus.h **** 
 124:Generated_Source\PSoC6\pdl\cmsis/include/core_cm0plus.h **** #ifndef __CORE_CM0PLUS_H_DEPENDANT
 125:Generated_Source\PSoC6\pdl\cmsis/include/core_cm0plus.h **** #define __CORE_CM0PLUS_H_DEPENDANT
 126:Generated_Source\PSoC6\pdl\cmsis/include/core_cm0plus.h **** 
 127:Generated_Source\PSoC6\pdl\cmsis/include/core_cm0plus.h **** #ifdef __cplusplus
 128:Generated_Source\PSoC6\pdl\cmsis/include/core_cm0plus.h ****  extern "C" {
 129:Generated_Source\PSoC6\pdl\cmsis/include/core_cm0plus.h **** #endif
 130:Generated_Source\PSoC6\pdl\cmsis/include/core_cm0plus.h **** 
 131:Generated_Source\PSoC6\pdl\cmsis/include/core_cm0plus.h **** /* check device defines and use defaults */
 132:Generated_Source\PSoC6\pdl\cmsis/include/core_cm0plus.h **** #if defined __CHECK_DEVICE_DEFINES
 133:Generated_Source\PSoC6\pdl\cmsis/include/core_cm0plus.h ****   #ifndef __CM0PLUS_REV
 134:Generated_Source\PSoC6\pdl\cmsis/include/core_cm0plus.h ****     #define __CM0PLUS_REV             0x0000U
 135:Generated_Source\PSoC6\pdl\cmsis/include/core_cm0plus.h ****     #warning "__CM0PLUS_REV not defined in device header file; using default!"
 136:Generated_Source\PSoC6\pdl\cmsis/include/core_cm0plus.h ****   #endif
 137:Generated_Source\PSoC6\pdl\cmsis/include/core_cm0plus.h **** 
 138:Generated_Source\PSoC6\pdl\cmsis/include/core_cm0plus.h ****   #ifndef __MPU_PRESENT
 139:Generated_Source\PSoC6\pdl\cmsis/include/core_cm0plus.h ****     #define __MPU_PRESENT             0U
 140:Generated_Source\PSoC6\pdl\cmsis/include/core_cm0plus.h ****     #warning "__MPU_PRESENT not defined in device header file; using default!"
 141:Generated_Source\PSoC6\pdl\cmsis/include/core_cm0plus.h ****   #endif
 142:Generated_Source\PSoC6\pdl\cmsis/include/core_cm0plus.h **** 
 143:Generated_Source\PSoC6\pdl\cmsis/include/core_cm0plus.h ****   #ifndef __VTOR_PRESENT
 144:Generated_Source\PSoC6\pdl\cmsis/include/core_cm0plus.h ****     #define __VTOR_PRESENT            0U
 145:Generated_Source\PSoC6\pdl\cmsis/include/core_cm0plus.h ****     #warning "__VTOR_PRESENT not defined in device header file; using default!"
 146:Generated_Source\PSoC6\pdl\cmsis/include/core_cm0plus.h ****   #endif
 147:Generated_Source\PSoC6\pdl\cmsis/include/core_cm0plus.h **** 
 148:Generated_Source\PSoC6\pdl\cmsis/include/core_cm0plus.h ****   #ifndef __NVIC_PRIO_BITS
 149:Generated_Source\PSoC6\pdl\cmsis/include/core_cm0plus.h ****     #define __NVIC_PRIO_BITS          2U
 150:Generated_Source\PSoC6\pdl\cmsis/include/core_cm0plus.h ****     #warning "__NVIC_PRIO_BITS not defined in device header file; using default!"
 151:Generated_Source\PSoC6\pdl\cmsis/include/core_cm0plus.h ****   #endif
 152:Generated_Source\PSoC6\pdl\cmsis/include/core_cm0plus.h **** 
 153:Generated_Source\PSoC6\pdl\cmsis/include/core_cm0plus.h ****   #ifndef __Vendor_SysTickConfig
 154:Generated_Source\PSoC6\pdl\cmsis/include/core_cm0plus.h ****     #define __Vendor_SysTickConfig    0U
 155:Generated_Source\PSoC6\pdl\cmsis/include/core_cm0plus.h ****     #warning "__Vendor_SysTickConfig not defined in device header file; using default!"
 156:Generated_Source\PSoC6\pdl\cmsis/include/core_cm0plus.h ****   #endif
 157:Generated_Source\PSoC6\pdl\cmsis/include/core_cm0plus.h **** #endif
 158:Generated_Source\PSoC6\pdl\cmsis/include/core_cm0plus.h **** 
 159:Generated_Source\PSoC6\pdl\cmsis/include/core_cm0plus.h **** /* IO definitions (access restrictions to peripheral registers) */
 160:Generated_Source\PSoC6\pdl\cmsis/include/core_cm0plus.h **** /**
 161:Generated_Source\PSoC6\pdl\cmsis/include/core_cm0plus.h ****     \defgroup CMSIS_glob_defs CMSIS Global Defines
 162:Generated_Source\PSoC6\pdl\cmsis/include/core_cm0plus.h **** 
 163:Generated_Source\PSoC6\pdl\cmsis/include/core_cm0plus.h ****     <strong>IO Type Qualifiers</strong> are used
 164:Generated_Source\PSoC6\pdl\cmsis/include/core_cm0plus.h ****     \li to specify the access to peripheral variables.
 165:Generated_Source\PSoC6\pdl\cmsis/include/core_cm0plus.h ****     \li for automatic generation of peripheral register debug information.
 166:Generated_Source\PSoC6\pdl\cmsis/include/core_cm0plus.h **** */
 167:Generated_Source\PSoC6\pdl\cmsis/include/core_cm0plus.h **** #ifdef __cplusplus
 168:Generated_Source\PSoC6\pdl\cmsis/include/core_cm0plus.h ****   #define   __I     volatile             /*!< Defines 'read only' permissions */
 169:Generated_Source\PSoC6\pdl\cmsis/include/core_cm0plus.h **** #else
 170:Generated_Source\PSoC6\pdl\cmsis/include/core_cm0plus.h ****   #define   __I     volatile const       /*!< Defines 'read only' permissions */
 171:Generated_Source\PSoC6\pdl\cmsis/include/core_cm0plus.h **** #endif
 172:Generated_Source\PSoC6\pdl\cmsis/include/core_cm0plus.h **** #define     __O     volatile             /*!< Defines 'write only' permissions */
 173:Generated_Source\PSoC6\pdl\cmsis/include/core_cm0plus.h **** #define     __IO    volatile             /*!< Defines 'read / write' permissions */
 174:Generated_Source\PSoC6\pdl\cmsis/include/core_cm0plus.h **** 
 175:Generated_Source\PSoC6\pdl\cmsis/include/core_cm0plus.h **** /* following defines should be used for structure members */
 176:Generated_Source\PSoC6\pdl\cmsis/include/core_cm0plus.h **** #define     __IM     volatile const      /*! Defines 'read only' structure member permissions */
 177:Generated_Source\PSoC6\pdl\cmsis/include/core_cm0plus.h **** #define     __OM     volatile            /*! Defines 'write only' structure member permissions */
ARM GAS  C:\Users\fiona\AppData\Local\Temp\cc5ift8g.s 			page 19


 178:Generated_Source\PSoC6\pdl\cmsis/include/core_cm0plus.h **** #define     __IOM    volatile            /*! Defines 'read / write' structure member permissions */
 179:Generated_Source\PSoC6\pdl\cmsis/include/core_cm0plus.h **** 
 180:Generated_Source\PSoC6\pdl\cmsis/include/core_cm0plus.h **** /*@} end of group Cortex-M0+ */
 181:Generated_Source\PSoC6\pdl\cmsis/include/core_cm0plus.h **** 
 182:Generated_Source\PSoC6\pdl\cmsis/include/core_cm0plus.h **** 
 183:Generated_Source\PSoC6\pdl\cmsis/include/core_cm0plus.h **** 
 184:Generated_Source\PSoC6\pdl\cmsis/include/core_cm0plus.h **** /*******************************************************************************
 185:Generated_Source\PSoC6\pdl\cmsis/include/core_cm0plus.h ****  *                 Register Abstraction
 186:Generated_Source\PSoC6\pdl\cmsis/include/core_cm0plus.h ****   Core Register contain:
 187:Generated_Source\PSoC6\pdl\cmsis/include/core_cm0plus.h ****   - Core Register
 188:Generated_Source\PSoC6\pdl\cmsis/include/core_cm0plus.h ****   - Core NVIC Register
 189:Generated_Source\PSoC6\pdl\cmsis/include/core_cm0plus.h ****   - Core SCB Register
 190:Generated_Source\PSoC6\pdl\cmsis/include/core_cm0plus.h ****   - Core SysTick Register
 191:Generated_Source\PSoC6\pdl\cmsis/include/core_cm0plus.h ****   - Core MPU Register
 192:Generated_Source\PSoC6\pdl\cmsis/include/core_cm0plus.h ****  ******************************************************************************/
 193:Generated_Source\PSoC6\pdl\cmsis/include/core_cm0plus.h **** /**
 194:Generated_Source\PSoC6\pdl\cmsis/include/core_cm0plus.h ****   \defgroup CMSIS_core_register Defines and Type Definitions
 195:Generated_Source\PSoC6\pdl\cmsis/include/core_cm0plus.h ****   \brief Type definitions and defines for Cortex-M processor based devices.
 196:Generated_Source\PSoC6\pdl\cmsis/include/core_cm0plus.h **** */
 197:Generated_Source\PSoC6\pdl\cmsis/include/core_cm0plus.h **** 
 198:Generated_Source\PSoC6\pdl\cmsis/include/core_cm0plus.h **** /**
 199:Generated_Source\PSoC6\pdl\cmsis/include/core_cm0plus.h ****   \ingroup    CMSIS_core_register
 200:Generated_Source\PSoC6\pdl\cmsis/include/core_cm0plus.h ****   \defgroup   CMSIS_CORE  Status and Control Registers
 201:Generated_Source\PSoC6\pdl\cmsis/include/core_cm0plus.h ****   \brief      Core Register type definitions.
 202:Generated_Source\PSoC6\pdl\cmsis/include/core_cm0plus.h ****   @{
 203:Generated_Source\PSoC6\pdl\cmsis/include/core_cm0plus.h ****  */
 204:Generated_Source\PSoC6\pdl\cmsis/include/core_cm0plus.h **** 
 205:Generated_Source\PSoC6\pdl\cmsis/include/core_cm0plus.h **** /**
 206:Generated_Source\PSoC6\pdl\cmsis/include/core_cm0plus.h ****   \brief  Union type to access the Application Program Status Register (APSR).
 207:Generated_Source\PSoC6\pdl\cmsis/include/core_cm0plus.h ****  */
 208:Generated_Source\PSoC6\pdl\cmsis/include/core_cm0plus.h **** typedef union
 209:Generated_Source\PSoC6\pdl\cmsis/include/core_cm0plus.h **** {
 210:Generated_Source\PSoC6\pdl\cmsis/include/core_cm0plus.h ****   struct
 211:Generated_Source\PSoC6\pdl\cmsis/include/core_cm0plus.h ****   {
 212:Generated_Source\PSoC6\pdl\cmsis/include/core_cm0plus.h ****     uint32_t _reserved0:28;              /*!< bit:  0..27  Reserved */
 213:Generated_Source\PSoC6\pdl\cmsis/include/core_cm0plus.h ****     uint32_t V:1;                        /*!< bit:     28  Overflow condition code flag */
 214:Generated_Source\PSoC6\pdl\cmsis/include/core_cm0plus.h ****     uint32_t C:1;                        /*!< bit:     29  Carry condition code flag */
 215:Generated_Source\PSoC6\pdl\cmsis/include/core_cm0plus.h ****     uint32_t Z:1;                        /*!< bit:     30  Zero condition code flag */
 216:Generated_Source\PSoC6\pdl\cmsis/include/core_cm0plus.h ****     uint32_t N:1;                        /*!< bit:     31  Negative condition code flag */
 217:Generated_Source\PSoC6\pdl\cmsis/include/core_cm0plus.h ****   } b;                                   /*!< Structure used for bit  access */
 218:Generated_Source\PSoC6\pdl\cmsis/include/core_cm0plus.h ****   uint32_t w;                            /*!< Type      used for word access */
 219:Generated_Source\PSoC6\pdl\cmsis/include/core_cm0plus.h **** } APSR_Type;
 220:Generated_Source\PSoC6\pdl\cmsis/include/core_cm0plus.h **** 
 221:Generated_Source\PSoC6\pdl\cmsis/include/core_cm0plus.h **** /* APSR Register Definitions */
 222:Generated_Source\PSoC6\pdl\cmsis/include/core_cm0plus.h **** #define APSR_N_Pos                         31U                                            /*!< APSR
 223:Generated_Source\PSoC6\pdl\cmsis/include/core_cm0plus.h **** #define APSR_N_Msk                         (1UL << APSR_N_Pos)                            /*!< APSR
 224:Generated_Source\PSoC6\pdl\cmsis/include/core_cm0plus.h **** 
 225:Generated_Source\PSoC6\pdl\cmsis/include/core_cm0plus.h **** #define APSR_Z_Pos                         30U                                            /*!< APSR
 226:Generated_Source\PSoC6\pdl\cmsis/include/core_cm0plus.h **** #define APSR_Z_Msk                         (1UL << APSR_Z_Pos)                            /*!< APSR
 227:Generated_Source\PSoC6\pdl\cmsis/include/core_cm0plus.h **** 
 228:Generated_Source\PSoC6\pdl\cmsis/include/core_cm0plus.h **** #define APSR_C_Pos                         29U                                            /*!< APSR
 229:Generated_Source\PSoC6\pdl\cmsis/include/core_cm0plus.h **** #define APSR_C_Msk                         (1UL << APSR_C_Pos)                            /*!< APSR
 230:Generated_Source\PSoC6\pdl\cmsis/include/core_cm0plus.h **** 
 231:Generated_Source\PSoC6\pdl\cmsis/include/core_cm0plus.h **** #define APSR_V_Pos                         28U                                            /*!< APSR
 232:Generated_Source\PSoC6\pdl\cmsis/include/core_cm0plus.h **** #define APSR_V_Msk                         (1UL << APSR_V_Pos)                            /*!< APSR
 233:Generated_Source\PSoC6\pdl\cmsis/include/core_cm0plus.h **** 
 234:Generated_Source\PSoC6\pdl\cmsis/include/core_cm0plus.h **** 
ARM GAS  C:\Users\fiona\AppData\Local\Temp\cc5ift8g.s 			page 20


 235:Generated_Source\PSoC6\pdl\cmsis/include/core_cm0plus.h **** /**
 236:Generated_Source\PSoC6\pdl\cmsis/include/core_cm0plus.h ****   \brief  Union type to access the Interrupt Program Status Register (IPSR).
 237:Generated_Source\PSoC6\pdl\cmsis/include/core_cm0plus.h ****  */
 238:Generated_Source\PSoC6\pdl\cmsis/include/core_cm0plus.h **** typedef union
 239:Generated_Source\PSoC6\pdl\cmsis/include/core_cm0plus.h **** {
 240:Generated_Source\PSoC6\pdl\cmsis/include/core_cm0plus.h ****   struct
 241:Generated_Source\PSoC6\pdl\cmsis/include/core_cm0plus.h ****   {
 242:Generated_Source\PSoC6\pdl\cmsis/include/core_cm0plus.h ****     uint32_t ISR:9;                      /*!< bit:  0.. 8  Exception number */
 243:Generated_Source\PSoC6\pdl\cmsis/include/core_cm0plus.h ****     uint32_t _reserved0:23;              /*!< bit:  9..31  Reserved */
 244:Generated_Source\PSoC6\pdl\cmsis/include/core_cm0plus.h ****   } b;                                   /*!< Structure used for bit  access */
 245:Generated_Source\PSoC6\pdl\cmsis/include/core_cm0plus.h ****   uint32_t w;                            /*!< Type      used for word access */
 246:Generated_Source\PSoC6\pdl\cmsis/include/core_cm0plus.h **** } IPSR_Type;
 247:Generated_Source\PSoC6\pdl\cmsis/include/core_cm0plus.h **** 
 248:Generated_Source\PSoC6\pdl\cmsis/include/core_cm0plus.h **** /* IPSR Register Definitions */
 249:Generated_Source\PSoC6\pdl\cmsis/include/core_cm0plus.h **** #define IPSR_ISR_Pos                        0U                                            /*!< IPSR
 250:Generated_Source\PSoC6\pdl\cmsis/include/core_cm0plus.h **** #define IPSR_ISR_Msk                       (0x1FFUL /*<< IPSR_ISR_Pos*/)                  /*!< IPSR
 251:Generated_Source\PSoC6\pdl\cmsis/include/core_cm0plus.h **** 
 252:Generated_Source\PSoC6\pdl\cmsis/include/core_cm0plus.h **** 
 253:Generated_Source\PSoC6\pdl\cmsis/include/core_cm0plus.h **** /**
 254:Generated_Source\PSoC6\pdl\cmsis/include/core_cm0plus.h ****   \brief  Union type to access the Special-Purpose Program Status Registers (xPSR).
 255:Generated_Source\PSoC6\pdl\cmsis/include/core_cm0plus.h ****  */
 256:Generated_Source\PSoC6\pdl\cmsis/include/core_cm0plus.h **** typedef union
 257:Generated_Source\PSoC6\pdl\cmsis/include/core_cm0plus.h **** {
 258:Generated_Source\PSoC6\pdl\cmsis/include/core_cm0plus.h ****   struct
 259:Generated_Source\PSoC6\pdl\cmsis/include/core_cm0plus.h ****   {
 260:Generated_Source\PSoC6\pdl\cmsis/include/core_cm0plus.h ****     uint32_t ISR:9;                      /*!< bit:  0.. 8  Exception number */
 261:Generated_Source\PSoC6\pdl\cmsis/include/core_cm0plus.h ****     uint32_t _reserved0:15;              /*!< bit:  9..23  Reserved */
 262:Generated_Source\PSoC6\pdl\cmsis/include/core_cm0plus.h ****     uint32_t T:1;                        /*!< bit:     24  Thumb bit        (read 0) */
 263:Generated_Source\PSoC6\pdl\cmsis/include/core_cm0plus.h ****     uint32_t _reserved1:3;               /*!< bit: 25..27  Reserved */
 264:Generated_Source\PSoC6\pdl\cmsis/include/core_cm0plus.h ****     uint32_t V:1;                        /*!< bit:     28  Overflow condition code flag */
 265:Generated_Source\PSoC6\pdl\cmsis/include/core_cm0plus.h ****     uint32_t C:1;                        /*!< bit:     29  Carry condition code flag */
 266:Generated_Source\PSoC6\pdl\cmsis/include/core_cm0plus.h ****     uint32_t Z:1;                        /*!< bit:     30  Zero condition code flag */
 267:Generated_Source\PSoC6\pdl\cmsis/include/core_cm0plus.h ****     uint32_t N:1;                        /*!< bit:     31  Negative condition code flag */
 268:Generated_Source\PSoC6\pdl\cmsis/include/core_cm0plus.h ****   } b;                                   /*!< Structure used for bit  access */
 269:Generated_Source\PSoC6\pdl\cmsis/include/core_cm0plus.h ****   uint32_t w;                            /*!< Type      used for word access */
 270:Generated_Source\PSoC6\pdl\cmsis/include/core_cm0plus.h **** } xPSR_Type;
 271:Generated_Source\PSoC6\pdl\cmsis/include/core_cm0plus.h **** 
 272:Generated_Source\PSoC6\pdl\cmsis/include/core_cm0plus.h **** /* xPSR Register Definitions */
 273:Generated_Source\PSoC6\pdl\cmsis/include/core_cm0plus.h **** #define xPSR_N_Pos                         31U                                            /*!< xPSR
 274:Generated_Source\PSoC6\pdl\cmsis/include/core_cm0plus.h **** #define xPSR_N_Msk                         (1UL << xPSR_N_Pos)                            /*!< xPSR
 275:Generated_Source\PSoC6\pdl\cmsis/include/core_cm0plus.h **** 
 276:Generated_Source\PSoC6\pdl\cmsis/include/core_cm0plus.h **** #define xPSR_Z_Pos                         30U                                            /*!< xPSR
 277:Generated_Source\PSoC6\pdl\cmsis/include/core_cm0plus.h **** #define xPSR_Z_Msk                         (1UL << xPSR_Z_Pos)                            /*!< xPSR
 278:Generated_Source\PSoC6\pdl\cmsis/include/core_cm0plus.h **** 
 279:Generated_Source\PSoC6\pdl\cmsis/include/core_cm0plus.h **** #define xPSR_C_Pos                         29U                                            /*!< xPSR
 280:Generated_Source\PSoC6\pdl\cmsis/include/core_cm0plus.h **** #define xPSR_C_Msk                         (1UL << xPSR_C_Pos)                            /*!< xPSR
 281:Generated_Source\PSoC6\pdl\cmsis/include/core_cm0plus.h **** 
 282:Generated_Source\PSoC6\pdl\cmsis/include/core_cm0plus.h **** #define xPSR_V_Pos                         28U                                            /*!< xPSR
 283:Generated_Source\PSoC6\pdl\cmsis/include/core_cm0plus.h **** #define xPSR_V_Msk                         (1UL << xPSR_V_Pos)                            /*!< xPSR
 284:Generated_Source\PSoC6\pdl\cmsis/include/core_cm0plus.h **** 
 285:Generated_Source\PSoC6\pdl\cmsis/include/core_cm0plus.h **** #define xPSR_T_Pos                         24U                                            /*!< xPSR
 286:Generated_Source\PSoC6\pdl\cmsis/include/core_cm0plus.h **** #define xPSR_T_Msk                         (1UL << xPSR_T_Pos)                            /*!< xPSR
 287:Generated_Source\PSoC6\pdl\cmsis/include/core_cm0plus.h **** 
 288:Generated_Source\PSoC6\pdl\cmsis/include/core_cm0plus.h **** #define xPSR_ISR_Pos                        0U                                            /*!< xPSR
 289:Generated_Source\PSoC6\pdl\cmsis/include/core_cm0plus.h **** #define xPSR_ISR_Msk                       (0x1FFUL /*<< xPSR_ISR_Pos*/)                  /*!< xPSR
 290:Generated_Source\PSoC6\pdl\cmsis/include/core_cm0plus.h **** 
 291:Generated_Source\PSoC6\pdl\cmsis/include/core_cm0plus.h **** 
ARM GAS  C:\Users\fiona\AppData\Local\Temp\cc5ift8g.s 			page 21


 292:Generated_Source\PSoC6\pdl\cmsis/include/core_cm0plus.h **** /**
 293:Generated_Source\PSoC6\pdl\cmsis/include/core_cm0plus.h ****   \brief  Union type to access the Control Registers (CONTROL).
 294:Generated_Source\PSoC6\pdl\cmsis/include/core_cm0plus.h ****  */
 295:Generated_Source\PSoC6\pdl\cmsis/include/core_cm0plus.h **** typedef union
 296:Generated_Source\PSoC6\pdl\cmsis/include/core_cm0plus.h **** {
 297:Generated_Source\PSoC6\pdl\cmsis/include/core_cm0plus.h ****   struct
 298:Generated_Source\PSoC6\pdl\cmsis/include/core_cm0plus.h ****   {
 299:Generated_Source\PSoC6\pdl\cmsis/include/core_cm0plus.h ****     uint32_t nPRIV:1;                    /*!< bit:      0  Execution privilege in Thread mode */
 300:Generated_Source\PSoC6\pdl\cmsis/include/core_cm0plus.h ****     uint32_t SPSEL:1;                    /*!< bit:      1  Stack to be used */
 301:Generated_Source\PSoC6\pdl\cmsis/include/core_cm0plus.h ****     uint32_t _reserved1:30;              /*!< bit:  2..31  Reserved */
 302:Generated_Source\PSoC6\pdl\cmsis/include/core_cm0plus.h ****   } b;                                   /*!< Structure used for bit  access */
 303:Generated_Source\PSoC6\pdl\cmsis/include/core_cm0plus.h ****   uint32_t w;                            /*!< Type      used for word access */
 304:Generated_Source\PSoC6\pdl\cmsis/include/core_cm0plus.h **** } CONTROL_Type;
 305:Generated_Source\PSoC6\pdl\cmsis/include/core_cm0plus.h **** 
 306:Generated_Source\PSoC6\pdl\cmsis/include/core_cm0plus.h **** /* CONTROL Register Definitions */
 307:Generated_Source\PSoC6\pdl\cmsis/include/core_cm0plus.h **** #define CONTROL_SPSEL_Pos                   1U                                            /*!< CONT
 308:Generated_Source\PSoC6\pdl\cmsis/include/core_cm0plus.h **** #define CONTROL_SPSEL_Msk                  (1UL << CONTROL_SPSEL_Pos)                     /*!< CONT
 309:Generated_Source\PSoC6\pdl\cmsis/include/core_cm0plus.h **** 
 310:Generated_Source\PSoC6\pdl\cmsis/include/core_cm0plus.h **** #define CONTROL_nPRIV_Pos                   0U                                            /*!< CONT
 311:Generated_Source\PSoC6\pdl\cmsis/include/core_cm0plus.h **** #define CONTROL_nPRIV_Msk                  (1UL /*<< CONTROL_nPRIV_Pos*/)                 /*!< CONT
 312:Generated_Source\PSoC6\pdl\cmsis/include/core_cm0plus.h **** 
 313:Generated_Source\PSoC6\pdl\cmsis/include/core_cm0plus.h **** /*@} end of group CMSIS_CORE */
 314:Generated_Source\PSoC6\pdl\cmsis/include/core_cm0plus.h **** 
 315:Generated_Source\PSoC6\pdl\cmsis/include/core_cm0plus.h **** 
 316:Generated_Source\PSoC6\pdl\cmsis/include/core_cm0plus.h **** /**
 317:Generated_Source\PSoC6\pdl\cmsis/include/core_cm0plus.h ****   \ingroup    CMSIS_core_register
 318:Generated_Source\PSoC6\pdl\cmsis/include/core_cm0plus.h ****   \defgroup   CMSIS_NVIC  Nested Vectored Interrupt Controller (NVIC)
 319:Generated_Source\PSoC6\pdl\cmsis/include/core_cm0plus.h ****   \brief      Type definitions for the NVIC Registers
 320:Generated_Source\PSoC6\pdl\cmsis/include/core_cm0plus.h ****   @{
 321:Generated_Source\PSoC6\pdl\cmsis/include/core_cm0plus.h ****  */
 322:Generated_Source\PSoC6\pdl\cmsis/include/core_cm0plus.h **** 
 323:Generated_Source\PSoC6\pdl\cmsis/include/core_cm0plus.h **** /**
 324:Generated_Source\PSoC6\pdl\cmsis/include/core_cm0plus.h ****   \brief  Structure type to access the Nested Vectored Interrupt Controller (NVIC).
 325:Generated_Source\PSoC6\pdl\cmsis/include/core_cm0plus.h ****  */
 326:Generated_Source\PSoC6\pdl\cmsis/include/core_cm0plus.h **** typedef struct
 327:Generated_Source\PSoC6\pdl\cmsis/include/core_cm0plus.h **** {
 328:Generated_Source\PSoC6\pdl\cmsis/include/core_cm0plus.h ****   __IOM uint32_t ISER[1U];               /*!< Offset: 0x000 (R/W)  Interrupt Set Enable Register */
 329:Generated_Source\PSoC6\pdl\cmsis/include/core_cm0plus.h ****         uint32_t RESERVED0[31U];
 330:Generated_Source\PSoC6\pdl\cmsis/include/core_cm0plus.h ****   __IOM uint32_t ICER[1U];               /*!< Offset: 0x080 (R/W)  Interrupt Clear Enable Register 
 331:Generated_Source\PSoC6\pdl\cmsis/include/core_cm0plus.h ****         uint32_t RSERVED1[31U];
 332:Generated_Source\PSoC6\pdl\cmsis/include/core_cm0plus.h ****   __IOM uint32_t ISPR[1U];               /*!< Offset: 0x100 (R/W)  Interrupt Set Pending Register *
 333:Generated_Source\PSoC6\pdl\cmsis/include/core_cm0plus.h ****         uint32_t RESERVED2[31U];
 334:Generated_Source\PSoC6\pdl\cmsis/include/core_cm0plus.h ****   __IOM uint32_t ICPR[1U];               /*!< Offset: 0x180 (R/W)  Interrupt Clear Pending Register
 335:Generated_Source\PSoC6\pdl\cmsis/include/core_cm0plus.h ****         uint32_t RESERVED3[31U];
 336:Generated_Source\PSoC6\pdl\cmsis/include/core_cm0plus.h ****         uint32_t RESERVED4[64U];
 337:Generated_Source\PSoC6\pdl\cmsis/include/core_cm0plus.h ****   __IOM uint32_t IP[8U];                 /*!< Offset: 0x300 (R/W)  Interrupt Priority Register */
 338:Generated_Source\PSoC6\pdl\cmsis/include/core_cm0plus.h **** }  NVIC_Type;
 339:Generated_Source\PSoC6\pdl\cmsis/include/core_cm0plus.h **** 
 340:Generated_Source\PSoC6\pdl\cmsis/include/core_cm0plus.h **** /*@} end of group CMSIS_NVIC */
 341:Generated_Source\PSoC6\pdl\cmsis/include/core_cm0plus.h **** 
 342:Generated_Source\PSoC6\pdl\cmsis/include/core_cm0plus.h **** 
 343:Generated_Source\PSoC6\pdl\cmsis/include/core_cm0plus.h **** /**
 344:Generated_Source\PSoC6\pdl\cmsis/include/core_cm0plus.h ****   \ingroup  CMSIS_core_register
 345:Generated_Source\PSoC6\pdl\cmsis/include/core_cm0plus.h ****   \defgroup CMSIS_SCB     System Control Block (SCB)
 346:Generated_Source\PSoC6\pdl\cmsis/include/core_cm0plus.h ****   \brief    Type definitions for the System Control Block Registers
 347:Generated_Source\PSoC6\pdl\cmsis/include/core_cm0plus.h ****   @{
 348:Generated_Source\PSoC6\pdl\cmsis/include/core_cm0plus.h ****  */
ARM GAS  C:\Users\fiona\AppData\Local\Temp\cc5ift8g.s 			page 22


 349:Generated_Source\PSoC6\pdl\cmsis/include/core_cm0plus.h **** 
 350:Generated_Source\PSoC6\pdl\cmsis/include/core_cm0plus.h **** /**
 351:Generated_Source\PSoC6\pdl\cmsis/include/core_cm0plus.h ****   \brief  Structure type to access the System Control Block (SCB).
 352:Generated_Source\PSoC6\pdl\cmsis/include/core_cm0plus.h ****  */
 353:Generated_Source\PSoC6\pdl\cmsis/include/core_cm0plus.h **** typedef struct
 354:Generated_Source\PSoC6\pdl\cmsis/include/core_cm0plus.h **** {
 355:Generated_Source\PSoC6\pdl\cmsis/include/core_cm0plus.h ****   __IM  uint32_t CPUID;                  /*!< Offset: 0x000 (R/ )  CPUID Base Register */
 356:Generated_Source\PSoC6\pdl\cmsis/include/core_cm0plus.h ****   __IOM uint32_t ICSR;                   /*!< Offset: 0x004 (R/W)  Interrupt Control and State Regi
 357:Generated_Source\PSoC6\pdl\cmsis/include/core_cm0plus.h **** #if defined (__VTOR_PRESENT) && (__VTOR_PRESENT == 1U)
 358:Generated_Source\PSoC6\pdl\cmsis/include/core_cm0plus.h ****   __IOM uint32_t VTOR;                   /*!< Offset: 0x008 (R/W)  Vector Table Offset Register */
 359:Generated_Source\PSoC6\pdl\cmsis/include/core_cm0plus.h **** #else
 360:Generated_Source\PSoC6\pdl\cmsis/include/core_cm0plus.h ****         uint32_t RESERVED0;
 361:Generated_Source\PSoC6\pdl\cmsis/include/core_cm0plus.h **** #endif
 362:Generated_Source\PSoC6\pdl\cmsis/include/core_cm0plus.h ****   __IOM uint32_t AIRCR;                  /*!< Offset: 0x00C (R/W)  Application Interrupt and Reset 
 363:Generated_Source\PSoC6\pdl\cmsis/include/core_cm0plus.h ****   __IOM uint32_t SCR;                    /*!< Offset: 0x010 (R/W)  System Control Register */
 364:Generated_Source\PSoC6\pdl\cmsis/include/core_cm0plus.h ****   __IOM uint32_t CCR;                    /*!< Offset: 0x014 (R/W)  Configuration Control Register *
 365:Generated_Source\PSoC6\pdl\cmsis/include/core_cm0plus.h ****         uint32_t RESERVED1;
 366:Generated_Source\PSoC6\pdl\cmsis/include/core_cm0plus.h ****   __IOM uint32_t SHP[2U];                /*!< Offset: 0x01C (R/W)  System Handlers Priority Registe
 367:Generated_Source\PSoC6\pdl\cmsis/include/core_cm0plus.h ****   __IOM uint32_t SHCSR;                  /*!< Offset: 0x024 (R/W)  System Handler Control and State
 368:Generated_Source\PSoC6\pdl\cmsis/include/core_cm0plus.h **** } SCB_Type;
 369:Generated_Source\PSoC6\pdl\cmsis/include/core_cm0plus.h **** 
 370:Generated_Source\PSoC6\pdl\cmsis/include/core_cm0plus.h **** /* SCB CPUID Register Definitions */
 371:Generated_Source\PSoC6\pdl\cmsis/include/core_cm0plus.h **** #define SCB_CPUID_IMPLEMENTER_Pos          24U                                            /*!< SCB 
 372:Generated_Source\PSoC6\pdl\cmsis/include/core_cm0plus.h **** #define SCB_CPUID_IMPLEMENTER_Msk          (0xFFUL << SCB_CPUID_IMPLEMENTER_Pos)          /*!< SCB 
 373:Generated_Source\PSoC6\pdl\cmsis/include/core_cm0plus.h **** 
 374:Generated_Source\PSoC6\pdl\cmsis/include/core_cm0plus.h **** #define SCB_CPUID_VARIANT_Pos              20U                                            /*!< SCB 
 375:Generated_Source\PSoC6\pdl\cmsis/include/core_cm0plus.h **** #define SCB_CPUID_VARIANT_Msk              (0xFUL << SCB_CPUID_VARIANT_Pos)               /*!< SCB 
 376:Generated_Source\PSoC6\pdl\cmsis/include/core_cm0plus.h **** 
 377:Generated_Source\PSoC6\pdl\cmsis/include/core_cm0plus.h **** #define SCB_CPUID_ARCHITECTURE_Pos         16U                                            /*!< SCB 
 378:Generated_Source\PSoC6\pdl\cmsis/include/core_cm0plus.h **** #define SCB_CPUID_ARCHITECTURE_Msk         (0xFUL << SCB_CPUID_ARCHITECTURE_Pos)          /*!< SCB 
 379:Generated_Source\PSoC6\pdl\cmsis/include/core_cm0plus.h **** 
 380:Generated_Source\PSoC6\pdl\cmsis/include/core_cm0plus.h **** #define SCB_CPUID_PARTNO_Pos                4U                                            /*!< SCB 
 381:Generated_Source\PSoC6\pdl\cmsis/include/core_cm0plus.h **** #define SCB_CPUID_PARTNO_Msk               (0xFFFUL << SCB_CPUID_PARTNO_Pos)              /*!< SCB 
 382:Generated_Source\PSoC6\pdl\cmsis/include/core_cm0plus.h **** 
 383:Generated_Source\PSoC6\pdl\cmsis/include/core_cm0plus.h **** #define SCB_CPUID_REVISION_Pos              0U                                            /*!< SCB 
 384:Generated_Source\PSoC6\pdl\cmsis/include/core_cm0plus.h **** #define SCB_CPUID_REVISION_Msk             (0xFUL /*<< SCB_CPUID_REVISION_Pos*/)          /*!< SCB 
 385:Generated_Source\PSoC6\pdl\cmsis/include/core_cm0plus.h **** 
 386:Generated_Source\PSoC6\pdl\cmsis/include/core_cm0plus.h **** /* SCB Interrupt Control State Register Definitions */
 387:Generated_Source\PSoC6\pdl\cmsis/include/core_cm0plus.h **** #define SCB_ICSR_NMIPENDSET_Pos            31U                                            /*!< SCB 
 388:Generated_Source\PSoC6\pdl\cmsis/include/core_cm0plus.h **** #define SCB_ICSR_NMIPENDSET_Msk            (1UL << SCB_ICSR_NMIPENDSET_Pos)               /*!< SCB 
 389:Generated_Source\PSoC6\pdl\cmsis/include/core_cm0plus.h **** 
 390:Generated_Source\PSoC6\pdl\cmsis/include/core_cm0plus.h **** #define SCB_ICSR_PENDSVSET_Pos             28U                                            /*!< SCB 
 391:Generated_Source\PSoC6\pdl\cmsis/include/core_cm0plus.h **** #define SCB_ICSR_PENDSVSET_Msk             (1UL << SCB_ICSR_PENDSVSET_Pos)                /*!< SCB 
 392:Generated_Source\PSoC6\pdl\cmsis/include/core_cm0plus.h **** 
 393:Generated_Source\PSoC6\pdl\cmsis/include/core_cm0plus.h **** #define SCB_ICSR_PENDSVCLR_Pos             27U                                            /*!< SCB 
 394:Generated_Source\PSoC6\pdl\cmsis/include/core_cm0plus.h **** #define SCB_ICSR_PENDSVCLR_Msk             (1UL << SCB_ICSR_PENDSVCLR_Pos)                /*!< SCB 
 395:Generated_Source\PSoC6\pdl\cmsis/include/core_cm0plus.h **** 
 396:Generated_Source\PSoC6\pdl\cmsis/include/core_cm0plus.h **** #define SCB_ICSR_PENDSTSET_Pos             26U                                            /*!< SCB 
 397:Generated_Source\PSoC6\pdl\cmsis/include/core_cm0plus.h **** #define SCB_ICSR_PENDSTSET_Msk             (1UL << SCB_ICSR_PENDSTSET_Pos)                /*!< SCB 
 398:Generated_Source\PSoC6\pdl\cmsis/include/core_cm0plus.h **** 
 399:Generated_Source\PSoC6\pdl\cmsis/include/core_cm0plus.h **** #define SCB_ICSR_PENDSTCLR_Pos             25U                                            /*!< SCB 
 400:Generated_Source\PSoC6\pdl\cmsis/include/core_cm0plus.h **** #define SCB_ICSR_PENDSTCLR_Msk             (1UL << SCB_ICSR_PENDSTCLR_Pos)                /*!< SCB 
 401:Generated_Source\PSoC6\pdl\cmsis/include/core_cm0plus.h **** 
 402:Generated_Source\PSoC6\pdl\cmsis/include/core_cm0plus.h **** #define SCB_ICSR_ISRPREEMPT_Pos            23U                                            /*!< SCB 
 403:Generated_Source\PSoC6\pdl\cmsis/include/core_cm0plus.h **** #define SCB_ICSR_ISRPREEMPT_Msk            (1UL << SCB_ICSR_ISRPREEMPT_Pos)               /*!< SCB 
 404:Generated_Source\PSoC6\pdl\cmsis/include/core_cm0plus.h **** 
 405:Generated_Source\PSoC6\pdl\cmsis/include/core_cm0plus.h **** #define SCB_ICSR_ISRPENDING_Pos            22U                                            /*!< SCB 
ARM GAS  C:\Users\fiona\AppData\Local\Temp\cc5ift8g.s 			page 23


 406:Generated_Source\PSoC6\pdl\cmsis/include/core_cm0plus.h **** #define SCB_ICSR_ISRPENDING_Msk            (1UL << SCB_ICSR_ISRPENDING_Pos)               /*!< SCB 
 407:Generated_Source\PSoC6\pdl\cmsis/include/core_cm0plus.h **** 
 408:Generated_Source\PSoC6\pdl\cmsis/include/core_cm0plus.h **** #define SCB_ICSR_VECTPENDING_Pos           12U                                            /*!< SCB 
 409:Generated_Source\PSoC6\pdl\cmsis/include/core_cm0plus.h **** #define SCB_ICSR_VECTPENDING_Msk           (0x1FFUL << SCB_ICSR_VECTPENDING_Pos)          /*!< SCB 
 410:Generated_Source\PSoC6\pdl\cmsis/include/core_cm0plus.h **** 
 411:Generated_Source\PSoC6\pdl\cmsis/include/core_cm0plus.h **** #define SCB_ICSR_VECTACTIVE_Pos             0U                                            /*!< SCB 
 412:Generated_Source\PSoC6\pdl\cmsis/include/core_cm0plus.h **** #define SCB_ICSR_VECTACTIVE_Msk            (0x1FFUL /*<< SCB_ICSR_VECTACTIVE_Pos*/)       /*!< SCB 
 413:Generated_Source\PSoC6\pdl\cmsis/include/core_cm0plus.h **** 
 414:Generated_Source\PSoC6\pdl\cmsis/include/core_cm0plus.h **** #if defined (__VTOR_PRESENT) && (__VTOR_PRESENT == 1U)
 415:Generated_Source\PSoC6\pdl\cmsis/include/core_cm0plus.h **** /* SCB Interrupt Control State Register Definitions */
 416:Generated_Source\PSoC6\pdl\cmsis/include/core_cm0plus.h **** #define SCB_VTOR_TBLOFF_Pos                 8U                                            /*!< SCB 
 417:Generated_Source\PSoC6\pdl\cmsis/include/core_cm0plus.h **** #define SCB_VTOR_TBLOFF_Msk                (0xFFFFFFUL << SCB_VTOR_TBLOFF_Pos)            /*!< SCB 
 418:Generated_Source\PSoC6\pdl\cmsis/include/core_cm0plus.h **** #endif
 419:Generated_Source\PSoC6\pdl\cmsis/include/core_cm0plus.h **** 
 420:Generated_Source\PSoC6\pdl\cmsis/include/core_cm0plus.h **** /* SCB Application Interrupt and Reset Control Register Definitions */
 421:Generated_Source\PSoC6\pdl\cmsis/include/core_cm0plus.h **** #define SCB_AIRCR_VECTKEY_Pos              16U                                            /*!< SCB 
 422:Generated_Source\PSoC6\pdl\cmsis/include/core_cm0plus.h **** #define SCB_AIRCR_VECTKEY_Msk              (0xFFFFUL << SCB_AIRCR_VECTKEY_Pos)            /*!< SCB 
 423:Generated_Source\PSoC6\pdl\cmsis/include/core_cm0plus.h **** 
 424:Generated_Source\PSoC6\pdl\cmsis/include/core_cm0plus.h **** #define SCB_AIRCR_VECTKEYSTAT_Pos          16U                                            /*!< SCB 
 425:Generated_Source\PSoC6\pdl\cmsis/include/core_cm0plus.h **** #define SCB_AIRCR_VECTKEYSTAT_Msk          (0xFFFFUL << SCB_AIRCR_VECTKEYSTAT_Pos)        /*!< SCB 
 426:Generated_Source\PSoC6\pdl\cmsis/include/core_cm0plus.h **** 
 427:Generated_Source\PSoC6\pdl\cmsis/include/core_cm0plus.h **** #define SCB_AIRCR_ENDIANESS_Pos            15U                                            /*!< SCB 
 428:Generated_Source\PSoC6\pdl\cmsis/include/core_cm0plus.h **** #define SCB_AIRCR_ENDIANESS_Msk            (1UL << SCB_AIRCR_ENDIANESS_Pos)               /*!< SCB 
 429:Generated_Source\PSoC6\pdl\cmsis/include/core_cm0plus.h **** 
 430:Generated_Source\PSoC6\pdl\cmsis/include/core_cm0plus.h **** #define SCB_AIRCR_SYSRESETREQ_Pos           2U                                            /*!< SCB 
 431:Generated_Source\PSoC6\pdl\cmsis/include/core_cm0plus.h **** #define SCB_AIRCR_SYSRESETREQ_Msk          (1UL << SCB_AIRCR_SYSRESETREQ_Pos)             /*!< SCB 
 432:Generated_Source\PSoC6\pdl\cmsis/include/core_cm0plus.h **** 
 433:Generated_Source\PSoC6\pdl\cmsis/include/core_cm0plus.h **** #define SCB_AIRCR_VECTCLRACTIVE_Pos         1U                                            /*!< SCB 
 434:Generated_Source\PSoC6\pdl\cmsis/include/core_cm0plus.h **** #define SCB_AIRCR_VECTCLRACTIVE_Msk        (1UL << SCB_AIRCR_VECTCLRACTIVE_Pos)           /*!< SCB 
 435:Generated_Source\PSoC6\pdl\cmsis/include/core_cm0plus.h **** 
 436:Generated_Source\PSoC6\pdl\cmsis/include/core_cm0plus.h **** /* SCB System Control Register Definitions */
 437:Generated_Source\PSoC6\pdl\cmsis/include/core_cm0plus.h **** #define SCB_SCR_SEVONPEND_Pos               4U                                            /*!< SCB 
 438:Generated_Source\PSoC6\pdl\cmsis/include/core_cm0plus.h **** #define SCB_SCR_SEVONPEND_Msk              (1UL << SCB_SCR_SEVONPEND_Pos)                 /*!< SCB 
 439:Generated_Source\PSoC6\pdl\cmsis/include/core_cm0plus.h **** 
 440:Generated_Source\PSoC6\pdl\cmsis/include/core_cm0plus.h **** #define SCB_SCR_SLEEPDEEP_Pos               2U                                            /*!< SCB 
 441:Generated_Source\PSoC6\pdl\cmsis/include/core_cm0plus.h **** #define SCB_SCR_SLEEPDEEP_Msk              (1UL << SCB_SCR_SLEEPDEEP_Pos)                 /*!< SCB 
 442:Generated_Source\PSoC6\pdl\cmsis/include/core_cm0plus.h **** 
 443:Generated_Source\PSoC6\pdl\cmsis/include/core_cm0plus.h **** #define SCB_SCR_SLEEPONEXIT_Pos             1U                                            /*!< SCB 
 444:Generated_Source\PSoC6\pdl\cmsis/include/core_cm0plus.h **** #define SCB_SCR_SLEEPONEXIT_Msk            (1UL << SCB_SCR_SLEEPONEXIT_Pos)               /*!< SCB 
 445:Generated_Source\PSoC6\pdl\cmsis/include/core_cm0plus.h **** 
 446:Generated_Source\PSoC6\pdl\cmsis/include/core_cm0plus.h **** /* SCB Configuration Control Register Definitions */
 447:Generated_Source\PSoC6\pdl\cmsis/include/core_cm0plus.h **** #define SCB_CCR_STKALIGN_Pos                9U                                            /*!< SCB 
 448:Generated_Source\PSoC6\pdl\cmsis/include/core_cm0plus.h **** #define SCB_CCR_STKALIGN_Msk               (1UL << SCB_CCR_STKALIGN_Pos)                  /*!< SCB 
 449:Generated_Source\PSoC6\pdl\cmsis/include/core_cm0plus.h **** 
 450:Generated_Source\PSoC6\pdl\cmsis/include/core_cm0plus.h **** #define SCB_CCR_UNALIGN_TRP_Pos             3U                                            /*!< SCB 
 451:Generated_Source\PSoC6\pdl\cmsis/include/core_cm0plus.h **** #define SCB_CCR_UNALIGN_TRP_Msk            (1UL << SCB_CCR_UNALIGN_TRP_Pos)               /*!< SCB 
 452:Generated_Source\PSoC6\pdl\cmsis/include/core_cm0plus.h **** 
 453:Generated_Source\PSoC6\pdl\cmsis/include/core_cm0plus.h **** /* SCB System Handler Control and State Register Definitions */
 454:Generated_Source\PSoC6\pdl\cmsis/include/core_cm0plus.h **** #define SCB_SHCSR_SVCALLPENDED_Pos         15U                                            /*!< SCB 
 455:Generated_Source\PSoC6\pdl\cmsis/include/core_cm0plus.h **** #define SCB_SHCSR_SVCALLPENDED_Msk         (1UL << SCB_SHCSR_SVCALLPENDED_Pos)            /*!< SCB 
 456:Generated_Source\PSoC6\pdl\cmsis/include/core_cm0plus.h **** 
 457:Generated_Source\PSoC6\pdl\cmsis/include/core_cm0plus.h **** /*@} end of group CMSIS_SCB */
 458:Generated_Source\PSoC6\pdl\cmsis/include/core_cm0plus.h **** 
 459:Generated_Source\PSoC6\pdl\cmsis/include/core_cm0plus.h **** 
 460:Generated_Source\PSoC6\pdl\cmsis/include/core_cm0plus.h **** /**
 461:Generated_Source\PSoC6\pdl\cmsis/include/core_cm0plus.h ****   \ingroup  CMSIS_core_register
 462:Generated_Source\PSoC6\pdl\cmsis/include/core_cm0plus.h ****   \defgroup CMSIS_SysTick     System Tick Timer (SysTick)
ARM GAS  C:\Users\fiona\AppData\Local\Temp\cc5ift8g.s 			page 24


 463:Generated_Source\PSoC6\pdl\cmsis/include/core_cm0plus.h ****   \brief    Type definitions for the System Timer Registers.
 464:Generated_Source\PSoC6\pdl\cmsis/include/core_cm0plus.h ****   @{
 465:Generated_Source\PSoC6\pdl\cmsis/include/core_cm0plus.h ****  */
 466:Generated_Source\PSoC6\pdl\cmsis/include/core_cm0plus.h **** 
 467:Generated_Source\PSoC6\pdl\cmsis/include/core_cm0plus.h **** /**
 468:Generated_Source\PSoC6\pdl\cmsis/include/core_cm0plus.h ****   \brief  Structure type to access the System Timer (SysTick).
 469:Generated_Source\PSoC6\pdl\cmsis/include/core_cm0plus.h ****  */
 470:Generated_Source\PSoC6\pdl\cmsis/include/core_cm0plus.h **** typedef struct
 471:Generated_Source\PSoC6\pdl\cmsis/include/core_cm0plus.h **** {
 472:Generated_Source\PSoC6\pdl\cmsis/include/core_cm0plus.h ****   __IOM uint32_t CTRL;                   /*!< Offset: 0x000 (R/W)  SysTick Control and Status Regis
 473:Generated_Source\PSoC6\pdl\cmsis/include/core_cm0plus.h ****   __IOM uint32_t LOAD;                   /*!< Offset: 0x004 (R/W)  SysTick Reload Value Register */
 474:Generated_Source\PSoC6\pdl\cmsis/include/core_cm0plus.h ****   __IOM uint32_t VAL;                    /*!< Offset: 0x008 (R/W)  SysTick Current Value Register *
 475:Generated_Source\PSoC6\pdl\cmsis/include/core_cm0plus.h ****   __IM  uint32_t CALIB;                  /*!< Offset: 0x00C (R/ )  SysTick Calibration Register */
 476:Generated_Source\PSoC6\pdl\cmsis/include/core_cm0plus.h **** } SysTick_Type;
 477:Generated_Source\PSoC6\pdl\cmsis/include/core_cm0plus.h **** 
 478:Generated_Source\PSoC6\pdl\cmsis/include/core_cm0plus.h **** /* SysTick Control / Status Register Definitions */
 479:Generated_Source\PSoC6\pdl\cmsis/include/core_cm0plus.h **** #define SysTick_CTRL_COUNTFLAG_Pos         16U                                            /*!< SysT
 480:Generated_Source\PSoC6\pdl\cmsis/include/core_cm0plus.h **** #define SysTick_CTRL_COUNTFLAG_Msk         (1UL << SysTick_CTRL_COUNTFLAG_Pos)            /*!< SysT
 481:Generated_Source\PSoC6\pdl\cmsis/include/core_cm0plus.h **** 
 482:Generated_Source\PSoC6\pdl\cmsis/include/core_cm0plus.h **** #define SysTick_CTRL_CLKSOURCE_Pos          2U                                            /*!< SysT
 483:Generated_Source\PSoC6\pdl\cmsis/include/core_cm0plus.h **** #define SysTick_CTRL_CLKSOURCE_Msk         (1UL << SysTick_CTRL_CLKSOURCE_Pos)            /*!< SysT
 484:Generated_Source\PSoC6\pdl\cmsis/include/core_cm0plus.h **** 
 485:Generated_Source\PSoC6\pdl\cmsis/include/core_cm0plus.h **** #define SysTick_CTRL_TICKINT_Pos            1U                                            /*!< SysT
 486:Generated_Source\PSoC6\pdl\cmsis/include/core_cm0plus.h **** #define SysTick_CTRL_TICKINT_Msk           (1UL << SysTick_CTRL_TICKINT_Pos)              /*!< SysT
 487:Generated_Source\PSoC6\pdl\cmsis/include/core_cm0plus.h **** 
 488:Generated_Source\PSoC6\pdl\cmsis/include/core_cm0plus.h **** #define SysTick_CTRL_ENABLE_Pos             0U                                            /*!< SysT
 489:Generated_Source\PSoC6\pdl\cmsis/include/core_cm0plus.h **** #define SysTick_CTRL_ENABLE_Msk            (1UL /*<< SysTick_CTRL_ENABLE_Pos*/)           /*!< SysT
 490:Generated_Source\PSoC6\pdl\cmsis/include/core_cm0plus.h **** 
 491:Generated_Source\PSoC6\pdl\cmsis/include/core_cm0plus.h **** /* SysTick Reload Register Definitions */
 492:Generated_Source\PSoC6\pdl\cmsis/include/core_cm0plus.h **** #define SysTick_LOAD_RELOAD_Pos             0U                                            /*!< SysT
 493:Generated_Source\PSoC6\pdl\cmsis/include/core_cm0plus.h **** #define SysTick_LOAD_RELOAD_Msk            (0xFFFFFFUL /*<< SysTick_LOAD_RELOAD_Pos*/)    /*!< SysT
 494:Generated_Source\PSoC6\pdl\cmsis/include/core_cm0plus.h **** 
 495:Generated_Source\PSoC6\pdl\cmsis/include/core_cm0plus.h **** /* SysTick Current Register Definitions */
 496:Generated_Source\PSoC6\pdl\cmsis/include/core_cm0plus.h **** #define SysTick_VAL_CURRENT_Pos             0U                                            /*!< SysT
 497:Generated_Source\PSoC6\pdl\cmsis/include/core_cm0plus.h **** #define SysTick_VAL_CURRENT_Msk            (0xFFFFFFUL /*<< SysTick_VAL_CURRENT_Pos*/)    /*!< SysT
 498:Generated_Source\PSoC6\pdl\cmsis/include/core_cm0plus.h **** 
 499:Generated_Source\PSoC6\pdl\cmsis/include/core_cm0plus.h **** /* SysTick Calibration Register Definitions */
 500:Generated_Source\PSoC6\pdl\cmsis/include/core_cm0plus.h **** #define SysTick_CALIB_NOREF_Pos            31U                                            /*!< SysT
 501:Generated_Source\PSoC6\pdl\cmsis/include/core_cm0plus.h **** #define SysTick_CALIB_NOREF_Msk            (1UL << SysTick_CALIB_NOREF_Pos)               /*!< SysT
 502:Generated_Source\PSoC6\pdl\cmsis/include/core_cm0plus.h **** 
 503:Generated_Source\PSoC6\pdl\cmsis/include/core_cm0plus.h **** #define SysTick_CALIB_SKEW_Pos             30U                                            /*!< SysT
 504:Generated_Source\PSoC6\pdl\cmsis/include/core_cm0plus.h **** #define SysTick_CALIB_SKEW_Msk             (1UL << SysTick_CALIB_SKEW_Pos)                /*!< SysT
 505:Generated_Source\PSoC6\pdl\cmsis/include/core_cm0plus.h **** 
 506:Generated_Source\PSoC6\pdl\cmsis/include/core_cm0plus.h **** #define SysTick_CALIB_TENMS_Pos             0U                                            /*!< SysT
 507:Generated_Source\PSoC6\pdl\cmsis/include/core_cm0plus.h **** #define SysTick_CALIB_TENMS_Msk            (0xFFFFFFUL /*<< SysTick_CALIB_TENMS_Pos*/)    /*!< SysT
 508:Generated_Source\PSoC6\pdl\cmsis/include/core_cm0plus.h **** 
 509:Generated_Source\PSoC6\pdl\cmsis/include/core_cm0plus.h **** /*@} end of group CMSIS_SysTick */
 510:Generated_Source\PSoC6\pdl\cmsis/include/core_cm0plus.h **** 
 511:Generated_Source\PSoC6\pdl\cmsis/include/core_cm0plus.h **** #if defined (__MPU_PRESENT) && (__MPU_PRESENT == 1U)
 512:Generated_Source\PSoC6\pdl\cmsis/include/core_cm0plus.h **** /**
 513:Generated_Source\PSoC6\pdl\cmsis/include/core_cm0plus.h ****   \ingroup  CMSIS_core_register
 514:Generated_Source\PSoC6\pdl\cmsis/include/core_cm0plus.h ****   \defgroup CMSIS_MPU     Memory Protection Unit (MPU)
 515:Generated_Source\PSoC6\pdl\cmsis/include/core_cm0plus.h ****   \brief    Type definitions for the Memory Protection Unit (MPU)
 516:Generated_Source\PSoC6\pdl\cmsis/include/core_cm0plus.h ****   @{
 517:Generated_Source\PSoC6\pdl\cmsis/include/core_cm0plus.h ****  */
 518:Generated_Source\PSoC6\pdl\cmsis/include/core_cm0plus.h **** 
 519:Generated_Source\PSoC6\pdl\cmsis/include/core_cm0plus.h **** /**
ARM GAS  C:\Users\fiona\AppData\Local\Temp\cc5ift8g.s 			page 25


 520:Generated_Source\PSoC6\pdl\cmsis/include/core_cm0plus.h ****   \brief  Structure type to access the Memory Protection Unit (MPU).
 521:Generated_Source\PSoC6\pdl\cmsis/include/core_cm0plus.h ****  */
 522:Generated_Source\PSoC6\pdl\cmsis/include/core_cm0plus.h **** typedef struct
 523:Generated_Source\PSoC6\pdl\cmsis/include/core_cm0plus.h **** {
 524:Generated_Source\PSoC6\pdl\cmsis/include/core_cm0plus.h ****   __IM  uint32_t TYPE;                   /*!< Offset: 0x000 (R/ )  MPU Type Register */
 525:Generated_Source\PSoC6\pdl\cmsis/include/core_cm0plus.h ****   __IOM uint32_t CTRL;                   /*!< Offset: 0x004 (R/W)  MPU Control Register */
 526:Generated_Source\PSoC6\pdl\cmsis/include/core_cm0plus.h ****   __IOM uint32_t RNR;                    /*!< Offset: 0x008 (R/W)  MPU Region RNRber Register */
 527:Generated_Source\PSoC6\pdl\cmsis/include/core_cm0plus.h ****   __IOM uint32_t RBAR;                   /*!< Offset: 0x00C (R/W)  MPU Region Base Address Register
 528:Generated_Source\PSoC6\pdl\cmsis/include/core_cm0plus.h ****   __IOM uint32_t RASR;                   /*!< Offset: 0x010 (R/W)  MPU Region Attribute and Size Re
 529:Generated_Source\PSoC6\pdl\cmsis/include/core_cm0plus.h **** } MPU_Type;
 530:Generated_Source\PSoC6\pdl\cmsis/include/core_cm0plus.h **** 
 531:Generated_Source\PSoC6\pdl\cmsis/include/core_cm0plus.h **** /* MPU Type Register Definitions */
 532:Generated_Source\PSoC6\pdl\cmsis/include/core_cm0plus.h **** #define MPU_TYPE_IREGION_Pos               16U                                            /*!< MPU 
 533:Generated_Source\PSoC6\pdl\cmsis/include/core_cm0plus.h **** #define MPU_TYPE_IREGION_Msk               (0xFFUL << MPU_TYPE_IREGION_Pos)               /*!< MPU 
 534:Generated_Source\PSoC6\pdl\cmsis/include/core_cm0plus.h **** 
 535:Generated_Source\PSoC6\pdl\cmsis/include/core_cm0plus.h **** #define MPU_TYPE_DREGION_Pos                8U                                            /*!< MPU 
 536:Generated_Source\PSoC6\pdl\cmsis/include/core_cm0plus.h **** #define MPU_TYPE_DREGION_Msk               (0xFFUL << MPU_TYPE_DREGION_Pos)               /*!< MPU 
 537:Generated_Source\PSoC6\pdl\cmsis/include/core_cm0plus.h **** 
 538:Generated_Source\PSoC6\pdl\cmsis/include/core_cm0plus.h **** #define MPU_TYPE_SEPARATE_Pos               0U                                            /*!< MPU 
 539:Generated_Source\PSoC6\pdl\cmsis/include/core_cm0plus.h **** #define MPU_TYPE_SEPARATE_Msk              (1UL /*<< MPU_TYPE_SEPARATE_Pos*/)             /*!< MPU 
 540:Generated_Source\PSoC6\pdl\cmsis/include/core_cm0plus.h **** 
 541:Generated_Source\PSoC6\pdl\cmsis/include/core_cm0plus.h **** /* MPU Control Register Definitions */
 542:Generated_Source\PSoC6\pdl\cmsis/include/core_cm0plus.h **** #define MPU_CTRL_PRIVDEFENA_Pos             2U                                            /*!< MPU 
 543:Generated_Source\PSoC6\pdl\cmsis/include/core_cm0plus.h **** #define MPU_CTRL_PRIVDEFENA_Msk            (1UL << MPU_CTRL_PRIVDEFENA_Pos)               /*!< MPU 
 544:Generated_Source\PSoC6\pdl\cmsis/include/core_cm0plus.h **** 
 545:Generated_Source\PSoC6\pdl\cmsis/include/core_cm0plus.h **** #define MPU_CTRL_HFNMIENA_Pos               1U                                            /*!< MPU 
 546:Generated_Source\PSoC6\pdl\cmsis/include/core_cm0plus.h **** #define MPU_CTRL_HFNMIENA_Msk              (1UL << MPU_CTRL_HFNMIENA_Pos)                 /*!< MPU 
 547:Generated_Source\PSoC6\pdl\cmsis/include/core_cm0plus.h **** 
 548:Generated_Source\PSoC6\pdl\cmsis/include/core_cm0plus.h **** #define MPU_CTRL_ENABLE_Pos                 0U                                            /*!< MPU 
 549:Generated_Source\PSoC6\pdl\cmsis/include/core_cm0plus.h **** #define MPU_CTRL_ENABLE_Msk                (1UL /*<< MPU_CTRL_ENABLE_Pos*/)               /*!< MPU 
 550:Generated_Source\PSoC6\pdl\cmsis/include/core_cm0plus.h **** 
 551:Generated_Source\PSoC6\pdl\cmsis/include/core_cm0plus.h **** /* MPU Region Number Register Definitions */
 552:Generated_Source\PSoC6\pdl\cmsis/include/core_cm0plus.h **** #define MPU_RNR_REGION_Pos                  0U                                            /*!< MPU 
 553:Generated_Source\PSoC6\pdl\cmsis/include/core_cm0plus.h **** #define MPU_RNR_REGION_Msk                 (0xFFUL /*<< MPU_RNR_REGION_Pos*/)             /*!< MPU 
 554:Generated_Source\PSoC6\pdl\cmsis/include/core_cm0plus.h **** 
 555:Generated_Source\PSoC6\pdl\cmsis/include/core_cm0plus.h **** /* MPU Region Base Address Register Definitions */
 556:Generated_Source\PSoC6\pdl\cmsis/include/core_cm0plus.h **** #define MPU_RBAR_ADDR_Pos                   8U                                            /*!< MPU 
 557:Generated_Source\PSoC6\pdl\cmsis/include/core_cm0plus.h **** #define MPU_RBAR_ADDR_Msk                  (0xFFFFFFUL << MPU_RBAR_ADDR_Pos)              /*!< MPU 
 558:Generated_Source\PSoC6\pdl\cmsis/include/core_cm0plus.h **** 
 559:Generated_Source\PSoC6\pdl\cmsis/include/core_cm0plus.h **** #define MPU_RBAR_VALID_Pos                  4U                                            /*!< MPU 
 560:Generated_Source\PSoC6\pdl\cmsis/include/core_cm0plus.h **** #define MPU_RBAR_VALID_Msk                 (1UL << MPU_RBAR_VALID_Pos)                    /*!< MPU 
 561:Generated_Source\PSoC6\pdl\cmsis/include/core_cm0plus.h **** 
 562:Generated_Source\PSoC6\pdl\cmsis/include/core_cm0plus.h **** #define MPU_RBAR_REGION_Pos                 0U                                            /*!< MPU 
 563:Generated_Source\PSoC6\pdl\cmsis/include/core_cm0plus.h **** #define MPU_RBAR_REGION_Msk                (0xFUL /*<< MPU_RBAR_REGION_Pos*/)             /*!< MPU 
 564:Generated_Source\PSoC6\pdl\cmsis/include/core_cm0plus.h **** 
 565:Generated_Source\PSoC6\pdl\cmsis/include/core_cm0plus.h **** /* MPU Region Attribute and Size Register Definitions */
 566:Generated_Source\PSoC6\pdl\cmsis/include/core_cm0plus.h **** #define MPU_RASR_ATTRS_Pos                 16U                                            /*!< MPU 
 567:Generated_Source\PSoC6\pdl\cmsis/include/core_cm0plus.h **** #define MPU_RASR_ATTRS_Msk                 (0xFFFFUL << MPU_RASR_ATTRS_Pos)               /*!< MPU 
 568:Generated_Source\PSoC6\pdl\cmsis/include/core_cm0plus.h **** 
 569:Generated_Source\PSoC6\pdl\cmsis/include/core_cm0plus.h **** #define MPU_RASR_XN_Pos                    28U                                            /*!< MPU 
 570:Generated_Source\PSoC6\pdl\cmsis/include/core_cm0plus.h **** #define MPU_RASR_XN_Msk                    (1UL << MPU_RASR_XN_Pos)                       /*!< MPU 
 571:Generated_Source\PSoC6\pdl\cmsis/include/core_cm0plus.h **** 
 572:Generated_Source\PSoC6\pdl\cmsis/include/core_cm0plus.h **** #define MPU_RASR_AP_Pos                    24U                                            /*!< MPU 
 573:Generated_Source\PSoC6\pdl\cmsis/include/core_cm0plus.h **** #define MPU_RASR_AP_Msk                    (0x7UL << MPU_RASR_AP_Pos)                     /*!< MPU 
 574:Generated_Source\PSoC6\pdl\cmsis/include/core_cm0plus.h **** 
 575:Generated_Source\PSoC6\pdl\cmsis/include/core_cm0plus.h **** #define MPU_RASR_TEX_Pos                   19U                                            /*!< MPU 
 576:Generated_Source\PSoC6\pdl\cmsis/include/core_cm0plus.h **** #define MPU_RASR_TEX_Msk                   (0x7UL << MPU_RASR_TEX_Pos)                    /*!< MPU 
ARM GAS  C:\Users\fiona\AppData\Local\Temp\cc5ift8g.s 			page 26


 577:Generated_Source\PSoC6\pdl\cmsis/include/core_cm0plus.h **** 
 578:Generated_Source\PSoC6\pdl\cmsis/include/core_cm0plus.h **** #define MPU_RASR_S_Pos                     18U                                            /*!< MPU 
 579:Generated_Source\PSoC6\pdl\cmsis/include/core_cm0plus.h **** #define MPU_RASR_S_Msk                     (1UL << MPU_RASR_S_Pos)                        /*!< MPU 
 580:Generated_Source\PSoC6\pdl\cmsis/include/core_cm0plus.h **** 
 581:Generated_Source\PSoC6\pdl\cmsis/include/core_cm0plus.h **** #define MPU_RASR_C_Pos                     17U                                            /*!< MPU 
 582:Generated_Source\PSoC6\pdl\cmsis/include/core_cm0plus.h **** #define MPU_RASR_C_Msk                     (1UL << MPU_RASR_C_Pos)                        /*!< MPU 
 583:Generated_Source\PSoC6\pdl\cmsis/include/core_cm0plus.h **** 
 584:Generated_Source\PSoC6\pdl\cmsis/include/core_cm0plus.h **** #define MPU_RASR_B_Pos                     16U                                            /*!< MPU 
 585:Generated_Source\PSoC6\pdl\cmsis/include/core_cm0plus.h **** #define MPU_RASR_B_Msk                     (1UL << MPU_RASR_B_Pos)                        /*!< MPU 
 586:Generated_Source\PSoC6\pdl\cmsis/include/core_cm0plus.h **** 
 587:Generated_Source\PSoC6\pdl\cmsis/include/core_cm0plus.h **** #define MPU_RASR_SRD_Pos                    8U                                            /*!< MPU 
 588:Generated_Source\PSoC6\pdl\cmsis/include/core_cm0plus.h **** #define MPU_RASR_SRD_Msk                   (0xFFUL << MPU_RASR_SRD_Pos)                   /*!< MPU 
 589:Generated_Source\PSoC6\pdl\cmsis/include/core_cm0plus.h **** 
 590:Generated_Source\PSoC6\pdl\cmsis/include/core_cm0plus.h **** #define MPU_RASR_SIZE_Pos                   1U                                            /*!< MPU 
 591:Generated_Source\PSoC6\pdl\cmsis/include/core_cm0plus.h **** #define MPU_RASR_SIZE_Msk                  (0x1FUL << MPU_RASR_SIZE_Pos)                  /*!< MPU 
 592:Generated_Source\PSoC6\pdl\cmsis/include/core_cm0plus.h **** 
 593:Generated_Source\PSoC6\pdl\cmsis/include/core_cm0plus.h **** #define MPU_RASR_ENABLE_Pos                 0U                                            /*!< MPU 
 594:Generated_Source\PSoC6\pdl\cmsis/include/core_cm0plus.h **** #define MPU_RASR_ENABLE_Msk                (1UL /*<< MPU_RASR_ENABLE_Pos*/)               /*!< MPU 
 595:Generated_Source\PSoC6\pdl\cmsis/include/core_cm0plus.h **** 
 596:Generated_Source\PSoC6\pdl\cmsis/include/core_cm0plus.h **** /*@} end of group CMSIS_MPU */
 597:Generated_Source\PSoC6\pdl\cmsis/include/core_cm0plus.h **** #endif
 598:Generated_Source\PSoC6\pdl\cmsis/include/core_cm0plus.h **** 
 599:Generated_Source\PSoC6\pdl\cmsis/include/core_cm0plus.h **** 
 600:Generated_Source\PSoC6\pdl\cmsis/include/core_cm0plus.h **** /**
 601:Generated_Source\PSoC6\pdl\cmsis/include/core_cm0plus.h ****   \ingroup  CMSIS_core_register
 602:Generated_Source\PSoC6\pdl\cmsis/include/core_cm0plus.h ****   \defgroup CMSIS_CoreDebug       Core Debug Registers (CoreDebug)
 603:Generated_Source\PSoC6\pdl\cmsis/include/core_cm0plus.h ****   \brief    Cortex-M0+ Core Debug Registers (DCB registers, SHCSR, and DFSR) are only accessible ov
 604:Generated_Source\PSoC6\pdl\cmsis/include/core_cm0plus.h ****             Therefore they are not covered by the Cortex-M0+ header file.
 605:Generated_Source\PSoC6\pdl\cmsis/include/core_cm0plus.h ****   @{
 606:Generated_Source\PSoC6\pdl\cmsis/include/core_cm0plus.h ****  */
 607:Generated_Source\PSoC6\pdl\cmsis/include/core_cm0plus.h **** /*@} end of group CMSIS_CoreDebug */
 608:Generated_Source\PSoC6\pdl\cmsis/include/core_cm0plus.h **** 
 609:Generated_Source\PSoC6\pdl\cmsis/include/core_cm0plus.h **** 
 610:Generated_Source\PSoC6\pdl\cmsis/include/core_cm0plus.h **** /**
 611:Generated_Source\PSoC6\pdl\cmsis/include/core_cm0plus.h ****   \ingroup    CMSIS_core_register
 612:Generated_Source\PSoC6\pdl\cmsis/include/core_cm0plus.h ****   \defgroup   CMSIS_core_bitfield     Core register bit field macros
 613:Generated_Source\PSoC6\pdl\cmsis/include/core_cm0plus.h ****   \brief      Macros for use with bit field definitions (xxx_Pos, xxx_Msk).
 614:Generated_Source\PSoC6\pdl\cmsis/include/core_cm0plus.h ****   @{
 615:Generated_Source\PSoC6\pdl\cmsis/include/core_cm0plus.h ****  */
 616:Generated_Source\PSoC6\pdl\cmsis/include/core_cm0plus.h **** 
 617:Generated_Source\PSoC6\pdl\cmsis/include/core_cm0plus.h **** /**
 618:Generated_Source\PSoC6\pdl\cmsis/include/core_cm0plus.h ****   \brief   Mask and shift a bit field value for use in a register bit range.
 619:Generated_Source\PSoC6\pdl\cmsis/include/core_cm0plus.h ****   \param[in] field  Name of the register bit field.
 620:Generated_Source\PSoC6\pdl\cmsis/include/core_cm0plus.h ****   \param[in] value  Value of the bit field. This parameter is interpreted as an uint32_t type.
 621:Generated_Source\PSoC6\pdl\cmsis/include/core_cm0plus.h ****   \return           Masked and shifted value.
 622:Generated_Source\PSoC6\pdl\cmsis/include/core_cm0plus.h **** */
 623:Generated_Source\PSoC6\pdl\cmsis/include/core_cm0plus.h **** #define _VAL2FLD(field, value)    (((uint32_t)(value) << field ## _Pos) & field ## _Msk)
 624:Generated_Source\PSoC6\pdl\cmsis/include/core_cm0plus.h **** 
 625:Generated_Source\PSoC6\pdl\cmsis/include/core_cm0plus.h **** /**
 626:Generated_Source\PSoC6\pdl\cmsis/include/core_cm0plus.h ****   \brief     Mask and shift a register value to extract a bit filed value.
 627:Generated_Source\PSoC6\pdl\cmsis/include/core_cm0plus.h ****   \param[in] field  Name of the register bit field.
 628:Generated_Source\PSoC6\pdl\cmsis/include/core_cm0plus.h ****   \param[in] value  Value of register. This parameter is interpreted as an uint32_t type.
 629:Generated_Source\PSoC6\pdl\cmsis/include/core_cm0plus.h ****   \return           Masked and shifted bit field value.
 630:Generated_Source\PSoC6\pdl\cmsis/include/core_cm0plus.h **** */
 631:Generated_Source\PSoC6\pdl\cmsis/include/core_cm0plus.h **** #define _FLD2VAL(field, value)    (((uint32_t)(value) & field ## _Msk) >> field ## _Pos)
 632:Generated_Source\PSoC6\pdl\cmsis/include/core_cm0plus.h **** 
 633:Generated_Source\PSoC6\pdl\cmsis/include/core_cm0plus.h **** /*@} end of group CMSIS_core_bitfield */
ARM GAS  C:\Users\fiona\AppData\Local\Temp\cc5ift8g.s 			page 27


 634:Generated_Source\PSoC6\pdl\cmsis/include/core_cm0plus.h **** 
 635:Generated_Source\PSoC6\pdl\cmsis/include/core_cm0plus.h **** 
 636:Generated_Source\PSoC6\pdl\cmsis/include/core_cm0plus.h **** /**
 637:Generated_Source\PSoC6\pdl\cmsis/include/core_cm0plus.h ****   \ingroup    CMSIS_core_register
 638:Generated_Source\PSoC6\pdl\cmsis/include/core_cm0plus.h ****   \defgroup   CMSIS_core_base     Core Definitions
 639:Generated_Source\PSoC6\pdl\cmsis/include/core_cm0plus.h ****   \brief      Definitions for base addresses, unions, and structures.
 640:Generated_Source\PSoC6\pdl\cmsis/include/core_cm0plus.h ****   @{
 641:Generated_Source\PSoC6\pdl\cmsis/include/core_cm0plus.h ****  */
 642:Generated_Source\PSoC6\pdl\cmsis/include/core_cm0plus.h **** 
 643:Generated_Source\PSoC6\pdl\cmsis/include/core_cm0plus.h **** /* Memory mapping of Core Hardware */
 644:Generated_Source\PSoC6\pdl\cmsis/include/core_cm0plus.h **** #define SCS_BASE            (0xE000E000UL)                            /*!< System Control Space Bas
 645:Generated_Source\PSoC6\pdl\cmsis/include/core_cm0plus.h **** #define SysTick_BASE        (SCS_BASE +  0x0010UL)                    /*!< SysTick Base Address */
 646:Generated_Source\PSoC6\pdl\cmsis/include/core_cm0plus.h **** #define NVIC_BASE           (SCS_BASE +  0x0100UL)                    /*!< NVIC Base Address */
 647:Generated_Source\PSoC6\pdl\cmsis/include/core_cm0plus.h **** #define SCB_BASE            (SCS_BASE +  0x0D00UL)                    /*!< System Control Block Bas
 648:Generated_Source\PSoC6\pdl\cmsis/include/core_cm0plus.h **** 
 649:Generated_Source\PSoC6\pdl\cmsis/include/core_cm0plus.h **** #define SCB                 ((SCB_Type       *)     SCB_BASE      )   /*!< SCB configuration struct
 650:Generated_Source\PSoC6\pdl\cmsis/include/core_cm0plus.h **** #define SysTick             ((SysTick_Type   *)     SysTick_BASE  )   /*!< SysTick configuration st
 651:Generated_Source\PSoC6\pdl\cmsis/include/core_cm0plus.h **** #define NVIC                ((NVIC_Type      *)     NVIC_BASE     )   /*!< NVIC configuration struc
 652:Generated_Source\PSoC6\pdl\cmsis/include/core_cm0plus.h **** 
 653:Generated_Source\PSoC6\pdl\cmsis/include/core_cm0plus.h **** #if defined (__MPU_PRESENT) && (__MPU_PRESENT == 1U)
 654:Generated_Source\PSoC6\pdl\cmsis/include/core_cm0plus.h ****   #define MPU_BASE          (SCS_BASE +  0x0D90UL)                    /*!< Memory Protection Unit *
 655:Generated_Source\PSoC6\pdl\cmsis/include/core_cm0plus.h ****   #define MPU               ((MPU_Type       *)     MPU_BASE      )   /*!< Memory Protection Unit *
 656:Generated_Source\PSoC6\pdl\cmsis/include/core_cm0plus.h **** #endif
 657:Generated_Source\PSoC6\pdl\cmsis/include/core_cm0plus.h **** 
 658:Generated_Source\PSoC6\pdl\cmsis/include/core_cm0plus.h **** /*@} */
 659:Generated_Source\PSoC6\pdl\cmsis/include/core_cm0plus.h **** 
 660:Generated_Source\PSoC6\pdl\cmsis/include/core_cm0plus.h **** 
 661:Generated_Source\PSoC6\pdl\cmsis/include/core_cm0plus.h **** 
 662:Generated_Source\PSoC6\pdl\cmsis/include/core_cm0plus.h **** /*******************************************************************************
 663:Generated_Source\PSoC6\pdl\cmsis/include/core_cm0plus.h ****  *                Hardware Abstraction Layer
 664:Generated_Source\PSoC6\pdl\cmsis/include/core_cm0plus.h ****   Core Function Interface contains:
 665:Generated_Source\PSoC6\pdl\cmsis/include/core_cm0plus.h ****   - Core NVIC Functions
 666:Generated_Source\PSoC6\pdl\cmsis/include/core_cm0plus.h ****   - Core SysTick Functions
 667:Generated_Source\PSoC6\pdl\cmsis/include/core_cm0plus.h ****   - Core Register Access Functions
 668:Generated_Source\PSoC6\pdl\cmsis/include/core_cm0plus.h ****  ******************************************************************************/
 669:Generated_Source\PSoC6\pdl\cmsis/include/core_cm0plus.h **** /**
 670:Generated_Source\PSoC6\pdl\cmsis/include/core_cm0plus.h ****   \defgroup CMSIS_Core_FunctionInterface Functions and Instructions Reference
 671:Generated_Source\PSoC6\pdl\cmsis/include/core_cm0plus.h **** */
 672:Generated_Source\PSoC6\pdl\cmsis/include/core_cm0plus.h **** 
 673:Generated_Source\PSoC6\pdl\cmsis/include/core_cm0plus.h **** 
 674:Generated_Source\PSoC6\pdl\cmsis/include/core_cm0plus.h **** 
 675:Generated_Source\PSoC6\pdl\cmsis/include/core_cm0plus.h **** /* ##########################   NVIC functions  #################################### */
 676:Generated_Source\PSoC6\pdl\cmsis/include/core_cm0plus.h **** /**
 677:Generated_Source\PSoC6\pdl\cmsis/include/core_cm0plus.h ****   \ingroup  CMSIS_Core_FunctionInterface
 678:Generated_Source\PSoC6\pdl\cmsis/include/core_cm0plus.h ****   \defgroup CMSIS_Core_NVICFunctions NVIC Functions
 679:Generated_Source\PSoC6\pdl\cmsis/include/core_cm0plus.h ****   \brief    Functions that manage interrupts and exceptions via the NVIC.
 680:Generated_Source\PSoC6\pdl\cmsis/include/core_cm0plus.h ****   @{
 681:Generated_Source\PSoC6\pdl\cmsis/include/core_cm0plus.h ****  */
 682:Generated_Source\PSoC6\pdl\cmsis/include/core_cm0plus.h **** 
 683:Generated_Source\PSoC6\pdl\cmsis/include/core_cm0plus.h **** #ifndef CMSIS_NVIC_VIRTUAL
 684:Generated_Source\PSoC6\pdl\cmsis/include/core_cm0plus.h **** /*#define NVIC_SetPriorityGrouping    __NVIC_SetPriorityGrouping   not available for Cortex-M0+ */
 685:Generated_Source\PSoC6\pdl\cmsis/include/core_cm0plus.h **** /*#define NVIC_GetPriorityGrouping    __NVIC_GetPriorityGrouping   not available for Cortex-M0+ */
 686:Generated_Source\PSoC6\pdl\cmsis/include/core_cm0plus.h ****   #define NVIC_EnableIRQ              __NVIC_EnableIRQ
 687:Generated_Source\PSoC6\pdl\cmsis/include/core_cm0plus.h ****   #define NVIC_GetEnableIRQ           __NVIC_GetEnableIRQ
 688:Generated_Source\PSoC6\pdl\cmsis/include/core_cm0plus.h ****   #define NVIC_DisableIRQ             __NVIC_DisableIRQ
 689:Generated_Source\PSoC6\pdl\cmsis/include/core_cm0plus.h ****   #define NVIC_GetPendingIRQ          __NVIC_GetPendingIRQ
 690:Generated_Source\PSoC6\pdl\cmsis/include/core_cm0plus.h ****   #define NVIC_SetPendingIRQ          __NVIC_SetPendingIRQ
ARM GAS  C:\Users\fiona\AppData\Local\Temp\cc5ift8g.s 			page 28


 691:Generated_Source\PSoC6\pdl\cmsis/include/core_cm0plus.h ****   #define NVIC_ClearPendingIRQ        __NVIC_ClearPendingIRQ
 692:Generated_Source\PSoC6\pdl\cmsis/include/core_cm0plus.h **** /*#define NVIC_GetActive              __NVIC_GetActive             not available for Cortex-M0+ */
 693:Generated_Source\PSoC6\pdl\cmsis/include/core_cm0plus.h ****   #define NVIC_SetPriority            __NVIC_SetPriority
 694:Generated_Source\PSoC6\pdl\cmsis/include/core_cm0plus.h ****   #define NVIC_GetPriority            __NVIC_GetPriority
 695:Generated_Source\PSoC6\pdl\cmsis/include/core_cm0plus.h **** #endif /* CMSIS_NVIC_VIRTUAL */
 696:Generated_Source\PSoC6\pdl\cmsis/include/core_cm0plus.h **** 
 697:Generated_Source\PSoC6\pdl\cmsis/include/core_cm0plus.h **** #ifndef CMSIS_VECTAB_VIRTUAL
 698:Generated_Source\PSoC6\pdl\cmsis/include/core_cm0plus.h ****   #define NVIC_SetVector              __NVIC_SetVector
 699:Generated_Source\PSoC6\pdl\cmsis/include/core_cm0plus.h ****   #define NVIC_GetVector              __NVIC_GetVector
 700:Generated_Source\PSoC6\pdl\cmsis/include/core_cm0plus.h **** #endif  /* (CMSIS_VECTAB_VIRTUAL) */
 701:Generated_Source\PSoC6\pdl\cmsis/include/core_cm0plus.h **** 
 702:Generated_Source\PSoC6\pdl\cmsis/include/core_cm0plus.h **** #define NVIC_USER_IRQ_OFFSET          16
 703:Generated_Source\PSoC6\pdl\cmsis/include/core_cm0plus.h **** 
 704:Generated_Source\PSoC6\pdl\cmsis/include/core_cm0plus.h **** 
 705:Generated_Source\PSoC6\pdl\cmsis/include/core_cm0plus.h **** /* Interrupt Priorities are WORD accessible only under ARMv6M                   */
 706:Generated_Source\PSoC6\pdl\cmsis/include/core_cm0plus.h **** /* The following MACROS handle generation of the register offset and byte masks */
 707:Generated_Source\PSoC6\pdl\cmsis/include/core_cm0plus.h **** #define _BIT_SHIFT(IRQn)         (  ((((uint32_t)(int32_t)(IRQn))         )      &  0x03UL) * 8UL)
 708:Generated_Source\PSoC6\pdl\cmsis/include/core_cm0plus.h **** #define _SHP_IDX(IRQn)           ( (((((uint32_t)(int32_t)(IRQn)) & 0x0FUL)-8UL) >>    2UL)      )
 709:Generated_Source\PSoC6\pdl\cmsis/include/core_cm0plus.h **** #define _IP_IDX(IRQn)            (   (((uint32_t)(int32_t)(IRQn))                >>    2UL)      )
 710:Generated_Source\PSoC6\pdl\cmsis/include/core_cm0plus.h **** 
 711:Generated_Source\PSoC6\pdl\cmsis/include/core_cm0plus.h **** 
 712:Generated_Source\PSoC6\pdl\cmsis/include/core_cm0plus.h **** /**
 713:Generated_Source\PSoC6\pdl\cmsis/include/core_cm0plus.h ****   \brief   Enable Interrupt
 714:Generated_Source\PSoC6\pdl\cmsis/include/core_cm0plus.h ****   \details Enables a device specific interrupt in the NVIC interrupt controller.
 715:Generated_Source\PSoC6\pdl\cmsis/include/core_cm0plus.h ****   \param [in]      IRQn  Device specific interrupt number.
 716:Generated_Source\PSoC6\pdl\cmsis/include/core_cm0plus.h ****   \note    IRQn must not be negative.
 717:Generated_Source\PSoC6\pdl\cmsis/include/core_cm0plus.h ****  */
 718:Generated_Source\PSoC6\pdl\cmsis/include/core_cm0plus.h **** __STATIC_INLINE void __NVIC_EnableIRQ(IRQn_Type IRQn)
 719:Generated_Source\PSoC6\pdl\cmsis/include/core_cm0plus.h **** {
 720:Generated_Source\PSoC6\pdl\cmsis/include/core_cm0plus.h ****   if ((int32_t)(IRQn) >= 0)
 104              		.loc 3 720 0
 105 0034 002A     		cmp	r2, #0
 106 0036 05DB     		blt	.L6
 721:Generated_Source\PSoC6\pdl\cmsis/include/core_cm0plus.h ****   {
 722:Generated_Source\PSoC6\pdl\cmsis/include/core_cm0plus.h ****     NVIC->ISER[0U] = (uint32_t)(1UL << (((uint32_t)(int32_t)IRQn) & 0x1FUL));
 107              		.loc 3 722 0
 108 0038 1F23     		movs	r3, #31
 109 003a 1A40     		ands	r2, r3
 110              	.LVL5:
 111 003c 1E3B     		subs	r3, r3, #30
 112 003e 9340     		lsls	r3, r3, r2
 113 0040 0C4A     		ldr	r2, .L7+32
 114 0042 1360     		str	r3, [r2]
 115              	.L6:
 116              	.LVL6:
 117              	.LBE7:
 118              	.LBE6:
 119              	.LBB8:
 120              	.LBB9:
 121              		.file 4 "Generated_Source\\PSoC6\\pdl\\drivers/peripheral/scb/cy_scb_i2c.h"
   1:Generated_Source\PSoC6\pdl\drivers/peripheral/scb/cy_scb_i2c.h **** /***************************************************************************//**
   2:Generated_Source\PSoC6\pdl\drivers/peripheral/scb/cy_scb_i2c.h **** * \file cy_scb_i2c.h
   3:Generated_Source\PSoC6\pdl\drivers/peripheral/scb/cy_scb_i2c.h **** * \version 2.10
   4:Generated_Source\PSoC6\pdl\drivers/peripheral/scb/cy_scb_i2c.h **** *
   5:Generated_Source\PSoC6\pdl\drivers/peripheral/scb/cy_scb_i2c.h **** * Provides I2C API declarations of the SCB driver.
   6:Generated_Source\PSoC6\pdl\drivers/peripheral/scb/cy_scb_i2c.h **** *
   7:Generated_Source\PSoC6\pdl\drivers/peripheral/scb/cy_scb_i2c.h **** ********************************************************************************
ARM GAS  C:\Users\fiona\AppData\Local\Temp\cc5ift8g.s 			page 29


   8:Generated_Source\PSoC6\pdl\drivers/peripheral/scb/cy_scb_i2c.h **** * \copyright
   9:Generated_Source\PSoC6\pdl\drivers/peripheral/scb/cy_scb_i2c.h **** * Copyright 2016-2018, Cypress Semiconductor Corporation.  All rights reserved.
  10:Generated_Source\PSoC6\pdl\drivers/peripheral/scb/cy_scb_i2c.h **** * You may use this file only in accordance with the license, terms, conditions,
  11:Generated_Source\PSoC6\pdl\drivers/peripheral/scb/cy_scb_i2c.h **** * disclaimers, and limitations in the end user license agreement accompanying
  12:Generated_Source\PSoC6\pdl\drivers/peripheral/scb/cy_scb_i2c.h **** * the software package with which this file was provided.
  13:Generated_Source\PSoC6\pdl\drivers/peripheral/scb/cy_scb_i2c.h **** *******************************************************************************/
  14:Generated_Source\PSoC6\pdl\drivers/peripheral/scb/cy_scb_i2c.h **** 
  15:Generated_Source\PSoC6\pdl\drivers/peripheral/scb/cy_scb_i2c.h **** /**
  16:Generated_Source\PSoC6\pdl\drivers/peripheral/scb/cy_scb_i2c.h **** * \addtogroup group_scb_i2c
  17:Generated_Source\PSoC6\pdl\drivers/peripheral/scb/cy_scb_i2c.h **** * \{
  18:Generated_Source\PSoC6\pdl\drivers/peripheral/scb/cy_scb_i2c.h **** * Driver API for I2C Bus Peripheral
  19:Generated_Source\PSoC6\pdl\drivers/peripheral/scb/cy_scb_i2c.h **** *
  20:Generated_Source\PSoC6\pdl\drivers/peripheral/scb/cy_scb_i2c.h **** * I2C - The Inter-Integrated Circuit (I2C) bus is an industry-standard.
  21:Generated_Source\PSoC6\pdl\drivers/peripheral/scb/cy_scb_i2c.h **** * The two-wire hardware interface was developed by Philips Semiconductors
  22:Generated_Source\PSoC6\pdl\drivers/peripheral/scb/cy_scb_i2c.h **** * (now NXP Semiconductors).
  23:Generated_Source\PSoC6\pdl\drivers/peripheral/scb/cy_scb_i2c.h **** *
  24:Generated_Source\PSoC6\pdl\drivers/peripheral/scb/cy_scb_i2c.h **** * The I2C peripheral driver provides an API to implement I2C slave, master,
  25:Generated_Source\PSoC6\pdl\drivers/peripheral/scb/cy_scb_i2c.h **** * or master-slave devices based on the SCB hardware block.
  26:Generated_Source\PSoC6\pdl\drivers/peripheral/scb/cy_scb_i2c.h **** * I2C devices based on SCB hardware are compatible with I2C
  27:Generated_Source\PSoC6\pdl\drivers/peripheral/scb/cy_scb_i2c.h **** * Standard-mode, Fast-mode, and Fast-mode Plus specifications as defined in
  28:Generated_Source\PSoC6\pdl\drivers/peripheral/scb/cy_scb_i2c.h **** * the I2C-bus specification.
  29:Generated_Source\PSoC6\pdl\drivers/peripheral/scb/cy_scb_i2c.h **** *
  30:Generated_Source\PSoC6\pdl\drivers/peripheral/scb/cy_scb_i2c.h **** * Features:
  31:Generated_Source\PSoC6\pdl\drivers/peripheral/scb/cy_scb_i2c.h **** * * An industry-standard I2C bus interface
  32:Generated_Source\PSoC6\pdl\drivers/peripheral/scb/cy_scb_i2c.h **** * * Supports slave, master, and master-slave operation
  33:Generated_Source\PSoC6\pdl\drivers/peripheral/scb/cy_scb_i2c.h **** * * Supports standard data rates of 100/400/1000 kbps
  34:Generated_Source\PSoC6\pdl\drivers/peripheral/scb/cy_scb_i2c.h **** * * Hardware Address Match, multiple addresses
  35:Generated_Source\PSoC6\pdl\drivers/peripheral/scb/cy_scb_i2c.h **** * * Wake From Deep Sleep on Address Match
  36:Generated_Source\PSoC6\pdl\drivers/peripheral/scb/cy_scb_i2c.h **** *
  37:Generated_Source\PSoC6\pdl\drivers/peripheral/scb/cy_scb_i2c.h **** * \section group_scb_i2c_configuration Configuration Considerations
  38:Generated_Source\PSoC6\pdl\drivers/peripheral/scb/cy_scb_i2c.h **** * The I2C driver configuration can be divided to number of sequential
  39:Generated_Source\PSoC6\pdl\drivers/peripheral/scb/cy_scb_i2c.h **** * steps listed below:
  40:Generated_Source\PSoC6\pdl\drivers/peripheral/scb/cy_scb_i2c.h **** * * \ref group_scb_i2c_config
  41:Generated_Source\PSoC6\pdl\drivers/peripheral/scb/cy_scb_i2c.h **** * * \ref group_scb_i2c_pins
  42:Generated_Source\PSoC6\pdl\drivers/peripheral/scb/cy_scb_i2c.h **** * * \ref group_scb_i2c_clock
  43:Generated_Source\PSoC6\pdl\drivers/peripheral/scb/cy_scb_i2c.h **** * * \ref group_scb_i2c_data_rate
  44:Generated_Source\PSoC6\pdl\drivers/peripheral/scb/cy_scb_i2c.h **** * * \ref group_scb_i2c_intr
  45:Generated_Source\PSoC6\pdl\drivers/peripheral/scb/cy_scb_i2c.h **** * * \ref group_scb_i2c_enable
  46:Generated_Source\PSoC6\pdl\drivers/peripheral/scb/cy_scb_i2c.h **** *
  47:Generated_Source\PSoC6\pdl\drivers/peripheral/scb/cy_scb_i2c.h **** * \note
  48:Generated_Source\PSoC6\pdl\drivers/peripheral/scb/cy_scb_i2c.h **** * I2C driver is built on top of the SCB hardware block. The SCB3 instance is
  49:Generated_Source\PSoC6\pdl\drivers/peripheral/scb/cy_scb_i2c.h **** * used as an example for all code snippets. Modify the code to match your
  50:Generated_Source\PSoC6\pdl\drivers/peripheral/scb/cy_scb_i2c.h **** * design.
  51:Generated_Source\PSoC6\pdl\drivers/peripheral/scb/cy_scb_i2c.h **** *
  52:Generated_Source\PSoC6\pdl\drivers/peripheral/scb/cy_scb_i2c.h **** * \subsection group_scb_i2c_config Configure I2C
  53:Generated_Source\PSoC6\pdl\drivers/peripheral/scb/cy_scb_i2c.h **** * To set up the I2C slave driver, provide the configuration parameters in the
  54:Generated_Source\PSoC6\pdl\drivers/peripheral/scb/cy_scb_i2c.h **** * \ref cy_stc_scb_i2c_config_t structure. Provide i2cMode to the select
  55:Generated_Source\PSoC6\pdl\drivers/peripheral/scb/cy_scb_i2c.h **** * operation mode slave, master or master-slave. For master modes, provide
  56:Generated_Source\PSoC6\pdl\drivers/peripheral/scb/cy_scb_i2c.h **** * useRxFifo and useTxFifo parameters. For slave mode, also provide the
  57:Generated_Source\PSoC6\pdl\drivers/peripheral/scb/cy_scb_i2c.h **** * slaveAddress and slaveAddressMask. The other parameters are optional for
  58:Generated_Source\PSoC6\pdl\drivers/peripheral/scb/cy_scb_i2c.h **** * operation. To initialize the driver, call \ref Cy_SCB_I2C_Init
  59:Generated_Source\PSoC6\pdl\drivers/peripheral/scb/cy_scb_i2c.h **** * function providing a pointer to the filled \ref cy_stc_scb_i2c_config_t
  60:Generated_Source\PSoC6\pdl\drivers/peripheral/scb/cy_scb_i2c.h **** * structure and allocated \ref cy_stc_scb_i2c_context_t.
  61:Generated_Source\PSoC6\pdl\drivers/peripheral/scb/cy_scb_i2c.h **** *
  62:Generated_Source\PSoC6\pdl\drivers/peripheral/scb/cy_scb_i2c.h **** * \snippet SCB_CompDatasheet_sut_01_revA.cydsn\i2c_snippets.c I2C_CFG
  63:Generated_Source\PSoC6\pdl\drivers/peripheral/scb/cy_scb_i2c.h **** *
  64:Generated_Source\PSoC6\pdl\drivers/peripheral/scb/cy_scb_i2c.h **** * \subsection group_scb_i2c_pins Assign and Configure Pins
ARM GAS  C:\Users\fiona\AppData\Local\Temp\cc5ift8g.s 			page 30


  65:Generated_Source\PSoC6\pdl\drivers/peripheral/scb/cy_scb_i2c.h **** * Only dedicated SCB pins can be used for I2C operation. The HSIOM
  66:Generated_Source\PSoC6\pdl\drivers/peripheral/scb/cy_scb_i2c.h **** * register must be configured to connect block to the pins. Also the I2C pins
  67:Generated_Source\PSoC6\pdl\drivers/peripheral/scb/cy_scb_i2c.h **** * must be configured in Open-Drain, Drives Low mode (this pins configuration
  68:Generated_Source\PSoC6\pdl\drivers/peripheral/scb/cy_scb_i2c.h **** * implies usage of external pull-up resistors):
  69:Generated_Source\PSoC6\pdl\drivers/peripheral/scb/cy_scb_i2c.h **** *
  70:Generated_Source\PSoC6\pdl\drivers/peripheral/scb/cy_scb_i2c.h **** * \snippet SCB_CompDatasheet_sut_01_revA.cydsn\i2c_snippets.c I2C_CFG_PINS
  71:Generated_Source\PSoC6\pdl\drivers/peripheral/scb/cy_scb_i2c.h **** *
  72:Generated_Source\PSoC6\pdl\drivers/peripheral/scb/cy_scb_i2c.h **** * \note
  73:Generated_Source\PSoC6\pdl\drivers/peripheral/scb/cy_scb_i2c.h **** * The alternative pins configuration is Resistive Pull-ups which implies usage
  74:Generated_Source\PSoC6\pdl\drivers/peripheral/scb/cy_scb_i2c.h **** * internal pull-up resistors. This configuration is not recommended because
  75:Generated_Source\PSoC6\pdl\drivers/peripheral/scb/cy_scb_i2c.h **** * resistor value is fixed and cannot be used for all supported data rates.
  76:Generated_Source\PSoC6\pdl\drivers/peripheral/scb/cy_scb_i2c.h **** * Refer to the device datasheet parameter RPULLUP for resistor value specifications.
  77:Generated_Source\PSoC6\pdl\drivers/peripheral/scb/cy_scb_i2c.h **** *
  78:Generated_Source\PSoC6\pdl\drivers/peripheral/scb/cy_scb_i2c.h **** * \subsection group_scb_i2c_clock Assign Clock Divider
  79:Generated_Source\PSoC6\pdl\drivers/peripheral/scb/cy_scb_i2c.h **** * The clock source must be connected to the SCB block to oversample input and
  80:Generated_Source\PSoC6\pdl\drivers/peripheral/scb/cy_scb_i2c.h **** * output signals. You must use one of the 8-bit or 16-bit dividers <em><b>(the
  81:Generated_Source\PSoC6\pdl\drivers/peripheral/scb/cy_scb_i2c.h **** * source clock of this divider must be Clk_Peri)</b></em>. Use the
  82:Generated_Source\PSoC6\pdl\drivers/peripheral/scb/cy_scb_i2c.h **** * \ref group_sysclk driver API to do that.
  83:Generated_Source\PSoC6\pdl\drivers/peripheral/scb/cy_scb_i2c.h **** *
  84:Generated_Source\PSoC6\pdl\drivers/peripheral/scb/cy_scb_i2c.h **** * \snippet SCB_CompDatasheet_sut_01_revA.cydsn\i2c_snippets.c I2C_CFG_ASSIGN_CLOCK
  85:Generated_Source\PSoC6\pdl\drivers/peripheral/scb/cy_scb_i2c.h **** *
  86:Generated_Source\PSoC6\pdl\drivers/peripheral/scb/cy_scb_i2c.h **** * Set up I2C slave read and write buffer before enabling its
  87:Generated_Source\PSoC6\pdl\drivers/peripheral/scb/cy_scb_i2c.h **** * operation using \ref Cy_SCB_I2C_SlaveConfigReadBuf and \ref
  88:Generated_Source\PSoC6\pdl\drivers/peripheral/scb/cy_scb_i2c.h **** * Cy_SCB_I2C_SlaveConfigWriteBuf appropriately. Note that the master reads
  89:Generated_Source\PSoC6\pdl\drivers/peripheral/scb/cy_scb_i2c.h **** * data from the slave read buffer and writes data into the slave write buffer.
  90:Generated_Source\PSoC6\pdl\drivers/peripheral/scb/cy_scb_i2c.h **** *
  91:Generated_Source\PSoC6\pdl\drivers/peripheral/scb/cy_scb_i2c.h **** * \snippet SCB_CompDatasheet_sut_01_revA.cydsn\i2c_snippets.c I2C_CFG_BUFFER
  92:Generated_Source\PSoC6\pdl\drivers/peripheral/scb/cy_scb_i2c.h **** *
  93:Generated_Source\PSoC6\pdl\drivers/peripheral/scb/cy_scb_i2c.h **** * \subsection group_scb_i2c_data_rate Configure Data Rate
  94:Generated_Source\PSoC6\pdl\drivers/peripheral/scb/cy_scb_i2c.h **** * To get I2C slave operation with the desired data rate, the source clock must be
  95:Generated_Source\PSoC6\pdl\drivers/peripheral/scb/cy_scb_i2c.h **** * fast enough to provide sufficient oversampling. Therefore, the clock divider
  96:Generated_Source\PSoC6\pdl\drivers/peripheral/scb/cy_scb_i2c.h **** * must be configured to provide desired clock frequency. Use the
  97:Generated_Source\PSoC6\pdl\drivers/peripheral/scb/cy_scb_i2c.h **** * \ref group_sysclk driver API to do that.
  98:Generated_Source\PSoC6\pdl\drivers/peripheral/scb/cy_scb_i2c.h **** *
  99:Generated_Source\PSoC6\pdl\drivers/peripheral/scb/cy_scb_i2c.h **** * \snippet SCB_CompDatasheet_sut_01_revA.cydsn\i2c_snippets.c I2C_CFG_DATA_RATE_SLAVE
 100:Generated_Source\PSoC6\pdl\drivers/peripheral/scb/cy_scb_i2c.h **** *
 101:Generated_Source\PSoC6\pdl\drivers/peripheral/scb/cy_scb_i2c.h **** * To get I2C master operation with the desired data rate, the source clock
 102:Generated_Source\PSoC6\pdl\drivers/peripheral/scb/cy_scb_i2c.h **** * frequency and SCL low and high phase duration must be configured. Use the
 103:Generated_Source\PSoC6\pdl\drivers/peripheral/scb/cy_scb_i2c.h **** * \ref group_sysclk driver API to configure source clock frequency. Then call
 104:Generated_Source\PSoC6\pdl\drivers/peripheral/scb/cy_scb_i2c.h **** * \ref Cy_SCB_I2C_SetDataRate to set the SCL low and high phase duration.
 105:Generated_Source\PSoC6\pdl\drivers/peripheral/scb/cy_scb_i2c.h **** * This function reach for SCL low and high phase settings based on source clock
 106:Generated_Source\PSoC6\pdl\drivers/peripheral/scb/cy_scb_i2c.h **** * frequency.
 107:Generated_Source\PSoC6\pdl\drivers/peripheral/scb/cy_scb_i2c.h **** *
 108:Generated_Source\PSoC6\pdl\drivers/peripheral/scb/cy_scb_i2c.h **** * \snippet SCB_CompDatasheet_sut_01_revA.cydsn\i2c_snippets.c I2C_CFG_DATA_RATE_MASTER
 109:Generated_Source\PSoC6\pdl\drivers/peripheral/scb/cy_scb_i2c.h **** *
 110:Generated_Source\PSoC6\pdl\drivers/peripheral/scb/cy_scb_i2c.h **** * Alternatively, the low and high phase can be set directly using
 111:Generated_Source\PSoC6\pdl\drivers/peripheral/scb/cy_scb_i2c.h **** * \ref Cy_SCB_I2C_MasterSetLowPhaseDutyCycle and
 112:Generated_Source\PSoC6\pdl\drivers/peripheral/scb/cy_scb_i2c.h **** * \ref Cy_SCB_I2C_MasterSetHighPhaseDutyCycle functions. \n
 113:Generated_Source\PSoC6\pdl\drivers/peripheral/scb/cy_scb_i2c.h **** * Refer to the technical reference manual (TRM) section I2C sub-section
 114:Generated_Source\PSoC6\pdl\drivers/peripheral/scb/cy_scb_i2c.h **** * Oversampling and Bit Rate to get information how to configure I2C to run with
 115:Generated_Source\PSoC6\pdl\drivers/peripheral/scb/cy_scb_i2c.h **** * the desired data rate.
 116:Generated_Source\PSoC6\pdl\drivers/peripheral/scb/cy_scb_i2c.h **** *
 117:Generated_Source\PSoC6\pdl\drivers/peripheral/scb/cy_scb_i2c.h **** * \note
 118:Generated_Source\PSoC6\pdl\drivers/peripheral/scb/cy_scb_i2c.h **** * For I2C slave, the analog filter is used for all supported data rates. \n
 119:Generated_Source\PSoC6\pdl\drivers/peripheral/scb/cy_scb_i2c.h **** * For I2C master, the analog filter is used for Standard and Fast modes and the
 120:Generated_Source\PSoC6\pdl\drivers/peripheral/scb/cy_scb_i2c.h **** * digital filter for Fast Plus mode.
 121:Generated_Source\PSoC6\pdl\drivers/peripheral/scb/cy_scb_i2c.h **** *
ARM GAS  C:\Users\fiona\AppData\Local\Temp\cc5ift8g.s 			page 31


 122:Generated_Source\PSoC6\pdl\drivers/peripheral/scb/cy_scb_i2c.h **** * \subsection group_scb_i2c_intr Configure Interrupt
 123:Generated_Source\PSoC6\pdl\drivers/peripheral/scb/cy_scb_i2c.h **** * The interrupt is mandatory for I2C operation. The exception is the I2C master,
 124:Generated_Source\PSoC6\pdl\drivers/peripheral/scb/cy_scb_i2c.h **** * which uses only the \ref group_scb_i2c_master_low_level_functions functions.
 125:Generated_Source\PSoC6\pdl\drivers/peripheral/scb/cy_scb_i2c.h **** * The driver provides three interrupt functions: \ref Cy_SCB_I2C_Interrupt,
 126:Generated_Source\PSoC6\pdl\drivers/peripheral/scb/cy_scb_i2c.h **** * \ref Cy_SCB_I2C_SlaveInterrupt, and \ref Cy_SCB_I2C_MasterInterrupt. One of
 127:Generated_Source\PSoC6\pdl\drivers/peripheral/scb/cy_scb_i2c.h **** * these functions must be called in the interrupt handler for the selected SCB
 128:Generated_Source\PSoC6\pdl\drivers/peripheral/scb/cy_scb_i2c.h **** * instance. Call \ref Cy_SCB_I2C_SlaveInterrupt when I2C is configured to
 129:Generated_Source\PSoC6\pdl\drivers/peripheral/scb/cy_scb_i2c.h **** * operate as a slave, \ref Cy_SCB_I2C_MasterInterrupt when I2C is configured
 130:Generated_Source\PSoC6\pdl\drivers/peripheral/scb/cy_scb_i2c.h **** * to operate as a master and \ref Cy_SCB_I2C_Interrupt when I2C is configured
 131:Generated_Source\PSoC6\pdl\drivers/peripheral/scb/cy_scb_i2c.h **** * to operate as master and slave. Using the slave- or master-specific interrupt
 132:Generated_Source\PSoC6\pdl\drivers/peripheral/scb/cy_scb_i2c.h **** * function allows reducing the flash consumed by the I2C driver. Also this
 133:Generated_Source\PSoC6\pdl\drivers/peripheral/scb/cy_scb_i2c.h **** * interrupt must be enabled in the NVIC otherwise it will not work.
 134:Generated_Source\PSoC6\pdl\drivers/peripheral/scb/cy_scb_i2c.h **** * \note
 135:Generated_Source\PSoC6\pdl\drivers/peripheral/scb/cy_scb_i2c.h **** * The I2C driver documentation refers to the \ref Cy_SCB_I2C_Interrupt function
 136:Generated_Source\PSoC6\pdl\drivers/peripheral/scb/cy_scb_i2c.h **** * when interrupt processing is mandatory for the operation. This is done to
 137:Generated_Source\PSoC6\pdl\drivers/peripheral/scb/cy_scb_i2c.h **** * simplify the readability of the driver's documentation. The application should
 138:Generated_Source\PSoC6\pdl\drivers/peripheral/scb/cy_scb_i2c.h **** *  call the slave- or master-specific interrupt functions \ref Cy_SCB_I2C_SlaveInterrupt
 139:Generated_Source\PSoC6\pdl\drivers/peripheral/scb/cy_scb_i2c.h **** * or \ref Cy_SCB_I2C_MasterInterrupt, when appropriate.
 140:Generated_Source\PSoC6\pdl\drivers/peripheral/scb/cy_scb_i2c.h **** *
 141:Generated_Source\PSoC6\pdl\drivers/peripheral/scb/cy_scb_i2c.h **** * \snippet SCB_CompDatasheet_sut_01_revA.cydsn\i2c_snippets.c I2C_INTR_A
 142:Generated_Source\PSoC6\pdl\drivers/peripheral/scb/cy_scb_i2c.h **** * \snippet SCB_CompDatasheet_sut_01_revA.cydsn\i2c_snippets.c I2C_INTR_B
 143:Generated_Source\PSoC6\pdl\drivers/peripheral/scb/cy_scb_i2c.h **** *
 144:Generated_Source\PSoC6\pdl\drivers/peripheral/scb/cy_scb_i2c.h **** * \subsection group_scb_i2c_enable Enable I2C
 145:Generated_Source\PSoC6\pdl\drivers/peripheral/scb/cy_scb_i2c.h **** * Finally, enable the I2C operation calling \ref Cy_SCB_I2C_Enable. Then I2C
 146:Generated_Source\PSoC6\pdl\drivers/peripheral/scb/cy_scb_i2c.h **** * slave starts respond to the assigned address and I2C master ready to execute
 147:Generated_Source\PSoC6\pdl\drivers/peripheral/scb/cy_scb_i2c.h **** * transfers.
 148:Generated_Source\PSoC6\pdl\drivers/peripheral/scb/cy_scb_i2c.h **** *
 149:Generated_Source\PSoC6\pdl\drivers/peripheral/scb/cy_scb_i2c.h **** * \snippet SCB_CompDatasheet_sut_01_revA.cydsn\i2c_snippets.c I2C_ENABLE
 150:Generated_Source\PSoC6\pdl\drivers/peripheral/scb/cy_scb_i2c.h **** *
 151:Generated_Source\PSoC6\pdl\drivers/peripheral/scb/cy_scb_i2c.h **** * \section group_scb_i2c_use_cases Common Use Cases
 152:Generated_Source\PSoC6\pdl\drivers/peripheral/scb/cy_scb_i2c.h **** *
 153:Generated_Source\PSoC6\pdl\drivers/peripheral/scb/cy_scb_i2c.h **** * \subsection group_scb_i2c_master_mode Master Operation
 154:Generated_Source\PSoC6\pdl\drivers/peripheral/scb/cy_scb_i2c.h **** * The master API is divided into two categories:
 155:Generated_Source\PSoC6\pdl\drivers/peripheral/scb/cy_scb_i2c.h **** * \ref group_scb_i2c_master_high_level_functions and
 156:Generated_Source\PSoC6\pdl\drivers/peripheral/scb/cy_scb_i2c.h **** * \ref group_scb_i2c_master_low_level_functions. Therefore, there are two
 157:Generated_Source\PSoC6\pdl\drivers/peripheral/scb/cy_scb_i2c.h **** * methods for initiating I2C master transactions using either <b>Low-Level or
 158:Generated_Source\PSoC6\pdl\drivers/peripheral/scb/cy_scb_i2c.h **** * High-Level</b> API. These two methods are described below. Only one method
 159:Generated_Source\PSoC6\pdl\drivers/peripheral/scb/cy_scb_i2c.h **** * should be used at a time. They should not be mixed.
 160:Generated_Source\PSoC6\pdl\drivers/peripheral/scb/cy_scb_i2c.h **** *
 161:Generated_Source\PSoC6\pdl\drivers/peripheral/scb/cy_scb_i2c.h **** * \subsubsection  group_scb_i2c_master_hl Use High-Level Functions
 162:Generated_Source\PSoC6\pdl\drivers/peripheral/scb/cy_scb_i2c.h **** *  Call \ref Cy_SCB_I2C_MasterRead or \ref Cy_SCB_I2C_MasterWrite to
 163:Generated_Source\PSoC6\pdl\drivers/peripheral/scb/cy_scb_i2c.h **** * communicate with the slave. These functions do not block and only start a
 164:Generated_Source\PSoC6\pdl\drivers/peripheral/scb/cy_scb_i2c.h **** * transaction. After a transaction starts, the \ref Cy_SCB_I2C_Interrupt
 165:Generated_Source\PSoC6\pdl\drivers/peripheral/scb/cy_scb_i2c.h **** * handles the further data transaction until its completion (successfully or with an error
 166:Generated_Source\PSoC6\pdl\drivers/peripheral/scb/cy_scb_i2c.h **** * occurring). Therefore, \ref Cy_SCB_I2C_Interrupt must be called inside the
 167:Generated_Source\PSoC6\pdl\drivers/peripheral/scb/cy_scb_i2c.h **** * interrupt handler to make the functions above work. To monitor the transaction,
 168:Generated_Source\PSoC6\pdl\drivers/peripheral/scb/cy_scb_i2c.h **** * use \ref Cy_SCB_I2C_MasterGetStatus or register callback function using
 169:Generated_Source\PSoC6\pdl\drivers/peripheral/scb/cy_scb_i2c.h **** * \ref Cy_SCB_I2C_RegisterEventCallback to be notified about
 170:Generated_Source\PSoC6\pdl\drivers/peripheral/scb/cy_scb_i2c.h **** * \ref group_scb_i2c_macros_callback_events.
 171:Generated_Source\PSoC6\pdl\drivers/peripheral/scb/cy_scb_i2c.h **** *
 172:Generated_Source\PSoC6\pdl\drivers/peripheral/scb/cy_scb_i2c.h **** * \snippet SCB_CompDatasheet_sut_01_revA.cydsn\i2c_snippets.c I2C_MASTER_WRITE_READ_INT
 173:Generated_Source\PSoC6\pdl\drivers/peripheral/scb/cy_scb_i2c.h **** *
 174:Generated_Source\PSoC6\pdl\drivers/peripheral/scb/cy_scb_i2c.h **** * \subsubsection group_scb_i2c_master_ll Use Low-Level Functions
 175:Generated_Source\PSoC6\pdl\drivers/peripheral/scb/cy_scb_i2c.h **** * Call \ref Cy_SCB_I2C_MasterSendStart to generate a start, send an address
 176:Generated_Source\PSoC6\pdl\drivers/peripheral/scb/cy_scb_i2c.h **** * with the Read/Write direction bit, and receive acknowledgment. After the
 177:Generated_Source\PSoC6\pdl\drivers/peripheral/scb/cy_scb_i2c.h **** * address is ACKed by the slave, the transaction can be continued by calling
 178:Generated_Source\PSoC6\pdl\drivers/peripheral/scb/cy_scb_i2c.h **** * \ref Cy_SCB_I2C_MasterReadByte or \ref Cy_SCB_I2C_MasterWriteByte depending
ARM GAS  C:\Users\fiona\AppData\Local\Temp\cc5ift8g.s 			page 32


 179:Generated_Source\PSoC6\pdl\drivers/peripheral/scb/cy_scb_i2c.h **** * on its direction. These functions handle one byte per call. Therefore,
 180:Generated_Source\PSoC6\pdl\drivers/peripheral/scb/cy_scb_i2c.h **** * they should be called for each byte in the transaction. Note that for the
 181:Generated_Source\PSoC6\pdl\drivers/peripheral/scb/cy_scb_i2c.h **** * Read transaction, the last byte must be NAKed. To complete the current
 182:Generated_Source\PSoC6\pdl\drivers/peripheral/scb/cy_scb_i2c.h **** * transaction, call \ref Cy_SCB_I2C_MasterSendStop or call
 183:Generated_Source\PSoC6\pdl\drivers/peripheral/scb/cy_scb_i2c.h **** * \ref Cy_SCB_I2C_MasterSendReStart to complete the current transaction and
 184:Generated_Source\PSoC6\pdl\drivers/peripheral/scb/cy_scb_i2c.h **** * start a new one. Typically, do a restart to change the transaction
 185:Generated_Source\PSoC6\pdl\drivers/peripheral/scb/cy_scb_i2c.h **** * direction without releasing the bus from the master control.
 186:Generated_Source\PSoC6\pdl\drivers/peripheral/scb/cy_scb_i2c.h **** * The Low-Level functions are blocking and do not require calling
 187:Generated_Source\PSoC6\pdl\drivers/peripheral/scb/cy_scb_i2c.h **** * \ref Cy_SCB_I2C_Interrupt inside the interrupt handler. Using these
 188:Generated_Source\PSoC6\pdl\drivers/peripheral/scb/cy_scb_i2c.h **** * functions requires extensive knowledge of the I2C protocol to execute
 189:Generated_Source\PSoC6\pdl\drivers/peripheral/scb/cy_scb_i2c.h **** * transactions correctly.
 190:Generated_Source\PSoC6\pdl\drivers/peripheral/scb/cy_scb_i2c.h **** *
 191:Generated_Source\PSoC6\pdl\drivers/peripheral/scb/cy_scb_i2c.h **** * <b>Master Write Operation</b>
 192:Generated_Source\PSoC6\pdl\drivers/peripheral/scb/cy_scb_i2c.h **** * \snippet SCB_CompDatasheet_sut_01_revA.cydsn\i2c_snippets.c I2C_MASTER_WRITE_MANUAL
 193:Generated_Source\PSoC6\pdl\drivers/peripheral/scb/cy_scb_i2c.h **** *
 194:Generated_Source\PSoC6\pdl\drivers/peripheral/scb/cy_scb_i2c.h **** * <b>Master Read Operation</b>
 195:Generated_Source\PSoC6\pdl\drivers/peripheral/scb/cy_scb_i2c.h **** * \snippet SCB_CompDatasheet_sut_01_revA.cydsn\i2c_snippets.c I2C_MASTER_READ_MANUAL
 196:Generated_Source\PSoC6\pdl\drivers/peripheral/scb/cy_scb_i2c.h **** *
 197:Generated_Source\PSoC6\pdl\drivers/peripheral/scb/cy_scb_i2c.h **** * \subsection group_scb_i2c_slave Slave Operation
 198:Generated_Source\PSoC6\pdl\drivers/peripheral/scb/cy_scb_i2c.h **** * The slave operation is based on the \ref Cy_SCB_I2C_Interrupt that must be
 199:Generated_Source\PSoC6\pdl\drivers/peripheral/scb/cy_scb_i2c.h **** * called inside the interrupt handler. The Read and Write buffer must
 200:Generated_Source\PSoC6\pdl\drivers/peripheral/scb/cy_scb_i2c.h **** * be provided for the slave to enable communication with the master. Use
 201:Generated_Source\PSoC6\pdl\drivers/peripheral/scb/cy_scb_i2c.h **** * \ref Cy_SCB_I2C_SlaveConfigReadBuf and \ref Cy_SCB_I2C_SlaveConfigWriteBuf
 202:Generated_Source\PSoC6\pdl\drivers/peripheral/scb/cy_scb_i2c.h **** * for this purpose. Note that after transaction completion the buffer must be
 203:Generated_Source\PSoC6\pdl\drivers/peripheral/scb/cy_scb_i2c.h **** * configured again. Otherwise, the same buffer is used starting from the point
 204:Generated_Source\PSoC6\pdl\drivers/peripheral/scb/cy_scb_i2c.h **** * where the master stopped a previous transaction.
 205:Generated_Source\PSoC6\pdl\drivers/peripheral/scb/cy_scb_i2c.h **** * For example: The Read buffer is configured to be 10 bytes and the master Read
 206:Generated_Source\PSoC6\pdl\drivers/peripheral/scb/cy_scb_i2c.h **** * is 8 bytes. If the Read buffer is not configured again, the next master Read
 207:Generated_Source\PSoC6\pdl\drivers/peripheral/scb/cy_scb_i2c.h **** * will start from the 9th byte.
 208:Generated_Source\PSoC6\pdl\drivers/peripheral/scb/cy_scb_i2c.h **** * To monitor the transaction status, use \ref Cy_SCB_I2C_SlaveGetStatus or
 209:Generated_Source\PSoC6\pdl\drivers/peripheral/scb/cy_scb_i2c.h **** * use \ref Cy_SCB_I2C_RegisterEventCallback to register a callback function
 210:Generated_Source\PSoC6\pdl\drivers/peripheral/scb/cy_scb_i2c.h **** * to be notified about \ref group_scb_i2c_macros_callback_events.
 211:Generated_Source\PSoC6\pdl\drivers/peripheral/scb/cy_scb_i2c.h **** *
 212:Generated_Source\PSoC6\pdl\drivers/peripheral/scb/cy_scb_i2c.h **** * <b>Get Slave Events Notification</b>
 213:Generated_Source\PSoC6\pdl\drivers/peripheral/scb/cy_scb_i2c.h **** * \snippet SCB_CompDatasheet_sut_01_revA.cydsn\i2c_snippets.c I2C_SLAVE_REG_CALLBACK
 214:Generated_Source\PSoC6\pdl\drivers/peripheral/scb/cy_scb_i2c.h **** * \snippet SCB_CompDatasheet_sut_01_revA.cydsn\i2c_snippets.c I2C_SLAVE_NOTIFICATION
 215:Generated_Source\PSoC6\pdl\drivers/peripheral/scb/cy_scb_i2c.h **** *
 216:Generated_Source\PSoC6\pdl\drivers/peripheral/scb/cy_scb_i2c.h **** * <b>Polling Slave Completion Events</b>
 217:Generated_Source\PSoC6\pdl\drivers/peripheral/scb/cy_scb_i2c.h **** * \snippet SCB_CompDatasheet_sut_01_revA.cydsn\i2c_snippets.c I2C_SLAVE_POLLING
 218:Generated_Source\PSoC6\pdl\drivers/peripheral/scb/cy_scb_i2c.h **** *
 219:Generated_Source\PSoC6\pdl\drivers/peripheral/scb/cy_scb_i2c.h **** * \note
 220:Generated_Source\PSoC6\pdl\drivers/peripheral/scb/cy_scb_i2c.h **** * All slave API (except \ref Cy_SCB_I2C_SlaveAbortRead and
 221:Generated_Source\PSoC6\pdl\drivers/peripheral/scb/cy_scb_i2c.h **** * \ref Cy_SCB_I2C_SlaveAbortWrite) <b>are not interrupt-protected</b> and to
 222:Generated_Source\PSoC6\pdl\drivers/peripheral/scb/cy_scb_i2c.h **** * prevent a race condition, they should be protected from the I2C interruption
 223:Generated_Source\PSoC6\pdl\drivers/peripheral/scb/cy_scb_i2c.h **** * in the place where they are called.
 224:Generated_Source\PSoC6\pdl\drivers/peripheral/scb/cy_scb_i2c.h **** *
 225:Generated_Source\PSoC6\pdl\drivers/peripheral/scb/cy_scb_i2c.h **** * \section group_scb_i2c_lp Low Power Support
 226:Generated_Source\PSoC6\pdl\drivers/peripheral/scb/cy_scb_i2c.h **** * The I2C driver provides the callback functions to handle power mode transition.
 227:Generated_Source\PSoC6\pdl\drivers/peripheral/scb/cy_scb_i2c.h **** * The callback \ref Cy_SCB_I2C_DeepSleepCallback must be called
 228:Generated_Source\PSoC6\pdl\drivers/peripheral/scb/cy_scb_i2c.h **** * during execution of \ref Cy_SysPm_DeepSleep; \ref Cy_SCB_I2C_HibernateCallback
 229:Generated_Source\PSoC6\pdl\drivers/peripheral/scb/cy_scb_i2c.h **** * must be called during execution of \ref Cy_SysPm_Hibernate. To trigger the
 230:Generated_Source\PSoC6\pdl\drivers/peripheral/scb/cy_scb_i2c.h **** * callback execution, the callback must be registered before calling the
 231:Generated_Source\PSoC6\pdl\drivers/peripheral/scb/cy_scb_i2c.h **** * power mode transition function. Refer to \ref group_syspm driver for more
 232:Generated_Source\PSoC6\pdl\drivers/peripheral/scb/cy_scb_i2c.h **** * information about power mode transitions and callback registration.
 233:Generated_Source\PSoC6\pdl\drivers/peripheral/scb/cy_scb_i2c.h **** *
 234:Generated_Source\PSoC6\pdl\drivers/peripheral/scb/cy_scb_i2c.h **** * \note
 235:Generated_Source\PSoC6\pdl\drivers/peripheral/scb/cy_scb_i2c.h **** * Only applicable for <b>rev-08 of the CY8CKIT-062-BLE</b>.
ARM GAS  C:\Users\fiona\AppData\Local\Temp\cc5ift8g.s 			page 33


 236:Generated_Source\PSoC6\pdl\drivers/peripheral/scb/cy_scb_i2c.h **** * For proper operation, when the I2C slave is configured to be a wakeup
 237:Generated_Source\PSoC6\pdl\drivers/peripheral/scb/cy_scb_i2c.h **** * source from Deep Sleep mode, the \ref Cy_SCB_I2C_DeepSleepCallback must be
 238:Generated_Source\PSoC6\pdl\drivers/peripheral/scb/cy_scb_i2c.h **** * copied and modified. Refer to the function description to get the details.
 239:Generated_Source\PSoC6\pdl\drivers/peripheral/scb/cy_scb_i2c.h **** *
 240:Generated_Source\PSoC6\pdl\drivers/peripheral/scb/cy_scb_i2c.h **** * \section group_scb_i2c_more_information More Information
 241:Generated_Source\PSoC6\pdl\drivers/peripheral/scb/cy_scb_i2c.h **** * For more information on the SCB peripheral, refer to the technical reference
 242:Generated_Source\PSoC6\pdl\drivers/peripheral/scb/cy_scb_i2c.h **** * manual (TRM).
 243:Generated_Source\PSoC6\pdl\drivers/peripheral/scb/cy_scb_i2c.h **** *
 244:Generated_Source\PSoC6\pdl\drivers/peripheral/scb/cy_scb_i2c.h **** * \section group_scb_i2c_MISRA MISRA-C Compliance
 245:Generated_Source\PSoC6\pdl\drivers/peripheral/scb/cy_scb_i2c.h **** * <table class="doxtable">
 246:Generated_Source\PSoC6\pdl\drivers/peripheral/scb/cy_scb_i2c.h **** *   <tr>
 247:Generated_Source\PSoC6\pdl\drivers/peripheral/scb/cy_scb_i2c.h **** *     <th>MISRA Rule</th>
 248:Generated_Source\PSoC6\pdl\drivers/peripheral/scb/cy_scb_i2c.h **** *     <th>Rule Class (Required/Advisory)</th>
 249:Generated_Source\PSoC6\pdl\drivers/peripheral/scb/cy_scb_i2c.h **** *     <th>Rule Description</th>
 250:Generated_Source\PSoC6\pdl\drivers/peripheral/scb/cy_scb_i2c.h **** *     <th>Description of Deviation(s)</th>
 251:Generated_Source\PSoC6\pdl\drivers/peripheral/scb/cy_scb_i2c.h **** *   </tr>
 252:Generated_Source\PSoC6\pdl\drivers/peripheral/scb/cy_scb_i2c.h **** *   <tr>
 253:Generated_Source\PSoC6\pdl\drivers/peripheral/scb/cy_scb_i2c.h **** *     <td>11.4</td>
 254:Generated_Source\PSoC6\pdl\drivers/peripheral/scb/cy_scb_i2c.h **** *     <td>A</td>
 255:Generated_Source\PSoC6\pdl\drivers/peripheral/scb/cy_scb_i2c.h **** *     <td>A cast should not be performed between a pointer to object type and
 256:Generated_Source\PSoC6\pdl\drivers/peripheral/scb/cy_scb_i2c.h **** *         a different pointer to object type.</td>
 257:Generated_Source\PSoC6\pdl\drivers/peripheral/scb/cy_scb_i2c.h **** *     <td>The functions \ref Cy_SCB_I2C_DeepSleepCallback and
 258:Generated_Source\PSoC6\pdl\drivers/peripheral/scb/cy_scb_i2c.h **** *         \ref Cy_SCB_I2C_HibernateCallback are callback of
 259:Generated_Source\PSoC6\pdl\drivers/peripheral/scb/cy_scb_i2c.h **** *         \ref cy_en_syspm_status_t type. The cast operation safety in these
 260:Generated_Source\PSoC6\pdl\drivers/peripheral/scb/cy_scb_i2c.h **** *         functions becomes the user's responsibility because pointers are
 261:Generated_Source\PSoC6\pdl\drivers/peripheral/scb/cy_scb_i2c.h **** *         initialized when callback is registered in SysPm driver.</td>
 262:Generated_Source\PSoC6\pdl\drivers/peripheral/scb/cy_scb_i2c.h **** *   </tr>
 263:Generated_Source\PSoC6\pdl\drivers/peripheral/scb/cy_scb_i2c.h **** *   <tr>
 264:Generated_Source\PSoC6\pdl\drivers/peripheral/scb/cy_scb_i2c.h **** *     <td>14.1</td>
 265:Generated_Source\PSoC6\pdl\drivers/peripheral/scb/cy_scb_i2c.h **** *     <td>R</td>
 266:Generated_Source\PSoC6\pdl\drivers/peripheral/scb/cy_scb_i2c.h **** *     <td>There shall be no unreachable code.</td>
 267:Generated_Source\PSoC6\pdl\drivers/peripheral/scb/cy_scb_i2c.h **** *     <td>The SCB block parameters can be a constant false or true depends on
 268:Generated_Source\PSoC6\pdl\drivers/peripheral/scb/cy_scb_i2c.h **** *         the selected device and cause code to be unreachable.</td>
 269:Generated_Source\PSoC6\pdl\drivers/peripheral/scb/cy_scb_i2c.h **** *   </tr>
 270:Generated_Source\PSoC6\pdl\drivers/peripheral/scb/cy_scb_i2c.h **** *   <tr>
 271:Generated_Source\PSoC6\pdl\drivers/peripheral/scb/cy_scb_i2c.h **** *     <td>13.7</td>
 272:Generated_Source\PSoC6\pdl\drivers/peripheral/scb/cy_scb_i2c.h **** *     <td>R</td>
 273:Generated_Source\PSoC6\pdl\drivers/peripheral/scb/cy_scb_i2c.h **** *     <td>Boolean operations whose results are invariant shall not be
 274:Generated_Source\PSoC6\pdl\drivers/peripheral/scb/cy_scb_i2c.h **** *         permitted.</td>
 275:Generated_Source\PSoC6\pdl\drivers/peripheral/scb/cy_scb_i2c.h **** *     <td>
 276:Generated_Source\PSoC6\pdl\drivers/peripheral/scb/cy_scb_i2c.h **** *         * The SCB block parameters can be a constant false or true depends on
 277:Generated_Source\PSoC6\pdl\drivers/peripheral/scb/cy_scb_i2c.h **** *         the selected device and cause this violation.
 278:Generated_Source\PSoC6\pdl\drivers/peripheral/scb/cy_scb_i2c.h **** *         * The same condition check is executed before and after callback is
 279:Generated_Source\PSoC6\pdl\drivers/peripheral/scb/cy_scb_i2c.h **** *         called because after the callback returns, the condition might be not
 280:Generated_Source\PSoC6\pdl\drivers/peripheral/scb/cy_scb_i2c.h **** *         true any more.</td>
 281:Generated_Source\PSoC6\pdl\drivers/peripheral/scb/cy_scb_i2c.h **** *   </tr>
 282:Generated_Source\PSoC6\pdl\drivers/peripheral/scb/cy_scb_i2c.h **** *   <tr>
 283:Generated_Source\PSoC6\pdl\drivers/peripheral/scb/cy_scb_i2c.h **** *     <td>14.2</td>
 284:Generated_Source\PSoC6\pdl\drivers/peripheral/scb/cy_scb_i2c.h **** *     <td>R</td>
 285:Generated_Source\PSoC6\pdl\drivers/peripheral/scb/cy_scb_i2c.h **** *     <td>All non-null statements shall either: a) have at least one side-effect
 286:Generated_Source\PSoC6\pdl\drivers/peripheral/scb/cy_scb_i2c.h **** *         however executed, or b) cause control flow to change.</td>
 287:Generated_Source\PSoC6\pdl\drivers/peripheral/scb/cy_scb_i2c.h **** *     <td>The unused function parameters are cast to void. This statement
 288:Generated_Source\PSoC6\pdl\drivers/peripheral/scb/cy_scb_i2c.h **** *         has no side-effect and is used to suppress a compiler warning.</td>
 289:Generated_Source\PSoC6\pdl\drivers/peripheral/scb/cy_scb_i2c.h **** *   </tr>
 290:Generated_Source\PSoC6\pdl\drivers/peripheral/scb/cy_scb_i2c.h **** *   <tr>
 291:Generated_Source\PSoC6\pdl\drivers/peripheral/scb/cy_scb_i2c.h **** *     <td>14.7</td>
 292:Generated_Source\PSoC6\pdl\drivers/peripheral/scb/cy_scb_i2c.h **** *     <td>R</td>
ARM GAS  C:\Users\fiona\AppData\Local\Temp\cc5ift8g.s 			page 34


 293:Generated_Source\PSoC6\pdl\drivers/peripheral/scb/cy_scb_i2c.h **** *     <td>A function shall have a single point of exit at the end of the
 294:Generated_Source\PSoC6\pdl\drivers/peripheral/scb/cy_scb_i2c.h **** *         function.</td>
 295:Generated_Source\PSoC6\pdl\drivers/peripheral/scb/cy_scb_i2c.h **** *     <td>The functions can return from several points. This is done to improve
 296:Generated_Source\PSoC6\pdl\drivers/peripheral/scb/cy_scb_i2c.h **** *         code clarity when returning error status code if input parameters
 297:Generated_Source\PSoC6\pdl\drivers/peripheral/scb/cy_scb_i2c.h **** *         validation fails.</td>
 298:Generated_Source\PSoC6\pdl\drivers/peripheral/scb/cy_scb_i2c.h **** *   </tr>
 299:Generated_Source\PSoC6\pdl\drivers/peripheral/scb/cy_scb_i2c.h **** * </table>
 300:Generated_Source\PSoC6\pdl\drivers/peripheral/scb/cy_scb_i2c.h **** *
 301:Generated_Source\PSoC6\pdl\drivers/peripheral/scb/cy_scb_i2c.h **** * \section group_scb_i2c_changelog Changelog
 302:Generated_Source\PSoC6\pdl\drivers/peripheral/scb/cy_scb_i2c.h **** * <table class="doxtable">
 303:Generated_Source\PSoC6\pdl\drivers/peripheral/scb/cy_scb_i2c.h **** *   <tr><th>Version</th><th>Changes</th><th>Reason for Change</th></tr>
 304:Generated_Source\PSoC6\pdl\drivers/peripheral/scb/cy_scb_i2c.h **** *   <tr>
 305:Generated_Source\PSoC6\pdl\drivers/peripheral/scb/cy_scb_i2c.h **** *     <td rowspan="4"> 2.10</td>
 306:Generated_Source\PSoC6\pdl\drivers/peripheral/scb/cy_scb_i2c.h **** *     <td>Fixed the ReStart condition generation sequence for a write
 307:Generated_Source\PSoC6\pdl\drivers/peripheral/scb/cy_scb_i2c.h **** *         transaction in the \ref Cy_SCB_I2C_MasterWrite function.</td>
 308:Generated_Source\PSoC6\pdl\drivers/peripheral/scb/cy_scb_i2c.h **** *     <td>The driver can notify about a zero length write transaction completion 
 309:Generated_Source\PSoC6\pdl\drivers/peripheral/scb/cy_scb_i2c.h **** *         before the address byte is sent if the \ref Cy_SCB_I2C_MasterWrite 
 310:Generated_Source\PSoC6\pdl\drivers/peripheral/scb/cy_scb_i2c.h **** *         function execution was interrupted between setting the restart 
 311:Generated_Source\PSoC6\pdl\drivers/peripheral/scb/cy_scb_i2c.h **** *         generation command and writing the address byte into the TX FIFO.</td>
 312:Generated_Source\PSoC6\pdl\drivers/peripheral/scb/cy_scb_i2c.h **** *   </tr>
 313:Generated_Source\PSoC6\pdl\drivers/peripheral/scb/cy_scb_i2c.h **** *   <tr>
 314:Generated_Source\PSoC6\pdl\drivers/peripheral/scb/cy_scb_i2c.h **** *     <td>Added the slave- and master-specific interrupt functions:
 315:Generated_Source\PSoC6\pdl\drivers/peripheral/scb/cy_scb_i2c.h **** *         \ref Cy_SCB_I2C_SlaveInterrupt and \ref Cy_SCB_I2C_MasterInterrupt.
 316:Generated_Source\PSoC6\pdl\drivers/peripheral/scb/cy_scb_i2c.h **** *     </td>
 317:Generated_Source\PSoC6\pdl\drivers/peripheral/scb/cy_scb_i2c.h **** *     <td>Improved the interrupt configuration options for the I2C slave and
 318:Generated_Source\PSoC6\pdl\drivers/peripheral/scb/cy_scb_i2c.h **** *         master mode configurations.</td>
 319:Generated_Source\PSoC6\pdl\drivers/peripheral/scb/cy_scb_i2c.h **** *   </tr>
 320:Generated_Source\PSoC6\pdl\drivers/peripheral/scb/cy_scb_i2c.h **** *   <tr>
 321:Generated_Source\PSoC6\pdl\drivers/peripheral/scb/cy_scb_i2c.h **** *     <td>Updated the Start condition generation sequence in the \ref 
 322:Generated_Source\PSoC6\pdl\drivers/peripheral/scb/cy_scb_i2c.h **** *         Cy_SCB_I2C_MasterWrite and \ref Cy_SCB_I2C_MasterRead.</td>
 323:Generated_Source\PSoC6\pdl\drivers/peripheral/scb/cy_scb_i2c.h **** *     <td></td>
 324:Generated_Source\PSoC6\pdl\drivers/peripheral/scb/cy_scb_i2c.h **** *   </tr>
 325:Generated_Source\PSoC6\pdl\drivers/peripheral/scb/cy_scb_i2c.h **** *   <tr>
 326:Generated_Source\PSoC6\pdl\drivers/peripheral/scb/cy_scb_i2c.h **** *     <td>Updated the ReStart condition generation sequence for a write
 327:Generated_Source\PSoC6\pdl\drivers/peripheral/scb/cy_scb_i2c.h **** *         transaction in the \ref Cy_SCB_I2C_MasterSendReStart function.</td>
 328:Generated_Source\PSoC6\pdl\drivers/peripheral/scb/cy_scb_i2c.h **** *     <td></td>
 329:Generated_Source\PSoC6\pdl\drivers/peripheral/scb/cy_scb_i2c.h **** *   </tr>
 330:Generated_Source\PSoC6\pdl\drivers/peripheral/scb/cy_scb_i2c.h **** *   <tr>
 331:Generated_Source\PSoC6\pdl\drivers/peripheral/scb/cy_scb_i2c.h **** *     <td rowspan="5"> 2.0</td>
 332:Generated_Source\PSoC6\pdl\drivers/peripheral/scb/cy_scb_i2c.h **** *     <td>Fixed the \ref Cy_SCB_I2C_MasterSendReStart function to properly 
 333:Generated_Source\PSoC6\pdl\drivers/peripheral/scb/cy_scb_i2c.h **** *         generate the ReStart condition when the previous transaction was 
 334:Generated_Source\PSoC6\pdl\drivers/peripheral/scb/cy_scb_i2c.h **** *         a write.</td>
 335:Generated_Source\PSoC6\pdl\drivers/peripheral/scb/cy_scb_i2c.h **** *     <td>The master interpreted the address byte written into the TX FIFO as a
 336:Generated_Source\PSoC6\pdl\drivers/peripheral/scb/cy_scb_i2c.h **** *         data byte and continued a write transaction. The ReStart condition was
 337:Generated_Source\PSoC6\pdl\drivers/peripheral/scb/cy_scb_i2c.h **** *         generated after the master completed transferring the data byte.
 338:Generated_Source\PSoC6\pdl\drivers/peripheral/scb/cy_scb_i2c.h **** *         The SCL line was stretched by the master waiting for the address byte
 339:Generated_Source\PSoC6\pdl\drivers/peripheral/scb/cy_scb_i2c.h **** *         to be written into the TX FIFO after the ReStart condition generation.
 340:Generated_Source\PSoC6\pdl\drivers/peripheral/scb/cy_scb_i2c.h **** *         The following timeout detection released the bus from the master
 341:Generated_Source\PSoC6\pdl\drivers/peripheral/scb/cy_scb_i2c.h **** *         control.</td>
 342:Generated_Source\PSoC6\pdl\drivers/peripheral/scb/cy_scb_i2c.h **** *   </tr>
 343:Generated_Source\PSoC6\pdl\drivers/peripheral/scb/cy_scb_i2c.h **** *   <tr>
 344:Generated_Source\PSoC6\pdl\drivers/peripheral/scb/cy_scb_i2c.h **** *     <td>Fixed the slave operation after the address byte was NACKed by the
 345:Generated_Source\PSoC6\pdl\drivers/peripheral/scb/cy_scb_i2c.h **** *         firmware.</td>
 346:Generated_Source\PSoC6\pdl\drivers/peripheral/scb/cy_scb_i2c.h **** *     <td>The observed slave operation failure depends on whether Level 2 assert
 347:Generated_Source\PSoC6\pdl\drivers/peripheral/scb/cy_scb_i2c.h **** *         is enabled or not. Enabled: the device stuck in the fault handler due
 348:Generated_Source\PSoC6\pdl\drivers/peripheral/scb/cy_scb_i2c.h **** *         to the assert assignment in the \ref Cy_SCB_I2C_Interrupt. Disabled: 
 349:Generated_Source\PSoC6\pdl\drivers/peripheral/scb/cy_scb_i2c.h **** *         the slave sets the transaction completion status and notifies on the 
ARM GAS  C:\Users\fiona\AppData\Local\Temp\cc5ift8g.s 			page 35


 350:Generated_Source\PSoC6\pdl\drivers/peripheral/scb/cy_scb_i2c.h **** *         transaction completion event after the address was NACKed. The failure
 351:Generated_Source\PSoC6\pdl\drivers/peripheral/scb/cy_scb_i2c.h **** *         is observed only when the slave is configured to accept an address in 
 352:Generated_Source\PSoC6\pdl\drivers/peripheral/scb/cy_scb_i2c.h **** *         the RX FIFO.</td>
 353:Generated_Source\PSoC6\pdl\drivers/peripheral/scb/cy_scb_i2c.h **** *   </tr>
 354:Generated_Source\PSoC6\pdl\drivers/peripheral/scb/cy_scb_i2c.h **** *   <tr>
 355:Generated_Source\PSoC6\pdl\drivers/peripheral/scb/cy_scb_i2c.h **** *     <td>Added parameters validation for public API.</td>
 356:Generated_Source\PSoC6\pdl\drivers/peripheral/scb/cy_scb_i2c.h **** *     <td></td>
 357:Generated_Source\PSoC6\pdl\drivers/peripheral/scb/cy_scb_i2c.h **** *   </tr>
 358:Generated_Source\PSoC6\pdl\drivers/peripheral/scb/cy_scb_i2c.h **** *   <tr>
 359:Generated_Source\PSoC6\pdl\drivers/peripheral/scb/cy_scb_i2c.h **** *     <td>Replaced variables which have limited range of values with enumerated
 360:Generated_Source\PSoC6\pdl\drivers/peripheral/scb/cy_scb_i2c.h **** *         types.</td>
 361:Generated_Source\PSoC6\pdl\drivers/peripheral/scb/cy_scb_i2c.h **** *     <td></td>
 362:Generated_Source\PSoC6\pdl\drivers/peripheral/scb/cy_scb_i2c.h **** *   </tr>
 363:Generated_Source\PSoC6\pdl\drivers/peripheral/scb/cy_scb_i2c.h **** *   <tr>
 364:Generated_Source\PSoC6\pdl\drivers/peripheral/scb/cy_scb_i2c.h **** *     <td>Added missing "cy_cb_" to the callback function type names.</td>
 365:Generated_Source\PSoC6\pdl\drivers/peripheral/scb/cy_scb_i2c.h **** *     <td></td>
 366:Generated_Source\PSoC6\pdl\drivers/peripheral/scb/cy_scb_i2c.h **** *   </tr>
 367:Generated_Source\PSoC6\pdl\drivers/peripheral/scb/cy_scb_i2c.h **** *   <tr>
 368:Generated_Source\PSoC6\pdl\drivers/peripheral/scb/cy_scb_i2c.h **** *     <td>1.0</td>
 369:Generated_Source\PSoC6\pdl\drivers/peripheral/scb/cy_scb_i2c.h **** *     <td>Initial version.</td>
 370:Generated_Source\PSoC6\pdl\drivers/peripheral/scb/cy_scb_i2c.h **** *     <td></td>
 371:Generated_Source\PSoC6\pdl\drivers/peripheral/scb/cy_scb_i2c.h **** *   </tr>
 372:Generated_Source\PSoC6\pdl\drivers/peripheral/scb/cy_scb_i2c.h **** * </table>
 373:Generated_Source\PSoC6\pdl\drivers/peripheral/scb/cy_scb_i2c.h **** *
 374:Generated_Source\PSoC6\pdl\drivers/peripheral/scb/cy_scb_i2c.h **** * \defgroup group_scb_i2c_macros Macros
 375:Generated_Source\PSoC6\pdl\drivers/peripheral/scb/cy_scb_i2c.h **** * \defgroup group_scb_i2c_functions Functions
 376:Generated_Source\PSoC6\pdl\drivers/peripheral/scb/cy_scb_i2c.h **** * \{
 377:Generated_Source\PSoC6\pdl\drivers/peripheral/scb/cy_scb_i2c.h **** * \defgroup group_scb_i2c_general_functions General
 378:Generated_Source\PSoC6\pdl\drivers/peripheral/scb/cy_scb_i2c.h **** * \defgroup group_scb_i2c_slave_functions Slave
 379:Generated_Source\PSoC6\pdl\drivers/peripheral/scb/cy_scb_i2c.h **** * \defgroup group_scb_i2c_master_high_level_functions Master High-Level
 380:Generated_Source\PSoC6\pdl\drivers/peripheral/scb/cy_scb_i2c.h **** * \defgroup group_scb_i2c_master_low_level_functions Master Low-Level
 381:Generated_Source\PSoC6\pdl\drivers/peripheral/scb/cy_scb_i2c.h **** * \defgroup group_scb_i2c_interrupt_functions Interrupt
 382:Generated_Source\PSoC6\pdl\drivers/peripheral/scb/cy_scb_i2c.h **** * \defgroup group_scb_i2c_low_power_functions Low Power Callbacks
 383:Generated_Source\PSoC6\pdl\drivers/peripheral/scb/cy_scb_i2c.h **** * \}
 384:Generated_Source\PSoC6\pdl\drivers/peripheral/scb/cy_scb_i2c.h **** * \defgroup group_scb_i2c_data_structures Data Structures
 385:Generated_Source\PSoC6\pdl\drivers/peripheral/scb/cy_scb_i2c.h **** * \defgroup group_scb_i2c_enums Enumerated Types
 386:Generated_Source\PSoC6\pdl\drivers/peripheral/scb/cy_scb_i2c.h **** */
 387:Generated_Source\PSoC6\pdl\drivers/peripheral/scb/cy_scb_i2c.h **** 
 388:Generated_Source\PSoC6\pdl\drivers/peripheral/scb/cy_scb_i2c.h **** #if !defined(CY_SCB_I2C_H)
 389:Generated_Source\PSoC6\pdl\drivers/peripheral/scb/cy_scb_i2c.h **** #define CY_SCB_I2C_H
 390:Generated_Source\PSoC6\pdl\drivers/peripheral/scb/cy_scb_i2c.h **** 
 391:Generated_Source\PSoC6\pdl\drivers/peripheral/scb/cy_scb_i2c.h **** #include "cy_scb_common.h"
 392:Generated_Source\PSoC6\pdl\drivers/peripheral/scb/cy_scb_i2c.h **** 
 393:Generated_Source\PSoC6\pdl\drivers/peripheral/scb/cy_scb_i2c.h **** #if defined(__cplusplus)
 394:Generated_Source\PSoC6\pdl\drivers/peripheral/scb/cy_scb_i2c.h **** extern "C" {
 395:Generated_Source\PSoC6\pdl\drivers/peripheral/scb/cy_scb_i2c.h **** #endif
 396:Generated_Source\PSoC6\pdl\drivers/peripheral/scb/cy_scb_i2c.h **** 
 397:Generated_Source\PSoC6\pdl\drivers/peripheral/scb/cy_scb_i2c.h **** /***************************************
 398:Generated_Source\PSoC6\pdl\drivers/peripheral/scb/cy_scb_i2c.h **** *          Enumerated Types
 399:Generated_Source\PSoC6\pdl\drivers/peripheral/scb/cy_scb_i2c.h **** ***************************************/
 400:Generated_Source\PSoC6\pdl\drivers/peripheral/scb/cy_scb_i2c.h **** 
 401:Generated_Source\PSoC6\pdl\drivers/peripheral/scb/cy_scb_i2c.h **** /**
 402:Generated_Source\PSoC6\pdl\drivers/peripheral/scb/cy_scb_i2c.h **** * \addtogroup group_scb_i2c_enums
 403:Generated_Source\PSoC6\pdl\drivers/peripheral/scb/cy_scb_i2c.h **** * \{
 404:Generated_Source\PSoC6\pdl\drivers/peripheral/scb/cy_scb_i2c.h **** */
 405:Generated_Source\PSoC6\pdl\drivers/peripheral/scb/cy_scb_i2c.h **** 
 406:Generated_Source\PSoC6\pdl\drivers/peripheral/scb/cy_scb_i2c.h **** /** I2C status codes */
ARM GAS  C:\Users\fiona\AppData\Local\Temp\cc5ift8g.s 			page 36


 407:Generated_Source\PSoC6\pdl\drivers/peripheral/scb/cy_scb_i2c.h **** typedef enum
 408:Generated_Source\PSoC6\pdl\drivers/peripheral/scb/cy_scb_i2c.h **** {
 409:Generated_Source\PSoC6\pdl\drivers/peripheral/scb/cy_scb_i2c.h ****     /** Operation completed successfully */
 410:Generated_Source\PSoC6\pdl\drivers/peripheral/scb/cy_scb_i2c.h ****     CY_SCB_I2C_SUCCESS = 0U,
 411:Generated_Source\PSoC6\pdl\drivers/peripheral/scb/cy_scb_i2c.h **** 
 412:Generated_Source\PSoC6\pdl\drivers/peripheral/scb/cy_scb_i2c.h ****     /** One or more of input parameters are invalid */
 413:Generated_Source\PSoC6\pdl\drivers/peripheral/scb/cy_scb_i2c.h ****     CY_SCB_I2C_BAD_PARAM = (CY_SCB_ID | CY_PDL_STATUS_ERROR | CY_SCB_I2C_ID | 1U),
 414:Generated_Source\PSoC6\pdl\drivers/peripheral/scb/cy_scb_i2c.h **** 
 415:Generated_Source\PSoC6\pdl\drivers/peripheral/scb/cy_scb_i2c.h ****     /**
 416:Generated_Source\PSoC6\pdl\drivers/peripheral/scb/cy_scb_i2c.h ****     * The master is not ready to start a new transaction.
 417:Generated_Source\PSoC6\pdl\drivers/peripheral/scb/cy_scb_i2c.h ****     * Either the master is still processing a previous transaction or in the
 418:Generated_Source\PSoC6\pdl\drivers/peripheral/scb/cy_scb_i2c.h ****     * master-slave mode, the slave operation is in progress. Call this function
 419:Generated_Source\PSoC6\pdl\drivers/peripheral/scb/cy_scb_i2c.h ****     * again after that operation is completed or aborted.
 420:Generated_Source\PSoC6\pdl\drivers/peripheral/scb/cy_scb_i2c.h ****     */
 421:Generated_Source\PSoC6\pdl\drivers/peripheral/scb/cy_scb_i2c.h ****     CY_SCB_I2C_MASTER_NOT_READY = (CY_SCB_ID | CY_PDL_STATUS_ERROR | CY_SCB_I2C_ID | 2U),
 422:Generated_Source\PSoC6\pdl\drivers/peripheral/scb/cy_scb_i2c.h **** 
 423:Generated_Source\PSoC6\pdl\drivers/peripheral/scb/cy_scb_i2c.h ****     /**
 424:Generated_Source\PSoC6\pdl\drivers/peripheral/scb/cy_scb_i2c.h ****     * The master operation timed out before completing. Applicable only for
 425:Generated_Source\PSoC6\pdl\drivers/peripheral/scb/cy_scb_i2c.h ****     * the \ref group_scb_i2c_master_low_level_functions functions.
 426:Generated_Source\PSoC6\pdl\drivers/peripheral/scb/cy_scb_i2c.h ****     */
 427:Generated_Source\PSoC6\pdl\drivers/peripheral/scb/cy_scb_i2c.h ****     CY_SCB_I2C_MASTER_MANUAL_TIMEOUT = (CY_SCB_ID | CY_PDL_STATUS_ERROR | CY_SCB_I2C_ID | 3U),
 428:Generated_Source\PSoC6\pdl\drivers/peripheral/scb/cy_scb_i2c.h **** 
 429:Generated_Source\PSoC6\pdl\drivers/peripheral/scb/cy_scb_i2c.h ****     /** The slave NACKed the address. Applicable only for the
 430:Generated_Source\PSoC6\pdl\drivers/peripheral/scb/cy_scb_i2c.h ****     * \ref group_scb_i2c_master_low_level_functions functions.
 431:Generated_Source\PSoC6\pdl\drivers/peripheral/scb/cy_scb_i2c.h ****     */
 432:Generated_Source\PSoC6\pdl\drivers/peripheral/scb/cy_scb_i2c.h ****     CY_SCB_I2C_MASTER_MANUAL_ADDR_NAK = (CY_SCB_ID | CY_PDL_STATUS_ERROR | CY_SCB_I2C_ID | 4U),
 433:Generated_Source\PSoC6\pdl\drivers/peripheral/scb/cy_scb_i2c.h **** 
 434:Generated_Source\PSoC6\pdl\drivers/peripheral/scb/cy_scb_i2c.h ****     /** The slave NACKed the data byte.  Applicable only for the
 435:Generated_Source\PSoC6\pdl\drivers/peripheral/scb/cy_scb_i2c.h ****     * \ref group_scb_i2c_master_low_level_functions.
 436:Generated_Source\PSoC6\pdl\drivers/peripheral/scb/cy_scb_i2c.h ****     */
 437:Generated_Source\PSoC6\pdl\drivers/peripheral/scb/cy_scb_i2c.h ****     CY_SCB_I2C_MASTER_MANUAL_NAK = (CY_SCB_ID | CY_PDL_STATUS_ERROR | CY_SCB_I2C_ID | 5U),
 438:Generated_Source\PSoC6\pdl\drivers/peripheral/scb/cy_scb_i2c.h **** 
 439:Generated_Source\PSoC6\pdl\drivers/peripheral/scb/cy_scb_i2c.h ****     /**
 440:Generated_Source\PSoC6\pdl\drivers/peripheral/scb/cy_scb_i2c.h ****     * The master lost arbitration, the transaction was aborted. Applicable only
 441:Generated_Source\PSoC6\pdl\drivers/peripheral/scb/cy_scb_i2c.h ****     * for the \ref group_scb_i2c_master_low_level_functions functions.
 442:Generated_Source\PSoC6\pdl\drivers/peripheral/scb/cy_scb_i2c.h ****     */
 443:Generated_Source\PSoC6\pdl\drivers/peripheral/scb/cy_scb_i2c.h ****     CY_SCB_I2C_MASTER_MANUAL_ARB_LOST = (CY_SCB_ID | CY_PDL_STATUS_ERROR | CY_SCB_I2C_ID | 6U),
 444:Generated_Source\PSoC6\pdl\drivers/peripheral/scb/cy_scb_i2c.h **** 
 445:Generated_Source\PSoC6\pdl\drivers/peripheral/scb/cy_scb_i2c.h ****     /**
 446:Generated_Source\PSoC6\pdl\drivers/peripheral/scb/cy_scb_i2c.h ****     * The master detected an erroneous start or stop, the transaction was
 447:Generated_Source\PSoC6\pdl\drivers/peripheral/scb/cy_scb_i2c.h ****     * aborted. Applicable only for the
 448:Generated_Source\PSoC6\pdl\drivers/peripheral/scb/cy_scb_i2c.h ****     * \ref group_scb_i2c_master_low_level_functions functions.
 449:Generated_Source\PSoC6\pdl\drivers/peripheral/scb/cy_scb_i2c.h ****     */
 450:Generated_Source\PSoC6\pdl\drivers/peripheral/scb/cy_scb_i2c.h ****     CY_SCB_I2C_MASTER_MANUAL_BUS_ERR = (CY_SCB_ID | CY_PDL_STATUS_ERROR | CY_SCB_I2C_ID | 7U),
 451:Generated_Source\PSoC6\pdl\drivers/peripheral/scb/cy_scb_i2c.h **** 
 452:Generated_Source\PSoC6\pdl\drivers/peripheral/scb/cy_scb_i2c.h ****     /**
 453:Generated_Source\PSoC6\pdl\drivers/peripheral/scb/cy_scb_i2c.h ****     * The master transaction was aborted and the slave transaction is on-going
 454:Generated_Source\PSoC6\pdl\drivers/peripheral/scb/cy_scb_i2c.h ****     * because the slave was addressed before the master generated a start.
 455:Generated_Source\PSoC6\pdl\drivers/peripheral/scb/cy_scb_i2c.h ****     * Applicable only for the \ref group_scb_i2c_master_low_level_functions
 456:Generated_Source\PSoC6\pdl\drivers/peripheral/scb/cy_scb_i2c.h ****     * functions.
 457:Generated_Source\PSoC6\pdl\drivers/peripheral/scb/cy_scb_i2c.h ****     */
 458:Generated_Source\PSoC6\pdl\drivers/peripheral/scb/cy_scb_i2c.h ****     CY_SCB_I2C_MASTER_MANUAL_ABORT_START = (CY_SCB_ID | CY_PDL_STATUS_ERROR | CY_SCB_I2C_ID | 8U)
 459:Generated_Source\PSoC6\pdl\drivers/peripheral/scb/cy_scb_i2c.h **** } cy_en_scb_i2c_status_t;
 460:Generated_Source\PSoC6\pdl\drivers/peripheral/scb/cy_scb_i2c.h **** 
 461:Generated_Source\PSoC6\pdl\drivers/peripheral/scb/cy_scb_i2c.h **** /** I2C Operation Modes */
 462:Generated_Source\PSoC6\pdl\drivers/peripheral/scb/cy_scb_i2c.h **** typedef enum
 463:Generated_Source\PSoC6\pdl\drivers/peripheral/scb/cy_scb_i2c.h **** {
ARM GAS  C:\Users\fiona\AppData\Local\Temp\cc5ift8g.s 			page 37


 464:Generated_Source\PSoC6\pdl\drivers/peripheral/scb/cy_scb_i2c.h ****     CY_SCB_I2C_SLAVE        = 1U,    /**< Configures SCB for I2C Slave operation */
 465:Generated_Source\PSoC6\pdl\drivers/peripheral/scb/cy_scb_i2c.h ****     CY_SCB_I2C_MASTER       = 2U,    /**< Configures SCB for I2C Master operation */
 466:Generated_Source\PSoC6\pdl\drivers/peripheral/scb/cy_scb_i2c.h ****     CY_SCB_I2C_MASTER_SLAVE = 3U,    /**< Configures SCB for I2C Master-Slave operation */
 467:Generated_Source\PSoC6\pdl\drivers/peripheral/scb/cy_scb_i2c.h **** } cy_en_scb_i2c_mode_t;
 468:Generated_Source\PSoC6\pdl\drivers/peripheral/scb/cy_scb_i2c.h **** 
 469:Generated_Source\PSoC6\pdl\drivers/peripheral/scb/cy_scb_i2c.h **** /** I2C Transaction Direction */
 470:Generated_Source\PSoC6\pdl\drivers/peripheral/scb/cy_scb_i2c.h **** typedef enum
 471:Generated_Source\PSoC6\pdl\drivers/peripheral/scb/cy_scb_i2c.h **** {
 472:Generated_Source\PSoC6\pdl\drivers/peripheral/scb/cy_scb_i2c.h ****     CY_SCB_I2C_WRITE_XFER = 0U,  /**< Current transaction is Write */
 473:Generated_Source\PSoC6\pdl\drivers/peripheral/scb/cy_scb_i2c.h ****     CY_SCB_I2C_READ_XFER  = 1U,  /**< Current transaction is Read */
 474:Generated_Source\PSoC6\pdl\drivers/peripheral/scb/cy_scb_i2c.h **** } cy_en_scb_i2c_direction_t;
 475:Generated_Source\PSoC6\pdl\drivers/peripheral/scb/cy_scb_i2c.h **** 
 476:Generated_Source\PSoC6\pdl\drivers/peripheral/scb/cy_scb_i2c.h **** /** I2C Command ACK / NAK */
 477:Generated_Source\PSoC6\pdl\drivers/peripheral/scb/cy_scb_i2c.h **** typedef enum
 478:Generated_Source\PSoC6\pdl\drivers/peripheral/scb/cy_scb_i2c.h **** {
 479:Generated_Source\PSoC6\pdl\drivers/peripheral/scb/cy_scb_i2c.h ****     CY_SCB_I2C_ACK,     /**< Send ACK to current byte */
 480:Generated_Source\PSoC6\pdl\drivers/peripheral/scb/cy_scb_i2c.h ****     CY_SCB_I2C_NAK,     /**< Send NAK to current byte */
 481:Generated_Source\PSoC6\pdl\drivers/peripheral/scb/cy_scb_i2c.h **** } cy_en_scb_i2c_command_t;
 482:Generated_Source\PSoC6\pdl\drivers/peripheral/scb/cy_scb_i2c.h **** /** \} group_scb_i2c_enums */
 483:Generated_Source\PSoC6\pdl\drivers/peripheral/scb/cy_scb_i2c.h **** 
 484:Generated_Source\PSoC6\pdl\drivers/peripheral/scb/cy_scb_i2c.h **** 
 485:Generated_Source\PSoC6\pdl\drivers/peripheral/scb/cy_scb_i2c.h **** /***************************************
 486:Generated_Source\PSoC6\pdl\drivers/peripheral/scb/cy_scb_i2c.h **** *       Type Definitions
 487:Generated_Source\PSoC6\pdl\drivers/peripheral/scb/cy_scb_i2c.h **** ***************************************/
 488:Generated_Source\PSoC6\pdl\drivers/peripheral/scb/cy_scb_i2c.h **** 
 489:Generated_Source\PSoC6\pdl\drivers/peripheral/scb/cy_scb_i2c.h **** /**
 490:Generated_Source\PSoC6\pdl\drivers/peripheral/scb/cy_scb_i2c.h **** * \addtogroup group_scb_i2c_data_structures
 491:Generated_Source\PSoC6\pdl\drivers/peripheral/scb/cy_scb_i2c.h **** * \{
 492:Generated_Source\PSoC6\pdl\drivers/peripheral/scb/cy_scb_i2c.h **** */
 493:Generated_Source\PSoC6\pdl\drivers/peripheral/scb/cy_scb_i2c.h **** 
 494:Generated_Source\PSoC6\pdl\drivers/peripheral/scb/cy_scb_i2c.h **** /**
 495:Generated_Source\PSoC6\pdl\drivers/peripheral/scb/cy_scb_i2c.h **** * Provides the typedef for the callback function called in the
 496:Generated_Source\PSoC6\pdl\drivers/peripheral/scb/cy_scb_i2c.h **** * \ref Cy_SCB_I2C_Interrupt to notify the user about occurrences of
 497:Generated_Source\PSoC6\pdl\drivers/peripheral/scb/cy_scb_i2c.h **** * \ref group_scb_i2c_macros_callback_events.
 498:Generated_Source\PSoC6\pdl\drivers/peripheral/scb/cy_scb_i2c.h **** */
 499:Generated_Source\PSoC6\pdl\drivers/peripheral/scb/cy_scb_i2c.h **** typedef void (* cy_cb_scb_i2c_handle_events_t)(uint32_t event);
 500:Generated_Source\PSoC6\pdl\drivers/peripheral/scb/cy_scb_i2c.h **** 
 501:Generated_Source\PSoC6\pdl\drivers/peripheral/scb/cy_scb_i2c.h **** /**
 502:Generated_Source\PSoC6\pdl\drivers/peripheral/scb/cy_scb_i2c.h **** * Provides the typedef for the callback function called in the
 503:Generated_Source\PSoC6\pdl\drivers/peripheral/scb/cy_scb_i2c.h **** * \ref Cy_SCB_I2C_Interrupt to notify the user about occurrences of
 504:Generated_Source\PSoC6\pdl\drivers/peripheral/scb/cy_scb_i2c.h **** * \ref group_scb_i2c_macros_addr_callback_events.
 505:Generated_Source\PSoC6\pdl\drivers/peripheral/scb/cy_scb_i2c.h **** * This callback must return a decision to ACK (continue transaction) or
 506:Generated_Source\PSoC6\pdl\drivers/peripheral/scb/cy_scb_i2c.h **** * NAK (end transaction) the received address.
 507:Generated_Source\PSoC6\pdl\drivers/peripheral/scb/cy_scb_i2c.h **** * Note if the slave is configured to accept an address in RX FIFO, it must read
 508:Generated_Source\PSoC6\pdl\drivers/peripheral/scb/cy_scb_i2c.h **** * from it using the \ref Cy_SCB_ReadRxFifo function.
 509:Generated_Source\PSoC6\pdl\drivers/peripheral/scb/cy_scb_i2c.h **** */
 510:Generated_Source\PSoC6\pdl\drivers/peripheral/scb/cy_scb_i2c.h **** typedef cy_en_scb_i2c_command_t (* cy_cb_scb_i2c_handle_addr_t)(uint32_t event);
 511:Generated_Source\PSoC6\pdl\drivers/peripheral/scb/cy_scb_i2c.h **** 
 512:Generated_Source\PSoC6\pdl\drivers/peripheral/scb/cy_scb_i2c.h **** /** I2C configuration structure */
 513:Generated_Source\PSoC6\pdl\drivers/peripheral/scb/cy_scb_i2c.h **** typedef struct cy_stc_scb_i2c_config
 514:Generated_Source\PSoC6\pdl\drivers/peripheral/scb/cy_scb_i2c.h **** {
 515:Generated_Source\PSoC6\pdl\drivers/peripheral/scb/cy_scb_i2c.h ****     /** Specifies the mode of operation */
 516:Generated_Source\PSoC6\pdl\drivers/peripheral/scb/cy_scb_i2c.h ****     cy_en_scb_i2c_mode_t i2cMode;
 517:Generated_Source\PSoC6\pdl\drivers/peripheral/scb/cy_scb_i2c.h **** 
 518:Generated_Source\PSoC6\pdl\drivers/peripheral/scb/cy_scb_i2c.h ****     /**
 519:Generated_Source\PSoC6\pdl\drivers/peripheral/scb/cy_scb_i2c.h ****     * The SCB provides an RX FIFO in hardware (consult the selected device
 520:Generated_Source\PSoC6\pdl\drivers/peripheral/scb/cy_scb_i2c.h ****     * datasheet to get the actual FIFO size). The useRxFifo field defines
ARM GAS  C:\Users\fiona\AppData\Local\Temp\cc5ift8g.s 			page 38


 521:Generated_Source\PSoC6\pdl\drivers/peripheral/scb/cy_scb_i2c.h ****     * how the driver firmware reads data from the RX FIFO:
 522:Generated_Source\PSoC6\pdl\drivers/peripheral/scb/cy_scb_i2c.h ****     * * If this option is enabled, the hardware is configured to automatically
 523:Generated_Source\PSoC6\pdl\drivers/peripheral/scb/cy_scb_i2c.h ****     *   ACK incoming data, and interrupt is enabled to take data out of the RX
 524:Generated_Source\PSoC6\pdl\drivers/peripheral/scb/cy_scb_i2c.h ****     *   FIFO when it has some number of bytes (typically, when it is half full).
 525:Generated_Source\PSoC6\pdl\drivers/peripheral/scb/cy_scb_i2c.h ****     * * If this option is disabled, the interrupt is enabled to take data out of
 526:Generated_Source\PSoC6\pdl\drivers/peripheral/scb/cy_scb_i2c.h ****     *   the RX FIFO when a byte is available. Also, hardware does not
 527:Generated_Source\PSoC6\pdl\drivers/peripheral/scb/cy_scb_i2c.h ****     *   automatically ACK the data. Firmware must tell the hardware to ACK
 528:Generated_Source\PSoC6\pdl\drivers/peripheral/scb/cy_scb_i2c.h ****     *   the byte (so each byte requires interrupt processing).
 529:Generated_Source\PSoC6\pdl\drivers/peripheral/scb/cy_scb_i2c.h ****     * \n <b>Typically, this option should be enabled</b> to configure hardware to
 530:Generated_Source\PSoC6\pdl\drivers/peripheral/scb/cy_scb_i2c.h ****     * automatically ACK incoming data. Otherwise hardware might not get the command
 531:Generated_Source\PSoC6\pdl\drivers/peripheral/scb/cy_scb_i2c.h ****     * to ACK or NACK a byte fast enough, and clock stretching is applied
 532:Generated_Source\PSoC6\pdl\drivers/peripheral/scb/cy_scb_i2c.h ****     * (the transaction is delayed) until the command is set. When this option is
 533:Generated_Source\PSoC6\pdl\drivers/peripheral/scb/cy_scb_i2c.h ****     * enabled, the number of interrupts required to process the transaction
 534:Generated_Source\PSoC6\pdl\drivers/peripheral/scb/cy_scb_i2c.h ****     * is significantly reduced because several bytes are handled at once.
 535:Generated_Source\PSoC6\pdl\drivers/peripheral/scb/cy_scb_i2c.h ****     * \n <b>However, there is a side effect:</b>
 536:Generated_Source\PSoC6\pdl\drivers/peripheral/scb/cy_scb_i2c.h ****     * * For master mode, the drawback is that the master may receive more
 537:Generated_Source\PSoC6\pdl\drivers/peripheral/scb/cy_scb_i2c.h ****     *   data than desired due to the interrupt latency. An interrupt fires
 538:Generated_Source\PSoC6\pdl\drivers/peripheral/scb/cy_scb_i2c.h ****     *   when the second-to-last byte has been received. This interrupt tells
 539:Generated_Source\PSoC6\pdl\drivers/peripheral/scb/cy_scb_i2c.h ****     *   the hardware to stop receiving data. If the latency of this interrupt
 540:Generated_Source\PSoC6\pdl\drivers/peripheral/scb/cy_scb_i2c.h ****     *   is longer than one transaction of the byte on the I2C bus, then the
 541:Generated_Source\PSoC6\pdl\drivers/peripheral/scb/cy_scb_i2c.h ****     *   hardware automatically ACKs the following bytes until the interrupt
 542:Generated_Source\PSoC6\pdl\drivers/peripheral/scb/cy_scb_i2c.h ****     *   is serviced or the RX FIFO becomes full.
 543:Generated_Source\PSoC6\pdl\drivers/peripheral/scb/cy_scb_i2c.h ****     * * For slave mode, the drawback is that the slave only NACKs
 544:Generated_Source\PSoC6\pdl\drivers/peripheral/scb/cy_scb_i2c.h ****     *   the master when the RX FIFO becomes full, NOT when the slave write
 545:Generated_Source\PSoC6\pdl\drivers/peripheral/scb/cy_scb_i2c.h ****     *   firmware buffer becomes full.
 546:Generated_Source\PSoC6\pdl\drivers/peripheral/scb/cy_scb_i2c.h ****     * \n In either master or slave mode, all received extra bytes are dropped.
 547:Generated_Source\PSoC6\pdl\drivers/peripheral/scb/cy_scb_i2c.h ****     * \note The useRxFifo option is not available if acceptAddrInFifo is true.
 548:Generated_Source\PSoC6\pdl\drivers/peripheral/scb/cy_scb_i2c.h ****     */
 549:Generated_Source\PSoC6\pdl\drivers/peripheral/scb/cy_scb_i2c.h ****     bool useRxFifo;
 550:Generated_Source\PSoC6\pdl\drivers/peripheral/scb/cy_scb_i2c.h **** 
 551:Generated_Source\PSoC6\pdl\drivers/peripheral/scb/cy_scb_i2c.h ****     /**
 552:Generated_Source\PSoC6\pdl\drivers/peripheral/scb/cy_scb_i2c.h ****     * The SCB provides a TX FIFO in hardware (consult the selected device
 553:Generated_Source\PSoC6\pdl\drivers/peripheral/scb/cy_scb_i2c.h ****     * datasheet to get the actual FIFO size). The useTxFifo option defines how the
 554:Generated_Source\PSoC6\pdl\drivers/peripheral/scb/cy_scb_i2c.h ****     * driver firmware loads data into the TX FIFO:
 555:Generated_Source\PSoC6\pdl\drivers/peripheral/scb/cy_scb_i2c.h ****     * * If this option is enabled, the TX FIFO is fully loaded with data and the
 556:Generated_Source\PSoC6\pdl\drivers/peripheral/scb/cy_scb_i2c.h ****     *   interrupt is enabled to keep the TX FIFO loaded until the end of the transaction.
 557:Generated_Source\PSoC6\pdl\drivers/peripheral/scb/cy_scb_i2c.h ****     * * If this option is disabled, a single byte is loaded into the TX FIFO and
 558:Generated_Source\PSoC6\pdl\drivers/peripheral/scb/cy_scb_i2c.h ****     *   the interrupt enabled to load the next byte when the TX FIFO becomes empty
 559:Generated_Source\PSoC6\pdl\drivers/peripheral/scb/cy_scb_i2c.h ****     *   (so each byte requires interrupt processing).
 560:Generated_Source\PSoC6\pdl\drivers/peripheral/scb/cy_scb_i2c.h ****     * \n <b>Typically, this option should be enabled</b> to keep the TX FIFO loaded with
 561:Generated_Source\PSoC6\pdl\drivers/peripheral/scb/cy_scb_i2c.h ****     * data and reduce the probability of clock stretching. When there is no data
 562:Generated_Source\PSoC6\pdl\drivers/peripheral/scb/cy_scb_i2c.h ****     * to transaction, clock stretching is applied (the transaction is delayed) until
 563:Generated_Source\PSoC6\pdl\drivers/peripheral/scb/cy_scb_i2c.h ****     * the data is loaded. When this option is enabled, the number of interrupts required
 564:Generated_Source\PSoC6\pdl\drivers/peripheral/scb/cy_scb_i2c.h ****     * to process the transaction is significantly reduced because several
 565:Generated_Source\PSoC6\pdl\drivers/peripheral/scb/cy_scb_i2c.h ****     * bytes are handled at once.
 566:Generated_Source\PSoC6\pdl\drivers/peripheral/scb/cy_scb_i2c.h ****     * \n <b>The drawback of enabling useTxFifo</b> is that the abort operation clears
 567:Generated_Source\PSoC6\pdl\drivers/peripheral/scb/cy_scb_i2c.h ****     * the TX FIFO. The TX FIFO clear operation also clears the shift
 568:Generated_Source\PSoC6\pdl\drivers/peripheral/scb/cy_scb_i2c.h ****     * register. As a result the shifter may be cleared in the middle of a byte
 569:Generated_Source\PSoC6\pdl\drivers/peripheral/scb/cy_scb_i2c.h ****     * transaction, corrupting it. The remaining bits to transaction within the
 570:Generated_Source\PSoC6\pdl\drivers/peripheral/scb/cy_scb_i2c.h ****     * corrupted byte are complemented with 1s. If this is an issue,
 571:Generated_Source\PSoC6\pdl\drivers/peripheral/scb/cy_scb_i2c.h ****     * then do not enable this option.
 572:Generated_Source\PSoC6\pdl\drivers/peripheral/scb/cy_scb_i2c.h ****     */
 573:Generated_Source\PSoC6\pdl\drivers/peripheral/scb/cy_scb_i2c.h ****     bool useTxFifo;
 574:Generated_Source\PSoC6\pdl\drivers/peripheral/scb/cy_scb_i2c.h **** 
 575:Generated_Source\PSoC6\pdl\drivers/peripheral/scb/cy_scb_i2c.h ****     /**
 576:Generated_Source\PSoC6\pdl\drivers/peripheral/scb/cy_scb_i2c.h ****     * The 7-bit right justified slave address, used only for the slave mode
 577:Generated_Source\PSoC6\pdl\drivers/peripheral/scb/cy_scb_i2c.h ****     */
ARM GAS  C:\Users\fiona\AppData\Local\Temp\cc5ift8g.s 			page 39


 578:Generated_Source\PSoC6\pdl\drivers/peripheral/scb/cy_scb_i2c.h ****     uint8_t slaveAddress;
 579:Generated_Source\PSoC6\pdl\drivers/peripheral/scb/cy_scb_i2c.h **** 
 580:Generated_Source\PSoC6\pdl\drivers/peripheral/scb/cy_scb_i2c.h ****     /**
 581:Generated_Source\PSoC6\pdl\drivers/peripheral/scb/cy_scb_i2c.h ****     * The slave address mask, bit 0, must always be 0. It is used only for the
 582:Generated_Source\PSoC6\pdl\drivers/peripheral/scb/cy_scb_i2c.h ****     * slave mode
 583:Generated_Source\PSoC6\pdl\drivers/peripheral/scb/cy_scb_i2c.h ****     */
 584:Generated_Source\PSoC6\pdl\drivers/peripheral/scb/cy_scb_i2c.h ****     uint8_t slaveAddressMask;
 585:Generated_Source\PSoC6\pdl\drivers/peripheral/scb/cy_scb_i2c.h **** 
 586:Generated_Source\PSoC6\pdl\drivers/peripheral/scb/cy_scb_i2c.h ****     /**
 587:Generated_Source\PSoC6\pdl\drivers/peripheral/scb/cy_scb_i2c.h ****     * True - the slave address is accepted in the RX FIFO, false - the slave
 588:Generated_Source\PSoC6\pdl\drivers/peripheral/scb/cy_scb_i2c.h ****     * addresses are not accepted in the RX FIFO
 589:Generated_Source\PSoC6\pdl\drivers/peripheral/scb/cy_scb_i2c.h ****     */
 590:Generated_Source\PSoC6\pdl\drivers/peripheral/scb/cy_scb_i2c.h ****     bool acceptAddrInFifo;
 591:Generated_Source\PSoC6\pdl\drivers/peripheral/scb/cy_scb_i2c.h **** 
 592:Generated_Source\PSoC6\pdl\drivers/peripheral/scb/cy_scb_i2c.h ****     /**
 593:Generated_Source\PSoC6\pdl\drivers/peripheral/scb/cy_scb_i2c.h ****     * True - accept the general call address; false - ignore the general
 594:Generated_Source\PSoC6\pdl\drivers/peripheral/scb/cy_scb_i2c.h ****     * call address.
 595:Generated_Source\PSoC6\pdl\drivers/peripheral/scb/cy_scb_i2c.h ****     */
 596:Generated_Source\PSoC6\pdl\drivers/peripheral/scb/cy_scb_i2c.h ****     bool ackGeneralAddr;
 597:Generated_Source\PSoC6\pdl\drivers/peripheral/scb/cy_scb_i2c.h **** 
 598:Generated_Source\PSoC6\pdl\drivers/peripheral/scb/cy_scb_i2c.h ****     /**
 599:Generated_Source\PSoC6\pdl\drivers/peripheral/scb/cy_scb_i2c.h ****     * When set, the slave will wake the device from Deep Sleep on an address
 600:Generated_Source\PSoC6\pdl\drivers/peripheral/scb/cy_scb_i2c.h ****     * match (the device datasheet must be consulted to determine which SCBs
 601:Generated_Source\PSoC6\pdl\drivers/peripheral/scb/cy_scb_i2c.h ****     * support this mode)
 602:Generated_Source\PSoC6\pdl\drivers/peripheral/scb/cy_scb_i2c.h ****     */
 603:Generated_Source\PSoC6\pdl\drivers/peripheral/scb/cy_scb_i2c.h ****     bool enableWakeFromSleep;
 604:Generated_Source\PSoC6\pdl\drivers/peripheral/scb/cy_scb_i2c.h **** } cy_stc_scb_i2c_config_t;
 605:Generated_Source\PSoC6\pdl\drivers/peripheral/scb/cy_scb_i2c.h **** 
 606:Generated_Source\PSoC6\pdl\drivers/peripheral/scb/cy_scb_i2c.h **** /** I2C context structure.
 607:Generated_Source\PSoC6\pdl\drivers/peripheral/scb/cy_scb_i2c.h **** * All fields for the context structure are internal. Firmware never reads or
 608:Generated_Source\PSoC6\pdl\drivers/peripheral/scb/cy_scb_i2c.h **** * writes these values. Firmware allocates the structure and provides the
 609:Generated_Source\PSoC6\pdl\drivers/peripheral/scb/cy_scb_i2c.h **** * address of the structure to the driver in function calls. Firmware must
 610:Generated_Source\PSoC6\pdl\drivers/peripheral/scb/cy_scb_i2c.h **** * ensure that the defined instance of this structure remains in scope
 611:Generated_Source\PSoC6\pdl\drivers/peripheral/scb/cy_scb_i2c.h **** * while the drive is in use.
 612:Generated_Source\PSoC6\pdl\drivers/peripheral/scb/cy_scb_i2c.h **** */
 613:Generated_Source\PSoC6\pdl\drivers/peripheral/scb/cy_scb_i2c.h **** typedef struct cy_stc_scb_i2c_context
 614:Generated_Source\PSoC6\pdl\drivers/peripheral/scb/cy_scb_i2c.h **** {
 615:Generated_Source\PSoC6\pdl\drivers/peripheral/scb/cy_scb_i2c.h ****     /** \cond INTERNAL */
 616:Generated_Source\PSoC6\pdl\drivers/peripheral/scb/cy_scb_i2c.h ****     bool useRxFifo;             /**< Stores RX FIFO configuration */
 617:Generated_Source\PSoC6\pdl\drivers/peripheral/scb/cy_scb_i2c.h ****     bool useTxFifo;             /**< Stores TX FIFO configuration */
 618:Generated_Source\PSoC6\pdl\drivers/peripheral/scb/cy_scb_i2c.h **** 
 619:Generated_Source\PSoC6\pdl\drivers/peripheral/scb/cy_scb_i2c.h ****     volatile uint32_t state;    /**< The driver state */
 620:Generated_Source\PSoC6\pdl\drivers/peripheral/scb/cy_scb_i2c.h **** 
 621:Generated_Source\PSoC6\pdl\drivers/peripheral/scb/cy_scb_i2c.h ****     volatile uint32_t masterStatus; /**< The master status */
 622:Generated_Source\PSoC6\pdl\drivers/peripheral/scb/cy_scb_i2c.h ****     bool     masterPause;           /**< Stores how the master ends the transaction */
 623:Generated_Source\PSoC6\pdl\drivers/peripheral/scb/cy_scb_i2c.h ****     bool     masterRdDir;           /**< The direction of the master transaction */
 624:Generated_Source\PSoC6\pdl\drivers/peripheral/scb/cy_scb_i2c.h **** 
 625:Generated_Source\PSoC6\pdl\drivers/peripheral/scb/cy_scb_i2c.h ****     uint8_t  *masterBuffer;     /**< The pointer to the master buffer (either for a transmit or a r
 626:Generated_Source\PSoC6\pdl\drivers/peripheral/scb/cy_scb_i2c.h ****     uint32_t  masterBufferSize;         /**< The current master buffer size */
 627:Generated_Source\PSoC6\pdl\drivers/peripheral/scb/cy_scb_i2c.h ****     volatile uint32_t masterBufferIdx;  /**< The current location in the master buffer */
 628:Generated_Source\PSoC6\pdl\drivers/peripheral/scb/cy_scb_i2c.h ****     volatile uint32_t masterNumBytes;   /**< The number of bytes to send or receive */
 629:Generated_Source\PSoC6\pdl\drivers/peripheral/scb/cy_scb_i2c.h **** 
 630:Generated_Source\PSoC6\pdl\drivers/peripheral/scb/cy_scb_i2c.h ****     volatile uint32_t slaveStatus;       /**< The slave status */
 631:Generated_Source\PSoC6\pdl\drivers/peripheral/scb/cy_scb_i2c.h ****     volatile bool     slaveRdBufEmpty;   /**< Tracks slave Read buffer empty event */
 632:Generated_Source\PSoC6\pdl\drivers/peripheral/scb/cy_scb_i2c.h **** 
 633:Generated_Source\PSoC6\pdl\drivers/peripheral/scb/cy_scb_i2c.h ****     uint8_t  *slaveTxBuffer;             /**< The pointer to the slave transmit buffer (a master re
 634:Generated_Source\PSoC6\pdl\drivers/peripheral/scb/cy_scb_i2c.h ****     uint32_t  slaveTxBufferSize;         /**< The current slave transmit buffer size */
ARM GAS  C:\Users\fiona\AppData\Local\Temp\cc5ift8g.s 			page 40


 635:Generated_Source\PSoC6\pdl\drivers/peripheral/scb/cy_scb_i2c.h ****     volatile uint32_t slaveTxBufferIdx;  /**< The current location in the slave buffer */
 636:Generated_Source\PSoC6\pdl\drivers/peripheral/scb/cy_scb_i2c.h ****     volatile uint32_t slaveTxBufferCnt;  /**< The number of transferred bytes */
 637:Generated_Source\PSoC6\pdl\drivers/peripheral/scb/cy_scb_i2c.h **** 
 638:Generated_Source\PSoC6\pdl\drivers/peripheral/scb/cy_scb_i2c.h ****     uint8_t  *slaveRxBuffer;             /**< The pointer to the slave receive buffer (a master wri
 639:Generated_Source\PSoC6\pdl\drivers/peripheral/scb/cy_scb_i2c.h ****     uint32_t  slaveRxBufferSize;         /**< The current slave receive buffer size */
 640:Generated_Source\PSoC6\pdl\drivers/peripheral/scb/cy_scb_i2c.h ****     volatile uint32_t slaveRxBufferIdx;  /**< The current location in the slave buffer */
 641:Generated_Source\PSoC6\pdl\drivers/peripheral/scb/cy_scb_i2c.h **** 
 642:Generated_Source\PSoC6\pdl\drivers/peripheral/scb/cy_scb_i2c.h ****     /**
 643:Generated_Source\PSoC6\pdl\drivers/peripheral/scb/cy_scb_i2c.h ****     * The pointer to an event callback that is called when any of
 644:Generated_Source\PSoC6\pdl\drivers/peripheral/scb/cy_scb_i2c.h ****     * \ref group_scb_i2c_macros_callback_events occurs
 645:Generated_Source\PSoC6\pdl\drivers/peripheral/scb/cy_scb_i2c.h ****     */
 646:Generated_Source\PSoC6\pdl\drivers/peripheral/scb/cy_scb_i2c.h ****     cy_cb_scb_i2c_handle_events_t cbEvents;
 647:Generated_Source\PSoC6\pdl\drivers/peripheral/scb/cy_scb_i2c.h **** 
 648:Generated_Source\PSoC6\pdl\drivers/peripheral/scb/cy_scb_i2c.h ****     /**
 649:Generated_Source\PSoC6\pdl\drivers/peripheral/scb/cy_scb_i2c.h ****     * The pointer to an address callback that is called when any of
 650:Generated_Source\PSoC6\pdl\drivers/peripheral/scb/cy_scb_i2c.h ****     * \ref group_scb_i2c_macros_addr_callback_events occurs (applicable only
 651:Generated_Source\PSoC6\pdl\drivers/peripheral/scb/cy_scb_i2c.h ****     * for the slave)
 652:Generated_Source\PSoC6\pdl\drivers/peripheral/scb/cy_scb_i2c.h ****     */
 653:Generated_Source\PSoC6\pdl\drivers/peripheral/scb/cy_scb_i2c.h ****     cy_cb_scb_i2c_handle_addr_t   cbAddr;
 654:Generated_Source\PSoC6\pdl\drivers/peripheral/scb/cy_scb_i2c.h **** 
 655:Generated_Source\PSoC6\pdl\drivers/peripheral/scb/cy_scb_i2c.h ****     /** \endcond */
 656:Generated_Source\PSoC6\pdl\drivers/peripheral/scb/cy_scb_i2c.h **** } cy_stc_scb_i2c_context_t;
 657:Generated_Source\PSoC6\pdl\drivers/peripheral/scb/cy_scb_i2c.h **** 
 658:Generated_Source\PSoC6\pdl\drivers/peripheral/scb/cy_scb_i2c.h **** /** The I2C Master transfer structure */
 659:Generated_Source\PSoC6\pdl\drivers/peripheral/scb/cy_scb_i2c.h **** typedef struct cy_stc_scb_i2c_master_xfer_config
 660:Generated_Source\PSoC6\pdl\drivers/peripheral/scb/cy_scb_i2c.h **** {
 661:Generated_Source\PSoC6\pdl\drivers/peripheral/scb/cy_scb_i2c.h ****     /** The 7-bit right justified slave address to communicate with */
 662:Generated_Source\PSoC6\pdl\drivers/peripheral/scb/cy_scb_i2c.h ****     uint8_t  slaveAddress;
 663:Generated_Source\PSoC6\pdl\drivers/peripheral/scb/cy_scb_i2c.h **** 
 664:Generated_Source\PSoC6\pdl\drivers/peripheral/scb/cy_scb_i2c.h ****     /**
 665:Generated_Source\PSoC6\pdl\drivers/peripheral/scb/cy_scb_i2c.h ****     * The pointer to the buffer for data to read from the slave or with
 666:Generated_Source\PSoC6\pdl\drivers/peripheral/scb/cy_scb_i2c.h ****     * data to write into the slave
 667:Generated_Source\PSoC6\pdl\drivers/peripheral/scb/cy_scb_i2c.h ****     */
 668:Generated_Source\PSoC6\pdl\drivers/peripheral/scb/cy_scb_i2c.h ****     uint8_t  *buffer;
 669:Generated_Source\PSoC6\pdl\drivers/peripheral/scb/cy_scb_i2c.h **** 
 670:Generated_Source\PSoC6\pdl\drivers/peripheral/scb/cy_scb_i2c.h ****     /** The size of the buffer */
 671:Generated_Source\PSoC6\pdl\drivers/peripheral/scb/cy_scb_i2c.h ****     uint32_t bufferSize;
 672:Generated_Source\PSoC6\pdl\drivers/peripheral/scb/cy_scb_i2c.h **** 
 673:Generated_Source\PSoC6\pdl\drivers/peripheral/scb/cy_scb_i2c.h ****     /**
 674:Generated_Source\PSoC6\pdl\drivers/peripheral/scb/cy_scb_i2c.h ****     * The transfer operation is pending - the stop condition will not
 675:Generated_Source\PSoC6\pdl\drivers/peripheral/scb/cy_scb_i2c.h ****     * be generated
 676:Generated_Source\PSoC6\pdl\drivers/peripheral/scb/cy_scb_i2c.h ****     */
 677:Generated_Source\PSoC6\pdl\drivers/peripheral/scb/cy_scb_i2c.h ****     bool     xferPending;
 678:Generated_Source\PSoC6\pdl\drivers/peripheral/scb/cy_scb_i2c.h **** } cy_stc_scb_i2c_master_xfer_config_t;
 679:Generated_Source\PSoC6\pdl\drivers/peripheral/scb/cy_scb_i2c.h **** /** \} group_scb_i2c_data_structures */
 680:Generated_Source\PSoC6\pdl\drivers/peripheral/scb/cy_scb_i2c.h **** 
 681:Generated_Source\PSoC6\pdl\drivers/peripheral/scb/cy_scb_i2c.h **** 
 682:Generated_Source\PSoC6\pdl\drivers/peripheral/scb/cy_scb_i2c.h **** /***************************************
 683:Generated_Source\PSoC6\pdl\drivers/peripheral/scb/cy_scb_i2c.h **** *        Function Prototypes
 684:Generated_Source\PSoC6\pdl\drivers/peripheral/scb/cy_scb_i2c.h **** ***************************************/
 685:Generated_Source\PSoC6\pdl\drivers/peripheral/scb/cy_scb_i2c.h **** 
 686:Generated_Source\PSoC6\pdl\drivers/peripheral/scb/cy_scb_i2c.h **** /**
 687:Generated_Source\PSoC6\pdl\drivers/peripheral/scb/cy_scb_i2c.h **** * \addtogroup group_scb_i2c_general_functions
 688:Generated_Source\PSoC6\pdl\drivers/peripheral/scb/cy_scb_i2c.h **** * \{
 689:Generated_Source\PSoC6\pdl\drivers/peripheral/scb/cy_scb_i2c.h **** */
 690:Generated_Source\PSoC6\pdl\drivers/peripheral/scb/cy_scb_i2c.h **** cy_en_scb_i2c_status_t Cy_SCB_I2C_Init(CySCB_Type *base, cy_stc_scb_i2c_config_t const *config,
 691:Generated_Source\PSoC6\pdl\drivers/peripheral/scb/cy_scb_i2c.h ****                                        cy_stc_scb_i2c_context_t *context);
ARM GAS  C:\Users\fiona\AppData\Local\Temp\cc5ift8g.s 			page 41


 692:Generated_Source\PSoC6\pdl\drivers/peripheral/scb/cy_scb_i2c.h **** void Cy_SCB_I2C_DeInit(CySCB_Type *base);
 693:Generated_Source\PSoC6\pdl\drivers/peripheral/scb/cy_scb_i2c.h **** __STATIC_INLINE void Cy_SCB_I2C_Enable(CySCB_Type *base);
 694:Generated_Source\PSoC6\pdl\drivers/peripheral/scb/cy_scb_i2c.h **** void Cy_SCB_I2C_Disable(CySCB_Type *base, cy_stc_scb_i2c_context_t *context);
 695:Generated_Source\PSoC6\pdl\drivers/peripheral/scb/cy_scb_i2c.h **** 
 696:Generated_Source\PSoC6\pdl\drivers/peripheral/scb/cy_scb_i2c.h **** uint32_t Cy_SCB_I2C_SetDataRate(CySCB_Type *base, uint32_t dataRateHz, uint32_t scbClockHz);
 697:Generated_Source\PSoC6\pdl\drivers/peripheral/scb/cy_scb_i2c.h **** uint32_t Cy_SCB_I2C_GetDataRate(CySCB_Type const *base, uint32_t scbClockHz);
 698:Generated_Source\PSoC6\pdl\drivers/peripheral/scb/cy_scb_i2c.h **** 
 699:Generated_Source\PSoC6\pdl\drivers/peripheral/scb/cy_scb_i2c.h **** __STATIC_INLINE void     Cy_SCB_I2C_SlaveSetAddress(CySCB_Type *base, uint8_t addr);
 700:Generated_Source\PSoC6\pdl\drivers/peripheral/scb/cy_scb_i2c.h **** __STATIC_INLINE uint32_t Cy_SCB_I2C_SlaveGetAddress(CySCB_Type const *base);
 701:Generated_Source\PSoC6\pdl\drivers/peripheral/scb/cy_scb_i2c.h **** __STATIC_INLINE void     Cy_SCB_I2C_SlaveSetAddressMask(CySCB_Type *base, uint8_t addrMask);
 702:Generated_Source\PSoC6\pdl\drivers/peripheral/scb/cy_scb_i2c.h **** __STATIC_INLINE uint32_t Cy_SCB_I2C_SlaveGetAddressMask(CySCB_Type const *base);
 703:Generated_Source\PSoC6\pdl\drivers/peripheral/scb/cy_scb_i2c.h **** 
 704:Generated_Source\PSoC6\pdl\drivers/peripheral/scb/cy_scb_i2c.h **** __STATIC_INLINE void Cy_SCB_I2C_MasterSetLowPhaseDutyCycle (CySCB_Type *base, uint32_t clockCycles)
 705:Generated_Source\PSoC6\pdl\drivers/peripheral/scb/cy_scb_i2c.h **** __STATIC_INLINE void Cy_SCB_I2C_MasterSetHighPhaseDutyCycle(CySCB_Type *base, uint32_t clockCycles)
 706:Generated_Source\PSoC6\pdl\drivers/peripheral/scb/cy_scb_i2c.h **** 
 707:Generated_Source\PSoC6\pdl\drivers/peripheral/scb/cy_scb_i2c.h **** __STATIC_INLINE bool Cy_SCB_I2C_IsBusBusy(CySCB_Type const *base);
 708:Generated_Source\PSoC6\pdl\drivers/peripheral/scb/cy_scb_i2c.h **** /** \} group_scb_i2c_general_functions */
 709:Generated_Source\PSoC6\pdl\drivers/peripheral/scb/cy_scb_i2c.h **** 
 710:Generated_Source\PSoC6\pdl\drivers/peripheral/scb/cy_scb_i2c.h **** /**
 711:Generated_Source\PSoC6\pdl\drivers/peripheral/scb/cy_scb_i2c.h **** * \addtogroup group_scb_i2c_slave_functions
 712:Generated_Source\PSoC6\pdl\drivers/peripheral/scb/cy_scb_i2c.h **** * \{
 713:Generated_Source\PSoC6\pdl\drivers/peripheral/scb/cy_scb_i2c.h **** */
 714:Generated_Source\PSoC6\pdl\drivers/peripheral/scb/cy_scb_i2c.h **** void Cy_SCB_I2C_SlaveConfigReadBuf (CySCB_Type const *base, uint8_t *buffer, uint32_t size,
 715:Generated_Source\PSoC6\pdl\drivers/peripheral/scb/cy_scb_i2c.h ****                                     cy_stc_scb_i2c_context_t *context);
 716:Generated_Source\PSoC6\pdl\drivers/peripheral/scb/cy_scb_i2c.h **** void Cy_SCB_I2C_SlaveAbortRead     (CySCB_Type *base, cy_stc_scb_i2c_context_t *context);
 717:Generated_Source\PSoC6\pdl\drivers/peripheral/scb/cy_scb_i2c.h **** void Cy_SCB_I2C_SlaveConfigWriteBuf(CySCB_Type const *base, uint8_t *buffer, uint32_t size,
 718:Generated_Source\PSoC6\pdl\drivers/peripheral/scb/cy_scb_i2c.h ****                                     cy_stc_scb_i2c_context_t *context);
 719:Generated_Source\PSoC6\pdl\drivers/peripheral/scb/cy_scb_i2c.h **** void Cy_SCB_I2C_SlaveAbortWrite    (CySCB_Type *base, cy_stc_scb_i2c_context_t *context);
 720:Generated_Source\PSoC6\pdl\drivers/peripheral/scb/cy_scb_i2c.h **** 
 721:Generated_Source\PSoC6\pdl\drivers/peripheral/scb/cy_scb_i2c.h **** uint32_t Cy_SCB_I2C_SlaveGetStatus       (CySCB_Type const *base, cy_stc_scb_i2c_context_t const *c
 722:Generated_Source\PSoC6\pdl\drivers/peripheral/scb/cy_scb_i2c.h **** uint32_t Cy_SCB_I2C_SlaveClearReadStatus (CySCB_Type const *base, cy_stc_scb_i2c_context_t *context
 723:Generated_Source\PSoC6\pdl\drivers/peripheral/scb/cy_scb_i2c.h **** uint32_t Cy_SCB_I2C_SlaveClearWriteStatus(CySCB_Type const *base, cy_stc_scb_i2c_context_t *context
 724:Generated_Source\PSoC6\pdl\drivers/peripheral/scb/cy_scb_i2c.h **** 
 725:Generated_Source\PSoC6\pdl\drivers/peripheral/scb/cy_scb_i2c.h **** uint32_t Cy_SCB_I2C_SlaveGetReadTransferCount (CySCB_Type const *base, cy_stc_scb_i2c_context_t con
 726:Generated_Source\PSoC6\pdl\drivers/peripheral/scb/cy_scb_i2c.h **** uint32_t Cy_SCB_I2C_SlaveGetWriteTransferCount(CySCB_Type const *base, cy_stc_scb_i2c_context_t con
 727:Generated_Source\PSoC6\pdl\drivers/peripheral/scb/cy_scb_i2c.h **** /** \} group_scb_i2c_slave_functions */
 728:Generated_Source\PSoC6\pdl\drivers/peripheral/scb/cy_scb_i2c.h **** 
 729:Generated_Source\PSoC6\pdl\drivers/peripheral/scb/cy_scb_i2c.h **** /**
 730:Generated_Source\PSoC6\pdl\drivers/peripheral/scb/cy_scb_i2c.h **** * \addtogroup group_scb_i2c_master_high_level_functions
 731:Generated_Source\PSoC6\pdl\drivers/peripheral/scb/cy_scb_i2c.h **** * \{
 732:Generated_Source\PSoC6\pdl\drivers/peripheral/scb/cy_scb_i2c.h **** */
 733:Generated_Source\PSoC6\pdl\drivers/peripheral/scb/cy_scb_i2c.h **** cy_en_scb_i2c_status_t Cy_SCB_I2C_MasterWrite(CySCB_Type *base, cy_stc_scb_i2c_master_xfer_config_t
 734:Generated_Source\PSoC6\pdl\drivers/peripheral/scb/cy_scb_i2c.h ****                                               cy_stc_scb_i2c_context_t *context);
 735:Generated_Source\PSoC6\pdl\drivers/peripheral/scb/cy_scb_i2c.h **** void     Cy_SCB_I2C_MasterAbortWrite         (CySCB_Type *base, cy_stc_scb_i2c_context_t *context);
 736:Generated_Source\PSoC6\pdl\drivers/peripheral/scb/cy_scb_i2c.h **** cy_en_scb_i2c_status_t Cy_SCB_I2C_MasterRead (CySCB_Type *base, cy_stc_scb_i2c_master_xfer_config_t
 737:Generated_Source\PSoC6\pdl\drivers/peripheral/scb/cy_scb_i2c.h ****                                               cy_stc_scb_i2c_context_t *context);
 738:Generated_Source\PSoC6\pdl\drivers/peripheral/scb/cy_scb_i2c.h **** void     Cy_SCB_I2C_MasterAbortRead          (CySCB_Type *base, cy_stc_scb_i2c_context_t *context);
 739:Generated_Source\PSoC6\pdl\drivers/peripheral/scb/cy_scb_i2c.h **** uint32_t Cy_SCB_I2C_MasterGetStatus          (CySCB_Type const *base, cy_stc_scb_i2c_context_t cons
 740:Generated_Source\PSoC6\pdl\drivers/peripheral/scb/cy_scb_i2c.h **** uint32_t Cy_SCB_I2C_MasterGetTransferCount   (CySCB_Type const *base, cy_stc_scb_i2c_context_t cons
 741:Generated_Source\PSoC6\pdl\drivers/peripheral/scb/cy_scb_i2c.h **** /** \} group_scb_i2c_master_low_high_functions */
 742:Generated_Source\PSoC6\pdl\drivers/peripheral/scb/cy_scb_i2c.h **** 
 743:Generated_Source\PSoC6\pdl\drivers/peripheral/scb/cy_scb_i2c.h **** /**
 744:Generated_Source\PSoC6\pdl\drivers/peripheral/scb/cy_scb_i2c.h **** * \addtogroup group_scb_i2c_master_low_level_functions
 745:Generated_Source\PSoC6\pdl\drivers/peripheral/scb/cy_scb_i2c.h **** * \{
 746:Generated_Source\PSoC6\pdl\drivers/peripheral/scb/cy_scb_i2c.h **** */
 747:Generated_Source\PSoC6\pdl\drivers/peripheral/scb/cy_scb_i2c.h **** cy_en_scb_i2c_status_t Cy_SCB_I2C_MasterSendStart  (CySCB_Type *base, uint32_t address, cy_en_scb_i
 748:Generated_Source\PSoC6\pdl\drivers/peripheral/scb/cy_scb_i2c.h ****                                                     uint32_t timeoutMs, cy_stc_scb_i2c_context_t *c
ARM GAS  C:\Users\fiona\AppData\Local\Temp\cc5ift8g.s 			page 42


 749:Generated_Source\PSoC6\pdl\drivers/peripheral/scb/cy_scb_i2c.h **** cy_en_scb_i2c_status_t Cy_SCB_I2C_MasterSendReStart(CySCB_Type *base, uint32_t address, cy_en_scb_i
 750:Generated_Source\PSoC6\pdl\drivers/peripheral/scb/cy_scb_i2c.h ****                                                     uint32_t timeoutMs, cy_stc_scb_i2c_context_t *c
 751:Generated_Source\PSoC6\pdl\drivers/peripheral/scb/cy_scb_i2c.h **** cy_en_scb_i2c_status_t Cy_SCB_I2C_MasterSendStop   (CySCB_Type *base,uint32_t timeoutMs, cy_stc_scb
 752:Generated_Source\PSoC6\pdl\drivers/peripheral/scb/cy_scb_i2c.h **** cy_en_scb_i2c_status_t Cy_SCB_I2C_MasterReadByte   (CySCB_Type *base, cy_en_scb_i2c_command_t ackNa
 753:Generated_Source\PSoC6\pdl\drivers/peripheral/scb/cy_scb_i2c.h ****                                                     uint32_t timeoutMs, cy_stc_scb_i2c_context_t *c
 754:Generated_Source\PSoC6\pdl\drivers/peripheral/scb/cy_scb_i2c.h **** cy_en_scb_i2c_status_t Cy_SCB_I2C_MasterWriteByte  (CySCB_Type *base, uint8_t byte, uint32_t timeou
 755:Generated_Source\PSoC6\pdl\drivers/peripheral/scb/cy_scb_i2c.h ****                                                     cy_stc_scb_i2c_context_t *context);
 756:Generated_Source\PSoC6\pdl\drivers/peripheral/scb/cy_scb_i2c.h **** /** \} group_scb_i2c_master_low_level_functions */
 757:Generated_Source\PSoC6\pdl\drivers/peripheral/scb/cy_scb_i2c.h **** 
 758:Generated_Source\PSoC6\pdl\drivers/peripheral/scb/cy_scb_i2c.h **** /**
 759:Generated_Source\PSoC6\pdl\drivers/peripheral/scb/cy_scb_i2c.h **** * \addtogroup group_scb_i2c_interrupt_functions
 760:Generated_Source\PSoC6\pdl\drivers/peripheral/scb/cy_scb_i2c.h **** * \{
 761:Generated_Source\PSoC6\pdl\drivers/peripheral/scb/cy_scb_i2c.h **** */
 762:Generated_Source\PSoC6\pdl\drivers/peripheral/scb/cy_scb_i2c.h **** void Cy_SCB_I2C_Interrupt      (CySCB_Type *base, cy_stc_scb_i2c_context_t *context);
 763:Generated_Source\PSoC6\pdl\drivers/peripheral/scb/cy_scb_i2c.h **** void Cy_SCB_I2C_SlaveInterrupt (CySCB_Type *base, cy_stc_scb_i2c_context_t *context);
 764:Generated_Source\PSoC6\pdl\drivers/peripheral/scb/cy_scb_i2c.h **** void Cy_SCB_I2C_MasterInterrupt (CySCB_Type *base, cy_stc_scb_i2c_context_t *context);
 765:Generated_Source\PSoC6\pdl\drivers/peripheral/scb/cy_scb_i2c.h **** 
 766:Generated_Source\PSoC6\pdl\drivers/peripheral/scb/cy_scb_i2c.h **** __STATIC_INLINE void Cy_SCB_I2C_RegisterEventCallback(CySCB_Type const *base, cy_cb_scb_i2c_handle_
 767:Generated_Source\PSoC6\pdl\drivers/peripheral/scb/cy_scb_i2c.h ****                                                       cy_stc_scb_i2c_context_t *context);
 768:Generated_Source\PSoC6\pdl\drivers/peripheral/scb/cy_scb_i2c.h **** __STATIC_INLINE void Cy_SCB_I2C_RegisterAddrCallback (CySCB_Type const *base, cy_cb_scb_i2c_handle_
 769:Generated_Source\PSoC6\pdl\drivers/peripheral/scb/cy_scb_i2c.h ****                                                       cy_stc_scb_i2c_context_t *context);
 770:Generated_Source\PSoC6\pdl\drivers/peripheral/scb/cy_scb_i2c.h **** /** \} group_scb_i2c_interrupt_functions */
 771:Generated_Source\PSoC6\pdl\drivers/peripheral/scb/cy_scb_i2c.h **** 
 772:Generated_Source\PSoC6\pdl\drivers/peripheral/scb/cy_scb_i2c.h **** /**
 773:Generated_Source\PSoC6\pdl\drivers/peripheral/scb/cy_scb_i2c.h **** * \addtogroup group_scb_i2c_low_power_functions
 774:Generated_Source\PSoC6\pdl\drivers/peripheral/scb/cy_scb_i2c.h **** * \{
 775:Generated_Source\PSoC6\pdl\drivers/peripheral/scb/cy_scb_i2c.h **** */
 776:Generated_Source\PSoC6\pdl\drivers/peripheral/scb/cy_scb_i2c.h **** cy_en_syspm_status_t Cy_SCB_I2C_DeepSleepCallback(cy_stc_syspm_callback_params_t *callbackParams);
 777:Generated_Source\PSoC6\pdl\drivers/peripheral/scb/cy_scb_i2c.h **** cy_en_syspm_status_t Cy_SCB_I2C_HibernateCallback(cy_stc_syspm_callback_params_t *callbackParams);
 778:Generated_Source\PSoC6\pdl\drivers/peripheral/scb/cy_scb_i2c.h **** /** \} group_scb_i2c_low_power_functions */
 779:Generated_Source\PSoC6\pdl\drivers/peripheral/scb/cy_scb_i2c.h **** 
 780:Generated_Source\PSoC6\pdl\drivers/peripheral/scb/cy_scb_i2c.h **** 
 781:Generated_Source\PSoC6\pdl\drivers/peripheral/scb/cy_scb_i2c.h **** /***************************************
 782:Generated_Source\PSoC6\pdl\drivers/peripheral/scb/cy_scb_i2c.h **** *            API Constants
 783:Generated_Source\PSoC6\pdl\drivers/peripheral/scb/cy_scb_i2c.h **** ***************************************/
 784:Generated_Source\PSoC6\pdl\drivers/peripheral/scb/cy_scb_i2c.h **** 
 785:Generated_Source\PSoC6\pdl\drivers/peripheral/scb/cy_scb_i2c.h **** /**
 786:Generated_Source\PSoC6\pdl\drivers/peripheral/scb/cy_scb_i2c.h **** * \addtogroup group_scb_i2c_macros
 787:Generated_Source\PSoC6\pdl\drivers/peripheral/scb/cy_scb_i2c.h **** * \{
 788:Generated_Source\PSoC6\pdl\drivers/peripheral/scb/cy_scb_i2c.h **** */
 789:Generated_Source\PSoC6\pdl\drivers/peripheral/scb/cy_scb_i2c.h **** 
 790:Generated_Source\PSoC6\pdl\drivers/peripheral/scb/cy_scb_i2c.h **** /**
 791:Generated_Source\PSoC6\pdl\drivers/peripheral/scb/cy_scb_i2c.h **** * \defgroup group_scb_i2c_macros_slave_status I2C Slave Status
 792:Generated_Source\PSoC6\pdl\drivers/peripheral/scb/cy_scb_i2c.h **** * Each I2C slave status is encoded in a separate bit, therefore multiple bits
 793:Generated_Source\PSoC6\pdl\drivers/peripheral/scb/cy_scb_i2c.h **** * may be set to indicate the current status.
 794:Generated_Source\PSoC6\pdl\drivers/peripheral/scb/cy_scb_i2c.h **** * \{
 795:Generated_Source\PSoC6\pdl\drivers/peripheral/scb/cy_scb_i2c.h **** */
 796:Generated_Source\PSoC6\pdl\drivers/peripheral/scb/cy_scb_i2c.h **** /** There is a read transaction in progress */
 797:Generated_Source\PSoC6\pdl\drivers/peripheral/scb/cy_scb_i2c.h **** #define CY_SCB_I2C_SLAVE_RD_BUSY       (0x00000001UL)
 798:Generated_Source\PSoC6\pdl\drivers/peripheral/scb/cy_scb_i2c.h **** 
 799:Generated_Source\PSoC6\pdl\drivers/peripheral/scb/cy_scb_i2c.h **** /**
 800:Generated_Source\PSoC6\pdl\drivers/peripheral/scb/cy_scb_i2c.h **** * All read data has been loaded into the TX FIFO, applicable only if
 801:Generated_Source\PSoC6\pdl\drivers/peripheral/scb/cy_scb_i2c.h **** * the TX FIFO is used
 802:Generated_Source\PSoC6\pdl\drivers/peripheral/scb/cy_scb_i2c.h **** */
 803:Generated_Source\PSoC6\pdl\drivers/peripheral/scb/cy_scb_i2c.h **** #define CY_SCB_I2C_SLAVE_RD_IN_FIFO    (0x00000002UL)
 804:Generated_Source\PSoC6\pdl\drivers/peripheral/scb/cy_scb_i2c.h **** 
 805:Generated_Source\PSoC6\pdl\drivers/peripheral/scb/cy_scb_i2c.h **** /**
ARM GAS  C:\Users\fiona\AppData\Local\Temp\cc5ift8g.s 			page 43


 806:Generated_Source\PSoC6\pdl\drivers/peripheral/scb/cy_scb_i2c.h **** * The master has finished reading data from the slave
 807:Generated_Source\PSoC6\pdl\drivers/peripheral/scb/cy_scb_i2c.h **** */
 808:Generated_Source\PSoC6\pdl\drivers/peripheral/scb/cy_scb_i2c.h **** #define CY_SCB_I2C_SLAVE_RD_CMPLT      (0x00000004UL)
 809:Generated_Source\PSoC6\pdl\drivers/peripheral/scb/cy_scb_i2c.h **** 
 810:Generated_Source\PSoC6\pdl\drivers/peripheral/scb/cy_scb_i2c.h **** /**
 811:Generated_Source\PSoC6\pdl\drivers/peripheral/scb/cy_scb_i2c.h **** * Set when the master tried to read more bytes than available in the configured
 812:Generated_Source\PSoC6\pdl\drivers/peripheral/scb/cy_scb_i2c.h **** * read buffer. The slave is not able to finish the transaction and sends
 813:Generated_Source\PSoC6\pdl\drivers/peripheral/scb/cy_scb_i2c.h **** * \ref CY_SCB_I2C_DEFAULT_TX.
 814:Generated_Source\PSoC6\pdl\drivers/peripheral/scb/cy_scb_i2c.h **** */
 815:Generated_Source\PSoC6\pdl\drivers/peripheral/scb/cy_scb_i2c.h **** #define CY_SCB_I2C_SLAVE_RD_UNDRFL     (0x00000008UL)
 816:Generated_Source\PSoC6\pdl\drivers/peripheral/scb/cy_scb_i2c.h **** 
 817:Generated_Source\PSoC6\pdl\drivers/peripheral/scb/cy_scb_i2c.h **** /** There is a write transaction in progress */
 818:Generated_Source\PSoC6\pdl\drivers/peripheral/scb/cy_scb_i2c.h **** #define CY_SCB_I2C_SLAVE_WR_BUSY       (0x00000010UL)
 819:Generated_Source\PSoC6\pdl\drivers/peripheral/scb/cy_scb_i2c.h **** 
 820:Generated_Source\PSoC6\pdl\drivers/peripheral/scb/cy_scb_i2c.h **** /**
 821:Generated_Source\PSoC6\pdl\drivers/peripheral/scb/cy_scb_i2c.h **** * The master has finished writing data into the slave
 822:Generated_Source\PSoC6\pdl\drivers/peripheral/scb/cy_scb_i2c.h **** */
 823:Generated_Source\PSoC6\pdl\drivers/peripheral/scb/cy_scb_i2c.h **** #define CY_SCB_I2C_SLAVE_WR_CMPLT      (0x00000020UL)
 824:Generated_Source\PSoC6\pdl\drivers/peripheral/scb/cy_scb_i2c.h **** 
 825:Generated_Source\PSoC6\pdl\drivers/peripheral/scb/cy_scb_i2c.h **** /**
