ARM GAS  C:\Users\salaz\AppData\Local\Temp\ccsvgFVW.s 			page 1


   1              		.syntax unified
   2              		.cpu cortex-m0plus
   3              		.fpu softvfp
   4              		.eabi_attribute 20, 1
   5              		.eabi_attribute 21, 1
   6              		.eabi_attribute 23, 3
   7              		.eabi_attribute 24, 1
   8              		.eabi_attribute 25, 1
   9              		.eabi_attribute 26, 1
  10              		.eabi_attribute 30, 1
  11              		.eabi_attribute 34, 0
  12              		.eabi_attribute 18, 4
  13              		.thumb
  14              		.syntax unified
  15              		.file	"AccDriver.c"
  16              		.text
  17              	.Ltext0:
  18              		.cfi_sections	.debug_frame
  19              		.section	.text.ReadRegister,"ax",%progbits
  20              		.align	2
  21              		.code	16
  22              		.thumb_func
  23              		.type	ReadRegister, %function
  24              	ReadRegister:
  25              	.LFB799:
  26              		.file 1 "AccDriver.c"
   1:AccDriver.c   **** 
   2:AccDriver.c   **** #include <AccDriver.h>
   3:AccDriver.c   **** #include <DataBuffer.h>
   4:AccDriver.c   **** 
   5:AccDriver.c   **** #include "debug.h"
   6:AccDriver.c   **** 
   7:AccDriver.c   **** static bool   device_rate_changed   = true;
   8:AccDriver.c   **** static uint8  device_rate_setting   = ACC_1E_RATE_12_5_HZ;
   9:AccDriver.c   **** static uint32 interpolated_period   = 0;
  10:AccDriver.c   **** static uint32 sample_period         = 0;
  11:AccDriver.c   **** static uint32 interrupt_period      = 0;
  12:AccDriver.c   **** static cy_stc_scb_i2c_master_xfer_config_t register_setting;
  13:AccDriver.c   **** 
  14:AccDriver.c   **** static bool is_first_sample = true;
  15:AccDriver.c   **** static uint8 rbuff[256]; // Read buffer: 32 sample fifo x 3 axis x 2 bytes
  16:AccDriver.c   **** static uint8 wbuff[2];   // Write buffer
  17:AccDriver.c   **** static struct dAcc1ESlot* wsample;
  18:AccDriver.c   **** static uint8* wsample_ptr;
  19:AccDriver.c   **** static acc_struct sample_old, sample_new, interpolated;
  20:AccDriver.c   **** static uint8 x_msb, x_lsb, y_msb, y_lsb, z_msb, z_lsb;
  21:AccDriver.c   **** 
  22:AccDriver.c   **** static void WriteRegister(uint8 reg_addr, uint8 data)
  23:AccDriver.c   **** {
  24:AccDriver.c   ****     wbuff[0] = reg_addr; wbuff[1] = data;
  25:AccDriver.c   ****     register_setting.buffer = wbuff; register_setting.bufferSize = 2; register_setting.xferPending 
  26:AccDriver.c   ****     
  27:AccDriver.c   ****     cy_en_scb_i2c_status_t i2cReturnValue = SensorBus_MasterWrite(&register_setting);
  28:AccDriver.c   ****     if(i2cReturnValue != CY_SCB_I2C_SUCCESS)
  29:AccDriver.c   ****     {
  30:AccDriver.c   ****         // ** Throw error
  31:AccDriver.c   ****     }
ARM GAS  C:\Users\salaz\AppData\Local\Temp\ccsvgFVW.s 			page 2


  32:AccDriver.c   ****     
  33:AccDriver.c   ****     uint16 counter = 0;
  34:AccDriver.c   ****     while(0 != (SensorBus_MasterGetStatus() & CY_SCB_I2C_MASTER_BUSY)){}
  35:AccDriver.c   ****     {
  36:AccDriver.c   ****         if(++counter > 1000)
  37:AccDriver.c   ****         {
  38:AccDriver.c   ****             // ** Throw error
  39:AccDriver.c   ****         }
  40:AccDriver.c   ****         else
  41:AccDriver.c   ****         {
  42:AccDriver.c   ****             CyDelayUs(1);  // Keep Waiting
  43:AccDriver.c   ****         }
  44:AccDriver.c   ****     }
  45:AccDriver.c   ****     return;
  46:AccDriver.c   **** }
  47:AccDriver.c   **** static uint8 ReadRegister(uint8 reg_addr)
  48:AccDriver.c   **** {
  27              		.loc 1 48 0
  28              		.cfi_startproc
  29              		@ args = 0, pretend = 0, frame = 0
  30              		@ frame_needed = 0, uses_anonymous_args = 0
  31              	.LVL0:
  32 0000 10B5     		push	{r4, lr}
  33              		.cfi_def_cfa_offset 8
  34              		.cfi_offset 4, -8
  35              		.cfi_offset 14, -4
  49:AccDriver.c   ****     cy_en_scb_i2c_status_t i2cReturnValue;
  50:AccDriver.c   ****     
  51:AccDriver.c   ****     wbuff[0] = reg_addr;    
  36              		.loc 1 51 0
  37 0002 1F49     		ldr	r1, .L8
  38 0004 0870     		strb	r0, [r1]
  52:AccDriver.c   ****     register_setting.buffer = wbuff; register_setting.bufferSize = 1; register_setting.xferPending 
  39              		.loc 1 52 0
  40 0006 8960     		str	r1, [r1, #8]
  41 0008 0123     		movs	r3, #1
  42 000a CB60     		str	r3, [r1, #12]
  43 000c 0B74     		strb	r3, [r1, #16]
  44              	.LVL1:
  45              	.LBB37:
  46              	.LBB38:
  47              		.file 2 "Generated_Source\\PSoC6/SensorBus.h"
   1:Generated_Source\PSoC6/SensorBus.h **** /***************************************************************************//**
   2:Generated_Source\PSoC6/SensorBus.h **** * \file SensorBus.c
   3:Generated_Source\PSoC6/SensorBus.h **** * \version 2.0
   4:Generated_Source\PSoC6/SensorBus.h **** *
   5:Generated_Source\PSoC6/SensorBus.h **** *  This file provides constants and parameter values for the I2C component.
   6:Generated_Source\PSoC6/SensorBus.h **** *
   7:Generated_Source\PSoC6/SensorBus.h **** ********************************************************************************
   8:Generated_Source\PSoC6/SensorBus.h **** * \copyright
   9:Generated_Source\PSoC6/SensorBus.h **** * Copyright 2016-2017, Cypress Semiconductor Corporation. All rights reserved.
  10:Generated_Source\PSoC6/SensorBus.h **** * You may use this file only in accordance with the license, terms, conditions,
  11:Generated_Source\PSoC6/SensorBus.h **** * disclaimers, and limitations in the end user license agreement accompanying
  12:Generated_Source\PSoC6/SensorBus.h **** * the software package with which this file was provided.
  13:Generated_Source\PSoC6/SensorBus.h **** *******************************************************************************/
  14:Generated_Source\PSoC6/SensorBus.h **** 
  15:Generated_Source\PSoC6/SensorBus.h **** #if !defined(SensorBus_CY_SCB_I2C_PDL_H)
ARM GAS  C:\Users\salaz\AppData\Local\Temp\ccsvgFVW.s 			page 3


  16:Generated_Source\PSoC6/SensorBus.h **** #define SensorBus_CY_SCB_I2C_PDL_H
  17:Generated_Source\PSoC6/SensorBus.h **** 
  18:Generated_Source\PSoC6/SensorBus.h **** #include "cyfitter.h"
  19:Generated_Source\PSoC6/SensorBus.h **** #include "scb/cy_scb_i2c.h"
  20:Generated_Source\PSoC6/SensorBus.h **** 
  21:Generated_Source\PSoC6/SensorBus.h **** #if defined(__cplusplus)
  22:Generated_Source\PSoC6/SensorBus.h **** extern "C" {
  23:Generated_Source\PSoC6/SensorBus.h **** #endif
  24:Generated_Source\PSoC6/SensorBus.h **** 
  25:Generated_Source\PSoC6/SensorBus.h **** /***************************************
  26:Generated_Source\PSoC6/SensorBus.h **** *   Initial Parameter Constants
  27:Generated_Source\PSoC6/SensorBus.h **** ****************************************/
  28:Generated_Source\PSoC6/SensorBus.h **** 
  29:Generated_Source\PSoC6/SensorBus.h **** #define SensorBus_MODE               (0x2U)
  30:Generated_Source\PSoC6/SensorBus.h **** #define SensorBus_MODE_SLAVE_MASK    (0x1U)
  31:Generated_Source\PSoC6/SensorBus.h **** #define SensorBus_MODE_MASTER_MASK   (0x2U)
  32:Generated_Source\PSoC6/SensorBus.h **** 
  33:Generated_Source\PSoC6/SensorBus.h **** #define SensorBus_ENABLE_SLAVE       (0UL != (SensorBus_MODE & SensorBus_MODE_SLAVE_MASK))
  34:Generated_Source\PSoC6/SensorBus.h **** #define SensorBus_ENABLE_MASTER      (0UL != (SensorBus_MODE & SensorBus_MODE_MASTER_MASK))
  35:Generated_Source\PSoC6/SensorBus.h **** #define SensorBus_MANUAL_SCL_CONTROL (0U)
  36:Generated_Source\PSoC6/SensorBus.h **** 
  37:Generated_Source\PSoC6/SensorBus.h **** 
  38:Generated_Source\PSoC6/SensorBus.h **** /***************************************
  39:Generated_Source\PSoC6/SensorBus.h **** *        Function Prototypes
  40:Generated_Source\PSoC6/SensorBus.h **** ***************************************/
  41:Generated_Source\PSoC6/SensorBus.h **** /**
  42:Generated_Source\PSoC6/SensorBus.h **** * \addtogroup group_general
  43:Generated_Source\PSoC6/SensorBus.h **** * @{
  44:Generated_Source\PSoC6/SensorBus.h **** */
  45:Generated_Source\PSoC6/SensorBus.h **** /* Component only APIs. */
  46:Generated_Source\PSoC6/SensorBus.h **** void SensorBus_Start(void);
  47:Generated_Source\PSoC6/SensorBus.h **** 
  48:Generated_Source\PSoC6/SensorBus.h **** /* Basic functions. */
  49:Generated_Source\PSoC6/SensorBus.h **** __STATIC_INLINE cy_en_scb_i2c_status_t SensorBus_Init(cy_stc_scb_i2c_config_t const *config);
  50:Generated_Source\PSoC6/SensorBus.h **** __STATIC_INLINE void SensorBus_DeInit (void);
  51:Generated_Source\PSoC6/SensorBus.h **** __STATIC_INLINE void SensorBus_Enable (void);
  52:Generated_Source\PSoC6/SensorBus.h **** __STATIC_INLINE void SensorBus_Disable(void);
  53:Generated_Source\PSoC6/SensorBus.h **** 
  54:Generated_Source\PSoC6/SensorBus.h **** /* Data rate configuration functions. */
  55:Generated_Source\PSoC6/SensorBus.h **** __STATIC_INLINE uint32_t SensorBus_SetDataRate(uint32_t dataRateHz, uint32_t scbClockHz);
  56:Generated_Source\PSoC6/SensorBus.h **** __STATIC_INLINE uint32_t SensorBus_GetDataRate(uint32_t scbClockHz);
  57:Generated_Source\PSoC6/SensorBus.h **** 
  58:Generated_Source\PSoC6/SensorBus.h **** /* Register callbacks. */
  59:Generated_Source\PSoC6/SensorBus.h **** __STATIC_INLINE void SensorBus_RegisterEventCallback(cy_cb_scb_i2c_handle_events_t callback);
  60:Generated_Source\PSoC6/SensorBus.h **** #if (SensorBus_ENABLE_SLAVE)
  61:Generated_Source\PSoC6/SensorBus.h **** __STATIC_INLINE void SensorBus_RegisterAddrCallback (cy_cb_scb_i2c_handle_addr_t callback);
  62:Generated_Source\PSoC6/SensorBus.h **** #endif /* (SensorBus_ENABLE_SLAVE) */
  63:Generated_Source\PSoC6/SensorBus.h **** 
  64:Generated_Source\PSoC6/SensorBus.h **** /* Configuration functions. */
  65:Generated_Source\PSoC6/SensorBus.h **** #if (SensorBus_ENABLE_SLAVE)
  66:Generated_Source\PSoC6/SensorBus.h **** __STATIC_INLINE void     SensorBus_SlaveSetAddress(uint8_t addr);
  67:Generated_Source\PSoC6/SensorBus.h **** __STATIC_INLINE uint32_t SensorBus_SlaveGetAddress(void);
  68:Generated_Source\PSoC6/SensorBus.h **** __STATIC_INLINE void     SensorBus_SlaveSetAddressMask(uint8_t addrMask);
  69:Generated_Source\PSoC6/SensorBus.h **** __STATIC_INLINE uint32_t SensorBus_SlaveGetAddressMask(void);
  70:Generated_Source\PSoC6/SensorBus.h **** #endif /* (SensorBus_ENABLE_SLAVE) */
  71:Generated_Source\PSoC6/SensorBus.h **** 
  72:Generated_Source\PSoC6/SensorBus.h **** #if (SensorBus_ENABLE_MASTER)
ARM GAS  C:\Users\salaz\AppData\Local\Temp\ccsvgFVW.s 			page 4


  73:Generated_Source\PSoC6/SensorBus.h **** __STATIC_INLINE void SensorBus_MasterSetLowPhaseDutyCycle (uint32_t clockCycles);
  74:Generated_Source\PSoC6/SensorBus.h **** __STATIC_INLINE void SensorBus_MasterSetHighPhaseDutyCycle(uint32_t clockCycles);
  75:Generated_Source\PSoC6/SensorBus.h **** #endif /* (SensorBus_ENABLE_MASTER) */
  76:Generated_Source\PSoC6/SensorBus.h **** 
  77:Generated_Source\PSoC6/SensorBus.h **** /* Bus status. */
  78:Generated_Source\PSoC6/SensorBus.h **** __STATIC_INLINE bool     SensorBus_IsBusBusy(void);
  79:Generated_Source\PSoC6/SensorBus.h **** 
  80:Generated_Source\PSoC6/SensorBus.h **** /* Slave functions. */
  81:Generated_Source\PSoC6/SensorBus.h **** #if (SensorBus_ENABLE_SLAVE)
  82:Generated_Source\PSoC6/SensorBus.h **** __STATIC_INLINE uint32_t SensorBus_SlaveGetStatus(void);
  83:Generated_Source\PSoC6/SensorBus.h **** 
  84:Generated_Source\PSoC6/SensorBus.h **** __STATIC_INLINE void     SensorBus_SlaveConfigReadBuf(uint8_t *buffer, uint32_t size);
  85:Generated_Source\PSoC6/SensorBus.h **** __STATIC_INLINE void     SensorBus_SlaveAbortRead(void);
  86:Generated_Source\PSoC6/SensorBus.h **** __STATIC_INLINE uint32_t SensorBus_SlaveGetReadTransferCount(void);
  87:Generated_Source\PSoC6/SensorBus.h **** __STATIC_INLINE uint32_t SensorBus_SlaveClearReadStatus(void);
  88:Generated_Source\PSoC6/SensorBus.h **** 
  89:Generated_Source\PSoC6/SensorBus.h **** __STATIC_INLINE void     SensorBus_SlaveConfigWriteBuf(uint8_t *buffer, uint32_t size);
  90:Generated_Source\PSoC6/SensorBus.h **** __STATIC_INLINE void     SensorBus_SlaveAbortWrite(void);
  91:Generated_Source\PSoC6/SensorBus.h **** __STATIC_INLINE uint32_t SensorBus_SlaveGetWriteTransferCount(void);
  92:Generated_Source\PSoC6/SensorBus.h **** __STATIC_INLINE uint32_t SensorBus_SlaveClearWriteStatus(void);
  93:Generated_Source\PSoC6/SensorBus.h **** #endif /* (SensorBus_ENABLE_SLAVE) */
  94:Generated_Source\PSoC6/SensorBus.h **** 
  95:Generated_Source\PSoC6/SensorBus.h **** /* Master interrupt processing functions. */
  96:Generated_Source\PSoC6/SensorBus.h **** #if (SensorBus_ENABLE_MASTER)
  97:Generated_Source\PSoC6/SensorBus.h **** __STATIC_INLINE uint32_t SensorBus_MasterGetStatus(void);
  98:Generated_Source\PSoC6/SensorBus.h **** 
  99:Generated_Source\PSoC6/SensorBus.h **** __STATIC_INLINE cy_en_scb_i2c_status_t SensorBus_MasterRead(cy_stc_scb_i2c_master_xfer_config_t *xf
 100:Generated_Source\PSoC6/SensorBus.h **** __STATIC_INLINE void SensorBus_MasterAbortRead(void);
 101:Generated_Source\PSoC6/SensorBus.h **** __STATIC_INLINE cy_en_scb_i2c_status_t SensorBus_MasterWrite(cy_stc_scb_i2c_master_xfer_config_t *x
 102:Generated_Source\PSoC6/SensorBus.h **** __STATIC_INLINE void SensorBus_MasterAbortWrite(void);
 103:Generated_Source\PSoC6/SensorBus.h **** __STATIC_INLINE uint32_t SensorBus_MasterGetTransferCount(void);
 104:Generated_Source\PSoC6/SensorBus.h **** 
 105:Generated_Source\PSoC6/SensorBus.h **** /* Master manual processing functions. */
 106:Generated_Source\PSoC6/SensorBus.h **** __STATIC_INLINE cy_en_scb_i2c_status_t SensorBus_MasterSendStart(uint32_t address, cy_en_scb_i2c_di
 107:Generated_Source\PSoC6/SensorBus.h **** __STATIC_INLINE cy_en_scb_i2c_status_t SensorBus_MasterSendReStart(uint32_t address, cy_en_scb_i2c_
 108:Generated_Source\PSoC6/SensorBus.h **** __STATIC_INLINE cy_en_scb_i2c_status_t SensorBus_MasterSendStop(uint32_t timeoutMs);
 109:Generated_Source\PSoC6/SensorBus.h **** __STATIC_INLINE cy_en_scb_i2c_status_t SensorBus_MasterReadByte(cy_en_scb_i2c_command_t ackNack, ui
 110:Generated_Source\PSoC6/SensorBus.h **** __STATIC_INLINE cy_en_scb_i2c_status_t SensorBus_MasterWriteByte(uint8_t byte, uint32_t timeoutMs);
 111:Generated_Source\PSoC6/SensorBus.h **** #endif /* (SensorBus_ENABLE_MASTER) */
 112:Generated_Source\PSoC6/SensorBus.h **** 
 113:Generated_Source\PSoC6/SensorBus.h **** /* Interrupt handler. */
 114:Generated_Source\PSoC6/SensorBus.h **** __STATIC_INLINE void SensorBus_Interrupt(void);
 115:Generated_Source\PSoC6/SensorBus.h **** /** @} group_general */
 116:Generated_Source\PSoC6/SensorBus.h **** 
 117:Generated_Source\PSoC6/SensorBus.h **** 
 118:Generated_Source\PSoC6/SensorBus.h **** /***************************************
 119:Generated_Source\PSoC6/SensorBus.h **** *    Variables with External Linkage
 120:Generated_Source\PSoC6/SensorBus.h **** ***************************************/
 121:Generated_Source\PSoC6/SensorBus.h **** /**
 122:Generated_Source\PSoC6/SensorBus.h **** * \addtogroup group_globals
 123:Generated_Source\PSoC6/SensorBus.h **** * @{
 124:Generated_Source\PSoC6/SensorBus.h **** */
 125:Generated_Source\PSoC6/SensorBus.h **** extern uint8_t SensorBus_initVar;
 126:Generated_Source\PSoC6/SensorBus.h **** extern cy_stc_scb_i2c_config_t const SensorBus_config;
 127:Generated_Source\PSoC6/SensorBus.h **** extern cy_stc_scb_i2c_context_t SensorBus_context;
 128:Generated_Source\PSoC6/SensorBus.h **** /** @} group_globals */
 129:Generated_Source\PSoC6/SensorBus.h **** 
ARM GAS  C:\Users\salaz\AppData\Local\Temp\ccsvgFVW.s 			page 5


 130:Generated_Source\PSoC6/SensorBus.h **** 
 131:Generated_Source\PSoC6/SensorBus.h **** /***************************************
 132:Generated_Source\PSoC6/SensorBus.h **** *         Preprocessor Macros
 133:Generated_Source\PSoC6/SensorBus.h **** ***************************************/
 134:Generated_Source\PSoC6/SensorBus.h **** /**
 135:Generated_Source\PSoC6/SensorBus.h **** * \addtogroup group_macros
 136:Generated_Source\PSoC6/SensorBus.h **** * @{
 137:Generated_Source\PSoC6/SensorBus.h **** */
 138:Generated_Source\PSoC6/SensorBus.h **** /** The pointer to the base address of the SCB instance */
 139:Generated_Source\PSoC6/SensorBus.h **** #define SensorBus_HW     ((CySCB_Type *) SensorBus_SCB__HW)
 140:Generated_Source\PSoC6/SensorBus.h **** 
 141:Generated_Source\PSoC6/SensorBus.h **** /** The desired data rate in Hz */
 142:Generated_Source\PSoC6/SensorBus.h **** #define SensorBus_DATA_RATE_HZ      (400000U)
 143:Generated_Source\PSoC6/SensorBus.h **** 
 144:Generated_Source\PSoC6/SensorBus.h **** /** The frequency of the clock used by the Component in Hz */
 145:Generated_Source\PSoC6/SensorBus.h **** #define SensorBus_CLK_FREQ_HZ       (8333333U)
 146:Generated_Source\PSoC6/SensorBus.h **** 
 147:Generated_Source\PSoC6/SensorBus.h **** /** The number of Component clocks used by the master to generate the SCL
 148:Generated_Source\PSoC6/SensorBus.h **** * low phase. This number is calculated by GUI based on the selected data rate.
 149:Generated_Source\PSoC6/SensorBus.h **** */
 150:Generated_Source\PSoC6/SensorBus.h **** #define SensorBus_LOW_PHASE_DUTY_CYCLE   (14U)
 151:Generated_Source\PSoC6/SensorBus.h **** 
 152:Generated_Source\PSoC6/SensorBus.h **** /** The number of Component clocks used by the master to generate the SCL
 153:Generated_Source\PSoC6/SensorBus.h **** * high phase. This number is calculated by GUI based on the selected data rate.
 154:Generated_Source\PSoC6/SensorBus.h **** */
 155:Generated_Source\PSoC6/SensorBus.h **** #define SensorBus_HIGH_PHASE_DUTY_CYCLE  (8U)
 156:Generated_Source\PSoC6/SensorBus.h **** /** @} group_macros */
 157:Generated_Source\PSoC6/SensorBus.h **** 
 158:Generated_Source\PSoC6/SensorBus.h **** 
 159:Generated_Source\PSoC6/SensorBus.h **** /***************************************
 160:Generated_Source\PSoC6/SensorBus.h **** *    In-line Function Implementation
 161:Generated_Source\PSoC6/SensorBus.h **** ***************************************/
 162:Generated_Source\PSoC6/SensorBus.h **** 
 163:Generated_Source\PSoC6/SensorBus.h **** /*******************************************************************************
 164:Generated_Source\PSoC6/SensorBus.h **** * Function Name: SensorBus_Init
 165:Generated_Source\PSoC6/SensorBus.h **** ****************************************************************************//**
 166:Generated_Source\PSoC6/SensorBus.h **** *
 167:Generated_Source\PSoC6/SensorBus.h **** * Invokes the Cy_SCB_I2C_Init() PDL driver function.
 168:Generated_Source\PSoC6/SensorBus.h **** *
 169:Generated_Source\PSoC6/SensorBus.h **** *******************************************************************************/
 170:Generated_Source\PSoC6/SensorBus.h **** __STATIC_INLINE cy_en_scb_i2c_status_t SensorBus_Init(cy_stc_scb_i2c_config_t const *config)
 171:Generated_Source\PSoC6/SensorBus.h **** {
 172:Generated_Source\PSoC6/SensorBus.h ****     return Cy_SCB_I2C_Init(SensorBus_HW, config, &SensorBus_context);
 173:Generated_Source\PSoC6/SensorBus.h **** }
 174:Generated_Source\PSoC6/SensorBus.h **** 
 175:Generated_Source\PSoC6/SensorBus.h **** 
 176:Generated_Source\PSoC6/SensorBus.h **** /*******************************************************************************
 177:Generated_Source\PSoC6/SensorBus.h **** *  Function Name: SensorBus_DeInit
 178:Generated_Source\PSoC6/SensorBus.h **** ****************************************************************************//**
 179:Generated_Source\PSoC6/SensorBus.h **** *
 180:Generated_Source\PSoC6/SensorBus.h **** * Invokes the Cy_SCB_I2C_DeInit() PDL driver function.
 181:Generated_Source\PSoC6/SensorBus.h **** *
 182:Generated_Source\PSoC6/SensorBus.h **** *******************************************************************************/
 183:Generated_Source\PSoC6/SensorBus.h **** __STATIC_INLINE void SensorBus_DeInit(void)
 184:Generated_Source\PSoC6/SensorBus.h **** {
 185:Generated_Source\PSoC6/SensorBus.h ****     Cy_SCB_I2C_DeInit(SensorBus_HW);
 186:Generated_Source\PSoC6/SensorBus.h **** }
ARM GAS  C:\Users\salaz\AppData\Local\Temp\ccsvgFVW.s 			page 6


 187:Generated_Source\PSoC6/SensorBus.h **** 
 188:Generated_Source\PSoC6/SensorBus.h **** 
 189:Generated_Source\PSoC6/SensorBus.h **** /*******************************************************************************
 190:Generated_Source\PSoC6/SensorBus.h **** * Function Name: SensorBus_Enable
 191:Generated_Source\PSoC6/SensorBus.h **** ****************************************************************************//**
 192:Generated_Source\PSoC6/SensorBus.h **** *
 193:Generated_Source\PSoC6/SensorBus.h **** * Invokes the Cy_SCB_I2C_Enable() PDL driver function.
 194:Generated_Source\PSoC6/SensorBus.h **** *
 195:Generated_Source\PSoC6/SensorBus.h **** *******************************************************************************/
 196:Generated_Source\PSoC6/SensorBus.h **** __STATIC_INLINE void SensorBus_Enable(void)
 197:Generated_Source\PSoC6/SensorBus.h **** {
 198:Generated_Source\PSoC6/SensorBus.h ****     Cy_SCB_I2C_Enable(SensorBus_HW);
 199:Generated_Source\PSoC6/SensorBus.h **** }
 200:Generated_Source\PSoC6/SensorBus.h **** 
 201:Generated_Source\PSoC6/SensorBus.h **** 
 202:Generated_Source\PSoC6/SensorBus.h **** /*******************************************************************************
 203:Generated_Source\PSoC6/SensorBus.h **** * Function Name: SensorBus_Disable
 204:Generated_Source\PSoC6/SensorBus.h **** ****************************************************************************//**
 205:Generated_Source\PSoC6/SensorBus.h **** *
 206:Generated_Source\PSoC6/SensorBus.h **** * Invokes the Cy_SCB_I2C_Disable() PDL driver function.
 207:Generated_Source\PSoC6/SensorBus.h **** *
 208:Generated_Source\PSoC6/SensorBus.h **** *******************************************************************************/
 209:Generated_Source\PSoC6/SensorBus.h **** __STATIC_INLINE void SensorBus_Disable(void)
 210:Generated_Source\PSoC6/SensorBus.h **** {
 211:Generated_Source\PSoC6/SensorBus.h ****     Cy_SCB_I2C_Disable(SensorBus_HW, &SensorBus_context);
 212:Generated_Source\PSoC6/SensorBus.h **** }
 213:Generated_Source\PSoC6/SensorBus.h **** 
 214:Generated_Source\PSoC6/SensorBus.h **** 
 215:Generated_Source\PSoC6/SensorBus.h **** /*******************************************************************************
 216:Generated_Source\PSoC6/SensorBus.h **** * Function Name: SensorBus_SetDataRate
 217:Generated_Source\PSoC6/SensorBus.h **** ****************************************************************************//**
 218:Generated_Source\PSoC6/SensorBus.h **** *
 219:Generated_Source\PSoC6/SensorBus.h **** * Invokes the Cy_SCB_I2C_SetDataRate() PDL driver function.
 220:Generated_Source\PSoC6/SensorBus.h **** *
 221:Generated_Source\PSoC6/SensorBus.h **** *******************************************************************************/
 222:Generated_Source\PSoC6/SensorBus.h **** __STATIC_INLINE uint32_t SensorBus_SetDataRate(uint32_t dataRateHz, uint32_t scbClockHz)
 223:Generated_Source\PSoC6/SensorBus.h **** {
 224:Generated_Source\PSoC6/SensorBus.h ****     return Cy_SCB_I2C_SetDataRate(SensorBus_HW, dataRateHz, scbClockHz);
 225:Generated_Source\PSoC6/SensorBus.h **** }
 226:Generated_Source\PSoC6/SensorBus.h **** 
 227:Generated_Source\PSoC6/SensorBus.h **** 
 228:Generated_Source\PSoC6/SensorBus.h **** /*******************************************************************************
 229:Generated_Source\PSoC6/SensorBus.h **** * Function Name: SensorBus_GetDataRate
 230:Generated_Source\PSoC6/SensorBus.h **** ****************************************************************************//**
 231:Generated_Source\PSoC6/SensorBus.h **** *
 232:Generated_Source\PSoC6/SensorBus.h **** * Invokes the Cy_SCB_I2C_GetDataRate() PDL driver function.
 233:Generated_Source\PSoC6/SensorBus.h **** *
 234:Generated_Source\PSoC6/SensorBus.h **** *******************************************************************************/
 235:Generated_Source\PSoC6/SensorBus.h **** __STATIC_INLINE uint32_t SensorBus_GetDataRate(uint32_t scbClockHz)
 236:Generated_Source\PSoC6/SensorBus.h **** {
 237:Generated_Source\PSoC6/SensorBus.h ****     return Cy_SCB_I2C_GetDataRate(SensorBus_HW, scbClockHz);
 238:Generated_Source\PSoC6/SensorBus.h **** }
 239:Generated_Source\PSoC6/SensorBus.h **** 
 240:Generated_Source\PSoC6/SensorBus.h **** 
 241:Generated_Source\PSoC6/SensorBus.h **** /*******************************************************************************
 242:Generated_Source\PSoC6/SensorBus.h **** * Function Name: SensorBus_RegisterEventCallback
 243:Generated_Source\PSoC6/SensorBus.h **** ****************************************************************************//**
ARM GAS  C:\Users\salaz\AppData\Local\Temp\ccsvgFVW.s 			page 7


 244:Generated_Source\PSoC6/SensorBus.h **** *
 245:Generated_Source\PSoC6/SensorBus.h **** * Invokes the Cy_SCB_I2C_RegisterEventCallback() PDL driver function.
 246:Generated_Source\PSoC6/SensorBus.h **** *
 247:Generated_Source\PSoC6/SensorBus.h **** *******************************************************************************/
 248:Generated_Source\PSoC6/SensorBus.h **** __STATIC_INLINE void SensorBus_RegisterEventCallback(cy_cb_scb_i2c_handle_events_t callback)
 249:Generated_Source\PSoC6/SensorBus.h **** {
 250:Generated_Source\PSoC6/SensorBus.h ****     Cy_SCB_I2C_RegisterEventCallback(SensorBus_HW, callback, &SensorBus_context);
 251:Generated_Source\PSoC6/SensorBus.h **** }
 252:Generated_Source\PSoC6/SensorBus.h **** 
 253:Generated_Source\PSoC6/SensorBus.h **** 
 254:Generated_Source\PSoC6/SensorBus.h **** #if (SensorBus_ENABLE_SLAVE)
 255:Generated_Source\PSoC6/SensorBus.h **** /*******************************************************************************
 256:Generated_Source\PSoC6/SensorBus.h **** * Function Name: SensorBus_RegisterAddrCallback
 257:Generated_Source\PSoC6/SensorBus.h **** ****************************************************************************//**
 258:Generated_Source\PSoC6/SensorBus.h **** *
 259:Generated_Source\PSoC6/SensorBus.h **** * Invokes the Cy_SCB_I2C_RegisterAddrCallback() PDL driver function.
 260:Generated_Source\PSoC6/SensorBus.h **** *
 261:Generated_Source\PSoC6/SensorBus.h **** *******************************************************************************/
 262:Generated_Source\PSoC6/SensorBus.h **** __STATIC_INLINE void SensorBus_RegisterAddrCallback(cy_cb_scb_i2c_handle_addr_t callback)
 263:Generated_Source\PSoC6/SensorBus.h **** {
 264:Generated_Source\PSoC6/SensorBus.h ****     Cy_SCB_I2C_RegisterAddrCallback(SensorBus_HW, callback, &SensorBus_context);
 265:Generated_Source\PSoC6/SensorBus.h **** }
 266:Generated_Source\PSoC6/SensorBus.h **** #endif /* (SensorBus_ENABLE_SLAVE) */
 267:Generated_Source\PSoC6/SensorBus.h **** 
 268:Generated_Source\PSoC6/SensorBus.h **** 
 269:Generated_Source\PSoC6/SensorBus.h **** /*******************************************************************************
 270:Generated_Source\PSoC6/SensorBus.h **** * Function Name: SensorBus_IsBusBusy
 271:Generated_Source\PSoC6/SensorBus.h **** ****************************************************************************//**
 272:Generated_Source\PSoC6/SensorBus.h **** *
 273:Generated_Source\PSoC6/SensorBus.h **** * Invokes the Cy_SCB_I2C_IsBusBusy() PDL driver function.
 274:Generated_Source\PSoC6/SensorBus.h **** *
 275:Generated_Source\PSoC6/SensorBus.h **** *******************************************************************************/
 276:Generated_Source\PSoC6/SensorBus.h **** __STATIC_INLINE bool SensorBus_IsBusBusy(void)
 277:Generated_Source\PSoC6/SensorBus.h **** {
 278:Generated_Source\PSoC6/SensorBus.h ****     return Cy_SCB_I2C_IsBusBusy(SensorBus_HW);
 279:Generated_Source\PSoC6/SensorBus.h **** }
 280:Generated_Source\PSoC6/SensorBus.h **** 
 281:Generated_Source\PSoC6/SensorBus.h **** 
 282:Generated_Source\PSoC6/SensorBus.h **** #if (SensorBus_ENABLE_SLAVE)
 283:Generated_Source\PSoC6/SensorBus.h **** /*******************************************************************************
 284:Generated_Source\PSoC6/SensorBus.h **** * Function Name: SensorBus_SlaveSetAddress
 285:Generated_Source\PSoC6/SensorBus.h **** ****************************************************************************//**
 286:Generated_Source\PSoC6/SensorBus.h **** *
 287:Generated_Source\PSoC6/SensorBus.h **** * Invokes the Cy_SCB_I2C_SlaveGetAddress() PDL driver function.
 288:Generated_Source\PSoC6/SensorBus.h **** *
 289:Generated_Source\PSoC6/SensorBus.h **** *******************************************************************************/
 290:Generated_Source\PSoC6/SensorBus.h **** __STATIC_INLINE void SensorBus_SlaveSetAddress(uint8_t addr)
 291:Generated_Source\PSoC6/SensorBus.h **** {
 292:Generated_Source\PSoC6/SensorBus.h ****     Cy_SCB_I2C_SlaveSetAddress(SensorBus_HW, addr);
 293:Generated_Source\PSoC6/SensorBus.h **** }
 294:Generated_Source\PSoC6/SensorBus.h **** 
 295:Generated_Source\PSoC6/SensorBus.h **** 
 296:Generated_Source\PSoC6/SensorBus.h **** /*******************************************************************************
 297:Generated_Source\PSoC6/SensorBus.h **** * Function Name: SensorBus_SlaveGetAddress
 298:Generated_Source\PSoC6/SensorBus.h **** ****************************************************************************//**
 299:Generated_Source\PSoC6/SensorBus.h **** *
 300:Generated_Source\PSoC6/SensorBus.h **** * Invokes the Cy_SCB_I2C_SlaveGetAddress() PDL driver function.
ARM GAS  C:\Users\salaz\AppData\Local\Temp\ccsvgFVW.s 			page 8


 301:Generated_Source\PSoC6/SensorBus.h **** *
 302:Generated_Source\PSoC6/SensorBus.h **** *******************************************************************************/
 303:Generated_Source\PSoC6/SensorBus.h **** __STATIC_INLINE uint32_t SensorBus_SlaveGetAddress(void)
 304:Generated_Source\PSoC6/SensorBus.h **** {
 305:Generated_Source\PSoC6/SensorBus.h ****     return Cy_SCB_I2C_SlaveGetAddress(SensorBus_HW);
 306:Generated_Source\PSoC6/SensorBus.h **** }
 307:Generated_Source\PSoC6/SensorBus.h **** 
 308:Generated_Source\PSoC6/SensorBus.h **** 
 309:Generated_Source\PSoC6/SensorBus.h **** /*******************************************************************************
 310:Generated_Source\PSoC6/SensorBus.h **** * Function Name: SensorBus_SlaveSetAddressMask
 311:Generated_Source\PSoC6/SensorBus.h **** ****************************************************************************//**
 312:Generated_Source\PSoC6/SensorBus.h **** *
 313:Generated_Source\PSoC6/SensorBus.h **** * Invokes the Cy_SCB_I2C_SlaveSetAddressMask() PDL driver function.
 314:Generated_Source\PSoC6/SensorBus.h **** *
 315:Generated_Source\PSoC6/SensorBus.h **** *******************************************************************************/
 316:Generated_Source\PSoC6/SensorBus.h **** __STATIC_INLINE void SensorBus_SlaveSetAddressMask(uint8_t addrMask)
 317:Generated_Source\PSoC6/SensorBus.h **** {
 318:Generated_Source\PSoC6/SensorBus.h ****     Cy_SCB_I2C_SlaveSetAddressMask(SensorBus_HW, addrMask);
 319:Generated_Source\PSoC6/SensorBus.h **** }
 320:Generated_Source\PSoC6/SensorBus.h **** 
 321:Generated_Source\PSoC6/SensorBus.h **** 
 322:Generated_Source\PSoC6/SensorBus.h **** /*******************************************************************************
 323:Generated_Source\PSoC6/SensorBus.h **** * Function Name: SensorBus_SlaveGetAddressMask
 324:Generated_Source\PSoC6/SensorBus.h **** ****************************************************************************//**
 325:Generated_Source\PSoC6/SensorBus.h **** *
 326:Generated_Source\PSoC6/SensorBus.h **** * Invokes the Cy_SCB_I2C_SlaveGetAddressMask() PDL driver function.
 327:Generated_Source\PSoC6/SensorBus.h **** *
 328:Generated_Source\PSoC6/SensorBus.h **** *******************************************************************************/
 329:Generated_Source\PSoC6/SensorBus.h **** __STATIC_INLINE uint32_t SensorBus_SlaveGetAddressMask(void)
 330:Generated_Source\PSoC6/SensorBus.h **** {
 331:Generated_Source\PSoC6/SensorBus.h ****     return Cy_SCB_I2C_SlaveGetAddressMask(SensorBus_HW);
 332:Generated_Source\PSoC6/SensorBus.h **** }
 333:Generated_Source\PSoC6/SensorBus.h **** #endif /* (SensorBus_ENABLE_SLAVE) */
 334:Generated_Source\PSoC6/SensorBus.h **** 
 335:Generated_Source\PSoC6/SensorBus.h **** #if (SensorBus_ENABLE_MASTER)
 336:Generated_Source\PSoC6/SensorBus.h **** /*******************************************************************************
 337:Generated_Source\PSoC6/SensorBus.h **** * Function Name: SensorBus_MasterSetLowPhaseDutyCycle
 338:Generated_Source\PSoC6/SensorBus.h **** ****************************************************************************//**
 339:Generated_Source\PSoC6/SensorBus.h **** *
 340:Generated_Source\PSoC6/SensorBus.h **** * Invokes the Cy_SCB_I2C_MasterSetLowPhaseDutyCycle() PDL driver function.
 341:Generated_Source\PSoC6/SensorBus.h **** *
 342:Generated_Source\PSoC6/SensorBus.h **** *******************************************************************************/
 343:Generated_Source\PSoC6/SensorBus.h **** __STATIC_INLINE void SensorBus_MasterSetLowPhaseDutyCycle(uint32_t clockCycles)
 344:Generated_Source\PSoC6/SensorBus.h **** {
 345:Generated_Source\PSoC6/SensorBus.h ****     Cy_SCB_I2C_MasterSetLowPhaseDutyCycle(SensorBus_HW, clockCycles);
 346:Generated_Source\PSoC6/SensorBus.h **** }
 347:Generated_Source\PSoC6/SensorBus.h **** 
 348:Generated_Source\PSoC6/SensorBus.h **** 
 349:Generated_Source\PSoC6/SensorBus.h **** /*******************************************************************************
 350:Generated_Source\PSoC6/SensorBus.h **** * Function Name: SensorBus_MasterSetHighPhaseDutyCycle
 351:Generated_Source\PSoC6/SensorBus.h **** ****************************************************************************//**
 352:Generated_Source\PSoC6/SensorBus.h **** *
 353:Generated_Source\PSoC6/SensorBus.h **** * Invokes the Cy_SCB_I2C_MasterSetHighPhaseDutyCycle() PDL driver function.
 354:Generated_Source\PSoC6/SensorBus.h **** *
 355:Generated_Source\PSoC6/SensorBus.h **** *******************************************************************************/
 356:Generated_Source\PSoC6/SensorBus.h **** __STATIC_INLINE void SensorBus_MasterSetHighPhaseDutyCycle(uint32_t clockCycles)
 357:Generated_Source\PSoC6/SensorBus.h **** {
ARM GAS  C:\Users\salaz\AppData\Local\Temp\ccsvgFVW.s 			page 9


 358:Generated_Source\PSoC6/SensorBus.h ****     Cy_SCB_I2C_MasterSetHighPhaseDutyCycle(SensorBus_HW, clockCycles);
 359:Generated_Source\PSoC6/SensorBus.h **** }
 360:Generated_Source\PSoC6/SensorBus.h **** #endif /* (SensorBus_ENABLE_MASTER) */
 361:Generated_Source\PSoC6/SensorBus.h **** 
 362:Generated_Source\PSoC6/SensorBus.h **** 
 363:Generated_Source\PSoC6/SensorBus.h **** #if (SensorBus_ENABLE_SLAVE)
 364:Generated_Source\PSoC6/SensorBus.h **** /*******************************************************************************
 365:Generated_Source\PSoC6/SensorBus.h **** * Function Name: SensorBus_SlaveGetStatus
 366:Generated_Source\PSoC6/SensorBus.h **** ****************************************************************************//**
 367:Generated_Source\PSoC6/SensorBus.h **** *
 368:Generated_Source\PSoC6/SensorBus.h **** * Invokes the Cy_SCB_I2C_SlaveGetStatus() PDL driver function.
 369:Generated_Source\PSoC6/SensorBus.h **** *
 370:Generated_Source\PSoC6/SensorBus.h **** *******************************************************************************/
 371:Generated_Source\PSoC6/SensorBus.h **** __STATIC_INLINE uint32_t SensorBus_SlaveGetStatus(void)
 372:Generated_Source\PSoC6/SensorBus.h **** {
 373:Generated_Source\PSoC6/SensorBus.h ****     return Cy_SCB_I2C_SlaveGetStatus(SensorBus_HW, &SensorBus_context);
 374:Generated_Source\PSoC6/SensorBus.h **** }
 375:Generated_Source\PSoC6/SensorBus.h **** 
 376:Generated_Source\PSoC6/SensorBus.h **** 
 377:Generated_Source\PSoC6/SensorBus.h **** /*******************************************************************************
 378:Generated_Source\PSoC6/SensorBus.h **** * Function Name: SensorBus_SlaveConfigReadBuf
 379:Generated_Source\PSoC6/SensorBus.h **** ****************************************************************************//**
 380:Generated_Source\PSoC6/SensorBus.h **** *
 381:Generated_Source\PSoC6/SensorBus.h **** * Invokes the Cy_SCB_I2C_SlaveConfigReadBuf() PDL driver function.
 382:Generated_Source\PSoC6/SensorBus.h **** *
 383:Generated_Source\PSoC6/SensorBus.h **** *******************************************************************************/
 384:Generated_Source\PSoC6/SensorBus.h **** __STATIC_INLINE void SensorBus_SlaveConfigReadBuf(uint8_t *buffer, uint32_t size)
 385:Generated_Source\PSoC6/SensorBus.h **** {
 386:Generated_Source\PSoC6/SensorBus.h ****     Cy_SCB_I2C_SlaveConfigReadBuf(SensorBus_HW, buffer, size, &SensorBus_context);
 387:Generated_Source\PSoC6/SensorBus.h **** }
 388:Generated_Source\PSoC6/SensorBus.h **** 
 389:Generated_Source\PSoC6/SensorBus.h **** 
 390:Generated_Source\PSoC6/SensorBus.h **** /*******************************************************************************
 391:Generated_Source\PSoC6/SensorBus.h **** * Function Name: SensorBus_SlaveAbortRead
 392:Generated_Source\PSoC6/SensorBus.h **** ****************************************************************************//**
 393:Generated_Source\PSoC6/SensorBus.h **** *
 394:Generated_Source\PSoC6/SensorBus.h **** * Invokes the Cy_SCB_I2C_SlaveAbortRead() PDL driver function.
 395:Generated_Source\PSoC6/SensorBus.h **** *
 396:Generated_Source\PSoC6/SensorBus.h **** *******************************************************************************/
 397:Generated_Source\PSoC6/SensorBus.h **** __STATIC_INLINE void SensorBus_SlaveAbortRead(void)
 398:Generated_Source\PSoC6/SensorBus.h **** {
 399:Generated_Source\PSoC6/SensorBus.h ****     Cy_SCB_I2C_SlaveAbortRead(SensorBus_HW, &SensorBus_context);
 400:Generated_Source\PSoC6/SensorBus.h **** }
 401:Generated_Source\PSoC6/SensorBus.h **** 
 402:Generated_Source\PSoC6/SensorBus.h **** 
 403:Generated_Source\PSoC6/SensorBus.h **** /*******************************************************************************
 404:Generated_Source\PSoC6/SensorBus.h **** * Function Name: SensorBus_SlaveGetReadTransferCount
 405:Generated_Source\PSoC6/SensorBus.h **** ****************************************************************************//**
 406:Generated_Source\PSoC6/SensorBus.h **** *
 407:Generated_Source\PSoC6/SensorBus.h **** * Invokes the Cy_SCB_I2C_SlaveGetReadTransferCount() PDL driver function.
 408:Generated_Source\PSoC6/SensorBus.h **** *
 409:Generated_Source\PSoC6/SensorBus.h **** *******************************************************************************/
 410:Generated_Source\PSoC6/SensorBus.h **** __STATIC_INLINE uint32_t SensorBus_SlaveGetReadTransferCount(void)
 411:Generated_Source\PSoC6/SensorBus.h **** {
 412:Generated_Source\PSoC6/SensorBus.h ****     return Cy_SCB_I2C_SlaveGetReadTransferCount(SensorBus_HW, &SensorBus_context);
 413:Generated_Source\PSoC6/SensorBus.h **** }
 414:Generated_Source\PSoC6/SensorBus.h **** 
ARM GAS  C:\Users\salaz\AppData\Local\Temp\ccsvgFVW.s 			page 10


 415:Generated_Source\PSoC6/SensorBus.h **** 
 416:Generated_Source\PSoC6/SensorBus.h **** /*******************************************************************************
 417:Generated_Source\PSoC6/SensorBus.h **** * Function Name: SensorBus_SlaveClearReadStatus
 418:Generated_Source\PSoC6/SensorBus.h **** ****************************************************************************//**
 419:Generated_Source\PSoC6/SensorBus.h **** *
 420:Generated_Source\PSoC6/SensorBus.h **** * Invokes the Cy_SCB_I2C_SlaveClearReadStatus() PDL driver function.
 421:Generated_Source\PSoC6/SensorBus.h **** *
 422:Generated_Source\PSoC6/SensorBus.h **** *******************************************************************************/
 423:Generated_Source\PSoC6/SensorBus.h **** __STATIC_INLINE uint32_t SensorBus_SlaveClearReadStatus(void)
 424:Generated_Source\PSoC6/SensorBus.h **** {
 425:Generated_Source\PSoC6/SensorBus.h ****     return Cy_SCB_I2C_SlaveClearReadStatus(SensorBus_HW, &SensorBus_context);
 426:Generated_Source\PSoC6/SensorBus.h **** }
 427:Generated_Source\PSoC6/SensorBus.h **** 
 428:Generated_Source\PSoC6/SensorBus.h **** 
 429:Generated_Source\PSoC6/SensorBus.h **** /*******************************************************************************
 430:Generated_Source\PSoC6/SensorBus.h **** * Function Name: SensorBus_SlaveConfigWriteBuf
 431:Generated_Source\PSoC6/SensorBus.h **** ****************************************************************************//**
 432:Generated_Source\PSoC6/SensorBus.h **** *
 433:Generated_Source\PSoC6/SensorBus.h **** * Invokes the Cy_SCB_I2C_SlaveConfigWriteBuf() PDL driver function.
 434:Generated_Source\PSoC6/SensorBus.h **** *
 435:Generated_Source\PSoC6/SensorBus.h **** *******************************************************************************/
 436:Generated_Source\PSoC6/SensorBus.h **** __STATIC_INLINE void SensorBus_SlaveConfigWriteBuf(uint8_t *buffer, uint32_t size)
 437:Generated_Source\PSoC6/SensorBus.h **** {
 438:Generated_Source\PSoC6/SensorBus.h ****     Cy_SCB_I2C_SlaveConfigWriteBuf(SensorBus_HW, buffer, size, &SensorBus_context);
 439:Generated_Source\PSoC6/SensorBus.h **** }
 440:Generated_Source\PSoC6/SensorBus.h **** 
 441:Generated_Source\PSoC6/SensorBus.h **** 
 442:Generated_Source\PSoC6/SensorBus.h **** /*******************************************************************************
 443:Generated_Source\PSoC6/SensorBus.h **** * Function Name: SensorBus_SlaveAbortWrite
 444:Generated_Source\PSoC6/SensorBus.h **** ****************************************************************************//**
 445:Generated_Source\PSoC6/SensorBus.h **** *
 446:Generated_Source\PSoC6/SensorBus.h **** * Invokes the Cy_SCB_I2C_SlaveAbortWrite() PDL driver function.
 447:Generated_Source\PSoC6/SensorBus.h **** *
 448:Generated_Source\PSoC6/SensorBus.h **** *******************************************************************************/
 449:Generated_Source\PSoC6/SensorBus.h **** __STATIC_INLINE void SensorBus_SlaveAbortWrite(void)
 450:Generated_Source\PSoC6/SensorBus.h **** {
 451:Generated_Source\PSoC6/SensorBus.h ****     Cy_SCB_I2C_SlaveAbortWrite(SensorBus_HW, &SensorBus_context);
 452:Generated_Source\PSoC6/SensorBus.h **** }
 453:Generated_Source\PSoC6/SensorBus.h **** 
 454:Generated_Source\PSoC6/SensorBus.h **** 
 455:Generated_Source\PSoC6/SensorBus.h **** /*******************************************************************************
 456:Generated_Source\PSoC6/SensorBus.h **** * Function Name: SensorBus_SlaveGetWriteTransferCount
 457:Generated_Source\PSoC6/SensorBus.h **** ****************************************************************************//**
 458:Generated_Source\PSoC6/SensorBus.h **** *
 459:Generated_Source\PSoC6/SensorBus.h **** * Invokes the Cy_SCB_I2C_SlaveGetWriteTransferCount() PDL driver function.
 460:Generated_Source\PSoC6/SensorBus.h **** *
 461:Generated_Source\PSoC6/SensorBus.h **** *******************************************************************************/
 462:Generated_Source\PSoC6/SensorBus.h **** __STATIC_INLINE uint32_t SensorBus_SlaveGetWriteTransferCount(void)
 463:Generated_Source\PSoC6/SensorBus.h **** {
 464:Generated_Source\PSoC6/SensorBus.h ****     return Cy_SCB_I2C_SlaveGetWriteTransferCount(SensorBus_HW, &SensorBus_context);
 465:Generated_Source\PSoC6/SensorBus.h **** }
 466:Generated_Source\PSoC6/SensorBus.h **** 
 467:Generated_Source\PSoC6/SensorBus.h **** 
 468:Generated_Source\PSoC6/SensorBus.h **** /*******************************************************************************
 469:Generated_Source\PSoC6/SensorBus.h **** * Function Name: SensorBus_SlaveClearWriteStatus
 470:Generated_Source\PSoC6/SensorBus.h **** ****************************************************************************//**
 471:Generated_Source\PSoC6/SensorBus.h **** *
ARM GAS  C:\Users\salaz\AppData\Local\Temp\ccsvgFVW.s 			page 11


 472:Generated_Source\PSoC6/SensorBus.h **** * Invokes the Cy_SCB_I2C_SlaveClearWriteStatus() PDL driver function.
 473:Generated_Source\PSoC6/SensorBus.h **** *
 474:Generated_Source\PSoC6/SensorBus.h **** *******************************************************************************/
 475:Generated_Source\PSoC6/SensorBus.h **** __STATIC_INLINE uint32_t SensorBus_SlaveClearWriteStatus(void)
 476:Generated_Source\PSoC6/SensorBus.h **** {
 477:Generated_Source\PSoC6/SensorBus.h ****     return Cy_SCB_I2C_SlaveClearWriteStatus(SensorBus_HW, &SensorBus_context);
 478:Generated_Source\PSoC6/SensorBus.h **** }
 479:Generated_Source\PSoC6/SensorBus.h **** #endif /* (SensorBus_ENABLE_SLAVE) */
 480:Generated_Source\PSoC6/SensorBus.h **** 
 481:Generated_Source\PSoC6/SensorBus.h **** 
 482:Generated_Source\PSoC6/SensorBus.h **** #if (SensorBus_ENABLE_MASTER)
 483:Generated_Source\PSoC6/SensorBus.h **** /*******************************************************************************
 484:Generated_Source\PSoC6/SensorBus.h **** * Function Name: SensorBus_MasterGetStatus
 485:Generated_Source\PSoC6/SensorBus.h **** ****************************************************************************//**
 486:Generated_Source\PSoC6/SensorBus.h **** *
 487:Generated_Source\PSoC6/SensorBus.h **** * Invokes the Cy_SCB_I2C_MasterGetStatus() PDL driver function.
 488:Generated_Source\PSoC6/SensorBus.h **** *
 489:Generated_Source\PSoC6/SensorBus.h **** *******************************************************************************/
 490:Generated_Source\PSoC6/SensorBus.h **** __STATIC_INLINE uint32_t SensorBus_MasterGetStatus(void)
 491:Generated_Source\PSoC6/SensorBus.h **** {
 492:Generated_Source\PSoC6/SensorBus.h ****     return Cy_SCB_I2C_MasterGetStatus(SensorBus_HW, &SensorBus_context);
 493:Generated_Source\PSoC6/SensorBus.h **** }
 494:Generated_Source\PSoC6/SensorBus.h **** 
 495:Generated_Source\PSoC6/SensorBus.h **** 
 496:Generated_Source\PSoC6/SensorBus.h **** /*******************************************************************************
 497:Generated_Source\PSoC6/SensorBus.h **** * Function Name: SensorBus_MasterRead
 498:Generated_Source\PSoC6/SensorBus.h **** ****************************************************************************//**
 499:Generated_Source\PSoC6/SensorBus.h **** *
 500:Generated_Source\PSoC6/SensorBus.h **** * Invokes the Cy_SCB_I2C_MasterRead() PDL driver function.
 501:Generated_Source\PSoC6/SensorBus.h **** *
 502:Generated_Source\PSoC6/SensorBus.h **** *******************************************************************************/
 503:Generated_Source\PSoC6/SensorBus.h **** __STATIC_INLINE cy_en_scb_i2c_status_t SensorBus_MasterRead(cy_stc_scb_i2c_master_xfer_config_t *xf
 504:Generated_Source\PSoC6/SensorBus.h **** {
 505:Generated_Source\PSoC6/SensorBus.h ****     return Cy_SCB_I2C_MasterRead(SensorBus_HW, xferConfig, &SensorBus_context);
 506:Generated_Source\PSoC6/SensorBus.h **** }
 507:Generated_Source\PSoC6/SensorBus.h **** 
 508:Generated_Source\PSoC6/SensorBus.h **** 
 509:Generated_Source\PSoC6/SensorBus.h **** /*******************************************************************************
 510:Generated_Source\PSoC6/SensorBus.h **** * Function Name: SensorBus_MasterAbortRead
 511:Generated_Source\PSoC6/SensorBus.h **** ****************************************************************************//**
 512:Generated_Source\PSoC6/SensorBus.h **** *
 513:Generated_Source\PSoC6/SensorBus.h **** * Invokes the Cy_SCB_I2C_MasterAbortRead() PDL driver function.
 514:Generated_Source\PSoC6/SensorBus.h **** *
 515:Generated_Source\PSoC6/SensorBus.h **** ******************************************************************************/
 516:Generated_Source\PSoC6/SensorBus.h **** __STATIC_INLINE void SensorBus_MasterAbortRead(void)
 517:Generated_Source\PSoC6/SensorBus.h **** {
 518:Generated_Source\PSoC6/SensorBus.h ****     Cy_SCB_I2C_MasterAbortRead(SensorBus_HW, &SensorBus_context);
 519:Generated_Source\PSoC6/SensorBus.h **** }
 520:Generated_Source\PSoC6/SensorBus.h **** 
 521:Generated_Source\PSoC6/SensorBus.h **** 
 522:Generated_Source\PSoC6/SensorBus.h **** /*******************************************************************************
 523:Generated_Source\PSoC6/SensorBus.h **** * Function Name: SensorBus_MasterWrite
 524:Generated_Source\PSoC6/SensorBus.h **** ****************************************************************************//**
 525:Generated_Source\PSoC6/SensorBus.h **** *
 526:Generated_Source\PSoC6/SensorBus.h **** * Invokes the Cy_SCB_I2C_MasterWrite() PDL driver function.
 527:Generated_Source\PSoC6/SensorBus.h **** *
 528:Generated_Source\PSoC6/SensorBus.h **** *******************************************************************************/
ARM GAS  C:\Users\salaz\AppData\Local\Temp\ccsvgFVW.s 			page 12


 529:Generated_Source\PSoC6/SensorBus.h **** __STATIC_INLINE cy_en_scb_i2c_status_t SensorBus_MasterWrite(cy_stc_scb_i2c_master_xfer_config_t *x
 530:Generated_Source\PSoC6/SensorBus.h **** {
 531:Generated_Source\PSoC6/SensorBus.h ****     return Cy_SCB_I2C_MasterWrite(SensorBus_HW, xferConfig, &SensorBus_context);
  48              		.loc 2 531 0
  49 000e 0431     		adds	r1, r1, #4
  50 0010 1C4A     		ldr	r2, .L8+4
  51 0012 1D48     		ldr	r0, .L8+8
  52              	.LVL2:
  53 0014 FFF7FEFF 		bl	Cy_SCB_I2C_MasterWrite
  54              	.LVL3:
  55              	.LBE38:
  56              	.LBE37:
  53:AccDriver.c   ****     
  54:AccDriver.c   ****     i2cReturnValue = SensorBus_MasterWrite(&register_setting);
  55:AccDriver.c   ****     if(i2cReturnValue != CY_SCB_I2C_SUCCESS)
  56:AccDriver.c   ****     {
  57:AccDriver.c   ****         // ** Throw error
  58:AccDriver.c   ****     }
  59:AccDriver.c   ****     
  60:AccDriver.c   ****     uint16 counter = 0;
  57              		.loc 1 60 0
  58 0018 0024     		movs	r4, #0
  61:AccDriver.c   ****     while(0 != (SensorBus_MasterGetStatus() & CY_SCB_I2C_MASTER_BUSY))
  59              		.loc 1 61 0
  60 001a 08E0     		b	.L2
  61              	.LVL4:
  62              	.L4:
  62:AccDriver.c   ****     {
  63:AccDriver.c   ****         if(++counter > 1000) 
  63              		.loc 1 63 0
  64 001c 0134     		adds	r4, r4, #1
  65              	.LVL5:
  66 001e A4B2     		uxth	r4, r4
  67              	.LVL6:
  68 0020 FA23     		movs	r3, #250
  69 0022 9B00     		lsls	r3, r3, #2
  70 0024 9C42     		cmp	r4, r3
  71 0026 27D8     		bhi	.L6
  64:AccDriver.c   ****         {
  65:AccDriver.c   ****             // ** Throw error
  66:AccDriver.c   ****             return 0;         
  67:AccDriver.c   ****         }
  68:AccDriver.c   ****         else
  69:AccDriver.c   ****         {
  70:AccDriver.c   ****             CyDelayUs(1);  // Keep Waiting
  72              		.loc 1 70 0
  73 0028 0120     		movs	r0, #1
  74 002a FFF7FEFF 		bl	Cy_SysLib_DelayUs
  75              	.LVL7:
  76              	.L2:
  77              	.LBB39:
  78              	.LBB40:
 492:Generated_Source\PSoC6/SensorBus.h **** }
  79              		.loc 2 492 0
  80 002e 1549     		ldr	r1, .L8+4
  81 0030 1548     		ldr	r0, .L8+8
  82 0032 FFF7FEFF 		bl	Cy_SCB_I2C_MasterGetStatus
ARM GAS  C:\Users\salaz\AppData\Local\Temp\ccsvgFVW.s 			page 13


  83              	.LVL8:
  84              	.LBE40:
  85              	.LBE39:
  61:AccDriver.c   ****     {
  86              		.loc 1 61 0
  87 0036 C303     		lsls	r3, r0, #15
  88 0038 F0D4     		bmi	.L4
  71:AccDriver.c   ****         }
  72:AccDriver.c   ****     }
  73:AccDriver.c   ****     
  74:AccDriver.c   ****     register_setting.buffer = rbuff; register_setting.bufferSize = 1; register_setting.xferPending 
  89              		.loc 1 74 0
  90 003a 1149     		ldr	r1, .L8
  91 003c 0B00     		movs	r3, r1
  92 003e 1433     		adds	r3, r3, #20
  93 0040 8B60     		str	r3, [r1, #8]
  94 0042 0123     		movs	r3, #1
  95 0044 CB60     		str	r3, [r1, #12]
  96 0046 0023     		movs	r3, #0
  97 0048 0B74     		strb	r3, [r1, #16]
  98              	.LVL9:
  99              	.LBB41:
 100              	.LBB42:
 505:Generated_Source\PSoC6/SensorBus.h **** }
 101              		.loc 2 505 0
 102 004a 0431     		adds	r1, r1, #4
 103 004c 0D4A     		ldr	r2, .L8+4
 104 004e 0E48     		ldr	r0, .L8+8
 105 0050 FFF7FEFF 		bl	Cy_SCB_I2C_MasterRead
 106              	.LVL10:
 107              	.L5:
 108              	.LBE42:
 109              	.LBE41:
 110              	.LBB43:
 111              	.LBB44:
 492:Generated_Source\PSoC6/SensorBus.h **** }
 112              		.loc 2 492 0 discriminator 1
 113 0054 0B49     		ldr	r1, .L8+4
 114 0056 0C48     		ldr	r0, .L8+8
 115 0058 FFF7FEFF 		bl	Cy_SCB_I2C_MasterGetStatus
 116              	.LVL11:
 117              	.LBE44:
 118              	.LBE43:
  75:AccDriver.c   ****     
  76:AccDriver.c   ****     i2cReturnValue = SensorBus_MasterRead(&register_setting);
  77:AccDriver.c   ****     if(i2cReturnValue != CY_SCB_I2C_SUCCESS)
  78:AccDriver.c   ****     {
  79:AccDriver.c   ****         // ** Throw error
  80:AccDriver.c   ****     }
  81:AccDriver.c   ****     
  82:AccDriver.c   ****     while(0 != (SensorBus_MasterGetStatus() & CY_SCB_I2C_MASTER_BUSY)){}
 119              		.loc 1 82 0 discriminator 1
 120 005c C303     		lsls	r3, r0, #15
 121 005e F9D4     		bmi	.L5
 122              	.LVL12:
  83:AccDriver.c   ****     {
  84:AccDriver.c   ****         if(++counter > 1000) 
ARM GAS  C:\Users\salaz\AppData\Local\Temp\ccsvgFVW.s 			page 14


 123              		.loc 1 84 0
 124 0060 0134     		adds	r4, r4, #1
 125              	.LVL13:
 126 0062 FA23     		movs	r3, #250
 127 0064 9B00     		lsls	r3, r3, #2
 128 0066 A4B2     		uxth	r4, r4
 129 0068 9C42     		cmp	r4, r3
 130 006a 07D8     		bhi	.L7
  85:AccDriver.c   ****         {
  86:AccDriver.c   ****             // ** Throw error
  87:AccDriver.c   ****             return 0;
  88:AccDriver.c   ****         }
  89:AccDriver.c   ****         else
  90:AccDriver.c   ****         {
  91:AccDriver.c   ****             CyDelayUs(1);  // Keep Waiting
 131              		.loc 1 91 0
 132 006c 0120     		movs	r0, #1
 133 006e FFF7FEFF 		bl	Cy_SysLib_DelayUs
 134              	.LVL14:
  92:AccDriver.c   ****         }
  93:AccDriver.c   ****     }
  94:AccDriver.c   ****     return rbuff[0];
 135              		.loc 1 94 0
 136 0072 034B     		ldr	r3, .L8
 137 0074 187D     		ldrb	r0, [r3, #20]
 138 0076 02E0     		b	.L3
 139              	.LVL15:
 140              	.L6:
  66:AccDriver.c   ****         }
 141              		.loc 1 66 0
 142 0078 0020     		movs	r0, #0
 143 007a 00E0     		b	.L3
 144              	.LVL16:
 145              	.L7:
  87:AccDriver.c   ****         }
 146              		.loc 1 87 0
 147 007c 0020     		movs	r0, #0
 148              	.L3:
  95:AccDriver.c   **** }
 149              		.loc 1 95 0
 150              		@ sp needed
 151 007e 10BD     		pop	{r4, pc}
 152              	.L9:
 153              		.align	2
 154              	.L8:
 155 0080 00000000 		.word	.LANCHOR0
 156 0084 00000000 		.word	SensorBus_context
 157 0088 00006440 		.word	1080295424
 158              		.cfi_endproc
 159              	.LFE799:
 160              		.size	ReadRegister, .-ReadRegister
 161              		.section	.text.WriteRegister,"ax",%progbits
 162              		.align	2
 163              		.code	16
 164              		.thumb_func
 165              		.type	WriteRegister, %function
 166              	WriteRegister:
ARM GAS  C:\Users\salaz\AppData\Local\Temp\ccsvgFVW.s 			page 15


 167              	.LFB798:
  23:AccDriver.c   ****     wbuff[0] = reg_addr; wbuff[1] = data;
 168              		.loc 1 23 0
 169              		.cfi_startproc
 170              		@ args = 0, pretend = 0, frame = 0
 171              		@ frame_needed = 0, uses_anonymous_args = 0
 172              	.LVL17:
 173 0000 10B5     		push	{r4, lr}
 174              		.cfi_def_cfa_offset 8
 175              		.cfi_offset 4, -8
 176              		.cfi_offset 14, -4
  24:AccDriver.c   ****     register_setting.buffer = wbuff; register_setting.bufferSize = 2; register_setting.xferPending 
 177              		.loc 1 24 0
 178 0002 0B4B     		ldr	r3, .L12
 179 0004 1870     		strb	r0, [r3]
 180 0006 5970     		strb	r1, [r3, #1]
  25:AccDriver.c   ****     
 181              		.loc 1 25 0
 182 0008 9B60     		str	r3, [r3, #8]
 183 000a 0222     		movs	r2, #2
 184 000c DA60     		str	r2, [r3, #12]
 185 000e 0022     		movs	r2, #0
 186 0010 1A74     		strb	r2, [r3, #16]
 187              	.LVL18:
 188              	.LBB45:
 189              	.LBB46:
 190              		.loc 2 531 0
 191 0012 191D     		adds	r1, r3, #4
 192              	.LVL19:
 193 0014 074A     		ldr	r2, .L12+4
 194 0016 0848     		ldr	r0, .L12+8
 195              	.LVL20:
 196 0018 FFF7FEFF 		bl	Cy_SCB_I2C_MasterWrite
 197              	.LVL21:
 198              	.L11:
 199              	.LBE46:
 200              	.LBE45:
 201              	.LBB47:
 202              	.LBB48:
 492:Generated_Source\PSoC6/SensorBus.h **** }
 203              		.loc 2 492 0 discriminator 1
 204 001c 0549     		ldr	r1, .L12+4
 205 001e 0648     		ldr	r0, .L12+8
 206 0020 FFF7FEFF 		bl	Cy_SCB_I2C_MasterGetStatus
 207              	.LVL22:
 208              	.LBE48:
 209              	.LBE47:
  34:AccDriver.c   ****     {
 210              		.loc 1 34 0 discriminator 1
 211 0024 C303     		lsls	r3, r0, #15
 212 0026 F9D4     		bmi	.L11
 213              	.LVL23:
  42:AccDriver.c   ****         }
 214              		.loc 1 42 0
 215 0028 0120     		movs	r0, #1
 216 002a FFF7FEFF 		bl	Cy_SysLib_DelayUs
 217              	.LVL24:
ARM GAS  C:\Users\salaz\AppData\Local\Temp\ccsvgFVW.s 			page 16


  46:AccDriver.c   **** static uint8 ReadRegister(uint8 reg_addr)
 218              		.loc 1 46 0
 219              		@ sp needed
 220 002e 10BD     		pop	{r4, pc}
 221              	.L13:
 222              		.align	2
 223              	.L12:
 224 0030 00000000 		.word	.LANCHOR0
 225 0034 00000000 		.word	SensorBus_context
 226 0038 00006440 		.word	1080295424
 227              		.cfi_endproc
 228              	.LFE798:
 229              		.size	WriteRegister, .-WriteRegister
 230              		.global	__aeabi_idiv
 231              		.section	.text.Interpolate,"ax",%progbits
 232              		.align	2
 233              		.code	16
 234              		.thumb_func
 235              		.type	Interpolate, %function
 236              	Interpolate:
 237              	.LFB800:
  96:AccDriver.c   **** static void Interpolate(void)
  97:AccDriver.c   **** {
 238              		.loc 1 97 0
 239              		.cfi_startproc
 240              		@ args = 0, pretend = 0, frame = 8
 241              		@ frame_needed = 0, uses_anonymous_args = 0
 242 0000 F0B5     		push	{r4, r5, r6, r7, lr}
 243              		.cfi_def_cfa_offset 20
 244              		.cfi_offset 4, -20
 245              		.cfi_offset 5, -16
 246              		.cfi_offset 6, -12
 247              		.cfi_offset 7, -8
 248              		.cfi_offset 14, -4
 249 0002 5F46     		mov	r7, fp
 250 0004 5646     		mov	r6, r10
 251 0006 4D46     		mov	r5, r9
 252 0008 4446     		mov	r4, r8
 253 000a F0B4     		push	{r4, r5, r6, r7}
 254              		.cfi_def_cfa_offset 36
 255              		.cfi_offset 8, -36
 256              		.cfi_offset 9, -32
 257              		.cfi_offset 10, -28
 258              		.cfi_offset 11, -24
 259 000c 83B0     		sub	sp, sp, #12
 260              		.cfi_def_cfa_offset 48
  98:AccDriver.c   ****     static int16 a0, a1, t, t1;
  99:AccDriver.c   ****     
 100:AccDriver.c   ****     sample_old.x_raw = sample_new.x_raw;
 261              		.loc 1 100 0
 262 000e 4B4B     		ldr	r3, .L24
 263 0010 2821     		movs	r1, #40
 264 0012 5A5E     		ldrsh	r2, [r3, r1]
 265 0014 9246     		mov	r10, r2
 101:AccDriver.c   ****     sample_old.y_raw = sample_new.y_raw;
 266              		.loc 1 101 0
 267 0016 2A21     		movs	r1, #42
ARM GAS  C:\Users\salaz\AppData\Local\Temp\ccsvgFVW.s 			page 17


 268 0018 5A5E     		ldrsh	r2, [r3, r1]
 269 001a 9146     		mov	r9, r2
 102:AccDriver.c   ****     sample_old.z_raw = sample_new.z_raw;
 270              		.loc 1 102 0
 271 001c 2C21     		movs	r1, #44
 272 001e 5A5E     		ldrsh	r2, [r3, r1]
 273 0020 9046     		mov	r8, r2
 103:AccDriver.c   **** 
 104:AccDriver.c   ****     sample_new.x_raw = ((uint16) x_msb << 8) | x_lsb;
 274              		.loc 1 104 0
 275 0022 3822     		movs	r2, #56
 276 0024 9A5C     		ldrb	r2, [r3, r2]
 277 0026 1202     		lsls	r2, r2, #8
 278 0028 3921     		movs	r1, #57
 279 002a 585C     		ldrb	r0, [r3, r1]
 280 002c 0243     		orrs	r2, r0
 281 002e 12B2     		sxth	r2, r2
 282 0030 1A85     		strh	r2, [r3, #40]
 105:AccDriver.c   ****     sample_new.y_raw = ((uint16) y_msb << 8) | y_lsb;
 283              		.loc 1 105 0
 284 0032 0131     		adds	r1, r1, #1
 285 0034 5D5C     		ldrb	r5, [r3, r1]
 286 0036 2D02     		lsls	r5, r5, #8
 287 0038 0131     		adds	r1, r1, #1
 288 003a 585C     		ldrb	r0, [r3, r1]
 289 003c 0543     		orrs	r5, r0
 290 003e 2DB2     		sxth	r5, r5
 291 0040 5D85     		strh	r5, [r3, #42]
 106:AccDriver.c   ****     sample_new.z_raw = ((uint16) z_msb << 8) | z_lsb;     
 292              		.loc 1 106 0
 293 0042 0131     		adds	r1, r1, #1
 294 0044 5C5C     		ldrb	r4, [r3, r1]
 295 0046 2402     		lsls	r4, r4, #8
 296 0048 0131     		adds	r1, r1, #1
 297 004a 585C     		ldrb	r0, [r3, r1]
 298 004c 0443     		orrs	r4, r0
 299 004e 24B2     		sxth	r4, r4
 300 0050 9C85     		strh	r4, [r3, #44]
 107:AccDriver.c   ****     
 108:AccDriver.c   ****     if(is_first_sample == true)
 301              		.loc 1 108 0
 302 0052 3B4B     		ldr	r3, .L24+4
 303 0054 1B78     		ldrb	r3, [r3]
 304 0056 002B     		cmp	r3, #0
 305 0058 03D0     		beq	.L15
 109:AccDriver.c   ****     {  
 110:AccDriver.c   ****         is_first_sample = false; return;
 306              		.loc 1 110 0
 307 005a 0022     		movs	r2, #0
 308 005c 384B     		ldr	r3, .L24+4
 309 005e 1A70     		strb	r2, [r3]
 310 0060 65E0     		b	.L14
 311              	.L15:
 111:AccDriver.c   ****     }
 112:AccDriver.c   ****     
 113:AccDriver.c   ****     if(interpolated.timestamp <= sample_new.timestamp)
 312              		.loc 1 113 0
ARM GAS  C:\Users\salaz\AppData\Local\Temp\ccsvgFVW.s 			page 18


 313 0062 364B     		ldr	r3, .L24
 314 0064 9E6C     		ldr	r6, [r3, #72]
 315 0066 DF6C     		ldr	r7, [r3, #76]
 316 0068 196A     		ldr	r1, [r3, #32]
 317 006a 5B6A     		ldr	r3, [r3, #36]
 318 006c 9F42     		cmp	r7, r3
 319 006e 57D8     		bhi	.L17
 320 0070 01D1     		bne	.L22
 321 0072 8E42     		cmp	r6, r1
 322 0074 54D8     		bhi	.L17
 323              	.L22:
 114:AccDriver.c   ****     {        
 115:AccDriver.c   ****         a0 = sample_old.x_raw; a1 = sample_new.x_raw; t = interpolated.timestamp; t1 = sample_new.t
 324              		.loc 1 115 0
 325 0076 36B2     		sxth	r6, r6
 326 0078 0BB2     		sxth	r3, r1
 116:AccDriver.c   ****         interpolated.x_raw = a0 + (t * (a1 - a0)/t1);
 327              		.loc 1 116 0
 328 007a 5146     		mov	r1, r10
 329 007c 501A     		subs	r0, r2, r1
 330 007e 7043     		muls	r0, r6
 331 0080 0193     		str	r3, [sp, #4]
 332 0082 1900     		movs	r1, r3
 333 0084 FFF7FEFF 		bl	__aeabi_idiv
 334              	.LVL25:
 335 0088 5044     		add	r0, r0, r10
 336 008a 82B2     		uxth	r2, r0
 337 008c 9246     		mov	r10, r2
 338 008e 2B4F     		ldr	r7, .L24
 339 0090 4022     		movs	r2, #64
 340 0092 9346     		mov	fp, r2
 341 0094 BB44     		add	fp, fp, r7
 342 0096 5A46     		mov	r2, fp
 343 0098 5146     		mov	r1, r10
 344 009a 1182     		strh	r1, [r2, #16]
 117:AccDriver.c   ****         
 118:AccDriver.c   ****         a0 = sample_old.y_raw; a1 = sample_new.y_raw;
 119:AccDriver.c   ****         interpolated.y_raw = a0 + (t * (a1 - a0)/t1);
 345              		.loc 1 119 0
 346 009c 4A46     		mov	r2, r9
 347 009e A81A     		subs	r0, r5, r2
 348 00a0 7043     		muls	r0, r6
 349 00a2 0199     		ldr	r1, [sp, #4]
 350 00a4 FFF7FEFF 		bl	__aeabi_idiv
 351              	.LVL26:
 352 00a8 4844     		add	r0, r0, r9
 353 00aa 85B2     		uxth	r5, r0
 354 00ac 5A46     		mov	r2, fp
 355 00ae 5582     		strh	r5, [r2, #18]
 120:AccDriver.c   ****           
 121:AccDriver.c   ****         a0 = sample_old.z_raw; a1 = sample_new.z_raw;
 122:AccDriver.c   ****         interpolated.z_raw = a0 + (t * (a1 - a0)/t1);
 356              		.loc 1 122 0
 357 00b0 4246     		mov	r2, r8
 358 00b2 A01A     		subs	r0, r4, r2
 359 00b4 7043     		muls	r0, r6
 360 00b6 0199     		ldr	r1, [sp, #4]
ARM GAS  C:\Users\salaz\AppData\Local\Temp\ccsvgFVW.s 			page 19


 361 00b8 FFF7FEFF 		bl	__aeabi_idiv
 362              	.LVL27:
 363 00bc 4044     		add	r0, r0, r8
 364 00be 80B2     		uxth	r0, r0
 365 00c0 5B46     		mov	r3, fp
 366 00c2 9882     		strh	r0, [r3, #20]
 123:AccDriver.c   **** 
 124:AccDriver.c   ****         wsample->x_raw = (uint16)interpolated.x_raw;
 367              		.loc 1 124 0
 368 00c4 3B6E     		ldr	r3, [r7, #96]
 369 00c6 5246     		mov	r2, r10
 370 00c8 5A80     		strh	r2, [r3, #2]
 125:AccDriver.c   ****         wsample->y_raw = (uint16)interpolated.y_raw;
 371              		.loc 1 125 0
 372 00ca 9D80     		strh	r5, [r3, #4]
 126:AccDriver.c   ****         wsample->z_raw = (uint16)interpolated.z_raw;
 373              		.loc 1 126 0
 374 00cc D880     		strh	r0, [r3, #6]
 127:AccDriver.c   ****             
 128:AccDriver.c   ****         wsample_ptr = (uint8*) wsample;    
 375              		.loc 1 128 0
 376 00ce 7B66     		str	r3, [r7, #100]
 129:AccDriver.c   ****         if(DataBuffer_OpenWriteSlot((uint8**)&wsample_ptr, ACC1ESLOT, sizeof(struct dAcc1ESlot)))
 377              		.loc 1 129 0
 378 00d0 3800     		movs	r0, r7
 379 00d2 6430     		adds	r0, r0, #100
 380 00d4 0822     		movs	r2, #8
 381 00d6 0221     		movs	r1, #2
 382 00d8 FFF7FEFF 		bl	DataBuffer_OpenWriteSlot
 383              	.LVL28:
 384 00dc 0028     		cmp	r0, #0
 385 00de 04D0     		beq	.L19
 130:AccDriver.c   ****         {
 131:AccDriver.c   ****             DataBuffer_CloseWriteSlot((uint8**)&wsample_ptr, ACC1ESLOT);
 386              		.loc 1 131 0
 387 00e0 0221     		movs	r1, #2
 388 00e2 1648     		ldr	r0, .L24
 389 00e4 6430     		adds	r0, r0, #100
 390 00e6 FFF7FEFF 		bl	DataBuffer_CloseWriteSlot
 391              	.LVL29:
 392              	.L19:
 132:AccDriver.c   ****         }
 133:AccDriver.c   ****         
 134:AccDriver.c   ****         interpolated.timestamp = interpolated.timestamp + interpolated_period;
 393              		.loc 1 134 0
 394 00ea 1449     		ldr	r1, .L24
 395 00ec 8A6E     		ldr	r2, [r1, #104]
 396 00ee 0023     		movs	r3, #0
 397 00f0 8C6C     		ldr	r4, [r1, #72]
 398 00f2 CD6C     		ldr	r5, [r1, #76]
 399 00f4 1219     		adds	r2, r2, r4
 400 00f6 6B41     		adcs	r3, r3, r5
 401 00f8 8A64     		str	r2, [r1, #72]
 402 00fa CB64     		str	r3, [r1, #76]
 135:AccDriver.c   ****         if(interpolated.timestamp < sample_new.timestamp)
 403              		.loc 1 135 0
 404 00fc 086A     		ldr	r0, [r1, #32]
ARM GAS  C:\Users\salaz\AppData\Local\Temp\ccsvgFVW.s 			page 20


 405 00fe 496A     		ldr	r1, [r1, #36]
 406 0100 9942     		cmp	r1, r3
 407 0102 02D8     		bhi	.L23
 408 0104 04D1     		bne	.L20
 409 0106 9042     		cmp	r0, r2
 410 0108 02D9     		bls	.L20
 411              	.L23:
 136:AccDriver.c   ****         {
 137:AccDriver.c   ****             Interpolate();
 412              		.loc 1 137 0
 413 010a FFF779FF 		bl	Interpolate
 414              	.LVL30:
 415 010e 0EE0     		b	.L14
 416              	.L20:
 138:AccDriver.c   ****         }
 139:AccDriver.c   ****         else
 140:AccDriver.c   ****         {
 141:AccDriver.c   ****             interpolated.timestamp = interpolated.timestamp - sample_period;
 417              		.loc 1 141 0
 418 0110 0A4C     		ldr	r4, .L24
 419 0112 E06E     		ldr	r0, [r4, #108]
 420 0114 0021     		movs	r1, #0
 421 0116 121A     		subs	r2, r2, r0
 422 0118 8B41     		sbcs	r3, r3, r1
 423 011a A264     		str	r2, [r4, #72]
 424 011c E364     		str	r3, [r4, #76]
 425 011e 06E0     		b	.L14
 426              	.L17:
 142:AccDriver.c   ****         }
 143:AccDriver.c   ****     }
 144:AccDriver.c   ****     else
 145:AccDriver.c   ****     {
 146:AccDriver.c   ****         interpolated.timestamp = interpolated.timestamp - sample_period;
 427              		.loc 1 146 0
 428 0120 0649     		ldr	r1, .L24
 429 0122 CA6E     		ldr	r2, [r1, #108]
 430 0124 0023     		movs	r3, #0
 431 0126 B61A     		subs	r6, r6, r2
 432 0128 9F41     		sbcs	r7, r7, r3
 433 012a 8E64     		str	r6, [r1, #72]
 434 012c CF64     		str	r7, [r1, #76]
 435              	.L14:
 147:AccDriver.c   ****     }
 148:AccDriver.c   **** }
 436              		.loc 1 148 0
 437 012e 03B0     		add	sp, sp, #12
 438              		@ sp needed
 439 0130 3CBC     		pop	{r2, r3, r4, r5}
 440 0132 9046     		mov	r8, r2
 441 0134 9946     		mov	r9, r3
 442 0136 A246     		mov	r10, r4
 443 0138 AB46     		mov	fp, r5
 444 013a F0BD     		pop	{r4, r5, r6, r7, pc}
 445              	.L25:
 446              		.align	2
 447              	.L24:
 448 013c 00010000 		.word	.LANCHOR1
ARM GAS  C:\Users\salaz\AppData\Local\Temp\ccsvgFVW.s 			page 21


 449 0140 00000000 		.word	.LANCHOR2
 450              		.cfi_endproc
 451              	.LFE800:
 452              		.size	Interpolate, .-Interpolate
 453              		.section	.text.AccDriver_Init,"ax",%progbits
 454              		.align	2
 455              		.global	AccDriver_Init
 456              		.code	16
 457              		.thumb_func
 458              		.type	AccDriver_Init, %function
 459              	AccDriver_Init:
 460              	.LFB801:
 149:AccDriver.c   **** void AccDriver_Init()
 150:AccDriver.c   **** {
 461              		.loc 1 150 0
 462              		.cfi_startproc
 463              		@ args = 0, pretend = 0, frame = 0
 464              		@ frame_needed = 0, uses_anonymous_args = 0
 465 0000 10B5     		push	{r4, lr}
 466              		.cfi_def_cfa_offset 8
 467              		.cfi_offset 4, -8
 468              		.cfi_offset 14, -4
 151:AccDriver.c   ****     register_setting.slaveAddress = 0x1E;
 469              		.loc 1 151 0
 470 0002 1E22     		movs	r2, #30
 471 0004 0C4B     		ldr	r3, .L27
 472 0006 1A71     		strb	r2, [r3, #4]
 152:AccDriver.c   ****     WriteRegister(0x21,0b01000000); CyDelay(10);  // Reset          W[0x3C 0x21 0x40]
 473              		.loc 1 152 0
 474 0008 4021     		movs	r1, #64
 475 000a 2120     		movs	r0, #33
 476 000c FFF7FEFF 		bl	WriteRegister
 477              	.LVL31:
 478 0010 0A20     		movs	r0, #10
 479 0012 FFF7FEFF 		bl	Cy_SysLib_Delay
 480              	.LVL32:
 153:AccDriver.c   ****     if(ReadRegister(0x0F) != 0b01000011) // Verify Chip ID          W[0x3C 0x0F] R[0x3D 0x43]
 481              		.loc 1 153 0
 482 0016 0F20     		movs	r0, #15
 483 0018 FFF7FEFF 		bl	ReadRegister
 484              	.LVL33:
 154:AccDriver.c   ****     {
 155:AccDriver.c   ****         // ** Throw error
 156:AccDriver.c   ****     }
 157:AccDriver.c   ****     wsample = (struct dAcc1ESlot*) malloc(sizeof(struct dAcc1ESlot));    
 485              		.loc 1 157 0
 486 001c 0820     		movs	r0, #8
 487 001e FFF7FEFF 		bl	malloc
 488              	.LVL34:
 489 0022 064B     		ldr	r3, .L27+4
 490 0024 1866     		str	r0, [r3, #96]
 158:AccDriver.c   ****     WriteRegister(0x20,0b10010001);    // Low Power + 12.5 Hz               W[0x3C 0x20 0x91]
 491              		.loc 1 158 0
 492 0026 9121     		movs	r1, #145
 493 0028 2020     		movs	r0, #32
 494 002a FFF7FEFF 		bl	WriteRegister
 495              	.LVL35:
ARM GAS  C:\Users\salaz\AppData\Local\Temp\ccsvgFVW.s 			page 22


 159:AccDriver.c   ****     WriteRegister(0x25,0b11000000);    // FIFO Circular Buffer Mode         W[0x3C 0x25 0xC0]
 496              		.loc 1 159 0
 497 002e C021     		movs	r1, #192
 498 0030 2520     		movs	r0, #37
 499 0032 FFF7FEFF 		bl	WriteRegister
 500              	.LVL36:
 160:AccDriver.c   ****     return;
 161:AccDriver.c   **** }
 501              		.loc 1 161 0
 502              		@ sp needed
 503 0036 10BD     		pop	{r4, pc}
 504              	.L28:
 505              		.align	2
 506              	.L27:
 507 0038 00000000 		.word	.LANCHOR0
 508 003c 00010000 		.word	.LANCHOR1
 509              		.cfi_endproc
 510              	.LFE801:
 511              		.size	AccDriver_Init, .-AccDriver_Init
 512              		.global	__aeabi_uidivmod
 513              		.section	.text.AccDriver_OperationDone,"ax",%progbits
 514              		.align	2
 515              		.global	AccDriver_OperationDone
 516              		.code	16
 517              		.thumb_func
 518              		.type	AccDriver_OperationDone, %function
 519              	AccDriver_OperationDone:
 520              	.LFB802:
 162:AccDriver.c   **** bool AccDriver_OperationDone()
 163:AccDriver.c   **** {
 521              		.loc 1 163 0
 522              		.cfi_startproc
 523              		@ args = 0, pretend = 0, frame = 0
 524              		@ frame_needed = 0, uses_anonymous_args = 0
 525 0000 10B5     		push	{r4, lr}
 526              		.cfi_def_cfa_offset 8
 527              		.cfi_offset 4, -8
 528              		.cfi_offset 14, -4
 164:AccDriver.c   ****     enum TransferStages{ UPDATE_SETTING_RATE, ASK_DIFF8, GET_DIFF8, ASK_FIFO_SIZE , GET_FIFO_SIZE ,
 165:AccDriver.c   ****     static uint8 pkt[2] = {0x00,0x00};
 166:AccDriver.c   ****     static uint16 state = UPDATE_SETTING_RATE;
 167:AccDriver.c   ****     static uint16 datums = 0;
 168:AccDriver.c   ****     
 169:AccDriver.c   ****     static uint8 val1[1] = {0x2f};  // Asks diff8
 170:AccDriver.c   ****     static uint8 val2[1] = {0x30};  // Asks fifo size
 171:AccDriver.c   ****     static uint8 val3[1] = {0x28};  // Asks fifo data
 172:AccDriver.c   ****     switch(state)
 529              		.loc 1 172 0
 530 0002 9A4A     		ldr	r2, .L56
 531 0004 7023     		movs	r3, #112
 532 0006 D15A     		ldrh	r1, [r2, r3]
 533 0008 0729     		cmp	r1, #7
 534 000a 00D9     		bls	.LCB462
 535 000c 2CE1     		b	.L54	@long jump
 536              	.LCB462:
 537 000e 8B00     		lsls	r3, r1, #2
 538 0010 974A     		ldr	r2, .L56+4
ARM GAS  C:\Users\salaz\AppData\Local\Temp\ccsvgFVW.s 			page 23


 539 0012 D358     		ldr	r3, [r2, r3]
 540 0014 9F46     		mov	pc, r3
 541              		.section	.rodata
 542              		.align	2
 543              	.L32:
 544 0000 16000000 		.word	.L31
 545 0004 E6000000 		.word	.L33
 546 0008 10010000 		.word	.L34
 547 000c 36010000 		.word	.L35
 548 0010 76010000 		.word	.L36
 549 0014 9C010000 		.word	.L37
 550 0018 E2010000 		.word	.L38
 551 001c 52020000 		.word	.L55
 552              		.section	.text.AccDriver_OperationDone
 553              	.L31:
 173:AccDriver.c   ****     {
 174:AccDriver.c   ****         case UPDATE_SETTING_RATE:
 175:AccDriver.c   ****         {
 176:AccDriver.c   ****             state = ASK_DIFF8;
 554              		.loc 1 176 0
 555 0016 0121     		movs	r1, #1
 556 0018 7023     		movs	r3, #112
 557 001a 944A     		ldr	r2, .L56
 558 001c D152     		strh	r1, [r2, r3]
 177:AccDriver.c   ****             if(device_rate_changed)
 559              		.loc 1 177 0
 560 001e 954B     		ldr	r3, .L56+8
 561 0020 5B78     		ldrb	r3, [r3, #1]
 562 0022 002B     		cmp	r3, #0
 563 0024 5FD0     		beq	.L33
 564              	.LBB49:
 178:AccDriver.c   ****             {
 179:AccDriver.c   ****                 device_rate_changed = false;
 565              		.loc 1 179 0
 566 0026 934B     		ldr	r3, .L56+8
 567 0028 0022     		movs	r2, #0
 568 002a 5A70     		strb	r2, [r3, #1]
 180:AccDriver.c   ****                 switch(device_rate_setting)
 569              		.loc 1 180 0
 570 002c 9A78     		ldrb	r2, [r3, #2]
 571 002e 082A     		cmp	r2, #8
 572 0030 4AD8     		bhi	.L40
 573 0032 9300     		lsls	r3, r2, #2
 574 0034 904A     		ldr	r2, .L56+12
 575 0036 D358     		ldr	r3, [r2, r3]
 576 0038 9F46     		mov	pc, r3
 577              		.section	.rodata
 578              		.align	2
 579              	.L42:
 580 0020 3A000000 		.word	.L41
 581 0024 4A000000 		.word	.L43
 582 0028 5A000000 		.word	.L44
 583 002c 6A000000 		.word	.L45
 584 0030 7A000000 		.word	.L46
 585 0034 8A000000 		.word	.L47
 586 0038 9A000000 		.word	.L48
 587 003c AA000000 		.word	.L49
ARM GAS  C:\Users\salaz\AppData\Local\Temp\ccsvgFVW.s 			page 24


 588 0040 BA000000 		.word	.L50
 589              		.section	.text.AccDriver_OperationDone
 590              	.L41:
 181:AccDriver.c   ****                 {
 182:AccDriver.c   ****                     case ACC_1E_RATE_800_HZ:  {pkt[0] = 0x20; pkt[1] = 0b11110000; break;}  // W[0x
 591              		.loc 1 182 0
 592 003a 8C4B     		ldr	r3, .L56
 593 003c 2021     		movs	r1, #32
 594 003e 7422     		movs	r2, #116
 595 0040 9954     		strb	r1, [r3, r2]
 596 0042 7433     		adds	r3, r3, #116
 597 0044 7C32     		adds	r2, r2, #124
 598 0046 5A70     		strb	r2, [r3, #1]
 599 0048 3EE0     		b	.L40
 600              	.L43:
 183:AccDriver.c   ****                     case ACC_1E_RATE_400_HZ:  {pkt[0] = 0x20; pkt[1] = 0b11100000; break;}  // W[0x
 601              		.loc 1 183 0
 602 004a 884B     		ldr	r3, .L56
 603 004c 2021     		movs	r1, #32
 604 004e 7422     		movs	r2, #116
 605 0050 9954     		strb	r1, [r3, r2]
 606 0052 7433     		adds	r3, r3, #116
 607 0054 6C32     		adds	r2, r2, #108
 608 0056 5A70     		strb	r2, [r3, #1]
 609 0058 36E0     		b	.L40
 610              	.L44:
 184:AccDriver.c   ****                     case ACC_1E_RATE_200_HZ:  {pkt[0] = 0x20; pkt[1] = 0b11010000; break;}  // W[0x
 611              		.loc 1 184 0
 612 005a 844B     		ldr	r3, .L56
 613 005c 2021     		movs	r1, #32
 614 005e 7422     		movs	r2, #116
 615 0060 9954     		strb	r1, [r3, r2]
 616 0062 7433     		adds	r3, r3, #116
 617 0064 5C32     		adds	r2, r2, #92
 618 0066 5A70     		strb	r2, [r3, #1]
 619 0068 2EE0     		b	.L40
 620              	.L45:
 185:AccDriver.c   ****                     case ACC_1E_RATE_100_HZ:  {pkt[0] = 0x20; pkt[1] = 0b11000000; break;}  // W[0x
 621              		.loc 1 185 0
 622 006a 804B     		ldr	r3, .L56
 623 006c 2021     		movs	r1, #32
 624 006e 7422     		movs	r2, #116
 625 0070 9954     		strb	r1, [r3, r2]
 626 0072 7433     		adds	r3, r3, #116
 627 0074 4C32     		adds	r2, r2, #76
 628 0076 5A70     		strb	r2, [r3, #1]
 629 0078 26E0     		b	.L40
 630              	.L46:
 186:AccDriver.c   ****                     case ACC_1E_RATE_50_HZ:   {pkt[0] = 0x20; pkt[1] = 0b10110000; break;}  // W[0x
 631              		.loc 1 186 0
 632 007a 7C4B     		ldr	r3, .L56
 633 007c 2021     		movs	r1, #32
 634 007e 7422     		movs	r2, #116
 635 0080 9954     		strb	r1, [r3, r2]
 636 0082 7433     		adds	r3, r3, #116
 637 0084 3C32     		adds	r2, r2, #60
 638 0086 5A70     		strb	r2, [r3, #1]
ARM GAS  C:\Users\salaz\AppData\Local\Temp\ccsvgFVW.s 			page 25


 639 0088 1EE0     		b	.L40
 640              	.L47:
 187:AccDriver.c   ****                     case ACC_1E_RATE_25_HZ:   {pkt[0] = 0x20; pkt[1] = 0b10100000; break;}  // W[0x
 641              		.loc 1 187 0
 642 008a 784B     		ldr	r3, .L56
 643 008c 2021     		movs	r1, #32
 644 008e 7422     		movs	r2, #116
 645 0090 9954     		strb	r1, [r3, r2]
 646 0092 7433     		adds	r3, r3, #116
 647 0094 2C32     		adds	r2, r2, #44
 648 0096 5A70     		strb	r2, [r3, #1]
 649 0098 16E0     		b	.L40
 650              	.L48:
 188:AccDriver.c   ****                     case ACC_1E_RATE_12_5_HZ: {pkt[0] = 0x20; pkt[1] = 0b10010000; break;}  // W[0x
 651              		.loc 1 188 0
 652 009a 744B     		ldr	r3, .L56
 653 009c 2021     		movs	r1, #32
 654 009e 7422     		movs	r2, #116
 655 00a0 9954     		strb	r1, [r3, r2]
 656 00a2 7433     		adds	r3, r3, #116
 657 00a4 1C32     		adds	r2, r2, #28
 658 00a6 5A70     		strb	r2, [r3, #1]
 659 00a8 0EE0     		b	.L40
 660              	.L49:
 189:AccDriver.c   ****                     case ACC_1E_RATE_1_HZ:    {pkt[0] = 0x20; pkt[1] = 0b10000000; break;}  // W[0x
 661              		.loc 1 189 0
 662 00aa 704B     		ldr	r3, .L56
 663 00ac 2021     		movs	r1, #32
 664 00ae 7422     		movs	r2, #116
 665 00b0 9954     		strb	r1, [r3, r2]
 666 00b2 7433     		adds	r3, r3, #116
 667 00b4 0C32     		adds	r2, r2, #12
 668 00b6 5A70     		strb	r2, [r3, #1]
 669 00b8 06E0     		b	.L40
 670              	.L50:
 190:AccDriver.c   ****                     case ACC_1E_OFF:          {pkt[0] = 0x20; pkt[1] = 0b00000000; break;}  // W[0x
 671              		.loc 1 190 0
 672 00ba 6C4B     		ldr	r3, .L56
 673 00bc 2021     		movs	r1, #32
 674 00be 7422     		movs	r2, #116
 675 00c0 9954     		strb	r1, [r3, r2]
 676 00c2 7433     		adds	r3, r3, #116
 677 00c4 0022     		movs	r2, #0
 678 00c6 5A70     		strb	r2, [r3, #1]
 679              	.L40:
 191:AccDriver.c   ****                 }				
 192:AccDriver.c   ****                 register_setting.buffer = pkt; register_setting.bufferSize = 2; register_setting.xf
 680              		.loc 1 192 0
 681 00c8 6C49     		ldr	r1, .L56+16
 682 00ca 684B     		ldr	r3, .L56
 683 00cc 7433     		adds	r3, r3, #116
 684 00ce 8B60     		str	r3, [r1, #8]
 685 00d0 0223     		movs	r3, #2
 686 00d2 CB60     		str	r3, [r1, #12]
 687 00d4 0023     		movs	r3, #0
 688 00d6 0B74     		strb	r3, [r1, #16]
 689              	.LVL37:
ARM GAS  C:\Users\salaz\AppData\Local\Temp\ccsvgFVW.s 			page 26


 690              	.LBB50:
 691              	.LBB51:
 692              		.loc 2 531 0
 693 00d8 0431     		adds	r1, r1, #4
 694 00da 694A     		ldr	r2, .L56+20
 695 00dc 6948     		ldr	r0, .L56+24
 696 00de FFF7FEFF 		bl	Cy_SCB_I2C_MasterWrite
 697              	.LVL38:
 698              	.LBE51:
 699              	.LBE50:
 700              	.LBE49:
 193:AccDriver.c   ****                 cy_en_scb_i2c_status_t i2cReturnValue = SensorBus_MasterWrite(&register_setting);
 194:AccDriver.c   ****                 if(i2cReturnValue != CY_SCB_I2C_SUCCESS)
 195:AccDriver.c   ****                 {
 196:AccDriver.c   ****                     // ** Throw error
 197:AccDriver.c   ****                 }    
 198:AccDriver.c   ****                 break;
 199:AccDriver.c   ****             }
 200:AccDriver.c   ****         }
 201:AccDriver.c   ****         case ASK_DIFF8:  // 9th-bit for FIFO buffer, asks if FIFO is full (256 samples). On page 50
 202:AccDriver.c   ****         {
 203:AccDriver.c   ****             datums = 0;
 204:AccDriver.c   ****             register_setting.buffer = val1; register_setting.bufferSize = 1; register_setting.xferP
 205:AccDriver.c   ****             cy_en_scb_i2c_status_t i2cReturnValue = SensorBus_MasterWrite(&register_setting);
 206:AccDriver.c   ****             if(i2cReturnValue != CY_SCB_I2C_SUCCESS)
 207:AccDriver.c   ****             {
 208:AccDriver.c   ****                 // ** Throw error
 209:AccDriver.c   ****             }
 210:AccDriver.c   ****             state = GET_DIFF8;
 211:AccDriver.c   ****             break;
 212:AccDriver.c   ****         }
 213:AccDriver.c   ****         case GET_DIFF8:  // Read if DIFF8 is filled      R[0x3D 0x##]
 214:AccDriver.c   ****         {
 215:AccDriver.c   ****             register_setting.buffer = rbuff; register_setting.bufferSize = 1; register_setting.xfer
 216:AccDriver.c   ****             cy_en_scb_i2c_status_t i2cReturnValue = SensorBus_MasterRead(&register_setting);
 217:AccDriver.c   ****             if(i2cReturnValue != CY_SCB_I2C_SUCCESS)
 218:AccDriver.c   ****             {
 219:AccDriver.c   ****                 // ** Throw error
 220:AccDriver.c   ****             }
 221:AccDriver.c   ****             state = ASK_FIFO_SIZE; 
 222:AccDriver.c   ****             break;
 223:AccDriver.c   ****         }
 224:AccDriver.c   ****         case ASK_FIFO_SIZE:  // Request Number of Buffered datums  
 225:AccDriver.c   ****         {
 226:AccDriver.c   ****             if(rbuff[0] & 0x20)
 227:AccDriver.c   ****             {
 228:AccDriver.c   ****                 datums = 256;
 229:AccDriver.c   ****                 state = ASK_FIFO_DATA;
 230:AccDriver.c   ****             }
 231:AccDriver.c   ****             else //  W[0x3C 0x30]
 232:AccDriver.c   ****             {
 233:AccDriver.c   ****                 register_setting.buffer = val2; register_setting.bufferSize = 1; register_setting.x
 234:AccDriver.c   ****                 cy_en_scb_i2c_status_t i2cReturnValue = SensorBus_MasterWrite(&register_setting);
 235:AccDriver.c   ****                 if(i2cReturnValue != CY_SCB_I2C_SUCCESS)
 236:AccDriver.c   ****                 {
 237:AccDriver.c   ****                     // ** Throw error
 238:AccDriver.c   ****                 }
ARM GAS  C:\Users\salaz\AppData\Local\Temp\ccsvgFVW.s 			page 27


 239:AccDriver.c   ****                 state = GET_FIFO_SIZE;
 240:AccDriver.c   ****             }
 241:AccDriver.c   ****             break;
 242:AccDriver.c   ****         }
 243:AccDriver.c   ****         case GET_FIFO_SIZE:  // Read Number of Buffered datums      R[0x3D 0x##]
 244:AccDriver.c   ****         {
 245:AccDriver.c   ****             register_setting.buffer = rbuff; register_setting.bufferSize = 1; register_setting.xfer
 246:AccDriver.c   ****             cy_en_scb_i2c_status_t i2cReturnValue = SensorBus_MasterRead(&register_setting);
 247:AccDriver.c   ****             if(i2cReturnValue != CY_SCB_I2C_SUCCESS)
 248:AccDriver.c   ****             {
 249:AccDriver.c   ****                 // ** Throw error
 250:AccDriver.c   ****             }
 251:AccDriver.c   ****             state = ASK_FIFO_DATA;
 252:AccDriver.c   ****             break;
 253:AccDriver.c   ****         }
 254:AccDriver.c   ****         case ASK_FIFO_DATA:  // Request All Buffered datums         W[0x3C 0x028]
 255:AccDriver.c   ****         {
 256:AccDriver.c   ****             if(datums != 256)
 257:AccDriver.c   ****             {
 258:AccDriver.c   ****                 uint8 remainder = (rbuff[0] & 0xFF) % 6;
 259:AccDriver.c   ****                 datums = (rbuff[0] & 0xFF) - remainder; // 16-bit for x,y,z
 260:AccDriver.c   ****             }
 261:AccDriver.c   ****             register_setting.buffer = val3; register_setting.bufferSize = 1; register_setting.xferP
 262:AccDriver.c   ****             cy_en_scb_i2c_status_t i2cReturnValue = SensorBus_MasterWrite(&register_setting);
 263:AccDriver.c   ****             if(i2cReturnValue != CY_SCB_I2C_SUCCESS)
 264:AccDriver.c   ****             {
 265:AccDriver.c   ****                 // ** Throw error
 266:AccDriver.c   ****             }
 267:AccDriver.c   ****             state = GET_FIFO_DATA; 
 268:AccDriver.c   ****             break;
 269:AccDriver.c   ****         }        
 270:AccDriver.c   ****         case GET_FIFO_DATA:  // Read Buffered datums                R[0x3D 0x## ... 0x##]
 271:AccDriver.c   ****         {
 272:AccDriver.c   ****             register_setting.buffer = rbuff; register_setting.bufferSize = datums; register_setting
 273:AccDriver.c   ****             cy_en_scb_i2c_status_t i2cReturnValue = SensorBus_MasterRead(&register_setting);
 274:AccDriver.c   ****             if(i2cReturnValue != CY_SCB_I2C_SUCCESS)
 275:AccDriver.c   ****             {
 276:AccDriver.c   ****                 // ** Throw error
 277:AccDriver.c   ****             }
 278:AccDriver.c   ****             state = SAVE_TO_BUFFER;
 279:AccDriver.c   ****             break;
 280:AccDriver.c   ****         }
 281:AccDriver.c   ****         case SAVE_TO_BUFFER: // Save to Buffer
 282:AccDriver.c   ****         {
 283:AccDriver.c   ****             for(uint16 index = 0; index < datums; index += 6)
 284:AccDriver.c   ****             {
 285:AccDriver.c   ****                 x_lsb = rbuff[index+0]; x_msb = rbuff[index+1];
 286:AccDriver.c   ****                 y_lsb = rbuff[index+2]; y_msb = rbuff[index+3];
 287:AccDriver.c   ****                 z_lsb = rbuff[index+4]; z_msb = rbuff[index+5];
 288:AccDriver.c   ****                 Interpolate();
 289:AccDriver.c   ****             }
 290:AccDriver.c   ****             state = UPDATE_SETTING_RATE;
 291:AccDriver.c   ****             return true;
 292:AccDriver.c   ****         }
 293:AccDriver.c   ****     }    
 294:AccDriver.c   ****     return false;
 701              		.loc 1 294 0
ARM GAS  C:\Users\salaz\AppData\Local\Temp\ccsvgFVW.s 			page 28


 702 00e2 0020     		movs	r0, #0
 703              	.LBB52:
 198:AccDriver.c   ****             }
 704              		.loc 1 198 0
 705 00e4 C1E0     		b	.L30
 706              	.L33:
 707              	.LBE52:
 708              	.LBB53:
 203:AccDriver.c   ****             register_setting.buffer = val1; register_setting.bufferSize = 1; register_setting.xferP
 709              		.loc 1 203 0
 710 00e6 614C     		ldr	r4, .L56
 711 00e8 0022     		movs	r2, #0
 712 00ea 7623     		movs	r3, #118
 713 00ec E252     		strh	r2, [r4, r3]
 204:AccDriver.c   ****             cy_en_scb_i2c_status_t i2cReturnValue = SensorBus_MasterWrite(&register_setting);
 714              		.loc 1 204 0
 715 00ee 6349     		ldr	r1, .L56+16
 716 00f0 604B     		ldr	r3, .L56+8
 717 00f2 0433     		adds	r3, r3, #4
 718 00f4 8B60     		str	r3, [r1, #8]
 719 00f6 0123     		movs	r3, #1
 720 00f8 CB60     		str	r3, [r1, #12]
 721 00fa 0B74     		strb	r3, [r1, #16]
 722              	.LVL39:
 723              	.LBB54:
 724              	.LBB55:
 725              		.loc 2 531 0
 726 00fc 0431     		adds	r1, r1, #4
 727 00fe 604A     		ldr	r2, .L56+20
 728 0100 6048     		ldr	r0, .L56+24
 729 0102 FFF7FEFF 		bl	Cy_SCB_I2C_MasterWrite
 730              	.LVL40:
 731              	.LBE55:
 732              	.LBE54:
 210:AccDriver.c   ****             break;
 733              		.loc 1 210 0
 734 0106 0222     		movs	r2, #2
 735 0108 7023     		movs	r3, #112
 736 010a E252     		strh	r2, [r4, r3]
 737              	.LBE53:
 738              		.loc 1 294 0
 739 010c 0020     		movs	r0, #0
 740              	.LBB56:
 211:AccDriver.c   ****         }
 741              		.loc 1 211 0
 742 010e ACE0     		b	.L30
 743              	.L34:
 744              	.LBE56:
 745              	.LBB57:
 215:AccDriver.c   ****             cy_en_scb_i2c_status_t i2cReturnValue = SensorBus_MasterRead(&register_setting);
 746              		.loc 1 215 0
 747 0110 5A49     		ldr	r1, .L56+16
 748 0112 0B00     		movs	r3, r1
 749 0114 1433     		adds	r3, r3, #20
 750 0116 8B60     		str	r3, [r1, #8]
 751 0118 0123     		movs	r3, #1
 752 011a CB60     		str	r3, [r1, #12]
ARM GAS  C:\Users\salaz\AppData\Local\Temp\ccsvgFVW.s 			page 29


 753 011c 0023     		movs	r3, #0
 754 011e 0B74     		strb	r3, [r1, #16]
 755              	.LVL41:
 756              	.LBB58:
 757              	.LBB59:
 505:Generated_Source\PSoC6/SensorBus.h **** }
 758              		.loc 2 505 0
 759 0120 0431     		adds	r1, r1, #4
 760 0122 574A     		ldr	r2, .L56+20
 761 0124 5748     		ldr	r0, .L56+24
 762 0126 FFF7FEFF 		bl	Cy_SCB_I2C_MasterRead
 763              	.LVL42:
 764              	.LBE59:
 765              	.LBE58:
 221:AccDriver.c   ****             break;
 766              		.loc 1 221 0
 767 012a 0321     		movs	r1, #3
 768 012c 7023     		movs	r3, #112
 769 012e 4F4A     		ldr	r2, .L56
 770 0130 D152     		strh	r1, [r2, r3]
 771              	.LBE57:
 772              		.loc 1 294 0
 773 0132 0020     		movs	r0, #0
 774              	.LBB60:
 222:AccDriver.c   ****         }
 775              		.loc 1 222 0
 776 0134 99E0     		b	.L30
 777              	.L35:
 778              	.LBE60:
 226:AccDriver.c   ****             {
 779              		.loc 1 226 0
 780 0136 514B     		ldr	r3, .L56+16
 781 0138 1B7D     		ldrb	r3, [r3, #20]
 782 013a 9B06     		lsls	r3, r3, #26
 783 013c 09D5     		bpl	.L51
 228:AccDriver.c   ****                 state = ASK_FIFO_DATA;
 784              		.loc 1 228 0
 785 013e 4B4B     		ldr	r3, .L56
 786 0140 8021     		movs	r1, #128
 787 0142 4900     		lsls	r1, r1, #1
 788 0144 7622     		movs	r2, #118
 789 0146 9952     		strh	r1, [r3, r2]
 229:AccDriver.c   ****             }
 790              		.loc 1 229 0
 791 0148 FB39     		subs	r1, r1, #251
 792 014a 063A     		subs	r2, r2, #6
 793 014c 9952     		strh	r1, [r3, r2]
 794              		.loc 1 294 0
 795 014e 0020     		movs	r0, #0
 796 0150 8BE0     		b	.L30
 797              	.L51:
 798              	.LBB61:
 233:AccDriver.c   ****                 cy_en_scb_i2c_status_t i2cReturnValue = SensorBus_MasterWrite(&register_setting);
 799              		.loc 1 233 0
 800 0152 4A49     		ldr	r1, .L56+16
 801 0154 474B     		ldr	r3, .L56+8
 802 0156 0833     		adds	r3, r3, #8
ARM GAS  C:\Users\salaz\AppData\Local\Temp\ccsvgFVW.s 			page 30


 803 0158 8B60     		str	r3, [r1, #8]
 804 015a 0123     		movs	r3, #1
 805 015c CB60     		str	r3, [r1, #12]
 806 015e 0B74     		strb	r3, [r1, #16]
 807              	.LVL43:
 808              	.LBB62:
 809              	.LBB63:
 810              		.loc 2 531 0
 811 0160 0431     		adds	r1, r1, #4
 812 0162 474A     		ldr	r2, .L56+20
 813 0164 4748     		ldr	r0, .L56+24
 814 0166 FFF7FEFF 		bl	Cy_SCB_I2C_MasterWrite
 815              	.LVL44:
 816              	.LBE63:
 817              	.LBE62:
 239:AccDriver.c   ****             }
 818              		.loc 1 239 0
 819 016a 0421     		movs	r1, #4
 820 016c 7023     		movs	r3, #112
 821 016e 3F4A     		ldr	r2, .L56
 822 0170 D152     		strh	r1, [r2, r3]
 823              	.LBE61:
 824              		.loc 1 294 0
 825 0172 0020     		movs	r0, #0
 826 0174 79E0     		b	.L30
 827              	.L36:
 828              	.LBB64:
 245:AccDriver.c   ****             cy_en_scb_i2c_status_t i2cReturnValue = SensorBus_MasterRead(&register_setting);
 829              		.loc 1 245 0
 830 0176 4149     		ldr	r1, .L56+16
 831 0178 0B00     		movs	r3, r1
 832 017a 1433     		adds	r3, r3, #20
 833 017c 8B60     		str	r3, [r1, #8]
 834 017e 0123     		movs	r3, #1
 835 0180 CB60     		str	r3, [r1, #12]
 836 0182 0023     		movs	r3, #0
 837 0184 0B74     		strb	r3, [r1, #16]
 838              	.LVL45:
 839              	.LBB65:
 840              	.LBB66:
 505:Generated_Source\PSoC6/SensorBus.h **** }
 841              		.loc 2 505 0
 842 0186 0431     		adds	r1, r1, #4
 843 0188 3D4A     		ldr	r2, .L56+20
 844 018a 3E48     		ldr	r0, .L56+24
 845 018c FFF7FEFF 		bl	Cy_SCB_I2C_MasterRead
 846              	.LVL46:
 847              	.LBE66:
 848              	.LBE65:
 251:AccDriver.c   ****             break;
 849              		.loc 1 251 0
 850 0190 0521     		movs	r1, #5
 851 0192 7023     		movs	r3, #112
 852 0194 354A     		ldr	r2, .L56
 853 0196 D152     		strh	r1, [r2, r3]
 854              	.LBE64:
 855              		.loc 1 294 0
ARM GAS  C:\Users\salaz\AppData\Local\Temp\ccsvgFVW.s 			page 31


 856 0198 0020     		movs	r0, #0
 857              	.LBB67:
 252:AccDriver.c   ****         }
 858              		.loc 1 252 0
 859 019a 66E0     		b	.L30
 860              	.L37:
 861              	.LBE67:
 862              	.LBB68:
 256:AccDriver.c   ****             {
 863              		.loc 1 256 0
 864 019c 7623     		movs	r3, #118
 865 019e 334A     		ldr	r2, .L56
 866 01a0 D25A     		ldrh	r2, [r2, r3]
 867 01a2 8A33     		adds	r3, r3, #138
 868 01a4 9A42     		cmp	r2, r3
 869 01a6 0AD0     		beq	.L52
 870              	.LBB69:
 258:AccDriver.c   ****                 datums = (rbuff[0] & 0xFF) - remainder; // 16-bit for x,y,z
 871              		.loc 1 258 0
 872 01a8 344B     		ldr	r3, .L56+16
 873 01aa 1C7D     		ldrb	r4, [r3, #20]
 874 01ac 0621     		movs	r1, #6
 875 01ae 2000     		movs	r0, r4
 876 01b0 FFF7FEFF 		bl	__aeabi_uidivmod
 877              	.LVL47:
 878 01b4 C9B2     		uxtb	r1, r1
 879              	.LVL48:
 259:AccDriver.c   ****             }
 880              		.loc 1 259 0
 881 01b6 641A     		subs	r4, r4, r1
 882 01b8 7623     		movs	r3, #118
 883 01ba 2C4A     		ldr	r2, .L56
 884 01bc D452     		strh	r4, [r2, r3]
 885              	.LVL49:
 886              	.L52:
 887              	.LBE69:
 261:AccDriver.c   ****             cy_en_scb_i2c_status_t i2cReturnValue = SensorBus_MasterWrite(&register_setting);
 888              		.loc 1 261 0
 889 01be 2F49     		ldr	r1, .L56+16
 890 01c0 2C4B     		ldr	r3, .L56+8
 891 01c2 0C33     		adds	r3, r3, #12
 892 01c4 8B60     		str	r3, [r1, #8]
 893 01c6 0123     		movs	r3, #1
 894 01c8 CB60     		str	r3, [r1, #12]
 895 01ca 0B74     		strb	r3, [r1, #16]
 896              	.LVL50:
 897              	.LBB70:
 898              	.LBB71:
 899              		.loc 2 531 0
 900 01cc 0431     		adds	r1, r1, #4
 901 01ce 2C4A     		ldr	r2, .L56+20
 902 01d0 2C48     		ldr	r0, .L56+24
 903 01d2 FFF7FEFF 		bl	Cy_SCB_I2C_MasterWrite
 904              	.LVL51:
 905              	.LBE71:
 906              	.LBE70:
 267:AccDriver.c   ****             break;
ARM GAS  C:\Users\salaz\AppData\Local\Temp\ccsvgFVW.s 			page 32


 907              		.loc 1 267 0
 908 01d6 0621     		movs	r1, #6
 909 01d8 7023     		movs	r3, #112
 910 01da 244A     		ldr	r2, .L56
 911 01dc D152     		strh	r1, [r2, r3]
 912              	.LBE68:
 913              		.loc 1 294 0
 914 01de 0020     		movs	r0, #0
 915              	.LBB72:
 268:AccDriver.c   ****         }        
 916              		.loc 1 268 0
 917 01e0 43E0     		b	.L30
 918              	.L38:
 919              	.LBE72:
 920              	.LBB73:
 272:AccDriver.c   ****             cy_en_scb_i2c_status_t i2cReturnValue = SensorBus_MasterRead(&register_setting);
 921              		.loc 1 272 0
 922 01e2 2649     		ldr	r1, .L56+16
 923 01e4 0B00     		movs	r3, r1
 924 01e6 1433     		adds	r3, r3, #20
 925 01e8 8B60     		str	r3, [r1, #8]
 926 01ea 204C     		ldr	r4, .L56
 927 01ec 7623     		movs	r3, #118
 928 01ee E35A     		ldrh	r3, [r4, r3]
 929 01f0 CB60     		str	r3, [r1, #12]
 930 01f2 0023     		movs	r3, #0
 931 01f4 0B74     		strb	r3, [r1, #16]
 932              	.LVL52:
 933              	.LBB74:
 934              	.LBB75:
 505:Generated_Source\PSoC6/SensorBus.h **** }
 935              		.loc 2 505 0
 936 01f6 0431     		adds	r1, r1, #4
 937 01f8 214A     		ldr	r2, .L56+20
 938 01fa 2248     		ldr	r0, .L56+24
 939 01fc FFF7FEFF 		bl	Cy_SCB_I2C_MasterRead
 940              	.LVL53:
 941              	.LBE75:
 942              	.LBE74:
 278:AccDriver.c   ****             break;
 943              		.loc 1 278 0
 944 0200 0722     		movs	r2, #7
 945 0202 7023     		movs	r3, #112
 946 0204 E252     		strh	r2, [r4, r3]
 947              	.LBE73:
 948              		.loc 1 294 0
 949 0206 0020     		movs	r0, #0
 950              	.LBB76:
 279:AccDriver.c   ****         }
 951              		.loc 1 279 0
 952 0208 2FE0     		b	.L30
 953              	.LVL54:
 954              	.L53:
 955              	.LBE76:
 956              	.LBB77:
 285:AccDriver.c   ****                 y_lsb = rbuff[index+2]; y_msb = rbuff[index+3];
 957              		.loc 1 285 0 discriminator 3
ARM GAS  C:\Users\salaz\AppData\Local\Temp\ccsvgFVW.s 			page 33


 958 020a 1C4A     		ldr	r2, .L56+16
 959 020c 1319     		adds	r3, r2, r4
 960 020e 187D     		ldrb	r0, [r3, #20]
 961 0210 164B     		ldr	r3, .L56
 962 0212 3921     		movs	r1, #57
 963 0214 5854     		strb	r0, [r3, r1]
 964 0216 611C     		adds	r1, r4, #1
 965 0218 5118     		adds	r1, r2, r1
 966 021a 087D     		ldrb	r0, [r1, #20]
 967 021c 3821     		movs	r1, #56
 968 021e 5854     		strb	r0, [r3, r1]
 286:AccDriver.c   ****                 z_lsb = rbuff[index+4]; z_msb = rbuff[index+5];
 969              		.loc 1 286 0 discriminator 3
 970 0220 A11C     		adds	r1, r4, #2
 971 0222 5118     		adds	r1, r2, r1
 972 0224 087D     		ldrb	r0, [r1, #20]
 973 0226 3B21     		movs	r1, #59
 974 0228 5854     		strb	r0, [r3, r1]
 975 022a E11C     		adds	r1, r4, #3
 976 022c 5118     		adds	r1, r2, r1
 977 022e 087D     		ldrb	r0, [r1, #20]
 978 0230 3A21     		movs	r1, #58
 979 0232 5854     		strb	r0, [r3, r1]
 287:AccDriver.c   ****                 Interpolate();
 980              		.loc 1 287 0 discriminator 3
 981 0234 211D     		adds	r1, r4, #4
 982 0236 5118     		adds	r1, r2, r1
 983 0238 087D     		ldrb	r0, [r1, #20]
 984 023a 3D21     		movs	r1, #61
 985 023c 5854     		strb	r0, [r3, r1]
 986 023e 611D     		adds	r1, r4, #5
 987 0240 5218     		adds	r2, r2, r1
 988 0242 117D     		ldrb	r1, [r2, #20]
 989 0244 3C22     		movs	r2, #60
 990 0246 9954     		strb	r1, [r3, r2]
 288:AccDriver.c   ****             }
 991              		.loc 1 288 0 discriminator 3
 992 0248 FFF7FEFF 		bl	Interpolate
 993              	.LVL55:
 283:AccDriver.c   ****             {
 994              		.loc 1 283 0 discriminator 3
 995 024c 0634     		adds	r4, r4, #6
 996              	.LVL56:
 997 024e A4B2     		uxth	r4, r4
 998              	.LVL57:
 999 0250 00E0     		b	.L39
 1000              	.LVL58:
 1001              	.L55:
 1002              	.LBE77:
 172:AccDriver.c   ****     {
 1003              		.loc 1 172 0
 1004 0252 0024     		movs	r4, #0
 1005              	.L39:
 1006              	.LVL59:
 1007              	.LBB78:
 283:AccDriver.c   ****             {
 1008              		.loc 1 283 0 discriminator 1
ARM GAS  C:\Users\salaz\AppData\Local\Temp\ccsvgFVW.s 			page 34


 1009 0254 7623     		movs	r3, #118
 1010 0256 054A     		ldr	r2, .L56
 1011 0258 D35A     		ldrh	r3, [r2, r3]
 1012 025a 9C42     		cmp	r4, r3
 1013 025c D5D3     		bcc	.L53
 1014              	.LBE78:
 290:AccDriver.c   ****             return true;
 1015              		.loc 1 290 0
 1016 025e 0021     		movs	r1, #0
 1017 0260 7023     		movs	r3, #112
 1018 0262 D152     		strh	r1, [r2, r3]
 291:AccDriver.c   ****         }
 1019              		.loc 1 291 0
 1020 0264 0120     		movs	r0, #1
 1021 0266 00E0     		b	.L30
 1022              	.LVL60:
 1023              	.L54:
 1024              		.loc 1 294 0
 1025 0268 0020     		movs	r0, #0
 1026              	.L30:
 295:AccDriver.c   **** }
 1027              		.loc 1 295 0
 1028              		@ sp needed
 1029 026a 10BD     		pop	{r4, pc}
 1030              	.L57:
 1031              		.align	2
 1032              	.L56:
 1033 026c 00010000 		.word	.LANCHOR1
 1034 0270 00000000 		.word	.L32
 1035 0274 00000000 		.word	.LANCHOR2
 1036 0278 20000000 		.word	.L42
 1037 027c 00000000 		.word	.LANCHOR0
 1038 0280 00000000 		.word	SensorBus_context
 1039 0284 00006440 		.word	1080295424
 1040              		.cfi_endproc
 1041              	.LFE802:
 1042              		.size	AccDriver_OperationDone, .-AccDriver_OperationDone
 1043              		.section	.text.AccDriver_UpdateSetting,"ax",%progbits
 1044              		.align	2
 1045              		.global	AccDriver_UpdateSetting
 1046              		.code	16
 1047              		.thumb_func
 1048              		.type	AccDriver_UpdateSetting, %function
 1049              	AccDriver_UpdateSetting:
 1050              	.LFB803:
 296:AccDriver.c   **** int32 AccDriver_UpdateSetting(uint8 setting_type, int32 setting_value)
 297:AccDriver.c   **** {
 1051              		.loc 1 297 0
 1052              		.cfi_startproc
 1053              		@ args = 0, pretend = 0, frame = 0
 1054              		@ frame_needed = 0, uses_anonymous_args = 0
 1055              	.LVL61:
 1056 0000 10B5     		push	{r4, lr}
 1057              		.cfi_def_cfa_offset 8
 1058              		.cfi_offset 4, -8
 1059              		.cfi_offset 14, -4
 1060 0002 0C00     		movs	r4, r1
ARM GAS  C:\Users\salaz\AppData\Local\Temp\ccsvgFVW.s 			page 35


 298:AccDriver.c   ****     static int32 old_setting_value = 0;
 299:AccDriver.c   ****     if(old_setting_value == setting_value) return sample_period;
 1061              		.loc 1 299 0
 1062 0004 514B     		ldr	r3, .L74
 1063 0006 9B6F     		ldr	r3, [r3, #120]
 1064 0008 8B42     		cmp	r3, r1
 1065 000a 02D1     		bne	.L59
 1066              		.loc 1 299 0 is_stmt 0 discriminator 1
 1067 000c 4F4B     		ldr	r3, .L74
 1068 000e D86E     		ldr	r0, [r3, #108]
 1069              	.LVL62:
 1070 0010 9BE0     		b	.L60
 1071              	.LVL63:
 1072              	.L59:
 300:AccDriver.c   ****     
 301:AccDriver.c   ****     old_setting_value = setting_value;
 1073              		.loc 1 301 0 is_stmt 1
 1074 0012 4E4B     		ldr	r3, .L74
 1075 0014 9967     		str	r1, [r3, #120]
 302:AccDriver.c   ****     device_rate_changed = true;
 1076              		.loc 1 302 0
 1077 0016 0122     		movs	r2, #1
 1078 0018 4D4B     		ldr	r3, .L74+4
 1079 001a 5A70     		strb	r2, [r3, #1]
 303:AccDriver.c   ****     
 304:AccDriver.c   ****     if(setting_value < 0)
 1080              		.loc 1 304 0
 1081 001c 0029     		cmp	r1, #0
 1082 001e 09DA     		bge	.L61
 305:AccDriver.c   ****     {
 306:AccDriver.c   ****         interpolated_period = 1000/abs(setting_value);
 1083              		.loc 1 306 0
 1084 0020 CB17     		asrs	r3, r1, #31
 1085 0022 C918     		adds	r1, r1, r3
 1086              	.LVL64:
 1087 0024 5940     		eors	r1, r3
 1088 0026 FA20     		movs	r0, #250
 1089              	.LVL65:
 1090 0028 8000     		lsls	r0, r0, #2
 1091 002a FFF7FEFF 		bl	__aeabi_idiv
 1092              	.LVL66:
 1093 002e 474B     		ldr	r3, .L74
 1094 0030 9866     		str	r0, [r3, #104]
 1095 0032 01E0     		b	.L62
 1096              	.LVL67:
 1097              	.L61:
 307:AccDriver.c   ****     }
 308:AccDriver.c   ****     else
 309:AccDriver.c   ****     {   
 310:AccDriver.c   ****         interpolated_period = setting_value;
 1098              		.loc 1 310 0
 1099 0034 454B     		ldr	r3, .L74
 1100 0036 9966     		str	r1, [r3, #104]
 1101              	.LVL68:
 1102              	.L62:
 311:AccDriver.c   ****     }
 312:AccDriver.c   ****     
ARM GAS  C:\Users\salaz\AppData\Local\Temp\ccsvgFVW.s 			page 36


 313:AccDriver.c   ****     if(setting_value == 0)
 1103              		.loc 1 313 0
 1104 0038 002C     		cmp	r4, #0
 1105 003a 07D1     		bne	.L63
 314:AccDriver.c   ****     {
 315:AccDriver.c   ****         device_rate_setting = ACC_1E_OFF;
 1106              		.loc 1 315 0
 1107 003c 0822     		movs	r2, #8
 1108 003e 444B     		ldr	r3, .L74+4
 1109 0040 9A70     		strb	r2, [r3, #2]
 316:AccDriver.c   ****         sample_period = 0;
 1110              		.loc 1 316 0
 1111 0042 424B     		ldr	r3, .L74
 1112 0044 0022     		movs	r2, #0
 1113 0046 DA66     		str	r2, [r3, #108]
 317:AccDriver.c   ****         interrupt_period = 0;
 1114              		.loc 1 317 0
 1115 0048 DA67     		str	r2, [r3, #124]
 1116 004a 6BE0     		b	.L64
 1117              	.L63:
 318:AccDriver.c   ****     }
 319:AccDriver.c   ****     else if(setting_value == -1 || setting_value > 0)
 1118              		.loc 1 319 0
 1119 004c 631C     		adds	r3, r4, #1
 1120 004e 01D0     		beq	.L65
 1121              		.loc 1 319 0 is_stmt 0 discriminator 1
 1122 0050 002C     		cmp	r4, #0
 1123 0052 0ADD     		ble	.L66
 1124              	.L65:
 320:AccDriver.c   ****     {
 321:AccDriver.c   ****         device_rate_setting = ACC_1E_RATE_1_HZ;
 1125              		.loc 1 321 0 is_stmt 1
 1126 0054 0722     		movs	r2, #7
 1127 0056 3E4B     		ldr	r3, .L74+4
 1128 0058 9A70     		strb	r2, [r3, #2]
 322:AccDriver.c   ****         sample_period = 1000;
 1129              		.loc 1 322 0
 1130 005a 3C4B     		ldr	r3, .L74
 1131 005c FA22     		movs	r2, #250
 1132 005e 9200     		lsls	r2, r2, #2
 1133 0060 DA66     		str	r2, [r3, #108]
 323:AccDriver.c   ****         interrupt_period = 16000;
 1134              		.loc 1 323 0
 1135 0062 FA22     		movs	r2, #250
 1136 0064 9201     		lsls	r2, r2, #6
 1137 0066 DA67     		str	r2, [r3, #124]
 1138 0068 5CE0     		b	.L64
 1139              	.L66:
 324:AccDriver.c   ****     }
 325:AccDriver.c   ****     else if(setting_value < -1 && setting_value >= -12)
 1140              		.loc 1 325 0
 1141 006a 2300     		movs	r3, r4
 1142 006c 0C33     		adds	r3, r3, #12
 1143 006e 0A2B     		cmp	r3, #10
 1144 0070 09D8     		bhi	.L67
 326:AccDriver.c   ****     {
 327:AccDriver.c   ****         device_rate_setting = ACC_1E_RATE_12_5_HZ;
ARM GAS  C:\Users\salaz\AppData\Local\Temp\ccsvgFVW.s 			page 37


 1145              		.loc 1 327 0
 1146 0072 0622     		movs	r2, #6
 1147 0074 364B     		ldr	r3, .L74+4
 1148 0076 9A70     		strb	r2, [r3, #2]
 328:AccDriver.c   ****         sample_period = 80;
 1149              		.loc 1 328 0
 1150 0078 344B     		ldr	r3, .L74
 1151 007a 4A32     		adds	r2, r2, #74
 1152 007c DA66     		str	r2, [r3, #108]
 329:AccDriver.c   ****         interrupt_period = 1280;
 1153              		.loc 1 329 0
 1154 007e A022     		movs	r2, #160
 1155 0080 D200     		lsls	r2, r2, #3
 1156 0082 DA67     		str	r2, [r3, #124]
 1157 0084 4EE0     		b	.L64
 1158              	.L67:
 330:AccDriver.c   ****     }
 331:AccDriver.c   ****     else if(setting_value < -12 && setting_value >= -25)
 1159              		.loc 1 331 0
 1160 0086 2300     		movs	r3, r4
 1161 0088 1933     		adds	r3, r3, #25
 1162 008a 0C2B     		cmp	r3, #12
 1163 008c 09D8     		bhi	.L68
 332:AccDriver.c   ****     {
 333:AccDriver.c   ****         device_rate_setting = ACC_1E_RATE_25_HZ;
 1164              		.loc 1 333 0
 1165 008e 0522     		movs	r2, #5
 1166 0090 2F4B     		ldr	r3, .L74+4
 1167 0092 9A70     		strb	r2, [r3, #2]
 334:AccDriver.c   ****         sample_period = 40;
 1168              		.loc 1 334 0
 1169 0094 2D4B     		ldr	r3, .L74
 1170 0096 2332     		adds	r2, r2, #35
 1171 0098 DA66     		str	r2, [r3, #108]
 335:AccDriver.c   ****         interrupt_period = 640;
 1172              		.loc 1 335 0
 1173 009a A022     		movs	r2, #160
 1174 009c 9200     		lsls	r2, r2, #2
 1175 009e DA67     		str	r2, [r3, #124]
 1176 00a0 40E0     		b	.L64
 1177              	.L68:
 336:AccDriver.c   ****     }
 337:AccDriver.c   ****     else if(setting_value < -25 && setting_value >= -50)
 1178              		.loc 1 337 0
 1179 00a2 2300     		movs	r3, r4
 1180 00a4 3233     		adds	r3, r3, #50
 1181 00a6 182B     		cmp	r3, #24
 1182 00a8 09D8     		bhi	.L69
 338:AccDriver.c   ****     {
 339:AccDriver.c   ****         device_rate_setting = ACC_1E_RATE_50_HZ;
 1183              		.loc 1 339 0
 1184 00aa 0422     		movs	r2, #4
 1185 00ac 284B     		ldr	r3, .L74+4
 1186 00ae 9A70     		strb	r2, [r3, #2]
 340:AccDriver.c   ****         sample_period = 20;
 1187              		.loc 1 340 0
 1188 00b0 264B     		ldr	r3, .L74
ARM GAS  C:\Users\salaz\AppData\Local\Temp\ccsvgFVW.s 			page 38


 1189 00b2 1032     		adds	r2, r2, #16
 1190 00b4 DA66     		str	r2, [r3, #108]
 341:AccDriver.c   ****         interrupt_period = 320;
 1191              		.loc 1 341 0
 1192 00b6 2D32     		adds	r2, r2, #45
 1193 00b8 FF32     		adds	r2, r2, #255
 1194 00ba DA67     		str	r2, [r3, #124]
 1195 00bc 32E0     		b	.L64
 1196              	.L69:
 342:AccDriver.c   ****     }
 343:AccDriver.c   ****     else if(setting_value < -50 && setting_value >= -100)
 1197              		.loc 1 343 0
 1198 00be 2300     		movs	r3, r4
 1199 00c0 6433     		adds	r3, r3, #100
 1200 00c2 312B     		cmp	r3, #49
 1201 00c4 08D8     		bhi	.L70
 344:AccDriver.c   ****     {
 345:AccDriver.c   ****         device_rate_setting = ACC_1E_RATE_100_HZ;
 1202              		.loc 1 345 0
 1203 00c6 0322     		movs	r2, #3
 1204 00c8 214B     		ldr	r3, .L74+4
 1205 00ca 9A70     		strb	r2, [r3, #2]
 346:AccDriver.c   ****         sample_period = 10;
 1206              		.loc 1 346 0
 1207 00cc 1F4B     		ldr	r3, .L74
 1208 00ce 0732     		adds	r2, r2, #7
 1209 00d0 DA66     		str	r2, [r3, #108]
 347:AccDriver.c   ****         interrupt_period = 160;
 1210              		.loc 1 347 0
 1211 00d2 9632     		adds	r2, r2, #150
 1212 00d4 DA67     		str	r2, [r3, #124]
 1213 00d6 25E0     		b	.L64
 1214              	.L70:
 348:AccDriver.c   ****     }
 349:AccDriver.c   ****     else if(setting_value < -100 && setting_value >= -200)
 1215              		.loc 1 349 0
 1216 00d8 2300     		movs	r3, r4
 1217 00da C833     		adds	r3, r3, #200
 1218 00dc 632B     		cmp	r3, #99
 1219 00de 08D8     		bhi	.L71
 350:AccDriver.c   ****     {
 351:AccDriver.c   ****         device_rate_setting = ACC_1E_RATE_200_HZ;
 1220              		.loc 1 351 0
 1221 00e0 0222     		movs	r2, #2
 1222 00e2 1B4B     		ldr	r3, .L74+4
 1223 00e4 9A70     		strb	r2, [r3, #2]
 352:AccDriver.c   ****         sample_period = 5;
 1224              		.loc 1 352 0
 1225 00e6 194B     		ldr	r3, .L74
 1226 00e8 0332     		adds	r2, r2, #3
 1227 00ea DA66     		str	r2, [r3, #108]
 353:AccDriver.c   ****         interrupt_period = 80;
 1228              		.loc 1 353 0
 1229 00ec 4B32     		adds	r2, r2, #75
 1230 00ee DA67     		str	r2, [r3, #124]
 1231 00f0 18E0     		b	.L64
 1232              	.L71:
ARM GAS  C:\Users\salaz\AppData\Local\Temp\ccsvgFVW.s 			page 39


 354:AccDriver.c   ****     }
 355:AccDriver.c   ****     else if(setting_value < -200 && setting_value >= -400)
 1233              		.loc 1 355 0
 1234 00f2 2300     		movs	r3, r4
 1235 00f4 9133     		adds	r3, r3, #145
 1236 00f6 FF33     		adds	r3, r3, #255
 1237 00f8 C72B     		cmp	r3, #199
 1238 00fa 08D8     		bhi	.L72
 356:AccDriver.c   ****     {
 357:AccDriver.c   ****         device_rate_setting = ACC_1E_RATE_400_HZ;
 1239              		.loc 1 357 0
 1240 00fc 0122     		movs	r2, #1
 1241 00fe 144B     		ldr	r3, .L74+4
 1242 0100 9A70     		strb	r2, [r3, #2]
 358:AccDriver.c   ****         sample_period = 2;
 1243              		.loc 1 358 0
 1244 0102 124B     		ldr	r3, .L74
 1245 0104 0132     		adds	r2, r2, #1
 1246 0106 DA66     		str	r2, [r3, #108]
 359:AccDriver.c   ****         interrupt_period = 32;
 1247              		.loc 1 359 0
 1248 0108 1E32     		adds	r2, r2, #30
 1249 010a DA67     		str	r2, [r3, #124]
 1250 010c 0AE0     		b	.L64
 1251              	.L72:
 360:AccDriver.c   ****     }
 361:AccDriver.c   ****     else if(setting_value < -400)
 1252              		.loc 1 361 0
 1253 010e 114B     		ldr	r3, .L74+8
 1254 0110 9C42     		cmp	r4, r3
 1255 0112 18DA     		bge	.L73
 362:AccDriver.c   ****     {
 363:AccDriver.c   ****         device_rate_setting = ACC_1E_RATE_800_HZ;
 1256              		.loc 1 363 0
 1257 0114 0022     		movs	r2, #0
 1258 0116 0E4B     		ldr	r3, .L74+4
 1259 0118 9A70     		strb	r2, [r3, #2]
 364:AccDriver.c   ****         sample_period = 1;
 1260              		.loc 1 364 0
 1261 011a 0C4B     		ldr	r3, .L74
 1262 011c 0132     		adds	r2, r2, #1
 1263 011e DA66     		str	r2, [r3, #108]
 365:AccDriver.c   ****         interrupt_period = 16;
 1264              		.loc 1 365 0
 1265 0120 0F32     		adds	r2, r2, #15
 1266 0122 DA67     		str	r2, [r3, #124]
 1267              	.L64:
 366:AccDriver.c   ****     }
 367:AccDriver.c   ****     else
 368:AccDriver.c   ****     {
 369:AccDriver.c   ****         return -1;
 370:AccDriver.c   ****     }
 371:AccDriver.c   ****       
 372:AccDriver.c   ****     denominators[ACC1ESLOT] = 163840;
 1268              		.loc 1 372 0
 1269 0124 A022     		movs	r2, #160
 1270 0126 9202     		lsls	r2, r2, #10
ARM GAS  C:\Users\salaz\AppData\Local\Temp\ccsvgFVW.s 			page 40


 1271 0128 0B4B     		ldr	r3, .L74+12
 1272 012a 9A60     		str	r2, [r3, #8]
 373:AccDriver.c   ****     numerators[ACC1ESLOT] = 98;
 1273              		.loc 1 373 0
 1274 012c 6222     		movs	r2, #98
 1275 012e 0B4B     		ldr	r3, .L74+16
 1276 0130 9A60     		str	r2, [r3, #8]
 374:AccDriver.c   ****     interpolated.timestamp = interpolated_period;
 1277              		.loc 1 374 0
 1278 0132 064B     		ldr	r3, .L74
 1279 0134 9A6E     		ldr	r2, [r3, #104]
 1280 0136 9A64     		str	r2, [r3, #72]
 1281 0138 0022     		movs	r2, #0
 1282 013a DA64     		str	r2, [r3, #76]
 375:AccDriver.c   ****     sample_old.timestamp = 0;    
 376:AccDriver.c   ****     sample_new.timestamp = sample_period;
 1283              		.loc 1 376 0
 1284 013c D96E     		ldr	r1, [r3, #108]
 1285 013e 1962     		str	r1, [r3, #32]
 1286 0140 5A62     		str	r2, [r3, #36]
 377:AccDriver.c   ****     
 378:AccDriver.c   ****     return interrupt_period;
 1287              		.loc 1 378 0
 1288 0142 D86F     		ldr	r0, [r3, #124]
 1289 0144 01E0     		b	.L60
 1290              	.L73:
 369:AccDriver.c   ****     }
 1291              		.loc 1 369 0
 1292 0146 0120     		movs	r0, #1
 1293 0148 4042     		rsbs	r0, r0, #0
 1294              	.L60:
 379:AccDriver.c   **** }
 1295              		.loc 1 379 0
 1296              		@ sp needed
 1297              	.LVL69:
 1298 014a 10BD     		pop	{r4, pc}
 1299              	.L75:
 1300              		.align	2
 1301              	.L74:
 1302 014c 00010000 		.word	.LANCHOR1
 1303 0150 00000000 		.word	.LANCHOR2
 1304 0154 70FEFFFF 		.word	-400
 1305 0158 00000000 		.word	denominators
 1306 015c 00000000 		.word	numerators
 1307              		.cfi_endproc
 1308              	.LFE803:
 1309              		.size	AccDriver_UpdateSetting, .-AccDriver_UpdateSetting
 1310              		.comm	denominators,40,4
 1311              		.comm	numerators,40,4
 1312              		.data
 1313              		.align	2
 1314              		.set	.LANCHOR2,. + 0
 1315              		.type	is_first_sample, %object
 1316              		.size	is_first_sample, 1
 1317              	is_first_sample:
 1318 0000 01       		.byte	1
 1319              		.type	device_rate_changed, %object
ARM GAS  C:\Users\salaz\AppData\Local\Temp\ccsvgFVW.s 			page 41


 1320              		.size	device_rate_changed, 1
 1321              	device_rate_changed:
 1322 0001 01       		.byte	1
 1323              		.type	device_rate_setting, %object
 1324              		.size	device_rate_setting, 1
 1325              	device_rate_setting:
 1326 0002 06       		.byte	6
 1327 0003 00       		.space	1
 1328              		.type	val1.20116, %object
 1329              		.size	val1.20116, 1
 1330              	val1.20116:
 1331 0004 2F       		.byte	47
 1332 0005 000000   		.space	3
 1333              		.type	val2.20117, %object
 1334              		.size	val2.20117, 1
 1335              	val2.20117:
 1336 0008 30       		.byte	48
 1337 0009 000000   		.space	3
 1338              		.type	val3.20118, %object
 1339              		.size	val3.20118, 1
 1340              	val3.20118:
 1341 000c 28       		.byte	40
 1342              		.bss
 1343              		.align	3
 1344              		.set	.LANCHOR0,. + 0
 1345              		.set	.LANCHOR1,. + 256
 1346              		.type	wbuff, %object
 1347              		.size	wbuff, 2
 1348              	wbuff:
 1349 0000 0000     		.space	2
 1350 0002 0000     		.space	2
 1351              		.type	register_setting, %object
 1352              		.size	register_setting, 16
 1353              	register_setting:
 1354 0004 00000000 		.space	16
 1354      00000000 
 1354      00000000 
 1354      00000000 
 1355              		.type	rbuff, %object
 1356              		.size	rbuff, 256
 1357              	rbuff:
 1358 0014 00000000 		.space	256
 1358      00000000 
 1358      00000000 
 1358      00000000 
 1358      00000000 
 1359 0114 00000000 		.space	4
 1360              		.type	sample_new, %object
 1361              		.size	sample_new, 32
 1362              	sample_new:
 1363 0118 00000000 		.space	32
 1363      00000000 
 1363      00000000 
 1363      00000000 
 1363      00000000 
 1364              		.type	x_msb, %object
 1365              		.size	x_msb, 1
ARM GAS  C:\Users\salaz\AppData\Local\Temp\ccsvgFVW.s 			page 42


 1366              	x_msb:
 1367 0138 00       		.space	1
 1368              		.type	x_lsb, %object
 1369              		.size	x_lsb, 1
 1370              	x_lsb:
 1371 0139 00       		.space	1
 1372              		.type	y_msb, %object
 1373              		.size	y_msb, 1
 1374              	y_msb:
 1375 013a 00       		.space	1
 1376              		.type	y_lsb, %object
 1377              		.size	y_lsb, 1
 1378              	y_lsb:
 1379 013b 00       		.space	1
 1380              		.type	z_msb, %object
 1381              		.size	z_msb, 1
 1382              	z_msb:
 1383 013c 00       		.space	1
 1384              		.type	z_lsb, %object
 1385              		.size	z_lsb, 1
 1386              	z_lsb:
 1387 013d 00       		.space	1
 1388 013e 0000     		.space	2
 1389              		.type	interpolated, %object
 1390              		.size	interpolated, 32
 1391              	interpolated:
 1392 0140 00000000 		.space	32
 1392      00000000 
 1392      00000000 
 1392      00000000 
 1392      00000000 
 1393              		.type	wsample, %object
 1394              		.size	wsample, 4
 1395              	wsample:
 1396 0160 00000000 		.space	4
 1397              		.type	wsample_ptr, %object
 1398              		.size	wsample_ptr, 4
 1399              	wsample_ptr:
 1400 0164 00000000 		.space	4
 1401              		.type	interpolated_period, %object
 1402              		.size	interpolated_period, 4
 1403              	interpolated_period:
 1404 0168 00000000 		.space	4
 1405              		.type	sample_period, %object
 1406              		.size	sample_period, 4
 1407              	sample_period:
 1408 016c 00000000 		.space	4
 1409              		.type	state.20114, %object
 1410              		.size	state.20114, 2
 1411              	state.20114:
 1412 0170 0000     		.space	2
 1413 0172 0000     		.space	2
 1414              		.type	pkt.20113, %object
 1415              		.size	pkt.20113, 2
 1416              	pkt.20113:
 1417 0174 0000     		.space	2
 1418              		.type	datums.20115, %object
ARM GAS  C:\Users\salaz\AppData\Local\Temp\ccsvgFVW.s 			page 43


 1419              		.size	datums.20115, 2
 1420              	datums.20115:
 1421 0176 0000     		.space	2
 1422              		.type	old_setting_value.20154, %object
 1423              		.size	old_setting_value.20154, 4
 1424              	old_setting_value.20154:
 1425 0178 00000000 		.space	4
 1426              		.type	interrupt_period, %object
 1427              		.size	interrupt_period, 4
 1428              	interrupt_period:
 1429 017c 00000000 		.space	4
 1430              		.text
 1431              	.Letext0:
 1432              		.file 3 "c:\\program files (x86)\\cypress\\psoc creator\\4.2\\psoc creator\\import\\gnu\\arm\\5.4.
 1433              		.file 4 "c:\\program files (x86)\\cypress\\psoc creator\\4.2\\psoc creator\\import\\gnu\\arm\\5.4.
 1434              		.file 5 "Generated_Source\\PSoC6\\pdl\\devices/psoc6/ip/cyip_scb.h"
 1435              		.file 6 "Generated_Source\\PSoC6\\pdl\\drivers/peripheral/syslib/cy_syslib.h"
 1436              		.file 7 "Generated_Source\\PSoC6\\pdl\\drivers/peripheral/tcpwm/cy_tcpwm_counter.h"
 1437              		.file 8 "Generated_Source\\PSoC6\\pdl\\drivers/peripheral/tcpwm/cy_tcpwm_pwm.h"
 1438              		.file 9 "Generated_Source\\PSoC6\\pdl\\drivers/peripheral/scb/cy_scb_i2c.h"
 1439              		.file 10 "Generated_Source\\PSoC6\\pdl\\drivers/peripheral/scb/cy_scb_uart.h"
 1440              		.file 11 "Generated_Source\\PSoC6\\pdl\\middleware/ble/cy_ble_stack.h"
 1441              		.file 12 "Generated_Source\\PSoC6\\pdl\\middleware/ble/cy_ble_stack_host_main.h"
 1442              		.file 13 "Generated_Source\\PSoC6\\pdl\\middleware/ble/cy_ble_gap.h"
 1443              		.file 14 "./AccDriver.h"
 1444              		.file 15 "./DataBuffer.h"
 1445              		.file 16 "Generated_Source\\PSoC6\\pdl\\drivers/peripheral/rtc/cy_rtc.h"
 1446              		.file 17 "Generated_Source\\PSoC6/UART_DEBUG.h"
 1447              		.file 18 "Generated_Source\\PSoC6/LightOutputC.h"
 1448              		.file 19 "Generated_Source\\PSoC6/LightOutputA.h"
 1449              		.file 20 "Generated_Source\\PSoC6/LightTimer.h"
 1450              		.file 21 "Generated_Source\\PSoC6/LightOutputB.h"
 1451              		.file 22 "Generated_Source\\PSoC6/MotorOutput.h"
 1452              		.file 23 "Generated_Source\\PSoC6/MotorTimer.h"
 1453              		.file 24 "Generated_Source\\PSoC6/ChimeOutput.h"
 1454              		.file 25 "Generated_Source\\PSoC6/ChimeTimer.h"
 1455              		.file 26 "c:\\program files (x86)\\cypress\\psoc creator\\4.2\\psoc creator\\import\\gnu\\arm\\5.4