ARM GAS  C:\Users\salaz\AppData\Local\Temp\cctLNP9Y.s 			page 1


   1              		.syntax unified
   2              		.cpu cortex-m0plus
   3              		.fpu softvfp
   4              		.eabi_attribute 20, 1
   5              		.eabi_attribute 21, 1
   6              		.eabi_attribute 23, 3
   7              		.eabi_attribute 24, 1
   8              		.eabi_attribute 25, 1
   9              		.eabi_attribute 26, 1
  10              		.eabi_attribute 30, 1
  11              		.eabi_attribute 34, 0
  12              		.eabi_attribute 18, 4
  13              		.thumb
  14              		.syntax unified
  15              		.file	"CapSense_Filter.c"
  16              		.text
  17              	.Ltext0:
  18              		.cfi_sections	.debug_frame
  19              		.section	.text.CapSense_FtInitializeBaselineChannel,"ax",%progbits
  20              		.align	2
  21              		.global	CapSense_FtInitializeBaselineChannel
  22              		.code	16
  23              		.thumb_func
  24              		.type	CapSense_FtInitializeBaselineChannel, %function
  25              	CapSense_FtInitializeBaselineChannel:
  26              	.LFB45:
  27              		.file 1 "Generated_Source\\PSoC6\\CapSense_Filter.c"
   1:Generated_Source\PSoC6/CapSense_Filter.c **** /***************************************************************************//**
   2:Generated_Source\PSoC6/CapSense_Filter.c **** * \file CapSense_Filter.c
   3:Generated_Source\PSoC6/CapSense_Filter.c **** * \version 2.0
   4:Generated_Source\PSoC6/CapSense_Filter.c **** *
   5:Generated_Source\PSoC6/CapSense_Filter.c **** * \brief
   6:Generated_Source\PSoC6/CapSense_Filter.c **** *   This file contains the implementation source code to implement all
   7:Generated_Source\PSoC6/CapSense_Filter.c **** *   firmware filters.
   8:Generated_Source\PSoC6/CapSense_Filter.c **** *
   9:Generated_Source\PSoC6/CapSense_Filter.c **** * \see CapSense v2.0 Datasheet
  10:Generated_Source\PSoC6/CapSense_Filter.c **** *
  11:Generated_Source\PSoC6/CapSense_Filter.c **** *//*****************************************************************************
  12:Generated_Source\PSoC6/CapSense_Filter.c **** * Copyright (2016-2017), Cypress Semiconductor Corporation.
  13:Generated_Source\PSoC6/CapSense_Filter.c **** ********************************************************************************
  14:Generated_Source\PSoC6/CapSense_Filter.c **** * This software is owned by Cypress Semiconductor Corporation (Cypress) and is
  15:Generated_Source\PSoC6/CapSense_Filter.c **** * protected by and subject to worldwide patent protection (United States and
  16:Generated_Source\PSoC6/CapSense_Filter.c **** * foreign), United States copyright laws and international treaty provisions.
  17:Generated_Source\PSoC6/CapSense_Filter.c **** * Cypress hereby grants to licensee a personal, non-exclusive, non-transferable
  18:Generated_Source\PSoC6/CapSense_Filter.c **** * license to copy, use, modify, create derivative works of, and compile the
  19:Generated_Source\PSoC6/CapSense_Filter.c **** * Cypress Source Code and derivative works for the sole purpose of creating
  20:Generated_Source\PSoC6/CapSense_Filter.c **** * custom software in support of licensee product to be used only in conjunction
  21:Generated_Source\PSoC6/CapSense_Filter.c **** * with a Cypress integrated circuit as specified in the applicable agreement.
  22:Generated_Source\PSoC6/CapSense_Filter.c **** * Any reproduction, modification, translation, compilation, or representation of
  23:Generated_Source\PSoC6/CapSense_Filter.c **** * this software except as specified above is prohibited without the express
  24:Generated_Source\PSoC6/CapSense_Filter.c **** * written permission of Cypress.
  25:Generated_Source\PSoC6/CapSense_Filter.c **** *
  26:Generated_Source\PSoC6/CapSense_Filter.c **** * Disclaimer: CYPRESS MAKES NO WARRANTY OF ANY KIND, EXPRESS OR IMPLIED, WITH
  27:Generated_Source\PSoC6/CapSense_Filter.c **** * REGARD TO THIS MATERIAL, INCLUDING, BUT NOT LIMITED TO, THE IMPLIED
  28:Generated_Source\PSoC6/CapSense_Filter.c **** * WARRANTIES OF MERCHANTABILITY AND FITNESS FOR A PARTICULAR PURPOSE.
  29:Generated_Source\PSoC6/CapSense_Filter.c **** * Cypress reserves the right to make changes without further notice to the
  30:Generated_Source\PSoC6/CapSense_Filter.c **** * materials described herein. Cypress does not assume any liability arising out
ARM GAS  C:\Users\salaz\AppData\Local\Temp\cctLNP9Y.s 			page 2


  31:Generated_Source\PSoC6/CapSense_Filter.c **** * of the application or use of any product or circuit described herein. Cypress
  32:Generated_Source\PSoC6/CapSense_Filter.c **** * does not authorize its products for use as critical components in life-support
  33:Generated_Source\PSoC6/CapSense_Filter.c **** * systems where a malfunction or failure may reasonably be expected to result in
  34:Generated_Source\PSoC6/CapSense_Filter.c **** * significant injury to the user. The inclusion of Cypress' product in a life-
  35:Generated_Source\PSoC6/CapSense_Filter.c **** * support systems application implies that the manufacturer assumes all risk of
  36:Generated_Source\PSoC6/CapSense_Filter.c **** * such use and in doing so indemnifies Cypress against all charges. Use may be
  37:Generated_Source\PSoC6/CapSense_Filter.c **** * limited by and subject to the applicable Cypress software license agreement.
  38:Generated_Source\PSoC6/CapSense_Filter.c **** *******************************************************************************/
  39:Generated_Source\PSoC6/CapSense_Filter.c **** 
  40:Generated_Source\PSoC6/CapSense_Filter.c **** #include "stddef.h"
  41:Generated_Source\PSoC6/CapSense_Filter.c **** #include "CapSense_Filter.h"
  42:Generated_Source\PSoC6/CapSense_Filter.c **** #include "CapSense_Configuration.h"
  43:Generated_Source\PSoC6/CapSense_Filter.c **** 
  44:Generated_Source\PSoC6/CapSense_Filter.c **** #if (0 != (CapSense_CSD_AUTOTUNE & CapSense_CSD_SS_TH_EN))
  45:Generated_Source\PSoC6/CapSense_Filter.c ****     #include "CapSense_SmartSense_LL.h"
  46:Generated_Source\PSoC6/CapSense_Filter.c **** #endif /* (0 != (CapSense_CSD_AUTOTUNE & CapSense_CSD_SS_TH_EN)) */
  47:Generated_Source\PSoC6/CapSense_Filter.c **** 
  48:Generated_Source\PSoC6/CapSense_Filter.c **** #if (CapSense_ENABLE == CapSense_SELF_TEST_EN)
  49:Generated_Source\PSoC6/CapSense_Filter.c ****     #include "CapSense_SelfTest.h"
  50:Generated_Source\PSoC6/CapSense_Filter.c **** #endif
  51:Generated_Source\PSoC6/CapSense_Filter.c **** 
  52:Generated_Source\PSoC6/CapSense_Filter.c **** /*******************************************************************************
  53:Generated_Source\PSoC6/CapSense_Filter.c **** * Function Name: CapSense_FtInitialize
  54:Generated_Source\PSoC6/CapSense_Filter.c **** ****************************************************************************//**
  55:Generated_Source\PSoC6/CapSense_Filter.c **** *
  56:Generated_Source\PSoC6/CapSense_Filter.c **** * \brief
  57:Generated_Source\PSoC6/CapSense_Filter.c **** *    Initializes all the firmware filter history, except the baseline filter.
  58:Generated_Source\PSoC6/CapSense_Filter.c **** *
  59:Generated_Source\PSoC6/CapSense_Filter.c **** * \details
  60:Generated_Source\PSoC6/CapSense_Filter.c **** *    Initializes all the firmware filter history, except the baseline filter.
  61:Generated_Source\PSoC6/CapSense_Filter.c **** *
  62:Generated_Source\PSoC6/CapSense_Filter.c **** *******************************************************************************/
  63:Generated_Source\PSoC6/CapSense_Filter.c **** void CapSense_FtInitialize(void)
  64:Generated_Source\PSoC6/CapSense_Filter.c **** {
  65:Generated_Source\PSoC6/CapSense_Filter.c ****     #if ((CapSense_ENABLE == CapSense_RC_FILTER_EN) || \
  66:Generated_Source\PSoC6/CapSense_Filter.c ****          (0u != (CapSense_CSD_AUTOTUNE & CapSense_CSD_SS_TH_EN)))
  67:Generated_Source\PSoC6/CapSense_Filter.c ****         CapSense_InitializeAllFilters();
  68:Generated_Source\PSoC6/CapSense_Filter.c ****     #endif /* ((CapSense_ENABLE == CapSense_RC_FILTER_EN) || \
  69:Generated_Source\PSoC6/CapSense_Filter.c ****                (0u != (CapSense_CSD_AUTOTUNE & CapSense_CSD_SS_TH_EN))) */
  70:Generated_Source\PSoC6/CapSense_Filter.c **** }
  71:Generated_Source\PSoC6/CapSense_Filter.c **** 
  72:Generated_Source\PSoC6/CapSense_Filter.c **** 
  73:Generated_Source\PSoC6/CapSense_Filter.c **** /*******************************************************************************
  74:Generated_Source\PSoC6/CapSense_Filter.c **** * Function Name: CapSense_UpdateAllBaselines
  75:Generated_Source\PSoC6/CapSense_Filter.c **** ****************************************************************************//**
  76:Generated_Source\PSoC6/CapSense_Filter.c **** *
  77:Generated_Source\PSoC6/CapSense_Filter.c **** * \brief
  78:Generated_Source\PSoC6/CapSense_Filter.c **** *  Updates the baseline for all the sensors in all the widgets.
  79:Generated_Source\PSoC6/CapSense_Filter.c **** *
  80:Generated_Source\PSoC6/CapSense_Filter.c **** * \details
  81:Generated_Source\PSoC6/CapSense_Filter.c **** *  Updates the baseline for all the sensors in all the widgets. Baseline updating is a
  82:Generated_Source\PSoC6/CapSense_Filter.c **** *  part of data processing performed by the process functions. So, no need to
  83:Generated_Source\PSoC6/CapSense_Filter.c **** *  call this function except a specific process flow is implemented.
  84:Generated_Source\PSoC6/CapSense_Filter.c **** *
  85:Generated_Source\PSoC6/CapSense_Filter.c **** *  This function ignores the value of the wdgtEnable register. Multiple calling
  86:Generated_Source\PSoC6/CapSense_Filter.c **** *  of this function (or any other function with a baseline updating task)
  87:Generated_Source\PSoC6/CapSense_Filter.c **** *  without scanning leads to unexpected behavior.
ARM GAS  C:\Users\salaz\AppData\Local\Temp\cctLNP9Y.s 			page 3


  88:Generated_Source\PSoC6/CapSense_Filter.c **** *
  89:Generated_Source\PSoC6/CapSense_Filter.c **** *  If the Self-test library is enabled, this function executes the baseline duplication
  90:Generated_Source\PSoC6/CapSense_Filter.c **** *  test. Refer to CapSense_CheckBaselineDuplication() for details.
  91:Generated_Source\PSoC6/CapSense_Filter.c **** *
  92:Generated_Source\PSoC6/CapSense_Filter.c **** * \return
  93:Generated_Source\PSoC6/CapSense_Filter.c **** *  Returns the status of the update baseline operation of all the widgets:
  94:Generated_Source\PSoC6/CapSense_Filter.c **** *  - CY_RET_SUCCESS - The operation is successfully completed.
  95:Generated_Source\PSoC6/CapSense_Filter.c **** *  - CY_RET_BAD_DATA - The baseline processing failed.
  96:Generated_Source\PSoC6/CapSense_Filter.c **** *
  97:Generated_Source\PSoC6/CapSense_Filter.c **** *******************************************************************************/
  98:Generated_Source\PSoC6/CapSense_Filter.c **** cy_status CapSense_UpdateAllBaselines(void)
  99:Generated_Source\PSoC6/CapSense_Filter.c **** {
 100:Generated_Source\PSoC6/CapSense_Filter.c ****     uint32 widgetId;
 101:Generated_Source\PSoC6/CapSense_Filter.c ****     cy_status bslnStatus = CY_RET_SUCCESS;
 102:Generated_Source\PSoC6/CapSense_Filter.c **** 
 103:Generated_Source\PSoC6/CapSense_Filter.c ****     for(widgetId = CapSense_TOTAL_WIDGETS; widgetId-- > 0u;)
 104:Generated_Source\PSoC6/CapSense_Filter.c ****     {
 105:Generated_Source\PSoC6/CapSense_Filter.c ****         bslnStatus |= CapSense_UpdateWidgetBaseline(widgetId);
 106:Generated_Source\PSoC6/CapSense_Filter.c ****     }
 107:Generated_Source\PSoC6/CapSense_Filter.c **** 
 108:Generated_Source\PSoC6/CapSense_Filter.c ****     return(bslnStatus);
 109:Generated_Source\PSoC6/CapSense_Filter.c **** }
 110:Generated_Source\PSoC6/CapSense_Filter.c **** 
 111:Generated_Source\PSoC6/CapSense_Filter.c **** 
 112:Generated_Source\PSoC6/CapSense_Filter.c **** /*******************************************************************************
 113:Generated_Source\PSoC6/CapSense_Filter.c **** * Function Name: CapSense_UpdateWidgetBaseline
 114:Generated_Source\PSoC6/CapSense_Filter.c **** ****************************************************************************//**
 115:Generated_Source\PSoC6/CapSense_Filter.c **** *
 116:Generated_Source\PSoC6/CapSense_Filter.c **** * \brief
 117:Generated_Source\PSoC6/CapSense_Filter.c **** *  Updates the baselines for all the sensors in a widget specified by the input parameter.
 118:Generated_Source\PSoC6/CapSense_Filter.c **** *
 119:Generated_Source\PSoC6/CapSense_Filter.c **** * \details
 120:Generated_Source\PSoC6/CapSense_Filter.c **** *  This function performs exactly the same tasks as
 121:Generated_Source\PSoC6/CapSense_Filter.c **** *  CapSense_UpdateAllBaselines() but only for a specified widget.
 122:Generated_Source\PSoC6/CapSense_Filter.c **** *
 123:Generated_Source\PSoC6/CapSense_Filter.c **** *  This function ignores the value of the wdgtEnable register. Multiple calling
 124:Generated_Source\PSoC6/CapSense_Filter.c **** *  of this function (or any other function with a baseline updating task)
 125:Generated_Source\PSoC6/CapSense_Filter.c **** *  without scanning leads to unexpected behavior.
 126:Generated_Source\PSoC6/CapSense_Filter.c **** *
 127:Generated_Source\PSoC6/CapSense_Filter.c **** *  If the Self-test library is enabled, this function executes the baseline duplication
 128:Generated_Source\PSoC6/CapSense_Filter.c **** *  test. Refer to CapSense_CheckBaselineDuplication() for details.
 129:Generated_Source\PSoC6/CapSense_Filter.c **** *
 130:Generated_Source\PSoC6/CapSense_Filter.c **** * \param widgetId
 131:Generated_Source\PSoC6/CapSense_Filter.c **** *  Specifies the ID number of the widget to update the baseline of all the sensors
 132:Generated_Source\PSoC6/CapSense_Filter.c **** *  in the widget.
 133:Generated_Source\PSoC6/CapSense_Filter.c **** *  A macro for the widget ID can be found in the
 134:Generated_Source\PSoC6/CapSense_Filter.c **** *  CapSense Configuration header file defined as
 135:Generated_Source\PSoC6/CapSense_Filter.c **** *  CapSense_<WidgetName>_WDGT_ID.
 136:Generated_Source\PSoC6/CapSense_Filter.c **** *
 137:Generated_Source\PSoC6/CapSense_Filter.c **** * \return
 138:Generated_Source\PSoC6/CapSense_Filter.c **** *  Returns the status of the specified widget update baseline operation:
 139:Generated_Source\PSoC6/CapSense_Filter.c **** *  - CY_RET_SUCCESS - The operation is successfully completed.
 140:Generated_Source\PSoC6/CapSense_Filter.c **** *  - CY_RET_BAD_DATA - The baseline processing failed.
 141:Generated_Source\PSoC6/CapSense_Filter.c **** *
 142:Generated_Source\PSoC6/CapSense_Filter.c **** *******************************************************************************/
 143:Generated_Source\PSoC6/CapSense_Filter.c **** cy_status CapSense_UpdateWidgetBaseline(uint32 widgetId)
 144:Generated_Source\PSoC6/CapSense_Filter.c **** {
ARM GAS  C:\Users\salaz\AppData\Local\Temp\cctLNP9Y.s 			page 4


 145:Generated_Source\PSoC6/CapSense_Filter.c ****     uint32 sensorId;
 146:Generated_Source\PSoC6/CapSense_Filter.c ****     uint32 sensorsNumber;
 147:Generated_Source\PSoC6/CapSense_Filter.c **** 
 148:Generated_Source\PSoC6/CapSense_Filter.c ****     CapSense_FLASH_WD_STRUCT const *ptrWidget = &CapSense_dsFlash.wdgtArray[widgetId];
 149:Generated_Source\PSoC6/CapSense_Filter.c ****     cy_status bslnStatus = CY_RET_SUCCESS;
 150:Generated_Source\PSoC6/CapSense_Filter.c **** 
 151:Generated_Source\PSoC6/CapSense_Filter.c ****     /* Find total amount of sensors in specified widget */
 152:Generated_Source\PSoC6/CapSense_Filter.c ****     sensorsNumber = CapSense_GET_SNS_CNT_BY_PTR(ptrWidget);
 153:Generated_Source\PSoC6/CapSense_Filter.c **** 
 154:Generated_Source\PSoC6/CapSense_Filter.c ****     for(sensorId = sensorsNumber; sensorId-- > 0u;)
 155:Generated_Source\PSoC6/CapSense_Filter.c ****     {
 156:Generated_Source\PSoC6/CapSense_Filter.c ****         bslnStatus |= CapSense_UpdateSensorBaseline(widgetId, sensorId);
 157:Generated_Source\PSoC6/CapSense_Filter.c ****     }
 158:Generated_Source\PSoC6/CapSense_Filter.c **** 
 159:Generated_Source\PSoC6/CapSense_Filter.c ****     return(bslnStatus);
 160:Generated_Source\PSoC6/CapSense_Filter.c **** }
 161:Generated_Source\PSoC6/CapSense_Filter.c **** 
 162:Generated_Source\PSoC6/CapSense_Filter.c **** 
 163:Generated_Source\PSoC6/CapSense_Filter.c **** /*******************************************************************************
 164:Generated_Source\PSoC6/CapSense_Filter.c **** * Function Name: CapSense_UpdateSensorBaseline
 165:Generated_Source\PSoC6/CapSense_Filter.c **** ****************************************************************************//**
 166:Generated_Source\PSoC6/CapSense_Filter.c **** *
 167:Generated_Source\PSoC6/CapSense_Filter.c **** * \brief
 168:Generated_Source\PSoC6/CapSense_Filter.c **** *  Updates the baseline for a sensor in a widget specified by the input parameters.
 169:Generated_Source\PSoC6/CapSense_Filter.c **** *
 170:Generated_Source\PSoC6/CapSense_Filter.c **** * \details
 171:Generated_Source\PSoC6/CapSense_Filter.c **** *  This function performs exactly the same tasks as
 172:Generated_Source\PSoC6/CapSense_Filter.c **** *  CapSense_UpdateAllBaselines() and
 173:Generated_Source\PSoC6/CapSense_Filter.c **** *  CapSense_UpdateWidgetBaseline() but only for a specified sensor.
 174:Generated_Source\PSoC6/CapSense_Filter.c **** *
 175:Generated_Source\PSoC6/CapSense_Filter.c **** *  This function ignores the value of the wdgtEnable register. Multiple calling
 176:Generated_Source\PSoC6/CapSense_Filter.c **** *  of this function (or any other function with a baseline updating task)
 177:Generated_Source\PSoC6/CapSense_Filter.c **** *  without scanning leads to unexpected behavior.
 178:Generated_Source\PSoC6/CapSense_Filter.c **** *
 179:Generated_Source\PSoC6/CapSense_Filter.c **** *  If the Self-test library is enabled, this function executes the baseline duplication
 180:Generated_Source\PSoC6/CapSense_Filter.c **** *  test. Refer to CapSense_CheckBaselineDuplication() for details.
 181:Generated_Source\PSoC6/CapSense_Filter.c **** *
 182:Generated_Source\PSoC6/CapSense_Filter.c **** * \param   widgetId
 183:Generated_Source\PSoC6/CapSense_Filter.c **** *  Specifies the ID number of the widget to update the baseline of the sensor
 184:Generated_Source\PSoC6/CapSense_Filter.c **** *  specified by the sensorId argument.
 185:Generated_Source\PSoC6/CapSense_Filter.c **** *  A macro for the widget ID can be found in the CapSense Configuration header
 186:Generated_Source\PSoC6/CapSense_Filter.c **** *  file defined as CapSense_<WidgetName>_WDGT_ID.
 187:Generated_Source\PSoC6/CapSense_Filter.c **** *
 188:Generated_Source\PSoC6/CapSense_Filter.c **** * \param   sensorId
 189:Generated_Source\PSoC6/CapSense_Filter.c **** *  Specifies the ID number of the sensor within the widget to update its baseline.
 190:Generated_Source\PSoC6/CapSense_Filter.c **** *  A macro for the sensor ID within a specified widget can be found in the
 191:Generated_Source\PSoC6/CapSense_Filter.c **** *  CapSense Configuration header file defined as
 192:Generated_Source\PSoC6/CapSense_Filter.c **** *  CapSense_<WidgetName>_SNS<SensorNumber>_ID.
 193:Generated_Source\PSoC6/CapSense_Filter.c **** *
 194:Generated_Source\PSoC6/CapSense_Filter.c **** * \return
 195:Generated_Source\PSoC6/CapSense_Filter.c **** *  Returns the status of the specified sensor update baseline operation:
 196:Generated_Source\PSoC6/CapSense_Filter.c **** *  - CY_RET_SUCCESS - The operation is successfully completed.
 197:Generated_Source\PSoC6/CapSense_Filter.c **** *  - CY_RET_BAD_DATA - The baseline processing failed.
 198:Generated_Source\PSoC6/CapSense_Filter.c **** *
 199:Generated_Source\PSoC6/CapSense_Filter.c **** *******************************************************************************/
 200:Generated_Source\PSoC6/CapSense_Filter.c **** cy_status CapSense_UpdateSensorBaseline(uint32 widgetId, uint32 sensorId)
 201:Generated_Source\PSoC6/CapSense_Filter.c **** {
ARM GAS  C:\Users\salaz\AppData\Local\Temp\cctLNP9Y.s 			page 5


 202:Generated_Source\PSoC6/CapSense_Filter.c ****     uint32 result = CY_RET_SUCCESS;
 203:Generated_Source\PSoC6/CapSense_Filter.c **** 
 204:Generated_Source\PSoC6/CapSense_Filter.c ****     CapSense_RAM_SNS_STRUCT *ptrSensor = NULL;
 205:Generated_Source\PSoC6/CapSense_Filter.c ****     CapSense_FLASH_WD_STRUCT const *ptrWidget = &CapSense_dsFlash.wdgtArray[widgetId];
 206:Generated_Source\PSoC6/CapSense_Filter.c ****     CapSense_RAM_WD_BASE_STRUCT *ptrWidgetRam = (CapSense_RAM_WD_BASE_STRUCT *)ptrWidget->ptr2WdgtR
 207:Generated_Source\PSoC6/CapSense_Filter.c **** 
 208:Generated_Source\PSoC6/CapSense_Filter.c ****     /* Find pointer to specified sensor object */
 209:Generated_Source\PSoC6/CapSense_Filter.c ****     ptrSensor = ptrWidget->ptr2SnsRam;
 210:Generated_Source\PSoC6/CapSense_Filter.c ****     ptrSensor = &ptrSensor[sensorId];
 211:Generated_Source\PSoC6/CapSense_Filter.c ****     result = CapSense_FtUpdateBaseline(ptrWidgetRam, ptrSensor, (uint32)ptrWidget->wdgtType);
 212:Generated_Source\PSoC6/CapSense_Filter.c **** 
 213:Generated_Source\PSoC6/CapSense_Filter.c ****     #if (CapSense_ENABLE == CapSense_TST_BSLN_DUPLICATION_EN)
 214:Generated_Source\PSoC6/CapSense_Filter.c ****         if (CY_RET_SUCCESS != result)
 215:Generated_Source\PSoC6/CapSense_Filter.c ****         {
 216:Generated_Source\PSoC6/CapSense_Filter.c ****             result = CY_RET_BAD_DATA;
 217:Generated_Source\PSoC6/CapSense_Filter.c ****             CapSense_UpdateTestResultBaselineDuplication(widgetId, sensorId);
 218:Generated_Source\PSoC6/CapSense_Filter.c ****         }
 219:Generated_Source\PSoC6/CapSense_Filter.c ****     #endif /* (CapSense_ENABLE == CapSense_TST_BSLN_DUPLICATION_EN) */
 220:Generated_Source\PSoC6/CapSense_Filter.c **** 
 221:Generated_Source\PSoC6/CapSense_Filter.c ****     return result;
 222:Generated_Source\PSoC6/CapSense_Filter.c **** }
 223:Generated_Source\PSoC6/CapSense_Filter.c **** 
 224:Generated_Source\PSoC6/CapSense_Filter.c **** /*******************************************************************************
 225:Generated_Source\PSoC6/CapSense_Filter.c **** * Function Name: CapSense_FtUpdateBaseline
 226:Generated_Source\PSoC6/CapSense_Filter.c **** ****************************************************************************//**
 227:Generated_Source\PSoC6/CapSense_Filter.c **** *
 228:Generated_Source\PSoC6/CapSense_Filter.c **** * \brief
 229:Generated_Source\PSoC6/CapSense_Filter.c **** *  Updates the baseline for a sensor specified by an input parameter.
 230:Generated_Source\PSoC6/CapSense_Filter.c **** *
 231:Generated_Source\PSoC6/CapSense_Filter.c **** * \details
 232:Generated_Source\PSoC6/CapSense_Filter.c **** *  Check a matching of present baseline and its inverse duplication. If they
 233:Generated_Source\PSoC6/CapSense_Filter.c **** *  match then updates the baseline for a sensor specified by an input parameter.
 234:Generated_Source\PSoC6/CapSense_Filter.c **** *  If don't match the function return CapSense_TST_BSLN_DUPLICATION
 235:Generated_Source\PSoC6/CapSense_Filter.c **** *  result and don't update baseline.
 236:Generated_Source\PSoC6/CapSense_Filter.c **** *
 237:Generated_Source\PSoC6/CapSense_Filter.c **** * \param    ptrWidgetRam
 238:Generated_Source\PSoC6/CapSense_Filter.c **** *  The pointer to the widget RAM structure where all the widget parameters
 239:Generated_Source\PSoC6/CapSense_Filter.c **** *  are stored.
 240:Generated_Source\PSoC6/CapSense_Filter.c **** *
 241:Generated_Source\PSoC6/CapSense_Filter.c **** * \param    ptrSensor
 242:Generated_Source\PSoC6/CapSense_Filter.c **** *  The pointer to the sensor RAM structure where all the sensor parameters
 243:Generated_Source\PSoC6/CapSense_Filter.c **** *  are stored.
 244:Generated_Source\PSoC6/CapSense_Filter.c **** *
 245:Generated_Source\PSoC6/CapSense_Filter.c **** * \param    wdType
 246:Generated_Source\PSoC6/CapSense_Filter.c **** *  Specifies the type of a widget.
 247:Generated_Source\PSoC6/CapSense_Filter.c **** *
 248:Generated_Source\PSoC6/CapSense_Filter.c **** * \return
 249:Generated_Source\PSoC6/CapSense_Filter.c **** *  Returns a status indicating whether the baseline has been updated:
 250:Generated_Source\PSoC6/CapSense_Filter.c **** *  - CY_RET_SUCCESS if baseline updating was successful;
 251:Generated_Source\PSoC6/CapSense_Filter.c **** *  - CapSense_PROCESS_BASELINE_FAILED if present sensor's any channel
 252:Generated_Source\PSoC6/CapSense_Filter.c **** *    baseline and its inversion doesn't matched
 253:Generated_Source\PSoC6/CapSense_Filter.c **** *
 254:Generated_Source\PSoC6/CapSense_Filter.c **** *******************************************************************************/
 255:Generated_Source\PSoC6/CapSense_Filter.c **** uint32 CapSense_FtUpdateBaseline(
 256:Generated_Source\PSoC6/CapSense_Filter.c ****                                 CapSense_RAM_WD_BASE_STRUCT *ptrWidgetRam,
 257:Generated_Source\PSoC6/CapSense_Filter.c ****                                 CapSense_RAM_SNS_STRUCT *ptrSensor,
 258:Generated_Source\PSoC6/CapSense_Filter.c ****                                 uint32 wdType)
ARM GAS  C:\Users\salaz\AppData\Local\Temp\cctLNP9Y.s 			page 6


 259:Generated_Source\PSoC6/CapSense_Filter.c **** {
 260:Generated_Source\PSoC6/CapSense_Filter.c ****     uint32 sign;
 261:Generated_Source\PSoC6/CapSense_Filter.c ****     uint32 difference;
 262:Generated_Source\PSoC6/CapSense_Filter.c ****     uint32 freqChannel;
 263:Generated_Source\PSoC6/CapSense_Filter.c ****     uint32 baselineCoeff;
 264:Generated_Source\PSoC6/CapSense_Filter.c ****     uint32 result = CY_RET_SUCCESS;
 265:Generated_Source\PSoC6/CapSense_Filter.c **** 
 266:Generated_Source\PSoC6/CapSense_Filter.c ****     #if (CapSense_TOTAL_WIDGETS)
 267:Generated_Source\PSoC6/CapSense_Filter.c ****         uint32 history;
 268:Generated_Source\PSoC6/CapSense_Filter.c ****     #endif /* (CapSense_TOTAL_WIDGETS) */
 269:Generated_Source\PSoC6/CapSense_Filter.c **** 
 270:Generated_Source\PSoC6/CapSense_Filter.c ****     /* Apply baseline to every channel in sensor */
 271:Generated_Source\PSoC6/CapSense_Filter.c ****     for(freqChannel = CapSense_NUM_SCAN_FREQS; freqChannel-- > 0u;)
 272:Generated_Source\PSoC6/CapSense_Filter.c ****     {
 273:Generated_Source\PSoC6/CapSense_Filter.c ****         #if (CapSense_ENABLE == CapSense_TST_BSLN_DUPLICATION_EN)
 274:Generated_Source\PSoC6/CapSense_Filter.c ****             if (ptrSensor->bslnInv[freqChannel] != ((uint16) ~(ptrSensor->bsln[freqChannel])))
 275:Generated_Source\PSoC6/CapSense_Filter.c ****             {
 276:Generated_Source\PSoC6/CapSense_Filter.c ****                 result = CapSense_PROCESS_BASELINE_FAILED;
 277:Generated_Source\PSoC6/CapSense_Filter.c ****             }
 278:Generated_Source\PSoC6/CapSense_Filter.c ****             else
 279:Generated_Source\PSoC6/CapSense_Filter.c ****             {
 280:Generated_Source\PSoC6/CapSense_Filter.c ****         #endif /* (CapSense_ENABLE == CapSense_TST_BSLN_DUPLICATION_EN) */
 281:Generated_Source\PSoC6/CapSense_Filter.c **** 
 282:Generated_Source\PSoC6/CapSense_Filter.c ****         /* Calculate signal value and its sign */
 283:Generated_Source\PSoC6/CapSense_Filter.c ****         if(ptrSensor->raw[freqChannel] >= ptrSensor->bsln[freqChannel])
 284:Generated_Source\PSoC6/CapSense_Filter.c ****         {
 285:Generated_Source\PSoC6/CapSense_Filter.c ****             difference = (uint32)ptrSensor->raw[freqChannel] - (uint32)ptrSensor->bsln[freqChannel]
 286:Generated_Source\PSoC6/CapSense_Filter.c ****             sign = 1u;
 287:Generated_Source\PSoC6/CapSense_Filter.c ****             ptrSensor->negBslnRstCnt[freqChannel] = 0u;
 288:Generated_Source\PSoC6/CapSense_Filter.c ****         }
 289:Generated_Source\PSoC6/CapSense_Filter.c ****         else
 290:Generated_Source\PSoC6/CapSense_Filter.c ****         {
 291:Generated_Source\PSoC6/CapSense_Filter.c ****             difference = (uint32)ptrSensor->bsln[freqChannel] - (uint32)ptrSensor->raw[freqChannel]
 292:Generated_Source\PSoC6/CapSense_Filter.c ****             sign = 0u;
 293:Generated_Source\PSoC6/CapSense_Filter.c ****         }
 294:Generated_Source\PSoC6/CapSense_Filter.c **** 
 295:Generated_Source\PSoC6/CapSense_Filter.c ****         /* Reset baseline if condition is met */
 296:Generated_Source\PSoC6/CapSense_Filter.c ****         if((sign == 0u) && (difference > (uint32) ptrWidgetRam->nNoiseTh))
 297:Generated_Source\PSoC6/CapSense_Filter.c ****         {
 298:Generated_Source\PSoC6/CapSense_Filter.c ****             if(ptrSensor->negBslnRstCnt[freqChannel] >= ptrWidgetRam->lowBslnRst)
 299:Generated_Source\PSoC6/CapSense_Filter.c ****             {
 300:Generated_Source\PSoC6/CapSense_Filter.c ****                 CapSense_FtInitializeBaselineChannel(ptrSensor, wdType, freqChannel);
 301:Generated_Source\PSoC6/CapSense_Filter.c ****             }
 302:Generated_Source\PSoC6/CapSense_Filter.c ****             else
 303:Generated_Source\PSoC6/CapSense_Filter.c ****             {
 304:Generated_Source\PSoC6/CapSense_Filter.c ****                 ptrSensor->negBslnRstCnt[freqChannel]++;
 305:Generated_Source\PSoC6/CapSense_Filter.c ****             }
 306:Generated_Source\PSoC6/CapSense_Filter.c ****         }
 307:Generated_Source\PSoC6/CapSense_Filter.c ****         else
 308:Generated_Source\PSoC6/CapSense_Filter.c ****         {
 309:Generated_Source\PSoC6/CapSense_Filter.c ****             #if (!CapSense_SENSOR_AUTO_RESET_EN)
 310:Generated_Source\PSoC6/CapSense_Filter.c ****                 /* Update baseline only if signal is in range between noiseThreshold and negativeno
 311:Generated_Source\PSoC6/CapSense_Filter.c ****                 if ((difference <= (uint32)ptrWidgetRam->noiseTh) ||
 312:Generated_Source\PSoC6/CapSense_Filter.c ****                     ((difference < (uint32) ptrWidgetRam->nNoiseTh) && (sign == 0u)))
 313:Generated_Source\PSoC6/CapSense_Filter.c ****                 {
 314:Generated_Source\PSoC6/CapSense_Filter.c ****             #endif /* (CapSense_CSD_AUTO_RESET == CapSense_CSD_AUTO_RESET_DISABLE) */
 315:Generated_Source\PSoC6/CapSense_Filter.c **** 
ARM GAS  C:\Users\salaz\AppData\Local\Temp\cctLNP9Y.s 			page 7


 316:Generated_Source\PSoC6/CapSense_Filter.c ****             #if (CapSense_BASELINE_TYPE == CapSense_IIR_BASELINE)
 317:Generated_Source\PSoC6/CapSense_Filter.c ****                 /* Calculate baseline value */
 318:Generated_Source\PSoC6/CapSense_Filter.c ****                 if ((CapSense_WD_TYPE_ENUM)wdType != CapSense_WD_PROXIMITY_E)
 319:Generated_Source\PSoC6/CapSense_Filter.c ****                 {
 320:Generated_Source\PSoC6/CapSense_Filter.c ****                     #if (CapSense_REGULAR_SENSOR_EN)
 321:Generated_Source\PSoC6/CapSense_Filter.c ****                         #if (CapSense_REGULAR_IIR_BL_TYPE == CapSense_IIR_FILTER_PERFORMANCE)
 322:Generated_Source\PSoC6/CapSense_Filter.c ****                             history = (uint32) ptrSensor->bsln[freqChannel] << 8u;
 323:Generated_Source\PSoC6/CapSense_Filter.c ****                             history |= ptrSensor->bslnExt[freqChannel];
 324:Generated_Source\PSoC6/CapSense_Filter.c ****                         #else
 325:Generated_Source\PSoC6/CapSense_Filter.c ****                             history = ptrSensor->bsln[freqChannel];
 326:Generated_Source\PSoC6/CapSense_Filter.c ****                         #endif /* (CapSense_REGULAR_IIR_BL_TYPE == CapSense_IIR_FILTER_PERFORMANCE)
 327:Generated_Source\PSoC6/CapSense_Filter.c **** 
 328:Generated_Source\PSoC6/CapSense_Filter.c ****                         #if (CapSense_ENABLE == CapSense_WD_BSLN_COEFF_EN)
 329:Generated_Source\PSoC6/CapSense_Filter.c ****                             baselineCoeff = ptrWidgetRam->bslnCoeff;
 330:Generated_Source\PSoC6/CapSense_Filter.c ****                         #else /* (CapSense_ENABLE == CapSense_WD_BSLN_COEFF_EN) */
 331:Generated_Source\PSoC6/CapSense_Filter.c ****                             baselineCoeff = CapSense_REGULAR_IIR_BL_N;
 332:Generated_Source\PSoC6/CapSense_Filter.c ****                         #endif /* (CapSense_ENABLE == CapSense_WD_BSLN_COEFF_EN) */
 333:Generated_Source\PSoC6/CapSense_Filter.c **** 
 334:Generated_Source\PSoC6/CapSense_Filter.c ****                         history =  CapSense_FtIIR1stOrder(
 335:Generated_Source\PSoC6/CapSense_Filter.c ****                                         (uint32)ptrSensor->raw[freqChannel],
 336:Generated_Source\PSoC6/CapSense_Filter.c ****                                         history, baselineCoeff,
 337:Generated_Source\PSoC6/CapSense_Filter.c ****                                         CapSense_REGULAR_IIR_BL_SHIFT);
 338:Generated_Source\PSoC6/CapSense_Filter.c **** 
 339:Generated_Source\PSoC6/CapSense_Filter.c ****                         #if (CapSense_REGULAR_IIR_BL_TYPE == CapSense_IIR_FILTER_PERFORMANCE)
 340:Generated_Source\PSoC6/CapSense_Filter.c ****                                     ptrSensor->bsln[freqChannel] = CY_LO16(history >> 8u);
 341:Generated_Source\PSoC6/CapSense_Filter.c ****                                     ptrSensor->bslnExt[freqChannel] = CY_LO8(history);
 342:Generated_Source\PSoC6/CapSense_Filter.c ****                         #else
 343:Generated_Source\PSoC6/CapSense_Filter.c ****                                     ptrSensor->bsln[freqChannel] = CY_LO16(history);
 344:Generated_Source\PSoC6/CapSense_Filter.c ****                         #endif /* (CapSense_REGULAR_IIR_BL_TYPE == CapSense_IIR_FILTER_PERFORMANCE)
 345:Generated_Source\PSoC6/CapSense_Filter.c ****                     #endif /* (CapSense_REGULAR_SENSOR_EN) */
 346:Generated_Source\PSoC6/CapSense_Filter.c ****                 }
 347:Generated_Source\PSoC6/CapSense_Filter.c ****                 else
 348:Generated_Source\PSoC6/CapSense_Filter.c ****                 {
 349:Generated_Source\PSoC6/CapSense_Filter.c ****                     #if (CapSense_PROXIMITY_SENSOR_EN)
 350:Generated_Source\PSoC6/CapSense_Filter.c ****                         #if (CapSense_PROX_IIR_BL_TYPE == CapSense_IIR_FILTER_PERFORMANCE)
 351:Generated_Source\PSoC6/CapSense_Filter.c ****                             history = (uint32) ptrSensor->bsln[freqChannel] << 8u;
 352:Generated_Source\PSoC6/CapSense_Filter.c ****                             history |= ptrSensor->bslnExt[freqChannel];
 353:Generated_Source\PSoC6/CapSense_Filter.c ****                         #else
 354:Generated_Source\PSoC6/CapSense_Filter.c ****                             history = (uint32) ptrSensor->bsln[freqChannel];
 355:Generated_Source\PSoC6/CapSense_Filter.c ****                         #endif /* (CapSense_PROX_IIR_BL_TYPE == CapSense_IIR_FILTER_PERFORMANCE) */
 356:Generated_Source\PSoC6/CapSense_Filter.c **** 
 357:Generated_Source\PSoC6/CapSense_Filter.c ****                         #if (CapSense_ENABLE == CapSense_WD_BSLN_COEFF_EN)
 358:Generated_Source\PSoC6/CapSense_Filter.c ****                             baselineCoeff = ptrWidgetRam->bslnCoeff;
 359:Generated_Source\PSoC6/CapSense_Filter.c ****                         #else /* (CapSense_ENABLE == CapSense_WD_BSLN_COEFF_EN) */
 360:Generated_Source\PSoC6/CapSense_Filter.c ****                             baselineCoeff = CapSense_PROX_IIR_BL_N;
 361:Generated_Source\PSoC6/CapSense_Filter.c ****                         #endif /* (CapSense_ENABLE == CapSense_WD_BSLN_COEFF_EN) */
 362:Generated_Source\PSoC6/CapSense_Filter.c **** 
 363:Generated_Source\PSoC6/CapSense_Filter.c ****                         history = CapSense_FtIIR1stOrder(
 364:Generated_Source\PSoC6/CapSense_Filter.c ****                                         (uint32)ptrSensor->raw[freqChannel],
 365:Generated_Source\PSoC6/CapSense_Filter.c ****                                         history, baselineCoeff,
 366:Generated_Source\PSoC6/CapSense_Filter.c ****                                         CapSense_PROX_IIR_BL_SHIFT);
 367:Generated_Source\PSoC6/CapSense_Filter.c **** 
 368:Generated_Source\PSoC6/CapSense_Filter.c ****                         #if (CapSense_PROX_IIR_BL_TYPE == CapSense_IIR_FILTER_PERFORMANCE)
 369:Generated_Source\PSoC6/CapSense_Filter.c ****                                     ptrSensor->bsln[freqChannel] = CY_LO16(history >> 8u);
 370:Generated_Source\PSoC6/CapSense_Filter.c ****                                     ptrSensor->bslnExt[freqChannel] = CY_LO8(history);
 371:Generated_Source\PSoC6/CapSense_Filter.c ****                         #else
 372:Generated_Source\PSoC6/CapSense_Filter.c ****                                     ptrSensor->bsln[freqChannel] = CY_LO16(history);
ARM GAS  C:\Users\salaz\AppData\Local\Temp\cctLNP9Y.s 			page 8


 373:Generated_Source\PSoC6/CapSense_Filter.c ****                         #endif /* (CapSense_PROX_IIR_BL_TYPE == CapSense_IIR_FILTER_PERFORMANCE) */
 374:Generated_Source\PSoC6/CapSense_Filter.c ****                     #endif /* (CapSense_PROX_SENSOR_EN) */
 375:Generated_Source\PSoC6/CapSense_Filter.c ****                 }
 376:Generated_Source\PSoC6/CapSense_Filter.c ****             #else /* (CapSense_CSD_BASELINE_TYPE == CapSense_IIR_BASELINE) */
 377:Generated_Source\PSoC6/CapSense_Filter.c **** 
 378:Generated_Source\PSoC6/CapSense_Filter.c ****                 /******************************************************************
 379:Generated_Source\PSoC6/CapSense_Filter.c ****                 * This is the place where the bucket algorithm should be implemented.
 380:Generated_Source\PSoC6/CapSense_Filter.c ****                 * The bucket method will be implemented in future Component version.
 381:Generated_Source\PSoC6/CapSense_Filter.c ****                 *******************************************************************/
 382:Generated_Source\PSoC6/CapSense_Filter.c **** 
 383:Generated_Source\PSoC6/CapSense_Filter.c ****             #endif /* (CapSense_CSD_BASELINE_TYPE == CapSense_IIR_BASELINE) */
 384:Generated_Source\PSoC6/CapSense_Filter.c **** 
 385:Generated_Source\PSoC6/CapSense_Filter.c ****             #if (!CapSense_SENSOR_AUTO_RESET_EN)
 386:Generated_Source\PSoC6/CapSense_Filter.c ****                 }
 387:Generated_Source\PSoC6/CapSense_Filter.c ****             #endif /* (!CapSense_SENSOR_AUTO_RESET_EN) */
 388:Generated_Source\PSoC6/CapSense_Filter.c ****         }
 389:Generated_Source\PSoC6/CapSense_Filter.c **** 
 390:Generated_Source\PSoC6/CapSense_Filter.c ****         #if (CapSense_ENABLE == CapSense_TST_BSLN_DUPLICATION_EN)
 391:Generated_Source\PSoC6/CapSense_Filter.c ****             /* Update baseline inversion of every channel in sensor */
 392:Generated_Source\PSoC6/CapSense_Filter.c ****             ptrSensor->bslnInv[freqChannel] = ~(ptrSensor->bsln[freqChannel]);
 393:Generated_Source\PSoC6/CapSense_Filter.c ****             }
 394:Generated_Source\PSoC6/CapSense_Filter.c ****         #endif /* (CapSense_ENABLE == CapSense_TST_BSLN_DUPLICATION_EN) */
 395:Generated_Source\PSoC6/CapSense_Filter.c **** 
 396:Generated_Source\PSoC6/CapSense_Filter.c ****     }
 397:Generated_Source\PSoC6/CapSense_Filter.c ****     return result;
 398:Generated_Source\PSoC6/CapSense_Filter.c **** }
 399:Generated_Source\PSoC6/CapSense_Filter.c **** 
 400:Generated_Source\PSoC6/CapSense_Filter.c **** 
 401:Generated_Source\PSoC6/CapSense_Filter.c **** /*******************************************************************************
 402:Generated_Source\PSoC6/CapSense_Filter.c **** * Function Name: CapSense_InitializeAllBaselines
 403:Generated_Source\PSoC6/CapSense_Filter.c **** ****************************************************************************//**
 404:Generated_Source\PSoC6/CapSense_Filter.c **** *
 405:Generated_Source\PSoC6/CapSense_Filter.c **** * \brief
 406:Generated_Source\PSoC6/CapSense_Filter.c **** *  Initializes (or re-initializes) the baselines of all the sensors of all the widgets.
 407:Generated_Source\PSoC6/CapSense_Filter.c **** *
 408:Generated_Source\PSoC6/CapSense_Filter.c **** * \details
 409:Generated_Source\PSoC6/CapSense_Filter.c **** *  Initializes the baseline for all the sensors of all the widgets. Also, this function
 410:Generated_Source\PSoC6/CapSense_Filter.c **** *  can be used to re-initialize baselines. CapSense_Start() calls this
 411:Generated_Source\PSoC6/CapSense_Filter.c **** *  API as part of CapSense operation initialization.
 412:Generated_Source\PSoC6/CapSense_Filter.c **** *  
 413:Generated_Source\PSoC6/CapSense_Filter.c **** *  If any raw count filter is enabled, make sure the raw count filter history is 
 414:Generated_Source\PSoC6/CapSense_Filter.c **** *  initialized as well using one of these functions:
 415:Generated_Source\PSoC6/CapSense_Filter.c **** *  - CapSense_InitializeAllFilters().
 416:Generated_Source\PSoC6/CapSense_Filter.c **** *  - CapSense_InitializeWidgetFilter().
 417:Generated_Source\PSoC6/CapSense_Filter.c **** *
 418:Generated_Source\PSoC6/CapSense_Filter.c **** *******************************************************************************/
 419:Generated_Source\PSoC6/CapSense_Filter.c **** void CapSense_InitializeAllBaselines(void)
 420:Generated_Source\PSoC6/CapSense_Filter.c **** {
 421:Generated_Source\PSoC6/CapSense_Filter.c ****     uint32 widgetId;
 422:Generated_Source\PSoC6/CapSense_Filter.c **** 
 423:Generated_Source\PSoC6/CapSense_Filter.c ****     for(widgetId = CapSense_TOTAL_WIDGETS; widgetId-- > 0u;)
 424:Generated_Source\PSoC6/CapSense_Filter.c ****     {
 425:Generated_Source\PSoC6/CapSense_Filter.c ****         CapSense_InitializeWidgetBaseline(widgetId);
 426:Generated_Source\PSoC6/CapSense_Filter.c ****     }
 427:Generated_Source\PSoC6/CapSense_Filter.c **** }
 428:Generated_Source\PSoC6/CapSense_Filter.c **** 
 429:Generated_Source\PSoC6/CapSense_Filter.c **** 
ARM GAS  C:\Users\salaz\AppData\Local\Temp\cctLNP9Y.s 			page 9


 430:Generated_Source\PSoC6/CapSense_Filter.c **** /*******************************************************************************
 431:Generated_Source\PSoC6/CapSense_Filter.c **** * Function Name: CapSense_InitializeWidgetBaseline
 432:Generated_Source\PSoC6/CapSense_Filter.c **** ****************************************************************************//**
 433:Generated_Source\PSoC6/CapSense_Filter.c **** *
 434:Generated_Source\PSoC6/CapSense_Filter.c **** * \brief
 435:Generated_Source\PSoC6/CapSense_Filter.c **** *  Initializes (or re-initializes) the baselines of all the sensors in a widget
 436:Generated_Source\PSoC6/CapSense_Filter.c **** *  specified by the input parameter.
 437:Generated_Source\PSoC6/CapSense_Filter.c **** *
 438:Generated_Source\PSoC6/CapSense_Filter.c **** * \details
 439:Generated_Source\PSoC6/CapSense_Filter.c **** *  Initializes (or re-initializes) the baseline for all the sensors of the
 440:Generated_Source\PSoC6/CapSense_Filter.c **** *  specified widget.
 441:Generated_Source\PSoC6/CapSense_Filter.c **** *  
 442:Generated_Source\PSoC6/CapSense_Filter.c **** *  If any raw count filter is enabled, make sure the raw count filter history is 
 443:Generated_Source\PSoC6/CapSense_Filter.c **** *  initialized as well using one of these functions:
 444:Generated_Source\PSoC6/CapSense_Filter.c **** *  - CapSense_InitializeAllFilters().
 445:Generated_Source\PSoC6/CapSense_Filter.c **** *  - CapSense_InitializeWidgetFilter().
 446:Generated_Source\PSoC6/CapSense_Filter.c **** *
 447:Generated_Source\PSoC6/CapSense_Filter.c **** * \param  widgetId
 448:Generated_Source\PSoC6/CapSense_Filter.c **** *  Specifies the ID number of a widget to initialize the baseline of all the sensors
 449:Generated_Source\PSoC6/CapSense_Filter.c **** *  in the widget.
 450:Generated_Source\PSoC6/CapSense_Filter.c **** *  A macro for the widget ID can be found in the
 451:Generated_Source\PSoC6/CapSense_Filter.c **** *  CapSense Configuration header file defined as
 452:Generated_Source\PSoC6/CapSense_Filter.c **** *  CapSense_<WidgetName>_WDGT_ID.
 453:Generated_Source\PSoC6/CapSense_Filter.c **** *
 454:Generated_Source\PSoC6/CapSense_Filter.c **** *******************************************************************************/
 455:Generated_Source\PSoC6/CapSense_Filter.c **** void CapSense_InitializeWidgetBaseline(uint32 widgetId)
 456:Generated_Source\PSoC6/CapSense_Filter.c **** {
 457:Generated_Source\PSoC6/CapSense_Filter.c ****     uint32 sensorId;
 458:Generated_Source\PSoC6/CapSense_Filter.c ****     uint32 sensorsNumber;
 459:Generated_Source\PSoC6/CapSense_Filter.c **** 
 460:Generated_Source\PSoC6/CapSense_Filter.c ****     CapSense_FLASH_WD_STRUCT const *ptrWidget = &CapSense_dsFlash.wdgtArray[widgetId];
 461:Generated_Source\PSoC6/CapSense_Filter.c **** 
 462:Generated_Source\PSoC6/CapSense_Filter.c ****     /* Find total amount of sensors in specified widget */
 463:Generated_Source\PSoC6/CapSense_Filter.c ****     sensorsNumber = CapSense_GET_SNS_CNT_BY_PTR(ptrWidget);
 464:Generated_Source\PSoC6/CapSense_Filter.c **** 
 465:Generated_Source\PSoC6/CapSense_Filter.c ****     for(sensorId = sensorsNumber; sensorId-- > 0u;)
 466:Generated_Source\PSoC6/CapSense_Filter.c ****     {
 467:Generated_Source\PSoC6/CapSense_Filter.c ****         CapSense_InitializeSensorBaseline(widgetId, sensorId);
 468:Generated_Source\PSoC6/CapSense_Filter.c ****     }
 469:Generated_Source\PSoC6/CapSense_Filter.c **** }
 470:Generated_Source\PSoC6/CapSense_Filter.c **** 
 471:Generated_Source\PSoC6/CapSense_Filter.c **** 
 472:Generated_Source\PSoC6/CapSense_Filter.c **** /*******************************************************************************
 473:Generated_Source\PSoC6/CapSense_Filter.c **** * Function Name: CapSense_InitializeSensorBaseline
 474:Generated_Source\PSoC6/CapSense_Filter.c **** ****************************************************************************//**
 475:Generated_Source\PSoC6/CapSense_Filter.c **** *
 476:Generated_Source\PSoC6/CapSense_Filter.c **** * \brief
 477:Generated_Source\PSoC6/CapSense_Filter.c **** *  Initializes (or re-initializes) the baseline of a sensor in a widget specified
 478:Generated_Source\PSoC6/CapSense_Filter.c **** *  by the input parameters.
 479:Generated_Source\PSoC6/CapSense_Filter.c **** *
 480:Generated_Source\PSoC6/CapSense_Filter.c **** * \details
 481:Generated_Source\PSoC6/CapSense_Filter.c **** *  Initializes (or re-initializes) the baseline for a specified sensor within
 482:Generated_Source\PSoC6/CapSense_Filter.c **** *  a specified widget.
 483:Generated_Source\PSoC6/CapSense_Filter.c **** *
 484:Generated_Source\PSoC6/CapSense_Filter.c **** * \param    widgetId
 485:Generated_Source\PSoC6/CapSense_Filter.c **** *  Specifies the ID number of a widget to initialize the baseline of the sensor
 486:Generated_Source\PSoC6/CapSense_Filter.c **** *  in the widget.
ARM GAS  C:\Users\salaz\AppData\Local\Temp\cctLNP9Y.s 			page 10


 487:Generated_Source\PSoC6/CapSense_Filter.c **** *  A macro for the widget ID can be found in the
 488:Generated_Source\PSoC6/CapSense_Filter.c **** *  CapSense Configuration header file defined as
 489:Generated_Source\PSoC6/CapSense_Filter.c **** *  CapSense_<WidgetName>_WDGT_ID.
 490:Generated_Source\PSoC6/CapSense_Filter.c **** *
 491:Generated_Source\PSoC6/CapSense_Filter.c **** * \param    sensorId
 492:Generated_Source\PSoC6/CapSense_Filter.c **** *  Specifies the ID number of the sensor within the widget to initialize its
 493:Generated_Source\PSoC6/CapSense_Filter.c **** *  baseline.
 494:Generated_Source\PSoC6/CapSense_Filter.c **** *  A macro for the sensor ID within a specified widget can be found in the
 495:Generated_Source\PSoC6/CapSense_Filter.c **** *  CapSense Configuration header file defined as
 496:Generated_Source\PSoC6/CapSense_Filter.c **** *  CapSense_<WidgetName>_SNS<SensorNumber>_ID.
 497:Generated_Source\PSoC6/CapSense_Filter.c **** *
 498:Generated_Source\PSoC6/CapSense_Filter.c **** *******************************************************************************/
 499:Generated_Source\PSoC6/CapSense_Filter.c **** void CapSense_InitializeSensorBaseline(uint32 widgetId, uint32 sensorId)
 500:Generated_Source\PSoC6/CapSense_Filter.c **** {
 501:Generated_Source\PSoC6/CapSense_Filter.c ****     CapSense_RAM_SNS_STRUCT *ptrSensor = NULL;
 502:Generated_Source\PSoC6/CapSense_Filter.c ****     CapSense_FLASH_WD_STRUCT const *ptrWidget = NULL;
 503:Generated_Source\PSoC6/CapSense_Filter.c ****     ptrWidget = &CapSense_dsFlash.wdgtArray[widgetId];
 504:Generated_Source\PSoC6/CapSense_Filter.c **** 
 505:Generated_Source\PSoC6/CapSense_Filter.c ****     /* Find pointer to specified sensor object */
 506:Generated_Source\PSoC6/CapSense_Filter.c ****     ptrSensor = ptrWidget->ptr2SnsRam;
 507:Generated_Source\PSoC6/CapSense_Filter.c ****     ptrSensor = &ptrSensor[sensorId];
 508:Generated_Source\PSoC6/CapSense_Filter.c **** 
 509:Generated_Source\PSoC6/CapSense_Filter.c ****     CapSense_FtInitializeBaseline(ptrSensor, (uint32)ptrWidget->wdgtType);
 510:Generated_Source\PSoC6/CapSense_Filter.c **** }
 511:Generated_Source\PSoC6/CapSense_Filter.c **** 
 512:Generated_Source\PSoC6/CapSense_Filter.c **** 
 513:Generated_Source\PSoC6/CapSense_Filter.c **** /*******************************************************************************
 514:Generated_Source\PSoC6/CapSense_Filter.c **** * Function Name: CapSense_FtInitializeBaseline
 515:Generated_Source\PSoC6/CapSense_Filter.c **** ****************************************************************************//**
 516:Generated_Source\PSoC6/CapSense_Filter.c **** *
 517:Generated_Source\PSoC6/CapSense_Filter.c **** * \brief    Initializes the baseline history for a sensor indicated by an input
 518:Generated_Source\PSoC6/CapSense_Filter.c **** *           parameter.
 519:Generated_Source\PSoC6/CapSense_Filter.c **** *
 520:Generated_Source\PSoC6/CapSense_Filter.c **** * \details  Initializes the baseline history for a sensor indicated by an input
 521:Generated_Source\PSoC6/CapSense_Filter.c **** *           parameter.
 522:Generated_Source\PSoC6/CapSense_Filter.c **** *
 523:Generated_Source\PSoC6/CapSense_Filter.c **** * \param    *ptrSensor The pointer to the sensor RAM object.
 524:Generated_Source\PSoC6/CapSense_Filter.c **** * \param    wdType     Specifies the type of a widget.
 525:Generated_Source\PSoC6/CapSense_Filter.c **** *
 526:Generated_Source\PSoC6/CapSense_Filter.c **** *******************************************************************************/
 527:Generated_Source\PSoC6/CapSense_Filter.c **** void CapSense_FtInitializeBaseline(CapSense_RAM_SNS_STRUCT *ptrSensor, uint32 wdType)
 528:Generated_Source\PSoC6/CapSense_Filter.c **** {
 529:Generated_Source\PSoC6/CapSense_Filter.c ****     uint32 freqChannel;
 530:Generated_Source\PSoC6/CapSense_Filter.c **** 
 531:Generated_Source\PSoC6/CapSense_Filter.c ****     /* Apply baseline initialization to every channel in sensor */
 532:Generated_Source\PSoC6/CapSense_Filter.c ****     for(freqChannel = CapSense_NUM_SCAN_FREQS; freqChannel-- > 0u;)
 533:Generated_Source\PSoC6/CapSense_Filter.c ****     {
 534:Generated_Source\PSoC6/CapSense_Filter.c ****         CapSense_FtInitializeBaselineChannel(ptrSensor, wdType, freqChannel);
 535:Generated_Source\PSoC6/CapSense_Filter.c ****     }
 536:Generated_Source\PSoC6/CapSense_Filter.c **** }
 537:Generated_Source\PSoC6/CapSense_Filter.c **** 
 538:Generated_Source\PSoC6/CapSense_Filter.c **** 
 539:Generated_Source\PSoC6/CapSense_Filter.c **** /*******************************************************************************
 540:Generated_Source\PSoC6/CapSense_Filter.c **** * Function Name: CapSense_FtInitializeBaselineChannel
 541:Generated_Source\PSoC6/CapSense_Filter.c **** ****************************************************************************//**
 542:Generated_Source\PSoC6/CapSense_Filter.c **** *
 543:Generated_Source\PSoC6/CapSense_Filter.c **** * \brief    Initializes the baseline history for a sensor indicated by an input
ARM GAS  C:\Users\salaz\AppData\Local\Temp\cctLNP9Y.s 			page 11


 544:Generated_Source\PSoC6/CapSense_Filter.c **** *           parameter.
 545:Generated_Source\PSoC6/CapSense_Filter.c **** *
 546:Generated_Source\PSoC6/CapSense_Filter.c **** * \details  Initializes the baseline history for a sensor indicated by an input
 547:Generated_Source\PSoC6/CapSense_Filter.c **** *           parameter.
 548:Generated_Source\PSoC6/CapSense_Filter.c **** *
 549:Generated_Source\PSoC6/CapSense_Filter.c **** * \param    *ptrSensor The pointer to the sensor RAM object.
 550:Generated_Source\PSoC6/CapSense_Filter.c **** * \param    wdType     Specifies the type of a widget.
 551:Generated_Source\PSoC6/CapSense_Filter.c **** * \param    channel    Specifies the number of the channel to be initialized.
 552:Generated_Source\PSoC6/CapSense_Filter.c **** *
 553:Generated_Source\PSoC6/CapSense_Filter.c **** *******************************************************************************/
 554:Generated_Source\PSoC6/CapSense_Filter.c **** void CapSense_FtInitializeBaselineChannel(CapSense_RAM_SNS_STRUCT *ptrSensor, uint32 wdType, uint32
 555:Generated_Source\PSoC6/CapSense_Filter.c **** {
  28              		.loc 1 555 0
  29              		.cfi_startproc
  30              		@ args = 0, pretend = 0, frame = 0
  31              		@ frame_needed = 0, uses_anonymous_args = 0
  32              		@ link register save eliminated.
  33              	.LVL0:
 556:Generated_Source\PSoC6/CapSense_Filter.c ****     #if (CapSense_BASELINE_TYPE == CapSense_IIR_BASELINE)
 557:Generated_Source\PSoC6/CapSense_Filter.c ****         if ((CapSense_WD_TYPE_ENUM)wdType != CapSense_WD_PROXIMITY_E)
  34              		.loc 1 557 0
  35 0000 FF23     		movs	r3, #255
  36 0002 1940     		ands	r1, r3
  37              	.LVL1:
  38 0004 0629     		cmp	r1, #6
  39 0006 02D1     		bne	.L2
 558:Generated_Source\PSoC6/CapSense_Filter.c ****         {
 559:Generated_Source\PSoC6/CapSense_Filter.c ****             #if (CapSense_REGULAR_SENSOR_EN)
 560:Generated_Source\PSoC6/CapSense_Filter.c ****                 #if (CapSense_REGULAR_IIR_BL_TYPE == CapSense_IIR_FILTER_PERFORMANCE)
 561:Generated_Source\PSoC6/CapSense_Filter.c ****                     ptrSensor->bslnExt[channel] = 0u;
 562:Generated_Source\PSoC6/CapSense_Filter.c ****                 #endif /* (CapSense_REGULAR_IIR_BL_TYPE == CapSense_IIR_FILTER_PERFORMANCE) */
 563:Generated_Source\PSoC6/CapSense_Filter.c ****             #endif /* (CapSense_REGULAR_SENSOR_EN) */
 564:Generated_Source\PSoC6/CapSense_Filter.c ****         }
 565:Generated_Source\PSoC6/CapSense_Filter.c ****         else
 566:Generated_Source\PSoC6/CapSense_Filter.c ****         {
 567:Generated_Source\PSoC6/CapSense_Filter.c ****             #if (CapSense_PROXIMITY_SENSOR_EN)
 568:Generated_Source\PSoC6/CapSense_Filter.c ****                 #if (CapSense_PROX_IIR_BL_TYPE == CapSense_IIR_FILTER_PERFORMANCE)
 569:Generated_Source\PSoC6/CapSense_Filter.c ****                     ptrSensor->bslnExt[channel] = 0u;
  40              		.loc 1 569 0
  41 0008 8318     		adds	r3, r0, r2
  42 000a 0021     		movs	r1, #0
  43 000c 1971     		strb	r1, [r3, #4]
  44              	.L2:
 570:Generated_Source\PSoC6/CapSense_Filter.c ****                 #endif /* (CapSense_PROX_IIR_BL_TYPE == CapSense_IIR_FILTER_PERFORMANCE) */
 571:Generated_Source\PSoC6/CapSense_Filter.c ****             #endif /* (CapSense_PROX_SENSOR_EN) */
 572:Generated_Source\PSoC6/CapSense_Filter.c ****         }
 573:Generated_Source\PSoC6/CapSense_Filter.c ****     #else
 574:Generated_Source\PSoC6/CapSense_Filter.c ****         /* CapSense_BASELINE_TYPE == CapSense_BUCKET_BASELINE */
 575:Generated_Source\PSoC6/CapSense_Filter.c ****         ptrSensor->bslnExt[channel] = 0u;
 576:Generated_Source\PSoC6/CapSense_Filter.c ****     #endif /* (CapSense_BASELINE_TYPE == CapSense_IIR_BASELINE) */
 577:Generated_Source\PSoC6/CapSense_Filter.c **** 
 578:Generated_Source\PSoC6/CapSense_Filter.c ****     ptrSensor->bsln[channel] = ptrSensor->raw[channel];
  45              		.loc 1 578 0
  46 000e 5300     		lsls	r3, r2, #1
  47 0010 195A     		ldrh	r1, [r3, r0]
  48 0012 C318     		adds	r3, r0, r3
  49 0014 5980     		strh	r1, [r3, #2]
ARM GAS  C:\Users\salaz\AppData\Local\Temp\cctLNP9Y.s 			page 12


 579:Generated_Source\PSoC6/CapSense_Filter.c **** 
 580:Generated_Source\PSoC6/CapSense_Filter.c ****     #if (CapSense_ENABLE == CapSense_TST_BSLN_DUPLICATION_EN)
 581:Generated_Source\PSoC6/CapSense_Filter.c ****     /* Update baseline inversion of the channel in sensor */
 582:Generated_Source\PSoC6/CapSense_Filter.c ****         ptrSensor->bslnInv[channel] = ~(ptrSensor->bsln[channel]);
 583:Generated_Source\PSoC6/CapSense_Filter.c ****     #endif /* (CapSense_ENABLE == CapSense_TST_BSLN_DUPLICATION_EN) */
 584:Generated_Source\PSoC6/CapSense_Filter.c **** 
 585:Generated_Source\PSoC6/CapSense_Filter.c ****     ptrSensor->negBslnRstCnt[channel] = 0u;
  50              		.loc 1 585 0
  51 0016 8218     		adds	r2, r0, r2
  52              	.LVL2:
  53 0018 0023     		movs	r3, #0
  54 001a 1372     		strb	r3, [r2, #8]
 586:Generated_Source\PSoC6/CapSense_Filter.c **** }
  55              		.loc 1 586 0
  56              		@ sp needed
  57 001c 7047     		bx	lr
  58              		.cfi_endproc
  59              	.LFE45:
  60              		.size	CapSense_FtInitializeBaselineChannel, .-CapSense_FtInitializeBaselineChannel
  61 001e C046     		.section	.text.CapSense_FtInitializeBaseline,"ax",%progbits
  62              		.align	2
  63              		.global	CapSense_FtInitializeBaseline
  64              		.code	16
  65              		.thumb_func
  66              		.type	CapSense_FtInitializeBaseline, %function
  67              	CapSense_FtInitializeBaseline:
  68              	.LFB44:
 528:Generated_Source\PSoC6/CapSense_Filter.c ****     uint32 freqChannel;
  69              		.loc 1 528 0
  70              		.cfi_startproc
  71              		@ args = 0, pretend = 0, frame = 0
  72              		@ frame_needed = 0, uses_anonymous_args = 0
  73              	.LVL3:
  74 0000 70B5     		push	{r4, r5, r6, lr}
  75              		.cfi_def_cfa_offset 16
  76              		.cfi_offset 4, -16
  77              		.cfi_offset 5, -12
  78              		.cfi_offset 6, -8
  79              		.cfi_offset 14, -4
  80 0002 0600     		movs	r6, r0
  81 0004 0D00     		movs	r5, r1
  82              	.LVL4:
 532:Generated_Source\PSoC6/CapSense_Filter.c ****     {
  83              		.loc 1 532 0
  84 0006 0123     		movs	r3, #1
  85 0008 05E0     		b	.L4
  86              	.LVL5:
  87              	.L5:
 534:Generated_Source\PSoC6/CapSense_Filter.c ****     }
  88              		.loc 1 534 0
  89 000a 2200     		movs	r2, r4
  90 000c 2900     		movs	r1, r5
  91 000e 3000     		movs	r0, r6
  92 0010 FFF7FEFF 		bl	CapSense_FtInitializeBaselineChannel
  93              	.LVL6:
 532:Generated_Source\PSoC6/CapSense_Filter.c ****     {
  94              		.loc 1 532 0
ARM GAS  C:\Users\salaz\AppData\Local\Temp\cctLNP9Y.s 			page 13


  95 0014 2300     		movs	r3, r4
  96              	.LVL7:
  97              	.L4:
 532:Generated_Source\PSoC6/CapSense_Filter.c ****     {
  98              		.loc 1 532 0 is_stmt 0 discriminator 1
  99 0016 5C1E     		subs	r4, r3, #1
 100              	.LVL8:
 101 0018 002B     		cmp	r3, #0
 102 001a F6D1     		bne	.L5
 536:Generated_Source\PSoC6/CapSense_Filter.c **** 
 103              		.loc 1 536 0 is_stmt 1
 104              		@ sp needed
 105              	.LVL9:
 106              	.LVL10:
 107              	.LVL11:
 108 001c 70BD     		pop	{r4, r5, r6, pc}
 109              		.cfi_endproc
 110              	.LFE44:
 111              		.size	CapSense_FtInitializeBaseline, .-CapSense_FtInitializeBaseline
 112 001e C046     		.section	.text.CapSense_InitializeSensorBaseline,"ax",%progbits
 113              		.align	2
 114              		.global	CapSense_InitializeSensorBaseline
 115              		.code	16
 116              		.thumb_func
 117              		.type	CapSense_InitializeSensorBaseline, %function
 118              	CapSense_InitializeSensorBaseline:
 119              	.LFB43:
 500:Generated_Source\PSoC6/CapSense_Filter.c ****     CapSense_RAM_SNS_STRUCT *ptrSensor = NULL;
 120              		.loc 1 500 0
 121              		.cfi_startproc
 122              		@ args = 0, pretend = 0, frame = 0
 123              		@ frame_needed = 0, uses_anonymous_args = 0
 124              	.LVL12:
 125 0000 10B5     		push	{r4, lr}
 126              		.cfi_def_cfa_offset 8
 127              		.cfi_offset 4, -8
 128              		.cfi_offset 14, -4
 129              	.LVL13:
 506:Generated_Source\PSoC6/CapSense_Filter.c ****     ptrSensor = &ptrSensor[sensorId];
 130              		.loc 1 506 0
 131 0002 4001     		lsls	r0, r0, #5
 132              	.LVL14:
 133 0004 054B     		ldr	r3, .L7
 134 0006 1B18     		adds	r3, r3, r0
 135              	.LVL15:
 507:Generated_Source\PSoC6/CapSense_Filter.c **** 
 136              		.loc 1 507 0
 137 0008 8A00     		lsls	r2, r1, #2
 138 000a 5118     		adds	r1, r2, r1
 139              	.LVL16:
 140 000c 4800     		lsls	r0, r1, #1
 141 000e 9A68     		ldr	r2, [r3, #8]
 142 0010 9446     		mov	ip, r2
 143 0012 6044     		add	r0, r0, ip
 144              	.LVL17:
 509:Generated_Source\PSoC6/CapSense_Filter.c **** }
 145              		.loc 1 509 0
ARM GAS  C:\Users\salaz\AppData\Local\Temp\cctLNP9Y.s 			page 14


 146 0014 997E     		ldrb	r1, [r3, #26]
 147 0016 FFF7FEFF 		bl	CapSense_FtInitializeBaseline
 148              	.LVL18:
 510:Generated_Source\PSoC6/CapSense_Filter.c **** 
 149              		.loc 1 510 0
 150              		@ sp needed
 151 001a 10BD     		pop	{r4, pc}
 152              	.L8:
 153              		.align	2
 154              	.L7:
 155 001c 00000000 		.word	CapSense_dsFlash
 156              		.cfi_endproc
 157              	.LFE43:
 158              		.size	CapSense_InitializeSensorBaseline, .-CapSense_InitializeSensorBaseline
 159              		.section	.text.CapSense_InitializeWidgetBaseline,"ax",%progbits
 160              		.align	2
 161              		.global	CapSense_InitializeWidgetBaseline
 162              		.code	16
 163              		.thumb_func
 164              		.type	CapSense_InitializeWidgetBaseline, %function
 165              	CapSense_InitializeWidgetBaseline:
 166              	.LFB42:
 456:Generated_Source\PSoC6/CapSense_Filter.c ****     uint32 sensorId;
 167              		.loc 1 456 0
 168              		.cfi_startproc
 169              		@ args = 0, pretend = 0, frame = 0
 170              		@ frame_needed = 0, uses_anonymous_args = 0
 171              	.LVL19:
 172 0000 70B5     		push	{r4, r5, r6, lr}
 173              		.cfi_def_cfa_offset 16
 174              		.cfi_offset 4, -16
 175              		.cfi_offset 5, -12
 176              		.cfi_offset 6, -8
 177              		.cfi_offset 14, -4
 178 0002 0500     		movs	r5, r0
 179              	.LVL20:
 463:Generated_Source\PSoC6/CapSense_Filter.c **** 
 180              		.loc 1 463 0
 181 0004 4301     		lsls	r3, r0, #5
 182 0006 064A     		ldr	r2, .L12
 183 0008 D318     		adds	r3, r2, r3
 184              	.LVL21:
 185 000a 1B8B     		ldrh	r3, [r3, #24]
 186              	.LVL22:
 465:Generated_Source\PSoC6/CapSense_Filter.c ****     {
 187              		.loc 1 465 0
 188 000c 04E0     		b	.L10
 189              	.LVL23:
 190              	.L11:
 467:Generated_Source\PSoC6/CapSense_Filter.c ****     }
 191              		.loc 1 467 0
 192 000e 2100     		movs	r1, r4
 193 0010 2800     		movs	r0, r5
 194 0012 FFF7FEFF 		bl	CapSense_InitializeSensorBaseline
 195              	.LVL24:
 465:Generated_Source\PSoC6/CapSense_Filter.c ****     {
 196              		.loc 1 465 0
ARM GAS  C:\Users\salaz\AppData\Local\Temp\cctLNP9Y.s 			page 15


 197 0016 2300     		movs	r3, r4
 198              	.LVL25:
 199              	.L10:
 465:Generated_Source\PSoC6/CapSense_Filter.c ****     {
 200              		.loc 1 465 0 is_stmt 0 discriminator 1
 201 0018 5C1E     		subs	r4, r3, #1
 202              	.LVL26:
 203 001a 002B     		cmp	r3, #0
 204 001c F7D1     		bne	.L11
 469:Generated_Source\PSoC6/CapSense_Filter.c **** 
 205              		.loc 1 469 0 is_stmt 1
 206              		@ sp needed
 207              	.LVL27:
 208              	.LVL28:
 209 001e 70BD     		pop	{r4, r5, r6, pc}
 210              	.L13:
 211              		.align	2
 212              	.L12:
 213 0020 00000000 		.word	CapSense_dsFlash
 214              		.cfi_endproc
 215              	.LFE42:
 216              		.size	CapSense_InitializeWidgetBaseline, .-CapSense_InitializeWidgetBaseline
 217              		.section	.text.CapSense_InitializeAllBaselines,"ax",%progbits
 218              		.align	2
 219              		.global	CapSense_InitializeAllBaselines
 220              		.code	16
 221              		.thumb_func
 222              		.type	CapSense_InitializeAllBaselines, %function
 223              	CapSense_InitializeAllBaselines:
 224              	.LFB41:
 420:Generated_Source\PSoC6/CapSense_Filter.c ****     uint32 widgetId;
 225              		.loc 1 420 0
 226              		.cfi_startproc
 227              		@ args = 0, pretend = 0, frame = 0
 228              		@ frame_needed = 0, uses_anonymous_args = 0
 229 0000 10B5     		push	{r4, lr}
 230              		.cfi_def_cfa_offset 8
 231              		.cfi_offset 4, -8
 232              		.cfi_offset 14, -4
 233              	.LVL29:
 423:Generated_Source\PSoC6/CapSense_Filter.c ****     {
 234              		.loc 1 423 0
 235 0002 0123     		movs	r3, #1
 236 0004 03E0     		b	.L15
 237              	.LVL30:
 238              	.L16:
 425:Generated_Source\PSoC6/CapSense_Filter.c ****     }
 239              		.loc 1 425 0
 240 0006 2000     		movs	r0, r4
 241 0008 FFF7FEFF 		bl	CapSense_InitializeWidgetBaseline
 242              	.LVL31:
 423:Generated_Source\PSoC6/CapSense_Filter.c ****     {
 243              		.loc 1 423 0
 244 000c 2300     		movs	r3, r4
 245              	.LVL32:
 246              	.L15:
 423:Generated_Source\PSoC6/CapSense_Filter.c ****     {
ARM GAS  C:\Users\salaz\AppData\Local\Temp\cctLNP9Y.s 			page 16


 247              		.loc 1 423 0 is_stmt 0 discriminator 1
 248 000e 5C1E     		subs	r4, r3, #1
 249              	.LVL33:
 250 0010 002B     		cmp	r3, #0
 251 0012 F8D1     		bne	.L16
 427:Generated_Source\PSoC6/CapSense_Filter.c **** 
 252              		.loc 1 427 0 is_stmt 1
 253              		@ sp needed
 254              	.LVL34:
 255 0014 10BD     		pop	{r4, pc}
 256              		.cfi_endproc
 257              	.LFE41:
 258              		.size	CapSense_InitializeAllBaselines, .-CapSense_InitializeAllBaselines
 259 0016 C046     		.section	.text.CapSense_InitializeIIRInternal,"ax",%progbits
 260              		.align	2
 261              		.global	CapSense_InitializeIIRInternal
 262              		.code	16
 263              		.thumb_func
 264              		.type	CapSense_InitializeIIRInternal, %function
 265              	CapSense_InitializeIIRInternal:
 266              	.LFB50:
 587:Generated_Source\PSoC6/CapSense_Filter.c **** 
 588:Generated_Source\PSoC6/CapSense_Filter.c **** #if ((CapSense_ENABLE == CapSense_RC_FILTER_EN) || \
 589:Generated_Source\PSoC6/CapSense_Filter.c ****      (0u != (CapSense_CSD_AUTOTUNE & CapSense_CSD_SS_TH_EN)))
 590:Generated_Source\PSoC6/CapSense_Filter.c **** /*******************************************************************************
 591:Generated_Source\PSoC6/CapSense_Filter.c **** * Function Name: CapSense_InitializeAllFilters
 592:Generated_Source\PSoC6/CapSense_Filter.c **** ****************************************************************************//**
 593:Generated_Source\PSoC6/CapSense_Filter.c **** *
 594:Generated_Source\PSoC6/CapSense_Filter.c **** * \brief
 595:Generated_Source\PSoC6/CapSense_Filter.c **** *  Initializes (or re-initializes) the raw count filter history of all the 
 596:Generated_Source\PSoC6/CapSense_Filter.c **** *  sensors of all the widgets.
 597:Generated_Source\PSoC6/CapSense_Filter.c **** *
 598:Generated_Source\PSoC6/CapSense_Filter.c **** * \details
 599:Generated_Source\PSoC6/CapSense_Filter.c **** *  Initializes the raw count filter history for all the sensors of all the 
 600:Generated_Source\PSoC6/CapSense_Filter.c **** *  widgets. Also, this function can be used to re-initialize baselines. 
 601:Generated_Source\PSoC6/CapSense_Filter.c **** *  CapSense_Start() calls this API as part of CapSense 
 602:Generated_Source\PSoC6/CapSense_Filter.c **** *  operation initialization.
 603:Generated_Source\PSoC6/CapSense_Filter.c **** *
 604:Generated_Source\PSoC6/CapSense_Filter.c **** *******************************************************************************/
 605:Generated_Source\PSoC6/CapSense_Filter.c **** void CapSense_InitializeAllFilters(void)
 606:Generated_Source\PSoC6/CapSense_Filter.c **** {
 607:Generated_Source\PSoC6/CapSense_Filter.c ****     uint32 widgetId;
 608:Generated_Source\PSoC6/CapSense_Filter.c **** 
 609:Generated_Source\PSoC6/CapSense_Filter.c ****     for(widgetId = CapSense_TOTAL_WIDGETS; widgetId-- > 0u;)
 610:Generated_Source\PSoC6/CapSense_Filter.c ****     {
 611:Generated_Source\PSoC6/CapSense_Filter.c ****         CapSense_InitializeWidgetFilter(widgetId);
 612:Generated_Source\PSoC6/CapSense_Filter.c ****     }
 613:Generated_Source\PSoC6/CapSense_Filter.c **** }
 614:Generated_Source\PSoC6/CapSense_Filter.c **** 
 615:Generated_Source\PSoC6/CapSense_Filter.c **** /*******************************************************************************
 616:Generated_Source\PSoC6/CapSense_Filter.c **** * Function Name: CapSense_InitializeWidgetFilter
 617:Generated_Source\PSoC6/CapSense_Filter.c **** ****************************************************************************//**
 618:Generated_Source\PSoC6/CapSense_Filter.c **** *
 619:Generated_Source\PSoC6/CapSense_Filter.c **** * \brief
 620:Generated_Source\PSoC6/CapSense_Filter.c **** *  Initializes (or re-initializes) the raw count filter history of all the sensors 
 621:Generated_Source\PSoC6/CapSense_Filter.c **** *  in a widget specified by the input parameter.
 622:Generated_Source\PSoC6/CapSense_Filter.c **** *
ARM GAS  C:\Users\salaz\AppData\Local\Temp\cctLNP9Y.s 			page 17


 623:Generated_Source\PSoC6/CapSense_Filter.c **** * \details
 624:Generated_Source\PSoC6/CapSense_Filter.c **** *  Initializes (or re-initializes) the raw count filter history of all the sensors 
 625:Generated_Source\PSoC6/CapSense_Filter.c **** *  in a widget specified by the input parameter.
 626:Generated_Source\PSoC6/CapSense_Filter.c **** *
 627:Generated_Source\PSoC6/CapSense_Filter.c **** * \param  widgetId
 628:Generated_Source\PSoC6/CapSense_Filter.c **** *  Specifies the ID number of a widget to initialize the filter history of all 
 629:Generated_Source\PSoC6/CapSense_Filter.c **** *  the sensors in the widget.
 630:Generated_Source\PSoC6/CapSense_Filter.c **** *  A macro for the widget ID can be found in the
 631:Generated_Source\PSoC6/CapSense_Filter.c **** *  CapSense Configuration header file defined as
 632:Generated_Source\PSoC6/CapSense_Filter.c **** *  CapSense_<WidgetName>_WDGT_ID.
 633:Generated_Source\PSoC6/CapSense_Filter.c **** *
 634:Generated_Source\PSoC6/CapSense_Filter.c **** *******************************************************************************/
 635:Generated_Source\PSoC6/CapSense_Filter.c **** void CapSense_InitializeWidgetFilter(uint32 widgetId)
 636:Generated_Source\PSoC6/CapSense_Filter.c **** {
 637:Generated_Source\PSoC6/CapSense_Filter.c ****     uint32 sensorId;
 638:Generated_Source\PSoC6/CapSense_Filter.c ****     uint32 sensorsNumber;
 639:Generated_Source\PSoC6/CapSense_Filter.c **** 
 640:Generated_Source\PSoC6/CapSense_Filter.c ****     CapSense_FLASH_WD_STRUCT const *ptrWidget;
 641:Generated_Source\PSoC6/CapSense_Filter.c ****     CapSense_RAM_SNS_STRUCT *ptrSensor = NULL;
 642:Generated_Source\PSoC6/CapSense_Filter.c ****     #if (CapSense_ENABLE == CapSense_RC_FILTER_EN)
 643:Generated_Source\PSoC6/CapSense_Filter.c ****         CapSense_PTR_FILTER_VARIANT ptrFilterHistObj;
 644:Generated_Source\PSoC6/CapSense_Filter.c ****     #endif
 645:Generated_Source\PSoC6/CapSense_Filter.c ****     
 646:Generated_Source\PSoC6/CapSense_Filter.c ****     #if (0u != (CapSense_CSD_AUTOTUNE & CapSense_CSD_SS_TH_EN))
 647:Generated_Source\PSoC6/CapSense_Filter.c ****         CapSense_RAM_WD_BASE_STRUCT *ptrWidgetRam;
 648:Generated_Source\PSoC6/CapSense_Filter.c ****         SMARTSENSE_CSD_NOISE_ENVELOPE_STRUCT *ptrNoiseEnvelope = NULL;
 649:Generated_Source\PSoC6/CapSense_Filter.c ****     #endif /* (0u != (CapSense_CSD_AUTOTUNE & CapSense_CSD_SS_TH_EN)) */
 650:Generated_Source\PSoC6/CapSense_Filter.c **** 
 651:Generated_Source\PSoC6/CapSense_Filter.c ****     ptrWidget = &CapSense_dsFlash.wdgtArray[widgetId];
 652:Generated_Source\PSoC6/CapSense_Filter.c **** 
 653:Generated_Source\PSoC6/CapSense_Filter.c ****     #if (0u != (CapSense_CSD_AUTOTUNE & CapSense_CSD_SS_TH_EN))
 654:Generated_Source\PSoC6/CapSense_Filter.c ****         ptrWidgetRam = ptrWidget->ptr2WdgtRam;
 655:Generated_Source\PSoC6/CapSense_Filter.c ****     #endif /* (0u != (CapSense_CSD_AUTOTUNE & CapSense_CSD_SS_TH_EN)) */
 656:Generated_Source\PSoC6/CapSense_Filter.c **** 
 657:Generated_Source\PSoC6/CapSense_Filter.c ****     /* Find total amount of sensors in specified widget */
 658:Generated_Source\PSoC6/CapSense_Filter.c ****     sensorsNumber = CapSense_GET_SNS_CNT_BY_PTR(ptrWidget);
 659:Generated_Source\PSoC6/CapSense_Filter.c **** 
 660:Generated_Source\PSoC6/CapSense_Filter.c ****     for (sensorId = sensorsNumber; sensorId-- > 0u;)
 661:Generated_Source\PSoC6/CapSense_Filter.c ****     {
 662:Generated_Source\PSoC6/CapSense_Filter.c ****         /* Find pointer to specified sensor object */
 663:Generated_Source\PSoC6/CapSense_Filter.c ****         ptrSensor = ptrWidget->ptr2SnsRam;
 664:Generated_Source\PSoC6/CapSense_Filter.c ****         ptrSensor = &ptrSensor[sensorId];
 665:Generated_Source\PSoC6/CapSense_Filter.c **** 
 666:Generated_Source\PSoC6/CapSense_Filter.c ****         #if (CapSense_ENABLE == CapSense_RC_FILTER_EN)
 667:Generated_Source\PSoC6/CapSense_Filter.c ****             /* Find pointer to to specified filter sensor object */
 668:Generated_Source\PSoC6/CapSense_Filter.c ****             ptrFilterHistObj.ptr = ptrWidget->ptr2FltrHistory;
 669:Generated_Source\PSoC6/CapSense_Filter.c ****         #endif
 670:Generated_Source\PSoC6/CapSense_Filter.c **** 
 671:Generated_Source\PSoC6/CapSense_Filter.c ****         #if (0u != (CapSense_CSD_AUTOTUNE & CapSense_CSD_SS_TH_EN))
 672:Generated_Source\PSoC6/CapSense_Filter.c ****             /* Find pointer to specified noise envelope sensor object */
 673:Generated_Source\PSoC6/CapSense_Filter.c ****             ptrNoiseEnvelope = ptrWidget->ptr2NoiseEnvlp;
 674:Generated_Source\PSoC6/CapSense_Filter.c ****             ptrNoiseEnvelope = &ptrNoiseEnvelope[sensorId];
 675:Generated_Source\PSoC6/CapSense_Filter.c ****         #endif /* (0u != (CapSense_CSD_AUTOTUNE & CapSense_CSD_SS_TH_EN)) */
 676:Generated_Source\PSoC6/CapSense_Filter.c **** 
 677:Generated_Source\PSoC6/CapSense_Filter.c ****         if ((CapSense_WD_TYPE_ENUM)ptrWidget->wdgtType != CapSense_WD_PROXIMITY_E)
 678:Generated_Source\PSoC6/CapSense_Filter.c ****         {
 679:Generated_Source\PSoC6/CapSense_Filter.c ****             #if (0u != CapSense_REGULAR_RC_ALP_FILTER_EN)
ARM GAS  C:\Users\salaz\AppData\Local\Temp\cctLNP9Y.s 			page 18


 680:Generated_Source\PSoC6/CapSense_Filter.c ****                 ptrFilterHistObj.ptrAlp = &ptrFilterHistObj.ptrAlp[sensorId];
 681:Generated_Source\PSoC6/CapSense_Filter.c ****             #elif (0u != CapSense_REGULAR_RC_FILTER_EN)
 682:Generated_Source\PSoC6/CapSense_Filter.c ****                 ptrFilterHistObj.ptrRegular = &ptrFilterHistObj.ptrRegular[sensorId];
 683:Generated_Source\PSoC6/CapSense_Filter.c ****             #endif
 684:Generated_Source\PSoC6/CapSense_Filter.c ****         }
 685:Generated_Source\PSoC6/CapSense_Filter.c ****         else
 686:Generated_Source\PSoC6/CapSense_Filter.c ****         {
 687:Generated_Source\PSoC6/CapSense_Filter.c ****             #if (0u != CapSense_PROX_RC_ALP_FILTER_EN)
 688:Generated_Source\PSoC6/CapSense_Filter.c ****                 ptrFilterHistObj.ptrAlp = &ptrFilterHistObj.ptrAlp[sensorId];
 689:Generated_Source\PSoC6/CapSense_Filter.c ****             #elif (0u != CapSense_PROX_RC_FILTER_EN)
 690:Generated_Source\PSoC6/CapSense_Filter.c ****                 ptrFilterHistObj.ptrProx = &ptrFilterHistObj.ptrProx[sensorId];
 691:Generated_Source\PSoC6/CapSense_Filter.c ****             #endif /* #if (0u != CapSense_PROX_RC_FILTER_EN) */
 692:Generated_Source\PSoC6/CapSense_Filter.c ****         }
 693:Generated_Source\PSoC6/CapSense_Filter.c **** 
 694:Generated_Source\PSoC6/CapSense_Filter.c ****         #if (CapSense_REGULAR_RC_IIR_FILTER_EN || CapSense_PROX_RC_IIR_FILTER_EN)
 695:Generated_Source\PSoC6/CapSense_Filter.c ****             CapSense_InitializeIIRInternal(ptrFilterHistObj, ptrSensor, (uint32)ptrWidget->wdgtType
 696:Generated_Source\PSoC6/CapSense_Filter.c ****         #endif /* (CapSense_REGULAR_RC_IIR_FILTER_EN || CapSense_PROX_RC_IIR_FILTER_EN) */
 697:Generated_Source\PSoC6/CapSense_Filter.c **** 
 698:Generated_Source\PSoC6/CapSense_Filter.c ****         #if (CapSense_REGULAR_RC_MEDIAN_FILTER_EN || CapSense_PROX_RC_MEDIAN_FILTER_EN)
 699:Generated_Source\PSoC6/CapSense_Filter.c ****             CapSense_InitializeMedianInternal(ptrFilterHistObj, ptrSensor, (uint32)ptrWidget->wdgtT
 700:Generated_Source\PSoC6/CapSense_Filter.c ****         #endif /* (CapSense_REGULAR_RC_MEDIAN_FILTER_EN || CapSense_PROX_RC_MEDIAN_FILTER_EN) */
 701:Generated_Source\PSoC6/CapSense_Filter.c **** 
 702:Generated_Source\PSoC6/CapSense_Filter.c ****         #if (CapSense_REGULAR_RC_AVERAGE_FILTER_EN || CapSense_PROX_RC_AVERAGE_FILTER_EN)
 703:Generated_Source\PSoC6/CapSense_Filter.c ****             CapSense_InitializeAverageInternal(ptrFilterHistObj, ptrSensor, (uint32)ptrWidget->wdgt
 704:Generated_Source\PSoC6/CapSense_Filter.c ****         #endif /* (CapSense_REGULAR_RC_AVERAGE_FILTER_EN || CapSense_PROX_RC_AVERAGE_FILTER_EN) */
 705:Generated_Source\PSoC6/CapSense_Filter.c **** 
 706:Generated_Source\PSoC6/CapSense_Filter.c ****         #if (CapSense_ALP_FILTER_EN)
 707:Generated_Source\PSoC6/CapSense_Filter.c ****             CapSense_InitializeALPInternal(ptrFilterHistObj, ptrSensor, (uint32)ptrWidget->wdgtType
 708:Generated_Source\PSoC6/CapSense_Filter.c ****         #endif
 709:Generated_Source\PSoC6/CapSense_Filter.c **** 
 710:Generated_Source\PSoC6/CapSense_Filter.c ****         #if (0u != (CapSense_CSD_AUTOTUNE & CapSense_CSD_SS_TH_EN))
 711:Generated_Source\PSoC6/CapSense_Filter.c ****             if (CapSense_SENSE_METHOD_CSD_E ==
 712:Generated_Source\PSoC6/CapSense_Filter.c ****                 CapSense_GET_SENSE_METHOD(&CapSense_dsFlash.wdgtArray[widgetId]))
 713:Generated_Source\PSoC6/CapSense_Filter.c ****             {
 714:Generated_Source\PSoC6/CapSense_Filter.c ****                 SmartSense_InitializeNoiseEnvelope(ptrSensor->raw[0u], ptrWidgetRam->sigPFC, ptrNoi
 715:Generated_Source\PSoC6/CapSense_Filter.c ****             }
 716:Generated_Source\PSoC6/CapSense_Filter.c ****         #endif /* (0u != (CapSense_CSD_AUTOTUNE & CapSense_CSD_SS_TH_EN)) */
 717:Generated_Source\PSoC6/CapSense_Filter.c ****     }
 718:Generated_Source\PSoC6/CapSense_Filter.c **** }
 719:Generated_Source\PSoC6/CapSense_Filter.c **** #endif /* ((CapSense_ENABLE == CapSense_RC_FILTER_EN) || \
 720:Generated_Source\PSoC6/CapSense_Filter.c ****            (0u != (CapSense_CSD_AUTOTUNE & CapSense_CSD_SS_TH_EN))) */
 721:Generated_Source\PSoC6/CapSense_Filter.c **** 
 722:Generated_Source\PSoC6/CapSense_Filter.c **** #if (CapSense_REGULAR_RC_IIR_FILTER_EN || CapSense_PROX_RC_IIR_FILTER_EN)
 723:Generated_Source\PSoC6/CapSense_Filter.c **** /*******************************************************************************
 724:Generated_Source\PSoC6/CapSense_Filter.c **** * Function Name: CapSense_InitializeIIR
 725:Generated_Source\PSoC6/CapSense_Filter.c **** ****************************************************************************//**
 726:Generated_Source\PSoC6/CapSense_Filter.c **** *
 727:Generated_Source\PSoC6/CapSense_Filter.c **** * \brief    Initialize the IIR filter history.
 728:Generated_Source\PSoC6/CapSense_Filter.c **** *
 729:Generated_Source\PSoC6/CapSense_Filter.c **** * \details  Initialize the IIR filter history.
 730:Generated_Source\PSoC6/CapSense_Filter.c **** *
 731:Generated_Source\PSoC6/CapSense_Filter.c **** * \param    widgetId Specifies the ID number of the widget.
 732:Generated_Source\PSoC6/CapSense_Filter.c **** * \param    sensorId Specifies the ID number of the sensor in the widget.
 733:Generated_Source\PSoC6/CapSense_Filter.c **** *
 734:Generated_Source\PSoC6/CapSense_Filter.c **** *******************************************************************************/
 735:Generated_Source\PSoC6/CapSense_Filter.c **** void CapSense_InitializeIIR(uint32 widgetId, uint32 sensorId)
 736:Generated_Source\PSoC6/CapSense_Filter.c **** {
ARM GAS  C:\Users\salaz\AppData\Local\Temp\cctLNP9Y.s 			page 19


 737:Generated_Source\PSoC6/CapSense_Filter.c ****     CapSense_FLASH_WD_STRUCT const *ptrWidget = &CapSense_dsFlash.wdgtArray[widgetId];
 738:Generated_Source\PSoC6/CapSense_Filter.c ****     CapSense_RAM_SNS_STRUCT *ptrSensor = NULL;
 739:Generated_Source\PSoC6/CapSense_Filter.c ****     CapSense_PTR_FILTER_VARIANT ptrFilterHistObj;
 740:Generated_Source\PSoC6/CapSense_Filter.c **** 
 741:Generated_Source\PSoC6/CapSense_Filter.c ****     /* Find pointer to specified sensor object */
 742:Generated_Source\PSoC6/CapSense_Filter.c ****     ptrSensor = ptrWidget->ptr2SnsRam;
 743:Generated_Source\PSoC6/CapSense_Filter.c ****     ptrSensor = &ptrSensor[sensorId];
 744:Generated_Source\PSoC6/CapSense_Filter.c **** 
 745:Generated_Source\PSoC6/CapSense_Filter.c ****     /* Find pointer to specified filter sensor object */
 746:Generated_Source\PSoC6/CapSense_Filter.c ****     ptrFilterHistObj.ptr = ptrWidget->ptr2FltrHistory;
 747:Generated_Source\PSoC6/CapSense_Filter.c **** 
 748:Generated_Source\PSoC6/CapSense_Filter.c ****     if ((CapSense_WD_TYPE_ENUM)ptrWidget->wdgtType != CapSense_WD_PROXIMITY_E)
 749:Generated_Source\PSoC6/CapSense_Filter.c ****     {
 750:Generated_Source\PSoC6/CapSense_Filter.c ****         #if (CapSense_REGULAR_SENSOR_EN)
 751:Generated_Source\PSoC6/CapSense_Filter.c ****             ptrFilterHistObj.ptrRegular = &ptrFilterHistObj.ptrRegular[sensorId];
 752:Generated_Source\PSoC6/CapSense_Filter.c ****         #endif /* (CapSense_REGULAR_SENSOR_EN) */
 753:Generated_Source\PSoC6/CapSense_Filter.c ****     }
 754:Generated_Source\PSoC6/CapSense_Filter.c ****     else
 755:Generated_Source\PSoC6/CapSense_Filter.c ****     {
 756:Generated_Source\PSoC6/CapSense_Filter.c ****         #if (CapSense_PROXIMITY_SENSOR_EN)
 757:Generated_Source\PSoC6/CapSense_Filter.c ****             ptrFilterHistObj.ptrProx = &ptrFilterHistObj.ptrProx[sensorId];
 758:Generated_Source\PSoC6/CapSense_Filter.c ****         #endif /* (CapSense_PROXIMITY_SENSOR_EN) */
 759:Generated_Source\PSoC6/CapSense_Filter.c ****     }
 760:Generated_Source\PSoC6/CapSense_Filter.c **** 
 761:Generated_Source\PSoC6/CapSense_Filter.c ****     CapSense_InitializeIIRInternal(ptrFilterHistObj, ptrSensor, (uint32)ptrWidget->wdgtType);
 762:Generated_Source\PSoC6/CapSense_Filter.c **** }
 763:Generated_Source\PSoC6/CapSense_Filter.c **** 
 764:Generated_Source\PSoC6/CapSense_Filter.c **** 
 765:Generated_Source\PSoC6/CapSense_Filter.c **** /*******************************************************************************
 766:Generated_Source\PSoC6/CapSense_Filter.c **** * Function Name: CapSense_RunIIR
 767:Generated_Source\PSoC6/CapSense_Filter.c **** ****************************************************************************//**
 768:Generated_Source\PSoC6/CapSense_Filter.c **** *
 769:Generated_Source\PSoC6/CapSense_Filter.c **** * \brief    Executes the IIR filter algorithm on a sensor indicated by an input
 770:Generated_Source\PSoC6/CapSense_Filter.c **** *           parameter.
 771:Generated_Source\PSoC6/CapSense_Filter.c **** *
 772:Generated_Source\PSoC6/CapSense_Filter.c **** * \details  Executes the IIR filter algorithm on a sensor indicated by an input
 773:Generated_Source\PSoC6/CapSense_Filter.c **** *           parameter.
 774:Generated_Source\PSoC6/CapSense_Filter.c **** *
 775:Generated_Source\PSoC6/CapSense_Filter.c **** * \param    widgetId Specifies the ID number of the widget.
 776:Generated_Source\PSoC6/CapSense_Filter.c **** * \param    sensorId Specifies the ID number of the sensor in the widget.
 777:Generated_Source\PSoC6/CapSense_Filter.c **** *
 778:Generated_Source\PSoC6/CapSense_Filter.c **** *******************************************************************************/
 779:Generated_Source\PSoC6/CapSense_Filter.c **** void CapSense_RunIIR(uint32 widgetId, uint32 sensorId)
 780:Generated_Source\PSoC6/CapSense_Filter.c **** {
 781:Generated_Source\PSoC6/CapSense_Filter.c ****     CapSense_FLASH_WD_STRUCT const *ptrWidget = &CapSense_dsFlash.wdgtArray[widgetId];
 782:Generated_Source\PSoC6/CapSense_Filter.c ****     CapSense_RAM_SNS_STRUCT *ptrSensor = NULL;
 783:Generated_Source\PSoC6/CapSense_Filter.c ****     CapSense_PTR_FILTER_VARIANT ptrFilterHistObj;
 784:Generated_Source\PSoC6/CapSense_Filter.c **** 
 785:Generated_Source\PSoC6/CapSense_Filter.c ****     /* Find pointer to specified sensor object */
 786:Generated_Source\PSoC6/CapSense_Filter.c ****     ptrSensor = ptrWidget->ptr2SnsRam;
 787:Generated_Source\PSoC6/CapSense_Filter.c ****     ptrSensor = &ptrSensor[sensorId];
 788:Generated_Source\PSoC6/CapSense_Filter.c **** 
 789:Generated_Source\PSoC6/CapSense_Filter.c ****     /* Find pointer to specified filter sensor object */
 790:Generated_Source\PSoC6/CapSense_Filter.c ****     ptrFilterHistObj.ptr = ptrWidget->ptr2FltrHistory;
 791:Generated_Source\PSoC6/CapSense_Filter.c **** 
 792:Generated_Source\PSoC6/CapSense_Filter.c ****     if ((CapSense_WD_TYPE_ENUM)ptrWidget->wdgtType != CapSense_WD_PROXIMITY_E)
 793:Generated_Source\PSoC6/CapSense_Filter.c ****     {
ARM GAS  C:\Users\salaz\AppData\Local\Temp\cctLNP9Y.s 			page 20


 794:Generated_Source\PSoC6/CapSense_Filter.c ****         #if (CapSense_REGULAR_SENSOR_EN)
 795:Generated_Source\PSoC6/CapSense_Filter.c ****             ptrFilterHistObj.ptrRegular = &ptrFilterHistObj.ptrRegular[sensorId];
 796:Generated_Source\PSoC6/CapSense_Filter.c ****         #endif /* (CapSense_REGULAR_SENSOR_EN) */
 797:Generated_Source\PSoC6/CapSense_Filter.c ****     }
 798:Generated_Source\PSoC6/CapSense_Filter.c ****     else
 799:Generated_Source\PSoC6/CapSense_Filter.c ****     {
 800:Generated_Source\PSoC6/CapSense_Filter.c ****         #if (CapSense_PROXIMITY_SENSOR_EN)
 801:Generated_Source\PSoC6/CapSense_Filter.c ****             ptrFilterHistObj.ptrProx = &ptrFilterHistObj.ptrProx[sensorId];
 802:Generated_Source\PSoC6/CapSense_Filter.c ****         #endif /* (CapSense_PROXIMITY_SENSOR_EN) */
 803:Generated_Source\PSoC6/CapSense_Filter.c ****     }
 804:Generated_Source\PSoC6/CapSense_Filter.c **** 
 805:Generated_Source\PSoC6/CapSense_Filter.c ****     CapSense_RunIIRInternal(ptrFilterHistObj, ptrSensor, (uint32)ptrWidget->wdgtType);
 806:Generated_Source\PSoC6/CapSense_Filter.c **** }
 807:Generated_Source\PSoC6/CapSense_Filter.c **** 
 808:Generated_Source\PSoC6/CapSense_Filter.c **** /*******************************************************************************
 809:Generated_Source\PSoC6/CapSense_Filter.c **** * Function Name: CapSense_InitializeIIRInternal
 810:Generated_Source\PSoC6/CapSense_Filter.c **** ****************************************************************************//**
 811:Generated_Source\PSoC6/CapSense_Filter.c **** *
 812:Generated_Source\PSoC6/CapSense_Filter.c **** * \brief    Initializes the IIR filter history.
 813:Generated_Source\PSoC6/CapSense_Filter.c **** *
 814:Generated_Source\PSoC6/CapSense_Filter.c **** * \details  Initializes the IIR filter history.
 815:Generated_Source\PSoC6/CapSense_Filter.c **** *
 816:Generated_Source\PSoC6/CapSense_Filter.c **** * \param    ptrFilterHistObj The pointer to the filter RAM object of the sensor.
 817:Generated_Source\PSoC6/CapSense_Filter.c **** * \param    ptrSensorObj     The pointer to the sensor RAM object of the sensor.
 818:Generated_Source\PSoC6/CapSense_Filter.c **** * \param    wdType           Specifies the type of a widget.
 819:Generated_Source\PSoC6/CapSense_Filter.c **** *
 820:Generated_Source\PSoC6/CapSense_Filter.c **** *******************************************************************************/
 821:Generated_Source\PSoC6/CapSense_Filter.c **** void CapSense_InitializeIIRInternal(CapSense_PTR_FILTER_VARIANT ptrFilterHistObj,
 822:Generated_Source\PSoC6/CapSense_Filter.c ****                                             CapSense_RAM_SNS_STRUCT *ptrSensorObj, uint32 wdType)
 823:Generated_Source\PSoC6/CapSense_Filter.c **** {
 267              		.loc 1 823 0
 268              		.cfi_startproc
 269              		@ args = 0, pretend = 0, frame = 0
 270              		@ frame_needed = 0, uses_anonymous_args = 0
 271              	.LVL35:
 272 0000 70B5     		push	{r4, r5, r6, lr}
 273              		.cfi_def_cfa_offset 16
 274              		.cfi_offset 4, -16
 275              		.cfi_offset 5, -12
 276              		.cfi_offset 6, -8
 277              		.cfi_offset 14, -4
 278              	.LVL36:
 824:Generated_Source\PSoC6/CapSense_Filter.c ****     uint32 freqChannel;
 825:Generated_Source\PSoC6/CapSense_Filter.c **** 
 826:Generated_Source\PSoC6/CapSense_Filter.c ****     for(freqChannel = CapSense_NUM_SCAN_FREQS; freqChannel-- > 0u;)
 279              		.loc 1 826 0
 280 0002 0123     		movs	r3, #1
 281 0004 09E0     		b	.L18
 282              	.LVL37:
 283              	.L20:
 827:Generated_Source\PSoC6/CapSense_Filter.c ****     {
 828:Generated_Source\PSoC6/CapSense_Filter.c ****         if ((CapSense_WD_TYPE_ENUM)wdType != CapSense_WD_PROXIMITY_E)
 284              		.loc 1 828 0
 285 0006 FF23     		movs	r3, #255
 286 0008 1340     		ands	r3, r2
 287 000a 062B     		cmp	r3, #6
 288 000c 04D1     		bne	.L19
ARM GAS  C:\Users\salaz\AppData\Local\Temp\cctLNP9Y.s 			page 21


 829:Generated_Source\PSoC6/CapSense_Filter.c ****         {
 830:Generated_Source\PSoC6/CapSense_Filter.c ****             #if (CapSense_REGULAR_SENSOR_EN && CapSense_REGULAR_RC_IIR_FILTER_EN)
 831:Generated_Source\PSoC6/CapSense_Filter.c ****                 #if (CapSense_REGULAR_IIR_RC_TYPE == CapSense_IIR_FILTER_PERFORMANCE)
 832:Generated_Source\PSoC6/CapSense_Filter.c ****                     ptrFilterHistObj.ptrRegular->regularChannel[freqChannel].iirHistory = ptrSensor
 833:Generated_Source\PSoC6/CapSense_Filter.c ****                     ptrFilterHistObj.ptrRegular->regularChannel[freqChannel].iirHistoryLow = 0u;
 834:Generated_Source\PSoC6/CapSense_Filter.c ****                 #else
 835:Generated_Source\PSoC6/CapSense_Filter.c ****                     ptrFilterHistObj.ptrRegular->regularChannel[freqChannel].iirHistory = ptrSensor
 836:Generated_Source\PSoC6/CapSense_Filter.c ****                 #endif /* (CapSense_REGULAR_IIR_RC_TYPE == CapSense_IIR_FILTER_PERFORMANCE) */
 837:Generated_Source\PSoC6/CapSense_Filter.c ****             #endif /* (CapSense_REGULAR_SENSOR_EN) */
 838:Generated_Source\PSoC6/CapSense_Filter.c ****         }
 839:Generated_Source\PSoC6/CapSense_Filter.c ****         else
 840:Generated_Source\PSoC6/CapSense_Filter.c ****         {
 841:Generated_Source\PSoC6/CapSense_Filter.c ****             #if (CapSense_PROXIMITY_SENSOR_EN && CapSense_PROX_RC_IIR_FILTER_EN)
 842:Generated_Source\PSoC6/CapSense_Filter.c ****                 #if (CapSense_PROX_IIR_RC_TYPE == CapSense_IIR_FILTER_PERFORMANCE)
 843:Generated_Source\PSoC6/CapSense_Filter.c ****                     ptrFilterHistObj.ptrProx->proxChannel[freqChannel].iirHistory = ptrSensorObj->r
 844:Generated_Source\PSoC6/CapSense_Filter.c ****                     ptrFilterHistObj.ptrProx->proxChannel[freqChannel].iirHistoryLow = 0u;
 845:Generated_Source\PSoC6/CapSense_Filter.c ****                 #else
 846:Generated_Source\PSoC6/CapSense_Filter.c ****                     ptrFilterHistObj.ptrProx->proxChannel[freqChannel].iirHistory = ptrSensorObj->r
 289              		.loc 1 846 0
 290 000e 6300     		lsls	r3, r4, #1
 291 0010 5E5A     		ldrh	r6, [r3, r1]
 292 0012 1B19     		adds	r3, r3, r4
 293 0014 9D00     		lsls	r5, r3, #2
 294 0016 2E52     		strh	r6, [r5, r0]
 295              	.L19:
 823:Generated_Source\PSoC6/CapSense_Filter.c ****     uint32 freqChannel;
 296              		.loc 1 823 0 discriminator 1
 297 0018 2300     		movs	r3, r4
 298              	.LVL38:
 299              	.L18:
 826:Generated_Source\PSoC6/CapSense_Filter.c ****     {
 300              		.loc 1 826 0 discriminator 1
 301 001a 5C1E     		subs	r4, r3, #1
 302              	.LVL39:
 303 001c 002B     		cmp	r3, #0
 304 001e F2D1     		bne	.L20
 847:Generated_Source\PSoC6/CapSense_Filter.c ****                 #endif /* (CapSense_PROX_IIR_RC_TYPE == CapSense_IIR_FILTER_PERFORMANCE) */
 848:Generated_Source\PSoC6/CapSense_Filter.c ****             #endif /* (CapSense_PROX_SENSOR_EN) */
 849:Generated_Source\PSoC6/CapSense_Filter.c ****         }
 850:Generated_Source\PSoC6/CapSense_Filter.c ****     }
 851:Generated_Source\PSoC6/CapSense_Filter.c **** }
 305              		.loc 1 851 0
 306              		@ sp needed
 307              	.LVL40:
 308 0020 70BD     		pop	{r4, r5, r6, pc}
 309              		.cfi_endproc
 310              	.LFE50:
 311              		.size	CapSense_InitializeIIRInternal, .-CapSense_InitializeIIRInternal
 312 0022 C046     		.section	.text.CapSense_InitializeIIR,"ax",%progbits
 313              		.align	2
 314              		.global	CapSense_InitializeIIR
 315              		.code	16
 316              		.thumb_func
 317              		.type	CapSense_InitializeIIR, %function
 318              	CapSense_InitializeIIR:
 319              	.LFB48:
 736:Generated_Source\PSoC6/CapSense_Filter.c ****     CapSense_FLASH_WD_STRUCT const *ptrWidget = &CapSense_dsFlash.wdgtArray[widgetId];
ARM GAS  C:\Users\salaz\AppData\Local\Temp\cctLNP9Y.s 			page 22


 320              		.loc 1 736 0
 321              		.cfi_startproc
 322              		@ args = 0, pretend = 0, frame = 0
 323              		@ frame_needed = 0, uses_anonymous_args = 0
 324              	.LVL41:
 325 0000 70B5     		push	{r4, r5, r6, lr}
 326              		.cfi_def_cfa_offset 16
 327              		.cfi_offset 4, -16
 328              		.cfi_offset 5, -12
 329              		.cfi_offset 6, -8
 330              		.cfi_offset 14, -4
 331 0002 0C00     		movs	r4, r1
 332              	.LVL42:
 742:Generated_Source\PSoC6/CapSense_Filter.c ****     ptrSensor = &ptrSensor[sensorId];
 333              		.loc 1 742 0
 334 0004 4001     		lsls	r0, r0, #5
 335              	.LVL43:
 336 0006 094B     		ldr	r3, .L23
 337 0008 1B18     		adds	r3, r3, r0
 338              	.LVL44:
 743:Generated_Source\PSoC6/CapSense_Filter.c **** 
 339              		.loc 1 743 0
 340 000a 8800     		lsls	r0, r1, #2
 341 000c 4018     		adds	r0, r0, r1
 342 000e 4200     		lsls	r2, r0, #1
 343 0010 9968     		ldr	r1, [r3, #8]
 344              	.LVL45:
 345 0012 8918     		adds	r1, r1, r2
 346              	.LVL46:
 746:Generated_Source\PSoC6/CapSense_Filter.c **** 
 347              		.loc 1 746 0
 348 0014 DD68     		ldr	r5, [r3, #12]
 349 0016 2800     		movs	r0, r5
 350              	.LVL47:
 748:Generated_Source\PSoC6/CapSense_Filter.c ****     {
 351              		.loc 1 748 0
 352 0018 9A7E     		ldrb	r2, [r3, #26]
 353 001a 062A     		cmp	r2, #6
 354 001c 03D1     		bne	.L22
 757:Generated_Source\PSoC6/CapSense_Filter.c ****         #endif /* (CapSense_PROXIMITY_SENSOR_EN) */
 355              		.loc 1 757 0
 356 001e 6300     		lsls	r3, r4, #1
 357              	.LVL48:
 358 0020 1C19     		adds	r4, r3, r4
 359              	.LVL49:
 360 0022 A000     		lsls	r0, r4, #2
 361 0024 2818     		adds	r0, r5, r0
 362              	.L22:
 761:Generated_Source\PSoC6/CapSense_Filter.c **** }
 363              		.loc 1 761 0
 364 0026 FFF7FEFF 		bl	CapSense_InitializeIIRInternal
 365              	.LVL50:
 762:Generated_Source\PSoC6/CapSense_Filter.c **** 
 366              		.loc 1 762 0
 367              		@ sp needed
 368 002a 70BD     		pop	{r4, r5, r6, pc}
 369              	.L24:
ARM GAS  C:\Users\salaz\AppData\Local\Temp\cctLNP9Y.s 			page 23


 370              		.align	2
 371              	.L23:
 372 002c 00000000 		.word	CapSense_dsFlash
 373              		.cfi_endproc
 374              	.LFE48:
 375              		.size	CapSense_InitializeIIR, .-CapSense_InitializeIIR
 376              		.section	.text.CapSense_InitializeMedianInternal,"ax",%progbits
 377              		.align	2
 378              		.global	CapSense_InitializeMedianInternal
 379              		.code	16
 380              		.thumb_func
 381              		.type	CapSense_InitializeMedianInternal, %function
 382              	CapSense_InitializeMedianInternal:
 383              	.LFB54:
 852:Generated_Source\PSoC6/CapSense_Filter.c **** 
 853:Generated_Source\PSoC6/CapSense_Filter.c **** 
 854:Generated_Source\PSoC6/CapSense_Filter.c **** /*******************************************************************************
 855:Generated_Source\PSoC6/CapSense_Filter.c **** * Function Name: CapSense_RunIIRInternal
 856:Generated_Source\PSoC6/CapSense_Filter.c **** ****************************************************************************//**
 857:Generated_Source\PSoC6/CapSense_Filter.c **** *
 858:Generated_Source\PSoC6/CapSense_Filter.c **** * \brief    Run the IIR filter.
 859:Generated_Source\PSoC6/CapSense_Filter.c **** *
 860:Generated_Source\PSoC6/CapSense_Filter.c **** * \details  Run the IIR filter.
 861:Generated_Source\PSoC6/CapSense_Filter.c **** *
 862:Generated_Source\PSoC6/CapSense_Filter.c **** * \param    ptrFilterHistObj The pointer to the filter RAM object of the sensor.
 863:Generated_Source\PSoC6/CapSense_Filter.c **** * \param    ptrSensorObj     The pointer to the sensor RAM object of the sensor.
 864:Generated_Source\PSoC6/CapSense_Filter.c **** * \param    wdType           Specifies the type of a widget.
 865:Generated_Source\PSoC6/CapSense_Filter.c **** *
 866:Generated_Source\PSoC6/CapSense_Filter.c **** *******************************************************************************/
 867:Generated_Source\PSoC6/CapSense_Filter.c **** void CapSense_RunIIRInternal(CapSense_PTR_FILTER_VARIANT ptrFilterHistObj,
 868:Generated_Source\PSoC6/CapSense_Filter.c ****                                      CapSense_RAM_SNS_STRUCT *ptrSensorObj, uint32 wdType)
 869:Generated_Source\PSoC6/CapSense_Filter.c **** {
 870:Generated_Source\PSoC6/CapSense_Filter.c ****     uint32 freqChannel;
 871:Generated_Source\PSoC6/CapSense_Filter.c ****     uint32 temp;
 872:Generated_Source\PSoC6/CapSense_Filter.c **** 
 873:Generated_Source\PSoC6/CapSense_Filter.c ****     for(freqChannel = CapSense_NUM_SCAN_FREQS; freqChannel-- > 0u;)
 874:Generated_Source\PSoC6/CapSense_Filter.c ****     {
 875:Generated_Source\PSoC6/CapSense_Filter.c ****         if ((CapSense_WD_TYPE_ENUM)wdType != CapSense_WD_PROXIMITY_E)
 876:Generated_Source\PSoC6/CapSense_Filter.c ****         {
 877:Generated_Source\PSoC6/CapSense_Filter.c ****             #if (CapSense_REGULAR_SENSOR_EN && CapSense_REGULAR_RC_IIR_FILTER_EN)
 878:Generated_Source\PSoC6/CapSense_Filter.c ****                 #if (CapSense_REGULAR_IIR_RC_TYPE == CapSense_IIR_FILTER_PERFORMANCE)
 879:Generated_Source\PSoC6/CapSense_Filter.c ****                     temp = ((uint32)ptrFilterHistObj.ptrRegular->regularChannel[freqChannel].iirHis
 880:Generated_Source\PSoC6/CapSense_Filter.c ****                     temp |= ptrFilterHistObj.ptrRegular->regularChannel[freqChannel].iirHistoryLow;
 881:Generated_Source\PSoC6/CapSense_Filter.c ****                     temp = CapSense_FtIIR1stOrder((uint32)ptrSensorObj->raw[freqChannel],
 882:Generated_Source\PSoC6/CapSense_Filter.c ****                                                         temp,
 883:Generated_Source\PSoC6/CapSense_Filter.c ****                                                         CapSense_REGULAR_IIR_RC_N,
 884:Generated_Source\PSoC6/CapSense_Filter.c ****                                                         CapSense_REGULAR_IIR_RC_SHIFT);
 885:Generated_Source\PSoC6/CapSense_Filter.c ****                     ptrFilterHistObj.ptrRegular->regularChannel[freqChannel].iirHistory = CY_LO16(t
 886:Generated_Source\PSoC6/CapSense_Filter.c ****                     ptrFilterHistObj.ptrRegular->regularChannel[freqChannel].iirHistoryLow = CY_LO8
 887:Generated_Source\PSoC6/CapSense_Filter.c ****                     ptrSensorObj->raw[freqChannel] = CY_LO16(temp >>CapSense_REGULAR_IIR_RC_SHIFT);
 888:Generated_Source\PSoC6/CapSense_Filter.c ****                 #else
 889:Generated_Source\PSoC6/CapSense_Filter.c ****                     temp =CapSense_FtIIR1stOrder((uint32)ptrSensorObj->raw[freqChannel],
 890:Generated_Source\PSoC6/CapSense_Filter.c ****                                                         (uint32)ptrFilterHistObj.ptrRegular->regula
 891:Generated_Source\PSoC6/CapSense_Filter.c ****                                                         CapSense_REGULAR_IIR_RC_N,
 892:Generated_Source\PSoC6/CapSense_Filter.c ****                                                         CapSense_REGULAR_IIR_RC_SHIFT);
 893:Generated_Source\PSoC6/CapSense_Filter.c ****                     ptrFilterHistObj.ptrRegular->regularChannel[freqChannel].iirHistory = CY_LO16(t
 894:Generated_Source\PSoC6/CapSense_Filter.c ****                     ptrSensorObj->raw[freqChannel] = CY_LO16(temp >>CapSense_REGULAR_IIR_RC_SHIFT);
ARM GAS  C:\Users\salaz\AppData\Local\Temp\cctLNP9Y.s 			page 24


 895:Generated_Source\PSoC6/CapSense_Filter.c ****                 #endif /* (CapSense_REGULAR_IIR_RC_TYPE == CapSense_IIR_FILTER_PERFORMANCE) */
 896:Generated_Source\PSoC6/CapSense_Filter.c ****             #endif /* (CapSense_REGULAR_SENSOR_EN) */
 897:Generated_Source\PSoC6/CapSense_Filter.c ****         }
 898:Generated_Source\PSoC6/CapSense_Filter.c ****         else
 899:Generated_Source\PSoC6/CapSense_Filter.c ****         {
 900:Generated_Source\PSoC6/CapSense_Filter.c ****             #if (CapSense_PROXIMITY_SENSOR_EN && CapSense_PROX_RC_IIR_FILTER_EN)
 901:Generated_Source\PSoC6/CapSense_Filter.c ****                 #if (CapSense_PROX_IIR_RC_TYPE == CapSense_IIR_FILTER_PERFORMANCE)
 902:Generated_Source\PSoC6/CapSense_Filter.c ****                     temp =  ptrFilterHistObj.ptrProx->proxChannel[freqChannel].iirHistory << CapSen
 903:Generated_Source\PSoC6/CapSense_Filter.c ****                     temp |= ptrFilterHistObj.ptrProx->proxChannel[freqChannel].iirHistoryLow;
 904:Generated_Source\PSoC6/CapSense_Filter.c ****                     temp =CapSense_FtIIR1stOrder((uint32)ptrSensorObj->raw[freqChannel],
 905:Generated_Source\PSoC6/CapSense_Filter.c ****                                                         temp,
 906:Generated_Source\PSoC6/CapSense_Filter.c ****                                                         CapSense_PROX_IIR_RC_N,
 907:Generated_Source\PSoC6/CapSense_Filter.c ****                                                         CapSense_PROX_IIR_RC_SHIFT);
 908:Generated_Source\PSoC6/CapSense_Filter.c ****                     ptrFilterHistObj.ptrProx->proxChannel[freqChannel].iirHistory = CY_LO16(temp >>
 909:Generated_Source\PSoC6/CapSense_Filter.c ****                     ptrFilterHistObj.ptrProx->proxChannel[freqChannel].iirHistoryLow = CY_LO8(temp)
 910:Generated_Source\PSoC6/CapSense_Filter.c ****                     ptrSensorObj->raw[freqChannel] = CY_LO16(temp >>CapSense_PROX_IIR_RC_SHIFT);
 911:Generated_Source\PSoC6/CapSense_Filter.c ****                 #else
 912:Generated_Source\PSoC6/CapSense_Filter.c ****                     temp =CapSense_FtIIR1stOrder((uint32)ptrSensorObj->raw[freqChannel],
 913:Generated_Source\PSoC6/CapSense_Filter.c ****                                                         (uint32)ptrFilterHistObj.ptrProx->proxChann
 914:Generated_Source\PSoC6/CapSense_Filter.c ****                                                         CapSense_PROX_IIR_RC_N,
 915:Generated_Source\PSoC6/CapSense_Filter.c ****                                                         CapSense_PROX_IIR_RC_SHIFT);
 916:Generated_Source\PSoC6/CapSense_Filter.c ****                     ptrFilterHistObj.ptrProx->proxChannel[freqChannel].iirHistory = CY_LO16(temp);
 917:Generated_Source\PSoC6/CapSense_Filter.c ****                     ptrSensorObj->raw[freqChannel] = CY_LO16(temp >>CapSense_PROX_IIR_RC_SHIFT);
 918:Generated_Source\PSoC6/CapSense_Filter.c ****                 #endif /* (CapSense_PROX_IIR_RC_TYPE == CapSense_IIR_FILTER_PERFORMANCE) */
 919:Generated_Source\PSoC6/CapSense_Filter.c ****             #endif /* (CapSense_PROX_SENSOR_EN) */
 920:Generated_Source\PSoC6/CapSense_Filter.c ****         }
 921:Generated_Source\PSoC6/CapSense_Filter.c ****     }
 922:Generated_Source\PSoC6/CapSense_Filter.c **** }
 923:Generated_Source\PSoC6/CapSense_Filter.c **** #endif /* #if (CapSense_REGULAR_RC_IIR_FILTER_EN || CapSense_PROX_RC_IIR_FILTER_EN) */
 924:Generated_Source\PSoC6/CapSense_Filter.c **** 
 925:Generated_Source\PSoC6/CapSense_Filter.c **** 
 926:Generated_Source\PSoC6/CapSense_Filter.c **** #if (CapSense_REGULAR_RC_MEDIAN_FILTER_EN || CapSense_PROX_RC_MEDIAN_FILTER_EN)
 927:Generated_Source\PSoC6/CapSense_Filter.c **** 
 928:Generated_Source\PSoC6/CapSense_Filter.c **** /*******************************************************************************
 929:Generated_Source\PSoC6/CapSense_Filter.c **** * Function Name: CapSense_InitializeMedian
 930:Generated_Source\PSoC6/CapSense_Filter.c **** ****************************************************************************//**
 931:Generated_Source\PSoC6/CapSense_Filter.c **** *
 932:Generated_Source\PSoC6/CapSense_Filter.c **** * \brief    Initializes the Median filter history.
 933:Generated_Source\PSoC6/CapSense_Filter.c **** *
 934:Generated_Source\PSoC6/CapSense_Filter.c **** * \details  Initializes the Median filter history.
 935:Generated_Source\PSoC6/CapSense_Filter.c **** *
 936:Generated_Source\PSoC6/CapSense_Filter.c **** * \param    widgetId Specifies the ID number of the widget.
 937:Generated_Source\PSoC6/CapSense_Filter.c **** * \param    sensorId Specifies the ID number of the sensor in the widget.
 938:Generated_Source\PSoC6/CapSense_Filter.c **** *
 939:Generated_Source\PSoC6/CapSense_Filter.c **** *******************************************************************************/
 940:Generated_Source\PSoC6/CapSense_Filter.c **** void CapSense_InitializeMedian(uint32 widgetId, uint32 sensorId)
 941:Generated_Source\PSoC6/CapSense_Filter.c **** {
 942:Generated_Source\PSoC6/CapSense_Filter.c ****     CapSense_FLASH_WD_STRUCT const *ptrWidget = &CapSense_dsFlash.wdgtArray[widgetId];
 943:Generated_Source\PSoC6/CapSense_Filter.c ****     CapSense_RAM_SNS_STRUCT *ptrSensor = NULL;
 944:Generated_Source\PSoC6/CapSense_Filter.c ****     CapSense_PTR_FILTER_VARIANT ptrFilterHistObj;
 945:Generated_Source\PSoC6/CapSense_Filter.c **** 
 946:Generated_Source\PSoC6/CapSense_Filter.c ****     /* Find pointer to specified sensor object */
 947:Generated_Source\PSoC6/CapSense_Filter.c ****     ptrSensor = ptrWidget->ptr2SnsRam;
 948:Generated_Source\PSoC6/CapSense_Filter.c ****     ptrSensor = &ptrSensor[sensorId];
 949:Generated_Source\PSoC6/CapSense_Filter.c **** 
 950:Generated_Source\PSoC6/CapSense_Filter.c ****     /* Find pointer to specified filter sensor object */
 951:Generated_Source\PSoC6/CapSense_Filter.c ****     ptrFilterHistObj.ptr = ptrWidget->ptr2FltrHistory;
ARM GAS  C:\Users\salaz\AppData\Local\Temp\cctLNP9Y.s 			page 25


 952:Generated_Source\PSoC6/CapSense_Filter.c **** 
 953:Generated_Source\PSoC6/CapSense_Filter.c ****     if ((CapSense_WD_TYPE_ENUM)ptrWidget->wdgtType != CapSense_WD_PROXIMITY_E)
 954:Generated_Source\PSoC6/CapSense_Filter.c ****     {
 955:Generated_Source\PSoC6/CapSense_Filter.c ****         #if (CapSense_REGULAR_SENSOR_EN)
 956:Generated_Source\PSoC6/CapSense_Filter.c ****             ptrFilterHistObj.ptrRegular = &ptrFilterHistObj.ptrRegular[sensorId];
 957:Generated_Source\PSoC6/CapSense_Filter.c ****         #endif /* (CapSense_REGULAR_SENSOR_EN) */
 958:Generated_Source\PSoC6/CapSense_Filter.c ****     }
 959:Generated_Source\PSoC6/CapSense_Filter.c ****     else
 960:Generated_Source\PSoC6/CapSense_Filter.c ****     {
 961:Generated_Source\PSoC6/CapSense_Filter.c ****         #if (CapSense_PROXIMITY_SENSOR_EN)
 962:Generated_Source\PSoC6/CapSense_Filter.c ****             ptrFilterHistObj.ptrProx = &ptrFilterHistObj.ptrProx[sensorId];
 963:Generated_Source\PSoC6/CapSense_Filter.c ****         #endif /* (CapSense_PROXIMITY_SENSOR_EN) */
 964:Generated_Source\PSoC6/CapSense_Filter.c ****     }
 965:Generated_Source\PSoC6/CapSense_Filter.c **** 
 966:Generated_Source\PSoC6/CapSense_Filter.c ****     CapSense_InitializeMedianInternal(ptrFilterHistObj, ptrSensor, (uint32)ptrWidget->wdgtType);
 967:Generated_Source\PSoC6/CapSense_Filter.c **** }
 968:Generated_Source\PSoC6/CapSense_Filter.c **** 
 969:Generated_Source\PSoC6/CapSense_Filter.c **** 
 970:Generated_Source\PSoC6/CapSense_Filter.c **** /*******************************************************************************
 971:Generated_Source\PSoC6/CapSense_Filter.c **** * Function Name: CapSense_RunMedian
 972:Generated_Source\PSoC6/CapSense_Filter.c **** ****************************************************************************//**
 973:Generated_Source\PSoC6/CapSense_Filter.c **** *
 974:Generated_Source\PSoC6/CapSense_Filter.c **** * \brief    Executes the Median filter algorithm on a sensor indicated by an input
 975:Generated_Source\PSoC6/CapSense_Filter.c **** *           parameter.
 976:Generated_Source\PSoC6/CapSense_Filter.c **** *
 977:Generated_Source\PSoC6/CapSense_Filter.c **** * \details  Executes the Median filter algorithm on a sensor indicated by an input
 978:Generated_Source\PSoC6/CapSense_Filter.c **** *           parameter.
 979:Generated_Source\PSoC6/CapSense_Filter.c **** *
 980:Generated_Source\PSoC6/CapSense_Filter.c **** * \param    widgetId Specifies the ID number of the widget.
 981:Generated_Source\PSoC6/CapSense_Filter.c **** * \param    sensorId Specifies the ID number of the sensor in the widget.
 982:Generated_Source\PSoC6/CapSense_Filter.c **** *
 983:Generated_Source\PSoC6/CapSense_Filter.c **** *******************************************************************************/
 984:Generated_Source\PSoC6/CapSense_Filter.c **** void CapSense_RunMedian(uint32 widgetId, uint32 sensorId)
 985:Generated_Source\PSoC6/CapSense_Filter.c **** {
 986:Generated_Source\PSoC6/CapSense_Filter.c ****     CapSense_FLASH_WD_STRUCT const *ptrWidget = &CapSense_dsFlash.wdgtArray[widgetId];
 987:Generated_Source\PSoC6/CapSense_Filter.c ****     CapSense_RAM_SNS_STRUCT *ptrSensor = NULL;
 988:Generated_Source\PSoC6/CapSense_Filter.c ****     CapSense_PTR_FILTER_VARIANT ptrFilterHistObj;
 989:Generated_Source\PSoC6/CapSense_Filter.c **** 
 990:Generated_Source\PSoC6/CapSense_Filter.c ****     /* Find pointer to specified sensor object */
 991:Generated_Source\PSoC6/CapSense_Filter.c ****     ptrSensor = ptrWidget->ptr2SnsRam;
 992:Generated_Source\PSoC6/CapSense_Filter.c ****     ptrSensor = &ptrSensor[sensorId];
 993:Generated_Source\PSoC6/CapSense_Filter.c **** 
 994:Generated_Source\PSoC6/CapSense_Filter.c ****     /* Find pointer to specified filter sensor object */
 995:Generated_Source\PSoC6/CapSense_Filter.c ****     ptrFilterHistObj.ptr = ptrWidget->ptr2FltrHistory;
 996:Generated_Source\PSoC6/CapSense_Filter.c **** 
 997:Generated_Source\PSoC6/CapSense_Filter.c ****     if ((CapSense_WD_TYPE_ENUM)ptrWidget->wdgtType != CapSense_WD_PROXIMITY_E)
 998:Generated_Source\PSoC6/CapSense_Filter.c ****     {
 999:Generated_Source\PSoC6/CapSense_Filter.c ****         #if (CapSense_REGULAR_SENSOR_EN)
1000:Generated_Source\PSoC6/CapSense_Filter.c ****             ptrFilterHistObj.ptrRegular = &ptrFilterHistObj.ptrRegular[sensorId];
1001:Generated_Source\PSoC6/CapSense_Filter.c ****         #endif /* (CapSense_REGULAR_SENSOR_EN) */
1002:Generated_Source\PSoC6/CapSense_Filter.c ****     }
1003:Generated_Source\PSoC6/CapSense_Filter.c ****     else
1004:Generated_Source\PSoC6/CapSense_Filter.c ****     {
1005:Generated_Source\PSoC6/CapSense_Filter.c ****         #if (CapSense_PROXIMITY_SENSOR_EN)
1006:Generated_Source\PSoC6/CapSense_Filter.c ****             ptrFilterHistObj.ptrProx = &ptrFilterHistObj.ptrProx[sensorId];
1007:Generated_Source\PSoC6/CapSense_Filter.c ****         #endif /* (CapSense_PROXIMITY_SENSOR_EN) */
1008:Generated_Source\PSoC6/CapSense_Filter.c ****     }
ARM GAS  C:\Users\salaz\AppData\Local\Temp\cctLNP9Y.s 			page 26


1009:Generated_Source\PSoC6/CapSense_Filter.c **** 
1010:Generated_Source\PSoC6/CapSense_Filter.c ****     CapSense_RunMedianInternal(ptrFilterHistObj, ptrSensor, (uint32)ptrWidget->wdgtType);
1011:Generated_Source\PSoC6/CapSense_Filter.c **** }
1012:Generated_Source\PSoC6/CapSense_Filter.c **** 
1013:Generated_Source\PSoC6/CapSense_Filter.c **** 
1014:Generated_Source\PSoC6/CapSense_Filter.c **** /*******************************************************************************
1015:Generated_Source\PSoC6/CapSense_Filter.c **** * Function Name: CapSense_InitializeMedianInternal
1016:Generated_Source\PSoC6/CapSense_Filter.c **** ****************************************************************************//**
1017:Generated_Source\PSoC6/CapSense_Filter.c **** *
1018:Generated_Source\PSoC6/CapSense_Filter.c **** * \brief    Initializes the Median filter.
1019:Generated_Source\PSoC6/CapSense_Filter.c **** *
1020:Generated_Source\PSoC6/CapSense_Filter.c **** * \details  Initializes the Median filter.
1021:Generated_Source\PSoC6/CapSense_Filter.c **** *
1022:Generated_Source\PSoC6/CapSense_Filter.c **** * \param    ptrFilterHistObj The pointer to the filter RAM object of the sensor.
1023:Generated_Source\PSoC6/CapSense_Filter.c **** * \param    ptrSensorObj     The pointer to the sensor RAM object of the sensor.
1024:Generated_Source\PSoC6/CapSense_Filter.c **** * \param    wdType           Specifies the type of a widget.
1025:Generated_Source\PSoC6/CapSense_Filter.c **** *
1026:Generated_Source\PSoC6/CapSense_Filter.c **** *******************************************************************************/
1027:Generated_Source\PSoC6/CapSense_Filter.c **** void CapSense_InitializeMedianInternal(CapSense_PTR_FILTER_VARIANT ptrFilterHistObj,
1028:Generated_Source\PSoC6/CapSense_Filter.c ****                                                CapSense_RAM_SNS_STRUCT *ptrSensorObj, uint32 wdType
1029:Generated_Source\PSoC6/CapSense_Filter.c **** {
 384              		.loc 1 1029 0
 385              		.cfi_startproc
 386              		@ args = 0, pretend = 0, frame = 0
 387              		@ frame_needed = 0, uses_anonymous_args = 0
 388              	.LVL51:
 389 0000 F0B5     		push	{r4, r5, r6, r7, lr}
 390              		.cfi_def_cfa_offset 20
 391              		.cfi_offset 4, -20
 392              		.cfi_offset 5, -16
 393              		.cfi_offset 6, -12
 394              		.cfi_offset 7, -8
 395              		.cfi_offset 14, -4
 396              	.LVL52:
1030:Generated_Source\PSoC6/CapSense_Filter.c ****     uint32 freqChannel;
1031:Generated_Source\PSoC6/CapSense_Filter.c **** 
1032:Generated_Source\PSoC6/CapSense_Filter.c ****     for(freqChannel = CapSense_NUM_SCAN_FREQS; freqChannel-- > 0u;)
 397              		.loc 1 1032 0
 398 0002 0123     		movs	r3, #1
 399 0004 0CE0     		b	.L26
 400              	.LVL53:
 401              	.L28:
1033:Generated_Source\PSoC6/CapSense_Filter.c ****     {
1034:Generated_Source\PSoC6/CapSense_Filter.c ****         if ((CapSense_WD_TYPE_ENUM)wdType != CapSense_WD_PROXIMITY_E)
 402              		.loc 1 1034 0
 403 0006 FF23     		movs	r3, #255
 404 0008 1340     		ands	r3, r2
 405 000a 062B     		cmp	r3, #6
 406 000c 07D1     		bne	.L27
1035:Generated_Source\PSoC6/CapSense_Filter.c ****         {
1036:Generated_Source\PSoC6/CapSense_Filter.c ****             #if (CapSense_REGULAR_SENSOR_EN && CapSense_REGULAR_RC_MEDIAN_FILTER_EN)
1037:Generated_Source\PSoC6/CapSense_Filter.c ****                 ptrFilterHistObj.ptrRegular->regularChannel[freqChannel].medHistory[0u] = ptrSensor
1038:Generated_Source\PSoC6/CapSense_Filter.c ****                 ptrFilterHistObj.ptrRegular->regularChannel[freqChannel].medHistory[1u] = ptrSensor
1039:Generated_Source\PSoC6/CapSense_Filter.c ****             #endif /* (CapSense_REGULAR_SENSOR_EN) */
1040:Generated_Source\PSoC6/CapSense_Filter.c ****         }
1041:Generated_Source\PSoC6/CapSense_Filter.c ****         else
1042:Generated_Source\PSoC6/CapSense_Filter.c ****         {
ARM GAS  C:\Users\salaz\AppData\Local\Temp\cctLNP9Y.s 			page 27


1043:Generated_Source\PSoC6/CapSense_Filter.c ****             #if (CapSense_PROXIMITY_SENSOR_EN && CapSense_PROX_RC_MEDIAN_FILTER_EN)
1044:Generated_Source\PSoC6/CapSense_Filter.c ****                 ptrFilterHistObj.ptrProx->proxChannel[freqChannel].medHistory[0u] = ptrSensorObj->r
 407              		.loc 1 1044 0
 408 000e 6500     		lsls	r5, r4, #1
 409 0010 6F5A     		ldrh	r7, [r5, r1]
 410 0012 2E19     		adds	r6, r5, r4
 411 0014 B300     		lsls	r3, r6, #2
 412 0016 C318     		adds	r3, r0, r3
 413 0018 5F80     		strh	r7, [r3, #2]
1045:Generated_Source\PSoC6/CapSense_Filter.c ****                 ptrFilterHistObj.ptrProx->proxChannel[freqChannel].medHistory[1u] = ptrSensorObj->r
 414              		.loc 1 1045 0
 415 001a 6D5A     		ldrh	r5, [r5, r1]
 416 001c 9D80     		strh	r5, [r3, #4]
 417              	.L27:
1029:Generated_Source\PSoC6/CapSense_Filter.c ****     uint32 freqChannel;
 418              		.loc 1 1029 0 discriminator 1
 419 001e 2300     		movs	r3, r4
 420              	.LVL54:
 421              	.L26:
1032:Generated_Source\PSoC6/CapSense_Filter.c ****     {
 422              		.loc 1 1032 0 discriminator 1
 423 0020 5C1E     		subs	r4, r3, #1
 424              	.LVL55:
 425 0022 002B     		cmp	r3, #0
 426 0024 EFD1     		bne	.L28
1046:Generated_Source\PSoC6/CapSense_Filter.c ****             #endif /* (CapSense_PROXIMITY_SENSOR_EN) */
1047:Generated_Source\PSoC6/CapSense_Filter.c ****         }
1048:Generated_Source\PSoC6/CapSense_Filter.c ****     }
1049:Generated_Source\PSoC6/CapSense_Filter.c **** }
 427              		.loc 1 1049 0
 428              		@ sp needed
 429              	.LVL56:
 430 0026 F0BD     		pop	{r4, r5, r6, r7, pc}
 431              		.cfi_endproc
 432              	.LFE54:
 433              		.size	CapSense_InitializeMedianInternal, .-CapSense_InitializeMedianInternal
 434              		.section	.text.CapSense_InitializeMedian,"ax",%progbits
 435              		.align	2
 436              		.global	CapSense_InitializeMedian
 437              		.code	16
 438              		.thumb_func
 439              		.type	CapSense_InitializeMedian, %function
 440              	CapSense_InitializeMedian:
 441              	.LFB52:
 941:Generated_Source\PSoC6/CapSense_Filter.c ****     CapSense_FLASH_WD_STRUCT const *ptrWidget = &CapSense_dsFlash.wdgtArray[widgetId];
 442              		.loc 1 941 0
 443              		.cfi_startproc
 444              		@ args = 0, pretend = 0, frame = 0
 445              		@ frame_needed = 0, uses_anonymous_args = 0
 446              	.LVL57:
 447 0000 70B5     		push	{r4, r5, r6, lr}
 448              		.cfi_def_cfa_offset 16
 449              		.cfi_offset 4, -16
 450              		.cfi_offset 5, -12
 451              		.cfi_offset 6, -8
 452              		.cfi_offset 14, -4
 453 0002 0C00     		movs	r4, r1
ARM GAS  C:\Users\salaz\AppData\Local\Temp\cctLNP9Y.s 			page 28


 454              	.LVL58:
 947:Generated_Source\PSoC6/CapSense_Filter.c ****     ptrSensor = &ptrSensor[sensorId];
 455              		.loc 1 947 0
 456 0004 4001     		lsls	r0, r0, #5
 457              	.LVL59:
 458 0006 094B     		ldr	r3, .L31
 459 0008 1B18     		adds	r3, r3, r0
 460              	.LVL60:
 948:Generated_Source\PSoC6/CapSense_Filter.c **** 
 461              		.loc 1 948 0
 462 000a 8800     		lsls	r0, r1, #2
 463 000c 4018     		adds	r0, r0, r1
 464 000e 4200     		lsls	r2, r0, #1
 465 0010 9968     		ldr	r1, [r3, #8]
 466              	.LVL61:
 467 0012 8918     		adds	r1, r1, r2
 468              	.LVL62:
 951:Generated_Source\PSoC6/CapSense_Filter.c **** 
 469              		.loc 1 951 0
 470 0014 DD68     		ldr	r5, [r3, #12]
 471 0016 2800     		movs	r0, r5
 472              	.LVL63:
 953:Generated_Source\PSoC6/CapSense_Filter.c ****     {
 473              		.loc 1 953 0
 474 0018 9A7E     		ldrb	r2, [r3, #26]
 475 001a 062A     		cmp	r2, #6
 476 001c 03D1     		bne	.L30
 962:Generated_Source\PSoC6/CapSense_Filter.c ****         #endif /* (CapSense_PROXIMITY_SENSOR_EN) */
 477              		.loc 1 962 0
 478 001e 6300     		lsls	r3, r4, #1
 479              	.LVL64:
 480 0020 1C19     		adds	r4, r3, r4
 481              	.LVL65:
 482 0022 A000     		lsls	r0, r4, #2
 483 0024 2818     		adds	r0, r5, r0
 484              	.L30:
 966:Generated_Source\PSoC6/CapSense_Filter.c **** }
 485              		.loc 1 966 0
 486 0026 FFF7FEFF 		bl	CapSense_InitializeMedianInternal
 487              	.LVL66:
 967:Generated_Source\PSoC6/CapSense_Filter.c **** 
 488              		.loc 1 967 0
 489              		@ sp needed
 490 002a 70BD     		pop	{r4, r5, r6, pc}
 491              	.L32:
 492              		.align	2
 493              	.L31:
 494 002c 00000000 		.word	CapSense_dsFlash
 495              		.cfi_endproc
 496              	.LFE52:
 497              		.size	CapSense_InitializeMedian, .-CapSense_InitializeMedian
 498              		.section	.text.CapSense_InitializeAverageInternal,"ax",%progbits
 499              		.align	2
 500              		.global	CapSense_InitializeAverageInternal
 501              		.code	16
 502              		.thumb_func
 503              		.type	CapSense_InitializeAverageInternal, %function
ARM GAS  C:\Users\salaz\AppData\Local\Temp\cctLNP9Y.s 			page 29


 504              	CapSense_InitializeAverageInternal:
 505              	.LFB58:
1050:Generated_Source\PSoC6/CapSense_Filter.c **** 
1051:Generated_Source\PSoC6/CapSense_Filter.c **** 
1052:Generated_Source\PSoC6/CapSense_Filter.c **** /*******************************************************************************
1053:Generated_Source\PSoC6/CapSense_Filter.c **** * Function Name: CapSense_RunMedianInternal
1054:Generated_Source\PSoC6/CapSense_Filter.c **** ****************************************************************************//**
1055:Generated_Source\PSoC6/CapSense_Filter.c **** *
1056:Generated_Source\PSoC6/CapSense_Filter.c **** * \brief    Runs the Median filter.
1057:Generated_Source\PSoC6/CapSense_Filter.c **** *
1058:Generated_Source\PSoC6/CapSense_Filter.c **** * \details  Runs the Median filter.
1059:Generated_Source\PSoC6/CapSense_Filter.c **** *
1060:Generated_Source\PSoC6/CapSense_Filter.c **** * \param    ptrFilterHistObj The pointer to the filter RAM object of the sensor.
1061:Generated_Source\PSoC6/CapSense_Filter.c **** * \param    ptrSensorObj     The pointer to the sensor RAM object of the sensor.
1062:Generated_Source\PSoC6/CapSense_Filter.c **** * \param    wdType           Specifies the type of a widget.
1063:Generated_Source\PSoC6/CapSense_Filter.c **** *
1064:Generated_Source\PSoC6/CapSense_Filter.c **** *******************************************************************************/
1065:Generated_Source\PSoC6/CapSense_Filter.c **** void CapSense_RunMedianInternal(CapSense_PTR_FILTER_VARIANT ptrFilterHistObj,
1066:Generated_Source\PSoC6/CapSense_Filter.c ****                                         CapSense_RAM_SNS_STRUCT *ptrSensorObj, uint32 wdType)
1067:Generated_Source\PSoC6/CapSense_Filter.c **** {
1068:Generated_Source\PSoC6/CapSense_Filter.c ****     uint32 freqChannel;
1069:Generated_Source\PSoC6/CapSense_Filter.c **** 
1070:Generated_Source\PSoC6/CapSense_Filter.c ****     #if ((CapSense_REGULAR_SENSOR_EN && CapSense_REGULAR_RC_MEDIAN_FILTER_EN) || \
1071:Generated_Source\PSoC6/CapSense_Filter.c ****          (CapSense_PROXIMITY_SENSOR_EN && CapSense_PROX_RC_MEDIAN_FILTER_EN))
1072:Generated_Source\PSoC6/CapSense_Filter.c ****         uint32 temp;
1073:Generated_Source\PSoC6/CapSense_Filter.c ****     #endif
1074:Generated_Source\PSoC6/CapSense_Filter.c **** 
1075:Generated_Source\PSoC6/CapSense_Filter.c ****     for(freqChannel = CapSense_NUM_SCAN_FREQS; freqChannel-- > 0u;)
1076:Generated_Source\PSoC6/CapSense_Filter.c ****     {
1077:Generated_Source\PSoC6/CapSense_Filter.c ****         if ((CapSense_WD_TYPE_ENUM)wdType != CapSense_WD_PROXIMITY_E)
1078:Generated_Source\PSoC6/CapSense_Filter.c ****         {
1079:Generated_Source\PSoC6/CapSense_Filter.c ****             #if (CapSense_REGULAR_SENSOR_EN && CapSense_REGULAR_RC_MEDIAN_FILTER_EN)
1080:Generated_Source\PSoC6/CapSense_Filter.c ****                 temp = CapSense_FtMedian((uint32)ptrSensorObj->raw[freqChannel],\
1081:Generated_Source\PSoC6/CapSense_Filter.c ****                                                  (uint32)ptrFilterHistObj.ptrRegular->regularChanne
1082:Generated_Source\PSoC6/CapSense_Filter.c ****                                                  (uint32)ptrFilterHistObj.ptrRegular->regularChanne
1083:Generated_Source\PSoC6/CapSense_Filter.c ****                 ptrFilterHistObj.ptrRegular->regularChannel[freqChannel].medHistory[1u] = \
1084:Generated_Source\PSoC6/CapSense_Filter.c ****                 ptrFilterHistObj.ptrRegular->regularChannel[freqChannel].medHistory[0u];
1085:Generated_Source\PSoC6/CapSense_Filter.c ****                 ptrFilterHistObj.ptrRegular->regularChannel[freqChannel].medHistory[0u] = ptrSensor
1086:Generated_Source\PSoC6/CapSense_Filter.c ****                 ptrSensorObj->raw[freqChannel] = CY_LO16(temp);
1087:Generated_Source\PSoC6/CapSense_Filter.c ****             #endif /* (CapSense_REGULAR_SENSOR_EN) */
1088:Generated_Source\PSoC6/CapSense_Filter.c ****         }
1089:Generated_Source\PSoC6/CapSense_Filter.c ****         else
1090:Generated_Source\PSoC6/CapSense_Filter.c ****         {
1091:Generated_Source\PSoC6/CapSense_Filter.c ****             #if (CapSense_PROXIMITY_SENSOR_EN && CapSense_PROX_RC_MEDIAN_FILTER_EN)
1092:Generated_Source\PSoC6/CapSense_Filter.c ****                 temp = CapSense_FtMedian((uint32)ptrSensorObj->raw[freqChannel],\
1093:Generated_Source\PSoC6/CapSense_Filter.c ****                                                  (uint32)ptrFilterHistObj.ptrProx->proxChannel[freq
1094:Generated_Source\PSoC6/CapSense_Filter.c ****                                                  (uint32)ptrFilterHistObj.ptrProx->proxChannel[freq
1095:Generated_Source\PSoC6/CapSense_Filter.c ****                 ptrFilterHistObj.ptrProx->proxChannel[freqChannel].medHistory[1u] = \
1096:Generated_Source\PSoC6/CapSense_Filter.c ****                 ptrFilterHistObj.ptrProx->proxChannel[freqChannel].medHistory[0u];
1097:Generated_Source\PSoC6/CapSense_Filter.c ****                 ptrFilterHistObj.ptrProx->proxChannel[freqChannel].medHistory[0u] = ptrSensorObj->r
1098:Generated_Source\PSoC6/CapSense_Filter.c ****                 ptrSensorObj->raw[freqChannel] = CY_LO16(temp);
1099:Generated_Source\PSoC6/CapSense_Filter.c ****             #endif /* (CapSense_PROXIMITY_SENSOR_EN) */
1100:Generated_Source\PSoC6/CapSense_Filter.c ****         }
1101:Generated_Source\PSoC6/CapSense_Filter.c ****     }
1102:Generated_Source\PSoC6/CapSense_Filter.c **** }
1103:Generated_Source\PSoC6/CapSense_Filter.c **** #endif /* (CapSense_REGULAR_RC_MEDIAN_FILTER_EN || CapSense_PROX_RC_MEDIAN_FILTER_EN) */
1104:Generated_Source\PSoC6/CapSense_Filter.c **** 
ARM GAS  C:\Users\salaz\AppData\Local\Temp\cctLNP9Y.s 			page 30


1105:Generated_Source\PSoC6/CapSense_Filter.c **** 
1106:Generated_Source\PSoC6/CapSense_Filter.c **** #if (CapSense_REGULAR_RC_AVERAGE_FILTER_EN || CapSense_PROX_RC_AVERAGE_FILTER_EN)
1107:Generated_Source\PSoC6/CapSense_Filter.c **** 
1108:Generated_Source\PSoC6/CapSense_Filter.c **** /*******************************************************************************
1109:Generated_Source\PSoC6/CapSense_Filter.c **** * Function Name: CapSense_InitializeAverage
1110:Generated_Source\PSoC6/CapSense_Filter.c **** ****************************************************************************//**
1111:Generated_Source\PSoC6/CapSense_Filter.c **** *
1112:Generated_Source\PSoC6/CapSense_Filter.c **** * \brief    Initializes the average filter history.
1113:Generated_Source\PSoC6/CapSense_Filter.c **** *
1114:Generated_Source\PSoC6/CapSense_Filter.c **** * \details  Initializes the average filter history.
1115:Generated_Source\PSoC6/CapSense_Filter.c **** *
1116:Generated_Source\PSoC6/CapSense_Filter.c **** * \param    widgetId Specifies the ID number of the widget.
1117:Generated_Source\PSoC6/CapSense_Filter.c **** * \param    sensorId Specifies the ID number of the sensor in the widget.
1118:Generated_Source\PSoC6/CapSense_Filter.c **** *
1119:Generated_Source\PSoC6/CapSense_Filter.c **** *******************************************************************************/
1120:Generated_Source\PSoC6/CapSense_Filter.c **** void CapSense_InitializeAverage(uint32 widgetId, uint32 sensorId)
1121:Generated_Source\PSoC6/CapSense_Filter.c **** {
1122:Generated_Source\PSoC6/CapSense_Filter.c ****     CapSense_FLASH_WD_STRUCT const *ptrWidget = &CapSense_dsFlash.wdgtArray[widgetId];
1123:Generated_Source\PSoC6/CapSense_Filter.c ****     CapSense_RAM_SNS_STRUCT *ptrSensor = NULL;
1124:Generated_Source\PSoC6/CapSense_Filter.c ****     CapSense_PTR_FILTER_VARIANT ptrFilterHistObj;
1125:Generated_Source\PSoC6/CapSense_Filter.c **** 
1126:Generated_Source\PSoC6/CapSense_Filter.c ****     /* Find pointer to specified sensor object */
1127:Generated_Source\PSoC6/CapSense_Filter.c ****     ptrSensor = ptrWidget->ptr2SnsRam;
1128:Generated_Source\PSoC6/CapSense_Filter.c ****     ptrSensor = &ptrSensor[sensorId];
1129:Generated_Source\PSoC6/CapSense_Filter.c **** 
1130:Generated_Source\PSoC6/CapSense_Filter.c ****     /* Find pointer to specified filter sensor object */
1131:Generated_Source\PSoC6/CapSense_Filter.c ****     ptrFilterHistObj.ptr = ptrWidget->ptr2FltrHistory;
1132:Generated_Source\PSoC6/CapSense_Filter.c **** 
1133:Generated_Source\PSoC6/CapSense_Filter.c ****     if ((CapSense_WD_TYPE_ENUM)ptrWidget->wdgtType != CapSense_WD_PROXIMITY_E)
1134:Generated_Source\PSoC6/CapSense_Filter.c ****     {
1135:Generated_Source\PSoC6/CapSense_Filter.c ****         #if (CapSense_REGULAR_SENSOR_EN)
1136:Generated_Source\PSoC6/CapSense_Filter.c ****             ptrFilterHistObj.ptrRegular = &ptrFilterHistObj.ptrRegular[sensorId];
1137:Generated_Source\PSoC6/CapSense_Filter.c ****         #endif /* (CapSense_REGULAR_SENSOR_EN) */
1138:Generated_Source\PSoC6/CapSense_Filter.c ****     }
1139:Generated_Source\PSoC6/CapSense_Filter.c ****     else
1140:Generated_Source\PSoC6/CapSense_Filter.c ****     {
1141:Generated_Source\PSoC6/CapSense_Filter.c ****         #if (CapSense_PROXIMITY_SENSOR_EN)
1142:Generated_Source\PSoC6/CapSense_Filter.c ****             ptrFilterHistObj.ptrProx = &ptrFilterHistObj.ptrProx[sensorId];
1143:Generated_Source\PSoC6/CapSense_Filter.c ****         #endif /* (CapSense_PROXIMITY_SENSOR_EN) */
1144:Generated_Source\PSoC6/CapSense_Filter.c ****     }
1145:Generated_Source\PSoC6/CapSense_Filter.c **** 
1146:Generated_Source\PSoC6/CapSense_Filter.c ****     CapSense_InitializeAverageInternal(ptrFilterHistObj, ptrSensor, (uint32)ptrWidget->wdgtType);
1147:Generated_Source\PSoC6/CapSense_Filter.c **** }
1148:Generated_Source\PSoC6/CapSense_Filter.c **** 
1149:Generated_Source\PSoC6/CapSense_Filter.c **** 
1150:Generated_Source\PSoC6/CapSense_Filter.c **** /*******************************************************************************
1151:Generated_Source\PSoC6/CapSense_Filter.c **** * Function Name: CapSense_RunAverage
1152:Generated_Source\PSoC6/CapSense_Filter.c **** ****************************************************************************//**
1153:Generated_Source\PSoC6/CapSense_Filter.c **** *
1154:Generated_Source\PSoC6/CapSense_Filter.c **** * \brief    Executes the average filter algorithm on a sensor indicated by an input
1155:Generated_Source\PSoC6/CapSense_Filter.c **** *           parameter.
1156:Generated_Source\PSoC6/CapSense_Filter.c **** *
1157:Generated_Source\PSoC6/CapSense_Filter.c **** * \details  Executes the average filter algorithm on a sensor indicated by an input
1158:Generated_Source\PSoC6/CapSense_Filter.c **** *           parameter.
1159:Generated_Source\PSoC6/CapSense_Filter.c **** *
1160:Generated_Source\PSoC6/CapSense_Filter.c **** * \param    widgetId Specifies the ID number of the widget.
1161:Generated_Source\PSoC6/CapSense_Filter.c **** * \param    sensorId Specifies the ID number of the sensor in the widget.
ARM GAS  C:\Users\salaz\AppData\Local\Temp\cctLNP9Y.s 			page 31


1162:Generated_Source\PSoC6/CapSense_Filter.c **** *
1163:Generated_Source\PSoC6/CapSense_Filter.c **** *******************************************************************************/
1164:Generated_Source\PSoC6/CapSense_Filter.c **** void CapSense_RunAverage(uint32 widgetId, uint32 sensorId)
1165:Generated_Source\PSoC6/CapSense_Filter.c **** {
1166:Generated_Source\PSoC6/CapSense_Filter.c ****     CapSense_FLASH_WD_STRUCT const *ptrWidget = &CapSense_dsFlash.wdgtArray[widgetId];
1167:Generated_Source\PSoC6/CapSense_Filter.c ****     CapSense_RAM_SNS_STRUCT *ptrSensor = NULL;
1168:Generated_Source\PSoC6/CapSense_Filter.c ****     CapSense_PTR_FILTER_VARIANT ptrFilterHistObj;
1169:Generated_Source\PSoC6/CapSense_Filter.c **** 
1170:Generated_Source\PSoC6/CapSense_Filter.c ****     /* Find pointer to specified sensor object */
1171:Generated_Source\PSoC6/CapSense_Filter.c ****     ptrSensor = ptrWidget->ptr2SnsRam;
1172:Generated_Source\PSoC6/CapSense_Filter.c ****     ptrSensor = &ptrSensor[sensorId];
1173:Generated_Source\PSoC6/CapSense_Filter.c **** 
1174:Generated_Source\PSoC6/CapSense_Filter.c ****     /* Find pointer to specified filter sensor object */
1175:Generated_Source\PSoC6/CapSense_Filter.c ****     ptrFilterHistObj.ptr = ptrWidget->ptr2FltrHistory;
1176:Generated_Source\PSoC6/CapSense_Filter.c **** 
1177:Generated_Source\PSoC6/CapSense_Filter.c ****     if ((CapSense_WD_TYPE_ENUM)ptrWidget->wdgtType != CapSense_WD_PROXIMITY_E)
1178:Generated_Source\PSoC6/CapSense_Filter.c ****     {
1179:Generated_Source\PSoC6/CapSense_Filter.c ****         #if (CapSense_REGULAR_SENSOR_EN)
1180:Generated_Source\PSoC6/CapSense_Filter.c ****             ptrFilterHistObj.ptrRegular = &ptrFilterHistObj.ptrRegular[sensorId];
1181:Generated_Source\PSoC6/CapSense_Filter.c ****         #endif /* (CapSense_REGULAR_SENSOR_EN) */
1182:Generated_Source\PSoC6/CapSense_Filter.c ****     }
1183:Generated_Source\PSoC6/CapSense_Filter.c ****     else
1184:Generated_Source\PSoC6/CapSense_Filter.c ****     {
1185:Generated_Source\PSoC6/CapSense_Filter.c ****         #if (CapSense_PROXIMITY_SENSOR_EN)
1186:Generated_Source\PSoC6/CapSense_Filter.c ****             ptrFilterHistObj.ptrProx = &ptrFilterHistObj.ptrProx[sensorId];
1187:Generated_Source\PSoC6/CapSense_Filter.c ****         #endif /* (CapSense_PROXIMITY_SENSOR_EN) */
1188:Generated_Source\PSoC6/CapSense_Filter.c ****     }
1189:Generated_Source\PSoC6/CapSense_Filter.c **** 
1190:Generated_Source\PSoC6/CapSense_Filter.c ****     CapSense_RunAverageInternal(ptrFilterHistObj, ptrSensor, (uint32)ptrWidget->wdgtType);
1191:Generated_Source\PSoC6/CapSense_Filter.c **** }
1192:Generated_Source\PSoC6/CapSense_Filter.c **** 
1193:Generated_Source\PSoC6/CapSense_Filter.c **** 
1194:Generated_Source\PSoC6/CapSense_Filter.c **** /*******************************************************************************
1195:Generated_Source\PSoC6/CapSense_Filter.c **** * Function Name: CapSense_InitializeAverageInternal
1196:Generated_Source\PSoC6/CapSense_Filter.c **** ****************************************************************************//**
1197:Generated_Source\PSoC6/CapSense_Filter.c **** *
1198:Generated_Source\PSoC6/CapSense_Filter.c **** * \brief    Initializes the average filter.
1199:Generated_Source\PSoC6/CapSense_Filter.c **** *
1200:Generated_Source\PSoC6/CapSense_Filter.c **** * \details  Initializes the average filter.
1201:Generated_Source\PSoC6/CapSense_Filter.c **** *
1202:Generated_Source\PSoC6/CapSense_Filter.c **** * \param    ptrFilterHistObj The pointer to the filter RAM object of the sensor.
1203:Generated_Source\PSoC6/CapSense_Filter.c **** * \param    ptrSensorObj     The pointer to the sensor RAM object of the sensor.
1204:Generated_Source\PSoC6/CapSense_Filter.c **** * \param    wdType           Specifies the type of a widget.
1205:Generated_Source\PSoC6/CapSense_Filter.c **** *
1206:Generated_Source\PSoC6/CapSense_Filter.c **** *******************************************************************************/
1207:Generated_Source\PSoC6/CapSense_Filter.c **** void CapSense_InitializeAverageInternal(CapSense_PTR_FILTER_VARIANT ptrFilterHistObj,\
1208:Generated_Source\PSoC6/CapSense_Filter.c ****                                                   CapSense_RAM_SNS_STRUCT *ptrSensorObj, uint32 wdT
1209:Generated_Source\PSoC6/CapSense_Filter.c **** {
 506              		.loc 1 1209 0
 507              		.cfi_startproc
 508              		@ args = 0, pretend = 0, frame = 0
 509              		@ frame_needed = 0, uses_anonymous_args = 0
 510              	.LVL67:
 511 0000 F0B5     		push	{r4, r5, r6, r7, lr}
 512              		.cfi_def_cfa_offset 20
 513              		.cfi_offset 4, -20
 514              		.cfi_offset 5, -16
ARM GAS  C:\Users\salaz\AppData\Local\Temp\cctLNP9Y.s 			page 32


 515              		.cfi_offset 6, -12
 516              		.cfi_offset 7, -8
 517              		.cfi_offset 14, -4
 518              	.LVL68:
1210:Generated_Source\PSoC6/CapSense_Filter.c ****     uint32 freqChannel;
1211:Generated_Source\PSoC6/CapSense_Filter.c **** 
1212:Generated_Source\PSoC6/CapSense_Filter.c ****     for(freqChannel = CapSense_NUM_SCAN_FREQS; freqChannel-- > 0u;)
 519              		.loc 1 1212 0
 520 0002 0123     		movs	r3, #1
 521 0004 0EE0     		b	.L34
 522              	.LVL69:
 523              	.L36:
1213:Generated_Source\PSoC6/CapSense_Filter.c ****     {
1214:Generated_Source\PSoC6/CapSense_Filter.c ****         if ((CapSense_WD_TYPE_ENUM)wdType != CapSense_WD_PROXIMITY_E)
 524              		.loc 1 1214 0
 525 0006 FF23     		movs	r3, #255
 526 0008 1340     		ands	r3, r2
 527 000a 062B     		cmp	r3, #6
 528 000c 09D1     		bne	.L35
1215:Generated_Source\PSoC6/CapSense_Filter.c ****         {
1216:Generated_Source\PSoC6/CapSense_Filter.c ****             #if (CapSense_REGULAR_SENSOR_EN && CapSense_REGULAR_RC_AVERAGE_FILTER_EN)
1217:Generated_Source\PSoC6/CapSense_Filter.c ****                 ptrFilterHistObj.ptrRegular->regularChannel[freqChannel].avgHistory[0] = ptrSensorO
1218:Generated_Source\PSoC6/CapSense_Filter.c ****                 #if (CapSense_REGULAR_AVERAGE_LEN == CapSense_AVERAGE_FILTER_LEN_4)
1219:Generated_Source\PSoC6/CapSense_Filter.c ****                     ptrFilterHistObj.ptrRegular->regularChannel[freqChannel].avgHistory[1u] = ptrSe
1220:Generated_Source\PSoC6/CapSense_Filter.c ****                     ptrFilterHistObj.ptrRegular->regularChannel[freqChannel].avgHistory[2u] = ptrSe
1221:Generated_Source\PSoC6/CapSense_Filter.c ****                 #endif /* CapSense_REGULAR_AVERAGE_LEN == CapSense_AVERAGE_FILTER_LEN_4 */
1222:Generated_Source\PSoC6/CapSense_Filter.c ****             #endif /* (CapSense_REGULAR_SENSOR_EN) */
1223:Generated_Source\PSoC6/CapSense_Filter.c ****         }
1224:Generated_Source\PSoC6/CapSense_Filter.c ****         else
1225:Generated_Source\PSoC6/CapSense_Filter.c ****         {
1226:Generated_Source\PSoC6/CapSense_Filter.c ****             #if (CapSense_PROXIMITY_SENSOR_EN && CapSense_PROX_RC_AVERAGE_FILTER_EN)
1227:Generated_Source\PSoC6/CapSense_Filter.c ****                 ptrFilterHistObj.ptrProx->proxChannel[freqChannel].avgHistory[0] = ptrSensorObj->ra
 529              		.loc 1 1227 0
 530 000e 6500     		lsls	r5, r4, #1
 531 0010 6F5A     		ldrh	r7, [r5, r1]
 532 0012 2E19     		adds	r6, r5, r4
 533 0014 B300     		lsls	r3, r6, #2
 534 0016 C318     		adds	r3, r0, r3
 535 0018 DF80     		strh	r7, [r3, #6]
1228:Generated_Source\PSoC6/CapSense_Filter.c ****                     #if (CapSense_PROX_AVERAGE_LEN == CapSense_AVERAGE_FILTER_LEN_4)
1229:Generated_Source\PSoC6/CapSense_Filter.c ****                         ptrFilterHistObj.ptrProx->proxChannel[freqChannel].avgHistory[1u] = ptrSens
 536              		.loc 1 1229 0
 537 001a 6E5A     		ldrh	r6, [r5, r1]
 538 001c 1E81     		strh	r6, [r3, #8]
1230:Generated_Source\PSoC6/CapSense_Filter.c ****                         ptrFilterHistObj.ptrProx->proxChannel[freqChannel].avgHistory[2u] = ptrSens
 539              		.loc 1 1230 0
 540 001e 6D5A     		ldrh	r5, [r5, r1]
 541 0020 5D81     		strh	r5, [r3, #10]
 542              	.L35:
1209:Generated_Source\PSoC6/CapSense_Filter.c ****     uint32 freqChannel;
 543              		.loc 1 1209 0 discriminator 1
 544 0022 2300     		movs	r3, r4
 545              	.LVL70:
 546              	.L34:
1212:Generated_Source\PSoC6/CapSense_Filter.c ****     {
 547              		.loc 1 1212 0 discriminator 1
 548 0024 5C1E     		subs	r4, r3, #1
ARM GAS  C:\Users\salaz\AppData\Local\Temp\cctLNP9Y.s 			page 33


 549              	.LVL71:
 550 0026 002B     		cmp	r3, #0
 551 0028 EDD1     		bne	.L36
1231:Generated_Source\PSoC6/CapSense_Filter.c ****                     #endif /* CapSense_REGULAR_AVERAGE_LEN == CapSense_AVERAGE_FILTER_LEN_4 */
1232:Generated_Source\PSoC6/CapSense_Filter.c ****             #endif /* (CapSense_PROXIMITY_SENSOR_EN) */
1233:Generated_Source\PSoC6/CapSense_Filter.c ****         }
1234:Generated_Source\PSoC6/CapSense_Filter.c ****     }
1235:Generated_Source\PSoC6/CapSense_Filter.c **** }
 552              		.loc 1 1235 0
 553              		@ sp needed
 554              	.LVL72:
 555 002a F0BD     		pop	{r4, r5, r6, r7, pc}
 556              		.cfi_endproc
 557              	.LFE58:
 558              		.size	CapSense_InitializeAverageInternal, .-CapSense_InitializeAverageInternal
 559              		.section	.text.CapSense_InitializeWidgetFilter,"ax",%progbits
 560              		.align	2
 561              		.global	CapSense_InitializeWidgetFilter
 562              		.code	16
 563              		.thumb_func
 564              		.type	CapSense_InitializeWidgetFilter, %function
 565              	CapSense_InitializeWidgetFilter:
 566              	.LFB47:
 636:Generated_Source\PSoC6/CapSense_Filter.c ****     uint32 sensorId;
 567              		.loc 1 636 0
 568              		.cfi_startproc
 569              		@ args = 0, pretend = 0, frame = 8
 570              		@ frame_needed = 0, uses_anonymous_args = 0
 571              	.LVL73:
 572 0000 F0B5     		push	{r4, r5, r6, r7, lr}
 573              		.cfi_def_cfa_offset 20
 574              		.cfi_offset 4, -20
 575              		.cfi_offset 5, -16
 576              		.cfi_offset 6, -12
 577              		.cfi_offset 7, -8
 578              		.cfi_offset 14, -4
 579 0002 4F46     		mov	r7, r9
 580 0004 4646     		mov	r6, r8
 581 0006 C0B4     		push	{r6, r7}
 582              		.cfi_def_cfa_offset 28
 583              		.cfi_offset 8, -28
 584              		.cfi_offset 9, -24
 585 0008 83B0     		sub	sp, sp, #12
 586              		.cfi_def_cfa_offset 40
 587 000a 8046     		mov	r8, r0
 588              	.LVL74:
 654:Generated_Source\PSoC6/CapSense_Filter.c ****     #endif /* (0u != (CapSense_CSD_AUTOTUNE & CapSense_CSD_SS_TH_EN)) */
 589              		.loc 1 654 0
 590 000c 4301     		lsls	r3, r0, #5
 591 000e 1D4A     		ldr	r2, .L41
 592 0010 D318     		adds	r3, r2, r3
 593              	.LVL75:
 594 0012 5A68     		ldr	r2, [r3, #4]
 595 0014 9146     		mov	r9, r2
 596              	.LVL76:
 658:Generated_Source\PSoC6/CapSense_Filter.c **** 
 597              		.loc 1 658 0
ARM GAS  C:\Users\salaz\AppData\Local\Temp\cctLNP9Y.s 			page 34


 598 0016 1B8B     		ldrh	r3, [r3, #24]
 599              	.LVL77:
 660:Generated_Source\PSoC6/CapSense_Filter.c ****     {
 600              		.loc 1 660 0
 601 0018 2BE0     		b	.L38
 602              	.LVL78:
 603              	.L40:
 663:Generated_Source\PSoC6/CapSense_Filter.c ****         ptrSensor = &ptrSensor[sensorId];
 604              		.loc 1 663 0
 605 001a 4346     		mov	r3, r8
 606 001c 5A01     		lsls	r2, r3, #5
 607 001e 194B     		ldr	r3, .L41
 608 0020 9B18     		adds	r3, r3, r2
 609              	.LVL79:
 664:Generated_Source\PSoC6/CapSense_Filter.c **** 
 610              		.loc 1 664 0
 611 0022 AA00     		lsls	r2, r5, #2
 612 0024 5219     		adds	r2, r2, r5
 613 0026 5400     		lsls	r4, r2, #1
 614 0028 9A68     		ldr	r2, [r3, #8]
 615 002a 9446     		mov	ip, r2
 616 002c 6444     		add	r4, r4, ip
 617              	.LVL80:
 668:Generated_Source\PSoC6/CapSense_Filter.c ****         #endif
 618              		.loc 1 668 0
 619 002e D868     		ldr	r0, [r3, #12]
 620 0030 0190     		str	r0, [sp, #4]
 621              	.LVL81:
 674:Generated_Source\PSoC6/CapSense_Filter.c ****         #endif /* (0u != (CapSense_CSD_AUTOTUNE & CapSense_CSD_SS_TH_EN)) */
 622              		.loc 1 674 0
 623 0032 6A00     		lsls	r2, r5, #1
 624 0034 5219     		adds	r2, r2, r5
 625 0036 9100     		lsls	r1, r2, #2
 626 0038 DA69     		ldr	r2, [r3, #28]
 627 003a 5618     		adds	r6, r2, r1
 628              	.LVL82:
 677:Generated_Source\PSoC6/CapSense_Filter.c ****         {
 629              		.loc 1 677 0
 630 003c 9F7E     		ldrb	r7, [r3, #26]
 631 003e 062F     		cmp	r7, #6
 632 0040 01D1     		bne	.L39
 690:Generated_Source\PSoC6/CapSense_Filter.c ****             #endif /* #if (0u != CapSense_PROX_RC_FILTER_EN) */
 633              		.loc 1 690 0
 634 0042 4318     		adds	r3, r0, r1
 635              	.LVL83:
 636 0044 0193     		str	r3, [sp, #4]
 637              	.L39:
 695:Generated_Source\PSoC6/CapSense_Filter.c ****         #endif /* (CapSense_REGULAR_RC_IIR_FILTER_EN || CapSense_PROX_RC_IIR_FILTER_EN) */
 638              		.loc 1 695 0
 639 0046 3A00     		movs	r2, r7
 640 0048 2100     		movs	r1, r4
 641 004a 0198     		ldr	r0, [sp, #4]
 642 004c FFF7FEFF 		bl	CapSense_InitializeIIRInternal
 643              	.LVL84:
 699:Generated_Source\PSoC6/CapSense_Filter.c ****         #endif /* (CapSense_REGULAR_RC_MEDIAN_FILTER_EN || CapSense_PROX_RC_MEDIAN_FILTER_EN) */
 644              		.loc 1 699 0
 645 0050 3A00     		movs	r2, r7
ARM GAS  C:\Users\salaz\AppData\Local\Temp\cctLNP9Y.s 			page 35


 646 0052 2100     		movs	r1, r4
 647 0054 0198     		ldr	r0, [sp, #4]
 648 0056 FFF7FEFF 		bl	CapSense_InitializeMedianInternal
 649              	.LVL85:
 703:Generated_Source\PSoC6/CapSense_Filter.c ****         #endif /* (CapSense_REGULAR_RC_AVERAGE_FILTER_EN || CapSense_PROX_RC_AVERAGE_FILTER_EN) */
 650              		.loc 1 703 0
 651 005a 3A00     		movs	r2, r7
 652 005c 2100     		movs	r1, r4
 653 005e 0198     		ldr	r0, [sp, #4]
 654 0060 FFF7FEFF 		bl	CapSense_InitializeAverageInternal
 655              	.LVL86:
 714:Generated_Source\PSoC6/CapSense_Filter.c ****             }
 656              		.loc 1 714 0
 657 0064 4B46     		mov	r3, r9
 658 0066 198A     		ldrh	r1, [r3, #16]
 659 0068 2088     		ldrh	r0, [r4]
 660 006a 3200     		movs	r2, r6
 661 006c FFF7FEFF 		bl	SmartSense_InitializeNoiseEnvelope
 662              	.LVL87:
 660:Generated_Source\PSoC6/CapSense_Filter.c ****     {
 663              		.loc 1 660 0
 664 0070 2B00     		movs	r3, r5
 665              	.LVL88:
 666              	.L38:
 660:Generated_Source\PSoC6/CapSense_Filter.c ****     {
 667              		.loc 1 660 0 is_stmt 0 discriminator 1
 668 0072 5D1E     		subs	r5, r3, #1
 669              	.LVL89:
 670 0074 002B     		cmp	r3, #0
 671 0076 D0D1     		bne	.L40
 718:Generated_Source\PSoC6/CapSense_Filter.c **** #endif /* ((CapSense_ENABLE == CapSense_RC_FILTER_EN) || \
 672              		.loc 1 718 0 is_stmt 1
 673 0078 03B0     		add	sp, sp, #12
 674              		@ sp needed
 675              	.LVL90:
 676              	.LVL91:
 677              	.LVL92:
 678 007a 0CBC     		pop	{r2, r3}
 679 007c 9046     		mov	r8, r2
 680 007e 9946     		mov	r9, r3
 681 0080 F0BD     		pop	{r4, r5, r6, r7, pc}
 682              	.L42:
 683 0082 C046     		.align	2
 684              	.L41:
 685 0084 00000000 		.word	CapSense_dsFlash
 686              		.cfi_endproc
 687              	.LFE47:
 688              		.size	CapSense_InitializeWidgetFilter, .-CapSense_InitializeWidgetFilter
 689              		.section	.text.CapSense_InitializeAllFilters,"ax",%progbits
 690              		.align	2
 691              		.global	CapSense_InitializeAllFilters
 692              		.code	16
 693              		.thumb_func
 694              		.type	CapSense_InitializeAllFilters, %function
 695              	CapSense_InitializeAllFilters:
 696              	.LFB46:
 606:Generated_Source\PSoC6/CapSense_Filter.c ****     uint32 widgetId;
ARM GAS  C:\Users\salaz\AppData\Local\Temp\cctLNP9Y.s 			page 36


 697              		.loc 1 606 0
 698              		.cfi_startproc
 699              		@ args = 0, pretend = 0, frame = 0
 700              		@ frame_needed = 0, uses_anonymous_args = 0
 701 0000 10B5     		push	{r4, lr}
 702              		.cfi_def_cfa_offset 8
 703              		.cfi_offset 4, -8
 704              		.cfi_offset 14, -4
 705              	.LVL93:
 609:Generated_Source\PSoC6/CapSense_Filter.c ****     {
 706              		.loc 1 609 0
 707 0002 0123     		movs	r3, #1
 708 0004 03E0     		b	.L44
 709              	.LVL94:
 710              	.L45:
 611:Generated_Source\PSoC6/CapSense_Filter.c ****     }
 711              		.loc 1 611 0
 712 0006 2000     		movs	r0, r4
 713 0008 FFF7FEFF 		bl	CapSense_InitializeWidgetFilter
 714              	.LVL95:
 609:Generated_Source\PSoC6/CapSense_Filter.c ****     {
 715              		.loc 1 609 0
 716 000c 2300     		movs	r3, r4
 717              	.LVL96:
 718              	.L44:
 609:Generated_Source\PSoC6/CapSense_Filter.c ****     {
 719              		.loc 1 609 0 is_stmt 0 discriminator 1
 720 000e 5C1E     		subs	r4, r3, #1
 721              	.LVL97:
 722 0010 002B     		cmp	r3, #0
 723 0012 F8D1     		bne	.L45
 613:Generated_Source\PSoC6/CapSense_Filter.c **** 
 724              		.loc 1 613 0 is_stmt 1
 725              		@ sp needed
 726              	.LVL98:
 727 0014 10BD     		pop	{r4, pc}
 728              		.cfi_endproc
 729              	.LFE46:
 730              		.size	CapSense_InitializeAllFilters, .-CapSense_InitializeAllFilters
 731 0016 C046     		.section	.text.CapSense_FtInitialize,"ax",%progbits
 732              		.align	2
 733              		.global	CapSense_FtInitialize
 734              		.code	16
 735              		.thumb_func
 736              		.type	CapSense_FtInitialize, %function
 737              	CapSense_FtInitialize:
 738              	.LFB36:
  64:Generated_Source\PSoC6/CapSense_Filter.c ****     #if ((CapSense_ENABLE == CapSense_RC_FILTER_EN) || \
 739              		.loc 1 64 0
 740              		.cfi_startproc
 741              		@ args = 0, pretend = 0, frame = 0
 742              		@ frame_needed = 0, uses_anonymous_args = 0
 743 0000 10B5     		push	{r4, lr}
 744              		.cfi_def_cfa_offset 8
 745              		.cfi_offset 4, -8
 746              		.cfi_offset 14, -4
  67:Generated_Source\PSoC6/CapSense_Filter.c ****     #endif /* ((CapSense_ENABLE == CapSense_RC_FILTER_EN) || \
ARM GAS  C:\Users\salaz\AppData\Local\Temp\cctLNP9Y.s 			page 37


 747              		.loc 1 67 0
 748 0002 FFF7FEFF 		bl	CapSense_InitializeAllFilters
 749              	.LVL99:
  70:Generated_Source\PSoC6/CapSense_Filter.c **** 
 750              		.loc 1 70 0
 751              		@ sp needed
 752 0006 10BD     		pop	{r4, pc}
 753              		.cfi_endproc
 754              	.LFE36:
 755              		.size	CapSense_FtInitialize, .-CapSense_FtInitialize
 756              		.section	.text.CapSense_InitializeAverage,"ax",%progbits
 757              		.align	2
 758              		.global	CapSense_InitializeAverage
 759              		.code	16
 760              		.thumb_func
 761              		.type	CapSense_InitializeAverage, %function
 762              	CapSense_InitializeAverage:
 763              	.LFB56:
1121:Generated_Source\PSoC6/CapSense_Filter.c ****     CapSense_FLASH_WD_STRUCT const *ptrWidget = &CapSense_dsFlash.wdgtArray[widgetId];
 764              		.loc 1 1121 0
 765              		.cfi_startproc
 766              		@ args = 0, pretend = 0, frame = 0
 767              		@ frame_needed = 0, uses_anonymous_args = 0
 768              	.LVL100:
 769 0000 70B5     		push	{r4, r5, r6, lr}
 770              		.cfi_def_cfa_offset 16
 771              		.cfi_offset 4, -16
 772              		.cfi_offset 5, -12
 773              		.cfi_offset 6, -8
 774              		.cfi_offset 14, -4
 775 0002 0C00     		movs	r4, r1
 776              	.LVL101:
1127:Generated_Source\PSoC6/CapSense_Filter.c ****     ptrSensor = &ptrSensor[sensorId];
 777              		.loc 1 1127 0
 778 0004 4001     		lsls	r0, r0, #5
 779              	.LVL102:
 780 0006 094B     		ldr	r3, .L49
 781 0008 1B18     		adds	r3, r3, r0
 782              	.LVL103:
1128:Generated_Source\PSoC6/CapSense_Filter.c **** 
 783              		.loc 1 1128 0
 784 000a 8800     		lsls	r0, r1, #2
 785 000c 4018     		adds	r0, r0, r1
 786 000e 4200     		lsls	r2, r0, #1
 787 0010 9968     		ldr	r1, [r3, #8]
 788              	.LVL104:
 789 0012 8918     		adds	r1, r1, r2
 790              	.LVL105:
1131:Generated_Source\PSoC6/CapSense_Filter.c **** 
 791              		.loc 1 1131 0
 792 0014 DD68     		ldr	r5, [r3, #12]
 793 0016 2800     		movs	r0, r5
 794              	.LVL106:
1133:Generated_Source\PSoC6/CapSense_Filter.c ****     {
 795              		.loc 1 1133 0
 796 0018 9A7E     		ldrb	r2, [r3, #26]
 797 001a 062A     		cmp	r2, #6
ARM GAS  C:\Users\salaz\AppData\Local\Temp\cctLNP9Y.s 			page 38


 798 001c 03D1     		bne	.L48
1142:Generated_Source\PSoC6/CapSense_Filter.c ****         #endif /* (CapSense_PROXIMITY_SENSOR_EN) */
 799              		.loc 1 1142 0
 800 001e 6300     		lsls	r3, r4, #1
 801              	.LVL107:
 802 0020 1C19     		adds	r4, r3, r4
 803              	.LVL108:
 804 0022 A000     		lsls	r0, r4, #2
 805 0024 2818     		adds	r0, r5, r0
 806              	.L48:
1146:Generated_Source\PSoC6/CapSense_Filter.c **** }
 807              		.loc 1 1146 0
 808 0026 FFF7FEFF 		bl	CapSense_InitializeAverageInternal
 809              	.LVL109:
1147:Generated_Source\PSoC6/CapSense_Filter.c **** 
 810              		.loc 1 1147 0
 811              		@ sp needed
 812 002a 70BD     		pop	{r4, r5, r6, pc}
 813              	.L50:
 814              		.align	2
 815              	.L49:
 816 002c 00000000 		.word	CapSense_dsFlash
 817              		.cfi_endproc
 818              	.LFE56:
 819              		.size	CapSense_InitializeAverage, .-CapSense_InitializeAverage
 820              		.section	.text.CapSense_RunAverageInternal,"ax",%progbits
 821              		.align	2
 822              		.global	CapSense_RunAverageInternal
 823              		.code	16
 824              		.thumb_func
 825              		.type	CapSense_RunAverageInternal, %function
 826              	CapSense_RunAverageInternal:
 827              	.LFB59:
1236:Generated_Source\PSoC6/CapSense_Filter.c **** 
1237:Generated_Source\PSoC6/CapSense_Filter.c **** 
1238:Generated_Source\PSoC6/CapSense_Filter.c **** /*******************************************************************************
1239:Generated_Source\PSoC6/CapSense_Filter.c **** * Function Name: CapSense_RunAverageInternal
1240:Generated_Source\PSoC6/CapSense_Filter.c **** ****************************************************************************//**
1241:Generated_Source\PSoC6/CapSense_Filter.c **** *
1242:Generated_Source\PSoC6/CapSense_Filter.c **** * \brief    Runs the average filter.
1243:Generated_Source\PSoC6/CapSense_Filter.c **** *
1244:Generated_Source\PSoC6/CapSense_Filter.c **** * \details  Runs the average filter.
1245:Generated_Source\PSoC6/CapSense_Filter.c **** *
1246:Generated_Source\PSoC6/CapSense_Filter.c **** * \param    ptrFilterHistObj The pointer to the filter RAM object of the sensor.
1247:Generated_Source\PSoC6/CapSense_Filter.c **** * \param    ptrSensorObj     The pointer to the sensor RAM object of the sensor.
1248:Generated_Source\PSoC6/CapSense_Filter.c **** * \param    wdType           Specifies the type of a widget.
1249:Generated_Source\PSoC6/CapSense_Filter.c **** *
1250:Generated_Source\PSoC6/CapSense_Filter.c **** *******************************************************************************/
1251:Generated_Source\PSoC6/CapSense_Filter.c **** void CapSense_RunAverageInternal(CapSense_PTR_FILTER_VARIANT ptrFilterHistObj,\
1252:Generated_Source\PSoC6/CapSense_Filter.c ****                                            CapSense_RAM_SNS_STRUCT *ptrSensorObj, uint32 wdType)
1253:Generated_Source\PSoC6/CapSense_Filter.c **** {
 828              		.loc 1 1253 0
 829              		.cfi_startproc
 830              		@ args = 0, pretend = 0, frame = 0
 831              		@ frame_needed = 0, uses_anonymous_args = 0
 832              	.LVL110:
 833 0000 F0B5     		push	{r4, r5, r6, r7, lr}
ARM GAS  C:\Users\salaz\AppData\Local\Temp\cctLNP9Y.s 			page 39


 834              		.cfi_def_cfa_offset 20
 835              		.cfi_offset 4, -20
 836              		.cfi_offset 5, -16
 837              		.cfi_offset 6, -12
 838              		.cfi_offset 7, -8
 839              		.cfi_offset 14, -4
 840              	.LVL111:
1254:Generated_Source\PSoC6/CapSense_Filter.c ****     uint32 freqChannel;
1255:Generated_Source\PSoC6/CapSense_Filter.c ****     uint32 temp;
1256:Generated_Source\PSoC6/CapSense_Filter.c **** 
1257:Generated_Source\PSoC6/CapSense_Filter.c ****     for(freqChannel = CapSense_NUM_SCAN_FREQS; freqChannel-- > 0u;)
 841              		.loc 1 1257 0
 842 0002 0123     		movs	r3, #1
 843 0004 19E0     		b	.L52
 844              	.LVL112:
 845              	.L54:
1258:Generated_Source\PSoC6/CapSense_Filter.c ****     {
1259:Generated_Source\PSoC6/CapSense_Filter.c ****         if ((CapSense_WD_TYPE_ENUM)wdType != CapSense_WD_PROXIMITY_E)
 846              		.loc 1 1259 0
 847 0006 FF23     		movs	r3, #255
 848 0008 1340     		ands	r3, r2
 849 000a 062B     		cmp	r3, #6
 850 000c 14D1     		bne	.L53
1260:Generated_Source\PSoC6/CapSense_Filter.c ****         {
1261:Generated_Source\PSoC6/CapSense_Filter.c ****             #if (CapSense_REGULAR_SENSOR_EN && CapSense_REGULAR_RC_AVERAGE_FILTER_EN)
1262:Generated_Source\PSoC6/CapSense_Filter.c ****                 #if (CapSense_REGULAR_AVERAGE_LEN == CapSense_AVERAGE_FILTER_LEN_2)
1263:Generated_Source\PSoC6/CapSense_Filter.c ****                     temp = ((uint32)ptrSensorObj->raw[freqChannel] +
1264:Generated_Source\PSoC6/CapSense_Filter.c ****                             (uint32)ptrFilterHistObj.ptrRegular->regularChannel[freqChannel].avgHis
1265:Generated_Source\PSoC6/CapSense_Filter.c ****                     ptrFilterHistObj.ptrRegular->regularChannel[freqChannel].avgHistory[0] = ptrSen
1266:Generated_Source\PSoC6/CapSense_Filter.c ****                     ptrSensorObj->raw[freqChannel] = CY_LO16(temp);
1267:Generated_Source\PSoC6/CapSense_Filter.c ****                 #else
1268:Generated_Source\PSoC6/CapSense_Filter.c ****                     temp = ((uint32)ptrSensorObj->raw[freqChannel] +
1269:Generated_Source\PSoC6/CapSense_Filter.c ****                             (uint32)ptrFilterHistObj.ptrRegular->regularChannel[freqChannel].avgHis
1270:Generated_Source\PSoC6/CapSense_Filter.c ****                             (uint32)ptrFilterHistObj.ptrRegular->regularChannel[freqChannel].avgHis
1271:Generated_Source\PSoC6/CapSense_Filter.c ****                             (uint32)ptrFilterHistObj.ptrRegular->regularChannel[freqChannel].avgHis
1272:Generated_Source\PSoC6/CapSense_Filter.c **** 
1273:Generated_Source\PSoC6/CapSense_Filter.c ****                     ptrFilterHistObj.ptrRegular->regularChannel[freqChannel].avgHistory[2u] =
1274:Generated_Source\PSoC6/CapSense_Filter.c ****                     ptrFilterHistObj.ptrRegular->regularChannel[freqChannel].avgHistory[1u];
1275:Generated_Source\PSoC6/CapSense_Filter.c ****                     ptrFilterHistObj.ptrRegular->regularChannel[freqChannel].avgHistory[1u] =
1276:Generated_Source\PSoC6/CapSense_Filter.c ****                     ptrFilterHistObj.ptrRegular->regularChannel[freqChannel].avgHistory[0];
1277:Generated_Source\PSoC6/CapSense_Filter.c ****                     ptrFilterHistObj.ptrRegular->regularChannel[freqChannel].avgHistory[0] = ptrSen
1278:Generated_Source\PSoC6/CapSense_Filter.c ****                     ptrSensorObj->raw[freqChannel] = CY_LO16(temp);
1279:Generated_Source\PSoC6/CapSense_Filter.c ****                 #endif /* CapSense_REGULAR_AVERAGE_LEN == CapSense_AVERAGE_FILTER_LEN_4 */
1280:Generated_Source\PSoC6/CapSense_Filter.c ****             #endif /* (CapSense_REGULAR_SENSOR_EN) */
1281:Generated_Source\PSoC6/CapSense_Filter.c ****         }
1282:Generated_Source\PSoC6/CapSense_Filter.c ****         else
1283:Generated_Source\PSoC6/CapSense_Filter.c ****         {
1284:Generated_Source\PSoC6/CapSense_Filter.c ****             #if (CapSense_PROXIMITY_SENSOR_EN && CapSense_PROX_RC_AVERAGE_FILTER_EN)
1285:Generated_Source\PSoC6/CapSense_Filter.c ****                 #if (CapSense_PROX_AVERAGE_LEN == CapSense_AVERAGE_FILTER_LEN_2)
1286:Generated_Source\PSoC6/CapSense_Filter.c ****                     temp = ((uint32)ptrSensorObj->raw[freqChannel] +
1287:Generated_Source\PSoC6/CapSense_Filter.c ****                             (uint32)ptrFilterHistObj.ptrProx->proxChannel[freqChannel].avgHistory[0
1288:Generated_Source\PSoC6/CapSense_Filter.c ****                     ptrFilterHistObj.ptrProx->proxChannel[freqChannel].avgHistory[0] = ptrSensorObj
1289:Generated_Source\PSoC6/CapSense_Filter.c ****                     ptrSensorObj->raw[freqChannel] = CY_LO16(temp);
1290:Generated_Source\PSoC6/CapSense_Filter.c ****                 #else
1291:Generated_Source\PSoC6/CapSense_Filter.c ****                     temp = ((uint32)ptrSensorObj->raw[freqChannel] +
 851              		.loc 1 1291 0
 852 000e 6700     		lsls	r7, r4, #1
ARM GAS  C:\Users\salaz\AppData\Local\Temp\cctLNP9Y.s 			page 40


 853 0010 7B5A     		ldrh	r3, [r7, r1]
 854 0012 9C46     		mov	ip, r3
1292:Generated_Source\PSoC6/CapSense_Filter.c ****                             (uint32)ptrFilterHistObj.ptrProx->proxChannel[freqChannel].avgHistory[0
 855              		.loc 1 1292 0
 856 0014 3E19     		adds	r6, r7, r4
 857 0016 B300     		lsls	r3, r6, #2
 858 0018 C318     		adds	r3, r0, r3
 859 001a DD88     		ldrh	r5, [r3, #6]
1291:Generated_Source\PSoC6/CapSense_Filter.c ****                             (uint32)ptrFilterHistObj.ptrProx->proxChannel[freqChannel].avgHistory[0
 860              		.loc 1 1291 0
 861 001c 6544     		add	r5, r5, ip
1293:Generated_Source\PSoC6/CapSense_Filter.c ****                             (uint32)ptrFilterHistObj.ptrProx->proxChannel[freqChannel].avgHistory[1
 862              		.loc 1 1293 0
 863 001e 1E89     		ldrh	r6, [r3, #8]
 864 0020 B446     		mov	ip, r6
1292:Generated_Source\PSoC6/CapSense_Filter.c ****                             (uint32)ptrFilterHistObj.ptrProx->proxChannel[freqChannel].avgHistory[0
 865              		.loc 1 1292 0
 866 0022 6544     		add	r5, r5, ip
1294:Generated_Source\PSoC6/CapSense_Filter.c ****                             (uint32)ptrFilterHistObj.ptrProx->proxChannel[freqChannel].avgHistory[2
 867              		.loc 1 1294 0
 868 0024 5E89     		ldrh	r6, [r3, #10]
1293:Generated_Source\PSoC6/CapSense_Filter.c ****                             (uint32)ptrFilterHistObj.ptrProx->proxChannel[freqChannel].avgHistory[1
 869              		.loc 1 1293 0
 870 0026 AD19     		adds	r5, r5, r6
1291:Generated_Source\PSoC6/CapSense_Filter.c ****                             (uint32)ptrFilterHistObj.ptrProx->proxChannel[freqChannel].avgHistory[0
 871              		.loc 1 1291 0
 872 0028 AD08     		lsrs	r5, r5, #2
 873              	.LVL113:
1295:Generated_Source\PSoC6/CapSense_Filter.c **** 
1296:Generated_Source\PSoC6/CapSense_Filter.c ****                     ptrFilterHistObj.ptrProx->proxChannel[freqChannel].avgHistory[2u] =
 874              		.loc 1 1296 0
 875 002a 6646     		mov	r6, ip
 876 002c 5E81     		strh	r6, [r3, #10]
1297:Generated_Source\PSoC6/CapSense_Filter.c ****                     ptrFilterHistObj.ptrProx->proxChannel[freqChannel].avgHistory[1u];
1298:Generated_Source\PSoC6/CapSense_Filter.c ****                     ptrFilterHistObj.ptrProx->proxChannel[freqChannel].avgHistory[1u] =
1299:Generated_Source\PSoC6/CapSense_Filter.c ****                     ptrFilterHistObj.ptrProx->proxChannel[freqChannel].avgHistory[0];
 877              		.loc 1 1299 0
 878 002e DE88     		ldrh	r6, [r3, #6]
1298:Generated_Source\PSoC6/CapSense_Filter.c ****                     ptrFilterHistObj.ptrProx->proxChannel[freqChannel].avgHistory[0];
 879              		.loc 1 1298 0
 880 0030 1E81     		strh	r6, [r3, #8]
1300:Generated_Source\PSoC6/CapSense_Filter.c ****                     ptrFilterHistObj.ptrProx->proxChannel[freqChannel].avgHistory[0] = ptrSensorObj
 881              		.loc 1 1300 0
 882 0032 7E5A     		ldrh	r6, [r7, r1]
 883 0034 DE80     		strh	r6, [r3, #6]
1301:Generated_Source\PSoC6/CapSense_Filter.c ****                     ptrSensorObj->raw[freqChannel] = CY_LO16(temp);
 884              		.loc 1 1301 0
 885 0036 CD53     		strh	r5, [r1, r7]
 886              	.LVL114:
 887              	.L53:
1253:Generated_Source\PSoC6/CapSense_Filter.c ****     uint32 freqChannel;
 888              		.loc 1 1253 0 discriminator 1
 889 0038 2300     		movs	r3, r4
 890              	.LVL115:
 891              	.L52:
1257:Generated_Source\PSoC6/CapSense_Filter.c ****     {
 892              		.loc 1 1257 0 discriminator 1
ARM GAS  C:\Users\salaz\AppData\Local\Temp\cctLNP9Y.s 			page 41


 893 003a 5C1E     		subs	r4, r3, #1
 894              	.LVL116:
 895 003c 002B     		cmp	r3, #0
 896 003e E2D1     		bne	.L54
1302:Generated_Source\PSoC6/CapSense_Filter.c ****                 #endif /* CapSense_PROX_AVERAGE_LEN == CapSense_AVERAGE_FILTER_LEN_4 */
1303:Generated_Source\PSoC6/CapSense_Filter.c ****             #endif /* (CapSense_PROXIMITY_SENSOR_EN) */
1304:Generated_Source\PSoC6/CapSense_Filter.c ****         }
1305:Generated_Source\PSoC6/CapSense_Filter.c ****     }
1306:Generated_Source\PSoC6/CapSense_Filter.c **** }
 897              		.loc 1 1306 0
 898              		@ sp needed
 899              	.LVL117:
 900 0040 F0BD     		pop	{r4, r5, r6, r7, pc}
 901              		.cfi_endproc
 902              	.LFE59:
 903              		.size	CapSense_RunAverageInternal, .-CapSense_RunAverageInternal
 904 0042 C046     		.section	.text.CapSense_RunAverage,"ax",%progbits
 905              		.align	2
 906              		.global	CapSense_RunAverage
 907              		.code	16
 908              		.thumb_func
 909              		.type	CapSense_RunAverage, %function
 910              	CapSense_RunAverage:
 911              	.LFB57:
1165:Generated_Source\PSoC6/CapSense_Filter.c ****     CapSense_FLASH_WD_STRUCT const *ptrWidget = &CapSense_dsFlash.wdgtArray[widgetId];
 912              		.loc 1 1165 0
 913              		.cfi_startproc
 914              		@ args = 0, pretend = 0, frame = 0
 915              		@ frame_needed = 0, uses_anonymous_args = 0
 916              	.LVL118:
 917 0000 70B5     		push	{r4, r5, r6, lr}
 918              		.cfi_def_cfa_offset 16
 919              		.cfi_offset 4, -16
 920              		.cfi_offset 5, -12
 921              		.cfi_offset 6, -8
 922              		.cfi_offset 14, -4
 923 0002 0C00     		movs	r4, r1
 924              	.LVL119:
1171:Generated_Source\PSoC6/CapSense_Filter.c ****     ptrSensor = &ptrSensor[sensorId];
 925              		.loc 1 1171 0
 926 0004 4001     		lsls	r0, r0, #5
 927              	.LVL120:
 928 0006 094B     		ldr	r3, .L57
 929 0008 1B18     		adds	r3, r3, r0
 930              	.LVL121:
1172:Generated_Source\PSoC6/CapSense_Filter.c **** 
 931              		.loc 1 1172 0
 932 000a 8800     		lsls	r0, r1, #2
 933 000c 4018     		adds	r0, r0, r1
 934 000e 4200     		lsls	r2, r0, #1
 935 0010 9968     		ldr	r1, [r3, #8]
 936              	.LVL122:
 937 0012 8918     		adds	r1, r1, r2
 938              	.LVL123:
1175:Generated_Source\PSoC6/CapSense_Filter.c **** 
 939              		.loc 1 1175 0
 940 0014 DD68     		ldr	r5, [r3, #12]
ARM GAS  C:\Users\salaz\AppData\Local\Temp\cctLNP9Y.s 			page 42


 941 0016 2800     		movs	r0, r5
 942              	.LVL124:
1177:Generated_Source\PSoC6/CapSense_Filter.c ****     {
 943              		.loc 1 1177 0
 944 0018 9A7E     		ldrb	r2, [r3, #26]
 945 001a 062A     		cmp	r2, #6
 946 001c 03D1     		bne	.L56
1186:Generated_Source\PSoC6/CapSense_Filter.c ****         #endif /* (CapSense_PROXIMITY_SENSOR_EN) */
 947              		.loc 1 1186 0
 948 001e 6300     		lsls	r3, r4, #1
 949              	.LVL125:
 950 0020 1C19     		adds	r4, r3, r4
 951              	.LVL126:
 952 0022 A000     		lsls	r0, r4, #2
 953 0024 2818     		adds	r0, r5, r0
 954              	.L56:
1190:Generated_Source\PSoC6/CapSense_Filter.c **** }
 955              		.loc 1 1190 0
 956 0026 FFF7FEFF 		bl	CapSense_RunAverageInternal
 957              	.LVL127:
1191:Generated_Source\PSoC6/CapSense_Filter.c **** 
 958              		.loc 1 1191 0
 959              		@ sp needed
 960 002a 70BD     		pop	{r4, r5, r6, pc}
 961              	.L58:
 962              		.align	2
 963              	.L57:
 964 002c 00000000 		.word	CapSense_dsFlash
 965              		.cfi_endproc
 966              	.LFE57:
 967              		.size	CapSense_RunAverage, .-CapSense_RunAverage
 968              		.section	.text.CapSense_RunNoiseEnvelope,"ax",%progbits
 969              		.align	2
 970              		.global	CapSense_RunNoiseEnvelope
 971              		.code	16
 972              		.thumb_func
 973              		.type	CapSense_RunNoiseEnvelope, %function
 974              	CapSense_RunNoiseEnvelope:
 975              	.LFB62:
1307:Generated_Source\PSoC6/CapSense_Filter.c **** #endif /* (CapSense_REGULAR_RC_AVERAGE_FILTER_EN || CapSense_PROX_RC_AVERAGE_FILTER_EN) */
1308:Generated_Source\PSoC6/CapSense_Filter.c **** 
1309:Generated_Source\PSoC6/CapSense_Filter.c **** #if (CapSense_ENABLE == CapSense_ALP_FILTER_EN)
1310:Generated_Source\PSoC6/CapSense_Filter.c **** /*******************************************************************************
1311:Generated_Source\PSoC6/CapSense_Filter.c **** * Function Name: CapSense_InitializeALP
1312:Generated_Source\PSoC6/CapSense_Filter.c **** ****************************************************************************//**
1313:Generated_Source\PSoC6/CapSense_Filter.c **** *
1314:Generated_Source\PSoC6/CapSense_Filter.c **** * \brief    Initializes the ALP filter history.
1315:Generated_Source\PSoC6/CapSense_Filter.c **** *
1316:Generated_Source\PSoC6/CapSense_Filter.c **** * \details  Initializes the ALP filter history.
1317:Generated_Source\PSoC6/CapSense_Filter.c **** *
1318:Generated_Source\PSoC6/CapSense_Filter.c **** * \param    widgetId Specifies the ID number of the widget.
1319:Generated_Source\PSoC6/CapSense_Filter.c **** * \param    sensorId Specifies the ID number of the sensor in the widget.
1320:Generated_Source\PSoC6/CapSense_Filter.c **** *
1321:Generated_Source\PSoC6/CapSense_Filter.c **** *******************************************************************************/
1322:Generated_Source\PSoC6/CapSense_Filter.c **** void CapSense_InitializeALP(uint32 widgetId, uint32 sensorId)
1323:Generated_Source\PSoC6/CapSense_Filter.c **** {
1324:Generated_Source\PSoC6/CapSense_Filter.c ****     CapSense_FLASH_WD_STRUCT const *ptrWidget = &CapSense_dsFlash.wdgtArray[widgetId];
ARM GAS  C:\Users\salaz\AppData\Local\Temp\cctLNP9Y.s 			page 43


1325:Generated_Source\PSoC6/CapSense_Filter.c ****     CapSense_RAM_SNS_STRUCT *ptrSensor = NULL;
1326:Generated_Source\PSoC6/CapSense_Filter.c ****     CapSense_PTR_FILTER_VARIANT ptrFilterHistObj;
1327:Generated_Source\PSoC6/CapSense_Filter.c **** 
1328:Generated_Source\PSoC6/CapSense_Filter.c ****     /* Find pointer to specified sensor object */
1329:Generated_Source\PSoC6/CapSense_Filter.c ****     ptrSensor = ptrWidget->ptr2SnsRam;
1330:Generated_Source\PSoC6/CapSense_Filter.c ****     ptrSensor = &ptrSensor[sensorId];
1331:Generated_Source\PSoC6/CapSense_Filter.c **** 
1332:Generated_Source\PSoC6/CapSense_Filter.c ****     /* Find pointer to specified filter sensor object */
1333:Generated_Source\PSoC6/CapSense_Filter.c ****     ptrFilterHistObj.ptr = ptrWidget->ptr2FltrHistory;
1334:Generated_Source\PSoC6/CapSense_Filter.c ****     ptrFilterHistObj.ptrAlp = &ptrFilterHistObj.ptrAlp[sensorId];
1335:Generated_Source\PSoC6/CapSense_Filter.c ****     CapSense_InitializeALPInternal(ptrFilterHistObj, ptrSensor, (uint32)ptrWidget->wdgtType);
1336:Generated_Source\PSoC6/CapSense_Filter.c **** }
1337:Generated_Source\PSoC6/CapSense_Filter.c **** 
1338:Generated_Source\PSoC6/CapSense_Filter.c **** 
1339:Generated_Source\PSoC6/CapSense_Filter.c **** /*******************************************************************************
1340:Generated_Source\PSoC6/CapSense_Filter.c **** * Function Name: CapSense_RunALP
1341:Generated_Source\PSoC6/CapSense_Filter.c **** ****************************************************************************//**
1342:Generated_Source\PSoC6/CapSense_Filter.c **** *
1343:Generated_Source\PSoC6/CapSense_Filter.c **** * \brief    Executes the ALP filter algorithm on a sensor indicated by an input
1344:Generated_Source\PSoC6/CapSense_Filter.c **** *           parameter.
1345:Generated_Source\PSoC6/CapSense_Filter.c **** *
1346:Generated_Source\PSoC6/CapSense_Filter.c **** * \details  Executes the ALP filter algorithm on a sensor indicated by an input
1347:Generated_Source\PSoC6/CapSense_Filter.c **** *           parameter.
1348:Generated_Source\PSoC6/CapSense_Filter.c **** *
1349:Generated_Source\PSoC6/CapSense_Filter.c **** * \param    widgetId Specifies the ID number of the widget.
1350:Generated_Source\PSoC6/CapSense_Filter.c **** * \param    sensorId Specifies the ID number of the sensor in the widget.
1351:Generated_Source\PSoC6/CapSense_Filter.c **** *
1352:Generated_Source\PSoC6/CapSense_Filter.c **** *******************************************************************************/
1353:Generated_Source\PSoC6/CapSense_Filter.c **** void CapSense_RunALP(uint32 widgetId, uint32 sensorId)
1354:Generated_Source\PSoC6/CapSense_Filter.c **** {
1355:Generated_Source\PSoC6/CapSense_Filter.c ****     CapSense_FLASH_WD_STRUCT const *ptrWidget = &CapSense_dsFlash.wdgtArray[widgetId];
1356:Generated_Source\PSoC6/CapSense_Filter.c ****     CapSense_RAM_SNS_STRUCT *ptrSensor = NULL;
1357:Generated_Source\PSoC6/CapSense_Filter.c ****     CapSense_PTR_FILTER_VARIANT ptrFilterHistObj;
1358:Generated_Source\PSoC6/CapSense_Filter.c ****     ALP_FLTR_CONFIG_STRUCT alpFilterConfig;
1359:Generated_Source\PSoC6/CapSense_Filter.c ****     ALP_FLTR_CONFIG_STRUCT *ptrAlpFilterConfig = &alpFilterConfig;
1360:Generated_Source\PSoC6/CapSense_Filter.c ****     CapSense_RAM_WD_BASE_STRUCT *ptrRamWidget = ptrWidget->ptr2WdgtRam;
1361:Generated_Source\PSoC6/CapSense_Filter.c **** 
1362:Generated_Source\PSoC6/CapSense_Filter.c ****     /* Find pointer to specified sensor object */
1363:Generated_Source\PSoC6/CapSense_Filter.c ****     ptrSensor = ptrWidget->ptr2SnsRam;
1364:Generated_Source\PSoC6/CapSense_Filter.c ****     ptrSensor = &ptrSensor[sensorId];
1365:Generated_Source\PSoC6/CapSense_Filter.c **** 
1366:Generated_Source\PSoC6/CapSense_Filter.c ****     ptrAlpFilterConfig->configParam0 = ptrRamWidget->alpOnTh;
1367:Generated_Source\PSoC6/CapSense_Filter.c ****     ptrAlpFilterConfig->configParam1 = ptrRamWidget->alpOffTh;
1368:Generated_Source\PSoC6/CapSense_Filter.c ****     ptrAlpFilterConfig->configParam2 = ptrRamWidget->fingerTh;
1369:Generated_Source\PSoC6/CapSense_Filter.c ****     ptrAlpFilterConfig->configParam3 = ptrRamWidget->noiseTh;
1370:Generated_Source\PSoC6/CapSense_Filter.c ****     ptrAlpFilterConfig->configParam4 = ptrRamWidget->hysteresis;
1371:Generated_Source\PSoC6/CapSense_Filter.c **** 
1372:Generated_Source\PSoC6/CapSense_Filter.c ****     /* Find pointer to specified filter sensor object */
1373:Generated_Source\PSoC6/CapSense_Filter.c ****     ptrFilterHistObj.ptr = ptrWidget->ptr2FltrHistory;
1374:Generated_Source\PSoC6/CapSense_Filter.c ****     ptrFilterHistObj.ptrAlp = &ptrFilterHistObj.ptrAlp[sensorId];
1375:Generated_Source\PSoC6/CapSense_Filter.c **** 
1376:Generated_Source\PSoC6/CapSense_Filter.c ****     if ((CapSense_WD_TYPE_ENUM)ptrWidget->wdgtType != CapSense_WD_PROXIMITY_E)
1377:Generated_Source\PSoC6/CapSense_Filter.c ****     {
1378:Generated_Source\PSoC6/CapSense_Filter.c ****         #if (CapSense_REGULAR_SENSOR_EN)
1379:Generated_Source\PSoC6/CapSense_Filter.c ****             ptrAlpFilterConfig->configParam5 = CapSense_REGULAR_RC_ALP_FILTER_COEFF;
1380:Generated_Source\PSoC6/CapSense_Filter.c ****         #endif /* (CapSense_REGULAR_SENSOR_EN) */
1381:Generated_Source\PSoC6/CapSense_Filter.c ****     }
ARM GAS  C:\Users\salaz\AppData\Local\Temp\cctLNP9Y.s 			page 44


1382:Generated_Source\PSoC6/CapSense_Filter.c ****     else
1383:Generated_Source\PSoC6/CapSense_Filter.c ****     {
1384:Generated_Source\PSoC6/CapSense_Filter.c ****         #if (CapSense_PROXIMITY_SENSOR_EN)
1385:Generated_Source\PSoC6/CapSense_Filter.c ****             ptrAlpFilterConfig->configParam5 = CapSense_PROX_RC_ALP_FILTER_COEFF;
1386:Generated_Source\PSoC6/CapSense_Filter.c ****         #endif /* (CapSense_PROXIMITY_SENSOR_EN) */
1387:Generated_Source\PSoC6/CapSense_Filter.c ****     }
1388:Generated_Source\PSoC6/CapSense_Filter.c ****     CapSense_RunALPInternal(ptrFilterHistObj, ptrAlpFilterConfig, ptrSensor, (uint32)ptrWidget->wdg
1389:Generated_Source\PSoC6/CapSense_Filter.c **** }
1390:Generated_Source\PSoC6/CapSense_Filter.c **** 
1391:Generated_Source\PSoC6/CapSense_Filter.c **** 
1392:Generated_Source\PSoC6/CapSense_Filter.c **** /*******************************************************************************
1393:Generated_Source\PSoC6/CapSense_Filter.c **** * Function Name: CapSense_InitializeALPInternal
1394:Generated_Source\PSoC6/CapSense_Filter.c **** ****************************************************************************//**
1395:Generated_Source\PSoC6/CapSense_Filter.c **** *
1396:Generated_Source\PSoC6/CapSense_Filter.c **** * \brief    Initializes the ALP filter.
1397:Generated_Source\PSoC6/CapSense_Filter.c **** *
1398:Generated_Source\PSoC6/CapSense_Filter.c **** * \details  Initializes the ALP filter.
1399:Generated_Source\PSoC6/CapSense_Filter.c **** *
1400:Generated_Source\PSoC6/CapSense_Filter.c **** * \param    ptrFilterHistObj The pointer to the filter RAM object of the sensor.
1401:Generated_Source\PSoC6/CapSense_Filter.c **** * \param    ptrSensorObj     The pointer to the sensor RAM object of the sensor.
1402:Generated_Source\PSoC6/CapSense_Filter.c **** * \param    wdType           Specifies the type of a widget.
1403:Generated_Source\PSoC6/CapSense_Filter.c **** *
1404:Generated_Source\PSoC6/CapSense_Filter.c **** *******************************************************************************/
1405:Generated_Source\PSoC6/CapSense_Filter.c **** void CapSense_InitializeALPInternal(CapSense_PTR_FILTER_VARIANT ptrFilterHistObj,
1406:Generated_Source\PSoC6/CapSense_Filter.c ****                                             CapSense_RAM_SNS_STRUCT *ptrSensorObj,
1407:Generated_Source\PSoC6/CapSense_Filter.c ****                                             uint32 wdType)
1408:Generated_Source\PSoC6/CapSense_Filter.c **** {
1409:Generated_Source\PSoC6/CapSense_Filter.c ****     uint32 freqChannel;
1410:Generated_Source\PSoC6/CapSense_Filter.c **** 
1411:Generated_Source\PSoC6/CapSense_Filter.c ****     for(freqChannel = CapSense_NUM_SCAN_FREQS; freqChannel-- > 0u;)
1412:Generated_Source\PSoC6/CapSense_Filter.c ****     {
1413:Generated_Source\PSoC6/CapSense_Filter.c ****         if ((CapSense_WD_TYPE_ENUM)wdType != CapSense_WD_PROXIMITY_E)
1414:Generated_Source\PSoC6/CapSense_Filter.c ****         {
1415:Generated_Source\PSoC6/CapSense_Filter.c ****             #if (CapSense_REGULAR_SENSOR_EN && CapSense_REGULAR_RC_ALP_FILTER_EN)
1416:Generated_Source\PSoC6/CapSense_Filter.c ****                 ALP_Initialize(&ptrFilterHistObj.ptrAlp->channel[freqChannel], &ptrSensorObj->raw[f
1417:Generated_Source\PSoC6/CapSense_Filter.c ****             #endif
1418:Generated_Source\PSoC6/CapSense_Filter.c ****         }
1419:Generated_Source\PSoC6/CapSense_Filter.c ****         else
1420:Generated_Source\PSoC6/CapSense_Filter.c ****         {
1421:Generated_Source\PSoC6/CapSense_Filter.c ****             #if (CapSense_PROXIMITY_SENSOR_EN && CapSense_PROX_RC_ALP_FILTER_EN)
1422:Generated_Source\PSoC6/CapSense_Filter.c ****                 ALP_Initialize(&ptrFilterHistObj.ptrAlp->channel[freqChannel], &ptrSensorObj->raw[f
1423:Generated_Source\PSoC6/CapSense_Filter.c ****             #endif
1424:Generated_Source\PSoC6/CapSense_Filter.c ****         }
1425:Generated_Source\PSoC6/CapSense_Filter.c ****     }
1426:Generated_Source\PSoC6/CapSense_Filter.c **** }
1427:Generated_Source\PSoC6/CapSense_Filter.c **** 
1428:Generated_Source\PSoC6/CapSense_Filter.c **** /*******************************************************************************
1429:Generated_Source\PSoC6/CapSense_Filter.c **** * Function Name: CapSense_ConfigRunALPInternal
1430:Generated_Source\PSoC6/CapSense_Filter.c **** ****************************************************************************//**
1431:Generated_Source\PSoC6/CapSense_Filter.c **** *
1432:Generated_Source\PSoC6/CapSense_Filter.c **** * \brief    Prepares ALP configuration structure and runs the filter.
1433:Generated_Source\PSoC6/CapSense_Filter.c **** *
1434:Generated_Source\PSoC6/CapSense_Filter.c **** * \details  Prepares ALP configuration structure and runs the filter.
1435:Generated_Source\PSoC6/CapSense_Filter.c **** *
1436:Generated_Source\PSoC6/CapSense_Filter.c **** * \param    ptrFilterHistObj The pointer to the filter RAM object of the sensor.
1437:Generated_Source\PSoC6/CapSense_Filter.c **** * \param    ptrRamWdgt       The pointer to the RAM widget object.
1438:Generated_Source\PSoC6/CapSense_Filter.c **** * \param    ptrSensorObj     The pointer to the sensor RAM object of the sensor.
ARM GAS  C:\Users\salaz\AppData\Local\Temp\cctLNP9Y.s 			page 45


1439:Generated_Source\PSoC6/CapSense_Filter.c **** * \param    wdType           Specifies the type of a widget.
1440:Generated_Source\PSoC6/CapSense_Filter.c **** *
1441:Generated_Source\PSoC6/CapSense_Filter.c **** *******************************************************************************/
1442:Generated_Source\PSoC6/CapSense_Filter.c **** void CapSense_ConfigRunALPInternal(CapSense_PTR_FILTER_VARIANT ptrFilterHistObj,
1443:Generated_Source\PSoC6/CapSense_Filter.c ****                                     CapSense_RAM_WD_BASE_STRUCT *ptrRamWdgt,
1444:Generated_Source\PSoC6/CapSense_Filter.c ****                                     CapSense_RAM_SNS_STRUCT *ptrSensorObj,
1445:Generated_Source\PSoC6/CapSense_Filter.c ****                                     uint32 wdType)
1446:Generated_Source\PSoC6/CapSense_Filter.c **** {
1447:Generated_Source\PSoC6/CapSense_Filter.c ****     ALP_FLTR_CONFIG_STRUCT alpFilterConfig;
1448:Generated_Source\PSoC6/CapSense_Filter.c **** 
1449:Generated_Source\PSoC6/CapSense_Filter.c ****     alpFilterConfig.configParam0 = ptrRamWdgt->alpOnTh;
1450:Generated_Source\PSoC6/CapSense_Filter.c ****     alpFilterConfig.configParam1 = ptrRamWdgt->alpOffTh;
1451:Generated_Source\PSoC6/CapSense_Filter.c ****     alpFilterConfig.configParam2 = ptrRamWdgt->fingerTh;
1452:Generated_Source\PSoC6/CapSense_Filter.c ****     alpFilterConfig.configParam3 = ptrRamWdgt->noiseTh;
1453:Generated_Source\PSoC6/CapSense_Filter.c ****     alpFilterConfig.configParam4 = ptrRamWdgt->hysteresis;
1454:Generated_Source\PSoC6/CapSense_Filter.c **** 
1455:Generated_Source\PSoC6/CapSense_Filter.c ****     CapSense_RunALPInternal(ptrFilterHistObj, &alpFilterConfig, ptrSensorObj, wdType);
1456:Generated_Source\PSoC6/CapSense_Filter.c **** }
1457:Generated_Source\PSoC6/CapSense_Filter.c **** 
1458:Generated_Source\PSoC6/CapSense_Filter.c **** /*******************************************************************************
1459:Generated_Source\PSoC6/CapSense_Filter.c **** * Function Name: CapSense_RunALPInternal
1460:Generated_Source\PSoC6/CapSense_Filter.c **** ****************************************************************************//**
1461:Generated_Source\PSoC6/CapSense_Filter.c **** *
1462:Generated_Source\PSoC6/CapSense_Filter.c **** * \brief    Runs the ALP filter.
1463:Generated_Source\PSoC6/CapSense_Filter.c **** *
1464:Generated_Source\PSoC6/CapSense_Filter.c **** * \details  Runs the ALP filter.
1465:Generated_Source\PSoC6/CapSense_Filter.c **** *
1466:Generated_Source\PSoC6/CapSense_Filter.c **** * \param    ptrFilterHistObj The pointer to the filter RAM object of the sensor.
1467:Generated_Source\PSoC6/CapSense_Filter.c **** * \param    ptrAlpFilterConfig The pointer to the filter configuration object of the sensor.
1468:Generated_Source\PSoC6/CapSense_Filter.c **** * \param    ptrSensorObj     The pointer to the sensor RAM object of the sensor.
1469:Generated_Source\PSoC6/CapSense_Filter.c **** * \param    wdType           Specifies the type of a widget.
1470:Generated_Source\PSoC6/CapSense_Filter.c **** *
1471:Generated_Source\PSoC6/CapSense_Filter.c **** *******************************************************************************/
1472:Generated_Source\PSoC6/CapSense_Filter.c **** void CapSense_RunALPInternal(CapSense_PTR_FILTER_VARIANT ptrFilterHistObj,
1473:Generated_Source\PSoC6/CapSense_Filter.c ****                                     ALP_FLTR_CONFIG_STRUCT *ptrAlpFilterConfig,
1474:Generated_Source\PSoC6/CapSense_Filter.c ****                                     CapSense_RAM_SNS_STRUCT *ptrSensorObj,
1475:Generated_Source\PSoC6/CapSense_Filter.c ****                                     uint32 wdType)
1476:Generated_Source\PSoC6/CapSense_Filter.c **** {
1477:Generated_Source\PSoC6/CapSense_Filter.c ****     uint32 freqChannel;
1478:Generated_Source\PSoC6/CapSense_Filter.c **** 
1479:Generated_Source\PSoC6/CapSense_Filter.c ****     for(freqChannel = CapSense_NUM_SCAN_FREQS; freqChannel-- > 0u;)
1480:Generated_Source\PSoC6/CapSense_Filter.c ****     {
1481:Generated_Source\PSoC6/CapSense_Filter.c ****         if ((CapSense_WD_TYPE_ENUM)wdType != CapSense_WD_PROXIMITY_E)
1482:Generated_Source\PSoC6/CapSense_Filter.c ****         {
1483:Generated_Source\PSoC6/CapSense_Filter.c ****             #if (CapSense_REGULAR_SENSOR_EN && CapSense_REGULAR_RC_ALP_FILTER_EN)
1484:Generated_Source\PSoC6/CapSense_Filter.c ****                 ptrAlpFilterConfig->configParam5 = CapSense_REGULAR_RC_ALP_FILTER_COEFF;
1485:Generated_Source\PSoC6/CapSense_Filter.c ****                 ALP_Run(&ptrFilterHistObj.ptrAlp->channel[freqChannel], ptrAlpFilterConfig, &ptrSen
1486:Generated_Source\PSoC6/CapSense_Filter.c ****             #endif
1487:Generated_Source\PSoC6/CapSense_Filter.c ****         }
1488:Generated_Source\PSoC6/CapSense_Filter.c ****         else
1489:Generated_Source\PSoC6/CapSense_Filter.c ****         {
1490:Generated_Source\PSoC6/CapSense_Filter.c ****             #if (CapSense_PROXIMITY_SENSOR_EN && CapSense_PROX_RC_ALP_FILTER_EN)
1491:Generated_Source\PSoC6/CapSense_Filter.c ****                 ptrAlpFilterConfig->configParam5 = CapSense_PROX_RC_ALP_FILTER_COEFF;
1492:Generated_Source\PSoC6/CapSense_Filter.c ****                 ALP_Run(&ptrFilterHistObj.ptrAlp->channel[freqChannel], ptrAlpFilterConfig, &ptrSen
1493:Generated_Source\PSoC6/CapSense_Filter.c ****             #endif
1494:Generated_Source\PSoC6/CapSense_Filter.c ****         }
1495:Generated_Source\PSoC6/CapSense_Filter.c ****     }
ARM GAS  C:\Users\salaz\AppData\Local\Temp\cctLNP9Y.s 			page 46


1496:Generated_Source\PSoC6/CapSense_Filter.c **** }
1497:Generated_Source\PSoC6/CapSense_Filter.c **** #endif /* (CapSense_ENABLE == CapSense_ALP_FILTER_EN) */
1498:Generated_Source\PSoC6/CapSense_Filter.c **** 
1499:Generated_Source\PSoC6/CapSense_Filter.c **** #if (CapSense_ENABLE == CapSense_RC_FILTER_EN)
1500:Generated_Source\PSoC6/CapSense_Filter.c **** /*******************************************************************************
1501:Generated_Source\PSoC6/CapSense_Filter.c **** * Function Name: CapSense_FtRunEnabledFilters
1502:Generated_Source\PSoC6/CapSense_Filter.c **** ****************************************************************************//**
1503:Generated_Source\PSoC6/CapSense_Filter.c **** *
1504:Generated_Source\PSoC6/CapSense_Filter.c **** * \brief    Runs all enabled filters.
1505:Generated_Source\PSoC6/CapSense_Filter.c **** *
1506:Generated_Source\PSoC6/CapSense_Filter.c **** * \details  Runs all enabled filters.
1507:Generated_Source\PSoC6/CapSense_Filter.c **** *
1508:Generated_Source\PSoC6/CapSense_Filter.c **** * \param    widgetId Specifies the ID number of a widget to update the IIR filter history.*
1509:Generated_Source\PSoC6/CapSense_Filter.c **** * \param    sensorId Specifies the ID number of a sensor in the widget to update the IIR
1510:Generated_Source\PSoC6/CapSense_Filter.c **** *           filter history.
1511:Generated_Source\PSoC6/CapSense_Filter.c **** *
1512:Generated_Source\PSoC6/CapSense_Filter.c **** *******************************************************************************/
1513:Generated_Source\PSoC6/CapSense_Filter.c **** void CapSense_FtRunEnabledFilters(uint32 widgetId, uint32 sensorId)
1514:Generated_Source\PSoC6/CapSense_Filter.c **** {
1515:Generated_Source\PSoC6/CapSense_Filter.c ****     CapSense_FLASH_WD_STRUCT const *ptrWidget = &CapSense_dsFlash.wdgtArray[widgetId];
1516:Generated_Source\PSoC6/CapSense_Filter.c ****     CapSense_RAM_SNS_STRUCT *ptrSensor = NULL;
1517:Generated_Source\PSoC6/CapSense_Filter.c ****     CapSense_PTR_FILTER_VARIANT ptrFilterHistObj;
1518:Generated_Source\PSoC6/CapSense_Filter.c **** 
1519:Generated_Source\PSoC6/CapSense_Filter.c ****     /* Find pointer to specified sensor object */
1520:Generated_Source\PSoC6/CapSense_Filter.c ****     ptrSensor = ptrWidget->ptr2SnsRam;
1521:Generated_Source\PSoC6/CapSense_Filter.c ****     ptrSensor = &ptrSensor[sensorId];
1522:Generated_Source\PSoC6/CapSense_Filter.c **** 
1523:Generated_Source\PSoC6/CapSense_Filter.c ****     /* Find pointer to specified filter sensor object */
1524:Generated_Source\PSoC6/CapSense_Filter.c ****     ptrFilterHistObj.ptr = ptrWidget->ptr2FltrHistory;
1525:Generated_Source\PSoC6/CapSense_Filter.c **** 
1526:Generated_Source\PSoC6/CapSense_Filter.c ****     if ((CapSense_WD_TYPE_ENUM)ptrWidget->wdgtType != CapSense_WD_PROXIMITY_E)
1527:Generated_Source\PSoC6/CapSense_Filter.c ****     {
1528:Generated_Source\PSoC6/CapSense_Filter.c ****         #if (0u != CapSense_REGULAR_RC_ALP_FILTER_EN)
1529:Generated_Source\PSoC6/CapSense_Filter.c ****             ptrFilterHistObj.ptr = &ptrFilterHistObj.ptrAlp[sensorId];
1530:Generated_Source\PSoC6/CapSense_Filter.c ****         #elif (0u != CapSense_REGULAR_RC_FILTER_EN)
1531:Generated_Source\PSoC6/CapSense_Filter.c ****             ptrFilterHistObj.ptr = &ptrFilterHistObj.ptrRegular[sensorId];
1532:Generated_Source\PSoC6/CapSense_Filter.c ****         #endif
1533:Generated_Source\PSoC6/CapSense_Filter.c ****     }
1534:Generated_Source\PSoC6/CapSense_Filter.c ****     else
1535:Generated_Source\PSoC6/CapSense_Filter.c ****     {
1536:Generated_Source\PSoC6/CapSense_Filter.c ****         #if (0u != CapSense_PROX_RC_ALP_FILTER_EN)
1537:Generated_Source\PSoC6/CapSense_Filter.c ****             ptrFilterHistObj.ptr = &ptrFilterHistObj.ptrAlp[sensorId];
1538:Generated_Source\PSoC6/CapSense_Filter.c ****         #elif (0u != CapSense_PROX_RC_FILTER_EN)
1539:Generated_Source\PSoC6/CapSense_Filter.c ****             ptrFilterHistObj.ptr = &ptrFilterHistObj.ptrProx[sensorId];
1540:Generated_Source\PSoC6/CapSense_Filter.c ****         #endif
1541:Generated_Source\PSoC6/CapSense_Filter.c ****     }
1542:Generated_Source\PSoC6/CapSense_Filter.c **** 
1543:Generated_Source\PSoC6/CapSense_Filter.c ****     CapSense_FtRunEnabledFiltersInternal(ptrFilterHistObj, ptrSensor, (uint32)ptrWidget->wdgtType);
1544:Generated_Source\PSoC6/CapSense_Filter.c ****     #if (CapSense_ALP_FILTER_EN)
1545:Generated_Source\PSoC6/CapSense_Filter.c ****         CapSense_ConfigRunALPInternal(ptrFilterHistObj, ptrWidget->ptr2WdgtRam, ptrSensor, (uint32)
1546:Generated_Source\PSoC6/CapSense_Filter.c ****     #endif
1547:Generated_Source\PSoC6/CapSense_Filter.c **** }
1548:Generated_Source\PSoC6/CapSense_Filter.c **** 
1549:Generated_Source\PSoC6/CapSense_Filter.c **** 
1550:Generated_Source\PSoC6/CapSense_Filter.c **** /*******************************************************************************
1551:Generated_Source\PSoC6/CapSense_Filter.c **** * Function Name: CapSense_FtRunEnabledFiltersInternal
1552:Generated_Source\PSoC6/CapSense_Filter.c **** ****************************************************************************//**
ARM GAS  C:\Users\salaz\AppData\Local\Temp\cctLNP9Y.s 			page 47


1553:Generated_Source\PSoC6/CapSense_Filter.c **** *
1554:Generated_Source\PSoC6/CapSense_Filter.c **** * \brief    Runs all enabled filters.
1555:Generated_Source\PSoC6/CapSense_Filter.c **** *
1556:Generated_Source\PSoC6/CapSense_Filter.c **** * \details  Runs all enabled filters.
1557:Generated_Source\PSoC6/CapSense_Filter.c **** *
1558:Generated_Source\PSoC6/CapSense_Filter.c **** * \param    ptrFilterHistObj The pointer to the filter RAM object of the sensor.
1559:Generated_Source\PSoC6/CapSense_Filter.c **** * \param    ptrSensorObj     The pointer to the sensor RAM object of the sensor.
1560:Generated_Source\PSoC6/CapSense_Filter.c **** * \param    wdType           Specifies the type of a widget.
1561:Generated_Source\PSoC6/CapSense_Filter.c **** *
1562:Generated_Source\PSoC6/CapSense_Filter.c **** *******************************************************************************/
1563:Generated_Source\PSoC6/CapSense_Filter.c **** void CapSense_FtRunEnabledFiltersInternal(CapSense_PTR_FILTER_VARIANT ptrFilterHistObj,
1564:Generated_Source\PSoC6/CapSense_Filter.c ****                                                   CapSense_RAM_SNS_STRUCT *ptrSensorObj, uint32 wdT
1565:Generated_Source\PSoC6/CapSense_Filter.c **** {
1566:Generated_Source\PSoC6/CapSense_Filter.c ****     #if (CapSense_REGULAR_RC_MEDIAN_FILTER_EN || CapSense_PROX_RC_MEDIAN_FILTER_EN)
1567:Generated_Source\PSoC6/CapSense_Filter.c ****         CapSense_RunMedianInternal(ptrFilterHistObj, ptrSensorObj, wdType);
1568:Generated_Source\PSoC6/CapSense_Filter.c ****     #endif /* (CapSense_REGULAR_RC_MEDIAN_FILTER_EN || CapSense_PROX_RC_MEDIAN_FILTER_EN) */
1569:Generated_Source\PSoC6/CapSense_Filter.c **** 
1570:Generated_Source\PSoC6/CapSense_Filter.c ****     #if (CapSense_REGULAR_RC_IIR_FILTER_EN || CapSense_PROX_RC_IIR_FILTER_EN)
1571:Generated_Source\PSoC6/CapSense_Filter.c ****         CapSense_RunIIRInternal(ptrFilterHistObj, ptrSensorObj, wdType);
1572:Generated_Source\PSoC6/CapSense_Filter.c ****     #endif /* (CapSense_REGULAR_RC_IIR_FILTER_EN || CapSense_PROX_RC_IIR_FILTER_EN) */
1573:Generated_Source\PSoC6/CapSense_Filter.c **** 
1574:Generated_Source\PSoC6/CapSense_Filter.c ****     #if (CapSense_REGULAR_RC_AVERAGE_FILTER_EN || CapSense_PROX_RC_AVERAGE_FILTER_EN)
1575:Generated_Source\PSoC6/CapSense_Filter.c ****         CapSense_RunAverageInternal(ptrFilterHistObj, ptrSensorObj, wdType);
1576:Generated_Source\PSoC6/CapSense_Filter.c ****     #endif /* (CapSense_REGULAR_RC_AVERAGE_FILTER_EN || CapSense_PROX_RC_AVERAGE_FILTER_EN) */
1577:Generated_Source\PSoC6/CapSense_Filter.c **** }
1578:Generated_Source\PSoC6/CapSense_Filter.c **** #endif /* (CapSense_ENABLE == CapSense_RC_FILTER_EN) */
1579:Generated_Source\PSoC6/CapSense_Filter.c **** 
1580:Generated_Source\PSoC6/CapSense_Filter.c **** 
1581:Generated_Source\PSoC6/CapSense_Filter.c **** #if (0u != (CapSense_CSD_AUTOTUNE & CapSense_CSD_SS_TH_EN))
1582:Generated_Source\PSoC6/CapSense_Filter.c **** /*******************************************************************************
1583:Generated_Source\PSoC6/CapSense_Filter.c **** * Function Name: CapSense_RunNoiseEnvelope
1584:Generated_Source\PSoC6/CapSense_Filter.c **** ****************************************************************************//**
1585:Generated_Source\PSoC6/CapSense_Filter.c **** *
1586:Generated_Source\PSoC6/CapSense_Filter.c **** * \brief    Executes the noise envelope  filter algorithm on a sensor indicated by
1587:Generated_Source\PSoC6/CapSense_Filter.c **** *           an input parameter to measure the pk-to-pk noise in the sensor raw count.
1588:Generated_Source\PSoC6/CapSense_Filter.c **** *
1589:Generated_Source\PSoC6/CapSense_Filter.c **** * \details  Executes the noise envelope  filter algorithm on a sensor indicated by
1590:Generated_Source\PSoC6/CapSense_Filter.c **** *           an input parameter to measure the pk-to-pk noise in the sensor raw count.
1591:Generated_Source\PSoC6/CapSense_Filter.c **** *
1592:Generated_Source\PSoC6/CapSense_Filter.c **** * \param    widgetId Specifies the ID number of the widget.
1593:Generated_Source\PSoC6/CapSense_Filter.c **** * \param    sensorId Specifies the ID number of the sensor in the widget.
1594:Generated_Source\PSoC6/CapSense_Filter.c **** *
1595:Generated_Source\PSoC6/CapSense_Filter.c **** *******************************************************************************/
1596:Generated_Source\PSoC6/CapSense_Filter.c **** void CapSense_RunNoiseEnvelope(uint32 widgetId, uint32 sensorId)
1597:Generated_Source\PSoC6/CapSense_Filter.c **** {
 976              		.loc 1 1597 0
 977              		.cfi_startproc
 978              		@ args = 0, pretend = 0, frame = 0
 979              		@ frame_needed = 0, uses_anonymous_args = 0
 980              	.LVL128:
 981 0000 70B5     		push	{r4, r5, r6, lr}
 982              		.cfi_def_cfa_offset 16
 983              		.cfi_offset 4, -16
 984              		.cfi_offset 5, -12
 985              		.cfi_offset 6, -8
 986              		.cfi_offset 14, -4
 987              	.LVL129:
ARM GAS  C:\Users\salaz\AppData\Local\Temp\cctLNP9Y.s 			page 48


1598:Generated_Source\PSoC6/CapSense_Filter.c ****     CapSense_FLASH_WD_STRUCT const *ptrWidget = &CapSense_dsFlash.wdgtArray[widgetId];
1599:Generated_Source\PSoC6/CapSense_Filter.c ****     CapSense_RAM_WD_BASE_STRUCT *ptrWidgetRam = ptrWidget->ptr2WdgtRam;
 988              		.loc 1 1599 0
 989 0002 4001     		lsls	r0, r0, #5
 990              	.LVL130:
 991 0004 084B     		ldr	r3, .L60
 992 0006 1818     		adds	r0, r3, r0
 993              	.LVL131:
 994 0008 4668     		ldr	r6, [r0, #4]
 995              	.LVL132:
1600:Generated_Source\PSoC6/CapSense_Filter.c ****     CapSense_RAM_SNS_STRUCT *ptrSensor = NULL;
1601:Generated_Source\PSoC6/CapSense_Filter.c ****     SMARTSENSE_CSD_NOISE_ENVELOPE_STRUCT *ptrNoiseEnvelope = NULL;
1602:Generated_Source\PSoC6/CapSense_Filter.c **** 
1603:Generated_Source\PSoC6/CapSense_Filter.c ****     /* Find pointer to specified sensor object */
1604:Generated_Source\PSoC6/CapSense_Filter.c ****     ptrSensor = ptrWidget->ptr2SnsRam;
 996              		.loc 1 1604 0
 997 000a 8568     		ldr	r5, [r0, #8]
 998              	.LVL133:
1605:Generated_Source\PSoC6/CapSense_Filter.c ****     ptrSensor = &ptrSensor[sensorId];
 999              		.loc 1 1605 0
 1000 000c 8B00     		lsls	r3, r1, #2
 1001 000e 5B18     		adds	r3, r3, r1
 1002 0010 5C00     		lsls	r4, r3, #1
 1003              	.LVL134:
1606:Generated_Source\PSoC6/CapSense_Filter.c **** 
1607:Generated_Source\PSoC6/CapSense_Filter.c ****     /* Find pointer to specified filter sensor object */
1608:Generated_Source\PSoC6/CapSense_Filter.c ****     ptrNoiseEnvelope = ptrWidget->ptr2NoiseEnvlp;
 1004              		.loc 1 1608 0
 1005 0012 C369     		ldr	r3, [r0, #28]
 1006              	.LVL135:
1609:Generated_Source\PSoC6/CapSense_Filter.c ****     ptrNoiseEnvelope = &ptrNoiseEnvelope[sensorId];
 1007              		.loc 1 1609 0
 1008 0014 4A00     		lsls	r2, r1, #1
 1009 0016 5118     		adds	r1, r2, r1
 1010              	.LVL136:
 1011 0018 8A00     		lsls	r2, r1, #2
 1012 001a 9A18     		adds	r2, r3, r2
 1013              	.LVL137:
1610:Generated_Source\PSoC6/CapSense_Filter.c **** 
1611:Generated_Source\PSoC6/CapSense_Filter.c ****     SmartSense_RunNoiseEnvelope(ptrSensor->raw[0u], ptrWidgetRam->sigPFC, ptrNoiseEnvelope);
 1014              		.loc 1 1611 0
 1015 001c 318A     		ldrh	r1, [r6, #16]
 1016 001e 285B     		ldrh	r0, [r5, r4]
 1017              	.LVL138:
 1018 0020 FFF7FEFF 		bl	SmartSense_RunNoiseEnvelope
 1019              	.LVL139:
1612:Generated_Source\PSoC6/CapSense_Filter.c **** }
 1020              		.loc 1 1612 0
 1021              		@ sp needed
 1022              	.LVL140:
 1023              	.LVL141:
 1024              	.LVL142:
 1025 0024 70BD     		pop	{r4, r5, r6, pc}
 1026              	.L61:
 1027 0026 C046     		.align	2
 1028              	.L60:
 1029 0028 00000000 		.word	CapSense_dsFlash
ARM GAS  C:\Users\salaz\AppData\Local\Temp\cctLNP9Y.s 			page 49


 1030              		.cfi_endproc
 1031              	.LFE62:
 1032              		.size	CapSense_RunNoiseEnvelope, .-CapSense_RunNoiseEnvelope
 1033              		.section	.text.CapSense_InitializeNoiseEnvelope,"ax",%progbits
 1034              		.align	2
 1035              		.global	CapSense_InitializeNoiseEnvelope
 1036              		.code	16
 1037              		.thumb_func
 1038              		.type	CapSense_InitializeNoiseEnvelope, %function
 1039              	CapSense_InitializeNoiseEnvelope:
 1040              	.LFB63:
1613:Generated_Source\PSoC6/CapSense_Filter.c **** 
1614:Generated_Source\PSoC6/CapSense_Filter.c **** 
1615:Generated_Source\PSoC6/CapSense_Filter.c **** /*******************************************************************************
1616:Generated_Source\PSoC6/CapSense_Filter.c **** * Function Name: CapSense_InitializeNoiseEnvelope
1617:Generated_Source\PSoC6/CapSense_Filter.c **** ****************************************************************************//**
1618:Generated_Source\PSoC6/CapSense_Filter.c **** *
1619:Generated_Source\PSoC6/CapSense_Filter.c **** * \brief    Initializes the noise-envelope filter
1620:Generated_Source\PSoC6/CapSense_Filter.c **** *
1621:Generated_Source\PSoC6/CapSense_Filter.c **** * \details  Initializes the noise-envelope filter
1622:Generated_Source\PSoC6/CapSense_Filter.c **** *
1623:Generated_Source\PSoC6/CapSense_Filter.c **** * \param    widgetId Specifies the ID number of the widget.
1624:Generated_Source\PSoC6/CapSense_Filter.c **** * \param    sensorId Specifies the ID number of the sensor in the widget.
1625:Generated_Source\PSoC6/CapSense_Filter.c **** *
1626:Generated_Source\PSoC6/CapSense_Filter.c **** *******************************************************************************/
1627:Generated_Source\PSoC6/CapSense_Filter.c **** void CapSense_InitializeNoiseEnvelope(uint32 widgetId, uint32 sensorId)
1628:Generated_Source\PSoC6/CapSense_Filter.c **** {
 1041              		.loc 1 1628 0
 1042              		.cfi_startproc
 1043              		@ args = 0, pretend = 0, frame = 0
 1044              		@ frame_needed = 0, uses_anonymous_args = 0
 1045              	.LVL143:
 1046 0000 70B5     		push	{r4, r5, r6, lr}
 1047              		.cfi_def_cfa_offset 16
 1048              		.cfi_offset 4, -16
 1049              		.cfi_offset 5, -12
 1050              		.cfi_offset 6, -8
 1051              		.cfi_offset 14, -4
 1052              	.LVL144:
1629:Generated_Source\PSoC6/CapSense_Filter.c ****     CapSense_FLASH_WD_STRUCT const *ptrWidget = &CapSense_dsFlash.wdgtArray[widgetId];
1630:Generated_Source\PSoC6/CapSense_Filter.c ****     CapSense_RAM_WD_BASE_STRUCT *ptrWidgetRam = ptrWidget->ptr2WdgtRam;
 1053              		.loc 1 1630 0
 1054 0002 4001     		lsls	r0, r0, #5
 1055              	.LVL145:
 1056 0004 084B     		ldr	r3, .L63
 1057 0006 1818     		adds	r0, r3, r0
 1058              	.LVL146:
 1059 0008 4668     		ldr	r6, [r0, #4]
 1060              	.LVL147:
1631:Generated_Source\PSoC6/CapSense_Filter.c ****     CapSense_RAM_SNS_STRUCT *ptrSensor = NULL;
1632:Generated_Source\PSoC6/CapSense_Filter.c ****     SMARTSENSE_CSD_NOISE_ENVELOPE_STRUCT *ptrNoiseEnvelope = NULL;
1633:Generated_Source\PSoC6/CapSense_Filter.c **** 
1634:Generated_Source\PSoC6/CapSense_Filter.c ****     /* Find pointer to specified sensor object */
1635:Generated_Source\PSoC6/CapSense_Filter.c ****     ptrSensor = ptrWidget->ptr2SnsRam;
 1061              		.loc 1 1635 0
 1062 000a 8568     		ldr	r5, [r0, #8]
 1063              	.LVL148:
ARM GAS  C:\Users\salaz\AppData\Local\Temp\cctLNP9Y.s 			page 50


1636:Generated_Source\PSoC6/CapSense_Filter.c ****     ptrSensor = &ptrSensor[sensorId];
 1064              		.loc 1 1636 0
 1065 000c 8B00     		lsls	r3, r1, #2
 1066 000e 5B18     		adds	r3, r3, r1
 1067 0010 5C00     		lsls	r4, r3, #1
 1068              	.LVL149:
1637:Generated_Source\PSoC6/CapSense_Filter.c **** 
1638:Generated_Source\PSoC6/CapSense_Filter.c ****     /* Find pointer to specified filter sensor object */
1639:Generated_Source\PSoC6/CapSense_Filter.c ****     ptrNoiseEnvelope = ptrWidget->ptr2NoiseEnvlp;
 1069              		.loc 1 1639 0
 1070 0012 C369     		ldr	r3, [r0, #28]
 1071              	.LVL150:
1640:Generated_Source\PSoC6/CapSense_Filter.c ****     ptrNoiseEnvelope = &ptrNoiseEnvelope[sensorId];
 1072              		.loc 1 1640 0
 1073 0014 4A00     		lsls	r2, r1, #1
 1074 0016 5118     		adds	r1, r2, r1
 1075              	.LVL151:
 1076 0018 8A00     		lsls	r2, r1, #2
 1077 001a 9A18     		adds	r2, r3, r2
 1078              	.LVL152:
1641:Generated_Source\PSoC6/CapSense_Filter.c **** 
1642:Generated_Source\PSoC6/CapSense_Filter.c ****     SmartSense_InitializeNoiseEnvelope(ptrSensor->raw[0u], ptrWidgetRam->sigPFC, ptrNoiseEnvelope);
 1079              		.loc 1 1642 0
 1080 001c 318A     		ldrh	r1, [r6, #16]
 1081 001e 285B     		ldrh	r0, [r5, r4]
 1082              	.LVL153:
 1083 0020 FFF7FEFF 		bl	SmartSense_InitializeNoiseEnvelope
 1084              	.LVL154:
1643:Generated_Source\PSoC6/CapSense_Filter.c **** }
 1085              		.loc 1 1643 0
 1086              		@ sp needed
 1087              	.LVL155:
 1088              	.LVL156:
 1089              	.LVL157:
 1090 0024 70BD     		pop	{r4, r5, r6, pc}
 1091              	.L64:
 1092 0026 C046     		.align	2
 1093              	.L63:
 1094 0028 00000000 		.word	CapSense_dsFlash
 1095              		.cfi_endproc
 1096              	.LFE63:
 1097              		.size	CapSense_InitializeNoiseEnvelope, .-CapSense_InitializeNoiseEnvelope
 1098              		.section	.text.CapSense_FtMedian,"ax",%progbits
 1099              		.align	2
 1100              		.global	CapSense_FtMedian
 1101              		.code	16
 1102              		.thumb_func
 1103              		.type	CapSense_FtMedian, %function
 1104              	CapSense_FtMedian:
 1105              	.LFB64:
1644:Generated_Source\PSoC6/CapSense_Filter.c **** #endif /* (0u != (CapSense_CSD_AUTOTUNE & CapSense_CSD_SS_TH_EN)) */
1645:Generated_Source\PSoC6/CapSense_Filter.c **** 
1646:Generated_Source\PSoC6/CapSense_Filter.c **** 
1647:Generated_Source\PSoC6/CapSense_Filter.c **** #if (CapSense_POS_MEDIAN_FILTER_EN || CapSense_REGULAR_RC_MEDIAN_FILTER_EN || CapSense_PROX_RC_MEDI
1648:Generated_Source\PSoC6/CapSense_Filter.c **** /*******************************************************************************
1649:Generated_Source\PSoC6/CapSense_Filter.c **** * Function Name: CapSense_FtMedian
1650:Generated_Source\PSoC6/CapSense_Filter.c **** ****************************************************************************//**
ARM GAS  C:\Users\salaz\AppData\Local\Temp\cctLNP9Y.s 			page 51


1651:Generated_Source\PSoC6/CapSense_Filter.c **** *
1652:Generated_Source\PSoC6/CapSense_Filter.c **** * \brief    Return the median value from the three passed arguments.
1653:Generated_Source\PSoC6/CapSense_Filter.c **** *
1654:Generated_Source\PSoC6/CapSense_Filter.c **** * \details  Return the median value from the three passed arguments.
1655:Generated_Source\PSoC6/CapSense_Filter.c **** *
1656:Generated_Source\PSoC6/CapSense_Filter.c **** * \param    x1 The first value to be compared.
1657:Generated_Source\PSoC6/CapSense_Filter.c **** * \param    x2 The second value to be compared.
1658:Generated_Source\PSoC6/CapSense_Filter.c **** * \param    x3 The third value to be compared.
1659:Generated_Source\PSoC6/CapSense_Filter.c **** *
1660:Generated_Source\PSoC6/CapSense_Filter.c **** * \return   Returns the median value of input arguments.
1661:Generated_Source\PSoC6/CapSense_Filter.c **** *
1662:Generated_Source\PSoC6/CapSense_Filter.c **** *******************************************************************************/
1663:Generated_Source\PSoC6/CapSense_Filter.c **** uint32 CapSense_FtMedian(uint32 x1, uint32 x2, uint32 x3)
1664:Generated_Source\PSoC6/CapSense_Filter.c **** {
 1106              		.loc 1 1664 0
 1107              		.cfi_startproc
 1108              		@ args = 0, pretend = 0, frame = 0
 1109              		@ frame_needed = 0, uses_anonymous_args = 0
 1110              		@ link register save eliminated.
 1111              	.LVL158:
1665:Generated_Source\PSoC6/CapSense_Filter.c ****     uint32 tmp;
1666:Generated_Source\PSoC6/CapSense_Filter.c **** 
1667:Generated_Source\PSoC6/CapSense_Filter.c ****     if (x1 > x2)
 1112              		.loc 1 1667 0
 1113 0000 8842     		cmp	r0, r1
 1114 0002 02D9     		bls	.L66
 1115 0004 0300     		movs	r3, r0
1668:Generated_Source\PSoC6/CapSense_Filter.c ****     {
1669:Generated_Source\PSoC6/CapSense_Filter.c ****         tmp = x2;
1670:Generated_Source\PSoC6/CapSense_Filter.c ****         x2 = x1;
1671:Generated_Source\PSoC6/CapSense_Filter.c ****         x1 = tmp;
 1116              		.loc 1 1671 0
 1117 0006 0800     		movs	r0, r1
 1118              	.LVL159:
1670:Generated_Source\PSoC6/CapSense_Filter.c ****         x1 = tmp;
 1119              		.loc 1 1670 0
 1120 0008 1900     		movs	r1, r3
 1121              	.LVL160:
 1122              	.L66:
1672:Generated_Source\PSoC6/CapSense_Filter.c ****     }
1673:Generated_Source\PSoC6/CapSense_Filter.c **** 
1674:Generated_Source\PSoC6/CapSense_Filter.c ****     if (x2 > x3)
 1123              		.loc 1 1674 0
 1124 000a 9142     		cmp	r1, r2
 1125 000c 00D9     		bls	.L67
1675:Generated_Source\PSoC6/CapSense_Filter.c ****     {
1676:Generated_Source\PSoC6/CapSense_Filter.c ****         x2 = x3;
 1126              		.loc 1 1676 0
 1127 000e 1100     		movs	r1, r2
 1128              	.LVL161:
 1129              	.L67:
1677:Generated_Source\PSoC6/CapSense_Filter.c ****     }
1678:Generated_Source\PSoC6/CapSense_Filter.c **** 
1679:Generated_Source\PSoC6/CapSense_Filter.c ****     return ((x1 > x2) ? x1 : x2);
 1130              		.loc 1 1679 0
 1131 0010 8842     		cmp	r0, r1
 1132 0012 00D2     		bcs	.L68
ARM GAS  C:\Users\salaz\AppData\Local\Temp\cctLNP9Y.s 			page 52


 1133 0014 0800     		movs	r0, r1
 1134              	.LVL162:
 1135              	.L68:
1680:Generated_Source\PSoC6/CapSense_Filter.c **** }
 1136              		.loc 1 1680 0
 1137              		@ sp needed
 1138 0016 7047     		bx	lr
 1139              		.cfi_endproc
 1140              	.LFE64:
 1141              		.size	CapSense_FtMedian, .-CapSense_FtMedian
 1142              		.section	.text.CapSense_RunMedianInternal,"ax",%progbits
 1143              		.align	2
 1144              		.global	CapSense_RunMedianInternal
 1145              		.code	16
 1146              		.thumb_func
 1147              		.type	CapSense_RunMedianInternal, %function
 1148              	CapSense_RunMedianInternal:
 1149              	.LFB55:
1067:Generated_Source\PSoC6/CapSense_Filter.c ****     uint32 freqChannel;
 1150              		.loc 1 1067 0
 1151              		.cfi_startproc
 1152              		@ args = 0, pretend = 0, frame = 8
 1153              		@ frame_needed = 0, uses_anonymous_args = 0
 1154              	.LVL163:
 1155 0000 F0B5     		push	{r4, r5, r6, r7, lr}
 1156              		.cfi_def_cfa_offset 20
 1157              		.cfi_offset 4, -20
 1158              		.cfi_offset 5, -16
 1159              		.cfi_offset 6, -12
 1160              		.cfi_offset 7, -8
 1161              		.cfi_offset 14, -4
 1162 0002 5746     		mov	r7, r10
 1163 0004 4E46     		mov	r6, r9
 1164 0006 C0B4     		push	{r6, r7}
 1165              		.cfi_def_cfa_offset 28
 1166              		.cfi_offset 9, -28
 1167              		.cfi_offset 10, -24
 1168 0008 83B0     		sub	sp, sp, #12
 1169              		.cfi_def_cfa_offset 40
 1170 000a 0190     		str	r0, [sp, #4]
 1171 000c 0C00     		movs	r4, r1
 1172 000e 1700     		movs	r7, r2
 1173              	.LVL164:
1075:Generated_Source\PSoC6/CapSense_Filter.c ****     {
 1174              		.loc 1 1075 0
 1175 0010 0123     		movs	r3, #1
 1176 0012 19E0     		b	.L72
 1177              	.LVL165:
 1178              	.L74:
1077:Generated_Source\PSoC6/CapSense_Filter.c ****         {
 1179              		.loc 1 1077 0
 1180 0014 FF23     		movs	r3, #255
 1181 0016 3B40     		ands	r3, r7
 1182 0018 062B     		cmp	r3, #6
 1183 001a 14D1     		bne	.L73
1092:Generated_Source\PSoC6/CapSense_Filter.c ****                                                  (uint32)ptrFilterHistObj.ptrProx->proxChannel[freq
 1184              		.loc 1 1092 0
ARM GAS  C:\Users\salaz\AppData\Local\Temp\cctLNP9Y.s 			page 53


 1185 001c 6B00     		lsls	r3, r5, #1
 1186 001e 9A46     		mov	r10, r3
 1187 0020 185B     		ldrh	r0, [r3, r4]
 1188              	.LVL166:
1093:Generated_Source\PSoC6/CapSense_Filter.c ****                                                  (uint32)ptrFilterHistObj.ptrProx->proxChannel[freq
 1189              		.loc 1 1093 0
 1190 0022 5B19     		adds	r3, r3, r5
 1191 0024 9E00     		lsls	r6, r3, #2
 1192 0026 019B     		ldr	r3, [sp, #4]
 1193              	.LVL167:
 1194 0028 9C46     		mov	ip, r3
 1195 002a 6644     		add	r6, r6, ip
 1196 002c 7388     		ldrh	r3, [r6, #2]
 1197              	.LVL168:
 1198 002e 9946     		mov	r9, r3
1094:Generated_Source\PSoC6/CapSense_Filter.c ****                 ptrFilterHistObj.ptrProx->proxChannel[freqChannel].medHistory[1u] = \
 1199              		.loc 1 1094 0
 1200 0030 B288     		ldrh	r2, [r6, #4]
1092:Generated_Source\PSoC6/CapSense_Filter.c ****                                                  (uint32)ptrFilterHistObj.ptrProx->proxChannel[freq
 1201              		.loc 1 1092 0
 1202 0032 1900     		movs	r1, r3
 1203 0034 FFF7FEFF 		bl	CapSense_FtMedian
 1204              	.LVL169:
1095:Generated_Source\PSoC6/CapSense_Filter.c ****                 ptrFilterHistObj.ptrProx->proxChannel[freqChannel].medHistory[0u];
 1205              		.loc 1 1095 0
 1206 0038 4B46     		mov	r3, r9
 1207 003a B380     		strh	r3, [r6, #4]
1097:Generated_Source\PSoC6/CapSense_Filter.c ****                 ptrSensorObj->raw[freqChannel] = CY_LO16(temp);
 1208              		.loc 1 1097 0
 1209 003c 5346     		mov	r3, r10
 1210 003e 1B5B     		ldrh	r3, [r3, r4]
 1211 0040 7380     		strh	r3, [r6, #2]
1098:Generated_Source\PSoC6/CapSense_Filter.c ****             #endif /* (CapSense_PROXIMITY_SENSOR_EN) */
 1212              		.loc 1 1098 0
 1213 0042 5346     		mov	r3, r10
 1214 0044 E052     		strh	r0, [r4, r3]
 1215              	.LVL170:
 1216              	.L73:
1067:Generated_Source\PSoC6/CapSense_Filter.c ****     uint32 freqChannel;
 1217              		.loc 1 1067 0 discriminator 1
 1218 0046 2B00     		movs	r3, r5
 1219              	.LVL171:
 1220              	.L72:
1075:Generated_Source\PSoC6/CapSense_Filter.c ****     {
 1221              		.loc 1 1075 0 discriminator 1
 1222 0048 5D1E     		subs	r5, r3, #1
 1223              	.LVL172:
 1224 004a 002B     		cmp	r3, #0
 1225 004c E2D1     		bne	.L74
1102:Generated_Source\PSoC6/CapSense_Filter.c **** #endif /* (CapSense_REGULAR_RC_MEDIAN_FILTER_EN || CapSense_PROX_RC_MEDIAN_FILTER_EN) */
 1226              		.loc 1 1102 0
 1227 004e 03B0     		add	sp, sp, #12
 1228              		@ sp needed
 1229              	.LVL173:
 1230              	.LVL174:
 1231              	.LVL175:
 1232 0050 0CBC     		pop	{r2, r3}
ARM GAS  C:\Users\salaz\AppData\Local\Temp\cctLNP9Y.s 			page 54


 1233 0052 9146     		mov	r9, r2
 1234 0054 9A46     		mov	r10, r3
 1235 0056 F0BD     		pop	{r4, r5, r6, r7, pc}
 1236              		.cfi_endproc
 1237              	.LFE55:
 1238              		.size	CapSense_RunMedianInternal, .-CapSense_RunMedianInternal
 1239              		.section	.text.CapSense_RunMedian,"ax",%progbits
 1240              		.align	2
 1241              		.global	CapSense_RunMedian
 1242              		.code	16
 1243              		.thumb_func
 1244              		.type	CapSense_RunMedian, %function
 1245              	CapSense_RunMedian:
 1246              	.LFB53:
 985:Generated_Source\PSoC6/CapSense_Filter.c ****     CapSense_FLASH_WD_STRUCT const *ptrWidget = &CapSense_dsFlash.wdgtArray[widgetId];
 1247              		.loc 1 985 0
 1248              		.cfi_startproc
 1249              		@ args = 0, pretend = 0, frame = 0
 1250              		@ frame_needed = 0, uses_anonymous_args = 0
 1251              	.LVL176:
 1252 0000 70B5     		push	{r4, r5, r6, lr}
 1253              		.cfi_def_cfa_offset 16
 1254              		.cfi_offset 4, -16
 1255              		.cfi_offset 5, -12
 1256              		.cfi_offset 6, -8
 1257              		.cfi_offset 14, -4
 1258 0002 0C00     		movs	r4, r1
 1259              	.LVL177:
 991:Generated_Source\PSoC6/CapSense_Filter.c ****     ptrSensor = &ptrSensor[sensorId];
 1260              		.loc 1 991 0
 1261 0004 4001     		lsls	r0, r0, #5
 1262              	.LVL178:
 1263 0006 094B     		ldr	r3, .L77
 1264 0008 1B18     		adds	r3, r3, r0
 1265              	.LVL179:
 992:Generated_Source\PSoC6/CapSense_Filter.c **** 
 1266              		.loc 1 992 0
 1267 000a 8800     		lsls	r0, r1, #2
 1268 000c 4018     		adds	r0, r0, r1
 1269 000e 4200     		lsls	r2, r0, #1
 1270 0010 9968     		ldr	r1, [r3, #8]
 1271              	.LVL180:
 1272 0012 8918     		adds	r1, r1, r2
 1273              	.LVL181:
 995:Generated_Source\PSoC6/CapSense_Filter.c **** 
 1274              		.loc 1 995 0
 1275 0014 DD68     		ldr	r5, [r3, #12]
 1276 0016 2800     		movs	r0, r5
 1277              	.LVL182:
 997:Generated_Source\PSoC6/CapSense_Filter.c ****     {
 1278              		.loc 1 997 0
 1279 0018 9A7E     		ldrb	r2, [r3, #26]
 1280 001a 062A     		cmp	r2, #6
 1281 001c 03D1     		bne	.L76
1006:Generated_Source\PSoC6/CapSense_Filter.c ****         #endif /* (CapSense_PROXIMITY_SENSOR_EN) */
 1282              		.loc 1 1006 0
 1283 001e 6300     		lsls	r3, r4, #1
ARM GAS  C:\Users\salaz\AppData\Local\Temp\cctLNP9Y.s 			page 55


 1284              	.LVL183:
 1285 0020 1C19     		adds	r4, r3, r4
 1286              	.LVL184:
 1287 0022 A000     		lsls	r0, r4, #2
 1288 0024 2818     		adds	r0, r5, r0
 1289              	.L76:
1010:Generated_Source\PSoC6/CapSense_Filter.c **** }
 1290              		.loc 1 1010 0
 1291 0026 FFF7FEFF 		bl	CapSense_RunMedianInternal
 1292              	.LVL185:
1011:Generated_Source\PSoC6/CapSense_Filter.c **** 
 1293              		.loc 1 1011 0
 1294              		@ sp needed
 1295 002a 70BD     		pop	{r4, r5, r6, pc}
 1296              	.L78:
 1297              		.align	2
 1298              	.L77:
 1299 002c 00000000 		.word	CapSense_dsFlash
 1300              		.cfi_endproc
 1301              	.LFE53:
 1302              		.size	CapSense_RunMedian, .-CapSense_RunMedian
 1303              		.section	.text.CapSense_FtIIR1stOrder,"ax",%progbits
 1304              		.align	2
 1305              		.global	CapSense_FtIIR1stOrder
 1306              		.code	16
 1307              		.thumb_func
 1308              		.type	CapSense_FtIIR1stOrder, %function
 1309              	CapSense_FtIIR1stOrder:
 1310              	.LFB65:
1681:Generated_Source\PSoC6/CapSense_Filter.c **** #endif /*CapSense_POS_MEDIAN_FILTER_EN || CapSense_REGULAR_RC_MEDIAN_FILTER_EN || CapSense_PROX_RC_
1682:Generated_Source\PSoC6/CapSense_Filter.c **** 
1683:Generated_Source\PSoC6/CapSense_Filter.c **** 
1684:Generated_Source\PSoC6/CapSense_Filter.c **** /*******************************************************************************
1685:Generated_Source\PSoC6/CapSense_Filter.c **** * Function Name: CapSense_FtIIR1stOrder
1686:Generated_Source\PSoC6/CapSense_Filter.c **** ****************************************************************************//**
1687:Generated_Source\PSoC6/CapSense_Filter.c **** *
1688:Generated_Source\PSoC6/CapSense_Filter.c **** * \brief    Return the filtered data by the IIR 1-st order algorithm
1689:Generated_Source\PSoC6/CapSense_Filter.c **** *
1690:Generated_Source\PSoC6/CapSense_Filter.c **** * \details  Return the filtered data by the IIR 1-st order algorithm
1691:Generated_Source\PSoC6/CapSense_Filter.c **** *
1692:Generated_Source\PSoC6/CapSense_Filter.c **** * \param    input      The data to be filtered.
1693:Generated_Source\PSoC6/CapSense_Filter.c **** * \param    prevOutput The previous filtered data.
1694:Generated_Source\PSoC6/CapSense_Filter.c **** * \param    n          The IIR filter coefficient (n/256).
1695:Generated_Source\PSoC6/CapSense_Filter.c **** * \param    shift      The parameter is used to shift input data to have free LSB
1696:Generated_Source\PSoC6/CapSense_Filter.c **** *                       bits for a fraction storage of the filter output calculation.
1697:Generated_Source\PSoC6/CapSense_Filter.c **** *
1698:Generated_Source\PSoC6/CapSense_Filter.c **** * \return   Returns the filtered data.
1699:Generated_Source\PSoC6/CapSense_Filter.c **** *
1700:Generated_Source\PSoC6/CapSense_Filter.c **** *******************************************************************************/
1701:Generated_Source\PSoC6/CapSense_Filter.c **** uint32 CapSense_FtIIR1stOrder(uint32 input, uint32 prevOutput, uint32 n, uint32 shift)
1702:Generated_Source\PSoC6/CapSense_Filter.c **** {
 1311              		.loc 1 1702 0
 1312              		.cfi_startproc
 1313              		@ args = 0, pretend = 0, frame = 0
 1314              		@ frame_needed = 0, uses_anonymous_args = 0
 1315              		@ link register save eliminated.
 1316              	.LVL186:
ARM GAS  C:\Users\salaz\AppData\Local\Temp\cctLNP9Y.s 			page 56


1703:Generated_Source\PSoC6/CapSense_Filter.c ****     uint32 filteredOutput;
1704:Generated_Source\PSoC6/CapSense_Filter.c **** 
1705:Generated_Source\PSoC6/CapSense_Filter.c ****     /*
1706:Generated_Source\PSoC6/CapSense_Filter.c ****     * n - IIR filter coefficient (n/256)
1707:Generated_Source\PSoC6/CapSense_Filter.c ****     * shift - Used to shift input data to have free LSB bits
1708:Generated_Source\PSoC6/CapSense_Filter.c ****     * for fraction storage of filter output calculation
1709:Generated_Source\PSoC6/CapSense_Filter.c ****     */
1710:Generated_Source\PSoC6/CapSense_Filter.c ****     filteredOutput = ((n * (input << shift)) + ((CapSense_IIR_COEFFICIENT_K - n) * prevOutput)) >> 
 1317              		.loc 1 1710 0
 1318 0000 9840     		lsls	r0, r0, r3
 1319              	.LVL187:
 1320 0002 5043     		muls	r0, r2
 1321 0004 8023     		movs	r3, #128
 1322              	.LVL188:
 1323 0006 5B00     		lsls	r3, r3, #1
 1324 0008 9A1A     		subs	r2, r3, r2
 1325              	.LVL189:
 1326 000a 5143     		muls	r1, r2
 1327              	.LVL190:
 1328 000c 4018     		adds	r0, r0, r1
 1329 000e 000A     		lsrs	r0, r0, #8
 1330              	.LVL191:
1711:Generated_Source\PSoC6/CapSense_Filter.c **** 
1712:Generated_Source\PSoC6/CapSense_Filter.c ****     /* Shift operation of output will be done in upper level API if needed */
1713:Generated_Source\PSoC6/CapSense_Filter.c ****     return filteredOutput;
1714:Generated_Source\PSoC6/CapSense_Filter.c **** }
 1331              		.loc 1 1714 0
 1332              		@ sp needed
 1333 0010 7047     		bx	lr
 1334              		.cfi_endproc
 1335              	.LFE65:
 1336              		.size	CapSense_FtIIR1stOrder, .-CapSense_FtIIR1stOrder
 1337 0012 C046     		.section	.text.CapSense_FtUpdateBaseline,"ax",%progbits
 1338              		.align	2
 1339              		.global	CapSense_FtUpdateBaseline
 1340              		.code	16
 1341              		.thumb_func
 1342              		.type	CapSense_FtUpdateBaseline, %function
 1343              	CapSense_FtUpdateBaseline:
 1344              	.LFB40:
 259:Generated_Source\PSoC6/CapSense_Filter.c ****     uint32 sign;
 1345              		.loc 1 259 0
 1346              		.cfi_startproc
 1347              		@ args = 0, pretend = 0, frame = 8
 1348              		@ frame_needed = 0, uses_anonymous_args = 0
 1349              	.LVL192:
 1350 0000 F0B5     		push	{r4, r5, r6, r7, lr}
 1351              		.cfi_def_cfa_offset 20
 1352              		.cfi_offset 4, -20
 1353              		.cfi_offset 5, -16
 1354              		.cfi_offset 6, -12
 1355              		.cfi_offset 7, -8
 1356              		.cfi_offset 14, -4
 1357 0002 4746     		mov	r7, r8
 1358 0004 80B4     		push	{r7}
 1359              		.cfi_def_cfa_offset 24
 1360              		.cfi_offset 8, -24
ARM GAS  C:\Users\salaz\AppData\Local\Temp\cctLNP9Y.s 			page 57


 1361 0006 82B0     		sub	sp, sp, #8
 1362              		.cfi_def_cfa_offset 32
 1363 0008 0700     		movs	r7, r0
 1364 000a 0E00     		movs	r6, r1
 1365 000c 0192     		str	r2, [sp, #4]
 1366              	.LVL193:
 271:Generated_Source\PSoC6/CapSense_Filter.c ****     {
 1367              		.loc 1 271 0
 1368 000e 0123     		movs	r3, #1
 1369 0010 3EE0     		b	.L81
 1370              	.LVL194:
 1371              	.L88:
 283:Generated_Source\PSoC6/CapSense_Filter.c ****         {
 1372              		.loc 1 283 0
 1373 0012 6300     		lsls	r3, r4, #1
 1374 0014 985B     		ldrh	r0, [r3, r6]
 1375 0016 F318     		adds	r3, r6, r3
 1376 0018 5988     		ldrh	r1, [r3, #2]
 1377 001a 8842     		cmp	r0, r1
 1378 001c 05D3     		bcc	.L82
 285:Generated_Source\PSoC6/CapSense_Filter.c ****             sign = 1u;
 1379              		.loc 1 285 0
 1380 001e 431A     		subs	r3, r0, r1
 1381              	.LVL195:
 287:Generated_Source\PSoC6/CapSense_Filter.c ****         }
 1382              		.loc 1 287 0
 1383 0020 3219     		adds	r2, r6, r4
 1384 0022 0025     		movs	r5, #0
 1385 0024 1572     		strb	r5, [r2, #8]
 286:Generated_Source\PSoC6/CapSense_Filter.c ****             ptrSensor->negBslnRstCnt[freqChannel] = 0u;
 1386              		.loc 1 286 0
 1387 0026 0122     		movs	r2, #1
 1388 0028 01E0     		b	.L83
 1389              	.LVL196:
 1390              	.L82:
 291:Generated_Source\PSoC6/CapSense_Filter.c ****             sign = 0u;
 1391              		.loc 1 291 0
 1392 002a 0B1A     		subs	r3, r1, r0
 1393              	.LVL197:
 292:Generated_Source\PSoC6/CapSense_Filter.c ****         }
 1394              		.loc 1 292 0
 1395 002c 0022     		movs	r2, #0
 1396              	.LVL198:
 1397              	.L83:
 296:Generated_Source\PSoC6/CapSense_Filter.c ****         {
 1398              		.loc 1 296 0
 1399 002e 002A     		cmp	r2, #0
 1400 0030 11D1     		bne	.L84
 296:Generated_Source\PSoC6/CapSense_Filter.c ****         {
 1401              		.loc 1 296 0 is_stmt 0 discriminator 1
 1402 0032 7D79     		ldrb	r5, [r7, #5]
 1403 0034 AB42     		cmp	r3, r5
 1404 0036 0ED9     		bls	.L84
 298:Generated_Source\PSoC6/CapSense_Filter.c ****             {
 1405              		.loc 1 298 0 is_stmt 1
 1406 0038 3319     		adds	r3, r6, r4
 1407              	.LVL199:
ARM GAS  C:\Users\salaz\AppData\Local\Temp\cctLNP9Y.s 			page 58


 1408 003a 1B7A     		ldrb	r3, [r3, #8]
 1409 003c 3A7A     		ldrb	r2, [r7, #8]
 1410              	.LVL200:
 1411 003e 9342     		cmp	r3, r2
 1412 0040 05D3     		bcc	.L85
 300:Generated_Source\PSoC6/CapSense_Filter.c ****             }
 1413              		.loc 1 300 0
 1414 0042 2200     		movs	r2, r4
 1415 0044 0199     		ldr	r1, [sp, #4]
 1416 0046 3000     		movs	r0, r6
 1417 0048 FFF7FEFF 		bl	CapSense_FtInitializeBaselineChannel
 1418              	.LVL201:
 1419 004c 1FE0     		b	.L86
 1420              	.L85:
 304:Generated_Source\PSoC6/CapSense_Filter.c ****             }
 1421              		.loc 1 304 0
 1422 004e 3219     		adds	r2, r6, r4
 1423 0050 0133     		adds	r3, r3, #1
 1424 0052 1372     		strb	r3, [r2, #8]
 1425 0054 1BE0     		b	.L86
 1426              	.LVL202:
 1427              	.L84:
 311:Generated_Source\PSoC6/CapSense_Filter.c ****                     ((difference < (uint32) ptrWidgetRam->nNoiseTh) && (sign == 0u)))
 1428              		.loc 1 311 0
 1429 0056 3D79     		ldrb	r5, [r7, #4]
 1430 0058 AB42     		cmp	r3, r5
 1431 005a 04D9     		bls	.L87
 312:Generated_Source\PSoC6/CapSense_Filter.c ****                 {
 1432              		.loc 1 312 0 discriminator 1
 1433 005c 7D79     		ldrb	r5, [r7, #5]
 311:Generated_Source\PSoC6/CapSense_Filter.c ****                     ((difference < (uint32) ptrWidgetRam->nNoiseTh) && (sign == 0u)))
 1434              		.loc 1 311 0 discriminator 1
 1435 005e AB42     		cmp	r3, r5
 1436 0060 15D2     		bcs	.L86
 312:Generated_Source\PSoC6/CapSense_Filter.c ****                 {
 1437              		.loc 1 312 0
 1438 0062 002A     		cmp	r2, #0
 1439 0064 13D1     		bne	.L86
 1440              	.L87:
 318:Generated_Source\PSoC6/CapSense_Filter.c ****                 {
 1441              		.loc 1 318 0
 1442 0066 FF23     		movs	r3, #255
 1443              	.LVL203:
 1444 0068 019A     		ldr	r2, [sp, #4]
 1445              	.LVL204:
 1446 006a 1340     		ands	r3, r2
 1447 006c 062B     		cmp	r3, #6
 1448 006e 0ED1     		bne	.L86
 351:Generated_Source\PSoC6/CapSense_Filter.c ****                             history |= ptrSensor->bslnExt[freqChannel];
 1449              		.loc 1 351 0
 1450 0070 0902     		lsls	r1, r1, #8
 1451              	.LVL205:
 352:Generated_Source\PSoC6/CapSense_Filter.c ****                         #else
 1452              		.loc 1 352 0
 1453 0072 3319     		adds	r3, r6, r4
 1454 0074 9846     		mov	r8, r3
 1455 0076 1B79     		ldrb	r3, [r3, #4]
ARM GAS  C:\Users\salaz\AppData\Local\Temp\cctLNP9Y.s 			page 59


 1456 0078 1943     		orrs	r1, r3
 1457              	.LVL206:
 363:Generated_Source\PSoC6/CapSense_Filter.c ****                                         (uint32)ptrSensor->raw[freqChannel],
 1458              		.loc 1 363 0
 1459 007a 0823     		movs	r3, #8
 1460 007c 0122     		movs	r2, #1
 1461 007e FFF7FEFF 		bl	CapSense_FtIIR1stOrder
 1462              	.LVL207:
 369:Generated_Source\PSoC6/CapSense_Filter.c ****                                     ptrSensor->bslnExt[freqChannel] = CY_LO8(history);
 1463              		.loc 1 369 0
 1464 0082 020A     		lsrs	r2, r0, #8
 1465 0084 6300     		lsls	r3, r4, #1
 1466 0086 F318     		adds	r3, r6, r3
 1467 0088 5A80     		strh	r2, [r3, #2]
 370:Generated_Source\PSoC6/CapSense_Filter.c ****                         #else
 1468              		.loc 1 370 0
 1469 008a 4346     		mov	r3, r8
 1470 008c 1871     		strb	r0, [r3, #4]
 1471              	.LVL208:
 1472              	.L86:
 1473 008e 2300     		movs	r3, r4
 1474              	.LVL209:
 1475              	.L81:
 271:Generated_Source\PSoC6/CapSense_Filter.c ****     {
 1476              		.loc 1 271 0 discriminator 1
 1477 0090 5C1E     		subs	r4, r3, #1
 1478              	.LVL210:
 1479 0092 002B     		cmp	r3, #0
 1480 0094 BDD1     		bne	.L88
 398:Generated_Source\PSoC6/CapSense_Filter.c **** 
 1481              		.loc 1 398 0
 1482 0096 0020     		movs	r0, #0
 1483 0098 02B0     		add	sp, sp, #8
 1484              		@ sp needed
 1485              	.LVL211:
 1486              	.LVL212:
 1487              	.LVL213:
 1488 009a 04BC     		pop	{r2}
 1489 009c 9046     		mov	r8, r2
 1490 009e F0BD     		pop	{r4, r5, r6, r7, pc}
 1491              		.cfi_endproc
 1492              	.LFE40:
 1493              		.size	CapSense_FtUpdateBaseline, .-CapSense_FtUpdateBaseline
 1494              		.section	.text.CapSense_UpdateSensorBaseline,"ax",%progbits
 1495              		.align	2
 1496              		.global	CapSense_UpdateSensorBaseline
 1497              		.code	16
 1498              		.thumb_func
 1499              		.type	CapSense_UpdateSensorBaseline, %function
 1500              	CapSense_UpdateSensorBaseline:
 1501              	.LFB39:
 201:Generated_Source\PSoC6/CapSense_Filter.c ****     uint32 result = CY_RET_SUCCESS;
 1502              		.loc 1 201 0
 1503              		.cfi_startproc
 1504              		@ args = 0, pretend = 0, frame = 0
 1505              		@ frame_needed = 0, uses_anonymous_args = 0
 1506              	.LVL214:
ARM GAS  C:\Users\salaz\AppData\Local\Temp\cctLNP9Y.s 			page 60


 1507 0000 10B5     		push	{r4, lr}
 1508              		.cfi_def_cfa_offset 8
 1509              		.cfi_offset 4, -8
 1510              		.cfi_offset 14, -4
 1511              	.LVL215:
 206:Generated_Source\PSoC6/CapSense_Filter.c **** 
 1512              		.loc 1 206 0
 1513 0002 4001     		lsls	r0, r0, #5
 1514              	.LVL216:
 1515 0004 064B     		ldr	r3, .L90
 1516 0006 1B18     		adds	r3, r3, r0
 1517              	.LVL217:
 1518 0008 5868     		ldr	r0, [r3, #4]
 1519              	.LVL218:
 210:Generated_Source\PSoC6/CapSense_Filter.c ****     result = CapSense_FtUpdateBaseline(ptrWidgetRam, ptrSensor, (uint32)ptrWidget->wdgtType);
 1520              		.loc 1 210 0
 1521 000a 8A00     		lsls	r2, r1, #2
 1522 000c 5218     		adds	r2, r2, r1
 1523 000e 5100     		lsls	r1, r2, #1
 1524              	.LVL219:
 1525 0010 9A68     		ldr	r2, [r3, #8]
 1526 0012 9446     		mov	ip, r2
 1527 0014 6144     		add	r1, r1, ip
 1528              	.LVL220:
 211:Generated_Source\PSoC6/CapSense_Filter.c **** 
 1529              		.loc 1 211 0
 1530 0016 9A7E     		ldrb	r2, [r3, #26]
 1531 0018 FFF7FEFF 		bl	CapSense_FtUpdateBaseline
 1532              	.LVL221:
 222:Generated_Source\PSoC6/CapSense_Filter.c **** 
 1533              		.loc 1 222 0
 1534              		@ sp needed
 1535 001c 10BD     		pop	{r4, pc}
 1536              	.L91:
 1537 001e C046     		.align	2
 1538              	.L90:
 1539 0020 00000000 		.word	CapSense_dsFlash
 1540              		.cfi_endproc
 1541              	.LFE39:
 1542              		.size	CapSense_UpdateSensorBaseline, .-CapSense_UpdateSensorBaseline
 1543              		.section	.text.CapSense_UpdateWidgetBaseline,"ax",%progbits
 1544              		.align	2
 1545              		.global	CapSense_UpdateWidgetBaseline
 1546              		.code	16
 1547              		.thumb_func
 1548              		.type	CapSense_UpdateWidgetBaseline, %function
 1549              	CapSense_UpdateWidgetBaseline:
 1550              	.LFB38:
 144:Generated_Source\PSoC6/CapSense_Filter.c ****     uint32 sensorId;
 1551              		.loc 1 144 0
 1552              		.cfi_startproc
 1553              		@ args = 0, pretend = 0, frame = 0
 1554              		@ frame_needed = 0, uses_anonymous_args = 0
 1555              	.LVL222:
 1556 0000 70B5     		push	{r4, r5, r6, lr}
 1557              		.cfi_def_cfa_offset 16
 1558              		.cfi_offset 4, -16
ARM GAS  C:\Users\salaz\AppData\Local\Temp\cctLNP9Y.s 			page 61


 1559              		.cfi_offset 5, -12
 1560              		.cfi_offset 6, -8
 1561              		.cfi_offset 14, -4
 1562 0002 0600     		movs	r6, r0
 1563              	.LVL223:
 152:Generated_Source\PSoC6/CapSense_Filter.c **** 
 1564              		.loc 1 152 0
 1565 0004 4301     		lsls	r3, r0, #5
 1566 0006 084A     		ldr	r2, .L95
 1567 0008 D318     		adds	r3, r2, r3
 1568              	.LVL224:
 1569 000a 1B8B     		ldrh	r3, [r3, #24]
 1570              	.LVL225:
 149:Generated_Source\PSoC6/CapSense_Filter.c **** 
 1571              		.loc 1 149 0
 1572 000c 0025     		movs	r5, #0
 154:Generated_Source\PSoC6/CapSense_Filter.c ****     {
 1573              		.loc 1 154 0
 1574 000e 05E0     		b	.L93
 1575              	.LVL226:
 1576              	.L94:
 156:Generated_Source\PSoC6/CapSense_Filter.c ****     }
 1577              		.loc 1 156 0
 1578 0010 2100     		movs	r1, r4
 1579 0012 3000     		movs	r0, r6
 1580 0014 FFF7FEFF 		bl	CapSense_UpdateSensorBaseline
 1581              	.LVL227:
 1582 0018 0543     		orrs	r5, r0
 1583              	.LVL228:
 154:Generated_Source\PSoC6/CapSense_Filter.c ****     {
 1584              		.loc 1 154 0
 1585 001a 2300     		movs	r3, r4
 1586              	.LVL229:
 1587              	.L93:
 154:Generated_Source\PSoC6/CapSense_Filter.c ****     {
 1588              		.loc 1 154 0 is_stmt 0 discriminator 1
 1589 001c 5C1E     		subs	r4, r3, #1
 1590              	.LVL230:
 1591 001e 002B     		cmp	r3, #0
 1592 0020 F6D1     		bne	.L94
 160:Generated_Source\PSoC6/CapSense_Filter.c **** 
 1593              		.loc 1 160 0 is_stmt 1
 1594 0022 2800     		movs	r0, r5
 1595              		@ sp needed
 1596              	.LVL231:
 1597              	.LVL232:
 1598              	.LVL233:
 1599 0024 70BD     		pop	{r4, r5, r6, pc}
 1600              	.L96:
 1601 0026 C046     		.align	2
 1602              	.L95:
 1603 0028 00000000 		.word	CapSense_dsFlash
 1604              		.cfi_endproc
 1605              	.LFE38:
 1606              		.size	CapSense_UpdateWidgetBaseline, .-CapSense_UpdateWidgetBaseline
 1607              		.section	.text.CapSense_UpdateAllBaselines,"ax",%progbits
 1608              		.align	2
ARM GAS  C:\Users\salaz\AppData\Local\Temp\cctLNP9Y.s 			page 62


 1609              		.global	CapSense_UpdateAllBaselines
 1610              		.code	16
 1611              		.thumb_func
 1612              		.type	CapSense_UpdateAllBaselines, %function
 1613              	CapSense_UpdateAllBaselines:
 1614              	.LFB37:
  99:Generated_Source\PSoC6/CapSense_Filter.c ****     uint32 widgetId;
 1615              		.loc 1 99 0
 1616              		.cfi_startproc
 1617              		@ args = 0, pretend = 0, frame = 0
 1618              		@ frame_needed = 0, uses_anonymous_args = 0
 1619 0000 70B5     		push	{r4, r5, r6, lr}
 1620              		.cfi_def_cfa_offset 16
 1621              		.cfi_offset 4, -16
 1622              		.cfi_offset 5, -12
 1623              		.cfi_offset 6, -8
 1624              		.cfi_offset 14, -4
 1625              	.LVL234:
 101:Generated_Source\PSoC6/CapSense_Filter.c **** 
 1626              		.loc 1 101 0
 1627 0002 0024     		movs	r4, #0
 103:Generated_Source\PSoC6/CapSense_Filter.c ****     {
 1628              		.loc 1 103 0
 1629 0004 0123     		movs	r3, #1
 1630 0006 04E0     		b	.L98
 1631              	.LVL235:
 1632              	.L99:
 105:Generated_Source\PSoC6/CapSense_Filter.c ****     }
 1633              		.loc 1 105 0
 1634 0008 2800     		movs	r0, r5
 1635 000a FFF7FEFF 		bl	CapSense_UpdateWidgetBaseline
 1636              	.LVL236:
 1637 000e 0443     		orrs	r4, r0
 1638              	.LVL237:
 103:Generated_Source\PSoC6/CapSense_Filter.c ****     {
 1639              		.loc 1 103 0
 1640 0010 2B00     		movs	r3, r5
 1641              	.LVL238:
 1642              	.L98:
 103:Generated_Source\PSoC6/CapSense_Filter.c ****     {
 1643              		.loc 1 103 0 is_stmt 0 discriminator 1
 1644 0012 5D1E     		subs	r5, r3, #1
 1645              	.LVL239:
 1646 0014 002B     		cmp	r3, #0
 1647 0016 F7D1     		bne	.L99
 109:Generated_Source\PSoC6/CapSense_Filter.c **** 
 1648              		.loc 1 109 0 is_stmt 1
 1649 0018 2000     		movs	r0, r4
 1650              		@ sp needed
 1651              	.LVL240:
 1652              	.LVL241:
 1653 001a 70BD     		pop	{r4, r5, r6, pc}
 1654              		.cfi_endproc
 1655              	.LFE37:
 1656              		.size	CapSense_UpdateAllBaselines, .-CapSense_UpdateAllBaselines
 1657              		.section	.text.CapSense_RunIIRInternal,"ax",%progbits
 1658              		.align	2
ARM GAS  C:\Users\salaz\AppData\Local\Temp\cctLNP9Y.s 			page 63


 1659              		.global	CapSense_RunIIRInternal
 1660              		.code	16
 1661              		.thumb_func
 1662              		.type	CapSense_RunIIRInternal, %function
 1663              	CapSense_RunIIRInternal:
 1664              	.LFB51:
 869:Generated_Source\PSoC6/CapSense_Filter.c ****     uint32 freqChannel;
 1665              		.loc 1 869 0
 1666              		.cfi_startproc
 1667              		@ args = 0, pretend = 0, frame = 8
 1668              		@ frame_needed = 0, uses_anonymous_args = 0
 1669              	.LVL242:
 1670 0000 F0B5     		push	{r4, r5, r6, r7, lr}
 1671              		.cfi_def_cfa_offset 20
 1672              		.cfi_offset 4, -20
 1673              		.cfi_offset 5, -16
 1674              		.cfi_offset 6, -12
 1675              		.cfi_offset 7, -8
 1676              		.cfi_offset 14, -4
 1677 0002 83B0     		sub	sp, sp, #12
 1678              		.cfi_def_cfa_offset 32
 1679 0004 0500     		movs	r5, r0
 1680 0006 0191     		str	r1, [sp, #4]
 1681 0008 1700     		movs	r7, r2
 1682              	.LVL243:
 873:Generated_Source\PSoC6/CapSense_Filter.c ****     {
 1683              		.loc 1 873 0
 1684 000a 0123     		movs	r3, #1
 1685 000c 14E0     		b	.L101
 1686              	.LVL244:
 1687              	.L103:
 875:Generated_Source\PSoC6/CapSense_Filter.c ****         {
 1688              		.loc 1 875 0
 1689 000e FF23     		movs	r3, #255
 1690 0010 3B40     		ands	r3, r7
 1691 0012 062B     		cmp	r3, #6
 1692 0014 0FD1     		bne	.L102
 912:Generated_Source\PSoC6/CapSense_Filter.c ****                                                         (uint32)ptrFilterHistObj.ptrProx->proxChann
 1693              		.loc 1 912 0
 1694 0016 7400     		lsls	r4, r6, #1
 1695 0018 019B     		ldr	r3, [sp, #4]
 1696 001a E05A     		ldrh	r0, [r4, r3]
 1697              	.LVL245:
 913:Generated_Source\PSoC6/CapSense_Filter.c ****                                                         CapSense_PROX_IIR_RC_N,
 1698              		.loc 1 913 0
 1699 001c A219     		adds	r2, r4, r6
 1700 001e 9300     		lsls	r3, r2, #2
 1701 0020 595B     		ldrh	r1, [r3, r5]
 912:Generated_Source\PSoC6/CapSense_Filter.c ****                                                         (uint32)ptrFilterHistObj.ptrProx->proxChann
 1702              		.loc 1 912 0
 1703 0022 0023     		movs	r3, #0
 1704 0024 8022     		movs	r2, #128
 1705 0026 FFF7FEFF 		bl	CapSense_FtIIR1stOrder
 1706              	.LVL246:
 916:Generated_Source\PSoC6/CapSense_Filter.c ****                     ptrSensorObj->raw[freqChannel] = CY_LO16(temp >>CapSense_PROX_IIR_RC_SHIFT);
 1707              		.loc 1 916 0
 1708 002a 80B2     		uxth	r0, r0
ARM GAS  C:\Users\salaz\AppData\Local\Temp\cctLNP9Y.s 			page 64


 1709              	.LVL247:
 1710 002c A219     		adds	r2, r4, r6
 1711 002e 9300     		lsls	r3, r2, #2
 1712 0030 5853     		strh	r0, [r3, r5]
 917:Generated_Source\PSoC6/CapSense_Filter.c ****                 #endif /* (CapSense_PROX_IIR_RC_TYPE == CapSense_IIR_FILTER_PERFORMANCE) */
 1713              		.loc 1 917 0
 1714 0032 019B     		ldr	r3, [sp, #4]
 1715 0034 E052     		strh	r0, [r4, r3]
 1716              	.L102:
 869:Generated_Source\PSoC6/CapSense_Filter.c ****     uint32 freqChannel;
 1717              		.loc 1 869 0 discriminator 1
 1718 0036 3300     		movs	r3, r6
 1719              	.LVL248:
 1720              	.L101:
 873:Generated_Source\PSoC6/CapSense_Filter.c ****     {
 1721              		.loc 1 873 0 discriminator 1
 1722 0038 5E1E     		subs	r6, r3, #1
 1723              	.LVL249:
 1724 003a 002B     		cmp	r3, #0
 1725 003c E7D1     		bne	.L103
 922:Generated_Source\PSoC6/CapSense_Filter.c **** #endif /* #if (CapSense_REGULAR_RC_IIR_FILTER_EN || CapSense_PROX_RC_IIR_FILTER_EN) */
 1726              		.loc 1 922 0
 1727 003e 03B0     		add	sp, sp, #12
 1728              		@ sp needed
 1729              	.LVL250:
 1730              	.LVL251:
 1731 0040 F0BD     		pop	{r4, r5, r6, r7, pc}
 1732              		.cfi_endproc
 1733              	.LFE51:
 1734              		.size	CapSense_RunIIRInternal, .-CapSense_RunIIRInternal
 1735 0042 C046     		.section	.text.CapSense_RunIIR,"ax",%progbits
 1736              		.align	2
 1737              		.global	CapSense_RunIIR
