ARM GAS  C:\Users\salaz\AppData\Local\Temp\cc14Xrvc.s 			page 1


   1              		.syntax unified
   2              		.cpu cortex-m0plus
   3              		.fpu softvfp
   4              		.eabi_attribute 20, 1
   5              		.eabi_attribute 21, 1
   6              		.eabi_attribute 23, 3
   7              		.eabi_attribute 24, 1
   8              		.eabi_attribute 25, 1
   9              		.eabi_attribute 26, 1
  10              		.eabi_attribute 30, 1
  11              		.eabi_attribute 34, 0
  12              		.eabi_attribute 18, 4
  13              		.thumb
  14              		.syntax unified
  15              		.file	"CapSense_Processing.c"
  16              		.text
  17              	.Ltext0:
  18              		.cfi_sections	.debug_frame
  19              		.section	.text.CapSense_DpInitialize,"ax",%progbits
  20              		.align	2
  21              		.global	CapSense_DpInitialize
  22              		.code	16
  23              		.thumb_func
  24              		.type	CapSense_DpInitialize, %function
  25              	CapSense_DpInitialize:
  26              	.LFB36:
  27              		.file 1 "Generated_Source\\PSoC6\\CapSense_Processing.c"
   1:Generated_Source\PSoC6/CapSense_Processing.c **** /***************************************************************************//**
   2:Generated_Source\PSoC6/CapSense_Processing.c **** * \file CapSense_Processing.c
   3:Generated_Source\PSoC6/CapSense_Processing.c **** * \version 2.0
   4:Generated_Source\PSoC6/CapSense_Processing.c **** *
   5:Generated_Source\PSoC6/CapSense_Processing.c **** * \brief
   6:Generated_Source\PSoC6/CapSense_Processing.c **** *   This file provides the source code for the Data Processing module APIs
   7:Generated_Source\PSoC6/CapSense_Processing.c **** *   of the Component. The Data Processing module is responsible for the
   8:Generated_Source\PSoC6/CapSense_Processing.c **** *   low level raw counts processing provided by the sensing module, maintaining
   9:Generated_Source\PSoC6/CapSense_Processing.c **** *   baseline and difference values and performing high-level widget processing
  10:Generated_Source\PSoC6/CapSense_Processing.c **** *   like updating button status or calculating slider position.
  11:Generated_Source\PSoC6/CapSense_Processing.c **** *
  12:Generated_Source\PSoC6/CapSense_Processing.c **** * \see CapSense v2.0 Datasheet
  13:Generated_Source\PSoC6/CapSense_Processing.c **** *
  14:Generated_Source\PSoC6/CapSense_Processing.c **** *//*****************************************************************************
  15:Generated_Source\PSoC6/CapSense_Processing.c **** * Copyright (2016-2017), Cypress Semiconductor Corporation.
  16:Generated_Source\PSoC6/CapSense_Processing.c **** ********************************************************************************
  17:Generated_Source\PSoC6/CapSense_Processing.c **** * This software is owned by Cypress Semiconductor Corporation (Cypress) and is
  18:Generated_Source\PSoC6/CapSense_Processing.c **** * protected by and subject to worldwide patent protection (United States and
  19:Generated_Source\PSoC6/CapSense_Processing.c **** * foreign), United States copyright laws and international treaty provisions.
  20:Generated_Source\PSoC6/CapSense_Processing.c **** * Cypress hereby grants to licensee a personal, non-exclusive, non-transferable
  21:Generated_Source\PSoC6/CapSense_Processing.c **** * license to copy, use, modify, create derivative works of, and compile the
  22:Generated_Source\PSoC6/CapSense_Processing.c **** * Cypress Source Code and derivative works for the sole purpose of creating
  23:Generated_Source\PSoC6/CapSense_Processing.c **** * custom software in support of licensee product to be used only in conjunction
  24:Generated_Source\PSoC6/CapSense_Processing.c **** * with a Cypress integrated circuit as specified in the applicable agreement.
  25:Generated_Source\PSoC6/CapSense_Processing.c **** * Any reproduction, modification, translation, compilation, or representation of
  26:Generated_Source\PSoC6/CapSense_Processing.c **** * this software except as specified above is prohibited without the express
  27:Generated_Source\PSoC6/CapSense_Processing.c **** * written permission of Cypress.
  28:Generated_Source\PSoC6/CapSense_Processing.c **** *
  29:Generated_Source\PSoC6/CapSense_Processing.c **** * Disclaimer: CYPRESS MAKES NO WARRANTY OF ANY KIND, EXPRESS OR IMPLIED, WITH
  30:Generated_Source\PSoC6/CapSense_Processing.c **** * REGARD TO THIS MATERIAL, INCLUDING, BUT NOT LIMITED TO, THE IMPLIED
ARM GAS  C:\Users\salaz\AppData\Local\Temp\cc14Xrvc.s 			page 2


  31:Generated_Source\PSoC6/CapSense_Processing.c **** * WARRANTIES OF MERCHANTABILITY AND FITNESS FOR A PARTICULAR PURPOSE.
  32:Generated_Source\PSoC6/CapSense_Processing.c **** * Cypress reserves the right to make changes without further notice to the
  33:Generated_Source\PSoC6/CapSense_Processing.c **** * materials described herein. Cypress does not assume any liability arising out
  34:Generated_Source\PSoC6/CapSense_Processing.c **** * of the application or use of any product or circuit described herein. Cypress
  35:Generated_Source\PSoC6/CapSense_Processing.c **** * does not authorize its products for use as critical components in life-support
  36:Generated_Source\PSoC6/CapSense_Processing.c **** * systems where a malfunction or failure may reasonably be expected to result in
  37:Generated_Source\PSoC6/CapSense_Processing.c **** * significant injury to the user. The inclusion of Cypress' product in a life-
  38:Generated_Source\PSoC6/CapSense_Processing.c **** * support systems application implies that the manufacturer assumes all risk of
  39:Generated_Source\PSoC6/CapSense_Processing.c **** * such use and in doing so indemnifies Cypress against all charges. Use may be
  40:Generated_Source\PSoC6/CapSense_Processing.c **** * limited by and subject to the applicable Cypress software license agreement.
  41:Generated_Source\PSoC6/CapSense_Processing.c **** *******************************************************************************/
  42:Generated_Source\PSoC6/CapSense_Processing.c **** 
  43:Generated_Source\PSoC6/CapSense_Processing.c **** #include "syslib/cy_syslib.h"
  44:Generated_Source\PSoC6/CapSense_Processing.c **** #include <stddef.h>
  45:Generated_Source\PSoC6/CapSense_Processing.c **** #include <string.h>
  46:Generated_Source\PSoC6/CapSense_Processing.c **** #include "CapSense_Configuration.h"
  47:Generated_Source\PSoC6/CapSense_Processing.c **** #include "CapSense_Processing.h"
  48:Generated_Source\PSoC6/CapSense_Processing.c **** #include "CapSense_Filter.h"
  49:Generated_Source\PSoC6/CapSense_Processing.c **** 
  50:Generated_Source\PSoC6/CapSense_Processing.c **** #if (0u != CapSense_CENTROID_EN)
  51:Generated_Source\PSoC6/CapSense_Processing.c ****     #include "CapSense_Centroid_LL.h"
  52:Generated_Source\PSoC6/CapSense_Processing.c **** #endif /* (0 != CapSense_CENTROID_EN) */
  53:Generated_Source\PSoC6/CapSense_Processing.c **** 
  54:Generated_Source\PSoC6/CapSense_Processing.c **** #if (0 != (CapSense_CSD_AUTOTUNE & CapSense_CSD_SS_TH_EN))
  55:Generated_Source\PSoC6/CapSense_Processing.c ****     #include "CapSense_SmartSense_LL.h"
  56:Generated_Source\PSoC6/CapSense_Processing.c **** #endif /* (0 != (CapSense_CSD_AUTOTUNE & CapSense_CSD_SS_TH_EN)) */
  57:Generated_Source\PSoC6/CapSense_Processing.c **** 
  58:Generated_Source\PSoC6/CapSense_Processing.c **** #if (CapSense_ENABLE == CapSense_SELF_TEST_EN)
  59:Generated_Source\PSoC6/CapSense_Processing.c ****     #include "CapSense_SelfTest.h"
  60:Generated_Source\PSoC6/CapSense_Processing.c **** #endif
  61:Generated_Source\PSoC6/CapSense_Processing.c **** 
  62:Generated_Source\PSoC6/CapSense_Processing.c **** #if (CapSense_ENABLE == CapSense_CENTROID_5X5_CSD_EN)
  63:Generated_Source\PSoC6/CapSense_Processing.c ****     #include "CapSense_AdvancedCentroid_LL.h"
  64:Generated_Source\PSoC6/CapSense_Processing.c **** #endif
  65:Generated_Source\PSoC6/CapSense_Processing.c **** 
  66:Generated_Source\PSoC6/CapSense_Processing.c **** #if (CapSense_ENABLE == CapSense_POS_ADAPTIVE_IIR_FILTER_EN)
  67:Generated_Source\PSoC6/CapSense_Processing.c ****     #include "CapSense_AdaptiveFilter_LL.h"
  68:Generated_Source\PSoC6/CapSense_Processing.c **** #endif
  69:Generated_Source\PSoC6/CapSense_Processing.c **** 
  70:Generated_Source\PSoC6/CapSense_Processing.c **** #if(CapSense_ENABLE == CapSense_BALLISTIC_MULTIPLIER_EN)
  71:Generated_Source\PSoC6/CapSense_Processing.c ****     #include "CapSense_Gesture.h"
  72:Generated_Source\PSoC6/CapSense_Processing.c **** #endif
  73:Generated_Source\PSoC6/CapSense_Processing.c **** 
  74:Generated_Source\PSoC6/CapSense_Processing.c **** /**************************************************************************************************
  75:Generated_Source\PSoC6/CapSense_Processing.c **** * Local definition
  76:Generated_Source\PSoC6/CapSense_Processing.c **** ***************************************************************************************************
  77:Generated_Source\PSoC6/CapSense_Processing.c **** 
  78:Generated_Source\PSoC6/CapSense_Processing.c **** /* UINT32 constant with all odd bits set. It is used by the processing function of the Proximity wi
  79:Generated_Source\PSoC6/CapSense_Processing.c **** *  determine type of the status bit: odd bits report proximity status; even bits report touch statu
  80:Generated_Source\PSoC6/CapSense_Processing.c **** */
  81:Generated_Source\PSoC6/CapSense_Processing.c **** #define UINT32_ODD_BITS_CONST       (0x55555555u)
  82:Generated_Source\PSoC6/CapSense_Processing.c **** 
  83:Generated_Source\PSoC6/CapSense_Processing.c **** /* Default value for the Off Debounce counter when the Off Debounce is disabled */
  84:Generated_Source\PSoC6/CapSense_Processing.c **** #define DEFAULT_OFF_DEBOUNCE_VALUE  (1u)
  85:Generated_Source\PSoC6/CapSense_Processing.c **** #define PERCENTAGE_100              (100u)
  86:Generated_Source\PSoC6/CapSense_Processing.c **** #define TEMP_BUFFER_MSB_SHIFT       (16)
  87:Generated_Source\PSoC6/CapSense_Processing.c **** 
ARM GAS  C:\Users\salaz\AppData\Local\Temp\cc14Xrvc.s 			page 3


  88:Generated_Source\PSoC6/CapSense_Processing.c **** /**************************************************************************************************
  89:Generated_Source\PSoC6/CapSense_Processing.c **** * Local variables
  90:Generated_Source\PSoC6/CapSense_Processing.c **** ***************************************************************************************************
  91:Generated_Source\PSoC6/CapSense_Processing.c **** #if (0u != CapSense_CSX_MULTIPHASE_TX_EN)
  92:Generated_Source\PSoC6/CapSense_Processing.c ****     static uint16 deconvRowData[CapSense_CSX_MAX_TX_PHASE_LENGTH];
  93:Generated_Source\PSoC6/CapSense_Processing.c **** #endif
  94:Generated_Source\PSoC6/CapSense_Processing.c **** 
  95:Generated_Source\PSoC6/CapSense_Processing.c **** 
  96:Generated_Source\PSoC6/CapSense_Processing.c **** /**************************************************************************************************
  97:Generated_Source\PSoC6/CapSense_Processing.c **** * Static Function Prototypes
  98:Generated_Source\PSoC6/CapSense_Processing.c **** ***************************************************************************************************
  99:Generated_Source\PSoC6/CapSense_Processing.c **** /**
 100:Generated_Source\PSoC6/CapSense_Processing.c **** * \cond SECTION_CYSENSE_INTERNAL
 101:Generated_Source\PSoC6/CapSense_Processing.c **** * \addtogroup group_cysense_internal
 102:Generated_Source\PSoC6/CapSense_Processing.c **** * \{
 103:Generated_Source\PSoC6/CapSense_Processing.c **** */
 104:Generated_Source\PSoC6/CapSense_Processing.c **** #if (0u != CapSense_TOTAL_LINEAR_SLIDERS)
 105:Generated_Source\PSoC6/CapSense_Processing.c ****     __STATIC_INLINE void DpUpdateLinSlider(
 106:Generated_Source\PSoC6/CapSense_Processing.c ****                         const uint16 newPos[], uint32 numTouches,
 107:Generated_Source\PSoC6/CapSense_Processing.c ****                         CapSense_FLASH_WD_STRUCT const *ptrFlashWdgt,
 108:Generated_Source\PSoC6/CapSense_Processing.c ****                         CapSense_RAM_WD_SLIDER_STRUCT *ptrRamWdgt);
 109:Generated_Source\PSoC6/CapSense_Processing.c **** #endif /* #if (0u != CapSense_TOTAL_LINEAR_SLIDERS) */
 110:Generated_Source\PSoC6/CapSense_Processing.c **** 
 111:Generated_Source\PSoC6/CapSense_Processing.c **** #if (0u != CapSense_TOTAL_RADIAL_SLIDERS)
 112:Generated_Source\PSoC6/CapSense_Processing.c ****     __STATIC_INLINE void DpUpdateRadSlider(
 113:Generated_Source\PSoC6/CapSense_Processing.c ****                         const uint16 newPos[], uint32 numTouches,
 114:Generated_Source\PSoC6/CapSense_Processing.c ****                         CapSense_FLASH_WD_STRUCT const * ptrFlashWdgt,
 115:Generated_Source\PSoC6/CapSense_Processing.c ****                         CapSense_RAM_WD_SLIDER_STRUCT *ptrRamWdgt);
 116:Generated_Source\PSoC6/CapSense_Processing.c **** #endif /* #if (0u != CapSense_TOTAL_RADIAL_SLIDERS) */
 117:Generated_Source\PSoC6/CapSense_Processing.c **** 
 118:Generated_Source\PSoC6/CapSense_Processing.c **** #if (0u != CapSense_CSD_TOUCHPAD_WIDGET_EN)
 119:Generated_Source\PSoC6/CapSense_Processing.c ****     __STATIC_INLINE void CapSense_DpInitCsdTouchpad(CapSense_FLASH_WD_STRUCT const * ptrFlashWdgt);
 120:Generated_Source\PSoC6/CapSense_Processing.c **** #endif /* #if (0u != CapSense_CSD_TOUCHPAD_WIDGET_EN) */
 121:Generated_Source\PSoC6/CapSense_Processing.c **** 
 122:Generated_Source\PSoC6/CapSense_Processing.c **** #if (0u != CapSense_CSX_TOUCHPAD_WIDGET_EN)
 123:Generated_Source\PSoC6/CapSense_Processing.c ****     __STATIC_INLINE void CapSense_DpInitCsxTouchpad(CapSense_FLASH_WD_STRUCT const * ptrFlashWdgt);
 124:Generated_Source\PSoC6/CapSense_Processing.c **** #endif /* #if (0u != CapSense_CSX_TOUCHPAD_WIDGET_EN) */
 125:Generated_Source\PSoC6/CapSense_Processing.c **** 
 126:Generated_Source\PSoC6/CapSense_Processing.c **** #if (0u != CapSense_SLIDER_WIDGET_EN)
 127:Generated_Source\PSoC6/CapSense_Processing.c ****     __STATIC_INLINE void CapSense_DpInitSlider(CapSense_FLASH_WD_STRUCT const * ptrFlashWdgt);
 128:Generated_Source\PSoC6/CapSense_Processing.c **** #endif /* #if (0u != CapSense_SLIDER_WIDGET_EN) */
 129:Generated_Source\PSoC6/CapSense_Processing.c **** 
 130:Generated_Source\PSoC6/CapSense_Processing.c **** #if (0u != CapSense_CSD_MATRIX_WIDGET_EN)
 131:Generated_Source\PSoC6/CapSense_Processing.c ****     __STATIC_INLINE void CapSense_DpInitCsdMatrix(CapSense_FLASH_WD_STRUCT const * ptrFlashWdgt);
 132:Generated_Source\PSoC6/CapSense_Processing.c **** #endif /* #if (0u != CapSense_CSD_MATRIX_WIDGET_EN) */
 133:Generated_Source\PSoC6/CapSense_Processing.c **** 
 134:Generated_Source\PSoC6/CapSense_Processing.c **** /** \}
 135:Generated_Source\PSoC6/CapSense_Processing.c **** * \endcond */
 136:Generated_Source\PSoC6/CapSense_Processing.c **** 
 137:Generated_Source\PSoC6/CapSense_Processing.c **** #if (0u != CapSense_CSD_TOUCHPAD_WIDGET_EN)
 138:Generated_Source\PSoC6/CapSense_Processing.c **** /*******************************************************************************
 139:Generated_Source\PSoC6/CapSense_Processing.c **** * Function Name: CapSense_DpInitCsdTouchpad
 140:Generated_Source\PSoC6/CapSense_Processing.c **** ****************************************************************************//**
 141:Generated_Source\PSoC6/CapSense_Processing.c **** *
 142:Generated_Source\PSoC6/CapSense_Processing.c **** * \brief
 143:Generated_Source\PSoC6/CapSense_Processing.c **** *  Performs initialization of the CSD touchpad widget.
 144:Generated_Source\PSoC6/CapSense_Processing.c **** *   - Resets the position data to NONE
ARM GAS  C:\Users\salaz\AppData\Local\Temp\cc14Xrvc.s 			page 4


 145:Generated_Source\PSoC6/CapSense_Processing.c **** *   - Initializes the position filter history if enabled.
 146:Generated_Source\PSoC6/CapSense_Processing.c **** *
 147:Generated_Source\PSoC6/CapSense_Processing.c **** * \details
 148:Generated_Source\PSoC6/CapSense_Processing.c **** *  The position data is always reset to the CapSense_TOUCHPAD_POS_NONE value.
 149:Generated_Source\PSoC6/CapSense_Processing.c **** *  The same happens to the position filter history data if enabled.
 150:Generated_Source\PSoC6/CapSense_Processing.c **** *
 151:Generated_Source\PSoC6/CapSense_Processing.c **** *******************************************************************************/
 152:Generated_Source\PSoC6/CapSense_Processing.c **** __STATIC_INLINE void CapSense_DpInitCsdTouchpad(CapSense_FLASH_WD_STRUCT const * ptrFlashWdgt)
 153:Generated_Source\PSoC6/CapSense_Processing.c **** {
 154:Generated_Source\PSoC6/CapSense_Processing.c ****     #if (CapSense_ENABLE == CapSense_CENTROID_5X5_CSD_EN)
 155:Generated_Source\PSoC6/CapSense_Processing.c ****         uint32 touchIndex;
 156:Generated_Source\PSoC6/CapSense_Processing.c ****     #endif
 157:Generated_Source\PSoC6/CapSense_Processing.c **** 
 158:Generated_Source\PSoC6/CapSense_Processing.c ****     CapSense_RAM_WD_CSD_TOUCHPAD_STRUCT *ptrWdTouchpad;
 159:Generated_Source\PSoC6/CapSense_Processing.c **** 
 160:Generated_Source\PSoC6/CapSense_Processing.c ****     #if (0u != CapSense_POSITION_FILTER_EN)
 161:Generated_Source\PSoC6/CapSense_Processing.c ****         CapSense_TOUCHPAD_POS_HISTORY_STRUCT *ptrHistory;
 162:Generated_Source\PSoC6/CapSense_Processing.c ****     #endif  /* #if (0u != CapSense_POSITION_FILTER_EN) */
 163:Generated_Source\PSoC6/CapSense_Processing.c **** 
 164:Generated_Source\PSoC6/CapSense_Processing.c ****     #if (0u != CapSense_POS_ADAPTIVE_IIR_FILTER_EN)
 165:Generated_Source\PSoC6/CapSense_Processing.c ****         ADAPTIVE_FILTER_CONTEXT_STRUCT adpContext;
 166:Generated_Source\PSoC6/CapSense_Processing.c ****     #endif /* (0u != CapSense_POS_ADAPTIVE_IIR_FILTER_EN) */
 167:Generated_Source\PSoC6/CapSense_Processing.c **** 
 168:Generated_Source\PSoC6/CapSense_Processing.c ****     ptrWdTouchpad = ptrFlashWdgt->ptr2WdgtRam;
 169:Generated_Source\PSoC6/CapSense_Processing.c **** 
 170:Generated_Source\PSoC6/CapSense_Processing.c ****     /* Reset position data */
 171:Generated_Source\PSoC6/CapSense_Processing.c ****     #if (CapSense_ENABLE == CapSense_CENTROID_5X5_CSD_EN)
 172:Generated_Source\PSoC6/CapSense_Processing.c ****         #if (CapSense_ENABLE == CapSense_CENTROID_3X3_CSD_EN)
 173:Generated_Source\PSoC6/CapSense_Processing.c ****             if (0u != (ptrFlashWdgt->staticConfig & CapSense_CENTROID_5X5_MASK))
 174:Generated_Source\PSoC6/CapSense_Processing.c ****             {
 175:Generated_Source\PSoC6/CapSense_Processing.c ****         #endif
 176:Generated_Source\PSoC6/CapSense_Processing.c **** 
 177:Generated_Source\PSoC6/CapSense_Processing.c ****         ptrWdTouchpad->position.touchNum = 0u;
 178:Generated_Source\PSoC6/CapSense_Processing.c **** 
 179:Generated_Source\PSoC6/CapSense_Processing.c ****         #if (0u != CapSense_POSITION_FILTER_EN)
 180:Generated_Source\PSoC6/CapSense_Processing.c ****             ptrHistory = ptrFlashWdgt->ptr2PosHistory;
 181:Generated_Source\PSoC6/CapSense_Processing.c ****         #endif /* (0u != CapSense_POSITION_FILTER_EN) */
 182:Generated_Source\PSoC6/CapSense_Processing.c **** 
 183:Generated_Source\PSoC6/CapSense_Processing.c ****         for (touchIndex = 0u; touchIndex < ADVANCED_CENTROID_MAX_TOUCHES; touchIndex++)
 184:Generated_Source\PSoC6/CapSense_Processing.c ****         {
 185:Generated_Source\PSoC6/CapSense_Processing.c ****             ptrWdTouchpad->position.pos[touchIndex].x = ADVANCED_CENTROID_POSITION_NONE;
 186:Generated_Source\PSoC6/CapSense_Processing.c ****             ptrWdTouchpad->position.pos[touchIndex].y = ADVANCED_CENTROID_POSITION_NONE;
 187:Generated_Source\PSoC6/CapSense_Processing.c ****             ptrWdTouchpad->position.pos[touchIndex].zX = ADVANCED_CENTROID_POSITION_NONE;
 188:Generated_Source\PSoC6/CapSense_Processing.c ****             ptrWdTouchpad->position.pos[touchIndex].zY = ADVANCED_CENTROID_POSITION_NONE;
 189:Generated_Source\PSoC6/CapSense_Processing.c **** 
 190:Generated_Source\PSoC6/CapSense_Processing.c ****             /* Clear position filter history data if available */
 191:Generated_Source\PSoC6/CapSense_Processing.c ****             #if (0u != CapSense_POSITION_FILTER_EN)
 192:Generated_Source\PSoC6/CapSense_Processing.c ****                 if (NULL != ptrHistory)
 193:Generated_Source\PSoC6/CapSense_Processing.c ****                 {
 194:Generated_Source\PSoC6/CapSense_Processing.c ****                     CapSense_InitPosFiltersDd(&ptrHistory[touchIndex], CapSense_TOUCHPAD_POS_NONE, 
 195:Generated_Source\PSoC6/CapSense_Processing.c ****                     #if (0u != CapSense_POS_ADAPTIVE_IIR_FILTER_EN)
 196:Generated_Source\PSoC6/CapSense_Processing.c ****                         AdaptiveFilter_Initialize(&ptrWdTouchpad->aiirConfig, &adpContext);
 197:Generated_Source\PSoC6/CapSense_Processing.c ****                         ptrHistory[touchIndex].xPos.posAIIRCoeff = adpContext.coefficient;
 198:Generated_Source\PSoC6/CapSense_Processing.c ****                         ptrHistory[touchIndex].yPos.posAIIRCoeff = adpContext.coefficient;
 199:Generated_Source\PSoC6/CapSense_Processing.c ****                     #endif /* (0u != CapSense_POS_ADAPTIVE_IIR_FILTER_EN) */
 200:Generated_Source\PSoC6/CapSense_Processing.c ****                 }
 201:Generated_Source\PSoC6/CapSense_Processing.c ****             #endif /* (0u != CapSense_POSITION_FILTER_EN) */
ARM GAS  C:\Users\salaz\AppData\Local\Temp\cc14Xrvc.s 			page 5


 202:Generated_Source\PSoC6/CapSense_Processing.c ****         }
 203:Generated_Source\PSoC6/CapSense_Processing.c **** 
 204:Generated_Source\PSoC6/CapSense_Processing.c ****         #if (CapSense_ENABLE == CapSense_CENTROID_3X3_CSD_EN)
 205:Generated_Source\PSoC6/CapSense_Processing.c ****             }
 206:Generated_Source\PSoC6/CapSense_Processing.c ****         #endif
 207:Generated_Source\PSoC6/CapSense_Processing.c ****     #endif
 208:Generated_Source\PSoC6/CapSense_Processing.c **** 
 209:Generated_Source\PSoC6/CapSense_Processing.c ****     #if (CapSense_ENABLE == CapSense_CENTROID_3X3_CSD_EN)
 210:Generated_Source\PSoC6/CapSense_Processing.c ****         if (0u != (ptrFlashWdgt->staticConfig & CapSense_CENTROID_3X3_MASK))
 211:Generated_Source\PSoC6/CapSense_Processing.c ****         {
 212:Generated_Source\PSoC6/CapSense_Processing.c ****             ptrWdTouchpad->posX = CapSense_TOUCHPAD_POS_NONE;
 213:Generated_Source\PSoC6/CapSense_Processing.c ****             ptrWdTouchpad->posY = CapSense_TOUCHPAD_POS_NONE;
 214:Generated_Source\PSoC6/CapSense_Processing.c **** 
 215:Generated_Source\PSoC6/CapSense_Processing.c ****             /* Clear position filter history data if available */
 216:Generated_Source\PSoC6/CapSense_Processing.c ****             #if (0u != CapSense_POSITION_FILTER_EN)
 217:Generated_Source\PSoC6/CapSense_Processing.c ****                 ptrHistory = ptrFlashWdgt->ptr2PosHistory;
 218:Generated_Source\PSoC6/CapSense_Processing.c ****                 CapSense_InitPosFiltersDd(ptrHistory, CapSense_TOUCHPAD_POS_NONE, CapSense_TOUCHPAD
 219:Generated_Source\PSoC6/CapSense_Processing.c **** 
 220:Generated_Source\PSoC6/CapSense_Processing.c ****                 #if (0u != CapSense_POS_ADAPTIVE_IIR_FILTER_EN)
 221:Generated_Source\PSoC6/CapSense_Processing.c ****                     if (NULL != ptrHistory)
 222:Generated_Source\PSoC6/CapSense_Processing.c ****                     {
 223:Generated_Source\PSoC6/CapSense_Processing.c ****                         AdaptiveFilter_Initialize(&ptrWdTouchpad->aiirConfig, &adpContext);
 224:Generated_Source\PSoC6/CapSense_Processing.c ****                         ptrHistory->xPos.posAIIRCoeff = adpContext.coefficient;
 225:Generated_Source\PSoC6/CapSense_Processing.c ****                         ptrHistory->yPos.posAIIRCoeff = adpContext.coefficient;
 226:Generated_Source\PSoC6/CapSense_Processing.c ****                     }
 227:Generated_Source\PSoC6/CapSense_Processing.c ****                 #endif /* (0u != CapSense_POS_ADAPTIVE_IIR_FILTER_EN) */
 228:Generated_Source\PSoC6/CapSense_Processing.c ****             #endif /* (0u != CapSense_POSITION_FILTER_EN) */
 229:Generated_Source\PSoC6/CapSense_Processing.c ****         }
 230:Generated_Source\PSoC6/CapSense_Processing.c ****     #endif
 231:Generated_Source\PSoC6/CapSense_Processing.c **** }
 232:Generated_Source\PSoC6/CapSense_Processing.c **** #endif /* #if (0u != CapSense_CSD_TOUCHPAD_WIDGET_EN) */
 233:Generated_Source\PSoC6/CapSense_Processing.c **** 
 234:Generated_Source\PSoC6/CapSense_Processing.c **** #if (0u != CapSense_CSX_TOUCHPAD_WIDGET_EN)
 235:Generated_Source\PSoC6/CapSense_Processing.c **** /*******************************************************************************
 236:Generated_Source\PSoC6/CapSense_Processing.c **** * Function Name: CapSense_DpInitCsxTouchpad
 237:Generated_Source\PSoC6/CapSense_Processing.c **** ****************************************************************************//**
 238:Generated_Source\PSoC6/CapSense_Processing.c **** *
 239:Generated_Source\PSoC6/CapSense_Processing.c **** * \brief
 240:Generated_Source\PSoC6/CapSense_Processing.c **** *  Performs initialization of the CSX touchpad widget i.e. Resets the position data to NONE.
 241:Generated_Source\PSoC6/CapSense_Processing.c **** *
 242:Generated_Source\PSoC6/CapSense_Processing.c **** * \details
 243:Generated_Source\PSoC6/CapSense_Processing.c **** *  The position data is always reset to the CapSense_TOUCHPAD_POS_NONE value.
 244:Generated_Source\PSoC6/CapSense_Processing.c **** *
 245:Generated_Source\PSoC6/CapSense_Processing.c **** *******************************************************************************/
 246:Generated_Source\PSoC6/CapSense_Processing.c **** __STATIC_INLINE void CapSense_DpInitCsxTouchpad(CapSense_FLASH_WD_STRUCT const * ptrFlashWdgt)
 247:Generated_Source\PSoC6/CapSense_Processing.c **** {
 248:Generated_Source\PSoC6/CapSense_Processing.c ****     CapSense_RAM_WD_CSX_TOUCHPAD_STRUCT *ptrWdTouchpad;
 249:Generated_Source\PSoC6/CapSense_Processing.c **** 
 250:Generated_Source\PSoC6/CapSense_Processing.c ****     #if (0u != CapSense_POSITION_FILTER_EN)
 251:Generated_Source\PSoC6/CapSense_Processing.c ****         uint32 touchIndex;
 252:Generated_Source\PSoC6/CapSense_Processing.c ****         CapSense_TOUCHPAD_POS_HISTORY_STRUCT *ptrHistory;
 253:Generated_Source\PSoC6/CapSense_Processing.c ****     #endif  /* #if (0u != CapSense_POSITION_FILTER_EN) */
 254:Generated_Source\PSoC6/CapSense_Processing.c **** 
 255:Generated_Source\PSoC6/CapSense_Processing.c ****     #if (0u != CapSense_POS_ADAPTIVE_IIR_FILTER_EN)
 256:Generated_Source\PSoC6/CapSense_Processing.c ****         ADAPTIVE_FILTER_CONTEXT_STRUCT adpContext;
 257:Generated_Source\PSoC6/CapSense_Processing.c ****     #endif /* (0u != CapSense_POS_ADAPTIVE_IIR_FILTER_EN) */
 258:Generated_Source\PSoC6/CapSense_Processing.c **** 
ARM GAS  C:\Users\salaz\AppData\Local\Temp\cc14Xrvc.s 			page 6


 259:Generated_Source\PSoC6/CapSense_Processing.c ****     ptrWdTouchpad = ptrFlashWdgt->ptr2WdgtRam;
 260:Generated_Source\PSoC6/CapSense_Processing.c **** 
 261:Generated_Source\PSoC6/CapSense_Processing.c ****     #if (0u != CapSense_POSITION_FILTER_EN)
 262:Generated_Source\PSoC6/CapSense_Processing.c ****         ptrHistory = ptrFlashWdgt->ptr2PosHistory;
 263:Generated_Source\PSoC6/CapSense_Processing.c ****     #endif /* (0u != CapSense_POSITION_FILTER_EN) */
 264:Generated_Source\PSoC6/CapSense_Processing.c **** 
 265:Generated_Source\PSoC6/CapSense_Processing.c ****     /* Reset position data for finger */
 266:Generated_Source\PSoC6/CapSense_Processing.c ****     ptrWdTouchpad->touch[0u].x = CapSense_TOUCHPAD_POS_NONE;
 267:Generated_Source\PSoC6/CapSense_Processing.c ****     ptrWdTouchpad->touch[0u].y = CapSense_TOUCHPAD_POS_NONE;
 268:Generated_Source\PSoC6/CapSense_Processing.c ****     ptrWdTouchpad->touch[0u].z = CY_LO8(CapSense_TOUCHPAD_POS_NONE);
 269:Generated_Source\PSoC6/CapSense_Processing.c **** 
 270:Generated_Source\PSoC6/CapSense_Processing.c ****     #if (CapSense_CSX_MAX_FINGERS > 1u)
 271:Generated_Source\PSoC6/CapSense_Processing.c ****         ptrWdTouchpad->touch[1u].x = CapSense_TOUCHPAD_POS_NONE;
 272:Generated_Source\PSoC6/CapSense_Processing.c ****         ptrWdTouchpad->touch[1u].y = CapSense_TOUCHPAD_POS_NONE;
 273:Generated_Source\PSoC6/CapSense_Processing.c ****         ptrWdTouchpad->touch[1u].z = CY_LO8(CapSense_TOUCHPAD_POS_NONE);
 274:Generated_Source\PSoC6/CapSense_Processing.c ****     #endif /* #if (CapSense_CSX_MAX_FINGERS > 1u) */
 275:Generated_Source\PSoC6/CapSense_Processing.c **** 
 276:Generated_Source\PSoC6/CapSense_Processing.c ****     #if (CapSense_CSX_MAX_FINGERS > 2u)
 277:Generated_Source\PSoC6/CapSense_Processing.c ****         ptrWdTouchpad->touch[2u].x = CapSense_TOUCHPAD_POS_NONE;
 278:Generated_Source\PSoC6/CapSense_Processing.c ****         ptrWdTouchpad->touch[2u].y = CapSense_TOUCHPAD_POS_NONE;
 279:Generated_Source\PSoC6/CapSense_Processing.c ****         ptrWdTouchpad->touch[2u].z = CY_LO8(CapSense_TOUCHPAD_POS_NONE);
 280:Generated_Source\PSoC6/CapSense_Processing.c ****     #endif /* #if (CapSense_CSX_MAX_FINGERS > 2u) */
 281:Generated_Source\PSoC6/CapSense_Processing.c **** 
 282:Generated_Source\PSoC6/CapSense_Processing.c ****     #if (0u != CapSense_POSITION_FILTER_EN)
 283:Generated_Source\PSoC6/CapSense_Processing.c ****         for (touchIndex = 0u; touchIndex < CapSense_CSX_MAX_FINGERS; touchIndex++)
 284:Generated_Source\PSoC6/CapSense_Processing.c ****         {
 285:Generated_Source\PSoC6/CapSense_Processing.c ****             if (NULL != ptrHistory)
 286:Generated_Source\PSoC6/CapSense_Processing.c ****             {
 287:Generated_Source\PSoC6/CapSense_Processing.c ****                 /* Clear position filter history data if available */
 288:Generated_Source\PSoC6/CapSense_Processing.c ****                 CapSense_InitPosFiltersDd(&ptrHistory[touchIndex], CapSense_TOUCHPAD_POS_NONE, CapS
 289:Generated_Source\PSoC6/CapSense_Processing.c ****                 #if (0u != CapSense_POS_ADAPTIVE_IIR_FILTER_EN)
 290:Generated_Source\PSoC6/CapSense_Processing.c ****                     AdaptiveFilter_Initialize(&ptrWdTouchpad->aiirConfig, &adpContext);
 291:Generated_Source\PSoC6/CapSense_Processing.c ****                     ptrHistory[touchIndex].xPos.posAIIRCoeff = adpContext.coefficient;
 292:Generated_Source\PSoC6/CapSense_Processing.c ****                     ptrHistory[touchIndex].yPos.posAIIRCoeff = adpContext.coefficient;
 293:Generated_Source\PSoC6/CapSense_Processing.c ****                 #endif /* (0u != CapSense_POS_ADAPTIVE_IIR_FILTER_EN) */
 294:Generated_Source\PSoC6/CapSense_Processing.c ****             }
 295:Generated_Source\PSoC6/CapSense_Processing.c ****         }
 296:Generated_Source\PSoC6/CapSense_Processing.c ****     #endif /* (0u != CapSense_POSITION_FILTER_EN) */
 297:Generated_Source\PSoC6/CapSense_Processing.c **** }
 298:Generated_Source\PSoC6/CapSense_Processing.c **** #endif /* #if (0u != CapSense_CSX_TOUCHPAD_WIDGET_EN) */
 299:Generated_Source\PSoC6/CapSense_Processing.c **** 
 300:Generated_Source\PSoC6/CapSense_Processing.c **** #if (0u != CapSense_SLIDER_WIDGET_EN)
 301:Generated_Source\PSoC6/CapSense_Processing.c **** /*******************************************************************************
 302:Generated_Source\PSoC6/CapSense_Processing.c **** * Function Name: CapSense_DpInitSlider
 303:Generated_Source\PSoC6/CapSense_Processing.c **** ****************************************************************************//**
 304:Generated_Source\PSoC6/CapSense_Processing.c **** *
 305:Generated_Source\PSoC6/CapSense_Processing.c **** * \brief
 306:Generated_Source\PSoC6/CapSense_Processing.c **** *  Performs initialization of the Radial and Linear Slider widget.
 307:Generated_Source\PSoC6/CapSense_Processing.c **** *   - Resets the position data to NONE
 308:Generated_Source\PSoC6/CapSense_Processing.c **** *   - Initializes the position filter history to NONE if enabled.
 309:Generated_Source\PSoC6/CapSense_Processing.c **** *
 310:Generated_Source\PSoC6/CapSense_Processing.c **** * \details
 311:Generated_Source\PSoC6/CapSense_Processing.c **** *  Position data is always reset to the CapSense_SLIDER_POS_NONE value.
 312:Generated_Source\PSoC6/CapSense_Processing.c **** *  The same happens to the position filter history data if enabled.
 313:Generated_Source\PSoC6/CapSense_Processing.c **** *
 314:Generated_Source\PSoC6/CapSense_Processing.c **** *******************************************************************************/
 315:Generated_Source\PSoC6/CapSense_Processing.c **** __STATIC_INLINE void CapSense_DpInitSlider(CapSense_FLASH_WD_STRUCT const * ptrFlashWdgt)
ARM GAS  C:\Users\salaz\AppData\Local\Temp\cc14Xrvc.s 			page 7


 316:Generated_Source\PSoC6/CapSense_Processing.c **** {
 317:Generated_Source\PSoC6/CapSense_Processing.c ****     uint32 idx;
 318:Generated_Source\PSoC6/CapSense_Processing.c ****     CapSense_RAM_WD_SLIDER_STRUCT *ptrWdSlider;
 319:Generated_Source\PSoC6/CapSense_Processing.c **** 
 320:Generated_Source\PSoC6/CapSense_Processing.c ****     #if (0u != CapSense_POSITION_FILTER_EN)
 321:Generated_Source\PSoC6/CapSense_Processing.c ****         CapSense_SLIDER_POS_HISTORY_STRUCT *ptrHistory;
 322:Generated_Source\PSoC6/CapSense_Processing.c ****     #endif /* #if (0u != CapSense_POSITION_FILTER_EN) */
 323:Generated_Source\PSoC6/CapSense_Processing.c **** 
 324:Generated_Source\PSoC6/CapSense_Processing.c ****     #if (0u != CapSense_POS_ADAPTIVE_IIR_FILTER_EN)
 325:Generated_Source\PSoC6/CapSense_Processing.c ****         ADAPTIVE_FILTER_CONTEXT_STRUCT context;
 326:Generated_Source\PSoC6/CapSense_Processing.c ****     #endif /* (0u != CapSense_POS_ADAPTIVE_IIR_FILTER_EN) */
 327:Generated_Source\PSoC6/CapSense_Processing.c **** 
 328:Generated_Source\PSoC6/CapSense_Processing.c ****     ptrWdSlider = ptrFlashWdgt->ptr2WdgtRam;
 329:Generated_Source\PSoC6/CapSense_Processing.c **** 
 330:Generated_Source\PSoC6/CapSense_Processing.c ****     /* Reset slider position data to NONE */
 331:Generated_Source\PSoC6/CapSense_Processing.c ****     for (idx = 0u; idx < CapSense_NUM_CENTROIDS; idx++)
 332:Generated_Source\PSoC6/CapSense_Processing.c ****     {
 333:Generated_Source\PSoC6/CapSense_Processing.c ****         ptrWdSlider->position[idx] = CapSense_SLIDER_POS_NONE;
 334:Generated_Source\PSoC6/CapSense_Processing.c **** 
 335:Generated_Source\PSoC6/CapSense_Processing.c ****         #if (0u != CapSense_POSITION_FILTER_EN)
 336:Generated_Source\PSoC6/CapSense_Processing.c ****             ptrHistory = ptrFlashWdgt->ptr2PosHistory;
 337:Generated_Source\PSoC6/CapSense_Processing.c ****             if (NULL != ptrHistory)
 338:Generated_Source\PSoC6/CapSense_Processing.c ****             {
 339:Generated_Source\PSoC6/CapSense_Processing.c ****                 CapSense_InitPosFiltersSd(&ptrHistory[idx], CapSense_SLIDER_POS_NONE);
 340:Generated_Source\PSoC6/CapSense_Processing.c ****                 #if (0u != CapSense_POS_ADAPTIVE_IIR_FILTER_EN)
 341:Generated_Source\PSoC6/CapSense_Processing.c ****                     AdaptiveFilter_Initialize(&ptrWdSlider->aiirConfig, &context);
 342:Generated_Source\PSoC6/CapSense_Processing.c ****                     ptrHistory->posAIIRCoeff = context.coefficient;
 343:Generated_Source\PSoC6/CapSense_Processing.c ****                 #endif /* (0u != CapSense_POS_ADAPTIVE_IIR_FILTER_EN) */
 344:Generated_Source\PSoC6/CapSense_Processing.c ****             }
 345:Generated_Source\PSoC6/CapSense_Processing.c **** 
 346:Generated_Source\PSoC6/CapSense_Processing.c ****         #endif /* #if (0u != CapSense_POSITION_FILTER_EN) */
 347:Generated_Source\PSoC6/CapSense_Processing.c ****     }
 348:Generated_Source\PSoC6/CapSense_Processing.c **** }
 349:Generated_Source\PSoC6/CapSense_Processing.c **** #endif /* #if (0u != CapSense_SLIDER_WIDGET_EN) */
 350:Generated_Source\PSoC6/CapSense_Processing.c **** 
 351:Generated_Source\PSoC6/CapSense_Processing.c **** #if (0u != CapSense_CSD_MATRIX_WIDGET_EN)
 352:Generated_Source\PSoC6/CapSense_Processing.c **** /*******************************************************************************
 353:Generated_Source\PSoC6/CapSense_Processing.c **** * Function Name: CapSense_DpInitCsdMatrix
 354:Generated_Source\PSoC6/CapSense_Processing.c **** ****************************************************************************//**
 355:Generated_Source\PSoC6/CapSense_Processing.c **** *
 356:Generated_Source\PSoC6/CapSense_Processing.c **** * \brief
 357:Generated_Source\PSoC6/CapSense_Processing.c **** *  Performs initialization of the CSD Matrix Buttons widget.
 358:Generated_Source\PSoC6/CapSense_Processing.c **** *   - Resets the active button position data to NONE.
 359:Generated_Source\PSoC6/CapSense_Processing.c **** *
 360:Generated_Source\PSoC6/CapSense_Processing.c **** * \details
 361:Generated_Source\PSoC6/CapSense_Processing.c **** *  Position data is always reset to the CapSense_MATRIX_POS_NONE value.
 362:Generated_Source\PSoC6/CapSense_Processing.c **** *
 363:Generated_Source\PSoC6/CapSense_Processing.c **** *******************************************************************************/
 364:Generated_Source\PSoC6/CapSense_Processing.c **** __STATIC_INLINE void CapSense_DpInitCsdMatrix(CapSense_FLASH_WD_STRUCT const * ptrFlashWdgt)
 365:Generated_Source\PSoC6/CapSense_Processing.c **** {
 366:Generated_Source\PSoC6/CapSense_Processing.c ****     CapSense_RAM_WD_CSD_MATRIX_STRUCT *ptrRamWdgt;
 367:Generated_Source\PSoC6/CapSense_Processing.c **** 
 368:Generated_Source\PSoC6/CapSense_Processing.c ****     ptrRamWdgt = (CapSense_RAM_WD_CSD_MATRIX_STRUCT *)ptrFlashWdgt->ptr2WdgtRam;
 369:Generated_Source\PSoC6/CapSense_Processing.c **** 
 370:Generated_Source\PSoC6/CapSense_Processing.c ****     /* Reset sensor id, row and col registers in data structure */
 371:Generated_Source\PSoC6/CapSense_Processing.c ****     ptrRamWdgt->posRow   = CapSense_MATRIX_POS_NONE;
 372:Generated_Source\PSoC6/CapSense_Processing.c ****     ptrRamWdgt->posCol   = CapSense_MATRIX_POS_NONE;
ARM GAS  C:\Users\salaz\AppData\Local\Temp\cc14Xrvc.s 			page 8


 373:Generated_Source\PSoC6/CapSense_Processing.c ****     ptrRamWdgt->posSnsId = CapSense_MATRIX_POS_NONE;
 374:Generated_Source\PSoC6/CapSense_Processing.c **** }
 375:Generated_Source\PSoC6/CapSense_Processing.c **** #endif /* #if (0u != CapSense_CSD_MATRIX_WIDGET_EN) */
 376:Generated_Source\PSoC6/CapSense_Processing.c **** 
 377:Generated_Source\PSoC6/CapSense_Processing.c **** /*******************************************************************************
 378:Generated_Source\PSoC6/CapSense_Processing.c **** * Function Name: CapSense_DpInitialize
 379:Generated_Source\PSoC6/CapSense_Processing.c **** ****************************************************************************//**
 380:Generated_Source\PSoC6/CapSense_Processing.c **** *
 381:Generated_Source\PSoC6/CapSense_Processing.c **** * \brief
 382:Generated_Source\PSoC6/CapSense_Processing.c **** *  Performs initialization of the data processing FW module:
 383:Generated_Source\PSoC6/CapSense_Processing.c **** *   - Resets the de-bounce counters of all the widgets
 384:Generated_Source\PSoC6/CapSense_Processing.c **** *   - Resets the position filter history for slider and touchpad widgets
 385:Generated_Source\PSoC6/CapSense_Processing.c **** *   - Clears widget and sensor statuses
 386:Generated_Source\PSoC6/CapSense_Processing.c **** *   - Enables all the widgets.
 387:Generated_Source\PSoC6/CapSense_Processing.c **** *
 388:Generated_Source\PSoC6/CapSense_Processing.c **** * \details
 389:Generated_Source\PSoC6/CapSense_Processing.c **** *  The Button and Matrix Button widgets have individual de-bounce counter per
 390:Generated_Source\PSoC6/CapSense_Processing.c **** *  sensor for the CSD widgets and per node for the CSX widgets.
 391:Generated_Source\PSoC6/CapSense_Processing.c **** *
 392:Generated_Source\PSoC6/CapSense_Processing.c **** *  The Slider and Touchpad widgets have a single de-bounce counter per widget.
 393:Generated_Source\PSoC6/CapSense_Processing.c **** *
 394:Generated_Source\PSoC6/CapSense_Processing.c **** *  The Proximity widget has two de-bounce counters per sensor. One for the
 395:Generated_Source\PSoC6/CapSense_Processing.c **** *  proximity event and second for the touch event.
 396:Generated_Source\PSoC6/CapSense_Processing.c **** *
 397:Generated_Source\PSoC6/CapSense_Processing.c **** *  All debounce counters during initialization are set to the value of the
 398:Generated_Source\PSoC6/CapSense_Processing.c **** *  onDebounce widget parameter.
 399:Generated_Source\PSoC6/CapSense_Processing.c **** *
 400:Generated_Source\PSoC6/CapSense_Processing.c **** *******************************************************************************/
 401:Generated_Source\PSoC6/CapSense_Processing.c **** void CapSense_DpInitialize(void)
 402:Generated_Source\PSoC6/CapSense_Processing.c **** {
  28              		.loc 1 402 0
  29              		.cfi_startproc
  30              		@ args = 0, pretend = 0, frame = 0
  31              		@ frame_needed = 0, uses_anonymous_args = 0
  32 0000 70B5     		push	{r4, r5, r6, lr}
  33              		.cfi_def_cfa_offset 16
  34              		.cfi_offset 4, -16
  35              		.cfi_offset 5, -12
  36              		.cfi_offset 6, -8
  37              		.cfi_offset 14, -4
  38              	.LVL0:
 403:Generated_Source\PSoC6/CapSense_Processing.c ****     uint32 wdgtId;
 404:Generated_Source\PSoC6/CapSense_Processing.c ****     CapSense_WD_TYPE_ENUM widgetType;
 405:Generated_Source\PSoC6/CapSense_Processing.c ****     CapSense_RAM_WD_BASE_STRUCT * ptrRamWdgt;
 406:Generated_Source\PSoC6/CapSense_Processing.c ****     CapSense_FLASH_WD_STRUCT const * ptrFlashWdgt;
 407:Generated_Source\PSoC6/CapSense_Processing.c **** 
 408:Generated_Source\PSoC6/CapSense_Processing.c ****     for (wdgtId = 0u; wdgtId < CapSense_WDGT_STATUS_WORDS; wdgtId++)
  39              		.loc 1 408 0
  40 0002 0023     		movs	r3, #0
  41 0004 09E0     		b	.L2
  42              	.LVL1:
  43              	.L3:
 409:Generated_Source\PSoC6/CapSense_Processing.c ****     {
 410:Generated_Source\PSoC6/CapSense_Processing.c ****         /* Clear widget status */
 411:Generated_Source\PSoC6/CapSense_Processing.c ****         CapSense_dsRam.wdgtStatus[wdgtId] = 0u;
  44              		.loc 1 411 0 discriminator 3
  45 0006 1249     		ldr	r1, .L8
ARM GAS  C:\Users\salaz\AppData\Local\Temp\cc14Xrvc.s 			page 9


  46 0008 1A1D     		adds	r2, r3, #4
  47 000a 9200     		lsls	r2, r2, #2
  48 000c 8818     		adds	r0, r1, r2
  49 000e 0024     		movs	r4, #0
  50 0010 4460     		str	r4, [r0, #4]
 412:Generated_Source\PSoC6/CapSense_Processing.c **** 
 413:Generated_Source\PSoC6/CapSense_Processing.c ****         /* Enable all the widgets */
 414:Generated_Source\PSoC6/CapSense_Processing.c ****         CapSense_dsRam.wdgtEnable[wdgtId] = 0xFFFFFFFFLu;
  51              		.loc 1 414 0 discriminator 3
  52 0012 0120     		movs	r0, #1
  53 0014 4042     		rsbs	r0, r0, #0
  54 0016 5050     		str	r0, [r2, r1]
 408:Generated_Source\PSoC6/CapSense_Processing.c ****     {
  55              		.loc 1 408 0 discriminator 3
  56 0018 0133     		adds	r3, r3, #1
  57              	.LVL2:
  58              	.L2:
 408:Generated_Source\PSoC6/CapSense_Processing.c ****     {
  59              		.loc 1 408 0 is_stmt 0 discriminator 1
  60 001a 002B     		cmp	r3, #0
  61 001c F3D0     		beq	.L3
  62 001e 0D4C     		ldr	r4, .L8+4
  63 0020 0123     		movs	r3, #1
  64              	.LVL3:
  65 0022 11E0     		b	.L4
  66              	.LVL4:
  67              	.L7:
 415:Generated_Source\PSoC6/CapSense_Processing.c **** 
 416:Generated_Source\PSoC6/CapSense_Processing.c ****         /* Set all the widgets to working state if the Self-Test is not enabled */
 417:Generated_Source\PSoC6/CapSense_Processing.c ****         #if (0u != CapSense_SELF_TEST_EN)
 418:Generated_Source\PSoC6/CapSense_Processing.c ****             CapSense_dsRam.wdgtWorking[wdgtId] = 0xFFFFFFFFLu;
 419:Generated_Source\PSoC6/CapSense_Processing.c ****         #endif /* #if (0u == CapSense_SELF_TEST_EN) */
 420:Generated_Source\PSoC6/CapSense_Processing.c ****     }
 421:Generated_Source\PSoC6/CapSense_Processing.c **** 
 422:Generated_Source\PSoC6/CapSense_Processing.c ****     ptrFlashWdgt = CapSense_dsFlash.wdgtArray;
 423:Generated_Source\PSoC6/CapSense_Processing.c **** 
 424:Generated_Source\PSoC6/CapSense_Processing.c ****     for (wdgtId = CapSense_TOTAL_WIDGETS; wdgtId-- > 0u; )
 425:Generated_Source\PSoC6/CapSense_Processing.c ****     {
 426:Generated_Source\PSoC6/CapSense_Processing.c ****         ptrRamWdgt = (CapSense_RAM_WD_BASE_STRUCT *)ptrFlashWdgt->ptr2WdgtRam;
  68              		.loc 1 426 0 is_stmt 1
  69 0024 6668     		ldr	r6, [r4, #4]
  70              	.LVL5:
 427:Generated_Source\PSoC6/CapSense_Processing.c ****         widgetType = (CapSense_WD_TYPE_ENUM)ptrFlashWdgt->wdgtType;
  71              		.loc 1 427 0
  72 0026 A27E     		ldrb	r2, [r4, #26]
  73              	.LVL6:
 428:Generated_Source\PSoC6/CapSense_Processing.c **** 
 429:Generated_Source\PSoC6/CapSense_Processing.c ****         /* Clear all sensor statuses */
 430:Generated_Source\PSoC6/CapSense_Processing.c ****         CapSense_dsRam.snsStatus[wdgtId] = 0u;
  74              		.loc 1 430 0
  75 0028 094B     		ldr	r3, .L8
  76 002a 5B19     		adds	r3, r3, r5
  77 002c 0021     		movs	r1, #0
  78 002e 1976     		strb	r1, [r3, #24]
 431:Generated_Source\PSoC6/CapSense_Processing.c **** 
 432:Generated_Source\PSoC6/CapSense_Processing.c ****         /* Reset de-bounce counters */
 433:Generated_Source\PSoC6/CapSense_Processing.c ****         switch (widgetType)
ARM GAS  C:\Users\salaz\AppData\Local\Temp\cc14Xrvc.s 			page 10


  79              		.loc 1 433 0
  80 0030 062A     		cmp	r2, #6
  81 0032 07D1     		bne	.L5
 434:Generated_Source\PSoC6/CapSense_Processing.c ****         {
 435:Generated_Source\PSoC6/CapSense_Processing.c ****         #if (0u != CapSense_MATRIX_WIDGET_EN)
 436:Generated_Source\PSoC6/CapSense_Processing.c ****             case CapSense_WD_MATRIX_BUTTON_E:
 437:Generated_Source\PSoC6/CapSense_Processing.c ****                 #if (0u != CapSense_CSD_MATRIX_WIDGET_EN)
 438:Generated_Source\PSoC6/CapSense_Processing.c ****                     if (CapSense_SENSE_METHOD_CSD_E == CapSense_GET_SENSE_METHOD(ptrFlashWdgt))
 439:Generated_Source\PSoC6/CapSense_Processing.c ****                     {
 440:Generated_Source\PSoC6/CapSense_Processing.c ****                         CapSense_DpInitCsdMatrix(ptrFlashWdgt);
 441:Generated_Source\PSoC6/CapSense_Processing.c ****                     }
 442:Generated_Source\PSoC6/CapSense_Processing.c ****                 #endif /* #if (0u != CapSense_CSD_MATRIX_WIDGET_EN) */
 443:Generated_Source\PSoC6/CapSense_Processing.c **** 
 444:Generated_Source\PSoC6/CapSense_Processing.c ****                 if (NULL != ptrFlashWdgt->ptr2DebounceArr)
 445:Generated_Source\PSoC6/CapSense_Processing.c ****                 {
 446:Generated_Source\PSoC6/CapSense_Processing.c ****                     /* Initialize array of debounce counters */
 447:Generated_Source\PSoC6/CapSense_Processing.c ****                     (void)memset(ptrFlashWdgt->ptr2DebounceArr,
 448:Generated_Source\PSoC6/CapSense_Processing.c ****                                  (int32)ptrRamWdgt->onDebounce,
 449:Generated_Source\PSoC6/CapSense_Processing.c ****                                  (size_t)ptrFlashWdgt->totalNumSns);
 450:Generated_Source\PSoC6/CapSense_Processing.c ****                 }
 451:Generated_Source\PSoC6/CapSense_Processing.c ****                 break;
 452:Generated_Source\PSoC6/CapSense_Processing.c ****         #endif /* #if (0u != CapSense_MATRIX_WIDGET_EN) */
 453:Generated_Source\PSoC6/CapSense_Processing.c **** 
 454:Generated_Source\PSoC6/CapSense_Processing.c ****         #if (0u != CapSense_BUTTON_WIDGET_EN)
 455:Generated_Source\PSoC6/CapSense_Processing.c ****             case CapSense_WD_BUTTON_E:
 456:Generated_Source\PSoC6/CapSense_Processing.c ****                 if (NULL != ptrFlashWdgt->ptr2DebounceArr)
 457:Generated_Source\PSoC6/CapSense_Processing.c ****                 {
 458:Generated_Source\PSoC6/CapSense_Processing.c ****                     /* Initialize array of debounce counters */
 459:Generated_Source\PSoC6/CapSense_Processing.c ****                     (void)memset(ptrFlashWdgt->ptr2DebounceArr,
 460:Generated_Source\PSoC6/CapSense_Processing.c ****                                  (int32)ptrRamWdgt->onDebounce,
 461:Generated_Source\PSoC6/CapSense_Processing.c ****                                  (size_t)ptrFlashWdgt->totalNumSns);
 462:Generated_Source\PSoC6/CapSense_Processing.c ****                 }
 463:Generated_Source\PSoC6/CapSense_Processing.c ****                 break;
 464:Generated_Source\PSoC6/CapSense_Processing.c ****         #endif /* #if (0u != CapSense_BUTTON_WIDGET_EN) */
 465:Generated_Source\PSoC6/CapSense_Processing.c **** 
 466:Generated_Source\PSoC6/CapSense_Processing.c ****         #if (0u != CapSense_SLIDER_WIDGET_EN)
 467:Generated_Source\PSoC6/CapSense_Processing.c ****             case CapSense_WD_LINEAR_SLIDER_E:
 468:Generated_Source\PSoC6/CapSense_Processing.c ****             case CapSense_WD_RADIAL_SLIDER_E:
 469:Generated_Source\PSoC6/CapSense_Processing.c ****                 if (NULL != ptrFlashWdgt->ptr2DebounceArr)
 470:Generated_Source\PSoC6/CapSense_Processing.c ****                 {
 471:Generated_Source\PSoC6/CapSense_Processing.c ****                     /* Initialize single debounce counter of slider */
 472:Generated_Source\PSoC6/CapSense_Processing.c ****                     *(uint8 *)(ptrFlashWdgt->ptr2DebounceArr) = ptrRamWdgt->onDebounce;
 473:Generated_Source\PSoC6/CapSense_Processing.c ****                 }
 474:Generated_Source\PSoC6/CapSense_Processing.c **** 
 475:Generated_Source\PSoC6/CapSense_Processing.c ****                 CapSense_DpInitSlider(ptrFlashWdgt);
 476:Generated_Source\PSoC6/CapSense_Processing.c **** 
 477:Generated_Source\PSoC6/CapSense_Processing.c ****                 break;
 478:Generated_Source\PSoC6/CapSense_Processing.c ****         #endif /* #if (0u != CapSense_SLIDER_WIDGET_EN) */
 479:Generated_Source\PSoC6/CapSense_Processing.c **** 
 480:Generated_Source\PSoC6/CapSense_Processing.c ****         #if (0u != CapSense_TOUCHPAD_WIDGET_EN)
 481:Generated_Source\PSoC6/CapSense_Processing.c ****             case CapSense_WD_TOUCHPAD_E:
 482:Generated_Source\PSoC6/CapSense_Processing.c ****                 if (NULL != ptrFlashWdgt->ptr2DebounceArr)
 483:Generated_Source\PSoC6/CapSense_Processing.c ****                 {
 484:Generated_Source\PSoC6/CapSense_Processing.c ****                     /* Initialize single debounce counter of touchpad */
 485:Generated_Source\PSoC6/CapSense_Processing.c ****                     *(uint8 *)(ptrFlashWdgt->ptr2DebounceArr) = ptrRamWdgt->onDebounce;
 486:Generated_Source\PSoC6/CapSense_Processing.c ****                 }
 487:Generated_Source\PSoC6/CapSense_Processing.c **** 
ARM GAS  C:\Users\salaz\AppData\Local\Temp\cc14Xrvc.s 			page 11


 488:Generated_Source\PSoC6/CapSense_Processing.c ****                 #if (0u != CapSense_CSD_TOUCHPAD_WIDGET_EN)
 489:Generated_Source\PSoC6/CapSense_Processing.c ****                     if (CapSense_SENSE_METHOD_CSD_E == CapSense_GET_SENSE_METHOD(ptrFlashWdgt))
 490:Generated_Source\PSoC6/CapSense_Processing.c ****                     {
 491:Generated_Source\PSoC6/CapSense_Processing.c ****                         CapSense_DpInitCsdTouchpad(ptrFlashWdgt);
 492:Generated_Source\PSoC6/CapSense_Processing.c ****                     }
 493:Generated_Source\PSoC6/CapSense_Processing.c ****                 #endif /* #if (0u != CapSense_CSD_TOUCHPAD_WIDGET_EN) */
 494:Generated_Source\PSoC6/CapSense_Processing.c **** 
 495:Generated_Source\PSoC6/CapSense_Processing.c ****                 #if (0u != CapSense_CSX_TOUCHPAD_WIDGET_EN)
 496:Generated_Source\PSoC6/CapSense_Processing.c ****                     if (CapSense_SENSE_METHOD_CSX_E == CapSense_GET_SENSE_METHOD(ptrFlashWdgt))
 497:Generated_Source\PSoC6/CapSense_Processing.c ****                     {
 498:Generated_Source\PSoC6/CapSense_Processing.c ****                         CapSense_DpInitCsxTouchpad(ptrFlashWdgt);
 499:Generated_Source\PSoC6/CapSense_Processing.c ****                     }
 500:Generated_Source\PSoC6/CapSense_Processing.c ****                 #endif /* #if (0u != CapSense_CSX_TOUCHPAD_WIDGET_EN) */
 501:Generated_Source\PSoC6/CapSense_Processing.c **** 
 502:Generated_Source\PSoC6/CapSense_Processing.c ****                 break;
 503:Generated_Source\PSoC6/CapSense_Processing.c ****         #endif /* #if (0u != CapSense_TOUCHPAD_WIDGET_EN) */
 504:Generated_Source\PSoC6/CapSense_Processing.c **** 
 505:Generated_Source\PSoC6/CapSense_Processing.c ****         #if (0u != CapSense_PROXIMITY_WIDGET_EN)
 506:Generated_Source\PSoC6/CapSense_Processing.c ****             case CapSense_WD_PROXIMITY_E:
 507:Generated_Source\PSoC6/CapSense_Processing.c ****                 if (NULL != ptrFlashWdgt->ptr2DebounceArr)
  82              		.loc 1 507 0
  83 0034 2069     		ldr	r0, [r4, #16]
  84 0036 0028     		cmp	r0, #0
  85 0038 04D0     		beq	.L5
 508:Generated_Source\PSoC6/CapSense_Processing.c ****                 {
 509:Generated_Source\PSoC6/CapSense_Processing.c ****                     /* Proximity widgets have 2 de-bounce counters per sensor.
 510:Generated_Source\PSoC6/CapSense_Processing.c ****                      * Therefore the number of sensors is multiplied by 2.
 511:Generated_Source\PSoC6/CapSense_Processing.c ****                      */
 512:Generated_Source\PSoC6/CapSense_Processing.c ****                    (void)memset(ptrFlashWdgt->ptr2DebounceArr,
 513:Generated_Source\PSoC6/CapSense_Processing.c ****                                 (int32)ptrRamWdgt->onDebounce,
  86              		.loc 1 513 0
  87 003a F179     		ldrb	r1, [r6, #7]
 514:Generated_Source\PSoC6/CapSense_Processing.c ****                                 (size_t)ptrFlashWdgt->totalNumSns * 2u);
  88              		.loc 1 514 0
  89 003c 228B     		ldrh	r2, [r4, #24]
  90              	.LVL7:
 512:Generated_Source\PSoC6/CapSense_Processing.c ****                                 (int32)ptrRamWdgt->onDebounce,
  91              		.loc 1 512 0
  92 003e 5200     		lsls	r2, r2, #1
  93 0040 FFF7FEFF 		bl	memset
  94              	.LVL8:
  95              	.L5:
 515:Generated_Source\PSoC6/CapSense_Processing.c ****                 }
 516:Generated_Source\PSoC6/CapSense_Processing.c ****                 break;
 517:Generated_Source\PSoC6/CapSense_Processing.c ****         #endif /* #if (0u != CapSense_PROXIMITY_WIDGET_EN) */
 518:Generated_Source\PSoC6/CapSense_Processing.c **** 
 519:Generated_Source\PSoC6/CapSense_Processing.c ****             default:
 520:Generated_Source\PSoC6/CapSense_Processing.c ****                 break;
 521:Generated_Source\PSoC6/CapSense_Processing.c ****         }
 522:Generated_Source\PSoC6/CapSense_Processing.c **** 
 523:Generated_Source\PSoC6/CapSense_Processing.c ****         /* Move to next widget */
 524:Generated_Source\PSoC6/CapSense_Processing.c ****         ptrFlashWdgt++;
  96              		.loc 1 524 0
  97 0044 2034     		adds	r4, r4, #32
  98              	.LVL9:
 424:Generated_Source\PSoC6/CapSense_Processing.c ****     {
  99              		.loc 1 424 0
ARM GAS  C:\Users\salaz\AppData\Local\Temp\cc14Xrvc.s 			page 12


 100 0046 2B00     		movs	r3, r5
 101              	.LVL10:
 102              	.L4:
 424:Generated_Source\PSoC6/CapSense_Processing.c ****     {
 103              		.loc 1 424 0 is_stmt 0 discriminator 1
 104 0048 5D1E     		subs	r5, r3, #1
 105              	.LVL11:
 106 004a 002B     		cmp	r3, #0
 107 004c EAD1     		bne	.L7
 525:Generated_Source\PSoC6/CapSense_Processing.c ****     }
 526:Generated_Source\PSoC6/CapSense_Processing.c **** }
 108              		.loc 1 526 0 is_stmt 1
 109              		@ sp needed
 110              	.LVL12:
 111              	.LVL13:
 112 004e 70BD     		pop	{r4, r5, r6, pc}
 113              	.L9:
 114              		.align	2
 115              	.L8:
 116 0050 00000000 		.word	CapSense_dsRam
 117 0054 00000000 		.word	CapSense_dsFlash
 118              		.cfi_endproc
 119              	.LFE36:
 120              		.size	CapSense_DpInitialize, .-CapSense_DpInitialize
 121              		.section	.text.CapSense_DpUpdateThresholds,"ax",%progbits
 122              		.align	2
 123              		.global	CapSense_DpUpdateThresholds
 124              		.code	16
 125              		.thumb_func
 126              		.type	CapSense_DpUpdateThresholds, %function
 127              	CapSense_DpUpdateThresholds:
 128              	.LFB40:
 527:Generated_Source\PSoC6/CapSense_Processing.c **** 
 528:Generated_Source\PSoC6/CapSense_Processing.c **** #if (0u != CapSense_TOTAL_CSX_WIDGETS)
 529:Generated_Source\PSoC6/CapSense_Processing.c **** /*******************************************************************************
 530:Generated_Source\PSoC6/CapSense_Processing.c **** * Function Name: CapSense_DpProcessCsxWidgetRawCounts
 531:Generated_Source\PSoC6/CapSense_Processing.c **** ****************************************************************************//**
 532:Generated_Source\PSoC6/CapSense_Processing.c **** *
 533:Generated_Source\PSoC6/CapSense_Processing.c **** * \brief
 534:Generated_Source\PSoC6/CapSense_Processing.c **** *  Performs default processing of the CSX raw counts.
 535:Generated_Source\PSoC6/CapSense_Processing.c **** *
 536:Generated_Source\PSoC6/CapSense_Processing.c **** * \details
 537:Generated_Source\PSoC6/CapSense_Processing.c **** *  Performs default processing of the CSX raw counts:
 538:Generated_Source\PSoC6/CapSense_Processing.c **** *   - Run Filters
 539:Generated_Source\PSoC6/CapSense_Processing.c **** *   - Update Baselines
 540:Generated_Source\PSoC6/CapSense_Processing.c **** *   - Update Differences
 541:Generated_Source\PSoC6/CapSense_Processing.c **** *   - Update Status.
 542:Generated_Source\PSoC6/CapSense_Processing.c **** *  The same process is applied to all the sensors of the specified widget.
 543:Generated_Source\PSoC6/CapSense_Processing.c **** *
 544:Generated_Source\PSoC6/CapSense_Processing.c **** * \param ptrFlashWdgt The pointer to the Flash widget structure.
 545:Generated_Source\PSoC6/CapSense_Processing.c **** *
 546:Generated_Source\PSoC6/CapSense_Processing.c **** * \return
 547:Generated_Source\PSoC6/CapSense_Processing.c **** *  Returns the status of the specified widget processing operation:
 548:Generated_Source\PSoC6/CapSense_Processing.c **** *  - CY_RET_SUCCESS if operation was successfully completed;
 549:Generated_Source\PSoC6/CapSense_Processing.c **** *  - CapSense_PROCESS_BASELINE_FAILED if baseline processing of any
 550:Generated_Source\PSoC6/CapSense_Processing.c **** *    sensor of the specified widget failed. The result is concatenated with the index
 551:Generated_Source\PSoC6/CapSense_Processing.c **** *    of failed sensor.
ARM GAS  C:\Users\salaz\AppData\Local\Temp\cc14Xrvc.s 			page 13


 552:Generated_Source\PSoC6/CapSense_Processing.c **** *
 553:Generated_Source\PSoC6/CapSense_Processing.c **** *******************************************************************************/
 554:Generated_Source\PSoC6/CapSense_Processing.c **** uint32 CapSense_DpProcessCsxWidgetRawCounts(CapSense_FLASH_WD_STRUCT const *ptrFlashWdgt)
 555:Generated_Source\PSoC6/CapSense_Processing.c **** {
 556:Generated_Source\PSoC6/CapSense_Processing.c ****     uint32 result = CY_RET_SUCCESS;
 557:Generated_Source\PSoC6/CapSense_Processing.c ****     uint32 widgetType;
 558:Generated_Source\PSoC6/CapSense_Processing.c ****     uint32 snsCount;
 559:Generated_Source\PSoC6/CapSense_Processing.c ****     CapSense_RAM_SNS_STRUCT *ptrSnsTmp;
 560:Generated_Source\PSoC6/CapSense_Processing.c ****     CapSense_RAM_WD_BASE_STRUCT *ptrRamWdgt;
 561:Generated_Source\PSoC6/CapSense_Processing.c **** 
 562:Generated_Source\PSoC6/CapSense_Processing.c ****     #if (CapSense_ENABLE == CapSense_RC_FILTER_EN)
 563:Generated_Source\PSoC6/CapSense_Processing.c ****         CapSense_PTR_FILTER_VARIANT fltrHistV;
 564:Generated_Source\PSoC6/CapSense_Processing.c **** 
 565:Generated_Source\PSoC6/CapSense_Processing.c ****         fltrHistV.ptr = ptrFlashWdgt->ptr2FltrHistory;
 566:Generated_Source\PSoC6/CapSense_Processing.c ****     #endif /* #if (CapSense_ENABLE == CapSense_RC_FILTER_EN) */
 567:Generated_Source\PSoC6/CapSense_Processing.c **** 
 568:Generated_Source\PSoC6/CapSense_Processing.c ****     ptrSnsTmp = ptrFlashWdgt->ptr2SnsRam;
 569:Generated_Source\PSoC6/CapSense_Processing.c ****     snsCount = ptrFlashWdgt->totalNumSns;
 570:Generated_Source\PSoC6/CapSense_Processing.c ****     ptrRamWdgt = (CapSense_RAM_WD_BASE_STRUCT *)ptrFlashWdgt->ptr2WdgtRam;
 571:Generated_Source\PSoC6/CapSense_Processing.c ****     widgetType = ptrFlashWdgt->wdgtType;
 572:Generated_Source\PSoC6/CapSense_Processing.c **** 
 573:Generated_Source\PSoC6/CapSense_Processing.c ****     /* Run deconvolution algorithm for the widgets with multiphase TX support */
 574:Generated_Source\PSoC6/CapSense_Processing.c ****     #if (0u != CapSense_CSX_MULTIPHASE_TX_EN)
 575:Generated_Source\PSoC6/CapSense_Processing.c ****         if (0u != (ptrFlashWdgt->staticConfig & CapSense_MULTIPHASE_TX_MASK))
 576:Generated_Source\PSoC6/CapSense_Processing.c ****         {
 577:Generated_Source\PSoC6/CapSense_Processing.c ****             CapSense_DpDeconvolution(ptrFlashWdgt);
 578:Generated_Source\PSoC6/CapSense_Processing.c ****         }
 579:Generated_Source\PSoC6/CapSense_Processing.c ****     #endif  /* #if (0u != CapSense_CSX_MULTIPHASE_TX_EN) */
 580:Generated_Source\PSoC6/CapSense_Processing.c **** 
 581:Generated_Source\PSoC6/CapSense_Processing.c ****     for (;snsCount-- > 0u;)
 582:Generated_Source\PSoC6/CapSense_Processing.c ****     {
 583:Generated_Source\PSoC6/CapSense_Processing.c ****         #if (CapSense_ENABLE == CapSense_RC_FILTER_EN)
 584:Generated_Source\PSoC6/CapSense_Processing.c ****             CapSense_FtRunEnabledFiltersInternal(fltrHistV, ptrSnsTmp, widgetType);
 585:Generated_Source\PSoC6/CapSense_Processing.c ****             #if (CapSense_ALP_FILTER_EN)
 586:Generated_Source\PSoC6/CapSense_Processing.c ****                 CapSense_ConfigRunALPInternal(fltrHistV, ptrRamWdgt, ptrSnsTmp, widgetType);
 587:Generated_Source\PSoC6/CapSense_Processing.c ****             #endif
 588:Generated_Source\PSoC6/CapSense_Processing.c ****         #endif /* #if (CapSense_ENABLE == CapSense_RC_FILTER_EN) */
 589:Generated_Source\PSoC6/CapSense_Processing.c **** 
 590:Generated_Source\PSoC6/CapSense_Processing.c ****         result = CapSense_FtUpdateBaseline(ptrRamWdgt, ptrSnsTmp, widgetType);
 591:Generated_Source\PSoC6/CapSense_Processing.c **** 
 592:Generated_Source\PSoC6/CapSense_Processing.c ****         #if (CapSense_ENABLE == CapSense_TST_BSLN_DUPLICATION_EN)
 593:Generated_Source\PSoC6/CapSense_Processing.c ****             if (CY_RET_SUCCESS != result)
 594:Generated_Source\PSoC6/CapSense_Processing.c ****             {
 595:Generated_Source\PSoC6/CapSense_Processing.c ****                 result = snsCount | CapSense_PROCESS_BASELINE_FAILED;
 596:Generated_Source\PSoC6/CapSense_Processing.c ****             }
 597:Generated_Source\PSoC6/CapSense_Processing.c ****         #endif /* (CapSense_ENABLE == CapSense_TST_BSLN_DUPLICATION_EN) */
 598:Generated_Source\PSoC6/CapSense_Processing.c **** 
 599:Generated_Source\PSoC6/CapSense_Processing.c ****         CapSense_DpUpdateDifferences(ptrRamWdgt, ptrSnsTmp);
 600:Generated_Source\PSoC6/CapSense_Processing.c **** 
 601:Generated_Source\PSoC6/CapSense_Processing.c ****         /* Move pointers to the next sensor and filter history objects */
 602:Generated_Source\PSoC6/CapSense_Processing.c ****         ptrSnsTmp++;
 603:Generated_Source\PSoC6/CapSense_Processing.c ****         
 604:Generated_Source\PSoC6/CapSense_Processing.c ****         #if (CapSense_ENABLE == CapSense_RC_FILTER_EN)
 605:Generated_Source\PSoC6/CapSense_Processing.c ****             CapSense_INC_REG_FLTR_OBJ(fltrHistV);
 606:Generated_Source\PSoC6/CapSense_Processing.c ****         #endif /* #if (CapSense_ENABLE == CapSense_RC_FILTER_EN) */
 607:Generated_Source\PSoC6/CapSense_Processing.c ****     }
 608:Generated_Source\PSoC6/CapSense_Processing.c ****     return result;
ARM GAS  C:\Users\salaz\AppData\Local\Temp\cc14Xrvc.s 			page 14


 609:Generated_Source\PSoC6/CapSense_Processing.c **** }
 610:Generated_Source\PSoC6/CapSense_Processing.c **** 
 611:Generated_Source\PSoC6/CapSense_Processing.c **** /*******************************************************************************
 612:Generated_Source\PSoC6/CapSense_Processing.c **** * Function Name: CapSense_DpProcessCsxSensorRawCountsExt
 613:Generated_Source\PSoC6/CapSense_Processing.c **** ****************************************************************************//**
 614:Generated_Source\PSoC6/CapSense_Processing.c **** *
 615:Generated_Source\PSoC6/CapSense_Processing.c **** * \brief
 616:Generated_Source\PSoC6/CapSense_Processing.c **** *   Performs customized processing of the CSX sensor raw counts.
 617:Generated_Source\PSoC6/CapSense_Processing.c **** *
 618:Generated_Source\PSoC6/CapSense_Processing.c **** * \details
 619:Generated_Source\PSoC6/CapSense_Processing.c **** *   Performs customized processing of the CSX sensor raw counts.
 620:Generated_Source\PSoC6/CapSense_Processing.c **** *
 621:Generated_Source\PSoC6/CapSense_Processing.c **** *   If all bits are set at once the default processing order will take place.
 622:Generated_Source\PSoC6/CapSense_Processing.c **** *   For the custom order this API can be called multiple times and execute one task at a time.
 623:Generated_Source\PSoC6/CapSense_Processing.c **** *
 624:Generated_Source\PSoC6/CapSense_Processing.c **** * \param ptrFlashWdgt The pointer to the Flash Widget Object.
 625:Generated_Source\PSoC6/CapSense_Processing.c **** * \param curSnsPtr    The pointer to the specific RAM Sensor Object.
 626:Generated_Source\PSoC6/CapSense_Processing.c **** * \param fltrHistV    The pointer to the Filter History Object in RAM associated with specific sens
 627:Generated_Source\PSoC6/CapSense_Processing.c **** * \param mode         The bit-mask with the data processing tasks to be executed.
 628:Generated_Source\PSoC6/CapSense_Processing.c **** *   The mode parameters can take the following values:
 629:Generated_Source\PSoC6/CapSense_Processing.c **** *    - CapSense_PROCESS_FILTER     (0x01) Run Firmware Filter
 630:Generated_Source\PSoC6/CapSense_Processing.c **** *    - CapSense_PROCESS_BASELINE   (0x02) Update Baselines
 631:Generated_Source\PSoC6/CapSense_Processing.c **** *    - CapSense_PROCESS_DIFFCOUNTS (0x04) Update Difference Counts
 632:Generated_Source\PSoC6/CapSense_Processing.c **** *    - CapSense_PROCESS_ALL               Execute all tasks
 633:Generated_Source\PSoC6/CapSense_Processing.c **** *
 634:Generated_Source\PSoC6/CapSense_Processing.c **** * \return
 635:Generated_Source\PSoC6/CapSense_Processing.c **** *  Returns the status of the specified sensor processing operation:
 636:Generated_Source\PSoC6/CapSense_Processing.c **** *  - CY_RET_SUCCESS if operation was successfully completed;
 637:Generated_Source\PSoC6/CapSense_Processing.c **** *  - CapSense_PROCESS_BASELINE_FAILED if baseline processing of any
 638:Generated_Source\PSoC6/CapSense_Processing.c **** *    sensor of the specified widget failed. The result is concatenated with the index
 639:Generated_Source\PSoC6/CapSense_Processing.c **** *    of failed sensor.
 640:Generated_Source\PSoC6/CapSense_Processing.c **** *
 641:Generated_Source\PSoC6/CapSense_Processing.c **** *******************************************************************************/
 642:Generated_Source\PSoC6/CapSense_Processing.c **** uint32 CapSense_DpProcessCsxSensorRawCountsExt(
 643:Generated_Source\PSoC6/CapSense_Processing.c ****                 CapSense_FLASH_WD_STRUCT const *ptrFlashWdgt,
 644:Generated_Source\PSoC6/CapSense_Processing.c ****                 CapSense_RAM_SNS_STRUCT *curSnsPtr,
 645:Generated_Source\PSoC6/CapSense_Processing.c ****                 CapSense_PTR_FILTER_VARIANT fltrHistV,
 646:Generated_Source\PSoC6/CapSense_Processing.c ****                 uint32 mode)
 647:Generated_Source\PSoC6/CapSense_Processing.c **** {
 648:Generated_Source\PSoC6/CapSense_Processing.c ****     uint32  result = CY_RET_SUCCESS;
 649:Generated_Source\PSoC6/CapSense_Processing.c ****     uint32  widgetType;
 650:Generated_Source\PSoC6/CapSense_Processing.c ****     CapSense_RAM_WD_BASE_STRUCT *ptrRamWdgt;
 651:Generated_Source\PSoC6/CapSense_Processing.c **** 
 652:Generated_Source\PSoC6/CapSense_Processing.c ****     widgetType = ptrFlashWdgt->wdgtType;
 653:Generated_Source\PSoC6/CapSense_Processing.c ****     ptrRamWdgt = (CapSense_RAM_WD_BASE_STRUCT *)ptrFlashWdgt->ptr2WdgtRam;
 654:Generated_Source\PSoC6/CapSense_Processing.c **** 
 655:Generated_Source\PSoC6/CapSense_Processing.c ****     #if (CapSense_ENABLE == CapSense_RC_FILTER_EN)
 656:Generated_Source\PSoC6/CapSense_Processing.c ****         if (0u != (mode & CapSense_PROCESS_FILTER))
 657:Generated_Source\PSoC6/CapSense_Processing.c ****         {
 658:Generated_Source\PSoC6/CapSense_Processing.c ****             CapSense_FtRunEnabledFiltersInternal(fltrHistV, curSnsPtr, widgetType);
 659:Generated_Source\PSoC6/CapSense_Processing.c ****             #if (CapSense_ALP_FILTER_EN)
 660:Generated_Source\PSoC6/CapSense_Processing.c ****                 CapSense_ConfigRunALPInternal(fltrHistV, ptrRamWdgt, curSnsPtr, widgetType);
 661:Generated_Source\PSoC6/CapSense_Processing.c ****             #endif
 662:Generated_Source\PSoC6/CapSense_Processing.c ****         }
 663:Generated_Source\PSoC6/CapSense_Processing.c ****     #else
 664:Generated_Source\PSoC6/CapSense_Processing.c ****         (void)fltrHistV; /* This parameter is unused in such configurations */
 665:Generated_Source\PSoC6/CapSense_Processing.c ****     #endif /* #if (CapSense_ENABLE == CapSense_RC_FILTER_EN) */
ARM GAS  C:\Users\salaz\AppData\Local\Temp\cc14Xrvc.s 			page 15


 666:Generated_Source\PSoC6/CapSense_Processing.c **** 
 667:Generated_Source\PSoC6/CapSense_Processing.c ****     if (0u != (mode & CapSense_PROCESS_BASELINE))
 668:Generated_Source\PSoC6/CapSense_Processing.c ****     {
 669:Generated_Source\PSoC6/CapSense_Processing.c ****         result = CapSense_FtUpdateBaseline(ptrRamWdgt, curSnsPtr, widgetType);
 670:Generated_Source\PSoC6/CapSense_Processing.c ****     }
 671:Generated_Source\PSoC6/CapSense_Processing.c **** 
 672:Generated_Source\PSoC6/CapSense_Processing.c ****     if (0u != (mode & CapSense_PROCESS_DIFFCOUNTS))
 673:Generated_Source\PSoC6/CapSense_Processing.c ****     {
 674:Generated_Source\PSoC6/CapSense_Processing.c ****         CapSense_DpUpdateDifferences(ptrRamWdgt, curSnsPtr);
 675:Generated_Source\PSoC6/CapSense_Processing.c ****     }
 676:Generated_Source\PSoC6/CapSense_Processing.c ****     return result;
 677:Generated_Source\PSoC6/CapSense_Processing.c **** }
 678:Generated_Source\PSoC6/CapSense_Processing.c **** 
 679:Generated_Source\PSoC6/CapSense_Processing.c **** 
 680:Generated_Source\PSoC6/CapSense_Processing.c **** /*******************************************************************************
 681:Generated_Source\PSoC6/CapSense_Processing.c **** * Function Name: CapSense_DpProcessCsxWidgetStatus
 682:Generated_Source\PSoC6/CapSense_Processing.c **** ****************************************************************************//**
 683:Generated_Source\PSoC6/CapSense_Processing.c **** *
 684:Generated_Source\PSoC6/CapSense_Processing.c **** * \brief
 685:Generated_Source\PSoC6/CapSense_Processing.c **** *   Updates the status of the CSX widget in the Data Structure.
 686:Generated_Source\PSoC6/CapSense_Processing.c **** *
 687:Generated_Source\PSoC6/CapSense_Processing.c **** * \details
 688:Generated_Source\PSoC6/CapSense_Processing.c **** *  This API determines the type of widget and runs the appropriate function
 689:Generated_Source\PSoC6/CapSense_Processing.c **** *  that implements the status update algorithm for this type of widget.
 690:Generated_Source\PSoC6/CapSense_Processing.c **** *
 691:Generated_Source\PSoC6/CapSense_Processing.c **** *  When the widget-specific processing completes this API updates the snsStatus
 692:Generated_Source\PSoC6/CapSense_Processing.c **** *  and wdgtStatus registers in the data structure. The wdgtStatus register
 693:Generated_Source\PSoC6/CapSense_Processing.c **** *  is a bitmask were each bit corresponds to the specific widget identified by
 694:Generated_Source\PSoC6/CapSense_Processing.c **** *  the widget index. When the bit is set the widget is active (touched);
 695:Generated_Source\PSoC6/CapSense_Processing.c **** *
 696:Generated_Source\PSoC6/CapSense_Processing.c **** *  Depending on the type of widget the snsStatus register may contain either
 697:Generated_Source\PSoC6/CapSense_Processing.c **** *  status of each widget node (active/non-active) or in case of the CSX Touchpad
 698:Generated_Source\PSoC6/CapSense_Processing.c **** *  is contains the number of touches. In both cases 0 means that widget is not
 699:Generated_Source\PSoC6/CapSense_Processing.c **** *  active.
 700:Generated_Source\PSoC6/CapSense_Processing.c **** *
 701:Generated_Source\PSoC6/CapSense_Processing.c **** * \param widgetId     The widget ID number.
 702:Generated_Source\PSoC6/CapSense_Processing.c **** * \param ptrFlashWdgt The pointer to the Flash Widget Object.
 703:Generated_Source\PSoC6/CapSense_Processing.c **** *
 704:Generated_Source\PSoC6/CapSense_Processing.c **** *******************************************************************************/
 705:Generated_Source\PSoC6/CapSense_Processing.c **** void CapSense_DpProcessCsxWidgetStatus(uint32 widgetId, CapSense_FLASH_WD_STRUCT const *ptrFlashWdg
 706:Generated_Source\PSoC6/CapSense_Processing.c **** {
 707:Generated_Source\PSoC6/CapSense_Processing.c ****     uint32 sensorStatus;
 708:Generated_Source\PSoC6/CapSense_Processing.c ****     uint32 wdStatusIndex;
 709:Generated_Source\PSoC6/CapSense_Processing.c ****     uint32 wdStatusMask;
 710:Generated_Source\PSoC6/CapSense_Processing.c ****     CapSense_WD_TYPE_ENUM widgetType;
 711:Generated_Source\PSoC6/CapSense_Processing.c **** 
 712:Generated_Source\PSoC6/CapSense_Processing.c ****     widgetType = (CapSense_WD_TYPE_ENUM)ptrFlashWdgt->wdgtType;
 713:Generated_Source\PSoC6/CapSense_Processing.c ****     sensorStatus = CapSense_dsRam.snsStatus[widgetId];
 714:Generated_Source\PSoC6/CapSense_Processing.c **** 
 715:Generated_Source\PSoC6/CapSense_Processing.c ****     switch (widgetType)
 716:Generated_Source\PSoC6/CapSense_Processing.c ****     {
 717:Generated_Source\PSoC6/CapSense_Processing.c ****     #if (0u != CapSense_BUTTON_WIDGET_EN)
 718:Generated_Source\PSoC6/CapSense_Processing.c ****         case CapSense_WD_BUTTON_E:
 719:Generated_Source\PSoC6/CapSense_Processing.c ****             sensorStatus = CapSense_DpProcessButton(sensorStatus, ptrFlashWdgt);
 720:Generated_Source\PSoC6/CapSense_Processing.c ****             break;
 721:Generated_Source\PSoC6/CapSense_Processing.c ****     #endif /* #if (0u != CapSense_BUTTON_WIDGET_EN) */
 722:Generated_Source\PSoC6/CapSense_Processing.c **** 
ARM GAS  C:\Users\salaz\AppData\Local\Temp\cc14Xrvc.s 			page 16


 723:Generated_Source\PSoC6/CapSense_Processing.c ****     #if (0u != CapSense_CSX_MATRIX_WIDGET_EN)
 724:Generated_Source\PSoC6/CapSense_Processing.c ****         case CapSense_WD_MATRIX_BUTTON_E:
 725:Generated_Source\PSoC6/CapSense_Processing.c ****             sensorStatus = CapSense_DpProcessButton(sensorStatus, ptrFlashWdgt);
 726:Generated_Source\PSoC6/CapSense_Processing.c ****             break;
 727:Generated_Source\PSoC6/CapSense_Processing.c ****     #endif /* #if (0u != CapSense_CSX_MATRIX_WIDGET_EN) */
 728:Generated_Source\PSoC6/CapSense_Processing.c **** 
 729:Generated_Source\PSoC6/CapSense_Processing.c ****     #if (0u != CapSense_CSX_TOUCHPAD_WIDGET_EN)
 730:Generated_Source\PSoC6/CapSense_Processing.c ****         case CapSense_WD_TOUCHPAD_E:
 731:Generated_Source\PSoC6/CapSense_Processing.c ****             sensorStatus = CapSense_DpProcessCsxTouchpad(sensorStatus, ptrFlashWdgt);
 732:Generated_Source\PSoC6/CapSense_Processing.c ****             break;
 733:Generated_Source\PSoC6/CapSense_Processing.c ****     #endif /* #if (0u != CapSense_CSX_TOUCHPAD_WIDGET_EN) */
 734:Generated_Source\PSoC6/CapSense_Processing.c **** 
 735:Generated_Source\PSoC6/CapSense_Processing.c ****     default:
 736:Generated_Source\PSoC6/CapSense_Processing.c ****         CY_ASSERT(0 != 0);
 737:Generated_Source\PSoC6/CapSense_Processing.c ****         break;
 738:Generated_Source\PSoC6/CapSense_Processing.c ****     }
 739:Generated_Source\PSoC6/CapSense_Processing.c **** 
 740:Generated_Source\PSoC6/CapSense_Processing.c ****     /* Update sensor status in the data structure */
 741:Generated_Source\PSoC6/CapSense_Processing.c ****     CapSense_dsRam.snsStatus[widgetId] = (CapSense_SNS_STS_TYPE)sensorStatus;
 742:Generated_Source\PSoC6/CapSense_Processing.c **** 
 743:Generated_Source\PSoC6/CapSense_Processing.c ****     /* The next two lines calculate index and bitmask of the widget status bit in the wdgtStatus ar
 744:Generated_Source\PSoC6/CapSense_Processing.c ****     wdStatusIndex = CapSense_GET_WDGT_STATUS_INDEX(widgetId);
 745:Generated_Source\PSoC6/CapSense_Processing.c ****     wdStatusMask = CapSense_GET_WDGT_STATUS_MASK(widgetId);
 746:Generated_Source\PSoC6/CapSense_Processing.c **** 
 747:Generated_Source\PSoC6/CapSense_Processing.c ****     /* Check if there are active sensors and update widget status accordingly */
 748:Generated_Source\PSoC6/CapSense_Processing.c ****     if (0u == sensorStatus)
 749:Generated_Source\PSoC6/CapSense_Processing.c ****     {
 750:Generated_Source\PSoC6/CapSense_Processing.c ****         CapSense_dsRam.wdgtStatus[wdStatusIndex] &= ~wdStatusMask;
 751:Generated_Source\PSoC6/CapSense_Processing.c ****     }
 752:Generated_Source\PSoC6/CapSense_Processing.c ****     else
 753:Generated_Source\PSoC6/CapSense_Processing.c ****     {
 754:Generated_Source\PSoC6/CapSense_Processing.c ****         CapSense_dsRam.wdgtStatus[wdStatusIndex] |= wdStatusMask;
 755:Generated_Source\PSoC6/CapSense_Processing.c ****     }
 756:Generated_Source\PSoC6/CapSense_Processing.c **** }
 757:Generated_Source\PSoC6/CapSense_Processing.c **** #endif /* #if CapSense_TOTAL_CSX_WIDGETS */
 758:Generated_Source\PSoC6/CapSense_Processing.c **** 
 759:Generated_Source\PSoC6/CapSense_Processing.c **** #if (0u != CapSense_TOTAL_CSD_WIDGETS)
 760:Generated_Source\PSoC6/CapSense_Processing.c **** /*******************************************************************************
 761:Generated_Source\PSoC6/CapSense_Processing.c **** * Function Name: CapSense_DpProcessCsdWidgetRawCounts
 762:Generated_Source\PSoC6/CapSense_Processing.c **** ****************************************************************************//**
 763:Generated_Source\PSoC6/CapSense_Processing.c **** *
 764:Generated_Source\PSoC6/CapSense_Processing.c **** * \brief
 765:Generated_Source\PSoC6/CapSense_Processing.c **** *   Performs default processing for the CSD widget raw counts.
 766:Generated_Source\PSoC6/CapSense_Processing.c **** *
 767:Generated_Source\PSoC6/CapSense_Processing.c **** * \details
 768:Generated_Source\PSoC6/CapSense_Processing.c **** *   Performs default processing for the CSD widget raw counts:
 769:Generated_Source\PSoC6/CapSense_Processing.c **** *    - Run Filters
 770:Generated_Source\PSoC6/CapSense_Processing.c **** *    - Update Thresholds (FW Auto-tuning)
 771:Generated_Source\PSoC6/CapSense_Processing.c **** *    - Update Baselines
 772:Generated_Source\PSoC6/CapSense_Processing.c **** *    - Update Differences.
 773:Generated_Source\PSoC6/CapSense_Processing.c **** *   The process is applied to all widget's sensors.
 774:Generated_Source\PSoC6/CapSense_Processing.c **** *
 775:Generated_Source\PSoC6/CapSense_Processing.c **** * \param ptrFlashWdgt The pointer to the Flash Widget Object.
 776:Generated_Source\PSoC6/CapSense_Processing.c **** *
 777:Generated_Source\PSoC6/CapSense_Processing.c **** * \return
 778:Generated_Source\PSoC6/CapSense_Processing.c **** *  Returns the status of the specified widget processing operation:
 779:Generated_Source\PSoC6/CapSense_Processing.c **** *  - CY_RET_SUCCESS if operation was successfully completed;
ARM GAS  C:\Users\salaz\AppData\Local\Temp\cc14Xrvc.s 			page 17


 780:Generated_Source\PSoC6/CapSense_Processing.c **** *  - CapSense_PROCESS_BASELINE_FAILED if baseline processing of any
 781:Generated_Source\PSoC6/CapSense_Processing.c **** *    sensor of the specified widget failed. The result is concatenated with the index
 782:Generated_Source\PSoC6/CapSense_Processing.c **** *    of failed sensor.
 783:Generated_Source\PSoC6/CapSense_Processing.c **** *
 784:Generated_Source\PSoC6/CapSense_Processing.c **** *******************************************************************************/
 785:Generated_Source\PSoC6/CapSense_Processing.c **** uint32 CapSense_DpProcessCsdWidgetRawCounts(CapSense_FLASH_WD_STRUCT const *ptrFlashWdgt)
 786:Generated_Source\PSoC6/CapSense_Processing.c **** {
 787:Generated_Source\PSoC6/CapSense_Processing.c ****     uint32  result = CY_RET_SUCCESS;
 788:Generated_Source\PSoC6/CapSense_Processing.c **** 
 789:Generated_Source\PSoC6/CapSense_Processing.c ****     #if (CapSense_ENABLE == CapSense_TST_BSLN_DUPLICATION_EN)
 790:Generated_Source\PSoC6/CapSense_Processing.c ****         uint32 bslnTstResult = CY_RET_SUCCESS;
 791:Generated_Source\PSoC6/CapSense_Processing.c ****     #endif /* (CapSense_ENABLE == CapSense_TST_BSLN_DUPLICATION_EN) */
 792:Generated_Source\PSoC6/CapSense_Processing.c **** 
 793:Generated_Source\PSoC6/CapSense_Processing.c ****     uint32  widgetType;
 794:Generated_Source\PSoC6/CapSense_Processing.c ****     uint32  snsId;
 795:Generated_Source\PSoC6/CapSense_Processing.c ****     CapSense_RAM_SNS_STRUCT *ptrSnsTmp;
 796:Generated_Source\PSoC6/CapSense_Processing.c ****     CapSense_RAM_WD_BASE_STRUCT *ptrRamWdgt;
 797:Generated_Source\PSoC6/CapSense_Processing.c **** 
 798:Generated_Source\PSoC6/CapSense_Processing.c ****     #if (0u != (CapSense_CSD_AUTOTUNE & CapSense_CSD_SS_TH_EN))
 799:Generated_Source\PSoC6/CapSense_Processing.c ****         /* The noise envelope data is available only when Full CSD Auto-Tuning is enabled */
 800:Generated_Source\PSoC6/CapSense_Processing.c ****         SMARTSENSE_CSD_NOISE_ENVELOPE_STRUCT *ptrNoiseEnvelope;
 801:Generated_Source\PSoC6/CapSense_Processing.c ****         #if (CapSense_ENABLE == CapSense_PROXIMITY_WIDGET_EN)
 802:Generated_Source\PSoC6/CapSense_Processing.c ****             uint32  proximityThreshold;
 803:Generated_Source\PSoC6/CapSense_Processing.c ****         #endif /* (0 != CapSense_PROXIMITY_WIDGET_EN) */
 804:Generated_Source\PSoC6/CapSense_Processing.c ****     #endif /* #if (0u != (CapSense_CSD_AUTOTUNE & CapSense_CSD_SS_TH_EN)) */
 805:Generated_Source\PSoC6/CapSense_Processing.c **** 
 806:Generated_Source\PSoC6/CapSense_Processing.c ****     #if (CapSense_ENABLE == CapSense_RC_FILTER_EN)
 807:Generated_Source\PSoC6/CapSense_Processing.c ****         CapSense_PTR_FILTER_VARIANT fltrHistV;
 808:Generated_Source\PSoC6/CapSense_Processing.c **** 
 809:Generated_Source\PSoC6/CapSense_Processing.c ****         /* Determine if widget type is proximity */
 810:Generated_Source\PSoC6/CapSense_Processing.c ****         uint32 isProxWdgt = (CapSense_GET_WIDGET_TYPE(ptrFlashWdgt) == CapSense_WD_PROXIMITY_E) ? 1
 811:Generated_Source\PSoC6/CapSense_Processing.c **** 
 812:Generated_Source\PSoC6/CapSense_Processing.c ****         /* Get pointer to the filter history object */
 813:Generated_Source\PSoC6/CapSense_Processing.c ****         fltrHistV.ptr = ptrFlashWdgt->ptr2FltrHistory;
 814:Generated_Source\PSoC6/CapSense_Processing.c ****     #endif /* #if (CapSense_ENABLE == CapSense_RC_FILTER_EN) */
 815:Generated_Source\PSoC6/CapSense_Processing.c **** 
 816:Generated_Source\PSoC6/CapSense_Processing.c ****     ptrSnsTmp = ptrFlashWdgt->ptr2SnsRam;
 817:Generated_Source\PSoC6/CapSense_Processing.c ****     ptrRamWdgt = (CapSense_RAM_WD_BASE_STRUCT *)ptrFlashWdgt->ptr2WdgtRam;
 818:Generated_Source\PSoC6/CapSense_Processing.c ****     widgetType = ptrFlashWdgt->wdgtType;
 819:Generated_Source\PSoC6/CapSense_Processing.c **** 
 820:Generated_Source\PSoC6/CapSense_Processing.c ****     #if (0u != (CapSense_CSD_AUTOTUNE & CapSense_CSD_SS_TH_EN))
 821:Generated_Source\PSoC6/CapSense_Processing.c ****         ptrNoiseEnvelope = ptrFlashWdgt->ptr2NoiseEnvlp;
 822:Generated_Source\PSoC6/CapSense_Processing.c ****     #endif /* #if (0u != (CapSense_CSD_AUTOTUNE & CapSense_CSD_SS_TH_EN)) */
 823:Generated_Source\PSoC6/CapSense_Processing.c **** 
 824:Generated_Source\PSoC6/CapSense_Processing.c ****     /* Iterate through all widget's sensors */
 825:Generated_Source\PSoC6/CapSense_Processing.c ****     for(snsId = 0u; snsId < ptrFlashWdgt->totalNumSns; snsId++)
 826:Generated_Source\PSoC6/CapSense_Processing.c ****     {
 827:Generated_Source\PSoC6/CapSense_Processing.c ****         /* Run all enabled filter on specified widget's sensor */
 828:Generated_Source\PSoC6/CapSense_Processing.c ****         #if (CapSense_ENABLE == CapSense_RC_FILTER_EN)
 829:Generated_Source\PSoC6/CapSense_Processing.c ****             CapSense_FtRunEnabledFiltersInternal(fltrHistV, ptrSnsTmp, widgetType);
 830:Generated_Source\PSoC6/CapSense_Processing.c ****             #if (CapSense_ALP_FILTER_EN)
 831:Generated_Source\PSoC6/CapSense_Processing.c ****                 CapSense_ConfigRunALPInternal(fltrHistV, ptrRamWdgt, ptrSnsTmp, widgetType);
 832:Generated_Source\PSoC6/CapSense_Processing.c ****             #endif
 833:Generated_Source\PSoC6/CapSense_Processing.c ****         #endif /* #if (CapSense_ENABLE == CapSense_RC_FILTER_EN) */
 834:Generated_Source\PSoC6/CapSense_Processing.c **** 
 835:Generated_Source\PSoC6/CapSense_Processing.c ****         /* Run auto-tuning activities */
 836:Generated_Source\PSoC6/CapSense_Processing.c ****         #if (0u != (CapSense_CSD_AUTOTUNE & CapSense_CSD_SS_TH_EN))
ARM GAS  C:\Users\salaz\AppData\Local\Temp\cc14Xrvc.s 			page 18


 837:Generated_Source\PSoC6/CapSense_Processing.c ****             SmartSense_RunNoiseEnvelope(ptrSnsTmp->raw[0u], ptrRamWdgt->sigPFC, ptrNoiseEnvelope);
 838:Generated_Source\PSoC6/CapSense_Processing.c ****             CapSense_DpUpdateThresholds(ptrRamWdgt, ptrNoiseEnvelope, snsId);
 839:Generated_Source\PSoC6/CapSense_Processing.c **** 
 840:Generated_Source\PSoC6/CapSense_Processing.c ****             /* Calculate Proximity Touch Threshold in SmartSense mode based on Finger Threshold and
 841:Generated_Source\PSoC6/CapSense_Processing.c ****             #if (CapSense_ENABLE == CapSense_PROXIMITY_WIDGET_EN)
 842:Generated_Source\PSoC6/CapSense_Processing.c ****                 if (CapSense_WD_PROXIMITY_E == CapSense_GET_WIDGET_TYPE(ptrFlashWdgt))
 843:Generated_Source\PSoC6/CapSense_Processing.c ****                 {
 844:Generated_Source\PSoC6/CapSense_Processing.c ****                     proximityThreshold = ((uint32)ptrRamWdgt->fingerTh * CapSense_PROX_TOUCH_COEFF)
 845:Generated_Source\PSoC6/CapSense_Processing.c ****                     if ((((1Lu) << CapSense_THRESHOLD_SIZE) - 1u) < proximityThreshold)
 846:Generated_Source\PSoC6/CapSense_Processing.c ****                     {
 847:Generated_Source\PSoC6/CapSense_Processing.c ****                         proximityThreshold = ((1Lu) << CapSense_THRESHOLD_SIZE) - 1u;
 848:Generated_Source\PSoC6/CapSense_Processing.c ****                     }
 849:Generated_Source\PSoC6/CapSense_Processing.c ****                     ((CapSense_RAM_WD_PROXIMITY_STRUCT *)ptrFlashWdgt->ptr2WdgtRam)->proxTouchTh =
 850:Generated_Source\PSoC6/CapSense_Processing.c ****                         (CapSense_THRESHOLD_TYPE)proximityThreshold;
 851:Generated_Source\PSoC6/CapSense_Processing.c ****                 }
 852:Generated_Source\PSoC6/CapSense_Processing.c ****             #endif /* (0 != CapSense_PROXIMITY_WIDGET_EN) */
 853:Generated_Source\PSoC6/CapSense_Processing.c **** 
 854:Generated_Source\PSoC6/CapSense_Processing.c ****             /* Move to next noise-envelope object */
 855:Generated_Source\PSoC6/CapSense_Processing.c ****             ptrNoiseEnvelope++;
 856:Generated_Source\PSoC6/CapSense_Processing.c ****         #endif /* (0u != (CapSense_CSD_AUTOTUNE & CapSense_CSD_SS_TH_EN)) */
 857:Generated_Source\PSoC6/CapSense_Processing.c **** 
 858:Generated_Source\PSoC6/CapSense_Processing.c ****         #if (CapSense_ENABLE == CapSense_TST_BSLN_DUPLICATION_EN)
 859:Generated_Source\PSoC6/CapSense_Processing.c ****             bslnTstResult = CapSense_FtUpdateBaseline(ptrRamWdgt, ptrSnsTmp, widgetType);
 860:Generated_Source\PSoC6/CapSense_Processing.c ****             if ((CY_RET_SUCCESS != bslnTstResult) && (CY_RET_SUCCESS == result))
 861:Generated_Source\PSoC6/CapSense_Processing.c ****             {
 862:Generated_Source\PSoC6/CapSense_Processing.c ****                 result = snsId | CapSense_PROCESS_BASELINE_FAILED;
 863:Generated_Source\PSoC6/CapSense_Processing.c ****             }
 864:Generated_Source\PSoC6/CapSense_Processing.c ****         #else /* (CapSense_ENABLE == CapSense_TST_BSLN_DUPLICATION_EN) */
 865:Generated_Source\PSoC6/CapSense_Processing.c ****             result = CapSense_FtUpdateBaseline(ptrRamWdgt, ptrSnsTmp, widgetType);
 866:Generated_Source\PSoC6/CapSense_Processing.c ****         #endif /* (CapSense_ENABLE == CapSense_TST_BSLN_DUPLICATION_EN) */
 867:Generated_Source\PSoC6/CapSense_Processing.c **** 
 868:Generated_Source\PSoC6/CapSense_Processing.c ****         CapSense_DpUpdateDifferences(ptrRamWdgt, ptrSnsTmp);
 869:Generated_Source\PSoC6/CapSense_Processing.c **** 
 870:Generated_Source\PSoC6/CapSense_Processing.c ****         /* Move to next sensor object */
 871:Generated_Source\PSoC6/CapSense_Processing.c ****         ptrSnsTmp++;
 872:Generated_Source\PSoC6/CapSense_Processing.c **** 
 873:Generated_Source\PSoC6/CapSense_Processing.c ****         #if (CapSense_ENABLE == CapSense_RC_FILTER_EN)
 874:Generated_Source\PSoC6/CapSense_Processing.c ****             /* Move to the next filter history object */
 875:Generated_Source\PSoC6/CapSense_Processing.c ****             CapSense_INC_FLTR_OBJ_VARIANT(isProxWdgt, fltrHistV);
 876:Generated_Source\PSoC6/CapSense_Processing.c ****         #endif /* #if (CapSense_ENABLE == CapSense_RC_FILTER_EN) */
 877:Generated_Source\PSoC6/CapSense_Processing.c ****     }
 878:Generated_Source\PSoC6/CapSense_Processing.c ****     return result;
 879:Generated_Source\PSoC6/CapSense_Processing.c **** }
 880:Generated_Source\PSoC6/CapSense_Processing.c **** 
 881:Generated_Source\PSoC6/CapSense_Processing.c **** 
 882:Generated_Source\PSoC6/CapSense_Processing.c **** /*******************************************************************************
 883:Generated_Source\PSoC6/CapSense_Processing.c **** * Function Name: CapSense_DpProcessCsdSensorRawCountsExt
 884:Generated_Source\PSoC6/CapSense_Processing.c **** ****************************************************************************//**
 885:Generated_Source\PSoC6/CapSense_Processing.c **** *
 886:Generated_Source\PSoC6/CapSense_Processing.c **** * \brief
 887:Generated_Source\PSoC6/CapSense_Processing.c **** *   Performs customized processing of the CSD sensor raw counts.
 888:Generated_Source\PSoC6/CapSense_Processing.c **** *
 889:Generated_Source\PSoC6/CapSense_Processing.c **** * \details
 890:Generated_Source\PSoC6/CapSense_Processing.c **** *   Performs customized processing of the CSD sensor raw counts.
 891:Generated_Source\PSoC6/CapSense_Processing.c **** *
 892:Generated_Source\PSoC6/CapSense_Processing.c **** *   Note that this API updates data associated only with the sensor. It cannot be used to update
 893:Generated_Source\PSoC6/CapSense_Processing.c **** *   widget status.
ARM GAS  C:\Users\salaz\AppData\Local\Temp\cc14Xrvc.s 			page 19


 894:Generated_Source\PSoC6/CapSense_Processing.c **** *
 895:Generated_Source\PSoC6/CapSense_Processing.c **** * \param ptrFlashWdgt The pointer to the Flash widget structure.
 896:Generated_Source\PSoC6/CapSense_Processing.c **** * \param curSnsPtr    The pointer to the sensor object in RAM.
 897:Generated_Source\PSoC6/CapSense_Processing.c **** * \param fltrHistV    The pointer to the Filter History Object in RAM.
 898:Generated_Source\PSoC6/CapSense_Processing.c **** * \param mode         The bit-mask with the data processing tasks to be executed.
 899:Generated_Source\PSoC6/CapSense_Processing.c **** *   The mode parameters can take the following values:
 900:Generated_Source\PSoC6/CapSense_Processing.c **** *    - CapSense_PROCESS_FILTER     (0x01) Run Firmware Filter
 901:Generated_Source\PSoC6/CapSense_Processing.c **** *    - CapSense_PROCESS_BASELINE   (0x02) Update Baselines
 902:Generated_Source\PSoC6/CapSense_Processing.c **** *    - CapSense_PROCESS_DIFFCOUNTS (0x04) Update Difference Counts
 903:Generated_Source\PSoC6/CapSense_Processing.c **** *    - CapSense_PROCESS_CALC_NOISE (0x08) Calculate Noise (only if FW Tuning is enabled)
 904:Generated_Source\PSoC6/CapSense_Processing.c **** *    - CapSense_PROCESS_THRESHOLDS (0x10) Update Thresholds (only if FW Tuning is enabled)
 905:Generated_Source\PSoC6/CapSense_Processing.c **** *    - CapSense_PROCESS_ALL               Execute all tasks
 906:Generated_Source\PSoC6/CapSense_Processing.c **** *
 907:Generated_Source\PSoC6/CapSense_Processing.c **** * \return
 908:Generated_Source\PSoC6/CapSense_Processing.c **** *  Returns the status of the specified sensor processing operation:
 909:Generated_Source\PSoC6/CapSense_Processing.c **** *  - CY_RET_SUCCESS if operation was successfully completed;
 910:Generated_Source\PSoC6/CapSense_Processing.c **** *  - CapSense_PROCESS_BASELINE_FAILED if baseline processing of any
 911:Generated_Source\PSoC6/CapSense_Processing.c **** *    sensor of the specified widget failed. The result is concatenated with the index
 912:Generated_Source\PSoC6/CapSense_Processing.c **** *    of failed sensor.
 913:Generated_Source\PSoC6/CapSense_Processing.c **** *
 914:Generated_Source\PSoC6/CapSense_Processing.c **** *******************************************************************************/
 915:Generated_Source\PSoC6/CapSense_Processing.c **** uint32 CapSense_DpProcessCsdSensorRawCountsExt(
 916:Generated_Source\PSoC6/CapSense_Processing.c ****                 CapSense_FLASH_WD_STRUCT const *ptrFlashWdgt,
 917:Generated_Source\PSoC6/CapSense_Processing.c ****                 CapSense_RAM_SNS_STRUCT *curSnsPtr,
 918:Generated_Source\PSoC6/CapSense_Processing.c ****                 CapSense_PTR_FILTER_VARIANT fltrHistV,
 919:Generated_Source\PSoC6/CapSense_Processing.c ****                  uint32 mode)
 920:Generated_Source\PSoC6/CapSense_Processing.c **** {
 921:Generated_Source\PSoC6/CapSense_Processing.c ****     uint32 result = CY_RET_SUCCESS;
 922:Generated_Source\PSoC6/CapSense_Processing.c ****     uint32  widgetType;
 923:Generated_Source\PSoC6/CapSense_Processing.c ****     CapSense_RAM_WD_BASE_STRUCT *ptrRamWdgt;
 924:Generated_Source\PSoC6/CapSense_Processing.c **** 
 925:Generated_Source\PSoC6/CapSense_Processing.c ****     #if (0u != (CapSense_CSD_AUTOTUNE & CapSense_CSD_SS_TH_EN))
 926:Generated_Source\PSoC6/CapSense_Processing.c ****         SMARTSENSE_CSD_NOISE_ENVELOPE_STRUCT *ptrNoiseEnvelope;
 927:Generated_Source\PSoC6/CapSense_Processing.c ****         #if (CapSense_ENABLE == CapSense_PROXIMITY_WIDGET_EN)
 928:Generated_Source\PSoC6/CapSense_Processing.c ****             uint32  proximityThreshold;
 929:Generated_Source\PSoC6/CapSense_Processing.c ****         #endif /* (0 != CapSense_PROXIMITY_WIDGET_EN) */
 930:Generated_Source\PSoC6/CapSense_Processing.c **** 
 931:Generated_Source\PSoC6/CapSense_Processing.c ****         /* Need to specify pointer to corresponding sensor's noise-envelope object.*/
 932:Generated_Source\PSoC6/CapSense_Processing.c ****         ptrNoiseEnvelope = ptrFlashWdgt->ptr2NoiseEnvlp;
 933:Generated_Source\PSoC6/CapSense_Processing.c ****     #endif /* (0u != (CapSense_CSD_AUTOTUNE & CapSense_CSD_SS_TH_EN)) */
 934:Generated_Source\PSoC6/CapSense_Processing.c **** 
 935:Generated_Source\PSoC6/CapSense_Processing.c ****     widgetType = ptrFlashWdgt->wdgtType;
 936:Generated_Source\PSoC6/CapSense_Processing.c ****     ptrRamWdgt = (CapSense_RAM_WD_BASE_STRUCT *)ptrFlashWdgt->ptr2WdgtRam;
 937:Generated_Source\PSoC6/CapSense_Processing.c **** 
 938:Generated_Source\PSoC6/CapSense_Processing.c ****     #if (CapSense_ENABLE == CapSense_RC_FILTER_EN)
 939:Generated_Source\PSoC6/CapSense_Processing.c ****         if (0u != (mode & CapSense_PROCESS_FILTER))
 940:Generated_Source\PSoC6/CapSense_Processing.c ****         {
 941:Generated_Source\PSoC6/CapSense_Processing.c ****             CapSense_FtRunEnabledFiltersInternal(fltrHistV, curSnsPtr, widgetType);
 942:Generated_Source\PSoC6/CapSense_Processing.c ****             #if (CapSense_ALP_FILTER_EN)
 943:Generated_Source\PSoC6/CapSense_Processing.c ****                 CapSense_ConfigRunALPInternal(fltrHistV, ptrRamWdgt, curSnsPtr, widgetType);
 944:Generated_Source\PSoC6/CapSense_Processing.c ****             #endif
 945:Generated_Source\PSoC6/CapSense_Processing.c ****         }
 946:Generated_Source\PSoC6/CapSense_Processing.c ****     #else
 947:Generated_Source\PSoC6/CapSense_Processing.c ****         (void)fltrHistV; /* This parameter is unused in such configurations */
 948:Generated_Source\PSoC6/CapSense_Processing.c ****     #endif /* #if (CapSense_ENABLE == CapSense_RC_FILTER_EN) */
 949:Generated_Source\PSoC6/CapSense_Processing.c **** 
 950:Generated_Source\PSoC6/CapSense_Processing.c ****     #if (0u != (CapSense_CSD_AUTOTUNE & CapSense_CSD_SS_TH_EN))
ARM GAS  C:\Users\salaz\AppData\Local\Temp\cc14Xrvc.s 			page 20


 951:Generated_Source\PSoC6/CapSense_Processing.c ****         if (0u != (mode & CapSense_PROCESS_CALC_NOISE))
 952:Generated_Source\PSoC6/CapSense_Processing.c ****         {
 953:Generated_Source\PSoC6/CapSense_Processing.c ****             SmartSense_RunNoiseEnvelope(curSnsPtr->raw[0u], ptrRamWdgt->sigPFC, ptrNoiseEnvelope);
 954:Generated_Source\PSoC6/CapSense_Processing.c ****         }
 955:Generated_Source\PSoC6/CapSense_Processing.c **** 
 956:Generated_Source\PSoC6/CapSense_Processing.c ****         if (0u != (mode & CapSense_PROCESS_THRESHOLDS))
 957:Generated_Source\PSoC6/CapSense_Processing.c ****         {
 958:Generated_Source\PSoC6/CapSense_Processing.c ****             CapSense_DpUpdateThresholds(ptrRamWdgt, ptrNoiseEnvelope, 0u);
 959:Generated_Source\PSoC6/CapSense_Processing.c **** 
 960:Generated_Source\PSoC6/CapSense_Processing.c ****             /* Calculate Proximity Touch Threshold in SmartSense mode based on Finger Threshold and
 961:Generated_Source\PSoC6/CapSense_Processing.c ****             #if (CapSense_ENABLE == CapSense_PROXIMITY_WIDGET_EN)
 962:Generated_Source\PSoC6/CapSense_Processing.c ****                 if (CapSense_WD_PROXIMITY_E == CapSense_GET_WIDGET_TYPE(ptrFlashWdgt))
 963:Generated_Source\PSoC6/CapSense_Processing.c ****                 {
 964:Generated_Source\PSoC6/CapSense_Processing.c ****                     proximityThreshold = ((uint32)ptrRamWdgt->fingerTh * CapSense_PROX_TOUCH_COEFF)
 965:Generated_Source\PSoC6/CapSense_Processing.c ****                     if ((((1Lu) << CapSense_THRESHOLD_SIZE) - 1u) < proximityThreshold)
 966:Generated_Source\PSoC6/CapSense_Processing.c ****                     {
 967:Generated_Source\PSoC6/CapSense_Processing.c ****                         proximityThreshold = ((1Lu) << CapSense_THRESHOLD_SIZE) - 1u;
 968:Generated_Source\PSoC6/CapSense_Processing.c ****                     }
 969:Generated_Source\PSoC6/CapSense_Processing.c ****                     ((CapSense_RAM_WD_PROXIMITY_STRUCT *)ptrFlashWdgt->ptr2WdgtRam)->proxTouchTh =
 970:Generated_Source\PSoC6/CapSense_Processing.c ****                         (CapSense_THRESHOLD_TYPE)proximityThreshold;
 971:Generated_Source\PSoC6/CapSense_Processing.c ****                 }
 972:Generated_Source\PSoC6/CapSense_Processing.c ****             #endif /* (0 != CapSense_PROXIMITY_WIDGET_EN) */
 973:Generated_Source\PSoC6/CapSense_Processing.c ****         }
 974:Generated_Source\PSoC6/CapSense_Processing.c ****     #endif /* #if (0u != (CapSense_CSD_AUTOTUNE & CapSense_CSD_SS_TH_EN)) */
 975:Generated_Source\PSoC6/CapSense_Processing.c **** 
 976:Generated_Source\PSoC6/CapSense_Processing.c ****     if (0u != (mode & CapSense_PROCESS_BASELINE))
 977:Generated_Source\PSoC6/CapSense_Processing.c ****     {
 978:Generated_Source\PSoC6/CapSense_Processing.c ****         result = CapSense_FtUpdateBaseline(ptrRamWdgt, curSnsPtr, widgetType);
 979:Generated_Source\PSoC6/CapSense_Processing.c ****     }
 980:Generated_Source\PSoC6/CapSense_Processing.c **** 
 981:Generated_Source\PSoC6/CapSense_Processing.c ****     if (0u != (mode & CapSense_PROCESS_DIFFCOUNTS))
 982:Generated_Source\PSoC6/CapSense_Processing.c ****     {
 983:Generated_Source\PSoC6/CapSense_Processing.c ****         CapSense_DpUpdateDifferences(ptrRamWdgt, curSnsPtr);
 984:Generated_Source\PSoC6/CapSense_Processing.c ****     }
 985:Generated_Source\PSoC6/CapSense_Processing.c ****     return result;
 986:Generated_Source\PSoC6/CapSense_Processing.c **** }
 987:Generated_Source\PSoC6/CapSense_Processing.c **** 
 988:Generated_Source\PSoC6/CapSense_Processing.c **** /*******************************************************************************
 989:Generated_Source\PSoC6/CapSense_Processing.c **** * Function Name: CapSense_DpProcessCsdWidgetStatus
 990:Generated_Source\PSoC6/CapSense_Processing.c **** ****************************************************************************//**
 991:Generated_Source\PSoC6/CapSense_Processing.c **** *
 992:Generated_Source\PSoC6/CapSense_Processing.c **** * \brief
 993:Generated_Source\PSoC6/CapSense_Processing.c **** *  Runs the status processing of the CSD widget and updates it in the Data Structure.
 994:Generated_Source\PSoC6/CapSense_Processing.c **** *
 995:Generated_Source\PSoC6/CapSense_Processing.c **** * \details
 996:Generated_Source\PSoC6/CapSense_Processing.c **** *  This API determines the widget type and calls the appropriate low-level processing
 997:Generated_Source\PSoC6/CapSense_Processing.c **** *  function. Based on the returned results it updates the widget and sensor
 998:Generated_Source\PSoC6/CapSense_Processing.c **** *  status in the data structure. Any widget specific registers like the centroid
 999:Generated_Source\PSoC6/CapSense_Processing.c **** *  position are updated directly in the low-level processing function.
1000:Generated_Source\PSoC6/CapSense_Processing.c **** *
1001:Generated_Source\PSoC6/CapSense_Processing.c **** *  When the widget-specific processing completes this API updates the snsStatus
1002:Generated_Source\PSoC6/CapSense_Processing.c **** *  and wdgtStatus registers in the data structure. The wdgtStatus register
1003:Generated_Source\PSoC6/CapSense_Processing.c **** *  is a bitmask were each bit corresponds to the specific widget identified by
1004:Generated_Source\PSoC6/CapSense_Processing.c **** *  the widget index. When the bit is set the widget is active (touched);
1005:Generated_Source\PSoC6/CapSense_Processing.c **** *
1006:Generated_Source\PSoC6/CapSense_Processing.c **** *  The snsStatus register for CSD widgets contains status of each widget sensor
1007:Generated_Source\PSoC6/CapSense_Processing.c **** *  (active/non-active). Each bit corresponds to one sensor. In case of the
ARM GAS  C:\Users\salaz\AppData\Local\Temp\cc14Xrvc.s 			page 21


1008:Generated_Source\PSoC6/CapSense_Processing.c **** *  Proximity widget two bits are used per sensor: one for proximity status and
1009:Generated_Source\PSoC6/CapSense_Processing.c **** *  second for the touch status.
1010:Generated_Source\PSoC6/CapSense_Processing.c **** *
1011:Generated_Source\PSoC6/CapSense_Processing.c **** * \param widgetId      The widget index number.
1012:Generated_Source\PSoC6/CapSense_Processing.c **** * \param ptrFlashWdgt  The pointer to the Flash widget structure.
1013:Generated_Source\PSoC6/CapSense_Processing.c **** *
1014:Generated_Source\PSoC6/CapSense_Processing.c **** *******************************************************************************/
1015:Generated_Source\PSoC6/CapSense_Processing.c **** void CapSense_DpProcessCsdWidgetStatus(uint32 widgetId, CapSense_FLASH_WD_STRUCT const *ptrFlashWdg
1016:Generated_Source\PSoC6/CapSense_Processing.c **** {
1017:Generated_Source\PSoC6/CapSense_Processing.c ****     uint32 sensorStatus;
1018:Generated_Source\PSoC6/CapSense_Processing.c ****     uint32 wdStatusIndex;
1019:Generated_Source\PSoC6/CapSense_Processing.c ****     uint32 wdStatusMask;
1020:Generated_Source\PSoC6/CapSense_Processing.c ****     CapSense_WD_TYPE_ENUM widgetType;
1021:Generated_Source\PSoC6/CapSense_Processing.c **** 
1022:Generated_Source\PSoC6/CapSense_Processing.c ****     widgetType = (CapSense_WD_TYPE_ENUM)ptrFlashWdgt->wdgtType;
1023:Generated_Source\PSoC6/CapSense_Processing.c ****     sensorStatus = CapSense_dsRam.snsStatus[widgetId];
1024:Generated_Source\PSoC6/CapSense_Processing.c **** 
1025:Generated_Source\PSoC6/CapSense_Processing.c ****     switch (widgetType)
1026:Generated_Source\PSoC6/CapSense_Processing.c ****     {
1027:Generated_Source\PSoC6/CapSense_Processing.c ****     #if (0u != CapSense_BUTTON_WIDGET_EN)
1028:Generated_Source\PSoC6/CapSense_Processing.c ****         case CapSense_WD_BUTTON_E:
1029:Generated_Source\PSoC6/CapSense_Processing.c ****             sensorStatus = CapSense_DpProcessButton(sensorStatus, ptrFlashWdgt);
1030:Generated_Source\PSoC6/CapSense_Processing.c ****             break;
1031:Generated_Source\PSoC6/CapSense_Processing.c ****     #endif /* #if (0u != CapSense_BUTTON_WIDGET_EN) */
1032:Generated_Source\PSoC6/CapSense_Processing.c **** 
1033:Generated_Source\PSoC6/CapSense_Processing.c ****     #if (0u != CapSense_SLIDER_WIDGET_EN)
1034:Generated_Source\PSoC6/CapSense_Processing.c ****         case CapSense_WD_LINEAR_SLIDER_E:
1035:Generated_Source\PSoC6/CapSense_Processing.c ****         case CapSense_WD_RADIAL_SLIDER_E:
1036:Generated_Source\PSoC6/CapSense_Processing.c ****             sensorStatus = CapSense_DpProcessSlider(sensorStatus, ptrFlashWdgt);
1037:Generated_Source\PSoC6/CapSense_Processing.c ****             break;
1038:Generated_Source\PSoC6/CapSense_Processing.c ****     #endif /* #if (0u != CapSense_SLIDER_WIDGET_EN) */
1039:Generated_Source\PSoC6/CapSense_Processing.c **** 
1040:Generated_Source\PSoC6/CapSense_Processing.c ****     #if (0u != CapSense_CSD_MATRIX_WIDGET_EN)
1041:Generated_Source\PSoC6/CapSense_Processing.c ****         case CapSense_WD_MATRIX_BUTTON_E:
1042:Generated_Source\PSoC6/CapSense_Processing.c ****             sensorStatus = CapSense_DpProcessCsdMatrix(sensorStatus, ptrFlashWdgt);
1043:Generated_Source\PSoC6/CapSense_Processing.c ****             break;
1044:Generated_Source\PSoC6/CapSense_Processing.c ****     #endif /* #if (0u != CapSense_CSD_MATRIX_WIDGET_EN) */
1045:Generated_Source\PSoC6/CapSense_Processing.c **** 
1046:Generated_Source\PSoC6/CapSense_Processing.c ****     #if (0u != CapSense_CSD_TOUCHPAD_WIDGET_EN)
1047:Generated_Source\PSoC6/CapSense_Processing.c ****         case CapSense_WD_TOUCHPAD_E:
1048:Generated_Source\PSoC6/CapSense_Processing.c ****             sensorStatus = CapSense_DpProcessCsdTouchpad(sensorStatus, ptrFlashWdgt);
1049:Generated_Source\PSoC6/CapSense_Processing.c ****             #if (0u != CapSense_BALLISTIC_MULTIPLIER_EN)
1050:Generated_Source\PSoC6/CapSense_Processing.c ****                 CapSense_RunBallisticMultiplier(widgetId);
1051:Generated_Source\PSoC6/CapSense_Processing.c ****             #endif /* (0u != CapSense_BALLISTIC_MULTIPLIER_EN) */
1052:Generated_Source\PSoC6/CapSense_Processing.c ****             break;
1053:Generated_Source\PSoC6/CapSense_Processing.c ****     #endif /* #if (0u != CapSense_CSD_TOUCHPAD_WIDGET_EN) */
1054:Generated_Source\PSoC6/CapSense_Processing.c **** 
1055:Generated_Source\PSoC6/CapSense_Processing.c ****     #if (0u != CapSense_PROXIMITY_WIDGET_EN)
1056:Generated_Source\PSoC6/CapSense_Processing.c ****         case CapSense_WD_PROXIMITY_E:
1057:Generated_Source\PSoC6/CapSense_Processing.c ****             sensorStatus = CapSense_DpProcessProximity(sensorStatus, ptrFlashWdgt);
1058:Generated_Source\PSoC6/CapSense_Processing.c ****             break;
1059:Generated_Source\PSoC6/CapSense_Processing.c ****     #endif /* #if (0u != CapSense_PROXIMITY_WIDGET_EN) */
1060:Generated_Source\PSoC6/CapSense_Processing.c **** 
1061:Generated_Source\PSoC6/CapSense_Processing.c ****     default:
1062:Generated_Source\PSoC6/CapSense_Processing.c ****         CY_ASSERT(0 != 0);
1063:Generated_Source\PSoC6/CapSense_Processing.c ****         break;
1064:Generated_Source\PSoC6/CapSense_Processing.c ****     }
ARM GAS  C:\Users\salaz\AppData\Local\Temp\cc14Xrvc.s 			page 22


1065:Generated_Source\PSoC6/CapSense_Processing.c **** 
1066:Generated_Source\PSoC6/CapSense_Processing.c ****     CapSense_dsRam.snsStatus[widgetId] = (CapSense_SNS_STS_TYPE)sensorStatus;
1067:Generated_Source\PSoC6/CapSense_Processing.c **** 
1068:Generated_Source\PSoC6/CapSense_Processing.c ****     /* The next two lines calculate index and bitmask of the widget status bit in the wdgtStatus ar
1069:Generated_Source\PSoC6/CapSense_Processing.c ****     wdStatusIndex = CapSense_GET_WDGT_STATUS_INDEX(widgetId);
1070:Generated_Source\PSoC6/CapSense_Processing.c ****     wdStatusMask = CapSense_GET_WDGT_STATUS_MASK(widgetId);
1071:Generated_Source\PSoC6/CapSense_Processing.c **** 
1072:Generated_Source\PSoC6/CapSense_Processing.c ****     /* Check if there are active sensors and update widget status accordingly */
1073:Generated_Source\PSoC6/CapSense_Processing.c ****     if (0u == sensorStatus)
1074:Generated_Source\PSoC6/CapSense_Processing.c ****     {
1075:Generated_Source\PSoC6/CapSense_Processing.c ****         CapSense_dsRam.wdgtStatus[wdStatusIndex] &= ~wdStatusMask;
1076:Generated_Source\PSoC6/CapSense_Processing.c ****     }
1077:Generated_Source\PSoC6/CapSense_Processing.c ****     else
1078:Generated_Source\PSoC6/CapSense_Processing.c ****     {
1079:Generated_Source\PSoC6/CapSense_Processing.c ****         CapSense_dsRam.wdgtStatus[wdStatusIndex] |= wdStatusMask;
1080:Generated_Source\PSoC6/CapSense_Processing.c ****     }
1081:Generated_Source\PSoC6/CapSense_Processing.c **** }
1082:Generated_Source\PSoC6/CapSense_Processing.c **** #endif /* #if (0u != CapSense_TOTAL_CSD_WIDGETS) */
1083:Generated_Source\PSoC6/CapSense_Processing.c **** 
1084:Generated_Source\PSoC6/CapSense_Processing.c **** 
1085:Generated_Source\PSoC6/CapSense_Processing.c **** #if (0 != (CapSense_CSD_AUTOTUNE & CapSense_CSD_SS_TH_EN))
1086:Generated_Source\PSoC6/CapSense_Processing.c **** /*******************************************************************************
1087:Generated_Source\PSoC6/CapSense_Processing.c **** * Function Name: CapSense_DpUpdateThresholds
1088:Generated_Source\PSoC6/CapSense_Processing.c **** ****************************************************************************//**
1089:Generated_Source\PSoC6/CapSense_Processing.c **** *
1090:Generated_Source\PSoC6/CapSense_Processing.c **** * \brief
1091:Generated_Source\PSoC6/CapSense_Processing.c **** *   Updates noise and finger thresholds for a specified widget.
1092:Generated_Source\PSoC6/CapSense_Processing.c **** *
1093:Generated_Source\PSoC6/CapSense_Processing.c **** * \details
1094:Generated_Source\PSoC6/CapSense_Processing.c **** *   Updates noise and finger thresholds for a specified widget.
1095:Generated_Source\PSoC6/CapSense_Processing.c **** *   This algorithm is a part of Auto-tuning feature.
1096:Generated_Source\PSoC6/CapSense_Processing.c **** *
1097:Generated_Source\PSoC6/CapSense_Processing.c **** * \param ptrRamWdgt       The pointer to the RAM widget object.
1098:Generated_Source\PSoC6/CapSense_Processing.c **** * \param ptrNoiseEnvelope The pointer to the noise-envelope object in RAM.
1099:Generated_Source\PSoC6/CapSense_Processing.c **** * \param startFlag        The flag indicates when new widget is processed.
1100:Generated_Source\PSoC6/CapSense_Processing.c **** *
1101:Generated_Source\PSoC6/CapSense_Processing.c **** *******************************************************************************/
1102:Generated_Source\PSoC6/CapSense_Processing.c **** void CapSense_DpUpdateThresholds(CapSense_RAM_WD_BASE_STRUCT *ptrRamWdgt,
1103:Generated_Source\PSoC6/CapSense_Processing.c ****                                          SMARTSENSE_CSD_NOISE_ENVELOPE_STRUCT *ptrNoiseEnvelope,
1104:Generated_Source\PSoC6/CapSense_Processing.c ****                                          uint32 startFlag)
1105:Generated_Source\PSoC6/CapSense_Processing.c **** {
 129              		.loc 1 1105 0
 130              		.cfi_startproc
 131              		@ args = 0, pretend = 0, frame = 8
 132              		@ frame_needed = 0, uses_anonymous_args = 0
 133              	.LVL14:
 134 0000 10B5     		push	{r4, lr}
 135              		.cfi_def_cfa_offset 8
 136              		.cfi_offset 4, -8
 137              		.cfi_offset 14, -4
 138 0002 82B0     		sub	sp, sp, #8
 139              		.cfi_def_cfa_offset 16
 140 0004 0400     		movs	r4, r0
 141 0006 0800     		movs	r0, r1
 142              	.LVL15:
 143 0008 1300     		movs	r3, r2
 144              	.LVL16:
ARM GAS  C:\Users\salaz\AppData\Local\Temp\cc14Xrvc.s 			page 23


1106:Generated_Source\PSoC6/CapSense_Processing.c ****     SMARTSENSE_UPDATE_THRESHOLDS_STRUCT thresholds;
1107:Generated_Source\PSoC6/CapSense_Processing.c ****     SMARTSENSE_UPDATE_THRESHOLDS_STRUCT *ptrThresholds = &thresholds;
1108:Generated_Source\PSoC6/CapSense_Processing.c ****     ptrThresholds->fingerTh = ptrRamWdgt->fingerTh;
 145              		.loc 1 1108 0
 146 000a 6288     		ldrh	r2, [r4, #2]
 147              	.LVL17:
 148 000c 6946     		mov	r1, sp
 149              	.LVL18:
 150 000e 0A80     		strh	r2, [r1]
1109:Generated_Source\PSoC6/CapSense_Processing.c **** 
1110:Generated_Source\PSoC6/CapSense_Processing.c ****     SmartSense_UpdateThresholds(ptrNoiseEnvelope, ptrThresholds, ptrRamWdgt->sigPFC, startFlag);
 151              		.loc 1 1110 0
 152 0010 228A     		ldrh	r2, [r4, #16]
 153 0012 FFF7FEFF 		bl	SmartSense_UpdateThresholds
 154              	.LVL19:
1111:Generated_Source\PSoC6/CapSense_Processing.c **** 
1112:Generated_Source\PSoC6/CapSense_Processing.c ****     ptrRamWdgt->fingerTh = ptrThresholds->fingerTh;
 155              		.loc 1 1112 0
 156 0016 6B46     		mov	r3, sp
 157 0018 1B88     		ldrh	r3, [r3]
 158 001a 6380     		strh	r3, [r4, #2]
1113:Generated_Source\PSoC6/CapSense_Processing.c ****     ptrRamWdgt->noiseTh = ptrThresholds->noiseTh;
 159              		.loc 1 1113 0
 160 001c 6B46     		mov	r3, sp
 161 001e 9B78     		ldrb	r3, [r3, #2]
 162 0020 2371     		strb	r3, [r4, #4]
1114:Generated_Source\PSoC6/CapSense_Processing.c ****     ptrRamWdgt->nNoiseTh = ptrThresholds->nNoiseTh;
 163              		.loc 1 1114 0
 164 0022 6B46     		mov	r3, sp
 165 0024 DB78     		ldrb	r3, [r3, #3]
 166 0026 6371     		strb	r3, [r4, #5]
1115:Generated_Source\PSoC6/CapSense_Processing.c ****     ptrRamWdgt->hysteresis = ptrThresholds->hysteresis;
 167              		.loc 1 1115 0
 168 0028 6B46     		mov	r3, sp
 169 002a 1B79     		ldrb	r3, [r3, #4]
 170 002c A371     		strb	r3, [r4, #6]
1116:Generated_Source\PSoC6/CapSense_Processing.c **** }
 171              		.loc 1 1116 0
 172 002e 02B0     		add	sp, sp, #8
 173              	.LVL20:
 174              		@ sp needed
 175              	.LVL21:
 176 0030 10BD     		pop	{r4, pc}
 177              		.cfi_endproc
 178              	.LFE40:
 179              		.size	CapSense_DpUpdateThresholds, .-CapSense_DpUpdateThresholds
 180 0032 C046     		.section	.text.CapSense_DpUpdateDifferences,"ax",%progbits
 181              		.align	2
 182              		.global	CapSense_DpUpdateDifferences
 183              		.code	16
 184              		.thumb_func
 185              		.type	CapSense_DpUpdateDifferences, %function
 186              	CapSense_DpUpdateDifferences:
 187              	.LFB41:
1117:Generated_Source\PSoC6/CapSense_Processing.c **** #endif /* #if (0u != (CapSense_CSD_AUTOTUNE & CapSense_CSD_SS_TH_EN)) */
1118:Generated_Source\PSoC6/CapSense_Processing.c **** 
1119:Generated_Source\PSoC6/CapSense_Processing.c **** 
ARM GAS  C:\Users\salaz\AppData\Local\Temp\cc14Xrvc.s 			page 24


1120:Generated_Source\PSoC6/CapSense_Processing.c **** /*******************************************************************************
1121:Generated_Source\PSoC6/CapSense_Processing.c **** * Function Name: CapSense_DpUpdateDifferences
1122:Generated_Source\PSoC6/CapSense_Processing.c **** ****************************************************************************//**
1123:Generated_Source\PSoC6/CapSense_Processing.c **** *
1124:Generated_Source\PSoC6/CapSense_Processing.c **** * \brief
1125:Generated_Source\PSoC6/CapSense_Processing.c **** *   Calculates new difference values.
1126:Generated_Source\PSoC6/CapSense_Processing.c **** *   Also, executes the multi-frequency scan algorithm if it is enabled.
1127:Generated_Source\PSoC6/CapSense_Processing.c **** *
1128:Generated_Source\PSoC6/CapSense_Processing.c **** * \details
1129:Generated_Source\PSoC6/CapSense_Processing.c **** *   This API calculates the difference between the baseline and raw counts.
1130:Generated_Source\PSoC6/CapSense_Processing.c **** *   If the difference is positive (raw > baseline), and higher than the widget
1131:Generated_Source\PSoC6/CapSense_Processing.c **** *   noise threshold, it is saved into the data structure for further processing.
1132:Generated_Source\PSoC6/CapSense_Processing.c **** *   Otherwise the difference is set to zero. The final difference value is saved
1133:Generated_Source\PSoC6/CapSense_Processing.c **** *   with the subtracted noise threshold value.
1134:Generated_Source\PSoC6/CapSense_Processing.c **** *
1135:Generated_Source\PSoC6/CapSense_Processing.c **** *   If the multi-frequency scan algorithm is enabled, the difference is calculated
1136:Generated_Source\PSoC6/CapSense_Processing.c **** *   for the three sets of data available for each sensor. Then
1137:Generated_Source\PSoC6/CapSense_Processing.c **** *   the median filter selects the final difference value.
1138:Generated_Source\PSoC6/CapSense_Processing.c **** *
1139:Generated_Source\PSoC6/CapSense_Processing.c **** * \param ptrRamWdgt The pointer to the RAR Widget Object.
1140:Generated_Source\PSoC6/CapSense_Processing.c **** * \param curSnsPtr  The pointer to the sensor object in RAM.
1141:Generated_Source\PSoC6/CapSense_Processing.c **** *
1142:Generated_Source\PSoC6/CapSense_Processing.c **** *******************************************************************************/
1143:Generated_Source\PSoC6/CapSense_Processing.c **** void CapSense_DpUpdateDifferences(
1144:Generated_Source\PSoC6/CapSense_Processing.c ****                         CapSense_RAM_WD_BASE_STRUCT *ptrRamWdgt,
1145:Generated_Source\PSoC6/CapSense_Processing.c ****                         CapSense_RAM_SNS_STRUCT *curSnsPtr)
1146:Generated_Source\PSoC6/CapSense_Processing.c **** {
 188              		.loc 1 1146 0
 189              		.cfi_startproc
 190              		@ args = 0, pretend = 0, frame = 0
 191              		@ frame_needed = 0, uses_anonymous_args = 0
 192              	.LVL22:
 193 0000 30B5     		push	{r4, r5, lr}
 194              		.cfi_def_cfa_offset 12
 195              		.cfi_offset 4, -12
 196              		.cfi_offset 5, -8
 197              		.cfi_offset 14, -4
 198              	.LVL23:
1147:Generated_Source\PSoC6/CapSense_Processing.c ****     register int32 diffValue = 0;
1148:Generated_Source\PSoC6/CapSense_Processing.c **** 
1149:Generated_Source\PSoC6/CapSense_Processing.c ****     #if (0u != CapSense_MULTI_FREQ_SCAN_EN)
1150:Generated_Source\PSoC6/CapSense_Processing.c ****         register int32 diffValue_0 = 0;
1151:Generated_Source\PSoC6/CapSense_Processing.c ****         register int32 diffValue_2 = 0;
1152:Generated_Source\PSoC6/CapSense_Processing.c ****     #endif /* #if (0u != CapSense_MULTI_FREQ_SCAN_EN) */
1153:Generated_Source\PSoC6/CapSense_Processing.c **** 
1154:Generated_Source\PSoC6/CapSense_Processing.c ****     /* Calculate difference */
1155:Generated_Source\PSoC6/CapSense_Processing.c ****     diffValue = (int32)curSnsPtr->raw[0u] - (int32)curSnsPtr->bsln[0u];
 199              		.loc 1 1155 0
 200 0002 0B88     		ldrh	r3, [r1]
 201 0004 4A88     		ldrh	r2, [r1, #2]
 202 0006 9C1A     		subs	r4, r3, r2
 203              	.LVL24:
1156:Generated_Source\PSoC6/CapSense_Processing.c **** 
1157:Generated_Source\PSoC6/CapSense_Processing.c ****     #if (0u != CapSense_MULTI_FREQ_SCAN_EN)
1158:Generated_Source\PSoC6/CapSense_Processing.c ****         diffValue_0 = (int32)curSnsPtr->raw[1u] - (int32)curSnsPtr->bsln[1u];
1159:Generated_Source\PSoC6/CapSense_Processing.c ****         diffValue_2 = (int32)curSnsPtr->raw[2u] - (int32)curSnsPtr->bsln[2u];
1160:Generated_Source\PSoC6/CapSense_Processing.c **** 
ARM GAS  C:\Users\salaz\AppData\Local\Temp\cc14Xrvc.s 			page 25


1161:Generated_Source\PSoC6/CapSense_Processing.c ****         /* Find median and put it into [0u] element */
1162:Generated_Source\PSoC6/CapSense_Processing.c ****         if (diffValue_0 > diffValue)
1163:Generated_Source\PSoC6/CapSense_Processing.c ****         {
1164:Generated_Source\PSoC6/CapSense_Processing.c ****             register int32 swapv = diffValue_0;
1165:Generated_Source\PSoC6/CapSense_Processing.c ****             diffValue_0 = diffValue;
1166:Generated_Source\PSoC6/CapSense_Processing.c ****             diffValue = swapv;
1167:Generated_Source\PSoC6/CapSense_Processing.c ****         }
1168:Generated_Source\PSoC6/CapSense_Processing.c **** 
1169:Generated_Source\PSoC6/CapSense_Processing.c ****         if (diffValue > diffValue_2)
1170:Generated_Source\PSoC6/CapSense_Processing.c ****         {
1171:Generated_Source\PSoC6/CapSense_Processing.c ****             register int32 swapv = diffValue;
1172:Generated_Source\PSoC6/CapSense_Processing.c ****             diffValue = diffValue_2;
1173:Generated_Source\PSoC6/CapSense_Processing.c ****             diffValue_2 = swapv;
1174:Generated_Source\PSoC6/CapSense_Processing.c ****         }
1175:Generated_Source\PSoC6/CapSense_Processing.c **** 
1176:Generated_Source\PSoC6/CapSense_Processing.c ****         if (diffValue_0 > diffValue)
1177:Generated_Source\PSoC6/CapSense_Processing.c ****         {
1178:Generated_Source\PSoC6/CapSense_Processing.c ****             register int32 swapv = diffValue_0;
1179:Generated_Source\PSoC6/CapSense_Processing.c ****             diffValue_0 = diffValue;
1180:Generated_Source\PSoC6/CapSense_Processing.c ****             diffValue = swapv;
1181:Generated_Source\PSoC6/CapSense_Processing.c ****         }
1182:Generated_Source\PSoC6/CapSense_Processing.c ****     #endif /* #if (0u != CapSense_MULTI_FREQ_SCAN_EN) */
1183:Generated_Source\PSoC6/CapSense_Processing.c **** 
1184:Generated_Source\PSoC6/CapSense_Processing.c ****     curSnsPtr->diff = 0u;
 204              		.loc 1 1184 0
 205 0008 0025     		movs	r5, #0
 206 000a CD80     		strh	r5, [r1, #6]
1185:Generated_Source\PSoC6/CapSense_Processing.c **** 
1186:Generated_Source\PSoC6/CapSense_Processing.c ****     if (diffValue > (int32)ptrRamWdgt->noiseTh)
 207              		.loc 1 1186 0
 208 000c 0079     		ldrb	r0, [r0, #4]
 209              	.LVL25:
 210 000e 8442     		cmp	r4, r0
 211 0010 00DD     		ble	.L11
1187:Generated_Source\PSoC6/CapSense_Processing.c ****     {
1188:Generated_Source\PSoC6/CapSense_Processing.c ****         curSnsPtr->diff = (CapSense_THRESHOLD_TYPE) diffValue;
 212              		.loc 1 1188 0
 213 0012 CC80     		strh	r4, [r1, #6]
 214              	.L11:
1189:Generated_Source\PSoC6/CapSense_Processing.c ****     }
1190:Generated_Source\PSoC6/CapSense_Processing.c **** }
 215              		.loc 1 1190 0
 216              		@ sp needed
 217              	.LVL26:
 218 0014 30BD     		pop	{r4, r5, pc}
 219              		.cfi_endproc
 220              	.LFE41:
 221              		.size	CapSense_DpUpdateDifferences, .-CapSense_DpUpdateDifferences
 222              		.global	__aeabi_uidiv
 223 0016 C046     		.section	.text.CapSense_DpProcessCsdWidgetRawCounts,"ax",%progbits
 224              		.align	2
 225              		.global	CapSense_DpProcessCsdWidgetRawCounts
 226              		.code	16
 227              		.thumb_func
 228              		.type	CapSense_DpProcessCsdWidgetRawCounts, %function
 229              	CapSense_DpProcessCsdWidgetRawCounts:
 230              	.LFB37:
ARM GAS  C:\Users\salaz\AppData\Local\Temp\cc14Xrvc.s 			page 26


 786:Generated_Source\PSoC6/CapSense_Processing.c ****     uint32  result = CY_RET_SUCCESS;
 231              		.loc 1 786 0
 232              		.cfi_startproc
 233              		@ args = 0, pretend = 0, frame = 8
 234              		@ frame_needed = 0, uses_anonymous_args = 0
 235              	.LVL27:
 236 0000 F0B5     		push	{r4, r5, r6, r7, lr}
 237              		.cfi_def_cfa_offset 20
 238              		.cfi_offset 4, -20
 239              		.cfi_offset 5, -16
 240              		.cfi_offset 6, -12
 241              		.cfi_offset 7, -8
 242              		.cfi_offset 14, -4
 243 0002 5F46     		mov	r7, fp
 244 0004 5646     		mov	r6, r10
 245 0006 4D46     		mov	r5, r9
 246 0008 E0B4     		push	{r5, r6, r7}
 247              		.cfi_def_cfa_offset 32
 248              		.cfi_offset 9, -32
 249              		.cfi_offset 10, -28
 250              		.cfi_offset 11, -24
 251 000a 82B0     		sub	sp, sp, #8
 252              		.cfi_def_cfa_offset 40
 253 000c 8146     		mov	r9, r0
 254              	.LVL28:
 810:Generated_Source\PSoC6/CapSense_Processing.c **** 
 255              		.loc 1 810 0
 256 000e 837E     		ldrb	r3, [r0, #26]
 257 0010 062B     		cmp	r3, #6
 258 0012 02D1     		bne	.L20
 259 0014 0122     		movs	r2, #1
 260 0016 9346     		mov	fp, r2
 261 0018 01E0     		b	.L14
 262              	.L20:
 263 001a 0022     		movs	r2, #0
 264 001c 9346     		mov	fp, r2
 265              	.L14:
 266              	.LVL29:
 813:Generated_Source\PSoC6/CapSense_Processing.c ****     #endif /* #if (CapSense_ENABLE == CapSense_RC_FILTER_EN) */
 267              		.loc 1 813 0 discriminator 4
 268 001e 4A46     		mov	r2, r9
 269 0020 D268     		ldr	r2, [r2, #12]
 270              	.LVL30:
 271 0022 9246     		mov	r10, r2
 816:Generated_Source\PSoC6/CapSense_Processing.c ****     ptrRamWdgt = (CapSense_RAM_WD_BASE_STRUCT *)ptrFlashWdgt->ptr2WdgtRam;
 272              		.loc 1 816 0 discriminator 4
 273 0024 4A46     		mov	r2, r9
 274              	.LVL31:
 275 0026 9468     		ldr	r4, [r2, #8]
 276              	.LVL32:
 817:Generated_Source\PSoC6/CapSense_Processing.c ****     widgetType = ptrFlashWdgt->wdgtType;
 277              		.loc 1 817 0 discriminator 4
 278 0028 5568     		ldr	r5, [r2, #4]
 279              	.LVL33:
 818:Generated_Source\PSoC6/CapSense_Processing.c **** 
 280              		.loc 1 818 0 discriminator 4
 281 002a 0093     		str	r3, [sp]
ARM GAS  C:\Users\salaz\AppData\Local\Temp\cc14Xrvc.s 			page 27


 282              	.LVL34:
 821:Generated_Source\PSoC6/CapSense_Processing.c ****     #endif /* #if (0u != (CapSense_CSD_AUTOTUNE & CapSense_CSD_SS_TH_EN)) */
 283              		.loc 1 821 0 discriminator 4
 284 002c D769     		ldr	r7, [r2, #28]
 285              	.LVL35:
 825:Generated_Source\PSoC6/CapSense_Processing.c ****     {
 286              		.loc 1 825 0 discriminator 4
 287 002e 0026     		movs	r6, #0
 787:Generated_Source\PSoC6/CapSense_Processing.c **** 
 288              		.loc 1 787 0 discriminator 4
 289 0030 0023     		movs	r3, #0
 290 0032 0193     		str	r3, [sp, #4]
 825:Generated_Source\PSoC6/CapSense_Processing.c ****     {
 291              		.loc 1 825 0 discriminator 4
 292 0034 33E0     		b	.L15
 293              	.LVL36:
 294              	.L19:
 829:Generated_Source\PSoC6/CapSense_Processing.c ****             #if (CapSense_ALP_FILTER_EN)
 295              		.loc 1 829 0
 296 0036 009A     		ldr	r2, [sp]
 297 0038 2100     		movs	r1, r4
 298 003a 5046     		mov	r0, r10
 299 003c FFF7FEFF 		bl	CapSense_FtRunEnabledFiltersInternal
 300              	.LVL37:
 837:Generated_Source\PSoC6/CapSense_Processing.c ****             CapSense_DpUpdateThresholds(ptrRamWdgt, ptrNoiseEnvelope, snsId);
 301              		.loc 1 837 0
 302 0040 298A     		ldrh	r1, [r5, #16]
 303 0042 2088     		ldrh	r0, [r4]
 304 0044 3A00     		movs	r2, r7
 305 0046 FFF7FEFF 		bl	SmartSense_RunNoiseEnvelope
 306              	.LVL38:
 838:Generated_Source\PSoC6/CapSense_Processing.c **** 
 307              		.loc 1 838 0
 308 004a 3200     		movs	r2, r6
 309 004c 3900     		movs	r1, r7
 310 004e 2800     		movs	r0, r5
 311 0050 FFF7FEFF 		bl	CapSense_DpUpdateThresholds
 312              	.LVL39:
 842:Generated_Source\PSoC6/CapSense_Processing.c ****                 {
 313              		.loc 1 842 0
 314 0054 4B46     		mov	r3, r9
 315 0056 9B7E     		ldrb	r3, [r3, #26]
 316 0058 062B     		cmp	r3, #6
 317 005a 0DD1     		bne	.L16
 844:Generated_Source\PSoC6/CapSense_Processing.c ****                     if ((((1Lu) << CapSense_THRESHOLD_SIZE) - 1u) < proximityThreshold)
 318              		.loc 1 844 0
 319 005c 6888     		ldrh	r0, [r5, #2]
 320 005e 2733     		adds	r3, r3, #39
 321 0060 FF33     		adds	r3, r3, #255
 322 0062 5843     		muls	r0, r3
 323 0064 6421     		movs	r1, #100
 324 0066 FFF7FEFF 		bl	__aeabi_uidiv
 325              	.LVL40:
 845:Generated_Source\PSoC6/CapSense_Processing.c ****                     {
 326              		.loc 1 845 0
 327 006a 124B     		ldr	r3, .L22
 328 006c 9842     		cmp	r0, r3
ARM GAS  C:\Users\salaz\AppData\Local\Temp\cc14Xrvc.s 			page 28


 329 006e 00D9     		bls	.L17
 847:Generated_Source\PSoC6/CapSense_Processing.c ****                     }
 330              		.loc 1 847 0
 331 0070 1800     		movs	r0, r3
 332              	.LVL41:
 333              	.L17:
 849:Generated_Source\PSoC6/CapSense_Processing.c ****                         (CapSense_THRESHOLD_TYPE)proximityThreshold;
 334              		.loc 1 849 0
 335 0072 4B46     		mov	r3, r9
 336 0074 5B68     		ldr	r3, [r3, #4]
 337 0076 5882     		strh	r0, [r3, #18]
 338              	.LVL42:
 339              	.L16:
 855:Generated_Source\PSoC6/CapSense_Processing.c ****         #endif /* (0u != (CapSense_CSD_AUTOTUNE & CapSense_CSD_SS_TH_EN)) */
 340              		.loc 1 855 0
 341 0078 0C37     		adds	r7, r7, #12
 342              	.LVL43:
 865:Generated_Source\PSoC6/CapSense_Processing.c ****         #endif /* (CapSense_ENABLE == CapSense_TST_BSLN_DUPLICATION_EN) */
 343              		.loc 1 865 0
 344 007a 009A     		ldr	r2, [sp]
 345 007c 2100     		movs	r1, r4
 346 007e 2800     		movs	r0, r5
 347 0080 FFF7FEFF 		bl	CapSense_FtUpdateBaseline
 348              	.LVL44:
 349 0084 0190     		str	r0, [sp, #4]
 350              	.LVL45:
 868:Generated_Source\PSoC6/CapSense_Processing.c **** 
 351              		.loc 1 868 0
 352 0086 2100     		movs	r1, r4
 353 0088 2800     		movs	r0, r5
 354              	.LVL46:
 355 008a FFF7FEFF 		bl	CapSense_DpUpdateDifferences
 356              	.LVL47:
 871:Generated_Source\PSoC6/CapSense_Processing.c **** 
 357              		.loc 1 871 0
 358 008e 0A34     		adds	r4, r4, #10
 359              	.LVL48:
 875:Generated_Source\PSoC6/CapSense_Processing.c ****         #endif /* #if (CapSense_ENABLE == CapSense_RC_FILTER_EN) */
 360              		.loc 1 875 0
 361 0090 5B46     		mov	r3, fp
 362 0092 002B     		cmp	r3, #0
 363 0094 02D0     		beq	.L18
 364              	.LVL49:
 875:Generated_Source\PSoC6/CapSense_Processing.c ****         #endif /* #if (CapSense_ENABLE == CapSense_RC_FILTER_EN) */
 365              		.loc 1 875 0 is_stmt 0 discriminator 1
 366 0096 0C23     		movs	r3, #12
 367              	.LVL50:
 368 0098 9C46     		mov	ip, r3
 369 009a E244     		add	r10, r10, ip
 370              	.LVL51:
 371              	.L18:
 825:Generated_Source\PSoC6/CapSense_Processing.c ****     {
 372              		.loc 1 825 0 is_stmt 1 discriminator 2
 373 009c 0136     		adds	r6, r6, #1
 374              	.LVL52:
 375              	.L15:
 825:Generated_Source\PSoC6/CapSense_Processing.c ****     {
ARM GAS  C:\Users\salaz\AppData\Local\Temp\cc14Xrvc.s 			page 29


 376              		.loc 1 825 0 is_stmt 0 discriminator 1
 377 009e 4B46     		mov	r3, r9
 378 00a0 1B8B     		ldrh	r3, [r3, #24]
 379 00a2 9E42     		cmp	r6, r3
 380 00a4 C7D3     		bcc	.L19
 879:Generated_Source\PSoC6/CapSense_Processing.c **** 
 381              		.loc 1 879 0 is_stmt 1
 382 00a6 0198     		ldr	r0, [sp, #4]
 383 00a8 02B0     		add	sp, sp, #8
 384              	.LVL53:
 385              		@ sp needed
 386              	.LVL54:
 387              	.LVL55:
 388              	.LVL56:
 389              	.LVL57:
 390              	.LVL58:
 391              	.LVL59:
 392              	.LVL60:
 393 00aa 1CBC     		pop	{r2, r3, r4}
 394 00ac 9146     		mov	r9, r2
 395 00ae 9A46     		mov	r10, r3
 396 00b0 A346     		mov	fp, r4
 397 00b2 F0BD     		pop	{r4, r5, r6, r7, pc}
 398              	.L23:
 399              		.align	2
 400              	.L22:
 401 00b4 FFFF0000 		.word	65535
 402              		.cfi_endproc
 403              	.LFE37:
 404              		.size	CapSense_DpProcessCsdWidgetRawCounts, .-CapSense_DpProcessCsdWidgetRawCounts
 405              		.section	.text.CapSense_DpProcessCsdSensorRawCountsExt,"ax",%progbits
 406              		.align	2
 407              		.global	CapSense_DpProcessCsdSensorRawCountsExt
 408              		.code	16
 409              		.thumb_func
 410              		.type	CapSense_DpProcessCsdSensorRawCountsExt, %function
 411              	CapSense_DpProcessCsdSensorRawCountsExt:
 412              	.LFB38:
 920:Generated_Source\PSoC6/CapSense_Processing.c ****     uint32 result = CY_RET_SUCCESS;
 413              		.loc 1 920 0
 414              		.cfi_startproc
 415              		@ args = 0, pretend = 0, frame = 8
 416              		@ frame_needed = 0, uses_anonymous_args = 0
 417              	.LVL61:
 418 0000 F0B5     		push	{r4, r5, r6, r7, lr}
 419              		.cfi_def_cfa_offset 20
 420              		.cfi_offset 4, -20
 421              		.cfi_offset 5, -16
 422              		.cfi_offset 6, -12
 423              		.cfi_offset 7, -8
 424              		.cfi_offset 14, -4
 425 0002 4F46     		mov	r7, r9
 426 0004 80B4     		push	{r7}
 427              		.cfi_def_cfa_offset 24
 428              		.cfi_offset 9, -24
 429 0006 82B0     		sub	sp, sp, #8
 430              		.cfi_def_cfa_offset 32
ARM GAS  C:\Users\salaz\AppData\Local\Temp\cc14Xrvc.s 			page 30


 431 0008 0500     		movs	r5, r0
 432 000a 0191     		str	r1, [sp, #4]
 433 000c 1000     		movs	r0, r2
 434              	.LVL62:
 435 000e 1C00     		movs	r4, r3
 436              	.LVL63:
 932:Generated_Source\PSoC6/CapSense_Processing.c ****     #endif /* (0u != (CapSense_CSD_AUTOTUNE & CapSense_CSD_SS_TH_EN)) */
 437              		.loc 1 932 0
 438 0010 EB69     		ldr	r3, [r5, #28]
 439              	.LVL64:
 440 0012 9946     		mov	r9, r3
 441              	.LVL65:
 935:Generated_Source\PSoC6/CapSense_Processing.c ****     ptrRamWdgt = (CapSense_RAM_WD_BASE_STRUCT *)ptrFlashWdgt->ptr2WdgtRam;
 442              		.loc 1 935 0
 443 0014 AF7E     		ldrb	r7, [r5, #26]
 444              	.LVL66:
 936:Generated_Source\PSoC6/CapSense_Processing.c **** 
 445              		.loc 1 936 0
 446 0016 6E68     		ldr	r6, [r5, #4]
 447              	.LVL67:
 939:Generated_Source\PSoC6/CapSense_Processing.c ****         {
 448              		.loc 1 939 0
 449 0018 E307     		lsls	r3, r4, #31
 450 001a 02D5     		bpl	.L25
 451              	.LVL68:
 941:Generated_Source\PSoC6/CapSense_Processing.c ****             #if (CapSense_ALP_FILTER_EN)
 452              		.loc 1 941 0
 453 001c 3A00     		movs	r2, r7
 454              	.LVL69:
 455 001e FFF7FEFF 		bl	CapSense_FtRunEnabledFiltersInternal
 456              	.LVL70:
 457              	.L25:
 951:Generated_Source\PSoC6/CapSense_Processing.c ****         {
 458              		.loc 1 951 0
 459 0022 2307     		lsls	r3, r4, #28
 460 0024 05D5     		bpl	.L26
 953:Generated_Source\PSoC6/CapSense_Processing.c ****         }
 461              		.loc 1 953 0
 462 0026 318A     		ldrh	r1, [r6, #16]
 463 0028 019B     		ldr	r3, [sp, #4]
 464 002a 1888     		ldrh	r0, [r3]
 465 002c 4A46     		mov	r2, r9
 466              	.LVL71:
 467 002e FFF7FEFF 		bl	SmartSense_RunNoiseEnvelope
 468              	.LVL72:
 469              	.L26:
 956:Generated_Source\PSoC6/CapSense_Processing.c ****         {
 470              		.loc 1 956 0
 471 0032 E306     		lsls	r3, r4, #27
 472 0034 14D5     		bpl	.L27
 958:Generated_Source\PSoC6/CapSense_Processing.c **** 
 473              		.loc 1 958 0
 474 0036 0022     		movs	r2, #0
 475              	.LVL73:
 476 0038 4946     		mov	r1, r9
 477 003a 3000     		movs	r0, r6
 478 003c FFF7FEFF 		bl	CapSense_DpUpdateThresholds
ARM GAS  C:\Users\salaz\AppData\Local\Temp\cc14Xrvc.s 			page 31


 479              	.LVL74:
 962:Generated_Source\PSoC6/CapSense_Processing.c ****                 {
 480              		.loc 1 962 0
 481 0040 AB7E     		ldrb	r3, [r5, #26]
 482 0042 062B     		cmp	r3, #6
 483 0044 0CD1     		bne	.L27
 964:Generated_Source\PSoC6/CapSense_Processing.c ****                     if ((((1Lu) << CapSense_THRESHOLD_SIZE) - 1u) < proximityThreshold)
 484              		.loc 1 964 0
 485 0046 7088     		ldrh	r0, [r6, #2]
 486 0048 2733     		adds	r3, r3, #39
 487 004a FF33     		adds	r3, r3, #255
 488 004c 5843     		muls	r0, r3
 489 004e 6421     		movs	r1, #100
 490 0050 FFF7FEFF 		bl	__aeabi_uidiv
 491              	.LVL75:
 965:Generated_Source\PSoC6/CapSense_Processing.c ****                     {
 492              		.loc 1 965 0
 493 0054 0D4B     		ldr	r3, .L33
 494 0056 9842     		cmp	r0, r3
 495 0058 00D9     		bls	.L28
 967:Generated_Source\PSoC6/CapSense_Processing.c ****                     }
 496              		.loc 1 967 0
 497 005a 1800     		movs	r0, r3
 498              	.LVL76:
 499              	.L28:
 969:Generated_Source\PSoC6/CapSense_Processing.c ****                         (CapSense_THRESHOLD_TYPE)proximityThreshold;
 500              		.loc 1 969 0
 501 005c 6B68     		ldr	r3, [r5, #4]
 502 005e 5882     		strh	r0, [r3, #18]
 503              	.LVL77:
 504              	.L27:
 976:Generated_Source\PSoC6/CapSense_Processing.c ****     {
 505              		.loc 1 976 0
 506 0060 A307     		lsls	r3, r4, #30
 507 0062 06D5     		bpl	.L32
 978:Generated_Source\PSoC6/CapSense_Processing.c ****     }
 508              		.loc 1 978 0
 509 0064 3A00     		movs	r2, r7
 510              	.LVL78:
 511 0066 0199     		ldr	r1, [sp, #4]
 512 0068 3000     		movs	r0, r6
 513 006a FFF7FEFF 		bl	CapSense_FtUpdateBaseline
 514              	.LVL79:
 515 006e 0500     		movs	r5, r0
 516              	.LVL80:
 517 0070 00E0     		b	.L29
 518              	.LVL81:
 519              	.L32:
 921:Generated_Source\PSoC6/CapSense_Processing.c ****     uint32  widgetType;
 520              		.loc 1 921 0
 521 0072 0025     		movs	r5, #0
 522              	.LVL82:
 523              	.L29:
 981:Generated_Source\PSoC6/CapSense_Processing.c ****     {
 524              		.loc 1 981 0
 525 0074 6307     		lsls	r3, r4, #29
 526 0076 03D5     		bpl	.L30
ARM GAS  C:\Users\salaz\AppData\Local\Temp\cc14Xrvc.s 			page 32


 983:Generated_Source\PSoC6/CapSense_Processing.c ****     }
 527              		.loc 1 983 0
 528 0078 0199     		ldr	r1, [sp, #4]
 529 007a 3000     		movs	r0, r6
 530 007c FFF7FEFF 		bl	CapSense_DpUpdateDifferences
 531              	.LVL83:
 532              	.L30:
 986:Generated_Source\PSoC6/CapSense_Processing.c **** 
 533              		.loc 1 986 0
 534 0080 2800     		movs	r0, r5
 535 0082 02B0     		add	sp, sp, #8
 536              		@ sp needed
 537              	.LVL84:
 538              	.LVL85:
 539              	.LVL86:
 540              	.LVL87:
 541              	.LVL88:
 542 0084 04BC     		pop	{r2}
 543 0086 9146     		mov	r9, r2
 544 0088 F0BD     		pop	{r4, r5, r6, r7, pc}
 545              	.L34:
 546 008a C046     		.align	2
 547              	.L33:
 548 008c FFFF0000 		.word	65535
 549              		.cfi_endproc
 550              	.LFE38:
 551              		.size	CapSense_DpProcessCsdSensorRawCountsExt, .-CapSense_DpProcessCsdSensorRawCountsExt
 552              		.section	.text.CapSense_DpProcessProximity,"ax",%progbits
 553              		.align	2
 554              		.global	CapSense_DpProcessProximity
 555              		.code	16
 556              		.thumb_func
 557              		.type	CapSense_DpProcessProximity, %function
 558              	CapSense_DpProcessProximity:
 559              	.LFB42:
1191:Generated_Source\PSoC6/CapSense_Processing.c **** 
1192:Generated_Source\PSoC6/CapSense_Processing.c **** 
1193:Generated_Source\PSoC6/CapSense_Processing.c **** #if ((0u != CapSense_BUTTON_WIDGET_EN) || (0u != CapSense_CSX_MATRIX_WIDGET_EN))
1194:Generated_Source\PSoC6/CapSense_Processing.c **** /*******************************************************************************
1195:Generated_Source\PSoC6/CapSense_Processing.c **** * Function Name: CapSense_DpProcessButton
1196:Generated_Source\PSoC6/CapSense_Processing.c **** ****************************************************************************//**
1197:Generated_Source\PSoC6/CapSense_Processing.c **** *
1198:Generated_Source\PSoC6/CapSense_Processing.c **** * \brief
1199:Generated_Source\PSoC6/CapSense_Processing.c **** *   Processes the status of the Button widget.
1200:Generated_Source\PSoC6/CapSense_Processing.c **** *
1201:Generated_Source\PSoC6/CapSense_Processing.c **** * \details
1202:Generated_Source\PSoC6/CapSense_Processing.c **** *   This API processes the status of the CSD/CSX Button widget and
1203:Generated_Source\PSoC6/CapSense_Processing.c **** *   CSX Matrix Button widget. It applies the hysteresis and de-bounce algorithm
1204:Generated_Source\PSoC6/CapSense_Processing.c **** *   to each sensor difference value. This API is expected to be called
1205:Generated_Source\PSoC6/CapSense_Processing.c **** *   after each new widget scan. If it is called multiple times for the same
1206:Generated_Source\PSoC6/CapSense_Processing.c **** *   scan data, the de-bounce algorithm will not work properly.
1207:Generated_Source\PSoC6/CapSense_Processing.c **** *
1208:Generated_Source\PSoC6/CapSense_Processing.c **** *   This API does not update any Data Structure registers
1209:Generated_Source\PSoC6/CapSense_Processing.c **** *   except the de-bounce counters.
1210:Generated_Source\PSoC6/CapSense_Processing.c **** *
1211:Generated_Source\PSoC6/CapSense_Processing.c **** * \param currStatus   The current status of the widget sensors.
1212:Generated_Source\PSoC6/CapSense_Processing.c **** * \param ptrFlashWdgt The pointer to the Flash Widget Object.
ARM GAS  C:\Users\salaz\AppData\Local\Temp\cc14Xrvc.s 			page 33


1213:Generated_Source\PSoC6/CapSense_Processing.c **** *
1214:Generated_Source\PSoC6/CapSense_Processing.c **** * \return Returns the status of the widget's sensors. Bit #0 - corresponds to Sensor #0.
1215:Generated_Source\PSoC6/CapSense_Processing.c **** *
1216:Generated_Source\PSoC6/CapSense_Processing.c **** *******************************************************************************/
1217:Generated_Source\PSoC6/CapSense_Processing.c **** uint32 CapSense_DpProcessButton(uint32 currStatus, CapSense_FLASH_WD_STRUCT const *ptrFlashWdgt)
1218:Generated_Source\PSoC6/CapSense_Processing.c **** {
1219:Generated_Source\PSoC6/CapSense_Processing.c ****     uint32 snsCnt;
1220:Generated_Source\PSoC6/CapSense_Processing.c ****     uint32 snsMask;
1221:Generated_Source\PSoC6/CapSense_Processing.c ****     uint32 newStatus;
1222:Generated_Source\PSoC6/CapSense_Processing.c ****     uint32 touchTh;
1223:Generated_Source\PSoC6/CapSense_Processing.c ****     CapSense_RAM_SNS_STRUCT *ptrSnsTmp;
1224:Generated_Source\PSoC6/CapSense_Processing.c ****     CapSense_RAM_WD_BASE_STRUCT *ptrRamWdgt;
1225:Generated_Source\PSoC6/CapSense_Processing.c ****     uint8 * ptrDebounceCnt;
1226:Generated_Source\PSoC6/CapSense_Processing.c **** 
1227:Generated_Source\PSoC6/CapSense_Processing.c ****     snsCnt = ptrFlashWdgt->totalNumSns;
1228:Generated_Source\PSoC6/CapSense_Processing.c ****     ptrSnsTmp = ptrFlashWdgt->ptr2SnsRam;
1229:Generated_Source\PSoC6/CapSense_Processing.c ****     ptrRamWdgt = (CapSense_RAM_WD_BASE_STRUCT *)ptrFlashWdgt->ptr2WdgtRam;
1230:Generated_Source\PSoC6/CapSense_Processing.c ****     ptrDebounceCnt = ptrFlashWdgt->ptr2DebounceArr;
1231:Generated_Source\PSoC6/CapSense_Processing.c **** 
1232:Generated_Source\PSoC6/CapSense_Processing.c ****     /* Go through all widget's sensors */
1233:Generated_Source\PSoC6/CapSense_Processing.c ****     snsMask = 1Lu;
1234:Generated_Source\PSoC6/CapSense_Processing.c ****     for (; snsCnt-- > 0u; )
1235:Generated_Source\PSoC6/CapSense_Processing.c ****     {
1236:Generated_Source\PSoC6/CapSense_Processing.c ****         /* Calculate touch threshold taking into account hysteresis
1237:Generated_Source\PSoC6/CapSense_Processing.c ****            and current sensor state. */
1238:Generated_Source\PSoC6/CapSense_Processing.c ****         touchTh = (0u == (currStatus & snsMask)) ?
1239:Generated_Source\PSoC6/CapSense_Processing.c ****                   ((uint32)ptrRamWdgt->fingerTh + ptrRamWdgt->hysteresis) :
1240:Generated_Source\PSoC6/CapSense_Processing.c ****                   ((uint32)ptrRamWdgt->fingerTh - ptrRamWdgt->hysteresis);
1241:Generated_Source\PSoC6/CapSense_Processing.c **** 
1242:Generated_Source\PSoC6/CapSense_Processing.c ****         /* Determine new potential sensor state */
1243:Generated_Source\PSoC6/CapSense_Processing.c ****         newStatus = (ptrSnsTmp->diff > touchTh) ? snsMask : 0u;
1244:Generated_Source\PSoC6/CapSense_Processing.c **** 
1245:Generated_Source\PSoC6/CapSense_Processing.c ****         /* Sensor state changed ? */
1246:Generated_Source\PSoC6/CapSense_Processing.c ****         if (newStatus != (currStatus & snsMask))
1247:Generated_Source\PSoC6/CapSense_Processing.c ****         {
1248:Generated_Source\PSoC6/CapSense_Processing.c ****             /* Decrement de-bounce counter */
1249:Generated_Source\PSoC6/CapSense_Processing.c ****             (*ptrDebounceCnt)--;
1250:Generated_Source\PSoC6/CapSense_Processing.c ****         }
1251:Generated_Source\PSoC6/CapSense_Processing.c **** 
1252:Generated_Source\PSoC6/CapSense_Processing.c ****         /*
1253:Generated_Source\PSoC6/CapSense_Processing.c ****         *  This piece of code has two objectives:
1254:Generated_Source\PSoC6/CapSense_Processing.c ****         *  1. Reset de-bounce counter if the sensor state did not change.
1255:Generated_Source\PSoC6/CapSense_Processing.c ****         *     (It is possible that during previous processing cycles sensor
1256:Generated_Source\PSoC6/CapSense_Processing.c ****         *     was active and de-bounce counter was decremented.)
1257:Generated_Source\PSoC6/CapSense_Processing.c ****         *  2. Set new sensor state after successful de-bounce.
1258:Generated_Source\PSoC6/CapSense_Processing.c ****         */
1259:Generated_Source\PSoC6/CapSense_Processing.c ****         if ((newStatus == (currStatus & snsMask)) || (0u == (*ptrDebounceCnt)))
1260:Generated_Source\PSoC6/CapSense_Processing.c ****         {
1261:Generated_Source\PSoC6/CapSense_Processing.c ****             /* Set new sensor status */
1262:Generated_Source\PSoC6/CapSense_Processing.c ****             currStatus &= ~snsMask;
1263:Generated_Source\PSoC6/CapSense_Processing.c ****             currStatus |= newStatus;
1264:Generated_Source\PSoC6/CapSense_Processing.c **** 
1265:Generated_Source\PSoC6/CapSense_Processing.c ****             /* Reset de-bounce counter */
1266:Generated_Source\PSoC6/CapSense_Processing.c ****             #if (0u != CapSense_OFF_DEBOUNCE_EN)
1267:Generated_Source\PSoC6/CapSense_Processing.c ****                 *ptrDebounceCnt = (0Lu == newStatus) ? ptrRamWdgt->onDebounce : ptrRamWdgt->offDebo
1268:Generated_Source\PSoC6/CapSense_Processing.c ****             #else
1269:Generated_Source\PSoC6/CapSense_Processing.c ****                 *ptrDebounceCnt = (0Lu == newStatus) ? ptrRamWdgt->onDebounce : DEFAULT_OFF_DEBOUNC
ARM GAS  C:\Users\salaz\AppData\Local\Temp\cc14Xrvc.s 			page 34


1270:Generated_Source\PSoC6/CapSense_Processing.c ****             #endif /* #if (0u != CapSense_OFF_DEBOUNCE_EN) */
1271:Generated_Source\PSoC6/CapSense_Processing.c ****         }
1272:Generated_Source\PSoC6/CapSense_Processing.c **** 
1273:Generated_Source\PSoC6/CapSense_Processing.c ****         /* Move mask to the next sensor */
1274:Generated_Source\PSoC6/CapSense_Processing.c ****         snsMask <<= 1u;
1275:Generated_Source\PSoC6/CapSense_Processing.c **** 
1276:Generated_Source\PSoC6/CapSense_Processing.c ****         ptrSnsTmp++;
1277:Generated_Source\PSoC6/CapSense_Processing.c ****         ptrDebounceCnt++;
1278:Generated_Source\PSoC6/CapSense_Processing.c ****     }
1279:Generated_Source\PSoC6/CapSense_Processing.c **** 
1280:Generated_Source\PSoC6/CapSense_Processing.c ****     return currStatus;
1281:Generated_Source\PSoC6/CapSense_Processing.c **** }
1282:Generated_Source\PSoC6/CapSense_Processing.c **** #endif /* #if ((0u != CapSense_BUTTON_WIDGET_EN) || (0u != CapSense_CSX_MATRIX_WIDGET_EN)) */
1283:Generated_Source\PSoC6/CapSense_Processing.c **** 
1284:Generated_Source\PSoC6/CapSense_Processing.c **** 
1285:Generated_Source\PSoC6/CapSense_Processing.c **** #if (0u != CapSense_PROXIMITY_WIDGET_EN)
1286:Generated_Source\PSoC6/CapSense_Processing.c **** /*******************************************************************************
1287:Generated_Source\PSoC6/CapSense_Processing.c **** * Function Name: CapSense_DpProcessProximity
1288:Generated_Source\PSoC6/CapSense_Processing.c **** ****************************************************************************//**
1289:Generated_Source\PSoC6/CapSense_Processing.c **** *
1290:Generated_Source\PSoC6/CapSense_Processing.c **** * \brief
1291:Generated_Source\PSoC6/CapSense_Processing.c **** *   Processes the status of the Proximity widget.
1292:Generated_Source\PSoC6/CapSense_Processing.c **** *
1293:Generated_Source\PSoC6/CapSense_Processing.c **** * \details
1294:Generated_Source\PSoC6/CapSense_Processing.c **** *   This API processes the status of the CSD Proximity widget. It applies the
1295:Generated_Source\PSoC6/CapSense_Processing.c **** *   hysteresis and debounce algorithm to each sensor difference value.
1296:Generated_Source\PSoC6/CapSense_Processing.c **** *   The proximity and touch events are considered independently so debounce and
1297:Generated_Source\PSoC6/CapSense_Processing.c **** *   hysteresis are also applied independently.
1298:Generated_Source\PSoC6/CapSense_Processing.c **** *
1299:Generated_Source\PSoC6/CapSense_Processing.c **** *   This API is expected to be called after each new widget scan. If it is
1300:Generated_Source\PSoC6/CapSense_Processing.c **** *   called multiple times for the same scan data the debounce algorithm
1301:Generated_Source\PSoC6/CapSense_Processing.c **** *   will not work properly.
1302:Generated_Source\PSoC6/CapSense_Processing.c **** *
1303:Generated_Source\PSoC6/CapSense_Processing.c **** *   This API does not update any Data Structure registers
1304:Generated_Source\PSoC6/CapSense_Processing.c **** *   except the debounce counters.
1305:Generated_Source\PSoC6/CapSense_Processing.c **** *
1306:Generated_Source\PSoC6/CapSense_Processing.c **** * \param currStatus   The value with the current widget status.
1307:Generated_Source\PSoC6/CapSense_Processing.c **** * \param ptrFlashWdgt The pointer to the Flash Widget Object.
1308:Generated_Source\PSoC6/CapSense_Processing.c **** *
1309:Generated_Source\PSoC6/CapSense_Processing.c **** * \return
1310:Generated_Source\PSoC6/CapSense_Processing.c **** *  Returns the status of the proximity sensors. Each sensor is represented by two bits
1311:Generated_Source\PSoC6/CapSense_Processing.c **** *  that can take the following values:
1312:Generated_Source\PSoC6/CapSense_Processing.c **** *   - 00b not active
1313:Generated_Source\PSoC6/CapSense_Processing.c **** *   - 01b proximity is detected (signal is above finger threshold)
1314:Generated_Source\PSoC6/CapSense_Processing.c **** *   - 11b finger touch is detected (signal is above the touch threshold)
1315:Generated_Source\PSoC6/CapSense_Processing.c **** *
1316:Generated_Source\PSoC6/CapSense_Processing.c **** *******************************************************************************/
1317:Generated_Source\PSoC6/CapSense_Processing.c **** uint32 CapSense_DpProcessProximity(uint32 currStatus, CapSense_FLASH_WD_STRUCT const *ptrFlashWdgt)
1318:Generated_Source\PSoC6/CapSense_Processing.c **** {
 560              		.loc 1 1318 0
 561              		.cfi_startproc
 562              		@ args = 0, pretend = 0, frame = 0
 563              		@ frame_needed = 0, uses_anonymous_args = 0
 564              	.LVL89:
 565 0000 F0B5     		push	{r4, r5, r6, r7, lr}
 566              		.cfi_def_cfa_offset 20
 567              		.cfi_offset 4, -20
ARM GAS  C:\Users\salaz\AppData\Local\Temp\cc14Xrvc.s 			page 35


 568              		.cfi_offset 5, -16
 569              		.cfi_offset 6, -12
 570              		.cfi_offset 7, -8
 571              		.cfi_offset 14, -4
 572 0002 4F46     		mov	r7, r9
 573 0004 4646     		mov	r6, r8
 574 0006 C0B4     		push	{r6, r7}
 575              		.cfi_def_cfa_offset 28
 576              		.cfi_offset 8, -28
 577              		.cfi_offset 9, -24
 578              	.LVL90:
1319:Generated_Source\PSoC6/CapSense_Processing.c ****     uint32 currTh;
1320:Generated_Source\PSoC6/CapSense_Processing.c ****     uint32 snsCnt;
1321:Generated_Source\PSoC6/CapSense_Processing.c ****     uint32 snsMask;
1322:Generated_Source\PSoC6/CapSense_Processing.c ****     uint32 newStatus;
1323:Generated_Source\PSoC6/CapSense_Processing.c ****     uint32 difference;
1324:Generated_Source\PSoC6/CapSense_Processing.c **** 
1325:Generated_Source\PSoC6/CapSense_Processing.c ****     uint8 *ptrDebounceCnt;
1326:Generated_Source\PSoC6/CapSense_Processing.c ****     CapSense_RAM_SNS_STRUCT *ptrSnsTmp;
1327:Generated_Source\PSoC6/CapSense_Processing.c ****     CapSense_RAM_WD_PROXIMITY_STRUCT *ptrRamWdgt;
1328:Generated_Source\PSoC6/CapSense_Processing.c **** 
1329:Generated_Source\PSoC6/CapSense_Processing.c ****     /* Mask for proximity status bits. (All odd bits.) */
1330:Generated_Source\PSoC6/CapSense_Processing.c ****     const uint32 proxMask = UINT32_ODD_BITS_CONST;
1331:Generated_Source\PSoC6/CapSense_Processing.c **** 
1332:Generated_Source\PSoC6/CapSense_Processing.c ****     ptrSnsTmp = ptrFlashWdgt->ptr2SnsRam;
 579              		.loc 1 1332 0
 580 0008 8B68     		ldr	r3, [r1, #8]
 581 000a 9946     		mov	r9, r3
 582              	.LVL91:
1333:Generated_Source\PSoC6/CapSense_Processing.c ****     ptrRamWdgt = (CapSense_RAM_WD_PROXIMITY_STRUCT *)ptrFlashWdgt->ptr2WdgtRam;
 583              		.loc 1 1333 0
 584 000c 4D68     		ldr	r5, [r1, #4]
 585              	.LVL92:
1334:Generated_Source\PSoC6/CapSense_Processing.c ****     ptrDebounceCnt = ptrFlashWdgt->ptr2DebounceArr;
 586              		.loc 1 1334 0
 587 000e 0A69     		ldr	r2, [r1, #16]
 588              	.LVL93:
1335:Generated_Source\PSoC6/CapSense_Processing.c **** 
1336:Generated_Source\PSoC6/CapSense_Processing.c ****     /* Get number of sensors and multiply it by 2 - proximity and touch statuses per sensor. */
1337:Generated_Source\PSoC6/CapSense_Processing.c ****     snsCnt = (uint32)ptrFlashWdgt->totalNumSns << 1u;
 589              		.loc 1 1337 0
 590 0010 098B     		ldrh	r1, [r1, #24]
 591              	.LVL94:
 592 0012 4900     		lsls	r1, r1, #1
 593              	.LVL95:
1338:Generated_Source\PSoC6/CapSense_Processing.c **** 
1339:Generated_Source\PSoC6/CapSense_Processing.c ****     /* Go through all sensor's status bits */
1340:Generated_Source\PSoC6/CapSense_Processing.c ****     snsMask = 1Lu;
 594              		.loc 1 1340 0
 595 0014 0123     		movs	r3, #1
 596              	.LVL96:
1341:Generated_Source\PSoC6/CapSense_Processing.c ****     for (; snsCnt-- > 0u;)
 597              		.loc 1 1341 0
 598 0016 2CE0     		b	.L36
 599              	.LVL97:
 600              	.L45:
1342:Generated_Source\PSoC6/CapSense_Processing.c ****     {
ARM GAS  C:\Users\salaz\AppData\Local\Temp\cc14Xrvc.s 			page 36


1343:Generated_Source\PSoC6/CapSense_Processing.c ****         difference = ptrSnsTmp->diff;
 601              		.loc 1 1343 0
 602 0018 4946     		mov	r1, r9
 603 001a CE88     		ldrh	r6, [r1, #6]
 604              	.LVL98:
1344:Generated_Source\PSoC6/CapSense_Processing.c **** 
1345:Generated_Source\PSoC6/CapSense_Processing.c ****         /* Determine current event (proximity - odd; touch - even) and get appropriate threshold. *
1346:Generated_Source\PSoC6/CapSense_Processing.c ****         currTh = ptrRamWdgt->fingerTh;
 605              		.loc 1 1346 0
 606 001c 6988     		ldrh	r1, [r5, #2]
 607              	.LVL99:
1347:Generated_Source\PSoC6/CapSense_Processing.c **** 
1348:Generated_Source\PSoC6/CapSense_Processing.c ****         if (0u == (snsMask & proxMask))
 608              		.loc 1 1348 0
 609 001e 194C     		ldr	r4, .L48
 610              	.LVL100:
 611 0020 2342     		tst	r3, r4
 612 0022 03D1     		bne	.L37
1349:Generated_Source\PSoC6/CapSense_Processing.c ****         {
1350:Generated_Source\PSoC6/CapSense_Processing.c ****             currTh = ptrRamWdgt->proxTouchTh;
 613              		.loc 1 1350 0
 614 0024 698A     		ldrh	r1, [r5, #18]
 615              	.LVL101:
1351:Generated_Source\PSoC6/CapSense_Processing.c ****             ptrSnsTmp++;
 616              		.loc 1 1351 0
 617 0026 0A24     		movs	r4, #10
 618 0028 A046     		mov	r8, r4
 619 002a C144     		add	r9, r9, r8
 620              	.LVL102:
 621              	.L37:
1352:Generated_Source\PSoC6/CapSense_Processing.c ****         }
1353:Generated_Source\PSoC6/CapSense_Processing.c **** 
1354:Generated_Source\PSoC6/CapSense_Processing.c ****         /* Calculate finger threshold applying hysteresis based on current sensor state. */
1355:Generated_Source\PSoC6/CapSense_Processing.c ****         currTh = (0u == (currStatus & snsMask)) ? (currTh + ptrRamWdgt->hysteresis) : (currTh - ptr
 622              		.loc 1 1355 0
 623 002c 1C00     		movs	r4, r3
 624 002e 0440     		ands	r4, r0
 625 0030 03D1     		bne	.L38
 626              		.loc 1 1355 0 is_stmt 0 discriminator 1
 627 0032 AF79     		ldrb	r7, [r5, #6]
 628 0034 B846     		mov	r8, r7
 629 0036 4144     		add	r1, r1, r8
 630              	.LVL103:
 631 0038 01E0     		b	.L39
 632              	.LVL104:
 633              	.L38:
 634              		.loc 1 1355 0 discriminator 2
 635 003a AF79     		ldrb	r7, [r5, #6]
 636 003c C91B     		subs	r1, r1, r7
 637              	.LVL105:
 638              	.L39:
1356:Generated_Source\PSoC6/CapSense_Processing.c **** 
1357:Generated_Source\PSoC6/CapSense_Processing.c ****         /* Determine new potential sensor state before de-bounce */
1358:Generated_Source\PSoC6/CapSense_Processing.c ****         newStatus = (difference > currTh) ? snsMask : 0Lu;
 639              		.loc 1 1358 0 is_stmt 1 discriminator 4
 640 003e B142     		cmp	r1, r6
 641 0040 01D3     		bcc	.L46
ARM GAS  C:\Users\salaz\AppData\Local\Temp\cc14Xrvc.s 			page 37


 642              		.loc 1 1358 0 is_stmt 0
 643 0042 0021     		movs	r1, #0
 644              	.LVL106:
 645 0044 00E0     		b	.L40
 646              	.LVL107:
 647              	.L46:
 648 0046 1900     		movs	r1, r3
 649              	.LVL108:
 650              	.L40:
1359:Generated_Source\PSoC6/CapSense_Processing.c **** 
1360:Generated_Source\PSoC6/CapSense_Processing.c ****         /* Sensor state changed ? */
1361:Generated_Source\PSoC6/CapSense_Processing.c ****         if (newStatus != (currStatus & snsMask))
 651              		.loc 1 1361 0 is_stmt 1 discriminator 4
 652 0048 A142     		cmp	r1, r4
 653 004a 02D0     		beq	.L41
1362:Generated_Source\PSoC6/CapSense_Processing.c ****         {
1363:Generated_Source\PSoC6/CapSense_Processing.c ****             /* Decrement de-bounce counter */
1364:Generated_Source\PSoC6/CapSense_Processing.c ****             (*ptrDebounceCnt)--;
 654              		.loc 1 1364 0
 655 004c 1678     		ldrb	r6, [r2]
 656              	.LVL109:
 657 004e 013E     		subs	r6, r6, #1
 658 0050 1670     		strb	r6, [r2]
 659              	.L41:
1365:Generated_Source\PSoC6/CapSense_Processing.c ****         }
1366:Generated_Source\PSoC6/CapSense_Processing.c **** 
1367:Generated_Source\PSoC6/CapSense_Processing.c ****         /*
1368:Generated_Source\PSoC6/CapSense_Processing.c ****         *  This piece of code has two objectives:
1369:Generated_Source\PSoC6/CapSense_Processing.c ****         *  1. Reset de-bounce counter if new sensor state has not changed.
1370:Generated_Source\PSoC6/CapSense_Processing.c ****         *     (It is possible that during previous processing cycles the sensor
1371:Generated_Source\PSoC6/CapSense_Processing.c ****         *     state was different which caused de-bounce counter change.)
1372:Generated_Source\PSoC6/CapSense_Processing.c ****         *  2. Set new sensor state after successful de-bounce.
1373:Generated_Source\PSoC6/CapSense_Processing.c ****         */
1374:Generated_Source\PSoC6/CapSense_Processing.c ****         if ((newStatus == (currStatus & snsMask)) || (0u == (*ptrDebounceCnt)))
 660              		.loc 1 1374 0
 661 0052 A142     		cmp	r1, r4
 662 0054 02D0     		beq	.L42
 663              		.loc 1 1374 0 is_stmt 0 discriminator 1
 664 0056 1478     		ldrb	r4, [r2]
 665 0058 002C     		cmp	r4, #0
 666 005a 07D1     		bne	.L43
 667              	.L42:
1375:Generated_Source\PSoC6/CapSense_Processing.c ****         {
1376:Generated_Source\PSoC6/CapSense_Processing.c ****             /* Set new sensor status */
1377:Generated_Source\PSoC6/CapSense_Processing.c ****             currStatus &= ~snsMask;
 668              		.loc 1 1377 0 is_stmt 1
 669 005c 9843     		bics	r0, r3
 670              	.LVL110:
1378:Generated_Source\PSoC6/CapSense_Processing.c ****             currStatus |= newStatus;
 671              		.loc 1 1378 0
 672 005e 0843     		orrs	r0, r1
 673              	.LVL111:
1379:Generated_Source\PSoC6/CapSense_Processing.c **** 
1380:Generated_Source\PSoC6/CapSense_Processing.c ****             /* Reset de-bounce counter */
1381:Generated_Source\PSoC6/CapSense_Processing.c ****             #if (0u != CapSense_OFF_DEBOUNCE_EN)
1382:Generated_Source\PSoC6/CapSense_Processing.c ****                 *ptrDebounceCnt = (0Lu == newStatus) ? ptrRamWdgt->onDebounce : ptrRamWdgt->offDebo
1383:Generated_Source\PSoC6/CapSense_Processing.c ****             #else
ARM GAS  C:\Users\salaz\AppData\Local\Temp\cc14Xrvc.s 			page 38


1384:Generated_Source\PSoC6/CapSense_Processing.c ****                 *ptrDebounceCnt = (0Lu == newStatus) ? ptrRamWdgt->onDebounce : DEFAULT_OFF_DEBOUNC
 674              		.loc 1 1384 0
 675 0060 0029     		cmp	r1, #0
 676 0062 01D1     		bne	.L47
 677              		.loc 1 1384 0 is_stmt 0 discriminator 1
 678 0064 E979     		ldrb	r1, [r5, #7]
 679              	.LVL112:
 680 0066 00E0     		b	.L44
 681              	.LVL113:
 682              	.L47:
 683              		.loc 1 1384 0
 684 0068 0121     		movs	r1, #1
 685              	.LVL114:
 686              	.L44:
 687              		.loc 1 1384 0 discriminator 4
 688 006a 1170     		strb	r1, [r2]
 689              	.L43:
1385:Generated_Source\PSoC6/CapSense_Processing.c ****             #endif /* #if (0u != CapSense_OFF_DEBOUNCE_EN) */
1386:Generated_Source\PSoC6/CapSense_Processing.c ****         }
1387:Generated_Source\PSoC6/CapSense_Processing.c **** 
1388:Generated_Source\PSoC6/CapSense_Processing.c ****         ptrDebounceCnt++;
 690              		.loc 1 1388 0 is_stmt 1
 691 006c 0132     		adds	r2, r2, #1
 692              	.LVL115:
1389:Generated_Source\PSoC6/CapSense_Processing.c **** 
1390:Generated_Source\PSoC6/CapSense_Processing.c ****         /* Move sensor mask to the next sensor */
1391:Generated_Source\PSoC6/CapSense_Processing.c ****         snsMask <<= 1u;
 693              		.loc 1 1391 0
 694 006e 5B00     		lsls	r3, r3, #1
 695              	.LVL116:
1341:Generated_Source\PSoC6/CapSense_Processing.c ****     {
 696              		.loc 1 1341 0
 697 0070 6146     		mov	r1, ip
 698              	.LVL117:
 699              	.L36:
 700 0072 4C1E     		subs	r4, r1, #1
 701 0074 A446     		mov	ip, r4
 702              	.LVL118:
 703 0076 0029     		cmp	r1, #0
 704 0078 CED1     		bne	.L45
1392:Generated_Source\PSoC6/CapSense_Processing.c ****     }
1393:Generated_Source\PSoC6/CapSense_Processing.c **** 
1394:Generated_Source\PSoC6/CapSense_Processing.c ****     return currStatus;
1395:Generated_Source\PSoC6/CapSense_Processing.c **** }
 705              		.loc 1 1395 0
 706              		@ sp needed
 707              	.LVL119:
 708              	.LVL120:
 709              	.LVL121:
 710 007a 0CBC     		pop	{r2, r3}
 711 007c 9046     		mov	r8, r2
 712 007e 9946     		mov	r9, r3
 713 0080 F0BD     		pop	{r4, r5, r6, r7, pc}
 714              	.L49:
 715 0082 C046     		.align	2
 716              	.L48:
 717 0084 55555555 		.word	1431655765
ARM GAS  C:\Users\salaz\AppData\Local\Temp\cc14Xrvc.s 			page 39


 718              		.cfi_endproc
 719              	.LFE42:
 720              		.size	CapSense_DpProcessProximity, .-CapSense_DpProcessProximity
 721              		.section	.text.CapSense_DpProcessCsdWidgetStatus,"ax",%progbits
 722              		.align	2
 723              		.global	CapSense_DpProcessCsdWidgetStatus
 724              		.code	16
 725              		.thumb_func
 726              		.type	CapSense_DpProcessCsdWidgetStatus, %function
 727              	CapSense_DpProcessCsdWidgetStatus:
 728              	.LFB39:
1016:Generated_Source\PSoC6/CapSense_Processing.c ****     uint32 sensorStatus;
 729              		.loc 1 1016 0
 730              		.cfi_startproc
 731              		@ args = 0, pretend = 0, frame = 0
 732              		@ frame_needed = 0, uses_anonymous_args = 0
 733              	.LVL122:
 734 0000 70B5     		push	{r4, r5, r6, lr}
 735              		.cfi_def_cfa_offset 16
 736              		.cfi_offset 4, -16
 737              		.cfi_offset 5, -12
 738              		.cfi_offset 6, -8
 739              		.cfi_offset 14, -4
 740 0002 0400     		movs	r4, r0
1022:Generated_Source\PSoC6/CapSense_Processing.c ****     sensorStatus = CapSense_dsRam.snsStatus[widgetId];
 741              		.loc 1 1022 0
 742 0004 8A7E     		ldrb	r2, [r1, #26]
 743              	.LVL123:
1023:Generated_Source\PSoC6/CapSense_Processing.c **** 
 744              		.loc 1 1023 0
 745 0006 144B     		ldr	r3, .L57
 746 0008 1B18     		adds	r3, r3, r0
 747 000a 1D7E     		ldrb	r5, [r3, #24]
 748              	.LVL124:
1025:Generated_Source\PSoC6/CapSense_Processing.c ****     {
 749              		.loc 1 1025 0
 750 000c 062A     		cmp	r2, #6
 751 000e 04D1     		bne	.L56
1057:Generated_Source\PSoC6/CapSense_Processing.c ****             break;
 752              		.loc 1 1057 0
 753 0010 2800     		movs	r0, r5
 754              	.LVL125:
 755 0012 FFF7FEFF 		bl	CapSense_DpProcessProximity
 756              	.LVL126:
 757 0016 0500     		movs	r5, r0
 758              	.LVL127:
1058:Generated_Source\PSoC6/CapSense_Processing.c ****     #endif /* #if (0u != CapSense_PROXIMITY_WIDGET_EN) */
 759              		.loc 1 1058 0
 760 0018 03E0     		b	.L53
 761              	.LVL128:
 762              	.L56:
1062:Generated_Source\PSoC6/CapSense_Processing.c ****         break;
 763              		.loc 1 1062 0 discriminator 1
 764 001a 1049     		ldr	r1, .L57+4
 765              	.LVL129:
 766 001c 1048     		ldr	r0, .L57+8
 767              	.LVL130:
ARM GAS  C:\Users\salaz\AppData\Local\Temp\cc14Xrvc.s 			page 40


 768 001e FFF7FEFF 		bl	Cy_SysLib_AssertFailed
 769              	.LVL131:
 770              	.L53:
1066:Generated_Source\PSoC6/CapSense_Processing.c **** 
 771              		.loc 1 1066 0
 772 0022 0D4B     		ldr	r3, .L57
 773 0024 1B19     		adds	r3, r3, r4
 774 0026 1D76     		strb	r5, [r3, #24]
1069:Generated_Source\PSoC6/CapSense_Processing.c ****     wdStatusMask = CapSense_GET_WDGT_STATUS_MASK(widgetId);
 775              		.loc 1 1069 0
 776 0028 6309     		lsrs	r3, r4, #5
 777              	.LVL132:
1070:Generated_Source\PSoC6/CapSense_Processing.c **** 
 778              		.loc 1 1070 0
 779 002a 1F22     		movs	r2, #31
 780 002c 1440     		ands	r4, r2
 781              	.LVL133:
 782 002e 1E3A     		subs	r2, r2, #30
 783 0030 A240     		lsls	r2, r2, r4
 784              	.LVL134:
1073:Generated_Source\PSoC6/CapSense_Processing.c ****     {
 785              		.loc 1 1073 0
 786 0032 002D     		cmp	r5, #0
 787 0034 07D1     		bne	.L54
1075:Generated_Source\PSoC6/CapSense_Processing.c ****     }
 788              		.loc 1 1075 0
 789 0036 0433     		adds	r3, r3, #4
 790              	.LVL135:
 791 0038 9B00     		lsls	r3, r3, #2
 792              	.LVL136:
 793 003a 0749     		ldr	r1, .L57
 794 003c CB18     		adds	r3, r1, r3
 795 003e 5968     		ldr	r1, [r3, #4]
 796 0040 9143     		bics	r1, r2
 797 0042 5960     		str	r1, [r3, #4]
 798 0044 06E0     		b	.L50
 799              	.LVL137:
 800              	.L54:
1079:Generated_Source\PSoC6/CapSense_Processing.c ****     }
 801              		.loc 1 1079 0
 802 0046 0433     		adds	r3, r3, #4
 803              	.LVL138:
 804 0048 9B00     		lsls	r3, r3, #2
 805              	.LVL139:
 806 004a 0349     		ldr	r1, .L57
 807 004c CB18     		adds	r3, r1, r3
 808 004e 5968     		ldr	r1, [r3, #4]
 809 0050 0A43     		orrs	r2, r1
 810              	.LVL140:
 811 0052 5A60     		str	r2, [r3, #4]
 812              	.L50:
1081:Generated_Source\PSoC6/CapSense_Processing.c **** #endif /* #if (0u != CapSense_TOTAL_CSD_WIDGETS) */
 813              		.loc 1 1081 0
 814              		@ sp needed
 815              	.LVL141:
 816              	.LVL142:
 817 0054 70BD     		pop	{r4, r5, r6, pc}
ARM GAS  C:\Users\salaz\AppData\Local\Temp\cc14Xrvc.s 			page 41


 818              	.L58:
 819 0056 C046     		.align	2
 820              	.L57:
 821 0058 00000000 		.word	CapSense_dsRam
 822 005c 26040000 		.word	1062
 823 0060 00000000 		.word	.LC3
 824              		.cfi_endproc
 825              	.LFE39:
 826              		.size	CapSense_DpProcessCsdWidgetStatus, .-CapSense_DpProcessCsdWidgetStatus
 827              		.section	.rodata.str1.4,"aMS",%progbits,1
 828              		.align	2
 829              	.LC3:
 830 0000 47656E65 		.ascii	"Generated_Source\\PSoC6\\CapSense_Processing.c\000"
 830      72617465 
 830      645F536F 
 830      75726365 
 830      5C50536F 
 831              		.text
 832              	.Letext0:
 833              		.file 2 "c:\\program files (x86)\\cypress\\psoc creator\\4.2\\psoc creator\\import\\gnu\\arm\\5.4.
 834              		.file 3 "c:\\program files (x86)\\cypress\\psoc creator\\4.2\\psoc creator\\import\\gnu\\arm\\5.4.
 835              		.file 4 "Generated_Source\\PSoC6\\pdl\\drivers/peripheral/syslib/cy_syslib.h"
 836              		.file 5 "c:\\program files (x86)\\cypress\\psoc creator\\4.2\\psoc creator\\import\\gnu\\arm\\5.4.
 837              		.file 6 "Generated_Source\\PSoC6\\CapSense_Configuration.h"
 838              		.file 7 "Generated_Source\\PSoC6\\CapSense_SmartSense_LL.h"
 839              		.file 8 "Generated_Source\\PSoC6\\CapSense_Structure.h"
 840              		.file 9 "c:\\program files (x86)\\cypress\\psoc creator\\4.2\\psoc creator\\import\\gnu\\arm\\5.4.
 841              		.file 10 "Generated_Source\\PSoC6\\CapSense_Filter.h"