ARM GAS  C:\Users\salaz\AppData\Local\Temp\cc7F8fiw.s 			page 1


   1              		.syntax unified
   2              		.cpu cortex-m0plus
   3              		.fpu softvfp
   4              		.eabi_attribute 20, 1
   5              		.eabi_attribute 21, 1
   6              		.eabi_attribute 23, 3
   7              		.eabi_attribute 24, 1
   8              		.eabi_attribute 25, 1
   9              		.eabi_attribute 26, 1
  10              		.eabi_attribute 30, 1
  11              		.eabi_attribute 34, 0
  12              		.eabi_attribute 18, 4
  13              		.thumb
  14              		.syntax unified
  15              		.file	"AppControl.c"
  16              		.text
  17              	.Ltext0:
  18              		.cfi_sections	.debug_frame
  19              		.section	.text.AppControlHandler,"ax",%progbits
  20              		.align	2
  21              		.global	AppControlHandler
  22              		.code	16
  23              		.thumb_func
  24              		.type	AppControlHandler, %function
  25              	AppControlHandler:
  26              	.LFB792:
  27              		.file 1 "AppControl.c"
   1:AppControl.c  **** 
   2:AppControl.c  **** #include <AppControl.h>
   3:AppControl.c  **** #include <KinOS.h>
   4:AppControl.c  **** 
   5:AppControl.c  **** #include "debug.h"
   6:AppControl.c  **** 
   7:AppControl.c  **** enum{   FSM_INITIALIZE, 
   8:AppControl.c  ****         FSM_IDLE, 
   9:AppControl.c  ****         FSM_CHECK_MOTION, 
  10:AppControl.c  ****         FSM_VERIFY_USER, 
  11:AppControl.c  ****         FSM_STOLEN,
  12:AppControl.c  ****         FSM_DAY,
  13:AppControl.c  ****         FSM_NIGHT,
  14:AppControl.c  ****         FSM_RIDE
  15:AppControl.c  ****     };
  16:AppControl.c  **** 
  17:AppControl.c  **** // Control Parameters
  18:AppControl.c  **** // NIGHT DAY
  19:AppControl.c  **** uint16 morningThreshold = 7;
  20:AppControl.c  **** uint16 nightThreshold = 20;
  21:AppControl.c  **** uint32 rideNightCheck_ms = 60000;
  22:AppControl.c  **** // VERIFY
  23:AppControl.c  **** uint16 verifyAdvertise_s = 30;
  24:AppControl.c  **** uint8 verifyLightCycles = 8;
  25:AppControl.c  **** // STOLEN
  26:AppControl.c  **** uint16 stolenAdvertise_s = 30;
  27:AppControl.c  **** uint8 stolenLightCycles = 15;
  28:AppControl.c  **** 
  29:AppControl.c  **** void AppControlHandler()
  30:AppControl.c  **** {
ARM GAS  C:\Users\salaz\AppData\Local\Temp\cc7F8fiw.s 			page 2


  28              		.loc 1 30 0
  29              		.cfi_startproc
  30              		@ args = 0, pretend = 0, frame = 16
  31              		@ frame_needed = 0, uses_anonymous_args = 0
  32 0000 10B5     		push	{r4, lr}
  33              		.cfi_def_cfa_offset 8
  34              		.cfi_offset 4, -8
  35              		.cfi_offset 14, -4
  36 0002 84B0     		sub	sp, sp, #16
  37              		.cfi_def_cfa_offset 24
  38              	.L51:
  31:AppControl.c  ****     static bool motion_latch = false;
  32:AppControl.c  ****     
  33:AppControl.c  ****     bool update_done = false;
  34:AppControl.c  ****     static uint8 current_state = FSM_INITIALIZE;
  35:AppControl.c  ****     static uint8 next_state    = FSM_INITIALIZE;
  36:AppControl.c  ****         
  37:AppControl.c  ****     do  //-----------------------------------------------------//
  38:AppControl.c  ****     {   //-------------------State-Transitions-----------------//
  39:AppControl.c  ****         
  40:AppControl.c  ****         switch(current_state)
  39              		.loc 1 40 0
  40 0004 CC4B     		ldr	r3, .L53
  41 0006 1A78     		ldrb	r2, [r3]
  42 0008 072A     		cmp	r2, #7
  43 000a 00D9     		bls	.LCB15
  44 000c 04E1     		b	.L2	@long jump
  45              	.LCB15:
  46 000e 9300     		lsls	r3, r2, #2
  47 0010 CA4A     		ldr	r2, .L53+4
  48 0012 D358     		ldr	r3, [r2, r3]
  49 0014 9F46     		mov	pc, r3
  50              		.section	.rodata
  51              		.align	2
  52              	.L4:
  53 0000 16000000 		.word	.L3
  54 0004 3E000000 		.word	.L5
  55 0008 78000000 		.word	.L6
  56 000c D6000000 		.word	.L7
  57 0010 18010000 		.word	.L8
  58 0014 CA010000 		.word	.L9
  59 0018 F2010000 		.word	.L10
  60 001c 68010000 		.word	.L11
  61              		.section	.text.AppControlHandler
  62              	.L3:
  41:AppControl.c  ****         {
  42:AppControl.c  ****             case FSM_INITIALIZE: 
  43:AppControl.c  ****             {
  44:AppControl.c  ****                 DEBUG_PRINTF("FSM_INITIALIZE\r\n"); 
  63              		.loc 1 44 0
  64 0016 CA48     		ldr	r0, .L53+8
  65 0018 FFF7FEFF 		bl	puts
  66              	.LVL0:
  67              	.L12:
  68              	.LBB37:
  69              	.LBB38:
  70              		.file 2 "Generated_Source\\PSoC6\\pdl\\drivers/peripheral/scb/cy_scb_common.h"
ARM GAS  C:\Users\salaz\AppData\Local\Temp\cc7F8fiw.s 			page 3


   1:Generated_Source\PSoC6\pdl\drivers/peripheral/scb/cy_scb_common.h **** /***************************************************************************//**
   2:Generated_Source\PSoC6\pdl\drivers/peripheral/scb/cy_scb_common.h **** * \file cy_scb_common.h
   3:Generated_Source\PSoC6\pdl\drivers/peripheral/scb/cy_scb_common.h **** * \version 2.10
   4:Generated_Source\PSoC6\pdl\drivers/peripheral/scb/cy_scb_common.h **** *
   5:Generated_Source\PSoC6\pdl\drivers/peripheral/scb/cy_scb_common.h **** * Provides common API declarations of the SCB driver.
   6:Generated_Source\PSoC6\pdl\drivers/peripheral/scb/cy_scb_common.h **** *
   7:Generated_Source\PSoC6\pdl\drivers/peripheral/scb/cy_scb_common.h **** ********************************************************************************
   8:Generated_Source\PSoC6\pdl\drivers/peripheral/scb/cy_scb_common.h **** * \copyright
   9:Generated_Source\PSoC6\pdl\drivers/peripheral/scb/cy_scb_common.h **** * Copyright 2016-2018, Cypress Semiconductor Corporation.  All rights reserved.
  10:Generated_Source\PSoC6\pdl\drivers/peripheral/scb/cy_scb_common.h **** * You may use this file only in accordance with the license, terms, conditions,
  11:Generated_Source\PSoC6\pdl\drivers/peripheral/scb/cy_scb_common.h **** * disclaimers, and limitations in the end user license agreement accompanying
  12:Generated_Source\PSoC6\pdl\drivers/peripheral/scb/cy_scb_common.h **** * the software package with which this file was provided.
  13:Generated_Source\PSoC6\pdl\drivers/peripheral/scb/cy_scb_common.h **** *******************************************************************************/
  14:Generated_Source\PSoC6\pdl\drivers/peripheral/scb/cy_scb_common.h **** 
  15:Generated_Source\PSoC6\pdl\drivers/peripheral/scb/cy_scb_common.h **** /**
  16:Generated_Source\PSoC6\pdl\drivers/peripheral/scb/cy_scb_common.h **** * \defgroup group_scb Serial Communication Block (SCB)
  17:Generated_Source\PSoC6\pdl\drivers/peripheral/scb/cy_scb_common.h **** * \{
  18:Generated_Source\PSoC6\pdl\drivers/peripheral/scb/cy_scb_common.h **** * \defgroup group_scb_common Common
  19:Generated_Source\PSoC6\pdl\drivers/peripheral/scb/cy_scb_common.h **** * \defgroup group_scb_ezi2c  EZI2C (SCB)
  20:Generated_Source\PSoC6\pdl\drivers/peripheral/scb/cy_scb_common.h **** * \defgroup group_scb_i2c    I2C (SCB)
  21:Generated_Source\PSoC6\pdl\drivers/peripheral/scb/cy_scb_common.h **** * \defgroup group_scb_spi    SPI (SCB)
  22:Generated_Source\PSoC6\pdl\drivers/peripheral/scb/cy_scb_common.h **** * \defgroup group_scb_uart   UART (SCB)
  23:Generated_Source\PSoC6\pdl\drivers/peripheral/scb/cy_scb_common.h **** * \} */
  24:Generated_Source\PSoC6\pdl\drivers/peripheral/scb/cy_scb_common.h **** 
  25:Generated_Source\PSoC6\pdl\drivers/peripheral/scb/cy_scb_common.h **** /**
  26:Generated_Source\PSoC6\pdl\drivers/peripheral/scb/cy_scb_common.h **** * \addtogroup group_scb_common
  27:Generated_Source\PSoC6\pdl\drivers/peripheral/scb/cy_scb_common.h **** * \{
  28:Generated_Source\PSoC6\pdl\drivers/peripheral/scb/cy_scb_common.h **** *
  29:Generated_Source\PSoC6\pdl\drivers/peripheral/scb/cy_scb_common.h **** * Common API for the Serial Communication Block.
  30:Generated_Source\PSoC6\pdl\drivers/peripheral/scb/cy_scb_common.h **** *
  31:Generated_Source\PSoC6\pdl\drivers/peripheral/scb/cy_scb_common.h **** * This is the common API that provides an interface to the SCB hardware.
  32:Generated_Source\PSoC6\pdl\drivers/peripheral/scb/cy_scb_common.h **** * The I2C, SPI, and UART drivers use this common API.
  33:Generated_Source\PSoC6\pdl\drivers/peripheral/scb/cy_scb_common.h **** * Most users will use individual drivers and do not need to use the common
  34:Generated_Source\PSoC6\pdl\drivers/peripheral/scb/cy_scb_common.h **** * API for the SCB. However, you can use the common SCB API to implement
  35:Generated_Source\PSoC6\pdl\drivers/peripheral/scb/cy_scb_common.h **** * a custom driver based on the SCB hardware.
  36:Generated_Source\PSoC6\pdl\drivers/peripheral/scb/cy_scb_common.h **** *
  37:Generated_Source\PSoC6\pdl\drivers/peripheral/scb/cy_scb_common.h **** * \section group_scb_common_configuration Configuration Considerations
  38:Generated_Source\PSoC6\pdl\drivers/peripheral/scb/cy_scb_common.h **** *
  39:Generated_Source\PSoC6\pdl\drivers/peripheral/scb/cy_scb_common.h **** * This is not a driver and it does not require configuration.
  40:Generated_Source\PSoC6\pdl\drivers/peripheral/scb/cy_scb_common.h **** *
  41:Generated_Source\PSoC6\pdl\drivers/peripheral/scb/cy_scb_common.h **** * \section group_scb_common_more_information More Information
  42:Generated_Source\PSoC6\pdl\drivers/peripheral/scb/cy_scb_common.h **** *
  43:Generated_Source\PSoC6\pdl\drivers/peripheral/scb/cy_scb_common.h **** * Refer to the SCB chapter of the technical reference manual (TRM).
  44:Generated_Source\PSoC6\pdl\drivers/peripheral/scb/cy_scb_common.h **** *
  45:Generated_Source\PSoC6\pdl\drivers/peripheral/scb/cy_scb_common.h **** * \section group_scb_common_MISRA MISRA-C Compliance
  46:Generated_Source\PSoC6\pdl\drivers/peripheral/scb/cy_scb_common.h **** * <table class="doxtable">
  47:Generated_Source\PSoC6\pdl\drivers/peripheral/scb/cy_scb_common.h **** *   <tr>
  48:Generated_Source\PSoC6\pdl\drivers/peripheral/scb/cy_scb_common.h **** *     <th>MISRA rule</th>
  49:Generated_Source\PSoC6\pdl\drivers/peripheral/scb/cy_scb_common.h **** *     <th>Rule Class (Required/Advisory)</th>
  50:Generated_Source\PSoC6\pdl\drivers/peripheral/scb/cy_scb_common.h **** *     <th>Rule Description</th>
  51:Generated_Source\PSoC6\pdl\drivers/peripheral/scb/cy_scb_common.h **** *     <th>Description of Deviation(s)</th>
  52:Generated_Source\PSoC6\pdl\drivers/peripheral/scb/cy_scb_common.h **** *   </tr>
  53:Generated_Source\PSoC6\pdl\drivers/peripheral/scb/cy_scb_common.h **** *   <tr>
  54:Generated_Source\PSoC6\pdl\drivers/peripheral/scb/cy_scb_common.h **** *     <td>11.4</td>
  55:Generated_Source\PSoC6\pdl\drivers/peripheral/scb/cy_scb_common.h **** *     <td>A</td>
  56:Generated_Source\PSoC6\pdl\drivers/peripheral/scb/cy_scb_common.h **** *     <td>A cast should not be performed between a pointer to object type and
  57:Generated_Source\PSoC6\pdl\drivers/peripheral/scb/cy_scb_common.h **** *         a different pointer to object type.</td>
ARM GAS  C:\Users\salaz\AppData\Local\Temp\cc7F8fiw.s 			page 4


  58:Generated_Source\PSoC6\pdl\drivers/peripheral/scb/cy_scb_common.h **** *     <td>The pointer to the buffer memory is void to allow handling of
  59:Generated_Source\PSoC6\pdl\drivers/peripheral/scb/cy_scb_common.h **** *         different data types: uint8_t (4-8 bits) or uint16_t (9-16 bits).
  60:Generated_Source\PSoC6\pdl\drivers/peripheral/scb/cy_scb_common.h **** *         The cast operation is safe because the configuration is verified
  61:Generated_Source\PSoC6\pdl\drivers/peripheral/scb/cy_scb_common.h **** *         before operation is performed.
  62:Generated_Source\PSoC6\pdl\drivers/peripheral/scb/cy_scb_common.h **** *         </td>
  63:Generated_Source\PSoC6\pdl\drivers/peripheral/scb/cy_scb_common.h **** *   </tr>
  64:Generated_Source\PSoC6\pdl\drivers/peripheral/scb/cy_scb_common.h **** * </table>
  65:Generated_Source\PSoC6\pdl\drivers/peripheral/scb/cy_scb_common.h **** *
  66:Generated_Source\PSoC6\pdl\drivers/peripheral/scb/cy_scb_common.h **** * \section group_scb_common_changelog Changelog
  67:Generated_Source\PSoC6\pdl\drivers/peripheral/scb/cy_scb_common.h **** * <table class="doxtable">
  68:Generated_Source\PSoC6\pdl\drivers/peripheral/scb/cy_scb_common.h **** *   <tr><th>Version</th><th>Changes</th><th>Reason for Change</th></tr>
  69:Generated_Source\PSoC6\pdl\drivers/peripheral/scb/cy_scb_common.h **** *   <tr>
  70:Generated_Source\PSoC6\pdl\drivers/peripheral/scb/cy_scb_common.h **** *     <td>2.10</td>
  71:Generated_Source\PSoC6\pdl\drivers/peripheral/scb/cy_scb_common.h **** *     <td>None.</td>
  72:Generated_Source\PSoC6\pdl\drivers/peripheral/scb/cy_scb_common.h **** *     <td>SCB I2C driver updated.</td>
  73:Generated_Source\PSoC6\pdl\drivers/peripheral/scb/cy_scb_common.h **** *   </tr>
  74:Generated_Source\PSoC6\pdl\drivers/peripheral/scb/cy_scb_common.h **** *   <tr>
  75:Generated_Source\PSoC6\pdl\drivers/peripheral/scb/cy_scb_common.h **** *     <td rowspan="2"> 2.0</td>
  76:Generated_Source\PSoC6\pdl\drivers/peripheral/scb/cy_scb_common.h **** *     <td>Added parameters validation for public API.
  77:Generated_Source\PSoC6\pdl\drivers/peripheral/scb/cy_scb_common.h **** *     <td></td>
  78:Generated_Source\PSoC6\pdl\drivers/peripheral/scb/cy_scb_common.h **** *   </tr>
  79:Generated_Source\PSoC6\pdl\drivers/peripheral/scb/cy_scb_common.h **** *   <tr>
  80:Generated_Source\PSoC6\pdl\drivers/peripheral/scb/cy_scb_common.h **** *     <td>Fixed functions which return interrupt status to return only defined
  81:Generated_Source\PSoC6\pdl\drivers/peripheral/scb/cy_scb_common.h **** *         set of interrupt statuses.</td>
  82:Generated_Source\PSoC6\pdl\drivers/peripheral/scb/cy_scb_common.h **** *     <td></td>
  83:Generated_Source\PSoC6\pdl\drivers/peripheral/scb/cy_scb_common.h **** *   </tr>
  84:Generated_Source\PSoC6\pdl\drivers/peripheral/scb/cy_scb_common.h **** *   <tr>
  85:Generated_Source\PSoC6\pdl\drivers/peripheral/scb/cy_scb_common.h **** *     <td>1.0</td>
  86:Generated_Source\PSoC6\pdl\drivers/peripheral/scb/cy_scb_common.h **** *     <td>Initial version.</td>
  87:Generated_Source\PSoC6\pdl\drivers/peripheral/scb/cy_scb_common.h **** *     <td></td>
  88:Generated_Source\PSoC6\pdl\drivers/peripheral/scb/cy_scb_common.h **** *   </tr>
  89:Generated_Source\PSoC6\pdl\drivers/peripheral/scb/cy_scb_common.h **** * </table>
  90:Generated_Source\PSoC6\pdl\drivers/peripheral/scb/cy_scb_common.h **** *
  91:Generated_Source\PSoC6\pdl\drivers/peripheral/scb/cy_scb_common.h **** * \defgroup group_scb_common_macros Macros
  92:Generated_Source\PSoC6\pdl\drivers/peripheral/scb/cy_scb_common.h **** * \defgroup group_scb_common_functions Functions
  93:Generated_Source\PSoC6\pdl\drivers/peripheral/scb/cy_scb_common.h **** * \defgroup group_scb_common_data_structures Data Structures
  94:Generated_Source\PSoC6\pdl\drivers/peripheral/scb/cy_scb_common.h **** *
  95:Generated_Source\PSoC6\pdl\drivers/peripheral/scb/cy_scb_common.h **** */
  96:Generated_Source\PSoC6\pdl\drivers/peripheral/scb/cy_scb_common.h **** 
  97:Generated_Source\PSoC6\pdl\drivers/peripheral/scb/cy_scb_common.h **** #if !defined(CY_SCB_COMMON_H)
  98:Generated_Source\PSoC6\pdl\drivers/peripheral/scb/cy_scb_common.h **** #define CY_SCB_COMMON_H
  99:Generated_Source\PSoC6\pdl\drivers/peripheral/scb/cy_scb_common.h **** 
 100:Generated_Source\PSoC6\pdl\drivers/peripheral/scb/cy_scb_common.h **** #include <stdint.h>
 101:Generated_Source\PSoC6\pdl\drivers/peripheral/scb/cy_scb_common.h **** #include <stddef.h>
 102:Generated_Source\PSoC6\pdl\drivers/peripheral/scb/cy_scb_common.h **** #include <stdbool.h>
 103:Generated_Source\PSoC6\pdl\drivers/peripheral/scb/cy_scb_common.h **** #include "cy_device_headers.h"
 104:Generated_Source\PSoC6\pdl\drivers/peripheral/scb/cy_scb_common.h **** #include "syslib/cy_syslib.h"
 105:Generated_Source\PSoC6\pdl\drivers/peripheral/scb/cy_scb_common.h **** #include "syspm/cy_syspm.h"
 106:Generated_Source\PSoC6\pdl\drivers/peripheral/scb/cy_scb_common.h **** 
 107:Generated_Source\PSoC6\pdl\drivers/peripheral/scb/cy_scb_common.h **** #ifndef CY_IP_MXSCB
 108:Generated_Source\PSoC6\pdl\drivers/peripheral/scb/cy_scb_common.h ****     #error "The SCB driver is not supported on this device"
 109:Generated_Source\PSoC6\pdl\drivers/peripheral/scb/cy_scb_common.h **** #endif
 110:Generated_Source\PSoC6\pdl\drivers/peripheral/scb/cy_scb_common.h **** 
 111:Generated_Source\PSoC6\pdl\drivers/peripheral/scb/cy_scb_common.h **** #if defined(__cplusplus)
 112:Generated_Source\PSoC6\pdl\drivers/peripheral/scb/cy_scb_common.h **** extern "C" {
 113:Generated_Source\PSoC6\pdl\drivers/peripheral/scb/cy_scb_common.h **** #endif
 114:Generated_Source\PSoC6\pdl\drivers/peripheral/scb/cy_scb_common.h **** 
ARM GAS  C:\Users\salaz\AppData\Local\Temp\cc7F8fiw.s 			page 5


 115:Generated_Source\PSoC6\pdl\drivers/peripheral/scb/cy_scb_common.h **** 
 116:Generated_Source\PSoC6\pdl\drivers/peripheral/scb/cy_scb_common.h **** /***************************************
 117:Generated_Source\PSoC6\pdl\drivers/peripheral/scb/cy_scb_common.h **** *        Function Prototypes
 118:Generated_Source\PSoC6\pdl\drivers/peripheral/scb/cy_scb_common.h **** ***************************************/
 119:Generated_Source\PSoC6\pdl\drivers/peripheral/scb/cy_scb_common.h **** 
 120:Generated_Source\PSoC6\pdl\drivers/peripheral/scb/cy_scb_common.h **** /**
 121:Generated_Source\PSoC6\pdl\drivers/peripheral/scb/cy_scb_common.h **** * \addtogroup group_scb_common_functions
 122:Generated_Source\PSoC6\pdl\drivers/peripheral/scb/cy_scb_common.h **** * \{
 123:Generated_Source\PSoC6\pdl\drivers/peripheral/scb/cy_scb_common.h **** */
 124:Generated_Source\PSoC6\pdl\drivers/peripheral/scb/cy_scb_common.h **** __STATIC_INLINE uint32_t Cy_SCB_ReadRxFifo    (CySCB_Type const *base);
 125:Generated_Source\PSoC6\pdl\drivers/peripheral/scb/cy_scb_common.h **** __STATIC_INLINE void     Cy_SCB_SetRxFifoLevel(CySCB_Type *base, uint32_t level);
 126:Generated_Source\PSoC6\pdl\drivers/peripheral/scb/cy_scb_common.h **** __STATIC_INLINE uint32_t Cy_SCB_GetNumInRxFifo(CySCB_Type const *base);
 127:Generated_Source\PSoC6\pdl\drivers/peripheral/scb/cy_scb_common.h **** __STATIC_INLINE uint32_t Cy_SCB_GetRxSrValid  (CySCB_Type const *base);
 128:Generated_Source\PSoC6\pdl\drivers/peripheral/scb/cy_scb_common.h **** __STATIC_INLINE void     Cy_SCB_ClearRxFifo   (CySCB_Type *base);
 129:Generated_Source\PSoC6\pdl\drivers/peripheral/scb/cy_scb_common.h **** 
 130:Generated_Source\PSoC6\pdl\drivers/peripheral/scb/cy_scb_common.h **** __STATIC_INLINE void     Cy_SCB_WriteTxFifo   (CySCB_Type *base, uint32_t data);
 131:Generated_Source\PSoC6\pdl\drivers/peripheral/scb/cy_scb_common.h **** __STATIC_INLINE void     Cy_SCB_SetTxFifoLevel(CySCB_Type *base, uint32_t level);
 132:Generated_Source\PSoC6\pdl\drivers/peripheral/scb/cy_scb_common.h **** __STATIC_INLINE uint32_t Cy_SCB_GetNumInTxFifo(CySCB_Type const *base);
 133:Generated_Source\PSoC6\pdl\drivers/peripheral/scb/cy_scb_common.h **** __STATIC_INLINE uint32_t Cy_SCB_GetTxSrValid  (CySCB_Type const *base);
 134:Generated_Source\PSoC6\pdl\drivers/peripheral/scb/cy_scb_common.h **** __STATIC_INLINE bool     Cy_SCB_IsTxComplete  (CySCB_Type const *base);
 135:Generated_Source\PSoC6\pdl\drivers/peripheral/scb/cy_scb_common.h **** __STATIC_INLINE void     Cy_SCB_ClearTxFifo   (CySCB_Type *base);
 136:Generated_Source\PSoC6\pdl\drivers/peripheral/scb/cy_scb_common.h **** 
 137:Generated_Source\PSoC6\pdl\drivers/peripheral/scb/cy_scb_common.h **** __STATIC_INLINE void     Cy_SCB_SetByteMode(CySCB_Type *base, bool byteMode);
 138:Generated_Source\PSoC6\pdl\drivers/peripheral/scb/cy_scb_common.h **** 
 139:Generated_Source\PSoC6\pdl\drivers/peripheral/scb/cy_scb_common.h **** __STATIC_INLINE uint32_t Cy_SCB_GetInterruptCause(CySCB_Type const *base);
 140:Generated_Source\PSoC6\pdl\drivers/peripheral/scb/cy_scb_common.h **** 
 141:Generated_Source\PSoC6\pdl\drivers/peripheral/scb/cy_scb_common.h **** __STATIC_INLINE uint32_t Cy_SCB_GetRxInterruptStatus(CySCB_Type const *base);
 142:Generated_Source\PSoC6\pdl\drivers/peripheral/scb/cy_scb_common.h **** __STATIC_INLINE void     Cy_SCB_SetRxInterruptMask  (CySCB_Type *base, uint32_t interruptMask);
 143:Generated_Source\PSoC6\pdl\drivers/peripheral/scb/cy_scb_common.h **** __STATIC_INLINE uint32_t Cy_SCB_GetRxInterruptMask  (CySCB_Type const *base);
 144:Generated_Source\PSoC6\pdl\drivers/peripheral/scb/cy_scb_common.h **** __STATIC_INLINE uint32_t Cy_SCB_GetRxInterruptStatusMasked(CySCB_Type const *base);
 145:Generated_Source\PSoC6\pdl\drivers/peripheral/scb/cy_scb_common.h **** __STATIC_INLINE void     Cy_SCB_ClearRxInterrupt    (CySCB_Type *base, uint32_t interruptMask);
 146:Generated_Source\PSoC6\pdl\drivers/peripheral/scb/cy_scb_common.h **** __STATIC_INLINE void     Cy_SCB_SetRxInterrupt      (CySCB_Type *base, uint32_t interruptMask);
 147:Generated_Source\PSoC6\pdl\drivers/peripheral/scb/cy_scb_common.h **** 
 148:Generated_Source\PSoC6\pdl\drivers/peripheral/scb/cy_scb_common.h **** __STATIC_INLINE uint32_t Cy_SCB_GetTxInterruptStatus(CySCB_Type const *base);
 149:Generated_Source\PSoC6\pdl\drivers/peripheral/scb/cy_scb_common.h **** __STATIC_INLINE void     Cy_SCB_SetTxInterruptMask  (CySCB_Type *base, uint32_t interruptMask);
 150:Generated_Source\PSoC6\pdl\drivers/peripheral/scb/cy_scb_common.h **** __STATIC_INLINE uint32_t Cy_SCB_GetTxInterruptMask  (CySCB_Type const *base);
 151:Generated_Source\PSoC6\pdl\drivers/peripheral/scb/cy_scb_common.h **** __STATIC_INLINE uint32_t Cy_SCB_GetTxInterruptStatusMasked(CySCB_Type const *base);
 152:Generated_Source\PSoC6\pdl\drivers/peripheral/scb/cy_scb_common.h **** __STATIC_INLINE void     Cy_SCB_ClearTxInterrupt    (CySCB_Type *base, uint32_t interruptMask);
 153:Generated_Source\PSoC6\pdl\drivers/peripheral/scb/cy_scb_common.h **** __STATIC_INLINE void     Cy_SCB_SetTxInterrupt      (CySCB_Type *base, uint32_t interruptMask);
 154:Generated_Source\PSoC6\pdl\drivers/peripheral/scb/cy_scb_common.h **** 
 155:Generated_Source\PSoC6\pdl\drivers/peripheral/scb/cy_scb_common.h **** __STATIC_INLINE uint32_t Cy_SCB_GetMasterInterruptStatus(CySCB_Type const *base);
 156:Generated_Source\PSoC6\pdl\drivers/peripheral/scb/cy_scb_common.h **** __STATIC_INLINE void     Cy_SCB_SetMasterInterruptMask  (CySCB_Type *base, uint32_t interruptMask);
 157:Generated_Source\PSoC6\pdl\drivers/peripheral/scb/cy_scb_common.h **** __STATIC_INLINE uint32_t Cy_SCB_GetMasterInterruptMask  (CySCB_Type const *base);
 158:Generated_Source\PSoC6\pdl\drivers/peripheral/scb/cy_scb_common.h **** __STATIC_INLINE uint32_t Cy_SCB_GetMasterInterruptStatusMasked(CySCB_Type const *base);
 159:Generated_Source\PSoC6\pdl\drivers/peripheral/scb/cy_scb_common.h **** __STATIC_INLINE void     Cy_SCB_ClearMasterInterrupt    (CySCB_Type *base, uint32_t interruptMask);
 160:Generated_Source\PSoC6\pdl\drivers/peripheral/scb/cy_scb_common.h **** __STATIC_INLINE void     Cy_SCB_SetMasterInterrupt      (CySCB_Type *base, uint32_t interruptMask);
 161:Generated_Source\PSoC6\pdl\drivers/peripheral/scb/cy_scb_common.h **** 
 162:Generated_Source\PSoC6\pdl\drivers/peripheral/scb/cy_scb_common.h **** __STATIC_INLINE uint32_t Cy_SCB_GetSlaveInterruptStatus(CySCB_Type const *base);
 163:Generated_Source\PSoC6\pdl\drivers/peripheral/scb/cy_scb_common.h **** __STATIC_INLINE void     Cy_SCB_SetSlaveInterruptMask  (CySCB_Type *base, uint32_t interruptMask);
 164:Generated_Source\PSoC6\pdl\drivers/peripheral/scb/cy_scb_common.h **** __STATIC_INLINE uint32_t Cy_SCB_GetSlaveInterruptMask  (CySCB_Type const *base);
 165:Generated_Source\PSoC6\pdl\drivers/peripheral/scb/cy_scb_common.h **** __STATIC_INLINE uint32_t Cy_SCB_GetSlaveInterruptStatusMasked(CySCB_Type const *base);
 166:Generated_Source\PSoC6\pdl\drivers/peripheral/scb/cy_scb_common.h **** __STATIC_INLINE void     Cy_SCB_ClearSlaveInterrupt    (CySCB_Type *base, uint32_t interruptMask);
 167:Generated_Source\PSoC6\pdl\drivers/peripheral/scb/cy_scb_common.h **** __STATIC_INLINE void     Cy_SCB_SetSlaveInterrupt      (CySCB_Type *base, uint32_t interruptMask);
 168:Generated_Source\PSoC6\pdl\drivers/peripheral/scb/cy_scb_common.h **** 
 169:Generated_Source\PSoC6\pdl\drivers/peripheral/scb/cy_scb_common.h **** __STATIC_INLINE uint32_t Cy_SCB_GetI2CInterruptStatus(CySCB_Type const *base);
 170:Generated_Source\PSoC6\pdl\drivers/peripheral/scb/cy_scb_common.h **** __STATIC_INLINE void     Cy_SCB_SetI2CInterruptMask  (CySCB_Type *base, uint32_t interruptMask);
 171:Generated_Source\PSoC6\pdl\drivers/peripheral/scb/cy_scb_common.h **** __STATIC_INLINE uint32_t Cy_SCB_GetI2CInterruptMask  (CySCB_Type const *base);
ARM GAS  C:\Users\salaz\AppData\Local\Temp\cc7F8fiw.s 			page 6


 172:Generated_Source\PSoC6\pdl\drivers/peripheral/scb/cy_scb_common.h **** __STATIC_INLINE uint32_t Cy_SCB_GetI2CInterruptStatusMasked(CySCB_Type const *base);
 173:Generated_Source\PSoC6\pdl\drivers/peripheral/scb/cy_scb_common.h **** __STATIC_INLINE void     Cy_SCB_ClearI2CInterrupt    (CySCB_Type *base, uint32_t interruptMask);
 174:Generated_Source\PSoC6\pdl\drivers/peripheral/scb/cy_scb_common.h **** 
 175:Generated_Source\PSoC6\pdl\drivers/peripheral/scb/cy_scb_common.h **** __STATIC_INLINE uint32_t Cy_SCB_GetSpiInterruptStatus(CySCB_Type const *base);
 176:Generated_Source\PSoC6\pdl\drivers/peripheral/scb/cy_scb_common.h **** __STATIC_INLINE void     Cy_SCB_SetSpiInterruptMask  (CySCB_Type *base, uint32_t interruptMask);
 177:Generated_Source\PSoC6\pdl\drivers/peripheral/scb/cy_scb_common.h **** __STATIC_INLINE uint32_t Cy_SCB_GetSpiInterruptMask  (CySCB_Type const *base);
 178:Generated_Source\PSoC6\pdl\drivers/peripheral/scb/cy_scb_common.h **** __STATIC_INLINE uint32_t Cy_SCB_GetSpiInterruptStatusMasked(CySCB_Type const *base);
 179:Generated_Source\PSoC6\pdl\drivers/peripheral/scb/cy_scb_common.h **** __STATIC_INLINE void     Cy_SCB_ClearSpiInterrupt    (CySCB_Type *base, uint32_t interruptMask);
 180:Generated_Source\PSoC6\pdl\drivers/peripheral/scb/cy_scb_common.h **** 
 181:Generated_Source\PSoC6\pdl\drivers/peripheral/scb/cy_scb_common.h **** 
 182:Generated_Source\PSoC6\pdl\drivers/peripheral/scb/cy_scb_common.h **** /***************************************
 183:Generated_Source\PSoC6\pdl\drivers/peripheral/scb/cy_scb_common.h **** *     Internal Function Prototypes
 184:Generated_Source\PSoC6\pdl\drivers/peripheral/scb/cy_scb_common.h **** ***************************************/
 185:Generated_Source\PSoC6\pdl\drivers/peripheral/scb/cy_scb_common.h **** 
 186:Generated_Source\PSoC6\pdl\drivers/peripheral/scb/cy_scb_common.h **** /** \cond INTERNAL */
 187:Generated_Source\PSoC6\pdl\drivers/peripheral/scb/cy_scb_common.h **** void     Cy_SCB_ReadArrayNoCheck  (CySCB_Type const *base, void *buffer, uint32_t size);
 188:Generated_Source\PSoC6\pdl\drivers/peripheral/scb/cy_scb_common.h **** uint32_t Cy_SCB_ReadArray         (CySCB_Type const *base, void *buffer, uint32_t size);
 189:Generated_Source\PSoC6\pdl\drivers/peripheral/scb/cy_scb_common.h **** void     Cy_SCB_ReadArrayBlocking (CySCB_Type const *base, void *buffer, uint32_t size);
 190:Generated_Source\PSoC6\pdl\drivers/peripheral/scb/cy_scb_common.h **** uint32_t Cy_SCB_Write             (CySCB_Type *base, uint32_t data);
 191:Generated_Source\PSoC6\pdl\drivers/peripheral/scb/cy_scb_common.h **** void     Cy_SCB_WriteArrayNoCheck (CySCB_Type *base, void *buffer, uint32_t size);
 192:Generated_Source\PSoC6\pdl\drivers/peripheral/scb/cy_scb_common.h **** uint32_t Cy_SCB_WriteArray        (CySCB_Type *base, void *buffer, uint32_t size);
 193:Generated_Source\PSoC6\pdl\drivers/peripheral/scb/cy_scb_common.h **** void     Cy_SCB_WriteArrayBlocking(CySCB_Type *base, void *buffer, uint32_t size);
 194:Generated_Source\PSoC6\pdl\drivers/peripheral/scb/cy_scb_common.h **** void     Cy_SCB_WriteString       (CySCB_Type *base, char_t const string[]);
 195:Generated_Source\PSoC6\pdl\drivers/peripheral/scb/cy_scb_common.h **** void     Cy_SCB_WriteDefaultArrayNoCheck(CySCB_Type *base, uint32_t txData, uint32_t size);
 196:Generated_Source\PSoC6\pdl\drivers/peripheral/scb/cy_scb_common.h **** uint32_t Cy_SCB_WriteDefaultArray (CySCB_Type *base, uint32_t txData, uint32_t size);
 197:Generated_Source\PSoC6\pdl\drivers/peripheral/scb/cy_scb_common.h **** 
 198:Generated_Source\PSoC6\pdl\drivers/peripheral/scb/cy_scb_common.h **** __STATIC_INLINE uint32_t Cy_SCB_GetFifoSize (CySCB_Type const *base);
 199:Generated_Source\PSoC6\pdl\drivers/peripheral/scb/cy_scb_common.h **** __STATIC_INLINE void     Cy_SCB_FwBlockReset(CySCB_Type *base);
 200:Generated_Source\PSoC6\pdl\drivers/peripheral/scb/cy_scb_common.h **** __STATIC_INLINE bool     Cy_SCB_IsRxDataWidthByte(CySCB_Type const *base);
 201:Generated_Source\PSoC6\pdl\drivers/peripheral/scb/cy_scb_common.h **** __STATIC_INLINE bool     Cy_SCB_IsTxDataWidthByte(CySCB_Type const *base);
 202:Generated_Source\PSoC6\pdl\drivers/peripheral/scb/cy_scb_common.h **** __STATIC_INLINE uint32_t Cy_SCB_GetRxFifoLevel   (CySCB_Type const *base);
 203:Generated_Source\PSoC6\pdl\drivers/peripheral/scb/cy_scb_common.h **** /** \endcond */
 204:Generated_Source\PSoC6\pdl\drivers/peripheral/scb/cy_scb_common.h **** 
 205:Generated_Source\PSoC6\pdl\drivers/peripheral/scb/cy_scb_common.h **** /** \} group_scb_common_functions */
 206:Generated_Source\PSoC6\pdl\drivers/peripheral/scb/cy_scb_common.h **** 
 207:Generated_Source\PSoC6\pdl\drivers/peripheral/scb/cy_scb_common.h **** /***************************************
 208:Generated_Source\PSoC6\pdl\drivers/peripheral/scb/cy_scb_common.h **** *            API Constants
 209:Generated_Source\PSoC6\pdl\drivers/peripheral/scb/cy_scb_common.h **** ***************************************/
 210:Generated_Source\PSoC6\pdl\drivers/peripheral/scb/cy_scb_common.h **** 
 211:Generated_Source\PSoC6\pdl\drivers/peripheral/scb/cy_scb_common.h **** /**
 212:Generated_Source\PSoC6\pdl\drivers/peripheral/scb/cy_scb_common.h **** * \addtogroup group_scb_common_macros
 213:Generated_Source\PSoC6\pdl\drivers/peripheral/scb/cy_scb_common.h **** * \{
 214:Generated_Source\PSoC6\pdl\drivers/peripheral/scb/cy_scb_common.h **** */
 215:Generated_Source\PSoC6\pdl\drivers/peripheral/scb/cy_scb_common.h **** 
 216:Generated_Source\PSoC6\pdl\drivers/peripheral/scb/cy_scb_common.h **** /** Driver major version */
 217:Generated_Source\PSoC6\pdl\drivers/peripheral/scb/cy_scb_common.h **** #define CY_SCB_DRV_VERSION_MAJOR    (2)
 218:Generated_Source\PSoC6\pdl\drivers/peripheral/scb/cy_scb_common.h **** 
 219:Generated_Source\PSoC6\pdl\drivers/peripheral/scb/cy_scb_common.h **** /** Driver minor version */
 220:Generated_Source\PSoC6\pdl\drivers/peripheral/scb/cy_scb_common.h **** #define CY_SCB_DRV_VERSION_MINOR    (10)
 221:Generated_Source\PSoC6\pdl\drivers/peripheral/scb/cy_scb_common.h **** 
 222:Generated_Source\PSoC6\pdl\drivers/peripheral/scb/cy_scb_common.h **** /** SCB driver identifier */
 223:Generated_Source\PSoC6\pdl\drivers/peripheral/scb/cy_scb_common.h **** #define CY_SCB_ID           CY_PDL_DRV_ID(0x2AU)
 224:Generated_Source\PSoC6\pdl\drivers/peripheral/scb/cy_scb_common.h **** 
 225:Generated_Source\PSoC6\pdl\drivers/peripheral/scb/cy_scb_common.h **** /** Position for SCB driver sub mode */
 226:Generated_Source\PSoC6\pdl\drivers/peripheral/scb/cy_scb_common.h **** #define CY_SCB_SUB_MODE_Pos (13UL)
 227:Generated_Source\PSoC6\pdl\drivers/peripheral/scb/cy_scb_common.h **** 
 228:Generated_Source\PSoC6\pdl\drivers/peripheral/scb/cy_scb_common.h **** /** EZI2C mode identifier */
ARM GAS  C:\Users\salaz\AppData\Local\Temp\cc7F8fiw.s 			page 7


 229:Generated_Source\PSoC6\pdl\drivers/peripheral/scb/cy_scb_common.h **** #define CY_SCB_EZI2C_ID     (0x0UL << CY_SCB_SUB_MODE_Pos)
 230:Generated_Source\PSoC6\pdl\drivers/peripheral/scb/cy_scb_common.h **** 
 231:Generated_Source\PSoC6\pdl\drivers/peripheral/scb/cy_scb_common.h **** /** EZI2C mode identifier */
 232:Generated_Source\PSoC6\pdl\drivers/peripheral/scb/cy_scb_common.h **** #define CY_SCB_I2C_ID       (0x1UL << CY_SCB_SUB_MODE_Pos)
 233:Generated_Source\PSoC6\pdl\drivers/peripheral/scb/cy_scb_common.h **** 
 234:Generated_Source\PSoC6\pdl\drivers/peripheral/scb/cy_scb_common.h **** /** EZI2C mode identifier */
 235:Generated_Source\PSoC6\pdl\drivers/peripheral/scb/cy_scb_common.h **** #define CY_SCB_SPI_ID       (0x2UL << CY_SCB_SUB_MODE_Pos)
 236:Generated_Source\PSoC6\pdl\drivers/peripheral/scb/cy_scb_common.h **** 
 237:Generated_Source\PSoC6\pdl\drivers/peripheral/scb/cy_scb_common.h **** /** EZI2C mode identifier */
 238:Generated_Source\PSoC6\pdl\drivers/peripheral/scb/cy_scb_common.h **** #define CY_SCB_UART_ID      (0x3UL << CY_SCB_SUB_MODE_Pos)
 239:Generated_Source\PSoC6\pdl\drivers/peripheral/scb/cy_scb_common.h **** 
 240:Generated_Source\PSoC6\pdl\drivers/peripheral/scb/cy_scb_common.h **** /**
 241:Generated_Source\PSoC6\pdl\drivers/peripheral/scb/cy_scb_common.h **** * \defgroup group_scb_common_macros_intr_cause SCB Interrupt Causes
 242:Generated_Source\PSoC6\pdl\drivers/peripheral/scb/cy_scb_common.h **** * \{
 243:Generated_Source\PSoC6\pdl\drivers/peripheral/scb/cy_scb_common.h **** */
 244:Generated_Source\PSoC6\pdl\drivers/peripheral/scb/cy_scb_common.h **** /** Interrupt from Master interrupt sources */
 245:Generated_Source\PSoC6\pdl\drivers/peripheral/scb/cy_scb_common.h **** #define CY_SCB_MASTER_INTR SCB_INTR_CAUSE_M_Msk
 246:Generated_Source\PSoC6\pdl\drivers/peripheral/scb/cy_scb_common.h **** 
 247:Generated_Source\PSoC6\pdl\drivers/peripheral/scb/cy_scb_common.h **** /** Interrupt from Slave interrupt sources  */
 248:Generated_Source\PSoC6\pdl\drivers/peripheral/scb/cy_scb_common.h **** #define CY_SCB_SLAVE_INTR  SCB_INTR_CAUSE_S_Msk
 249:Generated_Source\PSoC6\pdl\drivers/peripheral/scb/cy_scb_common.h **** 
 250:Generated_Source\PSoC6\pdl\drivers/peripheral/scb/cy_scb_common.h **** /** Interrupt from TX interrupt sources */
 251:Generated_Source\PSoC6\pdl\drivers/peripheral/scb/cy_scb_common.h **** #define CY_SCB_TX_INTR     SCB_INTR_CAUSE_TX_Msk
 252:Generated_Source\PSoC6\pdl\drivers/peripheral/scb/cy_scb_common.h **** 
 253:Generated_Source\PSoC6\pdl\drivers/peripheral/scb/cy_scb_common.h **** /** Interrupt from RX interrupt sources */
 254:Generated_Source\PSoC6\pdl\drivers/peripheral/scb/cy_scb_common.h **** #define CY_SCB_RX_INTR     SCB_INTR_CAUSE_RX_Msk
 255:Generated_Source\PSoC6\pdl\drivers/peripheral/scb/cy_scb_common.h **** 
 256:Generated_Source\PSoC6\pdl\drivers/peripheral/scb/cy_scb_common.h **** /** Interrupt from I2C externally clocked interrupt sources */
 257:Generated_Source\PSoC6\pdl\drivers/peripheral/scb/cy_scb_common.h **** #define CY_SCB_I2C_INTR    SCB_INTR_CAUSE_I2C_EC_Msk
 258:Generated_Source\PSoC6\pdl\drivers/peripheral/scb/cy_scb_common.h **** 
 259:Generated_Source\PSoC6\pdl\drivers/peripheral/scb/cy_scb_common.h **** /** Interrupt from SPI externally clocked interrupt sources */
 260:Generated_Source\PSoC6\pdl\drivers/peripheral/scb/cy_scb_common.h **** #define CY_SCB_SPI_INTR    SCB_INTR_CAUSE_SPI_EC_Msk
 261:Generated_Source\PSoC6\pdl\drivers/peripheral/scb/cy_scb_common.h **** /** \} group_scb_common_macros_intr_cause */
 262:Generated_Source\PSoC6\pdl\drivers/peripheral/scb/cy_scb_common.h **** 
 263:Generated_Source\PSoC6\pdl\drivers/peripheral/scb/cy_scb_common.h **** /**
 264:Generated_Source\PSoC6\pdl\drivers/peripheral/scb/cy_scb_common.h **** * \defgroup group_scb_common_macros_tx_intr TX Interrupt Statuses
 265:Generated_Source\PSoC6\pdl\drivers/peripheral/scb/cy_scb_common.h **** * \{
 266:Generated_Source\PSoC6\pdl\drivers/peripheral/scb/cy_scb_common.h **** */
 267:Generated_Source\PSoC6\pdl\drivers/peripheral/scb/cy_scb_common.h **** /**
 268:Generated_Source\PSoC6\pdl\drivers/peripheral/scb/cy_scb_common.h **** * The number of data elements in the TX FIFO is less than the value
 269:Generated_Source\PSoC6\pdl\drivers/peripheral/scb/cy_scb_common.h **** * of the TX FIFO level
 270:Generated_Source\PSoC6\pdl\drivers/peripheral/scb/cy_scb_common.h **** */
 271:Generated_Source\PSoC6\pdl\drivers/peripheral/scb/cy_scb_common.h **** #define CY_SCB_TX_INTR_LEVEL           SCB_INTR_TX_TRIGGER_Msk
 272:Generated_Source\PSoC6\pdl\drivers/peripheral/scb/cy_scb_common.h **** 
 273:Generated_Source\PSoC6\pdl\drivers/peripheral/scb/cy_scb_common.h **** /** The TX FIFO is not full */
 274:Generated_Source\PSoC6\pdl\drivers/peripheral/scb/cy_scb_common.h **** #define CY_SCB_TX_INTR_NOT_FULL        SCB_INTR_TX_NOT_FULL_Msk
 275:Generated_Source\PSoC6\pdl\drivers/peripheral/scb/cy_scb_common.h **** 
 276:Generated_Source\PSoC6\pdl\drivers/peripheral/scb/cy_scb_common.h **** /** The TX FIFO is empty */
 277:Generated_Source\PSoC6\pdl\drivers/peripheral/scb/cy_scb_common.h **** #define CY_SCB_TX_INTR_EMPTY           SCB_INTR_TX_EMPTY_Msk
 278:Generated_Source\PSoC6\pdl\drivers/peripheral/scb/cy_scb_common.h **** 
 279:Generated_Source\PSoC6\pdl\drivers/peripheral/scb/cy_scb_common.h **** /** An attempt to write to a full TX FIFO */
 280:Generated_Source\PSoC6\pdl\drivers/peripheral/scb/cy_scb_common.h **** #define CY_SCB_TX_INTR_OVERFLOW        SCB_INTR_TX_OVERFLOW_Msk
 281:Generated_Source\PSoC6\pdl\drivers/peripheral/scb/cy_scb_common.h **** 
 282:Generated_Source\PSoC6\pdl\drivers/peripheral/scb/cy_scb_common.h **** /** An attempt to read from an empty TX FIFO */
 283:Generated_Source\PSoC6\pdl\drivers/peripheral/scb/cy_scb_common.h **** #define CY_SCB_TX_INTR_UNDERFLOW       SCB_INTR_TX_UNDERFLOW_Msk
 284:Generated_Source\PSoC6\pdl\drivers/peripheral/scb/cy_scb_common.h **** 
 285:Generated_Source\PSoC6\pdl\drivers/peripheral/scb/cy_scb_common.h **** /** The UART transfer is complete: all data elements from the TX FIFO are sent
ARM GAS  C:\Users\salaz\AppData\Local\Temp\cc7F8fiw.s 			page 8


 286:Generated_Source\PSoC6\pdl\drivers/peripheral/scb/cy_scb_common.h **** */
 287:Generated_Source\PSoC6\pdl\drivers/peripheral/scb/cy_scb_common.h **** #define CY_SCB_TX_INTR_UART_DONE       SCB_INTR_TX_UART_DONE_Msk
 288:Generated_Source\PSoC6\pdl\drivers/peripheral/scb/cy_scb_common.h **** 
 289:Generated_Source\PSoC6\pdl\drivers/peripheral/scb/cy_scb_common.h **** /** SmartCard only: UART received a NACK */
 290:Generated_Source\PSoC6\pdl\drivers/peripheral/scb/cy_scb_common.h **** #define CY_SCB_TX_INTR_UART_NACK       SCB_INTR_TX_UART_NACK_Msk
 291:Generated_Source\PSoC6\pdl\drivers/peripheral/scb/cy_scb_common.h **** 
 292:Generated_Source\PSoC6\pdl\drivers/peripheral/scb/cy_scb_common.h **** /**
 293:Generated_Source\PSoC6\pdl\drivers/peripheral/scb/cy_scb_common.h **** * SmartCard only: the value on the TX line of the UART does not match the
 294:Generated_Source\PSoC6\pdl\drivers/peripheral/scb/cy_scb_common.h **** * value on the RX line
 295:Generated_Source\PSoC6\pdl\drivers/peripheral/scb/cy_scb_common.h **** */
 296:Generated_Source\PSoC6\pdl\drivers/peripheral/scb/cy_scb_common.h **** #define CY_SCB_TX_INTR_UART_ARB_LOST   SCB_INTR_TX_UART_ARB_LOST_Msk
 297:Generated_Source\PSoC6\pdl\drivers/peripheral/scb/cy_scb_common.h **** /** \} group_scb_common_macros_tx_intr */
 298:Generated_Source\PSoC6\pdl\drivers/peripheral/scb/cy_scb_common.h **** 
 299:Generated_Source\PSoC6\pdl\drivers/peripheral/scb/cy_scb_common.h **** /**
 300:Generated_Source\PSoC6\pdl\drivers/peripheral/scb/cy_scb_common.h **** * \defgroup group_scb_common_macros_rx_intr RX Interrupt Statuses
 301:Generated_Source\PSoC6\pdl\drivers/peripheral/scb/cy_scb_common.h **** * \{
 302:Generated_Source\PSoC6\pdl\drivers/peripheral/scb/cy_scb_common.h **** */
 303:Generated_Source\PSoC6\pdl\drivers/peripheral/scb/cy_scb_common.h **** /**
 304:Generated_Source\PSoC6\pdl\drivers/peripheral/scb/cy_scb_common.h **** * The number of data elements in the RX FIFO is greater than the value of the
 305:Generated_Source\PSoC6\pdl\drivers/peripheral/scb/cy_scb_common.h **** * RX FIFO level
 306:Generated_Source\PSoC6\pdl\drivers/peripheral/scb/cy_scb_common.h **** */
 307:Generated_Source\PSoC6\pdl\drivers/peripheral/scb/cy_scb_common.h **** #define CY_SCB_RX_INTR_LEVEL             SCB_INTR_RX_TRIGGER_Msk
 308:Generated_Source\PSoC6\pdl\drivers/peripheral/scb/cy_scb_common.h **** 
 309:Generated_Source\PSoC6\pdl\drivers/peripheral/scb/cy_scb_common.h **** /** The RX FIFO is not empty */
 310:Generated_Source\PSoC6\pdl\drivers/peripheral/scb/cy_scb_common.h **** #define CY_SCB_RX_INTR_NOT_EMPTY         SCB_INTR_RX_NOT_EMPTY_Msk
 311:Generated_Source\PSoC6\pdl\drivers/peripheral/scb/cy_scb_common.h **** 
 312:Generated_Source\PSoC6\pdl\drivers/peripheral/scb/cy_scb_common.h **** /** The RX FIFO is full */
 313:Generated_Source\PSoC6\pdl\drivers/peripheral/scb/cy_scb_common.h **** #define CY_SCB_RX_INTR_FULL              SCB_INTR_RX_FULL_Msk
 314:Generated_Source\PSoC6\pdl\drivers/peripheral/scb/cy_scb_common.h **** 
 315:Generated_Source\PSoC6\pdl\drivers/peripheral/scb/cy_scb_common.h **** /** An attempt to write to a full RX FIFO */
 316:Generated_Source\PSoC6\pdl\drivers/peripheral/scb/cy_scb_common.h **** #define CY_SCB_RX_INTR_OVERFLOW          SCB_INTR_RX_OVERFLOW_Msk
 317:Generated_Source\PSoC6\pdl\drivers/peripheral/scb/cy_scb_common.h **** 
 318:Generated_Source\PSoC6\pdl\drivers/peripheral/scb/cy_scb_common.h **** /** An attempt to read from an empty RX FIFO */
 319:Generated_Source\PSoC6\pdl\drivers/peripheral/scb/cy_scb_common.h **** #define CY_SCB_RX_INTR_UNDERFLOW         SCB_INTR_RX_UNDERFLOW_Msk
 320:Generated_Source\PSoC6\pdl\drivers/peripheral/scb/cy_scb_common.h **** 
 321:Generated_Source\PSoC6\pdl\drivers/peripheral/scb/cy_scb_common.h **** /** A UART framing error detected */
 322:Generated_Source\PSoC6\pdl\drivers/peripheral/scb/cy_scb_common.h **** #define CY_SCB_RX_INTR_UART_FRAME_ERROR  SCB_INTR_RX_FRAME_ERROR_Msk
 323:Generated_Source\PSoC6\pdl\drivers/peripheral/scb/cy_scb_common.h **** 
 324:Generated_Source\PSoC6\pdl\drivers/peripheral/scb/cy_scb_common.h **** /** A UART parity error detected  */
 325:Generated_Source\PSoC6\pdl\drivers/peripheral/scb/cy_scb_common.h **** #define CY_SCB_RX_INTR_UART_PARITY_ERROR SCB_INTR_RX_PARITY_ERROR_Msk
 326:Generated_Source\PSoC6\pdl\drivers/peripheral/scb/cy_scb_common.h **** 
 327:Generated_Source\PSoC6\pdl\drivers/peripheral/scb/cy_scb_common.h **** /** A UART break detected */
 328:Generated_Source\PSoC6\pdl\drivers/peripheral/scb/cy_scb_common.h **** #define CY_SCB_RX_INTR_UART_BREAK_DETECT SCB_INTR_RX_BREAK_DETECT_Msk
 329:Generated_Source\PSoC6\pdl\drivers/peripheral/scb/cy_scb_common.h **** /** \} group_scb_common_macros_rx_intr */
 330:Generated_Source\PSoC6\pdl\drivers/peripheral/scb/cy_scb_common.h **** 
 331:Generated_Source\PSoC6\pdl\drivers/peripheral/scb/cy_scb_common.h **** /**
 332:Generated_Source\PSoC6\pdl\drivers/peripheral/scb/cy_scb_common.h **** * \defgroup group_scb_common_macros_slave_intr Slave Interrupt Statuses
 333:Generated_Source\PSoC6\pdl\drivers/peripheral/scb/cy_scb_common.h **** * \{
 334:Generated_Source\PSoC6\pdl\drivers/peripheral/scb/cy_scb_common.h **** */
 335:Generated_Source\PSoC6\pdl\drivers/peripheral/scb/cy_scb_common.h **** /**
 336:Generated_Source\PSoC6\pdl\drivers/peripheral/scb/cy_scb_common.h **** * I2C slave lost arbitration: the value driven on the SDA line is not the same
 337:Generated_Source\PSoC6\pdl\drivers/peripheral/scb/cy_scb_common.h **** * as the value observed on the SDA line
 338:Generated_Source\PSoC6\pdl\drivers/peripheral/scb/cy_scb_common.h **** */
 339:Generated_Source\PSoC6\pdl\drivers/peripheral/scb/cy_scb_common.h **** #define CY_SCB_SLAVE_INTR_I2C_ARB_LOST      SCB_INTR_S_I2C_ARB_LOST_Msk
 340:Generated_Source\PSoC6\pdl\drivers/peripheral/scb/cy_scb_common.h **** 
 341:Generated_Source\PSoC6\pdl\drivers/peripheral/scb/cy_scb_common.h **** /** The I2C slave received a NAK */
 342:Generated_Source\PSoC6\pdl\drivers/peripheral/scb/cy_scb_common.h **** #define CY_SCB_SLAVE_INTR_I2C_NACK          SCB_INTR_S_I2C_NACK_Msk
ARM GAS  C:\Users\salaz\AppData\Local\Temp\cc7F8fiw.s 			page 9


 343:Generated_Source\PSoC6\pdl\drivers/peripheral/scb/cy_scb_common.h **** 
 344:Generated_Source\PSoC6\pdl\drivers/peripheral/scb/cy_scb_common.h **** /** The I2C slave received  an ACK */
 345:Generated_Source\PSoC6\pdl\drivers/peripheral/scb/cy_scb_common.h **** #define CY_SCB_SLAVE_INTR_I2C_ACK           SCB_INTR_S_I2C_ACK_Msk
 346:Generated_Source\PSoC6\pdl\drivers/peripheral/scb/cy_scb_common.h **** 
 347:Generated_Source\PSoC6\pdl\drivers/peripheral/scb/cy_scb_common.h **** /**
 348:Generated_Source\PSoC6\pdl\drivers/peripheral/scb/cy_scb_common.h **** * A Stop or Repeated Start event for a write transfer intended for this slave
 349:Generated_Source\PSoC6\pdl\drivers/peripheral/scb/cy_scb_common.h **** * was detected.
 350:Generated_Source\PSoC6\pdl\drivers/peripheral/scb/cy_scb_common.h **** */
 351:Generated_Source\PSoC6\pdl\drivers/peripheral/scb/cy_scb_common.h **** #define CY_SCB_SLAVE_INTR_I2C_WRITE_STOP    SCB_INTR_S_I2C_WRITE_STOP_Msk
 352:Generated_Source\PSoC6\pdl\drivers/peripheral/scb/cy_scb_common.h **** 
 353:Generated_Source\PSoC6\pdl\drivers/peripheral/scb/cy_scb_common.h **** /** A Stop or Repeated Start event intended for this slave was detected */
 354:Generated_Source\PSoC6\pdl\drivers/peripheral/scb/cy_scb_common.h **** #define CY_SCB_SLAVE_INTR_I2C_STOP          SCB_INTR_S_I2C_STOP_Msk
 355:Generated_Source\PSoC6\pdl\drivers/peripheral/scb/cy_scb_common.h **** 
 356:Generated_Source\PSoC6\pdl\drivers/peripheral/scb/cy_scb_common.h **** /** The I2C slave received a Start condition */
 357:Generated_Source\PSoC6\pdl\drivers/peripheral/scb/cy_scb_common.h **** #define CY_SCB_SLAVE_INTR_I2C_START         SCB_INTR_S_I2C_START_Msk
 358:Generated_Source\PSoC6\pdl\drivers/peripheral/scb/cy_scb_common.h **** 
 359:Generated_Source\PSoC6\pdl\drivers/peripheral/scb/cy_scb_common.h **** /** The I2C slave received the matching address */
 360:Generated_Source\PSoC6\pdl\drivers/peripheral/scb/cy_scb_common.h **** #define CY_SCB_SLAVE_INTR_I2C_ADDR_MATCH    SCB_INTR_S_I2C_ADDR_MATCH_Msk
 361:Generated_Source\PSoC6\pdl\drivers/peripheral/scb/cy_scb_common.h **** 
 362:Generated_Source\PSoC6\pdl\drivers/peripheral/scb/cy_scb_common.h **** /** The I2C Slave received the general call address */
 363:Generated_Source\PSoC6\pdl\drivers/peripheral/scb/cy_scb_common.h **** #define CY_SCB_SLAVE_INTR_I2C_GENERAL_ADDR  SCB_INTR_S_I2C_GENERAL_Msk
 364:Generated_Source\PSoC6\pdl\drivers/peripheral/scb/cy_scb_common.h **** 
 365:Generated_Source\PSoC6\pdl\drivers/peripheral/scb/cy_scb_common.h **** /** The I2C slave bus error (detection of unexpected Start or Stop condition) */
 366:Generated_Source\PSoC6\pdl\drivers/peripheral/scb/cy_scb_common.h **** #define CY_SCB_SLAVE_INTR_I2C_BUS_ERROR     SCB_INTR_S_I2C_BUS_ERROR_Msk
 367:Generated_Source\PSoC6\pdl\drivers/peripheral/scb/cy_scb_common.h **** 
 368:Generated_Source\PSoC6\pdl\drivers/peripheral/scb/cy_scb_common.h **** /**
 369:Generated_Source\PSoC6\pdl\drivers/peripheral/scb/cy_scb_common.h **** * The SPI slave select line is deselected at an expected time during an
 370:Generated_Source\PSoC6\pdl\drivers/peripheral/scb/cy_scb_common.h **** * SPI transfer.
 371:Generated_Source\PSoC6\pdl\drivers/peripheral/scb/cy_scb_common.h **** */
 372:Generated_Source\PSoC6\pdl\drivers/peripheral/scb/cy_scb_common.h **** #define CY_SCB_SLAVE_INTR_SPI_BUS_ERROR     SCB_INTR_S_SPI_BUS_ERROR_Msk
 373:Generated_Source\PSoC6\pdl\drivers/peripheral/scb/cy_scb_common.h **** /** \} group_scb_common_macros_slave_intr */
 374:Generated_Source\PSoC6\pdl\drivers/peripheral/scb/cy_scb_common.h **** 
 375:Generated_Source\PSoC6\pdl\drivers/peripheral/scb/cy_scb_common.h **** /**
 376:Generated_Source\PSoC6\pdl\drivers/peripheral/scb/cy_scb_common.h **** * \defgroup group_scb_common_macros_master_intr Master Interrupt Statuses
 377:Generated_Source\PSoC6\pdl\drivers/peripheral/scb/cy_scb_common.h **** * \{
 378:Generated_Source\PSoC6\pdl\drivers/peripheral/scb/cy_scb_common.h **** */
 379:Generated_Source\PSoC6\pdl\drivers/peripheral/scb/cy_scb_common.h **** /** The I2C master lost arbitration */
 380:Generated_Source\PSoC6\pdl\drivers/peripheral/scb/cy_scb_common.h **** #define CY_SCB_MASTER_INTR_I2C_ARB_LOST    SCB_INTR_M_I2C_ARB_LOST_Msk
 381:Generated_Source\PSoC6\pdl\drivers/peripheral/scb/cy_scb_common.h **** 
 382:Generated_Source\PSoC6\pdl\drivers/peripheral/scb/cy_scb_common.h **** /** The I2C master received a NACK */
 383:Generated_Source\PSoC6\pdl\drivers/peripheral/scb/cy_scb_common.h **** #define CY_SCB_MASTER_INTR_I2C_NACK        SCB_INTR_M_I2C_NACK_Msk
 384:Generated_Source\PSoC6\pdl\drivers/peripheral/scb/cy_scb_common.h **** 
 385:Generated_Source\PSoC6\pdl\drivers/peripheral/scb/cy_scb_common.h **** /** The I2C master received an ACK */
 386:Generated_Source\PSoC6\pdl\drivers/peripheral/scb/cy_scb_common.h **** #define CY_SCB_MASTER_INTR_I2C_ACK         SCB_INTR_M_I2C_ACK_Msk
 387:Generated_Source\PSoC6\pdl\drivers/peripheral/scb/cy_scb_common.h **** 
 388:Generated_Source\PSoC6\pdl\drivers/peripheral/scb/cy_scb_common.h **** /** The I2C master generated a Stop */
 389:Generated_Source\PSoC6\pdl\drivers/peripheral/scb/cy_scb_common.h **** #define CY_SCB_MASTER_INTR_I2C_STOP        SCB_INTR_M_I2C_STOP_Msk
 390:Generated_Source\PSoC6\pdl\drivers/peripheral/scb/cy_scb_common.h **** 
 391:Generated_Source\PSoC6\pdl\drivers/peripheral/scb/cy_scb_common.h **** /** The I2C master bus error (detection of unexpected START or STOP condition)
 392:Generated_Source\PSoC6\pdl\drivers/peripheral/scb/cy_scb_common.h **** */
 393:Generated_Source\PSoC6\pdl\drivers/peripheral/scb/cy_scb_common.h **** #define CY_SCB_MASTER_INTR_I2C_BUS_ERROR   SCB_INTR_M_I2C_BUS_ERROR_Msk
 394:Generated_Source\PSoC6\pdl\drivers/peripheral/scb/cy_scb_common.h **** 
 395:Generated_Source\PSoC6\pdl\drivers/peripheral/scb/cy_scb_common.h **** /**
 396:Generated_Source\PSoC6\pdl\drivers/peripheral/scb/cy_scb_common.h **** * The SPI master transfer is complete: all data elements transferred from the
 397:Generated_Source\PSoC6\pdl\drivers/peripheral/scb/cy_scb_common.h **** * TX FIFO and TX shift register.
 398:Generated_Source\PSoC6\pdl\drivers/peripheral/scb/cy_scb_common.h **** */
 399:Generated_Source\PSoC6\pdl\drivers/peripheral/scb/cy_scb_common.h **** #define CY_SCB_MASTER_INTR_SPI_DONE        SCB_INTR_M_SPI_DONE_Msk
ARM GAS  C:\Users\salaz\AppData\Local\Temp\cc7F8fiw.s 			page 10


 400:Generated_Source\PSoC6\pdl\drivers/peripheral/scb/cy_scb_common.h **** /** \} group_scb_common_macros_master_intr */
 401:Generated_Source\PSoC6\pdl\drivers/peripheral/scb/cy_scb_common.h **** 
 402:Generated_Source\PSoC6\pdl\drivers/peripheral/scb/cy_scb_common.h **** /**
 403:Generated_Source\PSoC6\pdl\drivers/peripheral/scb/cy_scb_common.h **** * \defgroup group_scb_common_macros_i2c_intr I2C Interrupt Statuses
 404:Generated_Source\PSoC6\pdl\drivers/peripheral/scb/cy_scb_common.h **** * \{
 405:Generated_Source\PSoC6\pdl\drivers/peripheral/scb/cy_scb_common.h **** */
 406:Generated_Source\PSoC6\pdl\drivers/peripheral/scb/cy_scb_common.h **** /**
 407:Generated_Source\PSoC6\pdl\drivers/peripheral/scb/cy_scb_common.h **** * Wake up request: the I2C slave received the matching address.
 408:Generated_Source\PSoC6\pdl\drivers/peripheral/scb/cy_scb_common.h **** * Note that this interrupt source triggers in active mode.
 409:Generated_Source\PSoC6\pdl\drivers/peripheral/scb/cy_scb_common.h **** */
 410:Generated_Source\PSoC6\pdl\drivers/peripheral/scb/cy_scb_common.h **** #define CY_SCB_I2C_INTR_WAKEUP     SCB_INTR_I2C_EC_WAKE_UP_Msk
 411:Generated_Source\PSoC6\pdl\drivers/peripheral/scb/cy_scb_common.h **** /** \} group_scb_common_macros_i2c_intr */
 412:Generated_Source\PSoC6\pdl\drivers/peripheral/scb/cy_scb_common.h **** 
 413:Generated_Source\PSoC6\pdl\drivers/peripheral/scb/cy_scb_common.h **** /**
 414:Generated_Source\PSoC6\pdl\drivers/peripheral/scb/cy_scb_common.h **** * \defgroup group_scb_common_macros_SpiIntrStatuses SPI Interrupt Statuses
 415:Generated_Source\PSoC6\pdl\drivers/peripheral/scb/cy_scb_common.h **** * \{
 416:Generated_Source\PSoC6\pdl\drivers/peripheral/scb/cy_scb_common.h **** */
 417:Generated_Source\PSoC6\pdl\drivers/peripheral/scb/cy_scb_common.h **** /**
 418:Generated_Source\PSoC6\pdl\drivers/peripheral/scb/cy_scb_common.h **** * Wake up request: the SPI slave detects an active edge of the slave select
 419:Generated_Source\PSoC6\pdl\drivers/peripheral/scb/cy_scb_common.h **** * signal. Note that this interrupt source triggers in active mode.
 420:Generated_Source\PSoC6\pdl\drivers/peripheral/scb/cy_scb_common.h **** */
 421:Generated_Source\PSoC6\pdl\drivers/peripheral/scb/cy_scb_common.h **** #define CY_SCB_SPI_INTR_WAKEUP     SCB_INTR_SPI_EC_WAKE_UP_Msk
 422:Generated_Source\PSoC6\pdl\drivers/peripheral/scb/cy_scb_common.h **** /** \} group_scb_common_macros_SpiIntrStatuses */
 423:Generated_Source\PSoC6\pdl\drivers/peripheral/scb/cy_scb_common.h **** 
 424:Generated_Source\PSoC6\pdl\drivers/peripheral/scb/cy_scb_common.h **** 
 425:Generated_Source\PSoC6\pdl\drivers/peripheral/scb/cy_scb_common.h **** /***************************************
 426:Generated_Source\PSoC6\pdl\drivers/peripheral/scb/cy_scb_common.h **** *         Internal Constants
 427:Generated_Source\PSoC6\pdl\drivers/peripheral/scb/cy_scb_common.h **** ***************************************/
 428:Generated_Source\PSoC6\pdl\drivers/peripheral/scb/cy_scb_common.h **** 
 429:Generated_Source\PSoC6\pdl\drivers/peripheral/scb/cy_scb_common.h **** /** \cond INTERNAL */
 430:Generated_Source\PSoC6\pdl\drivers/peripheral/scb/cy_scb_common.h **** 
 431:Generated_Source\PSoC6\pdl\drivers/peripheral/scb/cy_scb_common.h **** /* Default registers values */
 432:Generated_Source\PSoC6\pdl\drivers/peripheral/scb/cy_scb_common.h **** #define CY_SCB_CTRL_DEF_VAL         (_VAL2FLD(SCB_CTRL_OVS, 15UL) | \
 433:Generated_Source\PSoC6\pdl\drivers/peripheral/scb/cy_scb_common.h ****                                      _VAL2FLD(SCB_CTRL_MODE, 3UL))
 434:Generated_Source\PSoC6\pdl\drivers/peripheral/scb/cy_scb_common.h **** 
 435:Generated_Source\PSoC6\pdl\drivers/peripheral/scb/cy_scb_common.h **** #define CY_SCB_I2C_CTRL_DEF_VAL     (_VAL2FLD(SCB_I2C_CTRL_HIGH_PHASE_OVS, 8UL)        | \
 436:Generated_Source\PSoC6\pdl\drivers/peripheral/scb/cy_scb_common.h ****                                      _VAL2FLD(SCB_I2C_CTRL_HIGH_PHASE_OVS, 8UL)        | \
 437:Generated_Source\PSoC6\pdl\drivers/peripheral/scb/cy_scb_common.h ****                                      _VAL2FLD(SCB_I2C_CTRL_M_READY_DATA_ACK, 1UL)      | \
 438:Generated_Source\PSoC6\pdl\drivers/peripheral/scb/cy_scb_common.h ****                                      _VAL2FLD(SCB_I2C_CTRL_M_NOT_READY_DATA_NACK, 1UL) | \
 439:Generated_Source\PSoC6\pdl\drivers/peripheral/scb/cy_scb_common.h ****                                      _VAL2FLD(SCB_I2C_CTRL_S_GENERAL_IGNORE, 1UL)      | \
 440:Generated_Source\PSoC6\pdl\drivers/peripheral/scb/cy_scb_common.h ****                                      _VAL2FLD(SCB_I2C_CTRL_S_READY_ADDR_ACK, 1UL)      | \
 441:Generated_Source\PSoC6\pdl\drivers/peripheral/scb/cy_scb_common.h ****                                      _VAL2FLD(SCB_I2C_CTRL_S_READY_DATA_ACK, 1UL)      | \
 442:Generated_Source\PSoC6\pdl\drivers/peripheral/scb/cy_scb_common.h ****                                      _VAL2FLD(SCB_I2C_CTRL_S_NOT_READY_ADDR_NACK, 1UL) | \
 443:Generated_Source\PSoC6\pdl\drivers/peripheral/scb/cy_scb_common.h ****                                      _VAL2FLD(SCB_I2C_CTRL_S_NOT_READY_DATA_NACK, 1UL))
 444:Generated_Source\PSoC6\pdl\drivers/peripheral/scb/cy_scb_common.h **** 
 445:Generated_Source\PSoC6\pdl\drivers/peripheral/scb/cy_scb_common.h **** #define CY_SCB_I2C_CFG_DEF_VAL      (_VAL2FLD(SCB_I2C_CFG_SDA_IN_FILT_TRIM, 3UL)   | \
 446:Generated_Source\PSoC6\pdl\drivers/peripheral/scb/cy_scb_common.h ****                                      _VAL2FLD(SCB_I2C_CFG_SDA_IN_FILT_SEL, 1UL)    | \
 447:Generated_Source\PSoC6\pdl\drivers/peripheral/scb/cy_scb_common.h ****                                      _VAL2FLD(SCB_I2C_CFG_SCL_IN_FILT_SEL, 1UL)    | \
 448:Generated_Source\PSoC6\pdl\drivers/peripheral/scb/cy_scb_common.h ****                                      _VAL2FLD(SCB_I2C_CFG_SDA_OUT_FILT0_TRIM, 2UL) | \
 449:Generated_Source\PSoC6\pdl\drivers/peripheral/scb/cy_scb_common.h ****                                      _VAL2FLD(SCB_I2C_CFG_SDA_OUT_FILT1_TRIM, 2UL) | \
 450:Generated_Source\PSoC6\pdl\drivers/peripheral/scb/cy_scb_common.h ****                                      _VAL2FLD(SCB_I2C_CFG_SDA_OUT_FILT2_TRIM, 2UL))
 451:Generated_Source\PSoC6\pdl\drivers/peripheral/scb/cy_scb_common.h **** 
 452:Generated_Source\PSoC6\pdl\drivers/peripheral/scb/cy_scb_common.h **** #define CY_SCB_SPI_CTRL_DEF_VAL     _VAL2FLD(SCB_SPI_CTRL_MODE, 3UL)
 453:Generated_Source\PSoC6\pdl\drivers/peripheral/scb/cy_scb_common.h **** #define CY_SCB_UART_CTRL_DEF_VAL    _VAL2FLD(SCB_UART_CTRL_MODE, 3UL)
 454:Generated_Source\PSoC6\pdl\drivers/peripheral/scb/cy_scb_common.h **** 
 455:Generated_Source\PSoC6\pdl\drivers/peripheral/scb/cy_scb_common.h **** #define CY_SCB_UART_RX_CTRL_DEF_VAL (_VAL2FLD(SCB_UART_RX_CTRL_STOP_BITS, 2UL) | \
 456:Generated_Source\PSoC6\pdl\drivers/peripheral/scb/cy_scb_common.h ****                                      _VAL2FLD(SCB_UART_RX_CTRL_BREAK_WIDTH, 10UL))
ARM GAS  C:\Users\salaz\AppData\Local\Temp\cc7F8fiw.s 			page 11


 457:Generated_Source\PSoC6\pdl\drivers/peripheral/scb/cy_scb_common.h **** 
 458:Generated_Source\PSoC6\pdl\drivers/peripheral/scb/cy_scb_common.h **** #define CY_SCB_UART_TX_CTRL_DEF_VAL _VAL2FLD(SCB_UART_TX_CTRL_STOP_BITS, 2UL)
 459:Generated_Source\PSoC6\pdl\drivers/peripheral/scb/cy_scb_common.h **** 
 460:Generated_Source\PSoC6\pdl\drivers/peripheral/scb/cy_scb_common.h **** #define CY_SCB_RX_CTRL_DEF_VAL      (_VAL2FLD(SCB_RX_CTRL_DATA_WIDTH, 7UL) | \
 461:Generated_Source\PSoC6\pdl\drivers/peripheral/scb/cy_scb_common.h ****                                      _VAL2FLD(SCB_RX_CTRL_MSB_FIRST,  1UL))
 462:Generated_Source\PSoC6\pdl\drivers/peripheral/scb/cy_scb_common.h **** 
 463:Generated_Source\PSoC6\pdl\drivers/peripheral/scb/cy_scb_common.h **** #define CY_SCB_TX_CTRL_DEF_VAL      (_VAL2FLD(SCB_TX_CTRL_DATA_WIDTH, 7UL) | \
 464:Generated_Source\PSoC6\pdl\drivers/peripheral/scb/cy_scb_common.h ****                                      _VAL2FLD(SCB_TX_CTRL_MSB_FIRST,  1UL))
 465:Generated_Source\PSoC6\pdl\drivers/peripheral/scb/cy_scb_common.h **** 
 466:Generated_Source\PSoC6\pdl\drivers/peripheral/scb/cy_scb_common.h **** /* SCB CTRL modes */
 467:Generated_Source\PSoC6\pdl\drivers/peripheral/scb/cy_scb_common.h **** #define CY_SCB_CTRL_MODE_I2C   (0UL)
 468:Generated_Source\PSoC6\pdl\drivers/peripheral/scb/cy_scb_common.h **** #define CY_SCB_CTRL_MODE_SPI   (1UL)
 469:Generated_Source\PSoC6\pdl\drivers/peripheral/scb/cy_scb_common.h **** #define CY_SCB_CTRL_MODE_UART  (2UL)
 470:Generated_Source\PSoC6\pdl\drivers/peripheral/scb/cy_scb_common.h **** 
 471:Generated_Source\PSoC6\pdl\drivers/peripheral/scb/cy_scb_common.h **** /* The position and mask to set the I2C mode */
 472:Generated_Source\PSoC6\pdl\drivers/peripheral/scb/cy_scb_common.h **** #define CY_SCB_I2C_CTRL_MODE_Pos    SCB_I2C_CTRL_SLAVE_MODE_Pos
 473:Generated_Source\PSoC6\pdl\drivers/peripheral/scb/cy_scb_common.h **** #define CY_SCB_I2C_CTRL_MODE_Msk    (SCB_I2C_CTRL_SLAVE_MODE_Msk | \
 474:Generated_Source\PSoC6\pdl\drivers/peripheral/scb/cy_scb_common.h ****                                      SCB_I2C_CTRL_MASTER_MODE_Msk)
 475:Generated_Source\PSoC6\pdl\drivers/peripheral/scb/cy_scb_common.h **** 
 476:Generated_Source\PSoC6\pdl\drivers/peripheral/scb/cy_scb_common.h **** /* Cypress ID #282226:
 477:Generated_Source\PSoC6\pdl\drivers/peripheral/scb/cy_scb_common.h **** * SCB_I2C_CFG_SDA_IN_FILT_TRIM[1]: SCB clock enable (1), clock disable (0).
 478:Generated_Source\PSoC6\pdl\drivers/peripheral/scb/cy_scb_common.h **** */
 479:Generated_Source\PSoC6\pdl\drivers/peripheral/scb/cy_scb_common.h **** #define CY_SCB_I2C_CFG_CLK_ENABLE_Msk  (_VAL2FLD(SCB_I2C_CFG_SDA_IN_FILT_TRIM, 2UL))
 480:Generated_Source\PSoC6\pdl\drivers/peripheral/scb/cy_scb_common.h **** 
 481:Generated_Source\PSoC6\pdl\drivers/peripheral/scb/cy_scb_common.h **** /* I2C has fixed data width */
 482:Generated_Source\PSoC6\pdl\drivers/peripheral/scb/cy_scb_common.h **** #define CY_SCB_I2C_DATA_WIDTH   (7UL)
 483:Generated_Source\PSoC6\pdl\drivers/peripheral/scb/cy_scb_common.h **** 
 484:Generated_Source\PSoC6\pdl\drivers/peripheral/scb/cy_scb_common.h **** /* RX and TX control register values */
 485:Generated_Source\PSoC6\pdl\drivers/peripheral/scb/cy_scb_common.h **** #define CY_SCB_I2C_RX_CTRL      (_VAL2FLD(SCB_RX_CTRL_DATA_WIDTH, CY_SCB_I2C_DATA_WIDTH) | \
 486:Generated_Source\PSoC6\pdl\drivers/peripheral/scb/cy_scb_common.h ****                                  SCB_RX_CTRL_MSB_FIRST_Msk)
 487:Generated_Source\PSoC6\pdl\drivers/peripheral/scb/cy_scb_common.h **** #define CY_SCB_I2C_TX_CTRL      (_VAL2FLD(SCB_TX_CTRL_DATA_WIDTH, CY_SCB_I2C_DATA_WIDTH) | \
 488:Generated_Source\PSoC6\pdl\drivers/peripheral/scb/cy_scb_common.h ****                                  SCB_TX_CTRL_MSB_FIRST_Msk | SCB_TX_CTRL_OPEN_DRAIN_Msk)
 489:Generated_Source\PSoC6\pdl\drivers/peripheral/scb/cy_scb_common.h **** 
 490:Generated_Source\PSoC6\pdl\drivers/peripheral/scb/cy_scb_common.h **** /* The position and mask to make an address byte */
 491:Generated_Source\PSoC6\pdl\drivers/peripheral/scb/cy_scb_common.h **** #define CY_SCB_I2C_ADDRESS_Pos  (1UL)
 492:Generated_Source\PSoC6\pdl\drivers/peripheral/scb/cy_scb_common.h **** #define CY_SCB_I2C_ADDRESS_Msk  (0xFEUL)
 493:Generated_Source\PSoC6\pdl\drivers/peripheral/scb/cy_scb_common.h **** 
 494:Generated_Source\PSoC6\pdl\drivers/peripheral/scb/cy_scb_common.h **** /* SPI slave select polarity */
 495:Generated_Source\PSoC6\pdl\drivers/peripheral/scb/cy_scb_common.h **** #define CY_SCB_SPI_CTRL_SSEL_POLARITY_Pos   SCB_SPI_CTRL_SSEL_POLARITY0_Pos
 496:Generated_Source\PSoC6\pdl\drivers/peripheral/scb/cy_scb_common.h **** #define CY_SCB_SPI_CTRL_SSEL_POLARITY_Msk   (SCB_SPI_CTRL_SSEL_POLARITY0_Msk | \
 497:Generated_Source\PSoC6\pdl\drivers/peripheral/scb/cy_scb_common.h ****                                              SCB_SPI_CTRL_SSEL_POLARITY1_Msk | \
 498:Generated_Source\PSoC6\pdl\drivers/peripheral/scb/cy_scb_common.h ****                                              SCB_SPI_CTRL_SSEL_POLARITY2_Msk | \
 499:Generated_Source\PSoC6\pdl\drivers/peripheral/scb/cy_scb_common.h ****                                              SCB_SPI_CTRL_SSEL_POLARITY3_Msk)
 500:Generated_Source\PSoC6\pdl\drivers/peripheral/scb/cy_scb_common.h **** 
 501:Generated_Source\PSoC6\pdl\drivers/peripheral/scb/cy_scb_common.h **** /* SPI clock modes: CPHA and CPOL */
 502:Generated_Source\PSoC6\pdl\drivers/peripheral/scb/cy_scb_common.h **** #define CY_SCB_SPI_CTRL_CLK_MODE_Pos    SCB_SPI_CTRL_CPHA_Pos
 503:Generated_Source\PSoC6\pdl\drivers/peripheral/scb/cy_scb_common.h **** #define CY_SCB_SPI_CTRL_CLK_MODE_Msk    (SCB_SPI_CTRL_CPHA_Msk | SCB_SPI_CTRL_CPOL_Msk)
 504:Generated_Source\PSoC6\pdl\drivers/peripheral/scb/cy_scb_common.h **** 
 505:Generated_Source\PSoC6\pdl\drivers/peripheral/scb/cy_scb_common.h **** /* UART parity and parity enable combination */
 506:Generated_Source\PSoC6\pdl\drivers/peripheral/scb/cy_scb_common.h **** #define CY_SCB_UART_RX_CTRL_SET_PARITY_Msk      (SCB_UART_RX_CTRL_PARITY_ENABLED_Msk | \
 507:Generated_Source\PSoC6\pdl\drivers/peripheral/scb/cy_scb_common.h ****                                                  SCB_UART_RX_CTRL_PARITY_Msk)
 508:Generated_Source\PSoC6\pdl\drivers/peripheral/scb/cy_scb_common.h **** #define CY_SCB_UART_RX_CTRL_SET_PARITY_Pos      SCB_UART_RX_CTRL_PARITY_Pos
 509:Generated_Source\PSoC6\pdl\drivers/peripheral/scb/cy_scb_common.h **** 
 510:Generated_Source\PSoC6\pdl\drivers/peripheral/scb/cy_scb_common.h **** #define CY_SCB_UART_TX_CTRL_SET_PARITY_Msk      (SCB_UART_TX_CTRL_PARITY_ENABLED_Msk | \
 511:Generated_Source\PSoC6\pdl\drivers/peripheral/scb/cy_scb_common.h ****                                                  SCB_UART_TX_CTRL_PARITY_Msk)
 512:Generated_Source\PSoC6\pdl\drivers/peripheral/scb/cy_scb_common.h **** #define CY_SCB_UART_TX_CTRL_SET_PARITY_Pos      SCB_UART_TX_CTRL_PARITY_Pos
 513:Generated_Source\PSoC6\pdl\drivers/peripheral/scb/cy_scb_common.h **** 
ARM GAS  C:\Users\salaz\AppData\Local\Temp\cc7F8fiw.s 			page 12


 514:Generated_Source\PSoC6\pdl\drivers/peripheral/scb/cy_scb_common.h **** /* Max number of bits for byte mode */
 515:Generated_Source\PSoC6\pdl\drivers/peripheral/scb/cy_scb_common.h **** #define CY_SCB_BYTE_WIDTH   (8UL)
 516:Generated_Source\PSoC6\pdl\drivers/peripheral/scb/cy_scb_common.h **** 
 517:Generated_Source\PSoC6\pdl\drivers/peripheral/scb/cy_scb_common.h **** /* Single unit to wait */
 518:Generated_Source\PSoC6\pdl\drivers/peripheral/scb/cy_scb_common.h **** #define CY_SCB_WAIT_1_UNIT  (1U)
 519:Generated_Source\PSoC6\pdl\drivers/peripheral/scb/cy_scb_common.h **** 
 520:Generated_Source\PSoC6\pdl\drivers/peripheral/scb/cy_scb_common.h **** /* Clear interrupt sources */
 521:Generated_Source\PSoC6\pdl\drivers/peripheral/scb/cy_scb_common.h **** #define CY_SCB_CLEAR_ALL_INTR_SRC   (0UL)
 522:Generated_Source\PSoC6\pdl\drivers/peripheral/scb/cy_scb_common.h **** 
 523:Generated_Source\PSoC6\pdl\drivers/peripheral/scb/cy_scb_common.h **** /* Hardware FIFO size */
 524:Generated_Source\PSoC6\pdl\drivers/peripheral/scb/cy_scb_common.h **** #define CY_SCB_FIFO_SIZE(base)    (SCB_GET_EZ_DATA_NR(base) / 2UL)
 525:Generated_Source\PSoC6\pdl\drivers/peripheral/scb/cy_scb_common.h **** 
 526:Generated_Source\PSoC6\pdl\drivers/peripheral/scb/cy_scb_common.h **** /* Provides a list of allowed sources */
 527:Generated_Source\PSoC6\pdl\drivers/peripheral/scb/cy_scb_common.h **** #define CY_SCB_TX_INTR_MASK     (CY_SCB_TX_INTR_LEVEL     | CY_SCB_TX_INTR_NOT_FULL  | CY_SCB_TX_IN
 528:Generated_Source\PSoC6\pdl\drivers/peripheral/scb/cy_scb_common.h ****                                  CY_SCB_TX_INTR_OVERFLOW  | CY_SCB_TX_INTR_UNDERFLOW | CY_SCB_TX_IN
 529:Generated_Source\PSoC6\pdl\drivers/peripheral/scb/cy_scb_common.h ****                                  CY_SCB_TX_INTR_UART_NACK | CY_SCB_TX_INTR_UART_ARB_LOST)
 530:Generated_Source\PSoC6\pdl\drivers/peripheral/scb/cy_scb_common.h **** 
 531:Generated_Source\PSoC6\pdl\drivers/peripheral/scb/cy_scb_common.h **** #define CY_SCB_RX_INTR_MASK     (CY_SCB_RX_INTR_LEVEL             | CY_SCB_RX_INTR_NOT_EMPTY | CY_S
 532:Generated_Source\PSoC6\pdl\drivers/peripheral/scb/cy_scb_common.h ****                                  CY_SCB_RX_INTR_OVERFLOW          | CY_SCB_RX_INTR_UNDERFLOW       
 533:Generated_Source\PSoC6\pdl\drivers/peripheral/scb/cy_scb_common.h ****                                  CY_SCB_RX_INTR_UART_FRAME_ERROR  | CY_SCB_RX_INTR_UART_PARITY_ERRO
 534:Generated_Source\PSoC6\pdl\drivers/peripheral/scb/cy_scb_common.h ****                                  CY_SCB_RX_INTR_UART_BREAK_DETECT)
 535:Generated_Source\PSoC6\pdl\drivers/peripheral/scb/cy_scb_common.h **** 
 536:Generated_Source\PSoC6\pdl\drivers/peripheral/scb/cy_scb_common.h **** 
 537:Generated_Source\PSoC6\pdl\drivers/peripheral/scb/cy_scb_common.h **** #define CY_SCB_SLAVE_INTR_MASK  (CY_SCB_SLAVE_INTR_I2C_ARB_LOST   | CY_SCB_SLAVE_INTR_I2C_NACK | CY
 538:Generated_Source\PSoC6\pdl\drivers/peripheral/scb/cy_scb_common.h ****                                  CY_SCB_SLAVE_INTR_I2C_WRITE_STOP | CY_SCB_SLAVE_INTR_I2C_STOP | CY
 539:Generated_Source\PSoC6\pdl\drivers/peripheral/scb/cy_scb_common.h ****                                  CY_SCB_SLAVE_INTR_I2C_ADDR_MATCH | CY_SCB_SLAVE_INTR_I2C_GENERAL_A
 540:Generated_Source\PSoC6\pdl\drivers/peripheral/scb/cy_scb_common.h ****                                  CY_SCB_SLAVE_INTR_I2C_BUS_ERROR  | CY_SCB_SLAVE_INTR_SPI_BUS_ERROR
 541:Generated_Source\PSoC6\pdl\drivers/peripheral/scb/cy_scb_common.h **** 
 542:Generated_Source\PSoC6\pdl\drivers/peripheral/scb/cy_scb_common.h **** #define CY_SCB_MASTER_INTR_MASK (CY_SCB_MASTER_INTR_I2C_ARB_LOST  | CY_SCB_MASTER_INTR_I2C_NACK | \
 543:Generated_Source\PSoC6\pdl\drivers/peripheral/scb/cy_scb_common.h ****                                  CY_SCB_MASTER_INTR_I2C_ACK       | CY_SCB_MASTER_INTR_I2C_STOP | \
 544:Generated_Source\PSoC6\pdl\drivers/peripheral/scb/cy_scb_common.h ****                                  CY_SCB_MASTER_INTR_I2C_BUS_ERROR | CY_SCB_MASTER_INTR_SPI_DONE)
 545:Generated_Source\PSoC6\pdl\drivers/peripheral/scb/cy_scb_common.h **** 
 546:Generated_Source\PSoC6\pdl\drivers/peripheral/scb/cy_scb_common.h **** #define CY_SCB_I2C_INTR_MASK    CY_SCB_I2C_INTR_WAKEUP
 547:Generated_Source\PSoC6\pdl\drivers/peripheral/scb/cy_scb_common.h **** 
 548:Generated_Source\PSoC6\pdl\drivers/peripheral/scb/cy_scb_common.h **** #define CY_SCB_SPI_INTR_MASK    CY_SCB_SPI_INTR_WAKEUP
 549:Generated_Source\PSoC6\pdl\drivers/peripheral/scb/cy_scb_common.h **** 
 550:Generated_Source\PSoC6\pdl\drivers/peripheral/scb/cy_scb_common.h **** #define CY_SCB_IS_INTR_VALID(intr, mask)            ( 0UL == ((intr) & ((uint32_t) ~(mask))) )
 551:Generated_Source\PSoC6\pdl\drivers/peripheral/scb/cy_scb_common.h **** #define CY_SCB_IS_TRIGGER_LEVEL_VALID(base, level)  ((level) < Cy_SCB_GetFifoSize(base))
 552:Generated_Source\PSoC6\pdl\drivers/peripheral/scb/cy_scb_common.h **** 
 553:Generated_Source\PSoC6\pdl\drivers/peripheral/scb/cy_scb_common.h **** #define CY_SCB_IS_I2C_ADDR_VALID(addr)              ( (0U == ((addr) & 0x80U)) )
 554:Generated_Source\PSoC6\pdl\drivers/peripheral/scb/cy_scb_common.h **** #define CY_SCB_IS_BUFFER_VALID(buffer, size)        ( (NULL != (buffer)) && ((size) > 0UL) )
 555:Generated_Source\PSoC6\pdl\drivers/peripheral/scb/cy_scb_common.h **** #define CY_SCB_IS_I2C_BUFFER_VALID(buffer, size)    ( (0UL == (size)) ? true : (NULL != (buffer)) )
 556:Generated_Source\PSoC6\pdl\drivers/peripheral/scb/cy_scb_common.h **** /** \endcond */
 557:Generated_Source\PSoC6\pdl\drivers/peripheral/scb/cy_scb_common.h **** 
 558:Generated_Source\PSoC6\pdl\drivers/peripheral/scb/cy_scb_common.h **** /** \} group_scb_common_macros */
 559:Generated_Source\PSoC6\pdl\drivers/peripheral/scb/cy_scb_common.h **** 
 560:Generated_Source\PSoC6\pdl\drivers/peripheral/scb/cy_scb_common.h **** 
 561:Generated_Source\PSoC6\pdl\drivers/peripheral/scb/cy_scb_common.h **** /***************************************
 562:Generated_Source\PSoC6\pdl\drivers/peripheral/scb/cy_scb_common.h **** * Inline Function Implementation
 563:Generated_Source\PSoC6\pdl\drivers/peripheral/scb/cy_scb_common.h **** ***************************************/
 564:Generated_Source\PSoC6\pdl\drivers/peripheral/scb/cy_scb_common.h **** 
 565:Generated_Source\PSoC6\pdl\drivers/peripheral/scb/cy_scb_common.h **** /**
 566:Generated_Source\PSoC6\pdl\drivers/peripheral/scb/cy_scb_common.h **** * \addtogroup group_scb_common_functions
 567:Generated_Source\PSoC6\pdl\drivers/peripheral/scb/cy_scb_common.h **** * \{
 568:Generated_Source\PSoC6\pdl\drivers/peripheral/scb/cy_scb_common.h **** */
 569:Generated_Source\PSoC6\pdl\drivers/peripheral/scb/cy_scb_common.h **** 
 570:Generated_Source\PSoC6\pdl\drivers/peripheral/scb/cy_scb_common.h **** /*******************************************************************************
ARM GAS  C:\Users\salaz\AppData\Local\Temp\cc7F8fiw.s 			page 13


 571:Generated_Source\PSoC6\pdl\drivers/peripheral/scb/cy_scb_common.h **** * Function Name: Cy_SCB_ReadRxFifo
 572:Generated_Source\PSoC6\pdl\drivers/peripheral/scb/cy_scb_common.h **** ****************************************************************************//**
 573:Generated_Source\PSoC6\pdl\drivers/peripheral/scb/cy_scb_common.h **** *
 574:Generated_Source\PSoC6\pdl\drivers/peripheral/scb/cy_scb_common.h **** * Reads a data element directly out of the RX FIFO.
 575:Generated_Source\PSoC6\pdl\drivers/peripheral/scb/cy_scb_common.h **** * This function does not check whether the RX FIFO has data before reading it.
 576:Generated_Source\PSoC6\pdl\drivers/peripheral/scb/cy_scb_common.h **** *
 577:Generated_Source\PSoC6\pdl\drivers/peripheral/scb/cy_scb_common.h **** * \param base
 578:Generated_Source\PSoC6\pdl\drivers/peripheral/scb/cy_scb_common.h **** * The pointer to the SCB instance.
 579:Generated_Source\PSoC6\pdl\drivers/peripheral/scb/cy_scb_common.h **** *
 580:Generated_Source\PSoC6\pdl\drivers/peripheral/scb/cy_scb_common.h **** * \return
 581:Generated_Source\PSoC6\pdl\drivers/peripheral/scb/cy_scb_common.h **** * Data from RX FIFO.
 582:Generated_Source\PSoC6\pdl\drivers/peripheral/scb/cy_scb_common.h **** *
 583:Generated_Source\PSoC6\pdl\drivers/peripheral/scb/cy_scb_common.h **** *******************************************************************************/
 584:Generated_Source\PSoC6\pdl\drivers/peripheral/scb/cy_scb_common.h **** __STATIC_INLINE uint32_t Cy_SCB_ReadRxFifo(CySCB_Type const *base)
 585:Generated_Source\PSoC6\pdl\drivers/peripheral/scb/cy_scb_common.h **** {
 586:Generated_Source\PSoC6\pdl\drivers/peripheral/scb/cy_scb_common.h ****     return (base->RX_FIFO_RD);
 587:Generated_Source\PSoC6\pdl\drivers/peripheral/scb/cy_scb_common.h **** }
 588:Generated_Source\PSoC6\pdl\drivers/peripheral/scb/cy_scb_common.h **** 
 589:Generated_Source\PSoC6\pdl\drivers/peripheral/scb/cy_scb_common.h **** /*******************************************************************************
 590:Generated_Source\PSoC6\pdl\drivers/peripheral/scb/cy_scb_common.h **** * Function Name: Cy_SCB_SetRxFifoLevel
 591:Generated_Source\PSoC6\pdl\drivers/peripheral/scb/cy_scb_common.h **** ****************************************************************************//**
 592:Generated_Source\PSoC6\pdl\drivers/peripheral/scb/cy_scb_common.h **** *
 593:Generated_Source\PSoC6\pdl\drivers/peripheral/scb/cy_scb_common.h **** * Sets the RX FIFO level. When there are more data elements in the RX FIFO than
 594:Generated_Source\PSoC6\pdl\drivers/peripheral/scb/cy_scb_common.h **** * this level, the RX FIFO level interrupt is triggered.
 595:Generated_Source\PSoC6\pdl\drivers/peripheral/scb/cy_scb_common.h **** *
 596:Generated_Source\PSoC6\pdl\drivers/peripheral/scb/cy_scb_common.h **** * \param base
 597:Generated_Source\PSoC6\pdl\drivers/peripheral/scb/cy_scb_common.h **** * The pointer to the SCB instance.
 598:Generated_Source\PSoC6\pdl\drivers/peripheral/scb/cy_scb_common.h **** *
 599:Generated_Source\PSoC6\pdl\drivers/peripheral/scb/cy_scb_common.h **** * \param level
 600:Generated_Source\PSoC6\pdl\drivers/peripheral/scb/cy_scb_common.h **** * When there are more data elements in the FIFO than this level, the RX level
 601:Generated_Source\PSoC6\pdl\drivers/peripheral/scb/cy_scb_common.h **** * interrupt is triggered.
 602:Generated_Source\PSoC6\pdl\drivers/peripheral/scb/cy_scb_common.h **** *
 603:Generated_Source\PSoC6\pdl\drivers/peripheral/scb/cy_scb_common.h **** *******************************************************************************/
 604:Generated_Source\PSoC6\pdl\drivers/peripheral/scb/cy_scb_common.h **** __STATIC_INLINE void Cy_SCB_SetRxFifoLevel(CySCB_Type *base, uint32_t level)
 605:Generated_Source\PSoC6\pdl\drivers/peripheral/scb/cy_scb_common.h **** {
 606:Generated_Source\PSoC6\pdl\drivers/peripheral/scb/cy_scb_common.h ****     CY_ASSERT_L2(CY_SCB_IS_TRIGGER_LEVEL_VALID(base, level));
 607:Generated_Source\PSoC6\pdl\drivers/peripheral/scb/cy_scb_common.h **** 
 608:Generated_Source\PSoC6\pdl\drivers/peripheral/scb/cy_scb_common.h ****     base->RX_FIFO_CTRL = _CLR_SET_FLD32U(base->RX_FIFO_CTRL, SCB_RX_FIFO_CTRL_TRIGGER_LEVEL, level)
 609:Generated_Source\PSoC6\pdl\drivers/peripheral/scb/cy_scb_common.h **** }
 610:Generated_Source\PSoC6\pdl\drivers/peripheral/scb/cy_scb_common.h **** 
 611:Generated_Source\PSoC6\pdl\drivers/peripheral/scb/cy_scb_common.h **** 
 612:Generated_Source\PSoC6\pdl\drivers/peripheral/scb/cy_scb_common.h **** /*******************************************************************************
 613:Generated_Source\PSoC6\pdl\drivers/peripheral/scb/cy_scb_common.h **** * Function Name: Cy_SCB_GetNumInRxFifo
 614:Generated_Source\PSoC6\pdl\drivers/peripheral/scb/cy_scb_common.h **** ****************************************************************************//**
 615:Generated_Source\PSoC6\pdl\drivers/peripheral/scb/cy_scb_common.h **** *
 616:Generated_Source\PSoC6\pdl\drivers/peripheral/scb/cy_scb_common.h **** * Returns the number of data elements currently in the RX FIFO.
 617:Generated_Source\PSoC6\pdl\drivers/peripheral/scb/cy_scb_common.h **** *
 618:Generated_Source\PSoC6\pdl\drivers/peripheral/scb/cy_scb_common.h **** * \param base
 619:Generated_Source\PSoC6\pdl\drivers/peripheral/scb/cy_scb_common.h **** * The pointer to the SCB instance.
 620:Generated_Source\PSoC6\pdl\drivers/peripheral/scb/cy_scb_common.h **** *
 621:Generated_Source\PSoC6\pdl\drivers/peripheral/scb/cy_scb_common.h **** * \return
 622:Generated_Source\PSoC6\pdl\drivers/peripheral/scb/cy_scb_common.h **** * The number or data elements in RX FIFO.
 623:Generated_Source\PSoC6\pdl\drivers/peripheral/scb/cy_scb_common.h **** *
 624:Generated_Source\PSoC6\pdl\drivers/peripheral/scb/cy_scb_common.h **** *******************************************************************************/
 625:Generated_Source\PSoC6\pdl\drivers/peripheral/scb/cy_scb_common.h **** __STATIC_INLINE uint32_t Cy_SCB_GetNumInRxFifo(CySCB_Type const *base)
 626:Generated_Source\PSoC6\pdl\drivers/peripheral/scb/cy_scb_common.h **** {
 627:Generated_Source\PSoC6\pdl\drivers/peripheral/scb/cy_scb_common.h ****     return _FLD2VAL(SCB_RX_FIFO_STATUS_USED, base->RX_FIFO_STATUS);
ARM GAS  C:\Users\salaz\AppData\Local\Temp\cc7F8fiw.s 			page 14


 628:Generated_Source\PSoC6\pdl\drivers/peripheral/scb/cy_scb_common.h **** }
 629:Generated_Source\PSoC6\pdl\drivers/peripheral/scb/cy_scb_common.h **** 
 630:Generated_Source\PSoC6\pdl\drivers/peripheral/scb/cy_scb_common.h **** 
 631:Generated_Source\PSoC6\pdl\drivers/peripheral/scb/cy_scb_common.h **** /*******************************************************************************
 632:Generated_Source\PSoC6\pdl\drivers/peripheral/scb/cy_scb_common.h **** * Function Name: Cy_SCB_GetRxSrValid
 633:Generated_Source\PSoC6\pdl\drivers/peripheral/scb/cy_scb_common.h **** ****************************************************************************//**
 634:Generated_Source\PSoC6\pdl\drivers/peripheral/scb/cy_scb_common.h **** *
 635:Generated_Source\PSoC6\pdl\drivers/peripheral/scb/cy_scb_common.h **** * Returns the status of the RX FIFO Shift Register valid bit.
 636:Generated_Source\PSoC6\pdl\drivers/peripheral/scb/cy_scb_common.h **** *
 637:Generated_Source\PSoC6\pdl\drivers/peripheral/scb/cy_scb_common.h **** * \param base
 638:Generated_Source\PSoC6\pdl\drivers/peripheral/scb/cy_scb_common.h **** * The pointer to the SCB instance.
 639:Generated_Source\PSoC6\pdl\drivers/peripheral/scb/cy_scb_common.h **** *
 640:Generated_Source\PSoC6\pdl\drivers/peripheral/scb/cy_scb_common.h **** * \return
 641:Generated_Source\PSoC6\pdl\drivers/peripheral/scb/cy_scb_common.h **** * 1 - RX shift register valid; 0 - RX shift register not valid.
 642:Generated_Source\PSoC6\pdl\drivers/peripheral/scb/cy_scb_common.h **** *
 643:Generated_Source\PSoC6\pdl\drivers/peripheral/scb/cy_scb_common.h **** *******************************************************************************/
 644:Generated_Source\PSoC6\pdl\drivers/peripheral/scb/cy_scb_common.h **** __STATIC_INLINE uint32_t Cy_SCB_GetRxSrValid(CySCB_Type const *base)
 645:Generated_Source\PSoC6\pdl\drivers/peripheral/scb/cy_scb_common.h **** {
 646:Generated_Source\PSoC6\pdl\drivers/peripheral/scb/cy_scb_common.h ****     return _FLD2VAL(SCB_RX_FIFO_STATUS_SR_VALID, base->RX_FIFO_STATUS);
 647:Generated_Source\PSoC6\pdl\drivers/peripheral/scb/cy_scb_common.h **** }
 648:Generated_Source\PSoC6\pdl\drivers/peripheral/scb/cy_scb_common.h **** 
 649:Generated_Source\PSoC6\pdl\drivers/peripheral/scb/cy_scb_common.h **** 
 650:Generated_Source\PSoC6\pdl\drivers/peripheral/scb/cy_scb_common.h **** /*******************************************************************************
 651:Generated_Source\PSoC6\pdl\drivers/peripheral/scb/cy_scb_common.h **** * Function Name: Cy_SCB_ClearRxFifo
 652:Generated_Source\PSoC6\pdl\drivers/peripheral/scb/cy_scb_common.h **** ****************************************************************************//**
 653:Generated_Source\PSoC6\pdl\drivers/peripheral/scb/cy_scb_common.h **** *
 654:Generated_Source\PSoC6\pdl\drivers/peripheral/scb/cy_scb_common.h **** * Clears the RX FIFO and shifter.
 655:Generated_Source\PSoC6\pdl\drivers/peripheral/scb/cy_scb_common.h **** *
 656:Generated_Source\PSoC6\pdl\drivers/peripheral/scb/cy_scb_common.h **** * \param base
 657:Generated_Source\PSoC6\pdl\drivers/peripheral/scb/cy_scb_common.h **** * The pointer to the SCB instance.
 658:Generated_Source\PSoC6\pdl\drivers/peripheral/scb/cy_scb_common.h **** *
 659:Generated_Source\PSoC6\pdl\drivers/peripheral/scb/cy_scb_common.h **** * \note
 660:Generated_Source\PSoC6\pdl\drivers/peripheral/scb/cy_scb_common.h **** * If there is partial data in the shifter, it is cleared and lost.
 661:Generated_Source\PSoC6\pdl\drivers/peripheral/scb/cy_scb_common.h **** *
 662:Generated_Source\PSoC6\pdl\drivers/peripheral/scb/cy_scb_common.h **** *******************************************************************************/
 663:Generated_Source\PSoC6\pdl\drivers/peripheral/scb/cy_scb_common.h **** __STATIC_INLINE void Cy_SCB_ClearRxFifo(CySCB_Type* base)
 664:Generated_Source\PSoC6\pdl\drivers/peripheral/scb/cy_scb_common.h **** {
 665:Generated_Source\PSoC6\pdl\drivers/peripheral/scb/cy_scb_common.h ****     base->RX_FIFO_CTRL |= (uint32_t)  SCB_RX_FIFO_CTRL_CLEAR_Msk;
 666:Generated_Source\PSoC6\pdl\drivers/peripheral/scb/cy_scb_common.h ****     base->RX_FIFO_CTRL &= (uint32_t) ~SCB_RX_FIFO_CTRL_CLEAR_Msk;
 667:Generated_Source\PSoC6\pdl\drivers/peripheral/scb/cy_scb_common.h **** 
 668:Generated_Source\PSoC6\pdl\drivers/peripheral/scb/cy_scb_common.h ****     (void) base->RX_FIFO_CTRL;
 669:Generated_Source\PSoC6\pdl\drivers/peripheral/scb/cy_scb_common.h **** }
 670:Generated_Source\PSoC6\pdl\drivers/peripheral/scb/cy_scb_common.h **** 
 671:Generated_Source\PSoC6\pdl\drivers/peripheral/scb/cy_scb_common.h **** 
 672:Generated_Source\PSoC6\pdl\drivers/peripheral/scb/cy_scb_common.h **** /*******************************************************************************
 673:Generated_Source\PSoC6\pdl\drivers/peripheral/scb/cy_scb_common.h **** * Function Name: Cy_SCB_WriteTxFifo
 674:Generated_Source\PSoC6\pdl\drivers/peripheral/scb/cy_scb_common.h **** ****************************************************************************//**
 675:Generated_Source\PSoC6\pdl\drivers/peripheral/scb/cy_scb_common.h **** *
 676:Generated_Source\PSoC6\pdl\drivers/peripheral/scb/cy_scb_common.h **** * Writes data directly into the TX FIFO.
 677:Generated_Source\PSoC6\pdl\drivers/peripheral/scb/cy_scb_common.h **** * This function does not check whether the TX FIFO is not full before writing
 678:Generated_Source\PSoC6\pdl\drivers/peripheral/scb/cy_scb_common.h **** * into it.
 679:Generated_Source\PSoC6\pdl\drivers/peripheral/scb/cy_scb_common.h **** *
 680:Generated_Source\PSoC6\pdl\drivers/peripheral/scb/cy_scb_common.h **** * \param base
 681:Generated_Source\PSoC6\pdl\drivers/peripheral/scb/cy_scb_common.h **** * The pointer to the SCB instance.
 682:Generated_Source\PSoC6\pdl\drivers/peripheral/scb/cy_scb_common.h **** *
 683:Generated_Source\PSoC6\pdl\drivers/peripheral/scb/cy_scb_common.h **** * \param data
 684:Generated_Source\PSoC6\pdl\drivers/peripheral/scb/cy_scb_common.h **** * Data to write to the TX FIFO.
ARM GAS  C:\Users\salaz\AppData\Local\Temp\cc7F8fiw.s 			page 15


 685:Generated_Source\PSoC6\pdl\drivers/peripheral/scb/cy_scb_common.h **** *
 686:Generated_Source\PSoC6\pdl\drivers/peripheral/scb/cy_scb_common.h **** *******************************************************************************/
 687:Generated_Source\PSoC6\pdl\drivers/peripheral/scb/cy_scb_common.h **** __STATIC_INLINE void Cy_SCB_WriteTxFifo(CySCB_Type* base, uint32_t data)
 688:Generated_Source\PSoC6\pdl\drivers/peripheral/scb/cy_scb_common.h **** {
 689:Generated_Source\PSoC6\pdl\drivers/peripheral/scb/cy_scb_common.h ****     base->TX_FIFO_WR = data;
 690:Generated_Source\PSoC6\pdl\drivers/peripheral/scb/cy_scb_common.h **** }
 691:Generated_Source\PSoC6\pdl\drivers/peripheral/scb/cy_scb_common.h **** 
 692:Generated_Source\PSoC6\pdl\drivers/peripheral/scb/cy_scb_common.h **** 
 693:Generated_Source\PSoC6\pdl\drivers/peripheral/scb/cy_scb_common.h **** /*******************************************************************************
 694:Generated_Source\PSoC6\pdl\drivers/peripheral/scb/cy_scb_common.h **** * Function Name: Cy_SCB_SetTxFifoLevel
 695:Generated_Source\PSoC6\pdl\drivers/peripheral/scb/cy_scb_common.h **** ****************************************************************************//**
 696:Generated_Source\PSoC6\pdl\drivers/peripheral/scb/cy_scb_common.h **** *
 697:Generated_Source\PSoC6\pdl\drivers/peripheral/scb/cy_scb_common.h **** * Sets the TX FIFO level. When there are fewer data elements in the TX FIFO than
 698:Generated_Source\PSoC6\pdl\drivers/peripheral/scb/cy_scb_common.h **** * this level, the TX FIFO level interrupt is triggered.
 699:Generated_Source\PSoC6\pdl\drivers/peripheral/scb/cy_scb_common.h **** *
 700:Generated_Source\PSoC6\pdl\drivers/peripheral/scb/cy_scb_common.h **** * \param base
 701:Generated_Source\PSoC6\pdl\drivers/peripheral/scb/cy_scb_common.h **** * The pointer to the SCB instance.
 702:Generated_Source\PSoC6\pdl\drivers/peripheral/scb/cy_scb_common.h **** *
 703:Generated_Source\PSoC6\pdl\drivers/peripheral/scb/cy_scb_common.h **** * \param level
 704:Generated_Source\PSoC6\pdl\drivers/peripheral/scb/cy_scb_common.h **** * When there are fewer data elements in the FIFO than this level, the TX level
 705:Generated_Source\PSoC6\pdl\drivers/peripheral/scb/cy_scb_common.h **** * interrupt is triggered.
 706:Generated_Source\PSoC6\pdl\drivers/peripheral/scb/cy_scb_common.h **** *
 707:Generated_Source\PSoC6\pdl\drivers/peripheral/scb/cy_scb_common.h **** *******************************************************************************/
 708:Generated_Source\PSoC6\pdl\drivers/peripheral/scb/cy_scb_common.h **** __STATIC_INLINE void Cy_SCB_SetTxFifoLevel(CySCB_Type *base, uint32_t level)
 709:Generated_Source\PSoC6\pdl\drivers/peripheral/scb/cy_scb_common.h **** {
 710:Generated_Source\PSoC6\pdl\drivers/peripheral/scb/cy_scb_common.h ****     CY_ASSERT_L2(CY_SCB_IS_TRIGGER_LEVEL_VALID(base, level));
 711:Generated_Source\PSoC6\pdl\drivers/peripheral/scb/cy_scb_common.h **** 
 712:Generated_Source\PSoC6\pdl\drivers/peripheral/scb/cy_scb_common.h ****     base->TX_FIFO_CTRL = _CLR_SET_FLD32U(base->TX_FIFO_CTRL, SCB_TX_FIFO_CTRL_TRIGGER_LEVEL, level)
 713:Generated_Source\PSoC6\pdl\drivers/peripheral/scb/cy_scb_common.h **** }
 714:Generated_Source\PSoC6\pdl\drivers/peripheral/scb/cy_scb_common.h **** 
 715:Generated_Source\PSoC6\pdl\drivers/peripheral/scb/cy_scb_common.h **** 
 716:Generated_Source\PSoC6\pdl\drivers/peripheral/scb/cy_scb_common.h **** /*******************************************************************************
 717:Generated_Source\PSoC6\pdl\drivers/peripheral/scb/cy_scb_common.h **** * Function Name: Cy_SCB_GetNumInTxFifo
 718:Generated_Source\PSoC6\pdl\drivers/peripheral/scb/cy_scb_common.h **** ****************************************************************************//**
 719:Generated_Source\PSoC6\pdl\drivers/peripheral/scb/cy_scb_common.h **** *
 720:Generated_Source\PSoC6\pdl\drivers/peripheral/scb/cy_scb_common.h **** * Returns the number of data elements currently in the TX FIFO.
 721:Generated_Source\PSoC6\pdl\drivers/peripheral/scb/cy_scb_common.h **** *
 722:Generated_Source\PSoC6\pdl\drivers/peripheral/scb/cy_scb_common.h **** * \param base
 723:Generated_Source\PSoC6\pdl\drivers/peripheral/scb/cy_scb_common.h **** * The pointer to the SCB instance.
 724:Generated_Source\PSoC6\pdl\drivers/peripheral/scb/cy_scb_common.h **** *
 725:Generated_Source\PSoC6\pdl\drivers/peripheral/scb/cy_scb_common.h **** * \return
 726:Generated_Source\PSoC6\pdl\drivers/peripheral/scb/cy_scb_common.h **** * The number or data elements in the TX FIFO.
 727:Generated_Source\PSoC6\pdl\drivers/peripheral/scb/cy_scb_common.h **** *
 728:Generated_Source\PSoC6\pdl\drivers/peripheral/scb/cy_scb_common.h **** *******************************************************************************/
 729:Generated_Source\PSoC6\pdl\drivers/peripheral/scb/cy_scb_common.h **** __STATIC_INLINE uint32_t Cy_SCB_GetNumInTxFifo(CySCB_Type const *base)
 730:Generated_Source\PSoC6\pdl\drivers/peripheral/scb/cy_scb_common.h **** {
 731:Generated_Source\PSoC6\pdl\drivers/peripheral/scb/cy_scb_common.h ****     return _FLD2VAL(SCB_TX_FIFO_STATUS_USED, base->TX_FIFO_STATUS);
  71              		.loc 2 731 0 discriminator 1
  72 001c C948     		ldr	r0, .L53+12
  73 001e 8221     		movs	r1, #130
  74 0020 8900     		lsls	r1, r1, #2
  75 0022 4358     		ldr	r3, [r0, r1]
  76 0024 DB05     		lsls	r3, r3, #23
  77 0026 DA0D     		lsrs	r2, r3, #23
  78              	.LVL1:
  79              	.LBE38:
  80              	.LBE37:
ARM GAS  C:\Users\salaz\AppData\Local\Temp\cc7F8fiw.s 			page 16


  81              	.LBB39:
  82              	.LBB40:
 732:Generated_Source\PSoC6\pdl\drivers/peripheral/scb/cy_scb_common.h **** }
 733:Generated_Source\PSoC6\pdl\drivers/peripheral/scb/cy_scb_common.h **** 
 734:Generated_Source\PSoC6\pdl\drivers/peripheral/scb/cy_scb_common.h **** 
 735:Generated_Source\PSoC6\pdl\drivers/peripheral/scb/cy_scb_common.h **** /*******************************************************************************
 736:Generated_Source\PSoC6\pdl\drivers/peripheral/scb/cy_scb_common.h **** * Function Name: Cy_SCB_GetTxSrValid
 737:Generated_Source\PSoC6\pdl\drivers/peripheral/scb/cy_scb_common.h **** ****************************************************************************//**
 738:Generated_Source\PSoC6\pdl\drivers/peripheral/scb/cy_scb_common.h **** *
 739:Generated_Source\PSoC6\pdl\drivers/peripheral/scb/cy_scb_common.h **** * Returns the status of the TX FIFO Shift Register valid bit.
 740:Generated_Source\PSoC6\pdl\drivers/peripheral/scb/cy_scb_common.h **** *
 741:Generated_Source\PSoC6\pdl\drivers/peripheral/scb/cy_scb_common.h **** * \param base
 742:Generated_Source\PSoC6\pdl\drivers/peripheral/scb/cy_scb_common.h **** * The pointer to the SCB instance.
 743:Generated_Source\PSoC6\pdl\drivers/peripheral/scb/cy_scb_common.h **** *
 744:Generated_Source\PSoC6\pdl\drivers/peripheral/scb/cy_scb_common.h **** * \return
 745:Generated_Source\PSoC6\pdl\drivers/peripheral/scb/cy_scb_common.h **** * 1 - TX shift register valid; 0 - TX shift register not valid.
 746:Generated_Source\PSoC6\pdl\drivers/peripheral/scb/cy_scb_common.h **** *
 747:Generated_Source\PSoC6\pdl\drivers/peripheral/scb/cy_scb_common.h **** *******************************************************************************/
 748:Generated_Source\PSoC6\pdl\drivers/peripheral/scb/cy_scb_common.h **** __STATIC_INLINE uint32_t Cy_SCB_GetTxSrValid(CySCB_Type const *base)
 749:Generated_Source\PSoC6\pdl\drivers/peripheral/scb/cy_scb_common.h **** {
 750:Generated_Source\PSoC6\pdl\drivers/peripheral/scb/cy_scb_common.h ****     return _FLD2VAL(SCB_TX_FIFO_STATUS_SR_VALID, base->TX_FIFO_STATUS);
  83              		.loc 2 750 0 discriminator 1
  84 0028 4358     		ldr	r3, [r0, r1]
  85 002a DB0B     		lsrs	r3, r3, #15
  86 002c 0121     		movs	r1, #1
  87 002e 0B40     		ands	r3, r1
  88              	.LVL2:
  89              	.LBE40:
  90              	.LBE39:
  45:AppControl.c  ****                 DEBUG_WAIT_UART_TX_COMPLETE();
  91              		.loc 1 45 0 discriminator 1
  92 0030 9B18     		adds	r3, r3, r2
  93 0032 002B     		cmp	r3, #0
  94 0034 F2D1     		bne	.L12
  46:AppControl.c  ****                 next_state = FSM_IDLE;
  95              		.loc 1 46 0
  96 0036 0122     		movs	r2, #1
  97 0038 BF4B     		ldr	r3, .L53
  98 003a 5A70     		strb	r2, [r3, #1]
  47:AppControl.c  ****                 break;
  99              		.loc 1 47 0
 100 003c ECE0     		b	.L2
 101              	.L5:
  48:AppControl.c  ****             }
  49:AppControl.c  ****             case FSM_IDLE:
  50:AppControl.c  ****             {
  51:AppControl.c  ****                 DEBUG_PRINTF("FSM_IDLE\r\n");
 102              		.loc 1 51 0
 103 003e C248     		ldr	r0, .L53+16
 104 0040 FFF7FEFF 		bl	puts
 105              	.LVL3:
 106              	.L13:
 107              	.LBB41:
 108              	.LBB42:
 731:Generated_Source\PSoC6\pdl\drivers/peripheral/scb/cy_scb_common.h **** }
 109              		.loc 2 731 0 discriminator 1
 110 0044 BF48     		ldr	r0, .L53+12
ARM GAS  C:\Users\salaz\AppData\Local\Temp\cc7F8fiw.s 			page 17


 111 0046 8221     		movs	r1, #130
 112 0048 8900     		lsls	r1, r1, #2
 113 004a 4358     		ldr	r3, [r0, r1]
 114 004c DB05     		lsls	r3, r3, #23
 115 004e DA0D     		lsrs	r2, r3, #23
 116              	.LVL4:
 117              	.LBE42:
 118              	.LBE41:
 119              	.LBB43:
 120              	.LBB44:
 121              		.loc 2 750 0 discriminator 1
 122 0050 4358     		ldr	r3, [r0, r1]
 123 0052 DB0B     		lsrs	r3, r3, #15
 124 0054 0121     		movs	r1, #1
 125 0056 0B40     		ands	r3, r1
 126              	.LVL5:
 127              	.LBE44:
 128              	.LBE43:
  52:AppControl.c  ****                 DEBUG_WAIT_UART_TX_COMPLETE();
 129              		.loc 1 52 0 discriminator 1
 130 0058 9B18     		adds	r3, r3, r2
 131 005a 002B     		cmp	r3, #0
 132 005c F2D1     		bne	.L13
  53:AppControl.c  ****                 if (KinOS_ShakeDetected()) 
 133              		.loc 1 53 0
 134 005e FFF7FEFF 		bl	KinOS_ShakeDetected
 135              	.LVL6:
 136 0062 0028     		cmp	r0, #0
 137 0064 02D0     		beq	.L14
  54:AppControl.c  ****                 {
  55:AppControl.c  ****                     next_state = FSM_CHECK_MOTION;
 138              		.loc 1 55 0
 139 0066 0222     		movs	r2, #2
 140 0068 B34B     		ldr	r3, .L53
 141 006a 5A70     		strb	r2, [r3, #1]
 142              	.L14:
  56:AppControl.c  ****                 }
  57:AppControl.c  ****                 KinOS_Advertise(verifyAdvertise_s,50);
 143              		.loc 1 57 0
 144 006c B74B     		ldr	r3, .L53+20
 145 006e 1888     		ldrh	r0, [r3]
 146 0070 3221     		movs	r1, #50
 147 0072 FFF7FEFF 		bl	KinOS_Advertise
 148              	.LVL7:
  58:AppControl.c  ****                 break;
 149              		.loc 1 58 0
 150 0076 CFE0     		b	.L2
 151              	.L6:
  59:AppControl.c  ****             }
  60:AppControl.c  ****             case FSM_CHECK_MOTION:
  61:AppControl.c  ****             {
  62:AppControl.c  ****                 DEBUG_PRINTF("FSM_CHECK_MOTION\r\n");
 152              		.loc 1 62 0
 153 0078 B548     		ldr	r0, .L53+24
 154 007a FFF7FEFF 		bl	puts
 155              	.LVL8:
 156              	.L15:
ARM GAS  C:\Users\salaz\AppData\Local\Temp\cc7F8fiw.s 			page 18


 157              	.LBB45:
 158              	.LBB46:
 731:Generated_Source\PSoC6\pdl\drivers/peripheral/scb/cy_scb_common.h **** }
 159              		.loc 2 731 0 discriminator 1
 160 007e B148     		ldr	r0, .L53+12
 161 0080 8221     		movs	r1, #130
 162 0082 8900     		lsls	r1, r1, #2
 163 0084 4358     		ldr	r3, [r0, r1]
 164 0086 DB05     		lsls	r3, r3, #23
 165 0088 DA0D     		lsrs	r2, r3, #23
 166              	.LVL9:
 167              	.LBE46:
 168              	.LBE45:
 169              	.LBB47:
 170              	.LBB48:
 171              		.loc 2 750 0 discriminator 1
 172 008a 4358     		ldr	r3, [r0, r1]
 173 008c DB0B     		lsrs	r3, r3, #15
 174 008e 0121     		movs	r1, #1
 175 0090 0B40     		ands	r3, r1
 176              	.LVL10:
 177              	.LBE48:
 178              	.LBE47:
  63:AppControl.c  ****                 DEBUG_WAIT_UART_TX_COMPLETE();
 179              		.loc 1 63 0 discriminator 1
 180 0092 9B18     		adds	r3, r3, r2
 181 0094 002B     		cmp	r3, #0
 182 0096 F2D1     		bne	.L15
  64:AppControl.c  ****                 // latch the first 2 seconds
  65:AppControl.c  ****                 if (KinOS_CheckTimerB()) 
 183              		.loc 1 65 0
 184 0098 FFF7FEFF 		bl	KinOS_CheckTimerB
 185              	.LVL11:
 186 009c 0028     		cmp	r0, #0
 187 009e 02D0     		beq	.L16
  66:AppControl.c  ****                 {
  67:AppControl.c  ****                     motion_latch = false;
 188              		.loc 1 67 0
 189 00a0 0022     		movs	r2, #0
 190 00a2 A54B     		ldr	r3, .L53
 191 00a4 9A70     		strb	r2, [r3, #2]
 192              	.L16:
  68:AppControl.c  ****                 }
  69:AppControl.c  ****                 
  70:AppControl.c  ****                 if (motion_latch)
 193              		.loc 1 70 0
 194 00a6 A44B     		ldr	r3, .L53
 195 00a8 9B78     		ldrb	r3, [r3, #2]
 196 00aa 002B     		cmp	r3, #0
 197 00ac 02D0     		beq	.L17
  71:AppControl.c  ****                 {
  72:AppControl.c  ****                     KinOS_ShakeDetected();
 198              		.loc 1 72 0
 199 00ae FFF7FEFF 		bl	KinOS_ShakeDetected
 200              	.LVL12:
 201 00b2 B1E0     		b	.L2
 202              	.L17:
ARM GAS  C:\Users\salaz\AppData\Local\Temp\cc7F8fiw.s 			page 19


  73:AppControl.c  ****                 }
  74:AppControl.c  ****                 else if (KinOS_CheckTimerA())
 203              		.loc 1 74 0
 204 00b4 FFF7FEFF 		bl	KinOS_CheckTimerA
 205              	.LVL13:
 206 00b8 0028     		cmp	r0, #0
 207 00ba 00D1     		bne	.LCB164
 208 00bc ACE0     		b	.L2	@long jump
 209              	.LCB164:
  75:AppControl.c  ****                 {
  76:AppControl.c  ****                     if (KinOS_ShakeDetected())
 210              		.loc 1 76 0
 211 00be FFF7FEFF 		bl	KinOS_ShakeDetected
 212              	.LVL14:
 213 00c2 0028     		cmp	r0, #0
 214 00c4 03D0     		beq	.L18
  77:AppControl.c  ****                     {
  78:AppControl.c  ****                         next_state = FSM_VERIFY_USER;
 215              		.loc 1 78 0
 216 00c6 0322     		movs	r2, #3
 217 00c8 9B4B     		ldr	r3, .L53
 218 00ca 5A70     		strb	r2, [r3, #1]
 219 00cc A4E0     		b	.L2
 220              	.L18:
  79:AppControl.c  ****                     }
  80:AppControl.c  ****                     else
  81:AppControl.c  ****                     {
  82:AppControl.c  ****                         next_state = FSM_IDLE;
 221              		.loc 1 82 0
 222 00ce 0122     		movs	r2, #1
 223 00d0 994B     		ldr	r3, .L53
 224 00d2 5A70     		strb	r2, [r3, #1]
 225 00d4 A0E0     		b	.L2
 226              	.L7:
  83:AppControl.c  ****                     }
  84:AppControl.c  ****                 }
  85:AppControl.c  ****                 break;
  86:AppControl.c  ****             }
  87:AppControl.c  ****             case FSM_VERIFY_USER:
  88:AppControl.c  ****             {
  89:AppControl.c  ****                 DEBUG_PRINTF("FSM_VERIFY_USER\r\n");
 227              		.loc 1 89 0
 228 00d6 9F48     		ldr	r0, .L53+28
 229 00d8 FFF7FEFF 		bl	puts
 230              	.LVL15:
 231              	.L19:
 232              	.LBB49:
 233              	.LBB50:
 731:Generated_Source\PSoC6\pdl\drivers/peripheral/scb/cy_scb_common.h **** }
 234              		.loc 2 731 0 discriminator 1
 235 00dc 9948     		ldr	r0, .L53+12
 236 00de 8221     		movs	r1, #130
 237 00e0 8900     		lsls	r1, r1, #2
 238 00e2 4358     		ldr	r3, [r0, r1]
 239 00e4 DB05     		lsls	r3, r3, #23
 240 00e6 DA0D     		lsrs	r2, r3, #23
 241              	.LVL16:
ARM GAS  C:\Users\salaz\AppData\Local\Temp\cc7F8fiw.s 			page 20


 242              	.LBE50:
 243              	.LBE49:
 244              	.LBB51:
 245              	.LBB52:
 246              		.loc 2 750 0 discriminator 1
 247 00e8 4358     		ldr	r3, [r0, r1]
 248 00ea DB0B     		lsrs	r3, r3, #15
 249 00ec 0121     		movs	r1, #1
 250 00ee 0B40     		ands	r3, r1
 251              	.LVL17:
 252              	.LBE52:
 253              	.LBE51:
  90:AppControl.c  ****                 DEBUG_WAIT_UART_TX_COMPLETE();
 254              		.loc 1 90 0 discriminator 1
 255 00f0 9B18     		adds	r3, r3, r2
 256 00f2 002B     		cmp	r3, #0
 257 00f4 F2D1     		bne	.L19
  91:AppControl.c  ****                 if (KinOS_IsConnected()) 
 258              		.loc 1 91 0
 259 00f6 FFF7FEFF 		bl	KinOS_IsConnected
 260              	.LVL18:
 261 00fa 0028     		cmp	r0, #0
 262 00fc 03D0     		beq	.L20
  92:AppControl.c  ****                 {
  93:AppControl.c  ****                     next_state = FSM_RIDE;
 263              		.loc 1 93 0
 264 00fe 0722     		movs	r2, #7
 265 0100 8D4B     		ldr	r3, .L53
 266 0102 5A70     		strb	r2, [r3, #1]
 267 0104 88E0     		b	.L2
 268              	.L20:
  94:AppControl.c  ****                 }
  95:AppControl.c  ****                 else if (!KinOS_IsAdvertising())
 269              		.loc 1 95 0
 270 0106 FFF7FEFF 		bl	KinOS_IsAdvertising
 271              	.LVL19:
 272 010a 0028     		cmp	r0, #0
 273 010c 00D0     		beq	.LCB227
 274 010e 83E0     		b	.L2	@long jump
 275              	.LCB227:
  96:AppControl.c  ****                 {
  97:AppControl.c  ****                     next_state = FSM_STOLEN;
 276              		.loc 1 97 0
 277 0110 0422     		movs	r2, #4
 278 0112 894B     		ldr	r3, .L53
 279 0114 5A70     		strb	r2, [r3, #1]
 280 0116 7FE0     		b	.L2
 281              	.L8:
  98:AppControl.c  ****                 }
  99:AppControl.c  ****                 break;
 100:AppControl.c  ****             }
 101:AppControl.c  ****             case FSM_STOLEN:
 102:AppControl.c  ****             {
 103:AppControl.c  ****                 DEBUG_PRINTF("FSM_STOLEN\r\n");
 282              		.loc 1 103 0
 283 0118 8F48     		ldr	r0, .L53+32
 284 011a FFF7FEFF 		bl	puts
ARM GAS  C:\Users\salaz\AppData\Local\Temp\cc7F8fiw.s 			page 21


 285              	.LVL20:
 286              	.L21:
 287              	.LBB53:
 288              	.LBB54:
 731:Generated_Source\PSoC6\pdl\drivers/peripheral/scb/cy_scb_common.h **** }
 289              		.loc 2 731 0 discriminator 1
 290 011e 8948     		ldr	r0, .L53+12
 291 0120 8221     		movs	r1, #130
 292 0122 8900     		lsls	r1, r1, #2
 293 0124 4358     		ldr	r3, [r0, r1]
 294 0126 DB05     		lsls	r3, r3, #23
 295 0128 DA0D     		lsrs	r2, r3, #23
 296              	.LVL21:
 297              	.LBE54:
 298              	.LBE53:
 299              	.LBB55:
 300              	.LBB56:
 301              		.loc 2 750 0 discriminator 1
 302 012a 4358     		ldr	r3, [r0, r1]
 303 012c DB0B     		lsrs	r3, r3, #15
 304 012e 0121     		movs	r1, #1
 305 0130 0B40     		ands	r3, r1
 306              	.LVL22:
 307              	.LBE56:
 308              	.LBE55:
 104:AppControl.c  ****                 DEBUG_WAIT_UART_TX_COMPLETE();
 309              		.loc 1 104 0 discriminator 1
 310 0132 9B18     		adds	r3, r3, r2
 311 0134 002B     		cmp	r3, #0
 312 0136 F2D1     		bne	.L21
 105:AppControl.c  ****                 if (KinOS_IsConnected())
 313              		.loc 1 105 0
 314 0138 FFF7FEFF 		bl	KinOS_IsConnected
 315              	.LVL23:
 316 013c 0028     		cmp	r0, #0
 317 013e 03D0     		beq	.L22
 106:AppControl.c  ****                 {
 107:AppControl.c  ****                     next_state = FSM_RIDE;
 318              		.loc 1 107 0
 319 0140 0722     		movs	r2, #7
 320 0142 7D4B     		ldr	r3, .L53
 321 0144 5A70     		strb	r2, [r3, #1]
 322 0146 67E0     		b	.L2
 323              	.L22:
 108:AppControl.c  ****                 }    
 109:AppControl.c  ****                 else if (!KinOS_IsAdvertising())
 324              		.loc 1 109 0
 325 0148 FFF7FEFF 		bl	KinOS_IsAdvertising
 326              	.LVL24:
 327 014c 0028     		cmp	r0, #0
 328 014e 63D1     		bne	.L2
 110:AppControl.c  ****                 {
 111:AppControl.c  ****                     if (KinOS_ShakeDetected())
 329              		.loc 1 111 0
 330 0150 FFF7FEFF 		bl	KinOS_ShakeDetected
 331              	.LVL25:
 332 0154 0028     		cmp	r0, #0
ARM GAS  C:\Users\salaz\AppData\Local\Temp\cc7F8fiw.s 			page 22


 333 0156 03D0     		beq	.L23
 112:AppControl.c  ****                     {
 113:AppControl.c  ****                         next_state = FSM_STOLEN;
 334              		.loc 1 113 0
 335 0158 0422     		movs	r2, #4
 336 015a 774B     		ldr	r3, .L53
 337 015c 5A70     		strb	r2, [r3, #1]
 338 015e 5BE0     		b	.L2
 339              	.L23:
 114:AppControl.c  ****                     }
 115:AppControl.c  ****                     else
 116:AppControl.c  ****                     {
 117:AppControl.c  ****                         next_state = FSM_IDLE;
 340              		.loc 1 117 0
 341 0160 0122     		movs	r2, #1
 342 0162 754B     		ldr	r3, .L53
 343 0164 5A70     		strb	r2, [r3, #1]
 344 0166 57E0     		b	.L2
 345              	.L11:
 118:AppControl.c  ****                     }
 119:AppControl.c  ****                 }
 120:AppControl.c  ****                 break;
 121:AppControl.c  ****             }
 122:AppControl.c  ****             case FSM_RIDE:
 123:AppControl.c  ****             {
 124:AppControl.c  ****                 DEBUG_PRINTF("FSM_RIDE\r\n");
 346              		.loc 1 124 0
 347 0168 7C48     		ldr	r0, .L53+36
 348 016a FFF7FEFF 		bl	puts
 349              	.LVL26:
 350              	.L24:
 351              	.LBB57:
 352              	.LBB58:
 731:Generated_Source\PSoC6\pdl\drivers/peripheral/scb/cy_scb_common.h **** }
 353              		.loc 2 731 0 discriminator 1
 354 016e 7548     		ldr	r0, .L53+12
 355 0170 8221     		movs	r1, #130
 356 0172 8900     		lsls	r1, r1, #2
 357 0174 4358     		ldr	r3, [r0, r1]
 358 0176 DB05     		lsls	r3, r3, #23
 359 0178 DA0D     		lsrs	r2, r3, #23
 360              	.LVL27:
 361              	.LBE58:
 362              	.LBE57:
 363              	.LBB59:
 364              	.LBB60:
 365              		.loc 2 750 0 discriminator 1
 366 017a 4358     		ldr	r3, [r0, r1]
 367 017c DB0B     		lsrs	r3, r3, #15
 368 017e 0121     		movs	r1, #1
 369 0180 0B40     		ands	r3, r1
 370              	.LVL28:
 371              	.LBE60:
 372              	.LBE59:
 125:AppControl.c  ****                 DEBUG_WAIT_UART_TX_COMPLETE();
 373              		.loc 1 125 0 discriminator 1
 374 0182 9B18     		adds	r3, r3, r2
ARM GAS  C:\Users\salaz\AppData\Local\Temp\cc7F8fiw.s 			page 23


 375 0184 002B     		cmp	r3, #0
 376 0186 F2D1     		bne	.L24
 126:AppControl.c  ****                 if (KinOS_CheckTimerA())
 377              		.loc 1 126 0
 378 0188 FFF7FEFF 		bl	KinOS_CheckTimerA
 379              	.LVL29:
 380 018c 0028     		cmp	r0, #0
 381 018e 43D0     		beq	.L2
 127:AppControl.c  ****                 {
 128:AppControl.c  ****                     if (KinOS_ShakeDetected())
 382              		.loc 1 128 0
 383 0190 FFF7FEFF 		bl	KinOS_ShakeDetected
 384              	.LVL30:
 385 0194 0028     		cmp	r0, #0
 386 0196 14D0     		beq	.L25
 387              	.LBB61:
 129:AppControl.c  ****                     {
 130:AppControl.c  ****                         epoch dateAndTime = KinOS_GetDateAndTime();
 388              		.loc 1 130 0
 389 0198 01AC     		add	r4, sp, #4
 390 019a 2000     		movs	r0, r4
 391 019c FFF7FEFF 		bl	KinOS_GetDateAndTime
 392              	.LVL31:
 131:AppControl.c  ****                         if (dateAndTime.hour > morningThreshold && 
 393              		.loc 1 131 0
 394 01a0 E388     		ldrh	r3, [r4, #6]
 395 01a2 6A4A     		ldr	r2, .L53+20
 396 01a4 5288     		ldrh	r2, [r2, #2]
 397 01a6 9342     		cmp	r3, r2
 398 01a8 07D9     		bls	.L26
 132:AppControl.c  ****                             dateAndTime.hour < nightThreshold)
 399              		.loc 1 132 0 discriminator 1
 400 01aa 684A     		ldr	r2, .L53+20
 401 01ac 9288     		ldrh	r2, [r2, #4]
 131:AppControl.c  ****                         if (dateAndTime.hour > morningThreshold && 
 402              		.loc 1 131 0 discriminator 1
 403 01ae 9342     		cmp	r3, r2
 404 01b0 03D2     		bcs	.L26
 133:AppControl.c  ****                         {
 134:AppControl.c  ****                             next_state = FSM_DAY;
 405              		.loc 1 134 0
 406 01b2 0522     		movs	r2, #5
 407 01b4 604B     		ldr	r3, .L53
 408 01b6 5A70     		strb	r2, [r3, #1]
 409 01b8 2EE0     		b	.L2
 410              	.L26:
 135:AppControl.c  ****                         }
 136:AppControl.c  ****                         else
 137:AppControl.c  ****                         {
 138:AppControl.c  ****                             next_state = FSM_NIGHT;
 411              		.loc 1 138 0
 412 01ba 0622     		movs	r2, #6
 413 01bc 5E4B     		ldr	r3, .L53
 414 01be 5A70     		strb	r2, [r3, #1]
 415 01c0 2AE0     		b	.L2
 416              	.L25:
 417              	.LBE61:
ARM GAS  C:\Users\salaz\AppData\Local\Temp\cc7F8fiw.s 			page 24


 139:AppControl.c  ****                         }
 140:AppControl.c  ****                     }
 141:AppControl.c  ****                     else
 142:AppControl.c  ****                     {
 143:AppControl.c  ****                         next_state = FSM_IDLE;
 418              		.loc 1 143 0
 419 01c2 0122     		movs	r2, #1
 420 01c4 5C4B     		ldr	r3, .L53
 421 01c6 5A70     		strb	r2, [r3, #1]
 422 01c8 26E0     		b	.L2
 423              	.L9:
 144:AppControl.c  ****                     }
 145:AppControl.c  ****                 }
 146:AppControl.c  ****                 break;
 147:AppControl.c  ****             }
 148:AppControl.c  ****             case FSM_DAY:
 149:AppControl.c  ****             {
 150:AppControl.c  ****                 DEBUG_PRINTF("FSM_DAY\r\n");
 424              		.loc 1 150 0
 425 01ca 6548     		ldr	r0, .L53+40
 426 01cc FFF7FEFF 		bl	puts
 427              	.LVL32:
 428              	.L28:
 429              	.LBB62:
 430              	.LBB63:
 731:Generated_Source\PSoC6\pdl\drivers/peripheral/scb/cy_scb_common.h **** }
 431              		.loc 2 731 0 discriminator 1
 432 01d0 5C48     		ldr	r0, .L53+12
 433 01d2 8221     		movs	r1, #130
 434 01d4 8900     		lsls	r1, r1, #2
 435 01d6 4358     		ldr	r3, [r0, r1]
 436 01d8 DB05     		lsls	r3, r3, #23
 437 01da DA0D     		lsrs	r2, r3, #23
 438              	.LVL33:
 439              	.LBE63:
 440              	.LBE62:
 441              	.LBB64:
 442              	.LBB65:
 443              		.loc 2 750 0 discriminator 1
 444 01dc 4358     		ldr	r3, [r0, r1]
 445 01de DB0B     		lsrs	r3, r3, #15
 446 01e0 0121     		movs	r1, #1
 447 01e2 0B40     		ands	r3, r1
 448              	.LVL34:
 449              	.LBE65:
 450              	.LBE64:
 151:AppControl.c  ****                 DEBUG_WAIT_UART_TX_COMPLETE();
 451              		.loc 1 151 0 discriminator 1
 452 01e4 9B18     		adds	r3, r3, r2
 453 01e6 002B     		cmp	r3, #0
 454 01e8 F2D1     		bne	.L28
 152:AppControl.c  ****                 next_state = FSM_RIDE;
 455              		.loc 1 152 0
 456 01ea 0722     		movs	r2, #7
 457 01ec 524B     		ldr	r3, .L53
 458 01ee 5A70     		strb	r2, [r3, #1]
 153:AppControl.c  ****                 break;
ARM GAS  C:\Users\salaz\AppData\Local\Temp\cc7F8fiw.s 			page 25


 459              		.loc 1 153 0
 460 01f0 12E0     		b	.L2
 461              	.L10:
 154:AppControl.c  ****             }
 155:AppControl.c  ****             case FSM_NIGHT:
 156:AppControl.c  ****             {
 157:AppControl.c  ****                 DEBUG_PRINTF("FSM_NIGHT\r\n");
 462              		.loc 1 157 0
 463 01f2 5C48     		ldr	r0, .L53+44
 464 01f4 FFF7FEFF 		bl	puts
 465              	.LVL35:
 466              	.L29:
 467              	.LBB66:
 468              	.LBB67:
 731:Generated_Source\PSoC6\pdl\drivers/peripheral/scb/cy_scb_common.h **** }
 469              		.loc 2 731 0 discriminator 1
 470 01f8 5248     		ldr	r0, .L53+12
 471 01fa 8221     		movs	r1, #130
 472 01fc 8900     		lsls	r1, r1, #2
 473 01fe 4358     		ldr	r3, [r0, r1]
 474 0200 DB05     		lsls	r3, r3, #23
 475 0202 DA0D     		lsrs	r2, r3, #23
 476              	.LVL36:
 477              	.LBE67:
 478              	.LBE66:
 479              	.LBB68:
 480              	.LBB69:
 481              		.loc 2 750 0 discriminator 1
 482 0204 4358     		ldr	r3, [r0, r1]
 483 0206 DB0B     		lsrs	r3, r3, #15
 484 0208 0121     		movs	r1, #1
 485 020a 0B40     		ands	r3, r1
 486              	.LVL37:
 487              	.LBE69:
 488              	.LBE68:
 158:AppControl.c  ****                 DEBUG_WAIT_UART_TX_COMPLETE();
 489              		.loc 1 158 0 discriminator 1
 490 020c 9B18     		adds	r3, r3, r2
 491 020e 002B     		cmp	r3, #0
 492 0210 F2D1     		bne	.L29
 159:AppControl.c  ****                 next_state = FSM_RIDE;
 493              		.loc 1 159 0
 494 0212 0722     		movs	r2, #7
 495 0214 484B     		ldr	r3, .L53
 496 0216 5A70     		strb	r2, [r3, #1]
 497              	.L2:
 160:AppControl.c  ****                 break;
 161:AppControl.c  ****             }
 162:AppControl.c  ****         }
 163:AppControl.c  ****         //-----------------------------------------------------//
 164:AppControl.c  ****         //------------------Transition-Outputs-----------------//
 165:AppControl.c  ****         
 166:AppControl.c  ****         switch(current_state)
 498              		.loc 1 166 0
 499 0218 474B     		ldr	r3, .L53
 500 021a 1A78     		ldrb	r2, [r3]
 501 021c 072A     		cmp	r2, #7
ARM GAS  C:\Users\salaz\AppData\Local\Temp\cc7F8fiw.s 			page 26


 502 021e 00D9     		bls	.LCB447
 503 0220 B7E0     		b	.L30	@long jump
 504              	.LCB447:
 505 0222 9300     		lsls	r3, r2, #2
 506 0224 504A     		ldr	r2, .L53+48
 507 0226 D358     		ldr	r3, [r2, r3]
 508 0228 9F46     		mov	pc, r3
 509              		.section	.rodata
 510              		.align	2
 511              	.L32:
 512 0020 92030000 		.word	.L30
 513 0024 2A020000 		.word	.L31
 514 0028 4A020000 		.word	.L33
 515 002c 6C020000 		.word	.L34
 516 0030 A2020000 		.word	.L35
 517 0034 70030000 		.word	.L36
 518 0038 82030000 		.word	.L37
 519 003c F0020000 		.word	.L38
 520              		.section	.text.AppControlHandler
 521              	.L31:
 167:AppControl.c  ****         {
 168:AppControl.c  ****             case FSM_INITIALIZE: 
 169:AppControl.c  ****             {
 170:AppControl.c  ****                 break;
 171:AppControl.c  ****             }
 172:AppControl.c  ****             case FSM_IDLE:
 173:AppControl.c  ****             {
 174:AppControl.c  ****                 switch(next_state)
 522              		.loc 1 174 0
 523 022a 434B     		ldr	r3, .L53
 524 022c 5B78     		ldrb	r3, [r3, #1]
 525 022e 022B     		cmp	r3, #2
 526 0230 00D0     		beq	.LCB463
 527 0232 AEE0     		b	.L30	@long jump
 528              	.LCB463:
 175:AppControl.c  ****                 {
 176:AppControl.c  ****                     case FSM_CHECK_MOTION:
 177:AppControl.c  ****                     {
 178:AppControl.c  ****                         KinOS_SetupTimerA(10000);
 529              		.loc 1 178 0
 530 0234 4D48     		ldr	r0, .L53+52
 531 0236 FFF7FEFF 		bl	KinOS_SetupTimerA
 532              	.LVL38:
 179:AppControl.c  ****                         KinOS_SetupTimerB(4000);
 533              		.loc 1 179 0
 534 023a FA20     		movs	r0, #250
 535 023c 0001     		lsls	r0, r0, #4
 536 023e FFF7FEFF 		bl	KinOS_SetupTimerB
 537              	.LVL39:
 180:AppControl.c  ****                         motion_latch = true;
 538              		.loc 1 180 0
 539 0242 0122     		movs	r2, #1
 540 0244 3C4B     		ldr	r3, .L53
 541 0246 9A70     		strb	r2, [r3, #2]
 181:AppControl.c  ****                         break;
 542              		.loc 1 181 0
 543 0248 A3E0     		b	.L30
ARM GAS  C:\Users\salaz\AppData\Local\Temp\cc7F8fiw.s 			page 27


 544              	.L33:
 182:AppControl.c  ****                     }
 183:AppControl.c  ****                 }
 184:AppControl.c  ****                 break;
 185:AppControl.c  ****             }
 186:AppControl.c  ****             case FSM_CHECK_MOTION:
 187:AppControl.c  ****             {
 188:AppControl.c  ****                 switch(next_state)
 545              		.loc 1 188 0
 546 024a 3B4B     		ldr	r3, .L53
 547 024c 5B78     		ldrb	r3, [r3, #1]
 548 024e 032B     		cmp	r3, #3
 549 0250 00D0     		beq	.LCB482
 550 0252 9EE0     		b	.L30	@long jump
 551              	.LCB482:
 189:AppControl.c  ****                 {
 190:AppControl.c  ****                     case FSM_VERIFY_USER:
 191:AppControl.c  ****                     {
 192:AppControl.c  ****                         KinOS_ConfigureLight(BLUE,BOUNCE,verifyLightCycles,255);
 552              		.loc 1 192 0
 553 0254 3D4C     		ldr	r4, .L53+20
 554 0256 A279     		ldrb	r2, [r4, #6]
 555 0258 FC33     		adds	r3, r3, #252
 556 025a 0121     		movs	r1, #1
 557 025c 0420     		movs	r0, #4
 558 025e FFF7FEFF 		bl	KinOS_ConfigureLight
 559              	.LVL40:
 193:AppControl.c  ****                         KinOS_Advertise(verifyAdvertise_s,50);
 560              		.loc 1 193 0
 561 0262 2088     		ldrh	r0, [r4]
 562 0264 3221     		movs	r1, #50
 563 0266 FFF7FEFF 		bl	KinOS_Advertise
 564              	.LVL41:
 194:AppControl.c  ****                         break;
 565              		.loc 1 194 0
 566 026a 92E0     		b	.L30
 567              	.L34:
 195:AppControl.c  ****                     }
 196:AppControl.c  ****                 }
 197:AppControl.c  ****                 break;
 198:AppControl.c  ****             }
 199:AppControl.c  ****             case FSM_VERIFY_USER:
 200:AppControl.c  ****             {
 201:AppControl.c  ****                 switch(next_state)
 568              		.loc 1 201 0
 569 026c 324B     		ldr	r3, .L53
 570 026e 5B78     		ldrb	r3, [r3, #1]
 571 0270 042B     		cmp	r3, #4
 572 0272 02D0     		beq	.L41
 573 0274 072B     		cmp	r3, #7
 574 0276 10D0     		beq	.L42
 575 0278 8BE0     		b	.L30
 576              	.L41:
 202:AppControl.c  ****                 {
 203:AppControl.c  ****                     case FSM_STOLEN:
 204:AppControl.c  ****                     {
 205:AppControl.c  ****                         KinOS_ConfigureChime(BOOBOO,stolenLightCycles);
ARM GAS  C:\Users\salaz\AppData\Local\Temp\cc7F8fiw.s 			page 28


 577              		.loc 1 205 0
 578 027a 344C     		ldr	r4, .L53+20
 579 027c E179     		ldrb	r1, [r4, #7]
 580 027e 0220     		movs	r0, #2
 581 0280 FFF7FEFF 		bl	KinOS_ConfigureChime
 582              	.LVL42:
 206:AppControl.c  ****                         KinOS_ConfigureLight(RED,SMOOTH,stolenLightCycles,255);
 583              		.loc 1 206 0
 584 0284 E279     		ldrb	r2, [r4, #7]
 585 0286 FF23     		movs	r3, #255
 586 0288 0021     		movs	r1, #0
 587 028a 0020     		movs	r0, #0
 588 028c FFF7FEFF 		bl	KinOS_ConfigureLight
 589              	.LVL43:
 207:AppControl.c  ****                         KinOS_Advertise(stolenAdvertise_s,50);
 590              		.loc 1 207 0
 591 0290 2089     		ldrh	r0, [r4, #8]
 592 0292 3221     		movs	r1, #50
 593 0294 FFF7FEFF 		bl	KinOS_Advertise
 594              	.LVL44:
 208:AppControl.c  ****                         break;
 595              		.loc 1 208 0
 596 0298 7BE0     		b	.L30
 597              	.L42:
 209:AppControl.c  ****                     }
 210:AppControl.c  ****                     case FSM_RIDE:
 211:AppControl.c  ****                     {
 212:AppControl.c  ****                         KinOS_SetupTimerA(5);
 598              		.loc 1 212 0
 599 029a 0520     		movs	r0, #5
 600 029c FFF7FEFF 		bl	KinOS_SetupTimerA
 601              	.LVL45:
 213:AppControl.c  ****                         break;
 602              		.loc 1 213 0
 603 02a0 77E0     		b	.L30
 604              	.L35:
 214:AppControl.c  ****                     }
 215:AppControl.c  ****                 }
 216:AppControl.c  ****                 break;
 217:AppControl.c  ****             }
 218:AppControl.c  ****             case FSM_STOLEN:
 219:AppControl.c  ****             {
 220:AppControl.c  ****                 switch(next_state)
 605              		.loc 1 220 0
 606 02a2 254B     		ldr	r3, .L53
 607 02a4 5B78     		ldrb	r3, [r3, #1]
 608 02a6 042B     		cmp	r3, #4
 609 02a8 0ED0     		beq	.L43
 610 02aa 072B     		cmp	r3, #7
 611 02ac 1CD0     		beq	.L44
 612 02ae 012B     		cmp	r3, #1
 613 02b0 6FD1     		bne	.L30
 221:AppControl.c  ****                 {
 222:AppControl.c  ****                     case FSM_IDLE:
 223:AppControl.c  ****                     {
 224:AppControl.c  ****                         KinOS_ConfigureChime(BOOBOO,0);
 614              		.loc 1 224 0
ARM GAS  C:\Users\salaz\AppData\Local\Temp\cc7F8fiw.s 			page 29


 615 02b2 0021     		movs	r1, #0
 616 02b4 0220     		movs	r0, #2
 617 02b6 FFF7FEFF 		bl	KinOS_ConfigureChime
 618              	.LVL46:
 225:AppControl.c  ****                         KinOS_ConfigureLight(WHITE,SMOOTH,0,0);
 619              		.loc 1 225 0
 620 02ba 0023     		movs	r3, #0
 621 02bc 0022     		movs	r2, #0
 622 02be 0021     		movs	r1, #0
 623 02c0 0620     		movs	r0, #6
 624 02c2 FFF7FEFF 		bl	KinOS_ConfigureLight
 625              	.LVL47:
 226:AppControl.c  ****                         break;
 626              		.loc 1 226 0
 627 02c6 64E0     		b	.L30
 628              	.L43:
 227:AppControl.c  ****                     }
 228:AppControl.c  ****                     case FSM_STOLEN:
 229:AppControl.c  ****                     {
 230:AppControl.c  ****                         KinOS_ConfigureChime(BOOBOO,rideNightCheck_ms);
 629              		.loc 1 230 0
 630 02c8 204C     		ldr	r4, .L53+20
 631 02ca 217B     		ldrb	r1, [r4, #12]
 632 02cc 0220     		movs	r0, #2
 633 02ce FFF7FEFF 		bl	KinOS_ConfigureChime
 634              	.LVL48:
 231:AppControl.c  ****                         KinOS_ConfigureLight(RED,SMOOTH,stolenLightCycles,255);
 635              		.loc 1 231 0
 636 02d2 E279     		ldrb	r2, [r4, #7]
 637 02d4 FF23     		movs	r3, #255
 638 02d6 0021     		movs	r1, #0
 639 02d8 0020     		movs	r0, #0
 640 02da FFF7FEFF 		bl	KinOS_ConfigureLight
 641              	.LVL49:
 232:AppControl.c  ****                         KinOS_Advertise(stolenAdvertise_s,50);
 642              		.loc 1 232 0
 643 02de 2089     		ldrh	r0, [r4, #8]
 644 02e0 3221     		movs	r1, #50
 645 02e2 FFF7FEFF 		bl	KinOS_Advertise
 646              	.LVL50:
 233:AppControl.c  ****                         break;
 647              		.loc 1 233 0
 648 02e6 54E0     		b	.L30
 649              	.L44:
 234:AppControl.c  ****                     }
 235:AppControl.c  ****                     case FSM_RIDE:
 236:AppControl.c  ****                     {
 237:AppControl.c  ****                         KinOS_SetupTimerA(5);
 650              		.loc 1 237 0
 651 02e8 0520     		movs	r0, #5
 652 02ea FFF7FEFF 		bl	KinOS_SetupTimerA
 653              	.LVL51:
 238:AppControl.c  ****                         break;
 654              		.loc 1 238 0
 655 02ee 50E0     		b	.L30
 656              	.L38:
 239:AppControl.c  ****                     }
ARM GAS  C:\Users\salaz\AppData\Local\Temp\cc7F8fiw.s 			page 30


 240:AppControl.c  ****                 }
 241:AppControl.c  ****                 break;
 242:AppControl.c  ****             }
 243:AppControl.c  ****             case FSM_RIDE:
 244:AppControl.c  ****             {
 245:AppControl.c  ****                 switch(next_state)
 657              		.loc 1 245 0
 658 02f0 114B     		ldr	r3, .L53
 659 02f2 5B78     		ldrb	r3, [r3, #1]
 660 02f4 052B     		cmp	r3, #5
 661 02f6 04D0     		beq	.L46
 662 02f8 062B     		cmp	r3, #6
 663 02fa 09D0     		beq	.L47
 664 02fc 012B     		cmp	r3, #1
 665 02fe 48D1     		bne	.L30
 666 0300 11E0     		b	.L48
 667              	.L46:
 246:AppControl.c  ****                 {
 247:AppControl.c  ****                     case FSM_DAY:
 248:AppControl.c  ****                     {
 249:AppControl.c  ****                         KinOS_ConfigureLight(WHITE,BYPASS,0,0);
 668              		.loc 1 249 0
 669 0302 0023     		movs	r3, #0
 670 0304 0022     		movs	r2, #0
 671 0306 0321     		movs	r1, #3
 672 0308 0620     		movs	r0, #6
 673 030a FFF7FEFF 		bl	KinOS_ConfigureLight
 674              	.LVL52:
 250:AppControl.c  ****                         break;
 675              		.loc 1 250 0
 676 030e 40E0     		b	.L30
 677              	.L47:
 251:AppControl.c  ****                     }
 252:AppControl.c  ****                     case FSM_NIGHT:
 253:AppControl.c  ****                     {
 254:AppControl.c  ****                         KinOS_ConfigureLight(WHITE,BYPASS,30,255);
 678              		.loc 1 254 0
 679 0310 FF23     		movs	r3, #255
 680 0312 1E22     		movs	r2, #30
 681 0314 0321     		movs	r1, #3
 682 0316 0620     		movs	r0, #6
 683 0318 FFF7FEFF 		bl	KinOS_ConfigureLight
 684              	.LVL53:
 255:AppControl.c  ****                         KinOS_BypassSettings(WHITE,255);
 685              		.loc 1 255 0
 686 031c FF21     		movs	r1, #255
 687 031e 0620     		movs	r0, #6
 688 0320 FFF7FEFF 		bl	KinOS_BypassSettings
 689              	.LVL54:
 256:AppControl.c  ****                         break;
 690              		.loc 1 256 0
 691 0324 35E0     		b	.L30
 692              	.L48:
 257:AppControl.c  ****                     }
 258:AppControl.c  ****                     case FSM_IDLE:
 259:AppControl.c  ****                     {
 260:AppControl.c  ****                         KinOS_ConfigureLight(WHITE,BYPASS,0,0);
ARM GAS  C:\Users\salaz\AppData\Local\Temp\cc7F8fiw.s 			page 31


 693              		.loc 1 260 0
 694 0326 0023     		movs	r3, #0
 695 0328 0022     		movs	r2, #0
 696 032a 0321     		movs	r1, #3
 697 032c 0620     		movs	r0, #6
 698 032e FFF7FEFF 		bl	KinOS_ConfigureLight
 699              	.LVL55:
 261:AppControl.c  ****                         KinOS_Disconnect();
 700              		.loc 1 261 0
 701 0332 FFF7FEFF 		bl	KinOS_Disconnect
 702              	.LVL56:
 262:AppControl.c  ****                         break;
 703              		.loc 1 262 0
 704 0336 2CE0     		b	.L30
 705              	.L54:
 706              		.align	2
 707              	.L53:
 708 0338 00000000 		.word	.LANCHOR0
 709 033c 00000000 		.word	.L4
 710 0340 00000000 		.word	.LC2
 711 0344 00006640 		.word	1080426496
 712 0348 10000000 		.word	.LC4
 713 034c 00000000 		.word	.LANCHOR1
 714 0350 1C000000 		.word	.LC7
 715 0354 30000000 		.word	.LC9
 716 0358 44000000 		.word	.LC11
 717 035c 50000000 		.word	.LC13
 718 0360 5C000000 		.word	.LC15
 719 0364 68000000 		.word	.LC17
 720 0368 20000000 		.word	.L32
 721 036c 10270000 		.word	10000
 722              	.L36:
 263:AppControl.c  ****                     }
 264:AppControl.c  ****                 }
 265:AppControl.c  ****                 break;
 266:AppControl.c  ****             }
 267:AppControl.c  ****             case FSM_DAY:
 268:AppControl.c  ****             {
 269:AppControl.c  ****                 switch(next_state)
 723              		.loc 1 269 0
 724 0370 134B     		ldr	r3, .L55
 725 0372 5B78     		ldrb	r3, [r3, #1]
 726 0374 072B     		cmp	r3, #7
 727 0376 0CD1     		bne	.L30
 270:AppControl.c  ****                 {
 271:AppControl.c  ****                     case FSM_RIDE:
 272:AppControl.c  ****                     {
 273:AppControl.c  ****                         KinOS_SetupTimerA(rideNightCheck_ms);
 728              		.loc 1 273 0
 729 0378 124B     		ldr	r3, .L55+4
 730 037a D868     		ldr	r0, [r3, #12]
 731 037c FFF7FEFF 		bl	KinOS_SetupTimerA
 732              	.LVL57:
 274:AppControl.c  ****                         break;
 733              		.loc 1 274 0
 734 0380 07E0     		b	.L30
 735              	.L37:
ARM GAS  C:\Users\salaz\AppData\Local\Temp\cc7F8fiw.s 			page 32


 275:AppControl.c  ****                     }
 276:AppControl.c  ****                 }
 277:AppControl.c  ****                 break;
 278:AppControl.c  ****             }
 279:AppControl.c  ****             case FSM_NIGHT:
 280:AppControl.c  ****             {
 281:AppControl.c  ****                 switch(next_state)
 736              		.loc 1 281 0
 737 0382 0F4B     		ldr	r3, .L55
 738 0384 5B78     		ldrb	r3, [r3, #1]
 739 0386 072B     		cmp	r3, #7
 740 0388 03D1     		bne	.L30
 282:AppControl.c  ****                 {
 283:AppControl.c  ****                     case FSM_RIDE:
 284:AppControl.c  ****                     {
 285:AppControl.c  ****                         KinOS_SetupTimerA(rideNightCheck_ms);
 741              		.loc 1 285 0
 742 038a 0E4B     		ldr	r3, .L55+4
 743 038c D868     		ldr	r0, [r3, #12]
 744 038e FFF7FEFF 		bl	KinOS_SetupTimerA
 745              	.LVL58:
 746              	.L30:
 286:AppControl.c  ****                         break;
 287:AppControl.c  ****                     }
 288:AppControl.c  ****                 }
 289:AppControl.c  ****                 break;
 290:AppControl.c  ****             }
 291:AppControl.c  ****         }
 292:AppControl.c  ****         //-----------------------------------------------------//
 293:AppControl.c  ****         //-----------------------------------------------------//
 294:AppControl.c  ****         
 295:AppControl.c  ****         update_done = (current_state == next_state);
 747              		.loc 1 295 0
 748 0392 0B4B     		ldr	r3, .L55
 749 0394 1978     		ldrb	r1, [r3]
 750 0396 5A78     		ldrb	r2, [r3, #1]
 751              	.LVL59:
 296:AppControl.c  ****         current_state = next_state; // Update state
 752              		.loc 1 296 0
 753 0398 1A70     		strb	r2, [r3]
 297:AppControl.c  ****     }
 298:AppControl.c  ****     while(!update_done);
 754              		.loc 1 298 0
 755 039a 9142     		cmp	r1, r2
 756 039c 00D0     		beq	.LCB688
 757 039e 31E6     		b	.L51	@long jump
 758              	.LCB688:
 299:AppControl.c  ****     NVIC_ClearPendingIRQ(AppControl_IRQ_cfg.intrSrc);
 759              		.loc 1 299 0
 760 03a0 094B     		ldr	r3, .L55+8
 761 03a2 0022     		movs	r2, #0
 762 03a4 9A5E     		ldrsh	r2, [r3, r2]
 763              	.LVL60:
 764              	.LBB70:
 765              	.LBB71:
 766              		.file 3 "Generated_Source\\PSoC6\\pdl\\cmsis/include/core_cm0plus.h"
   1:Generated_Source\PSoC6\pdl\cmsis/include/core_cm0plus.h **** /**************************************************************************//**
ARM GAS  C:\Users\salaz\AppData\Local\Temp\cc7F8fiw.s 			page 33


   2:Generated_Source\PSoC6\pdl\cmsis/include/core_cm0plus.h ****  * @file     core_cm0plus.h
   3:Generated_Source\PSoC6\pdl\cmsis/include/core_cm0plus.h ****  * @brief    CMSIS Cortex-M0+ Core Peripheral Access Layer Header File
   4:Generated_Source\PSoC6\pdl\cmsis/include/core_cm0plus.h ****  * @version  V5.0.1
   5:Generated_Source\PSoC6\pdl\cmsis/include/core_cm0plus.h ****  * @date     25. November 2016
   6:Generated_Source\PSoC6\pdl\cmsis/include/core_cm0plus.h ****  ******************************************************************************/
   7:Generated_Source\PSoC6\pdl\cmsis/include/core_cm0plus.h **** /*
   8:Generated_Source\PSoC6\pdl\cmsis/include/core_cm0plus.h ****  * Copyright (c) 2009-2016 ARM Limited. All rights reserved.
   9:Generated_Source\PSoC6\pdl\cmsis/include/core_cm0plus.h ****  *
  10:Generated_Source\PSoC6\pdl\cmsis/include/core_cm0plus.h ****  * SPDX-License-Identifier: Apache-2.0
  11:Generated_Source\PSoC6\pdl\cmsis/include/core_cm0plus.h ****  *
  12:Generated_Source\PSoC6\pdl\cmsis/include/core_cm0plus.h ****  * Licensed under the Apache License, Version 2.0 (the License); you may
  13:Generated_Source\PSoC6\pdl\cmsis/include/core_cm0plus.h ****  * not use this file except in compliance with the License.
  14:Generated_Source\PSoC6\pdl\cmsis/include/core_cm0plus.h ****  * You may obtain a copy of the License at
  15:Generated_Source\PSoC6\pdl\cmsis/include/core_cm0plus.h ****  *
  16:Generated_Source\PSoC6\pdl\cmsis/include/core_cm0plus.h ****  * www.apache.org/licenses/LICENSE-2.0
  17:Generated_Source\PSoC6\pdl\cmsis/include/core_cm0plus.h ****  *
  18:Generated_Source\PSoC6\pdl\cmsis/include/core_cm0plus.h ****  * Unless required by applicable law or agreed to in writing, software
  19:Generated_Source\PSoC6\pdl\cmsis/include/core_cm0plus.h ****  * distributed under the License is distributed on an AS IS BASIS, WITHOUT
  20:Generated_Source\PSoC6\pdl\cmsis/include/core_cm0plus.h ****  * WARRANTIES OR CONDITIONS OF ANY KIND, either express or implied.
  21:Generated_Source\PSoC6\pdl\cmsis/include/core_cm0plus.h ****  * See the License for the specific language governing permissions and
  22:Generated_Source\PSoC6\pdl\cmsis/include/core_cm0plus.h ****  * limitations under the License.
  23:Generated_Source\PSoC6\pdl\cmsis/include/core_cm0plus.h ****  */
  24:Generated_Source\PSoC6\pdl\cmsis/include/core_cm0plus.h **** 
  25:Generated_Source\PSoC6\pdl\cmsis/include/core_cm0plus.h **** #if   defined ( __ICCARM__ )
  26:Generated_Source\PSoC6\pdl\cmsis/include/core_cm0plus.h ****  #pragma system_include         /* treat file as system include file for MISRA check */
  27:Generated_Source\PSoC6\pdl\cmsis/include/core_cm0plus.h **** #elif defined (__ARMCC_VERSION) && (__ARMCC_VERSION >= 6010050)
  28:Generated_Source\PSoC6\pdl\cmsis/include/core_cm0plus.h ****   #pragma clang system_header   /* treat file as system include file */
  29:Generated_Source\PSoC6\pdl\cmsis/include/core_cm0plus.h **** #endif
  30:Generated_Source\PSoC6\pdl\cmsis/include/core_cm0plus.h **** 
  31:Generated_Source\PSoC6\pdl\cmsis/include/core_cm0plus.h **** #ifndef __CORE_CM0PLUS_H_GENERIC
  32:Generated_Source\PSoC6\pdl\cmsis/include/core_cm0plus.h **** #define __CORE_CM0PLUS_H_GENERIC
  33:Generated_Source\PSoC6\pdl\cmsis/include/core_cm0plus.h **** 
  34:Generated_Source\PSoC6\pdl\cmsis/include/core_cm0plus.h **** #include <stdint.h>
  35:Generated_Source\PSoC6\pdl\cmsis/include/core_cm0plus.h **** 
  36:Generated_Source\PSoC6\pdl\cmsis/include/core_cm0plus.h **** #ifdef __cplusplus
  37:Generated_Source\PSoC6\pdl\cmsis/include/core_cm0plus.h ****  extern "C" {
  38:Generated_Source\PSoC6\pdl\cmsis/include/core_cm0plus.h **** #endif
  39:Generated_Source\PSoC6\pdl\cmsis/include/core_cm0plus.h **** 
  40:Generated_Source\PSoC6\pdl\cmsis/include/core_cm0plus.h **** /**
  41:Generated_Source\PSoC6\pdl\cmsis/include/core_cm0plus.h ****   \page CMSIS_MISRA_Exceptions  MISRA-C:2004 Compliance Exceptions
  42:Generated_Source\PSoC6\pdl\cmsis/include/core_cm0plus.h ****   CMSIS violates the following MISRA-C:2004 rules:
  43:Generated_Source\PSoC6\pdl\cmsis/include/core_cm0plus.h **** 
  44:Generated_Source\PSoC6\pdl\cmsis/include/core_cm0plus.h ****    \li Required Rule 8.5, object/function definition in header file.<br>
  45:Generated_Source\PSoC6\pdl\cmsis/include/core_cm0plus.h ****      Function definitions in header files are used to allow 'inlining'.
  46:Generated_Source\PSoC6\pdl\cmsis/include/core_cm0plus.h **** 
  47:Generated_Source\PSoC6\pdl\cmsis/include/core_cm0plus.h ****    \li Required Rule 18.4, declaration of union type or object of union type: '{...}'.<br>
  48:Generated_Source\PSoC6\pdl\cmsis/include/core_cm0plus.h ****      Unions are used for effective representation of core registers.
  49:Generated_Source\PSoC6\pdl\cmsis/include/core_cm0plus.h **** 
  50:Generated_Source\PSoC6\pdl\cmsis/include/core_cm0plus.h ****    \li Advisory Rule 19.7, Function-like macro defined.<br>
  51:Generated_Source\PSoC6\pdl\cmsis/include/core_cm0plus.h ****      Function-like macros are used to allow more efficient code.
  52:Generated_Source\PSoC6\pdl\cmsis/include/core_cm0plus.h ****  */
  53:Generated_Source\PSoC6\pdl\cmsis/include/core_cm0plus.h **** 
  54:Generated_Source\PSoC6\pdl\cmsis/include/core_cm0plus.h **** 
  55:Generated_Source\PSoC6\pdl\cmsis/include/core_cm0plus.h **** /*******************************************************************************
  56:Generated_Source\PSoC6\pdl\cmsis/include/core_cm0plus.h ****  *                 CMSIS definitions
  57:Generated_Source\PSoC6\pdl\cmsis/include/core_cm0plus.h ****  ******************************************************************************/
  58:Generated_Source\PSoC6\pdl\cmsis/include/core_cm0plus.h **** /**
ARM GAS  C:\Users\salaz\AppData\Local\Temp\cc7F8fiw.s 			page 34


  59:Generated_Source\PSoC6\pdl\cmsis/include/core_cm0plus.h ****   \ingroup Cortex-M0+
  60:Generated_Source\PSoC6\pdl\cmsis/include/core_cm0plus.h ****   @{
  61:Generated_Source\PSoC6\pdl\cmsis/include/core_cm0plus.h ****  */
  62:Generated_Source\PSoC6\pdl\cmsis/include/core_cm0plus.h **** 
  63:Generated_Source\PSoC6\pdl\cmsis/include/core_cm0plus.h **** /*  CMSIS CM0+ definitions */
  64:Generated_Source\PSoC6\pdl\cmsis/include/core_cm0plus.h **** #define __CM0PLUS_CMSIS_VERSION_MAIN ( 5U)                                      /*!< [31:16] CMSIS 
  65:Generated_Source\PSoC6\pdl\cmsis/include/core_cm0plus.h **** #define __CM0PLUS_CMSIS_VERSION_SUB  ( 0U)                                      /*!< [15:0]  CMSIS 
  66:Generated_Source\PSoC6\pdl\cmsis/include/core_cm0plus.h **** #define __CM0PLUS_CMSIS_VERSION      ((__CM0PLUS_CMSIS_VERSION_MAIN << 16U) | \
  67:Generated_Source\PSoC6\pdl\cmsis/include/core_cm0plus.h ****                                        __CM0PLUS_CMSIS_VERSION_SUB           )  /*!< CMSIS HAL vers
  68:Generated_Source\PSoC6\pdl\cmsis/include/core_cm0plus.h **** 
  69:Generated_Source\PSoC6\pdl\cmsis/include/core_cm0plus.h **** #define __CORTEX_M                   (0U)                                       /*!< Cortex-M Core 
  70:Generated_Source\PSoC6\pdl\cmsis/include/core_cm0plus.h **** 
  71:Generated_Source\PSoC6\pdl\cmsis/include/core_cm0plus.h **** /** __FPU_USED indicates whether an FPU is used or not.
  72:Generated_Source\PSoC6\pdl\cmsis/include/core_cm0plus.h ****     This core does not support an FPU at all
  73:Generated_Source\PSoC6\pdl\cmsis/include/core_cm0plus.h **** */
  74:Generated_Source\PSoC6\pdl\cmsis/include/core_cm0plus.h **** #define __FPU_USED       0U
  75:Generated_Source\PSoC6\pdl\cmsis/include/core_cm0plus.h **** 
  76:Generated_Source\PSoC6\pdl\cmsis/include/core_cm0plus.h **** #if defined ( __CC_ARM )
  77:Generated_Source\PSoC6\pdl\cmsis/include/core_cm0plus.h ****   #if defined __TARGET_FPU_VFP
  78:Generated_Source\PSoC6\pdl\cmsis/include/core_cm0plus.h ****     #error "Compiler generates FPU instructions for a device without an FPU (check __FPU_PRESENT)"
  79:Generated_Source\PSoC6\pdl\cmsis/include/core_cm0plus.h ****   #endif
  80:Generated_Source\PSoC6\pdl\cmsis/include/core_cm0plus.h **** 
  81:Generated_Source\PSoC6\pdl\cmsis/include/core_cm0plus.h **** #elif defined (__ARMCC_VERSION) && (__ARMCC_VERSION >= 6010050)
  82:Generated_Source\PSoC6\pdl\cmsis/include/core_cm0plus.h ****   #if defined __ARM_PCS_VFP
  83:Generated_Source\PSoC6\pdl\cmsis/include/core_cm0plus.h ****     #error "Compiler generates FPU instructions for a device without an FPU (check __FPU_PRESENT)"
  84:Generated_Source\PSoC6\pdl\cmsis/include/core_cm0plus.h ****   #endif
  85:Generated_Source\PSoC6\pdl\cmsis/include/core_cm0plus.h **** 
  86:Generated_Source\PSoC6\pdl\cmsis/include/core_cm0plus.h **** #elif defined ( __GNUC__ )
  87:Generated_Source\PSoC6\pdl\cmsis/include/core_cm0plus.h ****   #if defined (__VFP_FP__) && !defined(__SOFTFP__)
  88:Generated_Source\PSoC6\pdl\cmsis/include/core_cm0plus.h ****     #error "Compiler generates FPU instructions for a device without an FPU (check __FPU_PRESENT)"
  89:Generated_Source\PSoC6\pdl\cmsis/include/core_cm0plus.h ****   #endif
  90:Generated_Source\PSoC6\pdl\cmsis/include/core_cm0plus.h **** 
  91:Generated_Source\PSoC6\pdl\cmsis/include/core_cm0plus.h **** #elif defined ( __ICCARM__ )
  92:Generated_Source\PSoC6\pdl\cmsis/include/core_cm0plus.h ****   #if defined __ARMVFP__
  93:Generated_Source\PSoC6\pdl\cmsis/include/core_cm0plus.h ****     #error "Compiler generates FPU instructions for a device without an FPU (check __FPU_PRESENT)"
  94:Generated_Source\PSoC6\pdl\cmsis/include/core_cm0plus.h ****   #endif
  95:Generated_Source\PSoC6\pdl\cmsis/include/core_cm0plus.h **** 
  96:Generated_Source\PSoC6\pdl\cmsis/include/core_cm0plus.h **** #elif defined ( __TI_ARM__ )
  97:Generated_Source\PSoC6\pdl\cmsis/include/core_cm0plus.h ****   #if defined __TI_VFP_SUPPORT__
  98:Generated_Source\PSoC6\pdl\cmsis/include/core_cm0plus.h ****     #error "Compiler generates FPU instructions for a device without an FPU (check __FPU_PRESENT)"
  99:Generated_Source\PSoC6\pdl\cmsis/include/core_cm0plus.h ****   #endif
 100:Generated_Source\PSoC6\pdl\cmsis/include/core_cm0plus.h **** 
 101:Generated_Source\PSoC6\pdl\cmsis/include/core_cm0plus.h **** #elif defined ( __TASKING__ )
 102:Generated_Source\PSoC6\pdl\cmsis/include/core_cm0plus.h ****   #if defined __FPU_VFP__
 103:Generated_Source\PSoC6\pdl\cmsis/include/core_cm0plus.h ****     #error "Compiler generates FPU instructions for a device without an FPU (check __FPU_PRESENT)"
 104:Generated_Source\PSoC6\pdl\cmsis/include/core_cm0plus.h ****   #endif
 105:Generated_Source\PSoC6\pdl\cmsis/include/core_cm0plus.h **** 
 106:Generated_Source\PSoC6\pdl\cmsis/include/core_cm0plus.h **** #elif defined ( __CSMC__ )
 107:Generated_Source\PSoC6\pdl\cmsis/include/core_cm0plus.h ****   #if ( __CSMC__ & 0x400U)
 108:Generated_Source\PSoC6\pdl\cmsis/include/core_cm0plus.h ****     #error "Compiler generates FPU instructions for a device without an FPU (check __FPU_PRESENT)"
 109:Generated_Source\PSoC6\pdl\cmsis/include/core_cm0plus.h ****   #endif
 110:Generated_Source\PSoC6\pdl\cmsis/include/core_cm0plus.h **** 
 111:Generated_Source\PSoC6\pdl\cmsis/include/core_cm0plus.h **** #endif
 112:Generated_Source\PSoC6\pdl\cmsis/include/core_cm0plus.h **** 
 113:Generated_Source\PSoC6\pdl\cmsis/include/core_cm0plus.h **** #include "cmsis_compiler.h"               /* CMSIS compiler specific defines */
 114:Generated_Source\PSoC6\pdl\cmsis/include/core_cm0plus.h **** 
 115:Generated_Source\PSoC6\pdl\cmsis/include/core_cm0plus.h **** 
ARM GAS  C:\Users\salaz\AppData\Local\Temp\cc7F8fiw.s 			page 35


 116:Generated_Source\PSoC6\pdl\cmsis/include/core_cm0plus.h **** #ifdef __cplusplus
 117:Generated_Source\PSoC6\pdl\cmsis/include/core_cm0plus.h **** }
 118:Generated_Source\PSoC6\pdl\cmsis/include/core_cm0plus.h **** #endif
 119:Generated_Source\PSoC6\pdl\cmsis/include/core_cm0plus.h **** 
 120:Generated_Source\PSoC6\pdl\cmsis/include/core_cm0plus.h **** #endif /* __CORE_CM0PLUS_H_GENERIC */
 121:Generated_Source\PSoC6\pdl\cmsis/include/core_cm0plus.h **** 
 122:Generated_Source\PSoC6\pdl\cmsis/include/core_cm0plus.h **** #ifndef __CMSIS_GENERIC
 123:Generated_Source\PSoC6\pdl\cmsis/include/core_cm0plus.h **** 
 124:Generated_Source\PSoC6\pdl\cmsis/include/core_cm0plus.h **** #ifndef __CORE_CM0PLUS_H_DEPENDANT
 125:Generated_Source\PSoC6\pdl\cmsis/include/core_cm0plus.h **** #define __CORE_CM0PLUS_H_DEPENDANT
 126:Generated_Source\PSoC6\pdl\cmsis/include/core_cm0plus.h **** 
 127:Generated_Source\PSoC6\pdl\cmsis/include/core_cm0plus.h **** #ifdef __cplusplus
 128:Generated_Source\PSoC6\pdl\cmsis/include/core_cm0plus.h ****  extern "C" {
 129:Generated_Source\PSoC6\pdl\cmsis/include/core_cm0plus.h **** #endif
 130:Generated_Source\PSoC6\pdl\cmsis/include/core_cm0plus.h **** 
 131:Generated_Source\PSoC6\pdl\cmsis/include/core_cm0plus.h **** /* check device defines and use defaults */
 132:Generated_Source\PSoC6\pdl\cmsis/include/core_cm0plus.h **** #if defined __CHECK_DEVICE_DEFINES
 133:Generated_Source\PSoC6\pdl\cmsis/include/core_cm0plus.h ****   #ifndef __CM0PLUS_REV
 134:Generated_Source\PSoC6\pdl\cmsis/include/core_cm0plus.h ****     #define __CM0PLUS_REV             0x0000U
 135:Generated_Source\PSoC6\pdl\cmsis/include/core_cm0plus.h ****     #warning "__CM0PLUS_REV not defined in device header file; using default!"
 136:Generated_Source\PSoC6\pdl\cmsis/include/core_cm0plus.h ****   #endif
 137:Generated_Source\PSoC6\pdl\cmsis/include/core_cm0plus.h **** 
 138:Generated_Source\PSoC6\pdl\cmsis/include/core_cm0plus.h ****   #ifndef __MPU_PRESENT
 139:Generated_Source\PSoC6\pdl\cmsis/include/core_cm0plus.h ****     #define __MPU_PRESENT             0U
 140:Generated_Source\PSoC6\pdl\cmsis/include/core_cm0plus.h ****     #warning "__MPU_PRESENT not defined in device header file; using default!"
 141:Generated_Source\PSoC6\pdl\cmsis/include/core_cm0plus.h ****   #endif
 142:Generated_Source\PSoC6\pdl\cmsis/include/core_cm0plus.h **** 
 143:Generated_Source\PSoC6\pdl\cmsis/include/core_cm0plus.h ****   #ifndef __VTOR_PRESENT
 144:Generated_Source\PSoC6\pdl\cmsis/include/core_cm0plus.h ****     #define __VTOR_PRESENT            0U
 145:Generated_Source\PSoC6\pdl\cmsis/include/core_cm0plus.h ****     #warning "__VTOR_PRESENT not defined in device header file; using default!"
 146:Generated_Source\PSoC6\pdl\cmsis/include/core_cm0plus.h ****   #endif
 147:Generated_Source\PSoC6\pdl\cmsis/include/core_cm0plus.h **** 
 148:Generated_Source\PSoC6\pdl\cmsis/include/core_cm0plus.h ****   #ifndef __NVIC_PRIO_BITS
 149:Generated_Source\PSoC6\pdl\cmsis/include/core_cm0plus.h ****     #define __NVIC_PRIO_BITS          2U
 150:Generated_Source\PSoC6\pdl\cmsis/include/core_cm0plus.h ****     #warning "__NVIC_PRIO_BITS not defined in device header file; using default!"
 151:Generated_Source\PSoC6\pdl\cmsis/include/core_cm0plus.h ****   #endif
 152:Generated_Source\PSoC6\pdl\cmsis/include/core_cm0plus.h **** 
 153:Generated_Source\PSoC6\pdl\cmsis/include/core_cm0plus.h ****   #ifndef __Vendor_SysTickConfig
 154:Generated_Source\PSoC6\pdl\cmsis/include/core_cm0plus.h ****     #define __Vendor_SysTickConfig    0U
 155:Generated_Source\PSoC6\pdl\cmsis/include/core_cm0plus.h ****     #warning "__Vendor_SysTickConfig not defined in device header file; using default!"
 156:Generated_Source\PSoC6\pdl\cmsis/include/core_cm0plus.h ****   #endif
 157:Generated_Source\PSoC6\pdl\cmsis/include/core_cm0plus.h **** #endif
 158:Generated_Source\PSoC6\pdl\cmsis/include/core_cm0plus.h **** 
 159:Generated_Source\PSoC6\pdl\cmsis/include/core_cm0plus.h **** /* IO definitions (access restrictions to peripheral registers) */
 160:Generated_Source\PSoC6\pdl\cmsis/include/core_cm0plus.h **** /**
 161:Generated_Source\PSoC6\pdl\cmsis/include/core_cm0plus.h ****     \defgroup CMSIS_glob_defs CMSIS Global Defines
 162:Generated_Source\PSoC6\pdl\cmsis/include/core_cm0plus.h **** 
 163:Generated_Source\PSoC6\pdl\cmsis/include/core_cm0plus.h ****     <strong>IO Type Qualifiers</strong> are used
 164:Generated_Source\PSoC6\pdl\cmsis/include/core_cm0plus.h ****     \li to specify the access to peripheral variables.
 165:Generated_Source\PSoC6\pdl\cmsis/include/core_cm0plus.h ****     \li for automatic generation of peripheral register debug information.
 166:Generated_Source\PSoC6\pdl\cmsis/include/core_cm0plus.h **** */
 167:Generated_Source\PSoC6\pdl\cmsis/include/core_cm0plus.h **** #ifdef __cplusplus
 168:Generated_Source\PSoC6\pdl\cmsis/include/core_cm0plus.h ****   #define   __I     volatile             /*!< Defines 'read only' permissions */
 169:Generated_Source\PSoC6\pdl\cmsis/include/core_cm0plus.h **** #else
 170:Generated_Source\PSoC6\pdl\cmsis/include/core_cm0plus.h ****   #define   __I     volatile const       /*!< Defines 'read only' permissions */
 171:Generated_Source\PSoC6\pdl\cmsis/include/core_cm0plus.h **** #endif
 172:Generated_Source\PSoC6\pdl\cmsis/include/core_cm0plus.h **** #define     __O     volatile             /*!< Defines 'write only' permissions */
ARM GAS  C:\Users\salaz\AppData\Local\Temp\cc7F8fiw.s 			page 36


 173:Generated_Source\PSoC6\pdl\cmsis/include/core_cm0plus.h **** #define     __IO    volatile             /*!< Defines 'read / write' permissions */
 174:Generated_Source\PSoC6\pdl\cmsis/include/core_cm0plus.h **** 
 175:Generated_Source\PSoC6\pdl\cmsis/include/core_cm0plus.h **** /* following defines should be used for structure members */
 176:Generated_Source\PSoC6\pdl\cmsis/include/core_cm0plus.h **** #define     __IM     volatile const      /*! Defines 'read only' structure member permissions */
 177:Generated_Source\PSoC6\pdl\cmsis/include/core_cm0plus.h **** #define     __OM     volatile            /*! Defines 'write only' structure member permissions */
 178:Generated_Source\PSoC6\pdl\cmsis/include/core_cm0plus.h **** #define     __IOM    volatile            /*! Defines 'read / write' structure member permissions */
 179:Generated_Source\PSoC6\pdl\cmsis/include/core_cm0plus.h **** 
 180:Generated_Source\PSoC6\pdl\cmsis/include/core_cm0plus.h **** /*@} end of group Cortex-M0+ */
 181:Generated_Source\PSoC6\pdl\cmsis/include/core_cm0plus.h **** 
 182:Generated_Source\PSoC6\pdl\cmsis/include/core_cm0plus.h **** 
 183:Generated_Source\PSoC6\pdl\cmsis/include/core_cm0plus.h **** 
 184:Generated_Source\PSoC6\pdl\cmsis/include/core_cm0plus.h **** /*******************************************************************************
 185:Generated_Source\PSoC6\pdl\cmsis/include/core_cm0plus.h ****  *                 Register Abstraction
 186:Generated_Source\PSoC6\pdl\cmsis/include/core_cm0plus.h ****   Core Register contain:
 187:Generated_Source\PSoC6\pdl\cmsis/include/core_cm0plus.h ****   - Core Register
 188:Generated_Source\PSoC6\pdl\cmsis/include/core_cm0plus.h ****   - Core NVIC Register
 189:Generated_Source\PSoC6\pdl\cmsis/include/core_cm0plus.h ****   - Core SCB Register
 190:Generated_Source\PSoC6\pdl\cmsis/include/core_cm0plus.h ****   - Core SysTick Register
 191:Generated_Source\PSoC6\pdl\cmsis/include/core_cm0plus.h ****   - Core MPU Register
 192:Generated_Source\PSoC6\pdl\cmsis/include/core_cm0plus.h ****  ******************************************************************************/
 193:Generated_Source\PSoC6\pdl\cmsis/include/core_cm0plus.h **** /**
 194:Generated_Source\PSoC6\pdl\cmsis/include/core_cm0plus.h ****   \defgroup CMSIS_core_register Defines and Type Definitions
 195:Generated_Source\PSoC6\pdl\cmsis/include/core_cm0plus.h ****   \brief Type definitions and defines for Cortex-M processor based devices.
 196:Generated_Source\PSoC6\pdl\cmsis/include/core_cm0plus.h **** */
 197:Generated_Source\PSoC6\pdl\cmsis/include/core_cm0plus.h **** 
 198:Generated_Source\PSoC6\pdl\cmsis/include/core_cm0plus.h **** /**
 199:Generated_Source\PSoC6\pdl\cmsis/include/core_cm0plus.h ****   \ingroup    CMSIS_core_register
 200:Generated_Source\PSoC6\pdl\cmsis/include/core_cm0plus.h ****   \defgroup   CMSIS_CORE  Status and Control Registers
 201:Generated_Source\PSoC6\pdl\cmsis/include/core_cm0plus.h ****   \brief      Core Register type definitions.
 202:Generated_Source\PSoC6\pdl\cmsis/include/core_cm0plus.h ****   @{
 203:Generated_Source\PSoC6\pdl\cmsis/include/core_cm0plus.h ****  */
 204:Generated_Source\PSoC6\pdl\cmsis/include/core_cm0plus.h **** 
 205:Generated_Source\PSoC6\pdl\cmsis/include/core_cm0plus.h **** /**
 206:Generated_Source\PSoC6\pdl\cmsis/include/core_cm0plus.h ****   \brief  Union type to access the Application Program Status Register (APSR).
 207:Generated_Source\PSoC6\pdl\cmsis/include/core_cm0plus.h ****  */
 208:Generated_Source\PSoC6\pdl\cmsis/include/core_cm0plus.h **** typedef union
 209:Generated_Source\PSoC6\pdl\cmsis/include/core_cm0plus.h **** {
 210:Generated_Source\PSoC6\pdl\cmsis/include/core_cm0plus.h ****   struct
 211:Generated_Source\PSoC6\pdl\cmsis/include/core_cm0plus.h ****   {
 212:Generated_Source\PSoC6\pdl\cmsis/include/core_cm0plus.h ****     uint32_t _reserved0:28;              /*!< bit:  0..27  Reserved */
 213:Generated_Source\PSoC6\pdl\cmsis/include/core_cm0plus.h ****     uint32_t V:1;                        /*!< bit:     28  Overflow condition code flag */
 214:Generated_Source\PSoC6\pdl\cmsis/include/core_cm0plus.h ****     uint32_t C:1;                        /*!< bit:     29  Carry condition code flag */
 215:Generated_Source\PSoC6\pdl\cmsis/include/core_cm0plus.h ****     uint32_t Z:1;                        /*!< bit:     30  Zero condition code flag */
 216:Generated_Source\PSoC6\pdl\cmsis/include/core_cm0plus.h ****     uint32_t N:1;                        /*!< bit:     31  Negative condition code flag */
 217:Generated_Source\PSoC6\pdl\cmsis/include/core_cm0plus.h ****   } b;                                   /*!< Structure used for bit  access */
 218:Generated_Source\PSoC6\pdl\cmsis/include/core_cm0plus.h ****   uint32_t w;                            /*!< Type      used for word access */
 219:Generated_Source\PSoC6\pdl\cmsis/include/core_cm0plus.h **** } APSR_Type;
 220:Generated_Source\PSoC6\pdl\cmsis/include/core_cm0plus.h **** 
 221:Generated_Source\PSoC6\pdl\cmsis/include/core_cm0plus.h **** /* APSR Register Definitions */
 222:Generated_Source\PSoC6\pdl\cmsis/include/core_cm0plus.h **** #define APSR_N_Pos                         31U                                            /*!< APSR
 223:Generated_Source\PSoC6\pdl\cmsis/include/core_cm0plus.h **** #define APSR_N_Msk                         (1UL << APSR_N_Pos)                            /*!< APSR
 224:Generated_Source\PSoC6\pdl\cmsis/include/core_cm0plus.h **** 
 225:Generated_Source\PSoC6\pdl\cmsis/include/core_cm0plus.h **** #define APSR_Z_Pos                         30U                                            /*!< APSR
 226:Generated_Source\PSoC6\pdl\cmsis/include/core_cm0plus.h **** #define APSR_Z_Msk                         (1UL << APSR_Z_Pos)                            /*!< APSR
 227:Generated_Source\PSoC6\pdl\cmsis/include/core_cm0plus.h **** 
 228:Generated_Source\PSoC6\pdl\cmsis/include/core_cm0plus.h **** #define APSR_C_Pos                         29U                                            /*!< APSR
 229:Generated_Source\PSoC6\pdl\cmsis/include/core_cm0plus.h **** #define APSR_C_Msk                         (1UL << APSR_C_Pos)                            /*!< APSR
ARM GAS  C:\Users\salaz\AppData\Local\Temp\cc7F8fiw.s 			page 37


 230:Generated_Source\PSoC6\pdl\cmsis/include/core_cm0plus.h **** 
 231:Generated_Source\PSoC6\pdl\cmsis/include/core_cm0plus.h **** #define APSR_V_Pos                         28U                                            /*!< APSR
 232:Generated_Source\PSoC6\pdl\cmsis/include/core_cm0plus.h **** #define APSR_V_Msk                         (1UL << APSR_V_Pos)                            /*!< APSR
 233:Generated_Source\PSoC6\pdl\cmsis/include/core_cm0plus.h **** 
 234:Generated_Source\PSoC6\pdl\cmsis/include/core_cm0plus.h **** 
 235:Generated_Source\PSoC6\pdl\cmsis/include/core_cm0plus.h **** /**
 236:Generated_Source\PSoC6\pdl\cmsis/include/core_cm0plus.h ****   \brief  Union type to access the Interrupt Program Status Register (IPSR).
 237:Generated_Source\PSoC6\pdl\cmsis/include/core_cm0plus.h ****  */
 238:Generated_Source\PSoC6\pdl\cmsis/include/core_cm0plus.h **** typedef union
 239:Generated_Source\PSoC6\pdl\cmsis/include/core_cm0plus.h **** {
 240:Generated_Source\PSoC6\pdl\cmsis/include/core_cm0plus.h ****   struct
 241:Generated_Source\PSoC6\pdl\cmsis/include/core_cm0plus.h ****   {
 242:Generated_Source\PSoC6\pdl\cmsis/include/core_cm0plus.h ****     uint32_t ISR:9;                      /*!< bit:  0.. 8  Exception number */
 243:Generated_Source\PSoC6\pdl\cmsis/include/core_cm0plus.h ****     uint32_t _reserved0:23;              /*!< bit:  9..31  Reserved */
 244:Generated_Source\PSoC6\pdl\cmsis/include/core_cm0plus.h ****   } b;                                   /*!< Structure used for bit  access */
 245:Generated_Source\PSoC6\pdl\cmsis/include/core_cm0plus.h ****   uint32_t w;                            /*!< Type      used for word access */
 246:Generated_Source\PSoC6\pdl\cmsis/include/core_cm0plus.h **** } IPSR_Type;
 247:Generated_Source\PSoC6\pdl\cmsis/include/core_cm0plus.h **** 
 248:Generated_Source\PSoC6\pdl\cmsis/include/core_cm0plus.h **** /* IPSR Register Definitions */
 249:Generated_Source\PSoC6\pdl\cmsis/include/core_cm0plus.h **** #define IPSR_ISR_Pos                        0U                                            /*!< IPSR
 250:Generated_Source\PSoC6\pdl\cmsis/include/core_cm0plus.h **** #define IPSR_ISR_Msk                       (0x1FFUL /*<< IPSR_ISR_Pos*/)                  /*!< IPSR
 251:Generated_Source\PSoC6\pdl\cmsis/include/core_cm0plus.h **** 
 252:Generated_Source\PSoC6\pdl\cmsis/include/core_cm0plus.h **** 
 253:Generated_Source\PSoC6\pdl\cmsis/include/core_cm0plus.h **** /**
 254:Generated_Source\PSoC6\pdl\cmsis/include/core_cm0plus.h ****   \brief  Union type to access the Special-Purpose Program Status Registers (xPSR).
 255:Generated_Source\PSoC6\pdl\cmsis/include/core_cm0plus.h ****  */
 256:Generated_Source\PSoC6\pdl\cmsis/include/core_cm0plus.h **** typedef union
 257:Generated_Source\PSoC6\pdl\cmsis/include/core_cm0plus.h **** {
 258:Generated_Source\PSoC6\pdl\cmsis/include/core_cm0plus.h ****   struct
 259:Generated_Source\PSoC6\pdl\cmsis/include/core_cm0plus.h ****   {
 260:Generated_Source\PSoC6\pdl\cmsis/include/core_cm0plus.h ****     uint32_t ISR:9;                      /*!< bit:  0.. 8  Exception number */
 261:Generated_Source\PSoC6\pdl\cmsis/include/core_cm0plus.h ****     uint32_t _reserved0:15;              /*!< bit:  9..23  Reserved */
 262:Generated_Source\PSoC6\pdl\cmsis/include/core_cm0plus.h ****     uint32_t T:1;                        /*!< bit:     24  Thumb bit        (read 0) */
 263:Generated_Source\PSoC6\pdl\cmsis/include/core_cm0plus.h ****     uint32_t _reserved1:3;               /*!< bit: 25..27  Reserved */
 264:Generated_Source\PSoC6\pdl\cmsis/include/core_cm0plus.h ****     uint32_t V:1;                        /*!< bit:     28  Overflow condition code flag */
 265:Generated_Source\PSoC6\pdl\cmsis/include/core_cm0plus.h ****     uint32_t C:1;                        /*!< bit:     29  Carry condition code flag */
 266:Generated_Source\PSoC6\pdl\cmsis/include/core_cm0plus.h ****     uint32_t Z:1;                        /*!< bit:     30  Zero condition code flag */
 267:Generated_Source\PSoC6\pdl\cmsis/include/core_cm0plus.h ****     uint32_t N:1;                        /*!< bit:     31  Negative condition code flag */
 268:Generated_Source\PSoC6\pdl\cmsis/include/core_cm0plus.h ****   } b;                                   /*!< Structure used for bit  access */
 269:Generated_Source\PSoC6\pdl\cmsis/include/core_cm0plus.h ****   uint32_t w;                            /*!< Type      used for word access */
 270:Generated_Source\PSoC6\pdl\cmsis/include/core_cm0plus.h **** } xPSR_Type;
 271:Generated_Source\PSoC6\pdl\cmsis/include/core_cm0plus.h **** 
 272:Generated_Source\PSoC6\pdl\cmsis/include/core_cm0plus.h **** /* xPSR Register Definitions */
 273:Generated_Source\PSoC6\pdl\cmsis/include/core_cm0plus.h **** #define xPSR_N_Pos                         31U                                            /*!< xPSR
 274:Generated_Source\PSoC6\pdl\cmsis/include/core_cm0plus.h **** #define xPSR_N_Msk                         (1UL << xPSR_N_Pos)                            /*!< xPSR
 275:Generated_Source\PSoC6\pdl\cmsis/include/core_cm0plus.h **** 
 276:Generated_Source\PSoC6\pdl\cmsis/include/core_cm0plus.h **** #define xPSR_Z_Pos                         30U                                            /*!< xPSR
 277:Generated_Source\PSoC6\pdl\cmsis/include/core_cm0plus.h **** #define xPSR_Z_Msk                         (1UL << xPSR_Z_Pos)                            /*!< xPSR
 278:Generated_Source\PSoC6\pdl\cmsis/include/core_cm0plus.h **** 
 279:Generated_Source\PSoC6\pdl\cmsis/include/core_cm0plus.h **** #define xPSR_C_Pos                         29U                                            /*!< xPSR
 280:Generated_Source\PSoC6\pdl\cmsis/include/core_cm0plus.h **** #define xPSR_C_Msk                         (1UL << xPSR_C_Pos)                            /*!< xPSR
 281:Generated_Source\PSoC6\pdl\cmsis/include/core_cm0plus.h **** 
 282:Generated_Source\PSoC6\pdl\cmsis/include/core_cm0plus.h **** #define xPSR_V_Pos                         28U                                            /*!< xPSR
 283:Generated_Source\PSoC6\pdl\cmsis/include/core_cm0plus.h **** #define xPSR_V_Msk                         (1UL << xPSR_V_Pos)                            /*!< xPSR
 284:Generated_Source\PSoC6\pdl\cmsis/include/core_cm0plus.h **** 
 285:Generated_Source\PSoC6\pdl\cmsis/include/core_cm0plus.h **** #define xPSR_T_Pos                         24U                                            /*!< xPSR
 286:Generated_Source\PSoC6\pdl\cmsis/include/core_cm0plus.h **** #define xPSR_T_Msk                         (1UL << xPSR_T_Pos)                            /*!< xPSR
ARM GAS  C:\Users\salaz\AppData\Local\Temp\cc7F8fiw.s 			page 38


 287:Generated_Source\PSoC6\pdl\cmsis/include/core_cm0plus.h **** 
 288:Generated_Source\PSoC6\pdl\cmsis/include/core_cm0plus.h **** #define xPSR_ISR_Pos                        0U                                            /*!< xPSR
 289:Generated_Source\PSoC6\pdl\cmsis/include/core_cm0plus.h **** #define xPSR_ISR_Msk                       (0x1FFUL /*<< xPSR_ISR_Pos*/)                  /*!< xPSR
 290:Generated_Source\PSoC6\pdl\cmsis/include/core_cm0plus.h **** 
 291:Generated_Source\PSoC6\pdl\cmsis/include/core_cm0plus.h **** 
 292:Generated_Source\PSoC6\pdl\cmsis/include/core_cm0plus.h **** /**
 293:Generated_Source\PSoC6\pdl\cmsis/include/core_cm0plus.h ****   \brief  Union type to access the Control Registers (CONTROL).
 294:Generated_Source\PSoC6\pdl\cmsis/include/core_cm0plus.h ****  */
 295:Generated_Source\PSoC6\pdl\cmsis/include/core_cm0plus.h **** typedef union
 296:Generated_Source\PSoC6\pdl\cmsis/include/core_cm0plus.h **** {
 297:Generated_Source\PSoC6\pdl\cmsis/include/core_cm0plus.h ****   struct
 298:Generated_Source\PSoC6\pdl\cmsis/include/core_cm0plus.h ****   {
 299:Generated_Source\PSoC6\pdl\cmsis/include/core_cm0plus.h ****     uint32_t nPRIV:1;                    /*!< bit:      0  Execution privilege in Thread mode */
 300:Generated_Source\PSoC6\pdl\cmsis/include/core_cm0plus.h ****     uint32_t SPSEL:1;                    /*!< bit:      1  Stack to be used */
 301:Generated_Source\PSoC6\pdl\cmsis/include/core_cm0plus.h ****     uint32_t _reserved1:30;              /*!< bit:  2..31  Reserved */
 302:Generated_Source\PSoC6\pdl\cmsis/include/core_cm0plus.h ****   } b;                                   /*!< Structure used for bit  access */
 303:Generated_Source\PSoC6\pdl\cmsis/include/core_cm0plus.h ****   uint32_t w;                            /*!< Type      used for word access */
 304:Generated_Source\PSoC6\pdl\cmsis/include/core_cm0plus.h **** } CONTROL_Type;
 305:Generated_Source\PSoC6\pdl\cmsis/include/core_cm0plus.h **** 
 306:Generated_Source\PSoC6\pdl\cmsis/include/core_cm0plus.h **** /* CONTROL Register Definitions */
 307:Generated_Source\PSoC6\pdl\cmsis/include/core_cm0plus.h **** #define CONTROL_SPSEL_Pos                   1U                                            /*!< CONT
 308:Generated_Source\PSoC6\pdl\cmsis/include/core_cm0plus.h **** #define CONTROL_SPSEL_Msk                  (1UL << CONTROL_SPSEL_Pos)                     /*!< CONT
 309:Generated_Source\PSoC6\pdl\cmsis/include/core_cm0plus.h **** 
 310:Generated_Source\PSoC6\pdl\cmsis/include/core_cm0plus.h **** #define CONTROL_nPRIV_Pos                   0U                                            /*!< CONT
 311:Generated_Source\PSoC6\pdl\cmsis/include/core_cm0plus.h **** #define CONTROL_nPRIV_Msk                  (1UL /*<< CONTROL_nPRIV_Pos*/)                 /*!< CONT
 312:Generated_Source\PSoC6\pdl\cmsis/include/core_cm0plus.h **** 
 313:Generated_Source\PSoC6\pdl\cmsis/include/core_cm0plus.h **** /*@} end of group CMSIS_CORE */
 314:Generated_Source\PSoC6\pdl\cmsis/include/core_cm0plus.h **** 
 315:Generated_Source\PSoC6\pdl\cmsis/include/core_cm0plus.h **** 
 316:Generated_Source\PSoC6\pdl\cmsis/include/core_cm0plus.h **** /**
 317:Generated_Source\PSoC6\pdl\cmsis/include/core_cm0plus.h ****   \ingroup    CMSIS_core_register
 318:Generated_Source\PSoC6\pdl\cmsis/include/core_cm0plus.h ****   \defgroup   CMSIS_NVIC  Nested Vectored Interrupt Controller (NVIC)
 319:Generated_Source\PSoC6\pdl\cmsis/include/core_cm0plus.h ****   \brief      Type definitions for the NVIC Registers
 320:Generated_Source\PSoC6\pdl\cmsis/include/core_cm0plus.h ****   @{
 321:Generated_Source\PSoC6\pdl\cmsis/include/core_cm0plus.h ****  */
 322:Generated_Source\PSoC6\pdl\cmsis/include/core_cm0plus.h **** 
 323:Generated_Source\PSoC6\pdl\cmsis/include/core_cm0plus.h **** /**
 324:Generated_Source\PSoC6\pdl\cmsis/include/core_cm0plus.h ****   \brief  Structure type to access the Nested Vectored Interrupt Controller (NVIC).
 325:Generated_Source\PSoC6\pdl\cmsis/include/core_cm0plus.h ****  */
 326:Generated_Source\PSoC6\pdl\cmsis/include/core_cm0plus.h **** typedef struct
 327:Generated_Source\PSoC6\pdl\cmsis/include/core_cm0plus.h **** {
 328:Generated_Source\PSoC6\pdl\cmsis/include/core_cm0plus.h ****   __IOM uint32_t ISER[1U];               /*!< Offset: 0x000 (R/W)  Interrupt Set Enable Register */
 329:Generated_Source\PSoC6\pdl\cmsis/include/core_cm0plus.h ****         uint32_t RESERVED0[31U];
 330:Generated_Source\PSoC6\pdl\cmsis/include/core_cm0plus.h ****   __IOM uint32_t ICER[1U];               /*!< Offset: 0x080 (R/W)  Interrupt Clear Enable Register 
 331:Generated_Source\PSoC6\pdl\cmsis/include/core_cm0plus.h ****         uint32_t RSERVED1[31U];
 332:Generated_Source\PSoC6\pdl\cmsis/include/core_cm0plus.h ****   __IOM uint32_t ISPR[1U];               /*!< Offset: 0x100 (R/W)  Interrupt Set Pending Register *
 333:Generated_Source\PSoC6\pdl\cmsis/include/core_cm0plus.h ****         uint32_t RESERVED2[31U];
 334:Generated_Source\PSoC6\pdl\cmsis/include/core_cm0plus.h ****   __IOM uint32_t ICPR[1U];               /*!< Offset: 0x180 (R/W)  Interrupt Clear Pending Register
 335:Generated_Source\PSoC6\pdl\cmsis/include/core_cm0plus.h ****         uint32_t RESERVED3[31U];
 336:Generated_Source\PSoC6\pdl\cmsis/include/core_cm0plus.h ****         uint32_t RESERVED4[64U];
 337:Generated_Source\PSoC6\pdl\cmsis/include/core_cm0plus.h ****   __IOM uint32_t IP[8U];                 /*!< Offset: 0x300 (R/W)  Interrupt Priority Register */
 338:Generated_Source\PSoC6\pdl\cmsis/include/core_cm0plus.h **** }  NVIC_Type;
 339:Generated_Source\PSoC6\pdl\cmsis/include/core_cm0plus.h **** 
 340:Generated_Source\PSoC6\pdl\cmsis/include/core_cm0plus.h **** /*@} end of group CMSIS_NVIC */
 341:Generated_Source\PSoC6\pdl\cmsis/include/core_cm0plus.h **** 
 342:Generated_Source\PSoC6\pdl\cmsis/include/core_cm0plus.h **** 
 343:Generated_Source\PSoC6\pdl\cmsis/include/core_cm0plus.h **** /**
ARM GAS  C:\Users\salaz\AppData\Local\Temp\cc7F8fiw.s 			page 39


 344:Generated_Source\PSoC6\pdl\cmsis/include/core_cm0plus.h ****   \ingroup  CMSIS_core_register
 345:Generated_Source\PSoC6\pdl\cmsis/include/core_cm0plus.h ****   \defgroup CMSIS_SCB     System Control Block (SCB)
 346:Generated_Source\PSoC6\pdl\cmsis/include/core_cm0plus.h ****   \brief    Type definitions for the System Control Block Registers
 347:Generated_Source\PSoC6\pdl\cmsis/include/core_cm0plus.h ****   @{
 348:Generated_Source\PSoC6\pdl\cmsis/include/core_cm0plus.h ****  */
 349:Generated_Source\PSoC6\pdl\cmsis/include/core_cm0plus.h **** 
 350:Generated_Source\PSoC6\pdl\cmsis/include/core_cm0plus.h **** /**
 351:Generated_Source\PSoC6\pdl\cmsis/include/core_cm0plus.h ****   \brief  Structure type to access the System Control Block (SCB).
 352:Generated_Source\PSoC6\pdl\cmsis/include/core_cm0plus.h ****  */
 353:Generated_Source\PSoC6\pdl\cmsis/include/core_cm0plus.h **** typedef struct
 354:Generated_Source\PSoC6\pdl\cmsis/include/core_cm0plus.h **** {
 355:Generated_Source\PSoC6\pdl\cmsis/include/core_cm0plus.h ****   __IM  uint32_t CPUID;                  /*!< Offset: 0x000 (R/ )  CPUID Base Register */
 356:Generated_Source\PSoC6\pdl\cmsis/include/core_cm0plus.h ****   __IOM uint32_t ICSR;                   /*!< Offset: 0x004 (R/W)  Interrupt Control and State Regi
 357:Generated_Source\PSoC6\pdl\cmsis/include/core_cm0plus.h **** #if defined (__VTOR_PRESENT) && (__VTOR_PRESENT == 1U)
 358:Generated_Source\PSoC6\pdl\cmsis/include/core_cm0plus.h ****   __IOM uint32_t VTOR;                   /*!< Offset: 0x008 (R/W)  Vector Table Offset Register */
 359:Generated_Source\PSoC6\pdl\cmsis/include/core_cm0plus.h **** #else
 360:Generated_Source\PSoC6\pdl\cmsis/include/core_cm0plus.h ****         uint32_t RESERVED0;
 361:Generated_Source\PSoC6\pdl\cmsis/include/core_cm0plus.h **** #endif
 362:Generated_Source\PSoC6\pdl\cmsis/include/core_cm0plus.h ****   __IOM uint32_t AIRCR;                  /*!< Offset: 0x00C (R/W)  Application Interrupt and Reset 
 363:Generated_Source\PSoC6\pdl\cmsis/include/core_cm0plus.h ****   __IOM uint32_t SCR;                    /*!< Offset: 0x010 (R/W)  System Control Register */
 364:Generated_Source\PSoC6\pdl\cmsis/include/core_cm0plus.h ****   __IOM uint32_t CCR;                    /*!< Offset: 0x014 (R/W)  Configuration Control Register *
 365:Generated_Source\PSoC6\pdl\cmsis/include/core_cm0plus.h ****         uint32_t RESERVED1;
 366:Generated_Source\PSoC6\pdl\cmsis/include/core_cm0plus.h ****   __IOM uint32_t SHP[2U];                /*!< Offset: 0x01C (R/W)  System Handlers Priority Registe
 367:Generated_Source\PSoC6\pdl\cmsis/include/core_cm0plus.h ****   __IOM uint32_t SHCSR;                  /*!< Offset: 0x024 (R/W)  System Handler Control and State
 368:Generated_Source\PSoC6\pdl\cmsis/include/core_cm0plus.h **** } SCB_Type;
 369:Generated_Source\PSoC6\pdl\cmsis/include/core_cm0plus.h **** 
 370:Generated_Source\PSoC6\pdl\cmsis/include/core_cm0plus.h **** /* SCB CPUID Register Definitions */
 371:Generated_Source\PSoC6\pdl\cmsis/include/core_cm0plus.h **** #define SCB_CPUID_IMPLEMENTER_Pos          24U                                            /*!< SCB 
 372:Generated_Source\PSoC6\pdl\cmsis/include/core_cm0plus.h **** #define SCB_CPUID_IMPLEMENTER_Msk          (0xFFUL << SCB_CPUID_IMPLEMENTER_Pos)          /*!< SCB 
 373:Generated_Source\PSoC6\pdl\cmsis/include/core_cm0plus.h **** 
 374:Generated_Source\PSoC6\pdl\cmsis/include/core_cm0plus.h **** #define SCB_CPUID_VARIANT_Pos              20U                                            /*!< SCB 
 375:Generated_Source\PSoC6\pdl\cmsis/include/core_cm0plus.h **** #define SCB_CPUID_VARIANT_Msk              (0xFUL << SCB_CPUID_VARIANT_Pos)               /*!< SCB 
 376:Generated_Source\PSoC6\pdl\cmsis/include/core_cm0plus.h **** 
 377:Generated_Source\PSoC6\pdl\cmsis/include/core_cm0plus.h **** #define SCB_CPUID_ARCHITECTURE_Pos         16U                                            /*!< SCB 
 378:Generated_Source\PSoC6\pdl\cmsis/include/core_cm0plus.h **** #define SCB_CPUID_ARCHITECTURE_Msk         (0xFUL << SCB_CPUID_ARCHITECTURE_Pos)          /*!< SCB 
 379:Generated_Source\PSoC6\pdl\cmsis/include/core_cm0plus.h **** 
 380:Generated_Source\PSoC6\pdl\cmsis/include/core_cm0plus.h **** #define SCB_CPUID_PARTNO_Pos                4U                                            /*!< SCB 
 381:Generated_Source\PSoC6\pdl\cmsis/include/core_cm0plus.h **** #define SCB_CPUID_PARTNO_Msk               (0xFFFUL << SCB_CPUID_PARTNO_Pos)              /*!< SCB 
 382:Generated_Source\PSoC6\pdl\cmsis/include/core_cm0plus.h **** 
 383:Generated_Source\PSoC6\pdl\cmsis/include/core_cm0plus.h **** #define SCB_CPUID_REVISION_Pos              0U                                            /*!< SCB 
 384:Generated_Source\PSoC6\pdl\cmsis/include/core_cm0plus.h **** #define SCB_CPUID_REVISION_Msk             (0xFUL /*<< SCB_CPUID_REVISION_Pos*/)          /*!< SCB 
 385:Generated_Source\PSoC6\pdl\cmsis/include/core_cm0plus.h **** 
 386:Generated_Source\PSoC6\pdl\cmsis/include/core_cm0plus.h **** /* SCB Interrupt Control State Register Definitions */
 387:Generated_Source\PSoC6\pdl\cmsis/include/core_cm0plus.h **** #define SCB_ICSR_NMIPENDSET_Pos            31U                                            /*!< SCB 
 388:Generated_Source\PSoC6\pdl\cmsis/include/core_cm0plus.h **** #define SCB_ICSR_NMIPENDSET_Msk            (1UL << SCB_ICSR_NMIPENDSET_Pos)               /*!< SCB 
 389:Generated_Source\PSoC6\pdl\cmsis/include/core_cm0plus.h **** 
 390:Generated_Source\PSoC6\pdl\cmsis/include/core_cm0plus.h **** #define SCB_ICSR_PENDSVSET_Pos             28U                                            /*!< SCB 
 391:Generated_Source\PSoC6\pdl\cmsis/include/core_cm0plus.h **** #define SCB_ICSR_PENDSVSET_Msk             (1UL << SCB_ICSR_PENDSVSET_Pos)                /*!< SCB 
 392:Generated_Source\PSoC6\pdl\cmsis/include/core_cm0plus.h **** 
 393:Generated_Source\PSoC6\pdl\cmsis/include/core_cm0plus.h **** #define SCB_ICSR_PENDSVCLR_Pos             27U                                            /*!< SCB 
 394:Generated_Source\PSoC6\pdl\cmsis/include/core_cm0plus.h **** #define SCB_ICSR_PENDSVCLR_Msk             (1UL << SCB_ICSR_PENDSVCLR_Pos)                /*!< SCB 
 395:Generated_Source\PSoC6\pdl\cmsis/include/core_cm0plus.h **** 
 396:Generated_Source\PSoC6\pdl\cmsis/include/core_cm0plus.h **** #define SCB_ICSR_PENDSTSET_Pos             26U                                            /*!< SCB 
 397:Generated_Source\PSoC6\pdl\cmsis/include/core_cm0plus.h **** #define SCB_ICSR_PENDSTSET_Msk             (1UL << SCB_ICSR_PENDSTSET_Pos)                /*!< SCB 
 398:Generated_Source\PSoC6\pdl\cmsis/include/core_cm0plus.h **** 
 399:Generated_Source\PSoC6\pdl\cmsis/include/core_cm0plus.h **** #define SCB_ICSR_PENDSTCLR_Pos             25U                                            /*!< SCB 
 400:Generated_Source\PSoC6\pdl\cmsis/include/core_cm0plus.h **** #define SCB_ICSR_PENDSTCLR_Msk             (1UL << SCB_ICSR_PENDSTCLR_Pos)                /*!< SCB 
ARM GAS  C:\Users\salaz\AppData\Local\Temp\cc7F8fiw.s 			page 40


 401:Generated_Source\PSoC6\pdl\cmsis/include/core_cm0plus.h **** 
 402:Generated_Source\PSoC6\pdl\cmsis/include/core_cm0plus.h **** #define SCB_ICSR_ISRPREEMPT_Pos            23U                                            /*!< SCB 
 403:Generated_Source\PSoC6\pdl\cmsis/include/core_cm0plus.h **** #define SCB_ICSR_ISRPREEMPT_Msk            (1UL << SCB_ICSR_ISRPREEMPT_Pos)               /*!< SCB 
 404:Generated_Source\PSoC6\pdl\cmsis/include/core_cm0plus.h **** 
 405:Generated_Source\PSoC6\pdl\cmsis/include/core_cm0plus.h **** #define SCB_ICSR_ISRPENDING_Pos            22U                                            /*!< SCB 
 406:Generated_Source\PSoC6\pdl\cmsis/include/core_cm0plus.h **** #define SCB_ICSR_ISRPENDING_Msk            (1UL << SCB_ICSR_ISRPENDING_Pos)               /*!< SCB 
 407:Generated_Source\PSoC6\pdl\cmsis/include/core_cm0plus.h **** 
 408:Generated_Source\PSoC6\pdl\cmsis/include/core_cm0plus.h **** #define SCB_ICSR_VECTPENDING_Pos           12U                                            /*!< SCB 
 409:Generated_Source\PSoC6\pdl\cmsis/include/core_cm0plus.h **** #define SCB_ICSR_VECTPENDING_Msk           (0x1FFUL << SCB_ICSR_VECTPENDING_Pos)          /*!< SCB 
 410:Generated_Source\PSoC6\pdl\cmsis/include/core_cm0plus.h **** 
 411:Generated_Source\PSoC6\pdl\cmsis/include/core_cm0plus.h **** #define SCB_ICSR_VECTACTIVE_Pos             0U                                            /*!< SCB 
 412:Generated_Source\PSoC6\pdl\cmsis/include/core_cm0plus.h **** #define SCB_ICSR_VECTACTIVE_Msk            (0x1FFUL /*<< SCB_ICSR_VECTACTIVE_Pos*/)       /*!< SCB 
 413:Generated_Source\PSoC6\pdl\cmsis/include/core_cm0plus.h **** 
 414:Generated_Source\PSoC6\pdl\cmsis/include/core_cm0plus.h **** #if defined (__VTOR_PRESENT) && (__VTOR_PRESENT == 1U)
 415:Generated_Source\PSoC6\pdl\cmsis/include/core_cm0plus.h **** /* SCB Interrupt Control State Register Definitions */
 416:Generated_Source\PSoC6\pdl\cmsis/include/core_cm0plus.h **** #define SCB_VTOR_TBLOFF_Pos                 8U                                            /*!< SCB 
 417:Generated_Source\PSoC6\pdl\cmsis/include/core_cm0plus.h **** #define SCB_VTOR_TBLOFF_Msk                (0xFFFFFFUL << SCB_VTOR_TBLOFF_Pos)            /*!< SCB 
 418:Generated_Source\PSoC6\pdl\cmsis/include/core_cm0plus.h **** #endif
 419:Generated_Source\PSoC6\pdl\cmsis/include/core_cm0plus.h **** 
 420:Generated_Source\PSoC6\pdl\cmsis/include/core_cm0plus.h **** /* SCB Application Interrupt and Reset Control Register Definitions */
 421:Generated_Source\PSoC6\pdl\cmsis/include/core_cm0plus.h **** #define SCB_AIRCR_VECTKEY_Pos              16U                                            /*!< SCB 
 422:Generated_Source\PSoC6\pdl\cmsis/include/core_cm0plus.h **** #define SCB_AIRCR_VECTKEY_Msk              (0xFFFFUL << SCB_AIRCR_VECTKEY_Pos)            /*!< SCB 
 423:Generated_Source\PSoC6\pdl\cmsis/include/core_cm0plus.h **** 
 424:Generated_Source\PSoC6\pdl\cmsis/include/core_cm0plus.h **** #define SCB_AIRCR_VECTKEYSTAT_Pos          16U                                            /*!< SCB 
 425:Generated_Source\PSoC6\pdl\cmsis/include/core_cm0plus.h **** #define SCB_AIRCR_VECTKEYSTAT_Msk          (0xFFFFUL << SCB_AIRCR_VECTKEYSTAT_Pos)        /*!< SCB 
 426:Generated_Source\PSoC6\pdl\cmsis/include/core_cm0plus.h **** 
 427:Generated_Source\PSoC6\pdl\cmsis/include/core_cm0plus.h **** #define SCB_AIRCR_ENDIANESS_Pos            15U                                            /*!< SCB 
 428:Generated_Source\PSoC6\pdl\cmsis/include/core_cm0plus.h **** #define SCB_AIRCR_ENDIANESS_Msk            (1UL << SCB_AIRCR_ENDIANESS_Pos)               /*!< SCB 
 429:Generated_Source\PSoC6\pdl\cmsis/include/core_cm0plus.h **** 
 430:Generated_Source\PSoC6\pdl\cmsis/include/core_cm0plus.h **** #define SCB_AIRCR_SYSRESETREQ_Pos           2U                                            /*!< SCB 
 431:Generated_Source\PSoC6\pdl\cmsis/include/core_cm0plus.h **** #define SCB_AIRCR_SYSRESETREQ_Msk          (1UL << SCB_AIRCR_SYSRESETREQ_Pos)             /*!< SCB 
 432:Generated_Source\PSoC6\pdl\cmsis/include/core_cm0plus.h **** 
 433:Generated_Source\PSoC6\pdl\cmsis/include/core_cm0plus.h **** #define SCB_AIRCR_VECTCLRACTIVE_Pos         1U                                            /*!< SCB 
 434:Generated_Source\PSoC6\pdl\cmsis/include/core_cm0plus.h **** #define SCB_AIRCR_VECTCLRACTIVE_Msk        (1UL << SCB_AIRCR_VECTCLRACTIVE_Pos)           /*!< SCB 
 435:Generated_Source\PSoC6\pdl\cmsis/include/core_cm0plus.h **** 
 436:Generated_Source\PSoC6\pdl\cmsis/include/core_cm0plus.h **** /* SCB System Control Register Definitions */
 437:Generated_Source\PSoC6\pdl\cmsis/include/core_cm0plus.h **** #define SCB_SCR_SEVONPEND_Pos               4U                                            /*!< SCB 
 438:Generated_Source\PSoC6\pdl\cmsis/include/core_cm0plus.h **** #define SCB_SCR_SEVONPEND_Msk              (1UL << SCB_SCR_SEVONPEND_Pos)                 /*!< SCB 
 439:Generated_Source\PSoC6\pdl\cmsis/include/core_cm0plus.h **** 
 440:Generated_Source\PSoC6\pdl\cmsis/include/core_cm0plus.h **** #define SCB_SCR_SLEEPDEEP_Pos               2U                                            /*!< SCB 
 441:Generated_Source\PSoC6\pdl\cmsis/include/core_cm0plus.h **** #define SCB_SCR_SLEEPDEEP_Msk              (1UL << SCB_SCR_SLEEPDEEP_Pos)                 /*!< SCB 
 442:Generated_Source\PSoC6\pdl\cmsis/include/core_cm0plus.h **** 
 443:Generated_Source\PSoC6\pdl\cmsis/include/core_cm0plus.h **** #define SCB_SCR_SLEEPONEXIT_Pos             1U                                            /*!< SCB 
 444:Generated_Source\PSoC6\pdl\cmsis/include/core_cm0plus.h **** #define SCB_SCR_SLEEPONEXIT_Msk            (1UL << SCB_SCR_SLEEPONEXIT_Pos)               /*!< SCB 
 445:Generated_Source\PSoC6\pdl\cmsis/include/core_cm0plus.h **** 
 446:Generated_Source\PSoC6\pdl\cmsis/include/core_cm0plus.h **** /* SCB Configuration Control Register Definitions */
 447:Generated_Source\PSoC6\pdl\cmsis/include/core_cm0plus.h **** #define SCB_CCR_STKALIGN_Pos                9U                                            /*!< SCB 
 448:Generated_Source\PSoC6\pdl\cmsis/include/core_cm0plus.h **** #define SCB_CCR_STKALIGN_Msk               (1UL << SCB_CCR_STKALIGN_Pos)                  /*!< SCB 
 449:Generated_Source\PSoC6\pdl\cmsis/include/core_cm0plus.h **** 
 450:Generated_Source\PSoC6\pdl\cmsis/include/core_cm0plus.h **** #define SCB_CCR_UNALIGN_TRP_Pos             3U                                            /*!< SCB 
 451:Generated_Source\PSoC6\pdl\cmsis/include/core_cm0plus.h **** #define SCB_CCR_UNALIGN_TRP_Msk            (1UL << SCB_CCR_UNALIGN_TRP_Pos)               /*!< SCB 
 452:Generated_Source\PSoC6\pdl\cmsis/include/core_cm0plus.h **** 
 453:Generated_Source\PSoC6\pdl\cmsis/include/core_cm0plus.h **** /* SCB System Handler Control and State Register Definitions */
 454:Generated_Source\PSoC6\pdl\cmsis/include/core_cm0plus.h **** #define SCB_SHCSR_SVCALLPENDED_Pos         15U                                            /*!< SCB 
 455:Generated_Source\PSoC6\pdl\cmsis/include/core_cm0plus.h **** #define SCB_SHCSR_SVCALLPENDED_Msk         (1UL << SCB_SHCSR_SVCALLPENDED_Pos)            /*!< SCB 
 456:Generated_Source\PSoC6\pdl\cmsis/include/core_cm0plus.h **** 
 457:Generated_Source\PSoC6\pdl\cmsis/include/core_cm0plus.h **** /*@} end of group CMSIS_SCB */
ARM GAS  C:\Users\salaz\AppData\Local\Temp\cc7F8fiw.s 			page 41


 458:Generated_Source\PSoC6\pdl\cmsis/include/core_cm0plus.h **** 
 459:Generated_Source\PSoC6\pdl\cmsis/include/core_cm0plus.h **** 
 460:Generated_Source\PSoC6\pdl\cmsis/include/core_cm0plus.h **** /**
 461:Generated_Source\PSoC6\pdl\cmsis/include/core_cm0plus.h ****   \ingroup  CMSIS_core_register
 462:Generated_Source\PSoC6\pdl\cmsis/include/core_cm0plus.h ****   \defgroup CMSIS_SysTick     System Tick Timer (SysTick)
 463:Generated_Source\PSoC6\pdl\cmsis/include/core_cm0plus.h ****   \brief    Type definitions for the System Timer Registers.
 464:Generated_Source\PSoC6\pdl\cmsis/include/core_cm0plus.h ****   @{
 465:Generated_Source\PSoC6\pdl\cmsis/include/core_cm0plus.h ****  */
 466:Generated_Source\PSoC6\pdl\cmsis/include/core_cm0plus.h **** 
 467:Generated_Source\PSoC6\pdl\cmsis/include/core_cm0plus.h **** /**
 468:Generated_Source\PSoC6\pdl\cmsis/include/core_cm0plus.h ****   \brief  Structure type to access the System Timer (SysTick).
 469:Generated_Source\PSoC6\pdl\cmsis/include/core_cm0plus.h ****  */
 470:Generated_Source\PSoC6\pdl\cmsis/include/core_cm0plus.h **** typedef struct
 471:Generated_Source\PSoC6\pdl\cmsis/include/core_cm0plus.h **** {
 472:Generated_Source\PSoC6\pdl\cmsis/include/core_cm0plus.h ****   __IOM uint32_t CTRL;                   /*!< Offset: 0x000 (R/W)  SysTick Control and Status Regis
 473:Generated_Source\PSoC6\pdl\cmsis/include/core_cm0plus.h ****   __IOM uint32_t LOAD;                   /*!< Offset: 0x004 (R/W)  SysTick Reload Value Register */
 474:Generated_Source\PSoC6\pdl\cmsis/include/core_cm0plus.h ****   __IOM uint32_t VAL;                    /*!< Offset: 0x008 (R/W)  SysTick Current Value Register *
 475:Generated_Source\PSoC6\pdl\cmsis/include/core_cm0plus.h ****   __IM  uint32_t CALIB;                  /*!< Offset: 0x00C (R/ )  SysTick Calibration Register */
 476:Generated_Source\PSoC6\pdl\cmsis/include/core_cm0plus.h **** } SysTick_Type;
 477:Generated_Source\PSoC6\pdl\cmsis/include/core_cm0plus.h **** 
 478:Generated_Source\PSoC6\pdl\cmsis/include/core_cm0plus.h **** /* SysTick Control / Status Register Definitions */
 479:Generated_Source\PSoC6\pdl\cmsis/include/core_cm0plus.h **** #define SysTick_CTRL_COUNTFLAG_Pos         16U                                            /*!< SysT
 480:Generated_Source\PSoC6\pdl\cmsis/include/core_cm0plus.h **** #define SysTick_CTRL_COUNTFLAG_Msk         (1UL << SysTick_CTRL_COUNTFLAG_Pos)            /*!< SysT
 481:Generated_Source\PSoC6\pdl\cmsis/include/core_cm0plus.h **** 
 482:Generated_Source\PSoC6\pdl\cmsis/include/core_cm0plus.h **** #define SysTick_CTRL_CLKSOURCE_Pos          2U                                            /*!< SysT
 483:Generated_Source\PSoC6\pdl\cmsis/include/core_cm0plus.h **** #define SysTick_CTRL_CLKSOURCE_Msk         (1UL << SysTick_CTRL_CLKSOURCE_Pos)            /*!< SysT
 484:Generated_Source\PSoC6\pdl\cmsis/include/core_cm0plus.h **** 
 485:Generated_Source\PSoC6\pdl\cmsis/include/core_cm0plus.h **** #define SysTick_CTRL_TICKINT_Pos            1U                                            /*!< SysT
 486:Generated_Source\PSoC6\pdl\cmsis/include/core_cm0plus.h **** #define SysTick_CTRL_TICKINT_Msk           (1UL << SysTick_CTRL_TICKINT_Pos)              /*!< SysT
 487:Generated_Source\PSoC6\pdl\cmsis/include/core_cm0plus.h **** 
 488:Generated_Source\PSoC6\pdl\cmsis/include/core_cm0plus.h **** #define SysTick_CTRL_ENABLE_Pos             0U                                            /*!< SysT
 489:Generated_Source\PSoC6\pdl\cmsis/include/core_cm0plus.h **** #define SysTick_CTRL_ENABLE_Msk            (1UL /*<< SysTick_CTRL_ENABLE_Pos*/)           /*!< SysT
 490:Generated_Source\PSoC6\pdl\cmsis/include/core_cm0plus.h **** 
 491:Generated_Source\PSoC6\pdl\cmsis/include/core_cm0plus.h **** /* SysTick Reload Register Definitions */
 492:Generated_Source\PSoC6\pdl\cmsis/include/core_cm0plus.h **** #define SysTick_LOAD_RELOAD_Pos             0U                                            /*!< SysT
 493:Generated_Source\PSoC6\pdl\cmsis/include/core_cm0plus.h **** #define SysTick_LOAD_RELOAD_Msk            (0xFFFFFFUL /*<< SysTick_LOAD_RELOAD_Pos*/)    /*!< SysT
 494:Generated_Source\PSoC6\pdl\cmsis/include/core_cm0plus.h **** 
 495:Generated_Source\PSoC6\pdl\cmsis/include/core_cm0plus.h **** /* SysTick Current Register Definitions */
 496:Generated_Source\PSoC6\pdl\cmsis/include/core_cm0plus.h **** #define SysTick_VAL_CURRENT_Pos             0U                                            /*!< SysT
 497:Generated_Source\PSoC6\pdl\cmsis/include/core_cm0plus.h **** #define SysTick_VAL_CURRENT_Msk            (0xFFFFFFUL /*<< SysTick_VAL_CURRENT_Pos*/)    /*!< SysT
 498:Generated_Source\PSoC6\pdl\cmsis/include/core_cm0plus.h **** 
 499:Generated_Source\PSoC6\pdl\cmsis/include/core_cm0plus.h **** /* SysTick Calibration Register Definitions */
 500:Generated_Source\PSoC6\pdl\cmsis/include/core_cm0plus.h **** #define SysTick_CALIB_NOREF_Pos            31U                                            /*!< SysT
 501:Generated_Source\PSoC6\pdl\cmsis/include/core_cm0plus.h **** #define SysTick_CALIB_NOREF_Msk            (1UL << SysTick_CALIB_NOREF_Pos)               /*!< SysT
 502:Generated_Source\PSoC6\pdl\cmsis/include/core_cm0plus.h **** 
 503:Generated_Source\PSoC6\pdl\cmsis/include/core_cm0plus.h **** #define SysTick_CALIB_SKEW_Pos             30U                                            /*!< SysT
 504:Generated_Source\PSoC6\pdl\cmsis/include/core_cm0plus.h **** #define SysTick_CALIB_SKEW_Msk             (1UL << SysTick_CALIB_SKEW_Pos)                /*!< SysT
 505:Generated_Source\PSoC6\pdl\cmsis/include/core_cm0plus.h **** 
 506:Generated_Source\PSoC6\pdl\cmsis/include/core_cm0plus.h **** #define SysTick_CALIB_TENMS_Pos             0U                                            /*!< SysT
 507:Generated_Source\PSoC6\pdl\cmsis/include/core_cm0plus.h **** #define SysTick_CALIB_TENMS_Msk            (0xFFFFFFUL /*<< SysTick_CALIB_TENMS_Pos*/)    /*!< SysT
 508:Generated_Source\PSoC6\pdl\cmsis/include/core_cm0plus.h **** 
 509:Generated_Source\PSoC6\pdl\cmsis/include/core_cm0plus.h **** /*@} end of group CMSIS_SysTick */
 510:Generated_Source\PSoC6\pdl\cmsis/include/core_cm0plus.h **** 
 511:Generated_Source\PSoC6\pdl\cmsis/include/core_cm0plus.h **** #if defined (__MPU_PRESENT) && (__MPU_PRESENT == 1U)
 512:Generated_Source\PSoC6\pdl\cmsis/include/core_cm0plus.h **** /**
 513:Generated_Source\PSoC6\pdl\cmsis/include/core_cm0plus.h ****   \ingroup  CMSIS_core_register
 514:Generated_Source\PSoC6\pdl\cmsis/include/core_cm0plus.h ****   \defgroup CMSIS_MPU     Memory Protection Unit (MPU)
ARM GAS  C:\Users\salaz\AppData\Local\Temp\cc7F8fiw.s 			page 42


 515:Generated_Source\PSoC6\pdl\cmsis/include/core_cm0plus.h ****   \brief    Type definitions for the Memory Protection Unit (MPU)
 516:Generated_Source\PSoC6\pdl\cmsis/include/core_cm0plus.h ****   @{
 517:Generated_Source\PSoC6\pdl\cmsis/include/core_cm0plus.h ****  */
 518:Generated_Source\PSoC6\pdl\cmsis/include/core_cm0plus.h **** 
 519:Generated_Source\PSoC6\pdl\cmsis/include/core_cm0plus.h **** /**
 520:Generated_Source\PSoC6\pdl\cmsis/include/core_cm0plus.h ****   \brief  Structure type to access the Memory Protection Unit (MPU).
 521:Generated_Source\PSoC6\pdl\cmsis/include/core_cm0plus.h ****  */
 522:Generated_Source\PSoC6\pdl\cmsis/include/core_cm0plus.h **** typedef struct
 523:Generated_Source\PSoC6\pdl\cmsis/include/core_cm0plus.h **** {
 524:Generated_Source\PSoC6\pdl\cmsis/include/core_cm0plus.h ****   __IM  uint32_t TYPE;                   /*!< Offset: 0x000 (R/ )  MPU Type Register */
 525:Generated_Source\PSoC6\pdl\cmsis/include/core_cm0plus.h ****   __IOM uint32_t CTRL;                   /*!< Offset: 0x004 (R/W)  MPU Control Register */
 526:Generated_Source\PSoC6\pdl\cmsis/include/core_cm0plus.h ****   __IOM uint32_t RNR;                    /*!< Offset: 0x008 (R/W)  MPU Region RNRber Register */
 527:Generated_Source\PSoC6\pdl\cmsis/include/core_cm0plus.h ****   __IOM uint32_t RBAR;                   /*!< Offset: 0x00C (R/W)  MPU Region Base Address Register
 528:Generated_Source\PSoC6\pdl\cmsis/include/core_cm0plus.h ****   __IOM uint32_t RASR;                   /*!< Offset: 0x010 (R/W)  MPU Region Attribute and Size Re
 529:Generated_Source\PSoC6\pdl\cmsis/include/core_cm0plus.h **** } MPU_Type;
 530:Generated_Source\PSoC6\pdl\cmsis/include/core_cm0plus.h **** 
 531:Generated_Source\PSoC6\pdl\cmsis/include/core_cm0plus.h **** /* MPU Type Register Definitions */
 532:Generated_Source\PSoC6\pdl\cmsis/include/core_cm0plus.h **** #define MPU_TYPE_IREGION_Pos               16U                                            /*!< MPU 
 533:Generated_Source\PSoC6\pdl\cmsis/include/core_cm0plus.h **** #define MPU_TYPE_IREGION_Msk               (0xFFUL << MPU_TYPE_IREGION_Pos)               /*!< MPU 
 534:Generated_Source\PSoC6\pdl\cmsis/include/core_cm0plus.h **** 
 535:Generated_Source\PSoC6\pdl\cmsis/include/core_cm0plus.h **** #define MPU_TYPE_DREGION_Pos                8U                                            /*!< MPU 
 536:Generated_Source\PSoC6\pdl\cmsis/include/core_cm0plus.h **** #define MPU_TYPE_DREGION_Msk               (0xFFUL << MPU_TYPE_DREGION_Pos)               /*!< MPU 
 537:Generated_Source\PSoC6\pdl\cmsis/include/core_cm0plus.h **** 
 538:Generated_Source\PSoC6\pdl\cmsis/include/core_cm0plus.h **** #define MPU_TYPE_SEPARATE_Pos               0U                                            /*!< MPU 
 539:Generated_Source\PSoC6\pdl\cmsis/include/core_cm0plus.h **** #define MPU_TYPE_SEPARATE_Msk              (1UL /*<< MPU_TYPE_SEPARATE_Pos*/)             /*!< MPU 
 540:Generated_Source\PSoC6\pdl\cmsis/include/core_cm0plus.h **** 
 541:Generated_Source\PSoC6\pdl\cmsis/include/core_cm0plus.h **** /* MPU Control Register Definitions */
 542:Generated_Source\PSoC6\pdl\cmsis/include/core_cm0plus.h **** #define MPU_CTRL_PRIVDEFENA_Pos             2U                                            /*!< MPU 
 543:Generated_Source\PSoC6\pdl\cmsis/include/core_cm0plus.h **** #define MPU_CTRL_PRIVDEFENA_Msk            (1UL << MPU_CTRL_PRIVDEFENA_Pos)               /*!< MPU 
 544:Generated_Source\PSoC6\pdl\cmsis/include/core_cm0plus.h **** 
 545:Generated_Source\PSoC6\pdl\cmsis/include/core_cm0plus.h **** #define MPU_CTRL_HFNMIENA_Pos               1U                                            /*!< MPU 
 546:Generated_Source\PSoC6\pdl\cmsis/include/core_cm0plus.h **** #define MPU_CTRL_HFNMIENA_Msk              (1UL << MPU_CTRL_HFNMIENA_Pos)                 /*!< MPU 
 547:Generated_Source\PSoC6\pdl\cmsis/include/core_cm0plus.h **** 
 548:Generated_Source\PSoC6\pdl\cmsis/include/core_cm0plus.h **** #define MPU_CTRL_ENABLE_Pos                 0U                                            /*!< MPU 
 549:Generated_Source\PSoC6\pdl\cmsis/include/core_cm0plus.h **** #define MPU_CTRL_ENABLE_Msk                (1UL /*<< MPU_CTRL_ENABLE_Pos*/)               /*!< MPU 
 550:Generated_Source\PSoC6\pdl\cmsis/include/core_cm0plus.h **** 
 551:Generated_Source\PSoC6\pdl\cmsis/include/core_cm0plus.h **** /* MPU Region Number Register Definitions */
 552:Generated_Source\PSoC6\pdl\cmsis/include/core_cm0plus.h **** #define MPU_RNR_REGION_Pos                  0U                                            /*!< MPU 
 553:Generated_Source\PSoC6\pdl\cmsis/include/core_cm0plus.h **** #define MPU_RNR_REGION_Msk                 (0xFFUL /*<< MPU_RNR_REGION_Pos*/)             /*!< MPU 
 554:Generated_Source\PSoC6\pdl\cmsis/include/core_cm0plus.h **** 
 555:Generated_Source\PSoC6\pdl\cmsis/include/core_cm0plus.h **** /* MPU Region Base Address Register Definitions */
 556:Generated_Source\PSoC6\pdl\cmsis/include/core_cm0plus.h **** #define MPU_RBAR_ADDR_Pos                   8U                                            /*!< MPU 
 557:Generated_Source\PSoC6\pdl\cmsis/include/core_cm0plus.h **** #define MPU_RBAR_ADDR_Msk                  (0xFFFFFFUL << MPU_RBAR_ADDR_Pos)              /*!< MPU 
 558:Generated_Source\PSoC6\pdl\cmsis/include/core_cm0plus.h **** 
 559:Generated_Source\PSoC6\pdl\cmsis/include/core_cm0plus.h **** #define MPU_RBAR_VALID_Pos                  4U                                            /*!< MPU 
 560:Generated_Source\PSoC6\pdl\cmsis/include/core_cm0plus.h **** #define MPU_RBAR_VALID_Msk                 (1UL << MPU_RBAR_VALID_Pos)                    /*!< MPU 
 561:Generated_Source\PSoC6\pdl\cmsis/include/core_cm0plus.h **** 
 562:Generated_Source\PSoC6\pdl\cmsis/include/core_cm0plus.h **** #define MPU_RBAR_REGION_Pos                 0U                                            /*!< MPU 
 563:Generated_Source\PSoC6\pdl\cmsis/include/core_cm0plus.h **** #define MPU_RBAR_REGION_Msk                (0xFUL /*<< MPU_RBAR_REGION_Pos*/)             /*!< MPU 
 564:Generated_Source\PSoC6\pdl\cmsis/include/core_cm0plus.h **** 
 565:Generated_Source\PSoC6\pdl\cmsis/include/core_cm0plus.h **** /* MPU Region Attribute and Size Register Definitions */
 566:Generated_Source\PSoC6\pdl\cmsis/include/core_cm0plus.h **** #define MPU_RASR_ATTRS_Pos                 16U                                            /*!< MPU 
 567:Generated_Source\PSoC6\pdl\cmsis/include/core_cm0plus.h **** #define MPU_RASR_ATTRS_Msk                 (0xFFFFUL << MPU_RASR_ATTRS_Pos)               /*!< MPU 
 568:Generated_Source\PSoC6\pdl\cmsis/include/core_cm0plus.h **** 
 569:Generated_Source\PSoC6\pdl\cmsis/include/core_cm0plus.h **** #define MPU_RASR_XN_Pos                    28U                                            /*!< MPU 
 570:Generated_Source\PSoC6\pdl\cmsis/include/core_cm0plus.h **** #define MPU_RASR_XN_Msk                    (1UL << MPU_RASR_XN_Pos)                       /*!< MPU 
 571:Generated_Source\PSoC6\pdl\cmsis/include/core_cm0plus.h **** 
ARM GAS  C:\Users\salaz\AppData\Local\Temp\cc7F8fiw.s 			page 43


 572:Generated_Source\PSoC6\pdl\cmsis/include/core_cm0plus.h **** #define MPU_RASR_AP_Pos                    24U                                            /*!< MPU 
 573:Generated_Source\PSoC6\pdl\cmsis/include/core_cm0plus.h **** #define MPU_RASR_AP_Msk                    (0x7UL << MPU_RASR_AP_Pos)                     /*!< MPU 
 574:Generated_Source\PSoC6\pdl\cmsis/include/core_cm0plus.h **** 
 575:Generated_Source\PSoC6\pdl\cmsis/include/core_cm0plus.h **** #define MPU_RASR_TEX_Pos                   19U                                            /*!< MPU 
 576:Generated_Source\PSoC6\pdl\cmsis/include/core_cm0plus.h **** #define MPU_RASR_TEX_Msk                   (0x7UL << MPU_RASR_TEX_Pos)                    /*!< MPU 
 577:Generated_Source\PSoC6\pdl\cmsis/include/core_cm0plus.h **** 
 578:Generated_Source\PSoC6\pdl\cmsis/include/core_cm0plus.h **** #define MPU_RASR_S_Pos                     18U                                            /*!< MPU 
 579:Generated_Source\PSoC6\pdl\cmsis/include/core_cm0plus.h **** #define MPU_RASR_S_Msk                     (1UL << MPU_RASR_S_Pos)                        /*!< MPU 
 580:Generated_Source\PSoC6\pdl\cmsis/include/core_cm0plus.h **** 
 581:Generated_Source\PSoC6\pdl\cmsis/include/core_cm0plus.h **** #define MPU_RASR_C_Pos                     17U                                            /*!< MPU 
 582:Generated_Source\PSoC6\pdl\cmsis/include/core_cm0plus.h **** #define MPU_RASR_C_Msk                     (1UL << MPU_RASR_C_Pos)                        /*!< MPU 
 583:Generated_Source\PSoC6\pdl\cmsis/include/core_cm0plus.h **** 
 584:Generated_Source\PSoC6\pdl\cmsis/include/core_cm0plus.h **** #define MPU_RASR_B_Pos                     16U                                            /*!< MPU 
 585:Generated_Source\PSoC6\pdl\cmsis/include/core_cm0plus.h **** #define MPU_RASR_B_Msk                     (1UL << MPU_RASR_B_Pos)                        /*!< MPU 
 586:Generated_Source\PSoC6\pdl\cmsis/include/core_cm0plus.h **** 
 587:Generated_Source\PSoC6\pdl\cmsis/include/core_cm0plus.h **** #define MPU_RASR_SRD_Pos                    8U                                            /*!< MPU 
 588:Generated_Source\PSoC6\pdl\cmsis/include/core_cm0plus.h **** #define MPU_RASR_SRD_Msk                   (0xFFUL << MPU_RASR_SRD_Pos)                   /*!< MPU 
 589:Generated_Source\PSoC6\pdl\cmsis/include/core_cm0plus.h **** 
 590:Generated_Source\PSoC6\pdl\cmsis/include/core_cm0plus.h **** #define MPU_RASR_SIZE_Pos                   1U                                            /*!< MPU 
 591:Generated_Source\PSoC6\pdl\cmsis/include/core_cm0plus.h **** #define MPU_RASR_SIZE_Msk                  (0x1FUL << MPU_RASR_SIZE_Pos)                  /*!< MPU 
 592:Generated_Source\PSoC6\pdl\cmsis/include/core_cm0plus.h **** 
 593:Generated_Source\PSoC6\pdl\cmsis/include/core_cm0plus.h **** #define MPU_RASR_ENABLE_Pos                 0U                                            /*!< MPU 
 594:Generated_Source\PSoC6\pdl\cmsis/include/core_cm0plus.h **** #define MPU_RASR_ENABLE_Msk                (1UL /*<< MPU_RASR_ENABLE_Pos*/)               /*!< MPU 
 595:Generated_Source\PSoC6\pdl\cmsis/include/core_cm0plus.h **** 
 596:Generated_Source\PSoC6\pdl\cmsis/include/core_cm0plus.h **** /*@} end of group CMSIS_MPU */
 597:Generated_Source\PSoC6\pdl\cmsis/include/core_cm0plus.h **** #endif
 598:Generated_Source\PSoC6\pdl\cmsis/include/core_cm0plus.h **** 
 599:Generated_Source\PSoC6\pdl\cmsis/include/core_cm0plus.h **** 
 600:Generated_Source\PSoC6\pdl\cmsis/include/core_cm0plus.h **** /**
 601:Generated_Source\PSoC6\pdl\cmsis/include/core_cm0plus.h ****   \ingroup  CMSIS_core_register
 602:Generated_Source\PSoC6\pdl\cmsis/include/core_cm0plus.h ****   \defgroup CMSIS_CoreDebug       Core Debug Registers (CoreDebug)
 603:Generated_Source\PSoC6\pdl\cmsis/include/core_cm0plus.h ****   \brief    Cortex-M0+ Core Debug Registers (DCB registers, SHCSR, and DFSR) are only accessible ov
 604:Generated_Source\PSoC6\pdl\cmsis/include/core_cm0plus.h ****             Therefore they are not covered by the Cortex-M0+ header file.
 605:Generated_Source\PSoC6\pdl\cmsis/include/core_cm0plus.h ****   @{
 606:Generated_Source\PSoC6\pdl\cmsis/include/core_cm0plus.h ****  */
 607:Generated_Source\PSoC6\pdl\cmsis/include/core_cm0plus.h **** /*@} end of group CMSIS_CoreDebug */
 608:Generated_Source\PSoC6\pdl\cmsis/include/core_cm0plus.h **** 
 609:Generated_Source\PSoC6\pdl\cmsis/include/core_cm0plus.h **** 
 610:Generated_Source\PSoC6\pdl\cmsis/include/core_cm0plus.h **** /**
 611:Generated_Source\PSoC6\pdl\cmsis/include/core_cm0plus.h ****   \ingroup    CMSIS_core_register
 612:Generated_Source\PSoC6\pdl\cmsis/include/core_cm0plus.h ****   \defgroup   CMSIS_core_bitfield     Core register bit field macros
 613:Generated_Source\PSoC6\pdl\cmsis/include/core_cm0plus.h ****   \brief      Macros for use with bit field definitions (xxx_Pos, xxx_Msk).
 614:Generated_Source\PSoC6\pdl\cmsis/include/core_cm0plus.h ****   @{
 615:Generated_Source\PSoC6\pdl\cmsis/include/core_cm0plus.h ****  */
 616:Generated_Source\PSoC6\pdl\cmsis/include/core_cm0plus.h **** 
 617:Generated_Source\PSoC6\pdl\cmsis/include/core_cm0plus.h **** /**
 618:Generated_Source\PSoC6\pdl\cmsis/include/core_cm0plus.h ****   \brief   Mask and shift a bit field value for use in a register bit range.
 619:Generated_Source\PSoC6\pdl\cmsis/include/core_cm0plus.h ****   \param[in] field  Name of the register bit field.
 620:Generated_Source\PSoC6\pdl\cmsis/include/core_cm0plus.h ****   \param[in] value  Value of the bit field. This parameter is interpreted as an uint32_t type.
 621:Generated_Source\PSoC6\pdl\cmsis/include/core_cm0plus.h ****   \return           Masked and shifted value.
 622:Generated_Source\PSoC6\pdl\cmsis/include/core_cm0plus.h **** */
 623:Generated_Source\PSoC6\pdl\cmsis/include/core_cm0plus.h **** #define _VAL2FLD(field, value)    (((uint32_t)(value) << field ## _Pos) & field ## _Msk)
 624:Generated_Source\PSoC6\pdl\cmsis/include/core_cm0plus.h **** 
 625:Generated_Source\PSoC6\pdl\cmsis/include/core_cm0plus.h **** /**
 626:Generated_Source\PSoC6\pdl\cmsis/include/core_cm0plus.h ****   \brief     Mask and shift a register value to extract a bit filed value.
 627:Generated_Source\PSoC6\pdl\cmsis/include/core_cm0plus.h ****   \param[in] field  Name of the register bit field.
 628:Generated_Source\PSoC6\pdl\cmsis/include/core_cm0plus.h ****   \param[in] value  Value of register. This parameter is interpreted as an uint32_t type.
ARM GAS  C:\Users\salaz\AppData\Local\Temp\cc7F8fiw.s 			page 44


 629:Generated_Source\PSoC6\pdl\cmsis/include/core_cm0plus.h ****   \return           Masked and shifted bit field value.
 630:Generated_Source\PSoC6\pdl\cmsis/include/core_cm0plus.h **** */
 631:Generated_Source\PSoC6\pdl\cmsis/include/core_cm0plus.h **** #define _FLD2VAL(field, value)    (((uint32_t)(value) & field ## _Msk) >> field ## _Pos)
 632:Generated_Source\PSoC6\pdl\cmsis/include/core_cm0plus.h **** 
 633:Generated_Source\PSoC6\pdl\cmsis/include/core_cm0plus.h **** /*@} end of group CMSIS_core_bitfield */
 634:Generated_Source\PSoC6\pdl\cmsis/include/core_cm0plus.h **** 
 635:Generated_Source\PSoC6\pdl\cmsis/include/core_cm0plus.h **** 
 636:Generated_Source\PSoC6\pdl\cmsis/include/core_cm0plus.h **** /**
 637:Generated_Source\PSoC6\pdl\cmsis/include/core_cm0plus.h ****   \ingroup    CMSIS_core_register
 638:Generated_Source\PSoC6\pdl\cmsis/include/core_cm0plus.h ****   \defgroup   CMSIS_core_base     Core Definitions
 639:Generated_Source\PSoC6\pdl\cmsis/include/core_cm0plus.h ****   \brief      Definitions for base addresses, unions, and structures.
 640:Generated_Source\PSoC6\pdl\cmsis/include/core_cm0plus.h ****   @{
 641:Generated_Source\PSoC6\pdl\cmsis/include/core_cm0plus.h ****  */
 642:Generated_Source\PSoC6\pdl\cmsis/include/core_cm0plus.h **** 
 643:Generated_Source\PSoC6\pdl\cmsis/include/core_cm0plus.h **** /* Memory mapping of Core Hardware */
 644:Generated_Source\PSoC6\pdl\cmsis/include/core_cm0plus.h **** #define SCS_BASE            (0xE000E000UL)                            /*!< System Control Space Bas
 645:Generated_Source\PSoC6\pdl\cmsis/include/core_cm0plus.h **** #define SysTick_BASE        (SCS_BASE +  0x0010UL)                    /*!< SysTick Base Address */
 646:Generated_Source\PSoC6\pdl\cmsis/include/core_cm0plus.h **** #define NVIC_BASE           (SCS_BASE +  0x0100UL)                    /*!< NVIC Base Address */
 647:Generated_Source\PSoC6\pdl\cmsis/include/core_cm0plus.h **** #define SCB_BASE            (SCS_BASE +  0x0D00UL)                    /*!< System Control Block Bas
 648:Generated_Source\PSoC6\pdl\cmsis/include/core_cm0plus.h **** 
 649:Generated_Source\PSoC6\pdl\cmsis/include/core_cm0plus.h **** #define SCB                 ((SCB_Type       *)     SCB_BASE      )   /*!< SCB configuration struct
 650:Generated_Source\PSoC6\pdl\cmsis/include/core_cm0plus.h **** #define SysTick             ((SysTick_Type   *)     SysTick_BASE  )   /*!< SysTick configuration st
 651:Generated_Source\PSoC6\pdl\cmsis/include/core_cm0plus.h **** #define NVIC                ((NVIC_Type      *)     NVIC_BASE     )   /*!< NVIC configuration struc
 652:Generated_Source\PSoC6\pdl\cmsis/include/core_cm0plus.h **** 
 653:Generated_Source\PSoC6\pdl\cmsis/include/core_cm0plus.h **** #if defined (__MPU_PRESENT) && (__MPU_PRESENT == 1U)
 654:Generated_Source\PSoC6\pdl\cmsis/include/core_cm0plus.h ****   #define MPU_BASE          (SCS_BASE +  0x0D90UL)                    /*!< Memory Protection Unit *
 655:Generated_Source\PSoC6\pdl\cmsis/include/core_cm0plus.h ****   #define MPU               ((MPU_Type       *)     MPU_BASE      )   /*!< Memory Protection Unit *
 656:Generated_Source\PSoC6\pdl\cmsis/include/core_cm0plus.h **** #endif
 657:Generated_Source\PSoC6\pdl\cmsis/include/core_cm0plus.h **** 
 658:Generated_Source\PSoC6\pdl\cmsis/include/core_cm0plus.h **** /*@} */
 659:Generated_Source\PSoC6\pdl\cmsis/include/core_cm0plus.h **** 
 660:Generated_Source\PSoC6\pdl\cmsis/include/core_cm0plus.h **** 
 661:Generated_Source\PSoC6\pdl\cmsis/include/core_cm0plus.h **** 
 662:Generated_Source\PSoC6\pdl\cmsis/include/core_cm0plus.h **** /*******************************************************************************
 663:Generated_Source\PSoC6\pdl\cmsis/include/core_cm0plus.h ****  *                Hardware Abstraction Layer
 664:Generated_Source\PSoC6\pdl\cmsis/include/core_cm0plus.h ****   Core Function Interface contains:
 665:Generated_Source\PSoC6\pdl\cmsis/include/core_cm0plus.h ****   - Core NVIC Functions
 666:Generated_Source\PSoC6\pdl\cmsis/include/core_cm0plus.h ****   - Core SysTick Functions
 667:Generated_Source\PSoC6\pdl\cmsis/include/core_cm0plus.h ****   - Core Register Access Functions
 668:Generated_Source\PSoC6\pdl\cmsis/include/core_cm0plus.h ****  ******************************************************************************/
 669:Generated_Source\PSoC6\pdl\cmsis/include/core_cm0plus.h **** /**
 670:Generated_Source\PSoC6\pdl\cmsis/include/core_cm0plus.h ****   \defgroup CMSIS_Core_FunctionInterface Functions and Instructions Reference
 671:Generated_Source\PSoC6\pdl\cmsis/include/core_cm0plus.h **** */
 672:Generated_Source\PSoC6\pdl\cmsis/include/core_cm0plus.h **** 
 673:Generated_Source\PSoC6\pdl\cmsis/include/core_cm0plus.h **** 
 674:Generated_Source\PSoC6\pdl\cmsis/include/core_cm0plus.h **** 
 675:Generated_Source\PSoC6\pdl\cmsis/include/core_cm0plus.h **** /* ##########################   NVIC functions  #################################### */
 676:Generated_Source\PSoC6\pdl\cmsis/include/core_cm0plus.h **** /**
 677:Generated_Source\PSoC6\pdl\cmsis/include/core_cm0plus.h ****   \ingroup  CMSIS_Core_FunctionInterface
 678:Generated_Source\PSoC6\pdl\cmsis/include/core_cm0plus.h ****   \defgroup CMSIS_Core_NVICFunctions NVIC Functions
 679:Generated_Source\PSoC6\pdl\cmsis/include/core_cm0plus.h ****   \brief    Functions that manage interrupts and exceptions via the NVIC.
 680:Generated_Source\PSoC6\pdl\cmsis/include/core_cm0plus.h ****   @{
 681:Generated_Source\PSoC6\pdl\cmsis/include/core_cm0plus.h ****  */
 682:Generated_Source\PSoC6\pdl\cmsis/include/core_cm0plus.h **** 
 683:Generated_Source\PSoC6\pdl\cmsis/include/core_cm0plus.h **** #ifndef CMSIS_NVIC_VIRTUAL
 684:Generated_Source\PSoC6\pdl\cmsis/include/core_cm0plus.h **** /*#define NVIC_SetPriorityGrouping    __NVIC_SetPriorityGrouping   not available for Cortex-M0+ */
 685:Generated_Source\PSoC6\pdl\cmsis/include/core_cm0plus.h **** /*#define NVIC_GetPriorityGrouping    __NVIC_GetPriorityGrouping   not available for Cortex-M0+ */
ARM GAS  C:\Users\salaz\AppData\Local\Temp\cc7F8fiw.s 			page 45


 686:Generated_Source\PSoC6\pdl\cmsis/include/core_cm0plus.h ****   #define NVIC_EnableIRQ              __NVIC_EnableIRQ
 687:Generated_Source\PSoC6\pdl\cmsis/include/core_cm0plus.h ****   #define NVIC_GetEnableIRQ           __NVIC_GetEnableIRQ
 688:Generated_Source\PSoC6\pdl\cmsis/include/core_cm0plus.h ****   #define NVIC_DisableIRQ             __NVIC_DisableIRQ
 689:Generated_Source\PSoC6\pdl\cmsis/include/core_cm0plus.h ****   #define NVIC_GetPendingIRQ          __NVIC_GetPendingIRQ
 690:Generated_Source\PSoC6\pdl\cmsis/include/core_cm0plus.h ****   #define NVIC_SetPendingIRQ          __NVIC_SetPendingIRQ
 691:Generated_Source\PSoC6\pdl\cmsis/include/core_cm0plus.h ****   #define NVIC_ClearPendingIRQ        __NVIC_ClearPendingIRQ
 692:Generated_Source\PSoC6\pdl\cmsis/include/core_cm0plus.h **** /*#define NVIC_GetActive              __NVIC_GetActive             not available for Cortex-M0+ */
 693:Generated_Source\PSoC6\pdl\cmsis/include/core_cm0plus.h ****   #define NVIC_SetPriority            __NVIC_SetPriority
 694:Generated_Source\PSoC6\pdl\cmsis/include/core_cm0plus.h ****   #define NVIC_GetPriority            __NVIC_GetPriority
 695:Generated_Source\PSoC6\pdl\cmsis/include/core_cm0plus.h **** #endif /* CMSIS_NVIC_VIRTUAL */
 696:Generated_Source\PSoC6\pdl\cmsis/include/core_cm0plus.h **** 
 697:Generated_Source\PSoC6\pdl\cmsis/include/core_cm0plus.h **** #ifndef CMSIS_VECTAB_VIRTUAL
 698:Generated_Source\PSoC6\pdl\cmsis/include/core_cm0plus.h ****   #define NVIC_SetVector              __NVIC_SetVector
 699:Generated_Source\PSoC6\pdl\cmsis/include/core_cm0plus.h ****   #define NVIC_GetVector              __NVIC_GetVector
 700:Generated_Source\PSoC6\pdl\cmsis/include/core_cm0plus.h **** #endif  /* (CMSIS_VECTAB_VIRTUAL) */
 701:Generated_Source\PSoC6\pdl\cmsis/include/core_cm0plus.h **** 
 702:Generated_Source\PSoC6\pdl\cmsis/include/core_cm0plus.h **** #define NVIC_USER_IRQ_OFFSET          16
 703:Generated_Source\PSoC6\pdl\cmsis/include/core_cm0plus.h **** 
 704:Generated_Source\PSoC6\pdl\cmsis/include/core_cm0plus.h **** 
 705:Generated_Source\PSoC6\pdl\cmsis/include/core_cm0plus.h **** /* Interrupt Priorities are WORD accessible only under ARMv6M                   */
 706:Generated_Source\PSoC6\pdl\cmsis/include/core_cm0plus.h **** /* The following MACROS handle generation of the register offset and byte masks */
 707:Generated_Source\PSoC6\pdl\cmsis/include/core_cm0plus.h **** #define _BIT_SHIFT(IRQn)         (  ((((uint32_t)(int32_t)(IRQn))         )      &  0x03UL) * 8UL)
 708:Generated_Source\PSoC6\pdl\cmsis/include/core_cm0plus.h **** #define _SHP_IDX(IRQn)           ( (((((uint32_t)(int32_t)(IRQn)) & 0x0FUL)-8UL) >>    2UL)      )
 709:Generated_Source\PSoC6\pdl\cmsis/include/core_cm0plus.h **** #define _IP_IDX(IRQn)            (   (((uint32_t)(int32_t)(IRQn))                >>    2UL)      )
 710:Generated_Source\PSoC6\pdl\cmsis/include/core_cm0plus.h **** 
 711:Generated_Source\PSoC6\pdl\cmsis/include/core_cm0plus.h **** 
 712:Generated_Source\PSoC6\pdl\cmsis/include/core_cm0plus.h **** /**
 713:Generated_Source\PSoC6\pdl\cmsis/include/core_cm0plus.h ****   \brief   Enable Interrupt
 714:Generated_Source\PSoC6\pdl\cmsis/include/core_cm0plus.h ****   \details Enables a device specific interrupt in the NVIC interrupt controller.
 715:Generated_Source\PSoC6\pdl\cmsis/include/core_cm0plus.h ****   \param [in]      IRQn  Device specific interrupt number.
 716:Generated_Source\PSoC6\pdl\cmsis/include/core_cm0plus.h ****   \note    IRQn must not be negative.
 717:Generated_Source\PSoC6\pdl\cmsis/include/core_cm0plus.h ****  */
 718:Generated_Source\PSoC6\pdl\cmsis/include/core_cm0plus.h **** __STATIC_INLINE void __NVIC_EnableIRQ(IRQn_Type IRQn)
 719:Generated_Source\PSoC6\pdl\cmsis/include/core_cm0plus.h **** {
 720:Generated_Source\PSoC6\pdl\cmsis/include/core_cm0plus.h ****   if ((int32_t)(IRQn) >= 0)
 721:Generated_Source\PSoC6\pdl\cmsis/include/core_cm0plus.h ****   {
 722:Generated_Source\PSoC6\pdl\cmsis/include/core_cm0plus.h ****     NVIC->ISER[0U] = (uint32_t)(1UL << (((uint32_t)(int32_t)IRQn) & 0x1FUL));
 723:Generated_Source\PSoC6\pdl\cmsis/include/core_cm0plus.h ****   }
 724:Generated_Source\PSoC6\pdl\cmsis/include/core_cm0plus.h **** }
 725:Generated_Source\PSoC6\pdl\cmsis/include/core_cm0plus.h **** 
 726:Generated_Source\PSoC6\pdl\cmsis/include/core_cm0plus.h **** 
 727:Generated_Source\PSoC6\pdl\cmsis/include/core_cm0plus.h **** /**
 728:Generated_Source\PSoC6\pdl\cmsis/include/core_cm0plus.h ****   \brief   Get Interrupt Enable status
 729:Generated_Source\PSoC6\pdl\cmsis/include/core_cm0plus.h ****   \details Returns a device specific interrupt enable status from the NVIC interrupt controller.
 730:Generated_Source\PSoC6\pdl\cmsis/include/core_cm0plus.h ****   \param [in]      IRQn  Device specific interrupt number.
 731:Generated_Source\PSoC6\pdl\cmsis/include/core_cm0plus.h ****   \return             0  Interrupt is not enabled.
 732:Generated_Source\PSoC6\pdl\cmsis/include/core_cm0plus.h ****   \return             1  Interrupt is enabled.
 733:Generated_Source\PSoC6\pdl\cmsis/include/core_cm0plus.h ****   \note    IRQn must not be negative.
 734:Generated_Source\PSoC6\pdl\cmsis/include/core_cm0plus.h ****  */
 735:Generated_Source\PSoC6\pdl\cmsis/include/core_cm0plus.h **** __STATIC_INLINE uint32_t __NVIC_GetEnableIRQ(IRQn_Type IRQn)
 736:Generated_Source\PSoC6\pdl\cmsis/include/core_cm0plus.h **** {
 737:Generated_Source\PSoC6\pdl\cmsis/include/core_cm0plus.h ****   if ((int32_t)(IRQn) >= 0)
 738:Generated_Source\PSoC6\pdl\cmsis/include/core_cm0plus.h ****   {
 739:Generated_Source\PSoC6\pdl\cmsis/include/core_cm0plus.h ****     return((uint32_t)(((NVIC->ISER[0U] & (1UL << (((uint32_t)(int32_t)IRQn) & 0x1FUL))) != 0UL) ? 1
 740:Generated_Source\PSoC6\pdl\cmsis/include/core_cm0plus.h ****   }
 741:Generated_Source\PSoC6\pdl\cmsis/include/core_cm0plus.h ****   else
 742:Generated_Source\PSoC6\pdl\cmsis/include/core_cm0plus.h ****   {
ARM GAS  C:\Users\salaz\AppData\Local\Temp\cc7F8fiw.s 			page 46


 743:Generated_Source\PSoC6\pdl\cmsis/include/core_cm0plus.h ****     return(0U);
 744:Generated_Source\PSoC6\pdl\cmsis/include/core_cm0plus.h ****   }
 745:Generated_Source\PSoC6\pdl\cmsis/include/core_cm0plus.h **** }
 746:Generated_Source\PSoC6\pdl\cmsis/include/core_cm0plus.h **** 
 747:Generated_Source\PSoC6\pdl\cmsis/include/core_cm0plus.h **** 
 748:Generated_Source\PSoC6\pdl\cmsis/include/core_cm0plus.h **** /**
 749:Generated_Source\PSoC6\pdl\cmsis/include/core_cm0plus.h ****   \brief   Disable Interrupt
 750:Generated_Source\PSoC6\pdl\cmsis/include/core_cm0plus.h ****   \details Disables a device specific interrupt in the NVIC interrupt controller.
 751:Generated_Source\PSoC6\pdl\cmsis/include/core_cm0plus.h ****   \param [in]      IRQn  Device specific interrupt number.
 752:Generated_Source\PSoC6\pdl\cmsis/include/core_cm0plus.h ****   \note    IRQn must not be negative.
 753:Generated_Source\PSoC6\pdl\cmsis/include/core_cm0plus.h ****  */
 754:Generated_Source\PSoC6\pdl\cmsis/include/core_cm0plus.h **** __STATIC_INLINE void __NVIC_DisableIRQ(IRQn_Type IRQn)
 755:Generated_Source\PSoC6\pdl\cmsis/include/core_cm0plus.h **** {
 756:Generated_Source\PSoC6\pdl\cmsis/include/core_cm0plus.h ****   if ((int32_t)(IRQn) >= 0)
 757:Generated_Source\PSoC6\pdl\cmsis/include/core_cm0plus.h ****   {
 758:Generated_Source\PSoC6\pdl\cmsis/include/core_cm0plus.h ****     NVIC->ICER[0U] = (uint32_t)(1UL << (((uint32_t)(int32_t)IRQn) & 0x1FUL));
 759:Generated_Source\PSoC6\pdl\cmsis/include/core_cm0plus.h ****     __DSB();
 760:Generated_Source\PSoC6\pdl\cmsis/include/core_cm0plus.h ****     __ISB();
 761:Generated_Source\PSoC6\pdl\cmsis/include/core_cm0plus.h ****   }
 762:Generated_Source\PSoC6\pdl\cmsis/include/core_cm0plus.h **** }
 763:Generated_Source\PSoC6\pdl\cmsis/include/core_cm0plus.h **** 
 764:Generated_Source\PSoC6\pdl\cmsis/include/core_cm0plus.h **** 
 765:Generated_Source\PSoC6\pdl\cmsis/include/core_cm0plus.h **** /**
 766:Generated_Source\PSoC6\pdl\cmsis/include/core_cm0plus.h ****   \brief   Get Pending Interrupt
 767:Generated_Source\PSoC6\pdl\cmsis/include/core_cm0plus.h ****   \details Reads the NVIC pending register and returns the pending bit for the specified device spe
 768:Generated_Source\PSoC6\pdl\cmsis/include/core_cm0plus.h ****   \param [in]      IRQn  Device specific interrupt number.
 769:Generated_Source\PSoC6\pdl\cmsis/include/core_cm0plus.h ****   \return             0  Interrupt status is not pending.
 770:Generated_Source\PSoC6\pdl\cmsis/include/core_cm0plus.h ****   \return             1  Interrupt status is pending.
 771:Generated_Source\PSoC6\pdl\cmsis/include/core_cm0plus.h ****   \note    IRQn must not be negative.
 772:Generated_Source\PSoC6\pdl\cmsis/include/core_cm0plus.h ****  */
 773:Generated_Source\PSoC6\pdl\cmsis/include/core_cm0plus.h **** __STATIC_INLINE uint32_t __NVIC_GetPendingIRQ(IRQn_Type IRQn)
 774:Generated_Source\PSoC6\pdl\cmsis/include/core_cm0plus.h **** {
 775:Generated_Source\PSoC6\pdl\cmsis/include/core_cm0plus.h ****   if ((int32_t)(IRQn) >= 0)
 776:Generated_Source\PSoC6\pdl\cmsis/include/core_cm0plus.h ****   {
 777:Generated_Source\PSoC6\pdl\cmsis/include/core_cm0plus.h ****     return((uint32_t)(((NVIC->ISPR[0U] & (1UL << (((uint32_t)(int32_t)IRQn) & 0x1FUL))) != 0UL) ? 1
 778:Generated_Source\PSoC6\pdl\cmsis/include/core_cm0plus.h ****   }
 779:Generated_Source\PSoC6\pdl\cmsis/include/core_cm0plus.h ****   else
 780:Generated_Source\PSoC6\pdl\cmsis/include/core_cm0plus.h ****   {
 781:Generated_Source\PSoC6\pdl\cmsis/include/core_cm0plus.h ****     return(0U);
 782:Generated_Source\PSoC6\pdl\cmsis/include/core_cm0plus.h ****   }
 783:Generated_Source\PSoC6\pdl\cmsis/include/core_cm0plus.h **** }
 784:Generated_Source\PSoC6\pdl\cmsis/include/core_cm0plus.h **** 
 785:Generated_Source\PSoC6\pdl\cmsis/include/core_cm0plus.h **** 
 786:Generated_Source\PSoC6\pdl\cmsis/include/core_cm0plus.h **** /**
 787:Generated_Source\PSoC6\pdl\cmsis/include/core_cm0plus.h ****   \brief   Set Pending Interrupt
 788:Generated_Source\PSoC6\pdl\cmsis/include/core_cm0plus.h ****   \details Sets the pending bit of a device specific interrupt in the NVIC pending register.
 789:Generated_Source\PSoC6\pdl\cmsis/include/core_cm0plus.h ****   \param [in]      IRQn  Device specific interrupt number.
 790:Generated_Source\PSoC6\pdl\cmsis/include/core_cm0plus.h ****   \note    IRQn must not be negative.
 791:Generated_Source\PSoC6\pdl\cmsis/include/core_cm0plus.h ****  */
 792:Generated_Source\PSoC6\pdl\cmsis/include/core_cm0plus.h **** __STATIC_INLINE void __NVIC_SetPendingIRQ(IRQn_Type IRQn)
 793:Generated_Source\PSoC6\pdl\cmsis/include/core_cm0plus.h **** {
 794:Generated_Source\PSoC6\pdl\cmsis/include/core_cm0plus.h ****   if ((int32_t)(IRQn) >= 0)
 795:Generated_Source\PSoC6\pdl\cmsis/include/core_cm0plus.h ****   {
 796:Generated_Source\PSoC6\pdl\cmsis/include/core_cm0plus.h ****     NVIC->ISPR[0U] = (uint32_t)(1UL << (((uint32_t)(int32_t)IRQn) & 0x1FUL));
 797:Generated_Source\PSoC6\pdl\cmsis/include/core_cm0plus.h ****   }
 798:Generated_Source\PSoC6\pdl\cmsis/include/core_cm0plus.h **** }
 799:Generated_Source\PSoC6\pdl\cmsis/include/core_cm0plus.h **** 
ARM GAS  C:\Users\salaz\AppData\Local\Temp\cc7F8fiw.s 			page 47


 800:Generated_Source\PSoC6\pdl\cmsis/include/core_cm0plus.h **** 
 801:Generated_Source\PSoC6\pdl\cmsis/include/core_cm0plus.h **** /**
 802:Generated_Source\PSoC6\pdl\cmsis/include/core_cm0plus.h ****   \brief   Clear Pending Interrupt
 803:Generated_Source\PSoC6\pdl\cmsis/include/core_cm0plus.h ****   \details Clears the pending bit of a device specific interrupt in the NVIC pending register.
 804:Generated_Source\PSoC6\pdl\cmsis/include/core_cm0plus.h ****   \param [in]      IRQn  Device specific interrupt number.
 805:Generated_Source\PSoC6\pdl\cmsis/include/core_cm0plus.h ****   \note    IRQn must not be negative.
 806:Generated_Source\PSoC6\pdl\cmsis/include/core_cm0plus.h ****  */
 807:Generated_Source\PSoC6\pdl\cmsis/include/core_cm0plus.h **** __STATIC_INLINE void __NVIC_ClearPendingIRQ(IRQn_Type IRQn)
 808:Generated_Source\PSoC6\pdl\cmsis/include/core_cm0plus.h **** {
 809:Generated_Source\PSoC6\pdl\cmsis/include/core_cm0plus.h ****   if ((int32_t)(IRQn) >= 0)
 767              		.loc 3 809 0
 768 03a6 002A     		cmp	r2, #0
 769 03a8 07DB     		blt	.L1
 810:Generated_Source\PSoC6\pdl\cmsis/include/core_cm0plus.h ****   {
 811:Generated_Source\PSoC6\pdl\cmsis/include/core_cm0plus.h ****     NVIC->ICPR[0U] = (uint32_t)(1UL << (((uint32_t)(int32_t)IRQn) & 0x1FUL));
 770              		.loc 3 811 0
 771 03aa 1F23     		movs	r3, #31
 772 03ac 1A40     		ands	r2, r3
 773              	.LVL61:
 774 03ae 1E3B     		subs	r3, r3, #30
 775 03b0 9340     		lsls	r3, r3, r2
 776 03b2 C022     		movs	r2, #192
 777 03b4 5200     		lsls	r2, r2, #1
 778 03b6 0549     		ldr	r1, .L55+12
 779              	.LVL62:
 780 03b8 8B50     		str	r3, [r1, r2]
 781              	.LVL63:
 782              	.L1:
 783              	.LBE71:
 784              	.LBE70:
 300:AppControl.c  **** }
 785              		.loc 1 300 0
 786 03ba 04B0     		add	sp, sp, #16
 787              		@ sp needed
 788 03bc 10BD     		pop	{r4, pc}
 789              	.L56:
 790 03be C046     		.align	2
 791              	.L55:
 792 03c0 00000000 		.word	.LANCHOR0
 793 03c4 00000000 		.word	.LANCHOR1
 794 03c8 00000000 		.word	AppControl_IRQ_cfg
 795 03cc 00E100E0 		.word	-536813312
 796              		.cfi_endproc
 797              	.LFE792:
 798              		.size	AppControlHandler, .-AppControlHandler
 799              		.global	stolenLightCycles
 800              		.global	stolenAdvertise_s
 801              		.global	verifyLightCycles
 802              		.global	verifyAdvertise_s
 803              		.global	rideNightCheck_ms
 804              		.global	nightThreshold
 805              		.global	morningThreshold
 806              		.data
 807              		.align	2
 808              		.set	.LANCHOR1,. + 0
 809              		.type	verifyAdvertise_s, %object
 810              		.size	verifyAdvertise_s, 2
ARM GAS  C:\Users\salaz\AppData\Local\Temp\cc7F8fiw.s 			page 48


 811              	verifyAdvertise_s:
 812 0000 1E00     		.short	30
 813              		.type	morningThreshold, %object
 814              		.size	morningThreshold, 2
 815              	morningThreshold:
 816 0002 0700     		.short	7
 817              		.type	nightThreshold, %object
 818              		.size	nightThreshold, 2
 819              	nightThreshold:
 820 0004 1400     		.short	20
 821              		.type	verifyLightCycles, %object
 822              		.size	verifyLightCycles, 1
 823              	verifyLightCycles:
 824 0006 08       		.byte	8
 825              		.type	stolenLightCycles, %object
 826              		.size	stolenLightCycles, 1
 827              	stolenLightCycles:
 828 0007 0F       		.byte	15
 829              		.type	stolenAdvertise_s, %object
 830              		.size	stolenAdvertise_s, 2
 831              	stolenAdvertise_s:
 832 0008 1E00     		.short	30
 833 000a 0000     		.space	2
 834              		.type	rideNightCheck_ms, %object
 835              		.size	rideNightCheck_ms, 4
 836              	rideNightCheck_ms:
 837 000c 60EA0000 		.word	60000
 838              		.section	.rodata.str1.4,"aMS",%progbits,1
 839              		.align	2
 840              	.LC2:
 841 0000 46534D5F 		.ascii	"FSM_INITIALIZE\015\000"
 841      494E4954 
 841      49414C49 
 841      5A450D00 
 842              	.LC4:
 843 0010 46534D5F 		.ascii	"FSM_IDLE\015\000"
 843      49444C45 
 843      0D00
 844 001a 0000     		.space	2
 845              	.LC7:
 846 001c 46534D5F 		.ascii	"FSM_CHECK_MOTION\015\000"
 846      43484543 
 846      4B5F4D4F 
 846      54494F4E 
 846      0D00
 847 002e 0000     		.space	2
 848              	.LC9:
 849 0030 46534D5F 		.ascii	"FSM_VERIFY_USER\015\000"
 849      56455249 
 849      46595F55 
 849      5345520D 
 849      00
 850 0041 000000   		.space	3
 851              	.LC11:
 852 0044 46534D5F 		.ascii	"FSM_STOLEN\015\000"
 852      53544F4C 
 852      454E0D00 
ARM GAS  C:\Users\salaz\AppData\Local\Temp\cc7F8fiw.s 			page 49


 853              	.LC13:
 854 0050 46534D5F 		.ascii	"FSM_RIDE\015\000"
 854      52494445 
 854      0D00
 855 005a 0000     		.space	2
 856              	.LC15:
 857 005c 46534D5F 		.ascii	"FSM_DAY\015\000"
 857      4441590D 
 857      00
 858 0065 000000   		.space	3
 859              	.LC17:
 860 0068 46534D5F 		.ascii	"FSM_NIGHT\015\000"
 860      4E494748 
 860      540D00
 861              		.bss
 862              		.set	.LANCHOR0,. + 0
 863              		.type	current_state.18944, %object
 864              		.size	current_state.18944, 1
 865              	current_state.18944:
 866 0000 00       		.space	1
 867              		.type	next_state.18945, %object
 868              		.size	next_state.18945, 1
 869              	next_state.18945:
 870 0001 00       		.space	1
 871              		.type	motion_latch.18942, %object
 872              		.size	motion_latch.18942, 1
 873              	motion_latch.18942:
 874 0002 00       		.space	1
 875              		.text
 876              	.Letext0:
 877              		.file 4 "Generated_Source\\PSoC6\\pdl\\devices/psoc6/psoc63/include/cyble_416045_02.h"
 878              		.file 5 "c:\\program files (x86)\\cypress\\psoc creator\\4.2\\psoc creator\\import\\gnu\\arm\\5.4.
 879              		.file 6 "c:\\program files (x86)\\cypress\\psoc creator\\4.2\\psoc creator\\import\\gnu\\arm\\5.4.
 880              		.file 7 "Generated_Source\\PSoC6\\pdl\\devices/psoc6/ip/cyip_scb.h"
 881              		.file 8 "Generated_Source\\PSoC6\\pdl\\drivers/peripheral/syslib/cy_syslib.h"
 882              		.file 9 "Generated_Source\\PSoC6\\pdl\\drivers/peripheral/sysint/cy_sysint.h"
 883              		.file 10 "Generated_Source\\PSoC6\\pdl\\drivers/peripheral/tcpwm/cy_tcpwm_counter.h"
 884              		.file 11 "Generated_Source\\PSoC6\\pdl\\drivers/peripheral/tcpwm/cy_tcpwm_pwm.h"
 885              		.file 12 "Generated_Source\\PSoC6\\pdl\\drivers/peripheral/scb/cy_scb_i2c.h"
 886              		.file 13 "Generated_Source\\PSoC6\\pdl\\drivers/peripheral/scb/cy_scb_uart.h"
 887              		.file 14 "Generated_Source\\PSoC6\\pdl\\middleware/ble/cy_ble_stack.h"
 888              		.file 15 "Generated_Source\\PSoC6\\pdl\\middleware/ble/cy_ble_stack_host_main.h"
 889              		.file 16 "Generated_Source\\PSoC6\\pdl\\middleware/ble/cy_ble_gap.h"
 890              		.file 17 "./KinOS.h"
 891              		.file 18 "Generated_Source\\PSoC6\\pdl\\drivers/peripheral/rtc/cy_rtc.h"
 892              		.file 19 "Generated_Source\\PSoC6/cyfitter_sysint_cfg.h"
 893              		.file 20 "Generated_Source\\PSoC6/UART_DEBUG.h"
 894              		.file 21 "Generated_Source\\PSoC6/SensorBus.h"
 895              		.file 22 "Generated_Source\\PSoC6/LightOutputC.h"
 896              		.file 23 "Generated_Source\\PSoC6/LightOutputA.h"
 897              		.file 24 "Generated_Source\\PSoC6/LightTimer.h"
 898              		.file 25 "Generated_Source\\PSoC6/LightOutputB.h"
 899              		.file 26 "Generated_Source\\PSoC6/MotorOutput.h"
 900              		.file 27 "Generated_Source\\PSoC6/MotorTimer.h"
 901              		.file 28 "Generated_Source\\PSoC6/ChimeOutput.h"
 902              		.file 29 "Generated_Source\\PSoC6/ChimeTimer.h"
 903              		.file 30 "<built-in>"
ARM GAS  C:\Users\salaz\AppData\Local\Temp\cc7F8fiw.s 			page 50


 904              		.section	.debug_info,"",%progbits
 905              	.Ldebug_info0:
 906 0000 CD1F0000 		.4byte	0x1fcd
 907 0004 0400     		.2byte	0x4
 908 0006 00000000 		.4byte	.Ldebug_abbrev0
 909 000a 04       		.byte	0x4
 910 000b 01       		.uleb128 0x1
 911 000c 730D0000 		.4byte	.LASF632
 912 0010 0C       		.byte	0xc
 913 0011 971C0000 		.4byte	.LASF633
 914 0015 43240000 		.4byte	.LASF634
 915 0019 00000000 		.4byte	.Ldebug_ranges0+0
 916 001d 00000000 		.4byte	0
 917 0021 00000000 		.4byte	.Ldebug_line0
 918 0025 02       		.uleb128 0x2
 919 0026 02       		.byte	0x2
 920 0027 1C010000 		.4byte	0x11c
 921 002b 04       		.byte	0x4
 922 002c 24       		.byte	0x24
 923 002d 1C010000 		.4byte	0x11c
 924 0031 03       		.uleb128 0x3
 925 0032 34250000 		.4byte	.LASF0
 926 0036 71       		.sleb128 -15
 927 0037 03       		.uleb128 0x3
 928 0038 0A150000 		.4byte	.LASF1
 929 003c 72       		.sleb128 -14
 930 003d 03       		.uleb128 0x3
 931 003e 40330000 		.4byte	.LASF2
 932 0042 73       		.sleb128 -13
 933 0043 03       		.uleb128 0x3
 934 0044 711A0000 		.4byte	.LASF3
 935 0048 7B       		.sleb128 -5
 936 0049 03       		.uleb128 0x3
 937 004a F5190000 		.4byte	.LASF4
 938 004e 7E       		.sleb128 -2
 939 004f 03       		.uleb128 0x3
 940 0050 D2090000 		.4byte	.LASF5
 941 0054 7F       		.sleb128 -1
 942 0055 04       		.uleb128 0x4
 943 0056 DE030000 		.4byte	.LASF6
 944 005a 00       		.byte	0
 945 005b 04       		.uleb128 0x4
 946 005c 1C010000 		.4byte	.LASF7
 947 0060 01       		.byte	0x1
 948 0061 04       		.uleb128 0x4
 949 0062 0A1B0000 		.4byte	.LASF8
 950 0066 02       		.byte	0x2
 951 0067 04       		.uleb128 0x4
 952 0068 5F0D0000 		.4byte	.LASF9
 953 006c 03       		.byte	0x3
 954 006d 04       		.uleb128 0x4
 955 006e 002D0000 		.4byte	.LASF10
 956 0072 04       		.byte	0x4
 957 0073 04       		.uleb128 0x4
 958 0074 462A0000 		.4byte	.LASF11
 959 0078 05       		.byte	0x5
 960 0079 04       		.uleb128 0x4
ARM GAS  C:\Users\salaz\AppData\Local\Temp\cc7F8fiw.s 			page 51


 961 007a 89150000 		.4byte	.LASF12
 962 007e 06       		.byte	0x6
 963 007f 04       		.uleb128 0x4
 964 0080 EE010000 		.4byte	.LASF13
 965 0084 07       		.byte	0x7
 966 0085 04       		.uleb128 0x4
 967 0086 C6330000 		.4byte	.LASF14
 968 008a 08       		.byte	0x8
 969 008b 04       		.uleb128 0x4
 970 008c C41D0000 		.4byte	.LASF15
 971 0090 09       		.byte	0x9
 972 0091 04       		.uleb128 0x4
 973 0092 301F0000 		.4byte	.LASF16
 974 0096 0A       		.byte	0xa
 975 0097 04       		.uleb128 0x4
 976 0098 3A1C0000 		.4byte	.LASF17
 977 009c 0B       		.byte	0xb
 978 009d 04       		.uleb128 0x4
 979 009e 3B2B0000 		.4byte	.LASF18
 980 00a2 0C       		.byte	0xc
 981 00a3 04       		.uleb128 0x4
 982 00a4 45060000 		.4byte	.LASF19
 983 00a8 0D       		.byte	0xd
 984 00a9 04       		.uleb128 0x4
 985 00aa 78260000 		.4byte	.LASF20
 986 00ae 0E       		.byte	0xe
 987 00af 04       		.uleb128 0x4
 988 00b0 64220000 		.4byte	.LASF21
 989 00b4 0F       		.byte	0xf
 990 00b5 04       		.uleb128 0x4
 991 00b6 D40F0000 		.4byte	.LASF22
 992 00ba 10       		.byte	0x10
 993 00bb 04       		.uleb128 0x4
 994 00bc 172F0000 		.4byte	.LASF23
 995 00c0 11       		.byte	0x11
 996 00c1 04       		.uleb128 0x4
 997 00c2 822B0000 		.4byte	.LASF24
 998 00c6 12       		.byte	0x12
 999 00c7 04       		.uleb128 0x4
 1000 00c8 00170000 		.4byte	.LASF25
 1001 00cc 13       		.byte	0x13
 1002 00cd 04       		.uleb128 0x4
 1003 00ce 79340000 		.4byte	.LASF26
 1004 00d2 14       		.byte	0x14
 1005 00d3 04       		.uleb128 0x4
 1006 00d4 431E0000 		.4byte	.LASF27
 1007 00d8 15       		.byte	0x15
 1008 00d9 04       		.uleb128 0x4
 1009 00da B81B0000 		.4byte	.LASF28
 1010 00de 16       		.byte	0x16
 1011 00df 04       		.uleb128 0x4
 1012 00e0 26080000 		.4byte	.LASF29
 1013 00e4 17       		.byte	0x17
 1014 00e5 04       		.uleb128 0x4
 1015 00e6 43290000 		.4byte	.LASF30
 1016 00ea 18       		.byte	0x18
 1017 00eb 04       		.uleb128 0x4
ARM GAS  C:\Users\salaz\AppData\Local\Temp\cc7F8fiw.s 			page 52


 1018 00ec B4250000 		.4byte	.LASF31
 1019 00f0 19       		.byte	0x19
 1020 00f1 04       		.uleb128 0x4
 1021 00f2 09120000 		.4byte	.LASF32
 1022 00f6 1A       		.byte	0x1a
 1023 00f7 04       		.uleb128 0x4
 1024 00f8 F9310000 		.4byte	.LASF33
 1025 00fc 1B       		.byte	0x1b
 1026 00fd 04       		.uleb128 0x4
 1027 00fe F60A0000 		.4byte	.LASF34
 1028 0102 1C       		.byte	0x1c
 1029 0103 04       		.uleb128 0x4
 1030 0104 E6190000 		.4byte	.LASF35
 1031 0108 1D       		.byte	0x1d
 1032 0109 04       		.uleb128 0x4
 1033 010a FC010000 		.4byte	.LASF36
 1034 010e 1E       		.byte	0x1e
 1035 010f 04       		.uleb128 0x4
 1036 0110 D4330000 		.4byte	.LASF37
 1037 0114 1F       		.byte	0x1f
 1038 0115 04       		.uleb128 0x4
 1039 0116 4E0D0000 		.4byte	.LASF38
 1040 011a F0       		.byte	0xf0
 1041 011b 00       		.byte	0
 1042 011c 05       		.uleb128 0x5
 1043 011d 02       		.byte	0x2
 1044 011e 05       		.byte	0x5
 1045 011f 9F2A0000 		.4byte	.LASF187
 1046 0123 06       		.uleb128 0x6
 1047 0124 D1150000 		.4byte	.LASF189
 1048 0128 04       		.byte	0x4
 1049 0129 F4       		.byte	0xf4
 1050 012a 25000000 		.4byte	0x25
 1051 012e 02       		.uleb128 0x2
 1052 012f 01       		.byte	0x1
 1053 0130 B3040000 		.4byte	0x4b3
 1054 0134 04       		.byte	0x4
 1055 0135 FD       		.byte	0xfd
 1056 0136 B3040000 		.4byte	0x4b3
 1057 013a 04       		.uleb128 0x4
 1058 013b B60E0000 		.4byte	.LASF39
 1059 013f 00       		.byte	0
 1060 0140 04       		.uleb128 0x4
 1061 0141 721F0000 		.4byte	.LASF40
 1062 0145 01       		.byte	0x1
 1063 0146 04       		.uleb128 0x4
 1064 0147 63180000 		.4byte	.LASF41
 1065 014b 02       		.byte	0x2
 1066 014c 04       		.uleb128 0x4
 1067 014d 17190000 		.4byte	.LASF42
 1068 0151 03       		.byte	0x3
 1069 0152 04       		.uleb128 0x4
 1070 0153 05060000 		.4byte	.LASF43
 1071 0157 04       		.byte	0x4
 1072 0158 04       		.uleb128 0x4
 1073 0159 B6020000 		.4byte	.LASF44
 1074 015d 05       		.byte	0x5
ARM GAS  C:\Users\salaz\AppData\Local\Temp\cc7F8fiw.s 			page 53


 1075 015e 04       		.uleb128 0x4
 1076 015f 48220000 		.4byte	.LASF45
 1077 0163 06       		.byte	0x6
 1078 0164 04       		.uleb128 0x4
 1079 0165 B80F0000 		.4byte	.LASF46
 1080 0169 07       		.byte	0x7
 1081 016a 04       		.uleb128 0x4
 1082 016b 780B0000 		.4byte	.LASF47
 1083 016f 08       		.byte	0x8
 1084 0170 04       		.uleb128 0x4
 1085 0171 662B0000 		.4byte	.LASF48
 1086 0175 09       		.byte	0x9
 1087 0176 04       		.uleb128 0x4
 1088 0177 3E2C0000 		.4byte	.LASF49
 1089 017b 0A       		.byte	0xa
 1090 017c 04       		.uleb128 0x4
 1091 017d EC170000 		.4byte	.LASF50
 1092 0181 0B       		.byte	0xb
 1093 0182 04       		.uleb128 0x4
 1094 0183 15040000 		.4byte	.LASF51
 1095 0187 0C       		.byte	0xc
 1096 0188 04       		.uleb128 0x4
 1097 0189 42010000 		.4byte	.LASF52
 1098 018d 0D       		.byte	0xd
 1099 018e 04       		.uleb128 0x4
 1100 018f 51200000 		.4byte	.LASF53
 1101 0193 0E       		.byte	0xe
 1102 0194 04       		.uleb128 0x4
 1103 0195 2A1E0000 		.4byte	.LASF54
 1104 0199 0F       		.byte	0xf
 1105 019a 04       		.uleb128 0x4
 1106 019b 792E0000 		.4byte	.LASF55
 1107 019f 10       		.byte	0x10
 1108 01a0 04       		.uleb128 0x4
 1109 01a1 EB2A0000 		.4byte	.LASF56
 1110 01a5 11       		.byte	0x11
 1111 01a6 04       		.uleb128 0x4
 1112 01a7 262B0000 		.4byte	.LASF57
 1113 01ab 12       		.byte	0x12
 1114 01ac 04       		.uleb128 0x4
 1115 01ad 6E330000 		.4byte	.LASF58
 1116 01b1 13       		.byte	0x13
 1117 01b2 04       		.uleb128 0x4
 1118 01b3 B1200000 		.4byte	.LASF59
 1119 01b7 14       		.byte	0x14
 1120 01b8 04       		.uleb128 0x4
 1121 01b9 1A330000 		.4byte	.LASF60
 1122 01bd 15       		.byte	0x15
 1123 01be 04       		.uleb128 0x4
 1124 01bf 25030000 		.4byte	.LASF61
 1125 01c3 16       		.byte	0x16
 1126 01c4 04       		.uleb128 0x4
 1127 01c5 012B0000 		.4byte	.LASF62
 1128 01c9 17       		.byte	0x17
 1129 01ca 04       		.uleb128 0x4
 1130 01cb C6220000 		.4byte	.LASF63
 1131 01cf 18       		.byte	0x18
ARM GAS  C:\Users\salaz\AppData\Local\Temp\cc7F8fiw.s 			page 54


 1132 01d0 04       		.uleb128 0x4
 1133 01d1 24310000 		.4byte	.LASF64
 1134 01d5 19       		.byte	0x19
 1135 01d6 04       		.uleb128 0x4
 1136 01d7 322D0000 		.4byte	.LASF65
 1137 01db 1A       		.byte	0x1a
 1138 01dc 04       		.uleb128 0x4
 1139 01dd D9180000 		.4byte	.LASF66
 1140 01e1 1B       		.byte	0x1b
 1141 01e2 04       		.uleb128 0x4
 1142 01e3 B9050000 		.4byte	.LASF67
 1143 01e7 1C       		.byte	0x1c
 1144 01e8 04       		.uleb128 0x4
 1145 01e9 80020000 		.4byte	.LASF68
 1146 01ed 1D       		.byte	0x1d
 1147 01ee 04       		.uleb128 0x4
 1148 01ef 1C220000 		.4byte	.LASF69
 1149 01f3 1E       		.byte	0x1e
 1150 01f4 04       		.uleb128 0x4
 1151 01f5 850F0000 		.4byte	.LASF70
 1152 01f9 1F       		.byte	0x1f
 1153 01fa 04       		.uleb128 0x4
 1154 01fb 050B0000 		.4byte	.LASF71
 1155 01ff 20       		.byte	0x20
 1156 0200 04       		.uleb128 0x4
 1157 0201 4A2B0000 		.4byte	.LASF72
 1158 0205 21       		.byte	0x21
 1159 0206 04       		.uleb128 0x4
 1160 0207 E4160000 		.4byte	.LASF73
 1161 020b 22       		.byte	0x22
 1162 020c 04       		.uleb128 0x4
 1163 020d 491C0000 		.4byte	.LASF74
 1164 0211 23       		.byte	0x23
 1165 0212 04       		.uleb128 0x4
 1166 0213 9E080000 		.4byte	.LASF75
 1167 0217 24       		.byte	0x24
 1168 0218 04       		.uleb128 0x4
 1169 0219 DA290000 		.4byte	.LASF76
 1170 021d 25       		.byte	0x25
 1171 021e 04       		.uleb128 0x4
 1172 021f AC260000 		.4byte	.LASF77
 1173 0223 26       		.byte	0x26
 1174 0224 04       		.uleb128 0x4
 1175 0225 C9120000 		.4byte	.LASF78
 1176 0229 27       		.byte	0x27
 1177 022a 04       		.uleb128 0x4
 1178 022b D7320000 		.4byte	.LASF79
 1179 022f 28       		.byte	0x28
 1180 0230 04       		.uleb128 0x4
 1181 0231 30280000 		.4byte	.LASF80
 1182 0235 29       		.byte	0x29
 1183 0236 04       		.uleb128 0x4
 1184 0237 CF250000 		.4byte	.LASF81
 1185 023b 2A       		.byte	0x2a
 1186 023c 04       		.uleb128 0x4
 1187 023d 6E170000 		.4byte	.LASF82
 1188 0241 2B       		.byte	0x2b
ARM GAS  C:\Users\salaz\AppData\Local\Temp\cc7F8fiw.s 			page 55


 1189 0242 04       		.uleb128 0x4
 1190 0243 FE2D0000 		.4byte	.LASF83
 1191 0247 2C       		.byte	0x2c
 1192 0248 04       		.uleb128 0x4
 1193 0249 A41F0000 		.4byte	.LASF84
 1194 024d 2D       		.byte	0x2d
 1195 024e 04       		.uleb128 0x4
 1196 024f 01030000 		.4byte	.LASF85
 1197 0253 2E       		.byte	0x2e
 1198 0254 04       		.uleb128 0x4
 1199 0255 1E2A0000 		.4byte	.LASF86
 1200 0259 2F       		.byte	0x2f
 1201 025a 04       		.uleb128 0x4
 1202 025b 940B0000 		.4byte	.LASF87
 1203 025f 30       		.byte	0x30
 1204 0260 04       		.uleb128 0x4
 1205 0261 310A0000 		.4byte	.LASF88
 1206 0265 31       		.byte	0x31
 1207 0266 04       		.uleb128 0x4
 1208 0267 37110000 		.4byte	.LASF89
 1209 026b 32       		.byte	0x32
 1210 026c 04       		.uleb128 0x4
 1211 026d 94300000 		.4byte	.LASF90
 1212 0271 33       		.byte	0x33
 1213 0272 04       		.uleb128 0x4
 1214 0273 ED1B0000 		.4byte	.LASF91
 1215 0277 34       		.byte	0x34
 1216 0278 04       		.uleb128 0x4
 1217 0279 AA180000 		.4byte	.LASF92
 1218 027d 35       		.byte	0x35
 1219 027e 04       		.uleb128 0x4
 1220 027f 43050000 		.4byte	.LASF93
 1221 0283 36       		.byte	0x36
 1222 0284 04       		.uleb128 0x4
 1223 0285 FB250000 		.4byte	.LASF94
 1224 0289 37       		.byte	0x37
 1225 028a 04       		.uleb128 0x4
 1226 028b 8B210000 		.4byte	.LASF95
 1227 028f 38       		.byte	0x38
 1228 0290 04       		.uleb128 0x4
 1229 0291 EB0E0000 		.4byte	.LASF96
 1230 0295 39       		.byte	0x39
 1231 0296 04       		.uleb128 0x4
 1232 0297 462E0000 		.4byte	.LASF97
 1233 029b 3A       		.byte	0x3a
 1234 029c 04       		.uleb128 0x4
 1235 029d 011A0000 		.4byte	.LASF98
 1236 02a1 3B       		.byte	0x3b
 1237 02a2 04       		.uleb128 0x4
 1238 02a3 23180000 		.4byte	.LASF99
 1239 02a7 3C       		.byte	0x3c
 1240 02a8 04       		.uleb128 0x4
 1241 02a9 32040000 		.4byte	.LASF100
 1242 02ad 3D       		.byte	0x3d
 1243 02ae 04       		.uleb128 0x4
 1244 02af ED240000 		.4byte	.LASF101
 1245 02b3 3E       		.byte	0x3e
ARM GAS  C:\Users\salaz\AppData\Local\Temp\cc7F8fiw.s 			page 56


 1246 02b4 04       		.uleb128 0x4
 1247 02b5 6E200000 		.4byte	.LASF102
 1248 02b9 3F       		.byte	0x3f
 1249 02ba 04       		.uleb128 0x4
 1250 02bb 190E0000 		.4byte	.LASF103
 1251 02bf 40       		.byte	0x40
 1252 02c0 04       		.uleb128 0x4
 1253 02c1 152D0000 		.4byte	.LASF104
 1254 02c5 41       		.byte	0x41
 1255 02c6 04       		.uleb128 0x4
 1256 02c7 40320000 		.4byte	.LASF105
 1257 02cb 42       		.byte	0x42
 1258 02cc 04       		.uleb128 0x4
 1259 02cd D91C0000 		.4byte	.LASF106
 1260 02d1 43       		.byte	0x43
 1261 02d2 04       		.uleb128 0x4
 1262 02d3 B6090000 		.4byte	.LASF107
 1263 02d7 44       		.byte	0x44
 1264 02d8 04       		.uleb128 0x4
 1265 02d9 95060000 		.4byte	.LASF108
 1266 02dd 45       		.byte	0x45
 1267 02de 04       		.uleb128 0x4
 1268 02df 0F270000 		.4byte	.LASF109
 1269 02e3 46       		.byte	0x46
 1270 02e4 04       		.uleb128 0x4
 1271 02e5 62130000 		.4byte	.LASF110
 1272 02e9 47       		.byte	0x47
 1273 02ea 04       		.uleb128 0x4
 1274 02eb 22100000 		.4byte	.LASF111
 1275 02ef 48       		.byte	0x48
 1276 02f0 04       		.uleb128 0x4
 1277 02f1 8D2F0000 		.4byte	.LASF112
 1278 02f5 49       		.byte	0x49
 1279 02f6 04       		.uleb128 0x4
 1280 02f7 D61A0000 		.4byte	.LASF113
 1281 02fb 4A       		.byte	0x4a
 1282 02fc 04       		.uleb128 0x4
 1283 02fd 83170000 		.4byte	.LASF114
 1284 0301 4B       		.byte	0x4b
 1285 0302 04       		.uleb128 0x4
 1286 0303 EF230000 		.4byte	.LASF115
 1287 0307 4C       		.byte	0x4c
 1288 0308 04       		.uleb128 0x4
 1289 0309 EF100000 		.4byte	.LASF116
 1290 030d 4D       		.byte	0x4d
 1291 030e 04       		.uleb128 0x4
 1292 030f 30300000 		.4byte	.LASF117
 1293 0313 4E       		.byte	0x4e
 1294 0314 04       		.uleb128 0x4
 1295 0315 B12C0000 		.4byte	.LASF118
 1296 0319 4F       		.byte	0x4f
 1297 031a 04       		.uleb128 0x4
 1298 031b 7F180000 		.4byte	.LASF119
 1299 031f 50       		.byte	0x50
 1300 0320 04       		.uleb128 0x4
 1301 0321 DF040000 		.4byte	.LASF120
 1302 0325 51       		.byte	0x51
ARM GAS  C:\Users\salaz\AppData\Local\Temp\cc7F8fiw.s 			page 57


 1303 0326 04       		.uleb128 0x4
 1304 0327 32270000 		.4byte	.LASF121
 1305 032b 52       		.byte	0x52
 1306 032c 04       		.uleb128 0x4
 1307 032d 8D130000 		.4byte	.LASF122
 1308 0331 53       		.byte	0x53
 1309 0332 04       		.uleb128 0x4
 1310 0333 B1270000 		.4byte	.LASF123
 1311 0337 54       		.byte	0x54
 1312 0338 04       		.uleb128 0x4
 1313 0339 82030000 		.4byte	.LASF124
 1314 033d 55       		.byte	0x55
 1315 033e 04       		.uleb128 0x4
 1316 033f E2210000 		.4byte	.LASF125
 1317 0343 56       		.byte	0x56
 1318 0344 04       		.uleb128 0x4
 1319 0345 E8150000 		.4byte	.LASF126
 1320 0349 57       		.byte	0x57
 1321 034a 04       		.uleb128 0x4
 1322 034b 20320000 		.4byte	.LASF127
 1323 034f 58       		.byte	0x58
 1324 0350 04       		.uleb128 0x4
 1325 0351 9E2B0000 		.4byte	.LASF128
 1326 0355 59       		.byte	0x59
 1327 0356 04       		.uleb128 0x4
 1328 0357 92280000 		.4byte	.LASF129
 1329 035b 5A       		.byte	0x5a
 1330 035c 04       		.uleb128 0x4
 1331 035d D4010000 		.4byte	.LASF130
 1332 0361 5B       		.byte	0x5b
 1333 0362 04       		.uleb128 0x4
 1334 0363 B5140000 		.4byte	.LASF131
 1335 0367 5C       		.byte	0x5c
 1336 0368 04       		.uleb128 0x4
 1337 0369 40310000 		.4byte	.LASF132
 1338 036d 5D       		.byte	0x5d
 1339 036e 04       		.uleb128 0x4
 1340 036f 4E2D0000 		.4byte	.LASF133
 1341 0373 5E       		.byte	0x5e
 1342 0374 04       		.uleb128 0x4
 1343 0375 FD180000 		.4byte	.LASF134
 1344 0379 5F       		.byte	0x5f
 1345 037a 04       		.uleb128 0x4
 1346 037b D5050000 		.4byte	.LASF135
 1347 037f 60       		.byte	0x60
 1348 0380 04       		.uleb128 0x4
 1349 0381 9C020000 		.4byte	.LASF136
 1350 0385 61       		.byte	0x61
 1351 0386 04       		.uleb128 0x4
 1352 0387 AC290000 		.4byte	.LASF137
 1353 038b 62       		.byte	0x62
 1354 038c 04       		.uleb128 0x4
 1355 038d 02220000 		.4byte	.LASF138
 1356 0391 63       		.byte	0x63
 1357 0392 04       		.uleb128 0x4
 1358 0393 6B0F0000 		.4byte	.LASF139
 1359 0397 64       		.byte	0x64
ARM GAS  C:\Users\salaz\AppData\Local\Temp\cc7F8fiw.s 			page 58


 1360 0398 04       		.uleb128 0x4
 1361 0399 8B200000 		.4byte	.LASF140
 1362 039d 65       		.byte	0x65
 1363 039e 04       		.uleb128 0x4
 1364 039f 491A0000 		.4byte	.LASF141
 1365 03a3 66       		.byte	0x66
 1366 03a4 04       		.uleb128 0x4
 1367 03a5 CA160000 		.4byte	.LASF142
 1368 03a9 67       		.byte	0x67
 1369 03aa 04       		.uleb128 0x4
 1370 03ab 68030000 		.4byte	.LASF143
 1371 03af 68       		.byte	0x68
 1372 03b0 04       		.uleb128 0x4
 1373 03b1 3A230000 		.4byte	.LASF144
 1374 03b5 69       		.byte	0x69
 1375 03b6 04       		.uleb128 0x4
 1376 03b7 161F0000 		.4byte	.LASF145
 1377 03bb 6A       		.byte	0x6a
 1378 03bc 04       		.uleb128 0x4
 1379 03bd C2280000 		.4byte	.LASF146
 1380 03c1 6B       		.byte	0x6b
 1381 03c2 04       		.uleb128 0x4
 1382 03c3 AC100000 		.4byte	.LASF147
 1383 03c7 6C       		.byte	0x6c
 1384 03c8 04       		.uleb128 0x4
 1385 03c9 F72F0000 		.4byte	.LASF148
 1386 03cd 6D       		.byte	0x6d
 1387 03ce 04       		.uleb128 0x4
 1388 03cf 5B1B0000 		.4byte	.LASF149
 1389 03d3 6E       		.byte	0x6e
 1390 03d4 04       		.uleb128 0x4
 1391 03d5 D8070000 		.4byte	.LASF150
 1392 03d9 6F       		.byte	0x6f
 1393 03da 04       		.uleb128 0x4
 1394 03db 9A040000 		.4byte	.LASF151
 1395 03df 70       		.byte	0x70
 1396 03e0 04       		.uleb128 0x4
 1397 03e1 8C110000 		.4byte	.LASF152
 1398 03e5 71       		.byte	0x71
 1399 03e6 04       		.uleb128 0x4
 1400 03e7 A7110000 		.4byte	.LASF153
 1401 03eb 72       		.byte	0x72
 1402 03ec 04       		.uleb128 0x4
 1403 03ed 400E0000 		.4byte	.LASF154
 1404 03f1 73       		.byte	0x73
 1405 03f2 04       		.uleb128 0x4
 1406 03f3 782D0000 		.4byte	.LASF155
 1407 03f7 74       		.byte	0x74
 1408 03f8 04       		.uleb128 0x4
 1409 03f9 33190000 		.4byte	.LASF156
 1410 03fd 75       		.byte	0x75
 1411 03fe 04       		.uleb128 0x4
 1412 03ff 25130000 		.4byte	.LASF157
 1413 0403 76       		.byte	0x76
 1414 0404 04       		.uleb128 0x4
 1415 0405 8A330000 		.4byte	.LASF158
 1416 0409 77       		.byte	0x77
ARM GAS  C:\Users\salaz\AppData\Local\Temp\cc7F8fiw.s 			page 59


 1417 040a 04       		.uleb128 0x4
 1418 040b 481D0000 		.4byte	.LASF159
 1419 040f 78       		.byte	0x78
 1420 0410 04       		.uleb128 0x4
 1421 0411 BB1A0000 		.4byte	.LASF160
 1422 0415 79       		.byte	0x79
 1423 0416 04       		.uleb128 0x4
 1424 0417 B5070000 		.4byte	.LASF161
 1425 041b 7A       		.byte	0x7a
 1426 041c 04       		.uleb128 0x4
 1427 041d AC280000 		.4byte	.LASF162
 1428 0421 7B       		.byte	0x7b
 1429 0422 04       		.uleb128 0x4
 1430 0423 33140000 		.4byte	.LASF163
 1431 0427 7C       		.byte	0x7c
 1432 0428 04       		.uleb128 0x4
 1433 0429 A0030000 		.4byte	.LASF164
 1434 042d 7D       		.byte	0x7d
 1435 042e 04       		.uleb128 0x4
 1436 042f 5A310000 		.4byte	.LASF165
 1437 0433 7E       		.byte	0x7e
 1438 0434 04       		.uleb128 0x4
 1439 0435 121C0000 		.4byte	.LASF166
 1440 0439 7F       		.byte	0x7f
 1441 043a 04       		.uleb128 0x4
 1442 043b 2F200000 		.4byte	.LASF167
 1443 043f 80       		.byte	0x80
 1444 0440 04       		.uleb128 0x4
 1445 0441 EF050000 		.4byte	.LASF168
 1446 0445 81       		.byte	0x81
 1447 0446 04       		.uleb128 0x4
 1448 0447 62260000 		.4byte	.LASF169
 1449 044b 82       		.byte	0x82
 1450 044c 04       		.uleb128 0x4
 1451 044d 9B120000 		.4byte	.LASF170
 1452 0451 83       		.byte	0x83
 1453 0452 04       		.uleb128 0x4
 1454 0453 622E0000 		.4byte	.LASF171
 1455 0457 84       		.byte	0x84
 1456 0458 04       		.uleb128 0x4
 1457 0459 2B1A0000 		.4byte	.LASF172
 1458 045d 85       		.byte	0x85
 1459 045e 04       		.uleb128 0x4
 1460 045f 05010000 		.4byte	.LASF173
 1461 0463 86       		.byte	0x86
 1462 0464 04       		.uleb128 0x4
 1463 0465 51030000 		.4byte	.LASF174
 1464 0469 87       		.byte	0x87
 1465 046a 04       		.uleb128 0x4
 1466 046b 23230000 		.4byte	.LASF175
 1467 046f 88       		.byte	0x88
 1468 0470 04       		.uleb128 0x4
 1469 0471 C21E0000 		.4byte	.LASF176
 1470 0475 89       		.byte	0x89
 1471 0476 04       		.uleb128 0x4
 1472 0477 FC1D0000 		.4byte	.LASF177
 1473 047b 8A       		.byte	0x8a
ARM GAS  C:\Users\salaz\AppData\Local\Temp\cc7F8fiw.s 			page 60


 1474 047c 04       		.uleb128 0x4
 1475 047d 77280000 		.4byte	.LASF178
 1476 0481 8B       		.byte	0x8b
 1477 0482 04       		.uleb128 0x4
 1478 0483 73220000 		.4byte	.LASF179
 1479 0487 8C       		.byte	0x8c
 1480 0488 04       		.uleb128 0x4
 1481 0489 FE030000 		.4byte	.LASF180
 1482 048d 8D       		.byte	0x8d
 1483 048e 04       		.uleb128 0x4
 1484 048f 86040000 		.4byte	.LASF181
 1485 0493 8E       		.byte	0x8e
 1486 0494 04       		.uleb128 0x4
 1487 0495 A92F0000 		.4byte	.LASF182
 1488 0499 8F       		.byte	0x8f
 1489 049a 04       		.uleb128 0x4
 1490 049b 9F0E0000 		.4byte	.LASF183
 1491 049f 90       		.byte	0x90
 1492 04a0 04       		.uleb128 0x4
 1493 04a1 7F0C0000 		.4byte	.LASF184
 1494 04a5 91       		.byte	0x91
 1495 04a6 04       		.uleb128 0x4
 1496 04a7 40130000 		.4byte	.LASF185
 1497 04ab 92       		.byte	0x92
 1498 04ac 04       		.uleb128 0x4
 1499 04ad 62040000 		.4byte	.LASF186
 1500 04b1 F0       		.byte	0xf0
 1501 04b2 00       		.byte	0
 1502 04b3 05       		.uleb128 0x5
 1503 04b4 01       		.byte	0x1
 1504 04b5 08       		.byte	0x8
 1505 04b6 D90B0000 		.4byte	.LASF188
 1506 04ba 07       		.uleb128 0x7
 1507 04bb D02D0000 		.4byte	.LASF190
 1508 04bf 04       		.byte	0x4
 1509 04c0 9201     		.2byte	0x192
 1510 04c2 2E010000 		.4byte	0x12e
 1511 04c6 05       		.uleb128 0x5
 1512 04c7 01       		.byte	0x1
 1513 04c8 06       		.byte	0x6
 1514 04c9 650A0000 		.4byte	.LASF191
 1515 04cd 06       		.uleb128 0x6
 1516 04ce 8B060000 		.4byte	.LASF192
 1517 04d2 05       		.byte	0x5
 1518 04d3 1D       		.byte	0x1d
 1519 04d4 B3040000 		.4byte	0x4b3
 1520 04d8 06       		.uleb128 0x6
 1521 04d9 93080000 		.4byte	.LASF193
 1522 04dd 05       		.byte	0x5
 1523 04de 2B       		.byte	0x2b
 1524 04df E3040000 		.4byte	0x4e3
 1525 04e3 05       		.uleb128 0x5
 1526 04e4 02       		.byte	0x2
 1527 04e5 07       		.byte	0x7
 1528 04e6 57300000 		.4byte	.LASF194
 1529 04ea 06       		.uleb128 0x6
 1530 04eb 08320000 		.4byte	.LASF195
ARM GAS  C:\Users\salaz\AppData\Local\Temp\cc7F8fiw.s 			page 61


 1531 04ef 05       		.byte	0x5
 1532 04f0 3F       		.byte	0x3f
 1533 04f1 F5040000 		.4byte	0x4f5
 1534 04f5 05       		.uleb128 0x5
 1535 04f6 04       		.byte	0x4
 1536 04f7 05       		.byte	0x5
 1537 04f8 34070000 		.4byte	.LASF196
 1538 04fc 06       		.uleb128 0x6
 1539 04fd C6180000 		.4byte	.LASF197
 1540 0501 05       		.byte	0x5
 1541 0502 41       		.byte	0x41
 1542 0503 07050000 		.4byte	0x507
 1543 0507 05       		.uleb128 0x5
 1544 0508 04       		.byte	0x4
 1545 0509 07       		.byte	0x7
 1546 050a 4F150000 		.4byte	.LASF198
 1547 050e 05       		.uleb128 0x5
 1548 050f 08       		.byte	0x8
 1549 0510 05       		.byte	0x5
 1550 0511 9E100000 		.4byte	.LASF199
 1551 0515 05       		.uleb128 0x5
 1552 0516 08       		.byte	0x8
 1553 0517 07       		.byte	0x7
 1554 0518 D1230000 		.4byte	.LASF200
 1555 051c 08       		.uleb128 0x8
 1556 051d 04       		.byte	0x4
 1557 051e 05       		.byte	0x5
 1558 051f 696E7400 		.ascii	"int\000"
 1559 0523 05       		.uleb128 0x5
 1560 0524 04       		.byte	0x4
 1561 0525 07       		.byte	0x7
 1562 0526 281C0000 		.4byte	.LASF201
 1563 052a 06       		.uleb128 0x6
 1564 052b 930A0000 		.4byte	.LASF202
 1565 052f 06       		.byte	0x6
 1566 0530 18       		.byte	0x18
 1567 0531 CD040000 		.4byte	0x4cd
 1568 0535 06       		.uleb128 0x6
 1569 0536 72240000 		.4byte	.LASF203
 1570 053a 06       		.byte	0x6
 1571 053b 24       		.byte	0x24
 1572 053c D8040000 		.4byte	0x4d8
 1573 0540 06       		.uleb128 0x6
 1574 0541 A9010000 		.4byte	.LASF204
 1575 0545 06       		.byte	0x6
 1576 0546 2C       		.byte	0x2c
 1577 0547 EA040000 		.4byte	0x4ea
 1578 054b 06       		.uleb128 0x6
 1579 054c 1B310000 		.4byte	.LASF205
 1580 0550 06       		.byte	0x6
 1581 0551 30       		.byte	0x30
 1582 0552 FC040000 		.4byte	0x4fc
 1583 0556 09       		.uleb128 0x9
 1584 0557 2003     		.2byte	0x320
 1585 0559 03       		.byte	0x3
 1586 055a 4601     		.2byte	0x146
 1587 055c E8050000 		.4byte	0x5e8
ARM GAS  C:\Users\salaz\AppData\Local\Temp\cc7F8fiw.s 			page 62


 1588 0560 0A       		.uleb128 0xa
 1589 0561 D2320000 		.4byte	.LASF206
 1590 0565 03       		.byte	0x3
 1591 0566 4801     		.2byte	0x148
 1592 0568 04060000 		.4byte	0x604
 1593 056c 00       		.byte	0
 1594 056d 0A       		.uleb128 0xa
 1595 056e C50B0000 		.4byte	.LASF207
 1596 0572 03       		.byte	0x3
 1597 0573 4901     		.2byte	0x149
 1598 0575 09060000 		.4byte	0x609
 1599 0579 04       		.byte	0x4
 1600 057a 0A       		.uleb128 0xa
 1601 057b C9260000 		.4byte	.LASF208
 1602 057f 03       		.byte	0x3
 1603 0580 4A01     		.2byte	0x14a
 1604 0582 19060000 		.4byte	0x619
 1605 0586 80       		.byte	0x80
 1606 0587 0A       		.uleb128 0xa
 1607 0588 07000000 		.4byte	.LASF209
 1608 058c 03       		.byte	0x3
 1609 058d 4B01     		.2byte	0x14b
 1610 058f 09060000 		.4byte	0x609
 1611 0593 84       		.byte	0x84
 1612 0594 0B       		.uleb128 0xb
 1613 0595 82110000 		.4byte	.LASF210
 1614 0599 03       		.byte	0x3
 1615 059a 4C01     		.2byte	0x14c
 1616 059c 1E060000 		.4byte	0x61e
 1617 05a0 0001     		.2byte	0x100
 1618 05a2 0B       		.uleb128 0xb
 1619 05a3 18100000 		.4byte	.LASF211
 1620 05a7 03       		.byte	0x3
 1621 05a8 4D01     		.2byte	0x14d
 1622 05aa 09060000 		.4byte	0x609
 1623 05ae 0401     		.2byte	0x104
 1624 05b0 0B       		.uleb128 0xb
 1625 05b1 13050000 		.4byte	.LASF212
 1626 05b5 03       		.byte	0x3
 1627 05b6 4E01     		.2byte	0x14e
 1628 05b8 23060000 		.4byte	0x623
 1629 05bc 8001     		.2byte	0x180
 1630 05be 0B       		.uleb128 0xb
 1631 05bf 360E0000 		.4byte	.LASF213
 1632 05c3 03       		.byte	0x3
 1633 05c4 4F01     		.2byte	0x14f
 1634 05c6 09060000 		.4byte	0x609
 1635 05ca 8401     		.2byte	0x184
 1636 05cc 0B       		.uleb128 0xb
 1637 05cd F40B0000 		.4byte	.LASF214
 1638 05d1 03       		.byte	0x3
 1639 05d2 5001     		.2byte	0x150
 1640 05d4 28060000 		.4byte	0x628
 1641 05d8 0002     		.2byte	0x200
 1642 05da 0C       		.uleb128 0xc
 1643 05db 495000   		.ascii	"IP\000"
 1644 05de 03       		.byte	0x3
ARM GAS  C:\Users\salaz\AppData\Local\Temp\cc7F8fiw.s 			page 63


 1645 05df 5101     		.2byte	0x151
 1646 05e1 48060000 		.4byte	0x648
 1647 05e5 0003     		.2byte	0x300
 1648 05e7 00       		.byte	0
 1649 05e8 0D       		.uleb128 0xd
 1650 05e9 FF050000 		.4byte	0x5ff
 1651 05ed F8050000 		.4byte	0x5f8
 1652 05f1 0E       		.uleb128 0xe
 1653 05f2 F8050000 		.4byte	0x5f8
 1654 05f6 00       		.byte	0
 1655 05f7 00       		.byte	0
 1656 05f8 05       		.uleb128 0x5
 1657 05f9 04       		.byte	0x4
 1658 05fa 07       		.byte	0x7
 1659 05fb 94000000 		.4byte	.LASF215
 1660 05ff 0F       		.uleb128 0xf
 1661 0600 4B050000 		.4byte	0x54b
 1662 0604 0F       		.uleb128 0xf
 1663 0605 E8050000 		.4byte	0x5e8
 1664 0609 0D       		.uleb128 0xd
 1665 060a 4B050000 		.4byte	0x54b
 1666 060e 19060000 		.4byte	0x619
 1667 0612 0E       		.uleb128 0xe
 1668 0613 F8050000 		.4byte	0x5f8
 1669 0617 1E       		.byte	0x1e
 1670 0618 00       		.byte	0
 1671 0619 0F       		.uleb128 0xf
 1672 061a E8050000 		.4byte	0x5e8
 1673 061e 0F       		.uleb128 0xf
 1674 061f E8050000 		.4byte	0x5e8
 1675 0623 0F       		.uleb128 0xf
 1676 0624 E8050000 		.4byte	0x5e8
 1677 0628 0D       		.uleb128 0xd
 1678 0629 4B050000 		.4byte	0x54b
 1679 062d 38060000 		.4byte	0x638
 1680 0631 0E       		.uleb128 0xe
 1681 0632 F8050000 		.4byte	0x5f8
 1682 0636 3F       		.byte	0x3f
 1683 0637 00       		.byte	0
 1684 0638 0D       		.uleb128 0xd
 1685 0639 FF050000 		.4byte	0x5ff
 1686 063d 48060000 		.4byte	0x648
 1687 0641 0E       		.uleb128 0xe
 1688 0642 F8050000 		.4byte	0x5f8
 1689 0646 07       		.byte	0x7
 1690 0647 00       		.byte	0
 1691 0648 0F       		.uleb128 0xf
 1692 0649 38060000 		.4byte	0x638
 1693 064d 07       		.uleb128 0x7
 1694 064e 0F230000 		.4byte	.LASF216
 1695 0652 03       		.byte	0x3
 1696 0653 5201     		.2byte	0x152
 1697 0655 56050000 		.4byte	0x556
 1698 0659 10       		.uleb128 0x10
 1699 065a FF050000 		.4byte	0x5ff
 1700 065e 0D       		.uleb128 0xd
 1701 065f 59060000 		.4byte	0x659
ARM GAS  C:\Users\salaz\AppData\Local\Temp\cc7F8fiw.s 			page 64


 1702 0663 6E060000 		.4byte	0x66e
 1703 0667 0E       		.uleb128 0xe
 1704 0668 F8050000 		.4byte	0x5f8
 1705 066c 05       		.byte	0x5
 1706 066d 00       		.byte	0
 1707 066e 0D       		.uleb128 0xd
 1708 066f 59060000 		.4byte	0x659
 1709 0673 7E060000 		.4byte	0x67e
 1710 0677 0E       		.uleb128 0xe
 1711 0678 F8050000 		.4byte	0x5f8
 1712 067c 7F       		.byte	0x7f
 1713 067d 00       		.byte	0
 1714 067e 0D       		.uleb128 0xd
 1715 067f 59060000 		.4byte	0x659
 1716 0683 8E060000 		.4byte	0x68e
 1717 0687 0E       		.uleb128 0xe
 1718 0688 F8050000 		.4byte	0x5f8
 1719 068c 02       		.byte	0x2
 1720 068d 00       		.byte	0
 1721 068e 0D       		.uleb128 0xd
 1722 068f 59060000 		.4byte	0x659
 1723 0693 9E060000 		.4byte	0x69e
 1724 0697 0E       		.uleb128 0xe
 1725 0698 F8050000 		.4byte	0x5f8
 1726 069c 03       		.byte	0x3
 1727 069d 00       		.byte	0
 1728 069e 0D       		.uleb128 0xd
 1729 069f 59060000 		.4byte	0x659
 1730 06a3 AE060000 		.4byte	0x6ae
 1731 06a7 0E       		.uleb128 0xe
 1732 06a8 F8050000 		.4byte	0x5f8
 1733 06ac 3E       		.byte	0x3e
 1734 06ad 00       		.byte	0
 1735 06ae 0D       		.uleb128 0xd
 1736 06af 59060000 		.4byte	0x659
 1737 06b3 BE060000 		.4byte	0x6be
 1738 06b7 0E       		.uleb128 0xe
 1739 06b8 F8050000 		.4byte	0x5f8
 1740 06bc 1E       		.byte	0x1e
 1741 06bd 00       		.byte	0
 1742 06be 0D       		.uleb128 0xd
 1743 06bf 59060000 		.4byte	0x659
 1744 06c3 CE060000 		.4byte	0x6ce
 1745 06c7 0E       		.uleb128 0xe
 1746 06c8 F8050000 		.4byte	0x5f8
 1747 06cc 0B       		.byte	0xb
 1748 06cd 00       		.byte	0
 1749 06ce 0D       		.uleb128 0xd
 1750 06cf 59060000 		.4byte	0x659
 1751 06d3 DE060000 		.4byte	0x6de
 1752 06d7 0E       		.uleb128 0xe
 1753 06d8 F8050000 		.4byte	0x5f8
 1754 06dc 0C       		.byte	0xc
 1755 06dd 00       		.byte	0
 1756 06de 0D       		.uleb128 0xd
 1757 06df 59060000 		.4byte	0x659
 1758 06e3 EE060000 		.4byte	0x6ee
ARM GAS  C:\Users\salaz\AppData\Local\Temp\cc7F8fiw.s 			page 65


 1759 06e7 0E       		.uleb128 0xe
 1760 06e8 F8050000 		.4byte	0x5f8
 1761 06ec 0A       		.byte	0xa
 1762 06ed 00       		.byte	0
 1763 06ee 0D       		.uleb128 0xd
 1764 06ef 59060000 		.4byte	0x659
 1765 06f3 FE060000 		.4byte	0x6fe
 1766 06f7 0E       		.uleb128 0xe
 1767 06f8 F8050000 		.4byte	0x5f8
 1768 06fc 2E       		.byte	0x2e
 1769 06fd 00       		.byte	0
 1770 06fe 0D       		.uleb128 0xd
 1771 06ff 59060000 		.4byte	0x659
 1772 0703 0E070000 		.4byte	0x70e
 1773 0707 0E       		.uleb128 0xe
 1774 0708 F8050000 		.4byte	0x5f8
 1775 070c 2D       		.byte	0x2d
 1776 070d 00       		.byte	0
 1777 070e 11       		.uleb128 0x11
 1778 070f D00F     		.2byte	0xfd0
 1779 0711 07       		.byte	0x7
 1780 0712 21       		.byte	0x21
 1781 0713 920A0000 		.4byte	0xa92
 1782 0717 12       		.uleb128 0x12
 1783 0718 351C0000 		.4byte	.LASF217
 1784 071c 07       		.byte	0x7
 1785 071d 22       		.byte	0x22
 1786 071e FF050000 		.4byte	0x5ff
 1787 0722 00       		.byte	0
 1788 0723 12       		.uleb128 0x12
 1789 0724 EF270000 		.4byte	.LASF218
 1790 0728 07       		.byte	0x7
 1791 0729 23       		.byte	0x23
 1792 072a 59060000 		.4byte	0x659
 1793 072e 04       		.byte	0x4
 1794 072f 12       		.uleb128 0x12
 1795 0730 E1270000 		.4byte	.LASF219
 1796 0734 07       		.byte	0x7
 1797 0735 24       		.byte	0x24
 1798 0736 FF050000 		.4byte	0x5ff
 1799 073a 08       		.byte	0x8
 1800 073b 12       		.uleb128 0x12
 1801 073c 23140000 		.4byte	.LASF220
 1802 0740 07       		.byte	0x7
 1803 0741 25       		.byte	0x25
 1804 0742 59060000 		.4byte	0x659
 1805 0746 0C       		.byte	0xc
 1806 0747 12       		.uleb128 0x12
 1807 0748 59130000 		.4byte	.LASF221
 1808 074c 07       		.byte	0x7
 1809 074d 26       		.byte	0x26
 1810 074e 970A0000 		.4byte	0xa97
 1811 0752 10       		.byte	0x10
 1812 0753 12       		.uleb128 0x12
 1813 0754 0E080000 		.4byte	.LASF222
 1814 0758 07       		.byte	0x7
 1815 0759 27       		.byte	0x27
ARM GAS  C:\Users\salaz\AppData\Local\Temp\cc7F8fiw.s 			page 66


 1816 075a FF050000 		.4byte	0x5ff
 1817 075e 20       		.byte	0x20
 1818 075f 12       		.uleb128 0x12
 1819 0760 AD1B0000 		.4byte	.LASF223
 1820 0764 07       		.byte	0x7
 1821 0765 28       		.byte	0x28
 1822 0766 59060000 		.4byte	0x659
 1823 076a 24       		.byte	0x24
 1824 076b 12       		.uleb128 0x12
 1825 076c CF0B0000 		.4byte	.LASF224
 1826 0770 07       		.byte	0x7
 1827 0771 29       		.byte	0x29
 1828 0772 A10A0000 		.4byte	0xaa1
 1829 0776 28       		.byte	0x28
 1830 0777 12       		.uleb128 0x12
 1831 0778 69010000 		.4byte	.LASF225
 1832 077c 07       		.byte	0x7
 1833 077d 2A       		.byte	0x2a
 1834 077e FF050000 		.4byte	0x5ff
 1835 0782 40       		.byte	0x40
 1836 0783 12       		.uleb128 0x12
 1837 0784 AB0F0000 		.4byte	.LASF226
 1838 0788 07       		.byte	0x7
 1839 0789 2B       		.byte	0x2b
 1840 078a FF050000 		.4byte	0x5ff
 1841 078e 44       		.byte	0x44
 1842 078f 12       		.uleb128 0x12
 1843 0790 CB070000 		.4byte	.LASF227
 1844 0794 07       		.byte	0x7
 1845 0795 2C       		.byte	0x2c
 1846 0796 FF050000 		.4byte	0x5ff
 1847 079a 48       		.byte	0x48
 1848 079b 12       		.uleb128 0x12
 1849 079c 7E130000 		.4byte	.LASF228
 1850 07a0 07       		.byte	0x7
 1851 07a1 2D       		.byte	0x2d
 1852 07a2 59060000 		.4byte	0x659
 1853 07a6 4C       		.byte	0x4c
 1854 07a7 12       		.uleb128 0x12
 1855 07a8 841E0000 		.4byte	.LASF229
 1856 07ac 07       		.byte	0x7
 1857 07ad 2E       		.byte	0x2e
 1858 07ae FF050000 		.4byte	0x5ff
 1859 07b2 50       		.byte	0x50
 1860 07b3 12       		.uleb128 0x12
 1861 07b4 18100000 		.4byte	.LASF211
 1862 07b8 07       		.byte	0x7
 1863 07b9 2F       		.byte	0x2f
 1864 07ba AB0A0000 		.4byte	0xaab
 1865 07be 54       		.byte	0x54
 1866 07bf 12       		.uleb128 0x12
 1867 07c0 43340000 		.4byte	.LASF230
 1868 07c4 07       		.byte	0x7
 1869 07c5 30       		.byte	0x30
 1870 07c6 FF050000 		.4byte	0x5ff
 1871 07ca 60       		.byte	0x60
 1872 07cb 12       		.uleb128 0x12
ARM GAS  C:\Users\salaz\AppData\Local\Temp\cc7F8fiw.s 			page 67


 1873 07cc 912E0000 		.4byte	.LASF231
 1874 07d0 07       		.byte	0x7
 1875 07d1 31       		.byte	0x31
 1876 07d2 59060000 		.4byte	0x659
 1877 07d6 64       		.byte	0x64
 1878 07d7 12       		.uleb128 0x12
 1879 07d8 270A0000 		.4byte	.LASF232
 1880 07dc 07       		.byte	0x7
 1881 07dd 32       		.byte	0x32
 1882 07de FF050000 		.4byte	0x5ff
 1883 07e2 68       		.byte	0x68
 1884 07e3 12       		.uleb128 0x12
 1885 07e4 950E0000 		.4byte	.LASF233
 1886 07e8 07       		.byte	0x7
 1887 07e9 33       		.byte	0x33
 1888 07ea FF050000 		.4byte	0x5ff
 1889 07ee 6C       		.byte	0x6c
 1890 07ef 12       		.uleb128 0x12
 1891 07f0 18050000 		.4byte	.LASF234
 1892 07f4 07       		.byte	0x7
 1893 07f5 34       		.byte	0x34
 1894 07f6 FF050000 		.4byte	0x5ff
 1895 07fa 70       		.byte	0x70
 1896 07fb 12       		.uleb128 0x12
 1897 07fc 360E0000 		.4byte	.LASF213
 1898 0800 07       		.byte	0x7
 1899 0801 35       		.byte	0x35
 1900 0802 C50A0000 		.4byte	0xac5
 1901 0806 74       		.byte	0x74
 1902 0807 13       		.uleb128 0x13
 1903 0808 45280000 		.4byte	.LASF235
 1904 080c 07       		.byte	0x7
 1905 080d 36       		.byte	0x36
 1906 080e FF050000 		.4byte	0x5ff
 1907 0812 0001     		.2byte	0x100
 1908 0814 13       		.uleb128 0x13
 1909 0815 F40B0000 		.4byte	.LASF214
 1910 0819 07       		.byte	0x7
 1911 081a 37       		.byte	0x37
 1912 081b CF0A0000 		.4byte	0xacf
 1913 081f 0401     		.2byte	0x104
 1914 0821 13       		.uleb128 0x13
 1915 0822 BC1D0000 		.4byte	.LASF236
 1916 0826 07       		.byte	0x7
 1917 0827 38       		.byte	0x38
 1918 0828 FF050000 		.4byte	0x5ff
 1919 082c 0002     		.2byte	0x200
 1920 082e 13       		.uleb128 0x13
 1921 082f B9240000 		.4byte	.LASF237
 1922 0833 07       		.byte	0x7
 1923 0834 39       		.byte	0x39
 1924 0835 FF050000 		.4byte	0x5ff
 1925 0839 0402     		.2byte	0x204
 1926 083b 13       		.uleb128 0x13
 1927 083c 70210000 		.4byte	.LASF238
 1928 0840 07       		.byte	0x7
 1929 0841 3A       		.byte	0x3a
ARM GAS  C:\Users\salaz\AppData\Local\Temp\cc7F8fiw.s 			page 68


 1930 0842 59060000 		.4byte	0x659
 1931 0846 0802     		.2byte	0x208
 1932 0848 13       		.uleb128 0x13
 1933 0849 FE0B0000 		.4byte	.LASF239
 1934 084d 07       		.byte	0x7
 1935 084e 3B       		.byte	0x3b
 1936 084f D90A0000 		.4byte	0xad9
 1937 0853 0C02     		.2byte	0x20c
 1938 0855 13       		.uleb128 0x13
 1939 0856 E30F0000 		.4byte	.LASF240
 1940 085a 07       		.byte	0x7
 1941 085b 3C       		.byte	0x3c
 1942 085c FF050000 		.4byte	0x5ff
 1943 0860 4002     		.2byte	0x240
 1944 0862 13       		.uleb128 0x13
 1945 0863 080C0000 		.4byte	.LASF241
 1946 0867 07       		.byte	0x7
 1947 0868 3D       		.byte	0x3d
 1948 0869 E30A0000 		.4byte	0xae3
 1949 086d 4402     		.2byte	0x244
 1950 086f 13       		.uleb128 0x13
 1951 0870 F5180000 		.4byte	.LASF242
 1952 0874 07       		.byte	0x7
 1953 0875 3E       		.byte	0x3e
 1954 0876 FF050000 		.4byte	0x5ff
 1955 087a 0003     		.2byte	0x300
 1956 087c 13       		.uleb128 0x13
 1957 087d 912B0000 		.4byte	.LASF243
 1958 0881 07       		.byte	0x7
 1959 0882 3F       		.byte	0x3f
 1960 0883 FF050000 		.4byte	0x5ff
 1961 0887 0403     		.2byte	0x304
 1962 0889 13       		.uleb128 0x13
 1963 088a 54060000 		.4byte	.LASF244
 1964 088e 07       		.byte	0x7
 1965 088f 40       		.byte	0x40
 1966 0890 59060000 		.4byte	0x659
 1967 0894 0803     		.2byte	0x308
 1968 0896 13       		.uleb128 0x13
 1969 0897 120C0000 		.4byte	.LASF245
 1970 089b 07       		.byte	0x7
 1971 089c 41       		.byte	0x41
 1972 089d 59060000 		.4byte	0x659
 1973 08a1 0C03     		.2byte	0x30c
 1974 08a3 13       		.uleb128 0x13
 1975 08a4 FC000000 		.4byte	.LASF246
 1976 08a8 07       		.byte	0x7
 1977 08a9 42       		.byte	0x42
 1978 08aa FF050000 		.4byte	0x5ff
 1979 08ae 1003     		.2byte	0x310
 1980 08b0 13       		.uleb128 0x13
 1981 08b1 1C0C0000 		.4byte	.LASF247
 1982 08b5 07       		.byte	0x7
 1983 08b6 43       		.byte	0x43
 1984 08b7 ED0A0000 		.4byte	0xaed
 1985 08bb 1403     		.2byte	0x314
 1986 08bd 13       		.uleb128 0x13
ARM GAS  C:\Users\salaz\AppData\Local\Temp\cc7F8fiw.s 			page 69


 1987 08be 132A0000 		.4byte	.LASF248
 1988 08c2 07       		.byte	0x7
 1989 08c3 44       		.byte	0x44
 1990 08c4 59060000 		.4byte	0x659
 1991 08c8 4003     		.2byte	0x340
 1992 08ca 13       		.uleb128 0x13
 1993 08cb 12300000 		.4byte	.LASF249
 1994 08cf 07       		.byte	0x7
 1995 08d0 45       		.byte	0x45
 1996 08d1 59060000 		.4byte	0x659
 1997 08d5 4403     		.2byte	0x344
 1998 08d7 13       		.uleb128 0x13
 1999 08d8 260C0000 		.4byte	.LASF250
 2000 08dc 07       		.byte	0x7
 2001 08dd 46       		.byte	0x46
 2002 08de F70A0000 		.4byte	0xaf7
 2003 08e2 4803     		.2byte	0x348
 2004 08e4 13       		.uleb128 0x13
 2005 08e5 D1180000 		.4byte	.LASF251
 2006 08e9 07       		.byte	0x7
 2007 08ea 47       		.byte	0x47
 2008 08eb 0D0B0000 		.4byte	0xb0d
 2009 08ef 0004     		.2byte	0x400
 2010 08f1 13       		.uleb128 0x13
 2011 08f2 29250000 		.4byte	.LASF252
 2012 08f6 07       		.byte	0x7
 2013 08f7 48       		.byte	0x48
 2014 08f8 170B0000 		.4byte	0xb17
 2015 08fc 000C     		.2byte	0xc00
 2016 08fe 13       		.uleb128 0x13
 2017 08ff F4130000 		.4byte	.LASF253
 2018 0903 07       		.byte	0x7
 2019 0904 49       		.byte	0x49
 2020 0905 59060000 		.4byte	0x659
 2021 0909 000E     		.2byte	0xe00
 2022 090b 13       		.uleb128 0x13
 2023 090c 10310000 		.4byte	.LASF254
 2024 0910 07       		.byte	0x7
 2025 0911 4A       		.byte	0x4a
 2026 0912 210B0000 		.4byte	0xb21
 2027 0916 040E     		.2byte	0xe04
 2028 0918 13       		.uleb128 0x13
 2029 0919 1A2B0000 		.4byte	.LASF255
 2030 091d 07       		.byte	0x7
 2031 091e 4B       		.byte	0x4b
 2032 091f FF050000 		.4byte	0x5ff
 2033 0923 800E     		.2byte	0xe80
 2034 0925 13       		.uleb128 0x13
 2035 0926 3F250000 		.4byte	.LASF256
 2036 092a 07       		.byte	0x7
 2037 092b 4C       		.byte	0x4c
 2038 092c 59060000 		.4byte	0x659
 2039 0930 840E     		.2byte	0xe84
 2040 0932 13       		.uleb128 0x13
 2041 0933 D21D0000 		.4byte	.LASF257
 2042 0937 07       		.byte	0x7
 2043 0938 4D       		.byte	0x4d
ARM GAS  C:\Users\salaz\AppData\Local\Temp\cc7F8fiw.s 			page 70


 2044 0939 FF050000 		.4byte	0x5ff
 2045 093d 880E     		.2byte	0xe88
 2046 093f 13       		.uleb128 0x13
 2047 0940 1D280000 		.4byte	.LASF258
 2048 0944 07       		.byte	0x7
 2049 0945 4E       		.byte	0x4e
 2050 0946 59060000 		.4byte	0x659
 2051 094a 8C0E     		.2byte	0xe8c
 2052 094c 13       		.uleb128 0x13
 2053 094d 4A250000 		.4byte	.LASF259
 2054 0951 07       		.byte	0x7
 2055 0952 4F       		.byte	0x4f
 2056 0953 2B0B0000 		.4byte	0xb2b
 2057 0957 900E     		.2byte	0xe90
 2058 0959 13       		.uleb128 0x13
 2059 095a 7F210000 		.4byte	.LASF260
 2060 095e 07       		.byte	0x7
 2061 095f 50       		.byte	0x50
 2062 0960 FF050000 		.4byte	0x5ff
 2063 0964 C00E     		.2byte	0xec0
 2064 0966 13       		.uleb128 0x13
 2065 0967 55250000 		.4byte	.LASF261
 2066 096b 07       		.byte	0x7
 2067 096c 51       		.byte	0x51
 2068 096d 59060000 		.4byte	0x659
 2069 0971 C40E     		.2byte	0xec4
 2070 0973 13       		.uleb128 0x13
 2071 0974 CB1F0000 		.4byte	.LASF262
 2072 0978 07       		.byte	0x7
 2073 0979 52       		.byte	0x52
 2074 097a FF050000 		.4byte	0x5ff
 2075 097e C80E     		.2byte	0xec8
 2076 0980 13       		.uleb128 0x13
 2077 0981 30290000 		.4byte	.LASF263
 2078 0985 07       		.byte	0x7
 2079 0986 53       		.byte	0x53
 2080 0987 59060000 		.4byte	0x659
 2081 098b CC0E     		.2byte	0xecc
 2082 098d 13       		.uleb128 0x13
 2083 098e 60250000 		.4byte	.LASF264
 2084 0992 07       		.byte	0x7
 2085 0993 54       		.byte	0x54
 2086 0994 350B0000 		.4byte	0xb35
 2087 0998 D00E     		.2byte	0xed0
 2088 099a 13       		.uleb128 0x13
 2089 099b C3030000 		.4byte	.LASF265
 2090 099f 07       		.byte	0x7
 2091 09a0 55       		.byte	0x55
 2092 09a1 FF050000 		.4byte	0x5ff
 2093 09a5 000F     		.2byte	0xf00
 2094 09a7 13       		.uleb128 0x13
 2095 09a8 25290000 		.4byte	.LASF266
 2096 09ac 07       		.byte	0x7
 2097 09ad 56       		.byte	0x56
 2098 09ae FF050000 		.4byte	0x5ff
 2099 09b2 040F     		.2byte	0xf04
 2100 09b4 13       		.uleb128 0x13
ARM GAS  C:\Users\salaz\AppData\Local\Temp\cc7F8fiw.s 			page 71


 2101 09b5 C5150000 		.4byte	.LASF267
 2102 09b9 07       		.byte	0x7
 2103 09ba 57       		.byte	0x57
 2104 09bb FF050000 		.4byte	0x5ff
 2105 09bf 080F     		.2byte	0xf08
 2106 09c1 13       		.uleb128 0x13
 2107 09c2 1D1A0000 		.4byte	.LASF268
 2108 09c6 07       		.byte	0x7
 2109 09c7 58       		.byte	0x58
 2110 09c8 59060000 		.4byte	0x659
 2111 09cc 0C0F     		.2byte	0xf0c
 2112 09ce 13       		.uleb128 0x13
 2113 09cf A5310000 		.4byte	.LASF269
 2114 09d3 07       		.byte	0x7
 2115 09d4 59       		.byte	0x59
 2116 09d5 3F0B0000 		.4byte	0xb3f
 2117 09d9 100F     		.2byte	0xf10
 2118 09db 13       		.uleb128 0x13
 2119 09dc E40E0000 		.4byte	.LASF270
 2120 09e0 07       		.byte	0x7
 2121 09e1 5A       		.byte	0x5a
 2122 09e2 FF050000 		.4byte	0x5ff
 2123 09e6 400F     		.2byte	0xf40
 2124 09e8 13       		.uleb128 0x13
 2125 09e9 BE2B0000 		.4byte	.LASF271
 2126 09ed 07       		.byte	0x7
 2127 09ee 5B       		.byte	0x5b
 2128 09ef FF050000 		.4byte	0x5ff
 2129 09f3 440F     		.2byte	0xf44
 2130 09f5 13       		.uleb128 0x13
 2131 09f6 DC280000 		.4byte	.LASF272
 2132 09fa 07       		.byte	0x7
 2133 09fb 5C       		.byte	0x5c
 2134 09fc FF050000 		.4byte	0x5ff
 2135 0a00 480F     		.2byte	0xf48
 2136 0a02 13       		.uleb128 0x13
 2137 0a03 E0200000 		.4byte	.LASF273
 2138 0a07 07       		.byte	0x7
 2139 0a08 5D       		.byte	0x5d
 2140 0a09 59060000 		.4byte	0x659
 2141 0a0d 4C0F     		.2byte	0xf4c
 2142 0a0f 13       		.uleb128 0x13
 2143 0a10 8C250000 		.4byte	.LASF274
 2144 0a14 07       		.byte	0x7
 2145 0a15 5E       		.byte	0x5e
 2146 0a16 490B0000 		.4byte	0xb49
 2147 0a1a 500F     		.2byte	0xf50
 2148 0a1c 13       		.uleb128 0x13
 2149 0a1d 4B080000 		.4byte	.LASF275
 2150 0a21 07       		.byte	0x7
 2151 0a22 5F       		.byte	0x5f
 2152 0a23 FF050000 		.4byte	0x5ff
 2153 0a27 800F     		.2byte	0xf80
 2154 0a29 13       		.uleb128 0x13
 2155 0a2a C3250000 		.4byte	.LASF276
 2156 0a2e 07       		.byte	0x7
 2157 0a2f 60       		.byte	0x60
ARM GAS  C:\Users\salaz\AppData\Local\Temp\cc7F8fiw.s 			page 72


 2158 0a30 FF050000 		.4byte	0x5ff
 2159 0a34 840F     		.2byte	0xf84
 2160 0a36 13       		.uleb128 0x13
 2161 0a37 E70B0000 		.4byte	.LASF277
 2162 0a3b 07       		.byte	0x7
 2163 0a3c 61       		.byte	0x61
 2164 0a3d FF050000 		.4byte	0x5ff
 2165 0a41 880F     		.2byte	0xf88
 2166 0a43 13       		.uleb128 0x13
 2167 0a44 53080000 		.4byte	.LASF278
 2168 0a48 07       		.byte	0x7
 2169 0a49 62       		.byte	0x62
 2170 0a4a 59060000 		.4byte	0x659
 2171 0a4e 8C0F     		.2byte	0xf8c
 2172 0a50 13       		.uleb128 0x13
 2173 0a51 97250000 		.4byte	.LASF279
 2174 0a55 07       		.byte	0x7
 2175 0a56 63       		.byte	0x63
 2176 0a57 530B0000 		.4byte	0xb53
 2177 0a5b 900F     		.2byte	0xf90
 2178 0a5d 13       		.uleb128 0x13
 2179 0a5e 0B050000 		.4byte	.LASF280
 2180 0a62 07       		.byte	0x7
 2181 0a63 64       		.byte	0x64
 2182 0a64 FF050000 		.4byte	0x5ff
 2183 0a68 C00F     		.2byte	0xfc0
 2184 0a6a 13       		.uleb128 0x13
 2185 0a6b 78090000 		.4byte	.LASF281
 2186 0a6f 07       		.byte	0x7
 2187 0a70 65       		.byte	0x65
 2188 0a71 FF050000 		.4byte	0x5ff
 2189 0a75 C40F     		.2byte	0xfc4
 2190 0a77 13       		.uleb128 0x13
 2191 0a78 B9060000 		.4byte	.LASF282
 2192 0a7c 07       		.byte	0x7
 2193 0a7d 66       		.byte	0x66
 2194 0a7e FF050000 		.4byte	0x5ff
 2195 0a82 C80F     		.2byte	0xfc8
 2196 0a84 13       		.uleb128 0x13
 2197 0a85 33260000 		.4byte	.LASF283
 2198 0a89 07       		.byte	0x7
 2199 0a8a 67       		.byte	0x67
 2200 0a8b 59060000 		.4byte	0x659
 2201 0a8f CC0F     		.2byte	0xfcc
 2202 0a91 00       		.byte	0
 2203 0a92 0F       		.uleb128 0xf
 2204 0a93 8E060000 		.4byte	0x68e
 2205 0a97 10       		.uleb128 0x10
 2206 0a98 920A0000 		.4byte	0xa92
 2207 0a9c 0F       		.uleb128 0xf
 2208 0a9d 5E060000 		.4byte	0x65e
 2209 0aa1 10       		.uleb128 0x10
 2210 0aa2 9C0A0000 		.4byte	0xa9c
 2211 0aa6 0F       		.uleb128 0xf
 2212 0aa7 7E060000 		.4byte	0x67e
 2213 0aab 10       		.uleb128 0x10
 2214 0aac A60A0000 		.4byte	0xaa6
ARM GAS  C:\Users\salaz\AppData\Local\Temp\cc7F8fiw.s 			page 73


 2215 0ab0 0D       		.uleb128 0xd
 2216 0ab1 59060000 		.4byte	0x659
 2217 0ab5 C00A0000 		.4byte	0xac0
 2218 0ab9 0E       		.uleb128 0xe
 2219 0aba F8050000 		.4byte	0x5f8
 2220 0abe 22       		.byte	0x22
 2221 0abf 00       		.byte	0
 2222 0ac0 0F       		.uleb128 0xf
 2223 0ac1 B00A0000 		.4byte	0xab0
 2224 0ac5 10       		.uleb128 0x10
 2225 0ac6 C00A0000 		.4byte	0xac0
 2226 0aca 0F       		.uleb128 0xf
 2227 0acb 9E060000 		.4byte	0x69e
 2228 0acf 10       		.uleb128 0x10
 2229 0ad0 CA0A0000 		.4byte	0xaca
 2230 0ad4 0F       		.uleb128 0xf
 2231 0ad5 CE060000 		.4byte	0x6ce
 2232 0ad9 10       		.uleb128 0x10
 2233 0ada D40A0000 		.4byte	0xad4
 2234 0ade 0F       		.uleb128 0xf
 2235 0adf EE060000 		.4byte	0x6ee
 2236 0ae3 10       		.uleb128 0x10
 2237 0ae4 DE0A0000 		.4byte	0xade
 2238 0ae8 0F       		.uleb128 0xf
 2239 0ae9 DE060000 		.4byte	0x6de
 2240 0aed 10       		.uleb128 0x10
 2241 0aee E80A0000 		.4byte	0xae8
 2242 0af2 0F       		.uleb128 0xf
 2243 0af3 FE060000 		.4byte	0x6fe
 2244 0af7 10       		.uleb128 0x10
 2245 0af8 F20A0000 		.4byte	0xaf2
 2246 0afc 0D       		.uleb128 0xd
 2247 0afd FF050000 		.4byte	0x5ff
 2248 0b01 0D0B0000 		.4byte	0xb0d
 2249 0b05 14       		.uleb128 0x14
 2250 0b06 F8050000 		.4byte	0x5f8
 2251 0b0a FF01     		.2byte	0x1ff
 2252 0b0c 00       		.byte	0
 2253 0b0d 0F       		.uleb128 0xf
 2254 0b0e FC0A0000 		.4byte	0xafc
 2255 0b12 0F       		.uleb128 0xf
 2256 0b13 6E060000 		.4byte	0x66e
 2257 0b17 10       		.uleb128 0x10
 2258 0b18 120B0000 		.4byte	0xb12
 2259 0b1c 0F       		.uleb128 0xf
 2260 0b1d AE060000 		.4byte	0x6ae
 2261 0b21 10       		.uleb128 0x10
 2262 0b22 1C0B0000 		.4byte	0xb1c
 2263 0b26 0F       		.uleb128 0xf
 2264 0b27 BE060000 		.4byte	0x6be
 2265 0b2b 10       		.uleb128 0x10
 2266 0b2c 260B0000 		.4byte	0xb26
 2267 0b30 0F       		.uleb128 0xf
 2268 0b31 BE060000 		.4byte	0x6be
 2269 0b35 10       		.uleb128 0x10
 2270 0b36 300B0000 		.4byte	0xb30
 2271 0b3a 0F       		.uleb128 0xf
ARM GAS  C:\Users\salaz\AppData\Local\Temp\cc7F8fiw.s 			page 74


 2272 0b3b BE060000 		.4byte	0x6be
 2273 0b3f 10       		.uleb128 0x10
 2274 0b40 3A0B0000 		.4byte	0xb3a
 2275 0b44 0F       		.uleb128 0xf
 2276 0b45 BE060000 		.4byte	0x6be
 2277 0b49 10       		.uleb128 0x10
 2278 0b4a 440B0000 		.4byte	0xb44
 2279 0b4e 0F       		.uleb128 0xf
 2280 0b4f BE060000 		.4byte	0x6be
 2281 0b53 10       		.uleb128 0x10
 2282 0b54 4E0B0000 		.4byte	0xb4e
 2283 0b58 06       		.uleb128 0x6
 2284 0b59 991F0000 		.4byte	.LASF284
 2285 0b5d 07       		.byte	0x7
 2286 0b5e 68       		.byte	0x68
 2287 0b5f 0E070000 		.4byte	0x70e
 2288 0b63 05       		.uleb128 0x5
 2289 0b64 08       		.byte	0x8
 2290 0b65 04       		.byte	0x4
 2291 0b66 A5200000 		.4byte	.LASF285
 2292 0b6a 05       		.uleb128 0x5
 2293 0b6b 01       		.byte	0x1
 2294 0b6c 08       		.byte	0x8
 2295 0b6d 6D0E0000 		.4byte	.LASF286
 2296 0b71 05       		.uleb128 0x5
 2297 0b72 04       		.byte	0x4
 2298 0b73 04       		.byte	0x4
 2299 0b74 761B0000 		.4byte	.LASF287
 2300 0b78 05       		.uleb128 0x5
 2301 0b79 08       		.byte	0x8
 2302 0b7a 04       		.byte	0x4
 2303 0b7b 6A1A0000 		.4byte	.LASF288
 2304 0b7f 07       		.uleb128 0x7
 2305 0b80 402A0000 		.4byte	.LASF289
 2306 0b84 08       		.byte	0x8
 2307 0b85 8503     		.2byte	0x385
 2308 0b87 2A050000 		.4byte	0x52a
 2309 0b8b 07       		.uleb128 0x7
 2310 0b8c 3C340000 		.4byte	.LASF290
 2311 0b90 08       		.byte	0x8
 2312 0b91 8603     		.2byte	0x386
 2313 0b93 35050000 		.4byte	0x535
 2314 0b97 07       		.uleb128 0x7
 2315 0b98 79020000 		.4byte	.LASF291
 2316 0b9c 08       		.byte	0x8
 2317 0b9d 8703     		.2byte	0x387
 2318 0b9f 4B050000 		.4byte	0x54b
 2319 0ba3 15       		.uleb128 0x15
 2320 0ba4 08       		.byte	0x8
 2321 0ba5 09       		.byte	0x9
 2322 0ba6 EB       		.byte	0xeb
 2323 0ba7 D00B0000 		.4byte	0xbd0
 2324 0bab 12       		.uleb128 0x12
 2325 0bac B1060000 		.4byte	.LASF292
 2326 0bb0 09       		.byte	0x9
 2327 0bb1 EC       		.byte	0xec
 2328 0bb2 23010000 		.4byte	0x123
ARM GAS  C:\Users\salaz\AppData\Local\Temp\cc7F8fiw.s 			page 75


 2329 0bb6 00       		.byte	0
 2330 0bb7 12       		.uleb128 0x12
 2331 0bb8 61150000 		.4byte	.LASF293
 2332 0bbc 09       		.byte	0x9
 2333 0bbd EE       		.byte	0xee
 2334 0bbe BA040000 		.4byte	0x4ba
 2335 0bc2 02       		.byte	0x2
 2336 0bc3 12       		.uleb128 0x12
 2337 0bc4 E8280000 		.4byte	.LASF294
 2338 0bc8 09       		.byte	0x9
 2339 0bc9 F0       		.byte	0xf0
 2340 0bca 4B050000 		.4byte	0x54b
 2341 0bce 04       		.byte	0x4
 2342 0bcf 00       		.byte	0
 2343 0bd0 06       		.uleb128 0x6
 2344 0bd1 0A130000 		.4byte	.LASF295
 2345 0bd5 09       		.byte	0x9
 2346 0bd6 F1       		.byte	0xf1
 2347 0bd7 A30B0000 		.4byte	0xba3
 2348 0bdb 16       		.uleb128 0x16
 2349 0bdc 04       		.byte	0x4
 2350 0bdd 05       		.uleb128 0x5
 2351 0bde 01       		.byte	0x1
 2352 0bdf 02       		.byte	0x2
 2353 0be0 6D0D0000 		.4byte	.LASF296
 2354 0be4 17       		.uleb128 0x17
 2355 0be5 0F170000 		.4byte	.LASF317
 2356 0be9 4C       		.byte	0x4c
 2357 0bea 0A       		.byte	0xa
 2358 0beb 2B       		.byte	0x2b
 2359 0bec D50C0000 		.4byte	0xcd5
 2360 0bf0 12       		.uleb128 0x12
 2361 0bf1 08270000 		.4byte	.LASF297
 2362 0bf5 0A       		.byte	0xa
 2363 0bf6 2D       		.byte	0x2d
 2364 0bf7 4B050000 		.4byte	0x54b
 2365 0bfb 00       		.byte	0
 2366 0bfc 12       		.uleb128 0x12
 2367 0bfd 02100000 		.4byte	.LASF298
 2368 0c01 0A       		.byte	0xa
 2369 0c02 2F       		.byte	0x2f
 2370 0c03 4B050000 		.4byte	0x54b
 2371 0c07 04       		.byte	0x4
 2372 0c08 12       		.uleb128 0x12
 2373 0c09 630F0000 		.4byte	.LASF299
 2374 0c0d 0A       		.byte	0xa
 2375 0c0e 30       		.byte	0x30
 2376 0c0f 4B050000 		.4byte	0x54b
 2377 0c13 08       		.byte	0x8
 2378 0c14 12       		.uleb128 0x12
 2379 0c15 521E0000 		.4byte	.LASF300
 2380 0c19 0A       		.byte	0xa
 2381 0c1a 31       		.byte	0x31
 2382 0c1b 4B050000 		.4byte	0x54b
 2383 0c1f 0C       		.byte	0xc
 2384 0c20 12       		.uleb128 0x12
 2385 0c21 9C2E0000 		.4byte	.LASF301
ARM GAS  C:\Users\salaz\AppData\Local\Temp\cc7F8fiw.s 			page 76


 2386 0c25 0A       		.byte	0xa
 2387 0c26 33       		.byte	0x33
 2388 0c27 4B050000 		.4byte	0x54b
 2389 0c2b 10       		.byte	0x10
 2390 0c2c 12       		.uleb128 0x12
 2391 0c2d EC030000 		.4byte	.LASF302
 2392 0c31 0A       		.byte	0xa
 2393 0c32 34       		.byte	0x34
 2394 0c33 4B050000 		.4byte	0x54b
 2395 0c37 14       		.byte	0x14
 2396 0c38 12       		.uleb128 0x12
 2397 0c39 F5030000 		.4byte	.LASF303
 2398 0c3d 0A       		.byte	0xa
 2399 0c3e 35       		.byte	0x35
 2400 0c3f 4B050000 		.4byte	0x54b
 2401 0c43 18       		.byte	0x18
 2402 0c44 12       		.uleb128 0x12
 2403 0c45 F51C0000 		.4byte	.LASF304
 2404 0c49 0A       		.byte	0xa
 2405 0c4a 36       		.byte	0x36
 2406 0c4b DD0B0000 		.4byte	0xbdd
 2407 0c4f 1C       		.byte	0x1c
 2408 0c50 12       		.uleb128 0x12
 2409 0c51 40180000 		.4byte	.LASF305
 2410 0c55 0A       		.byte	0xa
 2411 0c56 38       		.byte	0x38
 2412 0c57 4B050000 		.4byte	0x54b
 2413 0c5b 20       		.byte	0x20
 2414 0c5c 12       		.uleb128 0x12
 2415 0c5d 73010000 		.4byte	.LASF306
 2416 0c61 0A       		.byte	0xa
 2417 0c62 39       		.byte	0x39
 2418 0c63 4B050000 		.4byte	0x54b
 2419 0c67 24       		.byte	0x24
 2420 0c68 12       		.uleb128 0x12
 2421 0c69 97320000 		.4byte	.LASF307
 2422 0c6d 0A       		.byte	0xa
 2423 0c6e 3B       		.byte	0x3b
 2424 0c6f 4B050000 		.4byte	0x54b
 2425 0c73 28       		.byte	0x28
 2426 0c74 12       		.uleb128 0x12
 2427 0c75 35080000 		.4byte	.LASF308
 2428 0c79 0A       		.byte	0xa
 2429 0c7a 3C       		.byte	0x3c
 2430 0c7b 4B050000 		.4byte	0x54b
 2431 0c7f 2C       		.byte	0x2c
 2432 0c80 12       		.uleb128 0x12
 2433 0c81 8B320000 		.4byte	.LASF309
 2434 0c85 0A       		.byte	0xa
 2435 0c86 3E       		.byte	0x3e
 2436 0c87 4B050000 		.4byte	0x54b
 2437 0c8b 30       		.byte	0x30
 2438 0c8c 12       		.uleb128 0x12
 2439 0c8d 94290000 		.4byte	.LASF310
 2440 0c91 0A       		.byte	0xa
 2441 0c92 3F       		.byte	0x3f
 2442 0c93 4B050000 		.4byte	0x54b
ARM GAS  C:\Users\salaz\AppData\Local\Temp\cc7F8fiw.s 			page 77


 2443 0c97 34       		.byte	0x34
 2444 0c98 12       		.uleb128 0x12
 2445 0c99 4C340000 		.4byte	.LASF311
 2446 0c9d 0A       		.byte	0xa
 2447 0c9e 41       		.byte	0x41
 2448 0c9f 4B050000 		.4byte	0x54b
 2449 0ca3 38       		.byte	0x38
 2450 0ca4 12       		.uleb128 0x12
 2451 0ca5 9D1A0000 		.4byte	.LASF312
 2452 0ca9 0A       		.byte	0xa
 2453 0caa 42       		.byte	0x42
 2454 0cab 4B050000 		.4byte	0x54b
 2455 0caf 3C       		.byte	0x3c
 2456 0cb0 12       		.uleb128 0x12
 2457 0cb1 4D300000 		.4byte	.LASF313
 2458 0cb5 0A       		.byte	0xa
 2459 0cb6 44       		.byte	0x44
 2460 0cb7 4B050000 		.4byte	0x54b
 2461 0cbb 40       		.byte	0x40
 2462 0cbc 12       		.uleb128 0x12
 2463 0cbd FC040000 		.4byte	.LASF314
 2464 0cc1 0A       		.byte	0xa
 2465 0cc2 45       		.byte	0x45
 2466 0cc3 4B050000 		.4byte	0x54b
 2467 0cc7 44       		.byte	0x44
 2468 0cc8 12       		.uleb128 0x12
 2469 0cc9 3D1D0000 		.4byte	.LASF315
 2470 0ccd 0A       		.byte	0xa
 2471 0cce 47       		.byte	0x47
 2472 0ccf 4B050000 		.4byte	0x54b
 2473 0cd3 48       		.byte	0x48
 2474 0cd4 00       		.byte	0
 2475 0cd5 06       		.uleb128 0x6
 2476 0cd6 CE2C0000 		.4byte	.LASF316
 2477 0cda 0A       		.byte	0xa
 2478 0cdb 48       		.byte	0x48
 2479 0cdc E40B0000 		.4byte	0xbe4
 2480 0ce0 17       		.uleb128 0x17
 2481 0ce1 B1120000 		.4byte	.LASF318
 2482 0ce5 64       		.byte	0x64
 2483 0ce6 0B       		.byte	0xb
 2484 0ce7 2B       		.byte	0x2b
 2485 0ce8 190E0000 		.4byte	0xe19
 2486 0cec 12       		.uleb128 0x12
 2487 0ced A41C0000 		.4byte	.LASF319
 2488 0cf1 0B       		.byte	0xb
 2489 0cf2 2D       		.byte	0x2d
 2490 0cf3 4B050000 		.4byte	0x54b
 2491 0cf7 00       		.byte	0
 2492 0cf8 12       		.uleb128 0x12
 2493 0cf9 02100000 		.4byte	.LASF298
 2494 0cfd 0B       		.byte	0xb
 2495 0cfe 2F       		.byte	0x2f
 2496 0cff 4B050000 		.4byte	0x54b
 2497 0d03 04       		.byte	0x4
 2498 0d04 12       		.uleb128 0x12
 2499 0d05 742F0000 		.4byte	.LASF320
ARM GAS  C:\Users\salaz\AppData\Local\Temp\cc7F8fiw.s 			page 78


 2500 0d09 0B       		.byte	0xb
 2501 0d0a 30       		.byte	0x30
 2502 0d0b 4B050000 		.4byte	0x54b
 2503 0d0f 08       		.byte	0x8
 2504 0d10 12       		.uleb128 0x12
 2505 0d11 00230000 		.4byte	.LASF321
 2506 0d15 0B       		.byte	0xb
 2507 0d16 31       		.byte	0x31
 2508 0d17 4B050000 		.4byte	0x54b
 2509 0d1b 0C       		.byte	0xc
 2510 0d1c 12       		.uleb128 0x12
 2511 0d1d 630F0000 		.4byte	.LASF299
 2512 0d21 0B       		.byte	0xb
 2513 0d22 32       		.byte	0x32
 2514 0d23 4B050000 		.4byte	0x54b
 2515 0d27 10       		.byte	0x10
 2516 0d28 12       		.uleb128 0x12
 2517 0d29 BB0A0000 		.4byte	.LASF322
 2518 0d2d 0B       		.byte	0xb
 2519 0d2e 33       		.byte	0x33
 2520 0d2f 4B050000 		.4byte	0x54b
 2521 0d33 14       		.byte	0x14
 2522 0d34 12       		.uleb128 0x12
 2523 0d35 C30A0000 		.4byte	.LASF323
 2524 0d39 0B       		.byte	0xb
 2525 0d3a 34       		.byte	0x34
 2526 0d3b 4B050000 		.4byte	0x54b
 2527 0d3f 18       		.byte	0x18
 2528 0d40 12       		.uleb128 0x12
 2529 0d41 5A160000 		.4byte	.LASF324
 2530 0d45 0B       		.byte	0xb
 2531 0d46 35       		.byte	0x35
 2532 0d47 DD0B0000 		.4byte	0xbdd
 2533 0d4b 1C       		.byte	0x1c
 2534 0d4c 12       		.uleb128 0x12
 2535 0d4d EC030000 		.4byte	.LASF302
 2536 0d51 0B       		.byte	0xb
 2537 0d52 36       		.byte	0x36
 2538 0d53 4B050000 		.4byte	0x54b
 2539 0d57 20       		.byte	0x20
 2540 0d58 12       		.uleb128 0x12
 2541 0d59 F5030000 		.4byte	.LASF303
 2542 0d5d 0B       		.byte	0xb
 2543 0d5e 37       		.byte	0x37
 2544 0d5f 4B050000 		.4byte	0x54b
 2545 0d63 24       		.byte	0x24
 2546 0d64 12       		.uleb128 0x12
 2547 0d65 F51C0000 		.4byte	.LASF304
 2548 0d69 0B       		.byte	0xb
 2549 0d6a 38       		.byte	0x38
 2550 0d6b DD0B0000 		.4byte	0xbdd
 2551 0d6f 28       		.byte	0x28
 2552 0d70 12       		.uleb128 0x12
 2553 0d71 40180000 		.4byte	.LASF305
 2554 0d75 0B       		.byte	0xb
 2555 0d76 3A       		.byte	0x3a
 2556 0d77 4B050000 		.4byte	0x54b
ARM GAS  C:\Users\salaz\AppData\Local\Temp\cc7F8fiw.s 			page 79


 2557 0d7b 2C       		.byte	0x2c
 2558 0d7c 12       		.uleb128 0x12
 2559 0d7d FD140000 		.4byte	.LASF325
 2560 0d81 0B       		.byte	0xb
 2561 0d82 3B       		.byte	0x3b
 2562 0d83 4B050000 		.4byte	0x54b
 2563 0d87 30       		.byte	0x30
 2564 0d88 12       		.uleb128 0x12
 2565 0d89 12320000 		.4byte	.LASF326
 2566 0d8d 0B       		.byte	0xb
 2567 0d8e 3C       		.byte	0x3c
 2568 0d8f 4B050000 		.4byte	0x54b
 2569 0d93 34       		.byte	0x34
 2570 0d94 12       		.uleb128 0x12
 2571 0d95 5B140000 		.4byte	.LASF327
 2572 0d99 0B       		.byte	0xb
 2573 0d9a 3D       		.byte	0x3d
 2574 0d9b 4B050000 		.4byte	0x54b
 2575 0d9f 38       		.byte	0x38
 2576 0da0 12       		.uleb128 0x12
 2577 0da1 9C180000 		.4byte	.LASF328
 2578 0da5 0B       		.byte	0xb
 2579 0da6 3E       		.byte	0x3e
 2580 0da7 4B050000 		.4byte	0x54b
 2581 0dab 3C       		.byte	0x3c
 2582 0dac 12       		.uleb128 0x12
 2583 0dad 03070000 		.4byte	.LASF329
 2584 0db1 0B       		.byte	0xb
 2585 0db2 40       		.byte	0x40
 2586 0db3 4B050000 		.4byte	0x54b
 2587 0db7 40       		.byte	0x40
 2588 0db8 12       		.uleb128 0x12
 2589 0db9 35080000 		.4byte	.LASF308
 2590 0dbd 0B       		.byte	0xb
 2591 0dbe 41       		.byte	0x41
 2592 0dbf 4B050000 		.4byte	0x54b
 2593 0dc3 44       		.byte	0x44
 2594 0dc4 12       		.uleb128 0x12
 2595 0dc5 8B320000 		.4byte	.LASF309
 2596 0dc9 0B       		.byte	0xb
 2597 0dca 43       		.byte	0x43
 2598 0dcb 4B050000 		.4byte	0x54b
 2599 0dcf 48       		.byte	0x48
 2600 0dd0 12       		.uleb128 0x12
 2601 0dd1 94290000 		.4byte	.LASF310
 2602 0dd5 0B       		.byte	0xb
 2603 0dd6 44       		.byte	0x44
 2604 0dd7 4B050000 		.4byte	0x54b
 2605 0ddb 4C       		.byte	0x4c
 2606 0ddc 12       		.uleb128 0x12
 2607 0ddd 4C340000 		.4byte	.LASF311
 2608 0de1 0B       		.byte	0xb
 2609 0de2 46       		.byte	0x46
 2610 0de3 4B050000 		.4byte	0x54b
 2611 0de7 50       		.byte	0x50
 2612 0de8 12       		.uleb128 0x12
 2613 0de9 C22D0000 		.4byte	.LASF330
ARM GAS  C:\Users\salaz\AppData\Local\Temp\cc7F8fiw.s 			page 80


 2614 0ded 0B       		.byte	0xb
 2615 0dee 47       		.byte	0x47
 2616 0def 4B050000 		.4byte	0x54b
 2617 0df3 54       		.byte	0x54
 2618 0df4 12       		.uleb128 0x12
 2619 0df5 071D0000 		.4byte	.LASF331
 2620 0df9 0B       		.byte	0xb
 2621 0dfa 49       		.byte	0x49
 2622 0dfb 4B050000 		.4byte	0x54b
 2623 0dff 58       		.byte	0x58
 2624 0e00 12       		.uleb128 0x12
 2625 0e01 FC040000 		.4byte	.LASF314
 2626 0e05 0B       		.byte	0xb
 2627 0e06 4A       		.byte	0x4a
 2628 0e07 4B050000 		.4byte	0x54b
 2629 0e0b 5C       		.byte	0x5c
 2630 0e0c 12       		.uleb128 0x12
 2631 0e0d 3D1D0000 		.4byte	.LASF315
 2632 0e11 0B       		.byte	0xb
 2633 0e12 4C       		.byte	0x4c
 2634 0e13 4B050000 		.4byte	0x54b
 2635 0e17 60       		.byte	0x60
 2636 0e18 00       		.byte	0
 2637 0e19 06       		.uleb128 0x6
 2638 0e1a 29050000 		.4byte	.LASF332
 2639 0e1e 0B       		.byte	0xb
 2640 0e1f 4D       		.byte	0x4d
 2641 0e20 E00C0000 		.4byte	0xce0
 2642 0e24 18       		.uleb128 0x18
 2643 0e25 01       		.byte	0x1
 2644 0e26 B3040000 		.4byte	0x4b3
 2645 0e2a 0C       		.byte	0xc
 2646 0e2b DE01     		.2byte	0x1de
 2647 0e2d 3E0E0000 		.4byte	0xe3e
 2648 0e31 04       		.uleb128 0x4
 2649 0e32 BC130000 		.4byte	.LASF333
 2650 0e36 00       		.byte	0
 2651 0e37 04       		.uleb128 0x4
 2652 0e38 E82F0000 		.4byte	.LASF334
 2653 0e3c 01       		.byte	0x1
 2654 0e3d 00       		.byte	0
 2655 0e3e 07       		.uleb128 0x7
 2656 0e3f E3260000 		.4byte	.LASF335
 2657 0e43 0C       		.byte	0xc
 2658 0e44 E101     		.2byte	0x1e1
 2659 0e46 240E0000 		.4byte	0xe24
 2660 0e4a 07       		.uleb128 0x7
 2661 0e4b D91E0000 		.4byte	.LASF336
 2662 0e4f 0C       		.byte	0xc
 2663 0e50 F301     		.2byte	0x1f3
 2664 0e52 560E0000 		.4byte	0xe56
 2665 0e56 19       		.uleb128 0x19
 2666 0e57 04       		.byte	0x4
 2667 0e58 5C0E0000 		.4byte	0xe5c
 2668 0e5c 1A       		.uleb128 0x1a
 2669 0e5d 670E0000 		.4byte	0xe67
 2670 0e61 1B       		.uleb128 0x1b
ARM GAS  C:\Users\salaz\AppData\Local\Temp\cc7F8fiw.s 			page 81


 2671 0e62 4B050000 		.4byte	0x54b
 2672 0e66 00       		.byte	0
 2673 0e67 07       		.uleb128 0x7
 2674 0e68 C9310000 		.4byte	.LASF337
 2675 0e6c 0C       		.byte	0xc
 2676 0e6d FE01     		.2byte	0x1fe
 2677 0e6f 730E0000 		.4byte	0xe73
 2678 0e73 19       		.uleb128 0x19
 2679 0e74 04       		.byte	0x4
 2680 0e75 790E0000 		.4byte	0xe79
 2681 0e79 1C       		.uleb128 0x1c
 2682 0e7a 3E0E0000 		.4byte	0xe3e
 2683 0e7e 880E0000 		.4byte	0xe88
 2684 0e82 1B       		.uleb128 0x1b
 2685 0e83 4B050000 		.4byte	0x54b
 2686 0e87 00       		.byte	0
 2687 0e88 1D       		.uleb128 0x1d
 2688 0e89 AF330000 		.4byte	.LASF338
 2689 0e8d 4C       		.byte	0x4c
 2690 0e8e 0C       		.byte	0xc
 2691 0e8f 6502     		.2byte	0x265
 2692 0e91 A70F0000 		.4byte	0xfa7
 2693 0e95 0A       		.uleb128 0xa
 2694 0e96 C6060000 		.4byte	.LASF339
 2695 0e9a 0C       		.byte	0xc
 2696 0e9b 6802     		.2byte	0x268
 2697 0e9d DD0B0000 		.4byte	0xbdd
 2698 0ea1 00       		.byte	0
 2699 0ea2 0A       		.uleb128 0xa
 2700 0ea3 7E230000 		.4byte	.LASF340
 2701 0ea7 0C       		.byte	0xc
 2702 0ea8 6902     		.2byte	0x269
 2703 0eaa DD0B0000 		.4byte	0xbdd
 2704 0eae 01       		.byte	0x1
 2705 0eaf 0A       		.uleb128 0xa
 2706 0eb0 9A030000 		.4byte	.LASF341
 2707 0eb4 0C       		.byte	0xc
 2708 0eb5 6B02     		.2byte	0x26b
 2709 0eb7 FF050000 		.4byte	0x5ff
 2710 0ebb 04       		.byte	0x4
 2711 0ebc 0A       		.uleb128 0xa
 2712 0ebd 5B2C0000 		.4byte	.LASF342
 2713 0ec1 0C       		.byte	0xc
 2714 0ec2 6D02     		.2byte	0x26d
 2715 0ec4 FF050000 		.4byte	0x5ff
 2716 0ec8 08       		.byte	0x8
 2717 0ec9 0A       		.uleb128 0xa
 2718 0eca 812F0000 		.4byte	.LASF343
 2719 0ece 0C       		.byte	0xc
 2720 0ecf 6E02     		.2byte	0x26e
 2721 0ed1 DD0B0000 		.4byte	0xbdd
 2722 0ed5 0C       		.byte	0xc
 2723 0ed6 0A       		.uleb128 0xa
 2724 0ed7 BF2F0000 		.4byte	.LASF344
 2725 0edb 0C       		.byte	0xc
 2726 0edc 6F02     		.2byte	0x26f
 2727 0ede DD0B0000 		.4byte	0xbdd
ARM GAS  C:\Users\salaz\AppData\Local\Temp\cc7F8fiw.s 			page 82


 2728 0ee2 0D       		.byte	0xd
 2729 0ee3 0A       		.uleb128 0xa
 2730 0ee4 C6290000 		.4byte	.LASF345
 2731 0ee8 0C       		.byte	0xc
 2732 0ee9 7102     		.2byte	0x271
 2733 0eeb A70F0000 		.4byte	0xfa7
 2734 0eef 10       		.byte	0x10
 2735 0ef0 0A       		.uleb128 0xa
 2736 0ef1 EC140000 		.4byte	.LASF346
 2737 0ef5 0C       		.byte	0xc
 2738 0ef6 7202     		.2byte	0x272
 2739 0ef8 4B050000 		.4byte	0x54b
 2740 0efc 14       		.byte	0x14
 2741 0efd 0A       		.uleb128 0xa
 2742 0efe 082C0000 		.4byte	.LASF347
 2743 0f02 0C       		.byte	0xc
 2744 0f03 7302     		.2byte	0x273
 2745 0f05 FF050000 		.4byte	0x5ff
 2746 0f09 18       		.byte	0x18
 2747 0f0a 0A       		.uleb128 0xa
 2748 0f0b C2190000 		.4byte	.LASF348
 2749 0f0f 0C       		.byte	0xc
 2750 0f10 7402     		.2byte	0x274
 2751 0f12 FF050000 		.4byte	0x5ff
 2752 0f16 1C       		.byte	0x1c
 2753 0f17 0A       		.uleb128 0xa
 2754 0f18 2F160000 		.4byte	.LASF349
 2755 0f1c 0C       		.byte	0xc
 2756 0f1d 7602     		.2byte	0x276
 2757 0f1f FF050000 		.4byte	0x5ff
 2758 0f23 20       		.byte	0x20
 2759 0f24 0A       		.uleb128 0xa
 2760 0f25 0C110000 		.4byte	.LASF350
 2761 0f29 0C       		.byte	0xc
 2762 0f2a 7702     		.2byte	0x277
 2763 0f2c AD0F0000 		.4byte	0xfad
 2764 0f30 24       		.byte	0x24
 2765 0f31 0A       		.uleb128 0xa
 2766 0f32 D12E0000 		.4byte	.LASF351
 2767 0f36 0C       		.byte	0xc
 2768 0f37 7902     		.2byte	0x279
 2769 0f39 A70F0000 		.4byte	0xfa7
 2770 0f3d 28       		.byte	0x28
 2771 0f3e 0A       		.uleb128 0xa
 2772 0f3f 51180000 		.4byte	.LASF352
 2773 0f43 0C       		.byte	0xc
 2774 0f44 7A02     		.2byte	0x27a
 2775 0f46 4B050000 		.4byte	0x54b
 2776 0f4a 2C       		.byte	0x2c
 2777 0f4b 0A       		.uleb128 0xa
 2778 0f4c 210B0000 		.4byte	.LASF353
 2779 0f50 0C       		.byte	0xc
 2780 0f51 7B02     		.2byte	0x27b
 2781 0f53 FF050000 		.4byte	0x5ff
 2782 0f57 30       		.byte	0x30
 2783 0f58 0A       		.uleb128 0xa
 2784 0f59 18120000 		.4byte	.LASF354
ARM GAS  C:\Users\salaz\AppData\Local\Temp\cc7F8fiw.s 			page 83


 2785 0f5d 0C       		.byte	0xc
 2786 0f5e 7C02     		.2byte	0x27c
 2787 0f60 FF050000 		.4byte	0x5ff
 2788 0f64 34       		.byte	0x34
 2789 0f65 0A       		.uleb128 0xa
 2790 0f66 B70B0000 		.4byte	.LASF355
 2791 0f6a 0C       		.byte	0xc
 2792 0f6b 7E02     		.2byte	0x27e
 2793 0f6d A70F0000 		.4byte	0xfa7
 2794 0f71 38       		.byte	0x38
 2795 0f72 0A       		.uleb128 0xa
 2796 0f73 931E0000 		.4byte	.LASF356
 2797 0f77 0C       		.byte	0xc
 2798 0f78 7F02     		.2byte	0x27f
 2799 0f7a 4B050000 		.4byte	0x54b
 2800 0f7e 3C       		.byte	0x3c
 2801 0f7f 0A       		.uleb128 0xa
 2802 0f80 1E200000 		.4byte	.LASF357
 2803 0f84 0C       		.byte	0xc
 2804 0f85 8002     		.2byte	0x280
 2805 0f87 FF050000 		.4byte	0x5ff
 2806 0f8b 40       		.byte	0x40
 2807 0f8c 0A       		.uleb128 0xa
 2808 0f8d 1E150000 		.4byte	.LASF358
 2809 0f91 0C       		.byte	0xc
 2810 0f92 8602     		.2byte	0x286
 2811 0f94 4A0E0000 		.4byte	0xe4a
 2812 0f98 44       		.byte	0x44
 2813 0f99 0A       		.uleb128 0xa
 2814 0f9a D3290000 		.4byte	.LASF359
 2815 0f9e 0C       		.byte	0xc
 2816 0f9f 8D02     		.2byte	0x28d
 2817 0fa1 670E0000 		.4byte	0xe67
 2818 0fa5 48       		.byte	0x48
 2819 0fa6 00       		.byte	0
 2820 0fa7 19       		.uleb128 0x19
 2821 0fa8 04       		.byte	0x4
 2822 0fa9 2A050000 		.4byte	0x52a
 2823 0fad 0F       		.uleb128 0xf
 2824 0fae DD0B0000 		.4byte	0xbdd
 2825 0fb2 07       		.uleb128 0x7
 2826 0fb3 300C0000 		.4byte	.LASF360
 2827 0fb7 0C       		.byte	0xc
 2828 0fb8 9002     		.2byte	0x290
 2829 0fba 880E0000 		.4byte	0xe88
 2830 0fbe 18       		.uleb128 0x18
 2831 0fbf 01       		.byte	0x1
 2832 0fc0 B3040000 		.4byte	0x4b3
 2833 0fc4 0D       		.byte	0xd
 2834 0fc5 7A01     		.2byte	0x17a
 2835 0fc7 DE0F0000 		.4byte	0xfde
 2836 0fcb 04       		.uleb128 0x4
 2837 0fcc 292C0000 		.4byte	.LASF361
 2838 0fd0 00       		.byte	0
 2839 0fd1 04       		.uleb128 0x4
 2840 0fd2 C2000000 		.4byte	.LASF362
 2841 0fd6 01       		.byte	0x1
ARM GAS  C:\Users\salaz\AppData\Local\Temp\cc7F8fiw.s 			page 84


 2842 0fd7 04       		.uleb128 0x4
 2843 0fd8 A9340000 		.4byte	.LASF363
 2844 0fdc 02       		.byte	0x2
 2845 0fdd 00       		.byte	0
 2846 0fde 07       		.uleb128 0x7
 2847 0fdf AC2D0000 		.4byte	.LASF364
 2848 0fe3 0D       		.byte	0xd
 2849 0fe4 7E01     		.2byte	0x17e
 2850 0fe6 BE0F0000 		.4byte	0xfbe
 2851 0fea 18       		.uleb128 0x18
 2852 0feb 01       		.byte	0x1
 2853 0fec B3040000 		.4byte	0x4b3
 2854 0ff0 0D       		.byte	0xd
 2855 0ff1 8201     		.2byte	0x182
 2856 0ff3 22100000 		.4byte	0x1022
 2857 0ff7 04       		.uleb128 0x4
 2858 0ff8 56170000 		.4byte	.LASF365
 2859 0ffc 02       		.byte	0x2
 2860 0ffd 04       		.uleb128 0x4
 2861 0ffe 97270000 		.4byte	.LASF366
 2862 1002 03       		.byte	0x3
 2863 1003 04       		.uleb128 0x4
 2864 1004 B5300000 		.4byte	.LASF367
 2865 1008 04       		.byte	0x4
 2866 1009 04       		.uleb128 0x4
 2867 100a 9F240000 		.4byte	.LASF368
 2868 100e 05       		.byte	0x5
 2869 100f 04       		.uleb128 0x4
 2870 1010 CD300000 		.4byte	.LASF369
 2871 1014 06       		.byte	0x6
 2872 1015 04       		.uleb128 0x4
 2873 1016 322F0000 		.4byte	.LASF370
 2874 101a 07       		.byte	0x7
 2875 101b 04       		.uleb128 0x4
 2876 101c E5300000 		.4byte	.LASF371
 2877 1020 08       		.byte	0x8
 2878 1021 00       		.byte	0
 2879 1022 07       		.uleb128 0x7
 2880 1023 1C110000 		.4byte	.LASF372
 2881 1027 0D       		.byte	0xd
 2882 1028 8A01     		.2byte	0x18a
 2883 102a EA0F0000 		.4byte	0xfea
 2884 102e 18       		.uleb128 0x18
 2885 102f 01       		.byte	0x1
 2886 1030 B3040000 		.4byte	0x4b3
 2887 1034 0D       		.byte	0xd
 2888 1035 8E01     		.2byte	0x18e
 2889 1037 4E100000 		.4byte	0x104e
 2890 103b 04       		.uleb128 0x4
 2891 103c 94140000 		.4byte	.LASF373
 2892 1040 00       		.byte	0
 2893 1041 04       		.uleb128 0x4
 2894 1042 F4320000 		.4byte	.LASF374
 2895 1046 02       		.byte	0x2
 2896 1047 04       		.uleb128 0x4
 2897 1048 2C240000 		.4byte	.LASF375
 2898 104c 03       		.byte	0x3
ARM GAS  C:\Users\salaz\AppData\Local\Temp\cc7F8fiw.s 			page 85


 2899 104d 00       		.byte	0
 2900 104e 07       		.uleb128 0x7
 2901 104f DF2E0000 		.4byte	.LASF376
 2902 1053 0D       		.byte	0xd
 2903 1054 9201     		.2byte	0x192
 2904 1056 2E100000 		.4byte	0x102e
 2905 105a 18       		.uleb128 0x18
 2906 105b 01       		.byte	0x1
 2907 105c B3040000 		.4byte	0x4b3
 2908 1060 0D       		.byte	0xd
 2909 1061 9601     		.2byte	0x196
 2910 1063 74100000 		.4byte	0x1074
 2911 1067 04       		.uleb128 0x4
 2912 1068 682C0000 		.4byte	.LASF377
 2913 106c 00       		.byte	0
 2914 106d 04       		.uleb128 0x4
 2915 106e 181B0000 		.4byte	.LASF378
 2916 1072 01       		.byte	0x1
 2917 1073 00       		.byte	0
 2918 1074 07       		.uleb128 0x7
 2919 1075 70310000 		.4byte	.LASF379
 2920 1079 0D       		.byte	0xd
 2921 107a 9901     		.2byte	0x199
 2922 107c 5A100000 		.4byte	0x105a
 2923 1080 07       		.uleb128 0x7
 2924 1081 0D210000 		.4byte	.LASF380
 2925 1085 0D       		.byte	0xd
 2926 1086 AB01     		.2byte	0x1ab
 2927 1088 560E0000 		.4byte	0xe56
 2928 108c 1D       		.uleb128 0x1d
 2929 108d 7D160000 		.4byte	.LASF381
 2930 1091 40       		.byte	0x40
 2931 1092 0D       		.byte	0xd
 2932 1093 AE01     		.2byte	0x1ae
 2933 1095 DF110000 		.4byte	0x11df
 2934 1099 0A       		.uleb128 0xa
 2935 109a 091C0000 		.4byte	.LASF382
 2936 109e 0D       		.byte	0xd
 2937 109f B101     		.2byte	0x1b1
 2938 10a1 DE0F0000 		.4byte	0xfde
 2939 10a5 00       		.byte	0
 2940 10a6 0A       		.uleb128 0xa
 2941 10a7 E21B0000 		.4byte	.LASF383
 2942 10ab 0D       		.byte	0xd
 2943 10ac BB01     		.2byte	0x1bb
 2944 10ae 4B050000 		.4byte	0x54b
 2945 10b2 04       		.byte	0x4
 2946 10b3 0A       		.uleb128 0xa
 2947 10b4 25160000 		.4byte	.LASF384
 2948 10b8 0D       		.byte	0xd
 2949 10b9 BE01     		.2byte	0x1be
 2950 10bb 4B050000 		.4byte	0x54b
 2951 10bf 08       		.byte	0x8
 2952 10c0 0A       		.uleb128 0xa
 2953 10c1 16030000 		.4byte	.LASF385
 2954 10c5 0D       		.byte	0xd
 2955 10c6 C401     		.2byte	0x1c4
ARM GAS  C:\Users\salaz\AppData\Local\Temp\cc7F8fiw.s 			page 86


 2956 10c8 DD0B0000 		.4byte	0xbdd
 2957 10cc 0C       		.byte	0xc
 2958 10cd 0A       		.uleb128 0xa
 2959 10ce 6E280000 		.4byte	.LASF386
 2960 10d2 0D       		.byte	0xd
 2961 10d3 CA01     		.2byte	0x1ca
 2962 10d5 22100000 		.4byte	0x1022
 2963 10d9 0D       		.byte	0xd
 2964 10da 0A       		.uleb128 0xa
 2965 10db 301B0000 		.4byte	.LASF387
 2966 10df 0D       		.byte	0xd
 2967 10e0 CD01     		.2byte	0x1cd
 2968 10e2 4E100000 		.4byte	0x104e
 2969 10e6 0E       		.byte	0xe
 2970 10e7 0A       		.uleb128 0xa
 2971 10e8 B91F0000 		.4byte	.LASF388
 2972 10ec 0D       		.byte	0xd
 2973 10ed D501     		.2byte	0x1d5
 2974 10ef DD0B0000 		.4byte	0xbdd
 2975 10f3 0F       		.byte	0xf
 2976 10f4 0A       		.uleb128 0xa
 2977 10f5 6B160000 		.4byte	.LASF389
 2978 10f9 0D       		.byte	0xd
 2979 10fa DB01     		.2byte	0x1db
 2980 10fc DD0B0000 		.4byte	0xbdd
 2981 1100 10       		.byte	0x10
 2982 1101 0A       		.uleb128 0xa
 2983 1102 D0060000 		.4byte	.LASF390
 2984 1106 0D       		.byte	0xd
 2985 1107 E101     		.2byte	0x1e1
 2986 1109 DD0B0000 		.4byte	0xbdd
 2987 110d 11       		.byte	0x11
 2988 110e 0A       		.uleb128 0xa
 2989 110f 932D0000 		.4byte	.LASF391
 2990 1113 0D       		.byte	0xd
 2991 1114 E701     		.2byte	0x1e7
 2992 1116 DD0B0000 		.4byte	0xbdd
 2993 111a 12       		.byte	0x12
 2994 111b 0A       		.uleb128 0xa
 2995 111c 38220000 		.4byte	.LASF392
 2996 1120 0D       		.byte	0xd
 2997 1121 EE01     		.2byte	0x1ee
 2998 1123 4B050000 		.4byte	0x54b
 2999 1127 14       		.byte	0x14
 3000 1128 0A       		.uleb128 0xa
 3001 1129 CD270000 		.4byte	.LASF393
 3002 112d 0D       		.byte	0xd
 3003 112e F601     		.2byte	0x1f6
 3004 1130 4B050000 		.4byte	0x54b
 3005 1134 18       		.byte	0x18
 3006 1135 0A       		.uleb128 0xa
 3007 1136 E50A0000 		.4byte	.LASF394
 3008 113a 0D       		.byte	0xd
 3009 113b FC01     		.2byte	0x1fc
 3010 113d DD0B0000 		.4byte	0xbdd
 3011 1141 1C       		.byte	0x1c
 3012 1142 0A       		.uleb128 0xa
ARM GAS  C:\Users\salaz\AppData\Local\Temp\cc7F8fiw.s 			page 87


 3013 1143 DB150000 		.4byte	.LASF395
 3014 1147 0D       		.byte	0xd
 3015 1148 FF01     		.2byte	0x1ff
 3016 114a DD0B0000 		.4byte	0xbdd
 3017 114e 1D       		.byte	0x1d
 3018 114f 0A       		.uleb128 0xa
 3019 1150 C71B0000 		.4byte	.LASF396
 3020 1154 0D       		.byte	0xd
 3021 1155 0502     		.2byte	0x205
 3022 1157 DD0B0000 		.4byte	0xbdd
 3023 115b 1E       		.byte	0x1e
 3024 115c 0A       		.uleb128 0xa
 3025 115d 8E220000 		.4byte	.LASF397
 3026 1161 0D       		.byte	0xd
 3027 1162 0C02     		.2byte	0x20c
 3028 1164 DD0B0000 		.4byte	0xbdd
 3029 1168 1F       		.byte	0x1f
 3030 1169 0A       		.uleb128 0xa
 3031 116a 19230000 		.4byte	.LASF398
 3032 116e 0D       		.byte	0xd
 3033 116f 1202     		.2byte	0x212
 3034 1171 DD0B0000 		.4byte	0xbdd
 3035 1175 20       		.byte	0x20
 3036 1176 0A       		.uleb128 0xa
 3037 1177 24300000 		.4byte	.LASF399
 3038 117b 0D       		.byte	0xd
 3039 117c 1502     		.2byte	0x215
 3040 117e 74100000 		.4byte	0x1074
 3041 1182 21       		.byte	0x21
 3042 1183 0A       		.uleb128 0xa
 3043 1184 5C320000 		.4byte	.LASF400
 3044 1188 0D       		.byte	0xd
 3045 1189 1B02     		.2byte	0x21b
 3046 118b 4B050000 		.4byte	0x54b
 3047 118f 24       		.byte	0x24
 3048 1190 0A       		.uleb128 0xa
 3049 1191 490C0000 		.4byte	.LASF401
 3050 1195 0D       		.byte	0xd
 3051 1196 1E02     		.2byte	0x21e
 3052 1198 74100000 		.4byte	0x1074
 3053 119c 28       		.byte	0x28
 3054 119d 0A       		.uleb128 0xa
 3055 119e 35330000 		.4byte	.LASF402
 3056 11a2 0D       		.byte	0xd
 3057 11a3 2102     		.2byte	0x221
 3058 11a5 4B050000 		.4byte	0x54b
 3059 11a9 2C       		.byte	0x2c
 3060 11aa 0A       		.uleb128 0xa
 3061 11ab 4F040000 		.4byte	.LASF403
 3062 11af 0D       		.byte	0xd
 3063 11b0 2902     		.2byte	0x229
 3064 11b2 4B050000 		.4byte	0x54b
 3065 11b6 30       		.byte	0x30
 3066 11b7 0A       		.uleb128 0xa
 3067 11b8 CA030000 		.4byte	.LASF404
 3068 11bc 0D       		.byte	0xd
 3069 11bd 2F02     		.2byte	0x22f
ARM GAS  C:\Users\salaz\AppData\Local\Temp\cc7F8fiw.s 			page 88


 3070 11bf 4B050000 		.4byte	0x54b
 3071 11c3 34       		.byte	0x34
 3072 11c4 0A       		.uleb128 0xa
 3073 11c5 3F1F0000 		.4byte	.LASF405
 3074 11c9 0D       		.byte	0xd
 3075 11ca 3702     		.2byte	0x237
 3076 11cc 4B050000 		.4byte	0x54b
 3077 11d0 38       		.byte	0x38
 3078 11d1 0A       		.uleb128 0xa
 3079 11d2 6B320000 		.4byte	.LASF406
 3080 11d6 0D       		.byte	0xd
 3081 11d7 3D02     		.2byte	0x23d
 3082 11d9 4B050000 		.4byte	0x54b
 3083 11dd 3C       		.byte	0x3c
 3084 11de 00       		.byte	0
 3085 11df 07       		.uleb128 0x7
 3086 11e0 C2110000 		.4byte	.LASF407
 3087 11e4 0D       		.byte	0xd
 3088 11e5 3E02     		.2byte	0x23e
 3089 11e7 8C100000 		.4byte	0x108c
 3090 11eb 1D       		.uleb128 0x1d
 3091 11ec 2A010000 		.4byte	.LASF408
 3092 11f0 38       		.byte	0x38
 3093 11f1 0D       		.byte	0xd
 3094 11f2 4702     		.2byte	0x247
 3095 11f4 AF120000 		.4byte	0x12af
 3096 11f8 0A       		.uleb128 0xa
 3097 11f9 39030000 		.4byte	.LASF409
 3098 11fd 0D       		.byte	0xd
 3099 11fe 4A02     		.2byte	0x24a
 3100 1200 FF050000 		.4byte	0x5ff
 3101 1204 00       		.byte	0
 3102 1205 0A       		.uleb128 0xa
 3103 1206 A3290000 		.4byte	.LASF410
 3104 120a 0D       		.byte	0xd
 3105 120b 4B02     		.2byte	0x24b
 3106 120d FF050000 		.4byte	0x5ff
 3107 1211 04       		.byte	0x4
 3108 1212 0A       		.uleb128 0xa
 3109 1213 A5330000 		.4byte	.LASF411
 3110 1217 0D       		.byte	0xd
 3111 1218 4D02     		.2byte	0x24d
 3112 121a DB0B0000 		.4byte	0xbdb
 3113 121e 08       		.byte	0x8
 3114 121f 0A       		.uleb128 0xa
 3115 1220 641F0000 		.4byte	.LASF412
 3116 1224 0D       		.byte	0xd
 3117 1225 4E02     		.2byte	0x24e
 3118 1227 4B050000 		.4byte	0x54b
 3119 122b 0C       		.byte	0xc
 3120 122c 0A       		.uleb128 0xa
 3121 122d A90B0000 		.4byte	.LASF413
 3122 1231 0D       		.byte	0xd
 3123 1232 4F02     		.2byte	0x24f
 3124 1234 FF050000 		.4byte	0x5ff
 3125 1238 10       		.byte	0x10
 3126 1239 0A       		.uleb128 0xa
ARM GAS  C:\Users\salaz\AppData\Local\Temp\cc7F8fiw.s 			page 89


 3127 123a 0C330000 		.4byte	.LASF414
 3128 123e 0D       		.byte	0xd
 3129 123f 5002     		.2byte	0x250
 3130 1241 FF050000 		.4byte	0x5ff
 3131 1245 14       		.byte	0x14
 3132 1246 0A       		.uleb128 0xa
 3133 1247 84010000 		.4byte	.LASF415
 3134 124b 0D       		.byte	0xd
 3135 124c 5202     		.2byte	0x252
 3136 124e DB0B0000 		.4byte	0xbdb
 3137 1252 18       		.byte	0x18
 3138 1253 0A       		.uleb128 0xa
 3139 1254 A10F0000 		.4byte	.LASF416
 3140 1258 0D       		.byte	0xd
 3141 1259 5302     		.2byte	0x253
 3142 125b 4B050000 		.4byte	0x54b
 3143 125f 1C       		.byte	0x1c
 3144 1260 0A       		.uleb128 0xa
 3145 1261 F21A0000 		.4byte	.LASF417
 3146 1265 0D       		.byte	0xd
 3147 1266 5402     		.2byte	0x254
 3148 1268 FF050000 		.4byte	0x5ff
 3149 126c 20       		.byte	0x20
 3150 126d 0A       		.uleb128 0xa
 3151 126e 17260000 		.4byte	.LASF418
 3152 1272 0D       		.byte	0xd
 3153 1273 5602     		.2byte	0x256
 3154 1275 DB0B0000 		.4byte	0xbdb
 3155 1279 24       		.byte	0x24
 3156 127a 0A       		.uleb128 0xa
 3157 127b 0D070000 		.4byte	.LASF419
 3158 127f 0D       		.byte	0xd
 3159 1280 5702     		.2byte	0x257
 3160 1282 4B050000 		.4byte	0x54b
 3161 1286 28       		.byte	0x28
 3162 1287 0A       		.uleb128 0xa
 3163 1288 D1210000 		.4byte	.LASF420
 3164 128c 0D       		.byte	0xd
 3165 128d 5802     		.2byte	0x258
 3166 128f FF050000 		.4byte	0x5ff
 3167 1293 2C       		.byte	0x2c
 3168 1294 0A       		.uleb128 0xa
 3169 1295 1E150000 		.4byte	.LASF358
 3170 1299 0D       		.byte	0xd
 3171 129a 5D02     		.2byte	0x25d
 3172 129c 80100000 		.4byte	0x1080
 3173 12a0 30       		.byte	0x30
 3174 12a1 0A       		.uleb128 0xa
 3175 12a2 782A0000 		.4byte	.LASF421
 3176 12a6 0D       		.byte	0xd
 3177 12a7 6002     		.2byte	0x260
 3178 12a9 4B050000 		.4byte	0x54b
 3179 12ad 34       		.byte	0x34
 3180 12ae 00       		.byte	0
 3181 12af 07       		.uleb128 0x7
 3182 12b0 440A0000 		.4byte	.LASF422
 3183 12b4 0D       		.byte	0xd
ARM GAS  C:\Users\salaz\AppData\Local\Temp\cc7F8fiw.s 			page 90


 3184 12b5 6302     		.2byte	0x263
 3185 12b7 EB110000 		.4byte	0x11eb
 3186 12bb 18       		.uleb128 0x18
 3187 12bc 02       		.byte	0x2
 3188 12bd E3040000 		.4byte	0x4e3
 3189 12c1 0E       		.byte	0xe
 3190 12c2 4201     		.2byte	0x142
 3191 12c4 F4150000 		.4byte	0x15f4
 3192 12c8 04       		.uleb128 0x4
 3193 12c9 8D1D0000 		.4byte	.LASF423
 3194 12cd 00       		.byte	0
 3195 12ce 1E       		.uleb128 0x1e
 3196 12cf EC2C0000 		.4byte	.LASF424
 3197 12d3 0010     		.2byte	0x1000
 3198 12d5 1E       		.uleb128 0x1e
 3199 12d6 A3090000 		.4byte	.LASF425
 3200 12da 0110     		.2byte	0x1001
 3201 12dc 1E       		.uleb128 0x1e
 3202 12dd 17070000 		.4byte	.LASF426
 3203 12e1 0210     		.2byte	0x1002
 3204 12e3 1E       		.uleb128 0x1e
 3205 12e4 CB0A0000 		.4byte	.LASF427
 3206 12e8 0310     		.2byte	0x1003
 3207 12ea 1E       		.uleb128 0x1e
 3208 12eb 10000000 		.4byte	.LASF428
 3209 12ef 0410     		.2byte	0x1004
 3210 12f1 1E       		.uleb128 0x1e
 3211 12f2 B0310000 		.4byte	.LASF429
 3212 12f6 0510     		.2byte	0x1005
 3213 12f8 1E       		.uleb128 0x1e
 3214 12f9 E7020000 		.4byte	.LASF430
 3215 12fd 0020     		.2byte	0x2000
 3216 12ff 1E       		.uleb128 0x1e
 3217 1300 FF0C0000 		.4byte	.LASF431
 3218 1304 0120     		.2byte	0x2001
 3219 1306 1E       		.uleb128 0x1e
 3220 1307 DB110000 		.4byte	.LASF432
 3221 130b 0220     		.2byte	0x2002
 3222 130d 1E       		.uleb128 0x1e
 3223 130e 542A0000 		.4byte	.LASF433
 3224 1312 0320     		.2byte	0x2003
 3225 1314 1E       		.uleb128 0x1e
 3226 1315 D90C0000 		.4byte	.LASF434
 3227 1319 0420     		.2byte	0x2004
 3228 131b 1E       		.uleb128 0x1e
 3229 131c 0C240000 		.4byte	.LASF435
 3230 1320 0520     		.2byte	0x2005
 3231 1322 1E       		.uleb128 0x1e
 3232 1323 2C210000 		.4byte	.LASF436
 3233 1327 0620     		.2byte	0x2006
 3234 1329 1E       		.uleb128 0x1e
 3235 132a 0E340000 		.4byte	.LASF437
 3236 132e 0720     		.2byte	0x2007
 3237 1330 1E       		.uleb128 0x1e
 3238 1331 371B0000 		.4byte	.LASF438
 3239 1335 0820     		.2byte	0x2008
 3240 1337 1E       		.uleb128 0x1e
ARM GAS  C:\Users\salaz\AppData\Local\Temp\cc7F8fiw.s 			page 91


 3241 1338 282E0000 		.4byte	.LASF439
 3242 133c 0920     		.2byte	0x2009
 3243 133e 1E       		.uleb128 0x1e
 3244 133f 6B250000 		.4byte	.LASF440
 3245 1343 0A20     		.2byte	0x200a
 3246 1345 1E       		.uleb128 0x1e
 3247 1346 842C0000 		.4byte	.LASF441
 3248 134a 0B20     		.2byte	0x200b
 3249 134c 1E       		.uleb128 0x1e
 3250 134d 97150000 		.4byte	.LASF442
 3251 1351 0C20     		.2byte	0x200c
 3252 1353 1E       		.uleb128 0x1e
 3253 1354 A3220000 		.4byte	.LASF443
 3254 1358 0D20     		.2byte	0x200d
 3255 135a 1E       		.uleb128 0x1e
 3256 135b 04090000 		.4byte	.LASF444
 3257 135f 0E20     		.2byte	0x200e
 3258 1361 1E       		.uleb128 0x1e
 3259 1362 E3330000 		.4byte	.LASF445
 3260 1366 0F20     		.2byte	0x200f
 3261 1368 1E       		.uleb128 0x1e
 3262 1369 F7090000 		.4byte	.LASF446
 3263 136d 1020     		.2byte	0x2010
 3264 136f 1E       		.uleb128 0x1e
 3265 1370 AC1C0000 		.4byte	.LASF447
 3266 1374 1120     		.2byte	0x2011
 3267 1376 1E       		.uleb128 0x1e
 3268 1377 4E190000 		.4byte	.LASF448
 3269 137b 1220     		.2byte	0x2012
 3270 137d 1E       		.uleb128 0x1e
 3271 137e 070F0000 		.4byte	.LASF449
 3272 1382 1320     		.2byte	0x2013
 3273 1384 1E       		.uleb128 0x1e
 3274 1385 E6120000 		.4byte	.LASF450
 3275 1389 1420     		.2byte	0x2014
 3276 138b 1E       		.uleb128 0x1e
 3277 138c 230F0000 		.4byte	.LASF451
 3278 1390 1520     		.2byte	0x2015
 3279 1392 1E       		.uleb128 0x1e
 3280 1393 EE200000 		.4byte	.LASF452
 3281 1397 1620     		.2byte	0x2016
 3282 1399 1E       		.uleb128 0x1e
 3283 139a 6E080000 		.4byte	.LASF453
 3284 139e 1720     		.2byte	0x2017
 3285 13a0 1E       		.uleb128 0x1e
 3286 13a1 B5040000 		.4byte	.LASF454
 3287 13a5 0030     		.2byte	0x3000
 3288 13a7 1E       		.uleb128 0x1e
 3289 13a8 8A010000 		.4byte	.LASF455
 3290 13ac 0130     		.2byte	0x3001
 3291 13ae 1E       		.uleb128 0x1e
 3292 13af D8000000 		.4byte	.LASF456
 3293 13b3 0230     		.2byte	0x3002
 3294 13b5 1E       		.uleb128 0x1e
 3295 13b6 AD2E0000 		.4byte	.LASF457
 3296 13ba 0330     		.2byte	0x3003
 3297 13bc 1E       		.uleb128 0x1e
ARM GAS  C:\Users\salaz\AppData\Local\Temp\cc7F8fiw.s 			page 92


 3298 13bd CF140000 		.4byte	.LASF458
 3299 13c1 0430     		.2byte	0x3004
 3300 13c3 1E       		.uleb128 0x1e
 3301 13c4 CC2A0000 		.4byte	.LASF459
 3302 13c8 0530     		.2byte	0x3005
 3303 13ca 1E       		.uleb128 0x1e
 3304 13cb 4F330000 		.4byte	.LASF460
 3305 13cf 0630     		.2byte	0x3006
 3306 13d1 1E       		.uleb128 0x1e
 3307 13d2 0B020000 		.4byte	.LASF461
 3308 13d6 0730     		.2byte	0x3007
 3309 13d8 1E       		.uleb128 0x1e
 3310 13d9 B1010000 		.4byte	.LASF462
 3311 13dd 0830     		.2byte	0x3008
 3312 13df 1E       		.uleb128 0x1e
 3313 13e0 C9170000 		.4byte	.LASF463
 3314 13e4 0930     		.2byte	0x3009
 3315 13e6 1E       		.uleb128 0x1e
 3316 13e7 F72E0000 		.4byte	.LASF464
 3317 13eb 0A30     		.2byte	0x300a
 3318 13ed 1E       		.uleb128 0x1e
 3319 13ee 7B240000 		.4byte	.LASF465
 3320 13f2 0B30     		.2byte	0x300b
 3321 13f4 1E       		.uleb128 0x1e
 3322 13f5 3F0F0000 		.4byte	.LASF466
 3323 13f9 0C30     		.2byte	0x300c
 3324 13fb 1E       		.uleb128 0x1e
 3325 13fc 2B170000 		.4byte	.LASF467
 3326 1400 1130     		.2byte	0x3011
 3327 1402 1E       		.uleb128 0x1e
 3328 1403 A92A0000 		.4byte	.LASF468
 3329 1407 1230     		.2byte	0x3012
 3330 1409 1E       		.uleb128 0x1e
 3331 140a A51E0000 		.4byte	.LASF469
 3332 140e 1330     		.2byte	0x3013
 3333 1410 1E       		.uleb128 0x1e
 3334 1411 E92B0000 		.4byte	.LASF470
 3335 1415 1430     		.2byte	0x3014
 3336 1417 1E       		.uleb128 0x1e
 3337 1418 DD2D0000 		.4byte	.LASF471
 3338 141c 1530     		.2byte	0x3015
 3339 141e 1E       		.uleb128 0x1e
 3340 141f 5C070000 		.4byte	.LASF472
 3341 1423 1630     		.2byte	0x3016
 3342 1425 1E       		.uleb128 0x1e
 3343 1426 57340000 		.4byte	.LASF473
 3344 142a 1730     		.2byte	0x3017
 3345 142c 1E       		.uleb128 0x1e
 3346 142d 75120000 		.4byte	.LASF474
 3347 1431 1830     		.2byte	0x3018
 3348 1433 1E       		.uleb128 0x1e
 3349 1434 DC1F0000 		.4byte	.LASF475
 3350 1438 0040     		.2byte	0x4000
 3351 143a 1E       		.uleb128 0x1e
 3352 143b 951B0000 		.4byte	.LASF476
 3353 143f 0140     		.2byte	0x4001
 3354 1441 1E       		.uleb128 0x1e
ARM GAS  C:\Users\salaz\AppData\Local\Temp\cc7F8fiw.s 			page 93


 3355 1442 B40C0000 		.4byte	.LASF477
 3356 1446 0240     		.2byte	0x4002
 3357 1448 1E       		.uleb128 0x1e
 3358 1449 AA230000 		.4byte	.LASF478
 3359 144d 0340     		.2byte	0x4003
 3360 144f 1E       		.uleb128 0x1e
 3361 1450 01200000 		.4byte	.LASF479
 3362 1454 0440     		.2byte	0x4004
 3363 1456 1E       		.uleb128 0x1e
 3364 1457 8A310000 		.4byte	.LASF480
 3365 145b 0540     		.2byte	0x4005
 3366 145d 1E       		.uleb128 0x1e
 3367 145e 6B290000 		.4byte	.LASF481
 3368 1462 0640     		.2byte	0x4006
 3369 1464 1E       		.uleb128 0x1e
 3370 1465 C92B0000 		.4byte	.LASF482
 3371 1469 0740     		.2byte	0x4007
 3372 146b 1E       		.uleb128 0x1e
 3373 146c 611E0000 		.4byte	.LASF483
 3374 1470 0840     		.2byte	0x4008
 3375 1472 1E       		.uleb128 0x1e
 3376 1473 BB080000 		.4byte	.LASF484
 3377 1477 0940     		.2byte	0x4009
 3378 1479 1E       		.uleb128 0x1e
 3379 147a 54230000 		.4byte	.LASF485
 3380 147e 0A40     		.2byte	0x400a
 3381 1480 1E       		.uleb128 0x1e
 3382 1481 69150000 		.4byte	.LASF486
 3383 1485 0B40     		.2byte	0x400b
 3384 1487 1E       		.uleb128 0x1e
 3385 1488 DB220000 		.4byte	.LASF487
 3386 148c 0C40     		.2byte	0x400c
 3387 148e 1E       		.uleb128 0x1e
 3388 148f 6A300000 		.4byte	.LASF488
 3389 1493 0D40     		.2byte	0x400d
 3390 1495 1E       		.uleb128 0x1e
 3391 1496 111D0000 		.4byte	.LASF489
 3392 149a 0E40     		.2byte	0x400e
 3393 149c 1E       		.uleb128 0x1e
 3394 149d 4B120000 		.4byte	.LASF490
 3395 14a1 0F40     		.2byte	0x400f
 3396 14a3 1E       		.uleb128 0x1e
 3397 14a4 3E100000 		.4byte	.LASF491
 3398 14a8 1040     		.2byte	0x4010
 3399 14aa 1E       		.uleb128 0x1e
 3400 14ab 710A0000 		.4byte	.LASF492
 3401 14af 1140     		.2byte	0x4011
 3402 14b1 1E       		.uleb128 0x1e
 3403 14b2 6F270000 		.4byte	.LASF493
 3404 14b6 1240     		.2byte	0x4012
 3405 14b8 1E       		.uleb128 0x1e
 3406 14b9 C7100000 		.4byte	.LASF494
 3407 14bd 1340     		.2byte	0x4013
 3408 14bf 1E       		.uleb128 0x1e
 3409 14c0 88340000 		.4byte	.LASF495
 3410 14c4 1440     		.2byte	0x4014
 3411 14c6 1E       		.uleb128 0x1e
ARM GAS  C:\Users\salaz\AppData\Local\Temp\cc7F8fiw.s 			page 94


 3412 14c7 C6240000 		.4byte	.LASF496
 3413 14cb 1540     		.2byte	0x4015
 3414 14cd 1E       		.uleb128 0x1e
 3415 14ce 89050000 		.4byte	.LASF497
 3416 14d2 1640     		.2byte	0x4016
 3417 14d4 1E       		.uleb128 0x1e
 3418 14d5 D9080000 		.4byte	.LASF498
 3419 14d9 1740     		.2byte	0x4017
 3420 14db 1E       		.uleb128 0x1e
 3421 14dc 7C1B0000 		.4byte	.LASF499
 3422 14e0 1840     		.2byte	0x4018
 3423 14e2 1E       		.uleb128 0x1e
 3424 14e3 A4320000 		.4byte	.LASF500
 3425 14e7 1940     		.2byte	0x4019
 3426 14e9 1E       		.uleb128 0x1e
 3427 14ea 1D260000 		.4byte	.LASF501
 3428 14ee 1A40     		.2byte	0x401a
 3429 14f0 1E       		.uleb128 0x1e
 3430 14f1 D9130000 		.4byte	.LASF502
 3431 14f5 0050     		.2byte	0x5000
 3432 14f7 1E       		.uleb128 0x1e
 3433 14f8 A01D0000 		.4byte	.LASF503
 3434 14fc 0150     		.2byte	0x5001
 3435 14fe 1E       		.uleb128 0x1e
 3436 14ff 3B160000 		.4byte	.LASF504
 3437 1503 0250     		.2byte	0x5002
 3438 1505 1E       		.uleb128 0x1e
 3439 1506 3D070000 		.4byte	.LASF505
 3440 150a 0350     		.2byte	0x5003
 3441 150c 1E       		.uleb128 0x1e
 3442 150d 0A250000 		.4byte	.LASF506
 3443 1511 0450     		.2byte	0x5004
 3444 1513 1E       		.uleb128 0x1e
 3445 1514 27150000 		.4byte	.LASF507
 3446 1518 0550     		.2byte	0x5005
 3447 151a 1E       		.uleb128 0x1e
 3448 151b 2F000000 		.4byte	.LASF508
 3449 151f 0650     		.2byte	0x5006
 3450 1521 1E       		.uleb128 0x1e
 3451 1522 950C0000 		.4byte	.LASF509
 3452 1526 0750     		.2byte	0x5007
 3453 1528 1E       		.uleb128 0x1e
 3454 1529 A2160000 		.4byte	.LASF510
 3455 152d 0850     		.2byte	0x5008
 3456 152f 1E       		.uleb128 0x1e
 3457 1530 09180000 		.4byte	.LASF511
 3458 1534 0950     		.2byte	0x5009
 3459 1536 1E       		.uleb128 0x1e
 3460 1537 4F280000 		.4byte	.LASF512
 3461 153b 0A50     		.2byte	0x500a
 3462 153d 1E       		.uleb128 0x1e
 3463 153e 80190000 		.4byte	.LASF513
 3464 1542 0B50     		.2byte	0x500b
 3465 1544 1E       		.uleb128 0x1e
 3466 1545 F3070000 		.4byte	.LASF514
 3467 1549 0C50     		.2byte	0x500c
 3468 154b 1E       		.uleb128 0x1e
ARM GAS  C:\Users\salaz\AppData\Local\Temp\cc7F8fiw.s 			page 95


 3469 154c 67110000 		.4byte	.LASF515
 3470 1550 0D50     		.2byte	0x500d
 3471 1552 1E       		.uleb128 0x1e
 3472 1553 F71E0000 		.4byte	.LASF516
 3473 1557 0E50     		.2byte	0x500e
 3474 1559 1E       		.uleb128 0x1e
 3475 155a 9B0A0000 		.4byte	.LASF517
 3476 155e 0F50     		.2byte	0x500f
 3477 1560 1E       		.uleb128 0x1e
 3478 1561 50210000 		.4byte	.LASF518
 3479 1565 1050     		.2byte	0x5010
 3480 1567 1E       		.uleb128 0x1e
 3481 1568 59020000 		.4byte	.LASF519
 3482 156c 1150     		.2byte	0x5011
 3483 156e 1E       		.uleb128 0x1e
 3484 156f 29120000 		.4byte	.LASF520
 3485 1573 1250     		.2byte	0x5012
 3486 1575 1E       		.uleb128 0x1e
 3487 1576 E1060000 		.4byte	.LASF521
 3488 157a 1350     		.2byte	0x5013
 3489 157c 1E       		.uleb128 0x1e
 3490 157d 560B0000 		.4byte	.LASF522
 3491 1581 1450     		.2byte	0x5014
 3492 1583 1E       		.uleb128 0x1e
 3493 1584 9D000000 		.4byte	.LASF523
 3494 1588 1550     		.2byte	0x5015
 3495 158a 1E       		.uleb128 0x1e
 3496 158b 720E0000 		.4byte	.LASF524
 3497 158f 1650     		.2byte	0x5016
 3498 1591 1E       		.uleb128 0x1e
 3499 1592 F5280000 		.4byte	.LASF525
 3500 1596 1750     		.2byte	0x5017
 3501 1598 1E       		.uleb128 0x1e
 3502 1599 21060000 		.4byte	.LASF526
 3503 159d 1850     		.2byte	0x5018
 3504 159f 1E       		.uleb128 0x1e
 3505 15a0 77100000 		.4byte	.LASF527
 3506 15a4 0060     		.2byte	0x6000
 3507 15a6 1E       		.uleb128 0x1e
 3508 15a7 F6270000 		.4byte	.LASF528
 3509 15ab 0160     		.2byte	0x6001
 3510 15ad 1E       		.uleb128 0x1e
 3511 15ae 08160000 		.4byte	.LASF529
 3512 15b2 0260     		.2byte	0x6002
 3513 15b4 1E       		.uleb128 0x1e
 3514 15b5 75140000 		.4byte	.LASF530
 3515 15b9 0360     		.2byte	0x6003
 3516 15bb 1E       		.uleb128 0x1e
 3517 15bc 63060000 		.4byte	.LASF531
 3518 15c0 0460     		.2byte	0x6004
 3519 15c2 1E       		.uleb128 0x1e
 3520 15c3 88230000 		.4byte	.LASF532
 3521 15c7 0560     		.2byte	0x6005
 3522 15c9 1E       		.uleb128 0x1e
 3523 15ca A0190000 		.4byte	.LASF533
 3524 15ce 0660     		.2byte	0x6006
 3525 15d0 1E       		.uleb128 0x1e
ARM GAS  C:\Users\salaz\AppData\Local\Temp\cc7F8fiw.s 			page 96


 3526 15d1 7D1A0000 		.4byte	.LASF534
 3527 15d5 0760     		.2byte	0x6007
 3528 15d7 1E       		.uleb128 0x1e
 3529 15d8 320B0000 		.4byte	.LASF535
 3530 15dc 0860     		.2byte	0x6008
 3531 15de 1E       		.uleb128 0x1e
 3532 15df FF130000 		.4byte	.LASF536
 3533 15e3 0960     		.2byte	0x6009
 3534 15e5 1E       		.uleb128 0x1e
 3535 15e6 87260000 		.4byte	.LASF537
 3536 15ea 0A60     		.2byte	0x600a
 3537 15ec 1E       		.uleb128 0x1e
 3538 15ed 42030000 		.4byte	.LASF538
 3539 15f1 FFFF     		.2byte	0xffff
 3540 15f3 00       		.byte	0
 3541 15f4 10       		.uleb128 0x10
 3542 15f5 2A050000 		.4byte	0x52a
 3543 15f9 1F       		.uleb128 0x1f
 3544 15fa 02       		.byte	0x2
 3545 15fb 0F       		.byte	0xf
 3546 15fc 5B01     		.2byte	0x15b
 3547 15fe 1D160000 		.4byte	0x161d
 3548 1602 0A       		.uleb128 0xa
 3549 1603 82060000 		.4byte	.LASF539
 3550 1607 0F       		.byte	0xf
 3551 1608 6501     		.2byte	0x165
 3552 160a 2A050000 		.4byte	0x52a
 3553 160e 00       		.byte	0
 3554 160f 0A       		.uleb128 0xa
 3555 1610 7F320000 		.4byte	.LASF540
 3556 1614 0F       		.byte	0xf
 3557 1615 6901     		.2byte	0x169
 3558 1617 2A050000 		.4byte	0x52a
 3559 161b 01       		.byte	0x1
 3560 161c 00       		.byte	0
 3561 161d 07       		.uleb128 0x7
 3562 161e 52290000 		.4byte	.LASF541
 3563 1622 0F       		.byte	0xf
 3564 1623 6B01     		.2byte	0x16b
 3565 1625 F9150000 		.4byte	0x15f9
 3566 1629 02       		.uleb128 0x2
 3567 162a 01       		.byte	0x1
 3568 162b B3040000 		.4byte	0x4b3
 3569 162f 10       		.byte	0x10
 3570 1630 7E       		.byte	0x7e
 3571 1631 4E160000 		.4byte	0x164e
 3572 1635 04       		.uleb128 0x4
 3573 1636 E31D0000 		.4byte	.LASF542
 3574 163a 00       		.byte	0
 3575 163b 04       		.uleb128 0x4
 3576 163c 84090000 		.4byte	.LASF543
 3577 1640 01       		.byte	0x1
 3578 1641 04       		.uleb128 0x4
 3579 1642 CB2F0000 		.4byte	.LASF544
 3580 1646 02       		.byte	0x2
 3581 1647 04       		.uleb128 0x4
 3582 1648 42260000 		.4byte	.LASF545
ARM GAS  C:\Users\salaz\AppData\Local\Temp\cc7F8fiw.s 			page 97


 3583 164c 03       		.byte	0x3
 3584 164d 00       		.byte	0
 3585 164e 06       		.uleb128 0x6
 3586 164f 141E0000 		.4byte	.LASF546
 3587 1653 10       		.byte	0x10
 3588 1654 83       		.byte	0x83
 3589 1655 29160000 		.4byte	0x1629
 3590 1659 02       		.uleb128 0x2
 3591 165a 01       		.byte	0x1
 3592 165b B3040000 		.4byte	0x4b3
 3593 165f 10       		.byte	0x10
 3594 1660 87       		.byte	0x87
 3595 1661 96160000 		.4byte	0x1696
 3596 1665 04       		.uleb128 0x4
 3597 1666 802A0000 		.4byte	.LASF547
 3598 166a 00       		.byte	0
 3599 166b 04       		.uleb128 0x4
 3600 166c 661C0000 		.4byte	.LASF548
 3601 1670 01       		.byte	0x1
 3602 1671 04       		.uleb128 0x4
 3603 1672 F7290000 		.4byte	.LASF549
 3604 1676 02       		.byte	0x2
 3605 1677 04       		.uleb128 0x4
 3606 1678 9F170000 		.4byte	.LASF550
 3607 167c 03       		.byte	0x3
 3608 167d 04       		.uleb128 0x4
 3609 167e 631D0000 		.4byte	.LASF551
 3610 1682 04       		.byte	0x4
 3611 1683 04       		.uleb128 0x4
 3612 1684 550C0000 		.4byte	.LASF552
 3613 1688 05       		.byte	0x5
 3614 1689 04       		.uleb128 0x4
 3615 168a 2E020000 		.4byte	.LASF553
 3616 168e 06       		.byte	0x6
 3617 168f 04       		.uleb128 0x4
 3618 1690 7F070000 		.4byte	.LASF554
 3619 1694 07       		.byte	0x7
 3620 1695 00       		.byte	0
 3621 1696 06       		.uleb128 0x6
 3622 1697 E4250000 		.4byte	.LASF555
 3623 169b 10       		.byte	0x10
 3624 169c 90       		.byte	0x90
 3625 169d 59160000 		.4byte	0x1659
 3626 16a1 10       		.uleb128 0x10
 3627 16a2 D00B0000 		.4byte	0xbd0
 3628 16a6 15       		.uleb128 0x15
 3629 16a7 0C       		.byte	0xc
 3630 16a8 11       		.byte	0x11
 3631 16a9 26       		.byte	0x26
 3632 16aa F7160000 		.4byte	0x16f7
 3633 16ae 12       		.uleb128 0x12
 3634 16af 87110000 		.4byte	.LASF556
 3635 16b3 11       		.byte	0x11
 3636 16b4 28       		.byte	0x28
 3637 16b5 8B0B0000 		.4byte	0xb8b
 3638 16b9 00       		.byte	0
 3639 16ba 12       		.uleb128 0x12
ARM GAS  C:\Users\salaz\AppData\Local\Temp\cc7F8fiw.s 			page 98


 3640 16bb 1F290000 		.4byte	.LASF557
 3641 16bf 11       		.byte	0x11
 3642 16c0 28       		.byte	0x28
 3643 16c1 8B0B0000 		.4byte	0xb8b
 3644 16c5 02       		.byte	0x2
 3645 16c6 20       		.uleb128 0x20
 3646 16c7 64617900 		.ascii	"day\000"
 3647 16cb 11       		.byte	0x11
 3648 16cc 28       		.byte	0x28
 3649 16cd 8B0B0000 		.4byte	0xb8b
 3650 16d1 04       		.byte	0x4
 3651 16d2 12       		.uleb128 0x12
 3652 16d3 7F2C0000 		.4byte	.LASF558
 3653 16d7 11       		.byte	0x11
 3654 16d8 29       		.byte	0x29
 3655 16d9 8B0B0000 		.4byte	0xb8b
 3656 16dd 06       		.byte	0x6
 3657 16de 12       		.uleb128 0x12
 3658 16df 631A0000 		.4byte	.LASF559
 3659 16e3 11       		.byte	0x11
 3660 16e4 29       		.byte	0x29
 3661 16e5 8B0B0000 		.4byte	0xb8b
 3662 16e9 08       		.byte	0x8
 3663 16ea 12       		.uleb128 0x12
 3664 16eb 421A0000 		.4byte	.LASF560
 3665 16ef 11       		.byte	0x11
 3666 16f0 29       		.byte	0x29
 3667 16f1 8B0B0000 		.4byte	0xb8b
 3668 16f5 0A       		.byte	0xa
 3669 16f6 00       		.byte	0
 3670 16f7 06       		.uleb128 0x6
 3671 16f8 45080000 		.4byte	.LASF561
 3672 16fc 11       		.byte	0x11
 3673 16fd 2B       		.byte	0x2b
 3674 16fe A6160000 		.4byte	0x16a6
 3675 1702 21       		.uleb128 0x21
 3676 1703 8E1F0000 		.4byte	.LASF568
 3677 1707 01       		.byte	0x1
 3678 1708 B3040000 		.4byte	0x4b3
 3679 170c 11       		.byte	0x11
 3680 170d 5C01     		.2byte	0x15c
 3681 170f 3E170000 		.4byte	0x173e
 3682 1713 22       		.uleb128 0x22
 3683 1714 52454400 		.ascii	"RED\000"
 3684 1718 00       		.byte	0
 3685 1719 04       		.uleb128 0x4
 3686 171a 67080000 		.4byte	.LASF562
 3687 171e 01       		.byte	0x1
 3688 171f 04       		.uleb128 0x4
 3689 1720 DF090000 		.4byte	.LASF563
 3690 1724 02       		.byte	0x2
 3691 1725 04       		.uleb128 0x4
 3692 1726 8F000000 		.4byte	.LASF564
 3693 172a 03       		.byte	0x3
 3694 172b 04       		.uleb128 0x4
 3695 172c 04120000 		.4byte	.LASF565
 3696 1730 04       		.byte	0x4
ARM GAS  C:\Users\salaz\AppData\Local\Temp\cc7F8fiw.s 			page 99


 3697 1731 04       		.uleb128 0x4
 3698 1732 B6030000 		.4byte	.LASF566
 3699 1736 05       		.byte	0x5
 3700 1737 04       		.uleb128 0x4
 3701 1738 85320000 		.4byte	.LASF567
 3702 173c 06       		.byte	0x6
 3703 173d 00       		.byte	0
 3704 173e 21       		.uleb128 0x21
 3705 173f FB260000 		.4byte	.LASF569
 3706 1743 01       		.byte	0x1
 3707 1744 B3040000 		.4byte	0x4b3
 3708 1748 11       		.byte	0x11
 3709 1749 6401     		.2byte	0x164
 3710 174b 68170000 		.4byte	0x1768
 3711 174f 04       		.uleb128 0x4
 3712 1750 5E0A0000 		.4byte	.LASF570
 3713 1754 00       		.byte	0
 3714 1755 04       		.uleb128 0x4
 3715 1756 2B270000 		.4byte	.LASF571
 3716 175a 01       		.byte	0x1
 3717 175b 04       		.uleb128 0x4
 3718 175c 00000000 		.4byte	.LASF572
 3719 1760 02       		.byte	0x2
 3720 1761 04       		.uleb128 0x4
 3721 1762 361D0000 		.4byte	.LASF573
 3722 1766 03       		.byte	0x3
 3723 1767 00       		.byte	0
 3724 1768 21       		.uleb128 0x21
 3725 1769 62270000 		.4byte	.LASF574
 3726 176d 01       		.byte	0x1
 3727 176e B3040000 		.4byte	0x4b3
 3728 1772 11       		.byte	0x11
 3729 1773 7401     		.2byte	0x174
 3730 1775 8C170000 		.4byte	0x178c
 3731 1779 04       		.uleb128 0x4
 3732 177a 0E2D0000 		.4byte	.LASF575
 3733 177e 00       		.byte	0
 3734 177f 04       		.uleb128 0x4
 3735 1780 11100000 		.4byte	.LASF576
 3736 1784 01       		.byte	0x1
 3737 1785 04       		.uleb128 0x4
 3738 1786 E8230000 		.4byte	.LASF577
 3739 178a 02       		.byte	0x2
 3740 178b 00       		.byte	0
 3741 178c 02       		.uleb128 0x2
 3742 178d 01       		.byte	0x1
 3743 178e B3040000 		.4byte	0x4b3
 3744 1792 01       		.byte	0x1
 3745 1793 07       		.byte	0x7
 3746 1794 C9170000 		.4byte	0x17c9
 3747 1798 04       		.uleb128 0x4
 3748 1799 B6150000 		.4byte	.LASF578
 3749 179d 00       		.byte	0
 3750 179e 04       		.uleb128 0x4
 3751 179f 20050000 		.4byte	.LASF579
 3752 17a3 01       		.byte	0x1
 3753 17a4 04       		.uleb128 0x4
ARM GAS  C:\Users\salaz\AppData\Local\Temp\cc7F8fiw.s 			page 100


 3754 17a5 91160000 		.4byte	.LASF580
 3755 17a9 02       		.byte	0x2
 3756 17aa 04       		.uleb128 0x4
 3757 17ab BA340000 		.4byte	.LASF581
 3758 17af 03       		.byte	0x3
 3759 17b0 04       		.uleb128 0x4
 3760 17b1 1A130000 		.4byte	.LASF582
 3761 17b5 04       		.byte	0x4
 3762 17b6 04       		.uleb128 0x4
 3763 17b7 63000000 		.4byte	.LASF583
 3764 17bb 05       		.byte	0x5
 3765 17bc 04       		.uleb128 0x4
 3766 17bd 5F010000 		.4byte	.LASF584
 3767 17c1 06       		.byte	0x6
 3768 17c2 04       		.uleb128 0x4
 3769 17c3 AC140000 		.4byte	.LASF585
 3770 17c7 07       		.byte	0x7
 3771 17c8 00       		.byte	0
 3772 17c9 23       		.uleb128 0x23
 3773 17ca 050E0000 		.4byte	.LASF586
 3774 17ce 02       		.byte	0x2
 3775 17cf EC02     		.2byte	0x2ec
 3776 17d1 4B050000 		.4byte	0x54b
 3777 17d5 03       		.byte	0x3
 3778 17d6 E7170000 		.4byte	0x17e7
 3779 17da 24       		.uleb128 0x24
 3780 17db B0300000 		.4byte	.LASF588
 3781 17df 02       		.byte	0x2
 3782 17e0 EC02     		.2byte	0x2ec
 3783 17e2 E7170000 		.4byte	0x17e7
 3784 17e6 00       		.byte	0
 3785 17e7 19       		.uleb128 0x19
 3786 17e8 04       		.byte	0x4
 3787 17e9 ED170000 		.4byte	0x17ed
 3788 17ed 10       		.uleb128 0x10
 3789 17ee 580B0000 		.4byte	0xb58
 3790 17f2 23       		.uleb128 0x23
 3791 17f3 A7210000 		.4byte	.LASF587
 3792 17f7 02       		.byte	0x2
 3793 17f8 D902     		.2byte	0x2d9
 3794 17fa 4B050000 		.4byte	0x54b
 3795 17fe 03       		.byte	0x3
 3796 17ff 10180000 		.4byte	0x1810
 3797 1803 24       		.uleb128 0x24
 3798 1804 B0300000 		.4byte	.LASF588
 3799 1808 02       		.byte	0x2
 3800 1809 D902     		.2byte	0x2d9
 3801 180b E7170000 		.4byte	0x17e7
 3802 180f 00       		.byte	0
 3803 1810 25       		.uleb128 0x25
 3804 1811 5F050000 		.4byte	.LASF635
 3805 1815 03       		.byte	0x3
 3806 1816 2703     		.2byte	0x327
 3807 1818 03       		.byte	0x3
 3808 1819 2A180000 		.4byte	0x182a
 3809 181d 24       		.uleb128 0x24
 3810 181e 62080000 		.4byte	.LASF589
ARM GAS  C:\Users\salaz\AppData\Local\Temp\cc7F8fiw.s 			page 101


 3811 1822 03       		.byte	0x3
 3812 1823 2703     		.2byte	0x327
 3813 1825 23010000 		.4byte	0x123
 3814 1829 00       		.byte	0
 3815 182a 26       		.uleb128 0x26
 3816 182b 51000000 		.4byte	.LASF636
 3817 182f 01       		.byte	0x1
 3818 1830 1D       		.byte	0x1d
 3819 1831 00000000 		.4byte	.LFB792
 3820 1835 D0030000 		.4byte	.LFE792-.LFB792
 3821 1839 01       		.uleb128 0x1
 3822 183a 9C       		.byte	0x9c
 3823 183b AF1D0000 		.4byte	0x1daf
 3824 183f 27       		.uleb128 0x27
 3825 1840 332A0000 		.4byte	.LASF590
 3826 1844 01       		.byte	0x1
 3827 1845 1F       		.byte	0x1f
 3828 1846 DD0B0000 		.4byte	0xbdd
 3829 184a 05       		.uleb128 0x5
 3830 184b 03       		.byte	0x3
 3831 184c 02000000 		.4byte	motion_latch.18942
 3832 1850 28       		.uleb128 0x28
 3833 1851 262F0000 		.4byte	.LASF591
 3834 1855 01       		.byte	0x1
 3835 1856 21       		.byte	0x21
 3836 1857 DD0B0000 		.4byte	0xbdd
 3837 185b 00000000 		.4byte	.LLST0
 3838 185f 27       		.uleb128 0x27
 3839 1860 CB130000 		.4byte	.LASF592
 3840 1864 01       		.byte	0x1
 3841 1865 22       		.byte	0x22
 3842 1866 7F0B0000 		.4byte	0xb7f
 3843 186a 05       		.uleb128 0x5
 3844 186b 03       		.byte	0x3
 3845 186c 00000000 		.4byte	current_state.18944
 3846 1870 27       		.uleb128 0x27
 3847 1871 A62C0000 		.4byte	.LASF593
 3848 1875 01       		.byte	0x1
 3849 1876 23       		.byte	0x23
 3850 1877 7F0B0000 		.4byte	0xb7f
 3851 187b 05       		.uleb128 0x5
 3852 187c 03       		.byte	0x3
 3853 187d 01000000 		.4byte	next_state.18945
 3854 1881 29       		.uleb128 0x29
 3855 1882 F2170000 		.4byte	0x17f2
 3856 1886 1C000000 		.4byte	.LBB37
 3857 188a 0C000000 		.4byte	.LBE37-.LBB37
 3858 188e 01       		.byte	0x1
 3859 188f 2D       		.byte	0x2d
 3860 1890 9E180000 		.4byte	0x189e
 3861 1894 2A       		.uleb128 0x2a
 3862 1895 03180000 		.4byte	0x1803
 3863 1899 4F000000 		.4byte	.LLST1
 3864 189d 00       		.byte	0
 3865 189e 29       		.uleb128 0x29
 3866 189f C9170000 		.4byte	0x17c9
 3867 18a3 28000000 		.4byte	.LBB39
ARM GAS  C:\Users\salaz\AppData\Local\Temp\cc7F8fiw.s 			page 102


 3868 18a7 08000000 		.4byte	.LBE39-.LBB39
 3869 18ab 01       		.byte	0x1
 3870 18ac 2D       		.byte	0x2d
 3871 18ad BB180000 		.4byte	0x18bb
 3872 18b1 2A       		.uleb128 0x2a
 3873 18b2 DA170000 		.4byte	0x17da
 3874 18b6 67000000 		.4byte	.LLST2
 3875 18ba 00       		.byte	0
 3876 18bb 29       		.uleb128 0x29
 3877 18bc F2170000 		.4byte	0x17f2
 3878 18c0 44000000 		.4byte	.LBB41
 3879 18c4 0C000000 		.4byte	.LBE41-.LBB41
 3880 18c8 01       		.byte	0x1
 3881 18c9 34       		.byte	0x34
 3882 18ca D8180000 		.4byte	0x18d8
 3883 18ce 2A       		.uleb128 0x2a
 3884 18cf 03180000 		.4byte	0x1803
 3885 18d3 7F000000 		.4byte	.LLST3
 3886 18d7 00       		.byte	0
 3887 18d8 29       		.uleb128 0x29
 3888 18d9 C9170000 		.4byte	0x17c9
 3889 18dd 50000000 		.4byte	.LBB43
 3890 18e1 08000000 		.4byte	.LBE43-.LBB43
 3891 18e5 01       		.byte	0x1
 3892 18e6 34       		.byte	0x34
 3893 18e7 F5180000 		.4byte	0x18f5
 3894 18eb 2A       		.uleb128 0x2a
 3895 18ec DA170000 		.4byte	0x17da
 3896 18f0 97000000 		.4byte	.LLST4
 3897 18f4 00       		.byte	0
 3898 18f5 29       		.uleb128 0x29
 3899 18f6 F2170000 		.4byte	0x17f2
 3900 18fa 7E000000 		.4byte	.LBB45
 3901 18fe 0C000000 		.4byte	.LBE45-.LBB45
 3902 1902 01       		.byte	0x1
 3903 1903 3F       		.byte	0x3f
 3904 1904 12190000 		.4byte	0x1912
 3905 1908 2A       		.uleb128 0x2a
 3906 1909 03180000 		.4byte	0x1803
 3907 190d AF000000 		.4byte	.LLST5
 3908 1911 00       		.byte	0
 3909 1912 29       		.uleb128 0x29
 3910 1913 C9170000 		.4byte	0x17c9
 3911 1917 8A000000 		.4byte	.LBB47
 3912 191b 08000000 		.4byte	.LBE47-.LBB47
 3913 191f 01       		.byte	0x1
 3914 1920 3F       		.byte	0x3f
 3915 1921 2F190000 		.4byte	0x192f
 3916 1925 2A       		.uleb128 0x2a
 3917 1926 DA170000 		.4byte	0x17da
 3918 192a C7000000 		.4byte	.LLST6
 3919 192e 00       		.byte	0
 3920 192f 29       		.uleb128 0x29
 3921 1930 F2170000 		.4byte	0x17f2
 3922 1934 DC000000 		.4byte	.LBB49
 3923 1938 0C000000 		.4byte	.LBE49-.LBB49
 3924 193c 01       		.byte	0x1
ARM GAS  C:\Users\salaz\AppData\Local\Temp\cc7F8fiw.s 			page 103


 3925 193d 5A       		.byte	0x5a
 3926 193e 4C190000 		.4byte	0x194c
 3927 1942 2A       		.uleb128 0x2a
 3928 1943 03180000 		.4byte	0x1803
 3929 1947 DF000000 		.4byte	.LLST7
 3930 194b 00       		.byte	0
 3931 194c 29       		.uleb128 0x29
 3932 194d C9170000 		.4byte	0x17c9
 3933 1951 E8000000 		.4byte	.LBB51
 3934 1955 08000000 		.4byte	.LBE51-.LBB51
 3935 1959 01       		.byte	0x1
 3936 195a 5A       		.byte	0x5a
 3937 195b 69190000 		.4byte	0x1969
 3938 195f 2A       		.uleb128 0x2a
 3939 1960 DA170000 		.4byte	0x17da
 3940 1964 F7000000 		.4byte	.LLST8
 3941 1968 00       		.byte	0
 3942 1969 29       		.uleb128 0x29
 3943 196a F2170000 		.4byte	0x17f2
 3944 196e 1E010000 		.4byte	.LBB53
 3945 1972 0C000000 		.4byte	.LBE53-.LBB53
 3946 1976 01       		.byte	0x1
 3947 1977 68       		.byte	0x68
 3948 1978 86190000 		.4byte	0x1986
 3949 197c 2A       		.uleb128 0x2a
 3950 197d 03180000 		.4byte	0x1803
 3951 1981 0F010000 		.4byte	.LLST9
 3952 1985 00       		.byte	0
 3953 1986 29       		.uleb128 0x29
 3954 1987 C9170000 		.4byte	0x17c9
 3955 198b 2A010000 		.4byte	.LBB55
 3956 198f 08000000 		.4byte	.LBE55-.LBB55
 3957 1993 01       		.byte	0x1
 3958 1994 68       		.byte	0x68
 3959 1995 A3190000 		.4byte	0x19a3
 3960 1999 2A       		.uleb128 0x2a
 3961 199a DA170000 		.4byte	0x17da
 3962 199e 27010000 		.4byte	.LLST10
 3963 19a2 00       		.byte	0
 3964 19a3 29       		.uleb128 0x29
 3965 19a4 F2170000 		.4byte	0x17f2
 3966 19a8 6E010000 		.4byte	.LBB57
 3967 19ac 0C000000 		.4byte	.LBE57-.LBB57
 3968 19b0 01       		.byte	0x1
 3969 19b1 7D       		.byte	0x7d
 3970 19b2 C0190000 		.4byte	0x19c0
 3971 19b6 2A       		.uleb128 0x2a
 3972 19b7 03180000 		.4byte	0x1803
 3973 19bb 3F010000 		.4byte	.LLST11
 3974 19bf 00       		.byte	0
 3975 19c0 29       		.uleb128 0x29
 3976 19c1 C9170000 		.4byte	0x17c9
 3977 19c5 7A010000 		.4byte	.LBB59
 3978 19c9 08000000 		.4byte	.LBE59-.LBB59
 3979 19cd 01       		.byte	0x1
 3980 19ce 7D       		.byte	0x7d
 3981 19cf DD190000 		.4byte	0x19dd
ARM GAS  C:\Users\salaz\AppData\Local\Temp\cc7F8fiw.s 			page 104


 3982 19d3 2A       		.uleb128 0x2a
 3983 19d4 DA170000 		.4byte	0x17da
 3984 19d8 57010000 		.4byte	.LLST12
 3985 19dc 00       		.byte	0
 3986 19dd 2B       		.uleb128 0x2b
 3987 19de 98010000 		.4byte	.LBB61
 3988 19e2 2A000000 		.4byte	.LBE61-.LBB61
 3989 19e6 091A0000 		.4byte	0x1a09
 3990 19ea 27       		.uleb128 0x27
 3991 19eb 45200000 		.4byte	.LASF594
 3992 19ef 01       		.byte	0x1
 3993 19f0 82       		.byte	0x82
 3994 19f1 F7160000 		.4byte	0x16f7
 3995 19f5 02       		.uleb128 0x2
 3996 19f6 91       		.byte	0x91
 3997 19f7 6C       		.sleb128 -20
 3998 19f8 2C       		.uleb128 0x2c
 3999 19f9 A0010000 		.4byte	.LVL31
 4000 19fd 2A1F0000 		.4byte	0x1f2a
 4001 1a01 2D       		.uleb128 0x2d
 4002 1a02 01       		.uleb128 0x1
 4003 1a03 50       		.byte	0x50
 4004 1a04 02       		.uleb128 0x2
 4005 1a05 74       		.byte	0x74
 4006 1a06 00       		.sleb128 0
 4007 1a07 00       		.byte	0
 4008 1a08 00       		.byte	0
 4009 1a09 29       		.uleb128 0x29
 4010 1a0a F2170000 		.4byte	0x17f2
 4011 1a0e D0010000 		.4byte	.LBB62
 4012 1a12 0C000000 		.4byte	.LBE62-.LBB62
 4013 1a16 01       		.byte	0x1
 4014 1a17 97       		.byte	0x97
 4015 1a18 261A0000 		.4byte	0x1a26
 4016 1a1c 2A       		.uleb128 0x2a
 4017 1a1d 03180000 		.4byte	0x1803
 4018 1a21 6F010000 		.4byte	.LLST13
 4019 1a25 00       		.byte	0
 4020 1a26 29       		.uleb128 0x29
 4021 1a27 C9170000 		.4byte	0x17c9
 4022 1a2b DC010000 		.4byte	.LBB64
 4023 1a2f 08000000 		.4byte	.LBE64-.LBB64
 4024 1a33 01       		.byte	0x1
 4025 1a34 97       		.byte	0x97
 4026 1a35 431A0000 		.4byte	0x1a43
 4027 1a39 2A       		.uleb128 0x2a
 4028 1a3a DA170000 		.4byte	0x17da
 4029 1a3e 87010000 		.4byte	.LLST14
 4030 1a42 00       		.byte	0
 4031 1a43 29       		.uleb128 0x29
 4032 1a44 F2170000 		.4byte	0x17f2
 4033 1a48 F8010000 		.4byte	.LBB66
 4034 1a4c 0C000000 		.4byte	.LBE66-.LBB66
 4035 1a50 01       		.byte	0x1
 4036 1a51 9E       		.byte	0x9e
 4037 1a52 601A0000 		.4byte	0x1a60
 4038 1a56 2A       		.uleb128 0x2a
ARM GAS  C:\Users\salaz\AppData\Local\Temp\cc7F8fiw.s 			page 105


 4039 1a57 03180000 		.4byte	0x1803
 4040 1a5b 9F010000 		.4byte	.LLST15
 4041 1a5f 00       		.byte	0
 4042 1a60 29       		.uleb128 0x29
 4043 1a61 C9170000 		.4byte	0x17c9
 4044 1a65 04020000 		.4byte	.LBB68
 4045 1a69 08000000 		.4byte	.LBE68-.LBB68
 4046 1a6d 01       		.byte	0x1
 4047 1a6e 9E       		.byte	0x9e
 4048 1a6f 7D1A0000 		.4byte	0x1a7d
 4049 1a73 2A       		.uleb128 0x2a
 4050 1a74 DA170000 		.4byte	0x17da
 4051 1a78 B7010000 		.4byte	.LLST16
 4052 1a7c 00       		.byte	0
 4053 1a7d 2E       		.uleb128 0x2e
 4054 1a7e 10180000 		.4byte	0x1810
 4055 1a82 A6030000 		.4byte	.LBB70
 4056 1a86 14000000 		.4byte	.LBE70-.LBB70
 4057 1a8a 01       		.byte	0x1
 4058 1a8b 2B01     		.2byte	0x12b
 4059 1a8d 9B1A0000 		.4byte	0x1a9b
 4060 1a91 2A       		.uleb128 0x2a
 4061 1a92 1D180000 		.4byte	0x181d
 4062 1a96 CF010000 		.4byte	.LLST17
 4063 1a9a 00       		.byte	0
 4064 1a9b 2F       		.uleb128 0x2f
 4065 1a9c 1C000000 		.4byte	.LVL0
 4066 1aa0 351F0000 		.4byte	0x1f35
 4067 1aa4 B21A0000 		.4byte	0x1ab2
 4068 1aa8 2D       		.uleb128 0x2d
 4069 1aa9 01       		.uleb128 0x1
 4070 1aaa 50       		.byte	0x50
 4071 1aab 05       		.uleb128 0x5
 4072 1aac 03       		.byte	0x3
 4073 1aad 00000000 		.4byte	.LC2
 4074 1ab1 00       		.byte	0
 4075 1ab2 2F       		.uleb128 0x2f
 4076 1ab3 44000000 		.4byte	.LVL3
 4077 1ab7 351F0000 		.4byte	0x1f35
 4078 1abb C91A0000 		.4byte	0x1ac9
 4079 1abf 2D       		.uleb128 0x2d
 4080 1ac0 01       		.uleb128 0x1
 4081 1ac1 50       		.byte	0x50
 4082 1ac2 05       		.uleb128 0x5
 4083 1ac3 03       		.byte	0x3
 4084 1ac4 10000000 		.4byte	.LC4
 4085 1ac8 00       		.byte	0
 4086 1ac9 30       		.uleb128 0x30
 4087 1aca 62000000 		.4byte	.LVL6
 4088 1ace 441F0000 		.4byte	0x1f44
 4089 1ad2 2F       		.uleb128 0x2f
 4090 1ad3 76000000 		.4byte	.LVL7
 4091 1ad7 501F0000 		.4byte	0x1f50
 4092 1adb E61A0000 		.4byte	0x1ae6
 4093 1adf 2D       		.uleb128 0x2d
 4094 1ae0 01       		.uleb128 0x1
 4095 1ae1 51       		.byte	0x51
ARM GAS  C:\Users\salaz\AppData\Local\Temp\cc7F8fiw.s 			page 106


 4096 1ae2 02       		.uleb128 0x2
 4097 1ae3 08       		.byte	0x8
 4098 1ae4 32       		.byte	0x32
 4099 1ae5 00       		.byte	0
 4100 1ae6 2F       		.uleb128 0x2f
 4101 1ae7 7E000000 		.4byte	.LVL8
 4102 1aeb 351F0000 		.4byte	0x1f35
 4103 1aef FD1A0000 		.4byte	0x1afd
 4104 1af3 2D       		.uleb128 0x2d
 4105 1af4 01       		.uleb128 0x1
 4106 1af5 50       		.byte	0x50
 4107 1af6 05       		.uleb128 0x5
 4108 1af7 03       		.byte	0x3
 4109 1af8 1C000000 		.4byte	.LC7
 4110 1afc 00       		.byte	0
 4111 1afd 30       		.uleb128 0x30
 4112 1afe 9C000000 		.4byte	.LVL11
 4113 1b02 5C1F0000 		.4byte	0x1f5c
 4114 1b06 30       		.uleb128 0x30
 4115 1b07 B2000000 		.4byte	.LVL12
 4116 1b0b 441F0000 		.4byte	0x1f44
 4117 1b0f 30       		.uleb128 0x30
 4118 1b10 B8000000 		.4byte	.LVL13
 4119 1b14 671F0000 		.4byte	0x1f67
 4120 1b18 30       		.uleb128 0x30
 4121 1b19 C2000000 		.4byte	.LVL14
 4122 1b1d 441F0000 		.4byte	0x1f44
 4123 1b21 2F       		.uleb128 0x2f
 4124 1b22 DC000000 		.4byte	.LVL15
 4125 1b26 351F0000 		.4byte	0x1f35
 4126 1b2a 381B0000 		.4byte	0x1b38
 4127 1b2e 2D       		.uleb128 0x2d
 4128 1b2f 01       		.uleb128 0x1
 4129 1b30 50       		.byte	0x50
 4130 1b31 05       		.uleb128 0x5
 4131 1b32 03       		.byte	0x3
 4132 1b33 30000000 		.4byte	.LC9
 4133 1b37 00       		.byte	0
 4134 1b38 30       		.uleb128 0x30
 4135 1b39 FA000000 		.4byte	.LVL18
 4136 1b3d 721F0000 		.4byte	0x1f72
 4137 1b41 30       		.uleb128 0x30
 4138 1b42 0A010000 		.4byte	.LVL19
 4139 1b46 7E1F0000 		.4byte	0x1f7e
 4140 1b4a 2F       		.uleb128 0x2f
 4141 1b4b 1E010000 		.4byte	.LVL20
 4142 1b4f 351F0000 		.4byte	0x1f35
 4143 1b53 611B0000 		.4byte	0x1b61
 4144 1b57 2D       		.uleb128 0x2d
 4145 1b58 01       		.uleb128 0x1
 4146 1b59 50       		.byte	0x50
 4147 1b5a 05       		.uleb128 0x5
 4148 1b5b 03       		.byte	0x3
 4149 1b5c 44000000 		.4byte	.LC11
 4150 1b60 00       		.byte	0
 4151 1b61 30       		.uleb128 0x30
 4152 1b62 3C010000 		.4byte	.LVL23
ARM GAS  C:\Users\salaz\AppData\Local\Temp\cc7F8fiw.s 			page 107


 4153 1b66 721F0000 		.4byte	0x1f72
 4154 1b6a 30       		.uleb128 0x30
 4155 1b6b 4C010000 		.4byte	.LVL24
 4156 1b6f 7E1F0000 		.4byte	0x1f7e
 4157 1b73 30       		.uleb128 0x30
 4158 1b74 54010000 		.4byte	.LVL25
 4159 1b78 441F0000 		.4byte	0x1f44
 4160 1b7c 2F       		.uleb128 0x2f
 4161 1b7d 6E010000 		.4byte	.LVL26
 4162 1b81 351F0000 		.4byte	0x1f35
 4163 1b85 931B0000 		.4byte	0x1b93
 4164 1b89 2D       		.uleb128 0x2d
 4165 1b8a 01       		.uleb128 0x1
 4166 1b8b 50       		.byte	0x50
 4167 1b8c 05       		.uleb128 0x5
 4168 1b8d 03       		.byte	0x3
 4169 1b8e 50000000 		.4byte	.LC13
 4170 1b92 00       		.byte	0
 4171 1b93 30       		.uleb128 0x30
 4172 1b94 8C010000 		.4byte	.LVL29
 4173 1b98 671F0000 		.4byte	0x1f67
 4174 1b9c 30       		.uleb128 0x30
 4175 1b9d 94010000 		.4byte	.LVL30
 4176 1ba1 441F0000 		.4byte	0x1f44
 4177 1ba5 2F       		.uleb128 0x2f
 4178 1ba6 D0010000 		.4byte	.LVL32
 4179 1baa 351F0000 		.4byte	0x1f35
 4180 1bae BC1B0000 		.4byte	0x1bbc
 4181 1bb2 2D       		.uleb128 0x2d
 4182 1bb3 01       		.uleb128 0x1
 4183 1bb4 50       		.byte	0x50
 4184 1bb5 05       		.uleb128 0x5
 4185 1bb6 03       		.byte	0x3
 4186 1bb7 5C000000 		.4byte	.LC15
 4187 1bbb 00       		.byte	0
 4188 1bbc 2F       		.uleb128 0x2f
 4189 1bbd F8010000 		.4byte	.LVL35
 4190 1bc1 351F0000 		.4byte	0x1f35
 4191 1bc5 D31B0000 		.4byte	0x1bd3
 4192 1bc9 2D       		.uleb128 0x2d
 4193 1bca 01       		.uleb128 0x1
 4194 1bcb 50       		.byte	0x50
 4195 1bcc 05       		.uleb128 0x5
 4196 1bcd 03       		.byte	0x3
 4197 1bce 68000000 		.4byte	.LC17
 4198 1bd2 00       		.byte	0
 4199 1bd3 2F       		.uleb128 0x2f
 4200 1bd4 3A020000 		.4byte	.LVL38
 4201 1bd8 8A1F0000 		.4byte	0x1f8a
 4202 1bdc E81B0000 		.4byte	0x1be8
 4203 1be0 2D       		.uleb128 0x2d
 4204 1be1 01       		.uleb128 0x1
 4205 1be2 50       		.byte	0x50
 4206 1be3 03       		.uleb128 0x3
 4207 1be4 0A       		.byte	0xa
 4208 1be5 1027     		.2byte	0x2710
 4209 1be7 00       		.byte	0
ARM GAS  C:\Users\salaz\AppData\Local\Temp\cc7F8fiw.s 			page 108


 4210 1be8 2F       		.uleb128 0x2f
 4211 1be9 42020000 		.4byte	.LVL39
 4212 1bed 951F0000 		.4byte	0x1f95
 4213 1bf1 FD1B0000 		.4byte	0x1bfd
 4214 1bf5 2D       		.uleb128 0x2d
 4215 1bf6 01       		.uleb128 0x1
 4216 1bf7 50       		.byte	0x50
 4217 1bf8 03       		.uleb128 0x3
 4218 1bf9 0A       		.byte	0xa
 4219 1bfa A00F     		.2byte	0xfa0
 4220 1bfc 00       		.byte	0
 4221 1bfd 2F       		.uleb128 0x2f
 4222 1bfe 62020000 		.4byte	.LVL40
 4223 1c02 A01F0000 		.4byte	0x1fa0
 4224 1c06 151C0000 		.4byte	0x1c15
 4225 1c0a 2D       		.uleb128 0x2d
 4226 1c0b 01       		.uleb128 0x1
 4227 1c0c 50       		.byte	0x50
 4228 1c0d 01       		.uleb128 0x1
 4229 1c0e 34       		.byte	0x34
 4230 1c0f 2D       		.uleb128 0x2d
 4231 1c10 01       		.uleb128 0x1
 4232 1c11 51       		.byte	0x51
 4233 1c12 01       		.uleb128 0x1
 4234 1c13 31       		.byte	0x31
 4235 1c14 00       		.byte	0
 4236 1c15 2F       		.uleb128 0x2f
 4237 1c16 6A020000 		.4byte	.LVL41
 4238 1c1a 501F0000 		.4byte	0x1f50
 4239 1c1e 291C0000 		.4byte	0x1c29
 4240 1c22 2D       		.uleb128 0x2d
 4241 1c23 01       		.uleb128 0x1
 4242 1c24 51       		.byte	0x51
 4243 1c25 02       		.uleb128 0x2
 4244 1c26 08       		.byte	0x8
 4245 1c27 32       		.byte	0x32
 4246 1c28 00       		.byte	0
 4247 1c29 2F       		.uleb128 0x2f
 4248 1c2a 84020000 		.4byte	.LVL42
 4249 1c2e AC1F0000 		.4byte	0x1fac
 4250 1c32 3C1C0000 		.4byte	0x1c3c
 4251 1c36 2D       		.uleb128 0x2d
 4252 1c37 01       		.uleb128 0x1
 4253 1c38 50       		.byte	0x50
 4254 1c39 01       		.uleb128 0x1
 4255 1c3a 32       		.byte	0x32
 4256 1c3b 00       		.byte	0
 4257 1c3c 2F       		.uleb128 0x2f
 4258 1c3d 90020000 		.4byte	.LVL43
 4259 1c41 A01F0000 		.4byte	0x1fa0
 4260 1c45 5A1C0000 		.4byte	0x1c5a
 4261 1c49 2D       		.uleb128 0x2d
 4262 1c4a 01       		.uleb128 0x1
 4263 1c4b 50       		.byte	0x50
 4264 1c4c 01       		.uleb128 0x1
 4265 1c4d 30       		.byte	0x30
 4266 1c4e 2D       		.uleb128 0x2d
ARM GAS  C:\Users\salaz\AppData\Local\Temp\cc7F8fiw.s 			page 109


 4267 1c4f 01       		.uleb128 0x1
 4268 1c50 51       		.byte	0x51
 4269 1c51 01       		.uleb128 0x1
 4270 1c52 30       		.byte	0x30
 4271 1c53 2D       		.uleb128 0x2d
 4272 1c54 01       		.uleb128 0x1
 4273 1c55 53       		.byte	0x53
 4274 1c56 02       		.uleb128 0x2
 4275 1c57 09       		.byte	0x9
 4276 1c58 FF       		.byte	0xff
 4277 1c59 00       		.byte	0
 4278 1c5a 2F       		.uleb128 0x2f
 4279 1c5b 98020000 		.4byte	.LVL44
 4280 1c5f 501F0000 		.4byte	0x1f50
 4281 1c63 6E1C0000 		.4byte	0x1c6e
 4282 1c67 2D       		.uleb128 0x2d
 4283 1c68 01       		.uleb128 0x1
 4284 1c69 51       		.byte	0x51
 4285 1c6a 02       		.uleb128 0x2
 4286 1c6b 08       		.byte	0x8
 4287 1c6c 32       		.byte	0x32
 4288 1c6d 00       		.byte	0
 4289 1c6e 2F       		.uleb128 0x2f
 4290 1c6f A0020000 		.4byte	.LVL45
 4291 1c73 8A1F0000 		.4byte	0x1f8a
 4292 1c77 811C0000 		.4byte	0x1c81
 4293 1c7b 2D       		.uleb128 0x2d
 4294 1c7c 01       		.uleb128 0x1
 4295 1c7d 50       		.byte	0x50
 4296 1c7e 01       		.uleb128 0x1
 4297 1c7f 35       		.byte	0x35
 4298 1c80 00       		.byte	0
 4299 1c81 2F       		.uleb128 0x2f
 4300 1c82 BA020000 		.4byte	.LVL46
 4301 1c86 AC1F0000 		.4byte	0x1fac
 4302 1c8a 991C0000 		.4byte	0x1c99
 4303 1c8e 2D       		.uleb128 0x2d
 4304 1c8f 01       		.uleb128 0x1
 4305 1c90 50       		.byte	0x50
 4306 1c91 01       		.uleb128 0x1
 4307 1c92 32       		.byte	0x32
 4308 1c93 2D       		.uleb128 0x2d
 4309 1c94 01       		.uleb128 0x1
 4310 1c95 51       		.byte	0x51
 4311 1c96 01       		.uleb128 0x1
 4312 1c97 30       		.byte	0x30
 4313 1c98 00       		.byte	0
 4314 1c99 2F       		.uleb128 0x2f
 4315 1c9a C6020000 		.4byte	.LVL47
 4316 1c9e A01F0000 		.4byte	0x1fa0
 4317 1ca2 BB1C0000 		.4byte	0x1cbb
 4318 1ca6 2D       		.uleb128 0x2d
 4319 1ca7 01       		.uleb128 0x1
 4320 1ca8 50       		.byte	0x50
 4321 1ca9 01       		.uleb128 0x1
 4322 1caa 36       		.byte	0x36
 4323 1cab 2D       		.uleb128 0x2d
ARM GAS  C:\Users\salaz\AppData\Local\Temp\cc7F8fiw.s 			page 110


 4324 1cac 01       		.uleb128 0x1
 4325 1cad 51       		.byte	0x51
 4326 1cae 01       		.uleb128 0x1
 4327 1caf 30       		.byte	0x30
 4328 1cb0 2D       		.uleb128 0x2d
 4329 1cb1 01       		.uleb128 0x1
 4330 1cb2 52       		.byte	0x52
 4331 1cb3 01       		.uleb128 0x1
 4332 1cb4 30       		.byte	0x30
 4333 1cb5 2D       		.uleb128 0x2d
 4334 1cb6 01       		.uleb128 0x1
 4335 1cb7 53       		.byte	0x53
 4336 1cb8 01       		.uleb128 0x1
 4337 1cb9 30       		.byte	0x30
 4338 1cba 00       		.byte	0
 4339 1cbb 2F       		.uleb128 0x2f
 4340 1cbc D2020000 		.4byte	.LVL48
 4341 1cc0 AC1F0000 		.4byte	0x1fac
 4342 1cc4 CE1C0000 		.4byte	0x1cce
 4343 1cc8 2D       		.uleb128 0x2d
 4344 1cc9 01       		.uleb128 0x1
 4345 1cca 50       		.byte	0x50
 4346 1ccb 01       		.uleb128 0x1
 4347 1ccc 32       		.byte	0x32
 4348 1ccd 00       		.byte	0
 4349 1cce 2F       		.uleb128 0x2f
 4350 1ccf DE020000 		.4byte	.LVL49
 4351 1cd3 A01F0000 		.4byte	0x1fa0
 4352 1cd7 EC1C0000 		.4byte	0x1cec
 4353 1cdb 2D       		.uleb128 0x2d
 4354 1cdc 01       		.uleb128 0x1
 4355 1cdd 50       		.byte	0x50
 4356 1cde 01       		.uleb128 0x1
 4357 1cdf 30       		.byte	0x30
 4358 1ce0 2D       		.uleb128 0x2d
 4359 1ce1 01       		.uleb128 0x1
 4360 1ce2 51       		.byte	0x51
 4361 1ce3 01       		.uleb128 0x1
 4362 1ce4 30       		.byte	0x30
 4363 1ce5 2D       		.uleb128 0x2d
 4364 1ce6 01       		.uleb128 0x1
 4365 1ce7 53       		.byte	0x53
 4366 1ce8 02       		.uleb128 0x2
 4367 1ce9 09       		.byte	0x9
 4368 1cea FF       		.byte	0xff
 4369 1ceb 00       		.byte	0
 4370 1cec 2F       		.uleb128 0x2f
 4371 1ced E6020000 		.4byte	.LVL50
 4372 1cf1 501F0000 		.4byte	0x1f50
 4373 1cf5 001D0000 		.4byte	0x1d00
 4374 1cf9 2D       		.uleb128 0x2d
 4375 1cfa 01       		.uleb128 0x1
 4376 1cfb 51       		.byte	0x51
 4377 1cfc 02       		.uleb128 0x2
 4378 1cfd 08       		.byte	0x8
 4379 1cfe 32       		.byte	0x32
 4380 1cff 00       		.byte	0
ARM GAS  C:\Users\salaz\AppData\Local\Temp\cc7F8fiw.s 			page 111


 4381 1d00 2F       		.uleb128 0x2f
 4382 1d01 EE020000 		.4byte	.LVL51
 4383 1d05 8A1F0000 		.4byte	0x1f8a
 4384 1d09 131D0000 		.4byte	0x1d13
 4385 1d0d 2D       		.uleb128 0x2d
 4386 1d0e 01       		.uleb128 0x1
 4387 1d0f 50       		.byte	0x50
 4388 1d10 01       		.uleb128 0x1
 4389 1d11 35       		.byte	0x35
 4390 1d12 00       		.byte	0
 4391 1d13 2F       		.uleb128 0x2f
 4392 1d14 0E030000 		.4byte	.LVL52
 4393 1d18 A01F0000 		.4byte	0x1fa0
 4394 1d1c 351D0000 		.4byte	0x1d35
 4395 1d20 2D       		.uleb128 0x2d
 4396 1d21 01       		.uleb128 0x1
 4397 1d22 50       		.byte	0x50
 4398 1d23 01       		.uleb128 0x1
 4399 1d24 36       		.byte	0x36
 4400 1d25 2D       		.uleb128 0x2d
 4401 1d26 01       		.uleb128 0x1
 4402 1d27 51       		.byte	0x51
 4403 1d28 01       		.uleb128 0x1
 4404 1d29 33       		.byte	0x33
 4405 1d2a 2D       		.uleb128 0x2d
 4406 1d2b 01       		.uleb128 0x1
 4407 1d2c 52       		.byte	0x52
 4408 1d2d 01       		.uleb128 0x1
 4409 1d2e 30       		.byte	0x30
 4410 1d2f 2D       		.uleb128 0x2d
 4411 1d30 01       		.uleb128 0x1
 4412 1d31 53       		.byte	0x53
 4413 1d32 01       		.uleb128 0x1
 4414 1d33 30       		.byte	0x30
 4415 1d34 00       		.byte	0
 4416 1d35 2F       		.uleb128 0x2f
 4417 1d36 1C030000 		.4byte	.LVL53
 4418 1d3a A01F0000 		.4byte	0x1fa0
 4419 1d3e 581D0000 		.4byte	0x1d58
 4420 1d42 2D       		.uleb128 0x2d
 4421 1d43 01       		.uleb128 0x1
 4422 1d44 50       		.byte	0x50
 4423 1d45 01       		.uleb128 0x1
 4424 1d46 36       		.byte	0x36
 4425 1d47 2D       		.uleb128 0x2d
 4426 1d48 01       		.uleb128 0x1
 4427 1d49 51       		.byte	0x51
 4428 1d4a 01       		.uleb128 0x1
 4429 1d4b 33       		.byte	0x33
 4430 1d4c 2D       		.uleb128 0x2d
 4431 1d4d 01       		.uleb128 0x1
 4432 1d4e 52       		.byte	0x52
 4433 1d4f 01       		.uleb128 0x1
 4434 1d50 4E       		.byte	0x4e
 4435 1d51 2D       		.uleb128 0x2d
 4436 1d52 01       		.uleb128 0x1
 4437 1d53 53       		.byte	0x53
ARM GAS  C:\Users\salaz\AppData\Local\Temp\cc7F8fiw.s 			page 112


 4438 1d54 02       		.uleb128 0x2
 4439 1d55 09       		.byte	0x9
 4440 1d56 FF       		.byte	0xff
 4441 1d57 00       		.byte	0
 4442 1d58 2F       		.uleb128 0x2f
 4443 1d59 24030000 		.4byte	.LVL54
 4444 1d5d B81F0000 		.4byte	0x1fb8
 4445 1d61 711D0000 		.4byte	0x1d71
 4446 1d65 2D       		.uleb128 0x2d
 4447 1d66 01       		.uleb128 0x1
 4448 1d67 50       		.byte	0x50
 4449 1d68 01       		.uleb128 0x1
 4450 1d69 36       		.byte	0x36
 4451 1d6a 2D       		.uleb128 0x2d
 4452 1d6b 01       		.uleb128 0x1
 4453 1d6c 51       		.byte	0x51
 4454 1d6d 02       		.uleb128 0x2
 4455 1d6e 09       		.byte	0x9
 4456 1d6f FF       		.byte	0xff
 4457 1d70 00       		.byte	0
 4458 1d71 2F       		.uleb128 0x2f
 4459 1d72 32030000 		.4byte	.LVL55
 4460 1d76 A01F0000 		.4byte	0x1fa0
 4461 1d7a 931D0000 		.4byte	0x1d93
 4462 1d7e 2D       		.uleb128 0x2d
 4463 1d7f 01       		.uleb128 0x1
 4464 1d80 50       		.byte	0x50
 4465 1d81 01       		.uleb128 0x1
 4466 1d82 36       		.byte	0x36
 4467 1d83 2D       		.uleb128 0x2d
 4468 1d84 01       		.uleb128 0x1
 4469 1d85 51       		.byte	0x51
 4470 1d86 01       		.uleb128 0x1
 4471 1d87 33       		.byte	0x33
 4472 1d88 2D       		.uleb128 0x2d
 4473 1d89 01       		.uleb128 0x1
 4474 1d8a 52       		.byte	0x52
 4475 1d8b 01       		.uleb128 0x1
 4476 1d8c 30       		.byte	0x30
 4477 1d8d 2D       		.uleb128 0x2d
 4478 1d8e 01       		.uleb128 0x1
 4479 1d8f 53       		.byte	0x53
 4480 1d90 01       		.uleb128 0x1
 4481 1d91 30       		.byte	0x30
 4482 1d92 00       		.byte	0
 4483 1d93 30       		.uleb128 0x30
 4484 1d94 36030000 		.4byte	.LVL56
 4485 1d98 C41F0000 		.4byte	0x1fc4
 4486 1d9c 30       		.uleb128 0x30
 4487 1d9d 80030000 		.4byte	.LVL57
 4488 1da1 8A1F0000 		.4byte	0x1f8a
 4489 1da5 30       		.uleb128 0x30
 4490 1da6 92030000 		.4byte	.LVL58
 4491 1daa 8A1F0000 		.4byte	0x1f8a
 4492 1dae 00       		.byte	0
 4493 1daf 0D       		.uleb128 0xd
 4494 1db0 F4150000 		.4byte	0x15f4
ARM GAS  C:\Users\salaz\AppData\Local\Temp\cc7F8fiw.s 			page 113


 4495 1db4 BF1D0000 		.4byte	0x1dbf
 4496 1db8 0E       		.uleb128 0xe
 4497 1db9 F8050000 		.4byte	0x5f8
 4498 1dbd 0B       		.byte	0xb
 4499 1dbe 00       		.byte	0
 4500 1dbf 31       		.uleb128 0x31
 4501 1dc0 5E2F0000 		.4byte	.LASF595
 4502 1dc4 12       		.byte	0x12
 4503 1dc5 FC02     		.2byte	0x2fc
 4504 1dc7 CB1D0000 		.4byte	0x1dcb
 4505 1dcb 10       		.uleb128 0x10
 4506 1dcc AF1D0000 		.4byte	0x1daf
 4507 1dd0 31       		.uleb128 0x31
 4508 1dd1 682D0000 		.4byte	.LASF596
 4509 1dd5 10       		.byte	0x10
 4510 1dd6 2202     		.2byte	0x222
 4511 1dd8 4E160000 		.4byte	0x164e
 4512 1ddc 0D       		.uleb128 0xd
 4513 1ddd 1D160000 		.4byte	0x161d
 4514 1de1 EC1D0000 		.4byte	0x1dec
 4515 1de5 0E       		.uleb128 0xe
 4516 1de6 F8050000 		.4byte	0x5f8
 4517 1dea 00       		.byte	0
 4518 1deb 00       		.byte	0
 4519 1dec 31       		.uleb128 0x31
 4520 1ded 3C0D0000 		.4byte	.LASF597
 4521 1df1 10       		.byte	0x10
 4522 1df2 2C02     		.2byte	0x22c
 4523 1df4 DC1D0000 		.4byte	0x1ddc
 4524 1df8 0D       		.uleb128 0xd
 4525 1df9 96160000 		.4byte	0x1696
 4526 1dfd 081E0000 		.4byte	0x1e08
 4527 1e01 0E       		.uleb128 0xe
 4528 1e02 F8050000 		.4byte	0x5f8
 4529 1e06 00       		.byte	0
 4530 1e07 00       		.byte	0
 4531 1e08 31       		.uleb128 0x31
 4532 1e09 182C0000 		.4byte	.LASF598
 4533 1e0d 10       		.byte	0x10
 4534 1e0e 2D02     		.2byte	0x22d
 4535 1e10 F81D0000 		.4byte	0x1df8
 4536 1e14 31       		.uleb128 0x31
 4537 1e15 5F090000 		.4byte	.LASF599
 4538 1e19 10       		.byte	0x10
 4539 1e1a 5202     		.2byte	0x252
 4540 1e1c 2A050000 		.4byte	0x52a
 4541 1e20 32       		.uleb128 0x32
 4542 1e21 FD300000 		.4byte	.LASF600
 4543 1e25 13       		.byte	0x13
 4544 1e26 31       		.byte	0x31
 4545 1e27 A1160000 		.4byte	0x16a1
 4546 1e2b 32       		.uleb128 0x32
 4547 1e2c 29090000 		.4byte	.LASF601
 4548 1e30 14       		.byte	0x14
 4549 1e31 86       		.byte	0x86
 4550 1e32 361E0000 		.4byte	0x1e36
 4551 1e36 10       		.uleb128 0x10
ARM GAS  C:\Users\salaz\AppData\Local\Temp\cc7F8fiw.s 			page 114


 4552 1e37 DF110000 		.4byte	0x11df
 4553 1e3b 32       		.uleb128 0x32
 4554 1e3c CD200000 		.4byte	.LASF602
 4555 1e40 14       		.byte	0x14
 4556 1e41 87       		.byte	0x87
 4557 1e42 AF120000 		.4byte	0x12af
 4558 1e46 32       		.uleb128 0x32
 4559 1e47 4C2F0000 		.4byte	.LASF603
 4560 1e4b 15       		.byte	0x15
 4561 1e4c 7F       		.byte	0x7f
 4562 1e4d B20F0000 		.4byte	0xfb2
 4563 1e51 32       		.uleb128 0x32
 4564 1e52 63100000 		.4byte	.LASF604
 4565 1e56 16       		.byte	0x16
 4566 1e57 1F       		.byte	0x1f
 4567 1e58 5C1E0000 		.4byte	0x1e5c
 4568 1e5c 10       		.uleb128 0x10
 4569 1e5d 190E0000 		.4byte	0xe19
 4570 1e61 32       		.uleb128 0x32
 4571 1e62 EE0F0000 		.4byte	.LASF605
 4572 1e66 17       		.byte	0x17
 4573 1e67 1F       		.byte	0x1f
 4574 1e68 5C1E0000 		.4byte	0x1e5c
 4575 1e6c 32       		.uleb128 0x32
 4576 1e6d E5090000 		.4byte	.LASF606
 4577 1e71 18       		.byte	0x18
 4578 1e72 1F       		.byte	0x1f
 4579 1e73 771E0000 		.4byte	0x1e77
 4580 1e77 10       		.uleb128 0x10
 4581 1e78 D50C0000 		.4byte	0xcd5
 4582 1e7c 32       		.uleb128 0x32
 4583 1e7d BD210000 		.4byte	.LASF607
 4584 1e81 19       		.byte	0x19
 4585 1e82 1F       		.byte	0x1f
 4586 1e83 5C1E0000 		.4byte	0x1e5c
 4587 1e87 32       		.uleb128 0x32
 4588 1e88 290D0000 		.4byte	.LASF608
 4589 1e8c 1A       		.byte	0x1a
 4590 1e8d 1F       		.byte	0x1f
 4591 1e8e 5C1E0000 		.4byte	0x1e5c
 4592 1e92 32       		.uleb128 0x32
 4593 1e93 A2250000 		.4byte	.LASF609
 4594 1e97 1B       		.byte	0x1b
 4595 1e98 1F       		.byte	0x1f
 4596 1e99 771E0000 		.4byte	0x1e77
 4597 1e9d 32       		.uleb128 0x32
 4598 1e9e 76050000 		.4byte	.LASF610
 4599 1ea2 1C       		.byte	0x1c
 4600 1ea3 1F       		.byte	0x1f
 4601 1ea4 5C1E0000 		.4byte	0x1e5c
 4602 1ea8 32       		.uleb128 0x32
 4603 1ea9 D20E0000 		.4byte	.LASF611
 4604 1ead 1D       		.byte	0x1d
 4605 1eae 1F       		.byte	0x1f
 4606 1eaf 771E0000 		.4byte	0x1e77
 4607 1eb3 33       		.uleb128 0x33
 4608 1eb4 AB130000 		.4byte	.LASF612
ARM GAS  C:\Users\salaz\AppData\Local\Temp\cc7F8fiw.s 			page 115


 4609 1eb8 01       		.byte	0x1
 4610 1eb9 13       		.byte	0x13
 4611 1eba 8B0B0000 		.4byte	0xb8b
 4612 1ebe 05       		.uleb128 0x5
 4613 1ebf 03       		.byte	0x3
 4614 1ec0 00000000 		.4byte	morningThreshold
 4615 1ec4 33       		.uleb128 0x33
 4616 1ec5 17080000 		.4byte	.LASF613
 4617 1ec9 01       		.byte	0x1
 4618 1eca 14       		.byte	0x14
 4619 1ecb 8B0B0000 		.4byte	0xb8b
 4620 1ecf 05       		.uleb128 0x5
 4621 1ed0 03       		.byte	0x3
 4622 1ed1 00000000 		.4byte	nightThreshold
 4623 1ed5 33       		.uleb128 0x33
 4624 1ed6 A3070000 		.4byte	.LASF614
 4625 1eda 01       		.byte	0x1
 4626 1edb 15       		.byte	0x15
 4627 1edc 970B0000 		.4byte	0xb97
 4628 1ee0 05       		.uleb128 0x5
 4629 1ee1 03       		.byte	0x3
 4630 1ee2 00000000 		.4byte	rideNightCheck_ms
 4631 1ee6 33       		.uleb128 0x33
 4632 1ee7 50270000 		.4byte	.LASF615
 4633 1eeb 01       		.byte	0x1
 4634 1eec 17       		.byte	0x17
 4635 1eed 8B0B0000 		.4byte	0xb8b
 4636 1ef1 05       		.uleb128 0x5
 4637 1ef2 03       		.byte	0x3
 4638 1ef3 00000000 		.4byte	verifyAdvertise_s
 4639 1ef7 33       		.uleb128 0x33
 4640 1ef8 521F0000 		.4byte	.LASF616
 4641 1efc 01       		.byte	0x1
 4642 1efd 18       		.byte	0x18
 4643 1efe 7F0B0000 		.4byte	0xb7f
 4644 1f02 05       		.uleb128 0x5
 4645 1f03 03       		.byte	0x3
 4646 1f04 00000000 		.4byte	verifyLightCycles
 4647 1f08 33       		.uleb128 0x33
 4648 1f09 49140000 		.4byte	.LASF617
 4649 1f0d 01       		.byte	0x1
 4650 1f0e 1A       		.byte	0x1a
 4651 1f0f 8B0B0000 		.4byte	0xb8b
 4652 1f13 05       		.uleb128 0x5
 4653 1f14 03       		.byte	0x3
 4654 1f15 00000000 		.4byte	stolenAdvertise_s
 4655 1f19 33       		.uleb128 0x33
 4656 1f1a 5B0E0000 		.4byte	.LASF618
 4657 1f1e 01       		.byte	0x1
 4658 1f1f 1B       		.byte	0x1b
 4659 1f20 7F0B0000 		.4byte	0xb7f
 4660 1f24 05       		.uleb128 0x5
 4661 1f25 03       		.byte	0x3
 4662 1f26 00000000 		.4byte	stolenLightCycles
 4663 1f2a 34       		.uleb128 0x34
 4664 1f2b 132E0000 		.4byte	.LASF619
 4665 1f2f 132E0000 		.4byte	.LASF619
ARM GAS  C:\Users\salaz\AppData\Local\Temp\cc7F8fiw.s 			page 116


 4666 1f33 11       		.byte	0x11
 4667 1f34 33       		.byte	0x33
 4668 1f35 35       		.uleb128 0x35
 4669 1f36 BE030000 		.4byte	.LASF637
 4670 1f3a FB1A0000 		.4byte	.LASF638
 4671 1f3e 1E       		.byte	0x1e
 4672 1f3f 00       		.byte	0
 4673 1f40 BE030000 		.4byte	.LASF637
 4674 1f44 36       		.uleb128 0x36
 4675 1f45 53110000 		.4byte	.LASF620
 4676 1f49 53110000 		.4byte	.LASF620
 4677 1f4d 11       		.byte	0x11
 4678 1f4e 4501     		.2byte	0x145
 4679 1f50 36       		.uleb128 0x36
 4680 1f51 AB1A0000 		.4byte	.LASF621
 4681 1f55 AB1A0000 		.4byte	.LASF621
 4682 1f59 11       		.byte	0x11
 4683 1f5a 1201     		.2byte	0x112
 4684 1f5c 34       		.uleb128 0x34
 4685 1f5d 4D090000 		.4byte	.LASF622
 4686 1f61 4D090000 		.4byte	.LASF622
 4687 1f65 11       		.byte	0x11
 4688 1f66 43       		.byte	0x43
 4689 1f67 34       		.uleb128 0x34
 4690 1f68 3B090000 		.4byte	.LASF623
 4691 1f6c 3B090000 		.4byte	.LASF623
 4692 1f70 11       		.byte	0x11
 4693 1f71 3B       		.byte	0x3b
 4694 1f72 36       		.uleb128 0x36
 4695 1f73 74040000 		.4byte	.LASF624
 4696 1f77 74040000 		.4byte	.LASF624
 4697 1f7b 11       		.byte	0x11
 4698 1f7c 0A01     		.2byte	0x10a
 4699 1f7e 36       		.uleb128 0x36
 4700 1f7f E5310000 		.4byte	.LASF625
 4701 1f83 E5310000 		.4byte	.LASF625
 4702 1f87 11       		.byte	0x11
 4703 1f88 0401     		.2byte	0x104
 4704 1f8a 34       		.uleb128 0x34
 4705 1f8b 6B000000 		.4byte	.LASF626
 4706 1f8f 6B000000 		.4byte	.LASF626
 4707 1f93 11       		.byte	0x11
 4708 1f94 3A       		.byte	0x3a
 4709 1f95 34       		.uleb128 0x34
 4710 1f96 7D000000 		.4byte	.LASF627
 4711 1f9a 7D000000 		.4byte	.LASF627
 4712 1f9e 11       		.byte	0x11
 4713 1f9f 42       		.byte	0x42
 4714 1fa0 36       		.uleb128 0x36
 4715 1fa1 D2020000 		.4byte	.LASF628
 4716 1fa5 D2020000 		.4byte	.LASF628
 4717 1fa9 11       		.byte	0x11
 4718 1faa 5401     		.2byte	0x154
 4719 1fac 36       		.uleb128 0x36
 4720 1fad D1190000 		.4byte	.LASF629
 4721 1fb1 D1190000 		.4byte	.LASF629
 4722 1fb5 11       		.byte	0x11
ARM GAS  C:\Users\salaz\AppData\Local\Temp\cc7F8fiw.s 			page 117


 4723 1fb6 7101     		.2byte	0x171
 4724 1fb8 36       		.uleb128 0x36
 4725 1fb9 CE260000 		.4byte	.LASF630
 4726 1fbd CE260000 		.4byte	.LASF630
 4727 1fc1 11       		.byte	0x11
 4728 1fc2 5901     		.2byte	0x159
 4729 1fc4 36       		.uleb128 0x36
 4730 1fc5 64140000 		.4byte	.LASF631
 4731 1fc9 64140000 		.4byte	.LASF631
 4732 1fcd 11       		.byte	0x11
 4733 1fce 1801     		.2byte	0x118
 4734 1fd0 00       		.byte	0
 4735              		.section	.debug_abbrev,"",%progbits
 4736              	.Ldebug_abbrev0:
 4737 0000 01       		.uleb128 0x1
 4738 0001 11       		.uleb128 0x11
 4739 0002 01       		.byte	0x1
 4740 0003 25       		.uleb128 0x25
 4741 0004 0E       		.uleb128 0xe
 4742 0005 13       		.uleb128 0x13
 4743 0006 0B       		.uleb128 0xb
 4744 0007 03       		.uleb128 0x3
 4745 0008 0E       		.uleb128 0xe
 4746 0009 1B       		.uleb128 0x1b
 4747 000a 0E       		.uleb128 0xe
 4748 000b 55       		.uleb128 0x55
 4749 000c 17       		.uleb128 0x17
 4750 000d 11       		.uleb128 0x11
 4751 000e 01       		.uleb128 0x1
 4752 000f 10       		.uleb128 0x10
 4753 0010 17       		.uleb128 0x17
 4754 0011 00       		.byte	0
 4755 0012 00       		.byte	0
 4756 0013 02       		.uleb128 0x2
 4757 0014 04       		.uleb128 0x4
 4758 0015 01       		.byte	0x1
 4759 0016 0B       		.uleb128 0xb
 4760 0017 0B       		.uleb128 0xb
 4761 0018 49       		.uleb128 0x49
 4762 0019 13       		.uleb128 0x13
 4763 001a 3A       		.uleb128 0x3a
 4764 001b 0B       		.uleb128 0xb
 4765 001c 3B       		.uleb128 0x3b
 4766 001d 0B       		.uleb128 0xb
 4767 001e 01       		.uleb128 0x1
 4768 001f 13       		.uleb128 0x13
 4769 0020 00       		.byte	0
 4770 0021 00       		.byte	0
 4771 0022 03       		.uleb128 0x3
 4772 0023 28       		.uleb128 0x28
 4773 0024 00       		.byte	0
 4774 0025 03       		.uleb128 0x3
 4775 0026 0E       		.uleb128 0xe
 4776 0027 1C       		.uleb128 0x1c
 4777 0028 0D       		.uleb128 0xd
 4778 0029 00       		.byte	0
 4779 002a 00       		.byte	0
ARM GAS  C:\Users\salaz\AppData\Local\Temp\cc7F8fiw.s 			page 118


 4780 002b 04       		.uleb128 0x4
 4781 002c 28       		.uleb128 0x28
 4782 002d 00       		.byte	0
 4783 002e 03       		.uleb128 0x3
 4784 002f 0E       		.uleb128 0xe
 4785 0030 1C       		.uleb128 0x1c
 4786 0031 0B       		.uleb128 0xb
 4787 0032 00       		.byte	0
 4788 0033 00       		.byte	0
 4789 0034 05       		.uleb128 0x5
 4790 0035 24       		.uleb128 0x24
 4791 0036 00       		.byte	0
 4792 0037 0B       		.uleb128 0xb
 4793 0038 0B       		.uleb128 0xb
 4794 0039 3E       		.uleb128 0x3e
 4795 003a 0B       		.uleb128 0xb
 4796 003b 03       		.uleb128 0x3
 4797 003c 0E       		.uleb128 0xe
 4798 003d 00       		.byte	0
 4799 003e 00       		.byte	0
 4800 003f 06       		.uleb128 0x6
 4801 0040 16       		.uleb128 0x16
 4802 0041 00       		.byte	0
 4803 0042 03       		.uleb128 0x3
 4804 0043 0E       		.uleb128 0xe
 4805 0044 3A       		.uleb128 0x3a
 4806 0045 0B       		.uleb128 0xb
 4807 0046 3B       		.uleb128 0x3b
 4808 0047 0B       		.uleb128 0xb
 4809 0048 49       		.uleb128 0x49
 4810 0049 13       		.uleb128 0x13
 4811 004a 00       		.byte	0
 4812 004b 00       		.byte	0
 4813 004c 07       		.uleb128 0x7
 4814 004d 16       		.uleb128 0x16
 4815 004e 00       		.byte	0
 4816 004f 03       		.uleb128 0x3
 4817 0050 0E       		.uleb128 0xe
 4818 0051 3A       		.uleb128 0x3a
 4819 0052 0B       		.uleb128 0xb
 4820 0053 3B       		.uleb128 0x3b
 4821 0054 05       		.uleb128 0x5
 4822 0055 49       		.uleb128 0x49
 4823 0056 13       		.uleb128 0x13
 4824 0057 00       		.byte	0
 4825 0058 00       		.byte	0
 4826 0059 08       		.uleb128 0x8
 4827 005a 24       		.uleb128 0x24
 4828 005b 00       		.byte	0
 4829 005c 0B       		.uleb128 0xb
 4830 005d 0B       		.uleb128 0xb
 4831 005e 3E       		.uleb128 0x3e
 4832 005f 0B       		.uleb128 0xb
 4833 0060 03       		.uleb128 0x3
 4834 0061 08       		.uleb128 0x8
 4835 0062 00       		.byte	0
 4836 0063 00       		.byte	0
ARM GAS  C:\Users\salaz\AppData\Local\Temp\cc7F8fiw.s 			page 119


 4837 0064 09       		.uleb128 0x9
 4838 0065 13       		.uleb128 0x13
 4839 0066 01       		.byte	0x1
 4840 0067 0B       		.uleb128 0xb
 4841 0068 05       		.uleb128 0x5
 4842 0069 3A       		.uleb128 0x3a
 4843 006a 0B       		.uleb128 0xb
 4844 006b 3B       		.uleb128 0x3b
 4845 006c 05       		.uleb128 0x5
 4846 006d 01       		.uleb128 0x1
 4847 006e 13       		.uleb128 0x13
 4848 006f 00       		.byte	0
 4849 0070 00       		.byte	0
 4850 0071 0A       		.uleb128 0xa
 4851 0072 0D       		.uleb128 0xd
 4852 0073 00       		.byte	0
 4853 0074 03       		.uleb128 0x3
 4854 0075 0E       		.uleb128 0xe
 4855 0076 3A       		.uleb128 0x3a
 4856 0077 0B       		.uleb128 0xb
 4857 0078 3B       		.uleb128 0x3b
 4858 0079 05       		.uleb128 0x5
 4859 007a 49       		.uleb128 0x49
 4860 007b 13       		.uleb128 0x13
 4861 007c 38       		.uleb128 0x38
 4862 007d 0B       		.uleb128 0xb
 4863 007e 00       		.byte	0
 4864 007f 00       		.byte	0
 4865 0080 0B       		.uleb128 0xb
 4866 0081 0D       		.uleb128 0xd
 4867 0082 00       		.byte	0
 4868 0083 03       		.uleb128 0x3
 4869 0084 0E       		.uleb128 0xe
 4870 0085 3A       		.uleb128 0x3a
 4871 0086 0B       		.uleb128 0xb
 4872 0087 3B       		.uleb128 0x3b
 4873 0088 05       		.uleb128 0x5
 4874 0089 49       		.uleb128 0x49
 4875 008a 13       		.uleb128 0x13
 4876 008b 38       		.uleb128 0x38
 4877 008c 05       		.uleb128 0x5
 4878 008d 00       		.byte	0
 4879 008e 00       		.byte	0
 4880 008f 0C       		.uleb128 0xc
 4881 0090 0D       		.uleb128 0xd
 4882 0091 00       		.byte	0
 4883 0092 03       		.uleb128 0x3
 4884 0093 08       		.uleb128 0x8
 4885 0094 3A       		.uleb128 0x3a
 4886 0095 0B       		.uleb128 0xb
 4887 0096 3B       		.uleb128 0x3b
 4888 0097 05       		.uleb128 0x5
 4889 0098 49       		.uleb128 0x49
 4890 0099 13       		.uleb128 0x13
 4891 009a 38       		.uleb128 0x38
 4892 009b 05       		.uleb128 0x5
 4893 009c 00       		.byte	0
ARM GAS  C:\Users\salaz\AppData\Local\Temp\cc7F8fiw.s 			page 120


 4894 009d 00       		.byte	0
 4895 009e 0D       		.uleb128 0xd
 4896 009f 01       		.uleb128 0x1
 4897 00a0 01       		.byte	0x1
 4898 00a1 49       		.uleb128 0x49
 4899 00a2 13       		.uleb128 0x13
 4900 00a3 01       		.uleb128 0x1
 4901 00a4 13       		.uleb128 0x13
 4902 00a5 00       		.byte	0
 4903 00a6 00       		.byte	0
 4904 00a7 0E       		.uleb128 0xe
 4905 00a8 21       		.uleb128 0x21
 4906 00a9 00       		.byte	0
 4907 00aa 49       		.uleb128 0x49
 4908 00ab 13       		.uleb128 0x13
 4909 00ac 2F       		.uleb128 0x2f
 4910 00ad 0B       		.uleb128 0xb
 4911 00ae 00       		.byte	0
 4912 00af 00       		.byte	0
 4913 00b0 0F       		.uleb128 0xf
 4914 00b1 35       		.uleb128 0x35
 4915 00b2 00       		.byte	0
 4916 00b3 49       		.uleb128 0x49
 4917 00b4 13       		.uleb128 0x13
 4918 00b5 00       		.byte	0
 4919 00b6 00       		.byte	0
 4920 00b7 10       		.uleb128 0x10
 4921 00b8 26       		.uleb128 0x26
 4922 00b9 00       		.byte	0
 4923 00ba 49       		.uleb128 0x49
 4924 00bb 13       		.uleb128 0x13
 4925 00bc 00       		.byte	0
 4926 00bd 00       		.byte	0
 4927 00be 11       		.uleb128 0x11
 4928 00bf 13       		.uleb128 0x13
 4929 00c0 01       		.byte	0x1
 4930 00c1 0B       		.uleb128 0xb
 4931 00c2 05       		.uleb128 0x5
 4932 00c3 3A       		.uleb128 0x3a
 4933 00c4 0B       		.uleb128 0xb
 4934 00c5 3B       		.uleb128 0x3b
 4935 00c6 0B       		.uleb128 0xb
 4936 00c7 01       		.uleb128 0x1
 4937 00c8 13       		.uleb128 0x13
 4938 00c9 00       		.byte	0
 4939 00ca 00       		.byte	0
 4940 00cb 12       		.uleb128 0x12
 4941 00cc 0D       		.uleb128 0xd
 4942 00cd 00       		.byte	0
 4943 00ce 03       		.uleb128 0x3
 4944 00cf 0E       		.uleb128 0xe
 4945 00d0 3A       		.uleb128 0x3a
 4946 00d1 0B       		.uleb128 0xb
 4947 00d2 3B       		.uleb128 0x3b
 4948 00d3 0B       		.uleb128 0xb
 4949 00d4 49       		.uleb128 0x49
 4950 00d5 13       		.uleb128 0x13
ARM GAS  C:\Users\salaz\AppData\Local\Temp\cc7F8fiw.s 			page 121


 4951 00d6 38       		.uleb128 0x38
 4952 00d7 0B       		.uleb128 0xb
 4953 00d8 00       		.byte	0
 4954 00d9 00       		.byte	0
 4955 00da 13       		.uleb128 0x13
 4956 00db 0D       		.uleb128 0xd
 4957 00dc 00       		.byte	0
 4958 00dd 03       		.uleb128 0x3
 4959 00de 0E       		.uleb128 0xe
 4960 00df 3A       		.uleb128 0x3a
 4961 00e0 0B       		.uleb128 0xb
 4962 00e1 3B       		.uleb128 0x3b
 4963 00e2 0B       		.uleb128 0xb
 4964 00e3 49       		.uleb128 0x49
 4965 00e4 13       		.uleb128 0x13
 4966 00e5 38       		.uleb128 0x38
 4967 00e6 05       		.uleb128 0x5
 4968 00e7 00       		.byte	0
 4969 00e8 00       		.byte	0
 4970 00e9 14       		.uleb128 0x14
 4971 00ea 21       		.uleb128 0x21
 4972 00eb 00       		.byte	0
 4973 00ec 49       		.uleb128 0x49
 4974 00ed 13       		.uleb128 0x13
 4975 00ee 2F       		.uleb128 0x2f
 4976 00ef 05       		.uleb128 0x5
 4977 00f0 00       		.byte	0
 4978 00f1 00       		.byte	0
 4979 00f2 15       		.uleb128 0x15
 4980 00f3 13       		.uleb128 0x13
 4981 00f4 01       		.byte	0x1
 4982 00f5 0B       		.uleb128 0xb
 4983 00f6 0B       		.uleb128 0xb
 4984 00f7 3A       		.uleb128 0x3a
 4985 00f8 0B       		.uleb128 0xb
 4986 00f9 3B       		.uleb128 0x3b
 4987 00fa 0B       		.uleb128 0xb
 4988 00fb 01       		.uleb128 0x1
 4989 00fc 13       		.uleb128 0x13
 4990 00fd 00       		.byte	0
 4991 00fe 00       		.byte	0
 4992 00ff 16       		.uleb128 0x16
 4993 0100 0F       		.uleb128 0xf
 4994 0101 00       		.byte	0
 4995 0102 0B       		.uleb128 0xb
 4996 0103 0B       		.uleb128 0xb
 4997 0104 00       		.byte	0
 4998 0105 00       		.byte	0
 4999 0106 17       		.uleb128 0x17
 5000 0107 13       		.uleb128 0x13
 5001 0108 01       		.byte	0x1
 5002 0109 03       		.uleb128 0x3
 5003 010a 0E       		.uleb128 0xe
 5004 010b 0B       		.uleb128 0xb
 5005 010c 0B       		.uleb128 0xb
 5006 010d 3A       		.uleb128 0x3a
 5007 010e 0B       		.uleb128 0xb
ARM GAS  C:\Users\salaz\AppData\Local\Temp\cc7F8fiw.s 			page 122


 5008 010f 3B       		.uleb128 0x3b
 5009 0110 0B       		.uleb128 0xb
 5010 0111 01       		.uleb128 0x1
 5011 0112 13       		.uleb128 0x13
 5012 0113 00       		.byte	0
 5013 0114 00       		.byte	0
 5014 0115 18       		.uleb128 0x18
 5015 0116 04       		.uleb128 0x4
 5016 0117 01       		.byte	0x1
 5017 0118 0B       		.uleb128 0xb
 5018 0119 0B       		.uleb128 0xb
 5019 011a 49       		.uleb128 0x49
 5020 011b 13       		.uleb128 0x13
 5021 011c 3A       		.uleb128 0x3a
 5022 011d 0B       		.uleb128 0xb
 5023 011e 3B       		.uleb128 0x3b
 5024 011f 05       		.uleb128 0x5
 5025 0120 01       		.uleb128 0x1
 5026 0121 13       		.uleb128 0x13
 5027 0122 00       		.byte	0
 5028 0123 00       		.byte	0
 5029 0124 19       		.uleb128 0x19
 5030 0125 0F       		.uleb128 0xf
 5031 0126 00       		.byte	0
 5032 0127 0B       		.uleb128 0xb
 5033 0128 0B       		.uleb128 0xb
 5034 0129 49       		.uleb128 0x49
 5035 012a 13       		.uleb128 0x13
 5036 012b 00       		.byte	0
 5037 012c 00       		.byte	0
 5038 012d 1A       		.uleb128 0x1a
 5039 012e 15       		.uleb128 0x15
 5040 012f 01       		.byte	0x1
 5041 0130 27       		.uleb128 0x27
 5042 0131 19       		.uleb128 0x19
 5043 0132 01       		.uleb128 0x1
 5044 0133 13       		.uleb128 0x13
 5045 0134 00       		.byte	0
 5046 0135 00       		.byte	0
 5047 0136 1B       		.uleb128 0x1b
 5048 0137 05       		.uleb128 0x5
 5049 0138 00       		.byte	0
 5050 0139 49       		.uleb128 0x49
 5051 013a 13       		.uleb128 0x13
 5052 013b 00       		.byte	0
 5053 013c 00       		.byte	0
 5054 013d 1C       		.uleb128 0x1c
 5055 013e 15       		.uleb128 0x15
 5056 013f 01       		.byte	0x1
 5057 0140 27       		.uleb128 0x27
 5058 0141 19       		.uleb128 0x19
 5059 0142 49       		.uleb128 0x49
 5060 0143 13       		.uleb128 0x13
 5061 0144 01       		.uleb128 0x1
 5062 0145 13       		.uleb128 0x13
 5063 0146 00       		.byte	0
 5064 0147 00       		.byte	0
ARM GAS  C:\Users\salaz\AppData\Local\Temp\cc7F8fiw.s 			page 123


 5065 0148 1D       		.uleb128 0x1d
 5066 0149 13       		.uleb128 0x13
 5067 014a 01       		.byte	0x1
 5068 014b 03       		.uleb128 0x3
 5069 014c 0E       		.uleb128 0xe
 5070 014d 0B       		.uleb128 0xb
 5071 014e 0B       		.uleb128 0xb
 5072 014f 3A       		.uleb128 0x3a
 5073 0150 0B       		.uleb128 0xb
 5074 0151 3B       		.uleb128 0x3b
 5075 0152 05       		.uleb128 0x5
 5076 0153 01       		.uleb128 0x1
 5077 0154 13       		.uleb128 0x13
 5078 0155 00       		.byte	0
 5079 0156 00       		.byte	0
 5080 0157 1E       		.uleb128 0x1e
 5081 0158 28       		.uleb128 0x28
 5082 0159 00       		.byte	0
 5083 015a 03       		.uleb128 0x3
 5084 015b 0E       		.uleb128 0xe
 5085 015c 1C       		.uleb128 0x1c
 5086 015d 05       		.uleb128 0x5
 5087 015e 00       		.byte	0
 5088 015f 00       		.byte	0
 5089 0160 1F       		.uleb128 0x1f
 5090 0161 13       		.uleb128 0x13
 5091 0162 01       		.byte	0x1
 5092 0163 0B       		.uleb128 0xb
 5093 0164 0B       		.uleb128 0xb
 5094 0165 3A       		.uleb128 0x3a
 5095 0166 0B       		.uleb128 0xb
 5096 0167 3B       		.uleb128 0x3b
 5097 0168 05       		.uleb128 0x5
 5098 0169 01       		.uleb128 0x1
 5099 016a 13       		.uleb128 0x13
 5100 016b 00       		.byte	0
 5101 016c 00       		.byte	0
 5102 016d 20       		.uleb128 0x20
 5103 016e 0D       		.uleb128 0xd
 5104 016f 00       		.byte	0
 5105 0170 03       		.uleb128 0x3
 5106 0171 08       		.uleb128 0x8
 5107 0172 3A       		.uleb128 0x3a
 5108 0173 0B       		.uleb128 0xb
 5109 0174 3B       		.uleb128 0x3b
 5110 0175 0B       		.uleb128 0xb
 5111 0176 49       		.uleb128 0x49
 5112 0177 13       		.uleb128 0x13
 5113 0178 38       		.uleb128 0x38
 5114 0179 0B       		.uleb128 0xb
 5115 017a 00       		.byte	0
 5116 017b 00       		.byte	0
 5117 017c 21       		.uleb128 0x21
 5118 017d 04       		.uleb128 0x4
 5119 017e 01       		.byte	0x1
 5120 017f 03       		.uleb128 0x3
 5121 0180 0E       		.uleb128 0xe
ARM GAS  C:\Users\salaz\AppData\Local\Temp\cc7F8fiw.s 			page 124


 5122 0181 0B       		.uleb128 0xb
 5123 0182 0B       		.uleb128 0xb
 5124 0183 49       		.uleb128 0x49
 5125 0184 13       		.uleb128 0x13
 5126 0185 3A       		.uleb128 0x3a
 5127 0186 0B       		.uleb128 0xb
 5128 0187 3B       		.uleb128 0x3b
 5129 0188 05       		.uleb128 0x5
 5130 0189 01       		.uleb128 0x1
 5131 018a 13       		.uleb128 0x13
 5132 018b 00       		.byte	0
 5133 018c 00       		.byte	0
 5134 018d 22       		.uleb128 0x22
 5135 018e 28       		.uleb128 0x28
 5136 018f 00       		.byte	0
 5137 0190 03       		.uleb128 0x3
 5138 0191 08       		.uleb128 0x8
 5139 0192 1C       		.uleb128 0x1c
 5140 0193 0B       		.uleb128 0xb
 5141 0194 00       		.byte	0
 5142 0195 00       		.byte	0
 5143 0196 23       		.uleb128 0x23
 5144 0197 2E       		.uleb128 0x2e
 5145 0198 01       		.byte	0x1
 5146 0199 03       		.uleb128 0x3
 5147 019a 0E       		.uleb128 0xe
 5148 019b 3A       		.uleb128 0x3a
 5149 019c 0B       		.uleb128 0xb
 5150 019d 3B       		.uleb128 0x3b
 5151 019e 05       		.uleb128 0x5
 5152 019f 27       		.uleb128 0x27
 5153 01a0 19       		.uleb128 0x19
 5154 01a1 49       		.uleb128 0x49
 5155 01a2 13       		.uleb128 0x13
 5156 01a3 20       		.uleb128 0x20
 5157 01a4 0B       		.uleb128 0xb
 5158 01a5 01       		.uleb128 0x1
 5159 01a6 13       		.uleb128 0x13
 5160 01a7 00       		.byte	0
 5161 01a8 00       		.byte	0
 5162 01a9 24       		.uleb128 0x24
 5163 01aa 05       		.uleb128 0x5
 5164 01ab 00       		.byte	0
 5165 01ac 03       		.uleb128 0x3
 5166 01ad 0E       		.uleb128 0xe
 5167 01ae 3A       		.uleb128 0x3a
 5168 01af 0B       		.uleb128 0xb
 5169 01b0 3B       		.uleb128 0x3b
 5170 01b1 05       		.uleb128 0x5
 5171 01b2 49       		.uleb128 0x49
 5172 01b3 13       		.uleb128 0x13
 5173 01b4 00       		.byte	0
 5174 01b5 00       		.byte	0
 5175 01b6 25       		.uleb128 0x25
 5176 01b7 2E       		.uleb128 0x2e
 5177 01b8 01       		.byte	0x1
 5178 01b9 03       		.uleb128 0x3
ARM GAS  C:\Users\salaz\AppData\Local\Temp\cc7F8fiw.s 			page 125


 5179 01ba 0E       		.uleb128 0xe
 5180 01bb 3A       		.uleb128 0x3a
 5181 01bc 0B       		.uleb128 0xb
 5182 01bd 3B       		.uleb128 0x3b
 5183 01be 05       		.uleb128 0x5
 5184 01bf 27       		.uleb128 0x27
 5185 01c0 19       		.uleb128 0x19
 5186 01c1 20       		.uleb128 0x20
 5187 01c2 0B       		.uleb128 0xb
 5188 01c3 01       		.uleb128 0x1
 5189 01c4 13       		.uleb128 0x13
 5190 01c5 00       		.byte	0
 5191 01c6 00       		.byte	0
 5192 01c7 26       		.uleb128 0x26
 5193 01c8 2E       		.uleb128 0x2e
 5194 01c9 01       		.byte	0x1
 5195 01ca 3F       		.uleb128 0x3f
 5196 01cb 19       		.uleb128 0x19
 5197 01cc 03       		.uleb128 0x3
 5198 01cd 0E       		.uleb128 0xe
 5199 01ce 3A       		.uleb128 0x3a
 5200 01cf 0B       		.uleb128 0xb
 5201 01d0 3B       		.uleb128 0x3b
 5202 01d1 0B       		.uleb128 0xb
 5203 01d2 11       		.uleb128 0x11
 5204 01d3 01       		.uleb128 0x1
 5205 01d4 12       		.uleb128 0x12
 5206 01d5 06       		.uleb128 0x6
 5207 01d6 40       		.uleb128 0x40
 5208 01d7 18       		.uleb128 0x18
 5209 01d8 9742     		.uleb128 0x2117
 5210 01da 19       		.uleb128 0x19
 5211 01db 01       		.uleb128 0x1
 5212 01dc 13       		.uleb128 0x13
 5213 01dd 00       		.byte	0
 5214 01de 00       		.byte	0
 5215 01df 27       		.uleb128 0x27
 5216 01e0 34       		.uleb128 0x34
 5217 01e1 00       		.byte	0
 5218 01e2 03       		.uleb128 0x3
 5219 01e3 0E       		.uleb128 0xe
 5220 01e4 3A       		.uleb128 0x3a
 5221 01e5 0B       		.uleb128 0xb
 5222 01e6 3B       		.uleb128 0x3b
 5223 01e7 0B       		.uleb128 0xb
 5224 01e8 49       		.uleb128 0x49
 5225 01e9 13       		.uleb128 0x13
 5226 01ea 02       		.uleb128 0x2
 5227 01eb 18       		.uleb128 0x18
 5228 01ec 00       		.byte	0
 5229 01ed 00       		.byte	0
 5230 01ee 28       		.uleb128 0x28
 5231 01ef 34       		.uleb128 0x34
 5232 01f0 00       		.byte	0
 5233 01f1 03       		.uleb128 0x3
 5234 01f2 0E       		.uleb128 0xe
 5235 01f3 3A       		.uleb128 0x3a
ARM GAS  C:\Users\salaz\AppData\Local\Temp\cc7F8fiw.s 			page 126


 5236 01f4 0B       		.uleb128 0xb
 5237 01f5 3B       		.uleb128 0x3b
 5238 01f6 0B       		.uleb128 0xb
 5239 01f7 49       		.uleb128 0x49
 5240 01f8 13       		.uleb128 0x13
 5241 01f9 02       		.uleb128 0x2
 5242 01fa 17       		.uleb128 0x17
 5243 01fb 00       		.byte	0
 5244 01fc 00       		.byte	0
 5245 01fd 29       		.uleb128 0x29
 5246 01fe 1D       		.uleb128 0x1d
 5247 01ff 01       		.byte	0x1
 5248 0200 31       		.uleb128 0x31
 5249 0201 13       		.uleb128 0x13
 5250 0202 11       		.uleb128 0x11
 5251 0203 01       		.uleb128 0x1
 5252 0204 12       		.uleb128 0x12
 5253 0205 06       		.uleb128 0x6
 5254 0206 58       		.uleb128 0x58
 5255 0207 0B       		.uleb128 0xb
 5256 0208 59       		.uleb128 0x59
 5257 0209 0B       		.uleb128 0xb
 5258 020a 01       		.uleb128 0x1
 5259 020b 13       		.uleb128 0x13
 5260 020c 00       		.byte	0
 5261 020d 00       		.byte	0
 5262 020e 2A       		.uleb128 0x2a
 5263 020f 05       		.uleb128 0x5
 5264 0210 00       		.byte	0
 5265 0211 31       		.uleb128 0x31
 5266 0212 13       		.uleb128 0x13
 5267 0213 02       		.uleb128 0x2
 5268 0214 17       		.uleb128 0x17
 5269 0215 00       		.byte	0
 5270 0216 00       		.byte	0
 5271 0217 2B       		.uleb128 0x2b
 5272 0218 0B       		.uleb128 0xb
 5273 0219 01       		.byte	0x1
 5274 021a 11       		.uleb128 0x11
 5275 021b 01       		.uleb128 0x1
 5276 021c 12       		.uleb128 0x12
 5277 021d 06       		.uleb128 0x6
 5278 021e 01       		.uleb128 0x1
 5279 021f 13       		.uleb128 0x13
 5280 0220 00       		.byte	0
 5281 0221 00       		.byte	0
 5282 0222 2C       		.uleb128 0x2c
 5283 0223 898201   		.uleb128 0x4109
 5284 0226 01       		.byte	0x1
 5285 0227 11       		.uleb128 0x11
 5286 0228 01       		.uleb128 0x1
 5287 0229 31       		.uleb128 0x31
 5288 022a 13       		.uleb128 0x13
 5289 022b 00       		.byte	0
 5290 022c 00       		.byte	0
 5291 022d 2D       		.uleb128 0x2d
 5292 022e 8A8201   		.uleb128 0x410a
ARM GAS  C:\Users\salaz\AppData\Local\Temp\cc7F8fiw.s 			page 127


 5293 0231 00       		.byte	0
 5294 0232 02       		.uleb128 0x2
 5295 0233 18       		.uleb128 0x18
 5296 0234 9142     		.uleb128 0x2111
 5297 0236 18       		.uleb128 0x18
 5298 0237 00       		.byte	0
 5299 0238 00       		.byte	0
 5300 0239 2E       		.uleb128 0x2e
 5301 023a 1D       		.uleb128 0x1d
 5302 023b 01       		.byte	0x1
 5303 023c 31       		.uleb128 0x31
 5304 023d 13       		.uleb128 0x13
 5305 023e 11       		.uleb128 0x11
 5306 023f 01       		.uleb128 0x1
 5307 0240 12       		.uleb128 0x12
 5308 0241 06       		.uleb128 0x6
 5309 0242 58       		.uleb128 0x58
 5310 0243 0B       		.uleb128 0xb
 5311 0244 59       		.uleb128 0x59
 5312 0245 05       		.uleb128 0x5
 5313 0246 01       		.uleb128 0x1
 5314 0247 13       		.uleb128 0x13
 5315 0248 00       		.byte	0
 5316 0249 00       		.byte	0
 5317 024a 2F       		.uleb128 0x2f
 5318 024b 898201   		.uleb128 0x4109
 5319 024e 01       		.byte	0x1
 5320 024f 11       		.uleb128 0x11
 5321 0250 01       		.uleb128 0x1
 5322 0251 31       		.uleb128 0x31
 5323 0252 13       		.uleb128 0x13
 5324 0253 01       		.uleb128 0x1
 5325 0254 13       		.uleb128 0x13
 5326 0255 00       		.byte	0
 5327 0256 00       		.byte	0
 5328 0257 30       		.uleb128 0x30
 5329 0258 898201   		.uleb128 0x4109
 5330 025b 00       		.byte	0
 5331 025c 11       		.uleb128 0x11
 5332 025d 01       		.uleb128 0x1
 5333 025e 31       		.uleb128 0x31
 5334 025f 13       		.uleb128 0x13
 5335 0260 00       		.byte	0
 5336 0261 00       		.byte	0
 5337 0262 31       		.uleb128 0x31
 5338 0263 34       		.uleb128 0x34
 5339 0264 00       		.byte	0
 5340 0265 03       		.uleb128 0x3
 5341 0266 0E       		.uleb128 0xe
 5342 0267 3A       		.uleb128 0x3a
 5343 0268 0B       		.uleb128 0xb
 5344 0269 3B       		.uleb128 0x3b
 5345 026a 05       		.uleb128 0x5
 5346 026b 49       		.uleb128 0x49
 5347 026c 13       		.uleb128 0x13
 5348 026d 3F       		.uleb128 0x3f
 5349 026e 19       		.uleb128 0x19
ARM GAS  C:\Users\salaz\AppData\Local\Temp\cc7F8fiw.s 			page 128


 5350 026f 3C       		.uleb128 0x3c
 5351 0270 19       		.uleb128 0x19
 5352 0271 00       		.byte	0
 5353 0272 00       		.byte	0
 5354 0273 32       		.uleb128 0x32
 5355 0274 34       		.uleb128 0x34
 5356 0275 00       		.byte	0
 5357 0276 03       		.uleb128 0x3
 5358 0277 0E       		.uleb128 0xe
 5359 0278 3A       		.uleb128 0x3a
 5360 0279 0B       		.uleb128 0xb
 5361 027a 3B       		.uleb128 0x3b
 5362 027b 0B       		.uleb128 0xb
 5363 027c 49       		.uleb128 0x49
 5364 027d 13       		.uleb128 0x13
 5365 027e 3F       		.uleb128 0x3f
 5366 027f 19       		.uleb128 0x19
 5367 0280 3C       		.uleb128 0x3c
 5368 0281 19       		.uleb128 0x19
 5369 0282 00       		.byte	0
 5370 0283 00       		.byte	0
 5371 0284 33       		.uleb128 0x33
 5372 0285 34       		.uleb128 0x34
 5373 0286 00       		.byte	0
 5374 0287 03       		.uleb128 0x3
 5375 0288 0E       		.uleb128 0xe
 5376 0289 3A       		.uleb128 0x3a
 5377 028a 0B       		.uleb128 0xb
 5378 028b 3B       		.uleb128 0x3b
 5379 028c 0B       		.uleb128 0xb
 5380 028d 49       		.uleb128 0x49
 5381 028e 13       		.uleb128 0x13
 5382 028f 3F       		.uleb128 0x3f
 5383 0290 19       		.uleb128 0x19
 5384 0291 02       		.uleb128 0x2
 5385 0292 18       		.uleb128 0x18
 5386 0293 00       		.byte	0
 5387 0294 00       		.byte	0
 5388 0295 34       		.uleb128 0x34
 5389 0296 2E       		.uleb128 0x2e
 5390 0297 00       		.byte	0
 5391 0298 3F       		.uleb128 0x3f
 5392 0299 19       		.uleb128 0x19
 5393 029a 3C       		.uleb128 0x3c
 5394 029b 19       		.uleb128 0x19
 5395 029c 6E       		.uleb128 0x6e
 5396 029d 0E       		.uleb128 0xe
 5397 029e 03       		.uleb128 0x3
 5398 029f 0E       		.uleb128 0xe
 5399 02a0 3A       		.uleb128 0x3a
 5400 02a1 0B       		.uleb128 0xb
 5401 02a2 3B       		.uleb128 0x3b
 5402 02a3 0B       		.uleb128 0xb
 5403 02a4 00       		.byte	0
 5404 02a5 00       		.byte	0
 5405 02a6 35       		.uleb128 0x35
 5406 02a7 2E       		.uleb128 0x2e
ARM GAS  C:\Users\salaz\AppData\Local\Temp\cc7F8fiw.s 			page 129


 5407 02a8 00       		.byte	0
 5408 02a9 3F       		.uleb128 0x3f
 5409 02aa 19       		.uleb128 0x19
 5410 02ab 3C       		.uleb128 0x3c
 5411 02ac 19       		.uleb128 0x19
 5412 02ad 6E       		.uleb128 0x6e
 5413 02ae 0E       		.uleb128 0xe
 5414 02af 03       		.uleb128 0x3
 5415 02b0 0E       		.uleb128 0xe
 5416 02b1 3A       		.uleb128 0x3a
 5417 02b2 0B       		.uleb128 0xb
 5418 02b3 3B       		.uleb128 0x3b
 5419 02b4 0B       		.uleb128 0xb
 5420 02b5 6E       		.uleb128 0x6e
 5421 02b6 0E       		.uleb128 0xe
 5422 02b7 00       		.byte	0
 5423 02b8 00       		.byte	0
 5424 02b9 36       		.uleb128 0x36
 5425 02ba 2E       		.uleb128 0x2e
 5426 02bb 00       		.byte	0
 5427 02bc 3F       		.uleb128 0x3f
 5428 02bd 19       		.uleb128 0x19
 5429 02be 3C       		.uleb128 0x3c
 5430 02bf 19       		.uleb128 0x19
 5431 02c0 6E       		.uleb128 0x6e
 5432 02c1 0E       		.uleb128 0xe
 5433 02c2 03       		.uleb128 0x3
 5434 02c3 0E       		.uleb128 0xe
 5435 02c4 3A       		.uleb128 0x3a
 5436 02c5 0B       		.uleb128 0xb
 5437 02c6 3B       		.uleb128 0x3b
 5438 02c7 05       		.uleb128 0x5
 5439 02c8 00       		.byte	0
 5440 02c9 00       		.byte	0
 5441 02ca 00       		.byte	0
 5442              		.section	.debug_loc,"",%progbits
 5443              	.Ldebug_loc0:
 5444              	.LLST0:
 5445 0000 98030000 		.4byte	.LVL59
 5446 0004 A6030000 		.4byte	.LVL60
 5447 0008 0A00     		.2byte	0xa
 5448 000a 71       		.byte	0x71
 5449 000b 00       		.sleb128 0
 5450 000c 48       		.byte	0x48
 5451 000d 24       		.byte	0x24
 5452 000e 72       		.byte	0x72
 5453 000f 00       		.sleb128 0
 5454 0010 48       		.byte	0x48
 5455 0011 24       		.byte	0x24
 5456 0012 29       		.byte	0x29
 5457 0013 9F       		.byte	0x9f
 5458 0014 A6030000 		.4byte	.LVL60
 5459 0018 B8030000 		.4byte	.LVL62
 5460 001c 0F00     		.2byte	0xf
 5461 001e 71       		.byte	0x71
 5462 001f 00       		.sleb128 0
 5463 0020 48       		.byte	0x48
ARM GAS  C:\Users\salaz\AppData\Local\Temp\cc7F8fiw.s 			page 130


 5464 0021 24       		.byte	0x24
 5465 0022 03       		.byte	0x3
 5466 0023 00000000 		.4byte	current_state.18944
 5467 0027 94       		.byte	0x94
 5468 0028 01       		.byte	0x1
 5469 0029 48       		.byte	0x48
 5470 002a 24       		.byte	0x24
 5471 002b 29       		.byte	0x29
 5472 002c 9F       		.byte	0x9f
 5473 002d B8030000 		.4byte	.LVL62
 5474 0031 BA030000 		.4byte	.LVL63
 5475 0035 1000     		.2byte	0x10
 5476 0037 03       		.byte	0x3
 5477 0038 00000000 		.4byte	current_state.18944
 5478 003c 94       		.byte	0x94
 5479 003d 01       		.byte	0x1
 5480 003e 03       		.byte	0x3
 5481 003f 00000000 		.4byte	current_state.18944
 5482 0043 94       		.byte	0x94
 5483 0044 01       		.byte	0x1
 5484 0045 29       		.byte	0x29
 5485 0046 9F       		.byte	0x9f
 5486 0047 00000000 		.4byte	0
 5487 004b 00000000 		.4byte	0
 5488              	.LLST1:
 5489 004f 1C000000 		.4byte	.LVL0
 5490 0053 28000000 		.4byte	.LVL1
 5491 0057 0600     		.2byte	0x6
 5492 0059 0C       		.byte	0xc
 5493 005a 00006640 		.4byte	0x40660000
 5494 005e 9F       		.byte	0x9f
 5495 005f 00000000 		.4byte	0
 5496 0063 00000000 		.4byte	0
 5497              	.LLST2:
 5498 0067 28000000 		.4byte	.LVL1
 5499 006b 30000000 		.4byte	.LVL2
 5500 006f 0600     		.2byte	0x6
 5501 0071 0C       		.byte	0xc
 5502 0072 00006640 		.4byte	0x40660000
 5503 0076 9F       		.byte	0x9f
 5504 0077 00000000 		.4byte	0
 5505 007b 00000000 		.4byte	0
 5506              	.LLST3:
 5507 007f 44000000 		.4byte	.LVL3
 5508 0083 50000000 		.4byte	.LVL4
 5509 0087 0600     		.2byte	0x6
 5510 0089 0C       		.byte	0xc
 5511 008a 00006640 		.4byte	0x40660000
 5512 008e 9F       		.byte	0x9f
 5513 008f 00000000 		.4byte	0
 5514 0093 00000000 		.4byte	0
 5515              	.LLST4:
 5516 0097 50000000 		.4byte	.LVL4
 5517 009b 58000000 		.4byte	.LVL5
 5518 009f 0600     		.2byte	0x6
 5519 00a1 0C       		.byte	0xc
 5520 00a2 00006640 		.4byte	0x40660000
ARM GAS  C:\Users\salaz\AppData\Local\Temp\cc7F8fiw.s 			page 131


 5521 00a6 9F       		.byte	0x9f
 5522 00a7 00000000 		.4byte	0
 5523 00ab 00000000 		.4byte	0
 5524              	.LLST5:
 5525 00af 7E000000 		.4byte	.LVL8
 5526 00b3 8A000000 		.4byte	.LVL9
 5527 00b7 0600     		.2byte	0x6
 5528 00b9 0C       		.byte	0xc
 5529 00ba 00006640 		.4byte	0x40660000
 5530 00be 9F       		.byte	0x9f
 5531 00bf 00000000 		.4byte	0
 5532 00c3 00000000 		.4byte	0
 5533              	.LLST6:
 5534 00c7 8A000000 		.4byte	.LVL9
 5535 00cb 92000000 		.4byte	.LVL10
 5536 00cf 0600     		.2byte	0x6
 5537 00d1 0C       		.byte	0xc
 5538 00d2 00006640 		.4byte	0x40660000
 5539 00d6 9F       		.byte	0x9f
 5540 00d7 00000000 		.4byte	0
 5541 00db 00000000 		.4byte	0
 5542              	.LLST7:
 5543 00df DC000000 		.4byte	.LVL15
 5544 00e3 E8000000 		.4byte	.LVL16
 5545 00e7 0600     		.2byte	0x6
 5546 00e9 0C       		.byte	0xc
 5547 00ea 00006640 		.4byte	0x40660000
 5548 00ee 9F       		.byte	0x9f
 5549 00ef 00000000 		.4byte	0
 5550 00f3 00000000 		.4byte	0
 5551              	.LLST8:
 5552 00f7 E8000000 		.4byte	.LVL16
 5553 00fb F0000000 		.4byte	.LVL17
 5554 00ff 0600     		.2byte	0x6
 5555 0101 0C       		.byte	0xc
 5556 0102 00006640 		.4byte	0x40660000
 5557 0106 9F       		.byte	0x9f
 5558 0107 00000000 		.4byte	0
 5559 010b 00000000 		.4byte	0
 5560              	.LLST9:
 5561 010f 1E010000 		.4byte	.LVL20
 5562 0113 2A010000 		.4byte	.LVL21
 5563 0117 0600     		.2byte	0x6
 5564 0119 0C       		.byte	0xc
 5565 011a 00006640 		.4byte	0x40660000
 5566 011e 9F       		.byte	0x9f
 5567 011f 00000000 		.4byte	0
 5568 0123 00000000 		.4byte	0
 5569              	.LLST10:
 5570 0127 2A010000 		.4byte	.LVL21
 5571 012b 32010000 		.4byte	.LVL22
 5572 012f 0600     		.2byte	0x6
 5573 0131 0C       		.byte	0xc
 5574 0132 00006640 		.4byte	0x40660000
 5575 0136 9F       		.byte	0x9f
 5576 0137 00000000 		.4byte	0
 5577 013b 00000000 		.4byte	0
ARM GAS  C:\Users\salaz\AppData\Local\Temp\cc7F8fiw.s 			page 132


 5578              	.LLST11:
 5579 013f 6E010000 		.4byte	.LVL26
 5580 0143 7A010000 		.4byte	.LVL27
 5581 0147 0600     		.2byte	0x6
 5582 0149 0C       		.byte	0xc
 5583 014a 00006640 		.4byte	0x40660000
 5584 014e 9F       		.byte	0x9f
 5585 014f 00000000 		.4byte	0
 5586 0153 00000000 		.4byte	0
 5587              	.LLST12:
 5588 0157 7A010000 		.4byte	.LVL27
 5589 015b 82010000 		.4byte	.LVL28
 5590 015f 0600     		.2byte	0x6
 5591 0161 0C       		.byte	0xc
 5592 0162 00006640 		.4byte	0x40660000
 5593 0166 9F       		.byte	0x9f
 5594 0167 00000000 		.4byte	0
 5595 016b 00000000 		.4byte	0
 5596              	.LLST13:
 5597 016f D0010000 		.4byte	.LVL32
 5598 0173 DC010000 		.4byte	.LVL33
 5599 0177 0600     		.2byte	0x6
 5600 0179 0C       		.byte	0xc
 5601 017a 00006640 		.4byte	0x40660000
 5602 017e 9F       		.byte	0x9f
 5603 017f 00000000 		.4byte	0
 5604 0183 00000000 		.4byte	0
 5605              	.LLST14:
 5606 0187 DC010000 		.4byte	.LVL33
 5607 018b E4010000 		.4byte	.LVL34
 5608 018f 0600     		.2byte	0x6
 5609 0191 0C       		.byte	0xc
 5610 0192 00006640 		.4byte	0x40660000
 5611 0196 9F       		.byte	0x9f
 5612 0197 00000000 		.4byte	0
 5613 019b 00000000 		.4byte	0
 5614              	.LLST15:
 5615 019f F8010000 		.4byte	.LVL35
 5616 01a3 04020000 		.4byte	.LVL36
 5617 01a7 0600     		.2byte	0x6
 5618 01a9 0C       		.byte	0xc
 5619 01aa 00006640 		.4byte	0x40660000
 5620 01ae 9F       		.byte	0x9f
 5621 01af 00000000 		.4byte	0
 5622 01b3 00000000 		.4byte	0
 5623              	.LLST16:
 5624 01b7 04020000 		.4byte	.LVL36
 5625 01bb 0C020000 		.4byte	.LVL37
 5626 01bf 0600     		.2byte	0x6
 5627 01c1 0C       		.byte	0xc
 5628 01c2 00006640 		.4byte	0x40660000
 5629 01c6 9F       		.byte	0x9f
 5630 01c7 00000000 		.4byte	0
 5631 01cb 00000000 		.4byte	0
 5632              	.LLST17:
 5633 01cf A6030000 		.4byte	.LVL60
 5634 01d3 AE030000 		.4byte	.LVL61
ARM GAS  C:\Users\salaz\AppData\Local\Temp\cc7F8fiw.s 			page 133


 5635 01d7 0100     		.2byte	0x1
 5636 01d9 52       		.byte	0x52
 5637 01da 00000000 		.4byte	0
 5638 01de 00000000 		.4byte	0
 5639              		.section	.debug_aranges,"",%progbits
 5640 0000 1C000000 		.4byte	0x1c
 5641 0004 0200     		.2byte	0x2
 5642 0006 00000000 		.4byte	.Ldebug_info0
 5643 000a 04       		.byte	0x4
 5644 000b 00       		.byte	0
 5645 000c 0000     		.2byte	0
 5646 000e 0000     		.2byte	0
 5647 0010 00000000 		.4byte	.LFB792
 5648 0014 D0030000 		.4byte	.LFE792-.LFB792
 5649 0018 00000000 		.4byte	0
 5650 001c 00000000 		.4byte	0
 5651              		.section	.debug_ranges,"",%progbits
 5652              	.Ldebug_ranges0:
 5653 0000 00000000 		.4byte	.LFB792
 5654 0004 D0030000 		.4byte	.LFE792
 5655 0008 00000000 		.4byte	0
 5656 000c 00000000 		.4byte	0
 5657              		.section	.debug_line,"",%progbits
 5658              	.Ldebug_line0:
 5659 0000 25060000 		.section	.debug_str,"MS",%progbits,1
 5659      0200C404 
 5659      00000201 
 5659      FB0E0D00 
 5659      01010101 
 5660              	.LASF572:
 5661 0000 5A49475A 		.ascii	"ZIGZAG\000"
 5661      414700
 5662              	.LASF209:
 5663 0007 52534552 		.ascii	"RSERVED1\000"
 5663      56454431 
 5663      00
 5664              	.LASF428:
 5665 0010 43595F42 		.ascii	"CY_BLE_EVT_PENDING_FLASH_WRITE\000"
 5665      4C455F45 
 5665      56545F50 
 5665      454E4449 
 5665      4E475F46 
 5666              	.LASF508:
 5667 002f 43595F42 		.ascii	"CY_BLE_EVT_GATTC_READ_BY_TYPE_RSP\000"
 5667      4C455F45 
 5667      56545F47 
 5667      41545443 
 5667      5F524541 
 5668              	.LASF636:
 5669 0051 41707043 		.ascii	"AppControlHandler\000"
 5669      6F6E7472 
 5669      6F6C4861 
 5669      6E646C65 
 5669      7200
 5670              	.LASF583:
 5671 0063 46534D5F 		.ascii	"FSM_DAY\000"
 5671      44415900 
ARM GAS  C:\Users\salaz\AppData\Local\Temp\cc7F8fiw.s 			page 134


 5672              	.LASF626:
 5673 006b 4B696E4F 		.ascii	"KinOS_SetupTimerA\000"
 5673      535F5365 
 5673      74757054 
 5673      696D6572 
 5673      4100
 5674              	.LASF627:
 5675 007d 4B696E4F 		.ascii	"KinOS_SetupTimerB\000"
 5675      535F5365 
 5675      74757054 
 5675      696D6572 
 5675      4200
 5676              	.LASF564:
 5677 008f 4359414E 		.ascii	"CYAN\000"
 5677      00
 5678              	.LASF215:
 5679 0094 73697A65 		.ascii	"sizetype\000"
 5679      74797065 
 5679      00
 5680              	.LASF523:
 5681 009d 43595F42 		.ascii	"CY_BLE_EVT_GATTS_DATA_SIGNED_CMD_REQ\000"
 5681      4C455F45 
 5681      56545F47 
 5681      41545453 
 5681      5F444154 
 5682              	.LASF362:
 5683 00c2 43595F53 		.ascii	"CY_SCB_UART_SMARTCARD\000"
 5683      43425F55 
 5683      4152545F 
 5683      534D4152 
 5683      54434152 
 5684              	.LASF456:
 5685 00d8 43595F42 		.ascii	"CY_BLE_EVT_SET_DEVICE_ADDR_COMPLETE\000"
 5685      4C455F45 
 5685      56545F53 
 5685      45545F44 
 5685      45564943 
 5686              	.LASF246:
 5687 00fc 52585F4D 		.ascii	"RX_MATCH\000"
 5687      41544348 
 5687      00
 5688              	.LASF173:
 5689 0105 7564625F 		.ascii	"udb_interrupts_12_IRQn\000"
 5689      696E7465 
 5689      72727570 
 5689      74735F31 
 5689      325F4952 
 5690              	.LASF7:
 5691 011c 4E766963 		.ascii	"NvicMux1_IRQn\000"
 5691      4D757831 
 5691      5F495251 
 5691      6E00
 5692              	.LASF408:
 5693 012a 63795F73 		.ascii	"cy_stc_scb_uart_context\000"
 5693      74635F73 
 5693      63625F75 
 5693      6172745F 
ARM GAS  C:\Users\salaz\AppData\Local\Temp\cc7F8fiw.s 			page 135


 5693      636F6E74 
 5694              	.LASF52:
 5695 0142 696F7373 		.ascii	"ioss_interrupts_gpio_13_IRQn\000"
 5695      5F696E74 
 5695      65727275 
 5695      7074735F 
 5695      6770696F 
 5696              	.LASF584:
 5697 015f 46534D5F 		.ascii	"FSM_NIGHT\000"
 5697      4E494748 
 5697      5400
 5698              	.LASF225:
 5699 0169 55415254 		.ascii	"UART_CTRL\000"
 5699      5F435452 
 5699      4C00
 5700              	.LASF306:
 5701 0173 63617074 		.ascii	"captureInputMode\000"
 5701      75726549 
 5701      6E707574 
 5701      4D6F6465 
 5701      00
 5702              	.LASF415:
 5703 0184 72784275 		.ascii	"rxBuf\000"
 5703      6600
 5704              	.LASF455:
 5705 018a 43595F42 		.ascii	"CY_BLE_EVT_SOFT_RESET_COMPLETE\000"
 5705      4C455F45 
 5705      56545F53 
 5705      4F46545F 
 5705      52455345 
 5706              	.LASF204:
 5707 01a9 696E7433 		.ascii	"int32_t\000"
 5707      325F7400 
 5708              	.LASF462:
 5709 01b1 43595F42 		.ascii	"CY_BLE_EVT_SET_CLK_CONFIG_COMPLETE\000"
 5709      4C455F45 
 5709      56545F53 
 5709      45545F43 
 5709      4C4B5F43 
 5710              	.LASF130:
 5711 01d4 74637077 		.ascii	"tcpwm_0_interrupts_1_IRQn\000"
 5711      6D5F305F 
 5711      696E7465 
 5711      72727570 
 5711      74735F31 
 5712              	.LASF13:
 5713 01ee 4E766963 		.ascii	"NvicMux7_IRQn\000"
 5713      4D757837 
 5713      5F495251 
 5713      6E00
 5714              	.LASF36:
 5715 01fc 4E766963 		.ascii	"NvicMux30_IRQn\000"
 5715      4D757833 
 5715      305F4952 
 5715      516E00
 5716              	.LASF461:
 5717 020b 43595F42 		.ascii	"CY_BLE_EVT_GET_CLK_CONFIG_COMPLETE\000"
ARM GAS  C:\Users\salaz\AppData\Local\Temp\cc7F8fiw.s 			page 136


 5717      4C455F45 
 5717      56545F47 
 5717      45545F43 
 5717      4C4B5F43 
 5718              	.LASF553:
 5719 022e 43595F42 		.ascii	"CY_BLE_CONN_STATE_CLIENT_DESCR_DISCOVERING\000"
 5719      4C455F43 
 5719      4F4E4E5F 
 5719      53544154 
 5719      455F434C 
 5720              	.LASF519:
 5721 0259 43595F42 		.ascii	"CY_BLE_EVT_GATTC_EXEC_WRITE_RSP\000"
 5721      4C455F45 
 5721      56545F47 
 5721      41545443 
 5721      5F455845 
 5722              	.LASF291:
 5723 0279 75696E74 		.ascii	"uint32\000"
 5723      333200
 5724              	.LASF68:
 5725 0280 63707573 		.ascii	"cpuss_interrupts_ipc_4_IRQn\000"
 5725      735F696E 
 5725      74657272 
 5725      75707473 
 5725      5F697063 
 5726              	.LASF136:
 5727 029c 74637077 		.ascii	"tcpwm_0_interrupts_7_IRQn\000"
 5727      6D5F305F 
 5727      696E7465 
 5727      72727570 
 5727      74735F37 
 5728              	.LASF44:
 5729 02b6 696F7373 		.ascii	"ioss_interrupts_gpio_5_IRQn\000"
 5729      5F696E74 
 5729      65727275 
 5729      7074735F 
 5729      6770696F 
 5730              	.LASF628:
 5731 02d2 4B696E4F 		.ascii	"KinOS_ConfigureLight\000"
 5731      535F436F 
 5731      6E666967 
 5731      7572654C 
 5731      69676874 
 5732              	.LASF430:
 5733 02e7 43595F42 		.ascii	"CY_BLE_EVT_HARDWARE_ERROR\000"
 5733      4C455F45 
 5733      56545F48 
 5733      41524457 
 5733      4152455F 
 5734              	.LASF85:
 5735 0301 7363625F 		.ascii	"scb_5_interrupt_IRQn\000"
 5735      355F696E 
 5735      74657272 
 5735      7570745F 
 5735      4952516E 
 5736              	.LASF385:
 5737 0316 656E6162 		.ascii	"enableMsbFirst\000"
ARM GAS  C:\Users\salaz\AppData\Local\Temp\cc7F8fiw.s 			page 137


 5737      6C654D73 
 5737      62466972 
 5737      737400
 5738              	.LASF61:
 5739 0325 73727373 		.ascii	"srss_interrupt_IRQn\000"
 5739      5F696E74 
 5739      65727275 
 5739      70745F49 
 5739      52516E00 
 5740              	.LASF409:
 5741 0339 74785374 		.ascii	"txStatus\000"
 5741      61747573 
 5741      00
 5742              	.LASF538:
 5743 0342 43595F42 		.ascii	"CY_BLE_EVT_MAX\000"
 5743      4C455F45 
 5743      56545F4D 
 5743      415800
 5744              	.LASF174:
 5745 0351 7564625F 		.ascii	"udb_interrupts_13_IRQn\000"
 5745      696E7465 
 5745      72727570 
 5745      74735F31 
 5745      335F4952 
 5746              	.LASF143:
 5747 0368 74637077 		.ascii	"tcpwm_1_interrupts_6_IRQn\000"
 5747      6D5F315F 
 5747      696E7465 
 5747      72727570 
 5747      74735F36 
 5748              	.LASF124:
 5749 0382 63707573 		.ascii	"cpuss_interrupt_fm_IRQn\000"
 5749      735F696E 
 5749      74657272 
 5749      7570745F 
 5749      666D5F49 
 5750              	.LASF341:
 5751 039a 73746174 		.ascii	"state\000"
 5751      6500
 5752              	.LASF164:
 5753 03a0 7564625F 		.ascii	"udb_interrupts_3_IRQn\000"
 5753      696E7465 
 5753      72727570 
 5753      74735F33 
 5753      5F495251 
 5754              	.LASF566:
 5755 03b6 4D414745 		.ascii	"MAGENTA\000"
 5755      4E544100 
 5756              	.LASF637:
 5757 03be 70757473 		.ascii	"puts\000"
 5757      00
 5758              	.LASF265:
 5759 03c3 494E5452 		.ascii	"INTR_M\000"
 5759      5F4D00
 5760              	.LASF404:
 5761 03ca 72784669 		.ascii	"rxFifoIntEnableMask\000"
 5761      666F496E 
ARM GAS  C:\Users\salaz\AppData\Local\Temp\cc7F8fiw.s 			page 138


 5761      74456E61 
 5761      626C654D 
 5761      61736B00 
 5762              	.LASF6:
 5763 03de 4E766963 		.ascii	"NvicMux0_IRQn\000"
 5763      4D757830 
 5763      5F495251 
 5763      6E00
 5764              	.LASF302:
 5765 03ec 636F6D70 		.ascii	"compare0\000"
 5765      61726530 
 5765      00
 5766              	.LASF303:
 5767 03f5 636F6D70 		.ascii	"compare1\000"
 5767      61726531 
 5767      00
 5768              	.LASF180:
 5769 03fe 70726F66 		.ascii	"profile_interrupt_IRQn\000"
 5769      696C655F 
 5769      696E7465 
 5769      72727570 
 5769      745F4952 
 5770              	.LASF51:
 5771 0415 696F7373 		.ascii	"ioss_interrupts_gpio_12_IRQn\000"
 5771      5F696E74 
 5771      65727275 
 5771      7074735F 
 5771      6770696F 
 5772              	.LASF100:
 5773 0432 63707573 		.ascii	"cpuss_interrupts_dw0_11_IRQn\000"
 5773      735F696E 
 5773      74657272 
 5773      75707473 
 5773      5F647730 
 5774              	.LASF403:
 5775 044f 72784669 		.ascii	"rxFifoTriggerLevel\000"
 5775      666F5472 
 5775      69676765 
 5775      724C6576 
 5775      656C00
 5776              	.LASF186:
 5777 0462 64697363 		.ascii	"disconnected_IRQn\000"
 5777      6F6E6E65 
 5777      63746564 
 5777      5F495251 
 5777      6E00
 5778              	.LASF624:
 5779 0474 4B696E4F 		.ascii	"KinOS_IsConnected\000"
 5779      535F4973 
 5779      436F6E6E 
 5779      65637465 
 5779      6400
 5780              	.LASF181:
 5781 0486 736D6966 		.ascii	"smif_interrupt_IRQn\000"
 5781      5F696E74 
 5781      65727275 
 5781      70745F49 
ARM GAS  C:\Users\salaz\AppData\Local\Temp\cc7F8fiw.s 			page 139


 5781      52516E00 
 5782              	.LASF151:
 5783 049a 74637077 		.ascii	"tcpwm_1_interrupts_14_IRQn\000"
 5783      6D5F315F 
 5783      696E7465 
 5783      72727570 
 5783      74735F31 
 5784              	.LASF454:
 5785 04b5 43595F42 		.ascii	"CY_BLE_EVT_LL_CNTRL_PROC_PENDING_COMPLETE\000"
 5785      4C455F45 
 5785      56545F4C 
 5785      4C5F434E 
 5785      54524C5F 
 5786              	.LASF120:
 5787 04df 63707573 		.ascii	"cpuss_interrupts_dw1_15_IRQn\000"
 5787      735F696E 
 5787      74657272 
 5787      75707473 
 5787      5F647731 
 5788              	.LASF314:
 5789 04fc 636F756E 		.ascii	"countInputMode\000"
 5789      74496E70 
 5789      75744D6F 
 5789      646500
 5790              	.LASF280:
 5791 050b 494E5452 		.ascii	"INTR_RX\000"
 5791      5F525800 
 5792              	.LASF212:
 5793 0513 49435052 		.ascii	"ICPR\000"
 5793      00
 5794              	.LASF234:
 5795 0518 4932435F 		.ascii	"I2C_CFG\000"
 5795      43464700 
 5796              	.LASF579:
 5797 0520 46534D5F 		.ascii	"FSM_IDLE\000"
 5797      49444C45 
 5797      00
 5798              	.LASF332:
 5799 0529 63795F73 		.ascii	"cy_stc_tcpwm_pwm_config_t\000"
 5799      74635F74 
 5799      6370776D 
 5799      5F70776D 
 5799      5F636F6E 
 5800              	.LASF93:
 5801 0543 63707573 		.ascii	"cpuss_interrupts_dw0_4_IRQn\000"
 5801      735F696E 
 5801      74657272 
 5801      75707473 
 5801      5F647730 
 5802              	.LASF635:
 5803 055f 5F5F4E56 		.ascii	"__NVIC_ClearPendingIRQ\000"
 5803      49435F43 
 5803      6C656172 
 5803      50656E64 
 5803      696E6749 
 5804              	.LASF610:
 5805 0576 4368696D 		.ascii	"ChimeOutput_config\000"
ARM GAS  C:\Users\salaz\AppData\Local\Temp\cc7F8fiw.s 			page 140


 5805      654F7574 
 5805      7075745F 
 5805      636F6E66 
 5805      696700
 5806              	.LASF497:
 5807 0589 43595F42 		.ascii	"CY_BLE_EVT_GAP_GEN_SET_LOCAL_P256_KEYS_COMPLETE\000"
 5807      4C455F45 
 5807      56545F47 
 5807      41505F47 
 5807      454E5F53 
 5808              	.LASF67:
 5809 05b9 63707573 		.ascii	"cpuss_interrupts_ipc_3_IRQn\000"
 5809      735F696E 
 5809      74657272 
 5809      75707473 
 5809      5F697063 
 5810              	.LASF135:
 5811 05d5 74637077 		.ascii	"tcpwm_0_interrupts_6_IRQn\000"
 5811      6D5F305F 
 5811      696E7465 
 5811      72727570 
 5811      74735F36 
 5812              	.LASF168:
 5813 05ef 7564625F 		.ascii	"udb_interrupts_7_IRQn\000"
 5813      696E7465 
 5813      72727570 
 5813      74735F37 
 5813      5F495251 
 5814              	.LASF43:
 5815 0605 696F7373 		.ascii	"ioss_interrupts_gpio_4_IRQn\000"
 5815      5F696E74 
 5815      65727275 
 5815      7074735F 
 5815      6770696F 
 5816              	.LASF526:
 5817 0621 43595F42 		.ascii	"CY_BLE_EVT_GATTC_LONG_PROCEDURE_END\000"
 5817      4C455F45 
 5817      56545F47 
 5817      41545443 
 5817      5F4C4F4E 
 5818              	.LASF19:
 5819 0645 4E766963 		.ascii	"NvicMux13_IRQn\000"
 5819      4D757831 
 5819      335F4952 
 5819      516E00
 5820              	.LASF244:
 5821 0654 52585F46 		.ascii	"RX_FIFO_STATUS\000"
 5821      49464F5F 
 5821      53544154 
 5821      555300
 5822              	.LASF531:
 5823 0663 43595F42 		.ascii	"CY_BLE_EVT_L2CAP_CBFC_CONN_CNF\000"
 5823      4C455F45 
 5823      56545F4C 
 5823      32434150 
 5823      5F434246 
 5824              	.LASF539:
ARM GAS  C:\Users\salaz\AppData\Local\Temp\cc7F8fiw.s 			page 141


 5825 0682 62644861 		.ascii	"bdHandle\000"
 5825      6E646C65 
 5825      00
 5826              	.LASF192:
 5827 068b 5F5F7569 		.ascii	"__uint8_t\000"
 5827      6E74385F 
 5827      7400
 5828              	.LASF108:
 5829 0695 63707573 		.ascii	"cpuss_interrupts_dw1_3_IRQn\000"
 5829      735F696E 
 5829      74657272 
 5829      75707473 
 5829      5F647731 
 5830              	.LASF292:
 5831 06b1 696E7472 		.ascii	"intrSrc\000"
 5831      53726300 
 5832              	.LASF282:
 5833 06b9 494E5452 		.ascii	"INTR_RX_MASK\000"
 5833      5F52585F 
 5833      4D41534B 
 5833      00
 5834              	.LASF339:
 5835 06c6 75736552 		.ascii	"useRxFifo\000"
 5835      78466966 
 5835      6F00
 5836              	.LASF390:
 5837 06d0 64726F70 		.ascii	"dropOnFrameError\000"
 5837      4F6E4672 
 5837      616D6545 
 5837      72726F72 
 5837      00
 5838              	.LASF521:
 5839 06e1 43595F42 		.ascii	"CY_BLE_EVT_GATTC_HANDLE_VALUE_IND\000"
 5839      4C455F45 
 5839      56545F47 
 5839      41545443 
 5839      5F48414E 
 5840              	.LASF329:
 5841 0703 73776170 		.ascii	"swapInput\000"
 5841      496E7075 
 5841      7400
 5842              	.LASF419:
 5843 070d 74784275 		.ascii	"txBufSize\000"
 5843      6653697A 
 5843      6500
 5844              	.LASF426:
 5845 0717 43595F42 		.ascii	"CY_BLE_EVT_STACK_BUSY_STATUS\000"
 5845      4C455F45 
 5845      56545F53 
 5845      5441434B 
 5845      5F425553 
 5846              	.LASF196:
 5847 0734 6C6F6E67 		.ascii	"long int\000"
 5847      20696E74 
 5847      00
 5848              	.LASF505:
 5849 073d 43595F42 		.ascii	"CY_BLE_EVT_GATTS_XCNHG_MTU_REQ\000"
ARM GAS  C:\Users\salaz\AppData\Local\Temp\cc7F8fiw.s 			page 142


 5849      4C455F45 
 5849      56545F47 
 5849      41545453 
 5849      5F58434E 
 5850              	.LASF472:
 5851 075c 43595F42 		.ascii	"CY_BLE_EVT_SET_EVENT_MASK_COMPLETE\000"
 5851      4C455F45 
 5851      56545F53 
 5851      45545F45 
 5851      56454E54 
 5852              	.LASF554:
 5853 077f 43595F42 		.ascii	"CY_BLE_CONN_STATE_CLIENT_DISCOVERED\000"
 5853      4C455F43 
 5853      4F4E4E5F 
 5853      53544154 
 5853      455F434C 
 5854              	.LASF614:
 5855 07a3 72696465 		.ascii	"rideNightCheck_ms\000"
 5855      4E696768 
 5855      74436865 
 5855      636B5F6D 
 5855      7300
 5856              	.LASF161:
 5857 07b5 7564625F 		.ascii	"udb_interrupts_0_IRQn\000"
 5857      696E7465 
 5857      72727570 
 5857      74735F30 
 5857      5F495251 
 5858              	.LASF227:
 5859 07cb 55415254 		.ascii	"UART_RX_CTRL\000"
 5859      5F52585F 
 5859      4354524C 
 5859      00
 5860              	.LASF150:
 5861 07d8 74637077 		.ascii	"tcpwm_1_interrupts_13_IRQn\000"
 5861      6D5F315F 
 5861      696E7465 
 5861      72727570 
 5861      74735F31 
 5862              	.LASF514:
 5863 07f3 43595F42 		.ascii	"CY_BLE_EVT_GATTS_WRITE_REQ\000"
 5863      4C455F45 
 5863      56545F47 
 5863      41545453 
 5863      5F575249 
 5864              	.LASF222:
 5865 080e 5350495F 		.ascii	"SPI_CTRL\000"
 5865      4354524C 
 5865      00
 5866              	.LASF613:
 5867 0817 6E696768 		.ascii	"nightThreshold\000"
 5867      74546872 
 5867      6573686F 
 5867      6C6400
 5868              	.LASF29:
 5869 0826 4E766963 		.ascii	"NvicMux23_IRQn\000"
 5869      4D757832 
ARM GAS  C:\Users\salaz\AppData\Local\Temp\cc7F8fiw.s 			page 143


 5869      335F4952 
 5869      516E00
 5870              	.LASF308:
 5871 0835 72656C6F 		.ascii	"reloadInputMode\000"
 5871      6164496E 
 5871      7075744D 
 5871      6F646500 
 5872              	.LASF561:
 5873 0845 65706F63 		.ascii	"epoch\000"
 5873      6800
 5874              	.LASF275:
 5875 084b 494E5452 		.ascii	"INTR_TX\000"
 5875      5F545800 
 5876              	.LASF278:
 5877 0853 494E5452 		.ascii	"INTR_TX_MASKED\000"
 5877      5F54585F 
 5877      4D41534B 
 5877      454400
 5878              	.LASF589:
 5879 0862 4952516E 		.ascii	"IRQn\000"
 5879      00
 5880              	.LASF562:
 5881 0867 59454C4C 		.ascii	"YELLOW\000"
 5881      4F5700
 5882              	.LASF453:
 5883 086e 43595F42 		.ascii	"CY_BLE_EVT_SET_PRIVACY_MODE_COMPLETE\000"
 5883      4C455F45 
 5883      56545F53 
 5883      45545F50 
 5883      52495641 
 5884              	.LASF193:
 5885 0893 5F5F7569 		.ascii	"__uint16_t\000"
 5885      6E743136 
 5885      5F7400
 5886              	.LASF75:
 5887 089e 63707573 		.ascii	"cpuss_interrupts_ipc_11_IRQn\000"
 5887      735F696E 
 5887      74657272 
 5887      75707473 
 5887      5F697063 
 5888              	.LASF484:
 5889 08bb 43595F42 		.ascii	"CY_BLE_EVT_GAP_ENCRYPT_CHANGE\000"
 5889      4C455F45 
 5889      56545F47 
 5889      41505F45 
 5889      4E435259 
 5890              	.LASF498:
 5891 08d9 43595F42 		.ascii	"CY_BLE_EVT_GAP_CREATE_CONN_CANCEL_COMPLETE\000"
 5891      4C455F45 
 5891      56545F47 
 5891      41505F43 
 5891      52454154 
 5892              	.LASF444:
 5893 0904 43595F42 		.ascii	"CY_BLE_EVT_SET_HOST_CHANNEL_COMPLETE\000"
 5893      4C455F45 
 5893      56545F53 
 5893      45545F48 
ARM GAS  C:\Users\salaz\AppData\Local\Temp\cc7F8fiw.s 			page 144


 5893      4F53545F 
 5894              	.LASF601:
 5895 0929 55415254 		.ascii	"UART_DEBUG_config\000"
 5895      5F444542 
 5895      55475F63 
 5895      6F6E6669 
 5895      6700
 5896              	.LASF623:
 5897 093b 4B696E4F 		.ascii	"KinOS_CheckTimerA\000"
 5897      535F4368 
 5897      65636B54 
 5897      696D6572 
 5897      4100
 5898              	.LASF622:
 5899 094d 4B696E4F 		.ascii	"KinOS_CheckTimerB\000"
 5899      535F4368 
 5899      65636B54 
 5899      696D6572 
 5899      4200
 5900              	.LASF599:
 5901 095f 63795F62 		.ascii	"cy_ble_pendingFlashWrite\000"
 5901      6C655F70 
 5901      656E6469 
 5901      6E67466C 
 5901      61736857 
 5902              	.LASF281:
 5903 0978 494E5452 		.ascii	"INTR_RX_SET\000"
 5903      5F52585F 
 5903      53455400 
 5904              	.LASF543:
 5905 0984 43595F42 		.ascii	"CY_BLE_ADV_STATE_ADV_INITIATED\000"
 5905      4C455F41 
 5905      44565F53 
 5905      54415445 
 5905      5F414456 
 5906              	.LASF425:
 5907 09a3 43595F42 		.ascii	"CY_BLE_EVT_TIMEOUT\000"
 5907      4C455F45 
 5907      56545F54 
 5907      494D454F 
 5907      555400
 5908              	.LASF107:
 5909 09b6 63707573 		.ascii	"cpuss_interrupts_dw1_2_IRQn\000"
 5909      735F696E 
 5909      74657272 
 5909      75707473 
 5909      5F647731 
 5910              	.LASF5:
 5911 09d2 53797354 		.ascii	"SysTick_IRQn\000"
 5911      69636B5F 
 5911      4952516E 
 5911      00
 5912              	.LASF563:
 5913 09df 47524545 		.ascii	"GREEN\000"
 5913      4E00
 5914              	.LASF606:
 5915 09e5 4C696768 		.ascii	"LightTimer_config\000"
ARM GAS  C:\Users\salaz\AppData\Local\Temp\cc7F8fiw.s 			page 145


 5915      7454696D 
 5915      65725F63 
 5915      6F6E6669 
 5915      6700
 5916              	.LASF446:
 5917 09f7 43595F42 		.ascii	"CY_BLE_EVT_REMOVE_DEVICE_FROM_RPA_LIST_COMPLETE\000"
 5917      4C455F45 
 5917      56545F52 
 5917      454D4F56 
 5917      455F4445 
 5918              	.LASF232:
 5919 0a27 4932435F 		.ascii	"I2C_M_CMD\000"
 5919      4D5F434D 
 5919      4400
 5920              	.LASF88:
 5921 0a31 6373645F 		.ascii	"csd_interrupt_IRQn\000"
 5921      696E7465 
 5921      72727570 
 5921      745F4952 
 5921      516E00
 5922              	.LASF422:
 5923 0a44 63795F73 		.ascii	"cy_stc_scb_uart_context_t\000"
 5923      74635F73 
 5923      63625F75 
 5923      6172745F 
 5923      636F6E74 
 5924              	.LASF570:
 5925 0a5e 534D4F4F 		.ascii	"SMOOTH\000"
 5925      544800
 5926              	.LASF191:
 5927 0a65 7369676E 		.ascii	"signed char\000"
 5927      65642063 
 5927      68617200 
 5928              	.LASF492:
 5929 0a71 43595F42 		.ascii	"CY_BLE_EVT_GAPC_DIRECT_ADV_REPORT\000"
 5929      4C455F45 
 5929      56545F47 
 5929      4150435F 
 5929      44495245 
 5930              	.LASF202:
 5931 0a93 75696E74 		.ascii	"uint8_t\000"
 5931      385F7400 
 5932              	.LASF517:
 5933 0a9b 43595F42 		.ascii	"CY_BLE_EVT_GATTS_PREP_WRITE_REQ\000"
 5933      4C455F45 
 5933      56545F47 
 5933      41545453 
 5933      5F505245 
 5934              	.LASF322:
 5935 0abb 70657269 		.ascii	"period0\000"
 5935      6F643000 
 5936              	.LASF323:
 5937 0ac3 70657269 		.ascii	"period1\000"
 5937      6F643100 
 5938              	.LASF427:
 5939 0acb 43595F42 		.ascii	"CY_BLE_EVT_MEMORY_REQUEST\000"
 5939      4C455F45 
ARM GAS  C:\Users\salaz\AppData\Local\Temp\cc7F8fiw.s 			page 146


 5939      56545F4D 
 5939      454D4F52 
 5939      595F5245 
 5940              	.LASF394:
 5941 0ae5 61636365 		.ascii	"acceptAddrInFifo\000"
 5941      70744164 
 5941      6472496E 
 5941      4669666F 
 5941      00
 5942              	.LASF34:
 5943 0af6 4E766963 		.ascii	"NvicMux28_IRQn\000"
 5943      4D757832 
 5943      385F4952 
 5943      516E00
 5944              	.LASF71:
 5945 0b05 63707573 		.ascii	"cpuss_interrupts_ipc_7_IRQn\000"
 5945      735F696E 
 5945      74657272 
 5945      75707473 
 5945      5F697063 
 5946              	.LASF353:
 5947 0b21 736C6176 		.ascii	"slaveTxBufferIdx\000"
 5947      65547842 
 5947      75666665 
 5947      72496478 
 5947      00
 5948              	.LASF535:
 5949 0b32 43595F42 		.ascii	"CY_BLE_EVT_L2CAP_CBFC_RX_CREDIT_IND\000"
 5949      4C455F45 
 5949      56545F4C 
 5949      32434150 
 5949      5F434246 
 5950              	.LASF522:
 5951 0b56 43595F42 		.ascii	"CY_BLE_EVT_GATTS_HANDLE_VALUE_CNF\000"
 5951      4C455F45 
 5951      56545F47 
 5951      41545453 
 5951      5F48414E 
 5952              	.LASF47:
 5953 0b78 696F7373 		.ascii	"ioss_interrupts_gpio_8_IRQn\000"
 5953      5F696E74 
 5953      65727275 
 5953      7074735F 
 5953      6770696F 
 5954              	.LASF87:
 5955 0b94 7363625F 		.ascii	"scb_7_interrupt_IRQn\000"
 5955      375F696E 
 5955      74657272 
 5955      7570745F 
 5955      4952516E 
 5956              	.LASF413:
 5957 0ba9 72785269 		.ascii	"rxRingBufHead\000"
 5957      6E674275 
 5957      66486561 
 5957      6400
 5958              	.LASF355:
 5959 0bb7 736C6176 		.ascii	"slaveRxBuffer\000"
ARM GAS  C:\Users\salaz\AppData\Local\Temp\cc7F8fiw.s 			page 147


 5959      65527842 
 5959      75666665 
 5959      7200
 5960              	.LASF207:
 5961 0bc5 52455345 		.ascii	"RESERVED0\000"
 5961      52564544 
 5961      3000
 5962              	.LASF224:
 5963 0bcf 52455345 		.ascii	"RESERVED1\000"
 5963      52564544 
 5963      3100
 5964              	.LASF188:
 5965 0bd9 756E7369 		.ascii	"unsigned char\000"
 5965      676E6564 
 5965      20636861 
 5965      7200
 5966              	.LASF277:
 5967 0be7 494E5452 		.ascii	"INTR_TX_MASK\000"
 5967      5F54585F 
 5967      4D41534B 
 5967      00
 5968              	.LASF214:
 5969 0bf4 52455345 		.ascii	"RESERVED4\000"
 5969      52564544 
 5969      3400
 5970              	.LASF239:
 5971 0bfe 52455345 		.ascii	"RESERVED5\000"
 5971      52564544 
 5971      3500
 5972              	.LASF241:
 5973 0c08 52455345 		.ascii	"RESERVED6\000"
 5973      52564544 
 5973      3600
 5974              	.LASF245:
 5975 0c12 52455345 		.ascii	"RESERVED7\000"
 5975      52564544 
 5975      3700
 5976              	.LASF247:
 5977 0c1c 52455345 		.ascii	"RESERVED8\000"
 5977      52564544 
 5977      3800
 5978              	.LASF250:
 5979 0c26 52455345 		.ascii	"RESERVED9\000"
 5979      52564544 
 5979      3900
 5980              	.LASF360:
 5981 0c30 63795F73 		.ascii	"cy_stc_scb_i2c_context_t\000"
 5981      74635F73 
 5981      63625F69 
 5981      32635F63 
 5981      6F6E7465 
 5982              	.LASF401:
 5983 0c49 72747350 		.ascii	"rtsPolarity\000"
 5983      6F6C6172 
 5983      69747900 
 5984              	.LASF552:
 5985 0c55 43595F42 		.ascii	"CY_BLE_CONN_STATE_CLIENT_CHAR_DISCOVERING\000"
ARM GAS  C:\Users\salaz\AppData\Local\Temp\cc7F8fiw.s 			page 148


 5985      4C455F43 
 5985      4F4E4E5F 
 5985      53544154 
 5985      455F434C 
 5986              	.LASF184:
 5987 0c7f 7573625F 		.ascii	"usb_interrupt_lo_IRQn\000"
 5987      696E7465 
 5987      72727570 
 5987      745F6C6F 
 5987      5F495251 
 5988              	.LASF509:
 5989 0c95 43595F42 		.ascii	"CY_BLE_EVT_GATTC_FIND_INFO_RSP\000"
 5989      4C455F45 
 5989      56545F47 
 5989      41545443 
 5989      5F46494E 
 5990              	.LASF477:
 5991 0cb4 43595F42 		.ascii	"CY_BLE_EVT_GAP_PASSKEY_ENTRY_REQUEST\000"
 5991      4C455F45 
 5991      56545F47 
 5991      41505F50 
 5991      4153534B 
 5992              	.LASF434:
 5993 0cd9 43595F42 		.ascii	"CY_BLE_EVT_LE_SET_EVENT_MASK_COMPLETE\000"
 5993      4C455F45 
 5993      56545F4C 
 5993      455F5345 
 5993      545F4556 
 5994              	.LASF431:
 5995 0cff 43595F42 		.ascii	"CY_BLE_EVT_WRITE_AUTH_PAYLOAD_TO_COMPLETE\000"
 5995      4C455F45 
 5995      56545F57 
 5995      52495445 
 5995      5F415554 
 5996              	.LASF608:
 5997 0d29 4D6F746F 		.ascii	"MotorOutput_config\000"
 5997      724F7574 
 5997      7075745F 
 5997      636F6E66 
 5997      696700
 5998              	.LASF597:
 5999 0d3c 63795F62 		.ascii	"cy_ble_connHandle\000"
 5999      6C655F63 
 5999      6F6E6E48 
 5999      616E646C 
 5999      6500
 6000              	.LASF38:
 6001 0d4e 756E636F 		.ascii	"unconnected_IRQn\000"
 6001      6E6E6563 
 6001      7465645F 
 6001      4952516E 
 6001      00
 6002              	.LASF9:
 6003 0d5f 4E766963 		.ascii	"NvicMux3_IRQn\000"
 6003      4D757833 
 6003      5F495251 
 6003      6E00
ARM GAS  C:\Users\salaz\AppData\Local\Temp\cc7F8fiw.s 			page 149


 6004              	.LASF296:
 6005 0d6d 5F426F6F 		.ascii	"_Bool\000"
 6005      6C00
 6006              	.LASF632:
 6007 0d73 474E5520 		.ascii	"GNU C11 5.4.1 20160609 (release) [ARM/embedded-5-br"
 6007      43313120 
 6007      352E342E 
 6007      31203230 
 6007      31363036 
 6008 0da6 616E6368 		.ascii	"anch revision 237715] -mcpu=cortex-m0plus -mthumb -"
 6008      20726576 
 6008      6973696F 
 6008      6E203233 
 6008      37373135 
 6009 0dd9 67202D4F 		.ascii	"g -Og -ffunction-sections -ffat-lto-objects\000"
 6009      67202D66 
 6009      66756E63 
 6009      74696F6E 
 6009      2D736563 
 6010              	.LASF586:
 6011 0e05 43795F53 		.ascii	"Cy_SCB_GetTxSrValid\000"
 6011      43425F47 
 6011      65745478 
 6011      53725661 
 6011      6C696400 
 6012              	.LASF103:
 6013 0e19 63707573 		.ascii	"cpuss_interrupts_dw0_14_IRQn\000"
 6013      735F696E 
 6013      74657272 
 6013      75707473 
 6013      5F647730 
 6014              	.LASF213:
 6015 0e36 52455345 		.ascii	"RESERVED3\000"
 6015      52564544 
 6015      3300
 6016              	.LASF154:
 6017 0e40 74637077 		.ascii	"tcpwm_1_interrupts_17_IRQn\000"
 6017      6D5F315F 
 6017      696E7465 
 6017      72727570 
 6017      74735F31 
 6018              	.LASF618:
 6019 0e5b 73746F6C 		.ascii	"stolenLightCycles\000"
 6019      656E4C69 
 6019      67687443 
 6019      79636C65 
 6019      7300
 6020              	.LASF286:
 6021 0e6d 63686172 		.ascii	"char\000"
 6021      00
 6022              	.LASF524:
 6023 0e72 43595F42 		.ascii	"CY_BLE_EVT_GATTC_STOP_CMD_COMPLETE\000"
 6023      4C455F45 
 6023      56545F47 
 6023      41545443 
 6023      5F53544F 
 6024              	.LASF233:
ARM GAS  C:\Users\salaz\AppData\Local\Temp\cc7F8fiw.s 			page 150


 6025 0e95 4932435F 		.ascii	"I2C_S_CMD\000"
 6025      535F434D 
 6025      4400
 6026              	.LASF183:
 6027 0e9f 7573625F 		.ascii	"usb_interrupt_med_IRQn\000"
 6027      696E7465 
 6027      72727570 
 6027      745F6D65 
 6027      645F4952 
 6028              	.LASF39:
 6029 0eb6 696F7373 		.ascii	"ioss_interrupts_gpio_0_IRQn\000"
 6029      5F696E74 
 6029      65727275 
 6029      7074735F 
 6029      6770696F 
 6030              	.LASF611:
 6031 0ed2 4368696D 		.ascii	"ChimeTimer_config\000"
 6031      6554696D 
 6031      65725F63 
 6031      6F6E6669 
 6031      6700
 6032              	.LASF270:
 6033 0ee4 494E5452 		.ascii	"INTR_S\000"
 6033      5F5300
 6034              	.LASF96:
 6035 0eeb 63707573 		.ascii	"cpuss_interrupts_dw0_7_IRQn\000"
 6035      735F696E 
 6035      74657272 
 6035      75707473 
 6035      5F647730 
 6036              	.LASF449:
 6037 0f07 43595F42 		.ascii	"CY_BLE_EVT_GET_PHY_COMPLETE\000"
 6037      4C455F45 
 6037      56545F47 
 6037      45545F50 
 6037      48595F43 
 6038              	.LASF451:
 6039 0f23 43595F42 		.ascii	"CY_BLE_EVT_SET_PHY_COMPLETE\000"
 6039      4C455F45 
 6039      56545F53 
 6039      45545F50 
 6039      48595F43 
 6040              	.LASF466:
 6041 0f3f 43595F42 		.ascii	"CY_BLE_EVT_AES_CCM_DECRYPT_COMPLETE\000"
 6041      4C455F45 
 6041      56545F41 
 6041      45535F43 
 6041      434D5F44 
 6042              	.LASF299:
 6043 0f63 72756E4D 		.ascii	"runMode\000"
 6043      6F646500 
 6044              	.LASF139:
 6045 0f6b 74637077 		.ascii	"tcpwm_1_interrupts_2_IRQn\000"
 6045      6D5F315F 
 6045      696E7465 
 6045      72727570 
 6045      74735F32 
ARM GAS  C:\Users\salaz\AppData\Local\Temp\cc7F8fiw.s 			page 151


 6046              	.LASF70:
 6047 0f85 63707573 		.ascii	"cpuss_interrupts_ipc_6_IRQn\000"
 6047      735F696E 
 6047      74657272 
 6047      75707473 
 6047      5F697063 
 6048              	.LASF416:
 6049 0fa1 72784275 		.ascii	"rxBufSize\000"
 6049      6653697A 
 6049      6500
 6050              	.LASF226:
 6051 0fab 55415254 		.ascii	"UART_TX_CTRL\000"
 6051      5F54585F 
 6051      4354524C 
 6051      00
 6052              	.LASF46:
 6053 0fb8 696F7373 		.ascii	"ioss_interrupts_gpio_7_IRQn\000"
 6053      5F696E74 
 6053      65727275 
 6053      7074735F 
 6053      6770696F 
 6054              	.LASF22:
 6055 0fd4 4E766963 		.ascii	"NvicMux16_IRQn\000"
 6055      4D757831 
 6055      365F4952 
 6055      516E00
 6056              	.LASF240:
 6057 0fe3 54585F46 		.ascii	"TX_FIFO_WR\000"
 6057      49464F5F 
 6057      575200
 6058              	.LASF605:
 6059 0fee 4C696768 		.ascii	"LightOutputA_config\000"
 6059      744F7574 
 6059      70757441 
 6059      5F636F6E 
 6059      66696700 
 6060              	.LASF298:
 6061 1002 636C6F63 		.ascii	"clockPrescaler\000"
 6061      6B507265 
 6061      7363616C 
 6061      657200
 6062              	.LASF576:
 6063 1011 4359424F 		.ascii	"CYBORG\000"
 6063      524700
 6064              	.LASF211:
 6065 1018 52455345 		.ascii	"RESERVED2\000"
 6065      52564544 
 6065      3200
 6066              	.LASF111:
 6067 1022 63707573 		.ascii	"cpuss_interrupts_dw1_6_IRQn\000"
 6067      735F696E 
 6067      74657272 
 6067      75707473 
 6067      5F647731 
 6068              	.LASF491:
 6069 103e 43595F42 		.ascii	"CY_BLE_EVT_GAP_ENHANCE_CONN_COMPLETE\000"
 6069      4C455F45 
ARM GAS  C:\Users\salaz\AppData\Local\Temp\cc7F8fiw.s 			page 152


 6069      56545F47 
 6069      41505F45 
 6069      4E48414E 
 6070              	.LASF604:
 6071 1063 4C696768 		.ascii	"LightOutputC_config\000"
 6071      744F7574 
 6071      70757443 
 6071      5F636F6E 
 6071      66696700 
 6072              	.LASF527:
 6073 1077 43595F42 		.ascii	"CY_BLE_EVT_L2CAP_CONN_PARAM_UPDATE_REQ\000"
 6073      4C455F45 
 6073      56545F4C 
 6073      32434150 
 6073      5F434F4E 
 6074              	.LASF199:
 6075 109e 6C6F6E67 		.ascii	"long long int\000"
 6075      206C6F6E 
 6075      6720696E 
 6075      7400
 6076              	.LASF147:
 6077 10ac 74637077 		.ascii	"tcpwm_1_interrupts_10_IRQn\000"
 6077      6D5F315F 
 6077      696E7465 
 6077      72727570 
 6077      74735F31 
 6078              	.LASF494:
 6079 10c7 43595F42 		.ascii	"CY_BLE_EVT_GAP_DEVICE_ADDR_GEN_COMPLETE\000"
 6079      4C455F45 
 6079      56545F47 
 6079      41505F44 
 6079      45564943 
 6080              	.LASF116:
 6081 10ef 63707573 		.ascii	"cpuss_interrupts_dw1_11_IRQn\000"
 6081      735F696E 
 6081      74657272 
 6081      75707473 
 6081      5F647731 
 6082              	.LASF350:
 6083 110c 736C6176 		.ascii	"slaveRdBufEmpty\000"
 6083      65526442 
 6083      7566456D 
 6083      70747900 
 6084              	.LASF372:
 6085 111c 63795F65 		.ascii	"cy_en_scb_uart_stop_bits_t\000"
 6085      6E5F7363 
 6085      625F7561 
 6085      72745F73 
 6085      746F705F 
 6086              	.LASF89:
 6087 1137 63707573 		.ascii	"cpuss_interrupts_dw0_0_IRQn\000"
 6087      735F696E 
 6087      74657272 
 6087      75707473 
 6087      5F647730 
 6088              	.LASF620:
 6089 1153 4B696E4F 		.ascii	"KinOS_ShakeDetected\000"
ARM GAS  C:\Users\salaz\AppData\Local\Temp\cc7F8fiw.s 			page 153


 6089      535F5368 
 6089      616B6544 
 6089      65746563 
 6089      74656400 
 6090              	.LASF515:
 6091 1167 43595F42 		.ascii	"CY_BLE_EVT_GATTC_WRITE_RSP\000"
 6091      4C455F45 
 6091      56545F47 
 6091      41545443 
 6091      5F575249 
 6092              	.LASF210:
 6093 1182 49535052 		.ascii	"ISPR\000"
 6093      00
 6094              	.LASF556:
 6095 1187 79656172 		.ascii	"year\000"
 6095      00
 6096              	.LASF152:
 6097 118c 74637077 		.ascii	"tcpwm_1_interrupts_15_IRQn\000"
 6097      6D5F315F 
 6097      696E7465 
 6097      72727570 
 6097      74735F31 
 6098              	.LASF153:
 6099 11a7 74637077 		.ascii	"tcpwm_1_interrupts_16_IRQn\000"
 6099      6D5F315F 
 6099      696E7465 
 6099      72727570 
 6099      74735F31 
 6100              	.LASF407:
 6101 11c2 63795F73 		.ascii	"cy_stc_scb_uart_config_t\000"
 6101      74635F73 
 6101      63625F75 
 6101      6172745F 
 6101      636F6E66 
 6102              	.LASF432:
 6103 11db 43595F42 		.ascii	"CY_BLE_EVT_READ_AUTH_PAYLOAD_TO_COMPLETE\000"
 6103      4C455F45 
 6103      56545F52 
 6103      4541445F 
 6103      41555448 
 6104              	.LASF565:
 6105 1204 424C5545 		.ascii	"BLUE\000"
 6105      00
 6106              	.LASF32:
 6107 1209 4E766963 		.ascii	"NvicMux26_IRQn\000"
 6107      4D757832 
 6107      365F4952 
 6107      516E00
 6108              	.LASF354:
 6109 1218 736C6176 		.ascii	"slaveTxBufferCnt\000"
 6109      65547842 
 6109      75666665 
 6109      72436E74 
 6109      00
 6110              	.LASF520:
 6111 1229 43595F42 		.ascii	"CY_BLE_EVT_GATTC_HANDLE_VALUE_NTF\000"
 6111      4C455F45 
ARM GAS  C:\Users\salaz\AppData\Local\Temp\cc7F8fiw.s 			page 154


 6111      56545F47 
 6111      41545443 
 6111      5F48414E 
 6112              	.LASF490:
 6113 124b 43595F42 		.ascii	"CY_BLE_EVT_GAP_OOB_GENERATED_NOTIFICATION\000"
 6113      4C455F45 
 6113      56545F47 
 6113      41505F4F 
 6113      4F425F47 
 6114              	.LASF474:
 6115 1275 43595F42 		.ascii	"CY_BLE_EVT_SET_CONN_PRIORITY_COMPLETE\000"
 6115      4C455F45 
 6115      56545F53 
 6115      45545F43 
 6115      4F4E4E5F 
 6116              	.LASF170:
 6117 129b 7564625F 		.ascii	"udb_interrupts_9_IRQn\000"
 6117      696E7465 
 6117      72727570 
 6117      74735F39 
 6117      5F495251 
 6118              	.LASF318:
 6119 12b1 63795F73 		.ascii	"cy_stc_tcpwm_pwm_config\000"
 6119      74635F74 
 6119      6370776D 
 6119      5F70776D 
 6119      5F636F6E 
 6120              	.LASF78:
 6121 12c9 63707573 		.ascii	"cpuss_interrupts_ipc_14_IRQn\000"
 6121      735F696E 
 6121      74657272 
 6121      75707473 
 6121      5F697063 
 6122              	.LASF450:
 6123 12e6 43595F42 		.ascii	"CY_BLE_EVT_SET_DEFAULT_PHY_COMPLETE\000"
 6123      4C455F45 
 6123      56545F53 
 6123      45545F44 
 6123      45464155 
 6124              	.LASF295:
 6125 130a 63795F73 		.ascii	"cy_stc_sysint_t\000"
 6125      74635F73 
 6125      7973696E 
 6125      745F7400 
 6126              	.LASF582:
 6127 131a 46534D5F 		.ascii	"FSM_STOLEN\000"
 6127      53544F4C 
 6127      454E00
 6128              	.LASF157:
 6129 1325 74637077 		.ascii	"tcpwm_1_interrupts_20_IRQn\000"
 6129      6D5F315F 
 6129      696E7465 
 6129      72727570 
 6129      74735F32 
 6130              	.LASF185:
 6131 1340 70617373 		.ascii	"pass_interrupt_dacs_IRQn\000"
 6131      5F696E74 
ARM GAS  C:\Users\salaz\AppData\Local\Temp\cc7F8fiw.s 			page 155


 6131      65727275 
 6131      70745F64 
 6131      6163735F 
 6132              	.LASF221:
 6133 1359 52455345 		.ascii	"RESERVED\000"
 6133      52564544 
 6133      00
 6134              	.LASF110:
 6135 1362 63707573 		.ascii	"cpuss_interrupts_dw1_5_IRQn\000"
 6135      735F696E 
 6135      74657272 
 6135      75707473 
 6135      5F647731 
 6136              	.LASF228:
 6137 137e 55415254 		.ascii	"UART_RX_STATUS\000"
 6137      5F52585F 
 6137      53544154 
 6137      555300
 6138              	.LASF122:
 6139 138d 63707573 		.ascii	"cpuss_interrupts_fault_1_IRQn\000"
 6139      735F696E 
 6139      74657272 
 6139      75707473 
 6139      5F666175 
 6140              	.LASF612:
 6141 13ab 6D6F726E 		.ascii	"morningThreshold\000"
 6141      696E6754 
 6141      68726573 
 6141      686F6C64 
 6141      00
 6142              	.LASF333:
 6143 13bc 43595F53 		.ascii	"CY_SCB_I2C_ACK\000"
 6143      43425F49 
 6143      32435F41 
 6143      434B00
 6144              	.LASF592:
 6145 13cb 63757272 		.ascii	"current_state\000"
 6145      656E745F 
 6145      73746174 
 6145      6500
 6146              	.LASF502:
 6147 13d9 43595F42 		.ascii	"CY_BLE_EVT_GATTC_ERROR_RSP\000"
 6147      4C455F45 
 6147      56545F47 
 6147      41545443 
 6147      5F455252 
 6148              	.LASF253:
 6149 13f4 494E5452 		.ascii	"INTR_CAUSE\000"
 6149      5F434155 
 6149      534500
 6150              	.LASF536:
 6151 13ff 43595F42 		.ascii	"CY_BLE_EVT_L2CAP_CBFC_TX_CREDIT_IND\000"
 6151      4C455F45 
 6151      56545F4C 
 6151      32434150 
 6151      5F434246 
 6152              	.LASF220:
ARM GAS  C:\Users\salaz\AppData\Local\Temp\cc7F8fiw.s 			page 156


 6153 1423 434D445F 		.ascii	"CMD_RESP_STATUS\000"
 6153      52455350 
 6153      5F535441 
 6153      54555300 
 6154              	.LASF163:
 6155 1433 7564625F 		.ascii	"udb_interrupts_2_IRQn\000"
 6155      696E7465 
 6155      72727570 
 6155      74735F32 
 6155      5F495251 
 6156              	.LASF617:
 6157 1449 73746F6C 		.ascii	"stolenAdvertise_s\000"
 6157      656E4164 
 6157      76657274 
 6157      6973655F 
 6157      7300
 6158              	.LASF327:
 6159 145b 6B696C6C 		.ascii	"killMode\000"
 6159      4D6F6465 
 6159      00
 6160              	.LASF631:
 6161 1464 4B696E4F 		.ascii	"KinOS_Disconnect\000"
 6161      535F4469 
 6161      73636F6E 
 6161      6E656374 
 6161      00
 6162              	.LASF530:
 6163 1475 43595F42 		.ascii	"CY_BLE_EVT_L2CAP_CBFC_CONN_IND\000"
 6163      4C455F45 
 6163      56545F4C 
 6163      32434150 
 6163      5F434246 
 6164              	.LASF373:
 6165 1494 43595F53 		.ascii	"CY_SCB_UART_PARITY_NONE\000"
 6165      43425F55 
 6165      4152545F 
 6165      50415249 
 6165      54595F4E 
 6166              	.LASF585:
 6167 14ac 46534D5F 		.ascii	"FSM_RIDE\000"
 6167      52494445 
 6167      00
 6168              	.LASF131:
 6169 14b5 74637077 		.ascii	"tcpwm_0_interrupts_2_IRQn\000"
 6169      6D5F305F 
 6169      696E7465 
 6169      72727570 
 6169      74735F32 
 6170              	.LASF458:
 6171 14cf 43595F42 		.ascii	"CY_BLE_EVT_GET_RSSI_COMPLETE\000"
 6171      4C455F45 
 6171      56545F47 
 6171      45545F52 
 6171      5353495F 
 6172              	.LASF346:
 6173 14ec 6D617374 		.ascii	"masterBufferSize\000"
 6173      65724275 
ARM GAS  C:\Users\salaz\AppData\Local\Temp\cc7F8fiw.s 			page 157


 6173      66666572 
 6173      53697A65 
 6173      00
 6174              	.LASF325:
 6175 14fd 696E7665 		.ascii	"invertPWMOut\000"
 6175      72745057 
 6175      4D4F7574 
 6175      00
 6176              	.LASF1:
 6177 150a 4E6F6E4D 		.ascii	"NonMaskableInt_IRQn\000"
 6177      61736B61 
 6177      626C6549 
 6177      6E745F49 
 6177      52516E00 
 6178              	.LASF358:
 6179 151e 63624576 		.ascii	"cbEvents\000"
 6179      656E7473 
 6179      00
 6180              	.LASF507:
 6181 1527 43595F42 		.ascii	"CY_BLE_EVT_GATTC_READ_BY_GROUP_TYPE_RSP\000"
 6181      4C455F45 
 6181      56545F47 
 6181      41545443 
 6181      5F524541 
 6182              	.LASF198:
 6183 154f 6C6F6E67 		.ascii	"long unsigned int\000"
 6183      20756E73 
 6183      69676E65 
 6183      6420696E 
 6183      7400
 6184              	.LASF293:
 6185 1561 636D3070 		.ascii	"cm0pSrc\000"
 6185      53726300 
 6186              	.LASF486:
 6187 1569 43595F42 		.ascii	"CY_BLE_EVT_GAPC_SCAN_START_STOP\000"
 6187      4C455F45 
 6187      56545F47 
 6187      4150435F 
 6187      5343414E 
 6188              	.LASF12:
 6189 1589 4E766963 		.ascii	"NvicMux6_IRQn\000"
 6189      4D757836 
 6189      5F495251 
 6189      6E00
 6190              	.LASF442:
 6191 1597 43595F42 		.ascii	"CY_BLE_EVT_SET_RPA_TO_COMPLETE\000"
 6191      4C455F45 
 6191      56545F53 
 6191      45545F52 
 6191      50415F54 
 6192              	.LASF578:
 6193 15b6 46534D5F 		.ascii	"FSM_INITIALIZE\000"
 6193      494E4954 
 6193      49414C49 
 6193      5A4500
 6194              	.LASF267:
 6195 15c5 494E5452 		.ascii	"INTR_M_MASK\000"
ARM GAS  C:\Users\salaz\AppData\Local\Temp\cc7F8fiw.s 			page 158


 6195      5F4D5F4D 
 6195      41534B00 
 6196              	.LASF189:
 6197 15d1 4952516E 		.ascii	"IRQn_Type\000"
 6197      5F547970 
 6197      6500
 6198              	.LASF395:
 6199 15db 69726461 		.ascii	"irdaInvertRx\000"
 6199      496E7665 
 6199      72745278 
 6199      00
 6200              	.LASF126:
 6201 15e8 63707573 		.ascii	"cpuss_interrupts_cm0_cti_1_IRQn\000"
 6201      735F696E 
 6201      74657272 
 6201      75707473 
 6201      5F636D30 
 6202              	.LASF529:
 6203 1608 43595F42 		.ascii	"CY_BLE_EVT_L2CAP_COMMAND_REJ\000"
 6203      4C455F45 
 6203      56545F4C 
 6203      32434150 
 6203      5F434F4D 
 6204              	.LASF384:
 6205 1625 64617461 		.ascii	"dataWidth\000"
 6205      57696474 
 6205      6800
 6206              	.LASF349:
 6207 162f 736C6176 		.ascii	"slaveStatus\000"
 6207      65537461 
 6207      74757300 
 6208              	.LASF504:
 6209 163b 43595F42 		.ascii	"CY_BLE_EVT_GATT_DISCONNECT_IND\000"
 6209      4C455F45 
 6209      56545F47 
 6209      4154545F 
 6209      44495343 
 6210              	.LASF324:
 6211 165a 656E6162 		.ascii	"enablePeriodSwap\000"
 6211      6C655065 
 6211      72696F64 
 6211      53776170 
 6211      00
 6212              	.LASF389:
 6213 166b 64726F70 		.ascii	"dropOnParityError\000"
 6213      4F6E5061 
 6213      72697479 
 6213      4572726F 
 6213      7200
 6214              	.LASF381:
 6215 167d 7374635F 		.ascii	"stc_scb_uart_config\000"
 6215      7363625F 
 6215      75617274 
 6215      5F636F6E 
 6215      66696700 
 6216              	.LASF580:
 6217 1691 46534D5F 		.ascii	"FSM_CHECK_MOTION\000"
ARM GAS  C:\Users\salaz\AppData\Local\Temp\cc7F8fiw.s 			page 159


 6217      43484543 
 6217      4B5F4D4F 
 6217      54494F4E 
 6217      00
 6218              	.LASF510:
 6219 16a2 43595F42 		.ascii	"CY_BLE_EVT_GATTC_FIND_BY_TYPE_VALUE_RSP\000"
 6219      4C455F45 
 6219      56545F47 
 6219      41545443 
 6219      5F46494E 
 6220              	.LASF142:
 6221 16ca 74637077 		.ascii	"tcpwm_1_interrupts_5_IRQn\000"
 6221      6D5F315F 
 6221      696E7465 
 6221      72727570 
 6221      74735F35 
 6222              	.LASF73:
 6223 16e4 63707573 		.ascii	"cpuss_interrupts_ipc_9_IRQn\000"
 6223      735F696E 
 6223      74657272 
 6223      75707473 
 6223      5F697063 
 6224              	.LASF25:
 6225 1700 4E766963 		.ascii	"NvicMux19_IRQn\000"
 6225      4D757831 
 6225      395F4952 
 6225      516E00
 6226              	.LASF317:
 6227 170f 63795F73 		.ascii	"cy_stc_tcpwm_counter_config\000"
 6227      74635F74 
 6227      6370776D 
 6227      5F636F75 
 6227      6E746572 
 6228              	.LASF467:
 6229 172b 43595F42 		.ascii	"CY_BLE_EVT_SET_SLAVE_LATENCY_MODE_COMPLETE\000"
 6229      4C455F45 
 6229      56545F53 
 6229      45545F53 
 6229      4C415645 
 6230              	.LASF365:
 6231 1756 43595F53 		.ascii	"CY_SCB_UART_STOP_BITS_1\000"
 6231      43425F55 
 6231      4152545F 
 6231      53544F50 
 6231      5F424954 
 6232              	.LASF82:
 6233 176e 7363625F 		.ascii	"scb_2_interrupt_IRQn\000"
 6233      325F696E 
 6233      74657272 
 6233      7570745F 
 6233      4952516E 
 6234              	.LASF114:
 6235 1783 63707573 		.ascii	"cpuss_interrupts_dw1_9_IRQn\000"
 6235      735F696E 
 6235      74657272 
 6235      75707473 
 6235      5F647731 
ARM GAS  C:\Users\salaz\AppData\Local\Temp\cc7F8fiw.s 			page 160


 6236              	.LASF550:
 6237 179f 43595F42 		.ascii	"CY_BLE_CONN_STATE_CLIENT_SRVC_DISCOVERING\000"
 6237      4C455F43 
 6237      4F4E4E5F 
 6237      53544154 
 6237      455F434C 
 6238              	.LASF463:
 6239 17c9 43595F42 		.ascii	"CY_BLE_EVT_RANDOM_NUM_GEN_COMPLETE\000"
 6239      4C455F45 
 6239      56545F52 
 6239      414E444F 
 6239      4D5F4E55 
 6240              	.LASF50:
 6241 17ec 696F7373 		.ascii	"ioss_interrupts_gpio_11_IRQn\000"
 6241      5F696E74 
 6241      65727275 
 6241      7074735F 
 6241      6770696F 
 6242              	.LASF511:
 6243 1809 43595F42 		.ascii	"CY_BLE_EVT_GATTC_READ_RSP\000"
 6243      4C455F45 
 6243      56545F47 
 6243      41545443 
 6243      5F524541 
 6244              	.LASF99:
 6245 1823 63707573 		.ascii	"cpuss_interrupts_dw0_10_IRQn\000"
 6245      735F696E 
 6245      74657272 
 6245      75707473 
 6245      5F647730 
 6246              	.LASF305:
 6247 1840 696E7465 		.ascii	"interruptSources\000"
 6247      72727570 
 6247      74536F75 
 6247      72636573 
 6247      00
 6248              	.LASF352:
 6249 1851 736C6176 		.ascii	"slaveTxBufferSize\000"
 6249      65547842 
 6249      75666665 
 6249      7253697A 
 6249      6500
 6250              	.LASF41:
 6251 1863 696F7373 		.ascii	"ioss_interrupts_gpio_2_IRQn\000"
 6251      5F696E74 
 6251      65727275 
 6251      7074735F 
 6251      6770696F 
 6252              	.LASF119:
 6253 187f 63707573 		.ascii	"cpuss_interrupts_dw1_14_IRQn\000"
 6253      735F696E 
 6253      74657272 
 6253      75707473 
 6253      5F647731 
 6254              	.LASF328:
 6255 189c 73776170 		.ascii	"swapInputMode\000"
 6255      496E7075 
ARM GAS  C:\Users\salaz\AppData\Local\Temp\cc7F8fiw.s 			page 161


 6255      744D6F64 
 6255      6500
 6256              	.LASF92:
 6257 18aa 63707573 		.ascii	"cpuss_interrupts_dw0_3_IRQn\000"
 6257      735F696E 
 6257      74657272 
 6257      75707473 
 6257      5F647730 
 6258              	.LASF197:
 6259 18c6 5F5F7569 		.ascii	"__uint32_t\000"
 6259      6E743332 
 6259      5F7400
 6260              	.LASF251:
 6261 18d1 455A5F44 		.ascii	"EZ_DATA\000"
 6261      41544100 
 6262              	.LASF66:
 6263 18d9 63707573 		.ascii	"cpuss_interrupts_ipc_2_IRQn\000"
 6263      735F696E 
 6263      74657272 
 6263      75707473 
 6263      5F697063 
 6264              	.LASF242:
 6265 18f5 52585F43 		.ascii	"RX_CTRL\000"
 6265      54524C00 
 6266              	.LASF134:
 6267 18fd 74637077 		.ascii	"tcpwm_0_interrupts_5_IRQn\000"
 6267      6D5F305F 
 6267      696E7465 
 6267      72727570 
 6267      74735F35 
 6268              	.LASF42:
 6269 1917 696F7373 		.ascii	"ioss_interrupts_gpio_3_IRQn\000"
 6269      5F696E74 
 6269      65727275 
 6269      7074735F 
 6269      6770696F 
 6270              	.LASF156:
 6271 1933 74637077 		.ascii	"tcpwm_1_interrupts_19_IRQn\000"
 6271      6D5F315F 
 6271      696E7465 
 6271      72727570 
 6271      74735F31 
 6272              	.LASF448:
 6273 194e 43595F42 		.ascii	"CY_BLE_EVT_REMOVE_DEVICE_FROM_WHITE_LIST_COMPLETE\000"
 6273      4C455F45 
 6273      56545F52 
 6273      454D4F56 
 6273      455F4445 
 6274              	.LASF513:
 6275 1980 43595F42 		.ascii	"CY_BLE_EVT_GATTC_READ_MULTI_RSP\000"
 6275      4C455F45 
 6275      56545F47 
 6275      41545443 
 6275      5F524541 
 6276              	.LASF533:
 6277 19a0 43595F42 		.ascii	"CY_BLE_EVT_L2CAP_CBFC_DISCONN_CNF\000"
 6277      4C455F45 
ARM GAS  C:\Users\salaz\AppData\Local\Temp\cc7F8fiw.s 			page 162


 6277      56545F4C 
 6277      32434150 
 6277      5F434246 
 6278              	.LASF348:
 6279 19c2 6D617374 		.ascii	"masterNumBytes\000"
 6279      65724E75 
 6279      6D427974 
 6279      657300
 6280              	.LASF629:
 6281 19d1 4B696E4F 		.ascii	"KinOS_ConfigureChime\000"
 6281      535F436F 
 6281      6E666967 
 6281      75726543 
 6281      68696D65 
 6282              	.LASF35:
 6283 19e6 4E766963 		.ascii	"NvicMux29_IRQn\000"
 6283      4D757832 
 6283      395F4952 
 6283      516E00
 6284              	.LASF4:
 6285 19f5 50656E64 		.ascii	"PendSV_IRQn\000"
 6285      53565F49 
 6285      52516E00 
 6286              	.LASF98:
 6287 1a01 63707573 		.ascii	"cpuss_interrupts_dw0_9_IRQn\000"
 6287      735F696E 
 6287      74657272 
 6287      75707473 
 6287      5F647730 
 6288              	.LASF268:
 6289 1a1d 494E5452 		.ascii	"INTR_M_MASKED\000"
 6289      5F4D5F4D 
 6289      41534B45 
 6289      4400
 6290              	.LASF172:
 6291 1a2b 7564625F 		.ascii	"udb_interrupts_11_IRQn\000"
 6291      696E7465 
 6291      72727570 
 6291      74735F31 
 6291      315F4952 
 6292              	.LASF560:
 6293 1a42 7365636F 		.ascii	"second\000"
 6293      6E6400
 6294              	.LASF141:
 6295 1a49 74637077 		.ascii	"tcpwm_1_interrupts_4_IRQn\000"
 6295      6D5F315F 
 6295      696E7465 
 6295      72727570 
 6295      74735F34 
 6296              	.LASF559:
 6297 1a63 6D696E75 		.ascii	"minute\000"
 6297      746500
 6298              	.LASF288:
 6299 1a6a 646F7562 		.ascii	"double\000"
 6299      6C6500
 6300              	.LASF3:
 6301 1a71 53564361 		.ascii	"SVCall_IRQn\000"
ARM GAS  C:\Users\salaz\AppData\Local\Temp\cc7F8fiw.s 			page 163


 6301      6C6C5F49 
 6301      52516E00 
 6302              	.LASF534:
 6303 1a7d 43595F42 		.ascii	"CY_BLE_EVT_L2CAP_CBFC_DATA_READ\000"
 6303      4C455F45 
 6303      56545F4C 
 6303      32434150 
 6303      5F434246 
 6304              	.LASF312:
 6305 1a9d 73746F70 		.ascii	"stopInputMode\000"
 6305      496E7075 
 6305      744D6F64 
 6305      6500
 6306              	.LASF621:
 6307 1aab 4B696E4F 		.ascii	"KinOS_Advertise\000"
 6307      535F4164 
 6307      76657274 
 6307      69736500 
 6308              	.LASF160:
 6309 1abb 74637077 		.ascii	"tcpwm_1_interrupts_23_IRQn\000"
 6309      6D5F315F 
 6309      696E7465 
 6309      72727570 
 6309      74735F32 
 6310              	.LASF113:
 6311 1ad6 63707573 		.ascii	"cpuss_interrupts_dw1_8_IRQn\000"
 6311      735F696E 
 6311      74657272 
 6311      75707473 
 6311      5F647731 
 6312              	.LASF417:
 6313 1af2 72784275 		.ascii	"rxBufIdx\000"
 6313      66496478 
 6313      00
 6314              	.LASF638:
 6315 1afb 5F5F6275 		.ascii	"__builtin_puts\000"
 6315      696C7469 
 6315      6E5F7075 
 6315      747300
 6316              	.LASF8:
 6317 1b0a 4E766963 		.ascii	"NvicMux2_IRQn\000"
 6317      4D757832 
 6317      5F495251 
 6317      6E00
 6318              	.LASF378:
 6319 1b18 43595F53 		.ascii	"CY_SCB_UART_ACTIVE_HIGH\000"
 6319      43425F55 
 6319      4152545F 
 6319      41435449 
 6319      56455F48 
 6320              	.LASF387:
 6321 1b30 70617269 		.ascii	"parity\000"
 6321      747900
 6322              	.LASF438:
 6323 1b37 43595F42 		.ascii	"CY_BLE_EVT_GET_DATA_LENGTH_COMPLETE\000"
 6323      4C455F45 
 6323      56545F47 
ARM GAS  C:\Users\salaz\AppData\Local\Temp\cc7F8fiw.s 			page 164


 6323      45545F44 
 6323      4154415F 
 6324              	.LASF149:
 6325 1b5b 74637077 		.ascii	"tcpwm_1_interrupts_12_IRQn\000"
 6325      6D5F315F 
 6325      696E7465 
 6325      72727570 
 6325      74735F31 
 6326              	.LASF287:
 6327 1b76 666C6F61 		.ascii	"float\000"
 6327      7400
 6328              	.LASF499:
 6329 1b7c 43595F42 		.ascii	"CY_BLE_EVT_GAP_CONN_ESTB\000"
 6329      4C455F45 
 6329      56545F47 
 6329      41505F43 
 6329      4F4E4E5F 
 6330              	.LASF476:
 6331 1b95 43595F42 		.ascii	"CY_BLE_EVT_GAP_AUTH_REQ\000"
 6331      4C455F45 
 6331      56545F47 
 6331      41505F41 
 6331      5554485F 
 6332              	.LASF223:
 6333 1bad 5350495F 		.ascii	"SPI_STATUS\000"
 6333      53544154 
 6333      555300
 6334              	.LASF28:
 6335 1bb8 4E766963 		.ascii	"NvicMux22_IRQn\000"
 6335      4D757832 
 6335      325F4952 
 6335      516E00
 6336              	.LASF396:
 6337 1bc7 69726461 		.ascii	"irdaEnableLowPowerReceiver\000"
 6337      456E6162 
 6337      6C654C6F 
 6337      77506F77 
 6337      65725265 
 6338              	.LASF383:
 6339 1be2 6F766572 		.ascii	"oversample\000"
 6339      73616D70 
 6339      6C6500
 6340              	.LASF91:
 6341 1bed 63707573 		.ascii	"cpuss_interrupts_dw0_2_IRQn\000"
 6341      735F696E 
 6341      74657272 
 6341      75707473 
 6341      5F647730 
 6342              	.LASF382:
 6343 1c09 75617274 		.ascii	"uartMode\000"
 6343      4D6F6465 
 6343      00
 6344              	.LASF166:
 6345 1c12 7564625F 		.ascii	"udb_interrupts_5_IRQn\000"
 6345      696E7465 
 6345      72727570 
 6345      74735F35 
ARM GAS  C:\Users\salaz\AppData\Local\Temp\cc7F8fiw.s 			page 165


 6345      5F495251 
 6346              	.LASF201:
 6347 1c28 756E7369 		.ascii	"unsigned int\000"
 6347      676E6564 
 6347      20696E74 
 6347      00
 6348              	.LASF217:
 6349 1c35 4354524C 		.ascii	"CTRL\000"
 6349      00
 6350              	.LASF17:
 6351 1c3a 4E766963 		.ascii	"NvicMux11_IRQn\000"
 6351      4D757831 
 6351      315F4952 
 6351      516E00
 6352              	.LASF74:
 6353 1c49 63707573 		.ascii	"cpuss_interrupts_ipc_10_IRQn\000"
 6353      735F696E 
 6353      74657272 
 6353      75707473 
 6353      5F697063 
 6354              	.LASF548:
 6355 1c66 43595F42 		.ascii	"CY_BLE_CONN_STATE_CLIENT_DISCONNECTED_DISCOVERED\000"
 6355      4C455F43 
 6355      4F4E4E5F 
 6355      53544154 
 6355      455F434C 
 6356              	.LASF633:
 6357 1c97 41707043 		.ascii	"AppControl.c\000"
 6357      6F6E7472 
 6357      6F6C2E63 
 6357      00
 6358              	.LASF319:
 6359 1ca4 70776D4D 		.ascii	"pwmMode\000"
 6359      6F646500 
 6360              	.LASF447:
 6361 1cac 43595F42 		.ascii	"CY_BLE_EVT_ADD_DEVICE_TO_WHITE_LIST_COMPLETE\000"
 6361      4C455F45 
 6361      56545F41 
 6361      44445F44 
 6361      45564943 
 6362              	.LASF106:
 6363 1cd9 63707573 		.ascii	"cpuss_interrupts_dw1_1_IRQn\000"
 6363      735F696E 
 6363      74657272 
 6363      75707473 
 6363      5F647731 
 6364              	.LASF304:
 6365 1cf5 656E6162 		.ascii	"enableCompareSwap\000"
 6365      6C65436F 
 6365      6D706172 
 6365      65537761 
 6365      7000
 6366              	.LASF331:
 6367 1d07 6B696C6C 		.ascii	"killInput\000"
 6367      496E7075 
 6367      7400
 6368              	.LASF489:
ARM GAS  C:\Users\salaz\AppData\Local\Temp\cc7F8fiw.s 			page 166


 6369 1d11 43595F42 		.ascii	"CY_BLE_EVT_GAP_KEYPRESS_NOTIFICATION\000"
 6369      4C455F45 
 6369      56545F47 
 6369      41505F4B 
 6369      45595052 
 6370              	.LASF573:
 6371 1d36 42595041 		.ascii	"BYPASS\000"
 6371      535300
 6372              	.LASF315:
 6373 1d3d 636F756E 		.ascii	"countInput\000"
 6373      74496E70 
 6373      757400
 6374              	.LASF159:
 6375 1d48 74637077 		.ascii	"tcpwm_1_interrupts_22_IRQn\000"
 6375      6D5F315F 
 6375      696E7465 
 6375      72727570 
 6375      74735F32 
 6376              	.LASF551:
 6377 1d63 43595F42 		.ascii	"CY_BLE_CONN_STATE_CLIENT_INCL_DISCOVERING\000"
 6377      4C455F43 
 6377      4F4E4E5F 
 6377      53544154 
 6377      455F434C 
 6378              	.LASF423:
 6379 1d8d 43595F42 		.ascii	"CY_BLE_EVT_INVALID\000"
 6379      4C455F45 
 6379      56545F49 
 6379      4E56414C 
 6379      494400
 6380              	.LASF503:
 6381 1da0 43595F42 		.ascii	"CY_BLE_EVT_GATT_CONNECT_IND\000"
 6381      4C455F45 
 6381      56545F47 
 6381      4154545F 
 6381      434F4E4E 
 6382              	.LASF236:
 6383 1dbc 54585F43 		.ascii	"TX_CTRL\000"
 6383      54524C00 
 6384              	.LASF15:
 6385 1dc4 4E766963 		.ascii	"NvicMux9_IRQn\000"
 6385      4D757839 
 6385      5F495251 
 6385      6E00
 6386              	.LASF257:
 6387 1dd2 494E5452 		.ascii	"INTR_I2C_EC_MASK\000"
 6387      5F493243 
 6387      5F45435F 
 6387      4D41534B 
 6387      00
 6388              	.LASF542:
 6389 1de3 43595F42 		.ascii	"CY_BLE_ADV_STATE_STOPPED\000"
 6389      4C455F41 
 6389      44565F53 
 6389      54415445 
 6389      5F53544F 
 6390              	.LASF177:
ARM GAS  C:\Users\salaz\AppData\Local\Temp\cc7F8fiw.s 			page 167


 6391 1dfc 70617373 		.ascii	"pass_interrupt_sar_IRQn\000"
 6391      5F696E74 
 6391      65727275 
 6391      70745F73 
 6391      61725F49 
 6392              	.LASF546:
 6393 1e14 63795F65 		.ascii	"cy_en_ble_adv_state_t\000"
 6393      6E5F626C 
 6393      655F6164 
 6393      765F7374 
 6393      6174655F 
 6394              	.LASF54:
 6395 1e2a 696F7373 		.ascii	"ioss_interrupt_gpio_IRQn\000"
 6395      5F696E74 
 6395      65727275 
 6395      70745F67 
 6395      70696F5F 
 6396              	.LASF27:
 6397 1e43 4E766963 		.ascii	"NvicMux21_IRQn\000"
 6397      4D757832 
 6397      315F4952 
 6397      516E00
 6398              	.LASF300:
 6399 1e52 636F756E 		.ascii	"countDirection\000"
 6399      74446972 
 6399      65637469 
 6399      6F6E00
 6400              	.LASF483:
 6401 1e61 43595F42 		.ascii	"CY_BLE_EVT_GAP_DEVICE_DISCONNECTED\000"
 6401      4C455F45 
 6401      56545F47 
 6401      41505F44 
 6401      45564943 
 6402              	.LASF229:
 6403 1e84 55415254 		.ascii	"UART_FLOW_CTRL\000"
 6403      5F464C4F 
 6403      575F4354 
 6403      524C00
 6404              	.LASF356:
 6405 1e93 736C6176 		.ascii	"slaveRxBufferSize\000"
 6405      65527842 
 6405      75666665 
 6405      7253697A 
 6405      6500
 6406              	.LASF469:
 6407 1ea5 43595F42 		.ascii	"CY_BLE_EVT_RADIO_TEMPERATURE\000"
 6407      4C455F45 
 6407      56545F52 
 6407      4144494F 
 6407      5F54454D 
 6408              	.LASF176:
 6409 1ec2 7564625F 		.ascii	"udb_interrupts_15_IRQn\000"
 6409      696E7465 
 6409      72727570 
 6409      74735F31 
 6409      355F4952 
 6410              	.LASF336:
ARM GAS  C:\Users\salaz\AppData\Local\Temp\cc7F8fiw.s 			page 168


 6411 1ed9 63795F63 		.ascii	"cy_cb_scb_i2c_handle_events_t\000"
 6411      625F7363 
 6411      625F6932 
 6411      635F6861 
 6411      6E646C65 
 6412              	.LASF516:
 6413 1ef7 43595F42 		.ascii	"CY_BLE_EVT_GATTS_WRITE_CMD_REQ\000"
 6413      4C455F45 
 6413      56545F47 
 6413      41545453 
 6413      5F575249 
 6414              	.LASF145:
 6415 1f16 74637077 		.ascii	"tcpwm_1_interrupts_8_IRQn\000"
 6415      6D5F315F 
 6415      696E7465 
 6415      72727570 
 6415      74735F38 
 6416              	.LASF16:
 6417 1f30 4E766963 		.ascii	"NvicMux10_IRQn\000"
 6417      4D757831 
 6417      305F4952 
 6417      516E00
 6418              	.LASF405:
 6419 1f3f 74784669 		.ascii	"txFifoTriggerLevel\000"
 6419      666F5472 
 6419      69676765 
 6419      724C6576 
 6419      656C00
 6420              	.LASF616:
 6421 1f52 76657269 		.ascii	"verifyLightCycles\000"
 6421      66794C69 
 6421      67687443 
 6421      79636C65 
 6421      7300
 6422              	.LASF412:
 6423 1f64 72785269 		.ascii	"rxRingBufSize\000"
 6423      6E674275 
 6423      6653697A 
 6423      6500
 6424              	.LASF40:
 6425 1f72 696F7373 		.ascii	"ioss_interrupts_gpio_1_IRQn\000"
 6425      5F696E74 
 6425      65727275 
 6425      7074735F 
 6425      6770696F 
 6426              	.LASF568:
 6427 1f8e 4C696768 		.ascii	"LightColor\000"
 6427      74436F6C 
 6427      6F7200
 6428              	.LASF284:
 6429 1f99 43795343 		.ascii	"CySCB_Type\000"
 6429      425F5479 
 6429      706500
 6430              	.LASF84:
 6431 1fa4 7363625F 		.ascii	"scb_4_interrupt_IRQn\000"
 6431      345F696E 
 6431      74657272 
ARM GAS  C:\Users\salaz\AppData\Local\Temp\cc7F8fiw.s 			page 169


 6431      7570745F 
 6431      4952516E 
 6432              	.LASF388:
 6433 1fb9 656E6162 		.ascii	"enableInputFilter\000"
 6433      6C65496E 
 6433      70757446 
 6433      696C7465 
 6433      7200
 6434              	.LASF262:
 6435 1fcb 494E5452 		.ascii	"INTR_SPI_EC_MASK\000"
 6435      5F535049 
 6435      5F45435F 
 6435      4D41534B 
 6435      00
 6436              	.LASF475:
 6437 1fdc 43595F42 		.ascii	"CY_BLE_EVT_GAPC_SCAN_PROGRESS_RESULT\000"
 6437      4C455F45 
 6437      56545F47 
 6437      4150435F 
 6437      5343414E 
 6438              	.LASF479:
 6439 2001 43595F42 		.ascii	"CY_BLE_EVT_GAP_AUTH_COMPLETE\000"
 6439      4C455F45 
 6439      56545F47 
 6439      41505F41 
 6439      5554485F 
 6440              	.LASF357:
 6441 201e 736C6176 		.ascii	"slaveRxBufferIdx\000"
 6441      65527842 
 6441      75666665 
 6441      72496478 
 6441      00
 6442              	.LASF167:
 6443 202f 7564625F 		.ascii	"udb_interrupts_6_IRQn\000"
 6443      696E7465 
 6443      72727570 
 6443      74735F36 
 6443      5F495251 
 6444              	.LASF594:
 6445 2045 64617465 		.ascii	"dateAndTime\000"
 6445      416E6454 
 6445      696D6500 
 6446              	.LASF53:
 6447 2051 696F7373 		.ascii	"ioss_interrupts_gpio_14_IRQn\000"
 6447      5F696E74 
 6447      65727275 
 6447      7074735F 
 6447      6770696F 
 6448              	.LASF102:
 6449 206e 63707573 		.ascii	"cpuss_interrupts_dw0_13_IRQn\000"
 6449      735F696E 
 6449      74657272 
 6449      75707473 
 6449      5F647730 
 6450              	.LASF140:
 6451 208b 74637077 		.ascii	"tcpwm_1_interrupts_3_IRQn\000"
 6451      6D5F315F 
ARM GAS  C:\Users\salaz\AppData\Local\Temp\cc7F8fiw.s 			page 170


 6451      696E7465 
 6451      72727570 
 6451      74735F33 
 6452              	.LASF285:
 6453 20a5 6C6F6E67 		.ascii	"long double\000"
 6453      20646F75 
 6453      626C6500 
 6454              	.LASF59:
 6455 20b1 73727373 		.ascii	"srss_interrupt_mcwdt_1_IRQn\000"
 6455      5F696E74 
 6455      65727275 
 6455      70745F6D 
 6455      63776474 
 6456              	.LASF602:
 6457 20cd 55415254 		.ascii	"UART_DEBUG_context\000"
 6457      5F444542 
 6457      55475F63 
 6457      6F6E7465 
 6457      787400
 6458              	.LASF273:
 6459 20e0 494E5452 		.ascii	"INTR_S_MASKED\000"
 6459      5F535F4D 
 6459      41534B45 
 6459      4400
 6460              	.LASF452:
 6461 20ee 43595F42 		.ascii	"CY_BLE_EVT_PHY_UPDATE_COMPLETE\000"
 6461      4C455F45 
 6461      56545F50 
 6461      48595F55 
 6461      50444154 
 6462              	.LASF380:
 6463 210d 63795F63 		.ascii	"cy_cb_scb_uart_handle_events_t\000"
 6463      625F7363 
 6463      625F7561 
 6463      72745F68 
 6463      616E646C 
 6464              	.LASF436:
 6465 212c 43595F42 		.ascii	"CY_BLE_EVT_SET_DATA_LENGTH_COMPLETE\000"
 6465      4C455F45 
 6465      56545F53 
 6465      45545F44 
 6465      4154415F 
 6466              	.LASF518:
 6467 2150 43595F42 		.ascii	"CY_BLE_EVT_GATTS_EXEC_WRITE_REQ\000"
 6467      4C455F45 
 6467      56545F47 
 6467      41545453 
 6467      5F455845 
 6468              	.LASF238:
 6469 2170 54585F46 		.ascii	"TX_FIFO_STATUS\000"
 6469      49464F5F 
 6469      53544154 
 6469      555300
 6470              	.LASF260:
 6471 217f 494E5452 		.ascii	"INTR_SPI_EC\000"
 6471      5F535049 
 6471      5F454300 
ARM GAS  C:\Users\salaz\AppData\Local\Temp\cc7F8fiw.s 			page 171


 6472              	.LASF95:
 6473 218b 63707573 		.ascii	"cpuss_interrupts_dw0_6_IRQn\000"
 6473      735F696E 
 6473      74657272 
 6473      75707473 
 6473      5F647730 
 6474              	.LASF587:
 6475 21a7 43795F53 		.ascii	"Cy_SCB_GetNumInTxFifo\000"
 6475      43425F47 
 6475      65744E75 
 6475      6D496E54 
 6475      78466966 
 6476              	.LASF607:
 6477 21bd 4C696768 		.ascii	"LightOutputB_config\000"
 6477      744F7574 
 6477      70757442 
 6477      5F636F6E 
 6477      66696700 
 6478              	.LASF420:
 6479 21d1 74784C65 		.ascii	"txLeftToTransmit\000"
 6479      6674546F 
 6479      5472616E 
 6479      736D6974 
 6479      00
 6480              	.LASF125:
 6481 21e2 63707573 		.ascii	"cpuss_interrupts_cm0_cti_0_IRQn\000"
 6481      735F696E 
 6481      74657272 
 6481      75707473 
 6481      5F636D30 
 6482              	.LASF138:
 6483 2202 74637077 		.ascii	"tcpwm_1_interrupts_1_IRQn\000"
 6483      6D5F315F 
 6483      696E7465 
 6483      72727570 
 6483      74735F31 
 6484              	.LASF69:
 6485 221c 63707573 		.ascii	"cpuss_interrupts_ipc_5_IRQn\000"
 6485      735F696E 
 6485      74657272 
 6485      75707473 
 6485      5F697063 
 6486              	.LASF392:
 6487 2238 72656365 		.ascii	"receiverAddress\000"
 6487      69766572 
 6487      41646472 
 6487      65737300 
 6488              	.LASF45:
 6489 2248 696F7373 		.ascii	"ioss_interrupts_gpio_6_IRQn\000"
 6489      5F696E74 
 6489      65727275 
 6489      7074735F 
 6489      6770696F 
 6490              	.LASF21:
 6491 2264 4E766963 		.ascii	"NvicMux15_IRQn\000"
 6491      4D757831 
 6491      355F4952 
ARM GAS  C:\Users\salaz\AppData\Local\Temp\cc7F8fiw.s 			page 172


 6491      516E00
 6492              	.LASF179:
 6493 2273 61756469 		.ascii	"audioss_interrupt_pdm_IRQn\000"
 6493      6F73735F 
 6493      696E7465 
 6493      72727570 
 6493      745F7064 
 6494              	.LASF397:
 6495 228e 736D6172 		.ascii	"smartCardRetryOnNack\000"
 6495      74436172 
 6495      64526574 
 6495      72794F6E 
 6495      4E61636B 
 6496              	.LASF443:
 6497 22a3 43595F42 		.ascii	"CY_BLE_EVT_SET_RPA_ENABLE_COMPLETE\000"
 6497      4C455F45 
 6497      56545F53 
 6497      45545F52 
 6497      50415F45 
 6498              	.LASF63:
 6499 22c6 626C6573 		.ascii	"bless_interrupt_IRQn\000"
 6499      735F696E 
 6499      74657272 
 6499      7570745F 
 6499      4952516E 
 6500              	.LASF487:
 6501 22db 43595F42 		.ascii	"CY_BLE_EVT_GAP_KEYINFO_EXCHNGE_CMPLT\000"
 6501      4C455F45 
 6501      56545F47 
 6501      41505F4B 
 6501      4559494E 
 6502              	.LASF321:
 6503 2300 64656164 		.ascii	"deadTimeClocks\000"
 6503      54696D65 
 6503      436C6F63 
 6503      6B7300
 6504              	.LASF216:
 6505 230f 4E564943 		.ascii	"NVIC_Type\000"
 6505      5F547970 
 6505      6500
 6506              	.LASF398:
 6507 2319 656E6162 		.ascii	"enableCts\000"
 6507      6C654374 
 6507      7300
 6508              	.LASF175:
 6509 2323 7564625F 		.ascii	"udb_interrupts_14_IRQn\000"
 6509      696E7465 
 6509      72727570 
 6509      74735F31 
 6509      345F4952 
 6510              	.LASF144:
 6511 233a 74637077 		.ascii	"tcpwm_1_interrupts_7_IRQn\000"
 6511      6D5F315F 
 6511      696E7465 
 6511      72727570 
 6511      74735F37 
 6512              	.LASF485:
ARM GAS  C:\Users\salaz\AppData\Local\Temp\cc7F8fiw.s 			page 173


 6513 2354 43595F42 		.ascii	"CY_BLE_EVT_GAP_CONNECTION_UPDATE_COMPLETE\000"
 6513      4C455F45 
 6513      56545F47 
 6513      41505F43 
 6513      4F4E4E45 
 6514              	.LASF340:
 6515 237e 75736554 		.ascii	"useTxFifo\000"
 6515      78466966 
 6515      6F00
 6516              	.LASF532:
 6517 2388 43595F42 		.ascii	"CY_BLE_EVT_L2CAP_CBFC_DISCONN_IND\000"
 6517      4C455F45 
 6517      56545F4C 
 6517      32434150 
 6517      5F434246 
 6518              	.LASF478:
 6519 23aa 43595F42 		.ascii	"CY_BLE_EVT_GAP_PASSKEY_DISPLAY_REQUEST\000"
 6519      4C455F45 
 6519      56545F47 
 6519      41505F50 
 6519      4153534B 
 6520              	.LASF200:
 6521 23d1 6C6F6E67 		.ascii	"long long unsigned int\000"
 6521      206C6F6E 
 6521      6720756E 
 6521      7369676E 
 6521      65642069 
 6522              	.LASF577:
 6523 23e8 424F4F42 		.ascii	"BOOBOO\000"
 6523      4F4F00
 6524              	.LASF115:
 6525 23ef 63707573 		.ascii	"cpuss_interrupts_dw1_10_IRQn\000"
 6525      735F696E 
 6525      74657272 
 6525      75707473 
 6525      5F647731 
 6526              	.LASF435:
 6527 240c 43595F42 		.ascii	"CY_BLE_EVT_LE_PING_AUTH_TIMEOUT\000"
 6527      4C455F45 
 6527      56545F4C 
 6527      455F5049 
 6527      4E475F41 
 6528              	.LASF375:
 6529 242c 43595F53 		.ascii	"CY_SCB_UART_PARITY_ODD\000"
 6529      43425F55 
 6529      4152545F 
 6529      50415249 
 6529      54595F4F 
 6530              	.LASF634:
 6531 2443 433A5C55 		.ascii	"C:\\Users\\salaz\\Desktop\\clone\\SmartHandle.cydsn"
 6531      73657273 
 6531      5C73616C 
 6531      617A5C44 
 6531      65736B74 
 6532 2471 00       		.ascii	"\000"
 6533              	.LASF203:
 6534 2472 75696E74 		.ascii	"uint16_t\000"
ARM GAS  C:\Users\salaz\AppData\Local\Temp\cc7F8fiw.s 			page 174


 6534      31365F74 
 6534      00
 6535              	.LASF465:
 6536 247b 43595F42 		.ascii	"CY_BLE_EVT_AES_CCM_ENCRYPT_COMPLETE\000"
 6536      4C455F45 
 6536      56545F41 
 6536      45535F43 
 6536      434D5F45 
 6537              	.LASF368:
 6538 249f 43595F53 		.ascii	"CY_SCB_UART_STOP_BITS_2_5\000"
 6538      43425F55 
 6538      4152545F 
 6538      53544F50 
 6538      5F424954 
 6539              	.LASF237:
 6540 24b9 54585F46 		.ascii	"TX_FIFO_CTRL\000"
 6540      49464F5F 
 6540      4354524C 
 6540      00
 6541              	.LASF496:
 6542 24c6 43595F42 		.ascii	"CY_BLE_EVT_GAP_RESOLVE_DEVICE_COMPLETE\000"
 6542      4C455F45 
 6542      56545F47 
 6542      41505F52 
 6542      45534F4C 
 6543              	.LASF101:
 6544 24ed 63707573 		.ascii	"cpuss_interrupts_dw0_12_IRQn\000"
 6544      735F696E 
 6544      74657272 
 6544      75707473 
 6544      5F647730 
 6545              	.LASF506:
 6546 250a 43595F42 		.ascii	"CY_BLE_EVT_GATTC_XCHNG_MTU_RSP\000"
 6546      4C455F45 
 6546      56545F47 
 6546      41545443 
 6546      5F584348 
 6547              	.LASF252:
 6548 2529 52455345 		.ascii	"RESERVED10\000"
 6548      52564544 
 6548      313000
 6549              	.LASF0:
 6550 2534 52657365 		.ascii	"Reset_IRQn\000"
 6550      745F4952 
 6550      516E00
 6551              	.LASF256:
 6552 253f 52455345 		.ascii	"RESERVED12\000"
 6552      52564544 
 6552      313200
 6553              	.LASF259:
 6554 254a 52455345 		.ascii	"RESERVED13\000"
 6554      52564544 
 6554      313300
 6555              	.LASF261:
 6556 2555 52455345 		.ascii	"RESERVED14\000"
 6556      52564544 
 6556      313400
ARM GAS  C:\Users\salaz\AppData\Local\Temp\cc7F8fiw.s 			page 175


 6557              	.LASF264:
 6558 2560 52455345 		.ascii	"RESERVED15\000"
 6558      52564544 
 6558      313500
 6559              	.LASF440:
 6560 256b 43595F42 		.ascii	"CY_BLE_EVT_GET_PEER_RPA_COMPLETE\000"
 6560      4C455F45 
 6560      56545F47 
 6560      45545F50 
 6560      4545525F 
 6561              	.LASF274:
 6562 258c 52455345 		.ascii	"RESERVED17\000"
 6562      52564544 
 6562      313700
 6563              	.LASF279:
 6564 2597 52455345 		.ascii	"RESERVED18\000"
 6564      52564544 
 6564      313800
 6565              	.LASF609:
 6566 25a2 4D6F746F 		.ascii	"MotorTimer_config\000"
 6566      7254696D 
 6566      65725F63 
 6566      6F6E6669 
 6566      6700
 6567              	.LASF31:
 6568 25b4 4E766963 		.ascii	"NvicMux25_IRQn\000"
 6568      4D757832 
 6568      355F4952 
 6568      516E00
 6569              	.LASF276:
 6570 25c3 494E5452 		.ascii	"INTR_TX_SET\000"
 6570      5F54585F 
 6570      53455400 
 6571              	.LASF81:
 6572 25cf 7363625F 		.ascii	"scb_1_interrupt_IRQn\000"
 6572      315F696E 
 6572      74657272 
 6572      7570745F 
 6572      4952516E 
 6573              	.LASF555:
 6574 25e4 63795F65 		.ascii	"cy_en_ble_conn_state_t\000"
 6574      6E5F626C 
 6574      655F636F 
 6574      6E6E5F73 
 6574      74617465 
 6575              	.LASF94:
 6576 25fb 63707573 		.ascii	"cpuss_interrupts_dw0_5_IRQn\000"
 6576      735F696E 
 6576      74657272 
 6576      75707473 
 6576      5F647730 
 6577              	.LASF418:
 6578 2617 74784275 		.ascii	"txBuf\000"
 6578      6600
 6579              	.LASF501:
 6580 261d 43595F42 		.ascii	"CY_BLE_EVT_GAP_ADV_TX\000"
 6580      4C455F45 
ARM GAS  C:\Users\salaz\AppData\Local\Temp\cc7F8fiw.s 			page 176


 6580      56545F47 
 6580      41505F41 
 6580      44565F54 
 6581              	.LASF283:
 6582 2633 494E5452 		.ascii	"INTR_RX_MASKED\000"
 6582      5F52585F 
 6582      4D41534B 
 6582      454400
 6583              	.LASF545:
 6584 2642 43595F42 		.ascii	"CY_BLE_ADV_STATE_STOP_INITIATED\000"
 6584      4C455F41 
 6584      44565F53 
 6584      54415445 
 6584      5F53544F 
 6585              	.LASF169:
 6586 2662 7564625F 		.ascii	"udb_interrupts_8_IRQn\000"
 6586      696E7465 
 6586      72727570 
 6586      74735F38 
 6586      5F495251 
 6587              	.LASF20:
 6588 2678 4E766963 		.ascii	"NvicMux14_IRQn\000"
 6588      4D757831 
 6588      345F4952 
 6588      516E00
 6589              	.LASF537:
 6590 2687 43595F42 		.ascii	"CY_BLE_EVT_L2CAP_CBFC_DATA_WRITE_IND\000"
 6590      4C455F45 
 6590      56545F4C 
 6590      32434150 
 6590      5F434246 
 6591              	.LASF77:
 6592 26ac 63707573 		.ascii	"cpuss_interrupts_ipc_13_IRQn\000"
 6592      735F696E 
 6592      74657272 
 6592      75707473 
 6592      5F697063 
 6593              	.LASF208:
 6594 26c9 49434552 		.ascii	"ICER\000"
 6594      00
 6595              	.LASF630:
 6596 26ce 4B696E4F 		.ascii	"KinOS_BypassSettings\000"
 6596      535F4279 
 6596      70617373 
 6596      53657474 
 6596      696E6773 
 6597              	.LASF335:
 6598 26e3 63795F65 		.ascii	"cy_en_scb_i2c_command_t\000"
 6598      6E5F7363 
 6598      625F6932 
 6598      635F636F 
 6598      6D6D616E 
 6599              	.LASF569:
 6600 26fb 4C696768 		.ascii	"LightPattern\000"
 6600      74506174 
 6600      7465726E 
 6600      00
ARM GAS  C:\Users\salaz\AppData\Local\Temp\cc7F8fiw.s 			page 177


 6601              	.LASF297:
 6602 2708 70657269 		.ascii	"period\000"
 6602      6F6400
 6603              	.LASF109:
 6604 270f 63707573 		.ascii	"cpuss_interrupts_dw1_4_IRQn\000"
 6604      735F696E 
 6604      74657272 
 6604      75707473 
 6604      5F647731 
 6605              	.LASF571:
 6606 272b 424F554E 		.ascii	"BOUNCE\000"
 6606      434500
 6607              	.LASF121:
 6608 2732 63707573 		.ascii	"cpuss_interrupts_fault_0_IRQn\000"
 6608      735F696E 
 6608      74657272 
 6608      75707473 
 6608      5F666175 
 6609              	.LASF615:
 6610 2750 76657269 		.ascii	"verifyAdvertise_s\000"
 6610      66794164 
 6610      76657274 
 6610      6973655F 
 6610      7300
 6611              	.LASF574:
 6612 2762 4368696D 		.ascii	"ChimePattern\000"
 6612      65506174 
 6612      7465726E 
 6612      00
 6613              	.LASF493:
 6614 276f 43595F42 		.ascii	"CY_BLE_EVT_GAP_SMP_NEGOTIATED_AUTH_INFO\000"
 6614      4C455F45 
 6614      56545F47 
 6614      41505F53 
 6614      4D505F4E 
 6615              	.LASF366:
 6616 2797 43595F53 		.ascii	"CY_SCB_UART_STOP_BITS_1_5\000"
 6616      43425F55 
 6616      4152545F 
 6616      53544F50 
 6616      5F424954 
 6617              	.LASF123:
 6618 27b1 63707573 		.ascii	"cpuss_interrupt_crypto_IRQn\000"
 6618      735F696E 
 6618      74657272 
 6618      7570745F 
 6618      63727970 
 6619              	.LASF393:
 6620 27cd 72656365 		.ascii	"receiverAddressMask\000"
 6620      69766572 
 6620      41646472 
 6620      6573734D 
 6620      61736B00 
 6621              	.LASF219:
 6622 27e1 434D445F 		.ascii	"CMD_RESP_CTRL\000"
 6622      52455350 
 6622      5F435452 
ARM GAS  C:\Users\salaz\AppData\Local\Temp\cc7F8fiw.s 			page 178


 6622      4C00
 6623              	.LASF218:
 6624 27ef 53544154 		.ascii	"STATUS\000"
 6624      555300
 6625              	.LASF528:
 6626 27f6 43595F42 		.ascii	"CY_BLE_EVT_L2CAP_CONN_PARAM_UPDATE_RSP\000"
 6626      4C455F45 
 6626      56545F4C 
 6626      32434150 
 6626      5F434F4E 
 6627              	.LASF258:
 6628 281d 494E5452 		.ascii	"INTR_I2C_EC_MASKED\000"
 6628      5F493243 
 6628      5F45435F 
 6628      4D41534B 
 6628      454400
 6629              	.LASF80:
 6630 2830 7363625F 		.ascii	"scb_0_interrupt_IRQn\000"
 6630      305F696E 
 6630      74657272 
 6630      7570745F 
 6630      4952516E 
 6631              	.LASF235:
 6632 2845 44444654 		.ascii	"DDFT_CTRL\000"
 6632      5F435452 
 6632      4C00
 6633              	.LASF512:
 6634 284f 43595F42 		.ascii	"CY_BLE_EVT_GATTC_READ_BLOB_RSP\000"
 6634      4C455F45 
 6634      56545F47 
 6634      41545443 
 6634      5F524541 
 6635              	.LASF386:
 6636 286e 73746F70 		.ascii	"stopBits\000"
 6636      42697473 
 6636      00
 6637              	.LASF178:
 6638 2877 61756469 		.ascii	"audioss_interrupt_i2s_IRQn\000"
 6638      6F73735F 
 6638      696E7465 
 6638      72727570 
 6638      745F6932 
 6639              	.LASF129:
 6640 2892 74637077 		.ascii	"tcpwm_0_interrupts_0_IRQn\000"
 6640      6D5F305F 
 6640      696E7465 
 6640      72727570 
 6640      74735F30 
 6641              	.LASF162:
 6642 28ac 7564625F 		.ascii	"udb_interrupts_1_IRQn\000"
 6642      696E7465 
 6642      72727570 
 6642      74735F31 
 6642      5F495251 
 6643              	.LASF146:
 6644 28c2 74637077 		.ascii	"tcpwm_1_interrupts_9_IRQn\000"
 6644      6D5F315F 
ARM GAS  C:\Users\salaz\AppData\Local\Temp\cc7F8fiw.s 			page 179


 6644      696E7465 
 6644      72727570 
 6644      74735F39 
 6645              	.LASF272:
 6646 28dc 494E5452 		.ascii	"INTR_S_MASK\000"
 6646      5F535F4D 
 6646      41534B00 
 6647              	.LASF294:
 6648 28e8 696E7472 		.ascii	"intrPriority\000"
 6648      5072696F 
 6648      72697479 
 6648      00
 6649              	.LASF525:
 6650 28f5 43595F42 		.ascii	"CY_BLE_EVT_GATTS_READ_CHAR_VAL_ACCESS_REQ\000"
 6650      4C455F45 
 6650      56545F47 
 6650      41545453 
 6650      5F524541 
 6651              	.LASF557:
 6652 291f 6D6F6E74 		.ascii	"month\000"
 6652      6800
 6653              	.LASF266:
 6654 2925 494E5452 		.ascii	"INTR_M_SET\000"
 6654      5F4D5F53 
 6654      455400
 6655              	.LASF263:
 6656 2930 494E5452 		.ascii	"INTR_SPI_EC_MASKED\000"
 6656      5F535049 
 6656      5F45435F 
 6656      4D41534B 
 6656      454400
 6657              	.LASF30:
 6658 2943 4E766963 		.ascii	"NvicMux24_IRQn\000"
 6658      4D757832 
 6658      345F4952 
 6658      516E00
 6659              	.LASF541:
 6660 2952 63795F73 		.ascii	"cy_stc_ble_conn_handle_t\000"
 6660      74635F62 
 6660      6C655F63 
 6660      6F6E6E5F 
 6660      68616E64 
 6661              	.LASF481:
 6662 296b 43595F42 		.ascii	"CY_BLE_EVT_GAPP_ADVERTISEMENT_START_STOP\000"
 6662      4C455F45 
 6662      56545F47 
 6662      4150505F 
 6662      41445645 
 6663              	.LASF310:
 6664 2994 73746172 		.ascii	"startInputMode\000"
 6664      74496E70 
 6664      75744D6F 
 6664      646500
 6665              	.LASF410:
 6666 29a3 72785374 		.ascii	"rxStatus\000"
 6666      61747573 
 6666      00
ARM GAS  C:\Users\salaz\AppData\Local\Temp\cc7F8fiw.s 			page 180


 6667              	.LASF137:
 6668 29ac 74637077 		.ascii	"tcpwm_1_interrupts_0_IRQn\000"
 6668      6D5F315F 
 6668      696E7465 
 6668      72727570 
 6668      74735F30 
 6669              	.LASF345:
 6670 29c6 6D617374 		.ascii	"masterBuffer\000"
 6670      65724275 
 6670      66666572 
 6670      00
 6671              	.LASF359:
 6672 29d3 63624164 		.ascii	"cbAddr\000"
 6672      647200
 6673              	.LASF76:
 6674 29da 63707573 		.ascii	"cpuss_interrupts_ipc_12_IRQn\000"
 6674      735F696E 
 6674      74657272 
 6674      75707473 
 6674      5F697063 
 6675              	.LASF549:
 6676 29f7 43595F42 		.ascii	"CY_BLE_CONN_STATE_CONNECTED\000"
 6676      4C455F43 
 6676      4F4E4E5F 
 6676      53544154 
 6676      455F434F 
 6677              	.LASF248:
 6678 2a13 52585F46 		.ascii	"RX_FIFO_RD\000"
 6678      49464F5F 
 6678      524400
 6679              	.LASF86:
 6680 2a1e 7363625F 		.ascii	"scb_6_interrupt_IRQn\000"
 6680      365F696E 
 6680      74657272 
 6680      7570745F 
 6680      4952516E 
 6681              	.LASF590:
 6682 2a33 6D6F7469 		.ascii	"motion_latch\000"
 6682      6F6E5F6C 
 6682      61746368 
 6682      00
 6683              	.LASF289:
 6684 2a40 75696E74 		.ascii	"uint8\000"
 6684      3800
 6685              	.LASF11:
 6686 2a46 4E766963 		.ascii	"NvicMux5_IRQn\000"
 6686      4D757835 
 6686      5F495251 
 6686      6E00
 6687              	.LASF433:
 6688 2a54 43595F42 		.ascii	"CY_BLE_EVT_GET_CHANNEL_MAP_COMPLETE\000"
 6688      4C455F45 
 6688      56545F47 
 6688      45545F43 
 6688      48414E4E 
 6689              	.LASF421:
 6690 2a78 696E6974 		.ascii	"initKey\000"
ARM GAS  C:\Users\salaz\AppData\Local\Temp\cc7F8fiw.s 			page 181


 6690      4B657900 
 6691              	.LASF547:
 6692 2a80 43595F42 		.ascii	"CY_BLE_CONN_STATE_DISCONNECTED\000"
 6692      4C455F43 
 6692      4F4E4E5F 
 6692      53544154 
 6692      455F4449 
 6693              	.LASF187:
 6694 2a9f 73686F72 		.ascii	"short int\000"
 6694      7420696E 
 6694      7400
 6695              	.LASF468:
 6696 2aa9 43595F42 		.ascii	"CY_BLE_EVT_STACK_SHUTDOWN_COMPLETE\000"
 6696      4C455F45 
 6696      56545F53 
 6696      5441434B 
 6696      5F534855 
 6697              	.LASF459:
 6698 2acc 43595F42 		.ascii	"CY_BLE_EVT_GET_TX_PWR_COMPLETE\000"
 6698      4C455F45 
 6698      56545F47 
 6698      45545F54 
 6698      585F5057 
 6699              	.LASF56:
 6700 2aeb 6C70636F 		.ascii	"lpcomp_interrupt_IRQn\000"
 6700      6D705F69 
 6700      6E746572 
 6700      72757074 
 6700      5F495251 
 6701              	.LASF62:
 6702 2b01 70617373 		.ascii	"pass_interrupt_ctbs_IRQn\000"
 6702      5F696E74 
 6702      65727275 
 6702      70745F63 
 6702      7462735F 
 6703              	.LASF255:
 6704 2b1a 494E5452 		.ascii	"INTR_I2C_EC\000"
 6704      5F493243 
 6704      5F454300 
 6705              	.LASF57:
 6706 2b26 7363625F 		.ascii	"scb_8_interrupt_IRQn\000"
 6706      385F696E 
 6706      74657272 
 6706      7570745F 
 6706      4952516E 
 6707              	.LASF18:
 6708 2b3b 4E766963 		.ascii	"NvicMux12_IRQn\000"
 6708      4D757831 
 6708      325F4952 
 6708      516E00
 6709              	.LASF72:
 6710 2b4a 63707573 		.ascii	"cpuss_interrupts_ipc_8_IRQn\000"
 6710      735F696E 
 6710      74657272 
 6710      75707473 
 6710      5F697063 
 6711              	.LASF48:
ARM GAS  C:\Users\salaz\AppData\Local\Temp\cc7F8fiw.s 			page 182


 6712 2b66 696F7373 		.ascii	"ioss_interrupts_gpio_9_IRQn\000"
 6712      5F696E74 
 6712      65727275 
 6712      7074735F 
 6712      6770696F 
 6713              	.LASF24:
 6714 2b82 4E766963 		.ascii	"NvicMux18_IRQn\000"
 6714      4D757831 
 6714      385F4952 
 6714      516E00
 6715              	.LASF243:
 6716 2b91 52585F46 		.ascii	"RX_FIFO_CTRL\000"
 6716      49464F5F 
 6716      4354524C 
 6716      00
 6717              	.LASF128:
 6718 2b9e 63707573 		.ascii	"cpuss_interrupts_cm4_cti_1_IRQn\000"
 6718      735F696E 
 6718      74657272 
 6718      75707473 
 6718      5F636D34 
 6719              	.LASF271:
 6720 2bbe 494E5452 		.ascii	"INTR_S_SET\000"
 6720      5F535F53 
 6720      455400
 6721              	.LASF482:
 6722 2bc9 43595F42 		.ascii	"CY_BLE_EVT_GAP_DEVICE_CONNECTED\000"
 6722      4C455F45 
 6722      56545F47 
 6722      41505F44 
 6722      45564943 
 6723              	.LASF470:
 6724 2be9 43595F42 		.ascii	"CY_BLE_EVT_RADIO_VOLTAGE_LEVEL\000"
 6724      4C455F45 
 6724      56545F52 
 6724      4144494F 
 6724      5F564F4C 
 6725              	.LASF347:
 6726 2c08 6D617374 		.ascii	"masterBufferIdx\000"
 6726      65724275 
 6726      66666572 
 6726      49647800 
 6727              	.LASF598:
 6728 2c18 63795F62 		.ascii	"cy_ble_connState\000"
 6728      6C655F63 
 6728      6F6E6E53 
 6728      74617465 
 6728      00
 6729              	.LASF361:
 6730 2c29 43595F53 		.ascii	"CY_SCB_UART_STANDARD\000"
 6730      43425F55 
 6730      4152545F 
 6730      5354414E 
 6730      44415244 
 6731              	.LASF49:
 6732 2c3e 696F7373 		.ascii	"ioss_interrupts_gpio_10_IRQn\000"
 6732      5F696E74 
ARM GAS  C:\Users\salaz\AppData\Local\Temp\cc7F8fiw.s 			page 183


 6732      65727275 
 6732      7074735F 
 6732      6770696F 
 6733              	.LASF342:
 6734 2c5b 6D617374 		.ascii	"masterStatus\000"
 6734      65725374 
 6734      61747573 
 6734      00
 6735              	.LASF377:
 6736 2c68 43595F53 		.ascii	"CY_SCB_UART_ACTIVE_LOW\000"
 6736      43425F55 
 6736      4152545F 
 6736      41435449 
 6736      56455F4C 
 6737              	.LASF558:
 6738 2c7f 686F7572 		.ascii	"hour\000"
 6738      00
 6739              	.LASF441:
 6740 2c84 43595F42 		.ascii	"CY_BLE_EVT_GET_LOCAL_RPA_COMPLETE\000"
 6740      4C455F45 
 6740      56545F47 
 6740      45545F4C 
 6740      4F43414C 
 6741              	.LASF593:
 6742 2ca6 6E657874 		.ascii	"next_state\000"
 6742      5F737461 
 6742      746500
 6743              	.LASF118:
 6744 2cb1 63707573 		.ascii	"cpuss_interrupts_dw1_13_IRQn\000"
 6744      735F696E 
 6744      74657272 
 6744      75707473 
 6744      5F647731 
 6745              	.LASF316:
 6746 2cce 63795F73 		.ascii	"cy_stc_tcpwm_counter_config_t\000"
 6746      74635F74 
 6746      6370776D 
 6746      5F636F75 
 6746      6E746572 
 6747              	.LASF424:
 6748 2cec 43595F42 		.ascii	"CY_BLE_EVT_STACK_ON\000"
 6748      4C455F45 
 6748      56545F53 
 6748      5441434B 
 6748      5F4F4E00 
 6749              	.LASF10:
 6750 2d00 4E766963 		.ascii	"NvicMux4_IRQn\000"
 6750      4D757834 
 6750      5F495251 
 6750      6E00
 6751              	.LASF575:
 6752 2d0e 54574545 		.ascii	"TWEETS\000"
 6752      545300
 6753              	.LASF104:
 6754 2d15 63707573 		.ascii	"cpuss_interrupts_dw0_15_IRQn\000"
 6754      735F696E 
 6754      74657272 
ARM GAS  C:\Users\salaz\AppData\Local\Temp\cc7F8fiw.s 			page 184


 6754      75707473 
 6754      5F647730 
 6755              	.LASF65:
 6756 2d32 63707573 		.ascii	"cpuss_interrupts_ipc_1_IRQn\000"
 6756      735F696E 
 6756      74657272 
 6756      75707473 
 6756      5F697063 
 6757              	.LASF133:
 6758 2d4e 74637077 		.ascii	"tcpwm_0_interrupts_4_IRQn\000"
 6758      6D5F305F 
 6758      696E7465 
 6758      72727570 
 6758      74735F34 
 6759              	.LASF596:
 6760 2d68 63795F62 		.ascii	"cy_ble_advState\000"
 6760      6C655F61 
 6760      64765374 
 6760      61746500 
 6761              	.LASF155:
 6762 2d78 74637077 		.ascii	"tcpwm_1_interrupts_18_IRQn\000"
 6762      6D5F315F 
 6762      696E7465 
 6762      72727570 
 6762      74735F31 
 6763              	.LASF391:
 6764 2d93 656E6162 		.ascii	"enableMutliProcessorMode\000"
 6764      6C654D75 
 6764      746C6950 
 6764      726F6365 
 6764      73736F72 
 6765              	.LASF364:
 6766 2dac 63795F65 		.ascii	"cy_en_scb_uart_mode_t\000"
 6766      6E5F7363 
 6766      625F7561 
 6766      72745F6D 
 6766      6F64655F 
 6767              	.LASF330:
 6768 2dc2 6B696C6C 		.ascii	"killInputMode\000"
 6768      496E7075 
 6768      744D6F64 
 6768      6500
 6769              	.LASF190:
 6770 2dd0 63795F65 		.ascii	"cy_en_intr_t\000"
 6770      6E5F696E 
 6770      74725F74 
 6770      00
 6771              	.LASF471:
 6772 2ddd 43595F42 		.ascii	"CY_BLE_EVT_AES_CMAC_GEN_COMPLETE\000"
 6772      4C455F45 
 6772      56545F41 
 6772      45535F43 
 6772      4D41435F 
 6773              	.LASF83:
 6774 2dfe 7363625F 		.ascii	"scb_3_interrupt_IRQn\000"
 6774      335F696E 
 6774      74657272 
ARM GAS  C:\Users\salaz\AppData\Local\Temp\cc7F8fiw.s 			page 185


 6774      7570745F 
 6774      4952516E 
 6775              	.LASF619:
 6776 2e13 4B696E4F 		.ascii	"KinOS_GetDateAndTime\000"
 6776      535F4765 
 6776      74446174 
 6776      65416E64 
 6776      54696D65 
 6777              	.LASF439:
 6778 2e28 43595F42 		.ascii	"CY_BLE_EVT_DATA_LENGTH_CHANGE\000"
 6778      4C455F45 
 6778      56545F44 
 6778      4154415F 
 6778      4C454E47 
 6779              	.LASF97:
 6780 2e46 63707573 		.ascii	"cpuss_interrupts_dw0_8_IRQn\000"
 6780      735F696E 
 6780      74657272 
 6780      75707473 
 6780      5F647730 
 6781              	.LASF171:
 6782 2e62 7564625F 		.ascii	"udb_interrupts_10_IRQn\000"
 6782      696E7465 
 6782      72727570 
 6782      74735F31 
 6782      305F4952 
 6783              	.LASF55:
 6784 2e79 696F7373 		.ascii	"ioss_interrupt_vdd_IRQn\000"
 6784      5F696E74 
 6784      65727275 
 6784      70745F76 
 6784      64645F49 
 6785              	.LASF231:
 6786 2e91 4932435F 		.ascii	"I2C_STATUS\000"
 6786      53544154 
 6786      555300
 6787              	.LASF301:
 6788 2e9c 636F6D70 		.ascii	"compareOrCapture\000"
 6788      6172654F 
 6788      72436170 
 6788      74757265 
 6788      00
 6789              	.LASF457:
 6790 2ead 43595F42 		.ascii	"CY_BLE_EVT_GET_DEVICE_ADDR_COMPLETE\000"
 6790      4C455F45 
 6790      56545F47 
 6790      45545F44 
 6790      45564943 
 6791              	.LASF351:
 6792 2ed1 736C6176 		.ascii	"slaveTxBuffer\000"
 6792      65547842 
 6792      75666665 
 6792      7200
 6793              	.LASF376:
 6794 2edf 63795F65 		.ascii	"cy_en_scb_uart_parity_t\000"
 6794      6E5F7363 
 6794      625F7561 
ARM GAS  C:\Users\salaz\AppData\Local\Temp\cc7F8fiw.s 			page 186


 6794      72745F70 
 6794      61726974 
 6795              	.LASF464:
 6796 2ef7 43595F42 		.ascii	"CY_BLE_EVT_AES_ENCRYPT_COMPLETE\000"
 6796      4C455F45 
 6796      56545F41 
 6796      45535F45 
 6796      4E435259 
 6797              	.LASF23:
 6798 2f17 4E766963 		.ascii	"NvicMux17_IRQn\000"
 6798      4D757831 
 6798      375F4952 
 6798      516E00
 6799              	.LASF591:
 6800 2f26 75706461 		.ascii	"update_done\000"
 6800      74655F64 
 6800      6F6E6500 
 6801              	.LASF370:
 6802 2f32 43595F53 		.ascii	"CY_SCB_UART_STOP_BITS_3_5\000"
 6802      43425F55 
 6802      4152545F 
 6802      53544F50 
 6802      5F424954 
 6803              	.LASF603:
 6804 2f4c 53656E73 		.ascii	"SensorBus_context\000"
 6804      6F724275 
 6804      735F636F 
 6804      6E746578 
 6804      7400
 6805              	.LASF595:
 6806 2f5e 63795F52 		.ascii	"cy_RTC_daysInMonthTbl\000"
 6806      54435F64 
 6806      61797349 
 6806      6E4D6F6E 
 6806      74685462 
 6807              	.LASF320:
 6808 2f74 70776D41 		.ascii	"pwmAlignment\000"
 6808      6C69676E 
 6808      6D656E74 
 6808      00
 6809              	.LASF343:
 6810 2f81 6D617374 		.ascii	"masterPause\000"
 6810      65725061 
 6810      75736500 
 6811              	.LASF112:
 6812 2f8d 63707573 		.ascii	"cpuss_interrupts_dw1_7_IRQn\000"
 6812      735F696E 
 6812      74657272 
 6812      75707473 
 6812      5F647731 
 6813              	.LASF182:
 6814 2fa9 7573625F 		.ascii	"usb_interrupt_hi_IRQn\000"
 6814      696E7465 
 6814      72727570 
 6814      745F6869 
 6814      5F495251 
 6815              	.LASF344:
ARM GAS  C:\Users\salaz\AppData\Local\Temp\cc7F8fiw.s 			page 187


 6816 2fbf 6D617374 		.ascii	"masterRdDir\000"
 6816      65725264 
 6816      44697200 
 6817              	.LASF544:
 6818 2fcb 43595F42 		.ascii	"CY_BLE_ADV_STATE_ADVERTISING\000"
 6818      4C455F41 
 6818      44565F53 
 6818      54415445 
 6818      5F414456 
 6819              	.LASF334:
 6820 2fe8 43595F53 		.ascii	"CY_SCB_I2C_NAK\000"
 6820      43425F49 
 6820      32435F4E 
 6820      414B00
 6821              	.LASF148:
 6822 2ff7 74637077 		.ascii	"tcpwm_1_interrupts_11_IRQn\000"
 6822      6D5F315F 
 6822      696E7465 
 6822      72727570 
 6822      74735F31 
 6823              	.LASF249:
 6824 3012 52585F46 		.ascii	"RX_FIFO_RD_SILENT\000"
 6824      49464F5F 
 6824      52445F53 
 6824      494C454E 
 6824      5400
 6825              	.LASF399:
 6826 3024 63747350 		.ascii	"ctsPolarity\000"
 6826      6F6C6172 
 6826      69747900 
 6827              	.LASF117:
 6828 3030 63707573 		.ascii	"cpuss_interrupts_dw1_12_IRQn\000"
 6828      735F696E 
 6828      74657272 
 6828      75707473 
 6828      5F647731 
 6829              	.LASF313:
 6830 304d 73746F70 		.ascii	"stopInput\000"
 6830      496E7075 
 6830      7400
 6831              	.LASF194:
 6832 3057 73686F72 		.ascii	"short unsigned int\000"
 6832      7420756E 
 6832      7369676E 
 6832      65642069 
 6832      6E7400
 6833              	.LASF488:
 6834 306a 43595F42 		.ascii	"CY_BLE_EVT_GAP_NUMERIC_COMPARISON_REQUEST\000"
 6834      4C455F45 
 6834      56545F47 
 6834      41505F4E 
 6834      554D4552 
 6835              	.LASF90:
 6836 3094 63707573 		.ascii	"cpuss_interrupts_dw0_1_IRQn\000"
 6836      735F696E 
 6836      74657272 
 6836      75707473 
ARM GAS  C:\Users\salaz\AppData\Local\Temp\cc7F8fiw.s 			page 188


 6836      5F647730 
 6837              	.LASF588:
 6838 30b0 62617365 		.ascii	"base\000"
 6838      00
 6839              	.LASF367:
 6840 30b5 43595F53 		.ascii	"CY_SCB_UART_STOP_BITS_2\000"
 6840      43425F55 
 6840      4152545F 
 6840      53544F50 
 6840      5F424954 
 6841              	.LASF369:
 6842 30cd 43595F53 		.ascii	"CY_SCB_UART_STOP_BITS_3\000"
 6842      43425F55 
 6842      4152545F 
 6842      53544F50 
 6842      5F424954 
 6843              	.LASF371:
 6844 30e5 43595F53 		.ascii	"CY_SCB_UART_STOP_BITS_4\000"
 6844      43425F55 
 6844      4152545F 
 6844      53544F50 
 6844      5F424954 
 6845              	.LASF600:
 6846 30fd 41707043 		.ascii	"AppControl_IRQ_cfg\000"
 6846      6F6E7472 
 6846      6F6C5F49 
 6846      52515F63 
 6846      666700
 6847              	.LASF254:
 6848 3110 52455345 		.ascii	"RESERVED11\000"
 6848      52564544 
 6848      313100
 6849              	.LASF205:
 6850 311b 75696E74 		.ascii	"uint32_t\000"
 6850      33325F74 
 6850      00
 6851              	.LASF64:
 6852 3124 63707573 		.ascii	"cpuss_interrupts_ipc_0_IRQn\000"
 6852      735F696E 
 6852      74657272 
 6852      75707473 
 6852      5F697063 
 6853              	.LASF132:
 6854 3140 74637077 		.ascii	"tcpwm_0_interrupts_3_IRQn\000"
 6854      6D5F305F 
 6854      696E7465 
 6854      72727570 
 6854      74735F33 
 6855              	.LASF165:
 6856 315a 7564625F 		.ascii	"udb_interrupts_4_IRQn\000"
 6856      696E7465 
 6856      72727570 
 6856      74735F34 
 6856      5F495251 
 6857              	.LASF379:
 6858 3170 63795F65 		.ascii	"cy_en_scb_uart_polarity_t\000"
 6858      6E5F7363 
ARM GAS  C:\Users\salaz\AppData\Local\Temp\cc7F8fiw.s 			page 189


 6858      625F7561 
 6858      72745F70 
 6858      6F6C6172 
 6859              	.LASF480:
 6860 318a 43595F42 		.ascii	"CY_BLE_EVT_GAP_AUTH_FAILED\000"
 6860      4C455F45 
 6860      56545F47 
 6860      41505F41 
 6860      5554485F 
 6861              	.LASF269:
 6862 31a5 52455345 		.ascii	"RESERVED16\000"
 6862      52564544 
 6862      313600
 6863              	.LASF429:
 6864 31b0 43595F42 		.ascii	"CY_BLE_EVT_FLASH_CORRUPT\000"
 6864      4C455F45 
 6864      56545F46 
 6864      4C415348 
 6864      5F434F52 
 6865              	.LASF337:
 6866 31c9 63795F63 		.ascii	"cy_cb_scb_i2c_handle_addr_t\000"
 6866      625F7363 
 6866      625F6932 
 6866      635F6861 
 6866      6E646C65 
 6867              	.LASF625:
 6868 31e5 4B696E4F 		.ascii	"KinOS_IsAdvertising\000"
 6868      535F4973 
 6868      41647665 
 6868      72746973 
 6868      696E6700 
 6869              	.LASF33:
 6870 31f9 4E766963 		.ascii	"NvicMux27_IRQn\000"
 6870      4D757832 
 6870      375F4952 
 6870      516E00
 6871              	.LASF195:
 6872 3208 5F5F696E 		.ascii	"__int32_t\000"
 6872      7433325F 
 6872      7400
 6873              	.LASF326:
 6874 3212 696E7665 		.ascii	"invertPWMOutN\000"
 6874      72745057 
 6874      4D4F7574 
 6874      4E00
 6875              	.LASF127:
 6876 3220 63707573 		.ascii	"cpuss_interrupts_cm4_cti_0_IRQn\000"
 6876      735F696E 
 6876      74657272 
 6876      75707473 
 6876      5F636D34 
 6877              	.LASF105:
 6878 3240 63707573 		.ascii	"cpuss_interrupts_dw1_0_IRQn\000"
 6878      735F696E 
 6878      74657272 
 6878      75707473 
 6878      5F647731 
ARM GAS  C:\Users\salaz\AppData\Local\Temp\cc7F8fiw.s 			page 190


 6879              	.LASF400:
 6880 325c 72747352 		.ascii	"rtsRxFifoLevel\000"
 6880      78466966 
 6880      6F4C6576 
 6880      656C00
 6881              	.LASF406:
 6882 326b 74784669 		.ascii	"txFifoIntEnableMask\000"
 6882      666F496E 
 6882      74456E61 
 6882      626C654D 
 6882      61736B00 
 6883              	.LASF540:
 6884 327f 61747449 		.ascii	"attId\000"
 6884      6400
 6885              	.LASF567:
 6886 3285 57484954 		.ascii	"WHITE\000"
 6886      4500
 6887              	.LASF309:
 6888 328b 72656C6F 		.ascii	"reloadInput\000"
 6888      6164496E 
 6888      70757400 
 6889              	.LASF307:
 6890 3297 63617074 		.ascii	"captureInput\000"
 6890      75726549 
 6890      6E707574 
 6890      00
 6891              	.LASF500:
 6892 32a4 43595F42 		.ascii	"CY_BLE_EVT_GAPP_UPDATE_ADV_SCAN_DATA_COMPLETE\000"
 6892      4C455F45 
 6892      56545F47 
 6892      4150505F 
 6892      55504441 
 6893              	.LASF206:
 6894 32d2 49534552 		.ascii	"ISER\000"
 6894      00
 6895              	.LASF79:
 6896 32d7 63707573 		.ascii	"cpuss_interrupts_ipc_15_IRQn\000"
 6896      735F696E 
 6896      74657272 
 6896      75707473 
 6896      5F697063 
 6897              	.LASF374:
 6898 32f4 43595F53 		.ascii	"CY_SCB_UART_PARITY_EVEN\000"
 6898      43425F55 
 6898      4152545F 
 6898      50415249 
 6898      54595F45 
 6899              	.LASF414:
 6900 330c 72785269 		.ascii	"rxRingBufTail\000"
 6900      6E674275 
 6900      66546169 
 6900      6C00
 6901              	.LASF60:
 6902 331a 73727373 		.ascii	"srss_interrupt_backup_IRQn\000"
 6902      5F696E74 
 6902      65727275 
 6902      70745F62 
ARM GAS  C:\Users\salaz\AppData\Local\Temp\cc7F8fiw.s 			page 191


 6902      61636B75 
 6903              	.LASF402:
 6904 3335 62726561 		.ascii	"breakWidth\000"
 6904      6B576964 
 6904      746800
 6905              	.LASF2:
 6906 3340 48617264 		.ascii	"HardFault_IRQn\000"
 6906      4661756C 
 6906      745F4952 
 6906      516E00
 6907              	.LASF460:
 6908 334f 43595F42 		.ascii	"CY_BLE_EVT_SET_TX_PWR_COMPLETE\000"
 6908      4C455F45 
 6908      56545F53 
 6908      45545F54 
 6908      585F5057 
 6909              	.LASF58:
 6910 336e 73727373 		.ascii	"srss_interrupt_mcwdt_0_IRQn\000"
 6910      5F696E74 
 6910      65727275 
 6910      70745F6D 
 6910      63776474 
 6911              	.LASF158:
 6912 338a 74637077 		.ascii	"tcpwm_1_interrupts_21_IRQn\000"
 6912      6D5F315F 
 6912      696E7465 
 6912      72727570 
 6912      74735F32 
 6913              	.LASF411:
 6914 33a5 72785269 		.ascii	"rxRingBuf\000"
 6914      6E674275 
 6914      6600
 6915              	.LASF338:
 6916 33af 63795F73 		.ascii	"cy_stc_scb_i2c_context\000"
 6916      74635F73 
 6916      63625F69 
 6916      32635F63 
 6916      6F6E7465 
 6917              	.LASF14:
 6918 33c6 4E766963 		.ascii	"NvicMux8_IRQn\000"
 6918      4D757838 
 6918      5F495251 
 6918      6E00
 6919              	.LASF37:
 6920 33d4 4E766963 		.ascii	"NvicMux31_IRQn\000"
 6920      4D757833 
 6920      315F4952 
 6920      516E00
 6921              	.LASF445:
 6922 33e3 43595F42 		.ascii	"CY_BLE_EVT_ADD_DEVICE_TO_RPA_LIST_COMPLETE\000"
 6922      4C455F45 
 6922      56545F41 
 6922      44445F44 
 6922      45564943 
 6923              	.LASF437:
 6924 340e 43595F42 		.ascii	"CY_BLE_EVT_SET_SUGGESTED_DATA_LENGTH_COMPLETE\000"
 6924      4C455F45 
ARM GAS  C:\Users\salaz\AppData\Local\Temp\cc7F8fiw.s 			page 192


 6924      56545F53 
 6924      45545F53 
 6924      55474745 
 6925              	.LASF290:
 6926 343c 75696E74 		.ascii	"uint16\000"
 6926      313600
 6927              	.LASF230:
 6928 3443 4932435F 		.ascii	"I2C_CTRL\000"
 6928      4354524C 
 6928      00
 6929              	.LASF311:
 6930 344c 73746172 		.ascii	"startInput\000"
 6930      74496E70 
 6930      757400
 6931              	.LASF473:
 6932 3457 43595F42 		.ascii	"CY_BLE_EVT_SET_CE_LENGTH_COMPLETE\000"
 6932      4C455F45 
 6932      56545F53 
 6932      45545F43 
 6932      455F4C45 
 6933              	.LASF26:
 6934 3479 4E766963 		.ascii	"NvicMux20_IRQn\000"
 6934      4D757832 
 6934      305F4952 
 6934      516E00
 6935              	.LASF495:
 6936 3488 43595F42 		.ascii	"CY_BLE_EVT_GAP_KEYS_GEN_COMPLETE\000"
 6936      4C455F45 
 6936      56545F47 
 6936      41505F4B 
 6936      4559535F 
 6937              	.LASF363:
 6938 34a9 43595F53 		.ascii	"CY_SCB_UART_IRDA\000"
 6938      43425F55 
 6938      4152545F 
 6938      49524441 
 6938      00
 6939              	.LASF581:
 6940 34ba 46534D5F 		.ascii	"FSM_VERIFY_USER\000"
 6940      56455249 
 6940      46595F55 
 6940      53455200 
 6941              		.ident	"GCC: (GNU Tools for ARM Embedded Processors) 5.4.1 20160609 (release) [ARM/embedded-5-bran
