ARM GAS  C:\Users\salaz\AppData\Local\Temp\ccI54lrI.s 			page 1


   1              		.syntax unified
   2              		.cpu cortex-m0plus
   3              		.fpu softvfp
   4              		.eabi_attribute 20, 1
   5              		.eabi_attribute 21, 1
   6              		.eabi_attribute 23, 3
   7              		.eabi_attribute 24, 1
   8              		.eabi_attribute 25, 1
   9              		.eabi_attribute 26, 1
  10              		.eabi_attribute 30, 1
  11              		.eabi_attribute 34, 0
  12              		.eabi_attribute 18, 4
  13              		.thumb
  14              		.syntax unified
  15              		.file	"AppControl.c"
  16              		.text
  17              	.Ltext0:
  18              		.cfi_sections	.debug_frame
  19              		.section	.text.AppControlHandler,"ax",%progbits
  20              		.align	2
  21              		.global	AppControlHandler
  22              		.code	16
  23              		.thumb_func
  24              		.type	AppControlHandler, %function
  25              	AppControlHandler:
  26              	.LFB792:
  27              		.file 1 "AppControl.c"
   1:AppControl.c  **** 
   2:AppControl.c  **** #include <AppControl.h>
   3:AppControl.c  **** #include <KinOS.h>
   4:AppControl.c  **** 
   5:AppControl.c  **** #include "debug.h"
   6:AppControl.c  **** 
   7:AppControl.c  **** enum{   FSM_INITIALIZE, 
   8:AppControl.c  ****         FSM_IDLE, 
   9:AppControl.c  ****         FSM_CHECK_MOTION, 
  10:AppControl.c  ****         FSM_VERIFY_USER, 
  11:AppControl.c  ****         FSM_STOLEN,
  12:AppControl.c  ****         FSM_DAY,
  13:AppControl.c  ****         FSM_NIGHT,
  14:AppControl.c  ****         FSM_RIDE
  15:AppControl.c  ****     };
  16:AppControl.c  **** 
  17:AppControl.c  **** // Control Parameters
  18:AppControl.c  **** // NIGHT DAY
  19:AppControl.c  **** uint16 morningThreshold = 7;
  20:AppControl.c  **** uint16 nightThreshold = 20;
  21:AppControl.c  **** uint32 rideNightCheck_ms = 60000;
  22:AppControl.c  **** // VERIFY
  23:AppControl.c  **** uint16 verifyAdvertise_s = 30;
  24:AppControl.c  **** uint8 verifyLightCycles = 8;
  25:AppControl.c  **** // STOLEN
  26:AppControl.c  **** uint16 stolenAdvertise_s = 30;
  27:AppControl.c  **** uint8 stolenLightCycles = 15;
  28:AppControl.c  **** 
  29:AppControl.c  **** void AppControlHandler()
  30:AppControl.c  **** {
ARM GAS  C:\Users\salaz\AppData\Local\Temp\ccI54lrI.s 			page 2


  28              		.loc 1 30 0
  29              		.cfi_startproc
  30              		@ args = 0, pretend = 0, frame = 16
  31              		@ frame_needed = 0, uses_anonymous_args = 0
  32 0000 10B5     		push	{r4, lr}
  33              		.cfi_def_cfa_offset 8
  34              		.cfi_offset 4, -8
  35              		.cfi_offset 14, -4
  36 0002 84B0     		sub	sp, sp, #16
  37              		.cfi_def_cfa_offset 24
  38              	.L54:
  31:AppControl.c  ****     static bool motion_latch = false;
  32:AppControl.c  ****     
  33:AppControl.c  ****     bool update_done = false;
  34:AppControl.c  ****     static uint8 current_state = FSM_INITIALIZE;
  35:AppControl.c  ****     static uint8 next_state    = FSM_INITIALIZE;
  36:AppControl.c  ****         
  37:AppControl.c  ****     do  //-----------------------------------------------------//
  38:AppControl.c  ****     {   //-------------------State-Transitions-----------------//
  39:AppControl.c  ****         
  40:AppControl.c  ****         switch(current_state)
  39              		.loc 1 40 0
  40 0004 C64B     		ldr	r3, .L56
  41 0006 1A78     		ldrb	r2, [r3]
  42 0008 072A     		cmp	r2, #7
  43 000a 00D9     		bls	.LCB15
  44 000c 00E1     		b	.L2	@long jump
  45              	.LCB15:
  46 000e 9300     		lsls	r3, r2, #2
  47 0010 C44A     		ldr	r2, .L56+4
  48 0012 D358     		ldr	r3, [r2, r3]
  49 0014 9F46     		mov	pc, r3
  50              		.section	.rodata
  51              		.align	2
  52              	.L4:
  53 0000 16000000 		.word	.L3
  54 0004 3E000000 		.word	.L5
  55 0008 70000000 		.word	.L6
  56 000c CE000000 		.word	.L7
  57 0010 10010000 		.word	.L8
  58 0014 C2010000 		.word	.L9
  59 0018 EA010000 		.word	.L10
  60 001c 60010000 		.word	.L11
  61              		.section	.text.AppControlHandler
  62              	.L3:
  41:AppControl.c  ****         {
  42:AppControl.c  ****             //initial state on boot, disables all leds
  43:AppControl.c  ****             case FSM_INITIALIZE: 
  44:AppControl.c  ****             {
  45:AppControl.c  ****                 DEBUG_PRINTF("FSM_INITIALIZE\r\n"); 
  63              		.loc 1 45 0
  64 0016 C448     		ldr	r0, .L56+8
  65 0018 FFF7FEFF 		bl	puts
  66              	.LVL0:
  67              	.L12:
  68              	.LBB85:
  69              	.LBB86:
ARM GAS  C:\Users\salaz\AppData\Local\Temp\ccI54lrI.s 			page 3


  70              		.file 2 "Generated_Source\\PSoC6\\pdl\\drivers/peripheral/scb/cy_scb_common.h"
   1:Generated_Source\PSoC6\pdl\drivers/peripheral/scb/cy_scb_common.h **** /***************************************************************************//**
   2:Generated_Source\PSoC6\pdl\drivers/peripheral/scb/cy_scb_common.h **** * \file cy_scb_common.h
   3:Generated_Source\PSoC6\pdl\drivers/peripheral/scb/cy_scb_common.h **** * \version 2.10
   4:Generated_Source\PSoC6\pdl\drivers/peripheral/scb/cy_scb_common.h **** *
   5:Generated_Source\PSoC6\pdl\drivers/peripheral/scb/cy_scb_common.h **** * Provides common API declarations of the SCB driver.
   6:Generated_Source\PSoC6\pdl\drivers/peripheral/scb/cy_scb_common.h **** *
   7:Generated_Source\PSoC6\pdl\drivers/peripheral/scb/cy_scb_common.h **** ********************************************************************************
   8:Generated_Source\PSoC6\pdl\drivers/peripheral/scb/cy_scb_common.h **** * \copyright
   9:Generated_Source\PSoC6\pdl\drivers/peripheral/scb/cy_scb_common.h **** * Copyright 2016-2018, Cypress Semiconductor Corporation.  All rights reserved.
  10:Generated_Source\PSoC6\pdl\drivers/peripheral/scb/cy_scb_common.h **** * You may use this file only in accordance with the license, terms, conditions,
  11:Generated_Source\PSoC6\pdl\drivers/peripheral/scb/cy_scb_common.h **** * disclaimers, and limitations in the end user license agreement accompanying
  12:Generated_Source\PSoC6\pdl\drivers/peripheral/scb/cy_scb_common.h **** * the software package with which this file was provided.
  13:Generated_Source\PSoC6\pdl\drivers/peripheral/scb/cy_scb_common.h **** *******************************************************************************/
  14:Generated_Source\PSoC6\pdl\drivers/peripheral/scb/cy_scb_common.h **** 
  15:Generated_Source\PSoC6\pdl\drivers/peripheral/scb/cy_scb_common.h **** /**
  16:Generated_Source\PSoC6\pdl\drivers/peripheral/scb/cy_scb_common.h **** * \defgroup group_scb Serial Communication Block (SCB)
  17:Generated_Source\PSoC6\pdl\drivers/peripheral/scb/cy_scb_common.h **** * \{
  18:Generated_Source\PSoC6\pdl\drivers/peripheral/scb/cy_scb_common.h **** * \defgroup group_scb_common Common
  19:Generated_Source\PSoC6\pdl\drivers/peripheral/scb/cy_scb_common.h **** * \defgroup group_scb_ezi2c  EZI2C (SCB)
  20:Generated_Source\PSoC6\pdl\drivers/peripheral/scb/cy_scb_common.h **** * \defgroup group_scb_i2c    I2C (SCB)
  21:Generated_Source\PSoC6\pdl\drivers/peripheral/scb/cy_scb_common.h **** * \defgroup group_scb_spi    SPI (SCB)
  22:Generated_Source\PSoC6\pdl\drivers/peripheral/scb/cy_scb_common.h **** * \defgroup group_scb_uart   UART (SCB)
  23:Generated_Source\PSoC6\pdl\drivers/peripheral/scb/cy_scb_common.h **** * \} */
  24:Generated_Source\PSoC6\pdl\drivers/peripheral/scb/cy_scb_common.h **** 
  25:Generated_Source\PSoC6\pdl\drivers/peripheral/scb/cy_scb_common.h **** /**
  26:Generated_Source\PSoC6\pdl\drivers/peripheral/scb/cy_scb_common.h **** * \addtogroup group_scb_common
  27:Generated_Source\PSoC6\pdl\drivers/peripheral/scb/cy_scb_common.h **** * \{
  28:Generated_Source\PSoC6\pdl\drivers/peripheral/scb/cy_scb_common.h **** *
  29:Generated_Source\PSoC6\pdl\drivers/peripheral/scb/cy_scb_common.h **** * Common API for the Serial Communication Block.
  30:Generated_Source\PSoC6\pdl\drivers/peripheral/scb/cy_scb_common.h **** *
  31:Generated_Source\PSoC6\pdl\drivers/peripheral/scb/cy_scb_common.h **** * This is the common API that provides an interface to the SCB hardware.
  32:Generated_Source\PSoC6\pdl\drivers/peripheral/scb/cy_scb_common.h **** * The I2C, SPI, and UART drivers use this common API.
  33:Generated_Source\PSoC6\pdl\drivers/peripheral/scb/cy_scb_common.h **** * Most users will use individual drivers and do not need to use the common
  34:Generated_Source\PSoC6\pdl\drivers/peripheral/scb/cy_scb_common.h **** * API for the SCB. However, you can use the common SCB API to implement
  35:Generated_Source\PSoC6\pdl\drivers/peripheral/scb/cy_scb_common.h **** * a custom driver based on the SCB hardware.
  36:Generated_Source\PSoC6\pdl\drivers/peripheral/scb/cy_scb_common.h **** *
  37:Generated_Source\PSoC6\pdl\drivers/peripheral/scb/cy_scb_common.h **** * \section group_scb_common_configuration Configuration Considerations
  38:Generated_Source\PSoC6\pdl\drivers/peripheral/scb/cy_scb_common.h **** *
  39:Generated_Source\PSoC6\pdl\drivers/peripheral/scb/cy_scb_common.h **** * This is not a driver and it does not require configuration.
  40:Generated_Source\PSoC6\pdl\drivers/peripheral/scb/cy_scb_common.h **** *
  41:Generated_Source\PSoC6\pdl\drivers/peripheral/scb/cy_scb_common.h **** * \section group_scb_common_more_information More Information
  42:Generated_Source\PSoC6\pdl\drivers/peripheral/scb/cy_scb_common.h **** *
  43:Generated_Source\PSoC6\pdl\drivers/peripheral/scb/cy_scb_common.h **** * Refer to the SCB chapter of the technical reference manual (TRM).
  44:Generated_Source\PSoC6\pdl\drivers/peripheral/scb/cy_scb_common.h **** *
  45:Generated_Source\PSoC6\pdl\drivers/peripheral/scb/cy_scb_common.h **** * \section group_scb_common_MISRA MISRA-C Compliance
  46:Generated_Source\PSoC6\pdl\drivers/peripheral/scb/cy_scb_common.h **** * <table class="doxtable">
  47:Generated_Source\PSoC6\pdl\drivers/peripheral/scb/cy_scb_common.h **** *   <tr>
  48:Generated_Source\PSoC6\pdl\drivers/peripheral/scb/cy_scb_common.h **** *     <th>MISRA rule</th>
  49:Generated_Source\PSoC6\pdl\drivers/peripheral/scb/cy_scb_common.h **** *     <th>Rule Class (Required/Advisory)</th>
  50:Generated_Source\PSoC6\pdl\drivers/peripheral/scb/cy_scb_common.h **** *     <th>Rule Description</th>
  51:Generated_Source\PSoC6\pdl\drivers/peripheral/scb/cy_scb_common.h **** *     <th>Description of Deviation(s)</th>
  52:Generated_Source\PSoC6\pdl\drivers/peripheral/scb/cy_scb_common.h **** *   </tr>
  53:Generated_Source\PSoC6\pdl\drivers/peripheral/scb/cy_scb_common.h **** *   <tr>
  54:Generated_Source\PSoC6\pdl\drivers/peripheral/scb/cy_scb_common.h **** *     <td>11.4</td>
  55:Generated_Source\PSoC6\pdl\drivers/peripheral/scb/cy_scb_common.h **** *     <td>A</td>
  56:Generated_Source\PSoC6\pdl\drivers/peripheral/scb/cy_scb_common.h **** *     <td>A cast should not be performed between a pointer to object type and
ARM GAS  C:\Users\salaz\AppData\Local\Temp\ccI54lrI.s 			page 4


  57:Generated_Source\PSoC6\pdl\drivers/peripheral/scb/cy_scb_common.h **** *         a different pointer to object type.</td>
  58:Generated_Source\PSoC6\pdl\drivers/peripheral/scb/cy_scb_common.h **** *     <td>The pointer to the buffer memory is void to allow handling of
  59:Generated_Source\PSoC6\pdl\drivers/peripheral/scb/cy_scb_common.h **** *         different data types: uint8_t (4-8 bits) or uint16_t (9-16 bits).
  60:Generated_Source\PSoC6\pdl\drivers/peripheral/scb/cy_scb_common.h **** *         The cast operation is safe because the configuration is verified
  61:Generated_Source\PSoC6\pdl\drivers/peripheral/scb/cy_scb_common.h **** *         before operation is performed.
  62:Generated_Source\PSoC6\pdl\drivers/peripheral/scb/cy_scb_common.h **** *         </td>
  63:Generated_Source\PSoC6\pdl\drivers/peripheral/scb/cy_scb_common.h **** *   </tr>
  64:Generated_Source\PSoC6\pdl\drivers/peripheral/scb/cy_scb_common.h **** * </table>
  65:Generated_Source\PSoC6\pdl\drivers/peripheral/scb/cy_scb_common.h **** *
  66:Generated_Source\PSoC6\pdl\drivers/peripheral/scb/cy_scb_common.h **** * \section group_scb_common_changelog Changelog
  67:Generated_Source\PSoC6\pdl\drivers/peripheral/scb/cy_scb_common.h **** * <table class="doxtable">
  68:Generated_Source\PSoC6\pdl\drivers/peripheral/scb/cy_scb_common.h **** *   <tr><th>Version</th><th>Changes</th><th>Reason for Change</th></tr>
  69:Generated_Source\PSoC6\pdl\drivers/peripheral/scb/cy_scb_common.h **** *   <tr>
  70:Generated_Source\PSoC6\pdl\drivers/peripheral/scb/cy_scb_common.h **** *     <td>2.10</td>
  71:Generated_Source\PSoC6\pdl\drivers/peripheral/scb/cy_scb_common.h **** *     <td>None.</td>
  72:Generated_Source\PSoC6\pdl\drivers/peripheral/scb/cy_scb_common.h **** *     <td>SCB I2C driver updated.</td>
  73:Generated_Source\PSoC6\pdl\drivers/peripheral/scb/cy_scb_common.h **** *   </tr>
  74:Generated_Source\PSoC6\pdl\drivers/peripheral/scb/cy_scb_common.h **** *   <tr>
  75:Generated_Source\PSoC6\pdl\drivers/peripheral/scb/cy_scb_common.h **** *     <td rowspan="2"> 2.0</td>
  76:Generated_Source\PSoC6\pdl\drivers/peripheral/scb/cy_scb_common.h **** *     <td>Added parameters validation for public API.
  77:Generated_Source\PSoC6\pdl\drivers/peripheral/scb/cy_scb_common.h **** *     <td></td>
  78:Generated_Source\PSoC6\pdl\drivers/peripheral/scb/cy_scb_common.h **** *   </tr>
  79:Generated_Source\PSoC6\pdl\drivers/peripheral/scb/cy_scb_common.h **** *   <tr>
  80:Generated_Source\PSoC6\pdl\drivers/peripheral/scb/cy_scb_common.h **** *     <td>Fixed functions which return interrupt status to return only defined
  81:Generated_Source\PSoC6\pdl\drivers/peripheral/scb/cy_scb_common.h **** *         set of interrupt statuses.</td>
  82:Generated_Source\PSoC6\pdl\drivers/peripheral/scb/cy_scb_common.h **** *     <td></td>
  83:Generated_Source\PSoC6\pdl\drivers/peripheral/scb/cy_scb_common.h **** *   </tr>
  84:Generated_Source\PSoC6\pdl\drivers/peripheral/scb/cy_scb_common.h **** *   <tr>
  85:Generated_Source\PSoC6\pdl\drivers/peripheral/scb/cy_scb_common.h **** *     <td>1.0</td>
  86:Generated_Source\PSoC6\pdl\drivers/peripheral/scb/cy_scb_common.h **** *     <td>Initial version.</td>
  87:Generated_Source\PSoC6\pdl\drivers/peripheral/scb/cy_scb_common.h **** *     <td></td>
  88:Generated_Source\PSoC6\pdl\drivers/peripheral/scb/cy_scb_common.h **** *   </tr>
  89:Generated_Source\PSoC6\pdl\drivers/peripheral/scb/cy_scb_common.h **** * </table>
  90:Generated_Source\PSoC6\pdl\drivers/peripheral/scb/cy_scb_common.h **** *
  91:Generated_Source\PSoC6\pdl\drivers/peripheral/scb/cy_scb_common.h **** * \defgroup group_scb_common_macros Macros
  92:Generated_Source\PSoC6\pdl\drivers/peripheral/scb/cy_scb_common.h **** * \defgroup group_scb_common_functions Functions
  93:Generated_Source\PSoC6\pdl\drivers/peripheral/scb/cy_scb_common.h **** * \defgroup group_scb_common_data_structures Data Structures
  94:Generated_Source\PSoC6\pdl\drivers/peripheral/scb/cy_scb_common.h **** *
  95:Generated_Source\PSoC6\pdl\drivers/peripheral/scb/cy_scb_common.h **** */
  96:Generated_Source\PSoC6\pdl\drivers/peripheral/scb/cy_scb_common.h **** 
  97:Generated_Source\PSoC6\pdl\drivers/peripheral/scb/cy_scb_common.h **** #if !defined(CY_SCB_COMMON_H)
  98:Generated_Source\PSoC6\pdl\drivers/peripheral/scb/cy_scb_common.h **** #define CY_SCB_COMMON_H
  99:Generated_Source\PSoC6\pdl\drivers/peripheral/scb/cy_scb_common.h **** 
 100:Generated_Source\PSoC6\pdl\drivers/peripheral/scb/cy_scb_common.h **** #include <stdint.h>
 101:Generated_Source\PSoC6\pdl\drivers/peripheral/scb/cy_scb_common.h **** #include <stddef.h>
 102:Generated_Source\PSoC6\pdl\drivers/peripheral/scb/cy_scb_common.h **** #include <stdbool.h>
 103:Generated_Source\PSoC6\pdl\drivers/peripheral/scb/cy_scb_common.h **** #include "cy_device_headers.h"
 104:Generated_Source\PSoC6\pdl\drivers/peripheral/scb/cy_scb_common.h **** #include "syslib/cy_syslib.h"
 105:Generated_Source\PSoC6\pdl\drivers/peripheral/scb/cy_scb_common.h **** #include "syspm/cy_syspm.h"
 106:Generated_Source\PSoC6\pdl\drivers/peripheral/scb/cy_scb_common.h **** 
 107:Generated_Source\PSoC6\pdl\drivers/peripheral/scb/cy_scb_common.h **** #ifndef CY_IP_MXSCB
 108:Generated_Source\PSoC6\pdl\drivers/peripheral/scb/cy_scb_common.h ****     #error "The SCB driver is not supported on this device"
 109:Generated_Source\PSoC6\pdl\drivers/peripheral/scb/cy_scb_common.h **** #endif
 110:Generated_Source\PSoC6\pdl\drivers/peripheral/scb/cy_scb_common.h **** 
 111:Generated_Source\PSoC6\pdl\drivers/peripheral/scb/cy_scb_common.h **** #if defined(__cplusplus)
 112:Generated_Source\PSoC6\pdl\drivers/peripheral/scb/cy_scb_common.h **** extern "C" {
 113:Generated_Source\PSoC6\pdl\drivers/peripheral/scb/cy_scb_common.h **** #endif
ARM GAS  C:\Users\salaz\AppData\Local\Temp\ccI54lrI.s 			page 5


 114:Generated_Source\PSoC6\pdl\drivers/peripheral/scb/cy_scb_common.h **** 
 115:Generated_Source\PSoC6\pdl\drivers/peripheral/scb/cy_scb_common.h **** 
 116:Generated_Source\PSoC6\pdl\drivers/peripheral/scb/cy_scb_common.h **** /***************************************
 117:Generated_Source\PSoC6\pdl\drivers/peripheral/scb/cy_scb_common.h **** *        Function Prototypes
 118:Generated_Source\PSoC6\pdl\drivers/peripheral/scb/cy_scb_common.h **** ***************************************/
 119:Generated_Source\PSoC6\pdl\drivers/peripheral/scb/cy_scb_common.h **** 
 120:Generated_Source\PSoC6\pdl\drivers/peripheral/scb/cy_scb_common.h **** /**
 121:Generated_Source\PSoC6\pdl\drivers/peripheral/scb/cy_scb_common.h **** * \addtogroup group_scb_common_functions
 122:Generated_Source\PSoC6\pdl\drivers/peripheral/scb/cy_scb_common.h **** * \{
 123:Generated_Source\PSoC6\pdl\drivers/peripheral/scb/cy_scb_common.h **** */
 124:Generated_Source\PSoC6\pdl\drivers/peripheral/scb/cy_scb_common.h **** __STATIC_INLINE uint32_t Cy_SCB_ReadRxFifo    (CySCB_Type const *base);
 125:Generated_Source\PSoC6\pdl\drivers/peripheral/scb/cy_scb_common.h **** __STATIC_INLINE void     Cy_SCB_SetRxFifoLevel(CySCB_Type *base, uint32_t level);
 126:Generated_Source\PSoC6\pdl\drivers/peripheral/scb/cy_scb_common.h **** __STATIC_INLINE uint32_t Cy_SCB_GetNumInRxFifo(CySCB_Type const *base);
 127:Generated_Source\PSoC6\pdl\drivers/peripheral/scb/cy_scb_common.h **** __STATIC_INLINE uint32_t Cy_SCB_GetRxSrValid  (CySCB_Type const *base);
 128:Generated_Source\PSoC6\pdl\drivers/peripheral/scb/cy_scb_common.h **** __STATIC_INLINE void     Cy_SCB_ClearRxFifo   (CySCB_Type *base);
 129:Generated_Source\PSoC6\pdl\drivers/peripheral/scb/cy_scb_common.h **** 
 130:Generated_Source\PSoC6\pdl\drivers/peripheral/scb/cy_scb_common.h **** __STATIC_INLINE void     Cy_SCB_WriteTxFifo   (CySCB_Type *base, uint32_t data);
 131:Generated_Source\PSoC6\pdl\drivers/peripheral/scb/cy_scb_common.h **** __STATIC_INLINE void     Cy_SCB_SetTxFifoLevel(CySCB_Type *base, uint32_t level);
 132:Generated_Source\PSoC6\pdl\drivers/peripheral/scb/cy_scb_common.h **** __STATIC_INLINE uint32_t Cy_SCB_GetNumInTxFifo(CySCB_Type const *base);
 133:Generated_Source\PSoC6\pdl\drivers/peripheral/scb/cy_scb_common.h **** __STATIC_INLINE uint32_t Cy_SCB_GetTxSrValid  (CySCB_Type const *base);
 134:Generated_Source\PSoC6\pdl\drivers/peripheral/scb/cy_scb_common.h **** __STATIC_INLINE bool     Cy_SCB_IsTxComplete  (CySCB_Type const *base);
 135:Generated_Source\PSoC6\pdl\drivers/peripheral/scb/cy_scb_common.h **** __STATIC_INLINE void     Cy_SCB_ClearTxFifo   (CySCB_Type *base);
 136:Generated_Source\PSoC6\pdl\drivers/peripheral/scb/cy_scb_common.h **** 
 137:Generated_Source\PSoC6\pdl\drivers/peripheral/scb/cy_scb_common.h **** __STATIC_INLINE void     Cy_SCB_SetByteMode(CySCB_Type *base, bool byteMode);
 138:Generated_Source\PSoC6\pdl\drivers/peripheral/scb/cy_scb_common.h **** 
 139:Generated_Source\PSoC6\pdl\drivers/peripheral/scb/cy_scb_common.h **** __STATIC_INLINE uint32_t Cy_SCB_GetInterruptCause(CySCB_Type const *base);
 140:Generated_Source\PSoC6\pdl\drivers/peripheral/scb/cy_scb_common.h **** 
 141:Generated_Source\PSoC6\pdl\drivers/peripheral/scb/cy_scb_common.h **** __STATIC_INLINE uint32_t Cy_SCB_GetRxInterruptStatus(CySCB_Type const *base);
 142:Generated_Source\PSoC6\pdl\drivers/peripheral/scb/cy_scb_common.h **** __STATIC_INLINE void     Cy_SCB_SetRxInterruptMask  (CySCB_Type *base, uint32_t interruptMask);
 143:Generated_Source\PSoC6\pdl\drivers/peripheral/scb/cy_scb_common.h **** __STATIC_INLINE uint32_t Cy_SCB_GetRxInterruptMask  (CySCB_Type const *base);
 144:Generated_Source\PSoC6\pdl\drivers/peripheral/scb/cy_scb_common.h **** __STATIC_INLINE uint32_t Cy_SCB_GetRxInterruptStatusMasked(CySCB_Type const *base);
 145:Generated_Source\PSoC6\pdl\drivers/peripheral/scb/cy_scb_common.h **** __STATIC_INLINE void     Cy_SCB_ClearRxInterrupt    (CySCB_Type *base, uint32_t interruptMask);
 146:Generated_Source\PSoC6\pdl\drivers/peripheral/scb/cy_scb_common.h **** __STATIC_INLINE void     Cy_SCB_SetRxInterrupt      (CySCB_Type *base, uint32_t interruptMask);
 147:Generated_Source\PSoC6\pdl\drivers/peripheral/scb/cy_scb_common.h **** 
 148:Generated_Source\PSoC6\pdl\drivers/peripheral/scb/cy_scb_common.h **** __STATIC_INLINE uint32_t Cy_SCB_GetTxInterruptStatus(CySCB_Type const *base);
 149:Generated_Source\PSoC6\pdl\drivers/peripheral/scb/cy_scb_common.h **** __STATIC_INLINE void     Cy_SCB_SetTxInterruptMask  (CySCB_Type *base, uint32_t interruptMask);
 150:Generated_Source\PSoC6\pdl\drivers/peripheral/scb/cy_scb_common.h **** __STATIC_INLINE uint32_t Cy_SCB_GetTxInterruptMask  (CySCB_Type const *base);
 151:Generated_Source\PSoC6\pdl\drivers/peripheral/scb/cy_scb_common.h **** __STATIC_INLINE uint32_t Cy_SCB_GetTxInterruptStatusMasked(CySCB_Type const *base);
 152:Generated_Source\PSoC6\pdl\drivers/peripheral/scb/cy_scb_common.h **** __STATIC_INLINE void     Cy_SCB_ClearTxInterrupt    (CySCB_Type *base, uint32_t interruptMask);
 153:Generated_Source\PSoC6\pdl\drivers/peripheral/scb/cy_scb_common.h **** __STATIC_INLINE void     Cy_SCB_SetTxInterrupt      (CySCB_Type *base, uint32_t interruptMask);
 154:Generated_Source\PSoC6\pdl\drivers/peripheral/scb/cy_scb_common.h **** 
 155:Generated_Source\PSoC6\pdl\drivers/peripheral/scb/cy_scb_common.h **** __STATIC_INLINE uint32_t Cy_SCB_GetMasterInterruptStatus(CySCB_Type const *base);
 156:Generated_Source\PSoC6\pdl\drivers/peripheral/scb/cy_scb_common.h **** __STATIC_INLINE void     Cy_SCB_SetMasterInterruptMask  (CySCB_Type *base, uint32_t interruptMask);
 157:Generated_Source\PSoC6\pdl\drivers/peripheral/scb/cy_scb_common.h **** __STATIC_INLINE uint32_t Cy_SCB_GetMasterInterruptMask  (CySCB_Type const *base);
 158:Generated_Source\PSoC6\pdl\drivers/peripheral/scb/cy_scb_common.h **** __STATIC_INLINE uint32_t Cy_SCB_GetMasterInterruptStatusMasked(CySCB_Type const *base);
 159:Generated_Source\PSoC6\pdl\drivers/peripheral/scb/cy_scb_common.h **** __STATIC_INLINE void     Cy_SCB_ClearMasterInterrupt    (CySCB_Type *base, uint32_t interruptMask);
 160:Generated_Source\PSoC6\pdl\drivers/peripheral/scb/cy_scb_common.h **** __STATIC_INLINE void     Cy_SCB_SetMasterInterrupt      (CySCB_Type *base, uint32_t interruptMask);
 161:Generated_Source\PSoC6\pdl\drivers/peripheral/scb/cy_scb_common.h **** 
 162:Generated_Source\PSoC6\pdl\drivers/peripheral/scb/cy_scb_common.h **** __STATIC_INLINE uint32_t Cy_SCB_GetSlaveInterruptStatus(CySCB_Type const *base);
 163:Generated_Source\PSoC6\pdl\drivers/peripheral/scb/cy_scb_common.h **** __STATIC_INLINE void     Cy_SCB_SetSlaveInterruptMask  (CySCB_Type *base, uint32_t interruptMask);
 164:Generated_Source\PSoC6\pdl\drivers/peripheral/scb/cy_scb_common.h **** __STATIC_INLINE uint32_t Cy_SCB_GetSlaveInterruptMask  (CySCB_Type const *base);
 165:Generated_Source\PSoC6\pdl\drivers/peripheral/scb/cy_scb_common.h **** __STATIC_INLINE uint32_t Cy_SCB_GetSlaveInterruptStatusMasked(CySCB_Type const *base);
 166:Generated_Source\PSoC6\pdl\drivers/peripheral/scb/cy_scb_common.h **** __STATIC_INLINE void     Cy_SCB_ClearSlaveInterrupt    (CySCB_Type *base, uint32_t interruptMask);
 167:Generated_Source\PSoC6\pdl\drivers/peripheral/scb/cy_scb_common.h **** __STATIC_INLINE void     Cy_SCB_SetSlaveInterrupt      (CySCB_Type *base, uint32_t interruptMask);
 168:Generated_Source\PSoC6\pdl\drivers/peripheral/scb/cy_scb_common.h **** 
 169:Generated_Source\PSoC6\pdl\drivers/peripheral/scb/cy_scb_common.h **** __STATIC_INLINE uint32_t Cy_SCB_GetI2CInterruptStatus(CySCB_Type const *base);
 170:Generated_Source\PSoC6\pdl\drivers/peripheral/scb/cy_scb_common.h **** __STATIC_INLINE void     Cy_SCB_SetI2CInterruptMask  (CySCB_Type *base, uint32_t interruptMask);
ARM GAS  C:\Users\salaz\AppData\Local\Temp\ccI54lrI.s 			page 6


 171:Generated_Source\PSoC6\pdl\drivers/peripheral/scb/cy_scb_common.h **** __STATIC_INLINE uint32_t Cy_SCB_GetI2CInterruptMask  (CySCB_Type const *base);
 172:Generated_Source\PSoC6\pdl\drivers/peripheral/scb/cy_scb_common.h **** __STATIC_INLINE uint32_t Cy_SCB_GetI2CInterruptStatusMasked(CySCB_Type const *base);
 173:Generated_Source\PSoC6\pdl\drivers/peripheral/scb/cy_scb_common.h **** __STATIC_INLINE void     Cy_SCB_ClearI2CInterrupt    (CySCB_Type *base, uint32_t interruptMask);
 174:Generated_Source\PSoC6\pdl\drivers/peripheral/scb/cy_scb_common.h **** 
 175:Generated_Source\PSoC6\pdl\drivers/peripheral/scb/cy_scb_common.h **** __STATIC_INLINE uint32_t Cy_SCB_GetSpiInterruptStatus(CySCB_Type const *base);
 176:Generated_Source\PSoC6\pdl\drivers/peripheral/scb/cy_scb_common.h **** __STATIC_INLINE void     Cy_SCB_SetSpiInterruptMask  (CySCB_Type *base, uint32_t interruptMask);
 177:Generated_Source\PSoC6\pdl\drivers/peripheral/scb/cy_scb_common.h **** __STATIC_INLINE uint32_t Cy_SCB_GetSpiInterruptMask  (CySCB_Type const *base);
 178:Generated_Source\PSoC6\pdl\drivers/peripheral/scb/cy_scb_common.h **** __STATIC_INLINE uint32_t Cy_SCB_GetSpiInterruptStatusMasked(CySCB_Type const *base);
 179:Generated_Source\PSoC6\pdl\drivers/peripheral/scb/cy_scb_common.h **** __STATIC_INLINE void     Cy_SCB_ClearSpiInterrupt    (CySCB_Type *base, uint32_t interruptMask);
 180:Generated_Source\PSoC6\pdl\drivers/peripheral/scb/cy_scb_common.h **** 
 181:Generated_Source\PSoC6\pdl\drivers/peripheral/scb/cy_scb_common.h **** 
 182:Generated_Source\PSoC6\pdl\drivers/peripheral/scb/cy_scb_common.h **** /***************************************
 183:Generated_Source\PSoC6\pdl\drivers/peripheral/scb/cy_scb_common.h **** *     Internal Function Prototypes
 184:Generated_Source\PSoC6\pdl\drivers/peripheral/scb/cy_scb_common.h **** ***************************************/
 185:Generated_Source\PSoC6\pdl\drivers/peripheral/scb/cy_scb_common.h **** 
 186:Generated_Source\PSoC6\pdl\drivers/peripheral/scb/cy_scb_common.h **** /** \cond INTERNAL */
 187:Generated_Source\PSoC6\pdl\drivers/peripheral/scb/cy_scb_common.h **** void     Cy_SCB_ReadArrayNoCheck  (CySCB_Type const *base, void *buffer, uint32_t size);
 188:Generated_Source\PSoC6\pdl\drivers/peripheral/scb/cy_scb_common.h **** uint32_t Cy_SCB_ReadArray         (CySCB_Type const *base, void *buffer, uint32_t size);
 189:Generated_Source\PSoC6\pdl\drivers/peripheral/scb/cy_scb_common.h **** void     Cy_SCB_ReadArrayBlocking (CySCB_Type const *base, void *buffer, uint32_t size);
 190:Generated_Source\PSoC6\pdl\drivers/peripheral/scb/cy_scb_common.h **** uint32_t Cy_SCB_Write             (CySCB_Type *base, uint32_t data);
 191:Generated_Source\PSoC6\pdl\drivers/peripheral/scb/cy_scb_common.h **** void     Cy_SCB_WriteArrayNoCheck (CySCB_Type *base, void *buffer, uint32_t size);
 192:Generated_Source\PSoC6\pdl\drivers/peripheral/scb/cy_scb_common.h **** uint32_t Cy_SCB_WriteArray        (CySCB_Type *base, void *buffer, uint32_t size);
 193:Generated_Source\PSoC6\pdl\drivers/peripheral/scb/cy_scb_common.h **** void     Cy_SCB_WriteArrayBlocking(CySCB_Type *base, void *buffer, uint32_t size);
 194:Generated_Source\PSoC6\pdl\drivers/peripheral/scb/cy_scb_common.h **** void     Cy_SCB_WriteString       (CySCB_Type *base, char_t const string[]);
 195:Generated_Source\PSoC6\pdl\drivers/peripheral/scb/cy_scb_common.h **** void     Cy_SCB_WriteDefaultArrayNoCheck(CySCB_Type *base, uint32_t txData, uint32_t size);
 196:Generated_Source\PSoC6\pdl\drivers/peripheral/scb/cy_scb_common.h **** uint32_t Cy_SCB_WriteDefaultArray (CySCB_Type *base, uint32_t txData, uint32_t size);
 197:Generated_Source\PSoC6\pdl\drivers/peripheral/scb/cy_scb_common.h **** 
 198:Generated_Source\PSoC6\pdl\drivers/peripheral/scb/cy_scb_common.h **** __STATIC_INLINE uint32_t Cy_SCB_GetFifoSize (CySCB_Type const *base);
 199:Generated_Source\PSoC6\pdl\drivers/peripheral/scb/cy_scb_common.h **** __STATIC_INLINE void     Cy_SCB_FwBlockReset(CySCB_Type *base);
 200:Generated_Source\PSoC6\pdl\drivers/peripheral/scb/cy_scb_common.h **** __STATIC_INLINE bool     Cy_SCB_IsRxDataWidthByte(CySCB_Type const *base);
 201:Generated_Source\PSoC6\pdl\drivers/peripheral/scb/cy_scb_common.h **** __STATIC_INLINE bool     Cy_SCB_IsTxDataWidthByte(CySCB_Type const *base);
 202:Generated_Source\PSoC6\pdl\drivers/peripheral/scb/cy_scb_common.h **** __STATIC_INLINE uint32_t Cy_SCB_GetRxFifoLevel   (CySCB_Type const *base);
 203:Generated_Source\PSoC6\pdl\drivers/peripheral/scb/cy_scb_common.h **** /** \endcond */
 204:Generated_Source\PSoC6\pdl\drivers/peripheral/scb/cy_scb_common.h **** 
 205:Generated_Source\PSoC6\pdl\drivers/peripheral/scb/cy_scb_common.h **** /** \} group_scb_common_functions */
 206:Generated_Source\PSoC6\pdl\drivers/peripheral/scb/cy_scb_common.h **** 
 207:Generated_Source\PSoC6\pdl\drivers/peripheral/scb/cy_scb_common.h **** /***************************************
 208:Generated_Source\PSoC6\pdl\drivers/peripheral/scb/cy_scb_common.h **** *            API Constants
 209:Generated_Source\PSoC6\pdl\drivers/peripheral/scb/cy_scb_common.h **** ***************************************/
 210:Generated_Source\PSoC6\pdl\drivers/peripheral/scb/cy_scb_common.h **** 
 211:Generated_Source\PSoC6\pdl\drivers/peripheral/scb/cy_scb_common.h **** /**
 212:Generated_Source\PSoC6\pdl\drivers/peripheral/scb/cy_scb_common.h **** * \addtogroup group_scb_common_macros
 213:Generated_Source\PSoC6\pdl\drivers/peripheral/scb/cy_scb_common.h **** * \{
 214:Generated_Source\PSoC6\pdl\drivers/peripheral/scb/cy_scb_common.h **** */
 215:Generated_Source\PSoC6\pdl\drivers/peripheral/scb/cy_scb_common.h **** 
 216:Generated_Source\PSoC6\pdl\drivers/peripheral/scb/cy_scb_common.h **** /** Driver major version */
 217:Generated_Source\PSoC6\pdl\drivers/peripheral/scb/cy_scb_common.h **** #define CY_SCB_DRV_VERSION_MAJOR    (2)
 218:Generated_Source\PSoC6\pdl\drivers/peripheral/scb/cy_scb_common.h **** 
 219:Generated_Source\PSoC6\pdl\drivers/peripheral/scb/cy_scb_common.h **** /** Driver minor version */
 220:Generated_Source\PSoC6\pdl\drivers/peripheral/scb/cy_scb_common.h **** #define CY_SCB_DRV_VERSION_MINOR    (10)
 221:Generated_Source\PSoC6\pdl\drivers/peripheral/scb/cy_scb_common.h **** 
 222:Generated_Source\PSoC6\pdl\drivers/peripheral/scb/cy_scb_common.h **** /** SCB driver identifier */
 223:Generated_Source\PSoC6\pdl\drivers/peripheral/scb/cy_scb_common.h **** #define CY_SCB_ID           CY_PDL_DRV_ID(0x2AU)
 224:Generated_Source\PSoC6\pdl\drivers/peripheral/scb/cy_scb_common.h **** 
 225:Generated_Source\PSoC6\pdl\drivers/peripheral/scb/cy_scb_common.h **** /** Position for SCB driver sub mode */
 226:Generated_Source\PSoC6\pdl\drivers/peripheral/scb/cy_scb_common.h **** #define CY_SCB_SUB_MODE_Pos (13UL)
 227:Generated_Source\PSoC6\pdl\drivers/peripheral/scb/cy_scb_common.h **** 
ARM GAS  C:\Users\salaz\AppData\Local\Temp\ccI54lrI.s 			page 7


 228:Generated_Source\PSoC6\pdl\drivers/peripheral/scb/cy_scb_common.h **** /** EZI2C mode identifier */
 229:Generated_Source\PSoC6\pdl\drivers/peripheral/scb/cy_scb_common.h **** #define CY_SCB_EZI2C_ID     (0x0UL << CY_SCB_SUB_MODE_Pos)
 230:Generated_Source\PSoC6\pdl\drivers/peripheral/scb/cy_scb_common.h **** 
 231:Generated_Source\PSoC6\pdl\drivers/peripheral/scb/cy_scb_common.h **** /** EZI2C mode identifier */
 232:Generated_Source\PSoC6\pdl\drivers/peripheral/scb/cy_scb_common.h **** #define CY_SCB_I2C_ID       (0x1UL << CY_SCB_SUB_MODE_Pos)
 233:Generated_Source\PSoC6\pdl\drivers/peripheral/scb/cy_scb_common.h **** 
 234:Generated_Source\PSoC6\pdl\drivers/peripheral/scb/cy_scb_common.h **** /** EZI2C mode identifier */
 235:Generated_Source\PSoC6\pdl\drivers/peripheral/scb/cy_scb_common.h **** #define CY_SCB_SPI_ID       (0x2UL << CY_SCB_SUB_MODE_Pos)
 236:Generated_Source\PSoC6\pdl\drivers/peripheral/scb/cy_scb_common.h **** 
 237:Generated_Source\PSoC6\pdl\drivers/peripheral/scb/cy_scb_common.h **** /** EZI2C mode identifier */
 238:Generated_Source\PSoC6\pdl\drivers/peripheral/scb/cy_scb_common.h **** #define CY_SCB_UART_ID      (0x3UL << CY_SCB_SUB_MODE_Pos)
 239:Generated_Source\PSoC6\pdl\drivers/peripheral/scb/cy_scb_common.h **** 
 240:Generated_Source\PSoC6\pdl\drivers/peripheral/scb/cy_scb_common.h **** /**
 241:Generated_Source\PSoC6\pdl\drivers/peripheral/scb/cy_scb_common.h **** * \defgroup group_scb_common_macros_intr_cause SCB Interrupt Causes
 242:Generated_Source\PSoC6\pdl\drivers/peripheral/scb/cy_scb_common.h **** * \{
 243:Generated_Source\PSoC6\pdl\drivers/peripheral/scb/cy_scb_common.h **** */
 244:Generated_Source\PSoC6\pdl\drivers/peripheral/scb/cy_scb_common.h **** /** Interrupt from Master interrupt sources */
 245:Generated_Source\PSoC6\pdl\drivers/peripheral/scb/cy_scb_common.h **** #define CY_SCB_MASTER_INTR SCB_INTR_CAUSE_M_Msk
 246:Generated_Source\PSoC6\pdl\drivers/peripheral/scb/cy_scb_common.h **** 
 247:Generated_Source\PSoC6\pdl\drivers/peripheral/scb/cy_scb_common.h **** /** Interrupt from Slave interrupt sources  */
 248:Generated_Source\PSoC6\pdl\drivers/peripheral/scb/cy_scb_common.h **** #define CY_SCB_SLAVE_INTR  SCB_INTR_CAUSE_S_Msk
 249:Generated_Source\PSoC6\pdl\drivers/peripheral/scb/cy_scb_common.h **** 
 250:Generated_Source\PSoC6\pdl\drivers/peripheral/scb/cy_scb_common.h **** /** Interrupt from TX interrupt sources */
 251:Generated_Source\PSoC6\pdl\drivers/peripheral/scb/cy_scb_common.h **** #define CY_SCB_TX_INTR     SCB_INTR_CAUSE_TX_Msk
 252:Generated_Source\PSoC6\pdl\drivers/peripheral/scb/cy_scb_common.h **** 
 253:Generated_Source\PSoC6\pdl\drivers/peripheral/scb/cy_scb_common.h **** /** Interrupt from RX interrupt sources */
 254:Generated_Source\PSoC6\pdl\drivers/peripheral/scb/cy_scb_common.h **** #define CY_SCB_RX_INTR     SCB_INTR_CAUSE_RX_Msk
 255:Generated_Source\PSoC6\pdl\drivers/peripheral/scb/cy_scb_common.h **** 
 256:Generated_Source\PSoC6\pdl\drivers/peripheral/scb/cy_scb_common.h **** /** Interrupt from I2C externally clocked interrupt sources */
 257:Generated_Source\PSoC6\pdl\drivers/peripheral/scb/cy_scb_common.h **** #define CY_SCB_I2C_INTR    SCB_INTR_CAUSE_I2C_EC_Msk
 258:Generated_Source\PSoC6\pdl\drivers/peripheral/scb/cy_scb_common.h **** 
 259:Generated_Source\PSoC6\pdl\drivers/peripheral/scb/cy_scb_common.h **** /** Interrupt from SPI externally clocked interrupt sources */
 260:Generated_Source\PSoC6\pdl\drivers/peripheral/scb/cy_scb_common.h **** #define CY_SCB_SPI_INTR    SCB_INTR_CAUSE_SPI_EC_Msk
 261:Generated_Source\PSoC6\pdl\drivers/peripheral/scb/cy_scb_common.h **** /** \} group_scb_common_macros_intr_cause */
 262:Generated_Source\PSoC6\pdl\drivers/peripheral/scb/cy_scb_common.h **** 
 263:Generated_Source\PSoC6\pdl\drivers/peripheral/scb/cy_scb_common.h **** /**
 264:Generated_Source\PSoC6\pdl\drivers/peripheral/scb/cy_scb_common.h **** * \defgroup group_scb_common_macros_tx_intr TX Interrupt Statuses
 265:Generated_Source\PSoC6\pdl\drivers/peripheral/scb/cy_scb_common.h **** * \{
 266:Generated_Source\PSoC6\pdl\drivers/peripheral/scb/cy_scb_common.h **** */
 267:Generated_Source\PSoC6\pdl\drivers/peripheral/scb/cy_scb_common.h **** /**
 268:Generated_Source\PSoC6\pdl\drivers/peripheral/scb/cy_scb_common.h **** * The number of data elements in the TX FIFO is less than the value
 269:Generated_Source\PSoC6\pdl\drivers/peripheral/scb/cy_scb_common.h **** * of the TX FIFO level
 270:Generated_Source\PSoC6\pdl\drivers/peripheral/scb/cy_scb_common.h **** */
 271:Generated_Source\PSoC6\pdl\drivers/peripheral/scb/cy_scb_common.h **** #define CY_SCB_TX_INTR_LEVEL           SCB_INTR_TX_TRIGGER_Msk
 272:Generated_Source\PSoC6\pdl\drivers/peripheral/scb/cy_scb_common.h **** 
 273:Generated_Source\PSoC6\pdl\drivers/peripheral/scb/cy_scb_common.h **** /** The TX FIFO is not full */
 274:Generated_Source\PSoC6\pdl\drivers/peripheral/scb/cy_scb_common.h **** #define CY_SCB_TX_INTR_NOT_FULL        SCB_INTR_TX_NOT_FULL_Msk
 275:Generated_Source\PSoC6\pdl\drivers/peripheral/scb/cy_scb_common.h **** 
 276:Generated_Source\PSoC6\pdl\drivers/peripheral/scb/cy_scb_common.h **** /** The TX FIFO is empty */
 277:Generated_Source\PSoC6\pdl\drivers/peripheral/scb/cy_scb_common.h **** #define CY_SCB_TX_INTR_EMPTY           SCB_INTR_TX_EMPTY_Msk
 278:Generated_Source\PSoC6\pdl\drivers/peripheral/scb/cy_scb_common.h **** 
 279:Generated_Source\PSoC6\pdl\drivers/peripheral/scb/cy_scb_common.h **** /** An attempt to write to a full TX FIFO */
 280:Generated_Source\PSoC6\pdl\drivers/peripheral/scb/cy_scb_common.h **** #define CY_SCB_TX_INTR_OVERFLOW        SCB_INTR_TX_OVERFLOW_Msk
 281:Generated_Source\PSoC6\pdl\drivers/peripheral/scb/cy_scb_common.h **** 
 282:Generated_Source\PSoC6\pdl\drivers/peripheral/scb/cy_scb_common.h **** /** An attempt to read from an empty TX FIFO */
 283:Generated_Source\PSoC6\pdl\drivers/peripheral/scb/cy_scb_common.h **** #define CY_SCB_TX_INTR_UNDERFLOW       SCB_INTR_TX_UNDERFLOW_Msk
 284:Generated_Source\PSoC6\pdl\drivers/peripheral/scb/cy_scb_common.h **** 
ARM GAS  C:\Users\salaz\AppData\Local\Temp\ccI54lrI.s 			page 8


 285:Generated_Source\PSoC6\pdl\drivers/peripheral/scb/cy_scb_common.h **** /** The UART transfer is complete: all data elements from the TX FIFO are sent
 286:Generated_Source\PSoC6\pdl\drivers/peripheral/scb/cy_scb_common.h **** */
 287:Generated_Source\PSoC6\pdl\drivers/peripheral/scb/cy_scb_common.h **** #define CY_SCB_TX_INTR_UART_DONE       SCB_INTR_TX_UART_DONE_Msk
 288:Generated_Source\PSoC6\pdl\drivers/peripheral/scb/cy_scb_common.h **** 
 289:Generated_Source\PSoC6\pdl\drivers/peripheral/scb/cy_scb_common.h **** /** SmartCard only: UART received a NACK */
 290:Generated_Source\PSoC6\pdl\drivers/peripheral/scb/cy_scb_common.h **** #define CY_SCB_TX_INTR_UART_NACK       SCB_INTR_TX_UART_NACK_Msk
 291:Generated_Source\PSoC6\pdl\drivers/peripheral/scb/cy_scb_common.h **** 
 292:Generated_Source\PSoC6\pdl\drivers/peripheral/scb/cy_scb_common.h **** /**
 293:Generated_Source\PSoC6\pdl\drivers/peripheral/scb/cy_scb_common.h **** * SmartCard only: the value on the TX line of the UART does not match the
 294:Generated_Source\PSoC6\pdl\drivers/peripheral/scb/cy_scb_common.h **** * value on the RX line
 295:Generated_Source\PSoC6\pdl\drivers/peripheral/scb/cy_scb_common.h **** */
 296:Generated_Source\PSoC6\pdl\drivers/peripheral/scb/cy_scb_common.h **** #define CY_SCB_TX_INTR_UART_ARB_LOST   SCB_INTR_TX_UART_ARB_LOST_Msk
 297:Generated_Source\PSoC6\pdl\drivers/peripheral/scb/cy_scb_common.h **** /** \} group_scb_common_macros_tx_intr */
 298:Generated_Source\PSoC6\pdl\drivers/peripheral/scb/cy_scb_common.h **** 
 299:Generated_Source\PSoC6\pdl\drivers/peripheral/scb/cy_scb_common.h **** /**
 300:Generated_Source\PSoC6\pdl\drivers/peripheral/scb/cy_scb_common.h **** * \defgroup group_scb_common_macros_rx_intr RX Interrupt Statuses
 301:Generated_Source\PSoC6\pdl\drivers/peripheral/scb/cy_scb_common.h **** * \{
 302:Generated_Source\PSoC6\pdl\drivers/peripheral/scb/cy_scb_common.h **** */
 303:Generated_Source\PSoC6\pdl\drivers/peripheral/scb/cy_scb_common.h **** /**
 304:Generated_Source\PSoC6\pdl\drivers/peripheral/scb/cy_scb_common.h **** * The number of data elements in the RX FIFO is greater than the value of the
 305:Generated_Source\PSoC6\pdl\drivers/peripheral/scb/cy_scb_common.h **** * RX FIFO level
 306:Generated_Source\PSoC6\pdl\drivers/peripheral/scb/cy_scb_common.h **** */
 307:Generated_Source\PSoC6\pdl\drivers/peripheral/scb/cy_scb_common.h **** #define CY_SCB_RX_INTR_LEVEL             SCB_INTR_RX_TRIGGER_Msk
 308:Generated_Source\PSoC6\pdl\drivers/peripheral/scb/cy_scb_common.h **** 
 309:Generated_Source\PSoC6\pdl\drivers/peripheral/scb/cy_scb_common.h **** /** The RX FIFO is not empty */
 310:Generated_Source\PSoC6\pdl\drivers/peripheral/scb/cy_scb_common.h **** #define CY_SCB_RX_INTR_NOT_EMPTY         SCB_INTR_RX_NOT_EMPTY_Msk
 311:Generated_Source\PSoC6\pdl\drivers/peripheral/scb/cy_scb_common.h **** 
 312:Generated_Source\PSoC6\pdl\drivers/peripheral/scb/cy_scb_common.h **** /** The RX FIFO is full */
 313:Generated_Source\PSoC6\pdl\drivers/peripheral/scb/cy_scb_common.h **** #define CY_SCB_RX_INTR_FULL              SCB_INTR_RX_FULL_Msk
 314:Generated_Source\PSoC6\pdl\drivers/peripheral/scb/cy_scb_common.h **** 
 315:Generated_Source\PSoC6\pdl\drivers/peripheral/scb/cy_scb_common.h **** /** An attempt to write to a full RX FIFO */
 316:Generated_Source\PSoC6\pdl\drivers/peripheral/scb/cy_scb_common.h **** #define CY_SCB_RX_INTR_OVERFLOW          SCB_INTR_RX_OVERFLOW_Msk
 317:Generated_Source\PSoC6\pdl\drivers/peripheral/scb/cy_scb_common.h **** 
 318:Generated_Source\PSoC6\pdl\drivers/peripheral/scb/cy_scb_common.h **** /** An attempt to read from an empty RX FIFO */
 319:Generated_Source\PSoC6\pdl\drivers/peripheral/scb/cy_scb_common.h **** #define CY_SCB_RX_INTR_UNDERFLOW         SCB_INTR_RX_UNDERFLOW_Msk
 320:Generated_Source\PSoC6\pdl\drivers/peripheral/scb/cy_scb_common.h **** 
 321:Generated_Source\PSoC6\pdl\drivers/peripheral/scb/cy_scb_common.h **** /** A UART framing error detected */
 322:Generated_Source\PSoC6\pdl\drivers/peripheral/scb/cy_scb_common.h **** #define CY_SCB_RX_INTR_UART_FRAME_ERROR  SCB_INTR_RX_FRAME_ERROR_Msk
 323:Generated_Source\PSoC6\pdl\drivers/peripheral/scb/cy_scb_common.h **** 
 324:Generated_Source\PSoC6\pdl\drivers/peripheral/scb/cy_scb_common.h **** /** A UART parity error detected  */
 325:Generated_Source\PSoC6\pdl\drivers/peripheral/scb/cy_scb_common.h **** #define CY_SCB_RX_INTR_UART_PARITY_ERROR SCB_INTR_RX_PARITY_ERROR_Msk
 326:Generated_Source\PSoC6\pdl\drivers/peripheral/scb/cy_scb_common.h **** 
 327:Generated_Source\PSoC6\pdl\drivers/peripheral/scb/cy_scb_common.h **** /** A UART break detected */
 328:Generated_Source\PSoC6\pdl\drivers/peripheral/scb/cy_scb_common.h **** #define CY_SCB_RX_INTR_UART_BREAK_DETECT SCB_INTR_RX_BREAK_DETECT_Msk
 329:Generated_Source\PSoC6\pdl\drivers/peripheral/scb/cy_scb_common.h **** /** \} group_scb_common_macros_rx_intr */
 330:Generated_Source\PSoC6\pdl\drivers/peripheral/scb/cy_scb_common.h **** 
 331:Generated_Source\PSoC6\pdl\drivers/peripheral/scb/cy_scb_common.h **** /**
 332:Generated_Source\PSoC6\pdl\drivers/peripheral/scb/cy_scb_common.h **** * \defgroup group_scb_common_macros_slave_intr Slave Interrupt Statuses
 333:Generated_Source\PSoC6\pdl\drivers/peripheral/scb/cy_scb_common.h **** * \{
 334:Generated_Source\PSoC6\pdl\drivers/peripheral/scb/cy_scb_common.h **** */
 335:Generated_Source\PSoC6\pdl\drivers/peripheral/scb/cy_scb_common.h **** /**
 336:Generated_Source\PSoC6\pdl\drivers/peripheral/scb/cy_scb_common.h **** * I2C slave lost arbitration: the value driven on the SDA line is not the same
 337:Generated_Source\PSoC6\pdl\drivers/peripheral/scb/cy_scb_common.h **** * as the value observed on the SDA line
 338:Generated_Source\PSoC6\pdl\drivers/peripheral/scb/cy_scb_common.h **** */
 339:Generated_Source\PSoC6\pdl\drivers/peripheral/scb/cy_scb_common.h **** #define CY_SCB_SLAVE_INTR_I2C_ARB_LOST      SCB_INTR_S_I2C_ARB_LOST_Msk
 340:Generated_Source\PSoC6\pdl\drivers/peripheral/scb/cy_scb_common.h **** 
 341:Generated_Source\PSoC6\pdl\drivers/peripheral/scb/cy_scb_common.h **** /** The I2C slave received a NAK */
ARM GAS  C:\Users\salaz\AppData\Local\Temp\ccI54lrI.s 			page 9


 342:Generated_Source\PSoC6\pdl\drivers/peripheral/scb/cy_scb_common.h **** #define CY_SCB_SLAVE_INTR_I2C_NACK          SCB_INTR_S_I2C_NACK_Msk
 343:Generated_Source\PSoC6\pdl\drivers/peripheral/scb/cy_scb_common.h **** 
 344:Generated_Source\PSoC6\pdl\drivers/peripheral/scb/cy_scb_common.h **** /** The I2C slave received  an ACK */
 345:Generated_Source\PSoC6\pdl\drivers/peripheral/scb/cy_scb_common.h **** #define CY_SCB_SLAVE_INTR_I2C_ACK           SCB_INTR_S_I2C_ACK_Msk
 346:Generated_Source\PSoC6\pdl\drivers/peripheral/scb/cy_scb_common.h **** 
 347:Generated_Source\PSoC6\pdl\drivers/peripheral/scb/cy_scb_common.h **** /**
 348:Generated_Source\PSoC6\pdl\drivers/peripheral/scb/cy_scb_common.h **** * A Stop or Repeated Start event for a write transfer intended for this slave
 349:Generated_Source\PSoC6\pdl\drivers/peripheral/scb/cy_scb_common.h **** * was detected.
 350:Generated_Source\PSoC6\pdl\drivers/peripheral/scb/cy_scb_common.h **** */
 351:Generated_Source\PSoC6\pdl\drivers/peripheral/scb/cy_scb_common.h **** #define CY_SCB_SLAVE_INTR_I2C_WRITE_STOP    SCB_INTR_S_I2C_WRITE_STOP_Msk
 352:Generated_Source\PSoC6\pdl\drivers/peripheral/scb/cy_scb_common.h **** 
 353:Generated_Source\PSoC6\pdl\drivers/peripheral/scb/cy_scb_common.h **** /** A Stop or Repeated Start event intended for this slave was detected */
 354:Generated_Source\PSoC6\pdl\drivers/peripheral/scb/cy_scb_common.h **** #define CY_SCB_SLAVE_INTR_I2C_STOP          SCB_INTR_S_I2C_STOP_Msk
 355:Generated_Source\PSoC6\pdl\drivers/peripheral/scb/cy_scb_common.h **** 
 356:Generated_Source\PSoC6\pdl\drivers/peripheral/scb/cy_scb_common.h **** /** The I2C slave received a Start condition */
 357:Generated_Source\PSoC6\pdl\drivers/peripheral/scb/cy_scb_common.h **** #define CY_SCB_SLAVE_INTR_I2C_START         SCB_INTR_S_I2C_START_Msk
 358:Generated_Source\PSoC6\pdl\drivers/peripheral/scb/cy_scb_common.h **** 
 359:Generated_Source\PSoC6\pdl\drivers/peripheral/scb/cy_scb_common.h **** /** The I2C slave received the matching address */
 360:Generated_Source\PSoC6\pdl\drivers/peripheral/scb/cy_scb_common.h **** #define CY_SCB_SLAVE_INTR_I2C_ADDR_MATCH    SCB_INTR_S_I2C_ADDR_MATCH_Msk
 361:Generated_Source\PSoC6\pdl\drivers/peripheral/scb/cy_scb_common.h **** 
 362:Generated_Source\PSoC6\pdl\drivers/peripheral/scb/cy_scb_common.h **** /** The I2C Slave received the general call address */
 363:Generated_Source\PSoC6\pdl\drivers/peripheral/scb/cy_scb_common.h **** #define CY_SCB_SLAVE_INTR_I2C_GENERAL_ADDR  SCB_INTR_S_I2C_GENERAL_Msk
 364:Generated_Source\PSoC6\pdl\drivers/peripheral/scb/cy_scb_common.h **** 
 365:Generated_Source\PSoC6\pdl\drivers/peripheral/scb/cy_scb_common.h **** /** The I2C slave bus error (detection of unexpected Start or Stop condition) */
 366:Generated_Source\PSoC6\pdl\drivers/peripheral/scb/cy_scb_common.h **** #define CY_SCB_SLAVE_INTR_I2C_BUS_ERROR     SCB_INTR_S_I2C_BUS_ERROR_Msk
 367:Generated_Source\PSoC6\pdl\drivers/peripheral/scb/cy_scb_common.h **** 
 368:Generated_Source\PSoC6\pdl\drivers/peripheral/scb/cy_scb_common.h **** /**
 369:Generated_Source\PSoC6\pdl\drivers/peripheral/scb/cy_scb_common.h **** * The SPI slave select line is deselected at an expected time during an
 370:Generated_Source\PSoC6\pdl\drivers/peripheral/scb/cy_scb_common.h **** * SPI transfer.
 371:Generated_Source\PSoC6\pdl\drivers/peripheral/scb/cy_scb_common.h **** */
 372:Generated_Source\PSoC6\pdl\drivers/peripheral/scb/cy_scb_common.h **** #define CY_SCB_SLAVE_INTR_SPI_BUS_ERROR     SCB_INTR_S_SPI_BUS_ERROR_Msk
 373:Generated_Source\PSoC6\pdl\drivers/peripheral/scb/cy_scb_common.h **** /** \} group_scb_common_macros_slave_intr */
 374:Generated_Source\PSoC6\pdl\drivers/peripheral/scb/cy_scb_common.h **** 
 375:Generated_Source\PSoC6\pdl\drivers/peripheral/scb/cy_scb_common.h **** /**
 376:Generated_Source\PSoC6\pdl\drivers/peripheral/scb/cy_scb_common.h **** * \defgroup group_scb_common_macros_master_intr Master Interrupt Statuses
 377:Generated_Source\PSoC6\pdl\drivers/peripheral/scb/cy_scb_common.h **** * \{
 378:Generated_Source\PSoC6\pdl\drivers/peripheral/scb/cy_scb_common.h **** */
 379:Generated_Source\PSoC6\pdl\drivers/peripheral/scb/cy_scb_common.h **** /** The I2C master lost arbitration */
 380:Generated_Source\PSoC6\pdl\drivers/peripheral/scb/cy_scb_common.h **** #define CY_SCB_MASTER_INTR_I2C_ARB_LOST    SCB_INTR_M_I2C_ARB_LOST_Msk
 381:Generated_Source\PSoC6\pdl\drivers/peripheral/scb/cy_scb_common.h **** 
 382:Generated_Source\PSoC6\pdl\drivers/peripheral/scb/cy_scb_common.h **** /** The I2C master received a NACK */
 383:Generated_Source\PSoC6\pdl\drivers/peripheral/scb/cy_scb_common.h **** #define CY_SCB_MASTER_INTR_I2C_NACK        SCB_INTR_M_I2C_NACK_Msk
 384:Generated_Source\PSoC6\pdl\drivers/peripheral/scb/cy_scb_common.h **** 
 385:Generated_Source\PSoC6\pdl\drivers/peripheral/scb/cy_scb_common.h **** /** The I2C master received an ACK */
 386:Generated_Source\PSoC6\pdl\drivers/peripheral/scb/cy_scb_common.h **** #define CY_SCB_MASTER_INTR_I2C_ACK         SCB_INTR_M_I2C_ACK_Msk
 387:Generated_Source\PSoC6\pdl\drivers/peripheral/scb/cy_scb_common.h **** 
 388:Generated_Source\PSoC6\pdl\drivers/peripheral/scb/cy_scb_common.h **** /** The I2C master generated a Stop */
 389:Generated_Source\PSoC6\pdl\drivers/peripheral/scb/cy_scb_common.h **** #define CY_SCB_MASTER_INTR_I2C_STOP        SCB_INTR_M_I2C_STOP_Msk
 390:Generated_Source\PSoC6\pdl\drivers/peripheral/scb/cy_scb_common.h **** 
 391:Generated_Source\PSoC6\pdl\drivers/peripheral/scb/cy_scb_common.h **** /** The I2C master bus error (detection of unexpected START or STOP condition)
 392:Generated_Source\PSoC6\pdl\drivers/peripheral/scb/cy_scb_common.h **** */
 393:Generated_Source\PSoC6\pdl\drivers/peripheral/scb/cy_scb_common.h **** #define CY_SCB_MASTER_INTR_I2C_BUS_ERROR   SCB_INTR_M_I2C_BUS_ERROR_Msk
 394:Generated_Source\PSoC6\pdl\drivers/peripheral/scb/cy_scb_common.h **** 
 395:Generated_Source\PSoC6\pdl\drivers/peripheral/scb/cy_scb_common.h **** /**
 396:Generated_Source\PSoC6\pdl\drivers/peripheral/scb/cy_scb_common.h **** * The SPI master transfer is complete: all data elements transferred from the
 397:Generated_Source\PSoC6\pdl\drivers/peripheral/scb/cy_scb_common.h **** * TX FIFO and TX shift register.
 398:Generated_Source\PSoC6\pdl\drivers/peripheral/scb/cy_scb_common.h **** */
ARM GAS  C:\Users\salaz\AppData\Local\Temp\ccI54lrI.s 			page 10


 399:Generated_Source\PSoC6\pdl\drivers/peripheral/scb/cy_scb_common.h **** #define CY_SCB_MASTER_INTR_SPI_DONE        SCB_INTR_M_SPI_DONE_Msk
 400:Generated_Source\PSoC6\pdl\drivers/peripheral/scb/cy_scb_common.h **** /** \} group_scb_common_macros_master_intr */
 401:Generated_Source\PSoC6\pdl\drivers/peripheral/scb/cy_scb_common.h **** 
 402:Generated_Source\PSoC6\pdl\drivers/peripheral/scb/cy_scb_common.h **** /**
 403:Generated_Source\PSoC6\pdl\drivers/peripheral/scb/cy_scb_common.h **** * \defgroup group_scb_common_macros_i2c_intr I2C Interrupt Statuses
 404:Generated_Source\PSoC6\pdl\drivers/peripheral/scb/cy_scb_common.h **** * \{
 405:Generated_Source\PSoC6\pdl\drivers/peripheral/scb/cy_scb_common.h **** */
 406:Generated_Source\PSoC6\pdl\drivers/peripheral/scb/cy_scb_common.h **** /**
 407:Generated_Source\PSoC6\pdl\drivers/peripheral/scb/cy_scb_common.h **** * Wake up request: the I2C slave received the matching address.
 408:Generated_Source\PSoC6\pdl\drivers/peripheral/scb/cy_scb_common.h **** * Note that this interrupt source triggers in active mode.
 409:Generated_Source\PSoC6\pdl\drivers/peripheral/scb/cy_scb_common.h **** */
 410:Generated_Source\PSoC6\pdl\drivers/peripheral/scb/cy_scb_common.h **** #define CY_SCB_I2C_INTR_WAKEUP     SCB_INTR_I2C_EC_WAKE_UP_Msk
 411:Generated_Source\PSoC6\pdl\drivers/peripheral/scb/cy_scb_common.h **** /** \} group_scb_common_macros_i2c_intr */
 412:Generated_Source\PSoC6\pdl\drivers/peripheral/scb/cy_scb_common.h **** 
 413:Generated_Source\PSoC6\pdl\drivers/peripheral/scb/cy_scb_common.h **** /**
 414:Generated_Source\PSoC6\pdl\drivers/peripheral/scb/cy_scb_common.h **** * \defgroup group_scb_common_macros_SpiIntrStatuses SPI Interrupt Statuses
 415:Generated_Source\PSoC6\pdl\drivers/peripheral/scb/cy_scb_common.h **** * \{
 416:Generated_Source\PSoC6\pdl\drivers/peripheral/scb/cy_scb_common.h **** */
 417:Generated_Source\PSoC6\pdl\drivers/peripheral/scb/cy_scb_common.h **** /**
 418:Generated_Source\PSoC6\pdl\drivers/peripheral/scb/cy_scb_common.h **** * Wake up request: the SPI slave detects an active edge of the slave select
 419:Generated_Source\PSoC6\pdl\drivers/peripheral/scb/cy_scb_common.h **** * signal. Note that this interrupt source triggers in active mode.
 420:Generated_Source\PSoC6\pdl\drivers/peripheral/scb/cy_scb_common.h **** */
 421:Generated_Source\PSoC6\pdl\drivers/peripheral/scb/cy_scb_common.h **** #define CY_SCB_SPI_INTR_WAKEUP     SCB_INTR_SPI_EC_WAKE_UP_Msk
 422:Generated_Source\PSoC6\pdl\drivers/peripheral/scb/cy_scb_common.h **** /** \} group_scb_common_macros_SpiIntrStatuses */
 423:Generated_Source\PSoC6\pdl\drivers/peripheral/scb/cy_scb_common.h **** 
 424:Generated_Source\PSoC6\pdl\drivers/peripheral/scb/cy_scb_common.h **** 
 425:Generated_Source\PSoC6\pdl\drivers/peripheral/scb/cy_scb_common.h **** /***************************************
 426:Generated_Source\PSoC6\pdl\drivers/peripheral/scb/cy_scb_common.h **** *         Internal Constants
 427:Generated_Source\PSoC6\pdl\drivers/peripheral/scb/cy_scb_common.h **** ***************************************/
 428:Generated_Source\PSoC6\pdl\drivers/peripheral/scb/cy_scb_common.h **** 
 429:Generated_Source\PSoC6\pdl\drivers/peripheral/scb/cy_scb_common.h **** /** \cond INTERNAL */
 430:Generated_Source\PSoC6\pdl\drivers/peripheral/scb/cy_scb_common.h **** 
 431:Generated_Source\PSoC6\pdl\drivers/peripheral/scb/cy_scb_common.h **** /* Default registers values */
 432:Generated_Source\PSoC6\pdl\drivers/peripheral/scb/cy_scb_common.h **** #define CY_SCB_CTRL_DEF_VAL         (_VAL2FLD(SCB_CTRL_OVS, 15UL) | \
 433:Generated_Source\PSoC6\pdl\drivers/peripheral/scb/cy_scb_common.h ****                                      _VAL2FLD(SCB_CTRL_MODE, 3UL))
 434:Generated_Source\PSoC6\pdl\drivers/peripheral/scb/cy_scb_common.h **** 
 435:Generated_Source\PSoC6\pdl\drivers/peripheral/scb/cy_scb_common.h **** #define CY_SCB_I2C_CTRL_DEF_VAL     (_VAL2FLD(SCB_I2C_CTRL_HIGH_PHASE_OVS, 8UL)        | \
 436:Generated_Source\PSoC6\pdl\drivers/peripheral/scb/cy_scb_common.h ****                                      _VAL2FLD(SCB_I2C_CTRL_HIGH_PHASE_OVS, 8UL)        | \
 437:Generated_Source\PSoC6\pdl\drivers/peripheral/scb/cy_scb_common.h ****                                      _VAL2FLD(SCB_I2C_CTRL_M_READY_DATA_ACK, 1UL)      | \
 438:Generated_Source\PSoC6\pdl\drivers/peripheral/scb/cy_scb_common.h ****                                      _VAL2FLD(SCB_I2C_CTRL_M_NOT_READY_DATA_NACK, 1UL) | \
 439:Generated_Source\PSoC6\pdl\drivers/peripheral/scb/cy_scb_common.h ****                                      _VAL2FLD(SCB_I2C_CTRL_S_GENERAL_IGNORE, 1UL)      | \
 440:Generated_Source\PSoC6\pdl\drivers/peripheral/scb/cy_scb_common.h ****                                      _VAL2FLD(SCB_I2C_CTRL_S_READY_ADDR_ACK, 1UL)      | \
 441:Generated_Source\PSoC6\pdl\drivers/peripheral/scb/cy_scb_common.h ****                                      _VAL2FLD(SCB_I2C_CTRL_S_READY_DATA_ACK, 1UL)      | \
 442:Generated_Source\PSoC6\pdl\drivers/peripheral/scb/cy_scb_common.h ****                                      _VAL2FLD(SCB_I2C_CTRL_S_NOT_READY_ADDR_NACK, 1UL) | \
 443:Generated_Source\PSoC6\pdl\drivers/peripheral/scb/cy_scb_common.h ****                                      _VAL2FLD(SCB_I2C_CTRL_S_NOT_READY_DATA_NACK, 1UL))
 444:Generated_Source\PSoC6\pdl\drivers/peripheral/scb/cy_scb_common.h **** 
 445:Generated_Source\PSoC6\pdl\drivers/peripheral/scb/cy_scb_common.h **** #define CY_SCB_I2C_CFG_DEF_VAL      (_VAL2FLD(SCB_I2C_CFG_SDA_IN_FILT_TRIM, 3UL)   | \
 446:Generated_Source\PSoC6\pdl\drivers/peripheral/scb/cy_scb_common.h ****                                      _VAL2FLD(SCB_I2C_CFG_SDA_IN_FILT_SEL, 1UL)    | \
 447:Generated_Source\PSoC6\pdl\drivers/peripheral/scb/cy_scb_common.h ****                                      _VAL2FLD(SCB_I2C_CFG_SCL_IN_FILT_SEL, 1UL)    | \
 448:Generated_Source\PSoC6\pdl\drivers/peripheral/scb/cy_scb_common.h ****                                      _VAL2FLD(SCB_I2C_CFG_SDA_OUT_FILT0_TRIM, 2UL) | \
 449:Generated_Source\PSoC6\pdl\drivers/peripheral/scb/cy_scb_common.h ****                                      _VAL2FLD(SCB_I2C_CFG_SDA_OUT_FILT1_TRIM, 2UL) | \
 450:Generated_Source\PSoC6\pdl\drivers/peripheral/scb/cy_scb_common.h ****                                      _VAL2FLD(SCB_I2C_CFG_SDA_OUT_FILT2_TRIM, 2UL))
 451:Generated_Source\PSoC6\pdl\drivers/peripheral/scb/cy_scb_common.h **** 
 452:Generated_Source\PSoC6\pdl\drivers/peripheral/scb/cy_scb_common.h **** #define CY_SCB_SPI_CTRL_DEF_VAL     _VAL2FLD(SCB_SPI_CTRL_MODE, 3UL)
 453:Generated_Source\PSoC6\pdl\drivers/peripheral/scb/cy_scb_common.h **** #define CY_SCB_UART_CTRL_DEF_VAL    _VAL2FLD(SCB_UART_CTRL_MODE, 3UL)
 454:Generated_Source\PSoC6\pdl\drivers/peripheral/scb/cy_scb_common.h **** 
 455:Generated_Source\PSoC6\pdl\drivers/peripheral/scb/cy_scb_common.h **** #define CY_SCB_UART_RX_CTRL_DEF_VAL (_VAL2FLD(SCB_UART_RX_CTRL_STOP_BITS, 2UL) | \
ARM GAS  C:\Users\salaz\AppData\Local\Temp\ccI54lrI.s 			page 11


 456:Generated_Source\PSoC6\pdl\drivers/peripheral/scb/cy_scb_common.h ****                                      _VAL2FLD(SCB_UART_RX_CTRL_BREAK_WIDTH, 10UL))
 457:Generated_Source\PSoC6\pdl\drivers/peripheral/scb/cy_scb_common.h **** 
 458:Generated_Source\PSoC6\pdl\drivers/peripheral/scb/cy_scb_common.h **** #define CY_SCB_UART_TX_CTRL_DEF_VAL _VAL2FLD(SCB_UART_TX_CTRL_STOP_BITS, 2UL)
 459:Generated_Source\PSoC6\pdl\drivers/peripheral/scb/cy_scb_common.h **** 
 460:Generated_Source\PSoC6\pdl\drivers/peripheral/scb/cy_scb_common.h **** #define CY_SCB_RX_CTRL_DEF_VAL      (_VAL2FLD(SCB_RX_CTRL_DATA_WIDTH, 7UL) | \
 461:Generated_Source\PSoC6\pdl\drivers/peripheral/scb/cy_scb_common.h ****                                      _VAL2FLD(SCB_RX_CTRL_MSB_FIRST,  1UL))
 462:Generated_Source\PSoC6\pdl\drivers/peripheral/scb/cy_scb_common.h **** 
 463:Generated_Source\PSoC6\pdl\drivers/peripheral/scb/cy_scb_common.h **** #define CY_SCB_TX_CTRL_DEF_VAL      (_VAL2FLD(SCB_TX_CTRL_DATA_WIDTH, 7UL) | \
 464:Generated_Source\PSoC6\pdl\drivers/peripheral/scb/cy_scb_common.h ****                                      _VAL2FLD(SCB_TX_CTRL_MSB_FIRST,  1UL))
 465:Generated_Source\PSoC6\pdl\drivers/peripheral/scb/cy_scb_common.h **** 
 466:Generated_Source\PSoC6\pdl\drivers/peripheral/scb/cy_scb_common.h **** /* SCB CTRL modes */
 467:Generated_Source\PSoC6\pdl\drivers/peripheral/scb/cy_scb_common.h **** #define CY_SCB_CTRL_MODE_I2C   (0UL)
 468:Generated_Source\PSoC6\pdl\drivers/peripheral/scb/cy_scb_common.h **** #define CY_SCB_CTRL_MODE_SPI   (1UL)
 469:Generated_Source\PSoC6\pdl\drivers/peripheral/scb/cy_scb_common.h **** #define CY_SCB_CTRL_MODE_UART  (2UL)
 470:Generated_Source\PSoC6\pdl\drivers/peripheral/scb/cy_scb_common.h **** 
 471:Generated_Source\PSoC6\pdl\drivers/peripheral/scb/cy_scb_common.h **** /* The position and mask to set the I2C mode */
 472:Generated_Source\PSoC6\pdl\drivers/peripheral/scb/cy_scb_common.h **** #define CY_SCB_I2C_CTRL_MODE_Pos    SCB_I2C_CTRL_SLAVE_MODE_Pos
 473:Generated_Source\PSoC6\pdl\drivers/peripheral/scb/cy_scb_common.h **** #define CY_SCB_I2C_CTRL_MODE_Msk    (SCB_I2C_CTRL_SLAVE_MODE_Msk | \
 474:Generated_Source\PSoC6\pdl\drivers/peripheral/scb/cy_scb_common.h ****                                      SCB_I2C_CTRL_MASTER_MODE_Msk)
 475:Generated_Source\PSoC6\pdl\drivers/peripheral/scb/cy_scb_common.h **** 
 476:Generated_Source\PSoC6\pdl\drivers/peripheral/scb/cy_scb_common.h **** /* Cypress ID #282226:
 477:Generated_Source\PSoC6\pdl\drivers/peripheral/scb/cy_scb_common.h **** * SCB_I2C_CFG_SDA_IN_FILT_TRIM[1]: SCB clock enable (1), clock disable (0).
 478:Generated_Source\PSoC6\pdl\drivers/peripheral/scb/cy_scb_common.h **** */
 479:Generated_Source\PSoC6\pdl\drivers/peripheral/scb/cy_scb_common.h **** #define CY_SCB_I2C_CFG_CLK_ENABLE_Msk  (_VAL2FLD(SCB_I2C_CFG_SDA_IN_FILT_TRIM, 2UL))
 480:Generated_Source\PSoC6\pdl\drivers/peripheral/scb/cy_scb_common.h **** 
 481:Generated_Source\PSoC6\pdl\drivers/peripheral/scb/cy_scb_common.h **** /* I2C has fixed data width */
 482:Generated_Source\PSoC6\pdl\drivers/peripheral/scb/cy_scb_common.h **** #define CY_SCB_I2C_DATA_WIDTH   (7UL)
 483:Generated_Source\PSoC6\pdl\drivers/peripheral/scb/cy_scb_common.h **** 
 484:Generated_Source\PSoC6\pdl\drivers/peripheral/scb/cy_scb_common.h **** /* RX and TX control register values */
 485:Generated_Source\PSoC6\pdl\drivers/peripheral/scb/cy_scb_common.h **** #define CY_SCB_I2C_RX_CTRL      (_VAL2FLD(SCB_RX_CTRL_DATA_WIDTH, CY_SCB_I2C_DATA_WIDTH) | \
 486:Generated_Source\PSoC6\pdl\drivers/peripheral/scb/cy_scb_common.h ****                                  SCB_RX_CTRL_MSB_FIRST_Msk)
 487:Generated_Source\PSoC6\pdl\drivers/peripheral/scb/cy_scb_common.h **** #define CY_SCB_I2C_TX_CTRL      (_VAL2FLD(SCB_TX_CTRL_DATA_WIDTH, CY_SCB_I2C_DATA_WIDTH) | \
 488:Generated_Source\PSoC6\pdl\drivers/peripheral/scb/cy_scb_common.h ****                                  SCB_TX_CTRL_MSB_FIRST_Msk | SCB_TX_CTRL_OPEN_DRAIN_Msk)
 489:Generated_Source\PSoC6\pdl\drivers/peripheral/scb/cy_scb_common.h **** 
 490:Generated_Source\PSoC6\pdl\drivers/peripheral/scb/cy_scb_common.h **** /* The position and mask to make an address byte */
 491:Generated_Source\PSoC6\pdl\drivers/peripheral/scb/cy_scb_common.h **** #define CY_SCB_I2C_ADDRESS_Pos  (1UL)
 492:Generated_Source\PSoC6\pdl\drivers/peripheral/scb/cy_scb_common.h **** #define CY_SCB_I2C_ADDRESS_Msk  (0xFEUL)
 493:Generated_Source\PSoC6\pdl\drivers/peripheral/scb/cy_scb_common.h **** 
 494:Generated_Source\PSoC6\pdl\drivers/peripheral/scb/cy_scb_common.h **** /* SPI slave select polarity */
 495:Generated_Source\PSoC6\pdl\drivers/peripheral/scb/cy_scb_common.h **** #define CY_SCB_SPI_CTRL_SSEL_POLARITY_Pos   SCB_SPI_CTRL_SSEL_POLARITY0_Pos
 496:Generated_Source\PSoC6\pdl\drivers/peripheral/scb/cy_scb_common.h **** #define CY_SCB_SPI_CTRL_SSEL_POLARITY_Msk   (SCB_SPI_CTRL_SSEL_POLARITY0_Msk | \
 497:Generated_Source\PSoC6\pdl\drivers/peripheral/scb/cy_scb_common.h ****                                              SCB_SPI_CTRL_SSEL_POLARITY1_Msk | \
 498:Generated_Source\PSoC6\pdl\drivers/peripheral/scb/cy_scb_common.h ****                                              SCB_SPI_CTRL_SSEL_POLARITY2_Msk | \
 499:Generated_Source\PSoC6\pdl\drivers/peripheral/scb/cy_scb_common.h ****                                              SCB_SPI_CTRL_SSEL_POLARITY3_Msk)
 500:Generated_Source\PSoC6\pdl\drivers/peripheral/scb/cy_scb_common.h **** 
 501:Generated_Source\PSoC6\pdl\drivers/peripheral/scb/cy_scb_common.h **** /* SPI clock modes: CPHA and CPOL */
 502:Generated_Source\PSoC6\pdl\drivers/peripheral/scb/cy_scb_common.h **** #define CY_SCB_SPI_CTRL_CLK_MODE_Pos    SCB_SPI_CTRL_CPHA_Pos
 503:Generated_Source\PSoC6\pdl\drivers/peripheral/scb/cy_scb_common.h **** #define CY_SCB_SPI_CTRL_CLK_MODE_Msk    (SCB_SPI_CTRL_CPHA_Msk | SCB_SPI_CTRL_CPOL_Msk)
 504:Generated_Source\PSoC6\pdl\drivers/peripheral/scb/cy_scb_common.h **** 
 505:Generated_Source\PSoC6\pdl\drivers/peripheral/scb/cy_scb_common.h **** /* UART parity and parity enable combination */
 506:Generated_Source\PSoC6\pdl\drivers/peripheral/scb/cy_scb_common.h **** #define CY_SCB_UART_RX_CTRL_SET_PARITY_Msk      (SCB_UART_RX_CTRL_PARITY_ENABLED_Msk | \
 507:Generated_Source\PSoC6\pdl\drivers/peripheral/scb/cy_scb_common.h ****                                                  SCB_UART_RX_CTRL_PARITY_Msk)
 508:Generated_Source\PSoC6\pdl\drivers/peripheral/scb/cy_scb_common.h **** #define CY_SCB_UART_RX_CTRL_SET_PARITY_Pos      SCB_UART_RX_CTRL_PARITY_Pos
 509:Generated_Source\PSoC6\pdl\drivers/peripheral/scb/cy_scb_common.h **** 
 510:Generated_Source\PSoC6\pdl\drivers/peripheral/scb/cy_scb_common.h **** #define CY_SCB_UART_TX_CTRL_SET_PARITY_Msk      (SCB_UART_TX_CTRL_PARITY_ENABLED_Msk | \
 511:Generated_Source\PSoC6\pdl\drivers/peripheral/scb/cy_scb_common.h ****                                                  SCB_UART_TX_CTRL_PARITY_Msk)
 512:Generated_Source\PSoC6\pdl\drivers/peripheral/scb/cy_scb_common.h **** #define CY_SCB_UART_TX_CTRL_SET_PARITY_Pos      SCB_UART_TX_CTRL_PARITY_Pos
ARM GAS  C:\Users\salaz\AppData\Local\Temp\ccI54lrI.s 			page 12


 513:Generated_Source\PSoC6\pdl\drivers/peripheral/scb/cy_scb_common.h **** 
 514:Generated_Source\PSoC6\pdl\drivers/peripheral/scb/cy_scb_common.h **** /* Max number of bits for byte mode */
 515:Generated_Source\PSoC6\pdl\drivers/peripheral/scb/cy_scb_common.h **** #define CY_SCB_BYTE_WIDTH   (8UL)
 516:Generated_Source\PSoC6\pdl\drivers/peripheral/scb/cy_scb_common.h **** 
 517:Generated_Source\PSoC6\pdl\drivers/peripheral/scb/cy_scb_common.h **** /* Single unit to wait */
 518:Generated_Source\PSoC6\pdl\drivers/peripheral/scb/cy_scb_common.h **** #define CY_SCB_WAIT_1_UNIT  (1U)
 519:Generated_Source\PSoC6\pdl\drivers/peripheral/scb/cy_scb_common.h **** 
 520:Generated_Source\PSoC6\pdl\drivers/peripheral/scb/cy_scb_common.h **** /* Clear interrupt sources */
 521:Generated_Source\PSoC6\pdl\drivers/peripheral/scb/cy_scb_common.h **** #define CY_SCB_CLEAR_ALL_INTR_SRC   (0UL)
 522:Generated_Source\PSoC6\pdl\drivers/peripheral/scb/cy_scb_common.h **** 
 523:Generated_Source\PSoC6\pdl\drivers/peripheral/scb/cy_scb_common.h **** /* Hardware FIFO size */
 524:Generated_Source\PSoC6\pdl\drivers/peripheral/scb/cy_scb_common.h **** #define CY_SCB_FIFO_SIZE(base)    (SCB_GET_EZ_DATA_NR(base) / 2UL)
 525:Generated_Source\PSoC6\pdl\drivers/peripheral/scb/cy_scb_common.h **** 
 526:Generated_Source\PSoC6\pdl\drivers/peripheral/scb/cy_scb_common.h **** /* Provides a list of allowed sources */
 527:Generated_Source\PSoC6\pdl\drivers/peripheral/scb/cy_scb_common.h **** #define CY_SCB_TX_INTR_MASK     (CY_SCB_TX_INTR_LEVEL     | CY_SCB_TX_INTR_NOT_FULL  | CY_SCB_TX_IN
 528:Generated_Source\PSoC6\pdl\drivers/peripheral/scb/cy_scb_common.h ****                                  CY_SCB_TX_INTR_OVERFLOW  | CY_SCB_TX_INTR_UNDERFLOW | CY_SCB_TX_IN
 529:Generated_Source\PSoC6\pdl\drivers/peripheral/scb/cy_scb_common.h ****                                  CY_SCB_TX_INTR_UART_NACK | CY_SCB_TX_INTR_UART_ARB_LOST)
 530:Generated_Source\PSoC6\pdl\drivers/peripheral/scb/cy_scb_common.h **** 
 531:Generated_Source\PSoC6\pdl\drivers/peripheral/scb/cy_scb_common.h **** #define CY_SCB_RX_INTR_MASK     (CY_SCB_RX_INTR_LEVEL             | CY_SCB_RX_INTR_NOT_EMPTY | CY_S
 532:Generated_Source\PSoC6\pdl\drivers/peripheral/scb/cy_scb_common.h ****                                  CY_SCB_RX_INTR_OVERFLOW          | CY_SCB_RX_INTR_UNDERFLOW       
 533:Generated_Source\PSoC6\pdl\drivers/peripheral/scb/cy_scb_common.h ****                                  CY_SCB_RX_INTR_UART_FRAME_ERROR  | CY_SCB_RX_INTR_UART_PARITY_ERRO
 534:Generated_Source\PSoC6\pdl\drivers/peripheral/scb/cy_scb_common.h ****                                  CY_SCB_RX_INTR_UART_BREAK_DETECT)
 535:Generated_Source\PSoC6\pdl\drivers/peripheral/scb/cy_scb_common.h **** 
 536:Generated_Source\PSoC6\pdl\drivers/peripheral/scb/cy_scb_common.h **** 
 537:Generated_Source\PSoC6\pdl\drivers/peripheral/scb/cy_scb_common.h **** #define CY_SCB_SLAVE_INTR_MASK  (CY_SCB_SLAVE_INTR_I2C_ARB_LOST   | CY_SCB_SLAVE_INTR_I2C_NACK | CY
 538:Generated_Source\PSoC6\pdl\drivers/peripheral/scb/cy_scb_common.h ****                                  CY_SCB_SLAVE_INTR_I2C_WRITE_STOP | CY_SCB_SLAVE_INTR_I2C_STOP | CY
 539:Generated_Source\PSoC6\pdl\drivers/peripheral/scb/cy_scb_common.h ****                                  CY_SCB_SLAVE_INTR_I2C_ADDR_MATCH | CY_SCB_SLAVE_INTR_I2C_GENERAL_A
 540:Generated_Source\PSoC6\pdl\drivers/peripheral/scb/cy_scb_common.h ****                                  CY_SCB_SLAVE_INTR_I2C_BUS_ERROR  | CY_SCB_SLAVE_INTR_SPI_BUS_ERROR
 541:Generated_Source\PSoC6\pdl\drivers/peripheral/scb/cy_scb_common.h **** 
 542:Generated_Source\PSoC6\pdl\drivers/peripheral/scb/cy_scb_common.h **** #define CY_SCB_MASTER_INTR_MASK (CY_SCB_MASTER_INTR_I2C_ARB_LOST  | CY_SCB_MASTER_INTR_I2C_NACK | \
 543:Generated_Source\PSoC6\pdl\drivers/peripheral/scb/cy_scb_common.h ****                                  CY_SCB_MASTER_INTR_I2C_ACK       | CY_SCB_MASTER_INTR_I2C_STOP | \
 544:Generated_Source\PSoC6\pdl\drivers/peripheral/scb/cy_scb_common.h ****                                  CY_SCB_MASTER_INTR_I2C_BUS_ERROR | CY_SCB_MASTER_INTR_SPI_DONE)
 545:Generated_Source\PSoC6\pdl\drivers/peripheral/scb/cy_scb_common.h **** 
 546:Generated_Source\PSoC6\pdl\drivers/peripheral/scb/cy_scb_common.h **** #define CY_SCB_I2C_INTR_MASK    CY_SCB_I2C_INTR_WAKEUP
 547:Generated_Source\PSoC6\pdl\drivers/peripheral/scb/cy_scb_common.h **** 
 548:Generated_Source\PSoC6\pdl\drivers/peripheral/scb/cy_scb_common.h **** #define CY_SCB_SPI_INTR_MASK    CY_SCB_SPI_INTR_WAKEUP
 549:Generated_Source\PSoC6\pdl\drivers/peripheral/scb/cy_scb_common.h **** 
 550:Generated_Source\PSoC6\pdl\drivers/peripheral/scb/cy_scb_common.h **** #define CY_SCB_IS_INTR_VALID(intr, mask)            ( 0UL == ((intr) & ((uint32_t) ~(mask))) )
 551:Generated_Source\PSoC6\pdl\drivers/peripheral/scb/cy_scb_common.h **** #define CY_SCB_IS_TRIGGER_LEVEL_VALID(base, level)  ((level) < Cy_SCB_GetFifoSize(base))
 552:Generated_Source\PSoC6\pdl\drivers/peripheral/scb/cy_scb_common.h **** 
 553:Generated_Source\PSoC6\pdl\drivers/peripheral/scb/cy_scb_common.h **** #define CY_SCB_IS_I2C_ADDR_VALID(addr)              ( (0U == ((addr) & 0x80U)) )
 554:Generated_Source\PSoC6\pdl\drivers/peripheral/scb/cy_scb_common.h **** #define CY_SCB_IS_BUFFER_VALID(buffer, size)        ( (NULL != (buffer)) && ((size) > 0UL) )
 555:Generated_Source\PSoC6\pdl\drivers/peripheral/scb/cy_scb_common.h **** #define CY_SCB_IS_I2C_BUFFER_VALID(buffer, size)    ( (0UL == (size)) ? true : (NULL != (buffer)) )
 556:Generated_Source\PSoC6\pdl\drivers/peripheral/scb/cy_scb_common.h **** /** \endcond */
 557:Generated_Source\PSoC6\pdl\drivers/peripheral/scb/cy_scb_common.h **** 
 558:Generated_Source\PSoC6\pdl\drivers/peripheral/scb/cy_scb_common.h **** /** \} group_scb_common_macros */
 559:Generated_Source\PSoC6\pdl\drivers/peripheral/scb/cy_scb_common.h **** 
 560:Generated_Source\PSoC6\pdl\drivers/peripheral/scb/cy_scb_common.h **** 
 561:Generated_Source\PSoC6\pdl\drivers/peripheral/scb/cy_scb_common.h **** /***************************************
 562:Generated_Source\PSoC6\pdl\drivers/peripheral/scb/cy_scb_common.h **** * Inline Function Implementation
 563:Generated_Source\PSoC6\pdl\drivers/peripheral/scb/cy_scb_common.h **** ***************************************/
 564:Generated_Source\PSoC6\pdl\drivers/peripheral/scb/cy_scb_common.h **** 
 565:Generated_Source\PSoC6\pdl\drivers/peripheral/scb/cy_scb_common.h **** /**
 566:Generated_Source\PSoC6\pdl\drivers/peripheral/scb/cy_scb_common.h **** * \addtogroup group_scb_common_functions
 567:Generated_Source\PSoC6\pdl\drivers/peripheral/scb/cy_scb_common.h **** * \{
 568:Generated_Source\PSoC6\pdl\drivers/peripheral/scb/cy_scb_common.h **** */
 569:Generated_Source\PSoC6\pdl\drivers/peripheral/scb/cy_scb_common.h **** 
ARM GAS  C:\Users\salaz\AppData\Local\Temp\ccI54lrI.s 			page 13


 570:Generated_Source\PSoC6\pdl\drivers/peripheral/scb/cy_scb_common.h **** /*******************************************************************************
 571:Generated_Source\PSoC6\pdl\drivers/peripheral/scb/cy_scb_common.h **** * Function Name: Cy_SCB_ReadRxFifo
 572:Generated_Source\PSoC6\pdl\drivers/peripheral/scb/cy_scb_common.h **** ****************************************************************************//**
 573:Generated_Source\PSoC6\pdl\drivers/peripheral/scb/cy_scb_common.h **** *
 574:Generated_Source\PSoC6\pdl\drivers/peripheral/scb/cy_scb_common.h **** * Reads a data element directly out of the RX FIFO.
 575:Generated_Source\PSoC6\pdl\drivers/peripheral/scb/cy_scb_common.h **** * This function does not check whether the RX FIFO has data before reading it.
 576:Generated_Source\PSoC6\pdl\drivers/peripheral/scb/cy_scb_common.h **** *
 577:Generated_Source\PSoC6\pdl\drivers/peripheral/scb/cy_scb_common.h **** * \param base
 578:Generated_Source\PSoC6\pdl\drivers/peripheral/scb/cy_scb_common.h **** * The pointer to the SCB instance.
 579:Generated_Source\PSoC6\pdl\drivers/peripheral/scb/cy_scb_common.h **** *
 580:Generated_Source\PSoC6\pdl\drivers/peripheral/scb/cy_scb_common.h **** * \return
 581:Generated_Source\PSoC6\pdl\drivers/peripheral/scb/cy_scb_common.h **** * Data from RX FIFO.
 582:Generated_Source\PSoC6\pdl\drivers/peripheral/scb/cy_scb_common.h **** *
 583:Generated_Source\PSoC6\pdl\drivers/peripheral/scb/cy_scb_common.h **** *******************************************************************************/
 584:Generated_Source\PSoC6\pdl\drivers/peripheral/scb/cy_scb_common.h **** __STATIC_INLINE uint32_t Cy_SCB_ReadRxFifo(CySCB_Type const *base)
 585:Generated_Source\PSoC6\pdl\drivers/peripheral/scb/cy_scb_common.h **** {
 586:Generated_Source\PSoC6\pdl\drivers/peripheral/scb/cy_scb_common.h ****     return (base->RX_FIFO_RD);
 587:Generated_Source\PSoC6\pdl\drivers/peripheral/scb/cy_scb_common.h **** }
 588:Generated_Source\PSoC6\pdl\drivers/peripheral/scb/cy_scb_common.h **** 
 589:Generated_Source\PSoC6\pdl\drivers/peripheral/scb/cy_scb_common.h **** /*******************************************************************************
 590:Generated_Source\PSoC6\pdl\drivers/peripheral/scb/cy_scb_common.h **** * Function Name: Cy_SCB_SetRxFifoLevel
 591:Generated_Source\PSoC6\pdl\drivers/peripheral/scb/cy_scb_common.h **** ****************************************************************************//**
 592:Generated_Source\PSoC6\pdl\drivers/peripheral/scb/cy_scb_common.h **** *
 593:Generated_Source\PSoC6\pdl\drivers/peripheral/scb/cy_scb_common.h **** * Sets the RX FIFO level. When there are more data elements in the RX FIFO than
 594:Generated_Source\PSoC6\pdl\drivers/peripheral/scb/cy_scb_common.h **** * this level, the RX FIFO level interrupt is triggered.
 595:Generated_Source\PSoC6\pdl\drivers/peripheral/scb/cy_scb_common.h **** *
 596:Generated_Source\PSoC6\pdl\drivers/peripheral/scb/cy_scb_common.h **** * \param base
 597:Generated_Source\PSoC6\pdl\drivers/peripheral/scb/cy_scb_common.h **** * The pointer to the SCB instance.
 598:Generated_Source\PSoC6\pdl\drivers/peripheral/scb/cy_scb_common.h **** *
 599:Generated_Source\PSoC6\pdl\drivers/peripheral/scb/cy_scb_common.h **** * \param level
 600:Generated_Source\PSoC6\pdl\drivers/peripheral/scb/cy_scb_common.h **** * When there are more data elements in the FIFO than this level, the RX level
 601:Generated_Source\PSoC6\pdl\drivers/peripheral/scb/cy_scb_common.h **** * interrupt is triggered.
 602:Generated_Source\PSoC6\pdl\drivers/peripheral/scb/cy_scb_common.h **** *
 603:Generated_Source\PSoC6\pdl\drivers/peripheral/scb/cy_scb_common.h **** *******************************************************************************/
 604:Generated_Source\PSoC6\pdl\drivers/peripheral/scb/cy_scb_common.h **** __STATIC_INLINE void Cy_SCB_SetRxFifoLevel(CySCB_Type *base, uint32_t level)
 605:Generated_Source\PSoC6\pdl\drivers/peripheral/scb/cy_scb_common.h **** {
 606:Generated_Source\PSoC6\pdl\drivers/peripheral/scb/cy_scb_common.h ****     CY_ASSERT_L2(CY_SCB_IS_TRIGGER_LEVEL_VALID(base, level));
 607:Generated_Source\PSoC6\pdl\drivers/peripheral/scb/cy_scb_common.h **** 
 608:Generated_Source\PSoC6\pdl\drivers/peripheral/scb/cy_scb_common.h ****     base->RX_FIFO_CTRL = _CLR_SET_FLD32U(base->RX_FIFO_CTRL, SCB_RX_FIFO_CTRL_TRIGGER_LEVEL, level)
 609:Generated_Source\PSoC6\pdl\drivers/peripheral/scb/cy_scb_common.h **** }
 610:Generated_Source\PSoC6\pdl\drivers/peripheral/scb/cy_scb_common.h **** 
 611:Generated_Source\PSoC6\pdl\drivers/peripheral/scb/cy_scb_common.h **** 
 612:Generated_Source\PSoC6\pdl\drivers/peripheral/scb/cy_scb_common.h **** /*******************************************************************************
 613:Generated_Source\PSoC6\pdl\drivers/peripheral/scb/cy_scb_common.h **** * Function Name: Cy_SCB_GetNumInRxFifo
 614:Generated_Source\PSoC6\pdl\drivers/peripheral/scb/cy_scb_common.h **** ****************************************************************************//**
 615:Generated_Source\PSoC6\pdl\drivers/peripheral/scb/cy_scb_common.h **** *
 616:Generated_Source\PSoC6\pdl\drivers/peripheral/scb/cy_scb_common.h **** * Returns the number of data elements currently in the RX FIFO.
 617:Generated_Source\PSoC6\pdl\drivers/peripheral/scb/cy_scb_common.h **** *
 618:Generated_Source\PSoC6\pdl\drivers/peripheral/scb/cy_scb_common.h **** * \param base
 619:Generated_Source\PSoC6\pdl\drivers/peripheral/scb/cy_scb_common.h **** * The pointer to the SCB instance.
 620:Generated_Source\PSoC6\pdl\drivers/peripheral/scb/cy_scb_common.h **** *
 621:Generated_Source\PSoC6\pdl\drivers/peripheral/scb/cy_scb_common.h **** * \return
 622:Generated_Source\PSoC6\pdl\drivers/peripheral/scb/cy_scb_common.h **** * The number or data elements in RX FIFO.
 623:Generated_Source\PSoC6\pdl\drivers/peripheral/scb/cy_scb_common.h **** *
 624:Generated_Source\PSoC6\pdl\drivers/peripheral/scb/cy_scb_common.h **** *******************************************************************************/
 625:Generated_Source\PSoC6\pdl\drivers/peripheral/scb/cy_scb_common.h **** __STATIC_INLINE uint32_t Cy_SCB_GetNumInRxFifo(CySCB_Type const *base)
 626:Generated_Source\PSoC6\pdl\drivers/peripheral/scb/cy_scb_common.h **** {
ARM GAS  C:\Users\salaz\AppData\Local\Temp\ccI54lrI.s 			page 14


 627:Generated_Source\PSoC6\pdl\drivers/peripheral/scb/cy_scb_common.h ****     return _FLD2VAL(SCB_RX_FIFO_STATUS_USED, base->RX_FIFO_STATUS);
 628:Generated_Source\PSoC6\pdl\drivers/peripheral/scb/cy_scb_common.h **** }
 629:Generated_Source\PSoC6\pdl\drivers/peripheral/scb/cy_scb_common.h **** 
 630:Generated_Source\PSoC6\pdl\drivers/peripheral/scb/cy_scb_common.h **** 
 631:Generated_Source\PSoC6\pdl\drivers/peripheral/scb/cy_scb_common.h **** /*******************************************************************************
 632:Generated_Source\PSoC6\pdl\drivers/peripheral/scb/cy_scb_common.h **** * Function Name: Cy_SCB_GetRxSrValid
 633:Generated_Source\PSoC6\pdl\drivers/peripheral/scb/cy_scb_common.h **** ****************************************************************************//**
 634:Generated_Source\PSoC6\pdl\drivers/peripheral/scb/cy_scb_common.h **** *
 635:Generated_Source\PSoC6\pdl\drivers/peripheral/scb/cy_scb_common.h **** * Returns the status of the RX FIFO Shift Register valid bit.
 636:Generated_Source\PSoC6\pdl\drivers/peripheral/scb/cy_scb_common.h **** *
 637:Generated_Source\PSoC6\pdl\drivers/peripheral/scb/cy_scb_common.h **** * \param base
 638:Generated_Source\PSoC6\pdl\drivers/peripheral/scb/cy_scb_common.h **** * The pointer to the SCB instance.
 639:Generated_Source\PSoC6\pdl\drivers/peripheral/scb/cy_scb_common.h **** *
 640:Generated_Source\PSoC6\pdl\drivers/peripheral/scb/cy_scb_common.h **** * \return
 641:Generated_Source\PSoC6\pdl\drivers/peripheral/scb/cy_scb_common.h **** * 1 - RX shift register valid; 0 - RX shift register not valid.
 642:Generated_Source\PSoC6\pdl\drivers/peripheral/scb/cy_scb_common.h **** *
 643:Generated_Source\PSoC6\pdl\drivers/peripheral/scb/cy_scb_common.h **** *******************************************************************************/
 644:Generated_Source\PSoC6\pdl\drivers/peripheral/scb/cy_scb_common.h **** __STATIC_INLINE uint32_t Cy_SCB_GetRxSrValid(CySCB_Type const *base)
 645:Generated_Source\PSoC6\pdl\drivers/peripheral/scb/cy_scb_common.h **** {
 646:Generated_Source\PSoC6\pdl\drivers/peripheral/scb/cy_scb_common.h ****     return _FLD2VAL(SCB_RX_FIFO_STATUS_SR_VALID, base->RX_FIFO_STATUS);
 647:Generated_Source\PSoC6\pdl\drivers/peripheral/scb/cy_scb_common.h **** }
 648:Generated_Source\PSoC6\pdl\drivers/peripheral/scb/cy_scb_common.h **** 
 649:Generated_Source\PSoC6\pdl\drivers/peripheral/scb/cy_scb_common.h **** 
 650:Generated_Source\PSoC6\pdl\drivers/peripheral/scb/cy_scb_common.h **** /*******************************************************************************
 651:Generated_Source\PSoC6\pdl\drivers/peripheral/scb/cy_scb_common.h **** * Function Name: Cy_SCB_ClearRxFifo
 652:Generated_Source\PSoC6\pdl\drivers/peripheral/scb/cy_scb_common.h **** ****************************************************************************//**
 653:Generated_Source\PSoC6\pdl\drivers/peripheral/scb/cy_scb_common.h **** *
 654:Generated_Source\PSoC6\pdl\drivers/peripheral/scb/cy_scb_common.h **** * Clears the RX FIFO and shifter.
 655:Generated_Source\PSoC6\pdl\drivers/peripheral/scb/cy_scb_common.h **** *
 656:Generated_Source\PSoC6\pdl\drivers/peripheral/scb/cy_scb_common.h **** * \param base
 657:Generated_Source\PSoC6\pdl\drivers/peripheral/scb/cy_scb_common.h **** * The pointer to the SCB instance.
 658:Generated_Source\PSoC6\pdl\drivers/peripheral/scb/cy_scb_common.h **** *
 659:Generated_Source\PSoC6\pdl\drivers/peripheral/scb/cy_scb_common.h **** * \note
 660:Generated_Source\PSoC6\pdl\drivers/peripheral/scb/cy_scb_common.h **** * If there is partial data in the shifter, it is cleared and lost.
 661:Generated_Source\PSoC6\pdl\drivers/peripheral/scb/cy_scb_common.h **** *
 662:Generated_Source\PSoC6\pdl\drivers/peripheral/scb/cy_scb_common.h **** *******************************************************************************/
 663:Generated_Source\PSoC6\pdl\drivers/peripheral/scb/cy_scb_common.h **** __STATIC_INLINE void Cy_SCB_ClearRxFifo(CySCB_Type* base)
 664:Generated_Source\PSoC6\pdl\drivers/peripheral/scb/cy_scb_common.h **** {
 665:Generated_Source\PSoC6\pdl\drivers/peripheral/scb/cy_scb_common.h ****     base->RX_FIFO_CTRL |= (uint32_t)  SCB_RX_FIFO_CTRL_CLEAR_Msk;
 666:Generated_Source\PSoC6\pdl\drivers/peripheral/scb/cy_scb_common.h ****     base->RX_FIFO_CTRL &= (uint32_t) ~SCB_RX_FIFO_CTRL_CLEAR_Msk;
 667:Generated_Source\PSoC6\pdl\drivers/peripheral/scb/cy_scb_common.h **** 
 668:Generated_Source\PSoC6\pdl\drivers/peripheral/scb/cy_scb_common.h ****     (void) base->RX_FIFO_CTRL;
 669:Generated_Source\PSoC6\pdl\drivers/peripheral/scb/cy_scb_common.h **** }
 670:Generated_Source\PSoC6\pdl\drivers/peripheral/scb/cy_scb_common.h **** 
 671:Generated_Source\PSoC6\pdl\drivers/peripheral/scb/cy_scb_common.h **** 
 672:Generated_Source\PSoC6\pdl\drivers/peripheral/scb/cy_scb_common.h **** /*******************************************************************************
 673:Generated_Source\PSoC6\pdl\drivers/peripheral/scb/cy_scb_common.h **** * Function Name: Cy_SCB_WriteTxFifo
 674:Generated_Source\PSoC6\pdl\drivers/peripheral/scb/cy_scb_common.h **** ****************************************************************************//**
 675:Generated_Source\PSoC6\pdl\drivers/peripheral/scb/cy_scb_common.h **** *
 676:Generated_Source\PSoC6\pdl\drivers/peripheral/scb/cy_scb_common.h **** * Writes data directly into the TX FIFO.
 677:Generated_Source\PSoC6\pdl\drivers/peripheral/scb/cy_scb_common.h **** * This function does not check whether the TX FIFO is not full before writing
 678:Generated_Source\PSoC6\pdl\drivers/peripheral/scb/cy_scb_common.h **** * into it.
 679:Generated_Source\PSoC6\pdl\drivers/peripheral/scb/cy_scb_common.h **** *
 680:Generated_Source\PSoC6\pdl\drivers/peripheral/scb/cy_scb_common.h **** * \param base
 681:Generated_Source\PSoC6\pdl\drivers/peripheral/scb/cy_scb_common.h **** * The pointer to the SCB instance.
 682:Generated_Source\PSoC6\pdl\drivers/peripheral/scb/cy_scb_common.h **** *
 683:Generated_Source\PSoC6\pdl\drivers/peripheral/scb/cy_scb_common.h **** * \param data
ARM GAS  C:\Users\salaz\AppData\Local\Temp\ccI54lrI.s 			page 15


 684:Generated_Source\PSoC6\pdl\drivers/peripheral/scb/cy_scb_common.h **** * Data to write to the TX FIFO.
 685:Generated_Source\PSoC6\pdl\drivers/peripheral/scb/cy_scb_common.h **** *
 686:Generated_Source\PSoC6\pdl\drivers/peripheral/scb/cy_scb_common.h **** *******************************************************************************/
 687:Generated_Source\PSoC6\pdl\drivers/peripheral/scb/cy_scb_common.h **** __STATIC_INLINE void Cy_SCB_WriteTxFifo(CySCB_Type* base, uint32_t data)
 688:Generated_Source\PSoC6\pdl\drivers/peripheral/scb/cy_scb_common.h **** {
 689:Generated_Source\PSoC6\pdl\drivers/peripheral/scb/cy_scb_common.h ****     base->TX_FIFO_WR = data;
 690:Generated_Source\PSoC6\pdl\drivers/peripheral/scb/cy_scb_common.h **** }
 691:Generated_Source\PSoC6\pdl\drivers/peripheral/scb/cy_scb_common.h **** 
 692:Generated_Source\PSoC6\pdl\drivers/peripheral/scb/cy_scb_common.h **** 
 693:Generated_Source\PSoC6\pdl\drivers/peripheral/scb/cy_scb_common.h **** /*******************************************************************************
 694:Generated_Source\PSoC6\pdl\drivers/peripheral/scb/cy_scb_common.h **** * Function Name: Cy_SCB_SetTxFifoLevel
 695:Generated_Source\PSoC6\pdl\drivers/peripheral/scb/cy_scb_common.h **** ****************************************************************************//**
 696:Generated_Source\PSoC6\pdl\drivers/peripheral/scb/cy_scb_common.h **** *
 697:Generated_Source\PSoC6\pdl\drivers/peripheral/scb/cy_scb_common.h **** * Sets the TX FIFO level. When there are fewer data elements in the TX FIFO than
 698:Generated_Source\PSoC6\pdl\drivers/peripheral/scb/cy_scb_common.h **** * this level, the TX FIFO level interrupt is triggered.
 699:Generated_Source\PSoC6\pdl\drivers/peripheral/scb/cy_scb_common.h **** *
 700:Generated_Source\PSoC6\pdl\drivers/peripheral/scb/cy_scb_common.h **** * \param base
 701:Generated_Source\PSoC6\pdl\drivers/peripheral/scb/cy_scb_common.h **** * The pointer to the SCB instance.
 702:Generated_Source\PSoC6\pdl\drivers/peripheral/scb/cy_scb_common.h **** *
 703:Generated_Source\PSoC6\pdl\drivers/peripheral/scb/cy_scb_common.h **** * \param level
 704:Generated_Source\PSoC6\pdl\drivers/peripheral/scb/cy_scb_common.h **** * When there are fewer data elements in the FIFO than this level, the TX level
 705:Generated_Source\PSoC6\pdl\drivers/peripheral/scb/cy_scb_common.h **** * interrupt is triggered.
 706:Generated_Source\PSoC6\pdl\drivers/peripheral/scb/cy_scb_common.h **** *
 707:Generated_Source\PSoC6\pdl\drivers/peripheral/scb/cy_scb_common.h **** *******************************************************************************/
 708:Generated_Source\PSoC6\pdl\drivers/peripheral/scb/cy_scb_common.h **** __STATIC_INLINE void Cy_SCB_SetTxFifoLevel(CySCB_Type *base, uint32_t level)
 709:Generated_Source\PSoC6\pdl\drivers/peripheral/scb/cy_scb_common.h **** {
 710:Generated_Source\PSoC6\pdl\drivers/peripheral/scb/cy_scb_common.h ****     CY_ASSERT_L2(CY_SCB_IS_TRIGGER_LEVEL_VALID(base, level));
 711:Generated_Source\PSoC6\pdl\drivers/peripheral/scb/cy_scb_common.h **** 
 712:Generated_Source\PSoC6\pdl\drivers/peripheral/scb/cy_scb_common.h ****     base->TX_FIFO_CTRL = _CLR_SET_FLD32U(base->TX_FIFO_CTRL, SCB_TX_FIFO_CTRL_TRIGGER_LEVEL, level)
 713:Generated_Source\PSoC6\pdl\drivers/peripheral/scb/cy_scb_common.h **** }
 714:Generated_Source\PSoC6\pdl\drivers/peripheral/scb/cy_scb_common.h **** 
 715:Generated_Source\PSoC6\pdl\drivers/peripheral/scb/cy_scb_common.h **** 
 716:Generated_Source\PSoC6\pdl\drivers/peripheral/scb/cy_scb_common.h **** /*******************************************************************************
 717:Generated_Source\PSoC6\pdl\drivers/peripheral/scb/cy_scb_common.h **** * Function Name: Cy_SCB_GetNumInTxFifo
 718:Generated_Source\PSoC6\pdl\drivers/peripheral/scb/cy_scb_common.h **** ****************************************************************************//**
 719:Generated_Source\PSoC6\pdl\drivers/peripheral/scb/cy_scb_common.h **** *
 720:Generated_Source\PSoC6\pdl\drivers/peripheral/scb/cy_scb_common.h **** * Returns the number of data elements currently in the TX FIFO.
 721:Generated_Source\PSoC6\pdl\drivers/peripheral/scb/cy_scb_common.h **** *
 722:Generated_Source\PSoC6\pdl\drivers/peripheral/scb/cy_scb_common.h **** * \param base
 723:Generated_Source\PSoC6\pdl\drivers/peripheral/scb/cy_scb_common.h **** * The pointer to the SCB instance.
 724:Generated_Source\PSoC6\pdl\drivers/peripheral/scb/cy_scb_common.h **** *
 725:Generated_Source\PSoC6\pdl\drivers/peripheral/scb/cy_scb_common.h **** * \return
 726:Generated_Source\PSoC6\pdl\drivers/peripheral/scb/cy_scb_common.h **** * The number or data elements in the TX FIFO.
 727:Generated_Source\PSoC6\pdl\drivers/peripheral/scb/cy_scb_common.h **** *
 728:Generated_Source\PSoC6\pdl\drivers/peripheral/scb/cy_scb_common.h **** *******************************************************************************/
 729:Generated_Source\PSoC6\pdl\drivers/peripheral/scb/cy_scb_common.h **** __STATIC_INLINE uint32_t Cy_SCB_GetNumInTxFifo(CySCB_Type const *base)
 730:Generated_Source\PSoC6\pdl\drivers/peripheral/scb/cy_scb_common.h **** {
 731:Generated_Source\PSoC6\pdl\drivers/peripheral/scb/cy_scb_common.h ****     return _FLD2VAL(SCB_TX_FIFO_STATUS_USED, base->TX_FIFO_STATUS);
  71              		.loc 2 731 0 discriminator 1
  72 001c C348     		ldr	r0, .L56+12
  73 001e 8221     		movs	r1, #130
  74 0020 8900     		lsls	r1, r1, #2
  75 0022 4358     		ldr	r3, [r0, r1]
  76 0024 DB05     		lsls	r3, r3, #23
  77 0026 DA0D     		lsrs	r2, r3, #23
  78              	.LVL1:
  79              	.LBE86:
ARM GAS  C:\Users\salaz\AppData\Local\Temp\ccI54lrI.s 			page 16


  80              	.LBE85:
  81              	.LBB87:
  82              	.LBB88:
 732:Generated_Source\PSoC6\pdl\drivers/peripheral/scb/cy_scb_common.h **** }
 733:Generated_Source\PSoC6\pdl\drivers/peripheral/scb/cy_scb_common.h **** 
 734:Generated_Source\PSoC6\pdl\drivers/peripheral/scb/cy_scb_common.h **** 
 735:Generated_Source\PSoC6\pdl\drivers/peripheral/scb/cy_scb_common.h **** /*******************************************************************************
 736:Generated_Source\PSoC6\pdl\drivers/peripheral/scb/cy_scb_common.h **** * Function Name: Cy_SCB_GetTxSrValid
 737:Generated_Source\PSoC6\pdl\drivers/peripheral/scb/cy_scb_common.h **** ****************************************************************************//**
 738:Generated_Source\PSoC6\pdl\drivers/peripheral/scb/cy_scb_common.h **** *
 739:Generated_Source\PSoC6\pdl\drivers/peripheral/scb/cy_scb_common.h **** * Returns the status of the TX FIFO Shift Register valid bit.
 740:Generated_Source\PSoC6\pdl\drivers/peripheral/scb/cy_scb_common.h **** *
 741:Generated_Source\PSoC6\pdl\drivers/peripheral/scb/cy_scb_common.h **** * \param base
 742:Generated_Source\PSoC6\pdl\drivers/peripheral/scb/cy_scb_common.h **** * The pointer to the SCB instance.
 743:Generated_Source\PSoC6\pdl\drivers/peripheral/scb/cy_scb_common.h **** *
 744:Generated_Source\PSoC6\pdl\drivers/peripheral/scb/cy_scb_common.h **** * \return
 745:Generated_Source\PSoC6\pdl\drivers/peripheral/scb/cy_scb_common.h **** * 1 - TX shift register valid; 0 - TX shift register not valid.
 746:Generated_Source\PSoC6\pdl\drivers/peripheral/scb/cy_scb_common.h **** *
 747:Generated_Source\PSoC6\pdl\drivers/peripheral/scb/cy_scb_common.h **** *******************************************************************************/
 748:Generated_Source\PSoC6\pdl\drivers/peripheral/scb/cy_scb_common.h **** __STATIC_INLINE uint32_t Cy_SCB_GetTxSrValid(CySCB_Type const *base)
 749:Generated_Source\PSoC6\pdl\drivers/peripheral/scb/cy_scb_common.h **** {
 750:Generated_Source\PSoC6\pdl\drivers/peripheral/scb/cy_scb_common.h ****     return _FLD2VAL(SCB_TX_FIFO_STATUS_SR_VALID, base->TX_FIFO_STATUS);
  83              		.loc 2 750 0 discriminator 1
  84 0028 4358     		ldr	r3, [r0, r1]
  85 002a DB0B     		lsrs	r3, r3, #15
  86 002c 0121     		movs	r1, #1
  87 002e 0B40     		ands	r3, r1
  88              	.LVL2:
  89              	.LBE88:
  90              	.LBE87:
  46:AppControl.c  ****                 DEBUG_WAIT_UART_TX_COMPLETE();
  91              		.loc 1 46 0 discriminator 1
  92 0030 9B18     		adds	r3, r3, r2
  93 0032 002B     		cmp	r3, #0
  94 0034 F2D1     		bne	.L12
  47:AppControl.c  ****                 //KinOS_Advertise(30,50);
  48:AppControl.c  ****                 next_state = FSM_IDLE;
  95              		.loc 1 48 0
  96 0036 0122     		movs	r2, #1
  97 0038 B94B     		ldr	r3, .L56
  98 003a 5A70     		strb	r2, [r3, #1]
  49:AppControl.c  ****                 break;
  99              		.loc 1 49 0
 100 003c E8E0     		b	.L2
 101              	.L5:
  50:AppControl.c  ****             }
  51:AppControl.c  ****             case FSM_IDLE:
  52:AppControl.c  ****             {
  53:AppControl.c  ****                 DEBUG_PRINTF("FSM_IDLE\r\n");
 102              		.loc 1 53 0
 103 003e BC48     		ldr	r0, .L56+16
 104 0040 FFF7FEFF 		bl	puts
 105              	.LVL3:
 106              	.L13:
 107              	.LBB89:
 108              	.LBB90:
 731:Generated_Source\PSoC6\pdl\drivers/peripheral/scb/cy_scb_common.h **** }
ARM GAS  C:\Users\salaz\AppData\Local\Temp\ccI54lrI.s 			page 17


 109              		.loc 2 731 0 discriminator 1
 110 0044 B948     		ldr	r0, .L56+12
 111 0046 8221     		movs	r1, #130
 112 0048 8900     		lsls	r1, r1, #2
 113 004a 4358     		ldr	r3, [r0, r1]
 114 004c DB05     		lsls	r3, r3, #23
 115 004e DA0D     		lsrs	r2, r3, #23
 116              	.LVL4:
 117              	.LBE90:
 118              	.LBE89:
 119              	.LBB91:
 120              	.LBB92:
 121              		.loc 2 750 0 discriminator 1
 122 0050 4358     		ldr	r3, [r0, r1]
 123 0052 DB0B     		lsrs	r3, r3, #15
 124 0054 0121     		movs	r1, #1
 125 0056 0B40     		ands	r3, r1
 126              	.LVL5:
 127              	.LBE92:
 128              	.LBE91:
  54:AppControl.c  ****                 DEBUG_WAIT_UART_TX_COMPLETE();
 129              		.loc 1 54 0 discriminator 1
 130 0058 9B18     		adds	r3, r3, r2
 131 005a 002B     		cmp	r3, #0
 132 005c F2D1     		bne	.L13
  55:AppControl.c  ****                 if (KinOS_ShakeDetected()) 
 133              		.loc 1 55 0
 134 005e FFF7FEFF 		bl	KinOS_ShakeDetected
 135              	.LVL6:
 136 0062 0028     		cmp	r0, #0
 137 0064 00D1     		bne	.LCB97
 138 0066 D3E0     		b	.L2	@long jump
 139              	.LCB97:
  56:AppControl.c  ****                 {
  57:AppControl.c  ****                     next_state = FSM_CHECK_MOTION;
 140              		.loc 1 57 0
 141 0068 0222     		movs	r2, #2
 142 006a AD4B     		ldr	r3, .L56
 143 006c 5A70     		strb	r2, [r3, #1]
 144 006e CFE0     		b	.L2
 145              	.L6:
  58:AppControl.c  ****                 }
  59:AppControl.c  ****                 //KinOS_Advertise(verifyAdvertise_s,50);
  60:AppControl.c  ****                 break;
  61:AppControl.c  ****             }
  62:AppControl.c  ****             case FSM_CHECK_MOTION:
  63:AppControl.c  ****             {
  64:AppControl.c  ****                 DEBUG_PRINTF("FSM_CHECK_MOTION\r\n");
 146              		.loc 1 64 0
 147 0070 B048     		ldr	r0, .L56+20
 148 0072 FFF7FEFF 		bl	puts
 149              	.LVL7:
 150              	.L14:
 151              	.LBB93:
 152              	.LBB94:
 731:Generated_Source\PSoC6\pdl\drivers/peripheral/scb/cy_scb_common.h **** }
 153              		.loc 2 731 0 discriminator 1
ARM GAS  C:\Users\salaz\AppData\Local\Temp\ccI54lrI.s 			page 18


 154 0076 AD48     		ldr	r0, .L56+12
 155 0078 8221     		movs	r1, #130
 156 007a 8900     		lsls	r1, r1, #2
 157 007c 4358     		ldr	r3, [r0, r1]
 158 007e DB05     		lsls	r3, r3, #23
 159 0080 DA0D     		lsrs	r2, r3, #23
 160              	.LVL8:
 161              	.LBE94:
 162              	.LBE93:
 163              	.LBB95:
 164              	.LBB96:
 165              		.loc 2 750 0 discriminator 1
 166 0082 4358     		ldr	r3, [r0, r1]
 167 0084 DB0B     		lsrs	r3, r3, #15
 168 0086 0121     		movs	r1, #1
 169 0088 0B40     		ands	r3, r1
 170              	.LVL9:
 171              	.LBE96:
 172              	.LBE95:
  65:AppControl.c  ****                 DEBUG_WAIT_UART_TX_COMPLETE();
 173              		.loc 1 65 0 discriminator 1
 174 008a 9B18     		adds	r3, r3, r2
 175 008c 002B     		cmp	r3, #0
 176 008e F2D1     		bne	.L14
  66:AppControl.c  ****                 // latch the first 2 seconds
  67:AppControl.c  ****                 if (KinOS_CheckTimerB()) 
 177              		.loc 1 67 0
 178 0090 FFF7FEFF 		bl	KinOS_CheckTimerB
 179              	.LVL10:
 180 0094 0028     		cmp	r0, #0
 181 0096 02D0     		beq	.L15
  68:AppControl.c  ****                 {
  69:AppControl.c  ****                     motion_latch = false;
 182              		.loc 1 69 0
 183 0098 0022     		movs	r2, #0
 184 009a A14B     		ldr	r3, .L56
 185 009c 9A70     		strb	r2, [r3, #2]
 186              	.L15:
  70:AppControl.c  ****                 }
  71:AppControl.c  ****                 
  72:AppControl.c  ****                 if (motion_latch)
 187              		.loc 1 72 0
 188 009e A04B     		ldr	r3, .L56
 189 00a0 9B78     		ldrb	r3, [r3, #2]
 190 00a2 002B     		cmp	r3, #0
 191 00a4 02D0     		beq	.L16
  73:AppControl.c  ****                 {
  74:AppControl.c  ****                     KinOS_ShakeDetected();
 192              		.loc 1 74 0
 193 00a6 FFF7FEFF 		bl	KinOS_ShakeDetected
 194              	.LVL11:
 195 00aa B1E0     		b	.L2
 196              	.L16:
  75:AppControl.c  ****                 }
  76:AppControl.c  ****                 else if (KinOS_CheckTimerA())
 197              		.loc 1 76 0
 198 00ac FFF7FEFF 		bl	KinOS_CheckTimerA
ARM GAS  C:\Users\salaz\AppData\Local\Temp\ccI54lrI.s 			page 19


 199              	.LVL12:
 200 00b0 0028     		cmp	r0, #0
 201 00b2 00D1     		bne	.LCB157
 202 00b4 ACE0     		b	.L2	@long jump
 203              	.LCB157:
  77:AppControl.c  ****                 {
  78:AppControl.c  ****                     if (KinOS_ShakeDetected())
 204              		.loc 1 78 0
 205 00b6 FFF7FEFF 		bl	KinOS_ShakeDetected
 206              	.LVL13:
 207 00ba 0028     		cmp	r0, #0
 208 00bc 03D0     		beq	.L17
  79:AppControl.c  ****                     {
  80:AppControl.c  ****                         next_state = FSM_VERIFY_USER;
 209              		.loc 1 80 0
 210 00be 0322     		movs	r2, #3
 211 00c0 974B     		ldr	r3, .L56
 212 00c2 5A70     		strb	r2, [r3, #1]
 213 00c4 A4E0     		b	.L2
 214              	.L17:
  81:AppControl.c  ****                     }
  82:AppControl.c  ****                     else
  83:AppControl.c  ****                     {
  84:AppControl.c  ****                         next_state = FSM_IDLE;
 215              		.loc 1 84 0
 216 00c6 0122     		movs	r2, #1
 217 00c8 954B     		ldr	r3, .L56
 218 00ca 5A70     		strb	r2, [r3, #1]
 219 00cc A0E0     		b	.L2
 220              	.L7:
  85:AppControl.c  ****                     }
  86:AppControl.c  ****                 }
  87:AppControl.c  ****                 break;
  88:AppControl.c  ****             }
  89:AppControl.c  ****             case FSM_VERIFY_USER:
  90:AppControl.c  ****             {
  91:AppControl.c  ****                 DEBUG_PRINTF("FSM_VERIFY_USER\r\n");
 221              		.loc 1 91 0
 222 00ce 9A48     		ldr	r0, .L56+24
 223 00d0 FFF7FEFF 		bl	puts
 224              	.LVL14:
 225              	.L18:
 226              	.LBB97:
 227              	.LBB98:
 731:Generated_Source\PSoC6\pdl\drivers/peripheral/scb/cy_scb_common.h **** }
 228              		.loc 2 731 0 discriminator 1
 229 00d4 9548     		ldr	r0, .L56+12
 230 00d6 8221     		movs	r1, #130
 231 00d8 8900     		lsls	r1, r1, #2
 232 00da 4358     		ldr	r3, [r0, r1]
 233 00dc DB05     		lsls	r3, r3, #23
 234 00de DA0D     		lsrs	r2, r3, #23
 235              	.LVL15:
 236              	.LBE98:
 237              	.LBE97:
 238              	.LBB99:
 239              	.LBB100:
ARM GAS  C:\Users\salaz\AppData\Local\Temp\ccI54lrI.s 			page 20


 240              		.loc 2 750 0 discriminator 1
 241 00e0 4358     		ldr	r3, [r0, r1]
 242 00e2 DB0B     		lsrs	r3, r3, #15
 243 00e4 0121     		movs	r1, #1
 244 00e6 0B40     		ands	r3, r1
 245              	.LVL16:
 246              	.LBE100:
 247              	.LBE99:
  92:AppControl.c  ****                 DEBUG_WAIT_UART_TX_COMPLETE();
 248              		.loc 1 92 0 discriminator 1
 249 00e8 9B18     		adds	r3, r3, r2
 250 00ea 002B     		cmp	r3, #0
 251 00ec F2D1     		bne	.L18
  93:AppControl.c  ****                 if (KinOS_IsConnected()) 
 252              		.loc 1 93 0
 253 00ee FFF7FEFF 		bl	KinOS_IsConnected
 254              	.LVL17:
 255 00f2 0028     		cmp	r0, #0
 256 00f4 03D0     		beq	.L19
  94:AppControl.c  ****                 {
  95:AppControl.c  ****                     next_state = FSM_RIDE;
 257              		.loc 1 95 0
 258 00f6 0722     		movs	r2, #7
 259 00f8 894B     		ldr	r3, .L56
 260 00fa 5A70     		strb	r2, [r3, #1]
 261 00fc 88E0     		b	.L2
 262              	.L19:
  96:AppControl.c  ****                 }
  97:AppControl.c  ****                 else if (!KinOS_IsAdvertising())
 263              		.loc 1 97 0
 264 00fe FFF7FEFF 		bl	KinOS_IsAdvertising
 265              	.LVL18:
 266 0102 0028     		cmp	r0, #0
 267 0104 00D0     		beq	.LCB220
 268 0106 83E0     		b	.L2	@long jump
 269              	.LCB220:
  98:AppControl.c  ****                 {
  99:AppControl.c  ****                     next_state = FSM_STOLEN;
 270              		.loc 1 99 0
 271 0108 0422     		movs	r2, #4
 272 010a 854B     		ldr	r3, .L56
 273 010c 5A70     		strb	r2, [r3, #1]
 274 010e 7FE0     		b	.L2
 275              	.L8:
 100:AppControl.c  ****                 }
 101:AppControl.c  ****                 break;
 102:AppControl.c  ****             }
 103:AppControl.c  ****             case FSM_STOLEN:
 104:AppControl.c  ****             {
 105:AppControl.c  ****                 DEBUG_PRINTF("FSM_STOLEN\r\n");
 276              		.loc 1 105 0
 277 0110 8A48     		ldr	r0, .L56+28
 278 0112 FFF7FEFF 		bl	puts
 279              	.LVL19:
 280              	.L20:
 281              	.LBB101:
 282              	.LBB102:
ARM GAS  C:\Users\salaz\AppData\Local\Temp\ccI54lrI.s 			page 21


 731:Generated_Source\PSoC6\pdl\drivers/peripheral/scb/cy_scb_common.h **** }
 283              		.loc 2 731 0 discriminator 1
 284 0116 8548     		ldr	r0, .L56+12
 285 0118 8221     		movs	r1, #130
 286 011a 8900     		lsls	r1, r1, #2
 287 011c 4358     		ldr	r3, [r0, r1]
 288 011e DB05     		lsls	r3, r3, #23
 289 0120 DA0D     		lsrs	r2, r3, #23
 290              	.LVL20:
 291              	.LBE102:
 292              	.LBE101:
 293              	.LBB103:
 294              	.LBB104:
 295              		.loc 2 750 0 discriminator 1
 296 0122 4358     		ldr	r3, [r0, r1]
 297 0124 DB0B     		lsrs	r3, r3, #15
 298 0126 0121     		movs	r1, #1
 299 0128 0B40     		ands	r3, r1
 300              	.LVL21:
 301              	.LBE104:
 302              	.LBE103:
 106:AppControl.c  ****                 DEBUG_WAIT_UART_TX_COMPLETE();
 303              		.loc 1 106 0 discriminator 1
 304 012a 9B18     		adds	r3, r3, r2
 305 012c 002B     		cmp	r3, #0
 306 012e F2D1     		bne	.L20
 107:AppControl.c  ****                 if (KinOS_IsConnected())
 307              		.loc 1 107 0
 308 0130 FFF7FEFF 		bl	KinOS_IsConnected
 309              	.LVL22:
 310 0134 0028     		cmp	r0, #0
 311 0136 03D0     		beq	.L21
 108:AppControl.c  ****                 {
 109:AppControl.c  ****                     next_state = FSM_RIDE;
 312              		.loc 1 109 0
 313 0138 0722     		movs	r2, #7
 314 013a 794B     		ldr	r3, .L56
 315 013c 5A70     		strb	r2, [r3, #1]
 316 013e 67E0     		b	.L2
 317              	.L21:
 110:AppControl.c  ****                 }    
 111:AppControl.c  ****                 else if (!KinOS_IsAdvertising())
 318              		.loc 1 111 0
 319 0140 FFF7FEFF 		bl	KinOS_IsAdvertising
 320              	.LVL23:
 321 0144 0028     		cmp	r0, #0
 322 0146 63D1     		bne	.L2
 112:AppControl.c  ****                 {
 113:AppControl.c  ****                     if (KinOS_ShakeDetected())
 323              		.loc 1 113 0
 324 0148 FFF7FEFF 		bl	KinOS_ShakeDetected
 325              	.LVL24:
 326 014c 0028     		cmp	r0, #0
 327 014e 03D0     		beq	.L22
 114:AppControl.c  ****                     {
 115:AppControl.c  ****                         next_state = FSM_STOLEN;
 328              		.loc 1 115 0
ARM GAS  C:\Users\salaz\AppData\Local\Temp\ccI54lrI.s 			page 22


 329 0150 0422     		movs	r2, #4
 330 0152 734B     		ldr	r3, .L56
 331 0154 5A70     		strb	r2, [r3, #1]
 332 0156 5BE0     		b	.L2
 333              	.L22:
 116:AppControl.c  ****                     }
 117:AppControl.c  ****                     else
 118:AppControl.c  ****                     {
 119:AppControl.c  ****                         next_state = FSM_IDLE;
 334              		.loc 1 119 0
 335 0158 0122     		movs	r2, #1
 336 015a 714B     		ldr	r3, .L56
 337 015c 5A70     		strb	r2, [r3, #1]
 338 015e 57E0     		b	.L2
 339              	.L11:
 120:AppControl.c  ****                     }
 121:AppControl.c  ****                 }
 122:AppControl.c  ****                 break;
 123:AppControl.c  ****             }
 124:AppControl.c  ****             case FSM_RIDE:
 125:AppControl.c  ****             {
 126:AppControl.c  ****                 DEBUG_PRINTF("FSM_RIDE\r\n");
 340              		.loc 1 126 0
 341 0160 7748     		ldr	r0, .L56+32
 342 0162 FFF7FEFF 		bl	puts
 343              	.LVL25:
 344              	.L23:
 345              	.LBB105:
 346              	.LBB106:
 731:Generated_Source\PSoC6\pdl\drivers/peripheral/scb/cy_scb_common.h **** }
 347              		.loc 2 731 0 discriminator 1
 348 0166 7148     		ldr	r0, .L56+12
 349 0168 8221     		movs	r1, #130
 350 016a 8900     		lsls	r1, r1, #2
 351 016c 4358     		ldr	r3, [r0, r1]
 352 016e DB05     		lsls	r3, r3, #23
 353 0170 DA0D     		lsrs	r2, r3, #23
 354              	.LVL26:
 355              	.LBE106:
 356              	.LBE105:
 357              	.LBB107:
 358              	.LBB108:
 359              		.loc 2 750 0 discriminator 1
 360 0172 4358     		ldr	r3, [r0, r1]
 361 0174 DB0B     		lsrs	r3, r3, #15
 362 0176 0121     		movs	r1, #1
 363 0178 0B40     		ands	r3, r1
 364              	.LVL27:
 365              	.LBE108:
 366              	.LBE107:
 127:AppControl.c  ****                 DEBUG_WAIT_UART_TX_COMPLETE();
 367              		.loc 1 127 0 discriminator 1
 368 017a 9B18     		adds	r3, r3, r2
 369 017c 002B     		cmp	r3, #0
 370 017e F2D1     		bne	.L23
 128:AppControl.c  ****                 if (KinOS_CheckTimerA())
 371              		.loc 1 128 0
ARM GAS  C:\Users\salaz\AppData\Local\Temp\ccI54lrI.s 			page 23


 372 0180 FFF7FEFF 		bl	KinOS_CheckTimerA
 373              	.LVL28:
 374 0184 0028     		cmp	r0, #0
 375 0186 43D0     		beq	.L2
 129:AppControl.c  ****                 {
 130:AppControl.c  ****                     if (KinOS_ShakeDetected())
 376              		.loc 1 130 0
 377 0188 FFF7FEFF 		bl	KinOS_ShakeDetected
 378              	.LVL29:
 379 018c 0028     		cmp	r0, #0
 380 018e 14D0     		beq	.L24
 381              	.LBB109:
 131:AppControl.c  ****                     {
 132:AppControl.c  ****                         epoch dateAndTime = KinOS_GetDateAndTime();
 382              		.loc 1 132 0
 383 0190 01AC     		add	r4, sp, #4
 384 0192 2000     		movs	r0, r4
 385 0194 FFF7FEFF 		bl	KinOS_GetDateAndTime
 386              	.LVL30:
 133:AppControl.c  ****                         if (dateAndTime.hour > morningThreshold && 
 387              		.loc 1 133 0
 388 0198 E388     		ldrh	r3, [r4, #6]
 389 019a 6A4A     		ldr	r2, .L56+36
 390 019c 1288     		ldrh	r2, [r2]
 391 019e 9342     		cmp	r3, r2
 392 01a0 07D9     		bls	.L25
 134:AppControl.c  ****                             dateAndTime.hour < nightThreshold)
 393              		.loc 1 134 0 discriminator 1
 394 01a2 684A     		ldr	r2, .L56+36
 395 01a4 5288     		ldrh	r2, [r2, #2]
 133:AppControl.c  ****                         if (dateAndTime.hour > morningThreshold && 
 396              		.loc 1 133 0 discriminator 1
 397 01a6 9342     		cmp	r3, r2
 398 01a8 03D2     		bcs	.L25
 135:AppControl.c  ****                         {
 136:AppControl.c  ****                             next_state = FSM_DAY;
 399              		.loc 1 136 0
 400 01aa 0522     		movs	r2, #5
 401 01ac 5C4B     		ldr	r3, .L56
 402 01ae 5A70     		strb	r2, [r3, #1]
 403 01b0 2EE0     		b	.L2
 404              	.L25:
 137:AppControl.c  ****                         }
 138:AppControl.c  ****                         else
 139:AppControl.c  ****                         {
 140:AppControl.c  ****                             next_state = FSM_NIGHT;
 405              		.loc 1 140 0
 406 01b2 0622     		movs	r2, #6
 407 01b4 5A4B     		ldr	r3, .L56
 408 01b6 5A70     		strb	r2, [r3, #1]
 409 01b8 2AE0     		b	.L2
 410              	.L24:
 411              	.LBE109:
 141:AppControl.c  ****                         }
 142:AppControl.c  ****                     }
 143:AppControl.c  ****                     else
 144:AppControl.c  ****                     {
ARM GAS  C:\Users\salaz\AppData\Local\Temp\ccI54lrI.s 			page 24


 145:AppControl.c  ****                         next_state = FSM_IDLE;
 412              		.loc 1 145 0
 413 01ba 0122     		movs	r2, #1
 414 01bc 584B     		ldr	r3, .L56
 415 01be 5A70     		strb	r2, [r3, #1]
 416 01c0 26E0     		b	.L2
 417              	.L9:
 146:AppControl.c  ****                     }
 147:AppControl.c  ****                 }
 148:AppControl.c  ****                 break;
 149:AppControl.c  ****             }
 150:AppControl.c  ****             case FSM_DAY:
 151:AppControl.c  ****             {
 152:AppControl.c  ****                 DEBUG_PRINTF("FSM_DAY\r\n");
 418              		.loc 1 152 0
 419 01c2 6148     		ldr	r0, .L56+40
 420 01c4 FFF7FEFF 		bl	puts
 421              	.LVL31:
 422              	.L27:
 423              	.LBB110:
 424              	.LBB111:
 731:Generated_Source\PSoC6\pdl\drivers/peripheral/scb/cy_scb_common.h **** }
 425              		.loc 2 731 0 discriminator 1
 426 01c8 5848     		ldr	r0, .L56+12
 427 01ca 8221     		movs	r1, #130
 428 01cc 8900     		lsls	r1, r1, #2
 429 01ce 4358     		ldr	r3, [r0, r1]
 430 01d0 DB05     		lsls	r3, r3, #23
 431 01d2 DA0D     		lsrs	r2, r3, #23
 432              	.LVL32:
 433              	.LBE111:
 434              	.LBE110:
 435              	.LBB112:
 436              	.LBB113:
 437              		.loc 2 750 0 discriminator 1
 438 01d4 4358     		ldr	r3, [r0, r1]
 439 01d6 DB0B     		lsrs	r3, r3, #15
 440 01d8 0121     		movs	r1, #1
 441 01da 0B40     		ands	r3, r1
 442              	.LVL33:
 443              	.LBE113:
 444              	.LBE112:
 153:AppControl.c  ****                 DEBUG_WAIT_UART_TX_COMPLETE();
 445              		.loc 1 153 0 discriminator 1
 446 01dc 9B18     		adds	r3, r3, r2
 447 01de 002B     		cmp	r3, #0
 448 01e0 F2D1     		bne	.L27
 154:AppControl.c  ****                 next_state = FSM_RIDE;
 449              		.loc 1 154 0
 450 01e2 0722     		movs	r2, #7
 451 01e4 4E4B     		ldr	r3, .L56
 452 01e6 5A70     		strb	r2, [r3, #1]
 155:AppControl.c  ****                 break;
 453              		.loc 1 155 0
 454 01e8 12E0     		b	.L2
 455              	.L10:
 156:AppControl.c  ****             }
ARM GAS  C:\Users\salaz\AppData\Local\Temp\ccI54lrI.s 			page 25


 157:AppControl.c  ****             case FSM_NIGHT:
 158:AppControl.c  ****             {
 159:AppControl.c  ****                 DEBUG_PRINTF("FSM_NIGHT\r\n");
 456              		.loc 1 159 0
 457 01ea 5848     		ldr	r0, .L56+44
 458 01ec FFF7FEFF 		bl	puts
 459              	.LVL34:
 460              	.L28:
 461              	.LBB114:
 462              	.LBB115:
 731:Generated_Source\PSoC6\pdl\drivers/peripheral/scb/cy_scb_common.h **** }
 463              		.loc 2 731 0 discriminator 1
 464 01f0 4E48     		ldr	r0, .L56+12
 465 01f2 8221     		movs	r1, #130
 466 01f4 8900     		lsls	r1, r1, #2
 467 01f6 4358     		ldr	r3, [r0, r1]
 468 01f8 DB05     		lsls	r3, r3, #23
 469 01fa DA0D     		lsrs	r2, r3, #23
 470              	.LVL35:
 471              	.LBE115:
 472              	.LBE114:
 473              	.LBB116:
 474              	.LBB117:
 475              		.loc 2 750 0 discriminator 1
 476 01fc 4358     		ldr	r3, [r0, r1]
 477 01fe DB0B     		lsrs	r3, r3, #15
 478 0200 0121     		movs	r1, #1
 479 0202 0B40     		ands	r3, r1
 480              	.LVL36:
 481              	.LBE117:
 482              	.LBE116:
 160:AppControl.c  ****                 DEBUG_WAIT_UART_TX_COMPLETE();
 483              		.loc 1 160 0 discriminator 1
 484 0204 9B18     		adds	r3, r3, r2
 485 0206 002B     		cmp	r3, #0
 486 0208 F2D1     		bne	.L28
 161:AppControl.c  ****                 next_state = FSM_RIDE;
 487              		.loc 1 161 0
 488 020a 0722     		movs	r2, #7
 489 020c 444B     		ldr	r3, .L56
 490 020e 5A70     		strb	r2, [r3, #1]
 491              	.L2:
 162:AppControl.c  ****                 break;
 163:AppControl.c  ****             }
 164:AppControl.c  ****         }
 165:AppControl.c  ****         //-----------------------------------------------------//
 166:AppControl.c  ****         //------------------Transition-Outputs-----------------//
 167:AppControl.c  ****         
 168:AppControl.c  ****         switch(current_state)
 492              		.loc 1 168 0
 493 0210 434B     		ldr	r3, .L56
 494 0212 1A78     		ldrb	r2, [r3]
 495 0214 072A     		cmp	r2, #7
 496 0216 00D9     		bls	.LCB440
 497 0218 0EE1     		b	.L29	@long jump
 498              	.LCB440:
 499 021a 9300     		lsls	r3, r2, #2
ARM GAS  C:\Users\salaz\AppData\Local\Temp\ccI54lrI.s 			page 26


 500 021c 4C4A     		ldr	r2, .L56+48
 501 021e D358     		ldr	r3, [r2, r3]
 502 0220 9F46     		mov	pc, r3
 503              		.section	.rodata
 504              		.align	2
 505              	.L31:
 506 0020 22020000 		.word	.L30
 507 0024 3A020000 		.word	.L32
 508 0028 6A020000 		.word	.L33
 509 002c B2020000 		.word	.L34
 510 0030 60030000 		.word	.L35
 511 0034 16040000 		.word	.L36
 512 0038 28040000 		.word	.L37
 513 003c BE030000 		.word	.L38
 514              		.section	.text.AppControlHandler
 515              	.L30:
 169:AppControl.c  ****         {
 170:AppControl.c  ****             case FSM_INITIALIZE: 
 171:AppControl.c  ****             {
 172:AppControl.c  ****                 switch(next_state)
 516              		.loc 1 172 0
 517 0222 3F4B     		ldr	r3, .L56
 518 0224 5B78     		ldrb	r3, [r3, #1]
 519 0226 012B     		cmp	r3, #1
 520 0228 00D0     		beq	.LCB456
 521 022a 05E1     		b	.L29	@long jump
 522              	.LCB456:
 173:AppControl.c  ****                 {
 174:AppControl.c  ****                     case FSM_IDLE:
 175:AppControl.c  ****                     {
 176:AppControl.c  ****                         //turn off leds
 177:AppControl.c  ****                         //Cy_GPIO_Write(Red_0_PORT   , Red_0_NUM,0);
 178:AppControl.c  ****                         //Cy_GPIO_Write(Green_0_PORT , Green_0_NUM,0);
 179:AppControl.c  ****                         //Cy_GPIO_Write(Blue_0_PORT  , Blue_0_NUM,1);
 180:AppControl.c  ****                         KinOS_ConfigureLight(GREEN,ZIGZAG,25,255);
 523              		.loc 1 180 0
 524 022c FE33     		adds	r3, r3, #254
 525 022e 1922     		movs	r2, #25
 526 0230 0221     		movs	r1, #2
 527 0232 0220     		movs	r0, #2
 528 0234 FFF7FEFF 		bl	KinOS_ConfigureLight
 529              	.LVL37:
 181:AppControl.c  ****                         break;
 530              		.loc 1 181 0
 531 0238 FEE0     		b	.L29
 532              	.L32:
 182:AppControl.c  ****                     }
 183:AppControl.c  ****                 }
 184:AppControl.c  ****                     
 185:AppControl.c  ****                 break;
 186:AppControl.c  ****             }
 187:AppControl.c  ****             case FSM_IDLE:
 188:AppControl.c  ****             {
 189:AppControl.c  ****                 switch(next_state)
 533              		.loc 1 189 0
 534 023a 394B     		ldr	r3, .L56
 535 023c 5B78     		ldrb	r3, [r3, #1]
ARM GAS  C:\Users\salaz\AppData\Local\Temp\ccI54lrI.s 			page 27


 536 023e 022B     		cmp	r3, #2
 537 0240 00D0     		beq	.LCB471
 538 0242 F9E0     		b	.L29	@long jump
 539              	.LCB471:
 540              	.LVL38:
 541              	.LBB118:
 542              	.LBB119:
 543              		.file 3 "Generated_Source\\PSoC6\\pdl\\drivers/peripheral/gpio/cy_gpio.h"
   1:Generated_Source\PSoC6\pdl\drivers/peripheral/gpio/cy_gpio.h **** /***************************************************************************//**
   2:Generated_Source\PSoC6\pdl\drivers/peripheral/gpio/cy_gpio.h **** * \file cy_gpio.h
   3:Generated_Source\PSoC6\pdl\drivers/peripheral/gpio/cy_gpio.h **** * \version 1.10.1
   4:Generated_Source\PSoC6\pdl\drivers/peripheral/gpio/cy_gpio.h **** *
   5:Generated_Source\PSoC6\pdl\drivers/peripheral/gpio/cy_gpio.h **** * \brief
   6:Generated_Source\PSoC6\pdl\drivers/peripheral/gpio/cy_gpio.h **** * Provides an API declaration of the GPIO driver
   7:Generated_Source\PSoC6\pdl\drivers/peripheral/gpio/cy_gpio.h **** *
   8:Generated_Source\PSoC6\pdl\drivers/peripheral/gpio/cy_gpio.h **** ********************************************************************************
   9:Generated_Source\PSoC6\pdl\drivers/peripheral/gpio/cy_gpio.h **** * \copyright
  10:Generated_Source\PSoC6\pdl\drivers/peripheral/gpio/cy_gpio.h **** * Copyright 2016-2018, Cypress Semiconductor Corporation. All rights reserved.
  11:Generated_Source\PSoC6\pdl\drivers/peripheral/gpio/cy_gpio.h **** * You may use this file only in accordance with the license, terms, conditions,
  12:Generated_Source\PSoC6\pdl\drivers/peripheral/gpio/cy_gpio.h **** * disclaimers, and limitations in the end user license agreement accompanying
  13:Generated_Source\PSoC6\pdl\drivers/peripheral/gpio/cy_gpio.h **** * the software package with which this file was provided.
  14:Generated_Source\PSoC6\pdl\drivers/peripheral/gpio/cy_gpio.h **** *******************************************************************************/
  15:Generated_Source\PSoC6\pdl\drivers/peripheral/gpio/cy_gpio.h **** 
  16:Generated_Source\PSoC6\pdl\drivers/peripheral/gpio/cy_gpio.h **** /**
  17:Generated_Source\PSoC6\pdl\drivers/peripheral/gpio/cy_gpio.h **** * \defgroup group_gpio General Purpose Input Output (GPIO)
  18:Generated_Source\PSoC6\pdl\drivers/peripheral/gpio/cy_gpio.h **** * \{
  19:Generated_Source\PSoC6\pdl\drivers/peripheral/gpio/cy_gpio.h **** * The GPIO driver provides an API to configure and access device Input/Output pins.
  20:Generated_Source\PSoC6\pdl\drivers/peripheral/gpio/cy_gpio.h **** * IO pins include all general purpose types such as GPIO, SIO, HSIO, AUXIO, and
  21:Generated_Source\PSoC6\pdl\drivers/peripheral/gpio/cy_gpio.h **** * their variants.
  22:Generated_Source\PSoC6\pdl\drivers/peripheral/gpio/cy_gpio.h **** *
  23:Generated_Source\PSoC6\pdl\drivers/peripheral/gpio/cy_gpio.h **** * Initialization can be performed either at the port level or by configuring the
  24:Generated_Source\PSoC6\pdl\drivers/peripheral/gpio/cy_gpio.h **** * individual pins. For efficient use of code space, port
  25:Generated_Source\PSoC6\pdl\drivers/peripheral/gpio/cy_gpio.h **** * configuration should be used in the field. Refer to the product device header files 
  26:Generated_Source\PSoC6\pdl\drivers/peripheral/gpio/cy_gpio.h **** * for the list of supported ports and pins.
  27:Generated_Source\PSoC6\pdl\drivers/peripheral/gpio/cy_gpio.h **** * 
  28:Generated_Source\PSoC6\pdl\drivers/peripheral/gpio/cy_gpio.h **** * - Single pin configuration is performed by using \ref Cy_GPIO_Pin_FastInit 
  29:Generated_Source\PSoC6\pdl\drivers/peripheral/gpio/cy_gpio.h **** *   (provide specific values) or \ref Cy_GPIO_Pin_Init (provide a filled
  30:Generated_Source\PSoC6\pdl\drivers/peripheral/gpio/cy_gpio.h **** *   cy_stc_gpio_pin_config_t structure).
  31:Generated_Source\PSoC6\pdl\drivers/peripheral/gpio/cy_gpio.h **** * - An entire port can be configured using \ref Cy_GPIO_Port_Init. Provide a filled 
  32:Generated_Source\PSoC6\pdl\drivers/peripheral/gpio/cy_gpio.h **** *   cy_stc_gpio_prt_config_t structure. The values in the structure are 
  33:Generated_Source\PSoC6\pdl\drivers/peripheral/gpio/cy_gpio.h **** *   bitfields representing the desired value for each pin in the port.
  34:Generated_Source\PSoC6\pdl\drivers/peripheral/gpio/cy_gpio.h **** * - Pin configuration and management is based on the port address and pin number.
  35:Generated_Source\PSoC6\pdl\drivers/peripheral/gpio/cy_gpio.h **** *   \ref Cy_GPIO_PortToAddr function can optionally be used to calculate the port
  36:Generated_Source\PSoC6\pdl\drivers/peripheral/gpio/cy_gpio.h **** *   address from the port number at run-time.
  37:Generated_Source\PSoC6\pdl\drivers/peripheral/gpio/cy_gpio.h **** *
  38:Generated_Source\PSoC6\pdl\drivers/peripheral/gpio/cy_gpio.h **** * Once the pin/port initialization is complete, each pin can be accessed by 
  39:Generated_Source\PSoC6\pdl\drivers/peripheral/gpio/cy_gpio.h **** * specifying the port (GPIO_PRT_Type) and the pin (0-7) in the provided API 
  40:Generated_Source\PSoC6\pdl\drivers/peripheral/gpio/cy_gpio.h **** * functions.
  41:Generated_Source\PSoC6\pdl\drivers/peripheral/gpio/cy_gpio.h **** *
  42:Generated_Source\PSoC6\pdl\drivers/peripheral/gpio/cy_gpio.h **** * \section group_gpio_configuration Configuration Considerations
  43:Generated_Source\PSoC6\pdl\drivers/peripheral/gpio/cy_gpio.h **** *
  44:Generated_Source\PSoC6\pdl\drivers/peripheral/gpio/cy_gpio.h **** * 1. Pin multiplexing is controlled through the High-Speed IO Matrix (HSIOM) selection.
  45:Generated_Source\PSoC6\pdl\drivers/peripheral/gpio/cy_gpio.h **** *    This allows the pin to connect to signal sources/sinks throughout the device,
  46:Generated_Source\PSoC6\pdl\drivers/peripheral/gpio/cy_gpio.h **** *    as defined by the pin HSIOM selection options (en_hsiom_sel_t).
  47:Generated_Source\PSoC6\pdl\drivers/peripheral/gpio/cy_gpio.h **** * 2. All pins are initialized to High-Z drive mode with HSIOM connected to CPU (SW
  48:Generated_Source\PSoC6\pdl\drivers/peripheral/gpio/cy_gpio.h **** *    control digital pin only) at Power-On-Reset(POR).
  49:Generated_Source\PSoC6\pdl\drivers/peripheral/gpio/cy_gpio.h **** * 3. Some API functions perform read-modify-write operations on shared port
ARM GAS  C:\Users\salaz\AppData\Local\Temp\ccI54lrI.s 			page 28


  50:Generated_Source\PSoC6\pdl\drivers/peripheral/gpio/cy_gpio.h **** *    registers. These functions are not thread safe and care must be taken when
  51:Generated_Source\PSoC6\pdl\drivers/peripheral/gpio/cy_gpio.h **** *    called by the application.
  52:Generated_Source\PSoC6\pdl\drivers/peripheral/gpio/cy_gpio.h **** *
  53:Generated_Source\PSoC6\pdl\drivers/peripheral/gpio/cy_gpio.h **** * Multiple pins on a port can be updated using direct port register writes with an
  54:Generated_Source\PSoC6\pdl\drivers/peripheral/gpio/cy_gpio.h **** * appropriate port mask. An example is shown below, highlighting the different ways of 
  55:Generated_Source\PSoC6\pdl\drivers/peripheral/gpio/cy_gpio.h **** * configuring Port 1 pins using,
  56:Generated_Source\PSoC6\pdl\drivers/peripheral/gpio/cy_gpio.h **** * 
  57:Generated_Source\PSoC6\pdl\drivers/peripheral/gpio/cy_gpio.h **** * - Port output data register
  58:Generated_Source\PSoC6\pdl\drivers/peripheral/gpio/cy_gpio.h **** * - Port output data set register
  59:Generated_Source\PSoC6\pdl\drivers/peripheral/gpio/cy_gpio.h **** * - Port output data clear register
  60:Generated_Source\PSoC6\pdl\drivers/peripheral/gpio/cy_gpio.h **** *
  61:Generated_Source\PSoC6\pdl\drivers/peripheral/gpio/cy_gpio.h **** * \snippet gpio/gpio_v1_10_sut_01.cydsn/main_cm4.c Cy_GPIO_Snippet
  62:Generated_Source\PSoC6\pdl\drivers/peripheral/gpio/cy_gpio.h **** *
  63:Generated_Source\PSoC6\pdl\drivers/peripheral/gpio/cy_gpio.h **** * \section group_gpio_more_information More Information
  64:Generated_Source\PSoC6\pdl\drivers/peripheral/gpio/cy_gpio.h **** *
  65:Generated_Source\PSoC6\pdl\drivers/peripheral/gpio/cy_gpio.h **** * Refer to the technical reference manual (TRM) and the device datasheet.
  66:Generated_Source\PSoC6\pdl\drivers/peripheral/gpio/cy_gpio.h **** *
  67:Generated_Source\PSoC6\pdl\drivers/peripheral/gpio/cy_gpio.h **** * \section group_gpio_MISRA MISRA-C Compliance]
  68:Generated_Source\PSoC6\pdl\drivers/peripheral/gpio/cy_gpio.h **** * <table class="doxtable">
  69:Generated_Source\PSoC6\pdl\drivers/peripheral/gpio/cy_gpio.h **** *   <tr>
  70:Generated_Source\PSoC6\pdl\drivers/peripheral/gpio/cy_gpio.h **** *     <th>MISRA Rule</th>
  71:Generated_Source\PSoC6\pdl\drivers/peripheral/gpio/cy_gpio.h **** *     <th>Rule Class (Required/Advisory)</th>
  72:Generated_Source\PSoC6\pdl\drivers/peripheral/gpio/cy_gpio.h **** *     <th>Rule Description</th>
  73:Generated_Source\PSoC6\pdl\drivers/peripheral/gpio/cy_gpio.h **** *     <th>Description of Deviation(s)</th>
  74:Generated_Source\PSoC6\pdl\drivers/peripheral/gpio/cy_gpio.h **** *   </tr>
  75:Generated_Source\PSoC6\pdl\drivers/peripheral/gpio/cy_gpio.h **** *   <tr>
  76:Generated_Source\PSoC6\pdl\drivers/peripheral/gpio/cy_gpio.h **** *     <td>16.7</td>
  77:Generated_Source\PSoC6\pdl\drivers/peripheral/gpio/cy_gpio.h **** *     <td>A</td>
  78:Generated_Source\PSoC6\pdl\drivers/peripheral/gpio/cy_gpio.h **** *     <td>A pointer parameter in a function prototype should be declared as pointer 
  79:Generated_Source\PSoC6\pdl\drivers/peripheral/gpio/cy_gpio.h **** *         to const if the pointer is not used to modify the addressed object.</td>
  80:Generated_Source\PSoC6\pdl\drivers/peripheral/gpio/cy_gpio.h **** *     <td>The objects pointed to by the base addresses of the GPIO port are not always modified.
  81:Generated_Source\PSoC6\pdl\drivers/peripheral/gpio/cy_gpio.h **** *         While a const qualifier can be used in select scenarios, it brings little benefit
  82:Generated_Source\PSoC6\pdl\drivers/peripheral/gpio/cy_gpio.h **** *         in adding this to the affected functions. </td>
  83:Generated_Source\PSoC6\pdl\drivers/peripheral/gpio/cy_gpio.h **** *   </tr>
  84:Generated_Source\PSoC6\pdl\drivers/peripheral/gpio/cy_gpio.h **** * </table>
  85:Generated_Source\PSoC6\pdl\drivers/peripheral/gpio/cy_gpio.h **** *
  86:Generated_Source\PSoC6\pdl\drivers/peripheral/gpio/cy_gpio.h **** * \section group_gpio_changelog Changelog
  87:Generated_Source\PSoC6\pdl\drivers/peripheral/gpio/cy_gpio.h **** * <table class="doxtable">
  88:Generated_Source\PSoC6\pdl\drivers/peripheral/gpio/cy_gpio.h **** *   <tr><th>Version</th><th>Changes</th><th>Reason for Change</th></tr>
  89:Generated_Source\PSoC6\pdl\drivers/peripheral/gpio/cy_gpio.h **** *   <tr>
  90:Generated_Source\PSoC6\pdl\drivers/peripheral/gpio/cy_gpio.h **** *     <td>1.10.1</td>
  91:Generated_Source\PSoC6\pdl\drivers/peripheral/gpio/cy_gpio.h **** *     <td>Updated description for the functions: \ref Cy_GPIO_GetInterruptStatus, 
  92:Generated_Source\PSoC6\pdl\drivers/peripheral/gpio/cy_gpio.h **** *         \ref Cy_GPIO_GetInterruptMask, \ref Cy_GPIO_GetInterruptStatusMasked.
  93:Generated_Source\PSoC6\pdl\drivers/peripheral/gpio/cy_gpio.h **** *         Minor documentation edits.
  94:Generated_Source\PSoC6\pdl\drivers/peripheral/gpio/cy_gpio.h **** *     </td>
  95:Generated_Source\PSoC6\pdl\drivers/peripheral/gpio/cy_gpio.h **** *     <td>Documentation update and clarification</td>
  96:Generated_Source\PSoC6\pdl\drivers/peripheral/gpio/cy_gpio.h **** *   </tr>
  97:Generated_Source\PSoC6\pdl\drivers/peripheral/gpio/cy_gpio.h **** *   <tr>
  98:Generated_Source\PSoC6\pdl\drivers/peripheral/gpio/cy_gpio.h **** *     <td>1.10</td>
  99:Generated_Source\PSoC6\pdl\drivers/peripheral/gpio/cy_gpio.h **** *     <td>Added input parameter validation to the API functions</td>
 100:Generated_Source\PSoC6\pdl\drivers/peripheral/gpio/cy_gpio.h **** *     <td></td>
 101:Generated_Source\PSoC6\pdl\drivers/peripheral/gpio/cy_gpio.h **** *   </tr>
 102:Generated_Source\PSoC6\pdl\drivers/peripheral/gpio/cy_gpio.h **** *   <tr>
 103:Generated_Source\PSoC6\pdl\drivers/peripheral/gpio/cy_gpio.h **** *     <td>1.0</td>
 104:Generated_Source\PSoC6\pdl\drivers/peripheral/gpio/cy_gpio.h **** *     <td>Initial version</td>
 105:Generated_Source\PSoC6\pdl\drivers/peripheral/gpio/cy_gpio.h **** *     <td></td>
 106:Generated_Source\PSoC6\pdl\drivers/peripheral/gpio/cy_gpio.h **** *   </tr>
ARM GAS  C:\Users\salaz\AppData\Local\Temp\ccI54lrI.s 			page 29


 107:Generated_Source\PSoC6\pdl\drivers/peripheral/gpio/cy_gpio.h **** * </table>
 108:Generated_Source\PSoC6\pdl\drivers/peripheral/gpio/cy_gpio.h **** *
 109:Generated_Source\PSoC6\pdl\drivers/peripheral/gpio/cy_gpio.h **** * \defgroup group_gpio_macros Macros
 110:Generated_Source\PSoC6\pdl\drivers/peripheral/gpio/cy_gpio.h **** * \defgroup group_gpio_functions Functions
 111:Generated_Source\PSoC6\pdl\drivers/peripheral/gpio/cy_gpio.h **** * \{
 112:Generated_Source\PSoC6\pdl\drivers/peripheral/gpio/cy_gpio.h **** *   \defgroup group_gpio_functions_init       Initialization Functions
 113:Generated_Source\PSoC6\pdl\drivers/peripheral/gpio/cy_gpio.h **** *   \defgroup group_gpio_functions_gpio       GPIO Functions
 114:Generated_Source\PSoC6\pdl\drivers/peripheral/gpio/cy_gpio.h **** *   \defgroup group_gpio_functions_sio        SIO Functions
 115:Generated_Source\PSoC6\pdl\drivers/peripheral/gpio/cy_gpio.h **** *   \defgroup group_gpio_functions_interrupt  Port Interrupt Functions
 116:Generated_Source\PSoC6\pdl\drivers/peripheral/gpio/cy_gpio.h **** * \}
 117:Generated_Source\PSoC6\pdl\drivers/peripheral/gpio/cy_gpio.h **** * \defgroup group_gpio_data_structures Data Structures
 118:Generated_Source\PSoC6\pdl\drivers/peripheral/gpio/cy_gpio.h **** * \defgroup group_gpio_enums Enumerated Types
 119:Generated_Source\PSoC6\pdl\drivers/peripheral/gpio/cy_gpio.h **** */
 120:Generated_Source\PSoC6\pdl\drivers/peripheral/gpio/cy_gpio.h **** 
 121:Generated_Source\PSoC6\pdl\drivers/peripheral/gpio/cy_gpio.h **** #if !defined(CY_GPIO_H)
 122:Generated_Source\PSoC6\pdl\drivers/peripheral/gpio/cy_gpio.h **** #define CY_GPIO_H
 123:Generated_Source\PSoC6\pdl\drivers/peripheral/gpio/cy_gpio.h **** 
 124:Generated_Source\PSoC6\pdl\drivers/peripheral/gpio/cy_gpio.h **** #include <stddef.h>
 125:Generated_Source\PSoC6\pdl\drivers/peripheral/gpio/cy_gpio.h **** #include "syslib/cy_syslib.h"
 126:Generated_Source\PSoC6\pdl\drivers/peripheral/gpio/cy_gpio.h **** #include "cy_device_headers.h"
 127:Generated_Source\PSoC6\pdl\drivers/peripheral/gpio/cy_gpio.h **** 
 128:Generated_Source\PSoC6\pdl\drivers/peripheral/gpio/cy_gpio.h **** #if defined(__cplusplus)
 129:Generated_Source\PSoC6\pdl\drivers/peripheral/gpio/cy_gpio.h **** extern "C" {
 130:Generated_Source\PSoC6\pdl\drivers/peripheral/gpio/cy_gpio.h **** #endif
 131:Generated_Source\PSoC6\pdl\drivers/peripheral/gpio/cy_gpio.h **** 
 132:Generated_Source\PSoC6\pdl\drivers/peripheral/gpio/cy_gpio.h **** /** \addtogroup group_gpio_macros
 133:Generated_Source\PSoC6\pdl\drivers/peripheral/gpio/cy_gpio.h **** * \{
 134:Generated_Source\PSoC6\pdl\drivers/peripheral/gpio/cy_gpio.h **** */
 135:Generated_Source\PSoC6\pdl\drivers/peripheral/gpio/cy_gpio.h **** 
 136:Generated_Source\PSoC6\pdl\drivers/peripheral/gpio/cy_gpio.h **** /** Driver major version */
 137:Generated_Source\PSoC6\pdl\drivers/peripheral/gpio/cy_gpio.h **** #define CY_GPIO_DRV_VERSION_MAJOR       1
 138:Generated_Source\PSoC6\pdl\drivers/peripheral/gpio/cy_gpio.h **** 
 139:Generated_Source\PSoC6\pdl\drivers/peripheral/gpio/cy_gpio.h **** /** Driver minor version */
 140:Generated_Source\PSoC6\pdl\drivers/peripheral/gpio/cy_gpio.h **** #define CY_GPIO_DRV_VERSION_MINOR       10
 141:Generated_Source\PSoC6\pdl\drivers/peripheral/gpio/cy_gpio.h **** 
 142:Generated_Source\PSoC6\pdl\drivers/peripheral/gpio/cy_gpio.h **** /** GPIO driver ID */
 143:Generated_Source\PSoC6\pdl\drivers/peripheral/gpio/cy_gpio.h **** #define CY_GPIO_ID CY_PDL_DRV_ID(0x16u)
 144:Generated_Source\PSoC6\pdl\drivers/peripheral/gpio/cy_gpio.h **** 
 145:Generated_Source\PSoC6\pdl\drivers/peripheral/gpio/cy_gpio.h **** /** \} group_gpio_macros */
 146:Generated_Source\PSoC6\pdl\drivers/peripheral/gpio/cy_gpio.h **** 
 147:Generated_Source\PSoC6\pdl\drivers/peripheral/gpio/cy_gpio.h **** 
 148:Generated_Source\PSoC6\pdl\drivers/peripheral/gpio/cy_gpio.h **** /***************************************
 149:Generated_Source\PSoC6\pdl\drivers/peripheral/gpio/cy_gpio.h **** *       Enumerations
 150:Generated_Source\PSoC6\pdl\drivers/peripheral/gpio/cy_gpio.h **** ***************************************/
 151:Generated_Source\PSoC6\pdl\drivers/peripheral/gpio/cy_gpio.h **** /**
 152:Generated_Source\PSoC6\pdl\drivers/peripheral/gpio/cy_gpio.h **** * \addtogroup group_gpio_enums
 153:Generated_Source\PSoC6\pdl\drivers/peripheral/gpio/cy_gpio.h **** * \{
 154:Generated_Source\PSoC6\pdl\drivers/peripheral/gpio/cy_gpio.h **** */
 155:Generated_Source\PSoC6\pdl\drivers/peripheral/gpio/cy_gpio.h **** 
 156:Generated_Source\PSoC6\pdl\drivers/peripheral/gpio/cy_gpio.h **** /**
 157:Generated_Source\PSoC6\pdl\drivers/peripheral/gpio/cy_gpio.h **** * GPIO Driver error codes
 158:Generated_Source\PSoC6\pdl\drivers/peripheral/gpio/cy_gpio.h **** */
 159:Generated_Source\PSoC6\pdl\drivers/peripheral/gpio/cy_gpio.h **** typedef enum 
 160:Generated_Source\PSoC6\pdl\drivers/peripheral/gpio/cy_gpio.h **** {
 161:Generated_Source\PSoC6\pdl\drivers/peripheral/gpio/cy_gpio.h ****     CY_GPIO_SUCCESS   = 0x00u,                                    /**< Returned successful */
 162:Generated_Source\PSoC6\pdl\drivers/peripheral/gpio/cy_gpio.h ****     CY_GPIO_BAD_PARAM = CY_GPIO_ID | CY_PDL_STATUS_ERROR | 0x01u, /**< Bad parameter was passed */
 163:Generated_Source\PSoC6\pdl\drivers/peripheral/gpio/cy_gpio.h **** } cy_en_gpio_status_t;
ARM GAS  C:\Users\salaz\AppData\Local\Temp\ccI54lrI.s 			page 30


 164:Generated_Source\PSoC6\pdl\drivers/peripheral/gpio/cy_gpio.h **** 
 165:Generated_Source\PSoC6\pdl\drivers/peripheral/gpio/cy_gpio.h **** /** \} group_gpio_enums */
 166:Generated_Source\PSoC6\pdl\drivers/peripheral/gpio/cy_gpio.h **** 
 167:Generated_Source\PSoC6\pdl\drivers/peripheral/gpio/cy_gpio.h **** 
 168:Generated_Source\PSoC6\pdl\drivers/peripheral/gpio/cy_gpio.h **** /***************************************
 169:Generated_Source\PSoC6\pdl\drivers/peripheral/gpio/cy_gpio.h **** *       Configuration Structures
 170:Generated_Source\PSoC6\pdl\drivers/peripheral/gpio/cy_gpio.h **** ***************************************/
 171:Generated_Source\PSoC6\pdl\drivers/peripheral/gpio/cy_gpio.h **** 
 172:Generated_Source\PSoC6\pdl\drivers/peripheral/gpio/cy_gpio.h **** /**
 173:Generated_Source\PSoC6\pdl\drivers/peripheral/gpio/cy_gpio.h **** * \addtogroup group_gpio_data_structures
 174:Generated_Source\PSoC6\pdl\drivers/peripheral/gpio/cy_gpio.h **** * \{
 175:Generated_Source\PSoC6\pdl\drivers/peripheral/gpio/cy_gpio.h **** */
 176:Generated_Source\PSoC6\pdl\drivers/peripheral/gpio/cy_gpio.h **** 
 177:Generated_Source\PSoC6\pdl\drivers/peripheral/gpio/cy_gpio.h **** /** This structure is used to initialize a port of GPIO pins */
 178:Generated_Source\PSoC6\pdl\drivers/peripheral/gpio/cy_gpio.h **** typedef struct {
 179:Generated_Source\PSoC6\pdl\drivers/peripheral/gpio/cy_gpio.h ****     uint32_t out;           /**< Initial output data for the IO pins in the port */
 180:Generated_Source\PSoC6\pdl\drivers/peripheral/gpio/cy_gpio.h ****     uint32_t intrMask;      /**< Interrupt enable mask for the port interrupt */
 181:Generated_Source\PSoC6\pdl\drivers/peripheral/gpio/cy_gpio.h ****     uint32_t intrCfg;       /**< Port pin interrupt edge detection configuration */
 182:Generated_Source\PSoC6\pdl\drivers/peripheral/gpio/cy_gpio.h ****     uint32_t cfg;           /**< Port pin drive modes and input buffer enable configuration */
 183:Generated_Source\PSoC6\pdl\drivers/peripheral/gpio/cy_gpio.h ****     uint32_t cfgIn;         /**< Port pin input buffer configuration */
 184:Generated_Source\PSoC6\pdl\drivers/peripheral/gpio/cy_gpio.h ****     uint32_t cfgOut;        /**< Port pin output buffer configuration */
 185:Generated_Source\PSoC6\pdl\drivers/peripheral/gpio/cy_gpio.h ****     uint32_t cfgSIO;        /**< Port SIO pins configuration */
 186:Generated_Source\PSoC6\pdl\drivers/peripheral/gpio/cy_gpio.h ****     uint32_t sel0Active;    /**< HSIOM selection for port pins 0,1,2,3 */
 187:Generated_Source\PSoC6\pdl\drivers/peripheral/gpio/cy_gpio.h ****     uint32_t sel1Active;    /**< HSIOM selection for port pins 4,5,6,7 */
 188:Generated_Source\PSoC6\pdl\drivers/peripheral/gpio/cy_gpio.h **** } cy_stc_gpio_prt_config_t;
 189:Generated_Source\PSoC6\pdl\drivers/peripheral/gpio/cy_gpio.h **** 
 190:Generated_Source\PSoC6\pdl\drivers/peripheral/gpio/cy_gpio.h **** /** This structure is used to initialize a single GPIO pin */
 191:Generated_Source\PSoC6\pdl\drivers/peripheral/gpio/cy_gpio.h **** typedef struct {
 192:Generated_Source\PSoC6\pdl\drivers/peripheral/gpio/cy_gpio.h ****     uint32_t outVal;         /**< Pin output state */
 193:Generated_Source\PSoC6\pdl\drivers/peripheral/gpio/cy_gpio.h ****     uint32_t driveMode;      /**< Drive mode */
 194:Generated_Source\PSoC6\pdl\drivers/peripheral/gpio/cy_gpio.h ****     en_hsiom_sel_t hsiom;   /**< HSIOM selection */
 195:Generated_Source\PSoC6\pdl\drivers/peripheral/gpio/cy_gpio.h ****     uint32_t intEdge;        /**< Interrupt Edge type */
 196:Generated_Source\PSoC6\pdl\drivers/peripheral/gpio/cy_gpio.h ****     uint32_t intMask;        /**< Interrupt enable mask */
 197:Generated_Source\PSoC6\pdl\drivers/peripheral/gpio/cy_gpio.h ****     uint32_t vtrip;          /**< Input buffer voltage trip type */
 198:Generated_Source\PSoC6\pdl\drivers/peripheral/gpio/cy_gpio.h ****     uint32_t slewRate;       /**< Output buffer slew rate */
 199:Generated_Source\PSoC6\pdl\drivers/peripheral/gpio/cy_gpio.h ****     uint32_t driveSel;       /**< Drive strength */
 200:Generated_Source\PSoC6\pdl\drivers/peripheral/gpio/cy_gpio.h ****     uint32_t vregEn;         /**< SIO pair output buffer mode */
 201:Generated_Source\PSoC6\pdl\drivers/peripheral/gpio/cy_gpio.h ****     uint32_t ibufMode;       /**< SIO pair input buffer mode */
 202:Generated_Source\PSoC6\pdl\drivers/peripheral/gpio/cy_gpio.h ****     uint32_t vtripSel;       /**< SIO pair input buffer trip point */
 203:Generated_Source\PSoC6\pdl\drivers/peripheral/gpio/cy_gpio.h ****     uint32_t vrefSel;        /**< SIO pair reference voltage for input buffer trip point */
 204:Generated_Source\PSoC6\pdl\drivers/peripheral/gpio/cy_gpio.h ****     uint32_t vohSel;         /**< SIO pair regulated voltage output level */
 205:Generated_Source\PSoC6\pdl\drivers/peripheral/gpio/cy_gpio.h **** } cy_stc_gpio_pin_config_t;
 206:Generated_Source\PSoC6\pdl\drivers/peripheral/gpio/cy_gpio.h **** 
 207:Generated_Source\PSoC6\pdl\drivers/peripheral/gpio/cy_gpio.h **** /** \} group_gpio_data_structures */
 208:Generated_Source\PSoC6\pdl\drivers/peripheral/gpio/cy_gpio.h **** 
 209:Generated_Source\PSoC6\pdl\drivers/peripheral/gpio/cy_gpio.h **** /***************************************
 210:Generated_Source\PSoC6\pdl\drivers/peripheral/gpio/cy_gpio.h **** *        Constants
 211:Generated_Source\PSoC6\pdl\drivers/peripheral/gpio/cy_gpio.h **** ***************************************/
 212:Generated_Source\PSoC6\pdl\drivers/peripheral/gpio/cy_gpio.h **** 
 213:Generated_Source\PSoC6\pdl\drivers/peripheral/gpio/cy_gpio.h **** /** \cond INTERNAL */
 214:Generated_Source\PSoC6\pdl\drivers/peripheral/gpio/cy_gpio.h **** 
 215:Generated_Source\PSoC6\pdl\drivers/peripheral/gpio/cy_gpio.h **** /* General Constants */
 216:Generated_Source\PSoC6\pdl\drivers/peripheral/gpio/cy_gpio.h **** #define CY_GPIO_PRT_HALF                       (4UL)      /**< Half-way point of a GPIO port */
 217:Generated_Source\PSoC6\pdl\drivers/peripheral/gpio/cy_gpio.h **** #define CY_GPIO_PRT_DEINIT                     (0UL)      /**< De-init value for port registers */
 218:Generated_Source\PSoC6\pdl\drivers/peripheral/gpio/cy_gpio.h **** 
 219:Generated_Source\PSoC6\pdl\drivers/peripheral/gpio/cy_gpio.h **** /* GPIO Masks */
 220:Generated_Source\PSoC6\pdl\drivers/peripheral/gpio/cy_gpio.h **** #define CY_GPIO_HSIOM_MASK                     (0x1FUL)   /**< HSIOM selection mask */
ARM GAS  C:\Users\salaz\AppData\Local\Temp\ccI54lrI.s 			page 31


 221:Generated_Source\PSoC6\pdl\drivers/peripheral/gpio/cy_gpio.h **** #define CY_GPIO_OUT_MASK                       (0x01UL)   /**< Single pin mask for OUT register */
 222:Generated_Source\PSoC6\pdl\drivers/peripheral/gpio/cy_gpio.h **** #define CY_GPIO_IN_MASK                        (0x01UL)   /**< Single pin mask for IN register */
 223:Generated_Source\PSoC6\pdl\drivers/peripheral/gpio/cy_gpio.h **** #define CY_GPIO_CFG_DM_MASK                    (0x0FUL)   /**< Single pin mask for drive mode in CF
 224:Generated_Source\PSoC6\pdl\drivers/peripheral/gpio/cy_gpio.h **** #define CY_GPIO_CFG_IN_VTRIP_SEL_MASK          (0x01UL)   /**< Single pin mask for VTRIP selection 
 225:Generated_Source\PSoC6\pdl\drivers/peripheral/gpio/cy_gpio.h **** #define CY_GPIO_CFG_OUT_SLOW_MASK              (0x01UL)   /**< Single pin mask for slew rate in CFG
 226:Generated_Source\PSoC6\pdl\drivers/peripheral/gpio/cy_gpio.h **** #define CY_GPIO_CFG_OUT_DRIVE_SEL_MASK         (0x03UL)   /**< Single pin mask for drive strength i
 227:Generated_Source\PSoC6\pdl\drivers/peripheral/gpio/cy_gpio.h **** #define CY_GPIO_INTR_STATUS_MASK               (0x01UL)   /**< Single pin mask for interrupt status
 228:Generated_Source\PSoC6\pdl\drivers/peripheral/gpio/cy_gpio.h **** #define CY_GPIO_INTR_EN_MASK                   (0x01UL)   /**< Single pin mask for interrupt status
 229:Generated_Source\PSoC6\pdl\drivers/peripheral/gpio/cy_gpio.h **** #define CY_GPIO_INTR_MASKED_MASK               (0x01UL)   /**< Single pin mask for masked interrupt
 230:Generated_Source\PSoC6\pdl\drivers/peripheral/gpio/cy_gpio.h **** #define CY_GPIO_INTR_SET_MASK                  (0x01UL)   /**< Single pin mask for setting the inte
 231:Generated_Source\PSoC6\pdl\drivers/peripheral/gpio/cy_gpio.h **** #define CY_GPIO_INTR_EDGE_MASK                 (0x03UL)   /**< Single pin mask for interrupt edge t
 232:Generated_Source\PSoC6\pdl\drivers/peripheral/gpio/cy_gpio.h **** #define CY_GPIO_INTR_FLT_EDGE_MASK             (0x07UL)   /**< Single pin mask for setting filtered
 233:Generated_Source\PSoC6\pdl\drivers/peripheral/gpio/cy_gpio.h **** 
 234:Generated_Source\PSoC6\pdl\drivers/peripheral/gpio/cy_gpio.h **** /* SIO Masks */
 235:Generated_Source\PSoC6\pdl\drivers/peripheral/gpio/cy_gpio.h **** #define CY_GPIO_VREG_EN_MASK                   (0x01UL)   /**< Single SIO pin mask for voltage regu
 236:Generated_Source\PSoC6\pdl\drivers/peripheral/gpio/cy_gpio.h **** #define CY_GPIO_IBUF_MASK                      (0x01UL)   /**< Single SIO pin mask for input buffer
 237:Generated_Source\PSoC6\pdl\drivers/peripheral/gpio/cy_gpio.h **** #define CY_GPIO_IBUF_SHIFT                     (0x01UL)   /**< Single SIO pin shift for input buffe
 238:Generated_Source\PSoC6\pdl\drivers/peripheral/gpio/cy_gpio.h **** #define CY_GPIO_VTRIP_SEL_MASK                 (0x01UL)   /**< Single SIO pin mask for the input bu
 239:Generated_Source\PSoC6\pdl\drivers/peripheral/gpio/cy_gpio.h **** #define CY_GPIO_VTRIP_SEL_SHIFT                (0x02UL)   /**< Single SIO pin shift for the input b
 240:Generated_Source\PSoC6\pdl\drivers/peripheral/gpio/cy_gpio.h **** #define CY_GPIO_VREF_SEL_MASK                  (0x03UL)   /**< Single SIO pin mask for voltage refe
 241:Generated_Source\PSoC6\pdl\drivers/peripheral/gpio/cy_gpio.h **** #define CY_GPIO_VREF_SEL_SHIFT                 (0x03UL)   /**< Single SIO pin shift for voltage ref
 242:Generated_Source\PSoC6\pdl\drivers/peripheral/gpio/cy_gpio.h **** #define CY_GPIO_VOH_SEL_MASK                   (0x07UL)   /**< Single SIO pin mask for VOH */
 243:Generated_Source\PSoC6\pdl\drivers/peripheral/gpio/cy_gpio.h **** #define CY_GPIO_VOH_SEL_SHIFT                  (0x05UL)   /**< Single SIO pin shift for VOH */
 244:Generated_Source\PSoC6\pdl\drivers/peripheral/gpio/cy_gpio.h **** 
 245:Generated_Source\PSoC6\pdl\drivers/peripheral/gpio/cy_gpio.h **** /* Special mask for SIO pin pair setting */
 246:Generated_Source\PSoC6\pdl\drivers/peripheral/gpio/cy_gpio.h **** #define CY_GPIO_SIO_ODD_PIN_MASK               (0x00FEUL) /**< SIO pin pair selection mask */
 247:Generated_Source\PSoC6\pdl\drivers/peripheral/gpio/cy_gpio.h **** #define CY_GPIO_SIO_PIN_MASK                   (0x00FFUL) /**< SIO pin pair mask */
 248:Generated_Source\PSoC6\pdl\drivers/peripheral/gpio/cy_gpio.h **** 
 249:Generated_Source\PSoC6\pdl\drivers/peripheral/gpio/cy_gpio.h **** /* Offsets */
 250:Generated_Source\PSoC6\pdl\drivers/peripheral/gpio/cy_gpio.h **** #define CY_GPIO_HSIOM_OFFSET                   (3UL)      /**< Offset for HSIOM */
 251:Generated_Source\PSoC6\pdl\drivers/peripheral/gpio/cy_gpio.h **** #define CY_GPIO_DRIVE_MODE_OFFSET              (2UL)      /**< Offset for Drive mode */
 252:Generated_Source\PSoC6\pdl\drivers/peripheral/gpio/cy_gpio.h **** #define CY_GPIO_INBUF_OFFSET                   (3UL)      /**< Offset for input buffer */
 253:Generated_Source\PSoC6\pdl\drivers/peripheral/gpio/cy_gpio.h **** #define CY_GPIO_CFG_OUT_DRIVE_OFFSET           (16UL)     /**< Offset for drive strength */
 254:Generated_Source\PSoC6\pdl\drivers/peripheral/gpio/cy_gpio.h **** #define CY_GPIO_INTR_CFG_OFFSET                (1UL)      /**< Offset for interrupt config */
 255:Generated_Source\PSoC6\pdl\drivers/peripheral/gpio/cy_gpio.h **** #define CY_GPIO_INTR_FILT_OFFSET               (18UL)     /**< Offset for filtered interrupt config
 256:Generated_Source\PSoC6\pdl\drivers/peripheral/gpio/cy_gpio.h **** #define CY_GPIO_CFG_SIO_OFFSET                 (2UL)      /**< Offset for SIO config */
 257:Generated_Source\PSoC6\pdl\drivers/peripheral/gpio/cy_gpio.h **** 
 258:Generated_Source\PSoC6\pdl\drivers/peripheral/gpio/cy_gpio.h **** /* Parameter validation constants */
 259:Generated_Source\PSoC6\pdl\drivers/peripheral/gpio/cy_gpio.h **** #define CY_GPIO_PINS_MAX                       (8UL)      /**< Number of pins in the port */
 260:Generated_Source\PSoC6\pdl\drivers/peripheral/gpio/cy_gpio.h **** #define CY_GPIO_PRT_PINS_MASK                  (0x0000000FFUL)
 261:Generated_Source\PSoC6\pdl\drivers/peripheral/gpio/cy_gpio.h **** #define CY_GPIO_PRT_INTR_CFG_EDGE_SEL_MASK     (GPIO_PRT_INTR_CFG_EDGE0_SEL_Msk | \
 262:Generated_Source\PSoC6\pdl\drivers/peripheral/gpio/cy_gpio.h ****                                                 GPIO_PRT_INTR_CFG_EDGE1_SEL_Msk | \
 263:Generated_Source\PSoC6\pdl\drivers/peripheral/gpio/cy_gpio.h ****                                                 GPIO_PRT_INTR_CFG_EDGE2_SEL_Msk | \
 264:Generated_Source\PSoC6\pdl\drivers/peripheral/gpio/cy_gpio.h ****                                                 GPIO_PRT_INTR_CFG_EDGE3_SEL_Msk | \
 265:Generated_Source\PSoC6\pdl\drivers/peripheral/gpio/cy_gpio.h ****                                                 GPIO_PRT_INTR_CFG_EDGE4_SEL_Msk | \
 266:Generated_Source\PSoC6\pdl\drivers/peripheral/gpio/cy_gpio.h ****                                                 GPIO_PRT_INTR_CFG_EDGE5_SEL_Msk | \
 267:Generated_Source\PSoC6\pdl\drivers/peripheral/gpio/cy_gpio.h ****                                                 GPIO_PRT_INTR_CFG_EDGE6_SEL_Msk | \
 268:Generated_Source\PSoC6\pdl\drivers/peripheral/gpio/cy_gpio.h ****                                                 GPIO_PRT_INTR_CFG_EDGE7_SEL_Msk)            
 269:Generated_Source\PSoC6\pdl\drivers/peripheral/gpio/cy_gpio.h **** #define CY_GPIO_PRT_INTR_CFG_RANGE_MASK        (CY_GPIO_PRT_INTR_CFG_EDGE_SEL_MASK | \
 270:Generated_Source\PSoC6\pdl\drivers/peripheral/gpio/cy_gpio.h ****                                                 GPIO_PRT_INTR_CFG_FLT_EDGE_SEL_Msk | \
 271:Generated_Source\PSoC6\pdl\drivers/peripheral/gpio/cy_gpio.h ****                                                 GPIO_PRT_INTR_CFG_FLT_SEL_Msk)
 272:Generated_Source\PSoC6\pdl\drivers/peripheral/gpio/cy_gpio.h **** #define CY_GPIO_PRT_INT_MASK_MASK              (0x0000001FFUL)
 273:Generated_Source\PSoC6\pdl\drivers/peripheral/gpio/cy_gpio.h **** #define CY_GPIO_PRT_SEL_ACTIVE_MASK            (0x1FFFFFFFUL)
 274:Generated_Source\PSoC6\pdl\drivers/peripheral/gpio/cy_gpio.h **** 
 275:Generated_Source\PSoC6\pdl\drivers/peripheral/gpio/cy_gpio.h **** /* Parameter validation macros */
 276:Generated_Source\PSoC6\pdl\drivers/peripheral/gpio/cy_gpio.h **** #define CY_GPIO_IS_PIN_VALID(pinNum)           (CY_GPIO_PINS_MAX > (pinNum))
 277:Generated_Source\PSoC6\pdl\drivers/peripheral/gpio/cy_gpio.h **** #define CY_GPIO_IS_FILTER_PIN_VALID(pinNum)    (CY_GPIO_PINS_MAX >= (pinNum))
ARM GAS  C:\Users\salaz\AppData\Local\Temp\ccI54lrI.s 			page 32


 278:Generated_Source\PSoC6\pdl\drivers/peripheral/gpio/cy_gpio.h **** #define CY_GPIO_IS_VALUE_VALID(outVal)         (1UL >= (outVal))
 279:Generated_Source\PSoC6\pdl\drivers/peripheral/gpio/cy_gpio.h **** #define CY_GPIO_IS_DM_VALID(driveMode)         (0U == ((driveMode) & (uint32_t)~CY_GPIO_CFG_DM_MASK
 280:Generated_Source\PSoC6\pdl\drivers/peripheral/gpio/cy_gpio.h **** 
 281:Generated_Source\PSoC6\pdl\drivers/peripheral/gpio/cy_gpio.h **** #define CY_GPIO_IS_HSIOM_VALID(hsiom)          (0U == ((hsiom) & (uint32_t)~CY_GPIO_HSIOM_MASK))
 282:Generated_Source\PSoC6\pdl\drivers/peripheral/gpio/cy_gpio.h **** 
 283:Generated_Source\PSoC6\pdl\drivers/peripheral/gpio/cy_gpio.h **** #define CY_GPIO_IS_INT_EDGE_VALID(intEdge)     ((CY_GPIO_INTR_DISABLE  == (intEdge)) || \
 284:Generated_Source\PSoC6\pdl\drivers/peripheral/gpio/cy_gpio.h ****                                                 (CY_GPIO_INTR_RISING   == (intEdge)) || \
 285:Generated_Source\PSoC6\pdl\drivers/peripheral/gpio/cy_gpio.h ****                                                 (CY_GPIO_INTR_FALLING  == (intEdge)) || \
 286:Generated_Source\PSoC6\pdl\drivers/peripheral/gpio/cy_gpio.h ****                                                 (CY_GPIO_INTR_BOTH     == (intEdge)))
 287:Generated_Source\PSoC6\pdl\drivers/peripheral/gpio/cy_gpio.h **** 
 288:Generated_Source\PSoC6\pdl\drivers/peripheral/gpio/cy_gpio.h **** #define CY_GPIO_IS_DRIVE_SEL_VALID(driveSel)   ((CY_GPIO_DRIVE_FULL    == (driveSel)) || \
 289:Generated_Source\PSoC6\pdl\drivers/peripheral/gpio/cy_gpio.h ****                                                 (CY_GPIO_DRIVE_1_2     == (driveSel)) || \
 290:Generated_Source\PSoC6\pdl\drivers/peripheral/gpio/cy_gpio.h ****                                                 (CY_GPIO_DRIVE_1_4     == (driveSel)) || \
 291:Generated_Source\PSoC6\pdl\drivers/peripheral/gpio/cy_gpio.h ****                                                 (CY_GPIO_DRIVE_1_8     == (driveSel)))
 292:Generated_Source\PSoC6\pdl\drivers/peripheral/gpio/cy_gpio.h **** 
 293:Generated_Source\PSoC6\pdl\drivers/peripheral/gpio/cy_gpio.h **** #define CY_GPIO_IS_VREF_SEL_VALID(vrefSel)     ((CY_SIO_VREF_PINREF    == (vrefSel)) || \
 294:Generated_Source\PSoC6\pdl\drivers/peripheral/gpio/cy_gpio.h ****                                                 (CY_SIO_VREF_1_2V      == (vrefSel)) || \
 295:Generated_Source\PSoC6\pdl\drivers/peripheral/gpio/cy_gpio.h ****                                                 (CY_SIO_VREF_AMUX_A    == (vrefSel)) || \
 296:Generated_Source\PSoC6\pdl\drivers/peripheral/gpio/cy_gpio.h ****                                                 (CY_SIO_VREF_AMUX_B    == (vrefSel)))
 297:Generated_Source\PSoC6\pdl\drivers/peripheral/gpio/cy_gpio.h **** 
 298:Generated_Source\PSoC6\pdl\drivers/peripheral/gpio/cy_gpio.h **** #define CY_GPIO_IS_VOH_SEL_VALID(vrefSel)      ((CY_SIO_VOH_1_00       == (vrefSel)) || \
 299:Generated_Source\PSoC6\pdl\drivers/peripheral/gpio/cy_gpio.h ****                                                 (CY_SIO_VOH_1_25       == (vrefSel)) || \
 300:Generated_Source\PSoC6\pdl\drivers/peripheral/gpio/cy_gpio.h ****                                                 (CY_SIO_VOH_1_49       == (vrefSel)) || \
 301:Generated_Source\PSoC6\pdl\drivers/peripheral/gpio/cy_gpio.h ****                                                 (CY_SIO_VOH_1_67       == (vrefSel)) || \
 302:Generated_Source\PSoC6\pdl\drivers/peripheral/gpio/cy_gpio.h ****                                                 (CY_SIO_VOH_2_08       == (vrefSel)) || \
 303:Generated_Source\PSoC6\pdl\drivers/peripheral/gpio/cy_gpio.h ****                                                 (CY_SIO_VOH_2_50       == (vrefSel)) || \
 304:Generated_Source\PSoC6\pdl\drivers/peripheral/gpio/cy_gpio.h ****                                                 (CY_SIO_VOH_2_78       == (vrefSel)) || \
 305:Generated_Source\PSoC6\pdl\drivers/peripheral/gpio/cy_gpio.h ****                                                 (CY_SIO_VOH_4_16       == (vrefSel)))
 306:Generated_Source\PSoC6\pdl\drivers/peripheral/gpio/cy_gpio.h ****                    
 307:Generated_Source\PSoC6\pdl\drivers/peripheral/gpio/cy_gpio.h **** #define CY_GPIO_IS_PIN_BIT_VALID(pinBit)       (0U == ((pinBit) & (uint32_t)~CY_GPIO_PRT_PINS_MASK)
 308:Generated_Source\PSoC6\pdl\drivers/peripheral/gpio/cy_gpio.h **** #define CY_GPIO_IS_INTR_CFG_VALID(intrCfg)     (0U == ((intrCfg) & (uint32_t)~CY_GPIO_PRT_INTR_CFG_
 309:Generated_Source\PSoC6\pdl\drivers/peripheral/gpio/cy_gpio.h **** #define CY_GPIO_IS_INTR_MASK_VALID(intrMask)   (0U == ((intrMask) & (uint32_t)~CY_GPIO_PRT_INT_MASK
 310:Generated_Source\PSoC6\pdl\drivers/peripheral/gpio/cy_gpio.h **** #define CY_GPIO_IS_SEL_ACT_VALID(selActive)    (0U == ((selActive) & (uint32_t)~CY_GPIO_PRT_SEL_ACT
 311:Generated_Source\PSoC6\pdl\drivers/peripheral/gpio/cy_gpio.h **** 
 312:Generated_Source\PSoC6\pdl\drivers/peripheral/gpio/cy_gpio.h **** /** \endcond */
 313:Generated_Source\PSoC6\pdl\drivers/peripheral/gpio/cy_gpio.h **** 
 314:Generated_Source\PSoC6\pdl\drivers/peripheral/gpio/cy_gpio.h **** 
 315:Generated_Source\PSoC6\pdl\drivers/peripheral/gpio/cy_gpio.h **** /***************************************
 316:Generated_Source\PSoC6\pdl\drivers/peripheral/gpio/cy_gpio.h **** *        Function Constants
 317:Generated_Source\PSoC6\pdl\drivers/peripheral/gpio/cy_gpio.h **** ***************************************/
 318:Generated_Source\PSoC6\pdl\drivers/peripheral/gpio/cy_gpio.h **** 
 319:Generated_Source\PSoC6\pdl\drivers/peripheral/gpio/cy_gpio.h **** /**
 320:Generated_Source\PSoC6\pdl\drivers/peripheral/gpio/cy_gpio.h **** * \addtogroup group_gpio_macros
 321:Generated_Source\PSoC6\pdl\drivers/peripheral/gpio/cy_gpio.h **** * \{
 322:Generated_Source\PSoC6\pdl\drivers/peripheral/gpio/cy_gpio.h **** */
 323:Generated_Source\PSoC6\pdl\drivers/peripheral/gpio/cy_gpio.h **** 
 324:Generated_Source\PSoC6\pdl\drivers/peripheral/gpio/cy_gpio.h **** /**
 325:Generated_Source\PSoC6\pdl\drivers/peripheral/gpio/cy_gpio.h **** * \defgroup group_gpio_driveModes Pin drive mode
 326:Generated_Source\PSoC6\pdl\drivers/peripheral/gpio/cy_gpio.h **** * \{
 327:Generated_Source\PSoC6\pdl\drivers/peripheral/gpio/cy_gpio.h **** * Constants to be used for setting the drive mode of the pin.
 328:Generated_Source\PSoC6\pdl\drivers/peripheral/gpio/cy_gpio.h **** */
 329:Generated_Source\PSoC6\pdl\drivers/peripheral/gpio/cy_gpio.h **** #define CY_GPIO_DM_ANALOG                      (0x00UL) /**< \brief Analog High-Z. Input buffer off
 330:Generated_Source\PSoC6\pdl\drivers/peripheral/gpio/cy_gpio.h **** #define CY_GPIO_DM_PULLUP_IN_OFF               (0x02UL) /**< \brief Resistive Pull-Up. Input buffer
 331:Generated_Source\PSoC6\pdl\drivers/peripheral/gpio/cy_gpio.h **** #define CY_GPIO_DM_PULLDOWN_IN_OFF             (0x03UL) /**< \brief Resistive Pull-Down. Input buff
 332:Generated_Source\PSoC6\pdl\drivers/peripheral/gpio/cy_gpio.h **** #define CY_GPIO_DM_OD_DRIVESLOW_IN_OFF         (0x04UL) /**< \brief Open Drain, Drives Low. Input b
 333:Generated_Source\PSoC6\pdl\drivers/peripheral/gpio/cy_gpio.h **** #define CY_GPIO_DM_OD_DRIVESHIGH_IN_OFF        (0x05UL) /**< \brief Open Drain, Drives High. Input 
 334:Generated_Source\PSoC6\pdl\drivers/peripheral/gpio/cy_gpio.h **** #define CY_GPIO_DM_STRONG_IN_OFF               (0x06UL) /**< \brief Strong Drive. Input buffer off 
ARM GAS  C:\Users\salaz\AppData\Local\Temp\ccI54lrI.s 			page 33


 335:Generated_Source\PSoC6\pdl\drivers/peripheral/gpio/cy_gpio.h **** #define CY_GPIO_DM_PULLUP_DOWN_IN_OFF          (0x07UL) /**< \brief Resistive Pull-Up/Down. Input b
 336:Generated_Source\PSoC6\pdl\drivers/peripheral/gpio/cy_gpio.h **** #define CY_GPIO_DM_HIGHZ                       (0x08UL) /**< \brief Digital High-Z. Input buffer on
 337:Generated_Source\PSoC6\pdl\drivers/peripheral/gpio/cy_gpio.h **** #define CY_GPIO_DM_PULLUP                      (0x0AUL) /**< \brief Resistive Pull-Up. Input buffer
 338:Generated_Source\PSoC6\pdl\drivers/peripheral/gpio/cy_gpio.h **** #define CY_GPIO_DM_PULLDOWN                    (0x0BUL) /**< \brief Resistive Pull-Down. Input buff
 339:Generated_Source\PSoC6\pdl\drivers/peripheral/gpio/cy_gpio.h **** #define CY_GPIO_DM_OD_DRIVESLOW                (0x0CUL) /**< \brief Open Drain, Drives Low. Input b
 340:Generated_Source\PSoC6\pdl\drivers/peripheral/gpio/cy_gpio.h **** #define CY_GPIO_DM_OD_DRIVESHIGH               (0x0DUL) /**< \brief Open Drain, Drives High. Input 
 341:Generated_Source\PSoC6\pdl\drivers/peripheral/gpio/cy_gpio.h **** #define CY_GPIO_DM_STRONG                      (0x0EUL) /**< \brief Strong Drive. Input buffer on *
 342:Generated_Source\PSoC6\pdl\drivers/peripheral/gpio/cy_gpio.h **** #define CY_GPIO_DM_PULLUP_DOWN                 (0x0FUL) /**< \brief Resistive Pull-Up/Down. Input b
 343:Generated_Source\PSoC6\pdl\drivers/peripheral/gpio/cy_gpio.h **** /** \} */
 344:Generated_Source\PSoC6\pdl\drivers/peripheral/gpio/cy_gpio.h **** 
 345:Generated_Source\PSoC6\pdl\drivers/peripheral/gpio/cy_gpio.h **** /**
 346:Generated_Source\PSoC6\pdl\drivers/peripheral/gpio/cy_gpio.h **** * \defgroup group_gpio_vtrip Voltage trip mode
 347:Generated_Source\PSoC6\pdl\drivers/peripheral/gpio/cy_gpio.h **** * \{
 348:Generated_Source\PSoC6\pdl\drivers/peripheral/gpio/cy_gpio.h **** * Constants to be used for setting the voltage trip type on the pin.
 349:Generated_Source\PSoC6\pdl\drivers/peripheral/gpio/cy_gpio.h **** */
 350:Generated_Source\PSoC6\pdl\drivers/peripheral/gpio/cy_gpio.h **** #define CY_GPIO_VTRIP_CMOS                     (0x00UL) /**< \brief Input buffer compatible with CM
 351:Generated_Source\PSoC6\pdl\drivers/peripheral/gpio/cy_gpio.h **** #define CY_GPIO_VTRIP_TTL                      (0x01UL) /**< \brief Input buffer compatible with TT
 352:Generated_Source\PSoC6\pdl\drivers/peripheral/gpio/cy_gpio.h **** /** \} */
 353:Generated_Source\PSoC6\pdl\drivers/peripheral/gpio/cy_gpio.h **** 
 354:Generated_Source\PSoC6\pdl\drivers/peripheral/gpio/cy_gpio.h **** /**
 355:Generated_Source\PSoC6\pdl\drivers/peripheral/gpio/cy_gpio.h **** * \defgroup group_gpio_slewRate Slew Rate Mode
 356:Generated_Source\PSoC6\pdl\drivers/peripheral/gpio/cy_gpio.h **** * \{
 357:Generated_Source\PSoC6\pdl\drivers/peripheral/gpio/cy_gpio.h **** * Constants to be used for setting the slew rate of the pin.
 358:Generated_Source\PSoC6\pdl\drivers/peripheral/gpio/cy_gpio.h **** */
 359:Generated_Source\PSoC6\pdl\drivers/peripheral/gpio/cy_gpio.h **** #define CY_GPIO_SLEW_FAST                      (0x00UL) /**< \brief Fast slew rate */
 360:Generated_Source\PSoC6\pdl\drivers/peripheral/gpio/cy_gpio.h **** #define CY_GPIO_SLEW_SLOW                      (0x01UL) /**< \brief Slow slew rate */
 361:Generated_Source\PSoC6\pdl\drivers/peripheral/gpio/cy_gpio.h **** /** \} */
 362:Generated_Source\PSoC6\pdl\drivers/peripheral/gpio/cy_gpio.h **** 
 363:Generated_Source\PSoC6\pdl\drivers/peripheral/gpio/cy_gpio.h **** /**
 364:Generated_Source\PSoC6\pdl\drivers/peripheral/gpio/cy_gpio.h **** * \defgroup group_gpio_driveStrength Pin drive strength
 365:Generated_Source\PSoC6\pdl\drivers/peripheral/gpio/cy_gpio.h **** * \{
 366:Generated_Source\PSoC6\pdl\drivers/peripheral/gpio/cy_gpio.h **** * Constants to be used for setting the drive strength of the pin.
 367:Generated_Source\PSoC6\pdl\drivers/peripheral/gpio/cy_gpio.h **** */
 368:Generated_Source\PSoC6\pdl\drivers/peripheral/gpio/cy_gpio.h **** #define CY_GPIO_DRIVE_FULL                     (0x00UL) /**< \brief Full drive strength: Max drive 
 369:Generated_Source\PSoC6\pdl\drivers/peripheral/gpio/cy_gpio.h **** #define CY_GPIO_DRIVE_1_2                      (0x01UL) /**< \brief 1/2 drive strength: 1/2 drive c
 370:Generated_Source\PSoC6\pdl\drivers/peripheral/gpio/cy_gpio.h **** #define CY_GPIO_DRIVE_1_4                      (0x02UL) /**< \brief 1/4 drive strength: 1/4 drive c
 371:Generated_Source\PSoC6\pdl\drivers/peripheral/gpio/cy_gpio.h **** #define CY_GPIO_DRIVE_1_8                      (0x03UL) /**< \brief 1/8 drive strength: 1/8 drive c
 372:Generated_Source\PSoC6\pdl\drivers/peripheral/gpio/cy_gpio.h **** /** \} */
 373:Generated_Source\PSoC6\pdl\drivers/peripheral/gpio/cy_gpio.h **** 
 374:Generated_Source\PSoC6\pdl\drivers/peripheral/gpio/cy_gpio.h **** /**
 375:Generated_Source\PSoC6\pdl\drivers/peripheral/gpio/cy_gpio.h **** * \defgroup group_gpio_interruptTrigger Interrupt trigger type
 376:Generated_Source\PSoC6\pdl\drivers/peripheral/gpio/cy_gpio.h **** * \{
 377:Generated_Source\PSoC6\pdl\drivers/peripheral/gpio/cy_gpio.h **** * Constants to be used for setting the interrupt trigger type on the pin.
 378:Generated_Source\PSoC6\pdl\drivers/peripheral/gpio/cy_gpio.h **** */
 379:Generated_Source\PSoC6\pdl\drivers/peripheral/gpio/cy_gpio.h **** #define CY_GPIO_INTR_DISABLE                   (0x00UL) /**< \brief Disable the pin interrupt gener
 380:Generated_Source\PSoC6\pdl\drivers/peripheral/gpio/cy_gpio.h **** #define CY_GPIO_INTR_RISING                    (0x01UL) /**< \brief Rising-Edge interrupt */
 381:Generated_Source\PSoC6\pdl\drivers/peripheral/gpio/cy_gpio.h **** #define CY_GPIO_INTR_FALLING                   (0x02UL) /**< \brief Falling-Edge interrupt */
 382:Generated_Source\PSoC6\pdl\drivers/peripheral/gpio/cy_gpio.h **** #define CY_GPIO_INTR_BOTH                      (0x03UL) /**< \brief Both-Edge interrupt */
 383:Generated_Source\PSoC6\pdl\drivers/peripheral/gpio/cy_gpio.h **** /** \} */
 384:Generated_Source\PSoC6\pdl\drivers/peripheral/gpio/cy_gpio.h **** 
 385:Generated_Source\PSoC6\pdl\drivers/peripheral/gpio/cy_gpio.h **** /**
 386:Generated_Source\PSoC6\pdl\drivers/peripheral/gpio/cy_gpio.h **** * \defgroup group_gpio_sioVreg SIO output buffer mode
 387:Generated_Source\PSoC6\pdl\drivers/peripheral/gpio/cy_gpio.h **** * \{
 388:Generated_Source\PSoC6\pdl\drivers/peripheral/gpio/cy_gpio.h **** * Constants to be used for setting the SIO output buffer mode on the pin.
 389:Generated_Source\PSoC6\pdl\drivers/peripheral/gpio/cy_gpio.h **** */
 390:Generated_Source\PSoC6\pdl\drivers/peripheral/gpio/cy_gpio.h **** #define CY_SIO_VREG_UNREGULATED                (0x00UL) /**< \brief Unregulated output buffer */
 391:Generated_Source\PSoC6\pdl\drivers/peripheral/gpio/cy_gpio.h **** #define CY_SIO_VREG_REGULATED                  (0x01UL) /**< \brief Regulated output buffer */
ARM GAS  C:\Users\salaz\AppData\Local\Temp\ccI54lrI.s 			page 34


 392:Generated_Source\PSoC6\pdl\drivers/peripheral/gpio/cy_gpio.h **** /** \} */
 393:Generated_Source\PSoC6\pdl\drivers/peripheral/gpio/cy_gpio.h **** 
 394:Generated_Source\PSoC6\pdl\drivers/peripheral/gpio/cy_gpio.h **** /**
 395:Generated_Source\PSoC6\pdl\drivers/peripheral/gpio/cy_gpio.h **** * \defgroup group_gpio_sioIbuf SIO input buffer mode
 396:Generated_Source\PSoC6\pdl\drivers/peripheral/gpio/cy_gpio.h **** * \{
 397:Generated_Source\PSoC6\pdl\drivers/peripheral/gpio/cy_gpio.h **** * Constants to be used for setting the SIO input buffer mode on the pin.
 398:Generated_Source\PSoC6\pdl\drivers/peripheral/gpio/cy_gpio.h **** */
 399:Generated_Source\PSoC6\pdl\drivers/peripheral/gpio/cy_gpio.h **** #define CY_SIO_IBUF_SINGLEENDED                (0x00UL) /**< \brief Single ended input buffer */
 400:Generated_Source\PSoC6\pdl\drivers/peripheral/gpio/cy_gpio.h **** #define CY_SIO_IBUF_DIFFERENTIAL               (0x01UL) /**< \brief Differential input buffer */
 401:Generated_Source\PSoC6\pdl\drivers/peripheral/gpio/cy_gpio.h **** /** \} */
 402:Generated_Source\PSoC6\pdl\drivers/peripheral/gpio/cy_gpio.h **** 
 403:Generated_Source\PSoC6\pdl\drivers/peripheral/gpio/cy_gpio.h **** /**
 404:Generated_Source\PSoC6\pdl\drivers/peripheral/gpio/cy_gpio.h **** * \defgroup group_gpio_sioVtrip SIO input buffer trip-point
 405:Generated_Source\PSoC6\pdl\drivers/peripheral/gpio/cy_gpio.h **** * \{
 406:Generated_Source\PSoC6\pdl\drivers/peripheral/gpio/cy_gpio.h **** * Constants to be used for setting the SIO input buffer trip-point of the pin.
 407:Generated_Source\PSoC6\pdl\drivers/peripheral/gpio/cy_gpio.h **** */
 408:Generated_Source\PSoC6\pdl\drivers/peripheral/gpio/cy_gpio.h **** #define CY_SIO_VTRIP_CMOS                      (0x00UL) /**< \brief CMOS input buffer (single-ended
 409:Generated_Source\PSoC6\pdl\drivers/peripheral/gpio/cy_gpio.h **** #define CY_SIO_VTRIP_TTL                       (0x01UL) /**< \brief TTL input buffer (single-ended)
 410:Generated_Source\PSoC6\pdl\drivers/peripheral/gpio/cy_gpio.h **** #define CY_SIO_VTRIP_0_5VDDIO_0_5VOH           (0x00UL) /**< \brief 0.5xVddio or 0.5xVoh (different
 411:Generated_Source\PSoC6\pdl\drivers/peripheral/gpio/cy_gpio.h **** #define CY_SIO_VTRIP_0_4VDDIO_1_0VREF          (0x01UL) /**< \brief 0.4xVddio or 0.4xVoh (different
 412:Generated_Source\PSoC6\pdl\drivers/peripheral/gpio/cy_gpio.h **** /** \} */
 413:Generated_Source\PSoC6\pdl\drivers/peripheral/gpio/cy_gpio.h **** 
 414:Generated_Source\PSoC6\pdl\drivers/peripheral/gpio/cy_gpio.h **** /**
 415:Generated_Source\PSoC6\pdl\drivers/peripheral/gpio/cy_gpio.h **** * \defgroup group_gpio_sioVref SIO reference voltage for input buffer trip-point
 416:Generated_Source\PSoC6\pdl\drivers/peripheral/gpio/cy_gpio.h **** * \{
 417:Generated_Source\PSoC6\pdl\drivers/peripheral/gpio/cy_gpio.h **** * Constants to be used for setting the reference voltage of SIO input buffer trip-point.
 418:Generated_Source\PSoC6\pdl\drivers/peripheral/gpio/cy_gpio.h **** */
 419:Generated_Source\PSoC6\pdl\drivers/peripheral/gpio/cy_gpio.h **** #define CY_SIO_VREF_PINREF                     (0x00UL) /**< \brief Vref from analog pin */
 420:Generated_Source\PSoC6\pdl\drivers/peripheral/gpio/cy_gpio.h **** #define CY_SIO_VREF_1_2V                       (0x01UL) /**< \brief Vref from internal 1.2V referen
 421:Generated_Source\PSoC6\pdl\drivers/peripheral/gpio/cy_gpio.h **** #define CY_SIO_VREF_AMUX_A                     (0x02UL) /**< \brief Vref from AMUXBUS_A */
 422:Generated_Source\PSoC6\pdl\drivers/peripheral/gpio/cy_gpio.h **** #define CY_SIO_VREF_AMUX_B                     (0x03UL) /**< \brief Vref from AMUXBUS_B */
 423:Generated_Source\PSoC6\pdl\drivers/peripheral/gpio/cy_gpio.h **** /** \} */
 424:Generated_Source\PSoC6\pdl\drivers/peripheral/gpio/cy_gpio.h **** 
 425:Generated_Source\PSoC6\pdl\drivers/peripheral/gpio/cy_gpio.h **** /**
 426:Generated_Source\PSoC6\pdl\drivers/peripheral/gpio/cy_gpio.h **** * \defgroup group_gpio_sioVoh Regulated output voltage level (Voh) and input buffer trip-point of a
 427:Generated_Source\PSoC6\pdl\drivers/peripheral/gpio/cy_gpio.h **** * \{
 428:Generated_Source\PSoC6\pdl\drivers/peripheral/gpio/cy_gpio.h **** * Constants to be used for setting the Voh and input buffer trip-point of an SIO pair
 429:Generated_Source\PSoC6\pdl\drivers/peripheral/gpio/cy_gpio.h **** */
 430:Generated_Source\PSoC6\pdl\drivers/peripheral/gpio/cy_gpio.h **** #define CY_SIO_VOH_1_00                        (0x00UL) /**< \brief Voh = 1 x Reference */
 431:Generated_Source\PSoC6\pdl\drivers/peripheral/gpio/cy_gpio.h **** #define CY_SIO_VOH_1_25                        (0x01UL) /**< \brief Voh = 1.25 x Reference */
 432:Generated_Source\PSoC6\pdl\drivers/peripheral/gpio/cy_gpio.h **** #define CY_SIO_VOH_1_49                        (0x02UL) /**< \brief Voh = 1.49 x Reference */
 433:Generated_Source\PSoC6\pdl\drivers/peripheral/gpio/cy_gpio.h **** #define CY_SIO_VOH_1_67                        (0x03UL) /**< \brief Voh = 1.67 x Reference */
 434:Generated_Source\PSoC6\pdl\drivers/peripheral/gpio/cy_gpio.h **** #define CY_SIO_VOH_2_08                        (0x04UL) /**< \brief Voh = 2.08 x Reference */
 435:Generated_Source\PSoC6\pdl\drivers/peripheral/gpio/cy_gpio.h **** #define CY_SIO_VOH_2_50                        (0x05UL) /**< \brief Voh = 2.50 x Reference */
 436:Generated_Source\PSoC6\pdl\drivers/peripheral/gpio/cy_gpio.h **** #define CY_SIO_VOH_2_78                        (0x06UL) /**< \brief Voh = 2.78 x Reference */
 437:Generated_Source\PSoC6\pdl\drivers/peripheral/gpio/cy_gpio.h **** #define CY_SIO_VOH_4_16                        (0x07UL) /**< \brief Voh = 4.16 x Reference */
 438:Generated_Source\PSoC6\pdl\drivers/peripheral/gpio/cy_gpio.h **** /** \} */
 439:Generated_Source\PSoC6\pdl\drivers/peripheral/gpio/cy_gpio.h **** 
 440:Generated_Source\PSoC6\pdl\drivers/peripheral/gpio/cy_gpio.h **** /** \} group_gpio_macros */
 441:Generated_Source\PSoC6\pdl\drivers/peripheral/gpio/cy_gpio.h **** 
 442:Generated_Source\PSoC6\pdl\drivers/peripheral/gpio/cy_gpio.h **** /***************************************
 443:Generated_Source\PSoC6\pdl\drivers/peripheral/gpio/cy_gpio.h **** *        Function Prototypes
 444:Generated_Source\PSoC6\pdl\drivers/peripheral/gpio/cy_gpio.h **** ***************************************/
 445:Generated_Source\PSoC6\pdl\drivers/peripheral/gpio/cy_gpio.h **** 
 446:Generated_Source\PSoC6\pdl\drivers/peripheral/gpio/cy_gpio.h **** /**
 447:Generated_Source\PSoC6\pdl\drivers/peripheral/gpio/cy_gpio.h **** * \addtogroup group_gpio_functions
 448:Generated_Source\PSoC6\pdl\drivers/peripheral/gpio/cy_gpio.h **** * \{
ARM GAS  C:\Users\salaz\AppData\Local\Temp\ccI54lrI.s 			page 35


 449:Generated_Source\PSoC6\pdl\drivers/peripheral/gpio/cy_gpio.h **** */
 450:Generated_Source\PSoC6\pdl\drivers/peripheral/gpio/cy_gpio.h **** 
 451:Generated_Source\PSoC6\pdl\drivers/peripheral/gpio/cy_gpio.h **** /**
 452:Generated_Source\PSoC6\pdl\drivers/peripheral/gpio/cy_gpio.h **** * \addtogroup group_gpio_functions_init
 453:Generated_Source\PSoC6\pdl\drivers/peripheral/gpio/cy_gpio.h **** * \{
 454:Generated_Source\PSoC6\pdl\drivers/peripheral/gpio/cy_gpio.h **** */
 455:Generated_Source\PSoC6\pdl\drivers/peripheral/gpio/cy_gpio.h **** 
 456:Generated_Source\PSoC6\pdl\drivers/peripheral/gpio/cy_gpio.h **** cy_en_gpio_status_t Cy_GPIO_Pin_Init(GPIO_PRT_Type* base, uint32_t pinNum, const cy_stc_gpio_pin_co
 457:Generated_Source\PSoC6\pdl\drivers/peripheral/gpio/cy_gpio.h **** cy_en_gpio_status_t Cy_GPIO_Port_Init(GPIO_PRT_Type* base, const cy_stc_gpio_prt_config_t *config);
 458:Generated_Source\PSoC6\pdl\drivers/peripheral/gpio/cy_gpio.h **** void Cy_GPIO_Pin_FastInit(GPIO_PRT_Type* base, uint32_t pinNum, uint32_t driveMode, uint32_t outVal
 459:Generated_Source\PSoC6\pdl\drivers/peripheral/gpio/cy_gpio.h **** void Cy_GPIO_Port_Deinit(GPIO_PRT_Type* base);
 460:Generated_Source\PSoC6\pdl\drivers/peripheral/gpio/cy_gpio.h **** __STATIC_INLINE void Cy_GPIO_SetHSIOM(GPIO_PRT_Type* base, uint32_t pinNum, en_hsiom_sel_t value);
 461:Generated_Source\PSoC6\pdl\drivers/peripheral/gpio/cy_gpio.h **** __STATIC_INLINE en_hsiom_sel_t Cy_GPIO_GetHSIOM(GPIO_PRT_Type* base, uint32_t pinNum);
 462:Generated_Source\PSoC6\pdl\drivers/peripheral/gpio/cy_gpio.h **** __STATIC_INLINE GPIO_PRT_Type* Cy_GPIO_PortToAddr(uint32_t portNum);
 463:Generated_Source\PSoC6\pdl\drivers/peripheral/gpio/cy_gpio.h **** 
 464:Generated_Source\PSoC6\pdl\drivers/peripheral/gpio/cy_gpio.h **** /** \} group_gpio_functions_init */
 465:Generated_Source\PSoC6\pdl\drivers/peripheral/gpio/cy_gpio.h **** 
 466:Generated_Source\PSoC6\pdl\drivers/peripheral/gpio/cy_gpio.h **** /**
 467:Generated_Source\PSoC6\pdl\drivers/peripheral/gpio/cy_gpio.h **** * \addtogroup group_gpio_functions_gpio
 468:Generated_Source\PSoC6\pdl\drivers/peripheral/gpio/cy_gpio.h **** * \{
 469:Generated_Source\PSoC6\pdl\drivers/peripheral/gpio/cy_gpio.h **** */
 470:Generated_Source\PSoC6\pdl\drivers/peripheral/gpio/cy_gpio.h **** 
 471:Generated_Source\PSoC6\pdl\drivers/peripheral/gpio/cy_gpio.h **** __STATIC_INLINE uint32_t Cy_GPIO_Read(GPIO_PRT_Type* base, uint32_t pinNum);
 472:Generated_Source\PSoC6\pdl\drivers/peripheral/gpio/cy_gpio.h **** __STATIC_INLINE void Cy_GPIO_Write(GPIO_PRT_Type* base, uint32_t pinNum, uint32_t value);
 473:Generated_Source\PSoC6\pdl\drivers/peripheral/gpio/cy_gpio.h **** __STATIC_INLINE uint32_t Cy_GPIO_ReadOut(GPIO_PRT_Type* base, uint32_t pinNum);
 474:Generated_Source\PSoC6\pdl\drivers/peripheral/gpio/cy_gpio.h **** __STATIC_INLINE void Cy_GPIO_Set(GPIO_PRT_Type* base, uint32_t pinNum);
 475:Generated_Source\PSoC6\pdl\drivers/peripheral/gpio/cy_gpio.h **** __STATIC_INLINE void Cy_GPIO_Clr(GPIO_PRT_Type* base, uint32_t pinNum);
 476:Generated_Source\PSoC6\pdl\drivers/peripheral/gpio/cy_gpio.h **** __STATIC_INLINE void Cy_GPIO_Inv(GPIO_PRT_Type* base, uint32_t pinNum);
 477:Generated_Source\PSoC6\pdl\drivers/peripheral/gpio/cy_gpio.h **** __STATIC_INLINE void Cy_GPIO_SetDrivemode(GPIO_PRT_Type* base, uint32_t pinNum, uint32_t value);
 478:Generated_Source\PSoC6\pdl\drivers/peripheral/gpio/cy_gpio.h **** __STATIC_INLINE uint32_t Cy_GPIO_GetDrivemode(GPIO_PRT_Type* base, uint32_t pinNum);
 479:Generated_Source\PSoC6\pdl\drivers/peripheral/gpio/cy_gpio.h **** __STATIC_INLINE void Cy_GPIO_SetVtrip(GPIO_PRT_Type* base, uint32_t pinNum, uint32_t value);
 480:Generated_Source\PSoC6\pdl\drivers/peripheral/gpio/cy_gpio.h **** __STATIC_INLINE uint32_t Cy_GPIO_GetVtrip(GPIO_PRT_Type* base, uint32_t pinNum);
 481:Generated_Source\PSoC6\pdl\drivers/peripheral/gpio/cy_gpio.h **** __STATIC_INLINE void Cy_GPIO_SetSlewRate(GPIO_PRT_Type* base, uint32_t pinNum, uint32_t value);
 482:Generated_Source\PSoC6\pdl\drivers/peripheral/gpio/cy_gpio.h **** __STATIC_INLINE uint32_t Cy_GPIO_GetSlewRate(GPIO_PRT_Type* base, uint32_t pinNum);
 483:Generated_Source\PSoC6\pdl\drivers/peripheral/gpio/cy_gpio.h **** __STATIC_INLINE void Cy_GPIO_SetDriveSel(GPIO_PRT_Type* base, uint32_t pinNum, uint32_t value);
 484:Generated_Source\PSoC6\pdl\drivers/peripheral/gpio/cy_gpio.h **** __STATIC_INLINE uint32_t Cy_GPIO_GetDriveSel(GPIO_PRT_Type* base, uint32_t pinNum);
 485:Generated_Source\PSoC6\pdl\drivers/peripheral/gpio/cy_gpio.h **** 
 486:Generated_Source\PSoC6\pdl\drivers/peripheral/gpio/cy_gpio.h **** /** \} group_gpio_functions_gpio */
 487:Generated_Source\PSoC6\pdl\drivers/peripheral/gpio/cy_gpio.h **** 
 488:Generated_Source\PSoC6\pdl\drivers/peripheral/gpio/cy_gpio.h **** /**
 489:Generated_Source\PSoC6\pdl\drivers/peripheral/gpio/cy_gpio.h **** * \addtogroup group_gpio_functions_sio
 490:Generated_Source\PSoC6\pdl\drivers/peripheral/gpio/cy_gpio.h **** * \{
 491:Generated_Source\PSoC6\pdl\drivers/peripheral/gpio/cy_gpio.h **** */
 492:Generated_Source\PSoC6\pdl\drivers/peripheral/gpio/cy_gpio.h **** 
 493:Generated_Source\PSoC6\pdl\drivers/peripheral/gpio/cy_gpio.h **** __STATIC_INLINE void Cy_GPIO_SetVregEn(GPIO_PRT_Type* base, uint32_t pinNum, uint32_t value);
 494:Generated_Source\PSoC6\pdl\drivers/peripheral/gpio/cy_gpio.h **** __STATIC_INLINE uint32_t Cy_GPIO_GetVregEn(GPIO_PRT_Type* base, uint32_t pinNum);
 495:Generated_Source\PSoC6\pdl\drivers/peripheral/gpio/cy_gpio.h **** __STATIC_INLINE void Cy_GPIO_SetIbufMode(GPIO_PRT_Type* base, uint32_t pinNum, uint32_t value);
 496:Generated_Source\PSoC6\pdl\drivers/peripheral/gpio/cy_gpio.h **** __STATIC_INLINE uint32_t Cy_GPIO_GetIbufMode(GPIO_PRT_Type* base, uint32_t pinNum);
 497:Generated_Source\PSoC6\pdl\drivers/peripheral/gpio/cy_gpio.h **** __STATIC_INLINE void Cy_GPIO_SetVtripSel(GPIO_PRT_Type* base, uint32_t pinNum, uint32_t value);
 498:Generated_Source\PSoC6\pdl\drivers/peripheral/gpio/cy_gpio.h **** __STATIC_INLINE uint32_t Cy_GPIO_GetVtripSel(GPIO_PRT_Type* base, uint32_t pinNum);
 499:Generated_Source\PSoC6\pdl\drivers/peripheral/gpio/cy_gpio.h **** __STATIC_INLINE void Cy_GPIO_SetVrefSel(GPIO_PRT_Type* base, uint32_t pinNum, uint32_t value);
 500:Generated_Source\PSoC6\pdl\drivers/peripheral/gpio/cy_gpio.h **** __STATIC_INLINE uint32_t Cy_GPIO_GetVrefSel(GPIO_PRT_Type* base, uint32_t pinNum);
 501:Generated_Source\PSoC6\pdl\drivers/peripheral/gpio/cy_gpio.h **** __STATIC_INLINE void Cy_GPIO_SetVohSel(GPIO_PRT_Type* base, uint32_t pinNum, uint32_t value);
 502:Generated_Source\PSoC6\pdl\drivers/peripheral/gpio/cy_gpio.h **** __STATIC_INLINE uint32_t Cy_GPIO_GetVohSel(GPIO_PRT_Type* base, uint32_t pinNum);
 503:Generated_Source\PSoC6\pdl\drivers/peripheral/gpio/cy_gpio.h **** 
 504:Generated_Source\PSoC6\pdl\drivers/peripheral/gpio/cy_gpio.h **** /** \} group_gpio_functions_sio */
 505:Generated_Source\PSoC6\pdl\drivers/peripheral/gpio/cy_gpio.h **** 
ARM GAS  C:\Users\salaz\AppData\Local\Temp\ccI54lrI.s 			page 36


 506:Generated_Source\PSoC6\pdl\drivers/peripheral/gpio/cy_gpio.h **** /**
 507:Generated_Source\PSoC6\pdl\drivers/peripheral/gpio/cy_gpio.h **** * \addtogroup group_gpio_functions_interrupt
 508:Generated_Source\PSoC6\pdl\drivers/peripheral/gpio/cy_gpio.h **** * \{
 509:Generated_Source\PSoC6\pdl\drivers/peripheral/gpio/cy_gpio.h **** */
 510:Generated_Source\PSoC6\pdl\drivers/peripheral/gpio/cy_gpio.h **** 
 511:Generated_Source\PSoC6\pdl\drivers/peripheral/gpio/cy_gpio.h **** __STATIC_INLINE uint32_t Cy_GPIO_GetInterruptStatus(GPIO_PRT_Type* base, uint32_t pinNum);
 512:Generated_Source\PSoC6\pdl\drivers/peripheral/gpio/cy_gpio.h **** __STATIC_INLINE void Cy_GPIO_ClearInterrupt(GPIO_PRT_Type* base, uint32_t pinNum);
 513:Generated_Source\PSoC6\pdl\drivers/peripheral/gpio/cy_gpio.h **** __STATIC_INLINE void Cy_GPIO_SetInterruptMask(GPIO_PRT_Type* base, uint32_t pinNum, uint32_t value)
 514:Generated_Source\PSoC6\pdl\drivers/peripheral/gpio/cy_gpio.h **** __STATIC_INLINE uint32_t Cy_GPIO_GetInterruptMask(GPIO_PRT_Type* base, uint32_t pinNum);
 515:Generated_Source\PSoC6\pdl\drivers/peripheral/gpio/cy_gpio.h **** __STATIC_INLINE uint32_t Cy_GPIO_GetInterruptStatusMasked(GPIO_PRT_Type* base, uint32_t pinNum);
 516:Generated_Source\PSoC6\pdl\drivers/peripheral/gpio/cy_gpio.h **** __STATIC_INLINE void Cy_GPIO_SetSwInterrupt(GPIO_PRT_Type* base, uint32_t pinNum);
 517:Generated_Source\PSoC6\pdl\drivers/peripheral/gpio/cy_gpio.h **** __STATIC_INLINE void Cy_GPIO_SetInterruptEdge(GPIO_PRT_Type* base, uint32_t pinNum, uint32_t value)
 518:Generated_Source\PSoC6\pdl\drivers/peripheral/gpio/cy_gpio.h **** __STATIC_INLINE uint32_t Cy_GPIO_GetInterruptEdge(GPIO_PRT_Type* base, uint32_t pinNum);
 519:Generated_Source\PSoC6\pdl\drivers/peripheral/gpio/cy_gpio.h **** __STATIC_INLINE void Cy_GPIO_SetFilter(GPIO_PRT_Type* base, uint32_t value);
 520:Generated_Source\PSoC6\pdl\drivers/peripheral/gpio/cy_gpio.h **** __STATIC_INLINE uint32_t Cy_GPIO_GetFilter(GPIO_PRT_Type* base);
 521:Generated_Source\PSoC6\pdl\drivers/peripheral/gpio/cy_gpio.h **** 
 522:Generated_Source\PSoC6\pdl\drivers/peripheral/gpio/cy_gpio.h **** #if (IOSS_GPIO_GPIO_PORT_NR_0_31 != 0) || defined (CY_DOXYGEN)
 523:Generated_Source\PSoC6\pdl\drivers/peripheral/gpio/cy_gpio.h **** __STATIC_INLINE uint32_t Cy_GPIO_GetInterruptCause0(void);
 524:Generated_Source\PSoC6\pdl\drivers/peripheral/gpio/cy_gpio.h **** #endif /* (IOSS_GPIO_GPIO_PORT_NR_0_31 != 0) */
 525:Generated_Source\PSoC6\pdl\drivers/peripheral/gpio/cy_gpio.h **** 
 526:Generated_Source\PSoC6\pdl\drivers/peripheral/gpio/cy_gpio.h **** #if (IOSS_GPIO_GPIO_PORT_NR_32_63 != 0) || defined (CY_DOXYGEN)
 527:Generated_Source\PSoC6\pdl\drivers/peripheral/gpio/cy_gpio.h **** __STATIC_INLINE uint32_t Cy_GPIO_GetInterruptCause1(void);
 528:Generated_Source\PSoC6\pdl\drivers/peripheral/gpio/cy_gpio.h **** #endif /* (IOSS_GPIO_GPIO_PORT_NR_32_63 != 0) */
 529:Generated_Source\PSoC6\pdl\drivers/peripheral/gpio/cy_gpio.h **** 
 530:Generated_Source\PSoC6\pdl\drivers/peripheral/gpio/cy_gpio.h **** #if (IOSS_GPIO_GPIO_PORT_NR_64_95 != 0) || defined (CY_DOXYGEN)
 531:Generated_Source\PSoC6\pdl\drivers/peripheral/gpio/cy_gpio.h **** __STATIC_INLINE uint32_t Cy_GPIO_GetInterruptCause2(void);
 532:Generated_Source\PSoC6\pdl\drivers/peripheral/gpio/cy_gpio.h **** #endif /* (IOSS_GPIO_GPIO_PORT_NR_64_95 != 0) */
 533:Generated_Source\PSoC6\pdl\drivers/peripheral/gpio/cy_gpio.h **** 
 534:Generated_Source\PSoC6\pdl\drivers/peripheral/gpio/cy_gpio.h **** #if (IOSS_GPIO_GPIO_PORT_NR_96_127 != 0) || defined (CY_DOXYGEN)
 535:Generated_Source\PSoC6\pdl\drivers/peripheral/gpio/cy_gpio.h **** __STATIC_INLINE uint32_t Cy_GPIO_GetInterruptCause3(void);
 536:Generated_Source\PSoC6\pdl\drivers/peripheral/gpio/cy_gpio.h **** #endif /* (IOSS_GPIO_GPIO_PORT_NR_96_127 != 0) */
 537:Generated_Source\PSoC6\pdl\drivers/peripheral/gpio/cy_gpio.h **** 
 538:Generated_Source\PSoC6\pdl\drivers/peripheral/gpio/cy_gpio.h **** /** \} group_gpio_functions_interrupt */
 539:Generated_Source\PSoC6\pdl\drivers/peripheral/gpio/cy_gpio.h **** 
 540:Generated_Source\PSoC6\pdl\drivers/peripheral/gpio/cy_gpio.h **** 
 541:Generated_Source\PSoC6\pdl\drivers/peripheral/gpio/cy_gpio.h **** /**
 542:Generated_Source\PSoC6\pdl\drivers/peripheral/gpio/cy_gpio.h **** * \addtogroup group_gpio_functions_init
 543:Generated_Source\PSoC6\pdl\drivers/peripheral/gpio/cy_gpio.h **** * \{
 544:Generated_Source\PSoC6\pdl\drivers/peripheral/gpio/cy_gpio.h **** */
 545:Generated_Source\PSoC6\pdl\drivers/peripheral/gpio/cy_gpio.h **** 
 546:Generated_Source\PSoC6\pdl\drivers/peripheral/gpio/cy_gpio.h **** /*******************************************************************************
 547:Generated_Source\PSoC6\pdl\drivers/peripheral/gpio/cy_gpio.h **** * Function Name: Cy_GPIO_SetHSIOM
 548:Generated_Source\PSoC6\pdl\drivers/peripheral/gpio/cy_gpio.h **** ****************************************************************************//**
 549:Generated_Source\PSoC6\pdl\drivers/peripheral/gpio/cy_gpio.h **** *
 550:Generated_Source\PSoC6\pdl\drivers/peripheral/gpio/cy_gpio.h **** * \brief Configures the HSIOM connection to the pin.
 551:Generated_Source\PSoC6\pdl\drivers/peripheral/gpio/cy_gpio.h **** *
 552:Generated_Source\PSoC6\pdl\drivers/peripheral/gpio/cy_gpio.h **** * Connects the specified High-Speed Input Output Multiplexer (HSIOM) selection
 553:Generated_Source\PSoC6\pdl\drivers/peripheral/gpio/cy_gpio.h **** * to the pin.
 554:Generated_Source\PSoC6\pdl\drivers/peripheral/gpio/cy_gpio.h **** *
 555:Generated_Source\PSoC6\pdl\drivers/peripheral/gpio/cy_gpio.h **** * \param base
 556:Generated_Source\PSoC6\pdl\drivers/peripheral/gpio/cy_gpio.h **** * Pointer to the pin's port register base address
 557:Generated_Source\PSoC6\pdl\drivers/peripheral/gpio/cy_gpio.h **** *
 558:Generated_Source\PSoC6\pdl\drivers/peripheral/gpio/cy_gpio.h **** * \param pinNum
 559:Generated_Source\PSoC6\pdl\drivers/peripheral/gpio/cy_gpio.h **** * Position of the pin bit-field within the port register
 560:Generated_Source\PSoC6\pdl\drivers/peripheral/gpio/cy_gpio.h **** *
 561:Generated_Source\PSoC6\pdl\drivers/peripheral/gpio/cy_gpio.h **** * \param value
 562:Generated_Source\PSoC6\pdl\drivers/peripheral/gpio/cy_gpio.h **** * HSIOM input selection
ARM GAS  C:\Users\salaz\AppData\Local\Temp\ccI54lrI.s 			page 37


 563:Generated_Source\PSoC6\pdl\drivers/peripheral/gpio/cy_gpio.h **** *
 564:Generated_Source\PSoC6\pdl\drivers/peripheral/gpio/cy_gpio.h **** * \return
 565:Generated_Source\PSoC6\pdl\drivers/peripheral/gpio/cy_gpio.h **** * void
 566:Generated_Source\PSoC6\pdl\drivers/peripheral/gpio/cy_gpio.h **** *
 567:Generated_Source\PSoC6\pdl\drivers/peripheral/gpio/cy_gpio.h **** * \note 
 568:Generated_Source\PSoC6\pdl\drivers/peripheral/gpio/cy_gpio.h **** * This function modifies a port register in a read-modify-write operation. It is
 569:Generated_Source\PSoC6\pdl\drivers/peripheral/gpio/cy_gpio.h **** * not thread safe as the resource is shared among multiple pins on a port.
 570:Generated_Source\PSoC6\pdl\drivers/peripheral/gpio/cy_gpio.h **** *
 571:Generated_Source\PSoC6\pdl\drivers/peripheral/gpio/cy_gpio.h **** * \funcusage
 572:Generated_Source\PSoC6\pdl\drivers/peripheral/gpio/cy_gpio.h **** * \snippet gpio/gpio_v1_10_sut_01.cydsn/main_cm4.c snippet_Cy_GPIO_SetHSIOM
 573:Generated_Source\PSoC6\pdl\drivers/peripheral/gpio/cy_gpio.h **** *
 574:Generated_Source\PSoC6\pdl\drivers/peripheral/gpio/cy_gpio.h **** *******************************************************************************/
 575:Generated_Source\PSoC6\pdl\drivers/peripheral/gpio/cy_gpio.h **** __STATIC_INLINE void Cy_GPIO_SetHSIOM(GPIO_PRT_Type* base, uint32_t pinNum, en_hsiom_sel_t value)
 576:Generated_Source\PSoC6\pdl\drivers/peripheral/gpio/cy_gpio.h **** {
 577:Generated_Source\PSoC6\pdl\drivers/peripheral/gpio/cy_gpio.h ****     uint32_t portNum;
 578:Generated_Source\PSoC6\pdl\drivers/peripheral/gpio/cy_gpio.h ****     uint32_t tempReg;
 579:Generated_Source\PSoC6\pdl\drivers/peripheral/gpio/cy_gpio.h ****     HSIOM_PRT_Type* portAddrHSIOM;
 580:Generated_Source\PSoC6\pdl\drivers/peripheral/gpio/cy_gpio.h **** 
 581:Generated_Source\PSoC6\pdl\drivers/peripheral/gpio/cy_gpio.h ****     CY_ASSERT_L2(CY_GPIO_IS_PIN_VALID(pinNum));
 582:Generated_Source\PSoC6\pdl\drivers/peripheral/gpio/cy_gpio.h ****     CY_ASSERT_L2(CY_GPIO_IS_HSIOM_VALID(value));
 583:Generated_Source\PSoC6\pdl\drivers/peripheral/gpio/cy_gpio.h **** 
 584:Generated_Source\PSoC6\pdl\drivers/peripheral/gpio/cy_gpio.h ****     portNum = ((uint32_t)(base) - GPIO_BASE) / GPIO_PRT_SECTION_SIZE;
 585:Generated_Source\PSoC6\pdl\drivers/peripheral/gpio/cy_gpio.h ****     portAddrHSIOM = (HSIOM_PRT_Type*)(HSIOM_BASE + (HSIOM_PRT_SECTION_SIZE * portNum));
 586:Generated_Source\PSoC6\pdl\drivers/peripheral/gpio/cy_gpio.h **** 
 587:Generated_Source\PSoC6\pdl\drivers/peripheral/gpio/cy_gpio.h ****     if(pinNum < CY_GPIO_PRT_HALF)
 588:Generated_Source\PSoC6\pdl\drivers/peripheral/gpio/cy_gpio.h ****     {
 589:Generated_Source\PSoC6\pdl\drivers/peripheral/gpio/cy_gpio.h ****         tempReg = portAddrHSIOM->PORT_SEL0 & ~(CY_GPIO_HSIOM_MASK << (pinNum << CY_GPIO_HSIOM_OFFSE
 590:Generated_Source\PSoC6\pdl\drivers/peripheral/gpio/cy_gpio.h ****         portAddrHSIOM->PORT_SEL0 = tempReg | ((value & CY_GPIO_HSIOM_MASK) << (pinNum << CY_GPIO_HS
 591:Generated_Source\PSoC6\pdl\drivers/peripheral/gpio/cy_gpio.h ****     }
 592:Generated_Source\PSoC6\pdl\drivers/peripheral/gpio/cy_gpio.h ****     else
 593:Generated_Source\PSoC6\pdl\drivers/peripheral/gpio/cy_gpio.h ****     {
 594:Generated_Source\PSoC6\pdl\drivers/peripheral/gpio/cy_gpio.h ****         pinNum -= CY_GPIO_PRT_HALF;
 595:Generated_Source\PSoC6\pdl\drivers/peripheral/gpio/cy_gpio.h ****         tempReg = portAddrHSIOM->PORT_SEL1 & ~(CY_GPIO_HSIOM_MASK << (pinNum << CY_GPIO_HSIOM_OFFSE
 596:Generated_Source\PSoC6\pdl\drivers/peripheral/gpio/cy_gpio.h ****         portAddrHSIOM->PORT_SEL1 = tempReg | ((value & CY_GPIO_HSIOM_MASK) << (pinNum << CY_GPIO_HS
 597:Generated_Source\PSoC6\pdl\drivers/peripheral/gpio/cy_gpio.h ****     }
 598:Generated_Source\PSoC6\pdl\drivers/peripheral/gpio/cy_gpio.h **** }
 599:Generated_Source\PSoC6\pdl\drivers/peripheral/gpio/cy_gpio.h **** 
 600:Generated_Source\PSoC6\pdl\drivers/peripheral/gpio/cy_gpio.h **** 
 601:Generated_Source\PSoC6\pdl\drivers/peripheral/gpio/cy_gpio.h **** /*******************************************************************************
 602:Generated_Source\PSoC6\pdl\drivers/peripheral/gpio/cy_gpio.h **** * Function Name: Cy_GPIO_GetHSIOM
 603:Generated_Source\PSoC6\pdl\drivers/peripheral/gpio/cy_gpio.h **** ****************************************************************************//**
 604:Generated_Source\PSoC6\pdl\drivers/peripheral/gpio/cy_gpio.h **** *
 605:Generated_Source\PSoC6\pdl\drivers/peripheral/gpio/cy_gpio.h **** * \brief Returns the current HSIOM multiplexer connection to the pin.
 606:Generated_Source\PSoC6\pdl\drivers/peripheral/gpio/cy_gpio.h **** *
 607:Generated_Source\PSoC6\pdl\drivers/peripheral/gpio/cy_gpio.h **** * \param base
 608:Generated_Source\PSoC6\pdl\drivers/peripheral/gpio/cy_gpio.h **** * Pointer to the pin's port register base address
 609:Generated_Source\PSoC6\pdl\drivers/peripheral/gpio/cy_gpio.h **** *
 610:Generated_Source\PSoC6\pdl\drivers/peripheral/gpio/cy_gpio.h **** * \param pinNum
 611:Generated_Source\PSoC6\pdl\drivers/peripheral/gpio/cy_gpio.h **** * Position of the pin bit-field within the port register
 612:Generated_Source\PSoC6\pdl\drivers/peripheral/gpio/cy_gpio.h **** *
 613:Generated_Source\PSoC6\pdl\drivers/peripheral/gpio/cy_gpio.h **** * \return
 614:Generated_Source\PSoC6\pdl\drivers/peripheral/gpio/cy_gpio.h **** * HSIOM input selection
 615:Generated_Source\PSoC6\pdl\drivers/peripheral/gpio/cy_gpio.h **** *
 616:Generated_Source\PSoC6\pdl\drivers/peripheral/gpio/cy_gpio.h **** * \funcusage
 617:Generated_Source\PSoC6\pdl\drivers/peripheral/gpio/cy_gpio.h **** * \snippet gpio/gpio_v1_10_sut_01.cydsn/main_cm4.c snippet_Cy_GPIO_SetHSIOM
 618:Generated_Source\PSoC6\pdl\drivers/peripheral/gpio/cy_gpio.h **** *
 619:Generated_Source\PSoC6\pdl\drivers/peripheral/gpio/cy_gpio.h **** *******************************************************************************/
ARM GAS  C:\Users\salaz\AppData\Local\Temp\ccI54lrI.s 			page 38


 620:Generated_Source\PSoC6\pdl\drivers/peripheral/gpio/cy_gpio.h **** __STATIC_INLINE en_hsiom_sel_t Cy_GPIO_GetHSIOM(GPIO_PRT_Type* base, uint32_t pinNum)
 621:Generated_Source\PSoC6\pdl\drivers/peripheral/gpio/cy_gpio.h **** {
 622:Generated_Source\PSoC6\pdl\drivers/peripheral/gpio/cy_gpio.h ****     uint32_t returnValue;
 623:Generated_Source\PSoC6\pdl\drivers/peripheral/gpio/cy_gpio.h ****     uint32_t portNum;
 624:Generated_Source\PSoC6\pdl\drivers/peripheral/gpio/cy_gpio.h ****     HSIOM_PRT_Type* portAddrHSIOM;
 625:Generated_Source\PSoC6\pdl\drivers/peripheral/gpio/cy_gpio.h ****     
 626:Generated_Source\PSoC6\pdl\drivers/peripheral/gpio/cy_gpio.h ****     CY_ASSERT_L2(CY_GPIO_IS_PIN_VALID(pinNum));
 627:Generated_Source\PSoC6\pdl\drivers/peripheral/gpio/cy_gpio.h **** 
 628:Generated_Source\PSoC6\pdl\drivers/peripheral/gpio/cy_gpio.h ****     portNum = ((uint32_t)(base) - GPIO_BASE) / GPIO_PRT_SECTION_SIZE;
 629:Generated_Source\PSoC6\pdl\drivers/peripheral/gpio/cy_gpio.h ****     portAddrHSIOM = (HSIOM_PRT_Type*)(HSIOM_BASE + (HSIOM_PRT_SECTION_SIZE * portNum));
 630:Generated_Source\PSoC6\pdl\drivers/peripheral/gpio/cy_gpio.h **** 
 631:Generated_Source\PSoC6\pdl\drivers/peripheral/gpio/cy_gpio.h ****     if(pinNum < CY_GPIO_PRT_HALF)
 632:Generated_Source\PSoC6\pdl\drivers/peripheral/gpio/cy_gpio.h ****     {
 633:Generated_Source\PSoC6\pdl\drivers/peripheral/gpio/cy_gpio.h ****         returnValue = (portAddrHSIOM->PORT_SEL0 >> (pinNum << CY_GPIO_HSIOM_OFFSET)) & CY_GPIO_HSIO
 634:Generated_Source\PSoC6\pdl\drivers/peripheral/gpio/cy_gpio.h ****     }
 635:Generated_Source\PSoC6\pdl\drivers/peripheral/gpio/cy_gpio.h ****     else
 636:Generated_Source\PSoC6\pdl\drivers/peripheral/gpio/cy_gpio.h ****     {
 637:Generated_Source\PSoC6\pdl\drivers/peripheral/gpio/cy_gpio.h ****         pinNum -= CY_GPIO_PRT_HALF;
 638:Generated_Source\PSoC6\pdl\drivers/peripheral/gpio/cy_gpio.h ****         returnValue = (portAddrHSIOM->PORT_SEL1 >> (pinNum << CY_GPIO_HSIOM_OFFSET)) & CY_GPIO_HSIO
 639:Generated_Source\PSoC6\pdl\drivers/peripheral/gpio/cy_gpio.h ****     }
 640:Generated_Source\PSoC6\pdl\drivers/peripheral/gpio/cy_gpio.h **** 
 641:Generated_Source\PSoC6\pdl\drivers/peripheral/gpio/cy_gpio.h ****     return (en_hsiom_sel_t)returnValue;
 642:Generated_Source\PSoC6\pdl\drivers/peripheral/gpio/cy_gpio.h **** }
 643:Generated_Source\PSoC6\pdl\drivers/peripheral/gpio/cy_gpio.h **** 
 644:Generated_Source\PSoC6\pdl\drivers/peripheral/gpio/cy_gpio.h **** 
 645:Generated_Source\PSoC6\pdl\drivers/peripheral/gpio/cy_gpio.h **** /*******************************************************************************
 646:Generated_Source\PSoC6\pdl\drivers/peripheral/gpio/cy_gpio.h **** * Function Name: Cy_GPIO_PortToAddr
 647:Generated_Source\PSoC6\pdl\drivers/peripheral/gpio/cy_gpio.h **** ****************************************************************************//**
 648:Generated_Source\PSoC6\pdl\drivers/peripheral/gpio/cy_gpio.h **** *
 649:Generated_Source\PSoC6\pdl\drivers/peripheral/gpio/cy_gpio.h **** * \brief Retrieves the port address based on the given port number.
 650:Generated_Source\PSoC6\pdl\drivers/peripheral/gpio/cy_gpio.h **** *
 651:Generated_Source\PSoC6\pdl\drivers/peripheral/gpio/cy_gpio.h **** * This is a helper function to calculate the port base address when given a port
 652:Generated_Source\PSoC6\pdl\drivers/peripheral/gpio/cy_gpio.h **** * number. It is to be used when pin access needs to be calculated at runtime.
 653:Generated_Source\PSoC6\pdl\drivers/peripheral/gpio/cy_gpio.h **** *
 654:Generated_Source\PSoC6\pdl\drivers/peripheral/gpio/cy_gpio.h **** * \param portNum
 655:Generated_Source\PSoC6\pdl\drivers/peripheral/gpio/cy_gpio.h **** * Port number
 656:Generated_Source\PSoC6\pdl\drivers/peripheral/gpio/cy_gpio.h **** *
 657:Generated_Source\PSoC6\pdl\drivers/peripheral/gpio/cy_gpio.h **** * \return
 658:Generated_Source\PSoC6\pdl\drivers/peripheral/gpio/cy_gpio.h **** * Base address of the port register structure
 659:Generated_Source\PSoC6\pdl\drivers/peripheral/gpio/cy_gpio.h **** *
 660:Generated_Source\PSoC6\pdl\drivers/peripheral/gpio/cy_gpio.h **** * \funcusage
 661:Generated_Source\PSoC6\pdl\drivers/peripheral/gpio/cy_gpio.h **** * \snippet gpio/gpio_v1_10_sut_01.cydsn/main_cm4.c snippet_Cy_GPIO_PortToAddr
 662:Generated_Source\PSoC6\pdl\drivers/peripheral/gpio/cy_gpio.h **** *
 663:Generated_Source\PSoC6\pdl\drivers/peripheral/gpio/cy_gpio.h **** *******************************************************************************/
 664:Generated_Source\PSoC6\pdl\drivers/peripheral/gpio/cy_gpio.h **** __STATIC_INLINE GPIO_PRT_Type* Cy_GPIO_PortToAddr(uint32_t portNum)
 665:Generated_Source\PSoC6\pdl\drivers/peripheral/gpio/cy_gpio.h **** {
 666:Generated_Source\PSoC6\pdl\drivers/peripheral/gpio/cy_gpio.h ****     GPIO_PRT_Type* base;
 667:Generated_Source\PSoC6\pdl\drivers/peripheral/gpio/cy_gpio.h ****     
 668:Generated_Source\PSoC6\pdl\drivers/peripheral/gpio/cy_gpio.h ****     if(portNum < (uint32_t)IOSS_GPIO_GPIO_PORT_NR)
 669:Generated_Source\PSoC6\pdl\drivers/peripheral/gpio/cy_gpio.h ****     {
 670:Generated_Source\PSoC6\pdl\drivers/peripheral/gpio/cy_gpio.h ****          base = (GPIO_PRT_Type *)(GPIO_BASE + (GPIO_PRT_SECTION_SIZE * portNum));
 671:Generated_Source\PSoC6\pdl\drivers/peripheral/gpio/cy_gpio.h ****     }
 672:Generated_Source\PSoC6\pdl\drivers/peripheral/gpio/cy_gpio.h ****     else
 673:Generated_Source\PSoC6\pdl\drivers/peripheral/gpio/cy_gpio.h ****     {
 674:Generated_Source\PSoC6\pdl\drivers/peripheral/gpio/cy_gpio.h ****         /* Error: Return default base address */
 675:Generated_Source\PSoC6\pdl\drivers/peripheral/gpio/cy_gpio.h ****         base = (GPIO_PRT_Type *)(GPIO_BASE);
 676:Generated_Source\PSoC6\pdl\drivers/peripheral/gpio/cy_gpio.h ****     }
ARM GAS  C:\Users\salaz\AppData\Local\Temp\ccI54lrI.s 			page 39


 677:Generated_Source\PSoC6\pdl\drivers/peripheral/gpio/cy_gpio.h **** 
 678:Generated_Source\PSoC6\pdl\drivers/peripheral/gpio/cy_gpio.h ****     return (base);
 679:Generated_Source\PSoC6\pdl\drivers/peripheral/gpio/cy_gpio.h **** }
 680:Generated_Source\PSoC6\pdl\drivers/peripheral/gpio/cy_gpio.h **** 
 681:Generated_Source\PSoC6\pdl\drivers/peripheral/gpio/cy_gpio.h **** /** \} group_gpio_functions_init */
 682:Generated_Source\PSoC6\pdl\drivers/peripheral/gpio/cy_gpio.h **** 
 683:Generated_Source\PSoC6\pdl\drivers/peripheral/gpio/cy_gpio.h **** /**
 684:Generated_Source\PSoC6\pdl\drivers/peripheral/gpio/cy_gpio.h **** * \addtogroup group_gpio_functions_gpio
 685:Generated_Source\PSoC6\pdl\drivers/peripheral/gpio/cy_gpio.h **** * \{
 686:Generated_Source\PSoC6\pdl\drivers/peripheral/gpio/cy_gpio.h **** */
 687:Generated_Source\PSoC6\pdl\drivers/peripheral/gpio/cy_gpio.h **** 
 688:Generated_Source\PSoC6\pdl\drivers/peripheral/gpio/cy_gpio.h **** /*******************************************************************************
 689:Generated_Source\PSoC6\pdl\drivers/peripheral/gpio/cy_gpio.h **** * Function Name: Cy_GPIO_Read
 690:Generated_Source\PSoC6\pdl\drivers/peripheral/gpio/cy_gpio.h **** ****************************************************************************//**
 691:Generated_Source\PSoC6\pdl\drivers/peripheral/gpio/cy_gpio.h **** *
 692:Generated_Source\PSoC6\pdl\drivers/peripheral/gpio/cy_gpio.h **** * \brief Reads the current logic level on the input buffer of the pin.
 693:Generated_Source\PSoC6\pdl\drivers/peripheral/gpio/cy_gpio.h **** *
 694:Generated_Source\PSoC6\pdl\drivers/peripheral/gpio/cy_gpio.h **** * \param base
 695:Generated_Source\PSoC6\pdl\drivers/peripheral/gpio/cy_gpio.h **** * Pointer to the pin's port register base address
 696:Generated_Source\PSoC6\pdl\drivers/peripheral/gpio/cy_gpio.h **** *
 697:Generated_Source\PSoC6\pdl\drivers/peripheral/gpio/cy_gpio.h **** * \param pinNum
 698:Generated_Source\PSoC6\pdl\drivers/peripheral/gpio/cy_gpio.h **** * Position of the pin bit-field within the port register.
 699:Generated_Source\PSoC6\pdl\drivers/peripheral/gpio/cy_gpio.h **** * Bit position 8 is the routed pin through the port glitch filter.
 700:Generated_Source\PSoC6\pdl\drivers/peripheral/gpio/cy_gpio.h **** *
 701:Generated_Source\PSoC6\pdl\drivers/peripheral/gpio/cy_gpio.h **** * \return
 702:Generated_Source\PSoC6\pdl\drivers/peripheral/gpio/cy_gpio.h **** * Logic level present on the pin
 703:Generated_Source\PSoC6\pdl\drivers/peripheral/gpio/cy_gpio.h **** *
 704:Generated_Source\PSoC6\pdl\drivers/peripheral/gpio/cy_gpio.h **** * \funcusage
 705:Generated_Source\PSoC6\pdl\drivers/peripheral/gpio/cy_gpio.h **** * \snippet gpio/gpio_v1_10_sut_01.cydsn/main_cm4.c snippet_Cy_GPIO_Read
 706:Generated_Source\PSoC6\pdl\drivers/peripheral/gpio/cy_gpio.h **** *
 707:Generated_Source\PSoC6\pdl\drivers/peripheral/gpio/cy_gpio.h **** *******************************************************************************/
 708:Generated_Source\PSoC6\pdl\drivers/peripheral/gpio/cy_gpio.h **** __STATIC_INLINE uint32_t Cy_GPIO_Read(GPIO_PRT_Type* base, uint32_t pinNum)
 709:Generated_Source\PSoC6\pdl\drivers/peripheral/gpio/cy_gpio.h **** {
 710:Generated_Source\PSoC6\pdl\drivers/peripheral/gpio/cy_gpio.h ****     CY_ASSERT_L2(CY_GPIO_IS_FILTER_PIN_VALID(pinNum));
 711:Generated_Source\PSoC6\pdl\drivers/peripheral/gpio/cy_gpio.h ****     
 712:Generated_Source\PSoC6\pdl\drivers/peripheral/gpio/cy_gpio.h ****     return (base->IN >> (pinNum)) & CY_GPIO_IN_MASK;
 713:Generated_Source\PSoC6\pdl\drivers/peripheral/gpio/cy_gpio.h **** }
 714:Generated_Source\PSoC6\pdl\drivers/peripheral/gpio/cy_gpio.h **** 
 715:Generated_Source\PSoC6\pdl\drivers/peripheral/gpio/cy_gpio.h **** 
 716:Generated_Source\PSoC6\pdl\drivers/peripheral/gpio/cy_gpio.h **** /*******************************************************************************
 717:Generated_Source\PSoC6\pdl\drivers/peripheral/gpio/cy_gpio.h **** * Function Name: Cy_GPIO_Write
 718:Generated_Source\PSoC6\pdl\drivers/peripheral/gpio/cy_gpio.h **** ****************************************************************************//**
 719:Generated_Source\PSoC6\pdl\drivers/peripheral/gpio/cy_gpio.h **** *
 720:Generated_Source\PSoC6\pdl\drivers/peripheral/gpio/cy_gpio.h **** * \brief Write a logic 0 or logic 1 state to the output driver.
 721:Generated_Source\PSoC6\pdl\drivers/peripheral/gpio/cy_gpio.h **** *
 722:Generated_Source\PSoC6\pdl\drivers/peripheral/gpio/cy_gpio.h **** * This function should be used only for software driven pins. It does not have
 723:Generated_Source\PSoC6\pdl\drivers/peripheral/gpio/cy_gpio.h **** * any effect on peripheral driven pins.
 724:Generated_Source\PSoC6\pdl\drivers/peripheral/gpio/cy_gpio.h **** *
 725:Generated_Source\PSoC6\pdl\drivers/peripheral/gpio/cy_gpio.h **** * \param base
 726:Generated_Source\PSoC6\pdl\drivers/peripheral/gpio/cy_gpio.h **** * Pointer to the pin's port register base address
 727:Generated_Source\PSoC6\pdl\drivers/peripheral/gpio/cy_gpio.h **** *
 728:Generated_Source\PSoC6\pdl\drivers/peripheral/gpio/cy_gpio.h **** * \param pinNum
 729:Generated_Source\PSoC6\pdl\drivers/peripheral/gpio/cy_gpio.h **** * Position of the pin bit-field within the port register
 730:Generated_Source\PSoC6\pdl\drivers/peripheral/gpio/cy_gpio.h **** *
 731:Generated_Source\PSoC6\pdl\drivers/peripheral/gpio/cy_gpio.h **** * \param value
 732:Generated_Source\PSoC6\pdl\drivers/peripheral/gpio/cy_gpio.h **** * Logic level to drive out on the pin
 733:Generated_Source\PSoC6\pdl\drivers/peripheral/gpio/cy_gpio.h **** *
ARM GAS  C:\Users\salaz\AppData\Local\Temp\ccI54lrI.s 			page 40


 734:Generated_Source\PSoC6\pdl\drivers/peripheral/gpio/cy_gpio.h **** * \return
 735:Generated_Source\PSoC6\pdl\drivers/peripheral/gpio/cy_gpio.h **** * void
 736:Generated_Source\PSoC6\pdl\drivers/peripheral/gpio/cy_gpio.h **** *
 737:Generated_Source\PSoC6\pdl\drivers/peripheral/gpio/cy_gpio.h **** * \funcusage
 738:Generated_Source\PSoC6\pdl\drivers/peripheral/gpio/cy_gpio.h **** * \snippet gpio/gpio_v1_10_sut_01.cydsn/main_cm4.c snippet_Cy_GPIO_Write
 739:Generated_Source\PSoC6\pdl\drivers/peripheral/gpio/cy_gpio.h **** *
 740:Generated_Source\PSoC6\pdl\drivers/peripheral/gpio/cy_gpio.h **** *******************************************************************************/
 741:Generated_Source\PSoC6\pdl\drivers/peripheral/gpio/cy_gpio.h **** __STATIC_INLINE void Cy_GPIO_Write(GPIO_PRT_Type* base, uint32_t pinNum, uint32_t value)
 742:Generated_Source\PSoC6\pdl\drivers/peripheral/gpio/cy_gpio.h **** {
 743:Generated_Source\PSoC6\pdl\drivers/peripheral/gpio/cy_gpio.h ****     CY_ASSERT_L2(CY_GPIO_IS_PIN_VALID(pinNum));
 744:Generated_Source\PSoC6\pdl\drivers/peripheral/gpio/cy_gpio.h ****     CY_ASSERT_L2(CY_GPIO_IS_VALUE_VALID(value));
 745:Generated_Source\PSoC6\pdl\drivers/peripheral/gpio/cy_gpio.h **** 
 746:Generated_Source\PSoC6\pdl\drivers/peripheral/gpio/cy_gpio.h ****     /* Thread-safe: Directly access the pin registers instead of base->OUT */
 747:Generated_Source\PSoC6\pdl\drivers/peripheral/gpio/cy_gpio.h ****     if(0UL == value)
 748:Generated_Source\PSoC6\pdl\drivers/peripheral/gpio/cy_gpio.h ****     {
 749:Generated_Source\PSoC6\pdl\drivers/peripheral/gpio/cy_gpio.h ****         base->OUT_CLR = CY_GPIO_OUT_MASK << pinNum;
 750:Generated_Source\PSoC6\pdl\drivers/peripheral/gpio/cy_gpio.h ****     }
 751:Generated_Source\PSoC6\pdl\drivers/peripheral/gpio/cy_gpio.h ****     else
 752:Generated_Source\PSoC6\pdl\drivers/peripheral/gpio/cy_gpio.h ****     {
 753:Generated_Source\PSoC6\pdl\drivers/peripheral/gpio/cy_gpio.h ****         base->OUT_SET = CY_GPIO_OUT_MASK << pinNum;
 544              		.loc 3 753 0
 545 0244 434B     		ldr	r3, .L56+52
 546 0246 0822     		movs	r2, #8
 547 0248 9A60     		str	r2, [r3, #8]
 548              	.LVL39:
 549              	.LBE119:
 550              	.LBE118:
 551              	.LBB120:
 552              	.LBB121:
 553 024a 1832     		adds	r2, r2, #24
 554 024c 9A60     		str	r2, [r3, #8]
 555              	.LVL40:
 556              	.LBE121:
 557              	.LBE120:
 558              	.LBB122:
 559              	.LBB123:
 749:Generated_Source\PSoC6\pdl\drivers/peripheral/gpio/cy_gpio.h ****     }
 560              		.loc 3 749 0
 561 024e 2032     		adds	r2, r2, #32
 562 0250 414B     		ldr	r3, .L56+56
 563 0252 5A60     		str	r2, [r3, #4]
 564              	.LVL41:
 565              	.LBE123:
 566              	.LBE122:
 190:AppControl.c  ****                 {
 191:AppControl.c  ****                     case FSM_CHECK_MOTION:
 192:AppControl.c  ****                     {
 193:AppControl.c  ****                         //turn on yellow led
 194:AppControl.c  ****                         Cy_GPIO_Write(Red_0_PORT   , Red_0_NUM,1);
 195:AppControl.c  ****                         Cy_GPIO_Write(Green_0_PORT , Green_0_NUM,1);
 196:AppControl.c  ****                         Cy_GPIO_Write(Blue_0_PORT  , Blue_0_NUM,0);
 197:AppControl.c  ****                         KinOS_SetupTimerA(10000);
 567              		.loc 1 197 0
 568 0254 4148     		ldr	r0, .L56+60
 569 0256 FFF7FEFF 		bl	KinOS_SetupTimerA
 570              	.LVL42:
 198:AppControl.c  ****                         KinOS_SetupTimerB(4000);
ARM GAS  C:\Users\salaz\AppData\Local\Temp\ccI54lrI.s 			page 41


 571              		.loc 1 198 0
 572 025a FA20     		movs	r0, #250
 573 025c 0001     		lsls	r0, r0, #4
 574 025e FFF7FEFF 		bl	KinOS_SetupTimerB
 575              	.LVL43:
 199:AppControl.c  ****                         motion_latch = true;
 576              		.loc 1 199 0
 577 0262 0122     		movs	r2, #1
 578 0264 2E4B     		ldr	r3, .L56
 579 0266 9A70     		strb	r2, [r3, #2]
 200:AppControl.c  ****                         break;
 580              		.loc 1 200 0
 581 0268 E6E0     		b	.L29
 582              	.L33:
 201:AppControl.c  ****                     }
 202:AppControl.c  ****                 }
 203:AppControl.c  ****                 break;
 204:AppControl.c  ****             }
 205:AppControl.c  ****             case FSM_CHECK_MOTION:
 206:AppControl.c  ****             {
 207:AppControl.c  ****                 switch(next_state)
 583              		.loc 1 207 0
 584 026a 2D4B     		ldr	r3, .L56
 585 026c 5B78     		ldrb	r3, [r3, #1]
 586 026e 012B     		cmp	r3, #1
 587 0270 02D0     		beq	.L41
 588 0272 032B     		cmp	r3, #3
 589 0274 09D0     		beq	.L42
 590 0276 DFE0     		b	.L29
 591              	.L41:
 592              	.LVL44:
 593              	.LBB124:
 594              	.LBB125:
 749:Generated_Source\PSoC6\pdl\drivers/peripheral/gpio/cy_gpio.h ****     }
 595              		.loc 3 749 0
 596 0278 364B     		ldr	r3, .L56+52
 597 027a 0822     		movs	r2, #8
 598 027c 5A60     		str	r2, [r3, #4]
 599              	.LVL45:
 600              	.LBE125:
 601              	.LBE124:
 602              	.LBB126:
 603              	.LBB127:
 604 027e 1832     		adds	r2, r2, #24
 605 0280 5A60     		str	r2, [r3, #4]
 606              	.LVL46:
 607              	.LBE127:
 608              	.LBE126:
 609              	.LBB128:
 610              	.LBB129:
 611              		.loc 3 753 0
 612 0282 2032     		adds	r2, r2, #32
 613 0284 344B     		ldr	r3, .L56+56
 614 0286 9A60     		str	r2, [r3, #8]
 615 0288 D6E0     		b	.L29
 616              	.LVL47:
 617              	.L42:
ARM GAS  C:\Users\salaz\AppData\Local\Temp\ccI54lrI.s 			page 42


 618              	.LBE129:
 619              	.LBE128:
 620              	.LBB130:
 621              	.LBB131:
 622 028a 324B     		ldr	r3, .L56+52
 623 028c 0822     		movs	r2, #8
 624 028e 9A60     		str	r2, [r3, #8]
 625              	.LVL48:
 626              	.LBE131:
 627              	.LBE130:
 628              	.LBB132:
 629              	.LBB133:
 630 0290 1832     		adds	r2, r2, #24
 631 0292 9A60     		str	r2, [r3, #8]
 632              	.LVL49:
 633              	.LBE133:
 634              	.LBE132:
 635              	.LBB134:
 636              	.LBB135:
 637 0294 2032     		adds	r2, r2, #32
 638 0296 304B     		ldr	r3, .L56+56
 639 0298 9A60     		str	r2, [r3, #8]
 640              	.LVL50:
 641              	.LBE135:
 642              	.LBE134:
 208:AppControl.c  ****                 {
 209:AppControl.c  ****                     case FSM_IDLE:
 210:AppControl.c  ****                     {
 211:AppControl.c  ****                         //turn on blue led
 212:AppControl.c  ****                         Cy_GPIO_Write(Red_0_PORT   , Red_0_NUM,0);
 213:AppControl.c  ****                         Cy_GPIO_Write(Green_0_PORT , Green_0_NUM,0);
 214:AppControl.c  ****                         Cy_GPIO_Write(Blue_0_PORT  , Blue_0_NUM,1);
 215:AppControl.c  ****                         break;
 216:AppControl.c  ****                     }
 217:AppControl.c  ****                     
 218:AppControl.c  ****                     case FSM_VERIFY_USER:
 219:AppControl.c  ****                     {
 220:AppControl.c  ****                         //turn on white led
 221:AppControl.c  ****                         Cy_GPIO_Write(Red_0_PORT   , Red_0_NUM,1);
 222:AppControl.c  ****                         Cy_GPIO_Write(Green_0_PORT , Green_0_NUM,1);
 223:AppControl.c  ****                         Cy_GPIO_Write(Blue_0_PORT  , Blue_0_NUM,1);
 224:AppControl.c  ****                         KinOS_ConfigureLight(BLUE,BOUNCE,verifyLightCycles,255);
 643              		.loc 1 224 0
 644 029a 2A4C     		ldr	r4, .L56+36
 645 029c 2279     		ldrb	r2, [r4, #4]
 646 029e FF23     		movs	r3, #255
 647 02a0 0121     		movs	r1, #1
 648 02a2 0420     		movs	r0, #4
 649 02a4 FFF7FEFF 		bl	KinOS_ConfigureLight
 650              	.LVL51:
 225:AppControl.c  ****                         KinOS_Advertise(verifyAdvertise_s,50);
 651              		.loc 1 225 0
 652 02a8 E088     		ldrh	r0, [r4, #6]
 653 02aa 3221     		movs	r1, #50
 654 02ac FFF7FEFF 		bl	KinOS_Advertise
 655              	.LVL52:
 226:AppControl.c  ****                         break;
ARM GAS  C:\Users\salaz\AppData\Local\Temp\ccI54lrI.s 			page 43


 656              		.loc 1 226 0
 657 02b0 C2E0     		b	.L29
 658              	.L34:
 227:AppControl.c  ****                     }
 228:AppControl.c  ****                 }
 229:AppControl.c  ****                 break;
 230:AppControl.c  ****             }
 231:AppControl.c  ****             case FSM_VERIFY_USER:
 232:AppControl.c  ****             {
 233:AppControl.c  ****                 switch(next_state)
 659              		.loc 1 233 0
 660 02b2 1B4B     		ldr	r3, .L56
 661 02b4 5B78     		ldrb	r3, [r3, #1]
 662 02b6 042B     		cmp	r3, #4
 663 02b8 05D0     		beq	.L43
 664 02ba 072B     		cmp	r3, #7
 665 02bc 1BD0     		beq	.L44
 666 02be 012B     		cmp	r3, #1
 667 02c0 00D0     		beq	.LCB641
 668 02c2 B9E0     		b	.L29	@long jump
 669              	.LCB641:
 670 02c4 23E0     		b	.L45
 671              	.L43:
 672              	.LVL53:
 673              	.LBB136:
 674              	.LBB137:
 675              		.loc 3 753 0
 676 02c6 234B     		ldr	r3, .L56+52
 677 02c8 0822     		movs	r2, #8
 678 02ca 9A60     		str	r2, [r3, #8]
 679              	.LVL54:
 680              	.LBE137:
 681              	.LBE136:
 682              	.LBB138:
 683              	.LBB139:
 749:Generated_Source\PSoC6\pdl\drivers/peripheral/gpio/cy_gpio.h ****     }
 684              		.loc 3 749 0
 685 02cc 1832     		adds	r2, r2, #24
 686 02ce 5A60     		str	r2, [r3, #4]
 687              	.LVL55:
 688              	.LBE139:
 689              	.LBE138:
 690              	.LBB140:
 691              	.LBB141:
 692 02d0 2032     		adds	r2, r2, #32
 693 02d2 214B     		ldr	r3, .L56+56
 694 02d4 5A60     		str	r2, [r3, #4]
 695              	.LVL56:
 696              	.LBE141:
 697              	.LBE140:
 234:AppControl.c  ****                 {
 235:AppControl.c  ****                     case FSM_STOLEN:
 236:AppControl.c  ****                     {
 237:AppControl.c  ****                         //turn on red led
 238:AppControl.c  ****                         Cy_GPIO_Write(Red_0_PORT   , Red_0_NUM,1);
 239:AppControl.c  ****                         Cy_GPIO_Write(Green_0_PORT , Green_0_NUM,0);
 240:AppControl.c  ****                         Cy_GPIO_Write(Blue_0_PORT  , Blue_0_NUM,0);
ARM GAS  C:\Users\salaz\AppData\Local\Temp\ccI54lrI.s 			page 44


 241:AppControl.c  ****                         KinOS_ConfigureChime(BOOBOO,stolenLightCycles);
 698              		.loc 1 241 0
 699 02d6 1B4C     		ldr	r4, .L56+36
 700 02d8 217A     		ldrb	r1, [r4, #8]
 701 02da 0220     		movs	r0, #2
 702 02dc FFF7FEFF 		bl	KinOS_ConfigureChime
 703              	.LVL57:
 242:AppControl.c  ****                         KinOS_ConfigureLight(RED,SMOOTH,stolenLightCycles,255);
 704              		.loc 1 242 0
 705 02e0 227A     		ldrb	r2, [r4, #8]
 706 02e2 FF23     		movs	r3, #255
 707 02e4 0021     		movs	r1, #0
 708 02e6 0020     		movs	r0, #0
 709 02e8 FFF7FEFF 		bl	KinOS_ConfigureLight
 710              	.LVL58:
 243:AppControl.c  ****                         KinOS_Advertise(stolenAdvertise_s,50);
 711              		.loc 1 243 0
 712 02ec 6089     		ldrh	r0, [r4, #10]
 713 02ee 3221     		movs	r1, #50
 714 02f0 FFF7FEFF 		bl	KinOS_Advertise
 715              	.LVL59:
 244:AppControl.c  ****                         break;
 716              		.loc 1 244 0
 717 02f4 A0E0     		b	.L29
 718              	.L44:
 719              	.LVL60:
 720              	.LBB142:
 721              	.LBB143:
 749:Generated_Source\PSoC6\pdl\drivers/peripheral/gpio/cy_gpio.h ****     }
 722              		.loc 3 749 0
 723 02f6 174B     		ldr	r3, .L56+52
 724 02f8 0822     		movs	r2, #8
 725 02fa 5A60     		str	r2, [r3, #4]
 726              	.LVL61:
 727              	.LBE143:
 728              	.LBE142:
 729              	.LBB144:
 730              	.LBB145:
 731              		.loc 3 753 0
 732 02fc 1832     		adds	r2, r2, #24
 733 02fe 9A60     		str	r2, [r3, #8]
 734              	.LVL62:
 735              	.LBE145:
 736              	.LBE144:
 737              	.LBB146:
 738              	.LBB147:
 749:Generated_Source\PSoC6\pdl\drivers/peripheral/gpio/cy_gpio.h ****     }
 739              		.loc 3 749 0
 740 0300 2032     		adds	r2, r2, #32
 741 0302 154B     		ldr	r3, .L56+56
 742 0304 5A60     		str	r2, [r3, #4]
 743              	.LVL63:
 744              	.LBE147:
 745              	.LBE146:
 245:AppControl.c  ****                     }
 246:AppControl.c  ****                     case FSM_RIDE:
 247:AppControl.c  ****                     {
ARM GAS  C:\Users\salaz\AppData\Local\Temp\ccI54lrI.s 			page 45


 248:AppControl.c  ****                         //turn on green
 249:AppControl.c  ****                         Cy_GPIO_Write(Red_0_PORT   , Red_0_NUM,0);
 250:AppControl.c  ****                         Cy_GPIO_Write(Green_0_PORT , Green_0_NUM,1);
 251:AppControl.c  ****                         Cy_GPIO_Write(Blue_0_PORT  , Blue_0_NUM,0);
 252:AppControl.c  ****                         KinOS_SetupTimerA(5);
 746              		.loc 1 252 0
 747 0306 0520     		movs	r0, #5
 748 0308 FFF7FEFF 		bl	KinOS_SetupTimerA
 749              	.LVL64:
 253:AppControl.c  ****                         break;
 750              		.loc 1 253 0
 751 030c 94E0     		b	.L29
 752              	.L45:
 753              	.LVL65:
 754              	.LBB148:
 755              	.LBB149:
 749:Generated_Source\PSoC6\pdl\drivers/peripheral/gpio/cy_gpio.h ****     }
 756              		.loc 3 749 0
 757 030e 114B     		ldr	r3, .L56+52
 758 0310 0822     		movs	r2, #8
 759 0312 5A60     		str	r2, [r3, #4]
 760              	.LVL66:
 761              	.LBE149:
 762              	.LBE148:
 763              	.LBB150:
 764              	.LBB151:
 765 0314 1832     		adds	r2, r2, #24
 766 0316 5A60     		str	r2, [r3, #4]
 767              	.LVL67:
 768              	.LBE151:
 769              	.LBE150:
 770              	.LBB152:
 771              	.LBB153:
 772              		.loc 3 753 0
 773 0318 2032     		adds	r2, r2, #32
 774 031a 0F4B     		ldr	r3, .L56+56
 775 031c 9A60     		str	r2, [r3, #8]
 776 031e 8BE0     		b	.L29
 777              	.L57:
 778              		.align	2
 779              	.L56:
 780 0320 00000000 		.word	.LANCHOR0
 781 0324 00000000 		.word	.L4
 782 0328 00000000 		.word	.LC2
 783 032c 00006640 		.word	1080426496
 784 0330 10000000 		.word	.LC4
 785 0334 1C000000 		.word	.LC6
 786 0338 30000000 		.word	.LC8
 787 033c 44000000 		.word	.LC10
 788 0340 50000000 		.word	.LC12
 789 0344 00000000 		.word	.LANCHOR1
 790 0348 5C000000 		.word	.LC15
 791 034c 68000000 		.word	.LC17
 792 0350 20000000 		.word	.L31
 793 0354 80023240 		.word	1077019264
 794 0358 00063240 		.word	1077020160
 795 035c 10270000 		.word	10000
ARM GAS  C:\Users\salaz\AppData\Local\Temp\ccI54lrI.s 			page 46


 796              	.LVL68:
 797              	.L35:
 798              	.LBE153:
 799              	.LBE152:
 254:AppControl.c  ****                     }
 255:AppControl.c  ****                     
 256:AppControl.c  ****                     case FSM_IDLE:
 257:AppControl.c  ****                     {
 258:AppControl.c  ****                         //turn on blue led
 259:AppControl.c  ****                         Cy_GPIO_Write(Red_0_PORT   , Red_0_NUM,0);
 260:AppControl.c  ****                         Cy_GPIO_Write(Green_0_PORT , Green_0_NUM,0);
 261:AppControl.c  ****                         Cy_GPIO_Write(Blue_0_PORT  , Blue_0_NUM,1);
 262:AppControl.c  ****                         break;
 263:AppControl.c  ****                     }
 264:AppControl.c  ****                 }
 265:AppControl.c  ****                 break;
 266:AppControl.c  ****             }
 267:AppControl.c  ****             case FSM_STOLEN:
 268:AppControl.c  ****             {
 269:AppControl.c  ****                 switch(next_state)
 800              		.loc 1 269 0
 801 0360 404B     		ldr	r3, .L58
 802 0362 5B78     		ldrb	r3, [r3, #1]
 803 0364 042B     		cmp	r3, #4
 804 0366 16D0     		beq	.L46
 805 0368 072B     		cmp	r3, #7
 806 036a 24D0     		beq	.L47
 807 036c 012B     		cmp	r3, #1
 808 036e 63D1     		bne	.L29
 809              	.LVL69:
 810              	.LBB154:
 811              	.LBB155:
 749:Generated_Source\PSoC6\pdl\drivers/peripheral/gpio/cy_gpio.h ****     }
 812              		.loc 3 749 0
 813 0370 3D4B     		ldr	r3, .L58+4
 814 0372 0822     		movs	r2, #8
 815 0374 5A60     		str	r2, [r3, #4]
 816              	.LVL70:
 817              	.LBE155:
 818              	.LBE154:
 819              	.LBB156:
 820              	.LBB157:
 821 0376 1832     		adds	r2, r2, #24
 822 0378 5A60     		str	r2, [r3, #4]
 823              	.LVL71:
 824              	.LBE157:
 825              	.LBE156:
 826              	.LBB158:
 827              	.LBB159:
 828              		.loc 3 753 0
 829 037a 2032     		adds	r2, r2, #32
 830 037c 3B4B     		ldr	r3, .L58+8
 831 037e 9A60     		str	r2, [r3, #8]
 832              	.LVL72:
 833              	.LBE159:
 834              	.LBE158:
 270:AppControl.c  ****                 {
ARM GAS  C:\Users\salaz\AppData\Local\Temp\ccI54lrI.s 			page 47


 271:AppControl.c  ****                     case FSM_IDLE:
 272:AppControl.c  ****                     {
 273:AppControl.c  ****                         //turn on blue led
 274:AppControl.c  ****                         Cy_GPIO_Write(Red_0_PORT   , Red_0_NUM,0);
 275:AppControl.c  ****                         Cy_GPIO_Write(Green_0_PORT , Green_0_NUM,0);
 276:AppControl.c  ****                         Cy_GPIO_Write(Blue_0_PORT  , Blue_0_NUM,1);
 277:AppControl.c  ****                         KinOS_ConfigureChime(BOOBOO,0);
 835              		.loc 1 277 0
 836 0380 0021     		movs	r1, #0
 837 0382 0220     		movs	r0, #2
 838 0384 FFF7FEFF 		bl	KinOS_ConfigureChime
 839              	.LVL73:
 278:AppControl.c  ****                         KinOS_ConfigureLight(WHITE,SMOOTH,0,0);
 840              		.loc 1 278 0
 841 0388 0023     		movs	r3, #0
 842 038a 0022     		movs	r2, #0
 843 038c 0021     		movs	r1, #0
 844 038e 0620     		movs	r0, #6
 845 0390 FFF7FEFF 		bl	KinOS_ConfigureLight
 846              	.LVL74:
 279:AppControl.c  ****                         break;
 847              		.loc 1 279 0
 848 0394 50E0     		b	.L29
 849              	.L46:
 280:AppControl.c  ****                     }
 281:AppControl.c  ****                     case FSM_STOLEN:
 282:AppControl.c  ****                     {
 283:AppControl.c  ****                         KinOS_ConfigureChime(BOOBOO,rideNightCheck_ms);
 850              		.loc 1 283 0
 851 0396 364C     		ldr	r4, .L58+12
 852 0398 217B     		ldrb	r1, [r4, #12]
 853 039a 0220     		movs	r0, #2
 854 039c FFF7FEFF 		bl	KinOS_ConfigureChime
 855              	.LVL75:
 284:AppControl.c  ****                         KinOS_ConfigureLight(RED,SMOOTH,stolenLightCycles,255);
 856              		.loc 1 284 0
 857 03a0 227A     		ldrb	r2, [r4, #8]
 858 03a2 FF23     		movs	r3, #255
 859 03a4 0021     		movs	r1, #0
 860 03a6 0020     		movs	r0, #0
 861 03a8 FFF7FEFF 		bl	KinOS_ConfigureLight
 862              	.LVL76:
 285:AppControl.c  ****                         KinOS_Advertise(stolenAdvertise_s,50);
 863              		.loc 1 285 0
 864 03ac 6089     		ldrh	r0, [r4, #10]
 865 03ae 3221     		movs	r1, #50
 866 03b0 FFF7FEFF 		bl	KinOS_Advertise
 867              	.LVL77:
 286:AppControl.c  ****                         break;
 868              		.loc 1 286 0
 869 03b4 40E0     		b	.L29
 870              	.L47:
 287:AppControl.c  ****                     }
 288:AppControl.c  ****                     case FSM_RIDE:
 289:AppControl.c  ****                     {
 290:AppControl.c  ****                         KinOS_SetupTimerA(5);
 871              		.loc 1 290 0
ARM GAS  C:\Users\salaz\AppData\Local\Temp\ccI54lrI.s 			page 48


 872 03b6 0520     		movs	r0, #5
 873 03b8 FFF7FEFF 		bl	KinOS_SetupTimerA
 874              	.LVL78:
 291:AppControl.c  ****                         break;
 875              		.loc 1 291 0
 876 03bc 3CE0     		b	.L29
 877              	.L38:
 292:AppControl.c  ****                     }
 293:AppControl.c  ****                 }
 294:AppControl.c  ****                 break;
 295:AppControl.c  ****             }
 296:AppControl.c  ****             case FSM_RIDE:
 297:AppControl.c  ****             {
 298:AppControl.c  ****                 switch(next_state)
 878              		.loc 1 298 0
 879 03be 294B     		ldr	r3, .L58
 880 03c0 5B78     		ldrb	r3, [r3, #1]
 881 03c2 052B     		cmp	r3, #5
 882 03c4 04D0     		beq	.L49
 883 03c6 062B     		cmp	r3, #6
 884 03c8 09D0     		beq	.L50
 885 03ca 012B     		cmp	r3, #1
 886 03cc 34D1     		bne	.L29
 887 03ce 11E0     		b	.L51
 888              	.L49:
 299:AppControl.c  ****                 {
 300:AppControl.c  ****                     case FSM_DAY:
 301:AppControl.c  ****                     {
 302:AppControl.c  ****                         KinOS_ConfigureLight(WHITE,BYPASS,0,0);
 889              		.loc 1 302 0
 890 03d0 0023     		movs	r3, #0
 891 03d2 0022     		movs	r2, #0
 892 03d4 0321     		movs	r1, #3
 893 03d6 0620     		movs	r0, #6
 894 03d8 FFF7FEFF 		bl	KinOS_ConfigureLight
 895              	.LVL79:
 303:AppControl.c  ****                         break;
 896              		.loc 1 303 0
 897 03dc 2CE0     		b	.L29
 898              	.L50:
 304:AppControl.c  ****                     }
 305:AppControl.c  ****                     case FSM_NIGHT:
 306:AppControl.c  ****                     {
 307:AppControl.c  ****                         KinOS_ConfigureLight(WHITE,BYPASS,30,255);
 899              		.loc 1 307 0
 900 03de FF23     		movs	r3, #255
 901 03e0 1E22     		movs	r2, #30
 902 03e2 0321     		movs	r1, #3
 903 03e4 0620     		movs	r0, #6
 904 03e6 FFF7FEFF 		bl	KinOS_ConfigureLight
 905              	.LVL80:
 308:AppControl.c  ****                         KinOS_BypassSettings(WHITE,255);
 906              		.loc 1 308 0
 907 03ea FF21     		movs	r1, #255
 908 03ec 0620     		movs	r0, #6
 909 03ee FFF7FEFF 		bl	KinOS_BypassSettings
 910              	.LVL81:
ARM GAS  C:\Users\salaz\AppData\Local\Temp\ccI54lrI.s 			page 49


 309:AppControl.c  ****                         break;
 911              		.loc 1 309 0
 912 03f2 21E0     		b	.L29
 913              	.L51:
 914              	.LVL82:
 915              	.LBB160:
 916              	.LBB161:
 749:Generated_Source\PSoC6\pdl\drivers/peripheral/gpio/cy_gpio.h ****     }
 917              		.loc 3 749 0
 918 03f4 1C4B     		ldr	r3, .L58+4
 919 03f6 0822     		movs	r2, #8
 920 03f8 5A60     		str	r2, [r3, #4]
 921              	.LVL83:
 922              	.LBE161:
 923              	.LBE160:
 924              	.LBB162:
 925              	.LBB163:
 926 03fa 1832     		adds	r2, r2, #24
 927 03fc 5A60     		str	r2, [r3, #4]
 928              	.LVL84:
 929              	.LBE163:
 930              	.LBE162:
 931              	.LBB164:
 932              	.LBB165:
 933              		.loc 3 753 0
 934 03fe 2032     		adds	r2, r2, #32
 935 0400 1A4B     		ldr	r3, .L58+8
 936 0402 9A60     		str	r2, [r3, #8]
 937              	.LVL85:
 938              	.LBE165:
 939              	.LBE164:
 310:AppControl.c  ****                     }
 311:AppControl.c  ****                     case FSM_IDLE:
 312:AppControl.c  ****                     {
 313:AppControl.c  ****                         //turn on blue led
 314:AppControl.c  ****                         Cy_GPIO_Write(Red_0_PORT   , Red_0_NUM,0);
 315:AppControl.c  ****                         Cy_GPIO_Write(Green_0_PORT , Green_0_NUM,0);
 316:AppControl.c  ****                         Cy_GPIO_Write(Blue_0_PORT  , Blue_0_NUM,1);
 317:AppControl.c  ****                         KinOS_ConfigureLight(WHITE,BYPASS,0,0);
 940              		.loc 1 317 0
 941 0404 0023     		movs	r3, #0
 942 0406 0022     		movs	r2, #0
 943 0408 0321     		movs	r1, #3
 944 040a 0620     		movs	r0, #6
 945 040c FFF7FEFF 		bl	KinOS_ConfigureLight
 946              	.LVL86:
 318:AppControl.c  ****                         KinOS_Disconnect();
 947              		.loc 1 318 0
 948 0410 FFF7FEFF 		bl	KinOS_Disconnect
 949              	.LVL87:
 319:AppControl.c  ****                         break;
 950              		.loc 1 319 0
 951 0414 10E0     		b	.L29
 952              	.L36:
 320:AppControl.c  ****                     }
 321:AppControl.c  ****                 }
 322:AppControl.c  ****                 break;
ARM GAS  C:\Users\salaz\AppData\Local\Temp\ccI54lrI.s 			page 50


 323:AppControl.c  ****             }
 324:AppControl.c  ****             case FSM_DAY:
 325:AppControl.c  ****             {
 326:AppControl.c  ****                 switch(next_state)
 953              		.loc 1 326 0
 954 0416 134B     		ldr	r3, .L58
 955 0418 5B78     		ldrb	r3, [r3, #1]
 956 041a 072B     		cmp	r3, #7
 957 041c 0CD1     		bne	.L29
 327:AppControl.c  ****                 {
 328:AppControl.c  ****                     case FSM_RIDE:
 329:AppControl.c  ****                     {
 330:AppControl.c  ****                         KinOS_SetupTimerA(rideNightCheck_ms);
 958              		.loc 1 330 0
 959 041e 144B     		ldr	r3, .L58+12
 960 0420 D868     		ldr	r0, [r3, #12]
 961 0422 FFF7FEFF 		bl	KinOS_SetupTimerA
 962              	.LVL88:
 331:AppControl.c  ****                         break;
 963              		.loc 1 331 0
 964 0426 07E0     		b	.L29
 965              	.L37:
 332:AppControl.c  ****                     }
 333:AppControl.c  ****                 }
 334:AppControl.c  ****                 break;
 335:AppControl.c  ****             }
 336:AppControl.c  ****             case FSM_NIGHT:
 337:AppControl.c  ****             {
 338:AppControl.c  ****                 switch(next_state)
 966              		.loc 1 338 0
 967 0428 0E4B     		ldr	r3, .L58
 968 042a 5B78     		ldrb	r3, [r3, #1]
 969 042c 072B     		cmp	r3, #7
 970 042e 03D1     		bne	.L29
 339:AppControl.c  ****                 {
 340:AppControl.c  ****                     case FSM_RIDE:
 341:AppControl.c  ****                     {
 342:AppControl.c  ****                         KinOS_SetupTimerA(rideNightCheck_ms);
 971              		.loc 1 342 0
 972 0430 0F4B     		ldr	r3, .L58+12
 973 0432 D868     		ldr	r0, [r3, #12]
 974 0434 FFF7FEFF 		bl	KinOS_SetupTimerA
 975              	.LVL89:
 976              	.L29:
 343:AppControl.c  ****                         break;
 344:AppControl.c  ****                     }
 345:AppControl.c  ****                 }
 346:AppControl.c  ****                 break;
 347:AppControl.c  ****             }
 348:AppControl.c  ****         }
 349:AppControl.c  ****         //-----------------------------------------------------//
 350:AppControl.c  ****         //-----------------------------------------------------//
 351:AppControl.c  ****         
 352:AppControl.c  ****         update_done = (current_state == next_state);
 977              		.loc 1 352 0
 978 0438 0A4B     		ldr	r3, .L58
 979 043a 1978     		ldrb	r1, [r3]
ARM GAS  C:\Users\salaz\AppData\Local\Temp\ccI54lrI.s 			page 51


 980 043c 5A78     		ldrb	r2, [r3, #1]
 981              	.LVL90:
 353:AppControl.c  ****         current_state = next_state; // Update state
 982              		.loc 1 353 0
 983 043e 1A70     		strb	r2, [r3]
 354:AppControl.c  ****     }
 355:AppControl.c  ****     while(!update_done);
 984              		.loc 1 355 0
 985 0440 9142     		cmp	r1, r2
 986 0442 00D0     		beq	.LCB1020
 987 0444 DEE5     		b	.L54	@long jump
 988              	.LCB1020:
 356:AppControl.c  ****     NVIC_ClearPendingIRQ(AppControl_IRQ_cfg.intrSrc);
 989              		.loc 1 356 0
 990 0446 0B4B     		ldr	r3, .L58+16
 991 0448 0022     		movs	r2, #0
 992 044a 9A5E     		ldrsh	r2, [r3, r2]
 993              	.LVL91:
 994              	.LBB166:
 995              	.LBB167:
 996              		.file 4 "Generated_Source\\PSoC6\\pdl\\cmsis/include/core_cm0plus.h"
   1:Generated_Source\PSoC6\pdl\cmsis/include/core_cm0plus.h **** /**************************************************************************//**
   2:Generated_Source\PSoC6\pdl\cmsis/include/core_cm0plus.h ****  * @file     core_cm0plus.h
   3:Generated_Source\PSoC6\pdl\cmsis/include/core_cm0plus.h ****  * @brief    CMSIS Cortex-M0+ Core Peripheral Access Layer Header File
   4:Generated_Source\PSoC6\pdl\cmsis/include/core_cm0plus.h ****  * @version  V5.0.1
   5:Generated_Source\PSoC6\pdl\cmsis/include/core_cm0plus.h ****  * @date     25. November 2016
   6:Generated_Source\PSoC6\pdl\cmsis/include/core_cm0plus.h ****  ******************************************************************************/
   7:Generated_Source\PSoC6\pdl\cmsis/include/core_cm0plus.h **** /*
   8:Generated_Source\PSoC6\pdl\cmsis/include/core_cm0plus.h ****  * Copyright (c) 2009-2016 ARM Limited. All rights reserved.
   9:Generated_Source\PSoC6\pdl\cmsis/include/core_cm0plus.h ****  *
  10:Generated_Source\PSoC6\pdl\cmsis/include/core_cm0plus.h ****  * SPDX-License-Identifier: Apache-2.0
  11:Generated_Source\PSoC6\pdl\cmsis/include/core_cm0plus.h ****  *
  12:Generated_Source\PSoC6\pdl\cmsis/include/core_cm0plus.h ****  * Licensed under the Apache License, Version 2.0 (the License); you may
  13:Generated_Source\PSoC6\pdl\cmsis/include/core_cm0plus.h ****  * not use this file except in compliance with the License.
  14:Generated_Source\PSoC6\pdl\cmsis/include/core_cm0plus.h ****  * You may obtain a copy of the License at
  15:Generated_Source\PSoC6\pdl\cmsis/include/core_cm0plus.h ****  *
  16:Generated_Source\PSoC6\pdl\cmsis/include/core_cm0plus.h ****  * www.apache.org/licenses/LICENSE-2.0
  17:Generated_Source\PSoC6\pdl\cmsis/include/core_cm0plus.h ****  *
  18:Generated_Source\PSoC6\pdl\cmsis/include/core_cm0plus.h ****  * Unless required by applicable law or agreed to in writing, software
  19:Generated_Source\PSoC6\pdl\cmsis/include/core_cm0plus.h ****  * distributed under the License is distributed on an AS IS BASIS, WITHOUT
  20:Generated_Source\PSoC6\pdl\cmsis/include/core_cm0plus.h ****  * WARRANTIES OR CONDITIONS OF ANY KIND, either express or implied.
  21:Generated_Source\PSoC6\pdl\cmsis/include/core_cm0plus.h ****  * See the License for the specific language governing permissions and
  22:Generated_Source\PSoC6\pdl\cmsis/include/core_cm0plus.h ****  * limitations under the License.
  23:Generated_Source\PSoC6\pdl\cmsis/include/core_cm0plus.h ****  */
  24:Generated_Source\PSoC6\pdl\cmsis/include/core_cm0plus.h **** 
  25:Generated_Source\PSoC6\pdl\cmsis/include/core_cm0plus.h **** #if   defined ( __ICCARM__ )
  26:Generated_Source\PSoC6\pdl\cmsis/include/core_cm0plus.h ****  #pragma system_include         /* treat file as system include file for MISRA check */
  27:Generated_Source\PSoC6\pdl\cmsis/include/core_cm0plus.h **** #elif defined (__ARMCC_VERSION) && (__ARMCC_VERSION >= 6010050)
  28:Generated_Source\PSoC6\pdl\cmsis/include/core_cm0plus.h ****   #pragma clang system_header   /* treat file as system include file */
  29:Generated_Source\PSoC6\pdl\cmsis/include/core_cm0plus.h **** #endif
  30:Generated_Source\PSoC6\pdl\cmsis/include/core_cm0plus.h **** 
  31:Generated_Source\PSoC6\pdl\cmsis/include/core_cm0plus.h **** #ifndef __CORE_CM0PLUS_H_GENERIC
  32:Generated_Source\PSoC6\pdl\cmsis/include/core_cm0plus.h **** #define __CORE_CM0PLUS_H_GENERIC
  33:Generated_Source\PSoC6\pdl\cmsis/include/core_cm0plus.h **** 
  34:Generated_Source\PSoC6\pdl\cmsis/include/core_cm0plus.h **** #include <stdint.h>
  35:Generated_Source\PSoC6\pdl\cmsis/include/core_cm0plus.h **** 
  36:Generated_Source\PSoC6\pdl\cmsis/include/core_cm0plus.h **** #ifdef __cplusplus
ARM GAS  C:\Users\salaz\AppData\Local\Temp\ccI54lrI.s 			page 52


  37:Generated_Source\PSoC6\pdl\cmsis/include/core_cm0plus.h ****  extern "C" {
  38:Generated_Source\PSoC6\pdl\cmsis/include/core_cm0plus.h **** #endif
  39:Generated_Source\PSoC6\pdl\cmsis/include/core_cm0plus.h **** 
  40:Generated_Source\PSoC6\pdl\cmsis/include/core_cm0plus.h **** /**
  41:Generated_Source\PSoC6\pdl\cmsis/include/core_cm0plus.h ****   \page CMSIS_MISRA_Exceptions  MISRA-C:2004 Compliance Exceptions
  42:Generated_Source\PSoC6\pdl\cmsis/include/core_cm0plus.h ****   CMSIS violates the following MISRA-C:2004 rules:
  43:Generated_Source\PSoC6\pdl\cmsis/include/core_cm0plus.h **** 
  44:Generated_Source\PSoC6\pdl\cmsis/include/core_cm0plus.h ****    \li Required Rule 8.5, object/function definition in header file.<br>
  45:Generated_Source\PSoC6\pdl\cmsis/include/core_cm0plus.h ****      Function definitions in header files are used to allow 'inlining'.
  46:Generated_Source\PSoC6\pdl\cmsis/include/core_cm0plus.h **** 
  47:Generated_Source\PSoC6\pdl\cmsis/include/core_cm0plus.h ****    \li Required Rule 18.4, declaration of union type or object of union type: '{...}'.<br>
  48:Generated_Source\PSoC6\pdl\cmsis/include/core_cm0plus.h ****      Unions are used for effective representation of core registers.
  49:Generated_Source\PSoC6\pdl\cmsis/include/core_cm0plus.h **** 
  50:Generated_Source\PSoC6\pdl\cmsis/include/core_cm0plus.h ****    \li Advisory Rule 19.7, Function-like macro defined.<br>
  51:Generated_Source\PSoC6\pdl\cmsis/include/core_cm0plus.h ****      Function-like macros are used to allow more efficient code.
  52:Generated_Source\PSoC6\pdl\cmsis/include/core_cm0plus.h ****  */
  53:Generated_Source\PSoC6\pdl\cmsis/include/core_cm0plus.h **** 
  54:Generated_Source\PSoC6\pdl\cmsis/include/core_cm0plus.h **** 
  55:Generated_Source\PSoC6\pdl\cmsis/include/core_cm0plus.h **** /*******************************************************************************
  56:Generated_Source\PSoC6\pdl\cmsis/include/core_cm0plus.h ****  *                 CMSIS definitions
  57:Generated_Source\PSoC6\pdl\cmsis/include/core_cm0plus.h ****  ******************************************************************************/
  58:Generated_Source\PSoC6\pdl\cmsis/include/core_cm0plus.h **** /**
  59:Generated_Source\PSoC6\pdl\cmsis/include/core_cm0plus.h ****   \ingroup Cortex-M0+
  60:Generated_Source\PSoC6\pdl\cmsis/include/core_cm0plus.h ****   @{
  61:Generated_Source\PSoC6\pdl\cmsis/include/core_cm0plus.h ****  */
  62:Generated_Source\PSoC6\pdl\cmsis/include/core_cm0plus.h **** 
  63:Generated_Source\PSoC6\pdl\cmsis/include/core_cm0plus.h **** /*  CMSIS CM0+ definitions */
  64:Generated_Source\PSoC6\pdl\cmsis/include/core_cm0plus.h **** #define __CM0PLUS_CMSIS_VERSION_MAIN ( 5U)                                      /*!< [31:16] CMSIS 
  65:Generated_Source\PSoC6\pdl\cmsis/include/core_cm0plus.h **** #define __CM0PLUS_CMSIS_VERSION_SUB  ( 0U)                                      /*!< [15:0]  CMSIS 
  66:Generated_Source\PSoC6\pdl\cmsis/include/core_cm0plus.h **** #define __CM0PLUS_CMSIS_VERSION      ((__CM0PLUS_CMSIS_VERSION_MAIN << 16U) | \
  67:Generated_Source\PSoC6\pdl\cmsis/include/core_cm0plus.h ****                                        __CM0PLUS_CMSIS_VERSION_SUB           )  /*!< CMSIS HAL vers
  68:Generated_Source\PSoC6\pdl\cmsis/include/core_cm0plus.h **** 
  69:Generated_Source\PSoC6\pdl\cmsis/include/core_cm0plus.h **** #define __CORTEX_M                   (0U)                                       /*!< Cortex-M Core 
  70:Generated_Source\PSoC6\pdl\cmsis/include/core_cm0plus.h **** 
  71:Generated_Source\PSoC6\pdl\cmsis/include/core_cm0plus.h **** /** __FPU_USED indicates whether an FPU is used or not.
  72:Generated_Source\PSoC6\pdl\cmsis/include/core_cm0plus.h ****     This core does not support an FPU at all
  73:Generated_Source\PSoC6\pdl\cmsis/include/core_cm0plus.h **** */
  74:Generated_Source\PSoC6\pdl\cmsis/include/core_cm0plus.h **** #define __FPU_USED       0U
  75:Generated_Source\PSoC6\pdl\cmsis/include/core_cm0plus.h **** 
  76:Generated_Source\PSoC6\pdl\cmsis/include/core_cm0plus.h **** #if defined ( __CC_ARM )
  77:Generated_Source\PSoC6\pdl\cmsis/include/core_cm0plus.h ****   #if defined __TARGET_FPU_VFP
  78:Generated_Source\PSoC6\pdl\cmsis/include/core_cm0plus.h ****     #error "Compiler generates FPU instructions for a device without an FPU (check __FPU_PRESENT)"
  79:Generated_Source\PSoC6\pdl\cmsis/include/core_cm0plus.h ****   #endif
  80:Generated_Source\PSoC6\pdl\cmsis/include/core_cm0plus.h **** 
  81:Generated_Source\PSoC6\pdl\cmsis/include/core_cm0plus.h **** #elif defined (__ARMCC_VERSION) && (__ARMCC_VERSION >= 6010050)
  82:Generated_Source\PSoC6\pdl\cmsis/include/core_cm0plus.h ****   #if defined __ARM_PCS_VFP
  83:Generated_Source\PSoC6\pdl\cmsis/include/core_cm0plus.h ****     #error "Compiler generates FPU instructions for a device without an FPU (check __FPU_PRESENT)"
  84:Generated_Source\PSoC6\pdl\cmsis/include/core_cm0plus.h ****   #endif
  85:Generated_Source\PSoC6\pdl\cmsis/include/core_cm0plus.h **** 
  86:Generated_Source\PSoC6\pdl\cmsis/include/core_cm0plus.h **** #elif defined ( __GNUC__ )
  87:Generated_Source\PSoC6\pdl\cmsis/include/core_cm0plus.h ****   #if defined (__VFP_FP__) && !defined(__SOFTFP__)
  88:Generated_Source\PSoC6\pdl\cmsis/include/core_cm0plus.h ****     #error "Compiler generates FPU instructions for a device without an FPU (check __FPU_PRESENT)"
  89:Generated_Source\PSoC6\pdl\cmsis/include/core_cm0plus.h ****   #endif
  90:Generated_Source\PSoC6\pdl\cmsis/include/core_cm0plus.h **** 
  91:Generated_Source\PSoC6\pdl\cmsis/include/core_cm0plus.h **** #elif defined ( __ICCARM__ )
  92:Generated_Source\PSoC6\pdl\cmsis/include/core_cm0plus.h ****   #if defined __ARMVFP__
  93:Generated_Source\PSoC6\pdl\cmsis/include/core_cm0plus.h ****     #error "Compiler generates FPU instructions for a device without an FPU (check __FPU_PRESENT)"
ARM GAS  C:\Users\salaz\AppData\Local\Temp\ccI54lrI.s 			page 53


  94:Generated_Source\PSoC6\pdl\cmsis/include/core_cm0plus.h ****   #endif
  95:Generated_Source\PSoC6\pdl\cmsis/include/core_cm0plus.h **** 
  96:Generated_Source\PSoC6\pdl\cmsis/include/core_cm0plus.h **** #elif defined ( __TI_ARM__ )
  97:Generated_Source\PSoC6\pdl\cmsis/include/core_cm0plus.h ****   #if defined __TI_VFP_SUPPORT__
  98:Generated_Source\PSoC6\pdl\cmsis/include/core_cm0plus.h ****     #error "Compiler generates FPU instructions for a device without an FPU (check __FPU_PRESENT)"
  99:Generated_Source\PSoC6\pdl\cmsis/include/core_cm0plus.h ****   #endif
 100:Generated_Source\PSoC6\pdl\cmsis/include/core_cm0plus.h **** 
 101:Generated_Source\PSoC6\pdl\cmsis/include/core_cm0plus.h **** #elif defined ( __TASKING__ )
 102:Generated_Source\PSoC6\pdl\cmsis/include/core_cm0plus.h ****   #if defined __FPU_VFP__
 103:Generated_Source\PSoC6\pdl\cmsis/include/core_cm0plus.h ****     #error "Compiler generates FPU instructions for a device without an FPU (check __FPU_PRESENT)"
 104:Generated_Source\PSoC6\pdl\cmsis/include/core_cm0plus.h ****   #endif
 105:Generated_Source\PSoC6\pdl\cmsis/include/core_cm0plus.h **** 
 106:Generated_Source\PSoC6\pdl\cmsis/include/core_cm0plus.h **** #elif defined ( __CSMC__ )
 107:Generated_Source\PSoC6\pdl\cmsis/include/core_cm0plus.h ****   #if ( __CSMC__ & 0x400U)
 108:Generated_Source\PSoC6\pdl\cmsis/include/core_cm0plus.h ****     #error "Compiler generates FPU instructions for a device without an FPU (check __FPU_PRESENT)"
 109:Generated_Source\PSoC6\pdl\cmsis/include/core_cm0plus.h ****   #endif
 110:Generated_Source\PSoC6\pdl\cmsis/include/core_cm0plus.h **** 
 111:Generated_Source\PSoC6\pdl\cmsis/include/core_cm0plus.h **** #endif
 112:Generated_Source\PSoC6\pdl\cmsis/include/core_cm0plus.h **** 
 113:Generated_Source\PSoC6\pdl\cmsis/include/core_cm0plus.h **** #include "cmsis_compiler.h"               /* CMSIS compiler specific defines */
 114:Generated_Source\PSoC6\pdl\cmsis/include/core_cm0plus.h **** 
 115:Generated_Source\PSoC6\pdl\cmsis/include/core_cm0plus.h **** 
 116:Generated_Source\PSoC6\pdl\cmsis/include/core_cm0plus.h **** #ifdef __cplusplus
 117:Generated_Source\PSoC6\pdl\cmsis/include/core_cm0plus.h **** }
 118:Generated_Source\PSoC6\pdl\cmsis/include/core_cm0plus.h **** #endif
 119:Generated_Source\PSoC6\pdl\cmsis/include/core_cm0plus.h **** 
 120:Generated_Source\PSoC6\pdl\cmsis/include/core_cm0plus.h **** #endif /* __CORE_CM0PLUS_H_GENERIC */
 121:Generated_Source\PSoC6\pdl\cmsis/include/core_cm0plus.h **** 
 122:Generated_Source\PSoC6\pdl\cmsis/include/core_cm0plus.h **** #ifndef __CMSIS_GENERIC
 123:Generated_Source\PSoC6\pdl\cmsis/include/core_cm0plus.h **** 
 124:Generated_Source\PSoC6\pdl\cmsis/include/core_cm0plus.h **** #ifndef __CORE_CM0PLUS_H_DEPENDANT
 125:Generated_Source\PSoC6\pdl\cmsis/include/core_cm0plus.h **** #define __CORE_CM0PLUS_H_DEPENDANT
 126:Generated_Source\PSoC6\pdl\cmsis/include/core_cm0plus.h **** 
 127:Generated_Source\PSoC6\pdl\cmsis/include/core_cm0plus.h **** #ifdef __cplusplus
 128:Generated_Source\PSoC6\pdl\cmsis/include/core_cm0plus.h ****  extern "C" {
 129:Generated_Source\PSoC6\pdl\cmsis/include/core_cm0plus.h **** #endif
 130:Generated_Source\PSoC6\pdl\cmsis/include/core_cm0plus.h **** 
 131:Generated_Source\PSoC6\pdl\cmsis/include/core_cm0plus.h **** /* check device defines and use defaults */
 132:Generated_Source\PSoC6\pdl\cmsis/include/core_cm0plus.h **** #if defined __CHECK_DEVICE_DEFINES
 133:Generated_Source\PSoC6\pdl\cmsis/include/core_cm0plus.h ****   #ifndef __CM0PLUS_REV
 134:Generated_Source\PSoC6\pdl\cmsis/include/core_cm0plus.h ****     #define __CM0PLUS_REV             0x0000U
 135:Generated_Source\PSoC6\pdl\cmsis/include/core_cm0plus.h ****     #warning "__CM0PLUS_REV not defined in device header file; using default!"
 136:Generated_Source\PSoC6\pdl\cmsis/include/core_cm0plus.h ****   #endif
 137:Generated_Source\PSoC6\pdl\cmsis/include/core_cm0plus.h **** 
 138:Generated_Source\PSoC6\pdl\cmsis/include/core_cm0plus.h ****   #ifndef __MPU_PRESENT
 139:Generated_Source\PSoC6\pdl\cmsis/include/core_cm0plus.h ****     #define __MPU_PRESENT             0U
 140:Generated_Source\PSoC6\pdl\cmsis/include/core_cm0plus.h ****     #warning "__MPU_PRESENT not defined in device header file; using default!"
 141:Generated_Source\PSoC6\pdl\cmsis/include/core_cm0plus.h ****   #endif
 142:Generated_Source\PSoC6\pdl\cmsis/include/core_cm0plus.h **** 
 143:Generated_Source\PSoC6\pdl\cmsis/include/core_cm0plus.h ****   #ifndef __VTOR_PRESENT
 144:Generated_Source\PSoC6\pdl\cmsis/include/core_cm0plus.h ****     #define __VTOR_PRESENT            0U
 145:Generated_Source\PSoC6\pdl\cmsis/include/core_cm0plus.h ****     #warning "__VTOR_PRESENT not defined in device header file; using default!"
 146:Generated_Source\PSoC6\pdl\cmsis/include/core_cm0plus.h ****   #endif
 147:Generated_Source\PSoC6\pdl\cmsis/include/core_cm0plus.h **** 
 148:Generated_Source\PSoC6\pdl\cmsis/include/core_cm0plus.h ****   #ifndef __NVIC_PRIO_BITS
 149:Generated_Source\PSoC6\pdl\cmsis/include/core_cm0plus.h ****     #define __NVIC_PRIO_BITS          2U
 150:Generated_Source\PSoC6\pdl\cmsis/include/core_cm0plus.h ****     #warning "__NVIC_PRIO_BITS not defined in device header file; using default!"
ARM GAS  C:\Users\salaz\AppData\Local\Temp\ccI54lrI.s 			page 54


 151:Generated_Source\PSoC6\pdl\cmsis/include/core_cm0plus.h ****   #endif
 152:Generated_Source\PSoC6\pdl\cmsis/include/core_cm0plus.h **** 
 153:Generated_Source\PSoC6\pdl\cmsis/include/core_cm0plus.h ****   #ifndef __Vendor_SysTickConfig
 154:Generated_Source\PSoC6\pdl\cmsis/include/core_cm0plus.h ****     #define __Vendor_SysTickConfig    0U
 155:Generated_Source\PSoC6\pdl\cmsis/include/core_cm0plus.h ****     #warning "__Vendor_SysTickConfig not defined in device header file; using default!"
 156:Generated_Source\PSoC6\pdl\cmsis/include/core_cm0plus.h ****   #endif
 157:Generated_Source\PSoC6\pdl\cmsis/include/core_cm0plus.h **** #endif
 158:Generated_Source\PSoC6\pdl\cmsis/include/core_cm0plus.h **** 
 159:Generated_Source\PSoC6\pdl\cmsis/include/core_cm0plus.h **** /* IO definitions (access restrictions to peripheral registers) */
 160:Generated_Source\PSoC6\pdl\cmsis/include/core_cm0plus.h **** /**
 161:Generated_Source\PSoC6\pdl\cmsis/include/core_cm0plus.h ****     \defgroup CMSIS_glob_defs CMSIS Global Defines
 162:Generated_Source\PSoC6\pdl\cmsis/include/core_cm0plus.h **** 
 163:Generated_Source\PSoC6\pdl\cmsis/include/core_cm0plus.h ****     <strong>IO Type Qualifiers</strong> are used
 164:Generated_Source\PSoC6\pdl\cmsis/include/core_cm0plus.h ****     \li to specify the access to peripheral variables.
 165:Generated_Source\PSoC6\pdl\cmsis/include/core_cm0plus.h ****     \li for automatic generation of peripheral register debug information.
 166:Generated_Source\PSoC6\pdl\cmsis/include/core_cm0plus.h **** */
 167:Generated_Source\PSoC6\pdl\cmsis/include/core_cm0plus.h **** #ifdef __cplusplus
 168:Generated_Source\PSoC6\pdl\cmsis/include/core_cm0plus.h ****   #define   __I     volatile             /*!< Defines 'read only' permissions */
 169:Generated_Source\PSoC6\pdl\cmsis/include/core_cm0plus.h **** #else
 170:Generated_Source\PSoC6\pdl\cmsis/include/core_cm0plus.h ****   #define   __I     volatile const       /*!< Defines 'read only' permissions */
 171:Generated_Source\PSoC6\pdl\cmsis/include/core_cm0plus.h **** #endif
 172:Generated_Source\PSoC6\pdl\cmsis/include/core_cm0plus.h **** #define     __O     volatile             /*!< Defines 'write only' permissions */
 173:Generated_Source\PSoC6\pdl\cmsis/include/core_cm0plus.h **** #define     __IO    volatile             /*!< Defines 'read / write' permissions */
 174:Generated_Source\PSoC6\pdl\cmsis/include/core_cm0plus.h **** 
 175:Generated_Source\PSoC6\pdl\cmsis/include/core_cm0plus.h **** /* following defines should be used for structure members */
 176:Generated_Source\PSoC6\pdl\cmsis/include/core_cm0plus.h **** #define     __IM     volatile const      /*! Defines 'read only' structure member permissions */
 177:Generated_Source\PSoC6\pdl\cmsis/include/core_cm0plus.h **** #define     __OM     volatile            /*! Defines 'write only' structure member permissions */
 178:Generated_Source\PSoC6\pdl\cmsis/include/core_cm0plus.h **** #define     __IOM    volatile            /*! Defines 'read / write' structure member permissions */
 179:Generated_Source\PSoC6\pdl\cmsis/include/core_cm0plus.h **** 
 180:Generated_Source\PSoC6\pdl\cmsis/include/core_cm0plus.h **** /*@} end of group Cortex-M0+ */
 181:Generated_Source\PSoC6\pdl\cmsis/include/core_cm0plus.h **** 
 182:Generated_Source\PSoC6\pdl\cmsis/include/core_cm0plus.h **** 
 183:Generated_Source\PSoC6\pdl\cmsis/include/core_cm0plus.h **** 
 184:Generated_Source\PSoC6\pdl\cmsis/include/core_cm0plus.h **** /*******************************************************************************
 185:Generated_Source\PSoC6\pdl\cmsis/include/core_cm0plus.h ****  *                 Register Abstraction
 186:Generated_Source\PSoC6\pdl\cmsis/include/core_cm0plus.h ****   Core Register contain:
 187:Generated_Source\PSoC6\pdl\cmsis/include/core_cm0plus.h ****   - Core Register
 188:Generated_Source\PSoC6\pdl\cmsis/include/core_cm0plus.h ****   - Core NVIC Register
 189:Generated_Source\PSoC6\pdl\cmsis/include/core_cm0plus.h ****   - Core SCB Register
 190:Generated_Source\PSoC6\pdl\cmsis/include/core_cm0plus.h ****   - Core SysTick Register
 191:Generated_Source\PSoC6\pdl\cmsis/include/core_cm0plus.h ****   - Core MPU Register
 192:Generated_Source\PSoC6\pdl\cmsis/include/core_cm0plus.h ****  ******************************************************************************/
 193:Generated_Source\PSoC6\pdl\cmsis/include/core_cm0plus.h **** /**
 194:Generated_Source\PSoC6\pdl\cmsis/include/core_cm0plus.h ****   \defgroup CMSIS_core_register Defines and Type Definitions
 195:Generated_Source\PSoC6\pdl\cmsis/include/core_cm0plus.h ****   \brief Type definitions and defines for Cortex-M processor based devices.
 196:Generated_Source\PSoC6\pdl\cmsis/include/core_cm0plus.h **** */
 197:Generated_Source\PSoC6\pdl\cmsis/include/core_cm0plus.h **** 
 198:Generated_Source\PSoC6\pdl\cmsis/include/core_cm0plus.h **** /**
 199:Generated_Source\PSoC6\pdl\cmsis/include/core_cm0plus.h ****   \ingroup    CMSIS_core_register
 200:Generated_Source\PSoC6\pdl\cmsis/include/core_cm0plus.h ****   \defgroup   CMSIS_CORE  Status and Control Registers
 201:Generated_Source\PSoC6\pdl\cmsis/include/core_cm0plus.h ****   \brief      Core Register type definitions.
 202:Generated_Source\PSoC6\pdl\cmsis/include/core_cm0plus.h ****   @{
 203:Generated_Source\PSoC6\pdl\cmsis/include/core_cm0plus.h ****  */
 204:Generated_Source\PSoC6\pdl\cmsis/include/core_cm0plus.h **** 
 205:Generated_Source\PSoC6\pdl\cmsis/include/core_cm0plus.h **** /**
 206:Generated_Source\PSoC6\pdl\cmsis/include/core_cm0plus.h ****   \brief  Union type to access the Application Program Status Register (APSR).
 207:Generated_Source\PSoC6\pdl\cmsis/include/core_cm0plus.h ****  */
ARM GAS  C:\Users\salaz\AppData\Local\Temp\ccI54lrI.s 			page 55


 208:Generated_Source\PSoC6\pdl\cmsis/include/core_cm0plus.h **** typedef union
 209:Generated_Source\PSoC6\pdl\cmsis/include/core_cm0plus.h **** {
 210:Generated_Source\PSoC6\pdl\cmsis/include/core_cm0plus.h ****   struct
 211:Generated_Source\PSoC6\pdl\cmsis/include/core_cm0plus.h ****   {
 212:Generated_Source\PSoC6\pdl\cmsis/include/core_cm0plus.h ****     uint32_t _reserved0:28;              /*!< bit:  0..27  Reserved */
 213:Generated_Source\PSoC6\pdl\cmsis/include/core_cm0plus.h ****     uint32_t V:1;                        /*!< bit:     28  Overflow condition code flag */
 214:Generated_Source\PSoC6\pdl\cmsis/include/core_cm0plus.h ****     uint32_t C:1;                        /*!< bit:     29  Carry condition code flag */
 215:Generated_Source\PSoC6\pdl\cmsis/include/core_cm0plus.h ****     uint32_t Z:1;                        /*!< bit:     30  Zero condition code flag */
 216:Generated_Source\PSoC6\pdl\cmsis/include/core_cm0plus.h ****     uint32_t N:1;                        /*!< bit:     31  Negative condition code flag */
 217:Generated_Source\PSoC6\pdl\cmsis/include/core_cm0plus.h ****   } b;                                   /*!< Structure used for bit  access */
 218:Generated_Source\PSoC6\pdl\cmsis/include/core_cm0plus.h ****   uint32_t w;                            /*!< Type      used for word access */
 219:Generated_Source\PSoC6\pdl\cmsis/include/core_cm0plus.h **** } APSR_Type;
 220:Generated_Source\PSoC6\pdl\cmsis/include/core_cm0plus.h **** 
 221:Generated_Source\PSoC6\pdl\cmsis/include/core_cm0plus.h **** /* APSR Register Definitions */
 222:Generated_Source\PSoC6\pdl\cmsis/include/core_cm0plus.h **** #define APSR_N_Pos                         31U                                            /*!< APSR
 223:Generated_Source\PSoC6\pdl\cmsis/include/core_cm0plus.h **** #define APSR_N_Msk                         (1UL << APSR_N_Pos)                            /*!< APSR
 224:Generated_Source\PSoC6\pdl\cmsis/include/core_cm0plus.h **** 
 225:Generated_Source\PSoC6\pdl\cmsis/include/core_cm0plus.h **** #define APSR_Z_Pos                         30U                                            /*!< APSR
 226:Generated_Source\PSoC6\pdl\cmsis/include/core_cm0plus.h **** #define APSR_Z_Msk                         (1UL << APSR_Z_Pos)                            /*!< APSR
 227:Generated_Source\PSoC6\pdl\cmsis/include/core_cm0plus.h **** 
 228:Generated_Source\PSoC6\pdl\cmsis/include/core_cm0plus.h **** #define APSR_C_Pos                         29U                                            /*!< APSR
 229:Generated_Source\PSoC6\pdl\cmsis/include/core_cm0plus.h **** #define APSR_C_Msk                         (1UL << APSR_C_Pos)                            /*!< APSR
 230:Generated_Source\PSoC6\pdl\cmsis/include/core_cm0plus.h **** 
 231:Generated_Source\PSoC6\pdl\cmsis/include/core_cm0plus.h **** #define APSR_V_Pos                         28U                                            /*!< APSR
 232:Generated_Source\PSoC6\pdl\cmsis/include/core_cm0plus.h **** #define APSR_V_Msk                         (1UL << APSR_V_Pos)                            /*!< APSR
 233:Generated_Source\PSoC6\pdl\cmsis/include/core_cm0plus.h **** 
 234:Generated_Source\PSoC6\pdl\cmsis/include/core_cm0plus.h **** 
 235:Generated_Source\PSoC6\pdl\cmsis/include/core_cm0plus.h **** /**
 236:Generated_Source\PSoC6\pdl\cmsis/include/core_cm0plus.h ****   \brief  Union type to access the Interrupt Program Status Register (IPSR).
 237:Generated_Source\PSoC6\pdl\cmsis/include/core_cm0plus.h ****  */
 238:Generated_Source\PSoC6\pdl\cmsis/include/core_cm0plus.h **** typedef union
 239:Generated_Source\PSoC6\pdl\cmsis/include/core_cm0plus.h **** {
 240:Generated_Source\PSoC6\pdl\cmsis/include/core_cm0plus.h ****   struct
 241:Generated_Source\PSoC6\pdl\cmsis/include/core_cm0plus.h ****   {
 242:Generated_Source\PSoC6\pdl\cmsis/include/core_cm0plus.h ****     uint32_t ISR:9;                      /*!< bit:  0.. 8  Exception number */
 243:Generated_Source\PSoC6\pdl\cmsis/include/core_cm0plus.h ****     uint32_t _reserved0:23;              /*!< bit:  9..31  Reserved */
 244:Generated_Source\PSoC6\pdl\cmsis/include/core_cm0plus.h ****   } b;                                   /*!< Structure used for bit  access */
 245:Generated_Source\PSoC6\pdl\cmsis/include/core_cm0plus.h ****   uint32_t w;                            /*!< Type      used for word access */
 246:Generated_Source\PSoC6\pdl\cmsis/include/core_cm0plus.h **** } IPSR_Type;
 247:Generated_Source\PSoC6\pdl\cmsis/include/core_cm0plus.h **** 
 248:Generated_Source\PSoC6\pdl\cmsis/include/core_cm0plus.h **** /* IPSR Register Definitions */
 249:Generated_Source\PSoC6\pdl\cmsis/include/core_cm0plus.h **** #define IPSR_ISR_Pos                        0U                                            /*!< IPSR
 250:Generated_Source\PSoC6\pdl\cmsis/include/core_cm0plus.h **** #define IPSR_ISR_Msk                       (0x1FFUL /*<< IPSR_ISR_Pos*/)                  /*!< IPSR
 251:Generated_Source\PSoC6\pdl\cmsis/include/core_cm0plus.h **** 
 252:Generated_Source\PSoC6\pdl\cmsis/include/core_cm0plus.h **** 
 253:Generated_Source\PSoC6\pdl\cmsis/include/core_cm0plus.h **** /**
 254:Generated_Source\PSoC6\pdl\cmsis/include/core_cm0plus.h ****   \brief  Union type to access the Special-Purpose Program Status Registers (xPSR).
 255:Generated_Source\PSoC6\pdl\cmsis/include/core_cm0plus.h ****  */
 256:Generated_Source\PSoC6\pdl\cmsis/include/core_cm0plus.h **** typedef union
 257:Generated_Source\PSoC6\pdl\cmsis/include/core_cm0plus.h **** {
 258:Generated_Source\PSoC6\pdl\cmsis/include/core_cm0plus.h ****   struct
 259:Generated_Source\PSoC6\pdl\cmsis/include/core_cm0plus.h ****   {
 260:Generated_Source\PSoC6\pdl\cmsis/include/core_cm0plus.h ****     uint32_t ISR:9;                      /*!< bit:  0.. 8  Exception number */
 261:Generated_Source\PSoC6\pdl\cmsis/include/core_cm0plus.h ****     uint32_t _reserved0:15;              /*!< bit:  9..23  Reserved */
 262:Generated_Source\PSoC6\pdl\cmsis/include/core_cm0plus.h ****     uint32_t T:1;                        /*!< bit:     24  Thumb bit        (read 0) */
 263:Generated_Source\PSoC6\pdl\cmsis/include/core_cm0plus.h ****     uint32_t _reserved1:3;               /*!< bit: 25..27  Reserved */
 264:Generated_Source\PSoC6\pdl\cmsis/include/core_cm0plus.h ****     uint32_t V:1;                        /*!< bit:     28  Overflow condition code flag */
ARM GAS  C:\Users\salaz\AppData\Local\Temp\ccI54lrI.s 			page 56


 265:Generated_Source\PSoC6\pdl\cmsis/include/core_cm0plus.h ****     uint32_t C:1;                        /*!< bit:     29  Carry condition code flag */
 266:Generated_Source\PSoC6\pdl\cmsis/include/core_cm0plus.h ****     uint32_t Z:1;                        /*!< bit:     30  Zero condition code flag */
 267:Generated_Source\PSoC6\pdl\cmsis/include/core_cm0plus.h ****     uint32_t N:1;                        /*!< bit:     31  Negative condition code flag */
 268:Generated_Source\PSoC6\pdl\cmsis/include/core_cm0plus.h ****   } b;                                   /*!< Structure used for bit  access */
 269:Generated_Source\PSoC6\pdl\cmsis/include/core_cm0plus.h ****   uint32_t w;                            /*!< Type      used for word access */
 270:Generated_Source\PSoC6\pdl\cmsis/include/core_cm0plus.h **** } xPSR_Type;
 271:Generated_Source\PSoC6\pdl\cmsis/include/core_cm0plus.h **** 
 272:Generated_Source\PSoC6\pdl\cmsis/include/core_cm0plus.h **** /* xPSR Register Definitions */
 273:Generated_Source\PSoC6\pdl\cmsis/include/core_cm0plus.h **** #define xPSR_N_Pos                         31U                                            /*!< xPSR
 274:Generated_Source\PSoC6\pdl\cmsis/include/core_cm0plus.h **** #define xPSR_N_Msk                         (1UL << xPSR_N_Pos)                            /*!< xPSR
 275:Generated_Source\PSoC6\pdl\cmsis/include/core_cm0plus.h **** 
 276:Generated_Source\PSoC6\pdl\cmsis/include/core_cm0plus.h **** #define xPSR_Z_Pos                         30U                                            /*!< xPSR
 277:Generated_Source\PSoC6\pdl\cmsis/include/core_cm0plus.h **** #define xPSR_Z_Msk                         (1UL << xPSR_Z_Pos)                            /*!< xPSR
 278:Generated_Source\PSoC6\pdl\cmsis/include/core_cm0plus.h **** 
 279:Generated_Source\PSoC6\pdl\cmsis/include/core_cm0plus.h **** #define xPSR_C_Pos                         29U                                            /*!< xPSR
 280:Generated_Source\PSoC6\pdl\cmsis/include/core_cm0plus.h **** #define xPSR_C_Msk                         (1UL << xPSR_C_Pos)                            /*!< xPSR
 281:Generated_Source\PSoC6\pdl\cmsis/include/core_cm0plus.h **** 
 282:Generated_Source\PSoC6\pdl\cmsis/include/core_cm0plus.h **** #define xPSR_V_Pos                         28U                                            /*!< xPSR
 283:Generated_Source\PSoC6\pdl\cmsis/include/core_cm0plus.h **** #define xPSR_V_Msk                         (1UL << xPSR_V_Pos)                            /*!< xPSR
 284:Generated_Source\PSoC6\pdl\cmsis/include/core_cm0plus.h **** 
 285:Generated_Source\PSoC6\pdl\cmsis/include/core_cm0plus.h **** #define xPSR_T_Pos                         24U                                            /*!< xPSR
 286:Generated_Source\PSoC6\pdl\cmsis/include/core_cm0plus.h **** #define xPSR_T_Msk                         (1UL << xPSR_T_Pos)                            /*!< xPSR
 287:Generated_Source\PSoC6\pdl\cmsis/include/core_cm0plus.h **** 
 288:Generated_Source\PSoC6\pdl\cmsis/include/core_cm0plus.h **** #define xPSR_ISR_Pos                        0U                                            /*!< xPSR
 289:Generated_Source\PSoC6\pdl\cmsis/include/core_cm0plus.h **** #define xPSR_ISR_Msk                       (0x1FFUL /*<< xPSR_ISR_Pos*/)                  /*!< xPSR
 290:Generated_Source\PSoC6\pdl\cmsis/include/core_cm0plus.h **** 
 291:Generated_Source\PSoC6\pdl\cmsis/include/core_cm0plus.h **** 
 292:Generated_Source\PSoC6\pdl\cmsis/include/core_cm0plus.h **** /**
 293:Generated_Source\PSoC6\pdl\cmsis/include/core_cm0plus.h ****   \brief  Union type to access the Control Registers (CONTROL).
 294:Generated_Source\PSoC6\pdl\cmsis/include/core_cm0plus.h ****  */
 295:Generated_Source\PSoC6\pdl\cmsis/include/core_cm0plus.h **** typedef union
 296:Generated_Source\PSoC6\pdl\cmsis/include/core_cm0plus.h **** {
 297:Generated_Source\PSoC6\pdl\cmsis/include/core_cm0plus.h ****   struct
 298:Generated_Source\PSoC6\pdl\cmsis/include/core_cm0plus.h ****   {
 299:Generated_Source\PSoC6\pdl\cmsis/include/core_cm0plus.h ****     uint32_t nPRIV:1;                    /*!< bit:      0  Execution privilege in Thread mode */
 300:Generated_Source\PSoC6\pdl\cmsis/include/core_cm0plus.h ****     uint32_t SPSEL:1;                    /*!< bit:      1  Stack to be used */
 301:Generated_Source\PSoC6\pdl\cmsis/include/core_cm0plus.h ****     uint32_t _reserved1:30;              /*!< bit:  2..31  Reserved */
 302:Generated_Source\PSoC6\pdl\cmsis/include/core_cm0plus.h ****   } b;                                   /*!< Structure used for bit  access */
 303:Generated_Source\PSoC6\pdl\cmsis/include/core_cm0plus.h ****   uint32_t w;                            /*!< Type      used for word access */
 304:Generated_Source\PSoC6\pdl\cmsis/include/core_cm0plus.h **** } CONTROL_Type;
 305:Generated_Source\PSoC6\pdl\cmsis/include/core_cm0plus.h **** 
 306:Generated_Source\PSoC6\pdl\cmsis/include/core_cm0plus.h **** /* CONTROL Register Definitions */
 307:Generated_Source\PSoC6\pdl\cmsis/include/core_cm0plus.h **** #define CONTROL_SPSEL_Pos                   1U                                            /*!< CONT
 308:Generated_Source\PSoC6\pdl\cmsis/include/core_cm0plus.h **** #define CONTROL_SPSEL_Msk                  (1UL << CONTROL_SPSEL_Pos)                     /*!< CONT
 309:Generated_Source\PSoC6\pdl\cmsis/include/core_cm0plus.h **** 
 310:Generated_Source\PSoC6\pdl\cmsis/include/core_cm0plus.h **** #define CONTROL_nPRIV_Pos                   0U                                            /*!< CONT
 311:Generated_Source\PSoC6\pdl\cmsis/include/core_cm0plus.h **** #define CONTROL_nPRIV_Msk                  (1UL /*<< CONTROL_nPRIV_Pos*/)                 /*!< CONT
 312:Generated_Source\PSoC6\pdl\cmsis/include/core_cm0plus.h **** 
 313:Generated_Source\PSoC6\pdl\cmsis/include/core_cm0plus.h **** /*@} end of group CMSIS_CORE */
 314:Generated_Source\PSoC6\pdl\cmsis/include/core_cm0plus.h **** 
 315:Generated_Source\PSoC6\pdl\cmsis/include/core_cm0plus.h **** 
 316:Generated_Source\PSoC6\pdl\cmsis/include/core_cm0plus.h **** /**
 317:Generated_Source\PSoC6\pdl\cmsis/include/core_cm0plus.h ****   \ingroup    CMSIS_core_register
 318:Generated_Source\PSoC6\pdl\cmsis/include/core_cm0plus.h ****   \defgroup   CMSIS_NVIC  Nested Vectored Interrupt Controller (NVIC)
 319:Generated_Source\PSoC6\pdl\cmsis/include/core_cm0plus.h ****   \brief      Type definitions for the NVIC Registers
 320:Generated_Source\PSoC6\pdl\cmsis/include/core_cm0plus.h ****   @{
 321:Generated_Source\PSoC6\pdl\cmsis/include/core_cm0plus.h ****  */
ARM GAS  C:\Users\salaz\AppData\Local\Temp\ccI54lrI.s 			page 57


 322:Generated_Source\PSoC6\pdl\cmsis/include/core_cm0plus.h **** 
 323:Generated_Source\PSoC6\pdl\cmsis/include/core_cm0plus.h **** /**
 324:Generated_Source\PSoC6\pdl\cmsis/include/core_cm0plus.h ****   \brief  Structure type to access the Nested Vectored Interrupt Controller (NVIC).
 325:Generated_Source\PSoC6\pdl\cmsis/include/core_cm0plus.h ****  */
 326:Generated_Source\PSoC6\pdl\cmsis/include/core_cm0plus.h **** typedef struct
 327:Generated_Source\PSoC6\pdl\cmsis/include/core_cm0plus.h **** {
 328:Generated_Source\PSoC6\pdl\cmsis/include/core_cm0plus.h ****   __IOM uint32_t ISER[1U];               /*!< Offset: 0x000 (R/W)  Interrupt Set Enable Register */
 329:Generated_Source\PSoC6\pdl\cmsis/include/core_cm0plus.h ****         uint32_t RESERVED0[31U];
 330:Generated_Source\PSoC6\pdl\cmsis/include/core_cm0plus.h ****   __IOM uint32_t ICER[1U];               /*!< Offset: 0x080 (R/W)  Interrupt Clear Enable Register 
 331:Generated_Source\PSoC6\pdl\cmsis/include/core_cm0plus.h ****         uint32_t RSERVED1[31U];
 332:Generated_Source\PSoC6\pdl\cmsis/include/core_cm0plus.h ****   __IOM uint32_t ISPR[1U];               /*!< Offset: 0x100 (R/W)  Interrupt Set Pending Register *
 333:Generated_Source\PSoC6\pdl\cmsis/include/core_cm0plus.h ****         uint32_t RESERVED2[31U];
 334:Generated_Source\PSoC6\pdl\cmsis/include/core_cm0plus.h ****   __IOM uint32_t ICPR[1U];               /*!< Offset: 0x180 (R/W)  Interrupt Clear Pending Register
 335:Generated_Source\PSoC6\pdl\cmsis/include/core_cm0plus.h ****         uint32_t RESERVED3[31U];
 336:Generated_Source\PSoC6\pdl\cmsis/include/core_cm0plus.h ****         uint32_t RESERVED4[64U];
 337:Generated_Source\PSoC6\pdl\cmsis/include/core_cm0plus.h ****   __IOM uint32_t IP[8U];                 /*!< Offset: 0x300 (R/W)  Interrupt Priority Register */
 338:Generated_Source\PSoC6\pdl\cmsis/include/core_cm0plus.h **** }  NVIC_Type;
 339:Generated_Source\PSoC6\pdl\cmsis/include/core_cm0plus.h **** 
 340:Generated_Source\PSoC6\pdl\cmsis/include/core_cm0plus.h **** /*@} end of group CMSIS_NVIC */
 341:Generated_Source\PSoC6\pdl\cmsis/include/core_cm0plus.h **** 
 342:Generated_Source\PSoC6\pdl\cmsis/include/core_cm0plus.h **** 
 343:Generated_Source\PSoC6\pdl\cmsis/include/core_cm0plus.h **** /**
 344:Generated_Source\PSoC6\pdl\cmsis/include/core_cm0plus.h ****   \ingroup  CMSIS_core_register
 345:Generated_Source\PSoC6\pdl\cmsis/include/core_cm0plus.h ****   \defgroup CMSIS_SCB     System Control Block (SCB)
 346:Generated_Source\PSoC6\pdl\cmsis/include/core_cm0plus.h ****   \brief    Type definitions for the System Control Block Registers
 347:Generated_Source\PSoC6\pdl\cmsis/include/core_cm0plus.h ****   @{
 348:Generated_Source\PSoC6\pdl\cmsis/include/core_cm0plus.h ****  */
 349:Generated_Source\PSoC6\pdl\cmsis/include/core_cm0plus.h **** 
 350:Generated_Source\PSoC6\pdl\cmsis/include/core_cm0plus.h **** /**
 351:Generated_Source\PSoC6\pdl\cmsis/include/core_cm0plus.h ****   \brief  Structure type to access the System Control Block (SCB).
 352:Generated_Source\PSoC6\pdl\cmsis/include/core_cm0plus.h ****  */
 353:Generated_Source\PSoC6\pdl\cmsis/include/core_cm0plus.h **** typedef struct
 354:Generated_Source\PSoC6\pdl\cmsis/include/core_cm0plus.h **** {
 355:Generated_Source\PSoC6\pdl\cmsis/include/core_cm0plus.h ****   __IM  uint32_t CPUID;                  /*!< Offset: 0x000 (R/ )  CPUID Base Register */
 356:Generated_Source\PSoC6\pdl\cmsis/include/core_cm0plus.h ****   __IOM uint32_t ICSR;                   /*!< Offset: 0x004 (R/W)  Interrupt Control and State Regi
 357:Generated_Source\PSoC6\pdl\cmsis/include/core_cm0plus.h **** #if defined (__VTOR_PRESENT) && (__VTOR_PRESENT == 1U)
 358:Generated_Source\PSoC6\pdl\cmsis/include/core_cm0plus.h ****   __IOM uint32_t VTOR;                   /*!< Offset: 0x008 (R/W)  Vector Table Offset Register */
 359:Generated_Source\PSoC6\pdl\cmsis/include/core_cm0plus.h **** #else
 360:Generated_Source\PSoC6\pdl\cmsis/include/core_cm0plus.h ****         uint32_t RESERVED0;
 361:Generated_Source\PSoC6\pdl\cmsis/include/core_cm0plus.h **** #endif
 362:Generated_Source\PSoC6\pdl\cmsis/include/core_cm0plus.h ****   __IOM uint32_t AIRCR;                  /*!< Offset: 0x00C (R/W)  Application Interrupt and Reset 
 363:Generated_Source\PSoC6\pdl\cmsis/include/core_cm0plus.h ****   __IOM uint32_t SCR;                    /*!< Offset: 0x010 (R/W)  System Control Register */
 364:Generated_Source\PSoC6\pdl\cmsis/include/core_cm0plus.h ****   __IOM uint32_t CCR;                    /*!< Offset: 0x014 (R/W)  Configuration Control Register *
 365:Generated_Source\PSoC6\pdl\cmsis/include/core_cm0plus.h ****         uint32_t RESERVED1;
 366:Generated_Source\PSoC6\pdl\cmsis/include/core_cm0plus.h ****   __IOM uint32_t SHP[2U];                /*!< Offset: 0x01C (R/W)  System Handlers Priority Registe
 367:Generated_Source\PSoC6\pdl\cmsis/include/core_cm0plus.h ****   __IOM uint32_t SHCSR;                  /*!< Offset: 0x024 (R/W)  System Handler Control and State
 368:Generated_Source\PSoC6\pdl\cmsis/include/core_cm0plus.h **** } SCB_Type;
 369:Generated_Source\PSoC6\pdl\cmsis/include/core_cm0plus.h **** 
 370:Generated_Source\PSoC6\pdl\cmsis/include/core_cm0plus.h **** /* SCB CPUID Register Definitions */
 371:Generated_Source\PSoC6\pdl\cmsis/include/core_cm0plus.h **** #define SCB_CPUID_IMPLEMENTER_Pos          24U                                            /*!< SCB 
 372:Generated_Source\PSoC6\pdl\cmsis/include/core_cm0plus.h **** #define SCB_CPUID_IMPLEMENTER_Msk          (0xFFUL << SCB_CPUID_IMPLEMENTER_Pos)          /*!< SCB 
 373:Generated_Source\PSoC6\pdl\cmsis/include/core_cm0plus.h **** 
 374:Generated_Source\PSoC6\pdl\cmsis/include/core_cm0plus.h **** #define SCB_CPUID_VARIANT_Pos              20U                                            /*!< SCB 
 375:Generated_Source\PSoC6\pdl\cmsis/include/core_cm0plus.h **** #define SCB_CPUID_VARIANT_Msk              (0xFUL << SCB_CPUID_VARIANT_Pos)               /*!< SCB 
 376:Generated_Source\PSoC6\pdl\cmsis/include/core_cm0plus.h **** 
 377:Generated_Source\PSoC6\pdl\cmsis/include/core_cm0plus.h **** #define SCB_CPUID_ARCHITECTURE_Pos         16U                                            /*!< SCB 
 378:Generated_Source\PSoC6\pdl\cmsis/include/core_cm0plus.h **** #define SCB_CPUID_ARCHITECTURE_Msk         (0xFUL << SCB_CPUID_ARCHITECTURE_Pos)          /*!< SCB 
ARM GAS  C:\Users\salaz\AppData\Local\Temp\ccI54lrI.s 			page 58


 379:Generated_Source\PSoC6\pdl\cmsis/include/core_cm0plus.h **** 
 380:Generated_Source\PSoC6\pdl\cmsis/include/core_cm0plus.h **** #define SCB_CPUID_PARTNO_Pos                4U                                            /*!< SCB 
 381:Generated_Source\PSoC6\pdl\cmsis/include/core_cm0plus.h **** #define SCB_CPUID_PARTNO_Msk               (0xFFFUL << SCB_CPUID_PARTNO_Pos)              /*!< SCB 
 382:Generated_Source\PSoC6\pdl\cmsis/include/core_cm0plus.h **** 
 383:Generated_Source\PSoC6\pdl\cmsis/include/core_cm0plus.h **** #define SCB_CPUID_REVISION_Pos              0U                                            /*!< SCB 
 384:Generated_Source\PSoC6\pdl\cmsis/include/core_cm0plus.h **** #define SCB_CPUID_REVISION_Msk             (0xFUL /*<< SCB_CPUID_REVISION_Pos*/)          /*!< SCB 
 385:Generated_Source\PSoC6\pdl\cmsis/include/core_cm0plus.h **** 
 386:Generated_Source\PSoC6\pdl\cmsis/include/core_cm0plus.h **** /* SCB Interrupt Control State Register Definitions */
 387:Generated_Source\PSoC6\pdl\cmsis/include/core_cm0plus.h **** #define SCB_ICSR_NMIPENDSET_Pos            31U                                            /*!< SCB 
 388:Generated_Source\PSoC6\pdl\cmsis/include/core_cm0plus.h **** #define SCB_ICSR_NMIPENDSET_Msk            (1UL << SCB_ICSR_NMIPENDSET_Pos)               /*!< SCB 
 389:Generated_Source\PSoC6\pdl\cmsis/include/core_cm0plus.h **** 
 390:Generated_Source\PSoC6\pdl\cmsis/include/core_cm0plus.h **** #define SCB_ICSR_PENDSVSET_Pos             28U                                            /*!< SCB 
 391:Generated_Source\PSoC6\pdl\cmsis/include/core_cm0plus.h **** #define SCB_ICSR_PENDSVSET_Msk             (1UL << SCB_ICSR_PENDSVSET_Pos)                /*!< SCB 
 392:Generated_Source\PSoC6\pdl\cmsis/include/core_cm0plus.h **** 
 393:Generated_Source\PSoC6\pdl\cmsis/include/core_cm0plus.h **** #define SCB_ICSR_PENDSVCLR_Pos             27U                                            /*!< SCB 
 394:Generated_Source\PSoC6\pdl\cmsis/include/core_cm0plus.h **** #define SCB_ICSR_PENDSVCLR_Msk             (1UL << SCB_ICSR_PENDSVCLR_Pos)                /*!< SCB 
 395:Generated_Source\PSoC6\pdl\cmsis/include/core_cm0plus.h **** 
 396:Generated_Source\PSoC6\pdl\cmsis/include/core_cm0plus.h **** #define SCB_ICSR_PENDSTSET_Pos             26U                                            /*!< SCB 
 397:Generated_Source\PSoC6\pdl\cmsis/include/core_cm0plus.h **** #define SCB_ICSR_PENDSTSET_Msk             (1UL << SCB_ICSR_PENDSTSET_Pos)                /*!< SCB 
 398:Generated_Source\PSoC6\pdl\cmsis/include/core_cm0plus.h **** 
 399:Generated_Source\PSoC6\pdl\cmsis/include/core_cm0plus.h **** #define SCB_ICSR_PENDSTCLR_Pos             25U                                            /*!< SCB 
 400:Generated_Source\PSoC6\pdl\cmsis/include/core_cm0plus.h **** #define SCB_ICSR_PENDSTCLR_Msk             (1UL << SCB_ICSR_PENDSTCLR_Pos)                /*!< SCB 
 401:Generated_Source\PSoC6\pdl\cmsis/include/core_cm0plus.h **** 
 402:Generated_Source\PSoC6\pdl\cmsis/include/core_cm0plus.h **** #define SCB_ICSR_ISRPREEMPT_Pos            23U                                            /*!< SCB 
 403:Generated_Source\PSoC6\pdl\cmsis/include/core_cm0plus.h **** #define SCB_ICSR_ISRPREEMPT_Msk            (1UL << SCB_ICSR_ISRPREEMPT_Pos)               /*!< SCB 
 404:Generated_Source\PSoC6\pdl\cmsis/include/core_cm0plus.h **** 
 405:Generated_Source\PSoC6\pdl\cmsis/include/core_cm0plus.h **** #define SCB_ICSR_ISRPENDING_Pos            22U                                            /*!< SCB 
 406:Generated_Source\PSoC6\pdl\cmsis/include/core_cm0plus.h **** #define SCB_ICSR_ISRPENDING_Msk            (1UL << SCB_ICSR_ISRPENDING_Pos)               /*!< SCB 
 407:Generated_Source\PSoC6\pdl\cmsis/include/core_cm0plus.h **** 
 408:Generated_Source\PSoC6\pdl\cmsis/include/core_cm0plus.h **** #define SCB_ICSR_VECTPENDING_Pos           12U                                            /*!< SCB 
 409:Generated_Source\PSoC6\pdl\cmsis/include/core_cm0plus.h **** #define SCB_ICSR_VECTPENDING_Msk           (0x1FFUL << SCB_ICSR_VECTPENDING_Pos)          /*!< SCB 
 410:Generated_Source\PSoC6\pdl\cmsis/include/core_cm0plus.h **** 
 411:Generated_Source\PSoC6\pdl\cmsis/include/core_cm0plus.h **** #define SCB_ICSR_VECTACTIVE_Pos             0U                                            /*!< SCB 
 412:Generated_Source\PSoC6\pdl\cmsis/include/core_cm0plus.h **** #define SCB_ICSR_VECTACTIVE_Msk            (0x1FFUL /*<< SCB_ICSR_VECTACTIVE_Pos*/)       /*!< SCB 
 413:Generated_Source\PSoC6\pdl\cmsis/include/core_cm0plus.h **** 
 414:Generated_Source\PSoC6\pdl\cmsis/include/core_cm0plus.h **** #if defined (__VTOR_PRESENT) && (__VTOR_PRESENT == 1U)
 415:Generated_Source\PSoC6\pdl\cmsis/include/core_cm0plus.h **** /* SCB Interrupt Control State Register Definitions */
 416:Generated_Source\PSoC6\pdl\cmsis/include/core_cm0plus.h **** #define SCB_VTOR_TBLOFF_Pos                 8U                                            /*!< SCB 
 417:Generated_Source\PSoC6\pdl\cmsis/include/core_cm0plus.h **** #define SCB_VTOR_TBLOFF_Msk                (0xFFFFFFUL << SCB_VTOR_TBLOFF_Pos)            /*!< SCB 
 418:Generated_Source\PSoC6\pdl\cmsis/include/core_cm0plus.h **** #endif
 419:Generated_Source\PSoC6\pdl\cmsis/include/core_cm0plus.h **** 
 420:Generated_Source\PSoC6\pdl\cmsis/include/core_cm0plus.h **** /* SCB Application Interrupt and Reset Control Register Definitions */
 421:Generated_Source\PSoC6\pdl\cmsis/include/core_cm0plus.h **** #define SCB_AIRCR_VECTKEY_Pos              16U                                            /*!< SCB 
 422:Generated_Source\PSoC6\pdl\cmsis/include/core_cm0plus.h **** #define SCB_AIRCR_VECTKEY_Msk              (0xFFFFUL << SCB_AIRCR_VECTKEY_Pos)            /*!< SCB 
 423:Generated_Source\PSoC6\pdl\cmsis/include/core_cm0plus.h **** 
 424:Generated_Source\PSoC6\pdl\cmsis/include/core_cm0plus.h **** #define SCB_AIRCR_VECTKEYSTAT_Pos          16U                                            /*!< SCB 
 425:Generated_Source\PSoC6\pdl\cmsis/include/core_cm0plus.h **** #define SCB_AIRCR_VECTKEYSTAT_Msk          (0xFFFFUL << SCB_AIRCR_VECTKEYSTAT_Pos)        /*!< SCB 
 426:Generated_Source\PSoC6\pdl\cmsis/include/core_cm0plus.h **** 
 427:Generated_Source\PSoC6\pdl\cmsis/include/core_cm0plus.h **** #define SCB_AIRCR_ENDIANESS_Pos            15U                                            /*!< SCB 
 428:Generated_Source\PSoC6\pdl\cmsis/include/core_cm0plus.h **** #define SCB_AIRCR_ENDIANESS_Msk            (1UL << SCB_AIRCR_ENDIANESS_Pos)               /*!< SCB 
 429:Generated_Source\PSoC6\pdl\cmsis/include/core_cm0plus.h **** 
 430:Generated_Source\PSoC6\pdl\cmsis/include/core_cm0plus.h **** #define SCB_AIRCR_SYSRESETREQ_Pos           2U                                            /*!< SCB 
 431:Generated_Source\PSoC6\pdl\cmsis/include/core_cm0plus.h **** #define SCB_AIRCR_SYSRESETREQ_Msk          (1UL << SCB_AIRCR_SYSRESETREQ_Pos)             /*!< SCB 
 432:Generated_Source\PSoC6\pdl\cmsis/include/core_cm0plus.h **** 
 433:Generated_Source\PSoC6\pdl\cmsis/include/core_cm0plus.h **** #define SCB_AIRCR_VECTCLRACTIVE_Pos         1U                                            /*!< SCB 
 434:Generated_Source\PSoC6\pdl\cmsis/include/core_cm0plus.h **** #define SCB_AIRCR_VECTCLRACTIVE_Msk        (1UL << SCB_AIRCR_VECTCLRACTIVE_Pos)           /*!< SCB 
 435:Generated_Source\PSoC6\pdl\cmsis/include/core_cm0plus.h **** 
ARM GAS  C:\Users\salaz\AppData\Local\Temp\ccI54lrI.s 			page 59


 436:Generated_Source\PSoC6\pdl\cmsis/include/core_cm0plus.h **** /* SCB System Control Register Definitions */
 437:Generated_Source\PSoC6\pdl\cmsis/include/core_cm0plus.h **** #define SCB_SCR_SEVONPEND_Pos               4U                                            /*!< SCB 
 438:Generated_Source\PSoC6\pdl\cmsis/include/core_cm0plus.h **** #define SCB_SCR_SEVONPEND_Msk              (1UL << SCB_SCR_SEVONPEND_Pos)                 /*!< SCB 
 439:Generated_Source\PSoC6\pdl\cmsis/include/core_cm0plus.h **** 
 440:Generated_Source\PSoC6\pdl\cmsis/include/core_cm0plus.h **** #define SCB_SCR_SLEEPDEEP_Pos               2U                                            /*!< SCB 
 441:Generated_Source\PSoC6\pdl\cmsis/include/core_cm0plus.h **** #define SCB_SCR_SLEEPDEEP_Msk              (1UL << SCB_SCR_SLEEPDEEP_Pos)                 /*!< SCB 
 442:Generated_Source\PSoC6\pdl\cmsis/include/core_cm0plus.h **** 
 443:Generated_Source\PSoC6\pdl\cmsis/include/core_cm0plus.h **** #define SCB_SCR_SLEEPONEXIT_Pos             1U                                            /*!< SCB 
 444:Generated_Source\PSoC6\pdl\cmsis/include/core_cm0plus.h **** #define SCB_SCR_SLEEPONEXIT_Msk            (1UL << SCB_SCR_SLEEPONEXIT_Pos)               /*!< SCB 
 445:Generated_Source\PSoC6\pdl\cmsis/include/core_cm0plus.h **** 
 446:Generated_Source\PSoC6\pdl\cmsis/include/core_cm0plus.h **** /* SCB Configuration Control Register Definitions */
 447:Generated_Source\PSoC6\pdl\cmsis/include/core_cm0plus.h **** #define SCB_CCR_STKALIGN_Pos                9U                                            /*!< SCB 
 448:Generated_Source\PSoC6\pdl\cmsis/include/core_cm0plus.h **** #define SCB_CCR_STKALIGN_Msk               (1UL << SCB_CCR_STKALIGN_Pos)                  /*!< SCB 
 449:Generated_Source\PSoC6\pdl\cmsis/include/core_cm0plus.h **** 
 450:Generated_Source\PSoC6\pdl\cmsis/include/core_cm0plus.h **** #define SCB_CCR_UNALIGN_TRP_Pos             3U                                            /*!< SCB 
 451:Generated_Source\PSoC6\pdl\cmsis/include/core_cm0plus.h **** #define SCB_CCR_UNALIGN_TRP_Msk            (1UL << SCB_CCR_UNALIGN_TRP_Pos)               /*!< SCB 
 452:Generated_Source\PSoC6\pdl\cmsis/include/core_cm0plus.h **** 
 453:Generated_Source\PSoC6\pdl\cmsis/include/core_cm0plus.h **** /* SCB System Handler Control and State Register Definitions */
 454:Generated_Source\PSoC6\pdl\cmsis/include/core_cm0plus.h **** #define SCB_SHCSR_SVCALLPENDED_Pos         15U                                            /*!< SCB 
 455:Generated_Source\PSoC6\pdl\cmsis/include/core_cm0plus.h **** #define SCB_SHCSR_SVCALLPENDED_Msk         (1UL << SCB_SHCSR_SVCALLPENDED_Pos)            /*!< SCB 
 456:Generated_Source\PSoC6\pdl\cmsis/include/core_cm0plus.h **** 
 457:Generated_Source\PSoC6\pdl\cmsis/include/core_cm0plus.h **** /*@} end of group CMSIS_SCB */
 458:Generated_Source\PSoC6\pdl\cmsis/include/core_cm0plus.h **** 
 459:Generated_Source\PSoC6\pdl\cmsis/include/core_cm0plus.h **** 
 460:Generated_Source\PSoC6\pdl\cmsis/include/core_cm0plus.h **** /**
 461:Generated_Source\PSoC6\pdl\cmsis/include/core_cm0plus.h ****   \ingroup  CMSIS_core_register
 462:Generated_Source\PSoC6\pdl\cmsis/include/core_cm0plus.h ****   \defgroup CMSIS_SysTick     System Tick Timer (SysTick)
 463:Generated_Source\PSoC6\pdl\cmsis/include/core_cm0plus.h ****   \brief    Type definitions for the System Timer Registers.
 464:Generated_Source\PSoC6\pdl\cmsis/include/core_cm0plus.h ****   @{
 465:Generated_Source\PSoC6\pdl\cmsis/include/core_cm0plus.h ****  */
 466:Generated_Source\PSoC6\pdl\cmsis/include/core_cm0plus.h **** 
 467:Generated_Source\PSoC6\pdl\cmsis/include/core_cm0plus.h **** /**
 468:Generated_Source\PSoC6\pdl\cmsis/include/core_cm0plus.h ****   \brief  Structure type to access the System Timer (SysTick).
 469:Generated_Source\PSoC6\pdl\cmsis/include/core_cm0plus.h ****  */
 470:Generated_Source\PSoC6\pdl\cmsis/include/core_cm0plus.h **** typedef struct
 471:Generated_Source\PSoC6\pdl\cmsis/include/core_cm0plus.h **** {
 472:Generated_Source\PSoC6\pdl\cmsis/include/core_cm0plus.h ****   __IOM uint32_t CTRL;                   /*!< Offset: 0x000 (R/W)  SysTick Control and Status Regis
 473:Generated_Source\PSoC6\pdl\cmsis/include/core_cm0plus.h ****   __IOM uint32_t LOAD;                   /*!< Offset: 0x004 (R/W)  SysTick Reload Value Register */
 474:Generated_Source\PSoC6\pdl\cmsis/include/core_cm0plus.h ****   __IOM uint32_t VAL;                    /*!< Offset: 0x008 (R/W)  SysTick Current Value Register *
 475:Generated_Source\PSoC6\pdl\cmsis/include/core_cm0plus.h ****   __IM  uint32_t CALIB;                  /*!< Offset: 0x00C (R/ )  SysTick Calibration Register */
 476:Generated_Source\PSoC6\pdl\cmsis/include/core_cm0plus.h **** } SysTick_Type;
 477:Generated_Source\PSoC6\pdl\cmsis/include/core_cm0plus.h **** 
 478:Generated_Source\PSoC6\pdl\cmsis/include/core_cm0plus.h **** /* SysTick Control / Status Register Definitions */
 479:Generated_Source\PSoC6\pdl\cmsis/include/core_cm0plus.h **** #define SysTick_CTRL_COUNTFLAG_Pos         16U                                            /*!< SysT
 480:Generated_Source\PSoC6\pdl\cmsis/include/core_cm0plus.h **** #define SysTick_CTRL_COUNTFLAG_Msk         (1UL << SysTick_CTRL_COUNTFLAG_Pos)            /*!< SysT
 481:Generated_Source\PSoC6\pdl\cmsis/include/core_cm0plus.h **** 
 482:Generated_Source\PSoC6\pdl\cmsis/include/core_cm0plus.h **** #define SysTick_CTRL_CLKSOURCE_Pos          2U                                            /*!< SysT
 483:Generated_Source\PSoC6\pdl\cmsis/include/core_cm0plus.h **** #define SysTick_CTRL_CLKSOURCE_Msk         (1UL << SysTick_CTRL_CLKSOURCE_Pos)            /*!< SysT
 484:Generated_Source\PSoC6\pdl\cmsis/include/core_cm0plus.h **** 
 485:Generated_Source\PSoC6\pdl\cmsis/include/core_cm0plus.h **** #define SysTick_CTRL_TICKINT_Pos            1U                                            /*!< SysT
 486:Generated_Source\PSoC6\pdl\cmsis/include/core_cm0plus.h **** #define SysTick_CTRL_TICKINT_Msk           (1UL << SysTick_CTRL_TICKINT_Pos)              /*!< SysT
 487:Generated_Source\PSoC6\pdl\cmsis/include/core_cm0plus.h **** 
 488:Generated_Source\PSoC6\pdl\cmsis/include/core_cm0plus.h **** #define SysTick_CTRL_ENABLE_Pos             0U                                            /*!< SysT
 489:Generated_Source\PSoC6\pdl\cmsis/include/core_cm0plus.h **** #define SysTick_CTRL_ENABLE_Msk            (1UL /*<< SysTick_CTRL_ENABLE_Pos*/)           /*!< SysT
 490:Generated_Source\PSoC6\pdl\cmsis/include/core_cm0plus.h **** 
 491:Generated_Source\PSoC6\pdl\cmsis/include/core_cm0plus.h **** /* SysTick Reload Register Definitions */
 492:Generated_Source\PSoC6\pdl\cmsis/include/core_cm0plus.h **** #define SysTick_LOAD_RELOAD_Pos             0U                                            /*!< SysT
ARM GAS  C:\Users\salaz\AppData\Local\Temp\ccI54lrI.s 			page 60


 493:Generated_Source\PSoC6\pdl\cmsis/include/core_cm0plus.h **** #define SysTick_LOAD_RELOAD_Msk            (0xFFFFFFUL /*<< SysTick_LOAD_RELOAD_Pos*/)    /*!< SysT
 494:Generated_Source\PSoC6\pdl\cmsis/include/core_cm0plus.h **** 
 495:Generated_Source\PSoC6\pdl\cmsis/include/core_cm0plus.h **** /* SysTick Current Register Definitions */
 496:Generated_Source\PSoC6\pdl\cmsis/include/core_cm0plus.h **** #define SysTick_VAL_CURRENT_Pos             0U                                            /*!< SysT
 497:Generated_Source\PSoC6\pdl\cmsis/include/core_cm0plus.h **** #define SysTick_VAL_CURRENT_Msk            (0xFFFFFFUL /*<< SysTick_VAL_CURRENT_Pos*/)    /*!< SysT
 498:Generated_Source\PSoC6\pdl\cmsis/include/core_cm0plus.h **** 
 499:Generated_Source\PSoC6\pdl\cmsis/include/core_cm0plus.h **** /* SysTick Calibration Register Definitions */
 500:Generated_Source\PSoC6\pdl\cmsis/include/core_cm0plus.h **** #define SysTick_CALIB_NOREF_Pos            31U                                            /*!< SysT
 501:Generated_Source\PSoC6\pdl\cmsis/include/core_cm0plus.h **** #define SysTick_CALIB_NOREF_Msk            (1UL << SysTick_CALIB_NOREF_Pos)               /*!< SysT
 502:Generated_Source\PSoC6\pdl\cmsis/include/core_cm0plus.h **** 
 503:Generated_Source\PSoC6\pdl\cmsis/include/core_cm0plus.h **** #define SysTick_CALIB_SKEW_Pos             30U                                            /*!< SysT
 504:Generated_Source\PSoC6\pdl\cmsis/include/core_cm0plus.h **** #define SysTick_CALIB_SKEW_Msk             (1UL << SysTick_CALIB_SKEW_Pos)                /*!< SysT
 505:Generated_Source\PSoC6\pdl\cmsis/include/core_cm0plus.h **** 
 506:Generated_Source\PSoC6\pdl\cmsis/include/core_cm0plus.h **** #define SysTick_CALIB_TENMS_Pos             0U                                            /*!< SysT
 507:Generated_Source\PSoC6\pdl\cmsis/include/core_cm0plus.h **** #define SysTick_CALIB_TENMS_Msk            (0xFFFFFFUL /*<< SysTick_CALIB_TENMS_Pos*/)    /*!< SysT
 508:Generated_Source\PSoC6\pdl\cmsis/include/core_cm0plus.h **** 
 509:Generated_Source\PSoC6\pdl\cmsis/include/core_cm0plus.h **** /*@} end of group CMSIS_SysTick */
 510:Generated_Source\PSoC6\pdl\cmsis/include/core_cm0plus.h **** 
 511:Generated_Source\PSoC6\pdl\cmsis/include/core_cm0plus.h **** #if defined (__MPU_PRESENT) && (__MPU_PRESENT == 1U)
 512:Generated_Source\PSoC6\pdl\cmsis/include/core_cm0plus.h **** /**
 513:Generated_Source\PSoC6\pdl\cmsis/include/core_cm0plus.h ****   \ingroup  CMSIS_core_register
 514:Generated_Source\PSoC6\pdl\cmsis/include/core_cm0plus.h ****   \defgroup CMSIS_MPU     Memory Protection Unit (MPU)
 515:Generated_Source\PSoC6\pdl\cmsis/include/core_cm0plus.h ****   \brief    Type definitions for the Memory Protection Unit (MPU)
 516:Generated_Source\PSoC6\pdl\cmsis/include/core_cm0plus.h ****   @{
 517:Generated_Source\PSoC6\pdl\cmsis/include/core_cm0plus.h ****  */
 518:Generated_Source\PSoC6\pdl\cmsis/include/core_cm0plus.h **** 
 519:Generated_Source\PSoC6\pdl\cmsis/include/core_cm0plus.h **** /**
 520:Generated_Source\PSoC6\pdl\cmsis/include/core_cm0plus.h ****   \brief  Structure type to access the Memory Protection Unit (MPU).
 521:Generated_Source\PSoC6\pdl\cmsis/include/core_cm0plus.h ****  */
 522:Generated_Source\PSoC6\pdl\cmsis/include/core_cm0plus.h **** typedef struct
 523:Generated_Source\PSoC6\pdl\cmsis/include/core_cm0plus.h **** {
 524:Generated_Source\PSoC6\pdl\cmsis/include/core_cm0plus.h ****   __IM  uint32_t TYPE;                   /*!< Offset: 0x000 (R/ )  MPU Type Register */
 525:Generated_Source\PSoC6\pdl\cmsis/include/core_cm0plus.h ****   __IOM uint32_t CTRL;                   /*!< Offset: 0x004 (R/W)  MPU Control Register */
 526:Generated_Source\PSoC6\pdl\cmsis/include/core_cm0plus.h ****   __IOM uint32_t RNR;                    /*!< Offset: 0x008 (R/W)  MPU Region RNRber Register */
 527:Generated_Source\PSoC6\pdl\cmsis/include/core_cm0plus.h ****   __IOM uint32_t RBAR;                   /*!< Offset: 0x00C (R/W)  MPU Region Base Address Register
 528:Generated_Source\PSoC6\pdl\cmsis/include/core_cm0plus.h ****   __IOM uint32_t RASR;                   /*!< Offset: 0x010 (R/W)  MPU Region Attribute and Size Re
 529:Generated_Source\PSoC6\pdl\cmsis/include/core_cm0plus.h **** } MPU_Type;
 530:Generated_Source\PSoC6\pdl\cmsis/include/core_cm0plus.h **** 
 531:Generated_Source\PSoC6\pdl\cmsis/include/core_cm0plus.h **** /* MPU Type Register Definitions */
 532:Generated_Source\PSoC6\pdl\cmsis/include/core_cm0plus.h **** #define MPU_TYPE_IREGION_Pos               16U                                            /*!< MPU 
 533:Generated_Source\PSoC6\pdl\cmsis/include/core_cm0plus.h **** #define MPU_TYPE_IREGION_Msk               (0xFFUL << MPU_TYPE_IREGION_Pos)               /*!< MPU 
 534:Generated_Source\PSoC6\pdl\cmsis/include/core_cm0plus.h **** 
 535:Generated_Source\PSoC6\pdl\cmsis/include/core_cm0plus.h **** #define MPU_TYPE_DREGION_Pos                8U                                            /*!< MPU 
 536:Generated_Source\PSoC6\pdl\cmsis/include/core_cm0plus.h **** #define MPU_TYPE_DREGION_Msk               (0xFFUL << MPU_TYPE_DREGION_Pos)               /*!< MPU 
 537:Generated_Source\PSoC6\pdl\cmsis/include/core_cm0plus.h **** 
 538:Generated_Source\PSoC6\pdl\cmsis/include/core_cm0plus.h **** #define MPU_TYPE_SEPARATE_Pos               0U                                            /*!< MPU 
 539:Generated_Source\PSoC6\pdl\cmsis/include/core_cm0plus.h **** #define MPU_TYPE_SEPARATE_Msk              (1UL /*<< MPU_TYPE_SEPARATE_Pos*/)             /*!< MPU 
 540:Generated_Source\PSoC6\pdl\cmsis/include/core_cm0plus.h **** 
 541:Generated_Source\PSoC6\pdl\cmsis/include/core_cm0plus.h **** /* MPU Control Register Definitions */
 542:Generated_Source\PSoC6\pdl\cmsis/include/core_cm0plus.h **** #define MPU_CTRL_PRIVDEFENA_Pos             2U                                            /*!< MPU 
 543:Generated_Source\PSoC6\pdl\cmsis/include/core_cm0plus.h **** #define MPU_CTRL_PRIVDEFENA_Msk            (1UL << MPU_CTRL_PRIVDEFENA_Pos)               /*!< MPU 
 544:Generated_Source\PSoC6\pdl\cmsis/include/core_cm0plus.h **** 
 545:Generated_Source\PSoC6\pdl\cmsis/include/core_cm0plus.h **** #define MPU_CTRL_HFNMIENA_Pos               1U                                            /*!< MPU 
 546:Generated_Source\PSoC6\pdl\cmsis/include/core_cm0plus.h **** #define MPU_CTRL_HFNMIENA_Msk              (1UL << MPU_CTRL_HFNMIENA_Pos)                 /*!< MPU 
 547:Generated_Source\PSoC6\pdl\cmsis/include/core_cm0plus.h **** 
 548:Generated_Source\PSoC6\pdl\cmsis/include/core_cm0plus.h **** #define MPU_CTRL_ENABLE_Pos                 0U                                            /*!< MPU 
 549:Generated_Source\PSoC6\pdl\cmsis/include/core_cm0plus.h **** #define MPU_CTRL_ENABLE_Msk                (1UL /*<< MPU_CTRL_ENABLE_Pos*/)               /*!< MPU 
ARM GAS  C:\Users\salaz\AppData\Local\Temp\ccI54lrI.s 			page 61


 550:Generated_Source\PSoC6\pdl\cmsis/include/core_cm0plus.h **** 
 551:Generated_Source\PSoC6\pdl\cmsis/include/core_cm0plus.h **** /* MPU Region Number Register Definitions */
 552:Generated_Source\PSoC6\pdl\cmsis/include/core_cm0plus.h **** #define MPU_RNR_REGION_Pos                  0U                                            /*!< MPU 
 553:Generated_Source\PSoC6\pdl\cmsis/include/core_cm0plus.h **** #define MPU_RNR_REGION_Msk                 (0xFFUL /*<< MPU_RNR_REGION_Pos*/)             /*!< MPU 
 554:Generated_Source\PSoC6\pdl\cmsis/include/core_cm0plus.h **** 
 555:Generated_Source\PSoC6\pdl\cmsis/include/core_cm0plus.h **** /* MPU Region Base Address Register Definitions */
 556:Generated_Source\PSoC6\pdl\cmsis/include/core_cm0plus.h **** #define MPU_RBAR_ADDR_Pos                   8U                                            /*!< MPU 
 557:Generated_Source\PSoC6\pdl\cmsis/include/core_cm0plus.h **** #define MPU_RBAR_ADDR_Msk                  (0xFFFFFFUL << MPU_RBAR_ADDR_Pos)              /*!< MPU 
 558:Generated_Source\PSoC6\pdl\cmsis/include/core_cm0plus.h **** 
 559:Generated_Source\PSoC6\pdl\cmsis/include/core_cm0plus.h **** #define MPU_RBAR_VALID_Pos                  4U                                            /*!< MPU 
 560:Generated_Source\PSoC6\pdl\cmsis/include/core_cm0plus.h **** #define MPU_RBAR_VALID_Msk                 (1UL << MPU_RBAR_VALID_Pos)                    /*!< MPU 
 561:Generated_Source\PSoC6\pdl\cmsis/include/core_cm0plus.h **** 
 562:Generated_Source\PSoC6\pdl\cmsis/include/core_cm0plus.h **** #define MPU_RBAR_REGION_Pos                 0U                                            /*!< MPU 
 563:Generated_Source\PSoC6\pdl\cmsis/include/core_cm0plus.h **** #define MPU_RBAR_REGION_Msk                (0xFUL /*<< MPU_RBAR_REGION_Pos*/)             /*!< MPU 
 564:Generated_Source\PSoC6\pdl\cmsis/include/core_cm0plus.h **** 
 565:Generated_Source\PSoC6\pdl\cmsis/include/core_cm0plus.h **** /* MPU Region Attribute and Size Register Definitions */
 566:Generated_Source\PSoC6\pdl\cmsis/include/core_cm0plus.h **** #define MPU_RASR_ATTRS_Pos                 16U                                            /*!< MPU 
 567:Generated_Source\PSoC6\pdl\cmsis/include/core_cm0plus.h **** #define MPU_RASR_ATTRS_Msk                 (0xFFFFUL << MPU_RASR_ATTRS_Pos)               /*!< MPU 
 568:Generated_Source\PSoC6\pdl\cmsis/include/core_cm0plus.h **** 
 569:Generated_Source\PSoC6\pdl\cmsis/include/core_cm0plus.h **** #define MPU_RASR_XN_Pos                    28U                                            /*!< MPU 
 570:Generated_Source\PSoC6\pdl\cmsis/include/core_cm0plus.h **** #define MPU_RASR_XN_Msk                    (1UL << MPU_RASR_XN_Pos)                       /*!< MPU 
 571:Generated_Source\PSoC6\pdl\cmsis/include/core_cm0plus.h **** 
 572:Generated_Source\PSoC6\pdl\cmsis/include/core_cm0plus.h **** #define MPU_RASR_AP_Pos                    24U                                            /*!< MPU 
 573:Generated_Source\PSoC6\pdl\cmsis/include/core_cm0plus.h **** #define MPU_RASR_AP_Msk                    (0x7UL << MPU_RASR_AP_Pos)                     /*!< MPU 
 574:Generated_Source\PSoC6\pdl\cmsis/include/core_cm0plus.h **** 
 575:Generated_Source\PSoC6\pdl\cmsis/include/core_cm0plus.h **** #define MPU_RASR_TEX_Pos                   19U                                            /*!< MPU 
 576:Generated_Source\PSoC6\pdl\cmsis/include/core_cm0plus.h **** #define MPU_RASR_TEX_Msk                   (0x7UL << MPU_RASR_TEX_Pos)                    /*!< MPU 
 577:Generated_Source\PSoC6\pdl\cmsis/include/core_cm0plus.h **** 
 578:Generated_Source\PSoC6\pdl\cmsis/include/core_cm0plus.h **** #define MPU_RASR_S_Pos                     18U                                            /*!< MPU 
 579:Generated_Source\PSoC6\pdl\cmsis/include/core_cm0plus.h **** #define MPU_RASR_S_Msk                     (1UL << MPU_RASR_S_Pos)                        /*!< MPU 
 580:Generated_Source\PSoC6\pdl\cmsis/include/core_cm0plus.h **** 
 581:Generated_Source\PSoC6\pdl\cmsis/include/core_cm0plus.h **** #define MPU_RASR_C_Pos                     17U                                            /*!< MPU 
 582:Generated_Source\PSoC6\pdl\cmsis/include/core_cm0plus.h **** #define MPU_RASR_C_Msk                     (1UL << MPU_RASR_C_Pos)                        /*!< MPU 
 583:Generated_Source\PSoC6\pdl\cmsis/include/core_cm0plus.h **** 
 584:Generated_Source\PSoC6\pdl\cmsis/include/core_cm0plus.h **** #define MPU_RASR_B_Pos                     16U                                            /*!< MPU 
 585:Generated_Source\PSoC6\pdl\cmsis/include/core_cm0plus.h **** #define MPU_RASR_B_Msk                     (1UL << MPU_RASR_B_Pos)                        /*!< MPU 
 586:Generated_Source\PSoC6\pdl\cmsis/include/core_cm0plus.h **** 
 587:Generated_Source\PSoC6\pdl\cmsis/include/core_cm0plus.h **** #define MPU_RASR_SRD_Pos                    8U                                            /*!< MPU 
 588:Generated_Source\PSoC6\pdl\cmsis/include/core_cm0plus.h **** #define MPU_RASR_SRD_Msk                   (0xFFUL << MPU_RASR_SRD_Pos)                   /*!< MPU 
 589:Generated_Source\PSoC6\pdl\cmsis/include/core_cm0plus.h **** 
 590:Generated_Source\PSoC6\pdl\cmsis/include/core_cm0plus.h **** #define MPU_RASR_SIZE_Pos                   1U                                            /*!< MPU 
 591:Generated_Source\PSoC6\pdl\cmsis/include/core_cm0plus.h **** #define MPU_RASR_SIZE_Msk                  (0x1FUL << MPU_RASR_SIZE_Pos)                  /*!< MPU 
 592:Generated_Source\PSoC6\pdl\cmsis/include/core_cm0plus.h **** 
 593:Generated_Source\PSoC6\pdl\cmsis/include/core_cm0plus.h **** #define MPU_RASR_ENABLE_Pos                 0U                                            /*!< MPU 
 594:Generated_Source\PSoC6\pdl\cmsis/include/core_cm0plus.h **** #define MPU_RASR_ENABLE_Msk                (1UL /*<< MPU_RASR_ENABLE_Pos*/)               /*!< MPU 
 595:Generated_Source\PSoC6\pdl\cmsis/include/core_cm0plus.h **** 
 596:Generated_Source\PSoC6\pdl\cmsis/include/core_cm0plus.h **** /*@} end of group CMSIS_MPU */
 597:Generated_Source\PSoC6\pdl\cmsis/include/core_cm0plus.h **** #endif
 598:Generated_Source\PSoC6\pdl\cmsis/include/core_cm0plus.h **** 
 599:Generated_Source\PSoC6\pdl\cmsis/include/core_cm0plus.h **** 
 600:Generated_Source\PSoC6\pdl\cmsis/include/core_cm0plus.h **** /**
 601:Generated_Source\PSoC6\pdl\cmsis/include/core_cm0plus.h ****   \ingroup  CMSIS_core_register
 602:Generated_Source\PSoC6\pdl\cmsis/include/core_cm0plus.h ****   \defgroup CMSIS_CoreDebug       Core Debug Registers (CoreDebug)
 603:Generated_Source\PSoC6\pdl\cmsis/include/core_cm0plus.h ****   \brief    Cortex-M0+ Core Debug Registers (DCB registers, SHCSR, and DFSR) are only accessible ov
 604:Generated_Source\PSoC6\pdl\cmsis/include/core_cm0plus.h ****             Therefore they are not covered by the Cortex-M0+ header file.
 605:Generated_Source\PSoC6\pdl\cmsis/include/core_cm0plus.h ****   @{
 606:Generated_Source\PSoC6\pdl\cmsis/include/core_cm0plus.h ****  */
ARM GAS  C:\Users\salaz\AppData\Local\Temp\ccI54lrI.s 			page 62


 607:Generated_Source\PSoC6\pdl\cmsis/include/core_cm0plus.h **** /*@} end of group CMSIS_CoreDebug */
 608:Generated_Source\PSoC6\pdl\cmsis/include/core_cm0plus.h **** 
 609:Generated_Source\PSoC6\pdl\cmsis/include/core_cm0plus.h **** 
 610:Generated_Source\PSoC6\pdl\cmsis/include/core_cm0plus.h **** /**
 611:Generated_Source\PSoC6\pdl\cmsis/include/core_cm0plus.h ****   \ingroup    CMSIS_core_register
 612:Generated_Source\PSoC6\pdl\cmsis/include/core_cm0plus.h ****   \defgroup   CMSIS_core_bitfield     Core register bit field macros
 613:Generated_Source\PSoC6\pdl\cmsis/include/core_cm0plus.h ****   \brief      Macros for use with bit field definitions (xxx_Pos, xxx_Msk).
 614:Generated_Source\PSoC6\pdl\cmsis/include/core_cm0plus.h ****   @{
 615:Generated_Source\PSoC6\pdl\cmsis/include/core_cm0plus.h ****  */
 616:Generated_Source\PSoC6\pdl\cmsis/include/core_cm0plus.h **** 
 617:Generated_Source\PSoC6\pdl\cmsis/include/core_cm0plus.h **** /**
 618:Generated_Source\PSoC6\pdl\cmsis/include/core_cm0plus.h ****   \brief   Mask and shift a bit field value for use in a register bit range.
 619:Generated_Source\PSoC6\pdl\cmsis/include/core_cm0plus.h ****   \param[in] field  Name of the register bit field.
 620:Generated_Source\PSoC6\pdl\cmsis/include/core_cm0plus.h ****   \param[in] value  Value of the bit field. This parameter is interpreted as an uint32_t type.
 621:Generated_Source\PSoC6\pdl\cmsis/include/core_cm0plus.h ****   \return           Masked and shifted value.
 622:Generated_Source\PSoC6\pdl\cmsis/include/core_cm0plus.h **** */
 623:Generated_Source\PSoC6\pdl\cmsis/include/core_cm0plus.h **** #define _VAL2FLD(field, value)    (((uint32_t)(value) << field ## _Pos) & field ## _Msk)
 624:Generated_Source\PSoC6\pdl\cmsis/include/core_cm0plus.h **** 
 625:Generated_Source\PSoC6\pdl\cmsis/include/core_cm0plus.h **** /**
 626:Generated_Source\PSoC6\pdl\cmsis/include/core_cm0plus.h ****   \brief     Mask and shift a register value to extract a bit filed value.
 627:Generated_Source\PSoC6\pdl\cmsis/include/core_cm0plus.h ****   \param[in] field  Name of the register bit field.
 628:Generated_Source\PSoC6\pdl\cmsis/include/core_cm0plus.h ****   \param[in] value  Value of register. This parameter is interpreted as an uint32_t type.
 629:Generated_Source\PSoC6\pdl\cmsis/include/core_cm0plus.h ****   \return           Masked and shifted bit field value.
 630:Generated_Source\PSoC6\pdl\cmsis/include/core_cm0plus.h **** */
 631:Generated_Source\PSoC6\pdl\cmsis/include/core_cm0plus.h **** #define _FLD2VAL(field, value)    (((uint32_t)(value) & field ## _Msk) >> field ## _Pos)
 632:Generated_Source\PSoC6\pdl\cmsis/include/core_cm0plus.h **** 
 633:Generated_Source\PSoC6\pdl\cmsis/include/core_cm0plus.h **** /*@} end of group CMSIS_core_bitfield */
 634:Generated_Source\PSoC6\pdl\cmsis/include/core_cm0plus.h **** 
 635:Generated_Source\PSoC6\pdl\cmsis/include/core_cm0plus.h **** 
 636:Generated_Source\PSoC6\pdl\cmsis/include/core_cm0plus.h **** /**
 637:Generated_Source\PSoC6\pdl\cmsis/include/core_cm0plus.h ****   \ingroup    CMSIS_core_register
 638:Generated_Source\PSoC6\pdl\cmsis/include/core_cm0plus.h ****   \defgroup   CMSIS_core_base     Core Definitions
 639:Generated_Source\PSoC6\pdl\cmsis/include/core_cm0plus.h ****   \brief      Definitions for base addresses, unions, and structures.
 640:Generated_Source\PSoC6\pdl\cmsis/include/core_cm0plus.h ****   @{
 641:Generated_Source\PSoC6\pdl\cmsis/include/core_cm0plus.h ****  */
 642:Generated_Source\PSoC6\pdl\cmsis/include/core_cm0plus.h **** 
 643:Generated_Source\PSoC6\pdl\cmsis/include/core_cm0plus.h **** /* Memory mapping of Core Hardware */
 644:Generated_Source\PSoC6\pdl\cmsis/include/core_cm0plus.h **** #define SCS_BASE            (0xE000E000UL)                            /*!< System Control Space Bas
 645:Generated_Source\PSoC6\pdl\cmsis/include/core_cm0plus.h **** #define SysTick_BASE        (SCS_BASE +  0x0010UL)                    /*!< SysTick Base Address */
 646:Generated_Source\PSoC6\pdl\cmsis/include/core_cm0plus.h **** #define NVIC_BASE           (SCS_BASE +  0x0100UL)                    /*!< NVIC Base Address */
 647:Generated_Source\PSoC6\pdl\cmsis/include/core_cm0plus.h **** #define SCB_BASE            (SCS_BASE +  0x0D00UL)                    /*!< System Control Block Bas
 648:Generated_Source\PSoC6\pdl\cmsis/include/core_cm0plus.h **** 
 649:Generated_Source\PSoC6\pdl\cmsis/include/core_cm0plus.h **** #define SCB                 ((SCB_Type       *)     SCB_BASE      )   /*!< SCB configuration struct
 650:Generated_Source\PSoC6\pdl\cmsis/include/core_cm0plus.h **** #define SysTick             ((SysTick_Type   *)     SysTick_BASE  )   /*!< SysTick configuration st
 651:Generated_Source\PSoC6\pdl\cmsis/include/core_cm0plus.h **** #define NVIC                ((NVIC_Type      *)     NVIC_BASE     )   /*!< NVIC configuration struc
 652:Generated_Source\PSoC6\pdl\cmsis/include/core_cm0plus.h **** 
 653:Generated_Source\PSoC6\pdl\cmsis/include/core_cm0plus.h **** #if defined (__MPU_PRESENT) && (__MPU_PRESENT == 1U)
 654:Generated_Source\PSoC6\pdl\cmsis/include/core_cm0plus.h ****   #define MPU_BASE          (SCS_BASE +  0x0D90UL)                    /*!< Memory Protection Unit *
 655:Generated_Source\PSoC6\pdl\cmsis/include/core_cm0plus.h ****   #define MPU               ((MPU_Type       *)     MPU_BASE      )   /*!< Memory Protection Unit *
 656:Generated_Source\PSoC6\pdl\cmsis/include/core_cm0plus.h **** #endif
 657:Generated_Source\PSoC6\pdl\cmsis/include/core_cm0plus.h **** 
 658:Generated_Source\PSoC6\pdl\cmsis/include/core_cm0plus.h **** /*@} */
 659:Generated_Source\PSoC6\pdl\cmsis/include/core_cm0plus.h **** 
 660:Generated_Source\PSoC6\pdl\cmsis/include/core_cm0plus.h **** 
 661:Generated_Source\PSoC6\pdl\cmsis/include/core_cm0plus.h **** 
 662:Generated_Source\PSoC6\pdl\cmsis/include/core_cm0plus.h **** /*******************************************************************************
 663:Generated_Source\PSoC6\pdl\cmsis/include/core_cm0plus.h ****  *                Hardware Abstraction Layer
ARM GAS  C:\Users\salaz\AppData\Local\Temp\ccI54lrI.s 			page 63


 664:Generated_Source\PSoC6\pdl\cmsis/include/core_cm0plus.h ****   Core Function Interface contains:
 665:Generated_Source\PSoC6\pdl\cmsis/include/core_cm0plus.h ****   - Core NVIC Functions
 666:Generated_Source\PSoC6\pdl\cmsis/include/core_cm0plus.h ****   - Core SysTick Functions
 667:Generated_Source\PSoC6\pdl\cmsis/include/core_cm0plus.h ****   - Core Register Access Functions
 668:Generated_Source\PSoC6\pdl\cmsis/include/core_cm0plus.h ****  ******************************************************************************/
 669:Generated_Source\PSoC6\pdl\cmsis/include/core_cm0plus.h **** /**
 670:Generated_Source\PSoC6\pdl\cmsis/include/core_cm0plus.h ****   \defgroup CMSIS_Core_FunctionInterface Functions and Instructions Reference
 671:Generated_Source\PSoC6\pdl\cmsis/include/core_cm0plus.h **** */
 672:Generated_Source\PSoC6\pdl\cmsis/include/core_cm0plus.h **** 
 673:Generated_Source\PSoC6\pdl\cmsis/include/core_cm0plus.h **** 
 674:Generated_Source\PSoC6\pdl\cmsis/include/core_cm0plus.h **** 
 675:Generated_Source\PSoC6\pdl\cmsis/include/core_cm0plus.h **** /* ##########################   NVIC functions  #################################### */
 676:Generated_Source\PSoC6\pdl\cmsis/include/core_cm0plus.h **** /**
 677:Generated_Source\PSoC6\pdl\cmsis/include/core_cm0plus.h ****   \ingroup  CMSIS_Core_FunctionInterface
 678:Generated_Source\PSoC6\pdl\cmsis/include/core_cm0plus.h ****   \defgroup CMSIS_Core_NVICFunctions NVIC Functions
 679:Generated_Source\PSoC6\pdl\cmsis/include/core_cm0plus.h ****   \brief    Functions that manage interrupts and exceptions via the NVIC.
 680:Generated_Source\PSoC6\pdl\cmsis/include/core_cm0plus.h ****   @{
 681:Generated_Source\PSoC6\pdl\cmsis/include/core_cm0plus.h ****  */
 682:Generated_Source\PSoC6\pdl\cmsis/include/core_cm0plus.h **** 
 683:Generated_Source\PSoC6\pdl\cmsis/include/core_cm0plus.h **** #ifndef CMSIS_NVIC_VIRTUAL
 684:Generated_Source\PSoC6\pdl\cmsis/include/core_cm0plus.h **** /*#define NVIC_SetPriorityGrouping    __NVIC_SetPriorityGrouping   not available for Cortex-M0+ */
 685:Generated_Source\PSoC6\pdl\cmsis/include/core_cm0plus.h **** /*#define NVIC_GetPriorityGrouping    __NVIC_GetPriorityGrouping   not available for Cortex-M0+ */
 686:Generated_Source\PSoC6\pdl\cmsis/include/core_cm0plus.h ****   #define NVIC_EnableIRQ              __NVIC_EnableIRQ
 687:Generated_Source\PSoC6\pdl\cmsis/include/core_cm0plus.h ****   #define NVIC_GetEnableIRQ           __NVIC_GetEnableIRQ
 688:Generated_Source\PSoC6\pdl\cmsis/include/core_cm0plus.h ****   #define NVIC_DisableIRQ             __NVIC_DisableIRQ
 689:Generated_Source\PSoC6\pdl\cmsis/include/core_cm0plus.h ****   #define NVIC_GetPendingIRQ          __NVIC_GetPendingIRQ
 690:Generated_Source\PSoC6\pdl\cmsis/include/core_cm0plus.h ****   #define NVIC_SetPendingIRQ          __NVIC_SetPendingIRQ
 691:Generated_Source\PSoC6\pdl\cmsis/include/core_cm0plus.h ****   #define NVIC_ClearPendingIRQ        __NVIC_ClearPendingIRQ
 692:Generated_Source\PSoC6\pdl\cmsis/include/core_cm0plus.h **** /*#define NVIC_GetActive              __NVIC_GetActive             not available for Cortex-M0+ */
 693:Generated_Source\PSoC6\pdl\cmsis/include/core_cm0plus.h ****   #define NVIC_SetPriority            __NVIC_SetPriority
 694:Generated_Source\PSoC6\pdl\cmsis/include/core_cm0plus.h ****   #define NVIC_GetPriority            __NVIC_GetPriority
 695:Generated_Source\PSoC6\pdl\cmsis/include/core_cm0plus.h **** #endif /* CMSIS_NVIC_VIRTUAL */
 696:Generated_Source\PSoC6\pdl\cmsis/include/core_cm0plus.h **** 
 697:Generated_Source\PSoC6\pdl\cmsis/include/core_cm0plus.h **** #ifndef CMSIS_VECTAB_VIRTUAL
 698:Generated_Source\PSoC6\pdl\cmsis/include/core_cm0plus.h ****   #define NVIC_SetVector              __NVIC_SetVector
 699:Generated_Source\PSoC6\pdl\cmsis/include/core_cm0plus.h ****   #define NVIC_GetVector              __NVIC_GetVector
 700:Generated_Source\PSoC6\pdl\cmsis/include/core_cm0plus.h **** #endif  /* (CMSIS_VECTAB_VIRTUAL) */
 701:Generated_Source\PSoC6\pdl\cmsis/include/core_cm0plus.h **** 
 702:Generated_Source\PSoC6\pdl\cmsis/include/core_cm0plus.h **** #define NVIC_USER_IRQ_OFFSET          16
 703:Generated_Source\PSoC6\pdl\cmsis/include/core_cm0plus.h **** 
 704:Generated_Source\PSoC6\pdl\cmsis/include/core_cm0plus.h **** 
 705:Generated_Source\PSoC6\pdl\cmsis/include/core_cm0plus.h **** /* Interrupt Priorities are WORD accessible only under ARMv6M                   */
 706:Generated_Source\PSoC6\pdl\cmsis/include/core_cm0plus.h **** /* The following MACROS handle generation of the register offset and byte masks */
 707:Generated_Source\PSoC6\pdl\cmsis/include/core_cm0plus.h **** #define _BIT_SHIFT(IRQn)         (  ((((uint32_t)(int32_t)(IRQn))         )      &  0x03UL) * 8UL)
 708:Generated_Source\PSoC6\pdl\cmsis/include/core_cm0plus.h **** #define _SHP_IDX(IRQn)           ( (((((uint32_t)(int32_t)(IRQn)) & 0x0FUL)-8UL) >>    2UL)      )
 709:Generated_Source\PSoC6\pdl\cmsis/include/core_cm0plus.h **** #define _IP_IDX(IRQn)            (   (((uint32_t)(int32_t)(IRQn))                >>    2UL)      )
 710:Generated_Source\PSoC6\pdl\cmsis/include/core_cm0plus.h **** 
 711:Generated_Source\PSoC6\pdl\cmsis/include/core_cm0plus.h **** 
 712:Generated_Source\PSoC6\pdl\cmsis/include/core_cm0plus.h **** /**
 713:Generated_Source\PSoC6\pdl\cmsis/include/core_cm0plus.h ****   \brief   Enable Interrupt
 714:Generated_Source\PSoC6\pdl\cmsis/include/core_cm0plus.h ****   \details Enables a device specific interrupt in the NVIC interrupt controller.
 715:Generated_Source\PSoC6\pdl\cmsis/include/core_cm0plus.h ****   \param [in]      IRQn  Device specific interrupt number.
 716:Generated_Source\PSoC6\pdl\cmsis/include/core_cm0plus.h ****   \note    IRQn must not be negative.
 717:Generated_Source\PSoC6\pdl\cmsis/include/core_cm0plus.h ****  */
 718:Generated_Source\PSoC6\pdl\cmsis/include/core_cm0plus.h **** __STATIC_INLINE void __NVIC_EnableIRQ(IRQn_Type IRQn)
 719:Generated_Source\PSoC6\pdl\cmsis/include/core_cm0plus.h **** {
 720:Generated_Source\PSoC6\pdl\cmsis/include/core_cm0plus.h ****   if ((int32_t)(IRQn) >= 0)
ARM GAS  C:\Users\salaz\AppData\Local\Temp\ccI54lrI.s 			page 64


 721:Generated_Source\PSoC6\pdl\cmsis/include/core_cm0plus.h ****   {
 722:Generated_Source\PSoC6\pdl\cmsis/include/core_cm0plus.h ****     NVIC->ISER[0U] = (uint32_t)(1UL << (((uint32_t)(int32_t)IRQn) & 0x1FUL));
 723:Generated_Source\PSoC6\pdl\cmsis/include/core_cm0plus.h ****   }
 724:Generated_Source\PSoC6\pdl\cmsis/include/core_cm0plus.h **** }
 725:Generated_Source\PSoC6\pdl\cmsis/include/core_cm0plus.h **** 
 726:Generated_Source\PSoC6\pdl\cmsis/include/core_cm0plus.h **** 
 727:Generated_Source\PSoC6\pdl\cmsis/include/core_cm0plus.h **** /**
 728:Generated_Source\PSoC6\pdl\cmsis/include/core_cm0plus.h ****   \brief   Get Interrupt Enable status
 729:Generated_Source\PSoC6\pdl\cmsis/include/core_cm0plus.h ****   \details Returns a device specific interrupt enable status from the NVIC interrupt controller.
 730:Generated_Source\PSoC6\pdl\cmsis/include/core_cm0plus.h ****   \param [in]      IRQn  Device specific interrupt number.
 731:Generated_Source\PSoC6\pdl\cmsis/include/core_cm0plus.h ****   \return             0  Interrupt is not enabled.
 732:Generated_Source\PSoC6\pdl\cmsis/include/core_cm0plus.h ****   \return             1  Interrupt is enabled.
 733:Generated_Source\PSoC6\pdl\cmsis/include/core_cm0plus.h ****   \note    IRQn must not be negative.
 734:Generated_Source\PSoC6\pdl\cmsis/include/core_cm0plus.h ****  */
 735:Generated_Source\PSoC6\pdl\cmsis/include/core_cm0plus.h **** __STATIC_INLINE uint32_t __NVIC_GetEnableIRQ(IRQn_Type IRQn)
 736:Generated_Source\PSoC6\pdl\cmsis/include/core_cm0plus.h **** {
 737:Generated_Source\PSoC6\pdl\cmsis/include/core_cm0plus.h ****   if ((int32_t)(IRQn) >= 0)
 738:Generated_Source\PSoC6\pdl\cmsis/include/core_cm0plus.h ****   {
 739:Generated_Source\PSoC6\pdl\cmsis/include/core_cm0plus.h ****     return((uint32_t)(((NVIC->ISER[0U] & (1UL << (((uint32_t)(int32_t)IRQn) & 0x1FUL))) != 0UL) ? 1
 740:Generated_Source\PSoC6\pdl\cmsis/include/core_cm0plus.h ****   }
 741:Generated_Source\PSoC6\pdl\cmsis/include/core_cm0plus.h ****   else
 742:Generated_Source\PSoC6\pdl\cmsis/include/core_cm0plus.h ****   {
 743:Generated_Source\PSoC6\pdl\cmsis/include/core_cm0plus.h ****     return(0U);
 744:Generated_Source\PSoC6\pdl\cmsis/include/core_cm0plus.h ****   }
 745:Generated_Source\PSoC6\pdl\cmsis/include/core_cm0plus.h **** }
 746:Generated_Source\PSoC6\pdl\cmsis/include/core_cm0plus.h **** 
 747:Generated_Source\PSoC6\pdl\cmsis/include/core_cm0plus.h **** 
 748:Generated_Source\PSoC6\pdl\cmsis/include/core_cm0plus.h **** /**
 749:Generated_Source\PSoC6\pdl\cmsis/include/core_cm0plus.h ****   \brief   Disable Interrupt
 750:Generated_Source\PSoC6\pdl\cmsis/include/core_cm0plus.h ****   \details Disables a device specific interrupt in the NVIC interrupt controller.
 751:Generated_Source\PSoC6\pdl\cmsis/include/core_cm0plus.h ****   \param [in]      IRQn  Device specific interrupt number.
 752:Generated_Source\PSoC6\pdl\cmsis/include/core_cm0plus.h ****   \note    IRQn must not be negative.
 753:Generated_Source\PSoC6\pdl\cmsis/include/core_cm0plus.h ****  */
 754:Generated_Source\PSoC6\pdl\cmsis/include/core_cm0plus.h **** __STATIC_INLINE void __NVIC_DisableIRQ(IRQn_Type IRQn)
 755:Generated_Source\PSoC6\pdl\cmsis/include/core_cm0plus.h **** {
 756:Generated_Source\PSoC6\pdl\cmsis/include/core_cm0plus.h ****   if ((int32_t)(IRQn) >= 0)
 757:Generated_Source\PSoC6\pdl\cmsis/include/core_cm0plus.h ****   {
 758:Generated_Source\PSoC6\pdl\cmsis/include/core_cm0plus.h ****     NVIC->ICER[0U] = (uint32_t)(1UL << (((uint32_t)(int32_t)IRQn) & 0x1FUL));
 759:Generated_Source\PSoC6\pdl\cmsis/include/core_cm0plus.h ****     __DSB();
 760:Generated_Source\PSoC6\pdl\cmsis/include/core_cm0plus.h ****     __ISB();
 761:Generated_Source\PSoC6\pdl\cmsis/include/core_cm0plus.h ****   }
 762:Generated_Source\PSoC6\pdl\cmsis/include/core_cm0plus.h **** }
 763:Generated_Source\PSoC6\pdl\cmsis/include/core_cm0plus.h **** 
 764:Generated_Source\PSoC6\pdl\cmsis/include/core_cm0plus.h **** 
 765:Generated_Source\PSoC6\pdl\cmsis/include/core_cm0plus.h **** /**
 766:Generated_Source\PSoC6\pdl\cmsis/include/core_cm0plus.h ****   \brief   Get Pending Interrupt
 767:Generated_Source\PSoC6\pdl\cmsis/include/core_cm0plus.h ****   \details Reads the NVIC pending register and returns the pending bit for the specified device spe
 768:Generated_Source\PSoC6\pdl\cmsis/include/core_cm0plus.h ****   \param [in]      IRQn  Device specific interrupt number.
 769:Generated_Source\PSoC6\pdl\cmsis/include/core_cm0plus.h ****   \return             0  Interrupt status is not pending.
 770:Generated_Source\PSoC6\pdl\cmsis/include/core_cm0plus.h ****   \return             1  Interrupt status is pending.
 771:Generated_Source\PSoC6\pdl\cmsis/include/core_cm0plus.h ****   \note    IRQn must not be negative.
 772:Generated_Source\PSoC6\pdl\cmsis/include/core_cm0plus.h ****  */
 773:Generated_Source\PSoC6\pdl\cmsis/include/core_cm0plus.h **** __STATIC_INLINE uint32_t __NVIC_GetPendingIRQ(IRQn_Type IRQn)
 774:Generated_Source\PSoC6\pdl\cmsis/include/core_cm0plus.h **** {
 775:Generated_Source\PSoC6\pdl\cmsis/include/core_cm0plus.h ****   if ((int32_t)(IRQn) >= 0)
 776:Generated_Source\PSoC6\pdl\cmsis/include/core_cm0plus.h ****   {
 777:Generated_Source\PSoC6\pdl\cmsis/include/core_cm0plus.h ****     return((uint32_t)(((NVIC->ISPR[0U] & (1UL << (((uint32_t)(int32_t)IRQn) & 0x1FUL))) != 0UL) ? 1
ARM GAS  C:\Users\salaz\AppData\Local\Temp\ccI54lrI.s 			page 65


 778:Generated_Source\PSoC6\pdl\cmsis/include/core_cm0plus.h ****   }
 779:Generated_Source\PSoC6\pdl\cmsis/include/core_cm0plus.h ****   else
 780:Generated_Source\PSoC6\pdl\cmsis/include/core_cm0plus.h ****   {
 781:Generated_Source\PSoC6\pdl\cmsis/include/core_cm0plus.h ****     return(0U);
 782:Generated_Source\PSoC6\pdl\cmsis/include/core_cm0plus.h ****   }
 783:Generated_Source\PSoC6\pdl\cmsis/include/core_cm0plus.h **** }
 784:Generated_Source\PSoC6\pdl\cmsis/include/core_cm0plus.h **** 
 785:Generated_Source\PSoC6\pdl\cmsis/include/core_cm0plus.h **** 
 786:Generated_Source\PSoC6\pdl\cmsis/include/core_cm0plus.h **** /**
 787:Generated_Source\PSoC6\pdl\cmsis/include/core_cm0plus.h ****   \brief   Set Pending Interrupt
 788:Generated_Source\PSoC6\pdl\cmsis/include/core_cm0plus.h ****   \details Sets the pending bit of a device specific interrupt in the NVIC pending register.
 789:Generated_Source\PSoC6\pdl\cmsis/include/core_cm0plus.h ****   \param [in]      IRQn  Device specific interrupt number.
 790:Generated_Source\PSoC6\pdl\cmsis/include/core_cm0plus.h ****   \note    IRQn must not be negative.
 791:Generated_Source\PSoC6\pdl\cmsis/include/core_cm0plus.h ****  */
 792:Generated_Source\PSoC6\pdl\cmsis/include/core_cm0plus.h **** __STATIC_INLINE void __NVIC_SetPendingIRQ(IRQn_Type IRQn)
 793:Generated_Source\PSoC6\pdl\cmsis/include/core_cm0plus.h **** {
 794:Generated_Source\PSoC6\pdl\cmsis/include/core_cm0plus.h ****   if ((int32_t)(IRQn) >= 0)
 795:Generated_Source\PSoC6\pdl\cmsis/include/core_cm0plus.h ****   {
 796:Generated_Source\PSoC6\pdl\cmsis/include/core_cm0plus.h ****     NVIC->ISPR[0U] = (uint32_t)(1UL << (((uint32_t)(int32_t)IRQn) & 0x1FUL));
 797:Generated_Source\PSoC6\pdl\cmsis/include/core_cm0plus.h ****   }
 798:Generated_Source\PSoC6\pdl\cmsis/include/core_cm0plus.h **** }
 799:Generated_Source\PSoC6\pdl\cmsis/include/core_cm0plus.h **** 
 800:Generated_Source\PSoC6\pdl\cmsis/include/core_cm0plus.h **** 
 801:Generated_Source\PSoC6\pdl\cmsis/include/core_cm0plus.h **** /**
 802:Generated_Source\PSoC6\pdl\cmsis/include/core_cm0plus.h ****   \brief   Clear Pending Interrupt
 803:Generated_Source\PSoC6\pdl\cmsis/include/core_cm0plus.h ****   \details Clears the pending bit of a device specific interrupt in the NVIC pending register.
 804:Generated_Source\PSoC6\pdl\cmsis/include/core_cm0plus.h ****   \param [in]      IRQn  Device specific interrupt number.
 805:Generated_Source\PSoC6\pdl\cmsis/include/core_cm0plus.h ****   \note    IRQn must not be negative.
 806:Generated_Source\PSoC6\pdl\cmsis/include/core_cm0plus.h ****  */
 807:Generated_Source\PSoC6\pdl\cmsis/include/core_cm0plus.h **** __STATIC_INLINE void __NVIC_ClearPendingIRQ(IRQn_Type IRQn)
 808:Generated_Source\PSoC6\pdl\cmsis/include/core_cm0plus.h **** {
 809:Generated_Source\PSoC6\pdl\cmsis/include/core_cm0plus.h ****   if ((int32_t)(IRQn) >= 0)
 997              		.loc 4 809 0
 998 044c 002A     		cmp	r2, #0
 999 044e 07DB     		blt	.L1
 810:Generated_Source\PSoC6\pdl\cmsis/include/core_cm0plus.h ****   {
 811:Generated_Source\PSoC6\pdl\cmsis/include/core_cm0plus.h ****     NVIC->ICPR[0U] = (uint32_t)(1UL << (((uint32_t)(int32_t)IRQn) & 0x1FUL));
 1000              		.loc 4 811 0
 1001 0450 1F23     		movs	r3, #31
 1002 0452 1A40     		ands	r2, r3
 1003              	.LVL92:
 1004 0454 1E3B     		subs	r3, r3, #30
 1005 0456 9340     		lsls	r3, r3, r2
 1006 0458 C022     		movs	r2, #192
 1007 045a 5200     		lsls	r2, r2, #1
 1008 045c 0649     		ldr	r1, .L58+20
 1009              	.LVL93:
 1010 045e 8B50     		str	r3, [r1, r2]
 1011              	.LVL94:
 1012              	.L1:
 1013              	.LBE167:
 1014              	.LBE166:
 357:AppControl.c  **** }
 1015              		.loc 1 357 0
 1016 0460 04B0     		add	sp, sp, #16
 1017              		@ sp needed
 1018 0462 10BD     		pop	{r4, pc}
ARM GAS  C:\Users\salaz\AppData\Local\Temp\ccI54lrI.s 			page 66


 1019              	.L59:
 1020              		.align	2
 1021              	.L58:
 1022 0464 00000000 		.word	.LANCHOR0
 1023 0468 80023240 		.word	1077019264
 1024 046c 00063240 		.word	1077020160
 1025 0470 00000000 		.word	.LANCHOR1
 1026 0474 00000000 		.word	AppControl_IRQ_cfg
 1027 0478 00E100E0 		.word	-536813312
 1028              		.cfi_endproc
 1029              	.LFE792:
 1030              		.size	AppControlHandler, .-AppControlHandler
 1031              		.global	stolenLightCycles
 1032              		.global	stolenAdvertise_s
 1033              		.global	verifyLightCycles
 1034              		.global	verifyAdvertise_s
 1035              		.global	rideNightCheck_ms
 1036              		.global	nightThreshold
 1037              		.global	morningThreshold
 1038              		.data
 1039              		.align	2
 1040              		.set	.LANCHOR1,. + 0
 1041              		.type	morningThreshold, %object
 1042              		.size	morningThreshold, 2
 1043              	morningThreshold:
 1044 0000 0700     		.short	7
 1045              		.type	nightThreshold, %object
 1046              		.size	nightThreshold, 2
 1047              	nightThreshold:
 1048 0002 1400     		.short	20
 1049              		.type	verifyLightCycles, %object
 1050              		.size	verifyLightCycles, 1
 1051              	verifyLightCycles:
 1052 0004 08       		.byte	8
 1053 0005 00       		.space	1
 1054              		.type	verifyAdvertise_s, %object
 1055              		.size	verifyAdvertise_s, 2
 1056              	verifyAdvertise_s:
 1057 0006 1E00     		.short	30
 1058              		.type	stolenLightCycles, %object
 1059              		.size	stolenLightCycles, 1
 1060              	stolenLightCycles:
 1061 0008 0F       		.byte	15
 1062 0009 00       		.space	1
 1063              		.type	stolenAdvertise_s, %object
 1064              		.size	stolenAdvertise_s, 2
 1065              	stolenAdvertise_s:
 1066 000a 1E00     		.short	30
 1067              		.type	rideNightCheck_ms, %object
 1068              		.size	rideNightCheck_ms, 4
 1069              	rideNightCheck_ms:
 1070 000c 60EA0000 		.word	60000
 1071              		.section	.rodata.str1.4,"aMS",%progbits,1
 1072              		.align	2
 1073              	.LC2:
 1074 0000 46534D5F 		.ascii	"FSM_INITIALIZE\015\000"
 1074      494E4954 
ARM GAS  C:\Users\salaz\AppData\Local\Temp\ccI54lrI.s 			page 67


 1074      49414C49 
 1074      5A450D00 
 1075              	.LC4:
 1076 0010 46534D5F 		.ascii	"FSM_IDLE\015\000"
 1076      49444C45 
 1076      0D00
 1077 001a 0000     		.space	2
 1078              	.LC6:
 1079 001c 46534D5F 		.ascii	"FSM_CHECK_MOTION\015\000"
 1079      43484543 
 1079      4B5F4D4F 
 1079      54494F4E 
 1079      0D00
 1080 002e 0000     		.space	2
 1081              	.LC8:
 1082 0030 46534D5F 		.ascii	"FSM_VERIFY_USER\015\000"
 1082      56455249 
 1082      46595F55 
 1082      5345520D 
 1082      00
 1083 0041 000000   		.space	3
 1084              	.LC10:
 1085 0044 46534D5F 		.ascii	"FSM_STOLEN\015\000"
 1085      53544F4C 
 1085      454E0D00 
 1086              	.LC12:
 1087 0050 46534D5F 		.ascii	"FSM_RIDE\015\000"
 1087      52494445 
 1087      0D00
 1088 005a 0000     		.space	2
 1089              	.LC15:
 1090 005c 46534D5F 		.ascii	"FSM_DAY\015\000"
 1090      4441590D 
 1090      00
 1091 0065 000000   		.space	3
 1092              	.LC17:
 1093 0068 46534D5F 		.ascii	"FSM_NIGHT\015\000"
 1093      4E494748 
 1093      540D00
 1094              		.bss
 1095              		.set	.LANCHOR0,. + 0
 1096              		.type	current_state.18944, %object
 1097              		.size	current_state.18944, 1
 1098              	current_state.18944:
 1099 0000 00       		.space	1
 1100              		.type	next_state.18945, %object
 1101              		.size	next_state.18945, 1
 1102              	next_state.18945:
 1103 0001 00       		.space	1
 1104              		.type	motion_latch.18942, %object
 1105              		.size	motion_latch.18942, 1
 1106              	motion_latch.18942:
 1107 0002 00       		.space	1
 1108              		.text
 1109              	.Letext0:
 1110              		.file 5 "Generated_Source\\PSoC6\\pdl\\devices/psoc6/psoc63/include/cyble_416045_02.h"
 1111              		.file 6 "c:\\program files (x86)\\cypress\\psoc creator\\4.2\\psoc creator\\import\\gnu\\arm\\5.4.
ARM GAS  C:\Users\salaz\AppData\Local\Temp\ccI54lrI.s 			page 68


 1112              		.file 7 "c:\\program files (x86)\\cypress\\psoc creator\\4.2\\psoc creator\\import\\gnu\\arm\\5.4.
 1113              		.file 8 "Generated_Source\\PSoC6\\pdl\\devices/psoc6/ip/cyip_gpio.h"
 1114              		.file 9 "Generated_Source\\PSoC6\\pdl\\devices/psoc6/ip/cyip_scb.h"
 1115              		.file 10 "Generated_Source\\PSoC6\\pdl\\drivers/peripheral/syslib/cy_syslib.h"
 1116              		.file 11 "Generated_Source\\PSoC6\\pdl\\drivers/peripheral/sysint/cy_sysint.h"
 1117              		.file 12 "Generated_Source\\PSoC6\\pdl\\drivers/peripheral/tcpwm/cy_tcpwm_counter.h"
 1118              		.file 13 "Generated_Source\\PSoC6\\pdl\\drivers/peripheral/tcpwm/cy_tcpwm_pwm.h"
 1119              		.file 14 "Generated_Source\\PSoC6\\pdl\\drivers/peripheral/scb/cy_scb_i2c.h"
 1120              		.file 15 "Generated_Source\\PSoC6\\pdl\\drivers/peripheral/scb/cy_scb_uart.h"
 1121              		.file 16 "Generated_Source\\PSoC6\\pdl\\middleware/ble/cy_ble_stack.h"
 1122              		.file 17 "Generated_Source\\PSoC6\\pdl\\middleware/ble/cy_ble_stack_host_main.h"
 1123              		.file 18 "Generated_Source\\PSoC6\\pdl\\middleware/ble/cy_ble_gap.h"
 1124              		.file 19 "./KinOS.h"
 1125              		.file 20 "Generated_Source\\PSoC6\\pdl\\drivers/peripheral/rtc/cy_rtc.h"
 1126              		.file 21 "Generated_Source\\PSoC6/cyfitter_sysint_cfg.h"
 1127              		.file 22 "Generated_Source\\PSoC6/UART_DEBUG.h"
 1128              		.file 23 "Generated_Source\\PSoC6/SensorBus.h"
 1129              		.file 24 "Generated_Source\\PSoC6/LightOutputC.h"
 1130              		.file 25 "Generated_Source\\PSoC6/LightOutputA.h"
 1131              		.file 26 "Generated_Source\\PSoC6/LightTimer.h"
 1132              		.file 27 "Generated_Source\\PSoC6/LightOutputB.h"
 1133              		.file 28 "Generated_Source\\PSoC6/MotorOutput.h"
 1134              		.file 29 "Generated_Source\\PSoC6/MotorTimer.h"
 1135              		.file 30 "Generated_Source\\PSoC6/ChimeOutput.h"
 1136              		.file 31 "Generated_Source\\PSoC6/ChimeTimer.h"
 1137              		.file 32 "<built-in>"
 1138              		.section	.debug_info,"",%progbits
 1139              	.Ldebug_info0:
 1140 0000 30260000 		.4byte	0x2630
 1141 0004 0400     		.2byte	0x4
 1142 0006 00000000 		.4byte	.Ldebug_abbrev0
 1143 000a 04       		.byte	0x4
 1144 000b 01       		.uleb128 0x1
 1145 000c DC0D0000 		.4byte	.LASF660
 1146 0010 0C       		.byte	0xc
 1147 0011 8A1D0000 		.4byte	.LASF661
 1148 0015 02110000 		.4byte	.LASF662
 1149 0019 00000000 		.4byte	.Ldebug_ranges0+0
 1150 001d 00000000 		.4byte	0
 1151 0021 00000000 		.4byte	.Ldebug_line0
 1152 0025 02       		.uleb128 0x2
 1153 0026 02       		.byte	0x2
 1154 0027 1C010000 		.4byte	0x11c
 1155 002b 05       		.byte	0x5
 1156 002c 24       		.byte	0x24
 1157 002d 1C010000 		.4byte	0x11c
 1158 0031 03       		.uleb128 0x3
 1159 0032 2F260000 		.4byte	.LASF0
 1160 0036 71       		.sleb128 -15
 1161 0037 03       		.uleb128 0x3
 1162 0038 DD150000 		.4byte	.LASF1
 1163 003c 72       		.sleb128 -14
 1164 003d 03       		.uleb128 0x3
 1165 003e 35340000 		.4byte	.LASF2
 1166 0042 73       		.sleb128 -13
 1167 0043 03       		.uleb128 0x3
 1168 0044 641B0000 		.4byte	.LASF3
ARM GAS  C:\Users\salaz\AppData\Local\Temp\ccI54lrI.s 			page 69


 1169 0048 7B       		.sleb128 -5
 1170 0049 03       		.uleb128 0x3
 1171 004a E81A0000 		.4byte	.LASF4
 1172 004e 7E       		.sleb128 -2
 1173 004f 03       		.uleb128 0x3
 1174 0050 3B0A0000 		.4byte	.LASF5
 1175 0054 7F       		.sleb128 -1
 1176 0055 04       		.uleb128 0x4
 1177 0056 EE030000 		.4byte	.LASF6
 1178 005a 00       		.byte	0
 1179 005b 04       		.uleb128 0x4
 1180 005c 1C010000 		.4byte	.LASF7
 1181 0060 01       		.byte	0x1
 1182 0061 04       		.uleb128 0x4
 1183 0062 FD1B0000 		.4byte	.LASF8
 1184 0066 02       		.byte	0x2
 1185 0067 04       		.uleb128 0x4
 1186 0068 C80D0000 		.4byte	.LASF9
 1187 006c 03       		.byte	0x3
 1188 006d 04       		.uleb128 0x4
 1189 006e 132E0000 		.4byte	.LASF10
 1190 0072 04       		.byte	0x4
 1191 0073 04       		.uleb128 0x4
 1192 0074 642B0000 		.4byte	.LASF11
 1193 0078 05       		.byte	0x5
 1194 0079 04       		.uleb128 0x4
 1195 007a 64160000 		.4byte	.LASF12
 1196 007e 06       		.byte	0x6
 1197 007f 04       		.uleb128 0x4
 1198 0080 EE010000 		.4byte	.LASF13
 1199 0084 07       		.byte	0x7
 1200 0085 04       		.uleb128 0x4
 1201 0086 DF340000 		.4byte	.LASF14
 1202 008a 08       		.byte	0x8
 1203 008b 04       		.uleb128 0x4
 1204 008c F51E0000 		.4byte	.LASF15
 1205 0090 09       		.byte	0x9
 1206 0091 04       		.uleb128 0x4
 1207 0092 73200000 		.4byte	.LASF16
 1208 0096 0A       		.byte	0xa
 1209 0097 04       		.uleb128 0x4
 1210 0098 2D1D0000 		.4byte	.LASF17
 1211 009c 0B       		.byte	0xb
 1212 009d 04       		.uleb128 0x4
 1213 009e 592C0000 		.4byte	.LASF18
 1214 00a2 0C       		.byte	0xc
 1215 00a3 04       		.uleb128 0x4
 1216 00a4 5F060000 		.4byte	.LASF19
 1217 00a8 0D       		.byte	0xd
 1218 00a9 04       		.uleb128 0x4
 1219 00aa 73270000 		.4byte	.LASF20
 1220 00ae 0E       		.byte	0xe
 1221 00af 04       		.uleb128 0x4
 1222 00b0 85230000 		.4byte	.LASF21
 1223 00b4 0F       		.byte	0xf
 1224 00b5 04       		.uleb128 0x4
 1225 00b6 38100000 		.4byte	.LASF22
ARM GAS  C:\Users\salaz\AppData\Local\Temp\ccI54lrI.s 			page 70


 1226 00ba 10       		.byte	0x10
 1227 00bb 04       		.uleb128 0x4
 1228 00bc 0C300000 		.4byte	.LASF23
 1229 00c0 11       		.byte	0x11
 1230 00c1 04       		.uleb128 0x4
 1231 00c2 A02C0000 		.4byte	.LASF24
 1232 00c6 12       		.byte	0x12
 1233 00c7 04       		.uleb128 0x4
 1234 00c8 DB170000 		.4byte	.LASF25
 1235 00cc 13       		.byte	0x13
 1236 00cd 04       		.uleb128 0x4
 1237 00ce 92350000 		.4byte	.LASF26
 1238 00d2 14       		.byte	0x14
 1239 00d3 04       		.uleb128 0x4
 1240 00d4 7B1F0000 		.4byte	.LASF27
 1241 00d8 15       		.byte	0x15
 1242 00d9 04       		.uleb128 0x4
 1243 00da AB1C0000 		.4byte	.LASF28
 1244 00de 16       		.byte	0x16
 1245 00df 04       		.uleb128 0x4
 1246 00e0 6A080000 		.4byte	.LASF29
 1247 00e4 17       		.byte	0x17
 1248 00e5 04       		.uleb128 0x4
 1249 00e6 532A0000 		.4byte	.LASF30
 1250 00ea 18       		.byte	0x18
 1251 00eb 04       		.uleb128 0x4
 1252 00ec AF260000 		.4byte	.LASF31
 1253 00f0 19       		.byte	0x19
 1254 00f1 04       		.uleb128 0x4
 1255 00f2 DC120000 		.4byte	.LASF32
 1256 00f6 1A       		.byte	0x1a
 1257 00f7 04       		.uleb128 0x4
 1258 00f8 EE320000 		.4byte	.LASF33
 1259 00fc 1B       		.byte	0x1b
 1260 00fd 04       		.uleb128 0x4
 1261 00fe 5F0B0000 		.4byte	.LASF34
 1262 0102 1C       		.byte	0x1c
 1263 0103 04       		.uleb128 0x4
 1264 0104 D91A0000 		.4byte	.LASF35
 1265 0108 1D       		.byte	0x1d
 1266 0109 04       		.uleb128 0x4
 1267 010a FC010000 		.4byte	.LASF36
 1268 010e 1E       		.byte	0x1e
 1269 010f 04       		.uleb128 0x4
 1270 0110 ED340000 		.4byte	.LASF37
 1271 0114 1F       		.byte	0x1f
 1272 0115 04       		.uleb128 0x4
 1273 0116 B70D0000 		.4byte	.LASF38
 1274 011a F0       		.byte	0xf0
 1275 011b 00       		.byte	0
 1276 011c 05       		.uleb128 0x5
 1277 011d 02       		.byte	0x2
 1278 011e 05       		.byte	0x5
 1279 011f BD2B0000 		.4byte	.LASF187
 1280 0123 06       		.uleb128 0x6
 1281 0124 AC160000 		.4byte	.LASF189
 1282 0128 05       		.byte	0x5
ARM GAS  C:\Users\salaz\AppData\Local\Temp\ccI54lrI.s 			page 71


 1283 0129 F4       		.byte	0xf4
 1284 012a 25000000 		.4byte	0x25
 1285 012e 02       		.uleb128 0x2
 1286 012f 01       		.byte	0x1
 1287 0130 B3040000 		.4byte	0x4b3
 1288 0134 05       		.byte	0x5
 1289 0135 FD       		.byte	0xfd
 1290 0136 B3040000 		.4byte	0x4b3
 1291 013a 04       		.uleb128 0x4
 1292 013b 1A0F0000 		.4byte	.LASF39
 1293 013f 00       		.byte	0
 1294 0140 04       		.uleb128 0x4
 1295 0141 B5200000 		.4byte	.LASF40
 1296 0145 01       		.byte	0x1
 1297 0146 04       		.uleb128 0x4
 1298 0147 4E190000 		.4byte	.LASF41
 1299 014b 02       		.byte	0x2
 1300 014c 04       		.uleb128 0x4
 1301 014d 021A0000 		.4byte	.LASF42
 1302 0151 03       		.byte	0x3
 1303 0152 04       		.uleb128 0x4
 1304 0153 1F060000 		.4byte	.LASF43
 1305 0157 04       		.byte	0x4
 1306 0158 04       		.uleb128 0x4
 1307 0159 B6020000 		.4byte	.LASF44
 1308 015d 05       		.byte	0x5
 1309 015e 04       		.uleb128 0x4
 1310 015f 69230000 		.4byte	.LASF45
 1311 0163 06       		.byte	0x6
 1312 0164 04       		.uleb128 0x4
 1313 0165 1C100000 		.4byte	.LASF46
 1314 0169 07       		.byte	0x7
 1315 016a 04       		.uleb128 0x4
 1316 016b E10B0000 		.4byte	.LASF47
 1317 016f 08       		.byte	0x8
 1318 0170 04       		.uleb128 0x4
 1319 0171 842C0000 		.4byte	.LASF48
 1320 0175 09       		.byte	0x9
 1321 0176 04       		.uleb128 0x4
 1322 0177 5C2D0000 		.4byte	.LASF49
 1323 017b 0A       		.byte	0xa
 1324 017c 04       		.uleb128 0x4
 1325 017d D7180000 		.4byte	.LASF50
 1326 0181 0B       		.byte	0xb
 1327 0182 04       		.uleb128 0x4
 1328 0183 25040000 		.4byte	.LASF51
 1329 0187 0C       		.byte	0xc
 1330 0188 04       		.uleb128 0x4
 1331 0189 42010000 		.4byte	.LASF52
 1332 018d 0D       		.byte	0xd
 1333 018e 04       		.uleb128 0x4
 1334 018f 7D210000 		.4byte	.LASF53
 1335 0193 0E       		.byte	0xe
 1336 0194 04       		.uleb128 0x4
 1337 0195 5B1F0000 		.4byte	.LASF54
 1338 0199 0F       		.byte	0xf
 1339 019a 04       		.uleb128 0x4
ARM GAS  C:\Users\salaz\AppData\Local\Temp\ccI54lrI.s 			page 72


 1340 019b 6E2F0000 		.4byte	.LASF55
 1341 019f 10       		.byte	0x10
 1342 01a0 04       		.uleb128 0x4
 1343 01a1 092C0000 		.4byte	.LASF56
 1344 01a5 11       		.byte	0x11
 1345 01a6 04       		.uleb128 0x4
 1346 01a7 442C0000 		.4byte	.LASF57
 1347 01ab 12       		.byte	0x12
 1348 01ac 04       		.uleb128 0x4
 1349 01ad 6F340000 		.4byte	.LASF58
 1350 01b1 13       		.byte	0x13
 1351 01b2 04       		.uleb128 0x4
 1352 01b3 DD210000 		.4byte	.LASF59
 1353 01b7 14       		.byte	0x14
 1354 01b8 04       		.uleb128 0x4
 1355 01b9 0F340000 		.4byte	.LASF60
 1356 01bd 15       		.byte	0x15
 1357 01be 04       		.uleb128 0x4
 1358 01bf 25030000 		.4byte	.LASF61
 1359 01c3 16       		.byte	0x16
 1360 01c4 04       		.uleb128 0x4
 1361 01c5 1F2C0000 		.4byte	.LASF62
 1362 01c9 17       		.byte	0x17
 1363 01ca 04       		.uleb128 0x4
 1364 01cb E7230000 		.4byte	.LASF63
 1365 01cf 18       		.byte	0x18
 1366 01d0 04       		.uleb128 0x4
 1367 01d1 19320000 		.4byte	.LASF64
 1368 01d5 19       		.byte	0x19
 1369 01d6 04       		.uleb128 0x4
 1370 01d7 452E0000 		.4byte	.LASF65
 1371 01db 1A       		.byte	0x1a
 1372 01dc 04       		.uleb128 0x4
 1373 01dd C4190000 		.4byte	.LASF66
 1374 01e1 1B       		.byte	0x1b
 1375 01e2 04       		.uleb128 0x4
 1376 01e3 D3050000 		.4byte	.LASF67
 1377 01e7 1C       		.byte	0x1c
 1378 01e8 04       		.uleb128 0x4
 1379 01e9 80020000 		.4byte	.LASF68
 1380 01ed 1D       		.byte	0x1d
 1381 01ee 04       		.uleb128 0x4
 1382 01ef 3D230000 		.4byte	.LASF69
 1383 01f3 1E       		.byte	0x1e
 1384 01f4 04       		.uleb128 0x4
 1385 01f5 E90F0000 		.4byte	.LASF70
 1386 01f9 1F       		.byte	0x1f
 1387 01fa 04       		.uleb128 0x4
 1388 01fb 6E0B0000 		.4byte	.LASF71
 1389 01ff 20       		.byte	0x20
 1390 0200 04       		.uleb128 0x4
 1391 0201 682C0000 		.4byte	.LASF72
 1392 0205 21       		.byte	0x21
 1393 0206 04       		.uleb128 0x4
 1394 0207 BF170000 		.4byte	.LASF73
 1395 020b 22       		.byte	0x22
 1396 020c 04       		.uleb128 0x4
ARM GAS  C:\Users\salaz\AppData\Local\Temp\ccI54lrI.s 			page 73


 1397 020d 3C1D0000 		.4byte	.LASF74
 1398 0211 23       		.byte	0x23
 1399 0212 04       		.uleb128 0x4
 1400 0213 F9080000 		.4byte	.LASF75
 1401 0217 24       		.byte	0x24
 1402 0218 04       		.uleb128 0x4
 1403 0219 F82A0000 		.4byte	.LASF76
 1404 021d 25       		.byte	0x25
 1405 021e 04       		.uleb128 0x4
 1406 021f A7270000 		.4byte	.LASF77
 1407 0223 26       		.byte	0x26
 1408 0224 04       		.uleb128 0x4
 1409 0225 9C130000 		.4byte	.LASF78
 1410 0229 27       		.byte	0x27
 1411 022a 04       		.uleb128 0x4
 1412 022b CC330000 		.4byte	.LASF79
 1413 022f 28       		.byte	0x28
 1414 0230 04       		.uleb128 0x4
 1415 0231 38290000 		.4byte	.LASF80
 1416 0235 29       		.byte	0x29
 1417 0236 04       		.uleb128 0x4
 1418 0237 CA260000 		.4byte	.LASF81
 1419 023b 2A       		.byte	0x2a
 1420 023c 04       		.uleb128 0x4
 1421 023d 49180000 		.4byte	.LASF82
 1422 0241 2B       		.byte	0x2b
 1423 0242 04       		.uleb128 0x4
 1424 0243 112F0000 		.4byte	.LASF83
 1425 0247 2C       		.byte	0x2c
 1426 0248 04       		.uleb128 0x4
 1427 0249 E7200000 		.4byte	.LASF84
 1428 024d 2D       		.byte	0x2d
 1429 024e 04       		.uleb128 0x4
 1430 024f 01030000 		.4byte	.LASF85
 1431 0253 2E       		.byte	0x2e
 1432 0254 04       		.uleb128 0x4
 1433 0255 3C2B0000 		.4byte	.LASF86
 1434 0259 2F       		.byte	0x2f
 1435 025a 04       		.uleb128 0x4
 1436 025b FD0B0000 		.4byte	.LASF87
 1437 025f 30       		.byte	0x30
 1438 0260 04       		.uleb128 0x4
 1439 0261 9A0A0000 		.4byte	.LASF88
 1440 0265 31       		.byte	0x31
 1441 0266 04       		.uleb128 0x4
 1442 0267 FC110000 		.4byte	.LASF89
 1443 026b 32       		.byte	0x32
 1444 026c 04       		.uleb128 0x4
 1445 026d 89310000 		.4byte	.LASF90
 1446 0271 33       		.byte	0x33
 1447 0272 04       		.uleb128 0x4
 1448 0273 E01C0000 		.4byte	.LASF91
 1449 0277 34       		.byte	0x34
 1450 0278 04       		.uleb128 0x4
 1451 0279 95190000 		.4byte	.LASF92
 1452 027d 35       		.byte	0x35
 1453 027e 04       		.uleb128 0x4
ARM GAS  C:\Users\salaz\AppData\Local\Temp\ccI54lrI.s 			page 74


 1454 027f 5D050000 		.4byte	.LASF93
 1455 0283 36       		.byte	0x36
 1456 0284 04       		.uleb128 0x4
 1457 0285 F6260000 		.4byte	.LASF94
 1458 0289 37       		.byte	0x37
 1459 028a 04       		.uleb128 0x4
 1460 028b C0220000 		.4byte	.LASF95
 1461 028f 38       		.byte	0x38
 1462 0290 04       		.uleb128 0x4
 1463 0291 4F0F0000 		.4byte	.LASF96
 1464 0295 39       		.byte	0x39
 1465 0296 04       		.uleb128 0x4
 1466 0297 3B2F0000 		.4byte	.LASF97
 1467 029b 3A       		.byte	0x3a
 1468 029c 04       		.uleb128 0x4
 1469 029d F41A0000 		.4byte	.LASF98
 1470 02a1 3B       		.byte	0x3b
 1471 02a2 04       		.uleb128 0x4
 1472 02a3 0E190000 		.4byte	.LASF99
 1473 02a7 3C       		.byte	0x3c
 1474 02a8 04       		.uleb128 0x4
 1475 02a9 42040000 		.4byte	.LASF100
 1476 02ad 3D       		.byte	0x3d
 1477 02ae 04       		.uleb128 0x4
 1478 02af E8250000 		.4byte	.LASF101
 1479 02b3 3E       		.byte	0x3e
 1480 02b4 04       		.uleb128 0x4
 1481 02b5 9A210000 		.4byte	.LASF102
 1482 02b9 3F       		.byte	0x3f
 1483 02ba 04       		.uleb128 0x4
 1484 02bb 820E0000 		.4byte	.LASF103
 1485 02bf 40       		.byte	0x40
 1486 02c0 04       		.uleb128 0x4
 1487 02c1 282E0000 		.4byte	.LASF104
 1488 02c5 41       		.byte	0x41
 1489 02c6 04       		.uleb128 0x4
 1490 02c7 35330000 		.4byte	.LASF105
 1491 02cb 42       		.byte	0x42
 1492 02cc 04       		.uleb128 0x4
 1493 02cd CC1D0000 		.4byte	.LASF106
 1494 02d1 43       		.byte	0x43
 1495 02d2 04       		.uleb128 0x4
 1496 02d3 110A0000 		.4byte	.LASF107
 1497 02d7 44       		.byte	0x44
 1498 02d8 04       		.uleb128 0x4
 1499 02d9 AF060000 		.4byte	.LASF108
 1500 02dd 45       		.byte	0x45
 1501 02de 04       		.uleb128 0x4
 1502 02df 17280000 		.4byte	.LASF109
 1503 02e3 46       		.byte	0x46
 1504 02e4 04       		.uleb128 0x4
 1505 02e5 35140000 		.4byte	.LASF110
 1506 02e9 47       		.byte	0x47
 1507 02ea 04       		.uleb128 0x4
 1508 02eb 86100000 		.4byte	.LASF111
 1509 02ef 48       		.byte	0x48
 1510 02f0 04       		.uleb128 0x4
ARM GAS  C:\Users\salaz\AppData\Local\Temp\ccI54lrI.s 			page 75


 1511 02f1 82300000 		.4byte	.LASF112
 1512 02f5 49       		.byte	0x49
 1513 02f6 04       		.uleb128 0x4
 1514 02f7 C91B0000 		.4byte	.LASF113
 1515 02fb 4A       		.byte	0x4a
 1516 02fc 04       		.uleb128 0x4
 1517 02fd 6E180000 		.4byte	.LASF114
 1518 0301 4B       		.byte	0x4b
 1519 0302 04       		.uleb128 0x4
 1520 0303 19250000 		.4byte	.LASF115
 1521 0307 4C       		.byte	0x4c
 1522 0308 04       		.uleb128 0x4
 1523 0309 88110000 		.4byte	.LASF116
 1524 030d 4D       		.byte	0x4d
 1525 030e 04       		.uleb128 0x4
 1526 030f 25310000 		.4byte	.LASF117
 1527 0313 4E       		.byte	0x4e
 1528 0314 04       		.uleb128 0x4
 1529 0315 B2080000 		.4byte	.LASF118
 1530 0319 4F       		.byte	0x4f
 1531 031a 04       		.uleb128 0x4
 1532 031b 6A190000 		.4byte	.LASF119
 1533 031f 50       		.byte	0x50
 1534 0320 04       		.uleb128 0x4
 1535 0321 F9040000 		.4byte	.LASF120
 1536 0325 51       		.byte	0x51
 1537 0326 04       		.uleb128 0x4
 1538 0327 3A280000 		.4byte	.LASF121
 1539 032b 52       		.byte	0x52
 1540 032c 04       		.uleb128 0x4
 1541 032d 60140000 		.4byte	.LASF122
 1542 0331 53       		.byte	0x53
 1543 0332 04       		.uleb128 0x4
 1544 0333 B9280000 		.4byte	.LASF123
 1545 0337 54       		.byte	0x54
 1546 0338 04       		.uleb128 0x4
 1547 0339 82030000 		.4byte	.LASF124
 1548 033d 55       		.byte	0x55
 1549 033e 04       		.uleb128 0x4
 1550 033f 301E0000 		.4byte	.LASF125
 1551 0343 56       		.byte	0x56
 1552 0344 04       		.uleb128 0x4
 1553 0345 C3160000 		.4byte	.LASF126
 1554 0349 57       		.byte	0x57
 1555 034a 04       		.uleb128 0x4
 1556 034b 15330000 		.4byte	.LASF127
 1557 034f 58       		.byte	0x58
 1558 0350 04       		.uleb128 0x4
 1559 0351 BC2C0000 		.4byte	.LASF128
 1560 0355 59       		.byte	0x59
 1561 0356 04       		.uleb128 0x4
 1562 0357 A2290000 		.4byte	.LASF129
 1563 035b 5A       		.byte	0x5a
 1564 035c 04       		.uleb128 0x4
 1565 035d D4010000 		.4byte	.LASF130
 1566 0361 5B       		.byte	0x5b
 1567 0362 04       		.uleb128 0x4
ARM GAS  C:\Users\salaz\AppData\Local\Temp\ccI54lrI.s 			page 76


 1568 0363 88150000 		.4byte	.LASF131
 1569 0367 5C       		.byte	0x5c
 1570 0368 04       		.uleb128 0x4
 1571 0369 35320000 		.4byte	.LASF132
 1572 036d 5D       		.byte	0x5d
 1573 036e 04       		.uleb128 0x4
 1574 036f 612E0000 		.4byte	.LASF133
 1575 0373 5E       		.byte	0x5e
 1576 0374 04       		.uleb128 0x4
 1577 0375 E8190000 		.4byte	.LASF134
 1578 0379 5F       		.byte	0x5f
 1579 037a 04       		.uleb128 0x4
 1580 037b EF050000 		.4byte	.LASF135
 1581 037f 60       		.byte	0x60
 1582 0380 04       		.uleb128 0x4
 1583 0381 9C020000 		.4byte	.LASF136
 1584 0385 61       		.byte	0x61
 1585 0386 04       		.uleb128 0x4
 1586 0387 CA2A0000 		.4byte	.LASF137
 1587 038b 62       		.byte	0x62
 1588 038c 04       		.uleb128 0x4
 1589 038d 23230000 		.4byte	.LASF138
 1590 0391 63       		.byte	0x63
 1591 0392 04       		.uleb128 0x4
 1592 0393 CF0F0000 		.4byte	.LASF139
 1593 0397 64       		.byte	0x64
 1594 0398 04       		.uleb128 0x4
 1595 0399 B7210000 		.4byte	.LASF140
 1596 039d 65       		.byte	0x65
 1597 039e 04       		.uleb128 0x4
 1598 039f 3C1B0000 		.4byte	.LASF141
 1599 03a3 66       		.byte	0x66
 1600 03a4 04       		.uleb128 0x4
 1601 03a5 A5170000 		.4byte	.LASF142
 1602 03a9 67       		.byte	0x67
 1603 03aa 04       		.uleb128 0x4
 1604 03ab 68030000 		.4byte	.LASF143
 1605 03af 68       		.byte	0x68
 1606 03b0 04       		.uleb128 0x4
 1607 03b1 5B240000 		.4byte	.LASF144
 1608 03b5 69       		.byte	0x69
 1609 03b6 04       		.uleb128 0x4
 1610 03b7 4E200000 		.4byte	.LASF145
 1611 03bb 6A       		.byte	0x6a
 1612 03bc 04       		.uleb128 0x4
 1613 03bd D2290000 		.4byte	.LASF146
 1614 03c1 6B       		.byte	0x6b
 1615 03c2 04       		.uleb128 0x4
 1616 03c3 45110000 		.4byte	.LASF147
 1617 03c7 6C       		.byte	0x6c
 1618 03c8 04       		.uleb128 0x4
 1619 03c9 EC300000 		.4byte	.LASF148
 1620 03cd 6D       		.byte	0x6d
 1621 03ce 04       		.uleb128 0x4
 1622 03cf 4E1C0000 		.4byte	.LASF149
 1623 03d3 6E       		.byte	0x6e
 1624 03d4 04       		.uleb128 0x4
ARM GAS  C:\Users\salaz\AppData\Local\Temp\ccI54lrI.s 			page 77


 1625 03d5 16080000 		.4byte	.LASF150
 1626 03d9 6F       		.byte	0x6f
 1627 03da 04       		.uleb128 0x4
 1628 03db AA040000 		.4byte	.LASF151
 1629 03df 70       		.byte	0x70
 1630 03e0 04       		.uleb128 0x4
 1631 03e1 5F120000 		.4byte	.LASF152
 1632 03e5 71       		.byte	0x71
 1633 03e6 04       		.uleb128 0x4
 1634 03e7 7A120000 		.4byte	.LASF153
 1635 03eb 72       		.byte	0x72
 1636 03ec 04       		.uleb128 0x4
 1637 03ed A90E0000 		.4byte	.LASF154
 1638 03f1 73       		.byte	0x73
 1639 03f2 04       		.uleb128 0x4
 1640 03f3 8B2E0000 		.4byte	.LASF155
 1641 03f7 74       		.byte	0x74
 1642 03f8 04       		.uleb128 0x4
 1643 03f9 1E1A0000 		.4byte	.LASF156
 1644 03fd 75       		.byte	0x75
 1645 03fe 04       		.uleb128 0x4
 1646 03ff F8130000 		.4byte	.LASF157
 1647 0403 76       		.byte	0x76
 1648 0404 04       		.uleb128 0x4
 1649 0405 A3340000 		.4byte	.LASF158
 1650 0409 77       		.byte	0x77
 1651 040a 04       		.uleb128 0x4
 1652 040b 791E0000 		.4byte	.LASF159
 1653 040f 78       		.byte	0x78
 1654 0410 04       		.uleb128 0x4
 1655 0411 AE1B0000 		.4byte	.LASF160
 1656 0415 79       		.byte	0x79
 1657 0416 04       		.uleb128 0x4
 1658 0417 F3070000 		.4byte	.LASF161
 1659 041b 7A       		.byte	0x7a
 1660 041c 04       		.uleb128 0x4
 1661 041d BC290000 		.4byte	.LASF162
 1662 0421 7B       		.byte	0x7b
 1663 0422 04       		.uleb128 0x4
 1664 0423 06150000 		.4byte	.LASF163
 1665 0427 7C       		.byte	0x7c
 1666 0428 04       		.uleb128 0x4
 1667 0429 A0030000 		.4byte	.LASF164
 1668 042d 7D       		.byte	0x7d
 1669 042e 04       		.uleb128 0x4
 1670 042f 4F320000 		.4byte	.LASF165
 1671 0433 7E       		.byte	0x7e
 1672 0434 04       		.uleb128 0x4
 1673 0435 051D0000 		.4byte	.LASF166
 1674 0439 7F       		.byte	0x7f
 1675 043a 04       		.uleb128 0x4
 1676 043b 5B210000 		.4byte	.LASF167
 1677 043f 80       		.byte	0x80
 1678 0440 04       		.uleb128 0x4
 1679 0441 09060000 		.4byte	.LASF168
 1680 0445 81       		.byte	0x81
 1681 0446 04       		.uleb128 0x4
ARM GAS  C:\Users\salaz\AppData\Local\Temp\ccI54lrI.s 			page 78


 1682 0447 5D270000 		.4byte	.LASF169
 1683 044b 82       		.byte	0x82
 1684 044c 04       		.uleb128 0x4
 1685 044d 6E130000 		.4byte	.LASF170
 1686 0451 83       		.byte	0x83
 1687 0452 04       		.uleb128 0x4
 1688 0453 572F0000 		.4byte	.LASF171
 1689 0457 84       		.byte	0x84
 1690 0458 04       		.uleb128 0x4
 1691 0459 1E1B0000 		.4byte	.LASF172
 1692 045d 85       		.byte	0x85
 1693 045e 04       		.uleb128 0x4
 1694 045f 05010000 		.4byte	.LASF173
 1695 0463 86       		.byte	0x86
 1696 0464 04       		.uleb128 0x4
 1697 0465 51030000 		.4byte	.LASF174
 1698 0469 87       		.byte	0x87
 1699 046a 04       		.uleb128 0x4
 1700 046b 44240000 		.4byte	.LASF175
 1701 046f 88       		.byte	0x88
 1702 0470 04       		.uleb128 0x4
 1703 0471 FA1F0000 		.4byte	.LASF176
 1704 0475 89       		.byte	0x89
 1705 0476 04       		.uleb128 0x4
 1706 0477 2D1F0000 		.4byte	.LASF177
 1707 047b 8A       		.byte	0x8a
 1708 047c 04       		.uleb128 0x4
 1709 047d 87290000 		.4byte	.LASF178
 1710 0481 8B       		.byte	0x8b
 1711 0482 04       		.uleb128 0x4
 1712 0483 94230000 		.4byte	.LASF179
 1713 0487 8C       		.byte	0x8c
 1714 0488 04       		.uleb128 0x4
 1715 0489 0E040000 		.4byte	.LASF180
 1716 048d 8D       		.byte	0x8d
 1717 048e 04       		.uleb128 0x4
 1718 048f 96040000 		.4byte	.LASF181
 1719 0493 8E       		.byte	0x8e
 1720 0494 04       		.uleb128 0x4
 1721 0495 9E300000 		.4byte	.LASF182
 1722 0499 8F       		.byte	0x8f
 1723 049a 04       		.uleb128 0x4
 1724 049b 030F0000 		.4byte	.LASF183
 1725 049f 90       		.byte	0x90
 1726 04a0 04       		.uleb128 0x4
 1727 04a1 E80C0000 		.4byte	.LASF184
 1728 04a5 91       		.byte	0x91
 1729 04a6 04       		.uleb128 0x4
 1730 04a7 13140000 		.4byte	.LASF185
 1731 04ab 92       		.byte	0x92
 1732 04ac 04       		.uleb128 0x4
 1733 04ad 72040000 		.4byte	.LASF186
 1734 04b1 F0       		.byte	0xf0
 1735 04b2 00       		.byte	0
 1736 04b3 05       		.uleb128 0x5
 1737 04b4 01       		.byte	0x1
 1738 04b5 08       		.byte	0x8
ARM GAS  C:\Users\salaz\AppData\Local\Temp\ccI54lrI.s 			page 79


 1739 04b6 420C0000 		.4byte	.LASF188
 1740 04ba 07       		.uleb128 0x7
 1741 04bb E32E0000 		.4byte	.LASF190
 1742 04bf 05       		.byte	0x5
 1743 04c0 9201     		.2byte	0x192
 1744 04c2 2E010000 		.4byte	0x12e
 1745 04c6 05       		.uleb128 0x5
 1746 04c7 01       		.byte	0x1
 1747 04c8 06       		.byte	0x6
 1748 04c9 CE0A0000 		.4byte	.LASF191
 1749 04cd 06       		.uleb128 0x6
 1750 04ce A5060000 		.4byte	.LASF192
 1751 04d2 06       		.byte	0x6
 1752 04d3 1D       		.byte	0x1d
 1753 04d4 B3040000 		.4byte	0x4b3
 1754 04d8 06       		.uleb128 0x6
 1755 04d9 68200000 		.4byte	.LASF193
 1756 04dd 06       		.byte	0x6
 1757 04de 2B       		.byte	0x2b
 1758 04df E3040000 		.4byte	0x4e3
 1759 04e3 05       		.uleb128 0x5
 1760 04e4 02       		.byte	0x2
 1761 04e5 07       		.byte	0x7
 1762 04e6 4C310000 		.4byte	.LASF194
 1763 04ea 06       		.uleb128 0x6
 1764 04eb FD320000 		.4byte	.LASF195
 1765 04ef 06       		.byte	0x6
 1766 04f0 3F       		.byte	0x3f
 1767 04f1 F5040000 		.4byte	0x4f5
 1768 04f5 05       		.uleb128 0x5
 1769 04f6 04       		.byte	0x4
 1770 04f7 05       		.byte	0x5
 1771 04f8 4E070000 		.4byte	.LASF196
 1772 04fc 06       		.uleb128 0x6
 1773 04fd B1190000 		.4byte	.LASF197
 1774 0501 06       		.byte	0x6
 1775 0502 41       		.byte	0x41
 1776 0503 07050000 		.4byte	0x507
 1777 0507 05       		.uleb128 0x5
 1778 0508 04       		.byte	0x4
 1779 0509 07       		.byte	0x7
 1780 050a 2A160000 		.4byte	.LASF198
 1781 050e 05       		.uleb128 0x5
 1782 050f 08       		.byte	0x8
 1783 0510 05       		.byte	0x5
 1784 0511 37110000 		.4byte	.LASF199
 1785 0515 05       		.uleb128 0x5
 1786 0516 08       		.byte	0x8
 1787 0517 07       		.byte	0x7
 1788 0518 F9240000 		.4byte	.LASF200
 1789 051c 08       		.uleb128 0x8
 1790 051d 04       		.byte	0x4
 1791 051e 05       		.byte	0x5
 1792 051f 696E7400 		.ascii	"int\000"
 1793 0523 05       		.uleb128 0x5
 1794 0524 04       		.byte	0x4
 1795 0525 07       		.byte	0x7
ARM GAS  C:\Users\salaz\AppData\Local\Temp\ccI54lrI.s 			page 80


 1796 0526 1B1D0000 		.4byte	.LASF201
 1797 052a 06       		.uleb128 0x6
 1798 052b FC0A0000 		.4byte	.LASF202
 1799 052f 07       		.byte	0x7
 1800 0530 18       		.byte	0x18
 1801 0531 CD040000 		.4byte	0x4cd
 1802 0535 06       		.uleb128 0x6
 1803 0536 6D250000 		.4byte	.LASF203
 1804 053a 07       		.byte	0x7
 1805 053b 24       		.byte	0x24
 1806 053c D8040000 		.4byte	0x4d8
 1807 0540 06       		.uleb128 0x6
 1808 0541 A9010000 		.4byte	.LASF204
 1809 0545 07       		.byte	0x7
 1810 0546 2C       		.byte	0x2c
 1811 0547 EA040000 		.4byte	0x4ea
 1812 054b 06       		.uleb128 0x6
 1813 054c 10320000 		.4byte	.LASF205
 1814 0550 07       		.byte	0x7
 1815 0551 30       		.byte	0x30
 1816 0552 FC040000 		.4byte	0x4fc
 1817 0556 09       		.uleb128 0x9
 1818 0557 2003     		.2byte	0x320
 1819 0559 04       		.byte	0x4
 1820 055a 4601     		.2byte	0x146
 1821 055c E8050000 		.4byte	0x5e8
 1822 0560 0A       		.uleb128 0xa
 1823 0561 C7330000 		.4byte	.LASF206
 1824 0565 04       		.byte	0x4
 1825 0566 4801     		.2byte	0x148
 1826 0568 04060000 		.4byte	0x604
 1827 056c 00       		.byte	0
 1828 056d 0A       		.uleb128 0xa
 1829 056e 2E0C0000 		.4byte	.LASF207
 1830 0572 04       		.byte	0x4
 1831 0573 4901     		.2byte	0x149
 1832 0575 09060000 		.4byte	0x609
 1833 0579 04       		.byte	0x4
 1834 057a 0A       		.uleb128 0xa
 1835 057b C4270000 		.4byte	.LASF208
 1836 057f 04       		.byte	0x4
 1837 0580 4A01     		.2byte	0x14a
 1838 0582 19060000 		.4byte	0x619
 1839 0586 80       		.byte	0x80
 1840 0587 0A       		.uleb128 0xa
 1841 0588 07000000 		.4byte	.LASF209
 1842 058c 04       		.byte	0x4
 1843 058d 4B01     		.2byte	0x14b
 1844 058f 09060000 		.4byte	0x609
 1845 0593 84       		.byte	0x84
 1846 0594 0B       		.uleb128 0xb
 1847 0595 55120000 		.4byte	.LASF210
 1848 0599 04       		.byte	0x4
 1849 059a 4C01     		.2byte	0x14c
 1850 059c 1E060000 		.4byte	0x61e
 1851 05a0 0001     		.2byte	0x100
 1852 05a2 0B       		.uleb128 0xb
ARM GAS  C:\Users\salaz\AppData\Local\Temp\ccI54lrI.s 			page 81


 1853 05a3 7C100000 		.4byte	.LASF211
 1854 05a7 04       		.byte	0x4
 1855 05a8 4D01     		.2byte	0x14d
 1856 05aa 09060000 		.4byte	0x609
 1857 05ae 0401     		.2byte	0x104
 1858 05b0 0B       		.uleb128 0xb
 1859 05b1 2D050000 		.4byte	.LASF212
 1860 05b5 04       		.byte	0x4
 1861 05b6 4E01     		.2byte	0x14e
 1862 05b8 23060000 		.4byte	0x623
 1863 05bc 8001     		.2byte	0x180
 1864 05be 0B       		.uleb128 0xb
 1865 05bf 9F0E0000 		.4byte	.LASF213
 1866 05c3 04       		.byte	0x4
 1867 05c4 4F01     		.2byte	0x14f
 1868 05c6 09060000 		.4byte	0x609
 1869 05ca 8401     		.2byte	0x184
 1870 05cc 0B       		.uleb128 0xb
 1871 05cd 5D0C0000 		.4byte	.LASF214
 1872 05d1 04       		.byte	0x4
 1873 05d2 5001     		.2byte	0x150
 1874 05d4 28060000 		.4byte	0x628
 1875 05d8 0002     		.2byte	0x200
 1876 05da 0C       		.uleb128 0xc
 1877 05db 495000   		.ascii	"IP\000"
 1878 05de 04       		.byte	0x4
 1879 05df 5101     		.2byte	0x151
 1880 05e1 48060000 		.4byte	0x648
 1881 05e5 0003     		.2byte	0x300
 1882 05e7 00       		.byte	0
 1883 05e8 0D       		.uleb128 0xd
 1884 05e9 FF050000 		.4byte	0x5ff
 1885 05ed F8050000 		.4byte	0x5f8
 1886 05f1 0E       		.uleb128 0xe
 1887 05f2 F8050000 		.4byte	0x5f8
 1888 05f6 00       		.byte	0
 1889 05f7 00       		.byte	0
 1890 05f8 05       		.uleb128 0x5
 1891 05f9 04       		.byte	0x4
 1892 05fa 07       		.byte	0x7
 1893 05fb 94000000 		.4byte	.LASF215
 1894 05ff 0F       		.uleb128 0xf
 1895 0600 4B050000 		.4byte	0x54b
 1896 0604 0F       		.uleb128 0xf
 1897 0605 E8050000 		.4byte	0x5e8
 1898 0609 0D       		.uleb128 0xd
 1899 060a 4B050000 		.4byte	0x54b
 1900 060e 19060000 		.4byte	0x619
 1901 0612 0E       		.uleb128 0xe
 1902 0613 F8050000 		.4byte	0x5f8
 1903 0617 1E       		.byte	0x1e
 1904 0618 00       		.byte	0
 1905 0619 0F       		.uleb128 0xf
 1906 061a E8050000 		.4byte	0x5e8
 1907 061e 0F       		.uleb128 0xf
 1908 061f E8050000 		.4byte	0x5e8
 1909 0623 0F       		.uleb128 0xf
ARM GAS  C:\Users\salaz\AppData\Local\Temp\ccI54lrI.s 			page 82


 1910 0624 E8050000 		.4byte	0x5e8
 1911 0628 0D       		.uleb128 0xd
 1912 0629 4B050000 		.4byte	0x54b
 1913 062d 38060000 		.4byte	0x638
 1914 0631 0E       		.uleb128 0xe
 1915 0632 F8050000 		.4byte	0x5f8
 1916 0636 3F       		.byte	0x3f
 1917 0637 00       		.byte	0
 1918 0638 0D       		.uleb128 0xd
 1919 0639 FF050000 		.4byte	0x5ff
 1920 063d 48060000 		.4byte	0x648
 1921 0641 0E       		.uleb128 0xe
 1922 0642 F8050000 		.4byte	0x5f8
 1923 0646 07       		.byte	0x7
 1924 0647 00       		.byte	0
 1925 0648 0F       		.uleb128 0xf
 1926 0649 38060000 		.4byte	0x638
 1927 064d 07       		.uleb128 0x7
 1928 064e 30240000 		.4byte	.LASF216
 1929 0652 04       		.byte	0x4
 1930 0653 5201     		.2byte	0x152
 1931 0655 56050000 		.4byte	0x556
 1932 0659 10       		.uleb128 0x10
 1933 065a FF050000 		.4byte	0x5ff
 1934 065e 0D       		.uleb128 0xd
 1935 065f 59060000 		.4byte	0x659
 1936 0663 6E060000 		.4byte	0x66e
 1937 0667 0E       		.uleb128 0xe
 1938 0668 F8050000 		.4byte	0x5f8
 1939 066c 05       		.byte	0x5
 1940 066d 00       		.byte	0
 1941 066e 0D       		.uleb128 0xd
 1942 066f 59060000 		.4byte	0x659
 1943 0673 7E060000 		.4byte	0x67e
 1944 0677 0E       		.uleb128 0xe
 1945 0678 F8050000 		.4byte	0x5f8
 1946 067c 7F       		.byte	0x7f
 1947 067d 00       		.byte	0
 1948 067e 0D       		.uleb128 0xd
 1949 067f 59060000 		.4byte	0x659
 1950 0683 8E060000 		.4byte	0x68e
 1951 0687 0E       		.uleb128 0xe
 1952 0688 F8050000 		.4byte	0x5f8
 1953 068c 02       		.byte	0x2
 1954 068d 00       		.byte	0
 1955 068e 0D       		.uleb128 0xd
 1956 068f 59060000 		.4byte	0x659
 1957 0693 9E060000 		.4byte	0x69e
 1958 0697 0E       		.uleb128 0xe
 1959 0698 F8050000 		.4byte	0x5f8
 1960 069c 0F       		.byte	0xf
 1961 069d 00       		.byte	0
 1962 069e 0D       		.uleb128 0xd
 1963 069f 59060000 		.4byte	0x659
 1964 06a3 AE060000 		.4byte	0x6ae
 1965 06a7 0E       		.uleb128 0xe
 1966 06a8 F8050000 		.4byte	0x5f8
ARM GAS  C:\Users\salaz\AppData\Local\Temp\ccI54lrI.s 			page 83


 1967 06ac 03       		.byte	0x3
 1968 06ad 00       		.byte	0
 1969 06ae 0D       		.uleb128 0xd
 1970 06af 59060000 		.4byte	0x659
 1971 06b3 BE060000 		.4byte	0x6be
 1972 06b7 0E       		.uleb128 0xe
 1973 06b8 F8050000 		.4byte	0x5f8
 1974 06bc 3E       		.byte	0x3e
 1975 06bd 00       		.byte	0
 1976 06be 0D       		.uleb128 0xd
 1977 06bf 59060000 		.4byte	0x659
 1978 06c3 CE060000 		.4byte	0x6ce
 1979 06c7 0E       		.uleb128 0xe
 1980 06c8 F8050000 		.4byte	0x5f8
 1981 06cc 1E       		.byte	0x1e
 1982 06cd 00       		.byte	0
 1983 06ce 0D       		.uleb128 0xd
 1984 06cf 59060000 		.4byte	0x659
 1985 06d3 DE060000 		.4byte	0x6de
 1986 06d7 0E       		.uleb128 0xe
 1987 06d8 F8050000 		.4byte	0x5f8
 1988 06dc 0B       		.byte	0xb
 1989 06dd 00       		.byte	0
 1990 06de 0D       		.uleb128 0xd
 1991 06df 59060000 		.4byte	0x659
 1992 06e3 EE060000 		.4byte	0x6ee
 1993 06e7 0E       		.uleb128 0xe
 1994 06e8 F8050000 		.4byte	0x5f8
 1995 06ec 0C       		.byte	0xc
 1996 06ed 00       		.byte	0
 1997 06ee 11       		.uleb128 0x11
 1998 06ef 80       		.byte	0x80
 1999 06f0 08       		.byte	0x8
 2000 06f1 22       		.byte	0x22
 2001 06f2 C2070000 		.4byte	0x7c2
 2002 06f6 12       		.uleb128 0x12
 2003 06f7 4F555400 		.ascii	"OUT\000"
 2004 06fb 08       		.byte	0x8
 2005 06fc 23       		.byte	0x23
 2006 06fd FF050000 		.4byte	0x5ff
 2007 0701 00       		.byte	0
 2008 0702 13       		.uleb128 0x13
 2009 0703 CB030000 		.4byte	.LASF217
 2010 0707 08       		.byte	0x8
 2011 0708 24       		.byte	0x24
 2012 0709 FF050000 		.4byte	0x5ff
 2013 070d 04       		.byte	0x4
 2014 070e 13       		.uleb128 0x13
 2015 070f BE030000 		.4byte	.LASF218
 2016 0713 08       		.byte	0x8
 2017 0714 25       		.byte	0x25
 2018 0715 FF050000 		.4byte	0x5ff
 2019 0719 08       		.byte	0x8
 2020 071a 13       		.uleb128 0x13
 2021 071b FA150000 		.4byte	.LASF219
 2022 071f 08       		.byte	0x8
 2023 0720 26       		.byte	0x26
ARM GAS  C:\Users\salaz\AppData\Local\Temp\ccI54lrI.s 			page 84


 2024 0721 FF050000 		.4byte	0x5ff
 2025 0725 0C       		.byte	0xc
 2026 0726 12       		.uleb128 0x12
 2027 0727 494E00   		.ascii	"IN\000"
 2028 072a 08       		.byte	0x8
 2029 072b 27       		.byte	0x27
 2030 072c 59060000 		.4byte	0x659
 2031 0730 10       		.byte	0x10
 2032 0731 13       		.uleb128 0x13
 2033 0732 F4080000 		.4byte	.LASF220
 2034 0736 08       		.byte	0x8
 2035 0737 28       		.byte	0x28
 2036 0738 FF050000 		.4byte	0x5ff
 2037 073c 14       		.byte	0x14
 2038 073d 13       		.uleb128 0x13
 2039 073e C5040000 		.4byte	.LASF221
 2040 0742 08       		.byte	0x8
 2041 0743 29       		.byte	0x29
 2042 0744 FF050000 		.4byte	0x5ff
 2043 0748 18       		.byte	0x18
 2044 0749 13       		.uleb128 0x13
 2045 074a 17230000 		.4byte	.LASF222
 2046 074e 08       		.byte	0x8
 2047 074f 2A       		.byte	0x2a
 2048 0750 59060000 		.4byte	0x659
 2049 0754 1C       		.byte	0x1c
 2050 0755 13       		.uleb128 0x13
 2051 0756 0C220000 		.4byte	.LASF223
 2052 075a 08       		.byte	0x8
 2053 075b 2B       		.byte	0x2b
 2054 075c FF050000 		.4byte	0x5ff
 2055 0760 20       		.byte	0x20
 2056 0761 13       		.uleb128 0x13
 2057 0762 10250000 		.4byte	.LASF224
 2058 0766 08       		.byte	0x8
 2059 0767 2C       		.byte	0x2c
 2060 0768 FF050000 		.4byte	0x5ff
 2061 076c 24       		.byte	0x24
 2062 076d 12       		.uleb128 0x12
 2063 076e 43464700 		.ascii	"CFG\000"
 2064 0772 08       		.byte	0x8
 2065 0773 2D       		.byte	0x2d
 2066 0774 FF050000 		.4byte	0x5ff
 2067 0778 28       		.byte	0x28
 2068 0779 13       		.uleb128 0x13
 2069 077a A5110000 		.4byte	.LASF225
 2070 077e 08       		.byte	0x8
 2071 077f 2E       		.byte	0x2e
 2072 0780 FF050000 		.4byte	0x5ff
 2073 0784 2C       		.byte	0x2c
 2074 0785 13       		.uleb128 0x13
 2075 0786 8B1A0000 		.4byte	.LASF226
 2076 078a 08       		.byte	0x8
 2077 078b 2F       		.byte	0x2f
 2078 078c FF050000 		.4byte	0x5ff
 2079 0790 30       		.byte	0x30
 2080 0791 13       		.uleb128 0x13
ARM GAS  C:\Users\salaz\AppData\Local\Temp\ccI54lrI.s 			page 85


 2081 0792 57290000 		.4byte	.LASF227
 2082 0796 08       		.byte	0x8
 2083 0797 30       		.byte	0x30
 2084 0798 FF050000 		.4byte	0x5ff
 2085 079c 34       		.byte	0x34
 2086 079d 13       		.uleb128 0x13
 2087 079e 2C140000 		.4byte	.LASF228
 2088 07a2 08       		.byte	0x8
 2089 07a3 31       		.byte	0x31
 2090 07a4 59060000 		.4byte	0x659
 2091 07a8 38       		.byte	0x38
 2092 07a9 13       		.uleb128 0x13
 2093 07aa 2D0A0000 		.4byte	.LASF229
 2094 07ae 08       		.byte	0x8
 2095 07af 32       		.byte	0x32
 2096 07b0 FF050000 		.4byte	0x5ff
 2097 07b4 3C       		.byte	0x3c
 2098 07b5 13       		.uleb128 0x13
 2099 07b6 380C0000 		.4byte	.LASF230
 2100 07ba 08       		.byte	0x8
 2101 07bb 33       		.byte	0x33
 2102 07bc C7070000 		.4byte	0x7c7
 2103 07c0 40       		.byte	0x40
 2104 07c1 00       		.byte	0
 2105 07c2 0F       		.uleb128 0xf
 2106 07c3 8E060000 		.4byte	0x68e
 2107 07c7 10       		.uleb128 0x10
 2108 07c8 C2070000 		.4byte	0x7c2
 2109 07cc 06       		.uleb128 0x6
 2110 07cd 622A0000 		.4byte	.LASF231
 2111 07d1 08       		.byte	0x8
 2112 07d2 34       		.byte	0x34
 2113 07d3 EE060000 		.4byte	0x6ee
 2114 07d7 14       		.uleb128 0x14
 2115 07d8 2440     		.2byte	0x4024
 2116 07da 08       		.byte	0x8
 2117 07db 39       		.byte	0x39
 2118 07dc 62080000 		.4byte	0x862
 2119 07e0 12       		.uleb128 0x12
 2120 07e1 50525400 		.ascii	"PRT\000"
 2121 07e5 08       		.byte	0x8
 2122 07e6 3A       		.byte	0x3a
 2123 07e7 62080000 		.4byte	0x862
 2124 07eb 00       		.byte	0
 2125 07ec 15       		.uleb128 0x15
 2126 07ed 57070000 		.4byte	.LASF232
 2127 07f1 08       		.byte	0x8
 2128 07f2 3B       		.byte	0x3b
 2129 07f3 59060000 		.4byte	0x659
 2130 07f7 0040     		.2byte	0x4000
 2131 07f9 15       		.uleb128 0x15
 2132 07fa 44340000 		.4byte	.LASF233
 2133 07fe 08       		.byte	0x8
 2134 07ff 3C       		.byte	0x3c
 2135 0800 59060000 		.4byte	0x659
 2136 0804 0440     		.2byte	0x4004
 2137 0806 15       		.uleb128 0x15
ARM GAS  C:\Users\salaz\AppData\Local\Temp\ccI54lrI.s 			page 86


 2138 0807 82070000 		.4byte	.LASF234
 2139 080b 08       		.byte	0x8
 2140 080c 3D       		.byte	0x3d
 2141 080d 59060000 		.4byte	0x659
 2142 0811 0840     		.2byte	0x4008
 2143 0813 15       		.uleb128 0x15
 2144 0814 8E070000 		.4byte	.LASF235
 2145 0818 08       		.byte	0x8
 2146 0819 3E       		.byte	0x3e
 2147 081a 59060000 		.4byte	0x659
 2148 081e 0C40     		.2byte	0x400c
 2149 0820 15       		.uleb128 0x15
 2150 0821 CF2D0000 		.4byte	.LASF236
 2151 0825 08       		.byte	0x8
 2152 0826 3F       		.byte	0x3f
 2153 0827 59060000 		.4byte	0x659
 2154 082b 1040     		.2byte	0x4010
 2155 082d 15       		.uleb128 0x15
 2156 082e 0E210000 		.4byte	.LASF237
 2157 0832 08       		.byte	0x8
 2158 0833 40       		.byte	0x40
 2159 0834 FF050000 		.4byte	0x5ff
 2160 0838 1440     		.2byte	0x4014
 2161 083a 15       		.uleb128 0x15
 2162 083b 2C120000 		.4byte	.LASF238
 2163 083f 08       		.byte	0x8
 2164 0840 41       		.byte	0x41
 2165 0841 FF050000 		.4byte	0x5ff
 2166 0845 1840     		.2byte	0x4018
 2167 0847 15       		.uleb128 0x15
 2168 0848 5E180000 		.4byte	.LASF239
 2169 084c 08       		.byte	0x8
 2170 084d 42       		.byte	0x42
 2171 084e 59060000 		.4byte	0x659
 2172 0852 1C40     		.2byte	0x401c
 2173 0854 15       		.uleb128 0x15
 2174 0855 DE270000 		.4byte	.LASF240
 2175 0859 08       		.byte	0x8
 2176 085a 43       		.byte	0x43
 2177 085b FF050000 		.4byte	0x5ff
 2178 085f 2040     		.2byte	0x4020
 2179 0861 00       		.byte	0
 2180 0862 0D       		.uleb128 0xd
 2181 0863 CC070000 		.4byte	0x7cc
 2182 0867 72080000 		.4byte	0x872
 2183 086b 0E       		.uleb128 0xe
 2184 086c F8050000 		.4byte	0x5f8
 2185 0870 7F       		.byte	0x7f
 2186 0871 00       		.byte	0
 2187 0872 06       		.uleb128 0x6
 2188 0873 8B340000 		.4byte	.LASF241
 2189 0877 08       		.byte	0x8
 2190 0878 44       		.byte	0x44
 2191 0879 D7070000 		.4byte	0x7d7
 2192 087d 0D       		.uleb128 0xd
 2193 087e 59060000 		.4byte	0x659
 2194 0882 8D080000 		.4byte	0x88d
ARM GAS  C:\Users\salaz\AppData\Local\Temp\ccI54lrI.s 			page 87


 2195 0886 0E       		.uleb128 0xe
 2196 0887 F8050000 		.4byte	0x5f8
 2197 088b 0A       		.byte	0xa
 2198 088c 00       		.byte	0
 2199 088d 0D       		.uleb128 0xd
 2200 088e 59060000 		.4byte	0x659
 2201 0892 9D080000 		.4byte	0x89d
 2202 0896 0E       		.uleb128 0xe
 2203 0897 F8050000 		.4byte	0x5f8
 2204 089b 2E       		.byte	0x2e
 2205 089c 00       		.byte	0
 2206 089d 0D       		.uleb128 0xd
 2207 089e 59060000 		.4byte	0x659
 2208 08a2 AD080000 		.4byte	0x8ad
 2209 08a6 0E       		.uleb128 0xe
 2210 08a7 F8050000 		.4byte	0x5f8
 2211 08ab 2D       		.byte	0x2d
 2212 08ac 00       		.byte	0
 2213 08ad 14       		.uleb128 0x14
 2214 08ae D00F     		.2byte	0xfd0
 2215 08b0 09       		.byte	0x9
 2216 08b1 21       		.byte	0x21
 2217 08b2 310C0000 		.4byte	0xc31
 2218 08b6 13       		.uleb128 0x13
 2219 08b7 281D0000 		.4byte	.LASF242
 2220 08bb 09       		.byte	0x9
 2221 08bc 22       		.byte	0x22
 2222 08bd FF050000 		.4byte	0x5ff
 2223 08c1 00       		.byte	0
 2224 08c2 13       		.uleb128 0x13
 2225 08c3 F7280000 		.4byte	.LASF243
 2226 08c7 09       		.byte	0x9
 2227 08c8 23       		.byte	0x23
 2228 08c9 59060000 		.4byte	0x659
 2229 08cd 04       		.byte	0x4
 2230 08ce 13       		.uleb128 0x13
 2231 08cf E9280000 		.4byte	.LASF244
 2232 08d3 09       		.byte	0x9
 2233 08d4 24       		.byte	0x24
 2234 08d5 FF050000 		.4byte	0x5ff
 2235 08d9 08       		.byte	0x8
 2236 08da 13       		.uleb128 0x13
 2237 08db F6140000 		.4byte	.LASF245
 2238 08df 09       		.byte	0x9
 2239 08e0 25       		.byte	0x25
 2240 08e1 59060000 		.4byte	0x659
 2241 08e5 0C       		.byte	0xc
 2242 08e6 13       		.uleb128 0x13
 2243 08e7 2C140000 		.4byte	.LASF228
 2244 08eb 09       		.byte	0x9
 2245 08ec 26       		.byte	0x26
 2246 08ed 360C0000 		.4byte	0xc36
 2247 08f1 10       		.byte	0x10
 2248 08f2 13       		.uleb128 0x13
 2249 08f3 52080000 		.4byte	.LASF246
 2250 08f7 09       		.byte	0x9
 2251 08f8 27       		.byte	0x27
ARM GAS  C:\Users\salaz\AppData\Local\Temp\ccI54lrI.s 			page 88


 2252 08f9 FF050000 		.4byte	0x5ff
 2253 08fd 20       		.byte	0x20
 2254 08fe 13       		.uleb128 0x13
 2255 08ff A01C0000 		.4byte	.LASF247
 2256 0903 09       		.byte	0x9
 2257 0904 28       		.byte	0x28
 2258 0905 59060000 		.4byte	0x659
 2259 0909 24       		.byte	0x24
 2260 090a 13       		.uleb128 0x13
 2261 090b 380C0000 		.4byte	.LASF230
 2262 090f 09       		.byte	0x9
 2263 0910 29       		.byte	0x29
 2264 0911 400C0000 		.4byte	0xc40
 2265 0915 28       		.byte	0x28
 2266 0916 13       		.uleb128 0x13
 2267 0917 69010000 		.4byte	.LASF248
 2268 091b 09       		.byte	0x9
 2269 091c 2A       		.byte	0x2a
 2270 091d FF050000 		.4byte	0x5ff
 2271 0921 40       		.byte	0x40
 2272 0922 13       		.uleb128 0x13
 2273 0923 0F100000 		.4byte	.LASF249
 2274 0927 09       		.byte	0x9
 2275 0928 2B       		.byte	0x2b
 2276 0929 FF050000 		.4byte	0x5ff
 2277 092d 44       		.byte	0x44
 2278 092e 13       		.uleb128 0x13
 2279 092f 09080000 		.4byte	.LASF250
 2280 0933 09       		.byte	0x9
 2281 0934 2C       		.byte	0x2c
 2282 0935 FF050000 		.4byte	0x5ff
 2283 0939 48       		.byte	0x48
 2284 093a 13       		.uleb128 0x13
 2285 093b 51140000 		.4byte	.LASF251
 2286 093f 09       		.byte	0x9
 2287 0940 2D       		.byte	0x2d
 2288 0941 59060000 		.4byte	0x659
 2289 0945 4C       		.byte	0x4c
 2290 0946 13       		.uleb128 0x13
 2291 0947 BC1F0000 		.4byte	.LASF252
 2292 094b 09       		.byte	0x9
 2293 094c 2E       		.byte	0x2e
 2294 094d FF050000 		.4byte	0x5ff
 2295 0951 50       		.byte	0x50
 2296 0952 13       		.uleb128 0x13
 2297 0953 7C100000 		.4byte	.LASF211
 2298 0957 09       		.byte	0x9
 2299 0958 2F       		.byte	0x2f
 2300 0959 4A0C0000 		.4byte	0xc4a
 2301 095d 54       		.byte	0x54
 2302 095e 13       		.uleb128 0x13
 2303 095f 5C350000 		.4byte	.LASF253
 2304 0963 09       		.byte	0x9
 2305 0964 30       		.byte	0x30
 2306 0965 FF050000 		.4byte	0x5ff
 2307 0969 60       		.byte	0x60
 2308 096a 13       		.uleb128 0x13
ARM GAS  C:\Users\salaz\AppData\Local\Temp\ccI54lrI.s 			page 89


 2309 096b 862F0000 		.4byte	.LASF254
 2310 096f 09       		.byte	0x9
 2311 0970 31       		.byte	0x31
 2312 0971 59060000 		.4byte	0x659
 2313 0975 64       		.byte	0x64
 2314 0976 13       		.uleb128 0x13
 2315 0977 900A0000 		.4byte	.LASF255
 2316 097b 09       		.byte	0x9
 2317 097c 32       		.byte	0x32
 2318 097d FF050000 		.4byte	0x5ff
 2319 0981 68       		.byte	0x68
 2320 0982 13       		.uleb128 0x13
 2321 0983 F90E0000 		.4byte	.LASF256
 2322 0987 09       		.byte	0x9
 2323 0988 33       		.byte	0x33
 2324 0989 FF050000 		.4byte	0x5ff
 2325 098d 6C       		.byte	0x6c
 2326 098e 13       		.uleb128 0x13
 2327 098f 32050000 		.4byte	.LASF257
 2328 0993 09       		.byte	0x9
 2329 0994 34       		.byte	0x34
 2330 0995 FF050000 		.4byte	0x5ff
 2331 0999 70       		.byte	0x70
 2332 099a 13       		.uleb128 0x13
 2333 099b 9F0E0000 		.4byte	.LASF213
 2334 099f 09       		.byte	0x9
 2335 09a0 35       		.byte	0x35
 2336 09a1 640C0000 		.4byte	0xc64
 2337 09a5 74       		.byte	0x74
 2338 09a6 15       		.uleb128 0x15
 2339 09a7 4D290000 		.4byte	.LASF258
 2340 09ab 09       		.byte	0x9
 2341 09ac 36       		.byte	0x36
 2342 09ad FF050000 		.4byte	0x5ff
 2343 09b1 0001     		.2byte	0x100
 2344 09b3 15       		.uleb128 0x15
 2345 09b4 5D0C0000 		.4byte	.LASF214
 2346 09b8 09       		.byte	0x9
 2347 09b9 37       		.byte	0x37
 2348 09ba 6E0C0000 		.4byte	0xc6e
 2349 09be 0401     		.2byte	0x104
 2350 09c0 15       		.uleb128 0x15
 2351 09c1 ED1E0000 		.4byte	.LASF259
 2352 09c5 09       		.byte	0x9
 2353 09c6 38       		.byte	0x38
 2354 09c7 FF050000 		.4byte	0x5ff
 2355 09cb 0002     		.2byte	0x200
 2356 09cd 15       		.uleb128 0x15
 2357 09ce B4250000 		.4byte	.LASF260
 2358 09d2 09       		.byte	0x9
 2359 09d3 39       		.byte	0x39
 2360 09d4 FF050000 		.4byte	0x5ff
 2361 09d8 0402     		.2byte	0x204
 2362 09da 15       		.uleb128 0x15
 2363 09db A5220000 		.4byte	.LASF261
 2364 09df 09       		.byte	0x9
 2365 09e0 3A       		.byte	0x3a
ARM GAS  C:\Users\salaz\AppData\Local\Temp\ccI54lrI.s 			page 90


 2366 09e1 59060000 		.4byte	0x659
 2367 09e5 0802     		.2byte	0x208
 2368 09e7 15       		.uleb128 0x15
 2369 09e8 670C0000 		.4byte	.LASF262
 2370 09ec 09       		.byte	0x9
 2371 09ed 3B       		.byte	0x3b
 2372 09ee 780C0000 		.4byte	0xc78
 2373 09f2 0C02     		.2byte	0x20c
 2374 09f4 15       		.uleb128 0x15
 2375 09f5 47100000 		.4byte	.LASF263
 2376 09f9 09       		.byte	0x9
 2377 09fa 3C       		.byte	0x3c
 2378 09fb FF050000 		.4byte	0x5ff
 2379 09ff 4002     		.2byte	0x240
 2380 0a01 15       		.uleb128 0x15
 2381 0a02 710C0000 		.4byte	.LASF264
 2382 0a06 09       		.byte	0x9
 2383 0a07 3D       		.byte	0x3d
 2384 0a08 820C0000 		.4byte	0xc82
 2385 0a0c 4402     		.2byte	0x244
 2386 0a0e 15       		.uleb128 0x15
 2387 0a0f E0190000 		.4byte	.LASF265
 2388 0a13 09       		.byte	0x9
 2389 0a14 3E       		.byte	0x3e
 2390 0a15 FF050000 		.4byte	0x5ff
 2391 0a19 0003     		.2byte	0x300
 2392 0a1b 15       		.uleb128 0x15
 2393 0a1c AF2C0000 		.4byte	.LASF266
 2394 0a20 09       		.byte	0x9
 2395 0a21 3F       		.byte	0x3f
 2396 0a22 FF050000 		.4byte	0x5ff
 2397 0a26 0403     		.2byte	0x304
 2398 0a28 15       		.uleb128 0x15
 2399 0a29 6E060000 		.4byte	.LASF267
 2400 0a2d 09       		.byte	0x9
 2401 0a2e 40       		.byte	0x40
 2402 0a2f 59060000 		.4byte	0x659
 2403 0a33 0803     		.2byte	0x308
 2404 0a35 15       		.uleb128 0x15
 2405 0a36 7B0C0000 		.4byte	.LASF268
 2406 0a3a 09       		.byte	0x9
 2407 0a3b 41       		.byte	0x41
 2408 0a3c 59060000 		.4byte	0x659
 2409 0a40 0C03     		.2byte	0x30c
 2410 0a42 15       		.uleb128 0x15
 2411 0a43 FC000000 		.4byte	.LASF269
 2412 0a47 09       		.byte	0x9
 2413 0a48 42       		.byte	0x42
 2414 0a49 FF050000 		.4byte	0x5ff
 2415 0a4d 1003     		.2byte	0x310
 2416 0a4f 15       		.uleb128 0x15
 2417 0a50 850C0000 		.4byte	.LASF270
 2418 0a54 09       		.byte	0x9
 2419 0a55 43       		.byte	0x43
 2420 0a56 8C0C0000 		.4byte	0xc8c
 2421 0a5a 1403     		.2byte	0x314
 2422 0a5c 15       		.uleb128 0x15
ARM GAS  C:\Users\salaz\AppData\Local\Temp\ccI54lrI.s 			page 91


 2423 0a5d 312B0000 		.4byte	.LASF271
 2424 0a61 09       		.byte	0x9
 2425 0a62 44       		.byte	0x44
 2426 0a63 59060000 		.4byte	0x659
 2427 0a67 4003     		.2byte	0x340
 2428 0a69 15       		.uleb128 0x15
 2429 0a6a 07310000 		.4byte	.LASF272
 2430 0a6e 09       		.byte	0x9
 2431 0a6f 45       		.byte	0x45
 2432 0a70 59060000 		.4byte	0x659
 2433 0a74 4403     		.2byte	0x344
 2434 0a76 15       		.uleb128 0x15
 2435 0a77 8F0C0000 		.4byte	.LASF273
 2436 0a7b 09       		.byte	0x9
 2437 0a7c 46       		.byte	0x46
 2438 0a7d 960C0000 		.4byte	0xc96
 2439 0a81 4803     		.2byte	0x348
 2440 0a83 15       		.uleb128 0x15
 2441 0a84 BC190000 		.4byte	.LASF274
 2442 0a88 09       		.byte	0x9
 2443 0a89 47       		.byte	0x47
 2444 0a8a AC0C0000 		.4byte	0xcac
 2445 0a8e 0004     		.2byte	0x400
 2446 0a90 15       		.uleb128 0x15
 2447 0a91 24260000 		.4byte	.LASF275
 2448 0a95 09       		.byte	0x9
 2449 0a96 48       		.byte	0x48
 2450 0a97 B60C0000 		.4byte	0xcb6
 2451 0a9b 000C     		.2byte	0xc00
 2452 0a9d 15       		.uleb128 0x15
 2453 0a9e C7140000 		.4byte	.LASF276
 2454 0aa2 09       		.byte	0x9
 2455 0aa3 49       		.byte	0x49
 2456 0aa4 59060000 		.4byte	0x659
 2457 0aa8 000E     		.2byte	0xe00
 2458 0aaa 15       		.uleb128 0x15
 2459 0aab 05320000 		.4byte	.LASF277
 2460 0aaf 09       		.byte	0x9
 2461 0ab0 4A       		.byte	0x4a
 2462 0ab1 C00C0000 		.4byte	0xcc0
 2463 0ab5 040E     		.2byte	0xe04
 2464 0ab7 15       		.uleb128 0x15
 2465 0ab8 382C0000 		.4byte	.LASF278
 2466 0abc 09       		.byte	0x9
 2467 0abd 4B       		.byte	0x4b
 2468 0abe FF050000 		.4byte	0x5ff
 2469 0ac2 800E     		.2byte	0xe80
 2470 0ac4 15       		.uleb128 0x15
 2471 0ac5 3A260000 		.4byte	.LASF279
 2472 0ac9 09       		.byte	0x9
 2473 0aca 4C       		.byte	0x4c
 2474 0acb 59060000 		.4byte	0x659
 2475 0acf 840E     		.2byte	0xe84
 2476 0ad1 15       		.uleb128 0x15
 2477 0ad2 031F0000 		.4byte	.LASF280
 2478 0ad6 09       		.byte	0x9
 2479 0ad7 4D       		.byte	0x4d
ARM GAS  C:\Users\salaz\AppData\Local\Temp\ccI54lrI.s 			page 92


 2480 0ad8 FF050000 		.4byte	0x5ff
 2481 0adc 880E     		.2byte	0xe88
 2482 0ade 15       		.uleb128 0x15
 2483 0adf 25290000 		.4byte	.LASF281
 2484 0ae3 09       		.byte	0x9
 2485 0ae4 4E       		.byte	0x4e
 2486 0ae5 59060000 		.4byte	0x659
 2487 0ae9 8C0E     		.2byte	0xe8c
 2488 0aeb 15       		.uleb128 0x15
 2489 0aec 45260000 		.4byte	.LASF282
 2490 0af0 09       		.byte	0x9
 2491 0af1 4F       		.byte	0x4f
 2492 0af2 CA0C0000 		.4byte	0xcca
 2493 0af6 900E     		.2byte	0xe90
 2494 0af8 15       		.uleb128 0x15
 2495 0af9 B4220000 		.4byte	.LASF283
 2496 0afd 09       		.byte	0x9
 2497 0afe 50       		.byte	0x50
 2498 0aff FF050000 		.4byte	0x5ff
 2499 0b03 C00E     		.2byte	0xec0
 2500 0b05 15       		.uleb128 0x15
 2501 0b06 50260000 		.4byte	.LASF284
 2502 0b0a 09       		.byte	0x9
 2503 0b0b 51       		.byte	0x51
 2504 0b0c 59060000 		.4byte	0x659
 2505 0b10 C40E     		.2byte	0xec4
 2506 0b12 15       		.uleb128 0x15
 2507 0b13 17210000 		.4byte	.LASF285
 2508 0b17 09       		.byte	0x9
 2509 0b18 52       		.byte	0x52
 2510 0b19 FF050000 		.4byte	0x5ff
 2511 0b1d C80E     		.2byte	0xec8
 2512 0b1f 15       		.uleb128 0x15
 2513 0b20 402A0000 		.4byte	.LASF286
 2514 0b24 09       		.byte	0x9
 2515 0b25 53       		.byte	0x53
 2516 0b26 59060000 		.4byte	0x659
 2517 0b2a CC0E     		.2byte	0xecc
 2518 0b2c 15       		.uleb128 0x15
 2519 0b2d 5B260000 		.4byte	.LASF287
 2520 0b31 09       		.byte	0x9
 2521 0b32 54       		.byte	0x54
 2522 0b33 D40C0000 		.4byte	0xcd4
 2523 0b37 D00E     		.2byte	0xed0
 2524 0b39 15       		.uleb128 0x15
 2525 0b3a D3030000 		.4byte	.LASF288
 2526 0b3e 09       		.byte	0x9
 2527 0b3f 55       		.byte	0x55
 2528 0b40 FF050000 		.4byte	0x5ff
 2529 0b44 000F     		.2byte	0xf00
 2530 0b46 15       		.uleb128 0x15
 2531 0b47 352A0000 		.4byte	.LASF289
 2532 0b4b 09       		.byte	0x9
 2533 0b4c 56       		.byte	0x56
 2534 0b4d FF050000 		.4byte	0x5ff
 2535 0b51 040F     		.2byte	0xf04
 2536 0b53 15       		.uleb128 0x15
ARM GAS  C:\Users\salaz\AppData\Local\Temp\ccI54lrI.s 			page 93


 2537 0b54 A0160000 		.4byte	.LASF290
 2538 0b58 09       		.byte	0x9
 2539 0b59 57       		.byte	0x57
 2540 0b5a FF050000 		.4byte	0x5ff
 2541 0b5e 080F     		.2byte	0xf08
 2542 0b60 15       		.uleb128 0x15
 2543 0b61 101B0000 		.4byte	.LASF291
 2544 0b65 09       		.byte	0x9
 2545 0b66 58       		.byte	0x58
 2546 0b67 59060000 		.4byte	0x659
 2547 0b6b 0C0F     		.2byte	0xf0c
 2548 0b6d 15       		.uleb128 0x15
 2549 0b6e 9A320000 		.4byte	.LASF292
 2550 0b72 09       		.byte	0x9
 2551 0b73 59       		.byte	0x59
 2552 0b74 DE0C0000 		.4byte	0xcde
 2553 0b78 100F     		.2byte	0xf10
 2554 0b7a 15       		.uleb128 0x15
 2555 0b7b 480F0000 		.4byte	.LASF293
 2556 0b7f 09       		.byte	0x9
 2557 0b80 5A       		.byte	0x5a
 2558 0b81 FF050000 		.4byte	0x5ff
 2559 0b85 400F     		.2byte	0xf40
 2560 0b87 15       		.uleb128 0x15
 2561 0b88 DC2C0000 		.4byte	.LASF294
 2562 0b8c 09       		.byte	0x9
 2563 0b8d 5B       		.byte	0x5b
 2564 0b8e FF050000 		.4byte	0x5ff
 2565 0b92 440F     		.2byte	0xf44
 2566 0b94 15       		.uleb128 0x15
 2567 0b95 EC290000 		.4byte	.LASF295
 2568 0b99 09       		.byte	0x9
 2569 0b9a 5C       		.byte	0x5c
 2570 0b9b FF050000 		.4byte	0x5ff
 2571 0b9f 480F     		.2byte	0xf48
 2572 0ba1 15       		.uleb128 0x15
 2573 0ba2 15220000 		.4byte	.LASF296
 2574 0ba6 09       		.byte	0x9
 2575 0ba7 5D       		.byte	0x5d
 2576 0ba8 59060000 		.4byte	0x659
 2577 0bac 4C0F     		.2byte	0xf4c
 2578 0bae 15       		.uleb128 0x15
 2579 0baf 87260000 		.4byte	.LASF297
 2580 0bb3 09       		.byte	0x9
 2581 0bb4 5E       		.byte	0x5e
 2582 0bb5 E80C0000 		.4byte	0xce8
 2583 0bb9 500F     		.2byte	0xf50
 2584 0bbb 15       		.uleb128 0x15
 2585 0bbc 8F080000 		.4byte	.LASF298
 2586 0bc0 09       		.byte	0x9
 2587 0bc1 5F       		.byte	0x5f
 2588 0bc2 FF050000 		.4byte	0x5ff
 2589 0bc6 800F     		.2byte	0xf80
 2590 0bc8 15       		.uleb128 0x15
 2591 0bc9 BE260000 		.4byte	.LASF299
 2592 0bcd 09       		.byte	0x9
 2593 0bce 60       		.byte	0x60
ARM GAS  C:\Users\salaz\AppData\Local\Temp\ccI54lrI.s 			page 94


 2594 0bcf FF050000 		.4byte	0x5ff
 2595 0bd3 840F     		.2byte	0xf84
 2596 0bd5 15       		.uleb128 0x15
 2597 0bd6 500C0000 		.4byte	.LASF300
 2598 0bda 09       		.byte	0x9
 2599 0bdb 61       		.byte	0x61
 2600 0bdc FF050000 		.4byte	0x5ff
 2601 0be0 880F     		.2byte	0xf88
 2602 0be2 15       		.uleb128 0x15
 2603 0be3 97080000 		.4byte	.LASF301
 2604 0be7 09       		.byte	0x9
 2605 0be8 62       		.byte	0x62
 2606 0be9 59060000 		.4byte	0x659
 2607 0bed 8C0F     		.2byte	0xf8c
 2608 0bef 15       		.uleb128 0x15
 2609 0bf0 92260000 		.4byte	.LASF302
 2610 0bf4 09       		.byte	0x9
 2611 0bf5 63       		.byte	0x63
 2612 0bf6 F20C0000 		.4byte	0xcf2
 2613 0bfa 900F     		.2byte	0xf90
 2614 0bfc 15       		.uleb128 0x15
 2615 0bfd 25050000 		.4byte	.LASF303
 2616 0c01 09       		.byte	0x9
 2617 0c02 64       		.byte	0x64
 2618 0c03 FF050000 		.4byte	0x5ff
 2619 0c07 C00F     		.2byte	0xfc0
 2620 0c09 15       		.uleb128 0x15
 2621 0c0a D3090000 		.4byte	.LASF304
 2622 0c0e 09       		.byte	0x9
 2623 0c0f 65       		.byte	0x65
 2624 0c10 FF050000 		.4byte	0x5ff
 2625 0c14 C40F     		.2byte	0xfc4
 2626 0c16 15       		.uleb128 0x15
 2627 0c17 D3060000 		.4byte	.LASF305
 2628 0c1b 09       		.byte	0x9
 2629 0c1c 66       		.byte	0x66
 2630 0c1d FF050000 		.4byte	0x5ff
 2631 0c21 C80F     		.2byte	0xfc8
 2632 0c23 15       		.uleb128 0x15
 2633 0c24 2E270000 		.4byte	.LASF306
 2634 0c28 09       		.byte	0x9
 2635 0c29 67       		.byte	0x67
 2636 0c2a 59060000 		.4byte	0x659
 2637 0c2e CC0F     		.2byte	0xfcc
 2638 0c30 00       		.byte	0
 2639 0c31 0F       		.uleb128 0xf
 2640 0c32 9E060000 		.4byte	0x69e
 2641 0c36 10       		.uleb128 0x10
 2642 0c37 310C0000 		.4byte	0xc31
 2643 0c3b 0F       		.uleb128 0xf
 2644 0c3c 5E060000 		.4byte	0x65e
 2645 0c40 10       		.uleb128 0x10
 2646 0c41 3B0C0000 		.4byte	0xc3b
 2647 0c45 0F       		.uleb128 0xf
 2648 0c46 7E060000 		.4byte	0x67e
 2649 0c4a 10       		.uleb128 0x10
 2650 0c4b 450C0000 		.4byte	0xc45
ARM GAS  C:\Users\salaz\AppData\Local\Temp\ccI54lrI.s 			page 95


 2651 0c4f 0D       		.uleb128 0xd
 2652 0c50 59060000 		.4byte	0x659
 2653 0c54 5F0C0000 		.4byte	0xc5f
 2654 0c58 0E       		.uleb128 0xe
 2655 0c59 F8050000 		.4byte	0x5f8
 2656 0c5d 22       		.byte	0x22
 2657 0c5e 00       		.byte	0
 2658 0c5f 0F       		.uleb128 0xf
 2659 0c60 4F0C0000 		.4byte	0xc4f
 2660 0c64 10       		.uleb128 0x10
 2661 0c65 5F0C0000 		.4byte	0xc5f
 2662 0c69 0F       		.uleb128 0xf
 2663 0c6a AE060000 		.4byte	0x6ae
 2664 0c6e 10       		.uleb128 0x10
 2665 0c6f 690C0000 		.4byte	0xc69
 2666 0c73 0F       		.uleb128 0xf
 2667 0c74 DE060000 		.4byte	0x6de
 2668 0c78 10       		.uleb128 0x10
 2669 0c79 730C0000 		.4byte	0xc73
 2670 0c7d 0F       		.uleb128 0xf
 2671 0c7e 8D080000 		.4byte	0x88d
 2672 0c82 10       		.uleb128 0x10
 2673 0c83 7D0C0000 		.4byte	0xc7d
 2674 0c87 0F       		.uleb128 0xf
 2675 0c88 7D080000 		.4byte	0x87d
 2676 0c8c 10       		.uleb128 0x10
 2677 0c8d 870C0000 		.4byte	0xc87
 2678 0c91 0F       		.uleb128 0xf
 2679 0c92 9D080000 		.4byte	0x89d
 2680 0c96 10       		.uleb128 0x10
 2681 0c97 910C0000 		.4byte	0xc91
 2682 0c9b 0D       		.uleb128 0xd
 2683 0c9c FF050000 		.4byte	0x5ff
 2684 0ca0 AC0C0000 		.4byte	0xcac
 2685 0ca4 16       		.uleb128 0x16
 2686 0ca5 F8050000 		.4byte	0x5f8
 2687 0ca9 FF01     		.2byte	0x1ff
 2688 0cab 00       		.byte	0
 2689 0cac 0F       		.uleb128 0xf
 2690 0cad 9B0C0000 		.4byte	0xc9b
 2691 0cb1 0F       		.uleb128 0xf
 2692 0cb2 6E060000 		.4byte	0x66e
 2693 0cb6 10       		.uleb128 0x10
 2694 0cb7 B10C0000 		.4byte	0xcb1
 2695 0cbb 0F       		.uleb128 0xf
 2696 0cbc BE060000 		.4byte	0x6be
 2697 0cc0 10       		.uleb128 0x10
 2698 0cc1 BB0C0000 		.4byte	0xcbb
 2699 0cc5 0F       		.uleb128 0xf
 2700 0cc6 CE060000 		.4byte	0x6ce
 2701 0cca 10       		.uleb128 0x10
 2702 0ccb C50C0000 		.4byte	0xcc5
 2703 0ccf 0F       		.uleb128 0xf
 2704 0cd0 CE060000 		.4byte	0x6ce
 2705 0cd4 10       		.uleb128 0x10
 2706 0cd5 CF0C0000 		.4byte	0xccf
 2707 0cd9 0F       		.uleb128 0xf
ARM GAS  C:\Users\salaz\AppData\Local\Temp\ccI54lrI.s 			page 96


 2708 0cda CE060000 		.4byte	0x6ce
 2709 0cde 10       		.uleb128 0x10
 2710 0cdf D90C0000 		.4byte	0xcd9
 2711 0ce3 0F       		.uleb128 0xf
 2712 0ce4 CE060000 		.4byte	0x6ce
 2713 0ce8 10       		.uleb128 0x10
 2714 0ce9 E30C0000 		.4byte	0xce3
 2715 0ced 0F       		.uleb128 0xf
 2716 0cee CE060000 		.4byte	0x6ce
 2717 0cf2 10       		.uleb128 0x10
 2718 0cf3 ED0C0000 		.4byte	0xced
 2719 0cf7 06       		.uleb128 0x6
 2720 0cf8 DC200000 		.4byte	.LASF307
 2721 0cfc 09       		.byte	0x9
 2722 0cfd 68       		.byte	0x68
 2723 0cfe AD080000 		.4byte	0x8ad
 2724 0d02 05       		.uleb128 0x5
 2725 0d03 08       		.byte	0x8
 2726 0d04 04       		.byte	0x4
 2727 0d05 D1210000 		.4byte	.LASF308
 2728 0d09 07       		.uleb128 0x7
 2729 0d0a A9240000 		.4byte	.LASF309
 2730 0d0e 0A       		.byte	0xa
 2731 0d0f C401     		.2byte	0x1c4
 2732 0d11 150D0000 		.4byte	0xd15
 2733 0d15 05       		.uleb128 0x5
 2734 0d16 01       		.byte	0x1
 2735 0d17 08       		.byte	0x8
 2736 0d18 28210000 		.4byte	.LASF310
 2737 0d1c 05       		.uleb128 0x5
 2738 0d1d 04       		.byte	0x4
 2739 0d1e 04       		.byte	0x4
 2740 0d1f 691C0000 		.4byte	.LASF311
 2741 0d23 05       		.uleb128 0x5
 2742 0d24 08       		.byte	0x8
 2743 0d25 04       		.byte	0x4
 2744 0d26 5D1B0000 		.4byte	.LASF312
 2745 0d2a 07       		.uleb128 0x7
 2746 0d2b 5E2B0000 		.4byte	.LASF313
 2747 0d2f 0A       		.byte	0xa
 2748 0d30 8503     		.2byte	0x385
 2749 0d32 2A050000 		.4byte	0x52a
 2750 0d36 07       		.uleb128 0x7
 2751 0d37 55350000 		.4byte	.LASF314
 2752 0d3b 0A       		.byte	0xa
 2753 0d3c 8603     		.2byte	0x386
 2754 0d3e 35050000 		.4byte	0x535
 2755 0d42 07       		.uleb128 0x7
 2756 0d43 79020000 		.4byte	.LASF315
 2757 0d47 0A       		.byte	0xa
 2758 0d48 8703     		.2byte	0x387
 2759 0d4a 4B050000 		.4byte	0x54b
 2760 0d4e 11       		.uleb128 0x11
 2761 0d4f 08       		.byte	0x8
 2762 0d50 0B       		.byte	0xb
 2763 0d51 EB       		.byte	0xeb
 2764 0d52 7B0D0000 		.4byte	0xd7b
ARM GAS  C:\Users\salaz\AppData\Local\Temp\ccI54lrI.s 			page 97


 2765 0d56 13       		.uleb128 0x13
 2766 0d57 CB060000 		.4byte	.LASF316
 2767 0d5b 0B       		.byte	0xb
 2768 0d5c EC       		.byte	0xec
 2769 0d5d 23010000 		.4byte	0x123
 2770 0d61 00       		.byte	0
 2771 0d62 13       		.uleb128 0x13
 2772 0d63 3C160000 		.4byte	.LASF317
 2773 0d67 0B       		.byte	0xb
 2774 0d68 EE       		.byte	0xee
 2775 0d69 BA040000 		.4byte	0x4ba
 2776 0d6d 02       		.byte	0x2
 2777 0d6e 13       		.uleb128 0x13
 2778 0d6f F8290000 		.4byte	.LASF318
 2779 0d73 0B       		.byte	0xb
 2780 0d74 F0       		.byte	0xf0
 2781 0d75 4B050000 		.4byte	0x54b
 2782 0d79 04       		.byte	0x4
 2783 0d7a 00       		.byte	0
 2784 0d7b 06       		.uleb128 0x6
 2785 0d7c DD130000 		.4byte	.LASF319
 2786 0d80 0B       		.byte	0xb
 2787 0d81 F1       		.byte	0xf1
 2788 0d82 4E0D0000 		.4byte	0xd4e
 2789 0d86 17       		.uleb128 0x17
 2790 0d87 04       		.byte	0x4
 2791 0d88 05       		.uleb128 0x5
 2792 0d89 01       		.byte	0x1
 2793 0d8a 02       		.byte	0x2
 2794 0d8b D60D0000 		.4byte	.LASF320
 2795 0d8f 18       		.uleb128 0x18
 2796 0d90 EA170000 		.4byte	.LASF341
 2797 0d94 4C       		.byte	0x4c
 2798 0d95 0C       		.byte	0xc
 2799 0d96 2B       		.byte	0x2b
 2800 0d97 800E0000 		.4byte	0xe80
 2801 0d9b 13       		.uleb128 0x13
 2802 0d9c 10280000 		.4byte	.LASF321
 2803 0da0 0C       		.byte	0xc
 2804 0da1 2D       		.byte	0x2d
 2805 0da2 4B050000 		.4byte	0x54b
 2806 0da6 00       		.byte	0
 2807 0da7 13       		.uleb128 0x13
 2808 0da8 66100000 		.4byte	.LASF322
 2809 0dac 0C       		.byte	0xc
 2810 0dad 2F       		.byte	0x2f
 2811 0dae 4B050000 		.4byte	0x54b
 2812 0db2 04       		.byte	0x4
 2813 0db3 13       		.uleb128 0x13
 2814 0db4 C70F0000 		.4byte	.LASF323
 2815 0db8 0C       		.byte	0xc
 2816 0db9 30       		.byte	0x30
 2817 0dba 4B050000 		.4byte	0x54b
 2818 0dbe 08       		.byte	0x8
 2819 0dbf 13       		.uleb128 0x13
 2820 0dc0 8A1F0000 		.4byte	.LASF324
 2821 0dc4 0C       		.byte	0xc
ARM GAS  C:\Users\salaz\AppData\Local\Temp\ccI54lrI.s 			page 98


 2822 0dc5 31       		.byte	0x31
 2823 0dc6 4B050000 		.4byte	0x54b
 2824 0dca 0C       		.byte	0xc
 2825 0dcb 13       		.uleb128 0x13
 2826 0dcc 912F0000 		.4byte	.LASF325
 2827 0dd0 0C       		.byte	0xc
 2828 0dd1 33       		.byte	0x33
 2829 0dd2 4B050000 		.4byte	0x54b
 2830 0dd6 10       		.byte	0x10
 2831 0dd7 13       		.uleb128 0x13
 2832 0dd8 FC030000 		.4byte	.LASF326
 2833 0ddc 0C       		.byte	0xc
 2834 0ddd 34       		.byte	0x34
 2835 0dde 4B050000 		.4byte	0x54b
 2836 0de2 14       		.byte	0x14
 2837 0de3 13       		.uleb128 0x13
 2838 0de4 05040000 		.4byte	.LASF327
 2839 0de8 0C       		.byte	0xc
 2840 0de9 35       		.byte	0x35
 2841 0dea 4B050000 		.4byte	0x54b
 2842 0dee 18       		.byte	0x18
 2843 0def 13       		.uleb128 0x13
 2844 0df0 E81D0000 		.4byte	.LASF328
 2845 0df4 0C       		.byte	0xc
 2846 0df5 36       		.byte	0x36
 2847 0df6 880D0000 		.4byte	0xd88
 2848 0dfa 1C       		.byte	0x1c
 2849 0dfb 13       		.uleb128 0x13
 2850 0dfc 2B190000 		.4byte	.LASF329
 2851 0e00 0C       		.byte	0xc
 2852 0e01 38       		.byte	0x38
 2853 0e02 4B050000 		.4byte	0x54b
 2854 0e06 20       		.byte	0x20
 2855 0e07 13       		.uleb128 0x13
 2856 0e08 73010000 		.4byte	.LASF330
 2857 0e0c 0C       		.byte	0xc
 2858 0e0d 39       		.byte	0x39
 2859 0e0e 4B050000 		.4byte	0x54b
 2860 0e12 24       		.byte	0x24
 2861 0e13 13       		.uleb128 0x13
 2862 0e14 8C330000 		.4byte	.LASF331
 2863 0e18 0C       		.byte	0xc
 2864 0e19 3B       		.byte	0x3b
 2865 0e1a 4B050000 		.4byte	0x54b
 2866 0e1e 28       		.byte	0x28
 2867 0e1f 13       		.uleb128 0x13
 2868 0e20 79080000 		.4byte	.LASF332
 2869 0e24 0C       		.byte	0xc
 2870 0e25 3C       		.byte	0x3c
 2871 0e26 4B050000 		.4byte	0x54b
 2872 0e2a 2C       		.byte	0x2c
 2873 0e2b 13       		.uleb128 0x13
 2874 0e2c 80330000 		.4byte	.LASF333
 2875 0e30 0C       		.byte	0xc
 2876 0e31 3E       		.byte	0x3e
 2877 0e32 4B050000 		.4byte	0x54b
 2878 0e36 30       		.byte	0x30
ARM GAS  C:\Users\salaz\AppData\Local\Temp\ccI54lrI.s 			page 99


 2879 0e37 13       		.uleb128 0x13
 2880 0e38 B22A0000 		.4byte	.LASF334
 2881 0e3c 0C       		.byte	0xc
 2882 0e3d 3F       		.byte	0x3f
 2883 0e3e 4B050000 		.4byte	0x54b
 2884 0e42 34       		.byte	0x34
 2885 0e43 13       		.uleb128 0x13
 2886 0e44 65350000 		.4byte	.LASF335
 2887 0e48 0C       		.byte	0xc
 2888 0e49 41       		.byte	0x41
 2889 0e4a 4B050000 		.4byte	0x54b
 2890 0e4e 38       		.byte	0x38
 2891 0e4f 13       		.uleb128 0x13
 2892 0e50 901B0000 		.4byte	.LASF336
 2893 0e54 0C       		.byte	0xc
 2894 0e55 42       		.byte	0x42
 2895 0e56 4B050000 		.4byte	0x54b
 2896 0e5a 3C       		.byte	0x3c
 2897 0e5b 13       		.uleb128 0x13
 2898 0e5c 42310000 		.4byte	.LASF337
 2899 0e60 0C       		.byte	0xc
 2900 0e61 44       		.byte	0x44
 2901 0e62 4B050000 		.4byte	0x54b
 2902 0e66 40       		.byte	0x40
 2903 0e67 13       		.uleb128 0x13
 2904 0e68 16050000 		.4byte	.LASF338
 2905 0e6c 0C       		.byte	0xc
 2906 0e6d 45       		.byte	0x45
 2907 0e6e 4B050000 		.4byte	0x54b
 2908 0e72 44       		.byte	0x44
 2909 0e73 13       		.uleb128 0x13
 2910 0e74 6E1E0000 		.4byte	.LASF339
 2911 0e78 0C       		.byte	0xc
 2912 0e79 47       		.byte	0x47
 2913 0e7a 4B050000 		.4byte	0x54b
 2914 0e7e 48       		.byte	0x48
 2915 0e7f 00       		.byte	0
 2916 0e80 06       		.uleb128 0x6
 2917 0e81 DA2D0000 		.4byte	.LASF340
 2918 0e85 0C       		.byte	0xc
 2919 0e86 48       		.byte	0x48
 2920 0e87 8F0D0000 		.4byte	0xd8f
 2921 0e8b 18       		.uleb128 0x18
 2922 0e8c 84130000 		.4byte	.LASF342
 2923 0e90 64       		.byte	0x64
 2924 0e91 0D       		.byte	0xd
 2925 0e92 2B       		.byte	0x2b
 2926 0e93 C40F0000 		.4byte	0xfc4
 2927 0e97 13       		.uleb128 0x13
 2928 0e98 971D0000 		.4byte	.LASF343
 2929 0e9c 0D       		.byte	0xd
 2930 0e9d 2D       		.byte	0x2d
 2931 0e9e 4B050000 		.4byte	0x54b
 2932 0ea2 00       		.byte	0
 2933 0ea3 13       		.uleb128 0x13
 2934 0ea4 66100000 		.4byte	.LASF322
 2935 0ea8 0D       		.byte	0xd
ARM GAS  C:\Users\salaz\AppData\Local\Temp\ccI54lrI.s 			page 100


 2936 0ea9 2F       		.byte	0x2f
 2937 0eaa 4B050000 		.4byte	0x54b
 2938 0eae 04       		.byte	0x4
 2939 0eaf 13       		.uleb128 0x13
 2940 0eb0 69300000 		.4byte	.LASF344
 2941 0eb4 0D       		.byte	0xd
 2942 0eb5 30       		.byte	0x30
 2943 0eb6 4B050000 		.4byte	0x54b
 2944 0eba 08       		.byte	0x8
 2945 0ebb 13       		.uleb128 0x13
 2946 0ebc 21240000 		.4byte	.LASF345
 2947 0ec0 0D       		.byte	0xd
 2948 0ec1 31       		.byte	0x31
 2949 0ec2 4B050000 		.4byte	0x54b
 2950 0ec6 0C       		.byte	0xc
 2951 0ec7 13       		.uleb128 0x13
 2952 0ec8 C70F0000 		.4byte	.LASF323
 2953 0ecc 0D       		.byte	0xd
 2954 0ecd 32       		.byte	0x32
 2955 0ece 4B050000 		.4byte	0x54b
 2956 0ed2 10       		.byte	0x10
 2957 0ed3 13       		.uleb128 0x13
 2958 0ed4 240B0000 		.4byte	.LASF346
 2959 0ed8 0D       		.byte	0xd
 2960 0ed9 33       		.byte	0x33
 2961 0eda 4B050000 		.4byte	0x54b
 2962 0ede 14       		.byte	0x14
 2963 0edf 13       		.uleb128 0x13
 2964 0ee0 2C0B0000 		.4byte	.LASF347
 2965 0ee4 0D       		.byte	0xd
 2966 0ee5 34       		.byte	0x34
 2967 0ee6 4B050000 		.4byte	0x54b
 2968 0eea 18       		.byte	0x18
 2969 0eeb 13       		.uleb128 0x13
 2970 0eec 35170000 		.4byte	.LASF348
 2971 0ef0 0D       		.byte	0xd
 2972 0ef1 35       		.byte	0x35
 2973 0ef2 880D0000 		.4byte	0xd88
 2974 0ef6 1C       		.byte	0x1c
 2975 0ef7 13       		.uleb128 0x13
 2976 0ef8 FC030000 		.4byte	.LASF326
 2977 0efc 0D       		.byte	0xd
 2978 0efd 36       		.byte	0x36
 2979 0efe 4B050000 		.4byte	0x54b
 2980 0f02 20       		.byte	0x20
 2981 0f03 13       		.uleb128 0x13
 2982 0f04 05040000 		.4byte	.LASF327
 2983 0f08 0D       		.byte	0xd
 2984 0f09 37       		.byte	0x37
 2985 0f0a 4B050000 		.4byte	0x54b
 2986 0f0e 24       		.byte	0x24
 2987 0f0f 13       		.uleb128 0x13
 2988 0f10 E81D0000 		.4byte	.LASF328
 2989 0f14 0D       		.byte	0xd
 2990 0f15 38       		.byte	0x38
 2991 0f16 880D0000 		.4byte	0xd88
 2992 0f1a 28       		.byte	0x28
ARM GAS  C:\Users\salaz\AppData\Local\Temp\ccI54lrI.s 			page 101


 2993 0f1b 13       		.uleb128 0x13
 2994 0f1c 2B190000 		.4byte	.LASF329
 2995 0f20 0D       		.byte	0xd
 2996 0f21 3A       		.byte	0x3a
 2997 0f22 4B050000 		.4byte	0x54b
 2998 0f26 2C       		.byte	0x2c
 2999 0f27 13       		.uleb128 0x13
 3000 0f28 D0150000 		.4byte	.LASF349
 3001 0f2c 0D       		.byte	0xd
 3002 0f2d 3B       		.byte	0x3b
 3003 0f2e 4B050000 		.4byte	0x54b
 3004 0f32 30       		.byte	0x30
 3005 0f33 13       		.uleb128 0x13
 3006 0f34 07330000 		.4byte	.LASF350
 3007 0f38 0D       		.byte	0xd
 3008 0f39 3C       		.byte	0x3c
 3009 0f3a 4B050000 		.4byte	0x54b
 3010 0f3e 34       		.byte	0x34
 3011 0f3f 13       		.uleb128 0x13
 3012 0f40 2E150000 		.4byte	.LASF351
 3013 0f44 0D       		.byte	0xd
 3014 0f45 3D       		.byte	0x3d
 3015 0f46 4B050000 		.4byte	0x54b
 3016 0f4a 38       		.byte	0x38
 3017 0f4b 13       		.uleb128 0x13
 3018 0f4c 87190000 		.4byte	.LASF352
 3019 0f50 0D       		.byte	0xd
 3020 0f51 3E       		.byte	0x3e
 3021 0f52 4B050000 		.4byte	0x54b
 3022 0f56 3C       		.byte	0x3c
 3023 0f57 13       		.uleb128 0x13
 3024 0f58 1D070000 		.4byte	.LASF353
 3025 0f5c 0D       		.byte	0xd
 3026 0f5d 40       		.byte	0x40
 3027 0f5e 4B050000 		.4byte	0x54b
 3028 0f62 40       		.byte	0x40
 3029 0f63 13       		.uleb128 0x13
 3030 0f64 79080000 		.4byte	.LASF332
 3031 0f68 0D       		.byte	0xd
 3032 0f69 41       		.byte	0x41
 3033 0f6a 4B050000 		.4byte	0x54b
 3034 0f6e 44       		.byte	0x44
 3035 0f6f 13       		.uleb128 0x13
 3036 0f70 80330000 		.4byte	.LASF333
 3037 0f74 0D       		.byte	0xd
 3038 0f75 43       		.byte	0x43
 3039 0f76 4B050000 		.4byte	0x54b
 3040 0f7a 48       		.byte	0x48
 3041 0f7b 13       		.uleb128 0x13
 3042 0f7c B22A0000 		.4byte	.LASF334
 3043 0f80 0D       		.byte	0xd
 3044 0f81 44       		.byte	0x44
 3045 0f82 4B050000 		.4byte	0x54b
 3046 0f86 4C       		.byte	0x4c
 3047 0f87 13       		.uleb128 0x13
 3048 0f88 65350000 		.4byte	.LASF335
 3049 0f8c 0D       		.byte	0xd
ARM GAS  C:\Users\salaz\AppData\Local\Temp\ccI54lrI.s 			page 102


 3050 0f8d 46       		.byte	0x46
 3051 0f8e 4B050000 		.4byte	0x54b
 3052 0f92 50       		.byte	0x50
 3053 0f93 13       		.uleb128 0x13
 3054 0f94 D52E0000 		.4byte	.LASF354
 3055 0f98 0D       		.byte	0xd
 3056 0f99 47       		.byte	0x47
 3057 0f9a 4B050000 		.4byte	0x54b
 3058 0f9e 54       		.byte	0x54
 3059 0f9f 13       		.uleb128 0x13
 3060 0fa0 FA1D0000 		.4byte	.LASF355
 3061 0fa4 0D       		.byte	0xd
 3062 0fa5 49       		.byte	0x49
 3063 0fa6 4B050000 		.4byte	0x54b
 3064 0faa 58       		.byte	0x58
 3065 0fab 13       		.uleb128 0x13
 3066 0fac 16050000 		.4byte	.LASF338
 3067 0fb0 0D       		.byte	0xd
 3068 0fb1 4A       		.byte	0x4a
 3069 0fb2 4B050000 		.4byte	0x54b
 3070 0fb6 5C       		.byte	0x5c
 3071 0fb7 13       		.uleb128 0x13
 3072 0fb8 6E1E0000 		.4byte	.LASF339
 3073 0fbc 0D       		.byte	0xd
 3074 0fbd 4C       		.byte	0x4c
 3075 0fbe 4B050000 		.4byte	0x54b
 3076 0fc2 60       		.byte	0x60
 3077 0fc3 00       		.byte	0
 3078 0fc4 06       		.uleb128 0x6
 3079 0fc5 43050000 		.4byte	.LASF356
 3080 0fc9 0D       		.byte	0xd
 3081 0fca 4D       		.byte	0x4d
 3082 0fcb 8B0E0000 		.4byte	0xe8b
 3083 0fcf 19       		.uleb128 0x19
 3084 0fd0 01       		.byte	0x1
 3085 0fd1 B3040000 		.4byte	0x4b3
 3086 0fd5 0E       		.byte	0xe
 3087 0fd6 DE01     		.2byte	0x1de
 3088 0fd8 E90F0000 		.4byte	0xfe9
 3089 0fdc 04       		.uleb128 0x4
 3090 0fdd 8F140000 		.4byte	.LASF357
 3091 0fe1 00       		.byte	0
 3092 0fe2 04       		.uleb128 0x4
 3093 0fe3 DD300000 		.4byte	.LASF358
 3094 0fe7 01       		.byte	0x1
 3095 0fe8 00       		.byte	0
 3096 0fe9 07       		.uleb128 0x7
 3097 0fea EB270000 		.4byte	.LASF359
 3098 0fee 0E       		.byte	0xe
 3099 0fef E101     		.2byte	0x1e1
 3100 0ff1 CF0F0000 		.4byte	0xfcf
 3101 0ff5 07       		.uleb128 0x7
 3102 0ff6 11200000 		.4byte	.LASF360
 3103 0ffa 0E       		.byte	0xe
 3104 0ffb F301     		.2byte	0x1f3
 3105 0ffd 01100000 		.4byte	0x1001
 3106 1001 1A       		.uleb128 0x1a
ARM GAS  C:\Users\salaz\AppData\Local\Temp\ccI54lrI.s 			page 103


 3107 1002 04       		.byte	0x4
 3108 1003 07100000 		.4byte	0x1007
 3109 1007 1B       		.uleb128 0x1b
 3110 1008 12100000 		.4byte	0x1012
 3111 100c 1C       		.uleb128 0x1c
 3112 100d 4B050000 		.4byte	0x54b
 3113 1011 00       		.byte	0
 3114 1012 07       		.uleb128 0x7
 3115 1013 BE320000 		.4byte	.LASF361
 3116 1017 0E       		.byte	0xe
 3117 1018 FE01     		.2byte	0x1fe
 3118 101a 1E100000 		.4byte	0x101e
 3119 101e 1A       		.uleb128 0x1a
 3120 101f 04       		.byte	0x4
 3121 1020 24100000 		.4byte	0x1024
 3122 1024 1D       		.uleb128 0x1d
 3123 1025 E90F0000 		.4byte	0xfe9
 3124 1029 33100000 		.4byte	0x1033
 3125 102d 1C       		.uleb128 0x1c
 3126 102e 4B050000 		.4byte	0x54b
 3127 1032 00       		.byte	0
 3128 1033 1E       		.uleb128 0x1e
 3129 1034 C8340000 		.4byte	.LASF362
 3130 1038 4C       		.byte	0x4c
 3131 1039 0E       		.byte	0xe
 3132 103a 6502     		.2byte	0x265
 3133 103c 52110000 		.4byte	0x1152
 3134 1040 0A       		.uleb128 0xa
 3135 1041 E0060000 		.4byte	.LASF363
 3136 1045 0E       		.byte	0xe
 3137 1046 6802     		.2byte	0x268
 3138 1048 880D0000 		.4byte	0xd88
 3139 104c 00       		.byte	0
 3140 104d 0A       		.uleb128 0xa
 3141 104e 9F240000 		.4byte	.LASF364
 3142 1052 0E       		.byte	0xe
 3143 1053 6902     		.2byte	0x269
 3144 1055 880D0000 		.4byte	0xd88
 3145 1059 01       		.byte	0x1
 3146 105a 0A       		.uleb128 0xa
 3147 105b 9A030000 		.4byte	.LASF365
 3148 105f 0E       		.byte	0xe
 3149 1060 6B02     		.2byte	0x26b
 3150 1062 FF050000 		.4byte	0x5ff
 3151 1066 04       		.byte	0x4
 3152 1067 0A       		.uleb128 0xa
 3153 1068 792D0000 		.4byte	.LASF366
 3154 106c 0E       		.byte	0xe
 3155 106d 6D02     		.2byte	0x26d
 3156 106f FF050000 		.4byte	0x5ff
 3157 1073 08       		.byte	0x8
 3158 1074 0A       		.uleb128 0xa
 3159 1075 76300000 		.4byte	.LASF367
 3160 1079 0E       		.byte	0xe
 3161 107a 6E02     		.2byte	0x26e
 3162 107c 880D0000 		.4byte	0xd88
 3163 1080 0C       		.byte	0xc
ARM GAS  C:\Users\salaz\AppData\Local\Temp\ccI54lrI.s 			page 104


 3164 1081 0A       		.uleb128 0xa
 3165 1082 B4300000 		.4byte	.LASF368
 3166 1086 0E       		.byte	0xe
 3167 1087 6F02     		.2byte	0x26f
 3168 1089 880D0000 		.4byte	0xd88
 3169 108d 0D       		.byte	0xd
 3170 108e 0A       		.uleb128 0xa
 3171 108f E42A0000 		.4byte	.LASF369
 3172 1093 0E       		.byte	0xe
 3173 1094 7102     		.2byte	0x271
 3174 1096 52110000 		.4byte	0x1152
 3175 109a 10       		.byte	0x10
 3176 109b 0A       		.uleb128 0xa
 3177 109c BF150000 		.4byte	.LASF370
 3178 10a0 0E       		.byte	0xe
 3179 10a1 7202     		.2byte	0x272
 3180 10a3 4B050000 		.4byte	0x54b
 3181 10a7 14       		.byte	0x14
 3182 10a8 0A       		.uleb128 0xa
 3183 10a9 262D0000 		.4byte	.LASF371
 3184 10ad 0E       		.byte	0xe
 3185 10ae 7302     		.2byte	0x273
 3186 10b0 FF050000 		.4byte	0x5ff
 3187 10b4 18       		.byte	0x18
 3188 10b5 0A       		.uleb128 0xa
 3189 10b6 B51A0000 		.4byte	.LASF372
 3190 10ba 0E       		.byte	0xe
 3191 10bb 7402     		.2byte	0x274
 3192 10bd FF050000 		.4byte	0x5ff
 3193 10c1 1C       		.byte	0x1c
 3194 10c2 0A       		.uleb128 0xa
 3195 10c3 0A170000 		.4byte	.LASF373
 3196 10c7 0E       		.byte	0xe
 3197 10c8 7602     		.2byte	0x276
 3198 10ca FF050000 		.4byte	0x5ff
 3199 10ce 20       		.byte	0x20
 3200 10cf 0A       		.uleb128 0xa
 3201 10d0 AC110000 		.4byte	.LASF374
 3202 10d4 0E       		.byte	0xe
 3203 10d5 7702     		.2byte	0x277
 3204 10d7 58110000 		.4byte	0x1158
 3205 10db 24       		.byte	0x24
 3206 10dc 0A       		.uleb128 0xa
 3207 10dd C62F0000 		.4byte	.LASF375
 3208 10e1 0E       		.byte	0xe
 3209 10e2 7902     		.2byte	0x279
 3210 10e4 52110000 		.4byte	0x1152
 3211 10e8 28       		.byte	0x28
 3212 10e9 0A       		.uleb128 0xa
 3213 10ea 3C190000 		.4byte	.LASF376
 3214 10ee 0E       		.byte	0xe
 3215 10ef 7A02     		.2byte	0x27a
 3216 10f1 4B050000 		.4byte	0x54b
 3217 10f5 2C       		.byte	0x2c
 3218 10f6 0A       		.uleb128 0xa
 3219 10f7 8A0B0000 		.4byte	.LASF377
 3220 10fb 0E       		.byte	0xe
ARM GAS  C:\Users\salaz\AppData\Local\Temp\ccI54lrI.s 			page 105


 3221 10fc 7B02     		.2byte	0x27b
 3222 10fe FF050000 		.4byte	0x5ff
 3223 1102 30       		.byte	0x30
 3224 1103 0A       		.uleb128 0xa
 3225 1104 EB120000 		.4byte	.LASF378
 3226 1108 0E       		.byte	0xe
 3227 1109 7C02     		.2byte	0x27c
 3228 110b FF050000 		.4byte	0x5ff
 3229 110f 34       		.byte	0x34
 3230 1110 0A       		.uleb128 0xa
 3231 1111 200C0000 		.4byte	.LASF379
 3232 1115 0E       		.byte	0xe
 3233 1116 7E02     		.2byte	0x27e
 3234 1118 52110000 		.4byte	0x1152
 3235 111c 38       		.byte	0x38
 3236 111d 0A       		.uleb128 0xa
 3237 111e CB1F0000 		.4byte	.LASF380
 3238 1122 0E       		.byte	0xe
 3239 1123 7F02     		.2byte	0x27f
 3240 1125 4B050000 		.4byte	0x54b
 3241 1129 3C       		.byte	0x3c
 3242 112a 0A       		.uleb128 0xa
 3243 112b 4A210000 		.4byte	.LASF381
 3244 112f 0E       		.byte	0xe
 3245 1130 8002     		.2byte	0x280
 3246 1132 FF050000 		.4byte	0x5ff
 3247 1136 40       		.byte	0x40
 3248 1137 0A       		.uleb128 0xa
 3249 1138 F1150000 		.4byte	.LASF382
 3250 113c 0E       		.byte	0xe
 3251 113d 8602     		.2byte	0x286
 3252 113f F50F0000 		.4byte	0xff5
 3253 1143 44       		.byte	0x44
 3254 1144 0A       		.uleb128 0xa
 3255 1145 F12A0000 		.4byte	.LASF383
 3256 1149 0E       		.byte	0xe
 3257 114a 8D02     		.2byte	0x28d
 3258 114c 12100000 		.4byte	0x1012
 3259 1150 48       		.byte	0x48
 3260 1151 00       		.byte	0
 3261 1152 1A       		.uleb128 0x1a
 3262 1153 04       		.byte	0x4
 3263 1154 2A050000 		.4byte	0x52a
 3264 1158 0F       		.uleb128 0xf
 3265 1159 880D0000 		.4byte	0xd88
 3266 115d 07       		.uleb128 0x7
 3267 115e 990C0000 		.4byte	.LASF384
 3268 1162 0E       		.byte	0xe
 3269 1163 9002     		.2byte	0x290
 3270 1165 33100000 		.4byte	0x1033
 3271 1169 19       		.uleb128 0x19
 3272 116a 01       		.byte	0x1
 3273 116b B3040000 		.4byte	0x4b3
 3274 116f 0F       		.byte	0xf
 3275 1170 7A01     		.2byte	0x17a
 3276 1172 89110000 		.4byte	0x1189
 3277 1176 04       		.uleb128 0x4
ARM GAS  C:\Users\salaz\AppData\Local\Temp\ccI54lrI.s 			page 106


 3278 1177 472D0000 		.4byte	.LASF385
 3279 117b 00       		.byte	0
 3280 117c 04       		.uleb128 0x4
 3281 117d C2000000 		.4byte	.LASF386
 3282 1181 01       		.byte	0x1
 3283 1182 04       		.uleb128 0x4
 3284 1183 C2350000 		.4byte	.LASF387
 3285 1187 02       		.byte	0x2
 3286 1188 00       		.byte	0
 3287 1189 07       		.uleb128 0x7
 3288 118a BF2E0000 		.4byte	.LASF388
 3289 118e 0F       		.byte	0xf
 3290 118f 7E01     		.2byte	0x17e
 3291 1191 69110000 		.4byte	0x1169
 3292 1195 19       		.uleb128 0x19
 3293 1196 01       		.byte	0x1
 3294 1197 B3040000 		.4byte	0x4b3
 3295 119b 0F       		.byte	0xf
 3296 119c 8201     		.2byte	0x182
 3297 119e CD110000 		.4byte	0x11cd
 3298 11a2 04       		.uleb128 0x4
 3299 11a3 31180000 		.4byte	.LASF389
 3300 11a7 02       		.byte	0x2
 3301 11a8 04       		.uleb128 0x4
 3302 11a9 9F280000 		.4byte	.LASF390
 3303 11ad 03       		.byte	0x3
 3304 11ae 04       		.uleb128 0x4
 3305 11af AA310000 		.4byte	.LASF391
 3306 11b3 04       		.byte	0x4
 3307 11b4 04       		.uleb128 0x4
 3308 11b5 9A250000 		.4byte	.LASF392
 3309 11b9 05       		.byte	0x5
 3310 11ba 04       		.uleb128 0x4
 3311 11bb C2310000 		.4byte	.LASF393
 3312 11bf 06       		.byte	0x6
 3313 11c0 04       		.uleb128 0x4
 3314 11c1 27300000 		.4byte	.LASF394
 3315 11c5 07       		.byte	0x7
 3316 11c6 04       		.uleb128 0x4
 3317 11c7 DA310000 		.4byte	.LASF395
 3318 11cb 08       		.byte	0x8
 3319 11cc 00       		.byte	0
 3320 11cd 07       		.uleb128 0x7
 3321 11ce BC110000 		.4byte	.LASF396
 3322 11d2 0F       		.byte	0xf
 3323 11d3 8A01     		.2byte	0x18a
 3324 11d5 95110000 		.4byte	0x1195
 3325 11d9 19       		.uleb128 0x19
 3326 11da 01       		.byte	0x1
 3327 11db B3040000 		.4byte	0x4b3
 3328 11df 0F       		.byte	0xf
 3329 11e0 8E01     		.2byte	0x18e
 3330 11e2 F9110000 		.4byte	0x11f9
 3331 11e6 04       		.uleb128 0x4
 3332 11e7 67150000 		.4byte	.LASF397
 3333 11eb 00       		.byte	0
 3334 11ec 04       		.uleb128 0x4
ARM GAS  C:\Users\salaz\AppData\Local\Temp\ccI54lrI.s 			page 107


 3335 11ed E9330000 		.4byte	.LASF398
 3336 11f1 02       		.byte	0x2
 3337 11f2 04       		.uleb128 0x4
 3338 11f3 56250000 		.4byte	.LASF399
 3339 11f7 03       		.byte	0x3
 3340 11f8 00       		.byte	0
 3341 11f9 07       		.uleb128 0x7
 3342 11fa D42F0000 		.4byte	.LASF400
 3343 11fe 0F       		.byte	0xf
 3344 11ff 9201     		.2byte	0x192
 3345 1201 D9110000 		.4byte	0x11d9
 3346 1205 19       		.uleb128 0x19
 3347 1206 01       		.byte	0x1
 3348 1207 B3040000 		.4byte	0x4b3
 3349 120b 0F       		.byte	0xf
 3350 120c 9601     		.2byte	0x196
 3351 120e 1F120000 		.4byte	0x121f
 3352 1212 04       		.uleb128 0x4
 3353 1213 862D0000 		.4byte	.LASF401
 3354 1217 00       		.byte	0
 3355 1218 04       		.uleb128 0x4
 3356 1219 0B1C0000 		.4byte	.LASF402
 3357 121d 01       		.byte	0x1
 3358 121e 00       		.byte	0
 3359 121f 07       		.uleb128 0x7
 3360 1220 65320000 		.4byte	.LASF403
 3361 1224 0F       		.byte	0xf
 3362 1225 9901     		.2byte	0x199
 3363 1227 05120000 		.4byte	0x1205
 3364 122b 07       		.uleb128 0x7
 3365 122c 42220000 		.4byte	.LASF404
 3366 1230 0F       		.byte	0xf
 3367 1231 AB01     		.2byte	0x1ab
 3368 1233 01100000 		.4byte	0x1001
 3369 1237 1E       		.uleb128 0x1e
 3370 1238 58170000 		.4byte	.LASF405
 3371 123c 40       		.byte	0x40
 3372 123d 0F       		.byte	0xf
 3373 123e AE01     		.2byte	0x1ae
 3374 1240 8A130000 		.4byte	0x138a
 3375 1244 0A       		.uleb128 0xa
 3376 1245 FC1C0000 		.4byte	.LASF406
 3377 1249 0F       		.byte	0xf
 3378 124a B101     		.2byte	0x1b1
 3379 124c 89110000 		.4byte	0x1189
 3380 1250 00       		.byte	0
 3381 1251 0A       		.uleb128 0xa
 3382 1252 D51C0000 		.4byte	.LASF407
 3383 1256 0F       		.byte	0xf
 3384 1257 BB01     		.2byte	0x1bb
 3385 1259 4B050000 		.4byte	0x54b
 3386 125d 04       		.byte	0x4
 3387 125e 0A       		.uleb128 0xa
 3388 125f 00170000 		.4byte	.LASF408
 3389 1263 0F       		.byte	0xf
 3390 1264 BE01     		.2byte	0x1be
 3391 1266 4B050000 		.4byte	0x54b
ARM GAS  C:\Users\salaz\AppData\Local\Temp\ccI54lrI.s 			page 108


 3392 126a 08       		.byte	0x8
 3393 126b 0A       		.uleb128 0xa
 3394 126c 16030000 		.4byte	.LASF409
 3395 1270 0F       		.byte	0xf
 3396 1271 C401     		.2byte	0x1c4
 3397 1273 880D0000 		.4byte	0xd88
 3398 1277 0C       		.byte	0xc
 3399 1278 0A       		.uleb128 0xa
 3400 1279 7E290000 		.4byte	.LASF410
 3401 127d 0F       		.byte	0xf
 3402 127e CA01     		.2byte	0x1ca
 3403 1280 CD110000 		.4byte	0x11cd
 3404 1284 0D       		.byte	0xd
 3405 1285 0A       		.uleb128 0xa
 3406 1286 231C0000 		.4byte	.LASF411
 3407 128a 0F       		.byte	0xf
 3408 128b CD01     		.2byte	0x1cd
 3409 128d F9110000 		.4byte	0x11f9
 3410 1291 0E       		.byte	0xe
 3411 1292 0A       		.uleb128 0xa
 3412 1293 FC200000 		.4byte	.LASF412
 3413 1297 0F       		.byte	0xf
 3414 1298 D501     		.2byte	0x1d5
 3415 129a 880D0000 		.4byte	0xd88
 3416 129e 0F       		.byte	0xf
 3417 129f 0A       		.uleb128 0xa
 3418 12a0 46170000 		.4byte	.LASF413
 3419 12a4 0F       		.byte	0xf
 3420 12a5 DB01     		.2byte	0x1db
 3421 12a7 880D0000 		.4byte	0xd88
 3422 12ab 10       		.byte	0x10
 3423 12ac 0A       		.uleb128 0xa
 3424 12ad EA060000 		.4byte	.LASF414
 3425 12b1 0F       		.byte	0xf
 3426 12b2 E101     		.2byte	0x1e1
 3427 12b4 880D0000 		.4byte	0xd88
 3428 12b8 11       		.byte	0x11
 3429 12b9 0A       		.uleb128 0xa
 3430 12ba A62E0000 		.4byte	.LASF415
 3431 12be 0F       		.byte	0xf
 3432 12bf E701     		.2byte	0x1e7
 3433 12c1 880D0000 		.4byte	0xd88
 3434 12c5 12       		.byte	0x12
 3435 12c6 0A       		.uleb128 0xa
 3436 12c7 59230000 		.4byte	.LASF416
 3437 12cb 0F       		.byte	0xf
 3438 12cc EE01     		.2byte	0x1ee
 3439 12ce 4B050000 		.4byte	0x54b
 3440 12d2 14       		.byte	0x14
 3441 12d3 0A       		.uleb128 0xa
 3442 12d4 D5280000 		.4byte	.LASF417
 3443 12d8 0F       		.byte	0xf
 3444 12d9 F601     		.2byte	0x1f6
 3445 12db 4B050000 		.4byte	0x54b
 3446 12df 18       		.byte	0x18
 3447 12e0 0A       		.uleb128 0xa
 3448 12e1 4E0B0000 		.4byte	.LASF418
ARM GAS  C:\Users\salaz\AppData\Local\Temp\ccI54lrI.s 			page 109


 3449 12e5 0F       		.byte	0xf
 3450 12e6 FC01     		.2byte	0x1fc
 3451 12e8 880D0000 		.4byte	0xd88
 3452 12ec 1C       		.byte	0x1c
 3453 12ed 0A       		.uleb128 0xa
 3454 12ee B6160000 		.4byte	.LASF419
 3455 12f2 0F       		.byte	0xf
 3456 12f3 FF01     		.2byte	0x1ff
 3457 12f5 880D0000 		.4byte	0xd88
 3458 12f9 1D       		.byte	0x1d
 3459 12fa 0A       		.uleb128 0xa
 3460 12fb BA1C0000 		.4byte	.LASF420
 3461 12ff 0F       		.byte	0xf
 3462 1300 0502     		.2byte	0x205
 3463 1302 880D0000 		.4byte	0xd88
 3464 1306 1E       		.byte	0x1e
 3465 1307 0A       		.uleb128 0xa
 3466 1308 AF230000 		.4byte	.LASF421
 3467 130c 0F       		.byte	0xf
 3468 130d 0C02     		.2byte	0x20c
 3469 130f 880D0000 		.4byte	0xd88
 3470 1313 1F       		.byte	0x1f
 3471 1314 0A       		.uleb128 0xa
 3472 1315 3A240000 		.4byte	.LASF422
 3473 1319 0F       		.byte	0xf
 3474 131a 1202     		.2byte	0x212
 3475 131c 880D0000 		.4byte	0xd88
 3476 1320 20       		.byte	0x20
 3477 1321 0A       		.uleb128 0xa
 3478 1322 19310000 		.4byte	.LASF423
 3479 1326 0F       		.byte	0xf
 3480 1327 1502     		.2byte	0x215
 3481 1329 1F120000 		.4byte	0x121f
 3482 132d 21       		.byte	0x21
 3483 132e 0A       		.uleb128 0xa
 3484 132f 51330000 		.4byte	.LASF424
 3485 1333 0F       		.byte	0xf
 3486 1334 1B02     		.2byte	0x21b
 3487 1336 4B050000 		.4byte	0x54b
 3488 133a 24       		.byte	0x24
 3489 133b 0A       		.uleb128 0xa
 3490 133c B20C0000 		.4byte	.LASF425
 3491 1340 0F       		.byte	0xf
 3492 1341 1E02     		.2byte	0x21e
 3493 1343 1F120000 		.4byte	0x121f
 3494 1347 28       		.byte	0x28
 3495 1348 0A       		.uleb128 0xa
 3496 1349 2A340000 		.4byte	.LASF426
 3497 134d 0F       		.byte	0xf
 3498 134e 2102     		.2byte	0x221
 3499 1350 4B050000 		.4byte	0x54b
 3500 1354 2C       		.byte	0x2c
 3501 1355 0A       		.uleb128 0xa
 3502 1356 5F040000 		.4byte	.LASF427
 3503 135a 0F       		.byte	0xf
 3504 135b 2902     		.2byte	0x229
 3505 135d 4B050000 		.4byte	0x54b
ARM GAS  C:\Users\salaz\AppData\Local\Temp\ccI54lrI.s 			page 110


 3506 1361 30       		.byte	0x30
 3507 1362 0A       		.uleb128 0xa
 3508 1363 DA030000 		.4byte	.LASF428
 3509 1367 0F       		.byte	0xf
 3510 1368 2F02     		.2byte	0x22f
 3511 136a 4B050000 		.4byte	0x54b
 3512 136e 34       		.byte	0x34
 3513 136f 0A       		.uleb128 0xa
 3514 1370 82200000 		.4byte	.LASF429
 3515 1374 0F       		.byte	0xf
 3516 1375 3702     		.2byte	0x237
 3517 1377 4B050000 		.4byte	0x54b
 3518 137b 38       		.byte	0x38
 3519 137c 0A       		.uleb128 0xa
 3520 137d 60330000 		.4byte	.LASF430
 3521 1381 0F       		.byte	0xf
 3522 1382 3D02     		.2byte	0x23d
 3523 1384 4B050000 		.4byte	0x54b
 3524 1388 3C       		.byte	0x3c
 3525 1389 00       		.byte	0
 3526 138a 07       		.uleb128 0x7
 3527 138b 95120000 		.4byte	.LASF431
 3528 138f 0F       		.byte	0xf
 3529 1390 3E02     		.2byte	0x23e
 3530 1392 37120000 		.4byte	0x1237
 3531 1396 1E       		.uleb128 0x1e
 3532 1397 2A010000 		.4byte	.LASF432
 3533 139b 38       		.byte	0x38
 3534 139c 0F       		.byte	0xf
 3535 139d 4702     		.2byte	0x247
 3536 139f 5A140000 		.4byte	0x145a
 3537 13a3 0A       		.uleb128 0xa
 3538 13a4 39030000 		.4byte	.LASF433
 3539 13a8 0F       		.byte	0xf
 3540 13a9 4A02     		.2byte	0x24a
 3541 13ab FF050000 		.4byte	0x5ff
 3542 13af 00       		.byte	0
 3543 13b0 0A       		.uleb128 0xa
 3544 13b1 C12A0000 		.4byte	.LASF434
 3545 13b5 0F       		.byte	0xf
 3546 13b6 4B02     		.2byte	0x24b
 3547 13b8 FF050000 		.4byte	0x5ff
 3548 13bc 04       		.byte	0x4
 3549 13bd 0A       		.uleb128 0xa
 3550 13be BE340000 		.4byte	.LASF435
 3551 13c2 0F       		.byte	0xf
 3552 13c3 4D02     		.2byte	0x24d
 3553 13c5 860D0000 		.4byte	0xd86
 3554 13c9 08       		.byte	0x8
 3555 13ca 0A       		.uleb128 0xa
 3556 13cb A7200000 		.4byte	.LASF436
 3557 13cf 0F       		.byte	0xf
 3558 13d0 4E02     		.2byte	0x24e
 3559 13d2 4B050000 		.4byte	0x54b
 3560 13d6 0C       		.byte	0xc
 3561 13d7 0A       		.uleb128 0xa
 3562 13d8 120C0000 		.4byte	.LASF437
ARM GAS  C:\Users\salaz\AppData\Local\Temp\ccI54lrI.s 			page 111


 3563 13dc 0F       		.byte	0xf
 3564 13dd 4F02     		.2byte	0x24f
 3565 13df FF050000 		.4byte	0x5ff
 3566 13e3 10       		.byte	0x10
 3567 13e4 0A       		.uleb128 0xa
 3568 13e5 01340000 		.4byte	.LASF438
 3569 13e9 0F       		.byte	0xf
 3570 13ea 5002     		.2byte	0x250
 3571 13ec FF050000 		.4byte	0x5ff
 3572 13f0 14       		.byte	0x14
 3573 13f1 0A       		.uleb128 0xa
 3574 13f2 84010000 		.4byte	.LASF439
 3575 13f6 0F       		.byte	0xf
 3576 13f7 5202     		.2byte	0x252
 3577 13f9 860D0000 		.4byte	0xd86
 3578 13fd 18       		.byte	0x18
 3579 13fe 0A       		.uleb128 0xa
 3580 13ff 05100000 		.4byte	.LASF440
 3581 1403 0F       		.byte	0xf
 3582 1404 5302     		.2byte	0x253
 3583 1406 4B050000 		.4byte	0x54b
 3584 140a 1C       		.byte	0x1c
 3585 140b 0A       		.uleb128 0xa
 3586 140c E51B0000 		.4byte	.LASF441
 3587 1410 0F       		.byte	0xf
 3588 1411 5402     		.2byte	0x254
 3589 1413 FF050000 		.4byte	0x5ff
 3590 1417 20       		.byte	0x20
 3591 1418 0A       		.uleb128 0xa
 3592 1419 12270000 		.4byte	.LASF442
 3593 141d 0F       		.byte	0xf
 3594 141e 5602     		.2byte	0x256
 3595 1420 860D0000 		.4byte	0xd86
 3596 1424 24       		.byte	0x24
 3597 1425 0A       		.uleb128 0xa
 3598 1426 27070000 		.4byte	.LASF443
 3599 142a 0F       		.byte	0xf
 3600 142b 5702     		.2byte	0x257
 3601 142d 4B050000 		.4byte	0x54b
 3602 1431 28       		.byte	0x28
 3603 1432 0A       		.uleb128 0xa
 3604 1433 06230000 		.4byte	.LASF444
 3605 1437 0F       		.byte	0xf
 3606 1438 5802     		.2byte	0x258
 3607 143a FF050000 		.4byte	0x5ff
 3608 143e 2C       		.byte	0x2c
 3609 143f 0A       		.uleb128 0xa
 3610 1440 F1150000 		.4byte	.LASF382
 3611 1444 0F       		.byte	0xf
 3612 1445 5D02     		.2byte	0x25d
 3613 1447 2B120000 		.4byte	0x122b
 3614 144b 30       		.byte	0x30
 3615 144c 0A       		.uleb128 0xa
 3616 144d 962B0000 		.4byte	.LASF445
 3617 1451 0F       		.byte	0xf
 3618 1452 6002     		.2byte	0x260
 3619 1454 4B050000 		.4byte	0x54b
ARM GAS  C:\Users\salaz\AppData\Local\Temp\ccI54lrI.s 			page 112


 3620 1458 34       		.byte	0x34
 3621 1459 00       		.byte	0
 3622 145a 07       		.uleb128 0x7
 3623 145b AD0A0000 		.4byte	.LASF446
 3624 145f 0F       		.byte	0xf
 3625 1460 6302     		.2byte	0x263
 3626 1462 96130000 		.4byte	0x1396
 3627 1466 19       		.uleb128 0x19
 3628 1467 02       		.byte	0x2
 3629 1468 E3040000 		.4byte	0x4e3
 3630 146c 10       		.byte	0x10
 3631 146d 4201     		.2byte	0x142
 3632 146f 9F170000 		.4byte	0x179f
 3633 1473 04       		.uleb128 0x4
 3634 1474 BE1E0000 		.4byte	.LASF447
 3635 1478 00       		.byte	0
 3636 1479 1F       		.uleb128 0x1f
 3637 147a F82D0000 		.4byte	.LASF448
 3638 147e 0010     		.2byte	0x1000
 3639 1480 1F       		.uleb128 0x1f
 3640 1481 FE090000 		.4byte	.LASF449
 3641 1485 0110     		.2byte	0x1001
 3642 1487 1F       		.uleb128 0x1f
 3643 1488 31070000 		.4byte	.LASF450
 3644 148c 0210     		.2byte	0x1002
 3645 148e 1F       		.uleb128 0x1f
 3646 148f 340B0000 		.4byte	.LASF451
 3647 1493 0310     		.2byte	0x1003
 3648 1495 1F       		.uleb128 0x1f
 3649 1496 10000000 		.4byte	.LASF452
 3650 149a 0410     		.2byte	0x1004
 3651 149c 1F       		.uleb128 0x1f
 3652 149d A5320000 		.4byte	.LASF453
 3653 14a1 0510     		.2byte	0x1005
 3654 14a3 1F       		.uleb128 0x1f
 3655 14a4 E7020000 		.4byte	.LASF454
 3656 14a8 0020     		.2byte	0x2000
 3657 14aa 1F       		.uleb128 0x1f
 3658 14ab 680D0000 		.4byte	.LASF455
 3659 14af 0120     		.2byte	0x2001
 3660 14b1 1F       		.uleb128 0x1f
 3661 14b2 AE120000 		.4byte	.LASF456
 3662 14b6 0220     		.2byte	0x2002
 3663 14b8 1F       		.uleb128 0x1f
 3664 14b9 722B0000 		.4byte	.LASF457
 3665 14bd 0320     		.2byte	0x2003
 3666 14bf 1F       		.uleb128 0x1f
 3667 14c0 420D0000 		.4byte	.LASF458
 3668 14c4 0420     		.2byte	0x2004
 3669 14c6 1F       		.uleb128 0x1f
 3670 14c7 36250000 		.4byte	.LASF459
 3671 14cb 0520     		.2byte	0x2005
 3672 14cd 1F       		.uleb128 0x1f
 3673 14ce 61220000 		.4byte	.LASF460
 3674 14d2 0620     		.2byte	0x2006
 3675 14d4 1F       		.uleb128 0x1f
 3676 14d5 27350000 		.4byte	.LASF461
ARM GAS  C:\Users\salaz\AppData\Local\Temp\ccI54lrI.s 			page 113


 3677 14d9 0720     		.2byte	0x2007
 3678 14db 1F       		.uleb128 0x1f
 3679 14dc 2A1C0000 		.4byte	.LASF462
 3680 14e0 0820     		.2byte	0x2008
 3681 14e2 1F       		.uleb128 0x1f
 3682 14e3 501E0000 		.4byte	.LASF463
 3683 14e7 0920     		.2byte	0x2009
 3684 14e9 1F       		.uleb128 0x1f
 3685 14ea 66260000 		.4byte	.LASF464
 3686 14ee 0A20     		.2byte	0x200a
 3687 14f0 1F       		.uleb128 0x1f
 3688 14f1 A22D0000 		.4byte	.LASF465
 3689 14f5 0B20     		.2byte	0x200b
 3690 14f7 1F       		.uleb128 0x1f
 3691 14f8 72160000 		.4byte	.LASF466
 3692 14fc 0C20     		.2byte	0x200c
 3693 14fe 1F       		.uleb128 0x1f
 3694 14ff C4230000 		.4byte	.LASF467
 3695 1503 0D20     		.2byte	0x200d
 3696 1505 1F       		.uleb128 0x1f
 3697 1506 5F090000 		.4byte	.LASF468
 3698 150a 0E20     		.2byte	0x200e
 3699 150c 1F       		.uleb128 0x1f
 3700 150d FC340000 		.4byte	.LASF469
 3701 1511 0F20     		.2byte	0x200f
 3702 1513 1F       		.uleb128 0x1f
 3703 1514 600A0000 		.4byte	.LASF470
 3704 1518 1020     		.2byte	0x2010
 3705 151a 1F       		.uleb128 0x1f
 3706 151b 9F1D0000 		.4byte	.LASF471
 3707 151f 1120     		.2byte	0x2011
 3708 1521 1F       		.uleb128 0x1f
 3709 1522 391A0000 		.4byte	.LASF472
 3710 1526 1220     		.2byte	0x2012
 3711 1528 1F       		.uleb128 0x1f
 3712 1529 6B0F0000 		.4byte	.LASF473
 3713 152d 1320     		.2byte	0x2013
 3714 152f 1F       		.uleb128 0x1f
 3715 1530 B9130000 		.4byte	.LASF474
 3716 1534 1420     		.2byte	0x2014
 3717 1536 1F       		.uleb128 0x1f
 3718 1537 870F0000 		.4byte	.LASF475
 3719 153b 1520     		.2byte	0x2015
 3720 153d 1F       		.uleb128 0x1f
 3721 153e 23220000 		.4byte	.LASF476
 3722 1542 1620     		.2byte	0x2016
 3723 1544 1F       		.uleb128 0x1f
 3724 1545 CF080000 		.4byte	.LASF477
 3725 1549 1720     		.2byte	0x2017
 3726 154b 1F       		.uleb128 0x1f
 3727 154c CF040000 		.4byte	.LASF478
 3728 1550 0030     		.2byte	0x3000
 3729 1552 1F       		.uleb128 0x1f
 3730 1553 8A010000 		.4byte	.LASF479
 3731 1557 0130     		.2byte	0x3001
 3732 1559 1F       		.uleb128 0x1f
 3733 155a D8000000 		.4byte	.LASF480
ARM GAS  C:\Users\salaz\AppData\Local\Temp\ccI54lrI.s 			page 114


 3734 155e 0230     		.2byte	0x3002
 3735 1560 1F       		.uleb128 0x1f
 3736 1561 A22F0000 		.4byte	.LASF481
 3737 1565 0330     		.2byte	0x3003
 3738 1567 1F       		.uleb128 0x1f
 3739 1568 A2150000 		.4byte	.LASF482
 3740 156c 0430     		.2byte	0x3004
 3741 156e 1F       		.uleb128 0x1f
 3742 156f EA2B0000 		.4byte	.LASF483
 3743 1573 0530     		.2byte	0x3005
 3744 1575 1F       		.uleb128 0x1f
 3745 1576 50340000 		.4byte	.LASF484
 3746 157a 0630     		.2byte	0x3006
 3747 157c 1F       		.uleb128 0x1f
 3748 157d 0B020000 		.4byte	.LASF485
 3749 1581 0730     		.2byte	0x3007
 3750 1583 1F       		.uleb128 0x1f
 3751 1584 B1010000 		.4byte	.LASF486
 3752 1588 0830     		.2byte	0x3008
 3753 158a 1F       		.uleb128 0x1f
 3754 158b B4180000 		.4byte	.LASF487
 3755 158f 0930     		.2byte	0x3009
 3756 1591 1F       		.uleb128 0x1f
 3757 1592 EC2F0000 		.4byte	.LASF488
 3758 1596 0A30     		.2byte	0x300a
 3759 1598 1F       		.uleb128 0x1f
 3760 1599 76250000 		.4byte	.LASF489
 3761 159d 0B30     		.2byte	0x300b
 3762 159f 1F       		.uleb128 0x1f
 3763 15a0 A30F0000 		.4byte	.LASF490
 3764 15a4 0C30     		.2byte	0x300c
 3765 15a6 1F       		.uleb128 0x1f
 3766 15a7 06180000 		.4byte	.LASF491
 3767 15ab 1130     		.2byte	0x3011
 3768 15ad 1F       		.uleb128 0x1f
 3769 15ae C72B0000 		.4byte	.LASF492
 3770 15b2 1230     		.2byte	0x3012
 3771 15b4 1F       		.uleb128 0x1f
 3772 15b5 DD1F0000 		.4byte	.LASF493
 3773 15b9 1330     		.2byte	0x3013
 3774 15bb 1F       		.uleb128 0x1f
 3775 15bc 072D0000 		.4byte	.LASF494
 3776 15c0 1430     		.2byte	0x3014
 3777 15c2 1F       		.uleb128 0x1f
 3778 15c3 F02E0000 		.4byte	.LASF495
 3779 15c7 1530     		.2byte	0x3015
 3780 15c9 1F       		.uleb128 0x1f
 3781 15ca 9A070000 		.4byte	.LASF496
 3782 15ce 1630     		.2byte	0x3016
 3783 15d0 1F       		.uleb128 0x1f
 3784 15d1 70350000 		.4byte	.LASF497
 3785 15d5 1730     		.2byte	0x3017
 3786 15d7 1F       		.uleb128 0x1f
 3787 15d8 48130000 		.4byte	.LASF498
 3788 15dc 1830     		.2byte	0x3018
 3789 15de 1F       		.uleb128 0x1f
 3790 15df D7110000 		.4byte	.LASF499
ARM GAS  C:\Users\salaz\AppData\Local\Temp\ccI54lrI.s 			page 115


 3791 15e3 0040     		.2byte	0x4000
 3792 15e5 1F       		.uleb128 0x1f
 3793 15e6 881C0000 		.4byte	.LASF500
 3794 15ea 0140     		.2byte	0x4001
 3795 15ec 1F       		.uleb128 0x1f
 3796 15ed 1D0D0000 		.4byte	.LASF501
 3797 15f1 0240     		.2byte	0x4002
 3798 15f3 1F       		.uleb128 0x1f
 3799 15f4 D2240000 		.4byte	.LASF502
 3800 15f8 0340     		.2byte	0x4003
 3801 15fa 1F       		.uleb128 0x1f
 3802 15fb 2D210000 		.4byte	.LASF503
 3803 15ff 0440     		.2byte	0x4004
 3804 1601 1F       		.uleb128 0x1f
 3805 1602 7F320000 		.4byte	.LASF504
 3806 1606 0540     		.2byte	0x4005
 3807 1608 1F       		.uleb128 0x1f
 3808 1609 892A0000 		.4byte	.LASF505
 3809 160d 0640     		.2byte	0x4006
 3810 160f 1F       		.uleb128 0x1f
 3811 1610 E72C0000 		.4byte	.LASF506
 3812 1614 0740     		.2byte	0x4007
 3813 1616 1F       		.uleb128 0x1f
 3814 1617 991F0000 		.4byte	.LASF507
 3815 161b 0840     		.2byte	0x4008
 3816 161d 1F       		.uleb128 0x1f
 3817 161e 16090000 		.4byte	.LASF508
 3818 1622 0940     		.2byte	0x4009
 3819 1624 1F       		.uleb128 0x1f
 3820 1625 75240000 		.4byte	.LASF509
 3821 1629 0A40     		.2byte	0x400a
 3822 162b 1F       		.uleb128 0x1f
 3823 162c 44160000 		.4byte	.LASF510
 3824 1630 0B40     		.2byte	0x400b
 3825 1632 1F       		.uleb128 0x1f
 3826 1633 FC230000 		.4byte	.LASF511
 3827 1637 0C40     		.2byte	0x400c
 3828 1639 1F       		.uleb128 0x1f
 3829 163a 5F310000 		.4byte	.LASF512
 3830 163e 0D40     		.2byte	0x400d
 3831 1640 1F       		.uleb128 0x1f
 3832 1641 041E0000 		.4byte	.LASF513
 3833 1645 0E40     		.2byte	0x400e
 3834 1647 1F       		.uleb128 0x1f
 3835 1648 1E130000 		.4byte	.LASF514
 3836 164c 0F40     		.2byte	0x400f
 3837 164e 1F       		.uleb128 0x1f
 3838 164f A2100000 		.4byte	.LASF515
 3839 1653 1040     		.2byte	0x4010
 3840 1655 1F       		.uleb128 0x1f
 3841 1656 DA0A0000 		.4byte	.LASF516
 3842 165a 1140     		.2byte	0x4011
 3843 165c 1F       		.uleb128 0x1f
 3844 165d 77280000 		.4byte	.LASF517
 3845 1661 1240     		.2byte	0x4012
 3846 1663 1F       		.uleb128 0x1f
 3847 1664 60110000 		.4byte	.LASF518
ARM GAS  C:\Users\salaz\AppData\Local\Temp\ccI54lrI.s 			page 116


 3848 1668 1340     		.2byte	0x4013
 3849 166a 1F       		.uleb128 0x1f
 3850 166b A1350000 		.4byte	.LASF519
 3851 166f 1440     		.2byte	0x4014
 3852 1671 1F       		.uleb128 0x1f
 3853 1672 C1250000 		.4byte	.LASF520
 3854 1676 1540     		.2byte	0x4015
 3855 1678 1F       		.uleb128 0x1f
 3856 1679 A3050000 		.4byte	.LASF521
 3857 167d 1640     		.2byte	0x4016
 3858 167f 1F       		.uleb128 0x1f
 3859 1680 34090000 		.4byte	.LASF522
 3860 1684 1740     		.2byte	0x4017
 3861 1686 1F       		.uleb128 0x1f
 3862 1687 6F1C0000 		.4byte	.LASF523
 3863 168b 1840     		.2byte	0x4018
 3864 168d 1F       		.uleb128 0x1f
 3865 168e 99330000 		.4byte	.LASF524
 3866 1692 1940     		.2byte	0x4019
 3867 1694 1F       		.uleb128 0x1f
 3868 1695 18270000 		.4byte	.LASF525
 3869 1699 1A40     		.2byte	0x401a
 3870 169b 1F       		.uleb128 0x1f
 3871 169c AC140000 		.4byte	.LASF526
 3872 16a0 0050     		.2byte	0x5000
 3873 16a2 1F       		.uleb128 0x1f
 3874 16a3 D11E0000 		.4byte	.LASF527
 3875 16a7 0150     		.2byte	0x5001
 3876 16a9 1F       		.uleb128 0x1f
 3877 16aa 16170000 		.4byte	.LASF528
 3878 16ae 0250     		.2byte	0x5002
 3879 16b0 1F       		.uleb128 0x1f
 3880 16b1 63070000 		.4byte	.LASF529
 3881 16b5 0350     		.2byte	0x5003
 3882 16b7 1F       		.uleb128 0x1f
 3883 16b8 05260000 		.4byte	.LASF530
 3884 16bc 0450     		.2byte	0x5004
 3885 16be 1F       		.uleb128 0x1f
 3886 16bf 02160000 		.4byte	.LASF531
 3887 16c3 0550     		.2byte	0x5005
 3888 16c5 1F       		.uleb128 0x1f
 3889 16c6 2F000000 		.4byte	.LASF532
 3890 16ca 0650     		.2byte	0x5006
 3891 16cc 1F       		.uleb128 0x1f
 3892 16cd FE0C0000 		.4byte	.LASF533
 3893 16d1 0750     		.2byte	0x5007
 3894 16d3 1F       		.uleb128 0x1f
 3895 16d4 7D170000 		.4byte	.LASF534
 3896 16d8 0850     		.2byte	0x5008
 3897 16da 1F       		.uleb128 0x1f
 3898 16db F4180000 		.4byte	.LASF535
 3899 16df 0950     		.2byte	0x5009
 3900 16e1 1F       		.uleb128 0x1f
 3901 16e2 5F290000 		.4byte	.LASF536
 3902 16e6 0A50     		.2byte	0x500a
 3903 16e8 1F       		.uleb128 0x1f
 3904 16e9 6B1A0000 		.4byte	.LASF537
ARM GAS  C:\Users\salaz\AppData\Local\Temp\ccI54lrI.s 			page 117


 3905 16ed 0B50     		.2byte	0x500b
 3906 16ef 1F       		.uleb128 0x1f
 3907 16f0 31080000 		.4byte	.LASF538
 3908 16f4 0C50     		.2byte	0x500c
 3909 16f6 1F       		.uleb128 0x1f
 3910 16f7 3A120000 		.4byte	.LASF539
 3911 16fb 0D50     		.2byte	0x500d
 3912 16fd 1F       		.uleb128 0x1f
 3913 16fe 2F200000 		.4byte	.LASF540
 3914 1702 0E50     		.2byte	0x500e
 3915 1704 1F       		.uleb128 0x1f
 3916 1705 040B0000 		.4byte	.LASF541
 3917 1709 0F50     		.2byte	0x500f
 3918 170b 1F       		.uleb128 0x1f
 3919 170c 85220000 		.4byte	.LASF542
 3920 1710 1050     		.2byte	0x5010
 3921 1712 1F       		.uleb128 0x1f
 3922 1713 59020000 		.4byte	.LASF543
 3923 1717 1150     		.2byte	0x5011
 3924 1719 1F       		.uleb128 0x1f
 3925 171a FC120000 		.4byte	.LASF544
 3926 171e 1250     		.2byte	0x5012
 3927 1720 1F       		.uleb128 0x1f
 3928 1721 FB060000 		.4byte	.LASF545
 3929 1725 1350     		.2byte	0x5013
 3930 1727 1F       		.uleb128 0x1f
 3931 1728 BF0B0000 		.4byte	.LASF546
 3932 172c 1450     		.2byte	0x5014
 3933 172e 1F       		.uleb128 0x1f
 3934 172f 9D000000 		.4byte	.LASF547
 3935 1733 1550     		.2byte	0x5015
 3936 1735 1F       		.uleb128 0x1f
 3937 1736 D60E0000 		.4byte	.LASF548
 3938 173a 1650     		.2byte	0x5016
 3939 173c 1F       		.uleb128 0x1f
 3940 173d 052A0000 		.4byte	.LASF549
 3941 1741 1750     		.2byte	0x5017
 3942 1743 1F       		.uleb128 0x1f
 3943 1744 3B060000 		.4byte	.LASF550
 3944 1748 1850     		.2byte	0x5018
 3945 174a 1F       		.uleb128 0x1f
 3946 174b DB100000 		.4byte	.LASF551
 3947 174f 0060     		.2byte	0x6000
 3948 1751 1F       		.uleb128 0x1f
 3949 1752 FE280000 		.4byte	.LASF552
 3950 1756 0160     		.2byte	0x6001
 3951 1758 1F       		.uleb128 0x1f
 3952 1759 E3160000 		.4byte	.LASF553
 3953 175d 0260     		.2byte	0x6002
 3954 175f 1F       		.uleb128 0x1f
 3955 1760 48150000 		.4byte	.LASF554
 3956 1764 0360     		.2byte	0x6003
 3957 1766 1F       		.uleb128 0x1f
 3958 1767 7D060000 		.4byte	.LASF555
 3959 176b 0460     		.2byte	0x6004
 3960 176d 1F       		.uleb128 0x1f
 3961 176e B0240000 		.4byte	.LASF556
ARM GAS  C:\Users\salaz\AppData\Local\Temp\ccI54lrI.s 			page 118


 3962 1772 0560     		.2byte	0x6005
 3963 1774 1F       		.uleb128 0x1f
 3964 1775 931A0000 		.4byte	.LASF557
 3965 1779 0660     		.2byte	0x6006
 3966 177b 1F       		.uleb128 0x1f
 3967 177c 701B0000 		.4byte	.LASF558
 3968 1780 0760     		.2byte	0x6007
 3969 1782 1F       		.uleb128 0x1f
 3970 1783 9B0B0000 		.4byte	.LASF559
 3971 1787 0860     		.2byte	0x6008
 3972 1789 1F       		.uleb128 0x1f
 3973 178a D2140000 		.4byte	.LASF560
 3974 178e 0960     		.2byte	0x6009
 3975 1790 1F       		.uleb128 0x1f
 3976 1791 82270000 		.4byte	.LASF561
 3977 1795 0A60     		.2byte	0x600a
 3978 1797 1F       		.uleb128 0x1f
 3979 1798 42030000 		.4byte	.LASF562
 3980 179c FFFF     		.2byte	0xffff
 3981 179e 00       		.byte	0
 3982 179f 10       		.uleb128 0x10
 3983 17a0 2A050000 		.4byte	0x52a
 3984 17a4 20       		.uleb128 0x20
 3985 17a5 02       		.byte	0x2
 3986 17a6 11       		.byte	0x11
 3987 17a7 5B01     		.2byte	0x15b
 3988 17a9 C8170000 		.4byte	0x17c8
 3989 17ad 0A       		.uleb128 0xa
 3990 17ae 9C060000 		.4byte	.LASF563
 3991 17b2 11       		.byte	0x11
 3992 17b3 6501     		.2byte	0x165
 3993 17b5 2A050000 		.4byte	0x52a
 3994 17b9 00       		.byte	0
 3995 17ba 0A       		.uleb128 0xa
 3996 17bb 74330000 		.4byte	.LASF564
 3997 17bf 11       		.byte	0x11
 3998 17c0 6901     		.2byte	0x169
 3999 17c2 2A050000 		.4byte	0x52a
 4000 17c6 01       		.byte	0x1
 4001 17c7 00       		.byte	0
 4002 17c8 07       		.uleb128 0x7
 4003 17c9 702A0000 		.4byte	.LASF565
 4004 17cd 11       		.byte	0x11
 4005 17ce 6B01     		.2byte	0x16b
 4006 17d0 A4170000 		.4byte	0x17a4
 4007 17d4 02       		.uleb128 0x2
 4008 17d5 01       		.byte	0x1
 4009 17d6 B3040000 		.4byte	0x4b3
 4010 17da 12       		.byte	0x12
 4011 17db 7E       		.byte	0x7e
 4012 17dc F9170000 		.4byte	0x17f9
 4013 17e0 04       		.uleb128 0x4
 4014 17e1 141F0000 		.4byte	.LASF566
 4015 17e5 00       		.byte	0
 4016 17e6 04       		.uleb128 0x4
 4017 17e7 DF090000 		.4byte	.LASF567
 4018 17eb 01       		.byte	0x1
ARM GAS  C:\Users\salaz\AppData\Local\Temp\ccI54lrI.s 			page 119


 4019 17ec 04       		.uleb128 0x4
 4020 17ed C0300000 		.4byte	.LASF568
 4021 17f1 02       		.byte	0x2
 4022 17f2 04       		.uleb128 0x4
 4023 17f3 3D270000 		.4byte	.LASF569
 4024 17f7 03       		.byte	0x3
 4025 17f8 00       		.byte	0
 4026 17f9 06       		.uleb128 0x6
 4027 17fa 451F0000 		.4byte	.LASF570
 4028 17fe 12       		.byte	0x12
 4029 17ff 83       		.byte	0x83
 4030 1800 D4170000 		.4byte	0x17d4
 4031 1804 02       		.uleb128 0x2
 4032 1805 01       		.byte	0x1
 4033 1806 B3040000 		.4byte	0x4b3
 4034 180a 12       		.byte	0x12
 4035 180b 87       		.byte	0x87
 4036 180c 41180000 		.4byte	0x1841
 4037 1810 04       		.uleb128 0x4
 4038 1811 9E2B0000 		.4byte	.LASF571
 4039 1815 00       		.byte	0
 4040 1816 04       		.uleb128 0x4
 4041 1817 591D0000 		.4byte	.LASF572
 4042 181b 01       		.byte	0x1
 4043 181c 04       		.uleb128 0x4
 4044 181d 152B0000 		.4byte	.LASF573
 4045 1821 02       		.byte	0x2
 4046 1822 04       		.uleb128 0x4
 4047 1823 8A180000 		.4byte	.LASF574
 4048 1827 03       		.byte	0x3
 4049 1828 04       		.uleb128 0x4
 4050 1829 941E0000 		.4byte	.LASF575
 4051 182d 04       		.byte	0x4
 4052 182e 04       		.uleb128 0x4
 4053 182f BE0C0000 		.4byte	.LASF576
 4054 1833 05       		.byte	0x5
 4055 1834 04       		.uleb128 0x4
 4056 1835 2E020000 		.4byte	.LASF577
 4057 1839 06       		.byte	0x6
 4058 183a 04       		.uleb128 0x4
 4059 183b BD070000 		.4byte	.LASF578
 4060 183f 07       		.byte	0x7
 4061 1840 00       		.byte	0
 4062 1841 06       		.uleb128 0x6
 4063 1842 DF260000 		.4byte	.LASF579
 4064 1846 12       		.byte	0x12
 4065 1847 90       		.byte	0x90
 4066 1848 04180000 		.4byte	0x1804
 4067 184c 10       		.uleb128 0x10
 4068 184d 7B0D0000 		.4byte	0xd7b
 4069 1851 11       		.uleb128 0x11
 4070 1852 0C       		.byte	0xc
 4071 1853 13       		.byte	0x13
 4072 1854 26       		.byte	0x26
 4073 1855 A2180000 		.4byte	0x18a2
 4074 1859 13       		.uleb128 0x13
 4075 185a 5A120000 		.4byte	.LASF580
ARM GAS  C:\Users\salaz\AppData\Local\Temp\ccI54lrI.s 			page 120


 4076 185e 13       		.byte	0x13
 4077 185f 28       		.byte	0x28
 4078 1860 360D0000 		.4byte	0xd36
 4079 1864 00       		.byte	0
 4080 1865 13       		.uleb128 0x13
 4081 1866 2F2A0000 		.4byte	.LASF581
 4082 186a 13       		.byte	0x13
 4083 186b 28       		.byte	0x28
 4084 186c 360D0000 		.4byte	0xd36
 4085 1870 02       		.byte	0x2
 4086 1871 12       		.uleb128 0x12
 4087 1872 64617900 		.ascii	"day\000"
 4088 1876 13       		.byte	0x13
 4089 1877 28       		.byte	0x28
 4090 1878 360D0000 		.4byte	0xd36
 4091 187c 04       		.byte	0x4
 4092 187d 13       		.uleb128 0x13
 4093 187e 9D2D0000 		.4byte	.LASF582
 4094 1882 13       		.byte	0x13
 4095 1883 29       		.byte	0x29
 4096 1884 360D0000 		.4byte	0xd36
 4097 1888 06       		.byte	0x6
 4098 1889 13       		.uleb128 0x13
 4099 188a 561B0000 		.4byte	.LASF583
 4100 188e 13       		.byte	0x13
 4101 188f 29       		.byte	0x29
 4102 1890 360D0000 		.4byte	0xd36
 4103 1894 08       		.byte	0x8
 4104 1895 13       		.uleb128 0x13
 4105 1896 351B0000 		.4byte	.LASF584
 4106 189a 13       		.byte	0x13
 4107 189b 29       		.byte	0x29
 4108 189c 360D0000 		.4byte	0xd36
 4109 18a0 0A       		.byte	0xa
 4110 18a1 00       		.byte	0
 4111 18a2 06       		.uleb128 0x6
 4112 18a3 89080000 		.4byte	.LASF585
 4113 18a7 13       		.byte	0x13
 4114 18a8 2B       		.byte	0x2b
 4115 18a9 51180000 		.4byte	0x1851
 4116 18ad 21       		.uleb128 0x21
 4117 18ae D1200000 		.4byte	.LASF592
 4118 18b2 01       		.byte	0x1
 4119 18b3 B3040000 		.4byte	0x4b3
 4120 18b7 13       		.byte	0x13
 4121 18b8 5C01     		.2byte	0x15c
 4122 18ba E9180000 		.4byte	0x18e9
 4123 18be 22       		.uleb128 0x22
 4124 18bf 52454400 		.ascii	"RED\000"
 4125 18c3 00       		.byte	0
 4126 18c4 04       		.uleb128 0x4
 4127 18c5 AB080000 		.4byte	.LASF586
 4128 18c9 01       		.byte	0x1
 4129 18ca 04       		.uleb128 0x4
 4130 18cb 480A0000 		.4byte	.LASF587
 4131 18cf 02       		.byte	0x2
 4132 18d0 04       		.uleb128 0x4
ARM GAS  C:\Users\salaz\AppData\Local\Temp\ccI54lrI.s 			page 121


 4133 18d1 8F000000 		.4byte	.LASF588
 4134 18d5 03       		.byte	0x3
 4135 18d6 04       		.uleb128 0x4
 4136 18d7 D7120000 		.4byte	.LASF589
 4137 18db 04       		.byte	0x4
 4138 18dc 04       		.uleb128 0x4
 4139 18dd B6030000 		.4byte	.LASF590
 4140 18e1 05       		.byte	0x5
 4141 18e2 04       		.uleb128 0x4
 4142 18e3 7A330000 		.4byte	.LASF591
 4143 18e7 06       		.byte	0x6
 4144 18e8 00       		.byte	0
 4145 18e9 21       		.uleb128 0x21
 4146 18ea 03280000 		.4byte	.LASF593
 4147 18ee 01       		.byte	0x1
 4148 18ef B3040000 		.4byte	0x4b3
 4149 18f3 13       		.byte	0x13
 4150 18f4 6401     		.2byte	0x164
 4151 18f6 13190000 		.4byte	0x1913
 4152 18fa 04       		.uleb128 0x4
 4153 18fb C70A0000 		.4byte	.LASF594
 4154 18ff 00       		.byte	0
 4155 1900 04       		.uleb128 0x4
 4156 1901 33280000 		.4byte	.LASF595
 4157 1905 01       		.byte	0x1
 4158 1906 04       		.uleb128 0x4
 4159 1907 00000000 		.4byte	.LASF596
 4160 190b 02       		.byte	0x2
 4161 190c 04       		.uleb128 0x4
 4162 190d 291E0000 		.4byte	.LASF597
 4163 1911 03       		.byte	0x3
 4164 1912 00       		.byte	0
 4165 1913 21       		.uleb128 0x21
 4166 1914 6A280000 		.4byte	.LASF598
 4167 1918 01       		.byte	0x1
 4168 1919 B3040000 		.4byte	0x4b3
 4169 191d 13       		.byte	0x13
 4170 191e 7401     		.2byte	0x174
 4171 1920 37190000 		.4byte	0x1937
 4172 1924 04       		.uleb128 0x4
 4173 1925 212E0000 		.4byte	.LASF599
 4174 1929 00       		.byte	0
 4175 192a 04       		.uleb128 0x4
 4176 192b 75100000 		.4byte	.LASF600
 4177 192f 01       		.byte	0x1
 4178 1930 04       		.uleb128 0x4
 4179 1931 0C2E0000 		.4byte	.LASF601
 4180 1935 02       		.byte	0x2
 4181 1936 00       		.byte	0
 4182 1937 02       		.uleb128 0x2
 4183 1938 01       		.byte	0x1
 4184 1939 B3040000 		.4byte	0x4b3
 4185 193d 01       		.byte	0x1
 4186 193e 07       		.byte	0x7
 4187 193f 74190000 		.4byte	0x1974
 4188 1943 04       		.uleb128 0x4
 4189 1944 91160000 		.4byte	.LASF602
ARM GAS  C:\Users\salaz\AppData\Local\Temp\ccI54lrI.s 			page 122


 4190 1948 00       		.byte	0
 4191 1949 04       		.uleb128 0x4
 4192 194a 3A050000 		.4byte	.LASF603
 4193 194e 01       		.byte	0x1
 4194 194f 04       		.uleb128 0x4
 4195 1950 6C170000 		.4byte	.LASF604
 4196 1954 02       		.byte	0x2
 4197 1955 04       		.uleb128 0x4
 4198 1956 D3350000 		.4byte	.LASF605
 4199 195a 03       		.byte	0x3
 4200 195b 04       		.uleb128 0x4
 4201 195c ED130000 		.4byte	.LASF606
 4202 1960 04       		.byte	0x4
 4203 1961 04       		.uleb128 0x4
 4204 1962 63000000 		.4byte	.LASF607
 4205 1966 05       		.byte	0x5
 4206 1967 04       		.uleb128 0x4
 4207 1968 5F010000 		.4byte	.LASF608
 4208 196c 06       		.byte	0x6
 4209 196d 04       		.uleb128 0x4
 4210 196e 7F150000 		.4byte	.LASF609
 4211 1972 07       		.byte	0x7
 4212 1973 00       		.byte	0
 4213 1974 23       		.uleb128 0x23
 4214 1975 6E0E0000 		.4byte	.LASF610
 4215 1979 02       		.byte	0x2
 4216 197a EC02     		.2byte	0x2ec
 4217 197c 4B050000 		.4byte	0x54b
 4218 1980 03       		.byte	0x3
 4219 1981 92190000 		.4byte	0x1992
 4220 1985 24       		.uleb128 0x24
 4221 1986 A5310000 		.4byte	.LASF612
 4222 198a 02       		.byte	0x2
 4223 198b EC02     		.2byte	0x2ec
 4224 198d 92190000 		.4byte	0x1992
 4225 1991 00       		.byte	0
 4226 1992 1A       		.uleb128 0x1a
 4227 1993 04       		.byte	0x4
 4228 1994 98190000 		.4byte	0x1998
 4229 1998 10       		.uleb128 0x10
 4230 1999 F70C0000 		.4byte	0xcf7
 4231 199d 23       		.uleb128 0x23
 4232 199e DC220000 		.4byte	.LASF611
 4233 19a2 02       		.byte	0x2
 4234 19a3 D902     		.2byte	0x2d9
 4235 19a5 4B050000 		.4byte	0x54b
 4236 19a9 03       		.byte	0x3
 4237 19aa BB190000 		.4byte	0x19bb
 4238 19ae 24       		.uleb128 0x24
 4239 19af A5310000 		.4byte	.LASF612
 4240 19b3 02       		.byte	0x2
 4241 19b4 D902     		.2byte	0x2d9
 4242 19b6 92190000 		.4byte	0x1992
 4243 19ba 00       		.byte	0
 4244 19bb 25       		.uleb128 0x25
 4245 19bc 95340000 		.4byte	.LASF615
 4246 19c0 03       		.byte	0x3
ARM GAS  C:\Users\salaz\AppData\Local\Temp\ccI54lrI.s 			page 123


 4247 19c1 E502     		.2byte	0x2e5
 4248 19c3 03       		.byte	0x3
 4249 19c4 ED190000 		.4byte	0x19ed
 4250 19c8 24       		.uleb128 0x24
 4251 19c9 A5310000 		.4byte	.LASF612
 4252 19cd 03       		.byte	0x3
 4253 19ce E502     		.2byte	0x2e5
 4254 19d0 ED190000 		.4byte	0x19ed
 4255 19d4 24       		.uleb128 0x24
 4256 19d5 741F0000 		.4byte	.LASF613
 4257 19d9 03       		.byte	0x3
 4258 19da E502     		.2byte	0x2e5
 4259 19dc 4B050000 		.4byte	0x54b
 4260 19e0 24       		.uleb128 0x24
 4261 19e1 4C080000 		.4byte	.LASF614
 4262 19e5 03       		.byte	0x3
 4263 19e6 E502     		.2byte	0x2e5
 4264 19e8 4B050000 		.4byte	0x54b
 4265 19ec 00       		.byte	0
 4266 19ed 1A       		.uleb128 0x1a
 4267 19ee 04       		.byte	0x4
 4268 19ef CC070000 		.4byte	0x7cc
 4269 19f3 25       		.uleb128 0x25
 4270 19f4 79050000 		.4byte	.LASF616
 4271 19f8 04       		.byte	0x4
 4272 19f9 2703     		.2byte	0x327
 4273 19fb 03       		.byte	0x3
 4274 19fc 0D1A0000 		.4byte	0x1a0d
 4275 1a00 24       		.uleb128 0x24
 4276 1a01 A6080000 		.4byte	.LASF617
 4277 1a05 04       		.byte	0x4
 4278 1a06 2703     		.2byte	0x327
 4279 1a08 23010000 		.4byte	0x123
 4280 1a0c 00       		.byte	0
 4281 1a0d 26       		.uleb128 0x26
 4282 1a0e 51000000 		.4byte	.LASF663
 4283 1a12 01       		.byte	0x1
 4284 1a13 1D       		.byte	0x1d
 4285 1a14 00000000 		.4byte	.LFB792
 4286 1a18 7C040000 		.4byte	.LFE792-.LFB792
 4287 1a1c 01       		.uleb128 0x1
 4288 1a1d 9C       		.byte	0x9c
 4289 1a1e 12240000 		.4byte	0x2412
 4290 1a22 27       		.uleb128 0x27
 4291 1a23 512B0000 		.4byte	.LASF618
 4292 1a27 01       		.byte	0x1
 4293 1a28 1F       		.byte	0x1f
 4294 1a29 880D0000 		.4byte	0xd88
 4295 1a2d 05       		.uleb128 0x5
 4296 1a2e 03       		.byte	0x3
 4297 1a2f 02000000 		.4byte	motion_latch.18942
 4298 1a33 28       		.uleb128 0x28
 4299 1a34 1B300000 		.4byte	.LASF619
 4300 1a38 01       		.byte	0x1
 4301 1a39 21       		.byte	0x21
 4302 1a3a 880D0000 		.4byte	0xd88
 4303 1a3e 00000000 		.4byte	.LLST0
ARM GAS  C:\Users\salaz\AppData\Local\Temp\ccI54lrI.s 			page 124


 4304 1a42 27       		.uleb128 0x27
 4305 1a43 9E140000 		.4byte	.LASF620
 4306 1a47 01       		.byte	0x1
 4307 1a48 22       		.byte	0x22
 4308 1a49 2A0D0000 		.4byte	0xd2a
 4309 1a4d 05       		.uleb128 0x5
 4310 1a4e 03       		.byte	0x3
 4311 1a4f 00000000 		.4byte	current_state.18944
 4312 1a53 27       		.uleb128 0x27
 4313 1a54 C42D0000 		.4byte	.LASF621
 4314 1a58 01       		.byte	0x1
 4315 1a59 23       		.byte	0x23
 4316 1a5a 2A0D0000 		.4byte	0xd2a
 4317 1a5e 05       		.uleb128 0x5
 4318 1a5f 03       		.byte	0x3
 4319 1a60 01000000 		.4byte	next_state.18945
 4320 1a64 29       		.uleb128 0x29
 4321 1a65 9D190000 		.4byte	0x199d
 4322 1a69 1C000000 		.4byte	.LBB85
 4323 1a6d 0C000000 		.4byte	.LBE85-.LBB85
 4324 1a71 01       		.byte	0x1
 4325 1a72 2E       		.byte	0x2e
 4326 1a73 811A0000 		.4byte	0x1a81
 4327 1a77 2A       		.uleb128 0x2a
 4328 1a78 AE190000 		.4byte	0x19ae
 4329 1a7c 4F000000 		.4byte	.LLST1
 4330 1a80 00       		.byte	0
 4331 1a81 29       		.uleb128 0x29
 4332 1a82 74190000 		.4byte	0x1974
 4333 1a86 28000000 		.4byte	.LBB87
 4334 1a8a 08000000 		.4byte	.LBE87-.LBB87
 4335 1a8e 01       		.byte	0x1
 4336 1a8f 2E       		.byte	0x2e
 4337 1a90 9E1A0000 		.4byte	0x1a9e
 4338 1a94 2A       		.uleb128 0x2a
 4339 1a95 85190000 		.4byte	0x1985
 4340 1a99 67000000 		.4byte	.LLST2
 4341 1a9d 00       		.byte	0
 4342 1a9e 29       		.uleb128 0x29
 4343 1a9f 9D190000 		.4byte	0x199d
 4344 1aa3 44000000 		.4byte	.LBB89
 4345 1aa7 0C000000 		.4byte	.LBE89-.LBB89
 4346 1aab 01       		.byte	0x1
 4347 1aac 36       		.byte	0x36
 4348 1aad BB1A0000 		.4byte	0x1abb
 4349 1ab1 2A       		.uleb128 0x2a
 4350 1ab2 AE190000 		.4byte	0x19ae
 4351 1ab6 7F000000 		.4byte	.LLST3
 4352 1aba 00       		.byte	0
 4353 1abb 29       		.uleb128 0x29
 4354 1abc 74190000 		.4byte	0x1974
 4355 1ac0 50000000 		.4byte	.LBB91
 4356 1ac4 08000000 		.4byte	.LBE91-.LBB91
 4357 1ac8 01       		.byte	0x1
 4358 1ac9 36       		.byte	0x36
 4359 1aca D81A0000 		.4byte	0x1ad8
 4360 1ace 2A       		.uleb128 0x2a
ARM GAS  C:\Users\salaz\AppData\Local\Temp\ccI54lrI.s 			page 125


 4361 1acf 85190000 		.4byte	0x1985
 4362 1ad3 97000000 		.4byte	.LLST4
 4363 1ad7 00       		.byte	0
 4364 1ad8 29       		.uleb128 0x29
 4365 1ad9 9D190000 		.4byte	0x199d
 4366 1add 76000000 		.4byte	.LBB93
 4367 1ae1 0C000000 		.4byte	.LBE93-.LBB93
 4368 1ae5 01       		.byte	0x1
 4369 1ae6 41       		.byte	0x41
 4370 1ae7 F51A0000 		.4byte	0x1af5
 4371 1aeb 2A       		.uleb128 0x2a
 4372 1aec AE190000 		.4byte	0x19ae
 4373 1af0 AF000000 		.4byte	.LLST5
 4374 1af4 00       		.byte	0
 4375 1af5 29       		.uleb128 0x29
 4376 1af6 74190000 		.4byte	0x1974
 4377 1afa 82000000 		.4byte	.LBB95
 4378 1afe 08000000 		.4byte	.LBE95-.LBB95
 4379 1b02 01       		.byte	0x1
 4380 1b03 41       		.byte	0x41
 4381 1b04 121B0000 		.4byte	0x1b12
 4382 1b08 2A       		.uleb128 0x2a
 4383 1b09 85190000 		.4byte	0x1985
 4384 1b0d C7000000 		.4byte	.LLST6
 4385 1b11 00       		.byte	0
 4386 1b12 29       		.uleb128 0x29
 4387 1b13 9D190000 		.4byte	0x199d
 4388 1b17 D4000000 		.4byte	.LBB97
 4389 1b1b 0C000000 		.4byte	.LBE97-.LBB97
 4390 1b1f 01       		.byte	0x1
 4391 1b20 5C       		.byte	0x5c
 4392 1b21 2F1B0000 		.4byte	0x1b2f
 4393 1b25 2A       		.uleb128 0x2a
 4394 1b26 AE190000 		.4byte	0x19ae
 4395 1b2a DF000000 		.4byte	.LLST7
 4396 1b2e 00       		.byte	0
 4397 1b2f 29       		.uleb128 0x29
 4398 1b30 74190000 		.4byte	0x1974
 4399 1b34 E0000000 		.4byte	.LBB99
 4400 1b38 08000000 		.4byte	.LBE99-.LBB99
 4401 1b3c 01       		.byte	0x1
 4402 1b3d 5C       		.byte	0x5c
 4403 1b3e 4C1B0000 		.4byte	0x1b4c
 4404 1b42 2A       		.uleb128 0x2a
 4405 1b43 85190000 		.4byte	0x1985
 4406 1b47 F7000000 		.4byte	.LLST8
 4407 1b4b 00       		.byte	0
 4408 1b4c 29       		.uleb128 0x29
 4409 1b4d 9D190000 		.4byte	0x199d
 4410 1b51 16010000 		.4byte	.LBB101
 4411 1b55 0C000000 		.4byte	.LBE101-.LBB101
 4412 1b59 01       		.byte	0x1
 4413 1b5a 6A       		.byte	0x6a
 4414 1b5b 691B0000 		.4byte	0x1b69
 4415 1b5f 2A       		.uleb128 0x2a
 4416 1b60 AE190000 		.4byte	0x19ae
 4417 1b64 0F010000 		.4byte	.LLST9
ARM GAS  C:\Users\salaz\AppData\Local\Temp\ccI54lrI.s 			page 126


 4418 1b68 00       		.byte	0
 4419 1b69 29       		.uleb128 0x29
 4420 1b6a 74190000 		.4byte	0x1974
 4421 1b6e 22010000 		.4byte	.LBB103
 4422 1b72 08000000 		.4byte	.LBE103-.LBB103
 4423 1b76 01       		.byte	0x1
 4424 1b77 6A       		.byte	0x6a
 4425 1b78 861B0000 		.4byte	0x1b86
 4426 1b7c 2A       		.uleb128 0x2a
 4427 1b7d 85190000 		.4byte	0x1985
 4428 1b81 27010000 		.4byte	.LLST10
 4429 1b85 00       		.byte	0
 4430 1b86 29       		.uleb128 0x29
 4431 1b87 9D190000 		.4byte	0x199d
 4432 1b8b 66010000 		.4byte	.LBB105
 4433 1b8f 0C000000 		.4byte	.LBE105-.LBB105
 4434 1b93 01       		.byte	0x1
 4435 1b94 7F       		.byte	0x7f
 4436 1b95 A31B0000 		.4byte	0x1ba3
 4437 1b99 2A       		.uleb128 0x2a
 4438 1b9a AE190000 		.4byte	0x19ae
 4439 1b9e 3F010000 		.4byte	.LLST11
 4440 1ba2 00       		.byte	0
 4441 1ba3 29       		.uleb128 0x29
 4442 1ba4 74190000 		.4byte	0x1974
 4443 1ba8 72010000 		.4byte	.LBB107
 4444 1bac 08000000 		.4byte	.LBE107-.LBB107
 4445 1bb0 01       		.byte	0x1
 4446 1bb1 7F       		.byte	0x7f
 4447 1bb2 C01B0000 		.4byte	0x1bc0
 4448 1bb6 2A       		.uleb128 0x2a
 4449 1bb7 85190000 		.4byte	0x1985
 4450 1bbb 57010000 		.4byte	.LLST12
 4451 1bbf 00       		.byte	0
 4452 1bc0 2B       		.uleb128 0x2b
 4453 1bc1 90010000 		.4byte	.LBB109
 4454 1bc5 2A000000 		.4byte	.LBE109-.LBB109
 4455 1bc9 EC1B0000 		.4byte	0x1bec
 4456 1bcd 27       		.uleb128 0x27
 4457 1bce 71210000 		.4byte	.LASF622
 4458 1bd2 01       		.byte	0x1
 4459 1bd3 84       		.byte	0x84
 4460 1bd4 A2180000 		.4byte	0x18a2
 4461 1bd8 02       		.uleb128 0x2
 4462 1bd9 91       		.byte	0x91
 4463 1bda 6C       		.sleb128 -20
 4464 1bdb 2C       		.uleb128 0x2c
 4465 1bdc 98010000 		.4byte	.LVL30
 4466 1be0 8D250000 		.4byte	0x258d
 4467 1be4 2D       		.uleb128 0x2d
 4468 1be5 01       		.uleb128 0x1
 4469 1be6 50       		.byte	0x50
 4470 1be7 02       		.uleb128 0x2
 4471 1be8 74       		.byte	0x74
 4472 1be9 00       		.sleb128 0
 4473 1bea 00       		.byte	0
 4474 1beb 00       		.byte	0
ARM GAS  C:\Users\salaz\AppData\Local\Temp\ccI54lrI.s 			page 127


 4475 1bec 29       		.uleb128 0x29
 4476 1bed 9D190000 		.4byte	0x199d
 4477 1bf1 C8010000 		.4byte	.LBB110
 4478 1bf5 0C000000 		.4byte	.LBE110-.LBB110
 4479 1bf9 01       		.byte	0x1
 4480 1bfa 99       		.byte	0x99
 4481 1bfb 091C0000 		.4byte	0x1c09
 4482 1bff 2A       		.uleb128 0x2a
 4483 1c00 AE190000 		.4byte	0x19ae
 4484 1c04 6F010000 		.4byte	.LLST13
 4485 1c08 00       		.byte	0
 4486 1c09 29       		.uleb128 0x29
 4487 1c0a 74190000 		.4byte	0x1974
 4488 1c0e D4010000 		.4byte	.LBB112
 4489 1c12 08000000 		.4byte	.LBE112-.LBB112
 4490 1c16 01       		.byte	0x1
 4491 1c17 99       		.byte	0x99
 4492 1c18 261C0000 		.4byte	0x1c26
 4493 1c1c 2A       		.uleb128 0x2a
 4494 1c1d 85190000 		.4byte	0x1985
 4495 1c21 87010000 		.4byte	.LLST14
 4496 1c25 00       		.byte	0
 4497 1c26 29       		.uleb128 0x29
 4498 1c27 9D190000 		.4byte	0x199d
 4499 1c2b F0010000 		.4byte	.LBB114
 4500 1c2f 0C000000 		.4byte	.LBE114-.LBB114
 4501 1c33 01       		.byte	0x1
 4502 1c34 A0       		.byte	0xa0
 4503 1c35 431C0000 		.4byte	0x1c43
 4504 1c39 2A       		.uleb128 0x2a
 4505 1c3a AE190000 		.4byte	0x19ae
 4506 1c3e 9F010000 		.4byte	.LLST15
 4507 1c42 00       		.byte	0
 4508 1c43 29       		.uleb128 0x29
 4509 1c44 74190000 		.4byte	0x1974
 4510 1c48 FC010000 		.4byte	.LBB116
 4511 1c4c 08000000 		.4byte	.LBE116-.LBB116
 4512 1c50 01       		.byte	0x1
 4513 1c51 A0       		.byte	0xa0
 4514 1c52 601C0000 		.4byte	0x1c60
 4515 1c56 2A       		.uleb128 0x2a
 4516 1c57 85190000 		.4byte	0x1985
 4517 1c5b B7010000 		.4byte	.LLST16
 4518 1c5f 00       		.byte	0
 4519 1c60 29       		.uleb128 0x29
 4520 1c61 BB190000 		.4byte	0x19bb
 4521 1c65 44020000 		.4byte	.LBB118
 4522 1c69 06000000 		.4byte	.LBE118-.LBB118
 4523 1c6d 01       		.byte	0x1
 4524 1c6e C2       		.byte	0xc2
 4525 1c6f 8F1C0000 		.4byte	0x1c8f
 4526 1c73 2A       		.uleb128 0x2a
 4527 1c74 E0190000 		.4byte	0x19e0
 4528 1c78 CF010000 		.4byte	.LLST17
 4529 1c7c 2A       		.uleb128 0x2a
 4530 1c7d D4190000 		.4byte	0x19d4
 4531 1c81 E3010000 		.4byte	.LLST18
ARM GAS  C:\Users\salaz\AppData\Local\Temp\ccI54lrI.s 			page 128


 4532 1c85 2A       		.uleb128 0x2a
 4533 1c86 C8190000 		.4byte	0x19c8
 4534 1c8a F7010000 		.4byte	.LLST19
 4535 1c8e 00       		.byte	0
 4536 1c8f 29       		.uleb128 0x29
 4537 1c90 BB190000 		.4byte	0x19bb
 4538 1c94 4A020000 		.4byte	.LBB120
 4539 1c98 04000000 		.4byte	.LBE120-.LBB120
 4540 1c9c 01       		.byte	0x1
 4541 1c9d C3       		.byte	0xc3
 4542 1c9e BE1C0000 		.4byte	0x1cbe
 4543 1ca2 2A       		.uleb128 0x2a
 4544 1ca3 E0190000 		.4byte	0x19e0
 4545 1ca7 0F020000 		.4byte	.LLST20
 4546 1cab 2A       		.uleb128 0x2a
 4547 1cac D4190000 		.4byte	0x19d4
 4548 1cb0 23020000 		.4byte	.LLST21
 4549 1cb4 2A       		.uleb128 0x2a
 4550 1cb5 C8190000 		.4byte	0x19c8
 4551 1cb9 37020000 		.4byte	.LLST22
 4552 1cbd 00       		.byte	0
 4553 1cbe 29       		.uleb128 0x29
 4554 1cbf BB190000 		.4byte	0x19bb
 4555 1cc3 4E020000 		.4byte	.LBB122
 4556 1cc7 06000000 		.4byte	.LBE122-.LBB122
 4557 1ccb 01       		.byte	0x1
 4558 1ccc C4       		.byte	0xc4
 4559 1ccd ED1C0000 		.4byte	0x1ced
 4560 1cd1 2A       		.uleb128 0x2a
 4561 1cd2 E0190000 		.4byte	0x19e0
 4562 1cd6 4F020000 		.4byte	.LLST23
 4563 1cda 2A       		.uleb128 0x2a
 4564 1cdb D4190000 		.4byte	0x19d4
 4565 1cdf 63020000 		.4byte	.LLST24
 4566 1ce3 2A       		.uleb128 0x2a
 4567 1ce4 C8190000 		.4byte	0x19c8
 4568 1ce8 77020000 		.4byte	.LLST25
 4569 1cec 00       		.byte	0
 4570 1ced 29       		.uleb128 0x29
 4571 1cee BB190000 		.4byte	0x19bb
 4572 1cf2 78020000 		.4byte	.LBB124
 4573 1cf6 06000000 		.4byte	.LBE124-.LBB124
 4574 1cfa 01       		.byte	0x1
 4575 1cfb D4       		.byte	0xd4
 4576 1cfc 1C1D0000 		.4byte	0x1d1c
 4577 1d00 2A       		.uleb128 0x2a
 4578 1d01 E0190000 		.4byte	0x19e0
 4579 1d05 8F020000 		.4byte	.LLST26
 4580 1d09 2A       		.uleb128 0x2a
 4581 1d0a D4190000 		.4byte	0x19d4
 4582 1d0e A3020000 		.4byte	.LLST27
 4583 1d12 2A       		.uleb128 0x2a
 4584 1d13 C8190000 		.4byte	0x19c8
 4585 1d17 B7020000 		.4byte	.LLST28
 4586 1d1b 00       		.byte	0
 4587 1d1c 29       		.uleb128 0x29
 4588 1d1d BB190000 		.4byte	0x19bb
ARM GAS  C:\Users\salaz\AppData\Local\Temp\ccI54lrI.s 			page 129


 4589 1d21 7E020000 		.4byte	.LBB126
 4590 1d25 04000000 		.4byte	.LBE126-.LBB126
 4591 1d29 01       		.byte	0x1
 4592 1d2a D5       		.byte	0xd5
 4593 1d2b 4B1D0000 		.4byte	0x1d4b
 4594 1d2f 2A       		.uleb128 0x2a
 4595 1d30 E0190000 		.4byte	0x19e0
 4596 1d34 CF020000 		.4byte	.LLST29
 4597 1d38 2A       		.uleb128 0x2a
 4598 1d39 D4190000 		.4byte	0x19d4
 4599 1d3d E3020000 		.4byte	.LLST30
 4600 1d41 2A       		.uleb128 0x2a
 4601 1d42 C8190000 		.4byte	0x19c8
 4602 1d46 F7020000 		.4byte	.LLST31
 4603 1d4a 00       		.byte	0
 4604 1d4b 29       		.uleb128 0x29
 4605 1d4c BB190000 		.4byte	0x19bb
 4606 1d50 82020000 		.4byte	.LBB128
 4607 1d54 08000000 		.4byte	.LBE128-.LBB128
 4608 1d58 01       		.byte	0x1
 4609 1d59 D6       		.byte	0xd6
 4610 1d5a 7A1D0000 		.4byte	0x1d7a
 4611 1d5e 2A       		.uleb128 0x2a
 4612 1d5f E0190000 		.4byte	0x19e0
 4613 1d63 0F030000 		.4byte	.LLST32
 4614 1d67 2A       		.uleb128 0x2a
 4615 1d68 D4190000 		.4byte	0x19d4
 4616 1d6c 23030000 		.4byte	.LLST33
 4617 1d70 2A       		.uleb128 0x2a
 4618 1d71 C8190000 		.4byte	0x19c8
 4619 1d75 37030000 		.4byte	.LLST34
 4620 1d79 00       		.byte	0
 4621 1d7a 29       		.uleb128 0x29
 4622 1d7b BB190000 		.4byte	0x19bb
 4623 1d7f 8A020000 		.4byte	.LBB130
 4624 1d83 06000000 		.4byte	.LBE130-.LBB130
 4625 1d87 01       		.byte	0x1
 4626 1d88 DD       		.byte	0xdd
 4627 1d89 A91D0000 		.4byte	0x1da9
 4628 1d8d 2A       		.uleb128 0x2a
 4629 1d8e E0190000 		.4byte	0x19e0
 4630 1d92 4F030000 		.4byte	.LLST35
 4631 1d96 2A       		.uleb128 0x2a
 4632 1d97 D4190000 		.4byte	0x19d4
 4633 1d9b 63030000 		.4byte	.LLST36
 4634 1d9f 2A       		.uleb128 0x2a
 4635 1da0 C8190000 		.4byte	0x19c8
 4636 1da4 77030000 		.4byte	.LLST37
 4637 1da8 00       		.byte	0
 4638 1da9 29       		.uleb128 0x29
 4639 1daa BB190000 		.4byte	0x19bb
 4640 1dae 90020000 		.4byte	.LBB132
 4641 1db2 04000000 		.4byte	.LBE132-.LBB132
 4642 1db6 01       		.byte	0x1
 4643 1db7 DE       		.byte	0xde
 4644 1db8 D81D0000 		.4byte	0x1dd8
 4645 1dbc 2A       		.uleb128 0x2a
ARM GAS  C:\Users\salaz\AppData\Local\Temp\ccI54lrI.s 			page 130


 4646 1dbd E0190000 		.4byte	0x19e0
 4647 1dc1 8F030000 		.4byte	.LLST38
 4648 1dc5 2A       		.uleb128 0x2a
 4649 1dc6 D4190000 		.4byte	0x19d4
 4650 1dca A3030000 		.4byte	.LLST39
 4651 1dce 2A       		.uleb128 0x2a
 4652 1dcf C8190000 		.4byte	0x19c8
 4653 1dd3 B7030000 		.4byte	.LLST40
 4654 1dd7 00       		.byte	0
 4655 1dd8 29       		.uleb128 0x29
 4656 1dd9 BB190000 		.4byte	0x19bb
 4657 1ddd 94020000 		.4byte	.LBB134
 4658 1de1 06000000 		.4byte	.LBE134-.LBB134
 4659 1de5 01       		.byte	0x1
 4660 1de6 DF       		.byte	0xdf
 4661 1de7 071E0000 		.4byte	0x1e07
 4662 1deb 2A       		.uleb128 0x2a
 4663 1dec E0190000 		.4byte	0x19e0
 4664 1df0 CF030000 		.4byte	.LLST41
 4665 1df4 2A       		.uleb128 0x2a
 4666 1df5 D4190000 		.4byte	0x19d4
 4667 1df9 E3030000 		.4byte	.LLST42
 4668 1dfd 2A       		.uleb128 0x2a
 4669 1dfe C8190000 		.4byte	0x19c8
 4670 1e02 F7030000 		.4byte	.LLST43
 4671 1e06 00       		.byte	0
 4672 1e07 29       		.uleb128 0x29
 4673 1e08 BB190000 		.4byte	0x19bb
 4674 1e0c C6020000 		.4byte	.LBB136
 4675 1e10 06000000 		.4byte	.LBE136-.LBB136
 4676 1e14 01       		.byte	0x1
 4677 1e15 EE       		.byte	0xee
 4678 1e16 361E0000 		.4byte	0x1e36
 4679 1e1a 2A       		.uleb128 0x2a
 4680 1e1b E0190000 		.4byte	0x19e0
 4681 1e1f 0F040000 		.4byte	.LLST44
 4682 1e23 2A       		.uleb128 0x2a
 4683 1e24 D4190000 		.4byte	0x19d4
 4684 1e28 23040000 		.4byte	.LLST45
 4685 1e2c 2A       		.uleb128 0x2a
 4686 1e2d C8190000 		.4byte	0x19c8
 4687 1e31 37040000 		.4byte	.LLST46
 4688 1e35 00       		.byte	0
 4689 1e36 29       		.uleb128 0x29
 4690 1e37 BB190000 		.4byte	0x19bb
 4691 1e3b CC020000 		.4byte	.LBB138
 4692 1e3f 04000000 		.4byte	.LBE138-.LBB138
 4693 1e43 01       		.byte	0x1
 4694 1e44 EF       		.byte	0xef
 4695 1e45 651E0000 		.4byte	0x1e65
 4696 1e49 2A       		.uleb128 0x2a
 4697 1e4a E0190000 		.4byte	0x19e0
 4698 1e4e 4F040000 		.4byte	.LLST47
 4699 1e52 2A       		.uleb128 0x2a
 4700 1e53 D4190000 		.4byte	0x19d4
 4701 1e57 63040000 		.4byte	.LLST48
 4702 1e5b 2A       		.uleb128 0x2a
ARM GAS  C:\Users\salaz\AppData\Local\Temp\ccI54lrI.s 			page 131


 4703 1e5c C8190000 		.4byte	0x19c8
 4704 1e60 77040000 		.4byte	.LLST49
 4705 1e64 00       		.byte	0
 4706 1e65 29       		.uleb128 0x29
 4707 1e66 BB190000 		.4byte	0x19bb
 4708 1e6a D0020000 		.4byte	.LBB140
 4709 1e6e 06000000 		.4byte	.LBE140-.LBB140
 4710 1e72 01       		.byte	0x1
 4711 1e73 F0       		.byte	0xf0
 4712 1e74 941E0000 		.4byte	0x1e94
 4713 1e78 2A       		.uleb128 0x2a
 4714 1e79 E0190000 		.4byte	0x19e0
 4715 1e7d 8F040000 		.4byte	.LLST50
 4716 1e81 2A       		.uleb128 0x2a
 4717 1e82 D4190000 		.4byte	0x19d4
 4718 1e86 A3040000 		.4byte	.LLST51
 4719 1e8a 2A       		.uleb128 0x2a
 4720 1e8b C8190000 		.4byte	0x19c8
 4721 1e8f B7040000 		.4byte	.LLST52
 4722 1e93 00       		.byte	0
 4723 1e94 29       		.uleb128 0x29
 4724 1e95 BB190000 		.4byte	0x19bb
 4725 1e99 F6020000 		.4byte	.LBB142
 4726 1e9d 06000000 		.4byte	.LBE142-.LBB142
 4727 1ea1 01       		.byte	0x1
 4728 1ea2 F9       		.byte	0xf9
 4729 1ea3 C31E0000 		.4byte	0x1ec3
 4730 1ea7 2A       		.uleb128 0x2a
 4731 1ea8 E0190000 		.4byte	0x19e0
 4732 1eac CF040000 		.4byte	.LLST53
 4733 1eb0 2A       		.uleb128 0x2a
 4734 1eb1 D4190000 		.4byte	0x19d4
 4735 1eb5 E3040000 		.4byte	.LLST54
 4736 1eb9 2A       		.uleb128 0x2a
 4737 1eba C8190000 		.4byte	0x19c8
 4738 1ebe F7040000 		.4byte	.LLST55
 4739 1ec2 00       		.byte	0
 4740 1ec3 29       		.uleb128 0x29
 4741 1ec4 BB190000 		.4byte	0x19bb
 4742 1ec8 FC020000 		.4byte	.LBB144
 4743 1ecc 04000000 		.4byte	.LBE144-.LBB144
 4744 1ed0 01       		.byte	0x1
 4745 1ed1 FA       		.byte	0xfa
 4746 1ed2 F21E0000 		.4byte	0x1ef2
 4747 1ed6 2A       		.uleb128 0x2a
 4748 1ed7 E0190000 		.4byte	0x19e0
 4749 1edb 0F050000 		.4byte	.LLST56
 4750 1edf 2A       		.uleb128 0x2a
 4751 1ee0 D4190000 		.4byte	0x19d4
 4752 1ee4 23050000 		.4byte	.LLST57
 4753 1ee8 2A       		.uleb128 0x2a
 4754 1ee9 C8190000 		.4byte	0x19c8
 4755 1eed 37050000 		.4byte	.LLST58
 4756 1ef1 00       		.byte	0
 4757 1ef2 29       		.uleb128 0x29
 4758 1ef3 BB190000 		.4byte	0x19bb
 4759 1ef7 00030000 		.4byte	.LBB146
ARM GAS  C:\Users\salaz\AppData\Local\Temp\ccI54lrI.s 			page 132


 4760 1efb 06000000 		.4byte	.LBE146-.LBB146
 4761 1eff 01       		.byte	0x1
 4762 1f00 FB       		.byte	0xfb
 4763 1f01 211F0000 		.4byte	0x1f21
 4764 1f05 2A       		.uleb128 0x2a
 4765 1f06 E0190000 		.4byte	0x19e0
 4766 1f0a 4F050000 		.4byte	.LLST59
 4767 1f0e 2A       		.uleb128 0x2a
 4768 1f0f D4190000 		.4byte	0x19d4
 4769 1f13 63050000 		.4byte	.LLST60
 4770 1f17 2A       		.uleb128 0x2a
 4771 1f18 C8190000 		.4byte	0x19c8
 4772 1f1c 77050000 		.4byte	.LLST61
 4773 1f20 00       		.byte	0
 4774 1f21 2E       		.uleb128 0x2e
 4775 1f22 BB190000 		.4byte	0x19bb
 4776 1f26 0E030000 		.4byte	.LBB148
 4777 1f2a 06000000 		.4byte	.LBE148-.LBB148
 4778 1f2e 01       		.byte	0x1
 4779 1f2f 0301     		.2byte	0x103
 4780 1f31 511F0000 		.4byte	0x1f51
 4781 1f35 2A       		.uleb128 0x2a
 4782 1f36 E0190000 		.4byte	0x19e0
 4783 1f3a 8F050000 		.4byte	.LLST62
 4784 1f3e 2A       		.uleb128 0x2a
 4785 1f3f D4190000 		.4byte	0x19d4
 4786 1f43 A3050000 		.4byte	.LLST63
 4787 1f47 2A       		.uleb128 0x2a
 4788 1f48 C8190000 		.4byte	0x19c8
 4789 1f4c B7050000 		.4byte	.LLST64
 4790 1f50 00       		.byte	0
 4791 1f51 2E       		.uleb128 0x2e
 4792 1f52 BB190000 		.4byte	0x19bb
 4793 1f56 14030000 		.4byte	.LBB150
 4794 1f5a 04000000 		.4byte	.LBE150-.LBB150
 4795 1f5e 01       		.byte	0x1
 4796 1f5f 0401     		.2byte	0x104
 4797 1f61 811F0000 		.4byte	0x1f81
 4798 1f65 2A       		.uleb128 0x2a
 4799 1f66 E0190000 		.4byte	0x19e0
 4800 1f6a CF050000 		.4byte	.LLST65
 4801 1f6e 2A       		.uleb128 0x2a
 4802 1f6f D4190000 		.4byte	0x19d4
 4803 1f73 E3050000 		.4byte	.LLST66
 4804 1f77 2A       		.uleb128 0x2a
 4805 1f78 C8190000 		.4byte	0x19c8
 4806 1f7c F7050000 		.4byte	.LLST67
 4807 1f80 00       		.byte	0
 4808 1f81 2E       		.uleb128 0x2e
 4809 1f82 BB190000 		.4byte	0x19bb
 4810 1f86 18030000 		.4byte	.LBB152
 4811 1f8a 48000000 		.4byte	.LBE152-.LBB152
 4812 1f8e 01       		.byte	0x1
 4813 1f8f 0501     		.2byte	0x105
 4814 1f91 B11F0000 		.4byte	0x1fb1
 4815 1f95 2A       		.uleb128 0x2a
 4816 1f96 E0190000 		.4byte	0x19e0
ARM GAS  C:\Users\salaz\AppData\Local\Temp\ccI54lrI.s 			page 133


 4817 1f9a 0F060000 		.4byte	.LLST68
 4818 1f9e 2A       		.uleb128 0x2a
 4819 1f9f D4190000 		.4byte	0x19d4
 4820 1fa3 23060000 		.4byte	.LLST69
 4821 1fa7 2A       		.uleb128 0x2a
 4822 1fa8 C8190000 		.4byte	0x19c8
 4823 1fac 37060000 		.4byte	.LLST70
 4824 1fb0 00       		.byte	0
 4825 1fb1 2E       		.uleb128 0x2e
 4826 1fb2 BB190000 		.4byte	0x19bb
 4827 1fb6 70030000 		.4byte	.LBB154
 4828 1fba 06000000 		.4byte	.LBE154-.LBB154
 4829 1fbe 01       		.byte	0x1
 4830 1fbf 1201     		.2byte	0x112
 4831 1fc1 E11F0000 		.4byte	0x1fe1
 4832 1fc5 2A       		.uleb128 0x2a
 4833 1fc6 E0190000 		.4byte	0x19e0
 4834 1fca 4F060000 		.4byte	.LLST71
 4835 1fce 2A       		.uleb128 0x2a
 4836 1fcf D4190000 		.4byte	0x19d4
 4837 1fd3 63060000 		.4byte	.LLST72
 4838 1fd7 2A       		.uleb128 0x2a
 4839 1fd8 C8190000 		.4byte	0x19c8
 4840 1fdc 77060000 		.4byte	.LLST73
 4841 1fe0 00       		.byte	0
 4842 1fe1 2E       		.uleb128 0x2e
 4843 1fe2 BB190000 		.4byte	0x19bb
 4844 1fe6 76030000 		.4byte	.LBB156
 4845 1fea 04000000 		.4byte	.LBE156-.LBB156
 4846 1fee 01       		.byte	0x1
 4847 1fef 1301     		.2byte	0x113
 4848 1ff1 11200000 		.4byte	0x2011
 4849 1ff5 2A       		.uleb128 0x2a
 4850 1ff6 E0190000 		.4byte	0x19e0
 4851 1ffa 8F060000 		.4byte	.LLST74
 4852 1ffe 2A       		.uleb128 0x2a
 4853 1fff D4190000 		.4byte	0x19d4
 4854 2003 A3060000 		.4byte	.LLST75
 4855 2007 2A       		.uleb128 0x2a
 4856 2008 C8190000 		.4byte	0x19c8
 4857 200c B7060000 		.4byte	.LLST76
 4858 2010 00       		.byte	0
 4859 2011 2E       		.uleb128 0x2e
 4860 2012 BB190000 		.4byte	0x19bb
 4861 2016 7A030000 		.4byte	.LBB158
 4862 201a 06000000 		.4byte	.LBE158-.LBB158
 4863 201e 01       		.byte	0x1
 4864 201f 1401     		.2byte	0x114
 4865 2021 41200000 		.4byte	0x2041
 4866 2025 2A       		.uleb128 0x2a
 4867 2026 E0190000 		.4byte	0x19e0
 4868 202a CF060000 		.4byte	.LLST77
 4869 202e 2A       		.uleb128 0x2a
 4870 202f D4190000 		.4byte	0x19d4
 4871 2033 E3060000 		.4byte	.LLST78
 4872 2037 2A       		.uleb128 0x2a
 4873 2038 C8190000 		.4byte	0x19c8
ARM GAS  C:\Users\salaz\AppData\Local\Temp\ccI54lrI.s 			page 134


 4874 203c F7060000 		.4byte	.LLST79
 4875 2040 00       		.byte	0
 4876 2041 2E       		.uleb128 0x2e
 4877 2042 BB190000 		.4byte	0x19bb
 4878 2046 F4030000 		.4byte	.LBB160
 4879 204a 06000000 		.4byte	.LBE160-.LBB160
 4880 204e 01       		.byte	0x1
 4881 204f 3A01     		.2byte	0x13a
 4882 2051 71200000 		.4byte	0x2071
 4883 2055 2A       		.uleb128 0x2a
 4884 2056 E0190000 		.4byte	0x19e0
 4885 205a 0F070000 		.4byte	.LLST80
 4886 205e 2A       		.uleb128 0x2a
 4887 205f D4190000 		.4byte	0x19d4
 4888 2063 23070000 		.4byte	.LLST81
 4889 2067 2A       		.uleb128 0x2a
 4890 2068 C8190000 		.4byte	0x19c8
 4891 206c 37070000 		.4byte	.LLST82
 4892 2070 00       		.byte	0
 4893 2071 2E       		.uleb128 0x2e
 4894 2072 BB190000 		.4byte	0x19bb
 4895 2076 FA030000 		.4byte	.LBB162
 4896 207a 04000000 		.4byte	.LBE162-.LBB162
 4897 207e 01       		.byte	0x1
 4898 207f 3B01     		.2byte	0x13b
 4899 2081 A1200000 		.4byte	0x20a1
 4900 2085 2A       		.uleb128 0x2a
 4901 2086 E0190000 		.4byte	0x19e0
 4902 208a 4F070000 		.4byte	.LLST83
 4903 208e 2A       		.uleb128 0x2a
 4904 208f D4190000 		.4byte	0x19d4
 4905 2093 63070000 		.4byte	.LLST84
 4906 2097 2A       		.uleb128 0x2a
 4907 2098 C8190000 		.4byte	0x19c8
 4908 209c 77070000 		.4byte	.LLST85
 4909 20a0 00       		.byte	0
 4910 20a1 2E       		.uleb128 0x2e
 4911 20a2 BB190000 		.4byte	0x19bb
 4912 20a6 FE030000 		.4byte	.LBB164
 4913 20aa 06000000 		.4byte	.LBE164-.LBB164
 4914 20ae 01       		.byte	0x1
 4915 20af 3C01     		.2byte	0x13c
 4916 20b1 D1200000 		.4byte	0x20d1
 4917 20b5 2A       		.uleb128 0x2a
 4918 20b6 E0190000 		.4byte	0x19e0
 4919 20ba 8F070000 		.4byte	.LLST86
 4920 20be 2A       		.uleb128 0x2a
 4921 20bf D4190000 		.4byte	0x19d4
 4922 20c3 A3070000 		.4byte	.LLST87
 4923 20c7 2A       		.uleb128 0x2a
 4924 20c8 C8190000 		.4byte	0x19c8
 4925 20cc B7070000 		.4byte	.LLST88
 4926 20d0 00       		.byte	0
 4927 20d1 2E       		.uleb128 0x2e
 4928 20d2 F3190000 		.4byte	0x19f3
 4929 20d6 4C040000 		.4byte	.LBB166
 4930 20da 14000000 		.4byte	.LBE166-.LBB166
ARM GAS  C:\Users\salaz\AppData\Local\Temp\ccI54lrI.s 			page 135


 4931 20de 01       		.byte	0x1
 4932 20df 6401     		.2byte	0x164
 4933 20e1 EF200000 		.4byte	0x20ef
 4934 20e5 2A       		.uleb128 0x2a
 4935 20e6 001A0000 		.4byte	0x1a00
 4936 20ea CF070000 		.4byte	.LLST89
 4937 20ee 00       		.byte	0
 4938 20ef 2F       		.uleb128 0x2f
 4939 20f0 1C000000 		.4byte	.LVL0
 4940 20f4 98250000 		.4byte	0x2598
 4941 20f8 06210000 		.4byte	0x2106
 4942 20fc 2D       		.uleb128 0x2d
 4943 20fd 01       		.uleb128 0x1
 4944 20fe 50       		.byte	0x50
 4945 20ff 05       		.uleb128 0x5
 4946 2100 03       		.byte	0x3
 4947 2101 00000000 		.4byte	.LC2
 4948 2105 00       		.byte	0
 4949 2106 2F       		.uleb128 0x2f
 4950 2107 44000000 		.4byte	.LVL3
 4951 210b 98250000 		.4byte	0x2598
 4952 210f 1D210000 		.4byte	0x211d
 4953 2113 2D       		.uleb128 0x2d
 4954 2114 01       		.uleb128 0x1
 4955 2115 50       		.byte	0x50
 4956 2116 05       		.uleb128 0x5
 4957 2117 03       		.byte	0x3
 4958 2118 10000000 		.4byte	.LC4
 4959 211c 00       		.byte	0
 4960 211d 30       		.uleb128 0x30
 4961 211e 62000000 		.4byte	.LVL6
 4962 2122 A7250000 		.4byte	0x25a7
 4963 2126 2F       		.uleb128 0x2f
 4964 2127 76000000 		.4byte	.LVL7
 4965 212b 98250000 		.4byte	0x2598
 4966 212f 3D210000 		.4byte	0x213d
 4967 2133 2D       		.uleb128 0x2d
 4968 2134 01       		.uleb128 0x1
 4969 2135 50       		.byte	0x50
 4970 2136 05       		.uleb128 0x5
 4971 2137 03       		.byte	0x3
 4972 2138 1C000000 		.4byte	.LC6
 4973 213c 00       		.byte	0
 4974 213d 30       		.uleb128 0x30
 4975 213e 94000000 		.4byte	.LVL10
 4976 2142 B3250000 		.4byte	0x25b3
 4977 2146 30       		.uleb128 0x30
 4978 2147 AA000000 		.4byte	.LVL11
 4979 214b A7250000 		.4byte	0x25a7
 4980 214f 30       		.uleb128 0x30
 4981 2150 B0000000 		.4byte	.LVL12
 4982 2154 BE250000 		.4byte	0x25be
 4983 2158 30       		.uleb128 0x30
 4984 2159 BA000000 		.4byte	.LVL13
 4985 215d A7250000 		.4byte	0x25a7
 4986 2161 2F       		.uleb128 0x2f
 4987 2162 D4000000 		.4byte	.LVL14
ARM GAS  C:\Users\salaz\AppData\Local\Temp\ccI54lrI.s 			page 136


 4988 2166 98250000 		.4byte	0x2598
 4989 216a 78210000 		.4byte	0x2178
 4990 216e 2D       		.uleb128 0x2d
 4991 216f 01       		.uleb128 0x1
 4992 2170 50       		.byte	0x50
 4993 2171 05       		.uleb128 0x5
 4994 2172 03       		.byte	0x3
 4995 2173 30000000 		.4byte	.LC8
 4996 2177 00       		.byte	0
 4997 2178 30       		.uleb128 0x30
 4998 2179 F2000000 		.4byte	.LVL17
 4999 217d C9250000 		.4byte	0x25c9
 5000 2181 30       		.uleb128 0x30
 5001 2182 02010000 		.4byte	.LVL18
 5002 2186 D5250000 		.4byte	0x25d5
 5003 218a 2F       		.uleb128 0x2f
 5004 218b 16010000 		.4byte	.LVL19
 5005 218f 98250000 		.4byte	0x2598
 5006 2193 A1210000 		.4byte	0x21a1
 5007 2197 2D       		.uleb128 0x2d
 5008 2198 01       		.uleb128 0x1
 5009 2199 50       		.byte	0x50
 5010 219a 05       		.uleb128 0x5
 5011 219b 03       		.byte	0x3
 5012 219c 44000000 		.4byte	.LC10
 5013 21a0 00       		.byte	0
 5014 21a1 30       		.uleb128 0x30
 5015 21a2 34010000 		.4byte	.LVL22
 5016 21a6 C9250000 		.4byte	0x25c9
 5017 21aa 30       		.uleb128 0x30
 5018 21ab 44010000 		.4byte	.LVL23
 5019 21af D5250000 		.4byte	0x25d5
 5020 21b3 30       		.uleb128 0x30
 5021 21b4 4C010000 		.4byte	.LVL24
 5022 21b8 A7250000 		.4byte	0x25a7
 5023 21bc 2F       		.uleb128 0x2f
 5024 21bd 66010000 		.4byte	.LVL25
 5025 21c1 98250000 		.4byte	0x2598
 5026 21c5 D3210000 		.4byte	0x21d3
 5027 21c9 2D       		.uleb128 0x2d
 5028 21ca 01       		.uleb128 0x1
 5029 21cb 50       		.byte	0x50
 5030 21cc 05       		.uleb128 0x5
 5031 21cd 03       		.byte	0x3
 5032 21ce 50000000 		.4byte	.LC12
 5033 21d2 00       		.byte	0
 5034 21d3 30       		.uleb128 0x30
 5035 21d4 84010000 		.4byte	.LVL28
 5036 21d8 BE250000 		.4byte	0x25be
 5037 21dc 30       		.uleb128 0x30
 5038 21dd 8C010000 		.4byte	.LVL29
 5039 21e1 A7250000 		.4byte	0x25a7
 5040 21e5 2F       		.uleb128 0x2f
 5041 21e6 C8010000 		.4byte	.LVL31
 5042 21ea 98250000 		.4byte	0x2598
 5043 21ee FC210000 		.4byte	0x21fc
 5044 21f2 2D       		.uleb128 0x2d
ARM GAS  C:\Users\salaz\AppData\Local\Temp\ccI54lrI.s 			page 137


 5045 21f3 01       		.uleb128 0x1
 5046 21f4 50       		.byte	0x50
 5047 21f5 05       		.uleb128 0x5
 5048 21f6 03       		.byte	0x3
 5049 21f7 5C000000 		.4byte	.LC15
 5050 21fb 00       		.byte	0
 5051 21fc 2F       		.uleb128 0x2f
 5052 21fd F0010000 		.4byte	.LVL34
 5053 2201 98250000 		.4byte	0x2598
 5054 2205 13220000 		.4byte	0x2213
 5055 2209 2D       		.uleb128 0x2d
 5056 220a 01       		.uleb128 0x1
 5057 220b 50       		.byte	0x50
 5058 220c 05       		.uleb128 0x5
 5059 220d 03       		.byte	0x3
 5060 220e 68000000 		.4byte	.LC17
 5061 2212 00       		.byte	0
 5062 2213 2F       		.uleb128 0x2f
 5063 2214 38020000 		.4byte	.LVL37
 5064 2218 E1250000 		.4byte	0x25e1
 5065 221c 30220000 		.4byte	0x2230
 5066 2220 2D       		.uleb128 0x2d
 5067 2221 01       		.uleb128 0x1
 5068 2222 50       		.byte	0x50
 5069 2223 01       		.uleb128 0x1
 5070 2224 32       		.byte	0x32
 5071 2225 2D       		.uleb128 0x2d
 5072 2226 01       		.uleb128 0x1
 5073 2227 51       		.byte	0x51
 5074 2228 01       		.uleb128 0x1
 5075 2229 32       		.byte	0x32
 5076 222a 2D       		.uleb128 0x2d
 5077 222b 01       		.uleb128 0x1
 5078 222c 52       		.byte	0x52
 5079 222d 01       		.uleb128 0x1
 5080 222e 49       		.byte	0x49
 5081 222f 00       		.byte	0
 5082 2230 2F       		.uleb128 0x2f
 5083 2231 5A020000 		.4byte	.LVL42
 5084 2235 ED250000 		.4byte	0x25ed
 5085 2239 45220000 		.4byte	0x2245
 5086 223d 2D       		.uleb128 0x2d
 5087 223e 01       		.uleb128 0x1
 5088 223f 50       		.byte	0x50
 5089 2240 03       		.uleb128 0x3
 5090 2241 0A       		.byte	0xa
 5091 2242 1027     		.2byte	0x2710
 5092 2244 00       		.byte	0
 5093 2245 2F       		.uleb128 0x2f
 5094 2246 62020000 		.4byte	.LVL43
 5095 224a F8250000 		.4byte	0x25f8
 5096 224e 5A220000 		.4byte	0x225a
 5097 2252 2D       		.uleb128 0x2d
 5098 2253 01       		.uleb128 0x1
 5099 2254 50       		.byte	0x50
 5100 2255 03       		.uleb128 0x3
 5101 2256 0A       		.byte	0xa
ARM GAS  C:\Users\salaz\AppData\Local\Temp\ccI54lrI.s 			page 138


 5102 2257 A00F     		.2byte	0xfa0
 5103 2259 00       		.byte	0
 5104 225a 2F       		.uleb128 0x2f
 5105 225b A8020000 		.4byte	.LVL51
 5106 225f E1250000 		.4byte	0x25e1
 5107 2263 78220000 		.4byte	0x2278
 5108 2267 2D       		.uleb128 0x2d
 5109 2268 01       		.uleb128 0x1
 5110 2269 50       		.byte	0x50
 5111 226a 01       		.uleb128 0x1
 5112 226b 34       		.byte	0x34
 5113 226c 2D       		.uleb128 0x2d
 5114 226d 01       		.uleb128 0x1
 5115 226e 51       		.byte	0x51
 5116 226f 01       		.uleb128 0x1
 5117 2270 31       		.byte	0x31
 5118 2271 2D       		.uleb128 0x2d
 5119 2272 01       		.uleb128 0x1
 5120 2273 53       		.byte	0x53
 5121 2274 02       		.uleb128 0x2
 5122 2275 09       		.byte	0x9
 5123 2276 FF       		.byte	0xff
 5124 2277 00       		.byte	0
 5125 2278 2F       		.uleb128 0x2f
 5126 2279 B0020000 		.4byte	.LVL52
 5127 227d 03260000 		.4byte	0x2603
 5128 2281 8C220000 		.4byte	0x228c
 5129 2285 2D       		.uleb128 0x2d
 5130 2286 01       		.uleb128 0x1
 5131 2287 51       		.byte	0x51
 5132 2288 02       		.uleb128 0x2
 5133 2289 08       		.byte	0x8
 5134 228a 32       		.byte	0x32
 5135 228b 00       		.byte	0
 5136 228c 2F       		.uleb128 0x2f
 5137 228d E0020000 		.4byte	.LVL57
 5138 2291 0F260000 		.4byte	0x260f
 5139 2295 9F220000 		.4byte	0x229f
 5140 2299 2D       		.uleb128 0x2d
 5141 229a 01       		.uleb128 0x1
 5142 229b 50       		.byte	0x50
 5143 229c 01       		.uleb128 0x1
 5144 229d 32       		.byte	0x32
 5145 229e 00       		.byte	0
 5146 229f 2F       		.uleb128 0x2f
 5147 22a0 EC020000 		.4byte	.LVL58
 5148 22a4 E1250000 		.4byte	0x25e1
 5149 22a8 BD220000 		.4byte	0x22bd
 5150 22ac 2D       		.uleb128 0x2d
 5151 22ad 01       		.uleb128 0x1
 5152 22ae 50       		.byte	0x50
 5153 22af 01       		.uleb128 0x1
 5154 22b0 30       		.byte	0x30
 5155 22b1 2D       		.uleb128 0x2d
 5156 22b2 01       		.uleb128 0x1
 5157 22b3 51       		.byte	0x51
 5158 22b4 01       		.uleb128 0x1
ARM GAS  C:\Users\salaz\AppData\Local\Temp\ccI54lrI.s 			page 139


 5159 22b5 30       		.byte	0x30
 5160 22b6 2D       		.uleb128 0x2d
 5161 22b7 01       		.uleb128 0x1
 5162 22b8 53       		.byte	0x53
 5163 22b9 02       		.uleb128 0x2
 5164 22ba 09       		.byte	0x9
 5165 22bb FF       		.byte	0xff
 5166 22bc 00       		.byte	0
 5167 22bd 2F       		.uleb128 0x2f
 5168 22be F4020000 		.4byte	.LVL59
 5169 22c2 03260000 		.4byte	0x2603
 5170 22c6 D1220000 		.4byte	0x22d1
 5171 22ca 2D       		.uleb128 0x2d
 5172 22cb 01       		.uleb128 0x1
 5173 22cc 51       		.byte	0x51
 5174 22cd 02       		.uleb128 0x2
 5175 22ce 08       		.byte	0x8
 5176 22cf 32       		.byte	0x32
 5177 22d0 00       		.byte	0
 5178 22d1 2F       		.uleb128 0x2f
 5179 22d2 0C030000 		.4byte	.LVL64
 5180 22d6 ED250000 		.4byte	0x25ed
 5181 22da E4220000 		.4byte	0x22e4
 5182 22de 2D       		.uleb128 0x2d
 5183 22df 01       		.uleb128 0x1
 5184 22e0 50       		.byte	0x50
 5185 22e1 01       		.uleb128 0x1
 5186 22e2 35       		.byte	0x35
 5187 22e3 00       		.byte	0
 5188 22e4 2F       		.uleb128 0x2f
 5189 22e5 88030000 		.4byte	.LVL73
 5190 22e9 0F260000 		.4byte	0x260f
 5191 22ed FC220000 		.4byte	0x22fc
 5192 22f1 2D       		.uleb128 0x2d
 5193 22f2 01       		.uleb128 0x1
 5194 22f3 50       		.byte	0x50
 5195 22f4 01       		.uleb128 0x1
 5196 22f5 32       		.byte	0x32
 5197 22f6 2D       		.uleb128 0x2d
 5198 22f7 01       		.uleb128 0x1
 5199 22f8 51       		.byte	0x51
 5200 22f9 01       		.uleb128 0x1
 5201 22fa 30       		.byte	0x30
 5202 22fb 00       		.byte	0
 5203 22fc 2F       		.uleb128 0x2f
 5204 22fd 94030000 		.4byte	.LVL74
 5205 2301 E1250000 		.4byte	0x25e1
 5206 2305 1E230000 		.4byte	0x231e
 5207 2309 2D       		.uleb128 0x2d
 5208 230a 01       		.uleb128 0x1
 5209 230b 50       		.byte	0x50
 5210 230c 01       		.uleb128 0x1
 5211 230d 36       		.byte	0x36
 5212 230e 2D       		.uleb128 0x2d
 5213 230f 01       		.uleb128 0x1
 5214 2310 51       		.byte	0x51
 5215 2311 01       		.uleb128 0x1
ARM GAS  C:\Users\salaz\AppData\Local\Temp\ccI54lrI.s 			page 140


 5216 2312 30       		.byte	0x30
 5217 2313 2D       		.uleb128 0x2d
 5218 2314 01       		.uleb128 0x1
 5219 2315 52       		.byte	0x52
 5220 2316 01       		.uleb128 0x1
 5221 2317 30       		.byte	0x30
 5222 2318 2D       		.uleb128 0x2d
 5223 2319 01       		.uleb128 0x1
 5224 231a 53       		.byte	0x53
 5225 231b 01       		.uleb128 0x1
 5226 231c 30       		.byte	0x30
 5227 231d 00       		.byte	0
 5228 231e 2F       		.uleb128 0x2f
 5229 231f A0030000 		.4byte	.LVL75
 5230 2323 0F260000 		.4byte	0x260f
 5231 2327 31230000 		.4byte	0x2331
 5232 232b 2D       		.uleb128 0x2d
 5233 232c 01       		.uleb128 0x1
 5234 232d 50       		.byte	0x50
 5235 232e 01       		.uleb128 0x1
 5236 232f 32       		.byte	0x32
 5237 2330 00       		.byte	0
 5238 2331 2F       		.uleb128 0x2f
 5239 2332 AC030000 		.4byte	.LVL76
 5240 2336 E1250000 		.4byte	0x25e1
 5241 233a 4F230000 		.4byte	0x234f
 5242 233e 2D       		.uleb128 0x2d
 5243 233f 01       		.uleb128 0x1
 5244 2340 50       		.byte	0x50
 5245 2341 01       		.uleb128 0x1
 5246 2342 30       		.byte	0x30
 5247 2343 2D       		.uleb128 0x2d
 5248 2344 01       		.uleb128 0x1
 5249 2345 51       		.byte	0x51
 5250 2346 01       		.uleb128 0x1
 5251 2347 30       		.byte	0x30
 5252 2348 2D       		.uleb128 0x2d
 5253 2349 01       		.uleb128 0x1
 5254 234a 53       		.byte	0x53
 5255 234b 02       		.uleb128 0x2
 5256 234c 09       		.byte	0x9
 5257 234d FF       		.byte	0xff
 5258 234e 00       		.byte	0
 5259 234f 2F       		.uleb128 0x2f
 5260 2350 B4030000 		.4byte	.LVL77
 5261 2354 03260000 		.4byte	0x2603
 5262 2358 63230000 		.4byte	0x2363
 5263 235c 2D       		.uleb128 0x2d
 5264 235d 01       		.uleb128 0x1
 5265 235e 51       		.byte	0x51
 5266 235f 02       		.uleb128 0x2
 5267 2360 08       		.byte	0x8
 5268 2361 32       		.byte	0x32
 5269 2362 00       		.byte	0
 5270 2363 2F       		.uleb128 0x2f
 5271 2364 BC030000 		.4byte	.LVL78
 5272 2368 ED250000 		.4byte	0x25ed
ARM GAS  C:\Users\salaz\AppData\Local\Temp\ccI54lrI.s 			page 141


 5273 236c 76230000 		.4byte	0x2376
 5274 2370 2D       		.uleb128 0x2d
 5275 2371 01       		.uleb128 0x1
 5276 2372 50       		.byte	0x50
 5277 2373 01       		.uleb128 0x1
 5278 2374 35       		.byte	0x35
 5279 2375 00       		.byte	0
 5280 2376 2F       		.uleb128 0x2f
 5281 2377 DC030000 		.4byte	.LVL79
 5282 237b E1250000 		.4byte	0x25e1
 5283 237f 98230000 		.4byte	0x2398
 5284 2383 2D       		.uleb128 0x2d
 5285 2384 01       		.uleb128 0x1
 5286 2385 50       		.byte	0x50
 5287 2386 01       		.uleb128 0x1
 5288 2387 36       		.byte	0x36
 5289 2388 2D       		.uleb128 0x2d
 5290 2389 01       		.uleb128 0x1
 5291 238a 51       		.byte	0x51
 5292 238b 01       		.uleb128 0x1
 5293 238c 33       		.byte	0x33
 5294 238d 2D       		.uleb128 0x2d
 5295 238e 01       		.uleb128 0x1
 5296 238f 52       		.byte	0x52
 5297 2390 01       		.uleb128 0x1
 5298 2391 30       		.byte	0x30
 5299 2392 2D       		.uleb128 0x2d
 5300 2393 01       		.uleb128 0x1
 5301 2394 53       		.byte	0x53
 5302 2395 01       		.uleb128 0x1
 5303 2396 30       		.byte	0x30
 5304 2397 00       		.byte	0
 5305 2398 2F       		.uleb128 0x2f
 5306 2399 EA030000 		.4byte	.LVL80
 5307 239d E1250000 		.4byte	0x25e1
 5308 23a1 BB230000 		.4byte	0x23bb
 5309 23a5 2D       		.uleb128 0x2d
 5310 23a6 01       		.uleb128 0x1
 5311 23a7 50       		.byte	0x50
 5312 23a8 01       		.uleb128 0x1
 5313 23a9 36       		.byte	0x36
 5314 23aa 2D       		.uleb128 0x2d
 5315 23ab 01       		.uleb128 0x1
 5316 23ac 51       		.byte	0x51
 5317 23ad 01       		.uleb128 0x1
 5318 23ae 33       		.byte	0x33
 5319 23af 2D       		.uleb128 0x2d
 5320 23b0 01       		.uleb128 0x1
 5321 23b1 52       		.byte	0x52
 5322 23b2 01       		.uleb128 0x1
 5323 23b3 4E       		.byte	0x4e
 5324 23b4 2D       		.uleb128 0x2d
 5325 23b5 01       		.uleb128 0x1
 5326 23b6 53       		.byte	0x53
 5327 23b7 02       		.uleb128 0x2
 5328 23b8 09       		.byte	0x9
 5329 23b9 FF       		.byte	0xff
ARM GAS  C:\Users\salaz\AppData\Local\Temp\ccI54lrI.s 			page 142


 5330 23ba 00       		.byte	0
 5331 23bb 2F       		.uleb128 0x2f
 5332 23bc F2030000 		.4byte	.LVL81
 5333 23c0 1B260000 		.4byte	0x261b
 5334 23c4 D4230000 		.4byte	0x23d4
 5335 23c8 2D       		.uleb128 0x2d
 5336 23c9 01       		.uleb128 0x1
 5337 23ca 50       		.byte	0x50
 5338 23cb 01       		.uleb128 0x1
 5339 23cc 36       		.byte	0x36
 5340 23cd 2D       		.uleb128 0x2d
 5341 23ce 01       		.uleb128 0x1
 5342 23cf 51       		.byte	0x51
 5343 23d0 02       		.uleb128 0x2
 5344 23d1 09       		.byte	0x9
 5345 23d2 FF       		.byte	0xff
 5346 23d3 00       		.byte	0
 5347 23d4 2F       		.uleb128 0x2f
 5348 23d5 10040000 		.4byte	.LVL86
 5349 23d9 E1250000 		.4byte	0x25e1
 5350 23dd F6230000 		.4byte	0x23f6
 5351 23e1 2D       		.uleb128 0x2d
 5352 23e2 01       		.uleb128 0x1
 5353 23e3 50       		.byte	0x50
 5354 23e4 01       		.uleb128 0x1
 5355 23e5 36       		.byte	0x36
 5356 23e6 2D       		.uleb128 0x2d
 5357 23e7 01       		.uleb128 0x1
 5358 23e8 51       		.byte	0x51
 5359 23e9 01       		.uleb128 0x1
 5360 23ea 33       		.byte	0x33
 5361 23eb 2D       		.uleb128 0x2d
 5362 23ec 01       		.uleb128 0x1
 5363 23ed 52       		.byte	0x52
 5364 23ee 01       		.uleb128 0x1
 5365 23ef 30       		.byte	0x30
 5366 23f0 2D       		.uleb128 0x2d
 5367 23f1 01       		.uleb128 0x1
 5368 23f2 53       		.byte	0x53
 5369 23f3 01       		.uleb128 0x1
 5370 23f4 30       		.byte	0x30
 5371 23f5 00       		.byte	0
 5372 23f6 30       		.uleb128 0x30
 5373 23f7 14040000 		.4byte	.LVL87
 5374 23fb 27260000 		.4byte	0x2627
 5375 23ff 30       		.uleb128 0x30
 5376 2400 26040000 		.4byte	.LVL88
 5377 2404 ED250000 		.4byte	0x25ed
 5378 2408 30       		.uleb128 0x30
 5379 2409 38040000 		.4byte	.LVL89
 5380 240d ED250000 		.4byte	0x25ed
 5381 2411 00       		.byte	0
 5382 2412 0D       		.uleb128 0xd
 5383 2413 9F170000 		.4byte	0x179f
 5384 2417 22240000 		.4byte	0x2422
 5385 241b 0E       		.uleb128 0xe
 5386 241c F8050000 		.4byte	0x5f8
ARM GAS  C:\Users\salaz\AppData\Local\Temp\ccI54lrI.s 			page 143


 5387 2420 0B       		.byte	0xb
 5388 2421 00       		.byte	0
 5389 2422 31       		.uleb128 0x31
 5390 2423 53300000 		.4byte	.LASF623
 5391 2427 14       		.byte	0x14
 5392 2428 FC02     		.2byte	0x2fc
 5393 242a 2E240000 		.4byte	0x242e
 5394 242e 10       		.uleb128 0x10
 5395 242f 12240000 		.4byte	0x2412
 5396 2433 31       		.uleb128 0x31
 5397 2434 7B2E0000 		.4byte	.LASF624
 5398 2438 12       		.byte	0x12
 5399 2439 2202     		.2byte	0x222
 5400 243b F9170000 		.4byte	0x17f9
 5401 243f 0D       		.uleb128 0xd
 5402 2440 C8170000 		.4byte	0x17c8
 5403 2444 4F240000 		.4byte	0x244f
 5404 2448 0E       		.uleb128 0xe
 5405 2449 F8050000 		.4byte	0x5f8
 5406 244d 00       		.byte	0
 5407 244e 00       		.byte	0
 5408 244f 31       		.uleb128 0x31
 5409 2450 A50D0000 		.4byte	.LASF625
 5410 2454 12       		.byte	0x12
 5411 2455 2C02     		.2byte	0x22c
 5412 2457 3F240000 		.4byte	0x243f
 5413 245b 0D       		.uleb128 0xd
 5414 245c 41180000 		.4byte	0x1841
 5415 2460 6B240000 		.4byte	0x246b
 5416 2464 0E       		.uleb128 0xe
 5417 2465 F8050000 		.4byte	0x5f8
 5418 2469 00       		.byte	0
 5419 246a 00       		.byte	0
 5420 246b 31       		.uleb128 0x31
 5421 246c 362D0000 		.4byte	.LASF626
 5422 2470 12       		.byte	0x12
 5423 2471 2D02     		.2byte	0x22d
 5424 2473 5B240000 		.4byte	0x245b
 5425 2477 31       		.uleb128 0x31
 5426 2478 BA090000 		.4byte	.LASF627
 5427 247c 12       		.byte	0x12
 5428 247d 5202     		.2byte	0x252
 5429 247f 2A050000 		.4byte	0x52a
 5430 2483 32       		.uleb128 0x32
 5431 2484 F2310000 		.4byte	.LASF628
 5432 2488 15       		.byte	0x15
 5433 2489 31       		.byte	0x31
 5434 248a 4C180000 		.4byte	0x184c
 5435 248e 32       		.uleb128 0x32
 5436 248f 84090000 		.4byte	.LASF629
 5437 2493 16       		.byte	0x16
 5438 2494 86       		.byte	0x86
 5439 2495 99240000 		.4byte	0x2499
 5440 2499 10       		.uleb128 0x10
 5441 249a 8A130000 		.4byte	0x138a
 5442 249e 32       		.uleb128 0x32
 5443 249f F9210000 		.4byte	.LASF630
ARM GAS  C:\Users\salaz\AppData\Local\Temp\ccI54lrI.s 			page 144


 5444 24a3 16       		.byte	0x16
 5445 24a4 87       		.byte	0x87
 5446 24a5 5A140000 		.4byte	0x145a
 5447 24a9 32       		.uleb128 0x32
 5448 24aa 41300000 		.4byte	.LASF631
 5449 24ae 17       		.byte	0x17
 5450 24af 7F       		.byte	0x7f
 5451 24b0 5D110000 		.4byte	0x115d
 5452 24b4 32       		.uleb128 0x32
 5453 24b5 C7100000 		.4byte	.LASF632
 5454 24b9 18       		.byte	0x18
 5455 24ba 1F       		.byte	0x1f
 5456 24bb BF240000 		.4byte	0x24bf
 5457 24bf 10       		.uleb128 0x10
 5458 24c0 C40F0000 		.4byte	0xfc4
 5459 24c4 32       		.uleb128 0x32
 5460 24c5 52100000 		.4byte	.LASF633
 5461 24c9 19       		.byte	0x19
 5462 24ca 1F       		.byte	0x1f
 5463 24cb BF240000 		.4byte	0x24bf
 5464 24cf 32       		.uleb128 0x32
 5465 24d0 4E0A0000 		.4byte	.LASF634
 5466 24d4 1A       		.byte	0x1a
 5467 24d5 1F       		.byte	0x1f
 5468 24d6 DA240000 		.4byte	0x24da
 5469 24da 10       		.uleb128 0x10
 5470 24db 800E0000 		.4byte	0xe80
 5471 24df 32       		.uleb128 0x32
 5472 24e0 F2220000 		.4byte	.LASF635
 5473 24e4 1B       		.byte	0x1b
 5474 24e5 1F       		.byte	0x1f
 5475 24e6 BF240000 		.4byte	0x24bf
 5476 24ea 32       		.uleb128 0x32
 5477 24eb 920D0000 		.4byte	.LASF636
 5478 24ef 1C       		.byte	0x1c
 5479 24f0 1F       		.byte	0x1f
 5480 24f1 BF240000 		.4byte	0x24bf
 5481 24f5 32       		.uleb128 0x32
 5482 24f6 9D260000 		.4byte	.LASF637
 5483 24fa 1D       		.byte	0x1d
 5484 24fb 1F       		.byte	0x1f
 5485 24fc DA240000 		.4byte	0x24da
 5486 2500 32       		.uleb128 0x32
 5487 2501 90050000 		.4byte	.LASF638
 5488 2505 1E       		.byte	0x1e
 5489 2506 1F       		.byte	0x1f
 5490 2507 BF240000 		.4byte	0x24bf
 5491 250b 32       		.uleb128 0x32
 5492 250c 360F0000 		.4byte	.LASF639
 5493 2510 1F       		.byte	0x1f
 5494 2511 1F       		.byte	0x1f
 5495 2512 DA240000 		.4byte	0x24da
 5496 2516 33       		.uleb128 0x33
 5497 2517 7E140000 		.4byte	.LASF640
 5498 251b 01       		.byte	0x1
 5499 251c 13       		.byte	0x13
 5500 251d 360D0000 		.4byte	0xd36
ARM GAS  C:\Users\salaz\AppData\Local\Temp\ccI54lrI.s 			page 145


 5501 2521 05       		.uleb128 0x5
 5502 2522 03       		.byte	0x3
 5503 2523 00000000 		.4byte	morningThreshold
 5504 2527 33       		.uleb128 0x33
 5505 2528 5B080000 		.4byte	.LASF641
 5506 252c 01       		.byte	0x1
 5507 252d 14       		.byte	0x14
 5508 252e 360D0000 		.4byte	0xd36
 5509 2532 05       		.uleb128 0x5
 5510 2533 03       		.byte	0x3
 5511 2534 00000000 		.4byte	nightThreshold
 5512 2538 33       		.uleb128 0x33
 5513 2539 E1070000 		.4byte	.LASF642
 5514 253d 01       		.byte	0x1
 5515 253e 15       		.byte	0x15
 5516 253f 420D0000 		.4byte	0xd42
 5517 2543 05       		.uleb128 0x5
 5518 2544 03       		.byte	0x3
 5519 2545 00000000 		.4byte	rideNightCheck_ms
 5520 2549 33       		.uleb128 0x33
 5521 254a 58280000 		.4byte	.LASF643
 5522 254e 01       		.byte	0x1
 5523 254f 17       		.byte	0x17
 5524 2550 360D0000 		.4byte	0xd36
 5525 2554 05       		.uleb128 0x5
 5526 2555 03       		.byte	0x3
 5527 2556 00000000 		.4byte	verifyAdvertise_s
 5528 255a 33       		.uleb128 0x33
 5529 255b 95200000 		.4byte	.LASF644
 5530 255f 01       		.byte	0x1
 5531 2560 18       		.byte	0x18
 5532 2561 2A0D0000 		.4byte	0xd2a
 5533 2565 05       		.uleb128 0x5
 5534 2566 03       		.byte	0x3
 5535 2567 00000000 		.4byte	verifyLightCycles
 5536 256b 33       		.uleb128 0x33
 5537 256c 1C150000 		.4byte	.LASF645
 5538 2570 01       		.byte	0x1
 5539 2571 1A       		.byte	0x1a
 5540 2572 360D0000 		.4byte	0xd36
 5541 2576 05       		.uleb128 0x5
 5542 2577 03       		.byte	0x3
 5543 2578 00000000 		.4byte	stolenAdvertise_s
 5544 257c 33       		.uleb128 0x33
 5545 257d C40E0000 		.4byte	.LASF646
 5546 2581 01       		.byte	0x1
 5547 2582 1B       		.byte	0x1b
 5548 2583 2A0D0000 		.4byte	0xd2a
 5549 2587 05       		.uleb128 0x5
 5550 2588 03       		.byte	0x3
 5551 2589 00000000 		.4byte	stolenLightCycles
 5552 258d 34       		.uleb128 0x34
 5553 258e 262F0000 		.4byte	.LASF647
 5554 2592 262F0000 		.4byte	.LASF647
 5555 2596 13       		.byte	0x13
 5556 2597 33       		.byte	0x33
 5557 2598 35       		.uleb128 0x35
ARM GAS  C:\Users\salaz\AppData\Local\Temp\ccI54lrI.s 			page 146


 5558 2599 C6030000 		.4byte	.LASF664
 5559 259d EE1B0000 		.4byte	.LASF665
 5560 25a1 20       		.byte	0x20
 5561 25a2 00       		.byte	0
 5562 25a3 C6030000 		.4byte	.LASF664
 5563 25a7 36       		.uleb128 0x36
 5564 25a8 18120000 		.4byte	.LASF648
 5565 25ac 18120000 		.4byte	.LASF648
 5566 25b0 13       		.byte	0x13
 5567 25b1 4501     		.2byte	0x145
 5568 25b3 34       		.uleb128 0x34
 5569 25b4 A8090000 		.4byte	.LASF649
 5570 25b8 A8090000 		.4byte	.LASF649
 5571 25bc 13       		.byte	0x13
 5572 25bd 43       		.byte	0x43
 5573 25be 34       		.uleb128 0x34
 5574 25bf 96090000 		.4byte	.LASF650
 5575 25c3 96090000 		.4byte	.LASF650
 5576 25c7 13       		.byte	0x13
 5577 25c8 3B       		.byte	0x3b
 5578 25c9 36       		.uleb128 0x36
 5579 25ca 84040000 		.4byte	.LASF651
 5580 25ce 84040000 		.4byte	.LASF651
 5581 25d2 13       		.byte	0x13
 5582 25d3 0A01     		.2byte	0x10a
 5583 25d5 36       		.uleb128 0x36
 5584 25d6 DA320000 		.4byte	.LASF652
 5585 25da DA320000 		.4byte	.LASF652
 5586 25de 13       		.byte	0x13
 5587 25df 0401     		.2byte	0x104
 5588 25e1 36       		.uleb128 0x36
 5589 25e2 D2020000 		.4byte	.LASF653
 5590 25e6 D2020000 		.4byte	.LASF653
 5591 25ea 13       		.byte	0x13
 5592 25eb 5401     		.2byte	0x154
 5593 25ed 34       		.uleb128 0x34
 5594 25ee 6B000000 		.4byte	.LASF654
 5595 25f2 6B000000 		.4byte	.LASF654
 5596 25f6 13       		.byte	0x13
 5597 25f7 3A       		.byte	0x3a
 5598 25f8 34       		.uleb128 0x34
 5599 25f9 7D000000 		.4byte	.LASF655
 5600 25fd 7D000000 		.4byte	.LASF655
 5601 2601 13       		.byte	0x13
 5602 2602 42       		.byte	0x42
 5603 2603 36       		.uleb128 0x36
 5604 2604 9E1B0000 		.4byte	.LASF656
 5605 2608 9E1B0000 		.4byte	.LASF656
 5606 260c 13       		.byte	0x13
 5607 260d 1201     		.2byte	0x112
 5608 260f 36       		.uleb128 0x36
 5609 2610 C41A0000 		.4byte	.LASF657
 5610 2614 C41A0000 		.4byte	.LASF657
 5611 2618 13       		.byte	0x13
 5612 2619 7101     		.2byte	0x171
 5613 261b 36       		.uleb128 0x36
 5614 261c C9270000 		.4byte	.LASF658
ARM GAS  C:\Users\salaz\AppData\Local\Temp\ccI54lrI.s 			page 147


 5615 2620 C9270000 		.4byte	.LASF658
 5616 2624 13       		.byte	0x13
 5617 2625 5901     		.2byte	0x159
 5618 2627 36       		.uleb128 0x36
 5619 2628 37150000 		.4byte	.LASF659
 5620 262c 37150000 		.4byte	.LASF659
 5621 2630 13       		.byte	0x13
 5622 2631 1801     		.2byte	0x118
 5623 2633 00       		.byte	0
 5624              		.section	.debug_abbrev,"",%progbits
 5625              	.Ldebug_abbrev0:
 5626 0000 01       		.uleb128 0x1
 5627 0001 11       		.uleb128 0x11
 5628 0002 01       		.byte	0x1
 5629 0003 25       		.uleb128 0x25
 5630 0004 0E       		.uleb128 0xe
 5631 0005 13       		.uleb128 0x13
 5632 0006 0B       		.uleb128 0xb
 5633 0007 03       		.uleb128 0x3
 5634 0008 0E       		.uleb128 0xe
 5635 0009 1B       		.uleb128 0x1b
 5636 000a 0E       		.uleb128 0xe
 5637 000b 55       		.uleb128 0x55
 5638 000c 17       		.uleb128 0x17
 5639 000d 11       		.uleb128 0x11
 5640 000e 01       		.uleb128 0x1
 5641 000f 10       		.uleb128 0x10
 5642 0010 17       		.uleb128 0x17
 5643 0011 00       		.byte	0
 5644 0012 00       		.byte	0
 5645 0013 02       		.uleb128 0x2
 5646 0014 04       		.uleb128 0x4
 5647 0015 01       		.byte	0x1
 5648 0016 0B       		.uleb128 0xb
 5649 0017 0B       		.uleb128 0xb
 5650 0018 49       		.uleb128 0x49
 5651 0019 13       		.uleb128 0x13
 5652 001a 3A       		.uleb128 0x3a
 5653 001b 0B       		.uleb128 0xb
 5654 001c 3B       		.uleb128 0x3b
 5655 001d 0B       		.uleb128 0xb
 5656 001e 01       		.uleb128 0x1
 5657 001f 13       		.uleb128 0x13
 5658 0020 00       		.byte	0
 5659 0021 00       		.byte	0
 5660 0022 03       		.uleb128 0x3
 5661 0023 28       		.uleb128 0x28
 5662 0024 00       		.byte	0
 5663 0025 03       		.uleb128 0x3
 5664 0026 0E       		.uleb128 0xe
 5665 0027 1C       		.uleb128 0x1c
 5666 0028 0D       		.uleb128 0xd
 5667 0029 00       		.byte	0
 5668 002a 00       		.byte	0
 5669 002b 04       		.uleb128 0x4
 5670 002c 28       		.uleb128 0x28
 5671 002d 00       		.byte	0
ARM GAS  C:\Users\salaz\AppData\Local\Temp\ccI54lrI.s 			page 148


 5672 002e 03       		.uleb128 0x3
 5673 002f 0E       		.uleb128 0xe
 5674 0030 1C       		.uleb128 0x1c
 5675 0031 0B       		.uleb128 0xb
 5676 0032 00       		.byte	0
 5677 0033 00       		.byte	0
 5678 0034 05       		.uleb128 0x5
 5679 0035 24       		.uleb128 0x24
 5680 0036 00       		.byte	0
 5681 0037 0B       		.uleb128 0xb
 5682 0038 0B       		.uleb128 0xb
 5683 0039 3E       		.uleb128 0x3e
 5684 003a 0B       		.uleb128 0xb
 5685 003b 03       		.uleb128 0x3
 5686 003c 0E       		.uleb128 0xe
 5687 003d 00       		.byte	0
 5688 003e 00       		.byte	0
 5689 003f 06       		.uleb128 0x6
 5690 0040 16       		.uleb128 0x16
 5691 0041 00       		.byte	0
 5692 0042 03       		.uleb128 0x3
 5693 0043 0E       		.uleb128 0xe
 5694 0044 3A       		.uleb128 0x3a
 5695 0045 0B       		.uleb128 0xb
 5696 0046 3B       		.uleb128 0x3b
 5697 0047 0B       		.uleb128 0xb
 5698 0048 49       		.uleb128 0x49
 5699 0049 13       		.uleb128 0x13
 5700 004a 00       		.byte	0
 5701 004b 00       		.byte	0
 5702 004c 07       		.uleb128 0x7
 5703 004d 16       		.uleb128 0x16
 5704 004e 00       		.byte	0
 5705 004f 03       		.uleb128 0x3
 5706 0050 0E       		.uleb128 0xe
 5707 0051 3A       		.uleb128 0x3a
 5708 0052 0B       		.uleb128 0xb
 5709 0053 3B       		.uleb128 0x3b
 5710 0054 05       		.uleb128 0x5
 5711 0055 49       		.uleb128 0x49
 5712 0056 13       		.uleb128 0x13
 5713 0057 00       		.byte	0
 5714 0058 00       		.byte	0
 5715 0059 08       		.uleb128 0x8
 5716 005a 24       		.uleb128 0x24
 5717 005b 00       		.byte	0
 5718 005c 0B       		.uleb128 0xb
 5719 005d 0B       		.uleb128 0xb
 5720 005e 3E       		.uleb128 0x3e
 5721 005f 0B       		.uleb128 0xb
 5722 0060 03       		.uleb128 0x3
 5723 0061 08       		.uleb128 0x8
 5724 0062 00       		.byte	0
 5725 0063 00       		.byte	0
 5726 0064 09       		.uleb128 0x9
 5727 0065 13       		.uleb128 0x13
 5728 0066 01       		.byte	0x1
ARM GAS  C:\Users\salaz\AppData\Local\Temp\ccI54lrI.s 			page 149


 5729 0067 0B       		.uleb128 0xb
 5730 0068 05       		.uleb128 0x5
 5731 0069 3A       		.uleb128 0x3a
 5732 006a 0B       		.uleb128 0xb
 5733 006b 3B       		.uleb128 0x3b
 5734 006c 05       		.uleb128 0x5
 5735 006d 01       		.uleb128 0x1
 5736 006e 13       		.uleb128 0x13
 5737 006f 00       		.byte	0
 5738 0070 00       		.byte	0
 5739 0071 0A       		.uleb128 0xa
 5740 0072 0D       		.uleb128 0xd
 5741 0073 00       		.byte	0
 5742 0074 03       		.uleb128 0x3
 5743 0075 0E       		.uleb128 0xe
 5744 0076 3A       		.uleb128 0x3a
 5745 0077 0B       		.uleb128 0xb
 5746 0078 3B       		.uleb128 0x3b
 5747 0079 05       		.uleb128 0x5
 5748 007a 49       		.uleb128 0x49
 5749 007b 13       		.uleb128 0x13
 5750 007c 38       		.uleb128 0x38
 5751 007d 0B       		.uleb128 0xb
 5752 007e 00       		.byte	0
 5753 007f 00       		.byte	0
 5754 0080 0B       		.uleb128 0xb
 5755 0081 0D       		.uleb128 0xd
 5756 0082 00       		.byte	0
 5757 0083 03       		.uleb128 0x3
 5758 0084 0E       		.uleb128 0xe
 5759 0085 3A       		.uleb128 0x3a
 5760 0086 0B       		.uleb128 0xb
 5761 0087 3B       		.uleb128 0x3b
 5762 0088 05       		.uleb128 0x5
 5763 0089 49       		.uleb128 0x49
 5764 008a 13       		.uleb128 0x13
 5765 008b 38       		.uleb128 0x38
 5766 008c 05       		.uleb128 0x5
 5767 008d 00       		.byte	0
 5768 008e 00       		.byte	0
 5769 008f 0C       		.uleb128 0xc
 5770 0090 0D       		.uleb128 0xd
 5771 0091 00       		.byte	0
 5772 0092 03       		.uleb128 0x3
 5773 0093 08       		.uleb128 0x8
 5774 0094 3A       		.uleb128 0x3a
 5775 0095 0B       		.uleb128 0xb
 5776 0096 3B       		.uleb128 0x3b
 5777 0097 05       		.uleb128 0x5
 5778 0098 49       		.uleb128 0x49
 5779 0099 13       		.uleb128 0x13
 5780 009a 38       		.uleb128 0x38
 5781 009b 05       		.uleb128 0x5
 5782 009c 00       		.byte	0
 5783 009d 00       		.byte	0
 5784 009e 0D       		.uleb128 0xd
 5785 009f 01       		.uleb128 0x1
ARM GAS  C:\Users\salaz\AppData\Local\Temp\ccI54lrI.s 			page 150


 5786 00a0 01       		.byte	0x1
 5787 00a1 49       		.uleb128 0x49
 5788 00a2 13       		.uleb128 0x13
 5789 00a3 01       		.uleb128 0x1
 5790 00a4 13       		.uleb128 0x13
 5791 00a5 00       		.byte	0
 5792 00a6 00       		.byte	0
 5793 00a7 0E       		.uleb128 0xe
 5794 00a8 21       		.uleb128 0x21
 5795 00a9 00       		.byte	0
 5796 00aa 49       		.uleb128 0x49
 5797 00ab 13       		.uleb128 0x13
 5798 00ac 2F       		.uleb128 0x2f
 5799 00ad 0B       		.uleb128 0xb
 5800 00ae 00       		.byte	0
 5801 00af 00       		.byte	0
 5802 00b0 0F       		.uleb128 0xf
 5803 00b1 35       		.uleb128 0x35
 5804 00b2 00       		.byte	0
 5805 00b3 49       		.uleb128 0x49
 5806 00b4 13       		.uleb128 0x13
 5807 00b5 00       		.byte	0
 5808 00b6 00       		.byte	0
 5809 00b7 10       		.uleb128 0x10
 5810 00b8 26       		.uleb128 0x26
 5811 00b9 00       		.byte	0
 5812 00ba 49       		.uleb128 0x49
 5813 00bb 13       		.uleb128 0x13
 5814 00bc 00       		.byte	0
 5815 00bd 00       		.byte	0
 5816 00be 11       		.uleb128 0x11
 5817 00bf 13       		.uleb128 0x13
 5818 00c0 01       		.byte	0x1
 5819 00c1 0B       		.uleb128 0xb
 5820 00c2 0B       		.uleb128 0xb
 5821 00c3 3A       		.uleb128 0x3a
 5822 00c4 0B       		.uleb128 0xb
 5823 00c5 3B       		.uleb128 0x3b
 5824 00c6 0B       		.uleb128 0xb
 5825 00c7 01       		.uleb128 0x1
 5826 00c8 13       		.uleb128 0x13
 5827 00c9 00       		.byte	0
 5828 00ca 00       		.byte	0
 5829 00cb 12       		.uleb128 0x12
 5830 00cc 0D       		.uleb128 0xd
 5831 00cd 00       		.byte	0
 5832 00ce 03       		.uleb128 0x3
 5833 00cf 08       		.uleb128 0x8
 5834 00d0 3A       		.uleb128 0x3a
 5835 00d1 0B       		.uleb128 0xb
 5836 00d2 3B       		.uleb128 0x3b
 5837 00d3 0B       		.uleb128 0xb
 5838 00d4 49       		.uleb128 0x49
 5839 00d5 13       		.uleb128 0x13
 5840 00d6 38       		.uleb128 0x38
 5841 00d7 0B       		.uleb128 0xb
 5842 00d8 00       		.byte	0
ARM GAS  C:\Users\salaz\AppData\Local\Temp\ccI54lrI.s 			page 151


 5843 00d9 00       		.byte	0
 5844 00da 13       		.uleb128 0x13
 5845 00db 0D       		.uleb128 0xd
 5846 00dc 00       		.byte	0
 5847 00dd 03       		.uleb128 0x3
 5848 00de 0E       		.uleb128 0xe
 5849 00df 3A       		.uleb128 0x3a
 5850 00e0 0B       		.uleb128 0xb
 5851 00e1 3B       		.uleb128 0x3b
 5852 00e2 0B       		.uleb128 0xb
 5853 00e3 49       		.uleb128 0x49
 5854 00e4 13       		.uleb128 0x13
 5855 00e5 38       		.uleb128 0x38
 5856 00e6 0B       		.uleb128 0xb
 5857 00e7 00       		.byte	0
 5858 00e8 00       		.byte	0
 5859 00e9 14       		.uleb128 0x14
 5860 00ea 13       		.uleb128 0x13
 5861 00eb 01       		.byte	0x1
 5862 00ec 0B       		.uleb128 0xb
 5863 00ed 05       		.uleb128 0x5
 5864 00ee 3A       		.uleb128 0x3a
 5865 00ef 0B       		.uleb128 0xb
 5866 00f0 3B       		.uleb128 0x3b
 5867 00f1 0B       		.uleb128 0xb
 5868 00f2 01       		.uleb128 0x1
 5869 00f3 13       		.uleb128 0x13
 5870 00f4 00       		.byte	0
 5871 00f5 00       		.byte	0
 5872 00f6 15       		.uleb128 0x15
 5873 00f7 0D       		.uleb128 0xd
 5874 00f8 00       		.byte	0
 5875 00f9 03       		.uleb128 0x3
 5876 00fa 0E       		.uleb128 0xe
 5877 00fb 3A       		.uleb128 0x3a
 5878 00fc 0B       		.uleb128 0xb
 5879 00fd 3B       		.uleb128 0x3b
 5880 00fe 0B       		.uleb128 0xb
 5881 00ff 49       		.uleb128 0x49
 5882 0100 13       		.uleb128 0x13
 5883 0101 38       		.uleb128 0x38
 5884 0102 05       		.uleb128 0x5
 5885 0103 00       		.byte	0
 5886 0104 00       		.byte	0
 5887 0105 16       		.uleb128 0x16
 5888 0106 21       		.uleb128 0x21
 5889 0107 00       		.byte	0
 5890 0108 49       		.uleb128 0x49
 5891 0109 13       		.uleb128 0x13
 5892 010a 2F       		.uleb128 0x2f
 5893 010b 05       		.uleb128 0x5
 5894 010c 00       		.byte	0
 5895 010d 00       		.byte	0
 5896 010e 17       		.uleb128 0x17
 5897 010f 0F       		.uleb128 0xf
 5898 0110 00       		.byte	0
 5899 0111 0B       		.uleb128 0xb
ARM GAS  C:\Users\salaz\AppData\Local\Temp\ccI54lrI.s 			page 152


 5900 0112 0B       		.uleb128 0xb
 5901 0113 00       		.byte	0
 5902 0114 00       		.byte	0
 5903 0115 18       		.uleb128 0x18
 5904 0116 13       		.uleb128 0x13
 5905 0117 01       		.byte	0x1
 5906 0118 03       		.uleb128 0x3
 5907 0119 0E       		.uleb128 0xe
 5908 011a 0B       		.uleb128 0xb
 5909 011b 0B       		.uleb128 0xb
 5910 011c 3A       		.uleb128 0x3a
 5911 011d 0B       		.uleb128 0xb
 5912 011e 3B       		.uleb128 0x3b
 5913 011f 0B       		.uleb128 0xb
 5914 0120 01       		.uleb128 0x1
 5915 0121 13       		.uleb128 0x13
 5916 0122 00       		.byte	0
 5917 0123 00       		.byte	0
 5918 0124 19       		.uleb128 0x19
 5919 0125 04       		.uleb128 0x4
 5920 0126 01       		.byte	0x1
 5921 0127 0B       		.uleb128 0xb
 5922 0128 0B       		.uleb128 0xb
 5923 0129 49       		.uleb128 0x49
 5924 012a 13       		.uleb128 0x13
 5925 012b 3A       		.uleb128 0x3a
 5926 012c 0B       		.uleb128 0xb
 5927 012d 3B       		.uleb128 0x3b
 5928 012e 05       		.uleb128 0x5
 5929 012f 01       		.uleb128 0x1
 5930 0130 13       		.uleb128 0x13
 5931 0131 00       		.byte	0
 5932 0132 00       		.byte	0
 5933 0133 1A       		.uleb128 0x1a
 5934 0134 0F       		.uleb128 0xf
 5935 0135 00       		.byte	0
 5936 0136 0B       		.uleb128 0xb
 5937 0137 0B       		.uleb128 0xb
 5938 0138 49       		.uleb128 0x49
 5939 0139 13       		.uleb128 0x13
 5940 013a 00       		.byte	0
 5941 013b 00       		.byte	0
 5942 013c 1B       		.uleb128 0x1b
 5943 013d 15       		.uleb128 0x15
 5944 013e 01       		.byte	0x1
 5945 013f 27       		.uleb128 0x27
 5946 0140 19       		.uleb128 0x19
 5947 0141 01       		.uleb128 0x1
 5948 0142 13       		.uleb128 0x13
 5949 0143 00       		.byte	0
 5950 0144 00       		.byte	0
 5951 0145 1C       		.uleb128 0x1c
 5952 0146 05       		.uleb128 0x5
 5953 0147 00       		.byte	0
 5954 0148 49       		.uleb128 0x49
 5955 0149 13       		.uleb128 0x13
 5956 014a 00       		.byte	0
ARM GAS  C:\Users\salaz\AppData\Local\Temp\ccI54lrI.s 			page 153


 5957 014b 00       		.byte	0
 5958 014c 1D       		.uleb128 0x1d
 5959 014d 15       		.uleb128 0x15
 5960 014e 01       		.byte	0x1
 5961 014f 27       		.uleb128 0x27
 5962 0150 19       		.uleb128 0x19
 5963 0151 49       		.uleb128 0x49
 5964 0152 13       		.uleb128 0x13
 5965 0153 01       		.uleb128 0x1
 5966 0154 13       		.uleb128 0x13
 5967 0155 00       		.byte	0
 5968 0156 00       		.byte	0
 5969 0157 1E       		.uleb128 0x1e
 5970 0158 13       		.uleb128 0x13
 5971 0159 01       		.byte	0x1
 5972 015a 03       		.uleb128 0x3
 5973 015b 0E       		.uleb128 0xe
 5974 015c 0B       		.uleb128 0xb
 5975 015d 0B       		.uleb128 0xb
 5976 015e 3A       		.uleb128 0x3a
 5977 015f 0B       		.uleb128 0xb
 5978 0160 3B       		.uleb128 0x3b
 5979 0161 05       		.uleb128 0x5
 5980 0162 01       		.uleb128 0x1
 5981 0163 13       		.uleb128 0x13
 5982 0164 00       		.byte	0
 5983 0165 00       		.byte	0
 5984 0166 1F       		.uleb128 0x1f
 5985 0167 28       		.uleb128 0x28
 5986 0168 00       		.byte	0
 5987 0169 03       		.uleb128 0x3
 5988 016a 0E       		.uleb128 0xe
 5989 016b 1C       		.uleb128 0x1c
 5990 016c 05       		.uleb128 0x5
 5991 016d 00       		.byte	0
 5992 016e 00       		.byte	0
 5993 016f 20       		.uleb128 0x20
 5994 0170 13       		.uleb128 0x13
 5995 0171 01       		.byte	0x1
 5996 0172 0B       		.uleb128 0xb
 5997 0173 0B       		.uleb128 0xb
 5998 0174 3A       		.uleb128 0x3a
 5999 0175 0B       		.uleb128 0xb
 6000 0176 3B       		.uleb128 0x3b
 6001 0177 05       		.uleb128 0x5
 6002 0178 01       		.uleb128 0x1
 6003 0179 13       		.uleb128 0x13
 6004 017a 00       		.byte	0
 6005 017b 00       		.byte	0
 6006 017c 21       		.uleb128 0x21
 6007 017d 04       		.uleb128 0x4
 6008 017e 01       		.byte	0x1
 6009 017f 03       		.uleb128 0x3
 6010 0180 0E       		.uleb128 0xe
 6011 0181 0B       		.uleb128 0xb
 6012 0182 0B       		.uleb128 0xb
 6013 0183 49       		.uleb128 0x49
ARM GAS  C:\Users\salaz\AppData\Local\Temp\ccI54lrI.s 			page 154


 6014 0184 13       		.uleb128 0x13
 6015 0185 3A       		.uleb128 0x3a
 6016 0186 0B       		.uleb128 0xb
 6017 0187 3B       		.uleb128 0x3b
 6018 0188 05       		.uleb128 0x5
 6019 0189 01       		.uleb128 0x1
 6020 018a 13       		.uleb128 0x13
 6021 018b 00       		.byte	0
 6022 018c 00       		.byte	0
 6023 018d 22       		.uleb128 0x22
 6024 018e 28       		.uleb128 0x28
 6025 018f 00       		.byte	0
 6026 0190 03       		.uleb128 0x3
 6027 0191 08       		.uleb128 0x8
 6028 0192 1C       		.uleb128 0x1c
 6029 0193 0B       		.uleb128 0xb
 6030 0194 00       		.byte	0
 6031 0195 00       		.byte	0
 6032 0196 23       		.uleb128 0x23
 6033 0197 2E       		.uleb128 0x2e
 6034 0198 01       		.byte	0x1
 6035 0199 03       		.uleb128 0x3
 6036 019a 0E       		.uleb128 0xe
 6037 019b 3A       		.uleb128 0x3a
 6038 019c 0B       		.uleb128 0xb
 6039 019d 3B       		.uleb128 0x3b
 6040 019e 05       		.uleb128 0x5
 6041 019f 27       		.uleb128 0x27
 6042 01a0 19       		.uleb128 0x19
 6043 01a1 49       		.uleb128 0x49
 6044 01a2 13       		.uleb128 0x13
 6045 01a3 20       		.uleb128 0x20
 6046 01a4 0B       		.uleb128 0xb
 6047 01a5 01       		.uleb128 0x1
 6048 01a6 13       		.uleb128 0x13
 6049 01a7 00       		.byte	0
 6050 01a8 00       		.byte	0
 6051 01a9 24       		.uleb128 0x24
 6052 01aa 05       		.uleb128 0x5
 6053 01ab 00       		.byte	0
 6054 01ac 03       		.uleb128 0x3
 6055 01ad 0E       		.uleb128 0xe
 6056 01ae 3A       		.uleb128 0x3a
 6057 01af 0B       		.uleb128 0xb
 6058 01b0 3B       		.uleb128 0x3b
 6059 01b1 05       		.uleb128 0x5
 6060 01b2 49       		.uleb128 0x49
 6061 01b3 13       		.uleb128 0x13
 6062 01b4 00       		.byte	0
 6063 01b5 00       		.byte	0
 6064 01b6 25       		.uleb128 0x25
 6065 01b7 2E       		.uleb128 0x2e
 6066 01b8 01       		.byte	0x1
 6067 01b9 03       		.uleb128 0x3
 6068 01ba 0E       		.uleb128 0xe
 6069 01bb 3A       		.uleb128 0x3a
 6070 01bc 0B       		.uleb128 0xb
ARM GAS  C:\Users\salaz\AppData\Local\Temp\ccI54lrI.s 			page 155


 6071 01bd 3B       		.uleb128 0x3b
 6072 01be 05       		.uleb128 0x5
 6073 01bf 27       		.uleb128 0x27
 6074 01c0 19       		.uleb128 0x19
 6075 01c1 20       		.uleb128 0x20
 6076 01c2 0B       		.uleb128 0xb
 6077 01c3 01       		.uleb128 0x1
 6078 01c4 13       		.uleb128 0x13
 6079 01c5 00       		.byte	0
 6080 01c6 00       		.byte	0
 6081 01c7 26       		.uleb128 0x26
 6082 01c8 2E       		.uleb128 0x2e
 6083 01c9 01       		.byte	0x1
 6084 01ca 3F       		.uleb128 0x3f
 6085 01cb 19       		.uleb128 0x19
 6086 01cc 03       		.uleb128 0x3
 6087 01cd 0E       		.uleb128 0xe
 6088 01ce 3A       		.uleb128 0x3a
 6089 01cf 0B       		.uleb128 0xb
 6090 01d0 3B       		.uleb128 0x3b
 6091 01d1 0B       		.uleb128 0xb
 6092 01d2 11       		.uleb128 0x11
 6093 01d3 01       		.uleb128 0x1
 6094 01d4 12       		.uleb128 0x12
 6095 01d5 06       		.uleb128 0x6
 6096 01d6 40       		.uleb128 0x40
 6097 01d7 18       		.uleb128 0x18
 6098 01d8 9742     		.uleb128 0x2117
 6099 01da 19       		.uleb128 0x19
 6100 01db 01       		.uleb128 0x1
 6101 01dc 13       		.uleb128 0x13
 6102 01dd 00       		.byte	0
 6103 01de 00       		.byte	0
 6104 01df 27       		.uleb128 0x27
 6105 01e0 34       		.uleb128 0x34
 6106 01e1 00       		.byte	0
 6107 01e2 03       		.uleb128 0x3
 6108 01e3 0E       		.uleb128 0xe
 6109 01e4 3A       		.uleb128 0x3a
 6110 01e5 0B       		.uleb128 0xb
 6111 01e6 3B       		.uleb128 0x3b
 6112 01e7 0B       		.uleb128 0xb
 6113 01e8 49       		.uleb128 0x49
 6114 01e9 13       		.uleb128 0x13
 6115 01ea 02       		.uleb128 0x2
 6116 01eb 18       		.uleb128 0x18
 6117 01ec 00       		.byte	0
 6118 01ed 00       		.byte	0
 6119 01ee 28       		.uleb128 0x28
 6120 01ef 34       		.uleb128 0x34
 6121 01f0 00       		.byte	0
 6122 01f1 03       		.uleb128 0x3
 6123 01f2 0E       		.uleb128 0xe
 6124 01f3 3A       		.uleb128 0x3a
 6125 01f4 0B       		.uleb128 0xb
 6126 01f5 3B       		.uleb128 0x3b
 6127 01f6 0B       		.uleb128 0xb
ARM GAS  C:\Users\salaz\AppData\Local\Temp\ccI54lrI.s 			page 156


 6128 01f7 49       		.uleb128 0x49
 6129 01f8 13       		.uleb128 0x13
 6130 01f9 02       		.uleb128 0x2
 6131 01fa 17       		.uleb128 0x17
 6132 01fb 00       		.byte	0
 6133 01fc 00       		.byte	0
 6134 01fd 29       		.uleb128 0x29
 6135 01fe 1D       		.uleb128 0x1d
 6136 01ff 01       		.byte	0x1
 6137 0200 31       		.uleb128 0x31
 6138 0201 13       		.uleb128 0x13
 6139 0202 11       		.uleb128 0x11
 6140 0203 01       		.uleb128 0x1
 6141 0204 12       		.uleb128 0x12
 6142 0205 06       		.uleb128 0x6
 6143 0206 58       		.uleb128 0x58
 6144 0207 0B       		.uleb128 0xb
 6145 0208 59       		.uleb128 0x59
 6146 0209 0B       		.uleb128 0xb
 6147 020a 01       		.uleb128 0x1
 6148 020b 13       		.uleb128 0x13
 6149 020c 00       		.byte	0
 6150 020d 00       		.byte	0
 6151 020e 2A       		.uleb128 0x2a
 6152 020f 05       		.uleb128 0x5
 6153 0210 00       		.byte	0
 6154 0211 31       		.uleb128 0x31
 6155 0212 13       		.uleb128 0x13
 6156 0213 02       		.uleb128 0x2
 6157 0214 17       		.uleb128 0x17
 6158 0215 00       		.byte	0
 6159 0216 00       		.byte	0
 6160 0217 2B       		.uleb128 0x2b
 6161 0218 0B       		.uleb128 0xb
 6162 0219 01       		.byte	0x1
 6163 021a 11       		.uleb128 0x11
 6164 021b 01       		.uleb128 0x1
 6165 021c 12       		.uleb128 0x12
 6166 021d 06       		.uleb128 0x6
 6167 021e 01       		.uleb128 0x1
 6168 021f 13       		.uleb128 0x13
 6169 0220 00       		.byte	0
 6170 0221 00       		.byte	0
 6171 0222 2C       		.uleb128 0x2c
 6172 0223 898201   		.uleb128 0x4109
 6173 0226 01       		.byte	0x1
 6174 0227 11       		.uleb128 0x11
 6175 0228 01       		.uleb128 0x1
 6176 0229 31       		.uleb128 0x31
 6177 022a 13       		.uleb128 0x13
 6178 022b 00       		.byte	0
 6179 022c 00       		.byte	0
 6180 022d 2D       		.uleb128 0x2d
 6181 022e 8A8201   		.uleb128 0x410a
 6182 0231 00       		.byte	0
 6183 0232 02       		.uleb128 0x2
 6184 0233 18       		.uleb128 0x18
ARM GAS  C:\Users\salaz\AppData\Local\Temp\ccI54lrI.s 			page 157


 6185 0234 9142     		.uleb128 0x2111
 6186 0236 18       		.uleb128 0x18
 6187 0237 00       		.byte	0
 6188 0238 00       		.byte	0
 6189 0239 2E       		.uleb128 0x2e
 6190 023a 1D       		.uleb128 0x1d
 6191 023b 01       		.byte	0x1
 6192 023c 31       		.uleb128 0x31
 6193 023d 13       		.uleb128 0x13
 6194 023e 11       		.uleb128 0x11
 6195 023f 01       		.uleb128 0x1
 6196 0240 12       		.uleb128 0x12
 6197 0241 06       		.uleb128 0x6
 6198 0242 58       		.uleb128 0x58
 6199 0243 0B       		.uleb128 0xb
 6200 0244 59       		.uleb128 0x59
 6201 0245 05       		.uleb128 0x5
 6202 0246 01       		.uleb128 0x1
 6203 0247 13       		.uleb128 0x13
 6204 0248 00       		.byte	0
 6205 0249 00       		.byte	0
 6206 024a 2F       		.uleb128 0x2f
 6207 024b 898201   		.uleb128 0x4109
 6208 024e 01       		.byte	0x1
 6209 024f 11       		.uleb128 0x11
 6210 0250 01       		.uleb128 0x1
 6211 0251 31       		.uleb128 0x31
 6212 0252 13       		.uleb128 0x13
 6213 0253 01       		.uleb128 0x1
 6214 0254 13       		.uleb128 0x13
 6215 0255 00       		.byte	0
 6216 0256 00       		.byte	0
 6217 0257 30       		.uleb128 0x30
 6218 0258 898201   		.uleb128 0x4109
 6219 025b 00       		.byte	0
 6220 025c 11       		.uleb128 0x11
 6221 025d 01       		.uleb128 0x1
 6222 025e 31       		.uleb128 0x31
 6223 025f 13       		.uleb128 0x13
 6224 0260 00       		.byte	0
 6225 0261 00       		.byte	0
 6226 0262 31       		.uleb128 0x31
 6227 0263 34       		.uleb128 0x34
 6228 0264 00       		.byte	0
 6229 0265 03       		.uleb128 0x3
 6230 0266 0E       		.uleb128 0xe
 6231 0267 3A       		.uleb128 0x3a
 6232 0268 0B       		.uleb128 0xb
 6233 0269 3B       		.uleb128 0x3b
 6234 026a 05       		.uleb128 0x5
 6235 026b 49       		.uleb128 0x49
 6236 026c 13       		.uleb128 0x13
 6237 026d 3F       		.uleb128 0x3f
 6238 026e 19       		.uleb128 0x19
 6239 026f 3C       		.uleb128 0x3c
 6240 0270 19       		.uleb128 0x19
 6241 0271 00       		.byte	0
ARM GAS  C:\Users\salaz\AppData\Local\Temp\ccI54lrI.s 			page 158


 6242 0272 00       		.byte	0
 6243 0273 32       		.uleb128 0x32
 6244 0274 34       		.uleb128 0x34
 6245 0275 00       		.byte	0
 6246 0276 03       		.uleb128 0x3
 6247 0277 0E       		.uleb128 0xe
 6248 0278 3A       		.uleb128 0x3a
 6249 0279 0B       		.uleb128 0xb
 6250 027a 3B       		.uleb128 0x3b
 6251 027b 0B       		.uleb128 0xb
 6252 027c 49       		.uleb128 0x49
 6253 027d 13       		.uleb128 0x13
 6254 027e 3F       		.uleb128 0x3f
 6255 027f 19       		.uleb128 0x19
 6256 0280 3C       		.uleb128 0x3c
 6257 0281 19       		.uleb128 0x19
 6258 0282 00       		.byte	0
 6259 0283 00       		.byte	0
 6260 0284 33       		.uleb128 0x33
 6261 0285 34       		.uleb128 0x34
 6262 0286 00       		.byte	0
 6263 0287 03       		.uleb128 0x3
 6264 0288 0E       		.uleb128 0xe
 6265 0289 3A       		.uleb128 0x3a
 6266 028a 0B       		.uleb128 0xb
 6267 028b 3B       		.uleb128 0x3b
 6268 028c 0B       		.uleb128 0xb
 6269 028d 49       		.uleb128 0x49
 6270 028e 13       		.uleb128 0x13
 6271 028f 3F       		.uleb128 0x3f
 6272 0290 19       		.uleb128 0x19
 6273 0291 02       		.uleb128 0x2
 6274 0292 18       		.uleb128 0x18
 6275 0293 00       		.byte	0
 6276 0294 00       		.byte	0
 6277 0295 34       		.uleb128 0x34
 6278 0296 2E       		.uleb128 0x2e
 6279 0297 00       		.byte	0
 6280 0298 3F       		.uleb128 0x3f
 6281 0299 19       		.uleb128 0x19
 6282 029a 3C       		.uleb128 0x3c
 6283 029b 19       		.uleb128 0x19
 6284 029c 6E       		.uleb128 0x6e
 6285 029d 0E       		.uleb128 0xe
 6286 029e 03       		.uleb128 0x3
 6287 029f 0E       		.uleb128 0xe
 6288 02a0 3A       		.uleb128 0x3a
 6289 02a1 0B       		.uleb128 0xb
 6290 02a2 3B       		.uleb128 0x3b
 6291 02a3 0B       		.uleb128 0xb
 6292 02a4 00       		.byte	0
 6293 02a5 00       		.byte	0
 6294 02a6 35       		.uleb128 0x35
 6295 02a7 2E       		.uleb128 0x2e
 6296 02a8 00       		.byte	0
 6297 02a9 3F       		.uleb128 0x3f
 6298 02aa 19       		.uleb128 0x19
ARM GAS  C:\Users\salaz\AppData\Local\Temp\ccI54lrI.s 			page 159


 6299 02ab 3C       		.uleb128 0x3c
 6300 02ac 19       		.uleb128 0x19
 6301 02ad 6E       		.uleb128 0x6e
 6302 02ae 0E       		.uleb128 0xe
 6303 02af 03       		.uleb128 0x3
 6304 02b0 0E       		.uleb128 0xe
 6305 02b1 3A       		.uleb128 0x3a
 6306 02b2 0B       		.uleb128 0xb
 6307 02b3 3B       		.uleb128 0x3b
 6308 02b4 0B       		.uleb128 0xb
 6309 02b5 6E       		.uleb128 0x6e
 6310 02b6 0E       		.uleb128 0xe
 6311 02b7 00       		.byte	0
 6312 02b8 00       		.byte	0
 6313 02b9 36       		.uleb128 0x36
 6314 02ba 2E       		.uleb128 0x2e
 6315 02bb 00       		.byte	0
 6316 02bc 3F       		.uleb128 0x3f
 6317 02bd 19       		.uleb128 0x19
 6318 02be 3C       		.uleb128 0x3c
 6319 02bf 19       		.uleb128 0x19
 6320 02c0 6E       		.uleb128 0x6e
 6321 02c1 0E       		.uleb128 0xe
 6322 02c2 03       		.uleb128 0x3
 6323 02c3 0E       		.uleb128 0xe
 6324 02c4 3A       		.uleb128 0x3a
 6325 02c5 0B       		.uleb128 0xb
 6326 02c6 3B       		.uleb128 0x3b
 6327 02c7 05       		.uleb128 0x5
 6328 02c8 00       		.byte	0
 6329 02c9 00       		.byte	0
 6330 02ca 00       		.byte	0
 6331              		.section	.debug_loc,"",%progbits
 6332              	.Ldebug_loc0:
 6333              	.LLST0:
 6334 0000 3E040000 		.4byte	.LVL90
 6335 0004 4C040000 		.4byte	.LVL91
 6336 0008 0A00     		.2byte	0xa
 6337 000a 71       		.byte	0x71
 6338 000b 00       		.sleb128 0
 6339 000c 48       		.byte	0x48
 6340 000d 24       		.byte	0x24
 6341 000e 72       		.byte	0x72
 6342 000f 00       		.sleb128 0
 6343 0010 48       		.byte	0x48
 6344 0011 24       		.byte	0x24
 6345 0012 29       		.byte	0x29
 6346 0013 9F       		.byte	0x9f
 6347 0014 4C040000 		.4byte	.LVL91
 6348 0018 5E040000 		.4byte	.LVL93
 6349 001c 0F00     		.2byte	0xf
 6350 001e 71       		.byte	0x71
 6351 001f 00       		.sleb128 0
 6352 0020 48       		.byte	0x48
 6353 0021 24       		.byte	0x24
 6354 0022 03       		.byte	0x3
 6355 0023 00000000 		.4byte	current_state.18944
ARM GAS  C:\Users\salaz\AppData\Local\Temp\ccI54lrI.s 			page 160


 6356 0027 94       		.byte	0x94
 6357 0028 01       		.byte	0x1
 6358 0029 48       		.byte	0x48
 6359 002a 24       		.byte	0x24
 6360 002b 29       		.byte	0x29
 6361 002c 9F       		.byte	0x9f
 6362 002d 5E040000 		.4byte	.LVL93
 6363 0031 60040000 		.4byte	.LVL94
 6364 0035 1000     		.2byte	0x10
 6365 0037 03       		.byte	0x3
 6366 0038 00000000 		.4byte	current_state.18944
 6367 003c 94       		.byte	0x94
 6368 003d 01       		.byte	0x1
 6369 003e 03       		.byte	0x3
 6370 003f 00000000 		.4byte	current_state.18944
 6371 0043 94       		.byte	0x94
 6372 0044 01       		.byte	0x1
 6373 0045 29       		.byte	0x29
 6374 0046 9F       		.byte	0x9f
 6375 0047 00000000 		.4byte	0
 6376 004b 00000000 		.4byte	0
 6377              	.LLST1:
 6378 004f 1C000000 		.4byte	.LVL0
 6379 0053 28000000 		.4byte	.LVL1
 6380 0057 0600     		.2byte	0x6
 6381 0059 0C       		.byte	0xc
 6382 005a 00006640 		.4byte	0x40660000
 6383 005e 9F       		.byte	0x9f
 6384 005f 00000000 		.4byte	0
 6385 0063 00000000 		.4byte	0
 6386              	.LLST2:
 6387 0067 28000000 		.4byte	.LVL1
 6388 006b 30000000 		.4byte	.LVL2
 6389 006f 0600     		.2byte	0x6
 6390 0071 0C       		.byte	0xc
 6391 0072 00006640 		.4byte	0x40660000
 6392 0076 9F       		.byte	0x9f
 6393 0077 00000000 		.4byte	0
 6394 007b 00000000 		.4byte	0
 6395              	.LLST3:
 6396 007f 44000000 		.4byte	.LVL3
 6397 0083 50000000 		.4byte	.LVL4
 6398 0087 0600     		.2byte	0x6
 6399 0089 0C       		.byte	0xc
 6400 008a 00006640 		.4byte	0x40660000
 6401 008e 9F       		.byte	0x9f
 6402 008f 00000000 		.4byte	0
 6403 0093 00000000 		.4byte	0
 6404              	.LLST4:
 6405 0097 50000000 		.4byte	.LVL4
 6406 009b 58000000 		.4byte	.LVL5
 6407 009f 0600     		.2byte	0x6
 6408 00a1 0C       		.byte	0xc
 6409 00a2 00006640 		.4byte	0x40660000
 6410 00a6 9F       		.byte	0x9f
 6411 00a7 00000000 		.4byte	0
 6412 00ab 00000000 		.4byte	0
ARM GAS  C:\Users\salaz\AppData\Local\Temp\ccI54lrI.s 			page 161


 6413              	.LLST5:
 6414 00af 76000000 		.4byte	.LVL7
 6415 00b3 82000000 		.4byte	.LVL8
 6416 00b7 0600     		.2byte	0x6
 6417 00b9 0C       		.byte	0xc
 6418 00ba 00006640 		.4byte	0x40660000
 6419 00be 9F       		.byte	0x9f
 6420 00bf 00000000 		.4byte	0
 6421 00c3 00000000 		.4byte	0
 6422              	.LLST6:
 6423 00c7 82000000 		.4byte	.LVL8
 6424 00cb 8A000000 		.4byte	.LVL9
 6425 00cf 0600     		.2byte	0x6
 6426 00d1 0C       		.byte	0xc
 6427 00d2 00006640 		.4byte	0x40660000
 6428 00d6 9F       		.byte	0x9f
 6429 00d7 00000000 		.4byte	0
 6430 00db 00000000 		.4byte	0
 6431              	.LLST7:
 6432 00df D4000000 		.4byte	.LVL14
 6433 00e3 E0000000 		.4byte	.LVL15
 6434 00e7 0600     		.2byte	0x6
 6435 00e9 0C       		.byte	0xc
 6436 00ea 00006640 		.4byte	0x40660000
 6437 00ee 9F       		.byte	0x9f
 6438 00ef 00000000 		.4byte	0
 6439 00f3 00000000 		.4byte	0
 6440              	.LLST8:
 6441 00f7 E0000000 		.4byte	.LVL15
 6442 00fb E8000000 		.4byte	.LVL16
 6443 00ff 0600     		.2byte	0x6
 6444 0101 0C       		.byte	0xc
 6445 0102 00006640 		.4byte	0x40660000
 6446 0106 9F       		.byte	0x9f
 6447 0107 00000000 		.4byte	0
 6448 010b 00000000 		.4byte	0
 6449              	.LLST9:
 6450 010f 16010000 		.4byte	.LVL19
 6451 0113 22010000 		.4byte	.LVL20
 6452 0117 0600     		.2byte	0x6
 6453 0119 0C       		.byte	0xc
 6454 011a 00006640 		.4byte	0x40660000
 6455 011e 9F       		.byte	0x9f
 6456 011f 00000000 		.4byte	0
 6457 0123 00000000 		.4byte	0
 6458              	.LLST10:
 6459 0127 22010000 		.4byte	.LVL20
 6460 012b 2A010000 		.4byte	.LVL21
 6461 012f 0600     		.2byte	0x6
 6462 0131 0C       		.byte	0xc
 6463 0132 00006640 		.4byte	0x40660000
 6464 0136 9F       		.byte	0x9f
 6465 0137 00000000 		.4byte	0
 6466 013b 00000000 		.4byte	0
 6467              	.LLST11:
 6468 013f 66010000 		.4byte	.LVL25
 6469 0143 72010000 		.4byte	.LVL26
ARM GAS  C:\Users\salaz\AppData\Local\Temp\ccI54lrI.s 			page 162


 6470 0147 0600     		.2byte	0x6
 6471 0149 0C       		.byte	0xc
 6472 014a 00006640 		.4byte	0x40660000
 6473 014e 9F       		.byte	0x9f
 6474 014f 00000000 		.4byte	0
 6475 0153 00000000 		.4byte	0
 6476              	.LLST12:
 6477 0157 72010000 		.4byte	.LVL26
 6478 015b 7A010000 		.4byte	.LVL27
 6479 015f 0600     		.2byte	0x6
 6480 0161 0C       		.byte	0xc
 6481 0162 00006640 		.4byte	0x40660000
 6482 0166 9F       		.byte	0x9f
 6483 0167 00000000 		.4byte	0
 6484 016b 00000000 		.4byte	0
 6485              	.LLST13:
 6486 016f C8010000 		.4byte	.LVL31
 6487 0173 D4010000 		.4byte	.LVL32
 6488 0177 0600     		.2byte	0x6
 6489 0179 0C       		.byte	0xc
 6490 017a 00006640 		.4byte	0x40660000
 6491 017e 9F       		.byte	0x9f
 6492 017f 00000000 		.4byte	0
 6493 0183 00000000 		.4byte	0
 6494              	.LLST14:
 6495 0187 D4010000 		.4byte	.LVL32
 6496 018b DC010000 		.4byte	.LVL33
 6497 018f 0600     		.2byte	0x6
 6498 0191 0C       		.byte	0xc
 6499 0192 00006640 		.4byte	0x40660000
 6500 0196 9F       		.byte	0x9f
 6501 0197 00000000 		.4byte	0
 6502 019b 00000000 		.4byte	0
 6503              	.LLST15:
 6504 019f F0010000 		.4byte	.LVL34
 6505 01a3 FC010000 		.4byte	.LVL35
 6506 01a7 0600     		.2byte	0x6
 6507 01a9 0C       		.byte	0xc
 6508 01aa 00006640 		.4byte	0x40660000
 6509 01ae 9F       		.byte	0x9f
 6510 01af 00000000 		.4byte	0
 6511 01b3 00000000 		.4byte	0
 6512              	.LLST16:
 6513 01b7 FC010000 		.4byte	.LVL35
 6514 01bb 04020000 		.4byte	.LVL36
 6515 01bf 0600     		.2byte	0x6
 6516 01c1 0C       		.byte	0xc
 6517 01c2 00006640 		.4byte	0x40660000
 6518 01c6 9F       		.byte	0x9f
 6519 01c7 00000000 		.4byte	0
 6520 01cb 00000000 		.4byte	0
 6521              	.LLST17:
 6522 01cf 44020000 		.4byte	.LVL38
 6523 01d3 4A020000 		.4byte	.LVL39
 6524 01d7 0200     		.2byte	0x2
 6525 01d9 31       		.byte	0x31
 6526 01da 9F       		.byte	0x9f
ARM GAS  C:\Users\salaz\AppData\Local\Temp\ccI54lrI.s 			page 163


 6527 01db 00000000 		.4byte	0
 6528 01df 00000000 		.4byte	0
 6529              	.LLST18:
 6530 01e3 44020000 		.4byte	.LVL38
 6531 01e7 4A020000 		.4byte	.LVL39
 6532 01eb 0200     		.2byte	0x2
 6533 01ed 33       		.byte	0x33
 6534 01ee 9F       		.byte	0x9f
 6535 01ef 00000000 		.4byte	0
 6536 01f3 00000000 		.4byte	0
 6537              	.LLST19:
 6538 01f7 44020000 		.4byte	.LVL38
 6539 01fb 4A020000 		.4byte	.LVL39
 6540 01ff 0600     		.2byte	0x6
 6541 0201 0C       		.byte	0xc
 6542 0202 80023240 		.4byte	0x40320280
 6543 0206 9F       		.byte	0x9f
 6544 0207 00000000 		.4byte	0
 6545 020b 00000000 		.4byte	0
 6546              	.LLST20:
 6547 020f 4A020000 		.4byte	.LVL39
 6548 0213 4E020000 		.4byte	.LVL40
 6549 0217 0200     		.2byte	0x2
 6550 0219 31       		.byte	0x31
 6551 021a 9F       		.byte	0x9f
 6552 021b 00000000 		.4byte	0
 6553 021f 00000000 		.4byte	0
 6554              	.LLST21:
 6555 0223 4A020000 		.4byte	.LVL39
 6556 0227 4E020000 		.4byte	.LVL40
 6557 022b 0200     		.2byte	0x2
 6558 022d 35       		.byte	0x35
 6559 022e 9F       		.byte	0x9f
 6560 022f 00000000 		.4byte	0
 6561 0233 00000000 		.4byte	0
 6562              	.LLST22:
 6563 0237 4A020000 		.4byte	.LVL39
 6564 023b 4E020000 		.4byte	.LVL40
 6565 023f 0600     		.2byte	0x6
 6566 0241 0C       		.byte	0xc
 6567 0242 80023240 		.4byte	0x40320280
 6568 0246 9F       		.byte	0x9f
 6569 0247 00000000 		.4byte	0
 6570 024b 00000000 		.4byte	0
 6571              	.LLST23:
 6572 024f 4E020000 		.4byte	.LVL40
 6573 0253 54020000 		.4byte	.LVL41
 6574 0257 0200     		.2byte	0x2
 6575 0259 30       		.byte	0x30
 6576 025a 9F       		.byte	0x9f
 6577 025b 00000000 		.4byte	0
 6578 025f 00000000 		.4byte	0
 6579              	.LLST24:
 6580 0263 4E020000 		.4byte	.LVL40
 6581 0267 54020000 		.4byte	.LVL41
 6582 026b 0200     		.2byte	0x2
 6583 026d 36       		.byte	0x36
ARM GAS  C:\Users\salaz\AppData\Local\Temp\ccI54lrI.s 			page 164


 6584 026e 9F       		.byte	0x9f
 6585 026f 00000000 		.4byte	0
 6586 0273 00000000 		.4byte	0
 6587              	.LLST25:
 6588 0277 4E020000 		.4byte	.LVL40
 6589 027b 54020000 		.4byte	.LVL41
 6590 027f 0600     		.2byte	0x6
 6591 0281 0C       		.byte	0xc
 6592 0282 00063240 		.4byte	0x40320600
 6593 0286 9F       		.byte	0x9f
 6594 0287 00000000 		.4byte	0
 6595 028b 00000000 		.4byte	0
 6596              	.LLST26:
 6597 028f 78020000 		.4byte	.LVL44
 6598 0293 7E020000 		.4byte	.LVL45
 6599 0297 0200     		.2byte	0x2
 6600 0299 30       		.byte	0x30
 6601 029a 9F       		.byte	0x9f
 6602 029b 00000000 		.4byte	0
 6603 029f 00000000 		.4byte	0
 6604              	.LLST27:
 6605 02a3 78020000 		.4byte	.LVL44
 6606 02a7 7E020000 		.4byte	.LVL45
 6607 02ab 0200     		.2byte	0x2
 6608 02ad 33       		.byte	0x33
 6609 02ae 9F       		.byte	0x9f
 6610 02af 00000000 		.4byte	0
 6611 02b3 00000000 		.4byte	0
 6612              	.LLST28:
 6613 02b7 78020000 		.4byte	.LVL44
 6614 02bb 7E020000 		.4byte	.LVL45
 6615 02bf 0600     		.2byte	0x6
 6616 02c1 0C       		.byte	0xc
 6617 02c2 80023240 		.4byte	0x40320280
 6618 02c6 9F       		.byte	0x9f
 6619 02c7 00000000 		.4byte	0
 6620 02cb 00000000 		.4byte	0
 6621              	.LLST29:
 6622 02cf 7E020000 		.4byte	.LVL45
 6623 02d3 82020000 		.4byte	.LVL46
 6624 02d7 0200     		.2byte	0x2
 6625 02d9 30       		.byte	0x30
 6626 02da 9F       		.byte	0x9f
 6627 02db 00000000 		.4byte	0
 6628 02df 00000000 		.4byte	0
 6629              	.LLST30:
 6630 02e3 7E020000 		.4byte	.LVL45
 6631 02e7 82020000 		.4byte	.LVL46
 6632 02eb 0200     		.2byte	0x2
 6633 02ed 35       		.byte	0x35
 6634 02ee 9F       		.byte	0x9f
 6635 02ef 00000000 		.4byte	0
 6636 02f3 00000000 		.4byte	0
 6637              	.LLST31:
 6638 02f7 7E020000 		.4byte	.LVL45
 6639 02fb 82020000 		.4byte	.LVL46
 6640 02ff 0600     		.2byte	0x6
ARM GAS  C:\Users\salaz\AppData\Local\Temp\ccI54lrI.s 			page 165


 6641 0301 0C       		.byte	0xc
 6642 0302 80023240 		.4byte	0x40320280
 6643 0306 9F       		.byte	0x9f
 6644 0307 00000000 		.4byte	0
 6645 030b 00000000 		.4byte	0
 6646              	.LLST32:
 6647 030f 82020000 		.4byte	.LVL46
 6648 0313 8A020000 		.4byte	.LVL47
 6649 0317 0200     		.2byte	0x2
 6650 0319 31       		.byte	0x31
 6651 031a 9F       		.byte	0x9f
 6652 031b 00000000 		.4byte	0
 6653 031f 00000000 		.4byte	0
 6654              	.LLST33:
 6655 0323 82020000 		.4byte	.LVL46
 6656 0327 8A020000 		.4byte	.LVL47
 6657 032b 0200     		.2byte	0x2
 6658 032d 36       		.byte	0x36
 6659 032e 9F       		.byte	0x9f
 6660 032f 00000000 		.4byte	0
 6661 0333 00000000 		.4byte	0
 6662              	.LLST34:
 6663 0337 82020000 		.4byte	.LVL46
 6664 033b 8A020000 		.4byte	.LVL47
 6665 033f 0600     		.2byte	0x6
 6666 0341 0C       		.byte	0xc
 6667 0342 00063240 		.4byte	0x40320600
 6668 0346 9F       		.byte	0x9f
 6669 0347 00000000 		.4byte	0
 6670 034b 00000000 		.4byte	0
 6671              	.LLST35:
 6672 034f 8A020000 		.4byte	.LVL47
 6673 0353 90020000 		.4byte	.LVL48
 6674 0357 0200     		.2byte	0x2
 6675 0359 31       		.byte	0x31
 6676 035a 9F       		.byte	0x9f
 6677 035b 00000000 		.4byte	0
 6678 035f 00000000 		.4byte	0
 6679              	.LLST36:
 6680 0363 8A020000 		.4byte	.LVL47
 6681 0367 90020000 		.4byte	.LVL48
 6682 036b 0200     		.2byte	0x2
 6683 036d 33       		.byte	0x33
 6684 036e 9F       		.byte	0x9f
 6685 036f 00000000 		.4byte	0
 6686 0373 00000000 		.4byte	0
 6687              	.LLST37:
 6688 0377 8A020000 		.4byte	.LVL47
 6689 037b 90020000 		.4byte	.LVL48
 6690 037f 0600     		.2byte	0x6
 6691 0381 0C       		.byte	0xc
 6692 0382 80023240 		.4byte	0x40320280
 6693 0386 9F       		.byte	0x9f
 6694 0387 00000000 		.4byte	0
 6695 038b 00000000 		.4byte	0
 6696              	.LLST38:
 6697 038f 90020000 		.4byte	.LVL48
ARM GAS  C:\Users\salaz\AppData\Local\Temp\ccI54lrI.s 			page 166


 6698 0393 94020000 		.4byte	.LVL49
 6699 0397 0200     		.2byte	0x2
 6700 0399 31       		.byte	0x31
 6701 039a 9F       		.byte	0x9f
 6702 039b 00000000 		.4byte	0
 6703 039f 00000000 		.4byte	0
 6704              	.LLST39:
 6705 03a3 90020000 		.4byte	.LVL48
 6706 03a7 94020000 		.4byte	.LVL49
 6707 03ab 0200     		.2byte	0x2
 6708 03ad 35       		.byte	0x35
 6709 03ae 9F       		.byte	0x9f
 6710 03af 00000000 		.4byte	0
 6711 03b3 00000000 		.4byte	0
 6712              	.LLST40:
 6713 03b7 90020000 		.4byte	.LVL48
 6714 03bb 94020000 		.4byte	.LVL49
 6715 03bf 0600     		.2byte	0x6
 6716 03c1 0C       		.byte	0xc
 6717 03c2 80023240 		.4byte	0x40320280
 6718 03c6 9F       		.byte	0x9f
 6719 03c7 00000000 		.4byte	0
 6720 03cb 00000000 		.4byte	0
 6721              	.LLST41:
 6722 03cf 94020000 		.4byte	.LVL49
 6723 03d3 9A020000 		.4byte	.LVL50
 6724 03d7 0200     		.2byte	0x2
 6725 03d9 31       		.byte	0x31
 6726 03da 9F       		.byte	0x9f
 6727 03db 00000000 		.4byte	0
 6728 03df 00000000 		.4byte	0
 6729              	.LLST42:
 6730 03e3 94020000 		.4byte	.LVL49
 6731 03e7 9A020000 		.4byte	.LVL50
 6732 03eb 0200     		.2byte	0x2
 6733 03ed 36       		.byte	0x36
 6734 03ee 9F       		.byte	0x9f
 6735 03ef 00000000 		.4byte	0
 6736 03f3 00000000 		.4byte	0
 6737              	.LLST43:
 6738 03f7 94020000 		.4byte	.LVL49
 6739 03fb 9A020000 		.4byte	.LVL50
 6740 03ff 0600     		.2byte	0x6
 6741 0401 0C       		.byte	0xc
 6742 0402 00063240 		.4byte	0x40320600
 6743 0406 9F       		.byte	0x9f
 6744 0407 00000000 		.4byte	0
 6745 040b 00000000 		.4byte	0
 6746              	.LLST44:
 6747 040f C6020000 		.4byte	.LVL53
 6748 0413 CC020000 		.4byte	.LVL54
 6749 0417 0200     		.2byte	0x2
 6750 0419 31       		.byte	0x31
 6751 041a 9F       		.byte	0x9f
 6752 041b 00000000 		.4byte	0
 6753 041f 00000000 		.4byte	0
 6754              	.LLST45:
ARM GAS  C:\Users\salaz\AppData\Local\Temp\ccI54lrI.s 			page 167


 6755 0423 C6020000 		.4byte	.LVL53
 6756 0427 CC020000 		.4byte	.LVL54
 6757 042b 0200     		.2byte	0x2
 6758 042d 33       		.byte	0x33
 6759 042e 9F       		.byte	0x9f
 6760 042f 00000000 		.4byte	0
 6761 0433 00000000 		.4byte	0
 6762              	.LLST46:
 6763 0437 C6020000 		.4byte	.LVL53
 6764 043b CC020000 		.4byte	.LVL54
 6765 043f 0600     		.2byte	0x6
 6766 0441 0C       		.byte	0xc
 6767 0442 80023240 		.4byte	0x40320280
 6768 0446 9F       		.byte	0x9f
 6769 0447 00000000 		.4byte	0
 6770 044b 00000000 		.4byte	0
 6771              	.LLST47:
 6772 044f CC020000 		.4byte	.LVL54
 6773 0453 D0020000 		.4byte	.LVL55
 6774 0457 0200     		.2byte	0x2
 6775 0459 30       		.byte	0x30
 6776 045a 9F       		.byte	0x9f
 6777 045b 00000000 		.4byte	0
 6778 045f 00000000 		.4byte	0
 6779              	.LLST48:
 6780 0463 CC020000 		.4byte	.LVL54
 6781 0467 D0020000 		.4byte	.LVL55
 6782 046b 0200     		.2byte	0x2
 6783 046d 35       		.byte	0x35
 6784 046e 9F       		.byte	0x9f
 6785 046f 00000000 		.4byte	0
 6786 0473 00000000 		.4byte	0
 6787              	.LLST49:
 6788 0477 CC020000 		.4byte	.LVL54
 6789 047b D0020000 		.4byte	.LVL55
 6790 047f 0600     		.2byte	0x6
 6791 0481 0C       		.byte	0xc
 6792 0482 80023240 		.4byte	0x40320280
 6793 0486 9F       		.byte	0x9f
 6794 0487 00000000 		.4byte	0
 6795 048b 00000000 		.4byte	0
 6796              	.LLST50:
 6797 048f D0020000 		.4byte	.LVL55
 6798 0493 D6020000 		.4byte	.LVL56
 6799 0497 0200     		.2byte	0x2
 6800 0499 30       		.byte	0x30
 6801 049a 9F       		.byte	0x9f
 6802 049b 00000000 		.4byte	0
 6803 049f 00000000 		.4byte	0
 6804              	.LLST51:
 6805 04a3 D0020000 		.4byte	.LVL55
 6806 04a7 D6020000 		.4byte	.LVL56
 6807 04ab 0200     		.2byte	0x2
 6808 04ad 36       		.byte	0x36
 6809 04ae 9F       		.byte	0x9f
 6810 04af 00000000 		.4byte	0
 6811 04b3 00000000 		.4byte	0
ARM GAS  C:\Users\salaz\AppData\Local\Temp\ccI54lrI.s 			page 168


 6812              	.LLST52:
 6813 04b7 D0020000 		.4byte	.LVL55
 6814 04bb D6020000 		.4byte	.LVL56
 6815 04bf 0600     		.2byte	0x6
 6816 04c1 0C       		.byte	0xc
 6817 04c2 00063240 		.4byte	0x40320600
 6818 04c6 9F       		.byte	0x9f
 6819 04c7 00000000 		.4byte	0
 6820 04cb 00000000 		.4byte	0
 6821              	.LLST53:
 6822 04cf F6020000 		.4byte	.LVL60
 6823 04d3 FC020000 		.4byte	.LVL61
 6824 04d7 0200     		.2byte	0x2
 6825 04d9 30       		.byte	0x30
 6826 04da 9F       		.byte	0x9f
 6827 04db 00000000 		.4byte	0
 6828 04df 00000000 		.4byte	0
 6829              	.LLST54:
 6830 04e3 F6020000 		.4byte	.LVL60
 6831 04e7 FC020000 		.4byte	.LVL61
 6832 04eb 0200     		.2byte	0x2
 6833 04ed 33       		.byte	0x33
 6834 04ee 9F       		.byte	0x9f
 6835 04ef 00000000 		.4byte	0
 6836 04f3 00000000 		.4byte	0
 6837              	.LLST55:
 6838 04f7 F6020000 		.4byte	.LVL60
 6839 04fb FC020000 		.4byte	.LVL61
 6840 04ff 0600     		.2byte	0x6
 6841 0501 0C       		.byte	0xc
 6842 0502 80023240 		.4byte	0x40320280
 6843 0506 9F       		.byte	0x9f
 6844 0507 00000000 		.4byte	0
 6845 050b 00000000 		.4byte	0
 6846              	.LLST56:
 6847 050f FC020000 		.4byte	.LVL61
 6848 0513 00030000 		.4byte	.LVL62
 6849 0517 0200     		.2byte	0x2
 6850 0519 31       		.byte	0x31
 6851 051a 9F       		.byte	0x9f
 6852 051b 00000000 		.4byte	0
 6853 051f 00000000 		.4byte	0
 6854              	.LLST57:
 6855 0523 FC020000 		.4byte	.LVL61
 6856 0527 00030000 		.4byte	.LVL62
 6857 052b 0200     		.2byte	0x2
 6858 052d 35       		.byte	0x35
 6859 052e 9F       		.byte	0x9f
 6860 052f 00000000 		.4byte	0
 6861 0533 00000000 		.4byte	0
 6862              	.LLST58:
 6863 0537 FC020000 		.4byte	.LVL61
 6864 053b 00030000 		.4byte	.LVL62
 6865 053f 0600     		.2byte	0x6
 6866 0541 0C       		.byte	0xc
 6867 0542 80023240 		.4byte	0x40320280
 6868 0546 9F       		.byte	0x9f
ARM GAS  C:\Users\salaz\AppData\Local\Temp\ccI54lrI.s 			page 169


 6869 0547 00000000 		.4byte	0
 6870 054b 00000000 		.4byte	0
 6871              	.LLST59:
 6872 054f 00030000 		.4byte	.LVL62
 6873 0553 06030000 		.4byte	.LVL63
 6874 0557 0200     		.2byte	0x2
 6875 0559 30       		.byte	0x30
 6876 055a 9F       		.byte	0x9f
 6877 055b 00000000 		.4byte	0
 6878 055f 00000000 		.4byte	0
 6879              	.LLST60:
 6880 0563 00030000 		.4byte	.LVL62
 6881 0567 06030000 		.4byte	.LVL63
 6882 056b 0200     		.2byte	0x2
 6883 056d 36       		.byte	0x36
 6884 056e 9F       		.byte	0x9f
 6885 056f 00000000 		.4byte	0
 6886 0573 00000000 		.4byte	0
 6887              	.LLST61:
 6888 0577 00030000 		.4byte	.LVL62
 6889 057b 06030000 		.4byte	.LVL63
 6890 057f 0600     		.2byte	0x6
 6891 0581 0C       		.byte	0xc
 6892 0582 00063240 		.4byte	0x40320600
 6893 0586 9F       		.byte	0x9f
 6894 0587 00000000 		.4byte	0
 6895 058b 00000000 		.4byte	0
 6896              	.LLST62:
 6897 058f 0E030000 		.4byte	.LVL65
 6898 0593 14030000 		.4byte	.LVL66
 6899 0597 0200     		.2byte	0x2
 6900 0599 30       		.byte	0x30
 6901 059a 9F       		.byte	0x9f
 6902 059b 00000000 		.4byte	0
 6903 059f 00000000 		.4byte	0
 6904              	.LLST63:
 6905 05a3 0E030000 		.4byte	.LVL65
 6906 05a7 14030000 		.4byte	.LVL66
 6907 05ab 0200     		.2byte	0x2
 6908 05ad 33       		.byte	0x33
 6909 05ae 9F       		.byte	0x9f
 6910 05af 00000000 		.4byte	0
 6911 05b3 00000000 		.4byte	0
 6912              	.LLST64:
 6913 05b7 0E030000 		.4byte	.LVL65
 6914 05bb 14030000 		.4byte	.LVL66
 6915 05bf 0600     		.2byte	0x6
 6916 05c1 0C       		.byte	0xc
 6917 05c2 80023240 		.4byte	0x40320280
 6918 05c6 9F       		.byte	0x9f
 6919 05c7 00000000 		.4byte	0
 6920 05cb 00000000 		.4byte	0
 6921              	.LLST65:
 6922 05cf 14030000 		.4byte	.LVL66
 6923 05d3 18030000 		.4byte	.LVL67
 6924 05d7 0200     		.2byte	0x2
 6925 05d9 30       		.byte	0x30
ARM GAS  C:\Users\salaz\AppData\Local\Temp\ccI54lrI.s 			page 170


 6926 05da 9F       		.byte	0x9f
 6927 05db 00000000 		.4byte	0
 6928 05df 00000000 		.4byte	0
 6929              	.LLST66:
 6930 05e3 14030000 		.4byte	.LVL66
 6931 05e7 18030000 		.4byte	.LVL67
 6932 05eb 0200     		.2byte	0x2
 6933 05ed 35       		.byte	0x35
 6934 05ee 9F       		.byte	0x9f
 6935 05ef 00000000 		.4byte	0
 6936 05f3 00000000 		.4byte	0
 6937              	.LLST67:
 6938 05f7 14030000 		.4byte	.LVL66
 6939 05fb 18030000 		.4byte	.LVL67
 6940 05ff 0600     		.2byte	0x6
 6941 0601 0C       		.byte	0xc
 6942 0602 80023240 		.4byte	0x40320280
 6943 0606 9F       		.byte	0x9f
 6944 0607 00000000 		.4byte	0
 6945 060b 00000000 		.4byte	0
 6946              	.LLST68:
 6947 060f 18030000 		.4byte	.LVL67
 6948 0613 60030000 		.4byte	.LVL68
 6949 0617 0200     		.2byte	0x2
 6950 0619 31       		.byte	0x31
 6951 061a 9F       		.byte	0x9f
 6952 061b 00000000 		.4byte	0
 6953 061f 00000000 		.4byte	0
 6954              	.LLST69:
 6955 0623 18030000 		.4byte	.LVL67
 6956 0627 60030000 		.4byte	.LVL68
 6957 062b 0200     		.2byte	0x2
 6958 062d 36       		.byte	0x36
 6959 062e 9F       		.byte	0x9f
 6960 062f 00000000 		.4byte	0
 6961 0633 00000000 		.4byte	0
 6962              	.LLST70:
 6963 0637 18030000 		.4byte	.LVL67
 6964 063b 60030000 		.4byte	.LVL68
 6965 063f 0600     		.2byte	0x6
 6966 0641 0C       		.byte	0xc
 6967 0642 00063240 		.4byte	0x40320600
 6968 0646 9F       		.byte	0x9f
 6969 0647 00000000 		.4byte	0
 6970 064b 00000000 		.4byte	0
 6971              	.LLST71:
 6972 064f 70030000 		.4byte	.LVL69
 6973 0653 76030000 		.4byte	.LVL70
 6974 0657 0200     		.2byte	0x2
 6975 0659 30       		.byte	0x30
 6976 065a 9F       		.byte	0x9f
 6977 065b 00000000 		.4byte	0
 6978 065f 00000000 		.4byte	0
 6979              	.LLST72:
 6980 0663 70030000 		.4byte	.LVL69
 6981 0667 76030000 		.4byte	.LVL70
 6982 066b 0200     		.2byte	0x2
ARM GAS  C:\Users\salaz\AppData\Local\Temp\ccI54lrI.s 			page 171


 6983 066d 33       		.byte	0x33
 6984 066e 9F       		.byte	0x9f
 6985 066f 00000000 		.4byte	0
 6986 0673 00000000 		.4byte	0
 6987              	.LLST73:
 6988 0677 70030000 		.4byte	.LVL69
 6989 067b 76030000 		.4byte	.LVL70
 6990 067f 0600     		.2byte	0x6
 6991 0681 0C       		.byte	0xc
 6992 0682 80023240 		.4byte	0x40320280
 6993 0686 9F       		.byte	0x9f
 6994 0687 00000000 		.4byte	0
 6995 068b 00000000 		.4byte	0
 6996              	.LLST74:
 6997 068f 76030000 		.4byte	.LVL70
 6998 0693 7A030000 		.4byte	.LVL71
 6999 0697 0200     		.2byte	0x2
 7000 0699 30       		.byte	0x30
 7001 069a 9F       		.byte	0x9f
 7002 069b 00000000 		.4byte	0
 7003 069f 00000000 		.4byte	0
 7004              	.LLST75:
 7005 06a3 76030000 		.4byte	.LVL70
 7006 06a7 7A030000 		.4byte	.LVL71
 7007 06ab 0200     		.2byte	0x2
 7008 06ad 35       		.byte	0x35
 7009 06ae 9F       		.byte	0x9f
 7010 06af 00000000 		.4byte	0
 7011 06b3 00000000 		.4byte	0
 7012              	.LLST76:
 7013 06b7 76030000 		.4byte	.LVL70
 7014 06bb 7A030000 		.4byte	.LVL71
 7015 06bf 0600     		.2byte	0x6
 7016 06c1 0C       		.byte	0xc
 7017 06c2 80023240 		.4byte	0x40320280
 7018 06c6 9F       		.byte	0x9f
 7019 06c7 00000000 		.4byte	0
 7020 06cb 00000000 		.4byte	0
 7021              	.LLST77:
 7022 06cf 7A030000 		.4byte	.LVL71
 7023 06d3 80030000 		.4byte	.LVL72
 7024 06d7 0200     		.2byte	0x2
 7025 06d9 31       		.byte	0x31
 7026 06da 9F       		.byte	0x9f
 7027 06db 00000000 		.4byte	0
 7028 06df 00000000 		.4byte	0
 7029              	.LLST78:
 7030 06e3 7A030000 		.4byte	.LVL71
 7031 06e7 80030000 		.4byte	.LVL72
 7032 06eb 0200     		.2byte	0x2
 7033 06ed 36       		.byte	0x36
 7034 06ee 9F       		.byte	0x9f
 7035 06ef 00000000 		.4byte	0
 7036 06f3 00000000 		.4byte	0
 7037              	.LLST79:
 7038 06f7 7A030000 		.4byte	.LVL71
 7039 06fb 80030000 		.4byte	.LVL72
ARM GAS  C:\Users\salaz\AppData\Local\Temp\ccI54lrI.s 			page 172


 7040 06ff 0600     		.2byte	0x6
 7041 0701 0C       		.byte	0xc
 7042 0702 00063240 		.4byte	0x40320600
 7043 0706 9F       		.byte	0x9f
 7044 0707 00000000 		.4byte	0
 7045 070b 00000000 		.4byte	0
 7046              	.LLST80:
 7047 070f F4030000 		.4byte	.LVL82
 7048 0713 FA030000 		.4byte	.LVL83
 7049 0717 0200     		.2byte	0x2
 7050 0719 30       		.byte	0x30
 7051 071a 9F       		.byte	0x9f
 7052 071b 00000000 		.4byte	0
 7053 071f 00000000 		.4byte	0
 7054              	.LLST81:
 7055 0723 F4030000 		.4byte	.LVL82
 7056 0727 FA030000 		.4byte	.LVL83
 7057 072b 0200     		.2byte	0x2
 7058 072d 33       		.byte	0x33
 7059 072e 9F       		.byte	0x9f
 7060 072f 00000000 		.4byte	0
 7061 0733 00000000 		.4byte	0
 7062              	.LLST82:
 7063 0737 F4030000 		.4byte	.LVL82
 7064 073b FA030000 		.4byte	.LVL83
 7065 073f 0600     		.2byte	0x6
 7066 0741 0C       		.byte	0xc
 7067 0742 80023240 		.4byte	0x40320280
 7068 0746 9F       		.byte	0x9f
 7069 0747 00000000 		.4byte	0
 7070 074b 00000000 		.4byte	0
 7071              	.LLST83:
 7072 074f FA030000 		.4byte	.LVL83
 7073 0753 FE030000 		.4byte	.LVL84
 7074 0757 0200     		.2byte	0x2
 7075 0759 30       		.byte	0x30
 7076 075a 9F       		.byte	0x9f
 7077 075b 00000000 		.4byte	0
 7078 075f 00000000 		.4byte	0
 7079              	.LLST84:
 7080 0763 FA030000 		.4byte	.LVL83
 7081 0767 FE030000 		.4byte	.LVL84
 7082 076b 0200     		.2byte	0x2
 7083 076d 35       		.byte	0x35
 7084 076e 9F       		.byte	0x9f
 7085 076f 00000000 		.4byte	0
 7086 0773 00000000 		.4byte	0
 7087              	.LLST85:
 7088 0777 FA030000 		.4byte	.LVL83
 7089 077b FE030000 		.4byte	.LVL84
 7090 077f 0600     		.2byte	0x6
 7091 0781 0C       		.byte	0xc
 7092 0782 80023240 		.4byte	0x40320280
 7093 0786 9F       		.byte	0x9f
 7094 0787 00000000 		.4byte	0
 7095 078b 00000000 		.4byte	0
 7096              	.LLST86:
ARM GAS  C:\Users\salaz\AppData\Local\Temp\ccI54lrI.s 			page 173


 7097 078f FE030000 		.4byte	.LVL84
 7098 0793 04040000 		.4byte	.LVL85
 7099 0797 0200     		.2byte	0x2
 7100 0799 31       		.byte	0x31
 7101 079a 9F       		.byte	0x9f
 7102 079b 00000000 		.4byte	0
 7103 079f 00000000 		.4byte	0
 7104              	.LLST87:
 7105 07a3 FE030000 		.4byte	.LVL84
 7106 07a7 04040000 		.4byte	.LVL85
 7107 07ab 0200     		.2byte	0x2
 7108 07ad 36       		.byte	0x36
 7109 07ae 9F       		.byte	0x9f
 7110 07af 00000000 		.4byte	0
 7111 07b3 00000000 		.4byte	0
 7112              	.LLST88:
 7113 07b7 FE030000 		.4byte	.LVL84
 7114 07bb 04040000 		.4byte	.LVL85
 7115 07bf 0600     		.2byte	0x6
 7116 07c1 0C       		.byte	0xc
 7117 07c2 00063240 		.4byte	0x40320600
 7118 07c6 9F       		.byte	0x9f
 7119 07c7 00000000 		.4byte	0
 7120 07cb 00000000 		.4byte	0
 7121              	.LLST89:
 7122 07cf 4C040000 		.4byte	.LVL91
 7123 07d3 54040000 		.4byte	.LVL92
 7124 07d7 0100     		.2byte	0x1
 7125 07d9 52       		.byte	0x52
 7126 07da 00000000 		.4byte	0
 7127 07de 00000000 		.4byte	0
 7128              		.section	.debug_aranges,"",%progbits
 7129 0000 1C000000 		.4byte	0x1c
 7130 0004 0200     		.2byte	0x2
 7131 0006 00000000 		.4byte	.Ldebug_info0
 7132 000a 04       		.byte	0x4
 7133 000b 00       		.byte	0
 7134 000c 0000     		.2byte	0
 7135 000e 0000     		.2byte	0
 7136 0010 00000000 		.4byte	.LFB792
 7137 0014 7C040000 		.4byte	.LFE792-.LFB792
 7138 0018 00000000 		.4byte	0
 7139 001c 00000000 		.4byte	0
 7140              		.section	.debug_ranges,"",%progbits
 7141              	.Ldebug_ranges0:
 7142 0000 00000000 		.4byte	.LFB792
 7143 0004 7C040000 		.4byte	.LFE792
 7144 0008 00000000 		.4byte	0
 7145 000c 00000000 		.4byte	0
 7146              		.section	.debug_line,"",%progbits
 7147              	.Ldebug_line0:
 7148 0000 CB060000 		.section	.debug_str,"MS",%progbits,1
 7148      02001305 
 7148      00000201 
 7148      FB0E0D00 
 7148      01010101 
 7149              	.LASF596:
ARM GAS  C:\Users\salaz\AppData\Local\Temp\ccI54lrI.s 			page 174


 7150 0000 5A49475A 		.ascii	"ZIGZAG\000"
 7150      414700
 7151              	.LASF209:
 7152 0007 52534552 		.ascii	"RSERVED1\000"
 7152      56454431 
 7152      00
 7153              	.LASF452:
 7154 0010 43595F42 		.ascii	"CY_BLE_EVT_PENDING_FLASH_WRITE\000"
 7154      4C455F45 
 7154      56545F50 
 7154      454E4449 
 7154      4E475F46 
 7155              	.LASF532:
 7156 002f 43595F42 		.ascii	"CY_BLE_EVT_GATTC_READ_BY_TYPE_RSP\000"
 7156      4C455F45 
 7156      56545F47 
 7156      41545443 
 7156      5F524541 
 7157              	.LASF663:
 7158 0051 41707043 		.ascii	"AppControlHandler\000"
 7158      6F6E7472 
 7158      6F6C4861 
 7158      6E646C65 
 7158      7200
 7159              	.LASF607:
 7160 0063 46534D5F 		.ascii	"FSM_DAY\000"
 7160      44415900 
 7161              	.LASF654:
 7162 006b 4B696E4F 		.ascii	"KinOS_SetupTimerA\000"
 7162      535F5365 
 7162      74757054 
 7162      696D6572 
 7162      4100
 7163              	.LASF655:
 7164 007d 4B696E4F 		.ascii	"KinOS_SetupTimerB\000"
 7164      535F5365 
 7164      74757054 
 7164      696D6572 
 7164      4200
 7165              	.LASF588:
 7166 008f 4359414E 		.ascii	"CYAN\000"
 7166      00
 7167              	.LASF215:
 7168 0094 73697A65 		.ascii	"sizetype\000"
 7168      74797065 
 7168      00
 7169              	.LASF547:
 7170 009d 43595F42 		.ascii	"CY_BLE_EVT_GATTS_DATA_SIGNED_CMD_REQ\000"
 7170      4C455F45 
 7170      56545F47 
 7170      41545453 
 7170      5F444154 
 7171              	.LASF386:
 7172 00c2 43595F53 		.ascii	"CY_SCB_UART_SMARTCARD\000"
 7172      43425F55 
 7172      4152545F 
 7172      534D4152 
ARM GAS  C:\Users\salaz\AppData\Local\Temp\ccI54lrI.s 			page 175


 7172      54434152 
 7173              	.LASF480:
 7174 00d8 43595F42 		.ascii	"CY_BLE_EVT_SET_DEVICE_ADDR_COMPLETE\000"
 7174      4C455F45 
 7174      56545F53 
 7174      45545F44 
 7174      45564943 
 7175              	.LASF269:
 7176 00fc 52585F4D 		.ascii	"RX_MATCH\000"
 7176      41544348 
 7176      00
 7177              	.LASF173:
 7178 0105 7564625F 		.ascii	"udb_interrupts_12_IRQn\000"
 7178      696E7465 
 7178      72727570 
 7178      74735F31 
 7178      325F4952 
 7179              	.LASF7:
 7180 011c 4E766963 		.ascii	"NvicMux1_IRQn\000"
 7180      4D757831 
 7180      5F495251 
 7180      6E00
 7181              	.LASF432:
 7182 012a 63795F73 		.ascii	"cy_stc_scb_uart_context\000"
 7182      74635F73 
 7182      63625F75 
 7182      6172745F 
 7182      636F6E74 
 7183              	.LASF52:
 7184 0142 696F7373 		.ascii	"ioss_interrupts_gpio_13_IRQn\000"
 7184      5F696E74 
 7184      65727275 
 7184      7074735F 
 7184      6770696F 
 7185              	.LASF608:
 7186 015f 46534D5F 		.ascii	"FSM_NIGHT\000"
 7186      4E494748 
 7186      5400
 7187              	.LASF248:
 7188 0169 55415254 		.ascii	"UART_CTRL\000"
 7188      5F435452 
 7188      4C00
 7189              	.LASF330:
 7190 0173 63617074 		.ascii	"captureInputMode\000"
 7190      75726549 
 7190      6E707574 
 7190      4D6F6465 
 7190      00
 7191              	.LASF439:
 7192 0184 72784275 		.ascii	"rxBuf\000"
 7192      6600
 7193              	.LASF479:
 7194 018a 43595F42 		.ascii	"CY_BLE_EVT_SOFT_RESET_COMPLETE\000"
 7194      4C455F45 
 7194      56545F53 
 7194      4F46545F 
 7194      52455345 
ARM GAS  C:\Users\salaz\AppData\Local\Temp\ccI54lrI.s 			page 176


 7195              	.LASF204:
 7196 01a9 696E7433 		.ascii	"int32_t\000"
 7196      325F7400 
 7197              	.LASF486:
 7198 01b1 43595F42 		.ascii	"CY_BLE_EVT_SET_CLK_CONFIG_COMPLETE\000"
 7198      4C455F45 
 7198      56545F53 
 7198      45545F43 
 7198      4C4B5F43 
 7199              	.LASF130:
 7200 01d4 74637077 		.ascii	"tcpwm_0_interrupts_1_IRQn\000"
 7200      6D5F305F 
 7200      696E7465 
 7200      72727570 
 7200      74735F31 
 7201              	.LASF13:
 7202 01ee 4E766963 		.ascii	"NvicMux7_IRQn\000"
 7202      4D757837 
 7202      5F495251 
 7202      6E00
 7203              	.LASF36:
 7204 01fc 4E766963 		.ascii	"NvicMux30_IRQn\000"
 7204      4D757833 
 7204      305F4952 
 7204      516E00
 7205              	.LASF485:
 7206 020b 43595F42 		.ascii	"CY_BLE_EVT_GET_CLK_CONFIG_COMPLETE\000"
 7206      4C455F45 
 7206      56545F47 
 7206      45545F43 
 7206      4C4B5F43 
 7207              	.LASF577:
 7208 022e 43595F42 		.ascii	"CY_BLE_CONN_STATE_CLIENT_DESCR_DISCOVERING\000"
 7208      4C455F43 
 7208      4F4E4E5F 
 7208      53544154 
 7208      455F434C 
 7209              	.LASF543:
 7210 0259 43595F42 		.ascii	"CY_BLE_EVT_GATTC_EXEC_WRITE_RSP\000"
 7210      4C455F45 
 7210      56545F47 
 7210      41545443 
 7210      5F455845 
 7211              	.LASF315:
 7212 0279 75696E74 		.ascii	"uint32\000"
 7212      333200
 7213              	.LASF68:
 7214 0280 63707573 		.ascii	"cpuss_interrupts_ipc_4_IRQn\000"
 7214      735F696E 
 7214      74657272 
 7214      75707473 
 7214      5F697063 
 7215              	.LASF136:
 7216 029c 74637077 		.ascii	"tcpwm_0_interrupts_7_IRQn\000"
 7216      6D5F305F 
 7216      696E7465 
 7216      72727570 
ARM GAS  C:\Users\salaz\AppData\Local\Temp\ccI54lrI.s 			page 177


 7216      74735F37 
 7217              	.LASF44:
 7218 02b6 696F7373 		.ascii	"ioss_interrupts_gpio_5_IRQn\000"
 7218      5F696E74 
 7218      65727275 
 7218      7074735F 
 7218      6770696F 
 7219              	.LASF653:
 7220 02d2 4B696E4F 		.ascii	"KinOS_ConfigureLight\000"
 7220      535F436F 
 7220      6E666967 
 7220      7572654C 
 7220      69676874 
 7221              	.LASF454:
 7222 02e7 43595F42 		.ascii	"CY_BLE_EVT_HARDWARE_ERROR\000"
 7222      4C455F45 
 7222      56545F48 
 7222      41524457 
 7222      4152455F 
 7223              	.LASF85:
 7224 0301 7363625F 		.ascii	"scb_5_interrupt_IRQn\000"
 7224      355F696E 
 7224      74657272 
 7224      7570745F 
 7224      4952516E 
 7225              	.LASF409:
 7226 0316 656E6162 		.ascii	"enableMsbFirst\000"
 7226      6C654D73 
 7226      62466972 
 7226      737400
 7227              	.LASF61:
 7228 0325 73727373 		.ascii	"srss_interrupt_IRQn\000"
 7228      5F696E74 
 7228      65727275 
 7228      70745F49 
 7228      52516E00 
 7229              	.LASF433:
 7230 0339 74785374 		.ascii	"txStatus\000"
 7230      61747573 
 7230      00
 7231              	.LASF562:
 7232 0342 43595F42 		.ascii	"CY_BLE_EVT_MAX\000"
 7232      4C455F45 
 7232      56545F4D 
 7232      415800
 7233              	.LASF174:
 7234 0351 7564625F 		.ascii	"udb_interrupts_13_IRQn\000"
 7234      696E7465 
 7234      72727570 
 7234      74735F31 
 7234      335F4952 
 7235              	.LASF143:
 7236 0368 74637077 		.ascii	"tcpwm_1_interrupts_6_IRQn\000"
 7236      6D5F315F 
 7236      696E7465 
 7236      72727570 
 7236      74735F36 
ARM GAS  C:\Users\salaz\AppData\Local\Temp\ccI54lrI.s 			page 178


 7237              	.LASF124:
 7238 0382 63707573 		.ascii	"cpuss_interrupt_fm_IRQn\000"
 7238      735F696E 
 7238      74657272 
 7238      7570745F 
 7238      666D5F49 
 7239              	.LASF365:
 7240 039a 73746174 		.ascii	"state\000"
 7240      6500
 7241              	.LASF164:
 7242 03a0 7564625F 		.ascii	"udb_interrupts_3_IRQn\000"
 7242      696E7465 
 7242      72727570 
 7242      74735F33 
 7242      5F495251 
 7243              	.LASF590:
 7244 03b6 4D414745 		.ascii	"MAGENTA\000"
 7244      4E544100 
 7245              	.LASF218:
 7246 03be 4F55545F 		.ascii	"OUT_SET\000"
 7246      53455400 
 7247              	.LASF664:
 7248 03c6 70757473 		.ascii	"puts\000"
 7248      00
 7249              	.LASF217:
 7250 03cb 4F55545F 		.ascii	"OUT_CLR\000"
 7250      434C5200 
 7251              	.LASF288:
 7252 03d3 494E5452 		.ascii	"INTR_M\000"
 7252      5F4D00
 7253              	.LASF428:
 7254 03da 72784669 		.ascii	"rxFifoIntEnableMask\000"
 7254      666F496E 
 7254      74456E61 
 7254      626C654D 
 7254      61736B00 
 7255              	.LASF6:
 7256 03ee 4E766963 		.ascii	"NvicMux0_IRQn\000"
 7256      4D757830 
 7256      5F495251 
 7256      6E00
 7257              	.LASF326:
 7258 03fc 636F6D70 		.ascii	"compare0\000"
 7258      61726530 
 7258      00
 7259              	.LASF327:
 7260 0405 636F6D70 		.ascii	"compare1\000"
 7260      61726531 
 7260      00
 7261              	.LASF180:
 7262 040e 70726F66 		.ascii	"profile_interrupt_IRQn\000"
 7262      696C655F 
 7262      696E7465 
 7262      72727570 
 7262      745F4952 
 7263              	.LASF51:
 7264 0425 696F7373 		.ascii	"ioss_interrupts_gpio_12_IRQn\000"
ARM GAS  C:\Users\salaz\AppData\Local\Temp\ccI54lrI.s 			page 179


 7264      5F696E74 
 7264      65727275 
 7264      7074735F 
 7264      6770696F 
 7265              	.LASF100:
 7266 0442 63707573 		.ascii	"cpuss_interrupts_dw0_11_IRQn\000"
 7266      735F696E 
 7266      74657272 
 7266      75707473 
 7266      5F647730 
 7267              	.LASF427:
 7268 045f 72784669 		.ascii	"rxFifoTriggerLevel\000"
 7268      666F5472 
 7268      69676765 
 7268      724C6576 
 7268      656C00
 7269              	.LASF186:
 7270 0472 64697363 		.ascii	"disconnected_IRQn\000"
 7270      6F6E6E65 
 7270      63746564 
 7270      5F495251 
 7270      6E00
 7271              	.LASF651:
 7272 0484 4B696E4F 		.ascii	"KinOS_IsConnected\000"
 7272      535F4973 
 7272      436F6E6E 
 7272      65637465 
 7272      6400
 7273              	.LASF181:
 7274 0496 736D6966 		.ascii	"smif_interrupt_IRQn\000"
 7274      5F696E74 
 7274      65727275 
 7274      70745F49 
 7274      52516E00 
 7275              	.LASF151:
 7276 04aa 74637077 		.ascii	"tcpwm_1_interrupts_14_IRQn\000"
 7276      6D5F315F 
 7276      696E7465 
 7276      72727570 
 7276      74735F31 
 7277              	.LASF221:
 7278 04c5 494E5452 		.ascii	"INTR_MASK\000"
 7278      5F4D4153 
 7278      4B00
 7279              	.LASF478:
 7280 04cf 43595F42 		.ascii	"CY_BLE_EVT_LL_CNTRL_PROC_PENDING_COMPLETE\000"
 7280      4C455F45 
 7280      56545F4C 
 7280      4C5F434E 
 7280      54524C5F 
 7281              	.LASF120:
 7282 04f9 63707573 		.ascii	"cpuss_interrupts_dw1_15_IRQn\000"
 7282      735F696E 
 7282      74657272 
 7282      75707473 
 7282      5F647731 
 7283              	.LASF338:
ARM GAS  C:\Users\salaz\AppData\Local\Temp\ccI54lrI.s 			page 180


 7284 0516 636F756E 		.ascii	"countInputMode\000"
 7284      74496E70 
 7284      75744D6F 
 7284      646500
 7285              	.LASF303:
 7286 0525 494E5452 		.ascii	"INTR_RX\000"
 7286      5F525800 
 7287              	.LASF212:
 7288 052d 49435052 		.ascii	"ICPR\000"
 7288      00
 7289              	.LASF257:
 7290 0532 4932435F 		.ascii	"I2C_CFG\000"
 7290      43464700 
 7291              	.LASF603:
 7292 053a 46534D5F 		.ascii	"FSM_IDLE\000"
 7292      49444C45 
 7292      00
 7293              	.LASF356:
 7294 0543 63795F73 		.ascii	"cy_stc_tcpwm_pwm_config_t\000"
 7294      74635F74 
 7294      6370776D 
 7294      5F70776D 
 7294      5F636F6E 
 7295              	.LASF93:
 7296 055d 63707573 		.ascii	"cpuss_interrupts_dw0_4_IRQn\000"
 7296      735F696E 
 7296      74657272 
 7296      75707473 
 7296      5F647730 
 7297              	.LASF616:
 7298 0579 5F5F4E56 		.ascii	"__NVIC_ClearPendingIRQ\000"
 7298      49435F43 
 7298      6C656172 
 7298      50656E64 
 7298      696E6749 
 7299              	.LASF638:
 7300 0590 4368696D 		.ascii	"ChimeOutput_config\000"
 7300      654F7574 
 7300      7075745F 
 7300      636F6E66 
 7300      696700
 7301              	.LASF521:
 7302 05a3 43595F42 		.ascii	"CY_BLE_EVT_GAP_GEN_SET_LOCAL_P256_KEYS_COMPLETE\000"
 7302      4C455F45 
 7302      56545F47 
 7302      41505F47 
 7302      454E5F53 
 7303              	.LASF67:
 7304 05d3 63707573 		.ascii	"cpuss_interrupts_ipc_3_IRQn\000"
 7304      735F696E 
 7304      74657272 
 7304      75707473 
 7304      5F697063 
 7305              	.LASF135:
 7306 05ef 74637077 		.ascii	"tcpwm_0_interrupts_6_IRQn\000"
 7306      6D5F305F 
 7306      696E7465 
ARM GAS  C:\Users\salaz\AppData\Local\Temp\ccI54lrI.s 			page 181


 7306      72727570 
 7306      74735F36 
 7307              	.LASF168:
 7308 0609 7564625F 		.ascii	"udb_interrupts_7_IRQn\000"
 7308      696E7465 
 7308      72727570 
 7308      74735F37 
 7308      5F495251 
 7309              	.LASF43:
 7310 061f 696F7373 		.ascii	"ioss_interrupts_gpio_4_IRQn\000"
 7310      5F696E74 
 7310      65727275 
 7310      7074735F 
 7310      6770696F 
 7311              	.LASF550:
 7312 063b 43595F42 		.ascii	"CY_BLE_EVT_GATTC_LONG_PROCEDURE_END\000"
 7312      4C455F45 
 7312      56545F47 
 7312      41545443 
 7312      5F4C4F4E 
 7313              	.LASF19:
 7314 065f 4E766963 		.ascii	"NvicMux13_IRQn\000"
 7314      4D757831 
 7314      335F4952 
 7314      516E00
 7315              	.LASF267:
 7316 066e 52585F46 		.ascii	"RX_FIFO_STATUS\000"
 7316      49464F5F 
 7316      53544154 
 7316      555300
 7317              	.LASF555:
 7318 067d 43595F42 		.ascii	"CY_BLE_EVT_L2CAP_CBFC_CONN_CNF\000"
 7318      4C455F45 
 7318      56545F4C 
 7318      32434150 
 7318      5F434246 
 7319              	.LASF563:
 7320 069c 62644861 		.ascii	"bdHandle\000"
 7320      6E646C65 
 7320      00
 7321              	.LASF192:
 7322 06a5 5F5F7569 		.ascii	"__uint8_t\000"
 7322      6E74385F 
 7322      7400
 7323              	.LASF108:
 7324 06af 63707573 		.ascii	"cpuss_interrupts_dw1_3_IRQn\000"
 7324      735F696E 
 7324      74657272 
 7324      75707473 
 7324      5F647731 
 7325              	.LASF316:
 7326 06cb 696E7472 		.ascii	"intrSrc\000"
 7326      53726300 
 7327              	.LASF305:
 7328 06d3 494E5452 		.ascii	"INTR_RX_MASK\000"
 7328      5F52585F 
 7328      4D41534B 
ARM GAS  C:\Users\salaz\AppData\Local\Temp\ccI54lrI.s 			page 182


 7328      00
 7329              	.LASF363:
 7330 06e0 75736552 		.ascii	"useRxFifo\000"
 7330      78466966 
 7330      6F00
 7331              	.LASF414:
 7332 06ea 64726F70 		.ascii	"dropOnFrameError\000"
 7332      4F6E4672 
 7332      616D6545 
 7332      72726F72 
 7332      00
 7333              	.LASF545:
 7334 06fb 43595F42 		.ascii	"CY_BLE_EVT_GATTC_HANDLE_VALUE_IND\000"
 7334      4C455F45 
 7334      56545F47 
 7334      41545443 
 7334      5F48414E 
 7335              	.LASF353:
 7336 071d 73776170 		.ascii	"swapInput\000"
 7336      496E7075 
 7336      7400
 7337              	.LASF443:
 7338 0727 74784275 		.ascii	"txBufSize\000"
 7338      6653697A 
 7338      6500
 7339              	.LASF450:
 7340 0731 43595F42 		.ascii	"CY_BLE_EVT_STACK_BUSY_STATUS\000"
 7340      4C455F45 
 7340      56545F53 
 7340      5441434B 
 7340      5F425553 
 7341              	.LASF196:
 7342 074e 6C6F6E67 		.ascii	"long int\000"
 7342      20696E74 
 7342      00
 7343              	.LASF232:
 7344 0757 494E5452 		.ascii	"INTR_CAUSE0\000"
 7344      5F434155 
 7344      53453000 
 7345              	.LASF529:
 7346 0763 43595F42 		.ascii	"CY_BLE_EVT_GATTS_XCNHG_MTU_REQ\000"
 7346      4C455F45 
 7346      56545F47 
 7346      41545453 
 7346      5F58434E 
 7347              	.LASF234:
 7348 0782 494E5452 		.ascii	"INTR_CAUSE2\000"
 7348      5F434155 
 7348      53453200 
 7349              	.LASF235:
 7350 078e 494E5452 		.ascii	"INTR_CAUSE3\000"
 7350      5F434155 
 7350      53453300 
 7351              	.LASF496:
 7352 079a 43595F42 		.ascii	"CY_BLE_EVT_SET_EVENT_MASK_COMPLETE\000"
 7352      4C455F45 
 7352      56545F53 
ARM GAS  C:\Users\salaz\AppData\Local\Temp\ccI54lrI.s 			page 183


 7352      45545F45 
 7352      56454E54 
 7353              	.LASF578:
 7354 07bd 43595F42 		.ascii	"CY_BLE_CONN_STATE_CLIENT_DISCOVERED\000"
 7354      4C455F43 
 7354      4F4E4E5F 
 7354      53544154 
 7354      455F434C 
 7355              	.LASF642:
 7356 07e1 72696465 		.ascii	"rideNightCheck_ms\000"
 7356      4E696768 
 7356      74436865 
 7356      636B5F6D 
 7356      7300
 7357              	.LASF161:
 7358 07f3 7564625F 		.ascii	"udb_interrupts_0_IRQn\000"
 7358      696E7465 
 7358      72727570 
 7358      74735F30 
 7358      5F495251 
 7359              	.LASF250:
 7360 0809 55415254 		.ascii	"UART_RX_CTRL\000"
 7360      5F52585F 
 7360      4354524C 
 7360      00
 7361              	.LASF150:
 7362 0816 74637077 		.ascii	"tcpwm_1_interrupts_13_IRQn\000"
 7362      6D5F315F 
 7362      696E7465 
 7362      72727570 
 7362      74735F31 
 7363              	.LASF538:
 7364 0831 43595F42 		.ascii	"CY_BLE_EVT_GATTS_WRITE_REQ\000"
 7364      4C455F45 
 7364      56545F47 
 7364      41545453 
 7364      5F575249 
 7365              	.LASF614:
 7366 084c 76616C75 		.ascii	"value\000"
 7366      6500
 7367              	.LASF246:
 7368 0852 5350495F 		.ascii	"SPI_CTRL\000"
 7368      4354524C 
 7368      00
 7369              	.LASF641:
 7370 085b 6E696768 		.ascii	"nightThreshold\000"
 7370      74546872 
 7370      6573686F 
 7370      6C6400
 7371              	.LASF29:
 7372 086a 4E766963 		.ascii	"NvicMux23_IRQn\000"
 7372      4D757832 
 7372      335F4952 
 7372      516E00
 7373              	.LASF332:
 7374 0879 72656C6F 		.ascii	"reloadInputMode\000"
 7374      6164496E 
ARM GAS  C:\Users\salaz\AppData\Local\Temp\ccI54lrI.s 			page 184


 7374      7075744D 
 7374      6F646500 
 7375              	.LASF585:
 7376 0889 65706F63 		.ascii	"epoch\000"
 7376      6800
 7377              	.LASF298:
 7378 088f 494E5452 		.ascii	"INTR_TX\000"
 7378      5F545800 
 7379              	.LASF301:
 7380 0897 494E5452 		.ascii	"INTR_TX_MASKED\000"
 7380      5F54585F 
 7380      4D41534B 
 7380      454400
 7381              	.LASF617:
 7382 08a6 4952516E 		.ascii	"IRQn\000"
 7382      00
 7383              	.LASF586:
 7384 08ab 59454C4C 		.ascii	"YELLOW\000"
 7384      4F5700
 7385              	.LASF118:
 7386 08b2 63707573 		.ascii	"cpuss_interrupts_dw1_13_IRQn\000"
 7386      735F696E 
 7386      74657272 
 7386      75707473 
 7386      5F647731 
 7387              	.LASF477:
 7388 08cf 43595F42 		.ascii	"CY_BLE_EVT_SET_PRIVACY_MODE_COMPLETE\000"
 7388      4C455F45 
 7388      56545F53 
 7388      45545F50 
 7388      52495641 
 7389              	.LASF220:
 7390 08f4 494E5452 		.ascii	"INTR\000"
 7390      00
 7391              	.LASF75:
 7392 08f9 63707573 		.ascii	"cpuss_interrupts_ipc_11_IRQn\000"
 7392      735F696E 
 7392      74657272 
 7392      75707473 
 7392      5F697063 
 7393              	.LASF508:
 7394 0916 43595F42 		.ascii	"CY_BLE_EVT_GAP_ENCRYPT_CHANGE\000"
 7394      4C455F45 
 7394      56545F47 
 7394      41505F45 
 7394      4E435259 
 7395              	.LASF522:
 7396 0934 43595F42 		.ascii	"CY_BLE_EVT_GAP_CREATE_CONN_CANCEL_COMPLETE\000"
 7396      4C455F45 
 7396      56545F47 
 7396      41505F43 
 7396      52454154 
 7397              	.LASF468:
 7398 095f 43595F42 		.ascii	"CY_BLE_EVT_SET_HOST_CHANNEL_COMPLETE\000"
 7398      4C455F45 
 7398      56545F53 
 7398      45545F48 
ARM GAS  C:\Users\salaz\AppData\Local\Temp\ccI54lrI.s 			page 185


 7398      4F53545F 
 7399              	.LASF629:
 7400 0984 55415254 		.ascii	"UART_DEBUG_config\000"
 7400      5F444542 
 7400      55475F63 
 7400      6F6E6669 
 7400      6700
 7401              	.LASF650:
 7402 0996 4B696E4F 		.ascii	"KinOS_CheckTimerA\000"
 7402      535F4368 
 7402      65636B54 
 7402      696D6572 
 7402      4100
 7403              	.LASF649:
 7404 09a8 4B696E4F 		.ascii	"KinOS_CheckTimerB\000"
 7404      535F4368 
 7404      65636B54 
 7404      696D6572 
 7404      4200
 7405              	.LASF627:
 7406 09ba 63795F62 		.ascii	"cy_ble_pendingFlashWrite\000"
 7406      6C655F70 
 7406      656E6469 
 7406      6E67466C 
 7406      61736857 
 7407              	.LASF304:
 7408 09d3 494E5452 		.ascii	"INTR_RX_SET\000"
 7408      5F52585F 
 7408      53455400 
 7409              	.LASF567:
 7410 09df 43595F42 		.ascii	"CY_BLE_ADV_STATE_ADV_INITIATED\000"
 7410      4C455F41 
 7410      44565F53 
 7410      54415445 
 7410      5F414456 
 7411              	.LASF449:
 7412 09fe 43595F42 		.ascii	"CY_BLE_EVT_TIMEOUT\000"
 7412      4C455F45 
 7412      56545F54 
 7412      494D454F 
 7412      555400
 7413              	.LASF107:
 7414 0a11 63707573 		.ascii	"cpuss_interrupts_dw1_2_IRQn\000"
 7414      735F696E 
 7414      74657272 
 7414      75707473 
 7414      5F647731 
 7415              	.LASF229:
 7416 0a2d 4346475F 		.ascii	"CFG_IN_GPIO5V\000"
 7416      494E5F47 
 7416      50494F35 
 7416      5600
 7417              	.LASF5:
 7418 0a3b 53797354 		.ascii	"SysTick_IRQn\000"
 7418      69636B5F 
 7418      4952516E 
 7418      00
ARM GAS  C:\Users\salaz\AppData\Local\Temp\ccI54lrI.s 			page 186


 7419              	.LASF587:
 7420 0a48 47524545 		.ascii	"GREEN\000"
 7420      4E00
 7421              	.LASF634:
 7422 0a4e 4C696768 		.ascii	"LightTimer_config\000"
 7422      7454696D 
 7422      65725F63 
 7422      6F6E6669 
 7422      6700
 7423              	.LASF470:
 7424 0a60 43595F42 		.ascii	"CY_BLE_EVT_REMOVE_DEVICE_FROM_RPA_LIST_COMPLETE\000"
 7424      4C455F45 
 7424      56545F52 
 7424      454D4F56 
 7424      455F4445 
 7425              	.LASF255:
 7426 0a90 4932435F 		.ascii	"I2C_M_CMD\000"
 7426      4D5F434D 
 7426      4400
 7427              	.LASF88:
 7428 0a9a 6373645F 		.ascii	"csd_interrupt_IRQn\000"
 7428      696E7465 
 7428      72727570 
 7428      745F4952 
 7428      516E00
 7429              	.LASF446:
 7430 0aad 63795F73 		.ascii	"cy_stc_scb_uart_context_t\000"
 7430      74635F73 
 7430      63625F75 
 7430      6172745F 
 7430      636F6E74 
 7431              	.LASF594:
 7432 0ac7 534D4F4F 		.ascii	"SMOOTH\000"
 7432      544800
 7433              	.LASF191:
 7434 0ace 7369676E 		.ascii	"signed char\000"
 7434      65642063 
 7434      68617200 
 7435              	.LASF516:
 7436 0ada 43595F42 		.ascii	"CY_BLE_EVT_GAPC_DIRECT_ADV_REPORT\000"
 7436      4C455F45 
 7436      56545F47 
 7436      4150435F 
 7436      44495245 
 7437              	.LASF202:
 7438 0afc 75696E74 		.ascii	"uint8_t\000"
 7438      385F7400 
 7439              	.LASF541:
 7440 0b04 43595F42 		.ascii	"CY_BLE_EVT_GATTS_PREP_WRITE_REQ\000"
 7440      4C455F45 
 7440      56545F47 
 7440      41545453 
 7440      5F505245 
 7441              	.LASF346:
 7442 0b24 70657269 		.ascii	"period0\000"
 7442      6F643000 
 7443              	.LASF347:
ARM GAS  C:\Users\salaz\AppData\Local\Temp\ccI54lrI.s 			page 187


 7444 0b2c 70657269 		.ascii	"period1\000"
 7444      6F643100 
 7445              	.LASF451:
 7446 0b34 43595F42 		.ascii	"CY_BLE_EVT_MEMORY_REQUEST\000"
 7446      4C455F45 
 7446      56545F4D 
 7446      454D4F52 
 7446      595F5245 
 7447              	.LASF418:
 7448 0b4e 61636365 		.ascii	"acceptAddrInFifo\000"
 7448      70744164 
 7448      6472496E 
 7448      4669666F 
 7448      00
 7449              	.LASF34:
 7450 0b5f 4E766963 		.ascii	"NvicMux28_IRQn\000"
 7450      4D757832 
 7450      385F4952 
 7450      516E00
 7451              	.LASF71:
 7452 0b6e 63707573 		.ascii	"cpuss_interrupts_ipc_7_IRQn\000"
 7452      735F696E 
 7452      74657272 
 7452      75707473 
 7452      5F697063 
 7453              	.LASF377:
 7454 0b8a 736C6176 		.ascii	"slaveTxBufferIdx\000"
 7454      65547842 
 7454      75666665 
 7454      72496478 
 7454      00
 7455              	.LASF559:
 7456 0b9b 43595F42 		.ascii	"CY_BLE_EVT_L2CAP_CBFC_RX_CREDIT_IND\000"
 7456      4C455F45 
 7456      56545F4C 
 7456      32434150 
 7456      5F434246 
 7457              	.LASF546:
 7458 0bbf 43595F42 		.ascii	"CY_BLE_EVT_GATTS_HANDLE_VALUE_CNF\000"
 7458      4C455F45 
 7458      56545F47 
 7458      41545453 
 7458      5F48414E 
 7459              	.LASF47:
 7460 0be1 696F7373 		.ascii	"ioss_interrupts_gpio_8_IRQn\000"
 7460      5F696E74 
 7460      65727275 
 7460      7074735F 
 7460      6770696F 
 7461              	.LASF87:
 7462 0bfd 7363625F 		.ascii	"scb_7_interrupt_IRQn\000"
 7462      375F696E 
 7462      74657272 
 7462      7570745F 
 7462      4952516E 
 7463              	.LASF437:
 7464 0c12 72785269 		.ascii	"rxRingBufHead\000"
ARM GAS  C:\Users\salaz\AppData\Local\Temp\ccI54lrI.s 			page 188


 7464      6E674275 
 7464      66486561 
 7464      6400
 7465              	.LASF379:
 7466 0c20 736C6176 		.ascii	"slaveRxBuffer\000"
 7466      65527842 
 7466      75666665 
 7466      7200
 7467              	.LASF207:
 7468 0c2e 52455345 		.ascii	"RESERVED0\000"
 7468      52564544 
 7468      3000
 7469              	.LASF230:
 7470 0c38 52455345 		.ascii	"RESERVED1\000"
 7470      52564544 
 7470      3100
 7471              	.LASF188:
 7472 0c42 756E7369 		.ascii	"unsigned char\000"
 7472      676E6564 
 7472      20636861 
 7472      7200
 7473              	.LASF300:
 7474 0c50 494E5452 		.ascii	"INTR_TX_MASK\000"
 7474      5F54585F 
 7474      4D41534B 
 7474      00
 7475              	.LASF214:
 7476 0c5d 52455345 		.ascii	"RESERVED4\000"
 7476      52564544 
 7476      3400
 7477              	.LASF262:
 7478 0c67 52455345 		.ascii	"RESERVED5\000"
 7478      52564544 
 7478      3500
 7479              	.LASF264:
 7480 0c71 52455345 		.ascii	"RESERVED6\000"
 7480      52564544 
 7480      3600
 7481              	.LASF268:
 7482 0c7b 52455345 		.ascii	"RESERVED7\000"
 7482      52564544 
 7482      3700
 7483              	.LASF270:
 7484 0c85 52455345 		.ascii	"RESERVED8\000"
 7484      52564544 
 7484      3800
 7485              	.LASF273:
 7486 0c8f 52455345 		.ascii	"RESERVED9\000"
 7486      52564544 
 7486      3900
 7487              	.LASF384:
 7488 0c99 63795F73 		.ascii	"cy_stc_scb_i2c_context_t\000"
 7488      74635F73 
 7488      63625F69 
 7488      32635F63 
 7488      6F6E7465 
 7489              	.LASF425:
ARM GAS  C:\Users\salaz\AppData\Local\Temp\ccI54lrI.s 			page 189


 7490 0cb2 72747350 		.ascii	"rtsPolarity\000"
 7490      6F6C6172 
 7490      69747900 
 7491              	.LASF576:
 7492 0cbe 43595F42 		.ascii	"CY_BLE_CONN_STATE_CLIENT_CHAR_DISCOVERING\000"
 7492      4C455F43 
 7492      4F4E4E5F 
 7492      53544154 
 7492      455F434C 
 7493              	.LASF184:
 7494 0ce8 7573625F 		.ascii	"usb_interrupt_lo_IRQn\000"
 7494      696E7465 
 7494      72727570 
 7494      745F6C6F 
 7494      5F495251 
 7495              	.LASF533:
 7496 0cfe 43595F42 		.ascii	"CY_BLE_EVT_GATTC_FIND_INFO_RSP\000"
 7496      4C455F45 
 7496      56545F47 
 7496      41545443 
 7496      5F46494E 
 7497              	.LASF501:
 7498 0d1d 43595F42 		.ascii	"CY_BLE_EVT_GAP_PASSKEY_ENTRY_REQUEST\000"
 7498      4C455F45 
 7498      56545F47 
 7498      41505F50 
 7498      4153534B 
 7499              	.LASF458:
 7500 0d42 43595F42 		.ascii	"CY_BLE_EVT_LE_SET_EVENT_MASK_COMPLETE\000"
 7500      4C455F45 
 7500      56545F4C 
 7500      455F5345 
 7500      545F4556 
 7501              	.LASF455:
 7502 0d68 43595F42 		.ascii	"CY_BLE_EVT_WRITE_AUTH_PAYLOAD_TO_COMPLETE\000"
 7502      4C455F45 
 7502      56545F57 
 7502      52495445 
 7502      5F415554 
 7503              	.LASF636:
 7504 0d92 4D6F746F 		.ascii	"MotorOutput_config\000"
 7504      724F7574 
 7504      7075745F 
 7504      636F6E66 
 7504      696700
 7505              	.LASF625:
 7506 0da5 63795F62 		.ascii	"cy_ble_connHandle\000"
 7506      6C655F63 
 7506      6F6E6E48 
 7506      616E646C 
 7506      6500
 7507              	.LASF38:
 7508 0db7 756E636F 		.ascii	"unconnected_IRQn\000"
 7508      6E6E6563 
 7508      7465645F 
 7508      4952516E 
 7508      00
ARM GAS  C:\Users\salaz\AppData\Local\Temp\ccI54lrI.s 			page 190


 7509              	.LASF9:
 7510 0dc8 4E766963 		.ascii	"NvicMux3_IRQn\000"
 7510      4D757833 
 7510      5F495251 
 7510      6E00
 7511              	.LASF320:
 7512 0dd6 5F426F6F 		.ascii	"_Bool\000"
 7512      6C00
 7513              	.LASF660:
 7514 0ddc 474E5520 		.ascii	"GNU C11 5.4.1 20160609 (release) [ARM/embedded-5-br"
 7514      43313120 
 7514      352E342E 
 7514      31203230 
 7514      31363036 
 7515 0e0f 616E6368 		.ascii	"anch revision 237715] -mcpu=cortex-m0plus -mthumb -"
 7515      20726576 
 7515      6973696F 
 7515      6E203233 
 7515      37373135 
 7516 0e42 67202D4F 		.ascii	"g -Og -ffunction-sections -ffat-lto-objects\000"
 7516      67202D66 
 7516      66756E63 
 7516      74696F6E 
 7516      2D736563 
 7517              	.LASF610:
 7518 0e6e 43795F53 		.ascii	"Cy_SCB_GetTxSrValid\000"
 7518      43425F47 
 7518      65745478 
 7518      53725661 
 7518      6C696400 
 7519              	.LASF103:
 7520 0e82 63707573 		.ascii	"cpuss_interrupts_dw0_14_IRQn\000"
 7520      735F696E 
 7520      74657272 
 7520      75707473 
 7520      5F647730 
 7521              	.LASF213:
 7522 0e9f 52455345 		.ascii	"RESERVED3\000"
 7522      52564544 
 7522      3300
 7523              	.LASF154:
 7524 0ea9 74637077 		.ascii	"tcpwm_1_interrupts_17_IRQn\000"
 7524      6D5F315F 
 7524      696E7465 
 7524      72727570 
 7524      74735F31 
 7525              	.LASF646:
 7526 0ec4 73746F6C 		.ascii	"stolenLightCycles\000"
 7526      656E4C69 
 7526      67687443 
 7526      79636C65 
 7526      7300
 7527              	.LASF548:
 7528 0ed6 43595F42 		.ascii	"CY_BLE_EVT_GATTC_STOP_CMD_COMPLETE\000"
 7528      4C455F45 
 7528      56545F47 
 7528      41545443 
ARM GAS  C:\Users\salaz\AppData\Local\Temp\ccI54lrI.s 			page 191


 7528      5F53544F 
 7529              	.LASF256:
 7530 0ef9 4932435F 		.ascii	"I2C_S_CMD\000"
 7530      535F434D 
 7530      4400
 7531              	.LASF183:
 7532 0f03 7573625F 		.ascii	"usb_interrupt_med_IRQn\000"
 7532      696E7465 
 7532      72727570 
 7532      745F6D65 
 7532      645F4952 
 7533              	.LASF39:
 7534 0f1a 696F7373 		.ascii	"ioss_interrupts_gpio_0_IRQn\000"
 7534      5F696E74 
 7534      65727275 
 7534      7074735F 
 7534      6770696F 
 7535              	.LASF639:
 7536 0f36 4368696D 		.ascii	"ChimeTimer_config\000"
 7536      6554696D 
 7536      65725F63 
 7536      6F6E6669 
 7536      6700
 7537              	.LASF293:
 7538 0f48 494E5452 		.ascii	"INTR_S\000"
 7538      5F5300
 7539              	.LASF96:
 7540 0f4f 63707573 		.ascii	"cpuss_interrupts_dw0_7_IRQn\000"
 7540      735F696E 
 7540      74657272 
 7540      75707473 
 7540      5F647730 
 7541              	.LASF473:
 7542 0f6b 43595F42 		.ascii	"CY_BLE_EVT_GET_PHY_COMPLETE\000"
 7542      4C455F45 
 7542      56545F47 
 7542      45545F50 
 7542      48595F43 
 7543              	.LASF475:
 7544 0f87 43595F42 		.ascii	"CY_BLE_EVT_SET_PHY_COMPLETE\000"
 7544      4C455F45 
 7544      56545F53 
 7544      45545F50 
 7544      48595F43 
 7545              	.LASF490:
 7546 0fa3 43595F42 		.ascii	"CY_BLE_EVT_AES_CCM_DECRYPT_COMPLETE\000"
 7546      4C455F45 
 7546      56545F41 
 7546      45535F43 
 7546      434D5F44 
 7547              	.LASF323:
 7548 0fc7 72756E4D 		.ascii	"runMode\000"
 7548      6F646500 
 7549              	.LASF139:
 7550 0fcf 74637077 		.ascii	"tcpwm_1_interrupts_2_IRQn\000"
 7550      6D5F315F 
 7550      696E7465 
ARM GAS  C:\Users\salaz\AppData\Local\Temp\ccI54lrI.s 			page 192


 7550      72727570 
 7550      74735F32 
 7551              	.LASF70:
 7552 0fe9 63707573 		.ascii	"cpuss_interrupts_ipc_6_IRQn\000"
 7552      735F696E 
 7552      74657272 
 7552      75707473 
 7552      5F697063 
 7553              	.LASF440:
 7554 1005 72784275 		.ascii	"rxBufSize\000"
 7554      6653697A 
 7554      6500
 7555              	.LASF249:
 7556 100f 55415254 		.ascii	"UART_TX_CTRL\000"
 7556      5F54585F 
 7556      4354524C 
 7556      00
 7557              	.LASF46:
 7558 101c 696F7373 		.ascii	"ioss_interrupts_gpio_7_IRQn\000"
 7558      5F696E74 
 7558      65727275 
 7558      7074735F 
 7558      6770696F 
 7559              	.LASF22:
 7560 1038 4E766963 		.ascii	"NvicMux16_IRQn\000"
 7560      4D757831 
 7560      365F4952 
 7560      516E00
 7561              	.LASF263:
 7562 1047 54585F46 		.ascii	"TX_FIFO_WR\000"
 7562      49464F5F 
 7562      575200
 7563              	.LASF633:
 7564 1052 4C696768 		.ascii	"LightOutputA_config\000"
 7564      744F7574 
 7564      70757441 
 7564      5F636F6E 
 7564      66696700 
 7565              	.LASF322:
 7566 1066 636C6F63 		.ascii	"clockPrescaler\000"
 7566      6B507265 
 7566      7363616C 
 7566      657200
 7567              	.LASF600:
 7568 1075 4359424F 		.ascii	"CYBORG\000"
 7568      524700
 7569              	.LASF211:
 7570 107c 52455345 		.ascii	"RESERVED2\000"
 7570      52564544 
 7570      3200
 7571              	.LASF111:
 7572 1086 63707573 		.ascii	"cpuss_interrupts_dw1_6_IRQn\000"
 7572      735F696E 
 7572      74657272 
 7572      75707473 
 7572      5F647731 
 7573              	.LASF515:
ARM GAS  C:\Users\salaz\AppData\Local\Temp\ccI54lrI.s 			page 193


 7574 10a2 43595F42 		.ascii	"CY_BLE_EVT_GAP_ENHANCE_CONN_COMPLETE\000"
 7574      4C455F45 
 7574      56545F47 
 7574      41505F45 
 7574      4E48414E 
 7575              	.LASF632:
 7576 10c7 4C696768 		.ascii	"LightOutputC_config\000"
 7576      744F7574 
 7576      70757443 
 7576      5F636F6E 
 7576      66696700 
 7577              	.LASF551:
 7578 10db 43595F42 		.ascii	"CY_BLE_EVT_L2CAP_CONN_PARAM_UPDATE_REQ\000"
 7578      4C455F45 
 7578      56545F4C 
 7578      32434150 
 7578      5F434F4E 
 7579              	.LASF662:
 7580 1102 433A5C55 		.ascii	"C:\\Users\\salaz\\Desktop\\SmartHandle\\SmartHandle"
 7580      73657273 
 7580      5C73616C 
 7580      617A5C44 
 7580      65736B74 
 7581 1130 2E637964 		.ascii	".cydsn\000"
 7581      736E00
 7582              	.LASF199:
 7583 1137 6C6F6E67 		.ascii	"long long int\000"
 7583      206C6F6E 
 7583      6720696E 
 7583      7400
 7584              	.LASF147:
 7585 1145 74637077 		.ascii	"tcpwm_1_interrupts_10_IRQn\000"
 7585      6D5F315F 
 7585      696E7465 
 7585      72727570 
 7585      74735F31 
 7586              	.LASF518:
 7587 1160 43595F42 		.ascii	"CY_BLE_EVT_GAP_DEVICE_ADDR_GEN_COMPLETE\000"
 7587      4C455F45 
 7587      56545F47 
 7587      41505F44 
 7587      45564943 
 7588              	.LASF116:
 7589 1188 63707573 		.ascii	"cpuss_interrupts_dw1_11_IRQn\000"
 7589      735F696E 
 7589      74657272 
 7589      75707473 
 7589      5F647731 
 7590              	.LASF225:
 7591 11a5 4346475F 		.ascii	"CFG_IN\000"
 7591      494E00
 7592              	.LASF374:
 7593 11ac 736C6176 		.ascii	"slaveRdBufEmpty\000"
 7593      65526442 
 7593      7566456D 
 7593      70747900 
 7594              	.LASF396:
ARM GAS  C:\Users\salaz\AppData\Local\Temp\ccI54lrI.s 			page 194


 7595 11bc 63795F65 		.ascii	"cy_en_scb_uart_stop_bits_t\000"
 7595      6E5F7363 
 7595      625F7561 
 7595      72745F73 
 7595      746F705F 
 7596              	.LASF499:
 7597 11d7 43595F42 		.ascii	"CY_BLE_EVT_GAPC_SCAN_PROGRESS_RESULT\000"
 7597      4C455F45 
 7597      56545F47 
 7597      4150435F 
 7597      5343414E 
 7598              	.LASF89:
 7599 11fc 63707573 		.ascii	"cpuss_interrupts_dw0_0_IRQn\000"
 7599      735F696E 
 7599      74657272 
 7599      75707473 
 7599      5F647730 
 7600              	.LASF648:
 7601 1218 4B696E4F 		.ascii	"KinOS_ShakeDetected\000"
 7601      535F5368 
 7601      616B6544 
 7601      65746563 
 7601      74656400 
 7602              	.LASF238:
 7603 122c 5644445F 		.ascii	"VDD_INTR_MASK\000"
 7603      494E5452 
 7603      5F4D4153 
 7603      4B00
 7604              	.LASF539:
 7605 123a 43595F42 		.ascii	"CY_BLE_EVT_GATTC_WRITE_RSP\000"
 7605      4C455F45 
 7605      56545F47 
 7605      41545443 
 7605      5F575249 
 7606              	.LASF210:
 7607 1255 49535052 		.ascii	"ISPR\000"
 7607      00
 7608              	.LASF580:
 7609 125a 79656172 		.ascii	"year\000"
 7609      00
 7610              	.LASF152:
 7611 125f 74637077 		.ascii	"tcpwm_1_interrupts_15_IRQn\000"
 7611      6D5F315F 
 7611      696E7465 
 7611      72727570 
 7611      74735F31 
 7612              	.LASF153:
 7613 127a 74637077 		.ascii	"tcpwm_1_interrupts_16_IRQn\000"
 7613      6D5F315F 
 7613      696E7465 
 7613      72727570 
 7613      74735F31 
 7614              	.LASF431:
 7615 1295 63795F73 		.ascii	"cy_stc_scb_uart_config_t\000"
 7615      74635F73 
 7615      63625F75 
 7615      6172745F 
ARM GAS  C:\Users\salaz\AppData\Local\Temp\ccI54lrI.s 			page 195


 7615      636F6E66 
 7616              	.LASF456:
 7617 12ae 43595F42 		.ascii	"CY_BLE_EVT_READ_AUTH_PAYLOAD_TO_COMPLETE\000"
 7617      4C455F45 
 7617      56545F52 
 7617      4541445F 
 7617      41555448 
 7618              	.LASF589:
 7619 12d7 424C5545 		.ascii	"BLUE\000"
 7619      00
 7620              	.LASF32:
 7621 12dc 4E766963 		.ascii	"NvicMux26_IRQn\000"
 7621      4D757832 
 7621      365F4952 
 7621      516E00
 7622              	.LASF378:
 7623 12eb 736C6176 		.ascii	"slaveTxBufferCnt\000"
 7623      65547842 
 7623      75666665 
 7623      72436E74 
 7623      00
 7624              	.LASF544:
 7625 12fc 43595F42 		.ascii	"CY_BLE_EVT_GATTC_HANDLE_VALUE_NTF\000"
 7625      4C455F45 
 7625      56545F47 
 7625      41545443 
 7625      5F48414E 
 7626              	.LASF514:
 7627 131e 43595F42 		.ascii	"CY_BLE_EVT_GAP_OOB_GENERATED_NOTIFICATION\000"
 7627      4C455F45 
 7627      56545F47 
 7627      41505F4F 
 7627      4F425F47 
 7628              	.LASF498:
 7629 1348 43595F42 		.ascii	"CY_BLE_EVT_SET_CONN_PRIORITY_COMPLETE\000"
 7629      4C455F45 
 7629      56545F53 
 7629      45545F43 
 7629      4F4E4E5F 
 7630              	.LASF170:
 7631 136e 7564625F 		.ascii	"udb_interrupts_9_IRQn\000"
 7631      696E7465 
 7631      72727570 
 7631      74735F39 
 7631      5F495251 
 7632              	.LASF342:
 7633 1384 63795F73 		.ascii	"cy_stc_tcpwm_pwm_config\000"
 7633      74635F74 
 7633      6370776D 
 7633      5F70776D 
 7633      5F636F6E 
 7634              	.LASF78:
 7635 139c 63707573 		.ascii	"cpuss_interrupts_ipc_14_IRQn\000"
 7635      735F696E 
 7635      74657272 
 7635      75707473 
 7635      5F697063 
ARM GAS  C:\Users\salaz\AppData\Local\Temp\ccI54lrI.s 			page 196


 7636              	.LASF474:
 7637 13b9 43595F42 		.ascii	"CY_BLE_EVT_SET_DEFAULT_PHY_COMPLETE\000"
 7637      4C455F45 
 7637      56545F53 
 7637      45545F44 
 7637      45464155 
 7638              	.LASF319:
 7639 13dd 63795F73 		.ascii	"cy_stc_sysint_t\000"
 7639      74635F73 
 7639      7973696E 
 7639      745F7400 
 7640              	.LASF606:
 7641 13ed 46534D5F 		.ascii	"FSM_STOLEN\000"
 7641      53544F4C 
 7641      454E00
 7642              	.LASF157:
 7643 13f8 74637077 		.ascii	"tcpwm_1_interrupts_20_IRQn\000"
 7643      6D5F315F 
 7643      696E7465 
 7643      72727570 
 7643      74735F32 
 7644              	.LASF185:
 7645 1413 70617373 		.ascii	"pass_interrupt_dacs_IRQn\000"
 7645      5F696E74 
 7645      65727275 
 7645      70745F64 
 7645      6163735F 
 7646              	.LASF228:
 7647 142c 52455345 		.ascii	"RESERVED\000"
 7647      52564544 
 7647      00
 7648              	.LASF110:
 7649 1435 63707573 		.ascii	"cpuss_interrupts_dw1_5_IRQn\000"
 7649      735F696E 
 7649      74657272 
 7649      75707473 
 7649      5F647731 
 7650              	.LASF251:
 7651 1451 55415254 		.ascii	"UART_RX_STATUS\000"
 7651      5F52585F 
 7651      53544154 
 7651      555300
 7652              	.LASF122:
 7653 1460 63707573 		.ascii	"cpuss_interrupts_fault_1_IRQn\000"
 7653      735F696E 
 7653      74657272 
 7653      75707473 
 7653      5F666175 
 7654              	.LASF640:
 7655 147e 6D6F726E 		.ascii	"morningThreshold\000"
 7655      696E6754 
 7655      68726573 
 7655      686F6C64 
 7655      00
 7656              	.LASF357:
 7657 148f 43595F53 		.ascii	"CY_SCB_I2C_ACK\000"
 7657      43425F49 
ARM GAS  C:\Users\salaz\AppData\Local\Temp\ccI54lrI.s 			page 197


 7657      32435F41 
 7657      434B00
 7658              	.LASF620:
 7659 149e 63757272 		.ascii	"current_state\000"
 7659      656E745F 
 7659      73746174 
 7659      6500
 7660              	.LASF526:
 7661 14ac 43595F42 		.ascii	"CY_BLE_EVT_GATTC_ERROR_RSP\000"
 7661      4C455F45 
 7661      56545F47 
 7661      41545443 
 7661      5F455252 
 7662              	.LASF276:
 7663 14c7 494E5452 		.ascii	"INTR_CAUSE\000"
 7663      5F434155 
 7663      534500
 7664              	.LASF560:
 7665 14d2 43595F42 		.ascii	"CY_BLE_EVT_L2CAP_CBFC_TX_CREDIT_IND\000"
 7665      4C455F45 
 7665      56545F4C 
 7665      32434150 
 7665      5F434246 
 7666              	.LASF245:
 7667 14f6 434D445F 		.ascii	"CMD_RESP_STATUS\000"
 7667      52455350 
 7667      5F535441 
 7667      54555300 
 7668              	.LASF163:
 7669 1506 7564625F 		.ascii	"udb_interrupts_2_IRQn\000"
 7669      696E7465 
 7669      72727570 
 7669      74735F32 
 7669      5F495251 
 7670              	.LASF645:
 7671 151c 73746F6C 		.ascii	"stolenAdvertise_s\000"
 7671      656E4164 
 7671      76657274 
 7671      6973655F 
 7671      7300
 7672              	.LASF351:
 7673 152e 6B696C6C 		.ascii	"killMode\000"
 7673      4D6F6465 
 7673      00
 7674              	.LASF659:
 7675 1537 4B696E4F 		.ascii	"KinOS_Disconnect\000"
 7675      535F4469 
 7675      73636F6E 
 7675      6E656374 
 7675      00
 7676              	.LASF554:
 7677 1548 43595F42 		.ascii	"CY_BLE_EVT_L2CAP_CBFC_CONN_IND\000"
 7677      4C455F45 
 7677      56545F4C 
 7677      32434150 
 7677      5F434246 
 7678              	.LASF397:
ARM GAS  C:\Users\salaz\AppData\Local\Temp\ccI54lrI.s 			page 198


 7679 1567 43595F53 		.ascii	"CY_SCB_UART_PARITY_NONE\000"
 7679      43425F55 
 7679      4152545F 
 7679      50415249 
 7679      54595F4E 
 7680              	.LASF609:
 7681 157f 46534D5F 		.ascii	"FSM_RIDE\000"
 7681      52494445 
 7681      00
 7682              	.LASF131:
 7683 1588 74637077 		.ascii	"tcpwm_0_interrupts_2_IRQn\000"
 7683      6D5F305F 
 7683      696E7465 
 7683      72727570 
 7683      74735F32 
 7684              	.LASF482:
 7685 15a2 43595F42 		.ascii	"CY_BLE_EVT_GET_RSSI_COMPLETE\000"
 7685      4C455F45 
 7685      56545F47 
 7685      45545F52 
 7685      5353495F 
 7686              	.LASF370:
 7687 15bf 6D617374 		.ascii	"masterBufferSize\000"
 7687      65724275 
 7687      66666572 
 7687      53697A65 
 7687      00
 7688              	.LASF349:
 7689 15d0 696E7665 		.ascii	"invertPWMOut\000"
 7689      72745057 
 7689      4D4F7574 
 7689      00
 7690              	.LASF1:
 7691 15dd 4E6F6E4D 		.ascii	"NonMaskableInt_IRQn\000"
 7691      61736B61 
 7691      626C6549 
 7691      6E745F49 
 7691      52516E00 
 7692              	.LASF382:
 7693 15f1 63624576 		.ascii	"cbEvents\000"
 7693      656E7473 
 7693      00
 7694              	.LASF219:
 7695 15fa 4F55545F 		.ascii	"OUT_INV\000"
 7695      494E5600 
 7696              	.LASF531:
 7697 1602 43595F42 		.ascii	"CY_BLE_EVT_GATTC_READ_BY_GROUP_TYPE_RSP\000"
 7697      4C455F45 
 7697      56545F47 
 7697      41545443 
 7697      5F524541 
 7698              	.LASF198:
 7699 162a 6C6F6E67 		.ascii	"long unsigned int\000"
 7699      20756E73 
 7699      69676E65 
 7699      6420696E 
 7699      7400
ARM GAS  C:\Users\salaz\AppData\Local\Temp\ccI54lrI.s 			page 199


 7700              	.LASF317:
 7701 163c 636D3070 		.ascii	"cm0pSrc\000"
 7701      53726300 
 7702              	.LASF510:
 7703 1644 43595F42 		.ascii	"CY_BLE_EVT_GAPC_SCAN_START_STOP\000"
 7703      4C455F45 
 7703      56545F47 
 7703      4150435F 
 7703      5343414E 
 7704              	.LASF12:
 7705 1664 4E766963 		.ascii	"NvicMux6_IRQn\000"
 7705      4D757836 
 7705      5F495251 
 7705      6E00
 7706              	.LASF466:
 7707 1672 43595F42 		.ascii	"CY_BLE_EVT_SET_RPA_TO_COMPLETE\000"
 7707      4C455F45 
 7707      56545F53 
 7707      45545F52 
 7707      50415F54 
 7708              	.LASF602:
 7709 1691 46534D5F 		.ascii	"FSM_INITIALIZE\000"
 7709      494E4954 
 7709      49414C49 
 7709      5A4500
 7710              	.LASF290:
 7711 16a0 494E5452 		.ascii	"INTR_M_MASK\000"
 7711      5F4D5F4D 
 7711      41534B00 
 7712              	.LASF189:
 7713 16ac 4952516E 		.ascii	"IRQn_Type\000"
 7713      5F547970 
 7713      6500
 7714              	.LASF419:
 7715 16b6 69726461 		.ascii	"irdaInvertRx\000"
 7715      496E7665 
 7715      72745278 
 7715      00
 7716              	.LASF126:
 7717 16c3 63707573 		.ascii	"cpuss_interrupts_cm0_cti_1_IRQn\000"
 7717      735F696E 
 7717      74657272 
 7717      75707473 
 7717      5F636D30 
 7718              	.LASF553:
 7719 16e3 43595F42 		.ascii	"CY_BLE_EVT_L2CAP_COMMAND_REJ\000"
 7719      4C455F45 
 7719      56545F4C 
 7719      32434150 
 7719      5F434F4D 
 7720              	.LASF408:
 7721 1700 64617461 		.ascii	"dataWidth\000"
 7721      57696474 
 7721      6800
 7722              	.LASF373:
 7723 170a 736C6176 		.ascii	"slaveStatus\000"
 7723      65537461 
ARM GAS  C:\Users\salaz\AppData\Local\Temp\ccI54lrI.s 			page 200


 7723      74757300 
 7724              	.LASF528:
 7725 1716 43595F42 		.ascii	"CY_BLE_EVT_GATT_DISCONNECT_IND\000"
 7725      4C455F45 
 7725      56545F47 
 7725      4154545F 
 7725      44495343 
 7726              	.LASF348:
 7727 1735 656E6162 		.ascii	"enablePeriodSwap\000"
 7727      6C655065 
 7727      72696F64 
 7727      53776170 
 7727      00
 7728              	.LASF413:
 7729 1746 64726F70 		.ascii	"dropOnParityError\000"
 7729      4F6E5061 
 7729      72697479 
 7729      4572726F 
 7729      7200
 7730              	.LASF405:
 7731 1758 7374635F 		.ascii	"stc_scb_uart_config\000"
 7731      7363625F 
 7731      75617274 
 7731      5F636F6E 
 7731      66696700 
 7732              	.LASF604:
 7733 176c 46534D5F 		.ascii	"FSM_CHECK_MOTION\000"
 7733      43484543 
 7733      4B5F4D4F 
 7733      54494F4E 
 7733      00
 7734              	.LASF534:
 7735 177d 43595F42 		.ascii	"CY_BLE_EVT_GATTC_FIND_BY_TYPE_VALUE_RSP\000"
 7735      4C455F45 
 7735      56545F47 
 7735      41545443 
 7735      5F46494E 
 7736              	.LASF142:
 7737 17a5 74637077 		.ascii	"tcpwm_1_interrupts_5_IRQn\000"
 7737      6D5F315F 
 7737      696E7465 
 7737      72727570 
 7737      74735F35 
 7738              	.LASF73:
 7739 17bf 63707573 		.ascii	"cpuss_interrupts_ipc_9_IRQn\000"
 7739      735F696E 
 7739      74657272 
 7739      75707473 
 7739      5F697063 
 7740              	.LASF25:
 7741 17db 4E766963 		.ascii	"NvicMux19_IRQn\000"
 7741      4D757831 
 7741      395F4952 
 7741      516E00
 7742              	.LASF341:
 7743 17ea 63795F73 		.ascii	"cy_stc_tcpwm_counter_config\000"
 7743      74635F74 
ARM GAS  C:\Users\salaz\AppData\Local\Temp\ccI54lrI.s 			page 201


 7743      6370776D 
 7743      5F636F75 
 7743      6E746572 
 7744              	.LASF491:
 7745 1806 43595F42 		.ascii	"CY_BLE_EVT_SET_SLAVE_LATENCY_MODE_COMPLETE\000"
 7745      4C455F45 
 7745      56545F53 
 7745      45545F53 
 7745      4C415645 
 7746              	.LASF389:
 7747 1831 43595F53 		.ascii	"CY_SCB_UART_STOP_BITS_1\000"
 7747      43425F55 
 7747      4152545F 
 7747      53544F50 
 7747      5F424954 
 7748              	.LASF82:
 7749 1849 7363625F 		.ascii	"scb_2_interrupt_IRQn\000"
 7749      325F696E 
 7749      74657272 
 7749      7570745F 
 7749      4952516E 
 7750              	.LASF239:
 7751 185e 5644445F 		.ascii	"VDD_INTR_MASKED\000"
 7751      494E5452 
 7751      5F4D4153 
 7751      4B454400 
 7752              	.LASF114:
 7753 186e 63707573 		.ascii	"cpuss_interrupts_dw1_9_IRQn\000"
 7753      735F696E 
 7753      74657272 
 7753      75707473 
 7753      5F647731 
 7754              	.LASF574:
 7755 188a 43595F42 		.ascii	"CY_BLE_CONN_STATE_CLIENT_SRVC_DISCOVERING\000"
 7755      4C455F43 
 7755      4F4E4E5F 
 7755      53544154 
 7755      455F434C 
 7756              	.LASF487:
 7757 18b4 43595F42 		.ascii	"CY_BLE_EVT_RANDOM_NUM_GEN_COMPLETE\000"
 7757      4C455F45 
 7757      56545F52 
 7757      414E444F 
 7757      4D5F4E55 
 7758              	.LASF50:
 7759 18d7 696F7373 		.ascii	"ioss_interrupts_gpio_11_IRQn\000"
 7759      5F696E74 
 7759      65727275 
 7759      7074735F 
 7759      6770696F 
 7760              	.LASF535:
 7761 18f4 43595F42 		.ascii	"CY_BLE_EVT_GATTC_READ_RSP\000"
 7761      4C455F45 
 7761      56545F47 
 7761      41545443 
 7761      5F524541 
 7762              	.LASF99:
ARM GAS  C:\Users\salaz\AppData\Local\Temp\ccI54lrI.s 			page 202


 7763 190e 63707573 		.ascii	"cpuss_interrupts_dw0_10_IRQn\000"
 7763      735F696E 
 7763      74657272 
 7763      75707473 
 7763      5F647730 
 7764              	.LASF329:
 7765 192b 696E7465 		.ascii	"interruptSources\000"
 7765      72727570 
 7765      74536F75 
 7765      72636573 
 7765      00
 7766              	.LASF376:
 7767 193c 736C6176 		.ascii	"slaveTxBufferSize\000"
 7767      65547842 
 7767      75666665 
 7767      7253697A 
 7767      6500
 7768              	.LASF41:
 7769 194e 696F7373 		.ascii	"ioss_interrupts_gpio_2_IRQn\000"
 7769      5F696E74 
 7769      65727275 
 7769      7074735F 
 7769      6770696F 
 7770              	.LASF119:
 7771 196a 63707573 		.ascii	"cpuss_interrupts_dw1_14_IRQn\000"
 7771      735F696E 
 7771      74657272 
 7771      75707473 
 7771      5F647731 
 7772              	.LASF352:
 7773 1987 73776170 		.ascii	"swapInputMode\000"
 7773      496E7075 
 7773      744D6F64 
 7773      6500
 7774              	.LASF92:
 7775 1995 63707573 		.ascii	"cpuss_interrupts_dw0_3_IRQn\000"
 7775      735F696E 
 7775      74657272 
 7775      75707473 
 7775      5F647730 
 7776              	.LASF197:
 7777 19b1 5F5F7569 		.ascii	"__uint32_t\000"
 7777      6E743332 
 7777      5F7400
 7778              	.LASF274:
 7779 19bc 455A5F44 		.ascii	"EZ_DATA\000"
 7779      41544100 
 7780              	.LASF66:
 7781 19c4 63707573 		.ascii	"cpuss_interrupts_ipc_2_IRQn\000"
 7781      735F696E 
 7781      74657272 
 7781      75707473 
 7781      5F697063 
 7782              	.LASF265:
 7783 19e0 52585F43 		.ascii	"RX_CTRL\000"
 7783      54524C00 
 7784              	.LASF134:
ARM GAS  C:\Users\salaz\AppData\Local\Temp\ccI54lrI.s 			page 203


 7785 19e8 74637077 		.ascii	"tcpwm_0_interrupts_5_IRQn\000"
 7785      6D5F305F 
 7785      696E7465 
 7785      72727570 
 7785      74735F35 
 7786              	.LASF42:
 7787 1a02 696F7373 		.ascii	"ioss_interrupts_gpio_3_IRQn\000"
 7787      5F696E74 
 7787      65727275 
 7787      7074735F 
 7787      6770696F 
 7788              	.LASF156:
 7789 1a1e 74637077 		.ascii	"tcpwm_1_interrupts_19_IRQn\000"
 7789      6D5F315F 
 7789      696E7465 
 7789      72727570 
 7789      74735F31 
 7790              	.LASF472:
 7791 1a39 43595F42 		.ascii	"CY_BLE_EVT_REMOVE_DEVICE_FROM_WHITE_LIST_COMPLETE\000"
 7791      4C455F45 
 7791      56545F52 
 7791      454D4F56 
 7791      455F4445 
 7792              	.LASF537:
 7793 1a6b 43595F42 		.ascii	"CY_BLE_EVT_GATTC_READ_MULTI_RSP\000"
 7793      4C455F45 
 7793      56545F47 
 7793      41545443 
 7793      5F524541 
 7794              	.LASF226:
 7795 1a8b 4346475F 		.ascii	"CFG_OUT\000"
 7795      4F555400 
 7796              	.LASF557:
 7797 1a93 43595F42 		.ascii	"CY_BLE_EVT_L2CAP_CBFC_DISCONN_CNF\000"
 7797      4C455F45 
 7797      56545F4C 
 7797      32434150 
 7797      5F434246 
 7798              	.LASF372:
 7799 1ab5 6D617374 		.ascii	"masterNumBytes\000"
 7799      65724E75 
 7799      6D427974 
 7799      657300
 7800              	.LASF657:
 7801 1ac4 4B696E4F 		.ascii	"KinOS_ConfigureChime\000"
 7801      535F436F 
 7801      6E666967 
 7801      75726543 
 7801      68696D65 
 7802              	.LASF35:
 7803 1ad9 4E766963 		.ascii	"NvicMux29_IRQn\000"
 7803      4D757832 
 7803      395F4952 
 7803      516E00
 7804              	.LASF4:
 7805 1ae8 50656E64 		.ascii	"PendSV_IRQn\000"
 7805      53565F49 
ARM GAS  C:\Users\salaz\AppData\Local\Temp\ccI54lrI.s 			page 204


 7805      52516E00 
 7806              	.LASF98:
 7807 1af4 63707573 		.ascii	"cpuss_interrupts_dw0_9_IRQn\000"
 7807      735F696E 
 7807      74657272 
 7807      75707473 
 7807      5F647730 
 7808              	.LASF291:
 7809 1b10 494E5452 		.ascii	"INTR_M_MASKED\000"
 7809      5F4D5F4D 
 7809      41534B45 
 7809      4400
 7810              	.LASF172:
 7811 1b1e 7564625F 		.ascii	"udb_interrupts_11_IRQn\000"
 7811      696E7465 
 7811      72727570 
 7811      74735F31 
 7811      315F4952 
 7812              	.LASF584:
 7813 1b35 7365636F 		.ascii	"second\000"
 7813      6E6400
 7814              	.LASF141:
 7815 1b3c 74637077 		.ascii	"tcpwm_1_interrupts_4_IRQn\000"
 7815      6D5F315F 
 7815      696E7465 
 7815      72727570 
 7815      74735F34 
 7816              	.LASF583:
 7817 1b56 6D696E75 		.ascii	"minute\000"
 7817      746500
 7818              	.LASF312:
 7819 1b5d 646F7562 		.ascii	"double\000"
 7819      6C6500
 7820              	.LASF3:
 7821 1b64 53564361 		.ascii	"SVCall_IRQn\000"
 7821      6C6C5F49 
 7821      52516E00 
 7822              	.LASF558:
 7823 1b70 43595F42 		.ascii	"CY_BLE_EVT_L2CAP_CBFC_DATA_READ\000"
 7823      4C455F45 
 7823      56545F4C 
 7823      32434150 
 7823      5F434246 
 7824              	.LASF336:
 7825 1b90 73746F70 		.ascii	"stopInputMode\000"
 7825      496E7075 
 7825      744D6F64 
 7825      6500
 7826              	.LASF656:
 7827 1b9e 4B696E4F 		.ascii	"KinOS_Advertise\000"
 7827      535F4164 
 7827      76657274 
 7827      69736500 
 7828              	.LASF160:
 7829 1bae 74637077 		.ascii	"tcpwm_1_interrupts_23_IRQn\000"
 7829      6D5F315F 
 7829      696E7465 
ARM GAS  C:\Users\salaz\AppData\Local\Temp\ccI54lrI.s 			page 205


 7829      72727570 
 7829      74735F32 
 7830              	.LASF113:
 7831 1bc9 63707573 		.ascii	"cpuss_interrupts_dw1_8_IRQn\000"
 7831      735F696E 
 7831      74657272 
 7831      75707473 
 7831      5F647731 
 7832              	.LASF441:
 7833 1be5 72784275 		.ascii	"rxBufIdx\000"
 7833      66496478 
 7833      00
 7834              	.LASF665:
 7835 1bee 5F5F6275 		.ascii	"__builtin_puts\000"
 7835      696C7469 
 7835      6E5F7075 
 7835      747300
 7836              	.LASF8:
 7837 1bfd 4E766963 		.ascii	"NvicMux2_IRQn\000"
 7837      4D757832 
 7837      5F495251 
 7837      6E00
 7838              	.LASF402:
 7839 1c0b 43595F53 		.ascii	"CY_SCB_UART_ACTIVE_HIGH\000"
 7839      43425F55 
 7839      4152545F 
 7839      41435449 
 7839      56455F48 
 7840              	.LASF411:
 7841 1c23 70617269 		.ascii	"parity\000"
 7841      747900
 7842              	.LASF462:
 7843 1c2a 43595F42 		.ascii	"CY_BLE_EVT_GET_DATA_LENGTH_COMPLETE\000"
 7843      4C455F45 
 7843      56545F47 
 7843      45545F44 
 7843      4154415F 
 7844              	.LASF149:
 7845 1c4e 74637077 		.ascii	"tcpwm_1_interrupts_12_IRQn\000"
 7845      6D5F315F 
 7845      696E7465 
 7845      72727570 
 7845      74735F31 
 7846              	.LASF311:
 7847 1c69 666C6F61 		.ascii	"float\000"
 7847      7400
 7848              	.LASF523:
 7849 1c6f 43595F42 		.ascii	"CY_BLE_EVT_GAP_CONN_ESTB\000"
 7849      4C455F45 
 7849      56545F47 
 7849      41505F43 
 7849      4F4E4E5F 
 7850              	.LASF500:
 7851 1c88 43595F42 		.ascii	"CY_BLE_EVT_GAP_AUTH_REQ\000"
 7851      4C455F45 
 7851      56545F47 
 7851      41505F41 
ARM GAS  C:\Users\salaz\AppData\Local\Temp\ccI54lrI.s 			page 206


 7851      5554485F 
 7852              	.LASF247:
 7853 1ca0 5350495F 		.ascii	"SPI_STATUS\000"
 7853      53544154 
 7853      555300
 7854              	.LASF28:
 7855 1cab 4E766963 		.ascii	"NvicMux22_IRQn\000"
 7855      4D757832 
 7855      325F4952 
 7855      516E00
 7856              	.LASF420:
 7857 1cba 69726461 		.ascii	"irdaEnableLowPowerReceiver\000"
 7857      456E6162 
 7857      6C654C6F 
 7857      77506F77 
 7857      65725265 
 7858              	.LASF407:
 7859 1cd5 6F766572 		.ascii	"oversample\000"
 7859      73616D70 
 7859      6C6500
 7860              	.LASF91:
 7861 1ce0 63707573 		.ascii	"cpuss_interrupts_dw0_2_IRQn\000"
 7861      735F696E 
 7861      74657272 
 7861      75707473 
 7861      5F647730 
 7862              	.LASF406:
 7863 1cfc 75617274 		.ascii	"uartMode\000"
 7863      4D6F6465 
 7863      00
 7864              	.LASF166:
 7865 1d05 7564625F 		.ascii	"udb_interrupts_5_IRQn\000"
 7865      696E7465 
 7865      72727570 
 7865      74735F35 
 7865      5F495251 
 7866              	.LASF201:
 7867 1d1b 756E7369 		.ascii	"unsigned int\000"
 7867      676E6564 
 7867      20696E74 
 7867      00
 7868              	.LASF242:
 7869 1d28 4354524C 		.ascii	"CTRL\000"
 7869      00
 7870              	.LASF17:
 7871 1d2d 4E766963 		.ascii	"NvicMux11_IRQn\000"
 7871      4D757831 
 7871      315F4952 
 7871      516E00
 7872              	.LASF74:
 7873 1d3c 63707573 		.ascii	"cpuss_interrupts_ipc_10_IRQn\000"
 7873      735F696E 
 7873      74657272 
 7873      75707473 
 7873      5F697063 
 7874              	.LASF572:
 7875 1d59 43595F42 		.ascii	"CY_BLE_CONN_STATE_CLIENT_DISCONNECTED_DISCOVERED\000"
ARM GAS  C:\Users\salaz\AppData\Local\Temp\ccI54lrI.s 			page 207


 7875      4C455F43 
 7875      4F4E4E5F 
 7875      53544154 
 7875      455F434C 
 7876              	.LASF661:
 7877 1d8a 41707043 		.ascii	"AppControl.c\000"
 7877      6F6E7472 
 7877      6F6C2E63 
 7877      00
 7878              	.LASF343:
 7879 1d97 70776D4D 		.ascii	"pwmMode\000"
 7879      6F646500 
 7880              	.LASF471:
 7881 1d9f 43595F42 		.ascii	"CY_BLE_EVT_ADD_DEVICE_TO_WHITE_LIST_COMPLETE\000"
 7881      4C455F45 
 7881      56545F41 
 7881      44445F44 
 7881      45564943 
 7882              	.LASF106:
 7883 1dcc 63707573 		.ascii	"cpuss_interrupts_dw1_1_IRQn\000"
 7883      735F696E 
 7883      74657272 
 7883      75707473 
 7883      5F647731 
 7884              	.LASF328:
 7885 1de8 656E6162 		.ascii	"enableCompareSwap\000"
 7885      6C65436F 
 7885      6D706172 
 7885      65537761 
 7885      7000
 7886              	.LASF355:
 7887 1dfa 6B696C6C 		.ascii	"killInput\000"
 7887      496E7075 
 7887      7400
 7888              	.LASF513:
 7889 1e04 43595F42 		.ascii	"CY_BLE_EVT_GAP_KEYPRESS_NOTIFICATION\000"
 7889      4C455F45 
 7889      56545F47 
 7889      41505F4B 
 7889      45595052 
 7890              	.LASF597:
 7891 1e29 42595041 		.ascii	"BYPASS\000"
 7891      535300
 7892              	.LASF125:
 7893 1e30 63707573 		.ascii	"cpuss_interrupts_cm0_cti_0_IRQn\000"
 7893      735F696E 
 7893      74657272 
 7893      75707473 
 7893      5F636D30 
 7894              	.LASF463:
 7895 1e50 43595F42 		.ascii	"CY_BLE_EVT_DATA_LENGTH_CHANGE\000"
 7895      4C455F45 
 7895      56545F44 
 7895      4154415F 
 7895      4C454E47 
 7896              	.LASF339:
 7897 1e6e 636F756E 		.ascii	"countInput\000"
ARM GAS  C:\Users\salaz\AppData\Local\Temp\ccI54lrI.s 			page 208


 7897      74496E70 
 7897      757400
 7898              	.LASF159:
 7899 1e79 74637077 		.ascii	"tcpwm_1_interrupts_22_IRQn\000"
 7899      6D5F315F 
 7899      696E7465 
 7899      72727570 
 7899      74735F32 
 7900              	.LASF575:
 7901 1e94 43595F42 		.ascii	"CY_BLE_CONN_STATE_CLIENT_INCL_DISCOVERING\000"
 7901      4C455F43 
 7901      4F4E4E5F 
 7901      53544154 
 7901      455F434C 
 7902              	.LASF447:
 7903 1ebe 43595F42 		.ascii	"CY_BLE_EVT_INVALID\000"
 7903      4C455F45 
 7903      56545F49 
 7903      4E56414C 
 7903      494400
 7904              	.LASF527:
 7905 1ed1 43595F42 		.ascii	"CY_BLE_EVT_GATT_CONNECT_IND\000"
 7905      4C455F45 
 7905      56545F47 
 7905      4154545F 
 7905      434F4E4E 
 7906              	.LASF259:
 7907 1eed 54585F43 		.ascii	"TX_CTRL\000"
 7907      54524C00 
 7908              	.LASF15:
 7909 1ef5 4E766963 		.ascii	"NvicMux9_IRQn\000"
 7909      4D757839 
 7909      5F495251 
 7909      6E00
 7910              	.LASF280:
 7911 1f03 494E5452 		.ascii	"INTR_I2C_EC_MASK\000"
 7911      5F493243 
 7911      5F45435F 
 7911      4D41534B 
 7911      00
 7912              	.LASF566:
 7913 1f14 43595F42 		.ascii	"CY_BLE_ADV_STATE_STOPPED\000"
 7913      4C455F41 
 7913      44565F53 
 7913      54415445 
 7913      5F53544F 
 7914              	.LASF177:
 7915 1f2d 70617373 		.ascii	"pass_interrupt_sar_IRQn\000"
 7915      5F696E74 
 7915      65727275 
 7915      70745F73 
 7915      61725F49 
 7916              	.LASF570:
 7917 1f45 63795F65 		.ascii	"cy_en_ble_adv_state_t\000"
 7917      6E5F626C 
 7917      655F6164 
 7917      765F7374 
ARM GAS  C:\Users\salaz\AppData\Local\Temp\ccI54lrI.s 			page 209


 7917      6174655F 
 7918              	.LASF54:
 7919 1f5b 696F7373 		.ascii	"ioss_interrupt_gpio_IRQn\000"
 7919      5F696E74 
 7919      65727275 
 7919      70745F67 
 7919      70696F5F 
 7920              	.LASF613:
 7921 1f74 70696E4E 		.ascii	"pinNum\000"
 7921      756D00
 7922              	.LASF27:
 7923 1f7b 4E766963 		.ascii	"NvicMux21_IRQn\000"
 7923      4D757832 
 7923      315F4952 
 7923      516E00
 7924              	.LASF324:
 7925 1f8a 636F756E 		.ascii	"countDirection\000"
 7925      74446972 
 7925      65637469 
 7925      6F6E00
 7926              	.LASF507:
 7927 1f99 43595F42 		.ascii	"CY_BLE_EVT_GAP_DEVICE_DISCONNECTED\000"
 7927      4C455F45 
 7927      56545F47 
 7927      41505F44 
 7927      45564943 
 7928              	.LASF252:
 7929 1fbc 55415254 		.ascii	"UART_FLOW_CTRL\000"
 7929      5F464C4F 
 7929      575F4354 
 7929      524C00
 7930              	.LASF380:
 7931 1fcb 736C6176 		.ascii	"slaveRxBufferSize\000"
 7931      65527842 
 7931      75666665 
 7931      7253697A 
 7931      6500
 7932              	.LASF493:
 7933 1fdd 43595F42 		.ascii	"CY_BLE_EVT_RADIO_TEMPERATURE\000"
 7933      4C455F45 
 7933      56545F52 
 7933      4144494F 
 7933      5F54454D 
 7934              	.LASF176:
 7935 1ffa 7564625F 		.ascii	"udb_interrupts_15_IRQn\000"
 7935      696E7465 
 7935      72727570 
 7935      74735F31 
 7935      355F4952 
 7936              	.LASF360:
 7937 2011 63795F63 		.ascii	"cy_cb_scb_i2c_handle_events_t\000"
 7937      625F7363 
 7937      625F6932 
 7937      635F6861 
 7937      6E646C65 
 7938              	.LASF540:
 7939 202f 43595F42 		.ascii	"CY_BLE_EVT_GATTS_WRITE_CMD_REQ\000"
ARM GAS  C:\Users\salaz\AppData\Local\Temp\ccI54lrI.s 			page 210


 7939      4C455F45 
 7939      56545F47 
 7939      41545453 
 7939      5F575249 
 7940              	.LASF145:
 7941 204e 74637077 		.ascii	"tcpwm_1_interrupts_8_IRQn\000"
 7941      6D5F315F 
 7941      696E7465 
 7941      72727570 
 7941      74735F38 
 7942              	.LASF193:
 7943 2068 5F5F7569 		.ascii	"__uint16_t\000"
 7943      6E743136 
 7943      5F7400
 7944              	.LASF16:
 7945 2073 4E766963 		.ascii	"NvicMux10_IRQn\000"
 7945      4D757831 
 7945      305F4952 
 7945      516E00
 7946              	.LASF429:
 7947 2082 74784669 		.ascii	"txFifoTriggerLevel\000"
 7947      666F5472 
 7947      69676765 
 7947      724C6576 
 7947      656C00
 7948              	.LASF644:
 7949 2095 76657269 		.ascii	"verifyLightCycles\000"
 7949      66794C69 
 7949      67687443 
 7949      79636C65 
 7949      7300
 7950              	.LASF436:
 7951 20a7 72785269 		.ascii	"rxRingBufSize\000"
 7951      6E674275 
 7951      6653697A 
 7951      6500
 7952              	.LASF40:
 7953 20b5 696F7373 		.ascii	"ioss_interrupts_gpio_1_IRQn\000"
 7953      5F696E74 
 7953      65727275 
 7953      7074735F 
 7953      6770696F 
 7954              	.LASF592:
 7955 20d1 4C696768 		.ascii	"LightColor\000"
 7955      74436F6C 
 7955      6F7200
 7956              	.LASF307:
 7957 20dc 43795343 		.ascii	"CySCB_Type\000"
 7957      425F5479 
 7957      706500
 7958              	.LASF84:
 7959 20e7 7363625F 		.ascii	"scb_4_interrupt_IRQn\000"
 7959      345F696E 
 7959      74657272 
 7959      7570745F 
 7959      4952516E 
 7960              	.LASF412:
ARM GAS  C:\Users\salaz\AppData\Local\Temp\ccI54lrI.s 			page 211


 7961 20fc 656E6162 		.ascii	"enableInputFilter\000"
 7961      6C65496E 
 7961      70757446 
 7961      696C7465 
 7961      7200
 7962              	.LASF237:
 7963 210e 5644445F 		.ascii	"VDD_INTR\000"
 7963      494E5452 
 7963      00
 7964              	.LASF285:
 7965 2117 494E5452 		.ascii	"INTR_SPI_EC_MASK\000"
 7965      5F535049 
 7965      5F45435F 
 7965      4D41534B 
 7965      00
 7966              	.LASF310:
 7967 2128 63686172 		.ascii	"char\000"
 7967      00
 7968              	.LASF503:
 7969 212d 43595F42 		.ascii	"CY_BLE_EVT_GAP_AUTH_COMPLETE\000"
 7969      4C455F45 
 7969      56545F47 
 7969      41505F41 
 7969      5554485F 
 7970              	.LASF381:
 7971 214a 736C6176 		.ascii	"slaveRxBufferIdx\000"
 7971      65527842 
 7971      75666665 
 7971      72496478 
 7971      00
 7972              	.LASF167:
 7973 215b 7564625F 		.ascii	"udb_interrupts_6_IRQn\000"
 7973      696E7465 
 7973      72727570 
 7973      74735F36 
 7973      5F495251 
 7974              	.LASF622:
 7975 2171 64617465 		.ascii	"dateAndTime\000"
 7975      416E6454 
 7975      696D6500 
 7976              	.LASF53:
 7977 217d 696F7373 		.ascii	"ioss_interrupts_gpio_14_IRQn\000"
 7977      5F696E74 
 7977      65727275 
 7977      7074735F 
 7977      6770696F 
 7978              	.LASF102:
 7979 219a 63707573 		.ascii	"cpuss_interrupts_dw0_13_IRQn\000"
 7979      735F696E 
 7979      74657272 
 7979      75707473 
 7979      5F647730 
 7980              	.LASF140:
 7981 21b7 74637077 		.ascii	"tcpwm_1_interrupts_3_IRQn\000"
 7981      6D5F315F 
 7981      696E7465 
 7981      72727570 
ARM GAS  C:\Users\salaz\AppData\Local\Temp\ccI54lrI.s 			page 212


 7981      74735F33 
 7982              	.LASF308:
 7983 21d1 6C6F6E67 		.ascii	"long double\000"
 7983      20646F75 
 7983      626C6500 
 7984              	.LASF59:
 7985 21dd 73727373 		.ascii	"srss_interrupt_mcwdt_1_IRQn\000"
 7985      5F696E74 
 7985      65727275 
 7985      70745F6D 
 7985      63776474 
 7986              	.LASF630:
 7987 21f9 55415254 		.ascii	"UART_DEBUG_context\000"
 7987      5F444542 
 7987      55475F63 
 7987      6F6E7465 
 7987      787400
 7988              	.LASF223:
 7989 220c 494E5452 		.ascii	"INTR_SET\000"
 7989      5F534554 
 7989      00
 7990              	.LASF296:
 7991 2215 494E5452 		.ascii	"INTR_S_MASKED\000"
 7991      5F535F4D 
 7991      41534B45 
 7991      4400
 7992              	.LASF476:
 7993 2223 43595F42 		.ascii	"CY_BLE_EVT_PHY_UPDATE_COMPLETE\000"
 7993      4C455F45 
 7993      56545F50 
 7993      48595F55 
 7993      50444154 
 7994              	.LASF404:
 7995 2242 63795F63 		.ascii	"cy_cb_scb_uart_handle_events_t\000"
 7995      625F7363 
 7995      625F7561 
 7995      72745F68 
 7995      616E646C 
 7996              	.LASF460:
 7997 2261 43595F42 		.ascii	"CY_BLE_EVT_SET_DATA_LENGTH_COMPLETE\000"
 7997      4C455F45 
 7997      56545F53 
 7997      45545F44 
 7997      4154415F 
 7998              	.LASF542:
 7999 2285 43595F42 		.ascii	"CY_BLE_EVT_GATTS_EXEC_WRITE_REQ\000"
 7999      4C455F45 
 7999      56545F47 
 7999      41545453 
 7999      5F455845 
 8000              	.LASF261:
 8001 22a5 54585F46 		.ascii	"TX_FIFO_STATUS\000"
 8001      49464F5F 
 8001      53544154 
 8001      555300
 8002              	.LASF283:
 8003 22b4 494E5452 		.ascii	"INTR_SPI_EC\000"
ARM GAS  C:\Users\salaz\AppData\Local\Temp\ccI54lrI.s 			page 213


 8003      5F535049 
 8003      5F454300 
 8004              	.LASF95:
 8005 22c0 63707573 		.ascii	"cpuss_interrupts_dw0_6_IRQn\000"
 8005      735F696E 
 8005      74657272 
 8005      75707473 
 8005      5F647730 
 8006              	.LASF611:
 8007 22dc 43795F53 		.ascii	"Cy_SCB_GetNumInTxFifo\000"
 8007      43425F47 
 8007      65744E75 
 8007      6D496E54 
 8007      78466966 
 8008              	.LASF635:
 8009 22f2 4C696768 		.ascii	"LightOutputB_config\000"
 8009      744F7574 
 8009      70757442 
 8009      5F636F6E 
 8009      66696700 
 8010              	.LASF444:
 8011 2306 74784C65 		.ascii	"txLeftToTransmit\000"
 8011      6674546F 
 8011      5472616E 
 8011      736D6974 
 8011      00
 8012              	.LASF222:
 8013 2317 494E5452 		.ascii	"INTR_MASKED\000"
 8013      5F4D4153 
 8013      4B454400 
 8014              	.LASF138:
 8015 2323 74637077 		.ascii	"tcpwm_1_interrupts_1_IRQn\000"
 8015      6D5F315F 
 8015      696E7465 
 8015      72727570 
 8015      74735F31 
 8016              	.LASF69:
 8017 233d 63707573 		.ascii	"cpuss_interrupts_ipc_5_IRQn\000"
 8017      735F696E 
 8017      74657272 
 8017      75707473 
 8017      5F697063 
 8018              	.LASF416:
 8019 2359 72656365 		.ascii	"receiverAddress\000"
 8019      69766572 
 8019      41646472 
 8019      65737300 
 8020              	.LASF45:
 8021 2369 696F7373 		.ascii	"ioss_interrupts_gpio_6_IRQn\000"
 8021      5F696E74 
 8021      65727275 
 8021      7074735F 
 8021      6770696F 
 8022              	.LASF21:
 8023 2385 4E766963 		.ascii	"NvicMux15_IRQn\000"
 8023      4D757831 
 8023      355F4952 
ARM GAS  C:\Users\salaz\AppData\Local\Temp\ccI54lrI.s 			page 214


 8023      516E00
 8024              	.LASF179:
 8025 2394 61756469 		.ascii	"audioss_interrupt_pdm_IRQn\000"
 8025      6F73735F 
 8025      696E7465 
 8025      72727570 
 8025      745F7064 
 8026              	.LASF421:
 8027 23af 736D6172 		.ascii	"smartCardRetryOnNack\000"
 8027      74436172 
 8027      64526574 
 8027      72794F6E 
 8027      4E61636B 
 8028              	.LASF467:
 8029 23c4 43595F42 		.ascii	"CY_BLE_EVT_SET_RPA_ENABLE_COMPLETE\000"
 8029      4C455F45 
 8029      56545F53 
 8029      45545F52 
 8029      50415F45 
 8030              	.LASF63:
 8031 23e7 626C6573 		.ascii	"bless_interrupt_IRQn\000"
 8031      735F696E 
 8031      74657272 
 8031      7570745F 
 8031      4952516E 
 8032              	.LASF511:
 8033 23fc 43595F42 		.ascii	"CY_BLE_EVT_GAP_KEYINFO_EXCHNGE_CMPLT\000"
 8033      4C455F45 
 8033      56545F47 
 8033      41505F4B 
 8033      4559494E 
 8034              	.LASF345:
 8035 2421 64656164 		.ascii	"deadTimeClocks\000"
 8035      54696D65 
 8035      436C6F63 
 8035      6B7300
 8036              	.LASF216:
 8037 2430 4E564943 		.ascii	"NVIC_Type\000"
 8037      5F547970 
 8037      6500
 8038              	.LASF422:
 8039 243a 656E6162 		.ascii	"enableCts\000"
 8039      6C654374 
 8039      7300
 8040              	.LASF175:
 8041 2444 7564625F 		.ascii	"udb_interrupts_14_IRQn\000"
 8041      696E7465 
 8041      72727570 
 8041      74735F31 
 8041      345F4952 
 8042              	.LASF144:
 8043 245b 74637077 		.ascii	"tcpwm_1_interrupts_7_IRQn\000"
 8043      6D5F315F 
 8043      696E7465 
 8043      72727570 
 8043      74735F37 
 8044              	.LASF509:
ARM GAS  C:\Users\salaz\AppData\Local\Temp\ccI54lrI.s 			page 215


 8045 2475 43595F42 		.ascii	"CY_BLE_EVT_GAP_CONNECTION_UPDATE_COMPLETE\000"
 8045      4C455F45 
 8045      56545F47 
 8045      41505F43 
 8045      4F4E4E45 
 8046              	.LASF364:
 8047 249f 75736554 		.ascii	"useTxFifo\000"
 8047      78466966 
 8047      6F00
 8048              	.LASF309:
 8049 24a9 63686172 		.ascii	"char_t\000"
 8049      5F7400
 8050              	.LASF556:
 8051 24b0 43595F42 		.ascii	"CY_BLE_EVT_L2CAP_CBFC_DISCONN_IND\000"
 8051      4C455F45 
 8051      56545F4C 
 8051      32434150 
 8051      5F434246 
 8052              	.LASF502:
 8053 24d2 43595F42 		.ascii	"CY_BLE_EVT_GAP_PASSKEY_DISPLAY_REQUEST\000"
 8053      4C455F45 
 8053      56545F47 
 8053      41505F50 
 8053      4153534B 
 8054              	.LASF200:
 8055 24f9 6C6F6E67 		.ascii	"long long unsigned int\000"
 8055      206C6F6E 
 8055      6720756E 
 8055      7369676E 
 8055      65642069 
 8056              	.LASF224:
 8057 2510 494E5452 		.ascii	"INTR_CFG\000"
 8057      5F434647 
 8057      00
 8058              	.LASF115:
 8059 2519 63707573 		.ascii	"cpuss_interrupts_dw1_10_IRQn\000"
 8059      735F696E 
 8059      74657272 
 8059      75707473 
 8059      5F647731 
 8060              	.LASF459:
 8061 2536 43595F42 		.ascii	"CY_BLE_EVT_LE_PING_AUTH_TIMEOUT\000"
 8061      4C455F45 
 8061      56545F4C 
 8061      455F5049 
 8061      4E475F41 
 8062              	.LASF399:
 8063 2556 43595F53 		.ascii	"CY_SCB_UART_PARITY_ODD\000"
 8063      43425F55 
 8063      4152545F 
 8063      50415249 
 8063      54595F4F 
 8064              	.LASF203:
 8065 256d 75696E74 		.ascii	"uint16_t\000"
 8065      31365F74 
 8065      00
 8066              	.LASF489:
ARM GAS  C:\Users\salaz\AppData\Local\Temp\ccI54lrI.s 			page 216


 8067 2576 43595F42 		.ascii	"CY_BLE_EVT_AES_CCM_ENCRYPT_COMPLETE\000"
 8067      4C455F45 
 8067      56545F41 
 8067      45535F43 
 8067      434D5F45 
 8068              	.LASF392:
 8069 259a 43595F53 		.ascii	"CY_SCB_UART_STOP_BITS_2_5\000"
 8069      43425F55 
 8069      4152545F 
 8069      53544F50 
 8069      5F424954 
 8070              	.LASF260:
 8071 25b4 54585F46 		.ascii	"TX_FIFO_CTRL\000"
 8071      49464F5F 
 8071      4354524C 
 8071      00
 8072              	.LASF520:
 8073 25c1 43595F42 		.ascii	"CY_BLE_EVT_GAP_RESOLVE_DEVICE_COMPLETE\000"
 8073      4C455F45 
 8073      56545F47 
 8073      41505F52 
 8073      45534F4C 
 8074              	.LASF101:
 8075 25e8 63707573 		.ascii	"cpuss_interrupts_dw0_12_IRQn\000"
 8075      735F696E 
 8075      74657272 
 8075      75707473 
 8075      5F647730 
 8076              	.LASF530:
 8077 2605 43595F42 		.ascii	"CY_BLE_EVT_GATTC_XCHNG_MTU_RSP\000"
 8077      4C455F45 
 8077      56545F47 
 8077      41545443 
 8077      5F584348 
 8078              	.LASF275:
 8079 2624 52455345 		.ascii	"RESERVED10\000"
 8079      52564544 
 8079      313000
 8080              	.LASF0:
 8081 262f 52657365 		.ascii	"Reset_IRQn\000"
 8081      745F4952 
 8081      516E00
 8082              	.LASF279:
 8083 263a 52455345 		.ascii	"RESERVED12\000"
 8083      52564544 
 8083      313200
 8084              	.LASF282:
 8085 2645 52455345 		.ascii	"RESERVED13\000"
 8085      52564544 
 8085      313300
 8086              	.LASF284:
 8087 2650 52455345 		.ascii	"RESERVED14\000"
 8087      52564544 
 8087      313400
 8088              	.LASF287:
 8089 265b 52455345 		.ascii	"RESERVED15\000"
 8089      52564544 
ARM GAS  C:\Users\salaz\AppData\Local\Temp\ccI54lrI.s 			page 217


 8089      313500
 8090              	.LASF464:
 8091 2666 43595F42 		.ascii	"CY_BLE_EVT_GET_PEER_RPA_COMPLETE\000"
 8091      4C455F45 
 8091      56545F47 
 8091      45545F50 
 8091      4545525F 
 8092              	.LASF297:
 8093 2687 52455345 		.ascii	"RESERVED17\000"
 8093      52564544 
 8093      313700
 8094              	.LASF302:
 8095 2692 52455345 		.ascii	"RESERVED18\000"
 8095      52564544 
 8095      313800
 8096              	.LASF637:
 8097 269d 4D6F746F 		.ascii	"MotorTimer_config\000"
 8097      7254696D 
 8097      65725F63 
 8097      6F6E6669 
 8097      6700
 8098              	.LASF31:
 8099 26af 4E766963 		.ascii	"NvicMux25_IRQn\000"
 8099      4D757832 
 8099      355F4952 
 8099      516E00
 8100              	.LASF299:
 8101 26be 494E5452 		.ascii	"INTR_TX_SET\000"
 8101      5F54585F 
 8101      53455400 
 8102              	.LASF81:
 8103 26ca 7363625F 		.ascii	"scb_1_interrupt_IRQn\000"
 8103      315F696E 
 8103      74657272 
 8103      7570745F 
 8103      4952516E 
 8104              	.LASF579:
 8105 26df 63795F65 		.ascii	"cy_en_ble_conn_state_t\000"
 8105      6E5F626C 
 8105      655F636F 
 8105      6E6E5F73 
 8105      74617465 
 8106              	.LASF94:
 8107 26f6 63707573 		.ascii	"cpuss_interrupts_dw0_5_IRQn\000"
 8107      735F696E 
 8107      74657272 
 8107      75707473 
 8107      5F647730 
 8108              	.LASF442:
 8109 2712 74784275 		.ascii	"txBuf\000"
 8109      6600
 8110              	.LASF525:
 8111 2718 43595F42 		.ascii	"CY_BLE_EVT_GAP_ADV_TX\000"
 8111      4C455F45 
 8111      56545F47 
 8111      41505F41 
 8111      44565F54 
ARM GAS  C:\Users\salaz\AppData\Local\Temp\ccI54lrI.s 			page 218


 8112              	.LASF306:
 8113 272e 494E5452 		.ascii	"INTR_RX_MASKED\000"
 8113      5F52585F 
 8113      4D41534B 
 8113      454400
 8114              	.LASF569:
 8115 273d 43595F42 		.ascii	"CY_BLE_ADV_STATE_STOP_INITIATED\000"
 8115      4C455F41 
 8115      44565F53 
 8115      54415445 
 8115      5F53544F 
 8116              	.LASF169:
 8117 275d 7564625F 		.ascii	"udb_interrupts_8_IRQn\000"
 8117      696E7465 
 8117      72727570 
 8117      74735F38 
 8117      5F495251 
 8118              	.LASF20:
 8119 2773 4E766963 		.ascii	"NvicMux14_IRQn\000"
 8119      4D757831 
 8119      345F4952 
 8119      516E00
 8120              	.LASF561:
 8121 2782 43595F42 		.ascii	"CY_BLE_EVT_L2CAP_CBFC_DATA_WRITE_IND\000"
 8121      4C455F45 
 8121      56545F4C 
 8121      32434150 
 8121      5F434246 
 8122              	.LASF77:
 8123 27a7 63707573 		.ascii	"cpuss_interrupts_ipc_13_IRQn\000"
 8123      735F696E 
 8123      74657272 
 8123      75707473 
 8123      5F697063 
 8124              	.LASF208:
 8125 27c4 49434552 		.ascii	"ICER\000"
 8125      00
 8126              	.LASF658:
 8127 27c9 4B696E4F 		.ascii	"KinOS_BypassSettings\000"
 8127      535F4279 
 8127      70617373 
 8127      53657474 
 8127      696E6773 
 8128              	.LASF240:
 8129 27de 5644445F 		.ascii	"VDD_INTR_SET\000"
 8129      494E5452 
 8129      5F534554 
 8129      00
 8130              	.LASF359:
 8131 27eb 63795F65 		.ascii	"cy_en_scb_i2c_command_t\000"
 8131      6E5F7363 
 8131      625F6932 
 8131      635F636F 
 8131      6D6D616E 
 8132              	.LASF593:
 8133 2803 4C696768 		.ascii	"LightPattern\000"
 8133      74506174 
ARM GAS  C:\Users\salaz\AppData\Local\Temp\ccI54lrI.s 			page 219


 8133      7465726E 
 8133      00
 8134              	.LASF321:
 8135 2810 70657269 		.ascii	"period\000"
 8135      6F6400
 8136              	.LASF109:
 8137 2817 63707573 		.ascii	"cpuss_interrupts_dw1_4_IRQn\000"
 8137      735F696E 
 8137      74657272 
 8137      75707473 
 8137      5F647731 
 8138              	.LASF595:
 8139 2833 424F554E 		.ascii	"BOUNCE\000"
 8139      434500
 8140              	.LASF121:
 8141 283a 63707573 		.ascii	"cpuss_interrupts_fault_0_IRQn\000"
 8141      735F696E 
 8141      74657272 
 8141      75707473 
 8141      5F666175 
 8142              	.LASF643:
 8143 2858 76657269 		.ascii	"verifyAdvertise_s\000"
 8143      66794164 
 8143      76657274 
 8143      6973655F 
 8143      7300
 8144              	.LASF598:
 8145 286a 4368696D 		.ascii	"ChimePattern\000"
 8145      65506174 
 8145      7465726E 
 8145      00
 8146              	.LASF517:
 8147 2877 43595F42 		.ascii	"CY_BLE_EVT_GAP_SMP_NEGOTIATED_AUTH_INFO\000"
 8147      4C455F45 
 8147      56545F47 
 8147      41505F53 
 8147      4D505F4E 
 8148              	.LASF390:
 8149 289f 43595F53 		.ascii	"CY_SCB_UART_STOP_BITS_1_5\000"
 8149      43425F55 
 8149      4152545F 
 8149      53544F50 
 8149      5F424954 
 8150              	.LASF123:
 8151 28b9 63707573 		.ascii	"cpuss_interrupt_crypto_IRQn\000"
 8151      735F696E 
 8151      74657272 
 8151      7570745F 
 8151      63727970 
 8152              	.LASF417:
 8153 28d5 72656365 		.ascii	"receiverAddressMask\000"
 8153      69766572 
 8153      41646472 
 8153      6573734D 
 8153      61736B00 
 8154              	.LASF244:
 8155 28e9 434D445F 		.ascii	"CMD_RESP_CTRL\000"
ARM GAS  C:\Users\salaz\AppData\Local\Temp\ccI54lrI.s 			page 220


 8155      52455350 
 8155      5F435452 
 8155      4C00
 8156              	.LASF243:
 8157 28f7 53544154 		.ascii	"STATUS\000"
 8157      555300
 8158              	.LASF552:
 8159 28fe 43595F42 		.ascii	"CY_BLE_EVT_L2CAP_CONN_PARAM_UPDATE_RSP\000"
 8159      4C455F45 
 8159      56545F4C 
 8159      32434150 
 8159      5F434F4E 
 8160              	.LASF281:
 8161 2925 494E5452 		.ascii	"INTR_I2C_EC_MASKED\000"
 8161      5F493243 
 8161      5F45435F 
 8161      4D41534B 
 8161      454400
 8162              	.LASF80:
 8163 2938 7363625F 		.ascii	"scb_0_interrupt_IRQn\000"
 8163      305F696E 
 8163      74657272 
 8163      7570745F 
 8163      4952516E 
 8164              	.LASF258:
 8165 294d 44444654 		.ascii	"DDFT_CTRL\000"
 8165      5F435452 
 8165      4C00
 8166              	.LASF227:
 8167 2957 4346475F 		.ascii	"CFG_SIO\000"
 8167      53494F00 
 8168              	.LASF536:
 8169 295f 43595F42 		.ascii	"CY_BLE_EVT_GATTC_READ_BLOB_RSP\000"
 8169      4C455F45 
 8169      56545F47 
 8169      41545443 
 8169      5F524541 
 8170              	.LASF410:
 8171 297e 73746F70 		.ascii	"stopBits\000"
 8171      42697473 
 8171      00
 8172              	.LASF178:
 8173 2987 61756469 		.ascii	"audioss_interrupt_i2s_IRQn\000"
 8173      6F73735F 
 8173      696E7465 
 8173      72727570 
 8173      745F6932 
 8174              	.LASF129:
 8175 29a2 74637077 		.ascii	"tcpwm_0_interrupts_0_IRQn\000"
 8175      6D5F305F 
 8175      696E7465 
 8175      72727570 
 8175      74735F30 
 8176              	.LASF162:
 8177 29bc 7564625F 		.ascii	"udb_interrupts_1_IRQn\000"
 8177      696E7465 
 8177      72727570 
ARM GAS  C:\Users\salaz\AppData\Local\Temp\ccI54lrI.s 			page 221


 8177      74735F31 
 8177      5F495251 
 8178              	.LASF146:
 8179 29d2 74637077 		.ascii	"tcpwm_1_interrupts_9_IRQn\000"
 8179      6D5F315F 
 8179      696E7465 
 8179      72727570 
 8179      74735F39 
 8180              	.LASF295:
 8181 29ec 494E5452 		.ascii	"INTR_S_MASK\000"
 8181      5F535F4D 
 8181      41534B00 
 8182              	.LASF318:
 8183 29f8 696E7472 		.ascii	"intrPriority\000"
 8183      5072696F 
 8183      72697479 
 8183      00
 8184              	.LASF549:
 8185 2a05 43595F42 		.ascii	"CY_BLE_EVT_GATTS_READ_CHAR_VAL_ACCESS_REQ\000"
 8185      4C455F45 
 8185      56545F47 
 8185      41545453 
 8185      5F524541 
 8186              	.LASF581:
 8187 2a2f 6D6F6E74 		.ascii	"month\000"
 8187      6800
 8188              	.LASF289:
 8189 2a35 494E5452 		.ascii	"INTR_M_SET\000"
 8189      5F4D5F53 
 8189      455400
 8190              	.LASF286:
 8191 2a40 494E5452 		.ascii	"INTR_SPI_EC_MASKED\000"
 8191      5F535049 
 8191      5F45435F 
 8191      4D41534B 
 8191      454400
 8192              	.LASF30:
 8193 2a53 4E766963 		.ascii	"NvicMux24_IRQn\000"
 8193      4D757832 
 8193      345F4952 
 8193      516E00
 8194              	.LASF231:
 8195 2a62 4750494F 		.ascii	"GPIO_PRT_Type\000"
 8195      5F505254 
 8195      5F547970 
 8195      6500
 8196              	.LASF565:
 8197 2a70 63795F73 		.ascii	"cy_stc_ble_conn_handle_t\000"
 8197      74635F62 
 8197      6C655F63 
 8197      6F6E6E5F 
 8197      68616E64 
 8198              	.LASF505:
 8199 2a89 43595F42 		.ascii	"CY_BLE_EVT_GAPP_ADVERTISEMENT_START_STOP\000"
 8199      4C455F45 
 8199      56545F47 
 8199      4150505F 
ARM GAS  C:\Users\salaz\AppData\Local\Temp\ccI54lrI.s 			page 222


 8199      41445645 
 8200              	.LASF334:
 8201 2ab2 73746172 		.ascii	"startInputMode\000"
 8201      74496E70 
 8201      75744D6F 
 8201      646500
 8202              	.LASF434:
 8203 2ac1 72785374 		.ascii	"rxStatus\000"
 8203      61747573 
 8203      00
 8204              	.LASF137:
 8205 2aca 74637077 		.ascii	"tcpwm_1_interrupts_0_IRQn\000"
 8205      6D5F315F 
 8205      696E7465 
 8205      72727570 
 8205      74735F30 
 8206              	.LASF369:
 8207 2ae4 6D617374 		.ascii	"masterBuffer\000"
 8207      65724275 
 8207      66666572 
 8207      00
 8208              	.LASF383:
 8209 2af1 63624164 		.ascii	"cbAddr\000"
 8209      647200
 8210              	.LASF76:
 8211 2af8 63707573 		.ascii	"cpuss_interrupts_ipc_12_IRQn\000"
 8211      735F696E 
 8211      74657272 
 8211      75707473 
 8211      5F697063 
 8212              	.LASF573:
 8213 2b15 43595F42 		.ascii	"CY_BLE_CONN_STATE_CONNECTED\000"
 8213      4C455F43 
 8213      4F4E4E5F 
 8213      53544154 
 8213      455F434F 
 8214              	.LASF271:
 8215 2b31 52585F46 		.ascii	"RX_FIFO_RD\000"
 8215      49464F5F 
 8215      524400
 8216              	.LASF86:
 8217 2b3c 7363625F 		.ascii	"scb_6_interrupt_IRQn\000"
 8217      365F696E 
 8217      74657272 
 8217      7570745F 
 8217      4952516E 
 8218              	.LASF618:
 8219 2b51 6D6F7469 		.ascii	"motion_latch\000"
 8219      6F6E5F6C 
 8219      61746368 
 8219      00
 8220              	.LASF313:
 8221 2b5e 75696E74 		.ascii	"uint8\000"
 8221      3800
 8222              	.LASF11:
 8223 2b64 4E766963 		.ascii	"NvicMux5_IRQn\000"
 8223      4D757835 
ARM GAS  C:\Users\salaz\AppData\Local\Temp\ccI54lrI.s 			page 223


 8223      5F495251 
 8223      6E00
 8224              	.LASF457:
 8225 2b72 43595F42 		.ascii	"CY_BLE_EVT_GET_CHANNEL_MAP_COMPLETE\000"
 8225      4C455F45 
 8225      56545F47 
 8225      45545F43 
 8225      48414E4E 
 8226              	.LASF445:
 8227 2b96 696E6974 		.ascii	"initKey\000"
 8227      4B657900 
 8228              	.LASF571:
 8229 2b9e 43595F42 		.ascii	"CY_BLE_CONN_STATE_DISCONNECTED\000"
 8229      4C455F43 
 8229      4F4E4E5F 
 8229      53544154 
 8229      455F4449 
 8230              	.LASF187:
 8231 2bbd 73686F72 		.ascii	"short int\000"
 8231      7420696E 
 8231      7400
 8232              	.LASF492:
 8233 2bc7 43595F42 		.ascii	"CY_BLE_EVT_STACK_SHUTDOWN_COMPLETE\000"
 8233      4C455F45 
 8233      56545F53 
 8233      5441434B 
 8233      5F534855 
 8234              	.LASF483:
 8235 2bea 43595F42 		.ascii	"CY_BLE_EVT_GET_TX_PWR_COMPLETE\000"
 8235      4C455F45 
 8235      56545F47 
 8235      45545F54 
 8235      585F5057 
 8236              	.LASF56:
 8237 2c09 6C70636F 		.ascii	"lpcomp_interrupt_IRQn\000"
 8237      6D705F69 
 8237      6E746572 
 8237      72757074 
 8237      5F495251 
 8238              	.LASF62:
 8239 2c1f 70617373 		.ascii	"pass_interrupt_ctbs_IRQn\000"
 8239      5F696E74 
 8239      65727275 
 8239      70745F63 
 8239      7462735F 
 8240              	.LASF278:
 8241 2c38 494E5452 		.ascii	"INTR_I2C_EC\000"
 8241      5F493243 
 8241      5F454300 
 8242              	.LASF57:
 8243 2c44 7363625F 		.ascii	"scb_8_interrupt_IRQn\000"
 8243      385F696E 
 8243      74657272 
 8243      7570745F 
 8243      4952516E 
 8244              	.LASF18:
 8245 2c59 4E766963 		.ascii	"NvicMux12_IRQn\000"
ARM GAS  C:\Users\salaz\AppData\Local\Temp\ccI54lrI.s 			page 224


 8245      4D757831 
 8245      325F4952 
 8245      516E00
 8246              	.LASF72:
 8247 2c68 63707573 		.ascii	"cpuss_interrupts_ipc_8_IRQn\000"
 8247      735F696E 
 8247      74657272 
 8247      75707473 
 8247      5F697063 
 8248              	.LASF48:
 8249 2c84 696F7373 		.ascii	"ioss_interrupts_gpio_9_IRQn\000"
 8249      5F696E74 
 8249      65727275 
 8249      7074735F 
 8249      6770696F 
 8250              	.LASF24:
 8251 2ca0 4E766963 		.ascii	"NvicMux18_IRQn\000"
 8251      4D757831 
 8251      385F4952 
 8251      516E00
 8252              	.LASF266:
 8253 2caf 52585F46 		.ascii	"RX_FIFO_CTRL\000"
 8253      49464F5F 
 8253      4354524C 
 8253      00
 8254              	.LASF128:
 8255 2cbc 63707573 		.ascii	"cpuss_interrupts_cm4_cti_1_IRQn\000"
 8255      735F696E 
 8255      74657272 
 8255      75707473 
 8255      5F636D34 
 8256              	.LASF294:
 8257 2cdc 494E5452 		.ascii	"INTR_S_SET\000"
 8257      5F535F53 
 8257      455400
 8258              	.LASF506:
 8259 2ce7 43595F42 		.ascii	"CY_BLE_EVT_GAP_DEVICE_CONNECTED\000"
 8259      4C455F45 
 8259      56545F47 
 8259      41505F44 
 8259      45564943 
 8260              	.LASF494:
 8261 2d07 43595F42 		.ascii	"CY_BLE_EVT_RADIO_VOLTAGE_LEVEL\000"
 8261      4C455F45 
 8261      56545F52 
 8261      4144494F 
 8261      5F564F4C 
 8262              	.LASF371:
 8263 2d26 6D617374 		.ascii	"masterBufferIdx\000"
 8263      65724275 
 8263      66666572 
 8263      49647800 
 8264              	.LASF626:
 8265 2d36 63795F62 		.ascii	"cy_ble_connState\000"
 8265      6C655F63 
 8265      6F6E6E53 
 8265      74617465 
ARM GAS  C:\Users\salaz\AppData\Local\Temp\ccI54lrI.s 			page 225


 8265      00
 8266              	.LASF385:
 8267 2d47 43595F53 		.ascii	"CY_SCB_UART_STANDARD\000"
 8267      43425F55 
 8267      4152545F 
 8267      5354414E 
 8267      44415244 
 8268              	.LASF49:
 8269 2d5c 696F7373 		.ascii	"ioss_interrupts_gpio_10_IRQn\000"
 8269      5F696E74 
 8269      65727275 
 8269      7074735F 
 8269      6770696F 
 8270              	.LASF366:
 8271 2d79 6D617374 		.ascii	"masterStatus\000"
 8271      65725374 
 8271      61747573 
 8271      00
 8272              	.LASF401:
 8273 2d86 43595F53 		.ascii	"CY_SCB_UART_ACTIVE_LOW\000"
 8273      43425F55 
 8273      4152545F 
 8273      41435449 
 8273      56455F4C 
 8274              	.LASF582:
 8275 2d9d 686F7572 		.ascii	"hour\000"
 8275      00
 8276              	.LASF465:
 8277 2da2 43595F42 		.ascii	"CY_BLE_EVT_GET_LOCAL_RPA_COMPLETE\000"
 8277      4C455F45 
 8277      56545F47 
 8277      45545F4C 
 8277      4F43414C 
 8278              	.LASF621:
 8279 2dc4 6E657874 		.ascii	"next_state\000"
 8279      5F737461 
 8279      746500
 8280              	.LASF236:
 8281 2dcf 5644445F 		.ascii	"VDD_ACTIVE\000"
 8281      41435449 
 8281      564500
 8282              	.LASF340:
 8283 2dda 63795F73 		.ascii	"cy_stc_tcpwm_counter_config_t\000"
 8283      74635F74 
 8283      6370776D 
 8283      5F636F75 
 8283      6E746572 
 8284              	.LASF448:
 8285 2df8 43595F42 		.ascii	"CY_BLE_EVT_STACK_ON\000"
 8285      4C455F45 
 8285      56545F53 
 8285      5441434B 
 8285      5F4F4E00 
 8286              	.LASF601:
 8287 2e0c 424F4F42 		.ascii	"BOOBOO\000"
 8287      4F4F00
 8288              	.LASF10:
ARM GAS  C:\Users\salaz\AppData\Local\Temp\ccI54lrI.s 			page 226


 8289 2e13 4E766963 		.ascii	"NvicMux4_IRQn\000"
 8289      4D757834 
 8289      5F495251 
 8289      6E00
 8290              	.LASF599:
 8291 2e21 54574545 		.ascii	"TWEETS\000"
 8291      545300
 8292              	.LASF104:
 8293 2e28 63707573 		.ascii	"cpuss_interrupts_dw0_15_IRQn\000"
 8293      735F696E 
 8293      74657272 
 8293      75707473 
 8293      5F647730 
 8294              	.LASF65:
 8295 2e45 63707573 		.ascii	"cpuss_interrupts_ipc_1_IRQn\000"
 8295      735F696E 
 8295      74657272 
 8295      75707473 
 8295      5F697063 
 8296              	.LASF133:
 8297 2e61 74637077 		.ascii	"tcpwm_0_interrupts_4_IRQn\000"
 8297      6D5F305F 
 8297      696E7465 
 8297      72727570 
 8297      74735F34 
 8298              	.LASF624:
 8299 2e7b 63795F62 		.ascii	"cy_ble_advState\000"
 8299      6C655F61 
 8299      64765374 
 8299      61746500 
 8300              	.LASF155:
 8301 2e8b 74637077 		.ascii	"tcpwm_1_interrupts_18_IRQn\000"
 8301      6D5F315F 
 8301      696E7465 
 8301      72727570 
 8301      74735F31 
 8302              	.LASF415:
 8303 2ea6 656E6162 		.ascii	"enableMutliProcessorMode\000"
 8303      6C654D75 
 8303      746C6950 
 8303      726F6365 
 8303      73736F72 
 8304              	.LASF388:
 8305 2ebf 63795F65 		.ascii	"cy_en_scb_uart_mode_t\000"
 8305      6E5F7363 
 8305      625F7561 
 8305      72745F6D 
 8305      6F64655F 
 8306              	.LASF354:
 8307 2ed5 6B696C6C 		.ascii	"killInputMode\000"
 8307      496E7075 
 8307      744D6F64 
 8307      6500
 8308              	.LASF190:
 8309 2ee3 63795F65 		.ascii	"cy_en_intr_t\000"
 8309      6E5F696E 
 8309      74725F74 
ARM GAS  C:\Users\salaz\AppData\Local\Temp\ccI54lrI.s 			page 227


 8309      00
 8310              	.LASF495:
 8311 2ef0 43595F42 		.ascii	"CY_BLE_EVT_AES_CMAC_GEN_COMPLETE\000"
 8311      4C455F45 
 8311      56545F41 
 8311      45535F43 
 8311      4D41435F 
 8312              	.LASF83:
 8313 2f11 7363625F 		.ascii	"scb_3_interrupt_IRQn\000"
 8313      335F696E 
 8313      74657272 
 8313      7570745F 
 8313      4952516E 
 8314              	.LASF647:
 8315 2f26 4B696E4F 		.ascii	"KinOS_GetDateAndTime\000"
 8315      535F4765 
 8315      74446174 
 8315      65416E64 
 8315      54696D65 
 8316              	.LASF97:
 8317 2f3b 63707573 		.ascii	"cpuss_interrupts_dw0_8_IRQn\000"
 8317      735F696E 
 8317      74657272 
 8317      75707473 
 8317      5F647730 
 8318              	.LASF171:
 8319 2f57 7564625F 		.ascii	"udb_interrupts_10_IRQn\000"
 8319      696E7465 
 8319      72727570 
 8319      74735F31 
 8319      305F4952 
 8320              	.LASF55:
 8321 2f6e 696F7373 		.ascii	"ioss_interrupt_vdd_IRQn\000"
 8321      5F696E74 
 8321      65727275 
 8321      70745F76 
 8321      64645F49 
 8322              	.LASF254:
 8323 2f86 4932435F 		.ascii	"I2C_STATUS\000"
 8323      53544154 
 8323      555300
 8324              	.LASF325:
 8325 2f91 636F6D70 		.ascii	"compareOrCapture\000"
 8325      6172654F 
 8325      72436170 
 8325      74757265 
 8325      00
 8326              	.LASF481:
 8327 2fa2 43595F42 		.ascii	"CY_BLE_EVT_GET_DEVICE_ADDR_COMPLETE\000"
 8327      4C455F45 
 8327      56545F47 
 8327      45545F44 
 8327      45564943 
 8328              	.LASF375:
 8329 2fc6 736C6176 		.ascii	"slaveTxBuffer\000"
 8329      65547842 
 8329      75666665 
ARM GAS  C:\Users\salaz\AppData\Local\Temp\ccI54lrI.s 			page 228


 8329      7200
 8330              	.LASF400:
 8331 2fd4 63795F65 		.ascii	"cy_en_scb_uart_parity_t\000"
 8331      6E5F7363 
 8331      625F7561 
 8331      72745F70 
 8331      61726974 
 8332              	.LASF488:
 8333 2fec 43595F42 		.ascii	"CY_BLE_EVT_AES_ENCRYPT_COMPLETE\000"
 8333      4C455F45 
 8333      56545F41 
 8333      45535F45 
 8333      4E435259 
 8334              	.LASF23:
 8335 300c 4E766963 		.ascii	"NvicMux17_IRQn\000"
 8335      4D757831 
 8335      375F4952 
 8335      516E00
 8336              	.LASF619:
 8337 301b 75706461 		.ascii	"update_done\000"
 8337      74655F64 
 8337      6F6E6500 
 8338              	.LASF394:
 8339 3027 43595F53 		.ascii	"CY_SCB_UART_STOP_BITS_3_5\000"
 8339      43425F55 
 8339      4152545F 
 8339      53544F50 
 8339      5F424954 
 8340              	.LASF631:
 8341 3041 53656E73 		.ascii	"SensorBus_context\000"
 8341      6F724275 
 8341      735F636F 
 8341      6E746578 
 8341      7400
 8342              	.LASF623:
 8343 3053 63795F52 		.ascii	"cy_RTC_daysInMonthTbl\000"
 8343      54435F64 
 8343      61797349 
 8343      6E4D6F6E 
 8343      74685462 
 8344              	.LASF344:
 8345 3069 70776D41 		.ascii	"pwmAlignment\000"
 8345      6C69676E 
 8345      6D656E74 
 8345      00
 8346              	.LASF367:
 8347 3076 6D617374 		.ascii	"masterPause\000"
 8347      65725061 
 8347      75736500 
 8348              	.LASF112:
 8349 3082 63707573 		.ascii	"cpuss_interrupts_dw1_7_IRQn\000"
 8349      735F696E 
 8349      74657272 
 8349      75707473 
 8349      5F647731 
 8350              	.LASF182:
 8351 309e 7573625F 		.ascii	"usb_interrupt_hi_IRQn\000"
ARM GAS  C:\Users\salaz\AppData\Local\Temp\ccI54lrI.s 			page 229


 8351      696E7465 
 8351      72727570 
 8351      745F6869 
 8351      5F495251 
 8352              	.LASF368:
 8353 30b4 6D617374 		.ascii	"masterRdDir\000"
 8353      65725264 
 8353      44697200 
 8354              	.LASF568:
 8355 30c0 43595F42 		.ascii	"CY_BLE_ADV_STATE_ADVERTISING\000"
 8355      4C455F41 
 8355      44565F53 
 8355      54415445 
 8355      5F414456 
 8356              	.LASF358:
 8357 30dd 43595F53 		.ascii	"CY_SCB_I2C_NAK\000"
 8357      43425F49 
 8357      32435F4E 
 8357      414B00
 8358              	.LASF148:
 8359 30ec 74637077 		.ascii	"tcpwm_1_interrupts_11_IRQn\000"
 8359      6D5F315F 
 8359      696E7465 
 8359      72727570 
 8359      74735F31 
 8360              	.LASF272:
 8361 3107 52585F46 		.ascii	"RX_FIFO_RD_SILENT\000"
 8361      49464F5F 
 8361      52445F53 
 8361      494C454E 
 8361      5400
 8362              	.LASF423:
 8363 3119 63747350 		.ascii	"ctsPolarity\000"
 8363      6F6C6172 
 8363      69747900 
 8364              	.LASF117:
 8365 3125 63707573 		.ascii	"cpuss_interrupts_dw1_12_IRQn\000"
 8365      735F696E 
 8365      74657272 
 8365      75707473 
 8365      5F647731 
 8366              	.LASF337:
 8367 3142 73746F70 		.ascii	"stopInput\000"
 8367      496E7075 
 8367      7400
 8368              	.LASF194:
 8369 314c 73686F72 		.ascii	"short unsigned int\000"
 8369      7420756E 
 8369      7369676E 
 8369      65642069 
 8369      6E7400
 8370              	.LASF512:
 8371 315f 43595F42 		.ascii	"CY_BLE_EVT_GAP_NUMERIC_COMPARISON_REQUEST\000"
 8371      4C455F45 
 8371      56545F47 
 8371      41505F4E 
 8371      554D4552 
ARM GAS  C:\Users\salaz\AppData\Local\Temp\ccI54lrI.s 			page 230


 8372              	.LASF90:
 8373 3189 63707573 		.ascii	"cpuss_interrupts_dw0_1_IRQn\000"
 8373      735F696E 
 8373      74657272 
 8373      75707473 
 8373      5F647730 
 8374              	.LASF612:
 8375 31a5 62617365 		.ascii	"base\000"
 8375      00
 8376              	.LASF391:
 8377 31aa 43595F53 		.ascii	"CY_SCB_UART_STOP_BITS_2\000"
 8377      43425F55 
 8377      4152545F 
 8377      53544F50 
 8377      5F424954 
 8378              	.LASF393:
 8379 31c2 43595F53 		.ascii	"CY_SCB_UART_STOP_BITS_3\000"
 8379      43425F55 
 8379      4152545F 
 8379      53544F50 
 8379      5F424954 
 8380              	.LASF395:
 8381 31da 43595F53 		.ascii	"CY_SCB_UART_STOP_BITS_4\000"
 8381      43425F55 
 8381      4152545F 
 8381      53544F50 
 8381      5F424954 
 8382              	.LASF628:
 8383 31f2 41707043 		.ascii	"AppControl_IRQ_cfg\000"
 8383      6F6E7472 
 8383      6F6C5F49 
 8383      52515F63 
 8383      666700
 8384              	.LASF277:
 8385 3205 52455345 		.ascii	"RESERVED11\000"
 8385      52564544 
 8385      313100
 8386              	.LASF205:
 8387 3210 75696E74 		.ascii	"uint32_t\000"
 8387      33325F74 
 8387      00
 8388              	.LASF64:
 8389 3219 63707573 		.ascii	"cpuss_interrupts_ipc_0_IRQn\000"
 8389      735F696E 
 8389      74657272 
 8389      75707473 
 8389      5F697063 
 8390              	.LASF132:
 8391 3235 74637077 		.ascii	"tcpwm_0_interrupts_3_IRQn\000"
 8391      6D5F305F 
 8391      696E7465 
 8391      72727570 
 8391      74735F33 
 8392              	.LASF165:
 8393 324f 7564625F 		.ascii	"udb_interrupts_4_IRQn\000"
 8393      696E7465 
 8393      72727570 
ARM GAS  C:\Users\salaz\AppData\Local\Temp\ccI54lrI.s 			page 231


 8393      74735F34 
 8393      5F495251 
 8394              	.LASF403:
 8395 3265 63795F65 		.ascii	"cy_en_scb_uart_polarity_t\000"
 8395      6E5F7363 
 8395      625F7561 
 8395      72745F70 
 8395      6F6C6172 
 8396              	.LASF504:
 8397 327f 43595F42 		.ascii	"CY_BLE_EVT_GAP_AUTH_FAILED\000"
 8397      4C455F45 
 8397      56545F47 
 8397      41505F41 
 8397      5554485F 
 8398              	.LASF292:
 8399 329a 52455345 		.ascii	"RESERVED16\000"
 8399      52564544 
 8399      313600
 8400              	.LASF453:
 8401 32a5 43595F42 		.ascii	"CY_BLE_EVT_FLASH_CORRUPT\000"
 8401      4C455F45 
 8401      56545F46 
 8401      4C415348 
 8401      5F434F52 
 8402              	.LASF361:
 8403 32be 63795F63 		.ascii	"cy_cb_scb_i2c_handle_addr_t\000"
 8403      625F7363 
 8403      625F6932 
 8403      635F6861 
 8403      6E646C65 
 8404              	.LASF652:
 8405 32da 4B696E4F 		.ascii	"KinOS_IsAdvertising\000"
 8405      535F4973 
 8405      41647665 
 8405      72746973 
 8405      696E6700 
 8406              	.LASF33:
 8407 32ee 4E766963 		.ascii	"NvicMux27_IRQn\000"
 8407      4D757832 
 8407      375F4952 
 8407      516E00
 8408              	.LASF195:
 8409 32fd 5F5F696E 		.ascii	"__int32_t\000"
 8409      7433325F 
 8409      7400
 8410              	.LASF350:
 8411 3307 696E7665 		.ascii	"invertPWMOutN\000"
 8411      72745057 
 8411      4D4F7574 
 8411      4E00
 8412              	.LASF127:
 8413 3315 63707573 		.ascii	"cpuss_interrupts_cm4_cti_0_IRQn\000"
 8413      735F696E 
 8413      74657272 
 8413      75707473 
 8413      5F636D34 
 8414              	.LASF105:
ARM GAS  C:\Users\salaz\AppData\Local\Temp\ccI54lrI.s 			page 232


 8415 3335 63707573 		.ascii	"cpuss_interrupts_dw1_0_IRQn\000"
 8415      735F696E 
 8415      74657272 
 8415      75707473 
 8415      5F647731 
 8416              	.LASF424:
 8417 3351 72747352 		.ascii	"rtsRxFifoLevel\000"
 8417      78466966 
 8417      6F4C6576 
 8417      656C00
 8418              	.LASF430:
 8419 3360 74784669 		.ascii	"txFifoIntEnableMask\000"
 8419      666F496E 
 8419      74456E61 
 8419      626C654D 
 8419      61736B00 
 8420              	.LASF564:
 8421 3374 61747449 		.ascii	"attId\000"
 8421      6400
 8422              	.LASF591:
 8423 337a 57484954 		.ascii	"WHITE\000"
 8423      4500
 8424              	.LASF333:
 8425 3380 72656C6F 		.ascii	"reloadInput\000"
 8425      6164496E 
 8425      70757400 
 8426              	.LASF331:
 8427 338c 63617074 		.ascii	"captureInput\000"
 8427      75726549 
 8427      6E707574 
 8427      00
 8428              	.LASF524:
 8429 3399 43595F42 		.ascii	"CY_BLE_EVT_GAPP_UPDATE_ADV_SCAN_DATA_COMPLETE\000"
 8429      4C455F45 
 8429      56545F47 
 8429      4150505F 
 8429      55504441 
 8430              	.LASF206:
 8431 33c7 49534552 		.ascii	"ISER\000"
 8431      00
 8432              	.LASF79:
 8433 33cc 63707573 		.ascii	"cpuss_interrupts_ipc_15_IRQn\000"
 8433      735F696E 
 8433      74657272 
 8433      75707473 
 8433      5F697063 
 8434              	.LASF398:
 8435 33e9 43595F53 		.ascii	"CY_SCB_UART_PARITY_EVEN\000"
 8435      43425F55 
 8435      4152545F 
 8435      50415249 
 8435      54595F45 
 8436              	.LASF438:
 8437 3401 72785269 		.ascii	"rxRingBufTail\000"
 8437      6E674275 
 8437      66546169 
 8437      6C00
ARM GAS  C:\Users\salaz\AppData\Local\Temp\ccI54lrI.s 			page 233


 8438              	.LASF60:
 8439 340f 73727373 		.ascii	"srss_interrupt_backup_IRQn\000"
 8439      5F696E74 
 8439      65727275 
 8439      70745F62 
 8439      61636B75 
 8440              	.LASF426:
 8441 342a 62726561 		.ascii	"breakWidth\000"
 8441      6B576964 
 8441      746800
 8442              	.LASF2:
 8443 3435 48617264 		.ascii	"HardFault_IRQn\000"
 8443      4661756C 
 8443      745F4952 
 8443      516E00
 8444              	.LASF233:
 8445 3444 494E5452 		.ascii	"INTR_CAUSE1\000"
 8445      5F434155 
 8445      53453100 
 8446              	.LASF484:
 8447 3450 43595F42 		.ascii	"CY_BLE_EVT_SET_TX_PWR_COMPLETE\000"
 8447      4C455F45 
 8447      56545F53 
 8447      45545F54 
 8447      585F5057 
 8448              	.LASF58:
 8449 346f 73727373 		.ascii	"srss_interrupt_mcwdt_0_IRQn\000"
 8449      5F696E74 
 8449      65727275 
 8449      70745F6D 
 8449      63776474 
 8450              	.LASF241:
 8451 348b 4750494F 		.ascii	"GPIO_Type\000"
 8451      5F547970 
 8451      6500
 8452              	.LASF615:
 8453 3495 43795F47 		.ascii	"Cy_GPIO_Write\000"
 8453      50494F5F 
 8453      57726974 
 8453      6500
 8454              	.LASF158:
 8455 34a3 74637077 		.ascii	"tcpwm_1_interrupts_21_IRQn\000"
 8455      6D5F315F 
 8455      696E7465 
 8455      72727570 
 8455      74735F32 
 8456              	.LASF435:
 8457 34be 72785269 		.ascii	"rxRingBuf\000"
 8457      6E674275 
 8457      6600
 8458              	.LASF362:
 8459 34c8 63795F73 		.ascii	"cy_stc_scb_i2c_context\000"
 8459      74635F73 
 8459      63625F69 
 8459      32635F63 
 8459      6F6E7465 
 8460              	.LASF14:
ARM GAS  C:\Users\salaz\AppData\Local\Temp\ccI54lrI.s 			page 234


 8461 34df 4E766963 		.ascii	"NvicMux8_IRQn\000"
 8461      4D757838 
 8461      5F495251 
 8461      6E00
 8462              	.LASF37:
 8463 34ed 4E766963 		.ascii	"NvicMux31_IRQn\000"
 8463      4D757833 
 8463      315F4952 
 8463      516E00
 8464              	.LASF469:
 8465 34fc 43595F42 		.ascii	"CY_BLE_EVT_ADD_DEVICE_TO_RPA_LIST_COMPLETE\000"
 8465      4C455F45 
 8465      56545F41 
 8465      44445F44 
 8465      45564943 
 8466              	.LASF461:
 8467 3527 43595F42 		.ascii	"CY_BLE_EVT_SET_SUGGESTED_DATA_LENGTH_COMPLETE\000"
 8467      4C455F45 
 8467      56545F53 
 8467      45545F53 
 8467      55474745 
 8468              	.LASF314:
 8469 3555 75696E74 		.ascii	"uint16\000"
 8469      313600
 8470              	.LASF253:
 8471 355c 4932435F 		.ascii	"I2C_CTRL\000"
 8471      4354524C 
 8471      00
 8472              	.LASF335:
 8473 3565 73746172 		.ascii	"startInput\000"
 8473      74496E70 
 8473      757400
 8474              	.LASF497:
 8475 3570 43595F42 		.ascii	"CY_BLE_EVT_SET_CE_LENGTH_COMPLETE\000"
 8475      4C455F45 
 8475      56545F53 
 8475      45545F43 
 8475      455F4C45 
 8476              	.LASF26:
 8477 3592 4E766963 		.ascii	"NvicMux20_IRQn\000"
 8477      4D757832 
 8477      305F4952 
 8477      516E00
 8478              	.LASF519:
 8479 35a1 43595F42 		.ascii	"CY_BLE_EVT_GAP_KEYS_GEN_COMPLETE\000"
 8479      4C455F45 
 8479      56545F47 
 8479      41505F4B 
 8479      4559535F 
 8480              	.LASF387:
 8481 35c2 43595F53 		.ascii	"CY_SCB_UART_IRDA\000"
 8481      43425F55 
 8481      4152545F 
 8481      49524441 
 8481      00
 8482              	.LASF605:
 8483 35d3 46534D5F 		.ascii	"FSM_VERIFY_USER\000"
ARM GAS  C:\Users\salaz\AppData\Local\Temp\ccI54lrI.s 			page 235


 8483      56455249 
 8483      46595F55 
 8483      53455200 
 8484              		.ident	"GCC: (GNU Tools for ARM Embedded Processors) 5.4.1 20160609 (release) [ARM/embedded-5-bran
