ARM GAS  C:\Users\salaz\AppData\Local\Temp\cclALOeW.s 			page 1


   1              		.syntax unified
   2              		.cpu cortex-m0plus
   3              		.fpu softvfp
   4              		.eabi_attribute 20, 1
   5              		.eabi_attribute 21, 1
   6              		.eabi_attribute 23, 3
   7              		.eabi_attribute 24, 1
   8              		.eabi_attribute 25, 1
   9              		.eabi_attribute 26, 1
  10              		.eabi_attribute 30, 1
  11              		.eabi_attribute 34, 0
  12              		.eabi_attribute 18, 4
  13              		.thumb
  14              		.syntax unified
  15              		.file	"AppProcess.c"
  16              		.text
  17              	.Ltext0:
  18              		.cfi_sections	.debug_frame
  19              		.section	.text.AppProcess_Start,"ax",%progbits
  20              		.align	2
  21              		.global	AppProcess_Start
  22              		.code	16
  23              		.thumb_func
  24              		.type	AppProcess_Start, %function
  25              	AppProcess_Start:
  26              	.LFB792:
  27              		.file 1 "AppProcess.c"
   1:AppProcess.c  **** 
   2:AppProcess.c  **** #include <AppProcess.h>
   3:AppProcess.c  **** #include <KinOS.h>
   4:AppProcess.c  **** 
   5:AppProcess.c  **** #include "debug.h"
   6:AppProcess.c  **** 
   7:AppProcess.c  **** #define BT_CONFIG_LIGHT     0x0000
   8:AppProcess.c  **** #define BT_CONFIG_ALARM     0x0002
   9:AppProcess.c  **** #define BT_REGISTER_DEV     0x0003
  10:AppProcess.c  **** #define BT_SET_LIGHT_COLOR  0x0004
  11:AppProcess.c  **** #define BT_TIME_SYNC        0x0005
  12:AppProcess.c  **** 
  13:AppProcess.c  **** 
  14:AppProcess.c  **** void AppProcess_Start()
  15:AppProcess.c  **** {
  28              		.loc 1 15 0
  29              		.cfi_startproc
  30              		@ args = 0, pretend = 0, frame = 80
  31              		@ frame_needed = 0, uses_anonymous_args = 0
  32 0000 30B5     		push	{r4, r5, lr}
  33              		.cfi_def_cfa_offset 12
  34              		.cfi_offset 4, -12
  35              		.cfi_offset 5, -8
  36              		.cfi_offset 14, -4
  37 0002 99B0     		sub	sp, sp, #100
  38              		.cfi_def_cfa_offset 112
  16:AppProcess.c  ****     DEBUG_PRINTF("AppProcess_Start 1 \r\n");     
  39              		.loc 1 16 0
  40 0004 7148     		ldr	r0, .L18
  41 0006 FFF7FEFF 		bl	puts
ARM GAS  C:\Users\salaz\AppData\Local\Temp\cclALOeW.s 			page 2


  42              	.LVL0:
  43              	.L2:
  44              	.LBB23:
  45              	.LBB24:
  46              		.file 2 "Generated_Source\\PSoC6\\pdl\\drivers/peripheral/scb/cy_scb_common.h"
   1:Generated_Source\PSoC6\pdl\drivers/peripheral/scb/cy_scb_common.h **** /***************************************************************************//**
   2:Generated_Source\PSoC6\pdl\drivers/peripheral/scb/cy_scb_common.h **** * \file cy_scb_common.h
   3:Generated_Source\PSoC6\pdl\drivers/peripheral/scb/cy_scb_common.h **** * \version 2.10
   4:Generated_Source\PSoC6\pdl\drivers/peripheral/scb/cy_scb_common.h **** *
   5:Generated_Source\PSoC6\pdl\drivers/peripheral/scb/cy_scb_common.h **** * Provides common API declarations of the SCB driver.
   6:Generated_Source\PSoC6\pdl\drivers/peripheral/scb/cy_scb_common.h **** *
   7:Generated_Source\PSoC6\pdl\drivers/peripheral/scb/cy_scb_common.h **** ********************************************************************************
   8:Generated_Source\PSoC6\pdl\drivers/peripheral/scb/cy_scb_common.h **** * \copyright
   9:Generated_Source\PSoC6\pdl\drivers/peripheral/scb/cy_scb_common.h **** * Copyright 2016-2018, Cypress Semiconductor Corporation.  All rights reserved.
  10:Generated_Source\PSoC6\pdl\drivers/peripheral/scb/cy_scb_common.h **** * You may use this file only in accordance with the license, terms, conditions,
  11:Generated_Source\PSoC6\pdl\drivers/peripheral/scb/cy_scb_common.h **** * disclaimers, and limitations in the end user license agreement accompanying
  12:Generated_Source\PSoC6\pdl\drivers/peripheral/scb/cy_scb_common.h **** * the software package with which this file was provided.
  13:Generated_Source\PSoC6\pdl\drivers/peripheral/scb/cy_scb_common.h **** *******************************************************************************/
  14:Generated_Source\PSoC6\pdl\drivers/peripheral/scb/cy_scb_common.h **** 
  15:Generated_Source\PSoC6\pdl\drivers/peripheral/scb/cy_scb_common.h **** /**
  16:Generated_Source\PSoC6\pdl\drivers/peripheral/scb/cy_scb_common.h **** * \defgroup group_scb Serial Communication Block (SCB)
  17:Generated_Source\PSoC6\pdl\drivers/peripheral/scb/cy_scb_common.h **** * \{
  18:Generated_Source\PSoC6\pdl\drivers/peripheral/scb/cy_scb_common.h **** * \defgroup group_scb_common Common
  19:Generated_Source\PSoC6\pdl\drivers/peripheral/scb/cy_scb_common.h **** * \defgroup group_scb_ezi2c  EZI2C (SCB)
  20:Generated_Source\PSoC6\pdl\drivers/peripheral/scb/cy_scb_common.h **** * \defgroup group_scb_i2c    I2C (SCB)
  21:Generated_Source\PSoC6\pdl\drivers/peripheral/scb/cy_scb_common.h **** * \defgroup group_scb_spi    SPI (SCB)
  22:Generated_Source\PSoC6\pdl\drivers/peripheral/scb/cy_scb_common.h **** * \defgroup group_scb_uart   UART (SCB)
  23:Generated_Source\PSoC6\pdl\drivers/peripheral/scb/cy_scb_common.h **** * \} */
  24:Generated_Source\PSoC6\pdl\drivers/peripheral/scb/cy_scb_common.h **** 
  25:Generated_Source\PSoC6\pdl\drivers/peripheral/scb/cy_scb_common.h **** /**
  26:Generated_Source\PSoC6\pdl\drivers/peripheral/scb/cy_scb_common.h **** * \addtogroup group_scb_common
  27:Generated_Source\PSoC6\pdl\drivers/peripheral/scb/cy_scb_common.h **** * \{
  28:Generated_Source\PSoC6\pdl\drivers/peripheral/scb/cy_scb_common.h **** *
  29:Generated_Source\PSoC6\pdl\drivers/peripheral/scb/cy_scb_common.h **** * Common API for the Serial Communication Block.
  30:Generated_Source\PSoC6\pdl\drivers/peripheral/scb/cy_scb_common.h **** *
  31:Generated_Source\PSoC6\pdl\drivers/peripheral/scb/cy_scb_common.h **** * This is the common API that provides an interface to the SCB hardware.
  32:Generated_Source\PSoC6\pdl\drivers/peripheral/scb/cy_scb_common.h **** * The I2C, SPI, and UART drivers use this common API.
  33:Generated_Source\PSoC6\pdl\drivers/peripheral/scb/cy_scb_common.h **** * Most users will use individual drivers and do not need to use the common
  34:Generated_Source\PSoC6\pdl\drivers/peripheral/scb/cy_scb_common.h **** * API for the SCB. However, you can use the common SCB API to implement
  35:Generated_Source\PSoC6\pdl\drivers/peripheral/scb/cy_scb_common.h **** * a custom driver based on the SCB hardware.
  36:Generated_Source\PSoC6\pdl\drivers/peripheral/scb/cy_scb_common.h **** *
  37:Generated_Source\PSoC6\pdl\drivers/peripheral/scb/cy_scb_common.h **** * \section group_scb_common_configuration Configuration Considerations
  38:Generated_Source\PSoC6\pdl\drivers/peripheral/scb/cy_scb_common.h **** *
  39:Generated_Source\PSoC6\pdl\drivers/peripheral/scb/cy_scb_common.h **** * This is not a driver and it does not require configuration.
  40:Generated_Source\PSoC6\pdl\drivers/peripheral/scb/cy_scb_common.h **** *
  41:Generated_Source\PSoC6\pdl\drivers/peripheral/scb/cy_scb_common.h **** * \section group_scb_common_more_information More Information
  42:Generated_Source\PSoC6\pdl\drivers/peripheral/scb/cy_scb_common.h **** *
  43:Generated_Source\PSoC6\pdl\drivers/peripheral/scb/cy_scb_common.h **** * Refer to the SCB chapter of the technical reference manual (TRM).
  44:Generated_Source\PSoC6\pdl\drivers/peripheral/scb/cy_scb_common.h **** *
  45:Generated_Source\PSoC6\pdl\drivers/peripheral/scb/cy_scb_common.h **** * \section group_scb_common_MISRA MISRA-C Compliance
  46:Generated_Source\PSoC6\pdl\drivers/peripheral/scb/cy_scb_common.h **** * <table class="doxtable">
  47:Generated_Source\PSoC6\pdl\drivers/peripheral/scb/cy_scb_common.h **** *   <tr>
  48:Generated_Source\PSoC6\pdl\drivers/peripheral/scb/cy_scb_common.h **** *     <th>MISRA rule</th>
  49:Generated_Source\PSoC6\pdl\drivers/peripheral/scb/cy_scb_common.h **** *     <th>Rule Class (Required/Advisory)</th>
  50:Generated_Source\PSoC6\pdl\drivers/peripheral/scb/cy_scb_common.h **** *     <th>Rule Description</th>
  51:Generated_Source\PSoC6\pdl\drivers/peripheral/scb/cy_scb_common.h **** *     <th>Description of Deviation(s)</th>
  52:Generated_Source\PSoC6\pdl\drivers/peripheral/scb/cy_scb_common.h **** *   </tr>
ARM GAS  C:\Users\salaz\AppData\Local\Temp\cclALOeW.s 			page 3


  53:Generated_Source\PSoC6\pdl\drivers/peripheral/scb/cy_scb_common.h **** *   <tr>
  54:Generated_Source\PSoC6\pdl\drivers/peripheral/scb/cy_scb_common.h **** *     <td>11.4</td>
  55:Generated_Source\PSoC6\pdl\drivers/peripheral/scb/cy_scb_common.h **** *     <td>A</td>
  56:Generated_Source\PSoC6\pdl\drivers/peripheral/scb/cy_scb_common.h **** *     <td>A cast should not be performed between a pointer to object type and
  57:Generated_Source\PSoC6\pdl\drivers/peripheral/scb/cy_scb_common.h **** *         a different pointer to object type.</td>
  58:Generated_Source\PSoC6\pdl\drivers/peripheral/scb/cy_scb_common.h **** *     <td>The pointer to the buffer memory is void to allow handling of
  59:Generated_Source\PSoC6\pdl\drivers/peripheral/scb/cy_scb_common.h **** *         different data types: uint8_t (4-8 bits) or uint16_t (9-16 bits).
  60:Generated_Source\PSoC6\pdl\drivers/peripheral/scb/cy_scb_common.h **** *         The cast operation is safe because the configuration is verified
  61:Generated_Source\PSoC6\pdl\drivers/peripheral/scb/cy_scb_common.h **** *         before operation is performed.
  62:Generated_Source\PSoC6\pdl\drivers/peripheral/scb/cy_scb_common.h **** *         </td>
  63:Generated_Source\PSoC6\pdl\drivers/peripheral/scb/cy_scb_common.h **** *   </tr>
  64:Generated_Source\PSoC6\pdl\drivers/peripheral/scb/cy_scb_common.h **** * </table>
  65:Generated_Source\PSoC6\pdl\drivers/peripheral/scb/cy_scb_common.h **** *
  66:Generated_Source\PSoC6\pdl\drivers/peripheral/scb/cy_scb_common.h **** * \section group_scb_common_changelog Changelog
  67:Generated_Source\PSoC6\pdl\drivers/peripheral/scb/cy_scb_common.h **** * <table class="doxtable">
  68:Generated_Source\PSoC6\pdl\drivers/peripheral/scb/cy_scb_common.h **** *   <tr><th>Version</th><th>Changes</th><th>Reason for Change</th></tr>
  69:Generated_Source\PSoC6\pdl\drivers/peripheral/scb/cy_scb_common.h **** *   <tr>
  70:Generated_Source\PSoC6\pdl\drivers/peripheral/scb/cy_scb_common.h **** *     <td>2.10</td>
  71:Generated_Source\PSoC6\pdl\drivers/peripheral/scb/cy_scb_common.h **** *     <td>None.</td>
  72:Generated_Source\PSoC6\pdl\drivers/peripheral/scb/cy_scb_common.h **** *     <td>SCB I2C driver updated.</td>
  73:Generated_Source\PSoC6\pdl\drivers/peripheral/scb/cy_scb_common.h **** *   </tr>
  74:Generated_Source\PSoC6\pdl\drivers/peripheral/scb/cy_scb_common.h **** *   <tr>
  75:Generated_Source\PSoC6\pdl\drivers/peripheral/scb/cy_scb_common.h **** *     <td rowspan="2"> 2.0</td>
  76:Generated_Source\PSoC6\pdl\drivers/peripheral/scb/cy_scb_common.h **** *     <td>Added parameters validation for public API.
  77:Generated_Source\PSoC6\pdl\drivers/peripheral/scb/cy_scb_common.h **** *     <td></td>
  78:Generated_Source\PSoC6\pdl\drivers/peripheral/scb/cy_scb_common.h **** *   </tr>
  79:Generated_Source\PSoC6\pdl\drivers/peripheral/scb/cy_scb_common.h **** *   <tr>
  80:Generated_Source\PSoC6\pdl\drivers/peripheral/scb/cy_scb_common.h **** *     <td>Fixed functions which return interrupt status to return only defined
  81:Generated_Source\PSoC6\pdl\drivers/peripheral/scb/cy_scb_common.h **** *         set of interrupt statuses.</td>
  82:Generated_Source\PSoC6\pdl\drivers/peripheral/scb/cy_scb_common.h **** *     <td></td>
  83:Generated_Source\PSoC6\pdl\drivers/peripheral/scb/cy_scb_common.h **** *   </tr>
  84:Generated_Source\PSoC6\pdl\drivers/peripheral/scb/cy_scb_common.h **** *   <tr>
  85:Generated_Source\PSoC6\pdl\drivers/peripheral/scb/cy_scb_common.h **** *     <td>1.0</td>
  86:Generated_Source\PSoC6\pdl\drivers/peripheral/scb/cy_scb_common.h **** *     <td>Initial version.</td>
  87:Generated_Source\PSoC6\pdl\drivers/peripheral/scb/cy_scb_common.h **** *     <td></td>
  88:Generated_Source\PSoC6\pdl\drivers/peripheral/scb/cy_scb_common.h **** *   </tr>
  89:Generated_Source\PSoC6\pdl\drivers/peripheral/scb/cy_scb_common.h **** * </table>
  90:Generated_Source\PSoC6\pdl\drivers/peripheral/scb/cy_scb_common.h **** *
  91:Generated_Source\PSoC6\pdl\drivers/peripheral/scb/cy_scb_common.h **** * \defgroup group_scb_common_macros Macros
  92:Generated_Source\PSoC6\pdl\drivers/peripheral/scb/cy_scb_common.h **** * \defgroup group_scb_common_functions Functions
  93:Generated_Source\PSoC6\pdl\drivers/peripheral/scb/cy_scb_common.h **** * \defgroup group_scb_common_data_structures Data Structures
  94:Generated_Source\PSoC6\pdl\drivers/peripheral/scb/cy_scb_common.h **** *
  95:Generated_Source\PSoC6\pdl\drivers/peripheral/scb/cy_scb_common.h **** */
  96:Generated_Source\PSoC6\pdl\drivers/peripheral/scb/cy_scb_common.h **** 
  97:Generated_Source\PSoC6\pdl\drivers/peripheral/scb/cy_scb_common.h **** #if !defined(CY_SCB_COMMON_H)
  98:Generated_Source\PSoC6\pdl\drivers/peripheral/scb/cy_scb_common.h **** #define CY_SCB_COMMON_H
  99:Generated_Source\PSoC6\pdl\drivers/peripheral/scb/cy_scb_common.h **** 
 100:Generated_Source\PSoC6\pdl\drivers/peripheral/scb/cy_scb_common.h **** #include <stdint.h>
 101:Generated_Source\PSoC6\pdl\drivers/peripheral/scb/cy_scb_common.h **** #include <stddef.h>
 102:Generated_Source\PSoC6\pdl\drivers/peripheral/scb/cy_scb_common.h **** #include <stdbool.h>
 103:Generated_Source\PSoC6\pdl\drivers/peripheral/scb/cy_scb_common.h **** #include "cy_device_headers.h"
 104:Generated_Source\PSoC6\pdl\drivers/peripheral/scb/cy_scb_common.h **** #include "syslib/cy_syslib.h"
 105:Generated_Source\PSoC6\pdl\drivers/peripheral/scb/cy_scb_common.h **** #include "syspm/cy_syspm.h"
 106:Generated_Source\PSoC6\pdl\drivers/peripheral/scb/cy_scb_common.h **** 
 107:Generated_Source\PSoC6\pdl\drivers/peripheral/scb/cy_scb_common.h **** #ifndef CY_IP_MXSCB
 108:Generated_Source\PSoC6\pdl\drivers/peripheral/scb/cy_scb_common.h ****     #error "The SCB driver is not supported on this device"
 109:Generated_Source\PSoC6\pdl\drivers/peripheral/scb/cy_scb_common.h **** #endif
ARM GAS  C:\Users\salaz\AppData\Local\Temp\cclALOeW.s 			page 4


 110:Generated_Source\PSoC6\pdl\drivers/peripheral/scb/cy_scb_common.h **** 
 111:Generated_Source\PSoC6\pdl\drivers/peripheral/scb/cy_scb_common.h **** #if defined(__cplusplus)
 112:Generated_Source\PSoC6\pdl\drivers/peripheral/scb/cy_scb_common.h **** extern "C" {
 113:Generated_Source\PSoC6\pdl\drivers/peripheral/scb/cy_scb_common.h **** #endif
 114:Generated_Source\PSoC6\pdl\drivers/peripheral/scb/cy_scb_common.h **** 
 115:Generated_Source\PSoC6\pdl\drivers/peripheral/scb/cy_scb_common.h **** 
 116:Generated_Source\PSoC6\pdl\drivers/peripheral/scb/cy_scb_common.h **** /***************************************
 117:Generated_Source\PSoC6\pdl\drivers/peripheral/scb/cy_scb_common.h **** *        Function Prototypes
 118:Generated_Source\PSoC6\pdl\drivers/peripheral/scb/cy_scb_common.h **** ***************************************/
 119:Generated_Source\PSoC6\pdl\drivers/peripheral/scb/cy_scb_common.h **** 
 120:Generated_Source\PSoC6\pdl\drivers/peripheral/scb/cy_scb_common.h **** /**
 121:Generated_Source\PSoC6\pdl\drivers/peripheral/scb/cy_scb_common.h **** * \addtogroup group_scb_common_functions
 122:Generated_Source\PSoC6\pdl\drivers/peripheral/scb/cy_scb_common.h **** * \{
 123:Generated_Source\PSoC6\pdl\drivers/peripheral/scb/cy_scb_common.h **** */
 124:Generated_Source\PSoC6\pdl\drivers/peripheral/scb/cy_scb_common.h **** __STATIC_INLINE uint32_t Cy_SCB_ReadRxFifo    (CySCB_Type const *base);
 125:Generated_Source\PSoC6\pdl\drivers/peripheral/scb/cy_scb_common.h **** __STATIC_INLINE void     Cy_SCB_SetRxFifoLevel(CySCB_Type *base, uint32_t level);
 126:Generated_Source\PSoC6\pdl\drivers/peripheral/scb/cy_scb_common.h **** __STATIC_INLINE uint32_t Cy_SCB_GetNumInRxFifo(CySCB_Type const *base);
 127:Generated_Source\PSoC6\pdl\drivers/peripheral/scb/cy_scb_common.h **** __STATIC_INLINE uint32_t Cy_SCB_GetRxSrValid  (CySCB_Type const *base);
 128:Generated_Source\PSoC6\pdl\drivers/peripheral/scb/cy_scb_common.h **** __STATIC_INLINE void     Cy_SCB_ClearRxFifo   (CySCB_Type *base);
 129:Generated_Source\PSoC6\pdl\drivers/peripheral/scb/cy_scb_common.h **** 
 130:Generated_Source\PSoC6\pdl\drivers/peripheral/scb/cy_scb_common.h **** __STATIC_INLINE void     Cy_SCB_WriteTxFifo   (CySCB_Type *base, uint32_t data);
 131:Generated_Source\PSoC6\pdl\drivers/peripheral/scb/cy_scb_common.h **** __STATIC_INLINE void     Cy_SCB_SetTxFifoLevel(CySCB_Type *base, uint32_t level);
 132:Generated_Source\PSoC6\pdl\drivers/peripheral/scb/cy_scb_common.h **** __STATIC_INLINE uint32_t Cy_SCB_GetNumInTxFifo(CySCB_Type const *base);
 133:Generated_Source\PSoC6\pdl\drivers/peripheral/scb/cy_scb_common.h **** __STATIC_INLINE uint32_t Cy_SCB_GetTxSrValid  (CySCB_Type const *base);
 134:Generated_Source\PSoC6\pdl\drivers/peripheral/scb/cy_scb_common.h **** __STATIC_INLINE bool     Cy_SCB_IsTxComplete  (CySCB_Type const *base);
 135:Generated_Source\PSoC6\pdl\drivers/peripheral/scb/cy_scb_common.h **** __STATIC_INLINE void     Cy_SCB_ClearTxFifo   (CySCB_Type *base);
 136:Generated_Source\PSoC6\pdl\drivers/peripheral/scb/cy_scb_common.h **** 
 137:Generated_Source\PSoC6\pdl\drivers/peripheral/scb/cy_scb_common.h **** __STATIC_INLINE void     Cy_SCB_SetByteMode(CySCB_Type *base, bool byteMode);
 138:Generated_Source\PSoC6\pdl\drivers/peripheral/scb/cy_scb_common.h **** 
 139:Generated_Source\PSoC6\pdl\drivers/peripheral/scb/cy_scb_common.h **** __STATIC_INLINE uint32_t Cy_SCB_GetInterruptCause(CySCB_Type const *base);
 140:Generated_Source\PSoC6\pdl\drivers/peripheral/scb/cy_scb_common.h **** 
 141:Generated_Source\PSoC6\pdl\drivers/peripheral/scb/cy_scb_common.h **** __STATIC_INLINE uint32_t Cy_SCB_GetRxInterruptStatus(CySCB_Type const *base);
 142:Generated_Source\PSoC6\pdl\drivers/peripheral/scb/cy_scb_common.h **** __STATIC_INLINE void     Cy_SCB_SetRxInterruptMask  (CySCB_Type *base, uint32_t interruptMask);
 143:Generated_Source\PSoC6\pdl\drivers/peripheral/scb/cy_scb_common.h **** __STATIC_INLINE uint32_t Cy_SCB_GetRxInterruptMask  (CySCB_Type const *base);
 144:Generated_Source\PSoC6\pdl\drivers/peripheral/scb/cy_scb_common.h **** __STATIC_INLINE uint32_t Cy_SCB_GetRxInterruptStatusMasked(CySCB_Type const *base);
 145:Generated_Source\PSoC6\pdl\drivers/peripheral/scb/cy_scb_common.h **** __STATIC_INLINE void     Cy_SCB_ClearRxInterrupt    (CySCB_Type *base, uint32_t interruptMask);
 146:Generated_Source\PSoC6\pdl\drivers/peripheral/scb/cy_scb_common.h **** __STATIC_INLINE void     Cy_SCB_SetRxInterrupt      (CySCB_Type *base, uint32_t interruptMask);
 147:Generated_Source\PSoC6\pdl\drivers/peripheral/scb/cy_scb_common.h **** 
 148:Generated_Source\PSoC6\pdl\drivers/peripheral/scb/cy_scb_common.h **** __STATIC_INLINE uint32_t Cy_SCB_GetTxInterruptStatus(CySCB_Type const *base);
 149:Generated_Source\PSoC6\pdl\drivers/peripheral/scb/cy_scb_common.h **** __STATIC_INLINE void     Cy_SCB_SetTxInterruptMask  (CySCB_Type *base, uint32_t interruptMask);
 150:Generated_Source\PSoC6\pdl\drivers/peripheral/scb/cy_scb_common.h **** __STATIC_INLINE uint32_t Cy_SCB_GetTxInterruptMask  (CySCB_Type const *base);
 151:Generated_Source\PSoC6\pdl\drivers/peripheral/scb/cy_scb_common.h **** __STATIC_INLINE uint32_t Cy_SCB_GetTxInterruptStatusMasked(CySCB_Type const *base);
 152:Generated_Source\PSoC6\pdl\drivers/peripheral/scb/cy_scb_common.h **** __STATIC_INLINE void     Cy_SCB_ClearTxInterrupt    (CySCB_Type *base, uint32_t interruptMask);
 153:Generated_Source\PSoC6\pdl\drivers/peripheral/scb/cy_scb_common.h **** __STATIC_INLINE void     Cy_SCB_SetTxInterrupt      (CySCB_Type *base, uint32_t interruptMask);
 154:Generated_Source\PSoC6\pdl\drivers/peripheral/scb/cy_scb_common.h **** 
 155:Generated_Source\PSoC6\pdl\drivers/peripheral/scb/cy_scb_common.h **** __STATIC_INLINE uint32_t Cy_SCB_GetMasterInterruptStatus(CySCB_Type const *base);
 156:Generated_Source\PSoC6\pdl\drivers/peripheral/scb/cy_scb_common.h **** __STATIC_INLINE void     Cy_SCB_SetMasterInterruptMask  (CySCB_Type *base, uint32_t interruptMask);
 157:Generated_Source\PSoC6\pdl\drivers/peripheral/scb/cy_scb_common.h **** __STATIC_INLINE uint32_t Cy_SCB_GetMasterInterruptMask  (CySCB_Type const *base);
 158:Generated_Source\PSoC6\pdl\drivers/peripheral/scb/cy_scb_common.h **** __STATIC_INLINE uint32_t Cy_SCB_GetMasterInterruptStatusMasked(CySCB_Type const *base);
 159:Generated_Source\PSoC6\pdl\drivers/peripheral/scb/cy_scb_common.h **** __STATIC_INLINE void     Cy_SCB_ClearMasterInterrupt    (CySCB_Type *base, uint32_t interruptMask);
 160:Generated_Source\PSoC6\pdl\drivers/peripheral/scb/cy_scb_common.h **** __STATIC_INLINE void     Cy_SCB_SetMasterInterrupt      (CySCB_Type *base, uint32_t interruptMask);
 161:Generated_Source\PSoC6\pdl\drivers/peripheral/scb/cy_scb_common.h **** 
 162:Generated_Source\PSoC6\pdl\drivers/peripheral/scb/cy_scb_common.h **** __STATIC_INLINE uint32_t Cy_SCB_GetSlaveInterruptStatus(CySCB_Type const *base);
 163:Generated_Source\PSoC6\pdl\drivers/peripheral/scb/cy_scb_common.h **** __STATIC_INLINE void     Cy_SCB_SetSlaveInterruptMask  (CySCB_Type *base, uint32_t interruptMask);
 164:Generated_Source\PSoC6\pdl\drivers/peripheral/scb/cy_scb_common.h **** __STATIC_INLINE uint32_t Cy_SCB_GetSlaveInterruptMask  (CySCB_Type const *base);
 165:Generated_Source\PSoC6\pdl\drivers/peripheral/scb/cy_scb_common.h **** __STATIC_INLINE uint32_t Cy_SCB_GetSlaveInterruptStatusMasked(CySCB_Type const *base);
 166:Generated_Source\PSoC6\pdl\drivers/peripheral/scb/cy_scb_common.h **** __STATIC_INLINE void     Cy_SCB_ClearSlaveInterrupt    (CySCB_Type *base, uint32_t interruptMask);
ARM GAS  C:\Users\salaz\AppData\Local\Temp\cclALOeW.s 			page 5


 167:Generated_Source\PSoC6\pdl\drivers/peripheral/scb/cy_scb_common.h **** __STATIC_INLINE void     Cy_SCB_SetSlaveInterrupt      (CySCB_Type *base, uint32_t interruptMask);
 168:Generated_Source\PSoC6\pdl\drivers/peripheral/scb/cy_scb_common.h **** 
 169:Generated_Source\PSoC6\pdl\drivers/peripheral/scb/cy_scb_common.h **** __STATIC_INLINE uint32_t Cy_SCB_GetI2CInterruptStatus(CySCB_Type const *base);
 170:Generated_Source\PSoC6\pdl\drivers/peripheral/scb/cy_scb_common.h **** __STATIC_INLINE void     Cy_SCB_SetI2CInterruptMask  (CySCB_Type *base, uint32_t interruptMask);
 171:Generated_Source\PSoC6\pdl\drivers/peripheral/scb/cy_scb_common.h **** __STATIC_INLINE uint32_t Cy_SCB_GetI2CInterruptMask  (CySCB_Type const *base);
 172:Generated_Source\PSoC6\pdl\drivers/peripheral/scb/cy_scb_common.h **** __STATIC_INLINE uint32_t Cy_SCB_GetI2CInterruptStatusMasked(CySCB_Type const *base);
 173:Generated_Source\PSoC6\pdl\drivers/peripheral/scb/cy_scb_common.h **** __STATIC_INLINE void     Cy_SCB_ClearI2CInterrupt    (CySCB_Type *base, uint32_t interruptMask);
 174:Generated_Source\PSoC6\pdl\drivers/peripheral/scb/cy_scb_common.h **** 
 175:Generated_Source\PSoC6\pdl\drivers/peripheral/scb/cy_scb_common.h **** __STATIC_INLINE uint32_t Cy_SCB_GetSpiInterruptStatus(CySCB_Type const *base);
 176:Generated_Source\PSoC6\pdl\drivers/peripheral/scb/cy_scb_common.h **** __STATIC_INLINE void     Cy_SCB_SetSpiInterruptMask  (CySCB_Type *base, uint32_t interruptMask);
 177:Generated_Source\PSoC6\pdl\drivers/peripheral/scb/cy_scb_common.h **** __STATIC_INLINE uint32_t Cy_SCB_GetSpiInterruptMask  (CySCB_Type const *base);
 178:Generated_Source\PSoC6\pdl\drivers/peripheral/scb/cy_scb_common.h **** __STATIC_INLINE uint32_t Cy_SCB_GetSpiInterruptStatusMasked(CySCB_Type const *base);
 179:Generated_Source\PSoC6\pdl\drivers/peripheral/scb/cy_scb_common.h **** __STATIC_INLINE void     Cy_SCB_ClearSpiInterrupt    (CySCB_Type *base, uint32_t interruptMask);
 180:Generated_Source\PSoC6\pdl\drivers/peripheral/scb/cy_scb_common.h **** 
 181:Generated_Source\PSoC6\pdl\drivers/peripheral/scb/cy_scb_common.h **** 
 182:Generated_Source\PSoC6\pdl\drivers/peripheral/scb/cy_scb_common.h **** /***************************************
 183:Generated_Source\PSoC6\pdl\drivers/peripheral/scb/cy_scb_common.h **** *     Internal Function Prototypes
 184:Generated_Source\PSoC6\pdl\drivers/peripheral/scb/cy_scb_common.h **** ***************************************/
 185:Generated_Source\PSoC6\pdl\drivers/peripheral/scb/cy_scb_common.h **** 
 186:Generated_Source\PSoC6\pdl\drivers/peripheral/scb/cy_scb_common.h **** /** \cond INTERNAL */
 187:Generated_Source\PSoC6\pdl\drivers/peripheral/scb/cy_scb_common.h **** void     Cy_SCB_ReadArrayNoCheck  (CySCB_Type const *base, void *buffer, uint32_t size);
 188:Generated_Source\PSoC6\pdl\drivers/peripheral/scb/cy_scb_common.h **** uint32_t Cy_SCB_ReadArray         (CySCB_Type const *base, void *buffer, uint32_t size);
 189:Generated_Source\PSoC6\pdl\drivers/peripheral/scb/cy_scb_common.h **** void     Cy_SCB_ReadArrayBlocking (CySCB_Type const *base, void *buffer, uint32_t size);
 190:Generated_Source\PSoC6\pdl\drivers/peripheral/scb/cy_scb_common.h **** uint32_t Cy_SCB_Write             (CySCB_Type *base, uint32_t data);
 191:Generated_Source\PSoC6\pdl\drivers/peripheral/scb/cy_scb_common.h **** void     Cy_SCB_WriteArrayNoCheck (CySCB_Type *base, void *buffer, uint32_t size);
 192:Generated_Source\PSoC6\pdl\drivers/peripheral/scb/cy_scb_common.h **** uint32_t Cy_SCB_WriteArray        (CySCB_Type *base, void *buffer, uint32_t size);
 193:Generated_Source\PSoC6\pdl\drivers/peripheral/scb/cy_scb_common.h **** void     Cy_SCB_WriteArrayBlocking(CySCB_Type *base, void *buffer, uint32_t size);
 194:Generated_Source\PSoC6\pdl\drivers/peripheral/scb/cy_scb_common.h **** void     Cy_SCB_WriteString       (CySCB_Type *base, char_t const string[]);
 195:Generated_Source\PSoC6\pdl\drivers/peripheral/scb/cy_scb_common.h **** void     Cy_SCB_WriteDefaultArrayNoCheck(CySCB_Type *base, uint32_t txData, uint32_t size);
 196:Generated_Source\PSoC6\pdl\drivers/peripheral/scb/cy_scb_common.h **** uint32_t Cy_SCB_WriteDefaultArray (CySCB_Type *base, uint32_t txData, uint32_t size);
 197:Generated_Source\PSoC6\pdl\drivers/peripheral/scb/cy_scb_common.h **** 
 198:Generated_Source\PSoC6\pdl\drivers/peripheral/scb/cy_scb_common.h **** __STATIC_INLINE uint32_t Cy_SCB_GetFifoSize (CySCB_Type const *base);
 199:Generated_Source\PSoC6\pdl\drivers/peripheral/scb/cy_scb_common.h **** __STATIC_INLINE void     Cy_SCB_FwBlockReset(CySCB_Type *base);
 200:Generated_Source\PSoC6\pdl\drivers/peripheral/scb/cy_scb_common.h **** __STATIC_INLINE bool     Cy_SCB_IsRxDataWidthByte(CySCB_Type const *base);
 201:Generated_Source\PSoC6\pdl\drivers/peripheral/scb/cy_scb_common.h **** __STATIC_INLINE bool     Cy_SCB_IsTxDataWidthByte(CySCB_Type const *base);
 202:Generated_Source\PSoC6\pdl\drivers/peripheral/scb/cy_scb_common.h **** __STATIC_INLINE uint32_t Cy_SCB_GetRxFifoLevel   (CySCB_Type const *base);
 203:Generated_Source\PSoC6\pdl\drivers/peripheral/scb/cy_scb_common.h **** /** \endcond */
 204:Generated_Source\PSoC6\pdl\drivers/peripheral/scb/cy_scb_common.h **** 
 205:Generated_Source\PSoC6\pdl\drivers/peripheral/scb/cy_scb_common.h **** /** \} group_scb_common_functions */
 206:Generated_Source\PSoC6\pdl\drivers/peripheral/scb/cy_scb_common.h **** 
 207:Generated_Source\PSoC6\pdl\drivers/peripheral/scb/cy_scb_common.h **** /***************************************
 208:Generated_Source\PSoC6\pdl\drivers/peripheral/scb/cy_scb_common.h **** *            API Constants
 209:Generated_Source\PSoC6\pdl\drivers/peripheral/scb/cy_scb_common.h **** ***************************************/
 210:Generated_Source\PSoC6\pdl\drivers/peripheral/scb/cy_scb_common.h **** 
 211:Generated_Source\PSoC6\pdl\drivers/peripheral/scb/cy_scb_common.h **** /**
 212:Generated_Source\PSoC6\pdl\drivers/peripheral/scb/cy_scb_common.h **** * \addtogroup group_scb_common_macros
 213:Generated_Source\PSoC6\pdl\drivers/peripheral/scb/cy_scb_common.h **** * \{
 214:Generated_Source\PSoC6\pdl\drivers/peripheral/scb/cy_scb_common.h **** */
 215:Generated_Source\PSoC6\pdl\drivers/peripheral/scb/cy_scb_common.h **** 
 216:Generated_Source\PSoC6\pdl\drivers/peripheral/scb/cy_scb_common.h **** /** Driver major version */
 217:Generated_Source\PSoC6\pdl\drivers/peripheral/scb/cy_scb_common.h **** #define CY_SCB_DRV_VERSION_MAJOR    (2)
 218:Generated_Source\PSoC6\pdl\drivers/peripheral/scb/cy_scb_common.h **** 
 219:Generated_Source\PSoC6\pdl\drivers/peripheral/scb/cy_scb_common.h **** /** Driver minor version */
 220:Generated_Source\PSoC6\pdl\drivers/peripheral/scb/cy_scb_common.h **** #define CY_SCB_DRV_VERSION_MINOR    (10)
 221:Generated_Source\PSoC6\pdl\drivers/peripheral/scb/cy_scb_common.h **** 
 222:Generated_Source\PSoC6\pdl\drivers/peripheral/scb/cy_scb_common.h **** /** SCB driver identifier */
 223:Generated_Source\PSoC6\pdl\drivers/peripheral/scb/cy_scb_common.h **** #define CY_SCB_ID           CY_PDL_DRV_ID(0x2AU)
ARM GAS  C:\Users\salaz\AppData\Local\Temp\cclALOeW.s 			page 6


 224:Generated_Source\PSoC6\pdl\drivers/peripheral/scb/cy_scb_common.h **** 
 225:Generated_Source\PSoC6\pdl\drivers/peripheral/scb/cy_scb_common.h **** /** Position for SCB driver sub mode */
 226:Generated_Source\PSoC6\pdl\drivers/peripheral/scb/cy_scb_common.h **** #define CY_SCB_SUB_MODE_Pos (13UL)
 227:Generated_Source\PSoC6\pdl\drivers/peripheral/scb/cy_scb_common.h **** 
 228:Generated_Source\PSoC6\pdl\drivers/peripheral/scb/cy_scb_common.h **** /** EZI2C mode identifier */
 229:Generated_Source\PSoC6\pdl\drivers/peripheral/scb/cy_scb_common.h **** #define CY_SCB_EZI2C_ID     (0x0UL << CY_SCB_SUB_MODE_Pos)
 230:Generated_Source\PSoC6\pdl\drivers/peripheral/scb/cy_scb_common.h **** 
 231:Generated_Source\PSoC6\pdl\drivers/peripheral/scb/cy_scb_common.h **** /** EZI2C mode identifier */
 232:Generated_Source\PSoC6\pdl\drivers/peripheral/scb/cy_scb_common.h **** #define CY_SCB_I2C_ID       (0x1UL << CY_SCB_SUB_MODE_Pos)
 233:Generated_Source\PSoC6\pdl\drivers/peripheral/scb/cy_scb_common.h **** 
 234:Generated_Source\PSoC6\pdl\drivers/peripheral/scb/cy_scb_common.h **** /** EZI2C mode identifier */
 235:Generated_Source\PSoC6\pdl\drivers/peripheral/scb/cy_scb_common.h **** #define CY_SCB_SPI_ID       (0x2UL << CY_SCB_SUB_MODE_Pos)
 236:Generated_Source\PSoC6\pdl\drivers/peripheral/scb/cy_scb_common.h **** 
 237:Generated_Source\PSoC6\pdl\drivers/peripheral/scb/cy_scb_common.h **** /** EZI2C mode identifier */
 238:Generated_Source\PSoC6\pdl\drivers/peripheral/scb/cy_scb_common.h **** #define CY_SCB_UART_ID      (0x3UL << CY_SCB_SUB_MODE_Pos)
 239:Generated_Source\PSoC6\pdl\drivers/peripheral/scb/cy_scb_common.h **** 
 240:Generated_Source\PSoC6\pdl\drivers/peripheral/scb/cy_scb_common.h **** /**
 241:Generated_Source\PSoC6\pdl\drivers/peripheral/scb/cy_scb_common.h **** * \defgroup group_scb_common_macros_intr_cause SCB Interrupt Causes
 242:Generated_Source\PSoC6\pdl\drivers/peripheral/scb/cy_scb_common.h **** * \{
 243:Generated_Source\PSoC6\pdl\drivers/peripheral/scb/cy_scb_common.h **** */
 244:Generated_Source\PSoC6\pdl\drivers/peripheral/scb/cy_scb_common.h **** /** Interrupt from Master interrupt sources */
 245:Generated_Source\PSoC6\pdl\drivers/peripheral/scb/cy_scb_common.h **** #define CY_SCB_MASTER_INTR SCB_INTR_CAUSE_M_Msk
 246:Generated_Source\PSoC6\pdl\drivers/peripheral/scb/cy_scb_common.h **** 
 247:Generated_Source\PSoC6\pdl\drivers/peripheral/scb/cy_scb_common.h **** /** Interrupt from Slave interrupt sources  */
 248:Generated_Source\PSoC6\pdl\drivers/peripheral/scb/cy_scb_common.h **** #define CY_SCB_SLAVE_INTR  SCB_INTR_CAUSE_S_Msk
 249:Generated_Source\PSoC6\pdl\drivers/peripheral/scb/cy_scb_common.h **** 
 250:Generated_Source\PSoC6\pdl\drivers/peripheral/scb/cy_scb_common.h **** /** Interrupt from TX interrupt sources */
 251:Generated_Source\PSoC6\pdl\drivers/peripheral/scb/cy_scb_common.h **** #define CY_SCB_TX_INTR     SCB_INTR_CAUSE_TX_Msk
 252:Generated_Source\PSoC6\pdl\drivers/peripheral/scb/cy_scb_common.h **** 
 253:Generated_Source\PSoC6\pdl\drivers/peripheral/scb/cy_scb_common.h **** /** Interrupt from RX interrupt sources */
 254:Generated_Source\PSoC6\pdl\drivers/peripheral/scb/cy_scb_common.h **** #define CY_SCB_RX_INTR     SCB_INTR_CAUSE_RX_Msk
 255:Generated_Source\PSoC6\pdl\drivers/peripheral/scb/cy_scb_common.h **** 
 256:Generated_Source\PSoC6\pdl\drivers/peripheral/scb/cy_scb_common.h **** /** Interrupt from I2C externally clocked interrupt sources */
 257:Generated_Source\PSoC6\pdl\drivers/peripheral/scb/cy_scb_common.h **** #define CY_SCB_I2C_INTR    SCB_INTR_CAUSE_I2C_EC_Msk
 258:Generated_Source\PSoC6\pdl\drivers/peripheral/scb/cy_scb_common.h **** 
 259:Generated_Source\PSoC6\pdl\drivers/peripheral/scb/cy_scb_common.h **** /** Interrupt from SPI externally clocked interrupt sources */
 260:Generated_Source\PSoC6\pdl\drivers/peripheral/scb/cy_scb_common.h **** #define CY_SCB_SPI_INTR    SCB_INTR_CAUSE_SPI_EC_Msk
 261:Generated_Source\PSoC6\pdl\drivers/peripheral/scb/cy_scb_common.h **** /** \} group_scb_common_macros_intr_cause */
 262:Generated_Source\PSoC6\pdl\drivers/peripheral/scb/cy_scb_common.h **** 
 263:Generated_Source\PSoC6\pdl\drivers/peripheral/scb/cy_scb_common.h **** /**
 264:Generated_Source\PSoC6\pdl\drivers/peripheral/scb/cy_scb_common.h **** * \defgroup group_scb_common_macros_tx_intr TX Interrupt Statuses
 265:Generated_Source\PSoC6\pdl\drivers/peripheral/scb/cy_scb_common.h **** * \{
 266:Generated_Source\PSoC6\pdl\drivers/peripheral/scb/cy_scb_common.h **** */
 267:Generated_Source\PSoC6\pdl\drivers/peripheral/scb/cy_scb_common.h **** /**
 268:Generated_Source\PSoC6\pdl\drivers/peripheral/scb/cy_scb_common.h **** * The number of data elements in the TX FIFO is less than the value
 269:Generated_Source\PSoC6\pdl\drivers/peripheral/scb/cy_scb_common.h **** * of the TX FIFO level
 270:Generated_Source\PSoC6\pdl\drivers/peripheral/scb/cy_scb_common.h **** */
 271:Generated_Source\PSoC6\pdl\drivers/peripheral/scb/cy_scb_common.h **** #define CY_SCB_TX_INTR_LEVEL           SCB_INTR_TX_TRIGGER_Msk
 272:Generated_Source\PSoC6\pdl\drivers/peripheral/scb/cy_scb_common.h **** 
 273:Generated_Source\PSoC6\pdl\drivers/peripheral/scb/cy_scb_common.h **** /** The TX FIFO is not full */
 274:Generated_Source\PSoC6\pdl\drivers/peripheral/scb/cy_scb_common.h **** #define CY_SCB_TX_INTR_NOT_FULL        SCB_INTR_TX_NOT_FULL_Msk
 275:Generated_Source\PSoC6\pdl\drivers/peripheral/scb/cy_scb_common.h **** 
 276:Generated_Source\PSoC6\pdl\drivers/peripheral/scb/cy_scb_common.h **** /** The TX FIFO is empty */
 277:Generated_Source\PSoC6\pdl\drivers/peripheral/scb/cy_scb_common.h **** #define CY_SCB_TX_INTR_EMPTY           SCB_INTR_TX_EMPTY_Msk
 278:Generated_Source\PSoC6\pdl\drivers/peripheral/scb/cy_scb_common.h **** 
 279:Generated_Source\PSoC6\pdl\drivers/peripheral/scb/cy_scb_common.h **** /** An attempt to write to a full TX FIFO */
 280:Generated_Source\PSoC6\pdl\drivers/peripheral/scb/cy_scb_common.h **** #define CY_SCB_TX_INTR_OVERFLOW        SCB_INTR_TX_OVERFLOW_Msk
ARM GAS  C:\Users\salaz\AppData\Local\Temp\cclALOeW.s 			page 7


 281:Generated_Source\PSoC6\pdl\drivers/peripheral/scb/cy_scb_common.h **** 
 282:Generated_Source\PSoC6\pdl\drivers/peripheral/scb/cy_scb_common.h **** /** An attempt to read from an empty TX FIFO */
 283:Generated_Source\PSoC6\pdl\drivers/peripheral/scb/cy_scb_common.h **** #define CY_SCB_TX_INTR_UNDERFLOW       SCB_INTR_TX_UNDERFLOW_Msk
 284:Generated_Source\PSoC6\pdl\drivers/peripheral/scb/cy_scb_common.h **** 
 285:Generated_Source\PSoC6\pdl\drivers/peripheral/scb/cy_scb_common.h **** /** The UART transfer is complete: all data elements from the TX FIFO are sent
 286:Generated_Source\PSoC6\pdl\drivers/peripheral/scb/cy_scb_common.h **** */
 287:Generated_Source\PSoC6\pdl\drivers/peripheral/scb/cy_scb_common.h **** #define CY_SCB_TX_INTR_UART_DONE       SCB_INTR_TX_UART_DONE_Msk
 288:Generated_Source\PSoC6\pdl\drivers/peripheral/scb/cy_scb_common.h **** 
 289:Generated_Source\PSoC6\pdl\drivers/peripheral/scb/cy_scb_common.h **** /** SmartCard only: UART received a NACK */
 290:Generated_Source\PSoC6\pdl\drivers/peripheral/scb/cy_scb_common.h **** #define CY_SCB_TX_INTR_UART_NACK       SCB_INTR_TX_UART_NACK_Msk
 291:Generated_Source\PSoC6\pdl\drivers/peripheral/scb/cy_scb_common.h **** 
 292:Generated_Source\PSoC6\pdl\drivers/peripheral/scb/cy_scb_common.h **** /**
 293:Generated_Source\PSoC6\pdl\drivers/peripheral/scb/cy_scb_common.h **** * SmartCard only: the value on the TX line of the UART does not match the
 294:Generated_Source\PSoC6\pdl\drivers/peripheral/scb/cy_scb_common.h **** * value on the RX line
 295:Generated_Source\PSoC6\pdl\drivers/peripheral/scb/cy_scb_common.h **** */
 296:Generated_Source\PSoC6\pdl\drivers/peripheral/scb/cy_scb_common.h **** #define CY_SCB_TX_INTR_UART_ARB_LOST   SCB_INTR_TX_UART_ARB_LOST_Msk
 297:Generated_Source\PSoC6\pdl\drivers/peripheral/scb/cy_scb_common.h **** /** \} group_scb_common_macros_tx_intr */
 298:Generated_Source\PSoC6\pdl\drivers/peripheral/scb/cy_scb_common.h **** 
 299:Generated_Source\PSoC6\pdl\drivers/peripheral/scb/cy_scb_common.h **** /**
 300:Generated_Source\PSoC6\pdl\drivers/peripheral/scb/cy_scb_common.h **** * \defgroup group_scb_common_macros_rx_intr RX Interrupt Statuses
 301:Generated_Source\PSoC6\pdl\drivers/peripheral/scb/cy_scb_common.h **** * \{
 302:Generated_Source\PSoC6\pdl\drivers/peripheral/scb/cy_scb_common.h **** */
 303:Generated_Source\PSoC6\pdl\drivers/peripheral/scb/cy_scb_common.h **** /**
 304:Generated_Source\PSoC6\pdl\drivers/peripheral/scb/cy_scb_common.h **** * The number of data elements in the RX FIFO is greater than the value of the
 305:Generated_Source\PSoC6\pdl\drivers/peripheral/scb/cy_scb_common.h **** * RX FIFO level
 306:Generated_Source\PSoC6\pdl\drivers/peripheral/scb/cy_scb_common.h **** */
 307:Generated_Source\PSoC6\pdl\drivers/peripheral/scb/cy_scb_common.h **** #define CY_SCB_RX_INTR_LEVEL             SCB_INTR_RX_TRIGGER_Msk
 308:Generated_Source\PSoC6\pdl\drivers/peripheral/scb/cy_scb_common.h **** 
 309:Generated_Source\PSoC6\pdl\drivers/peripheral/scb/cy_scb_common.h **** /** The RX FIFO is not empty */
 310:Generated_Source\PSoC6\pdl\drivers/peripheral/scb/cy_scb_common.h **** #define CY_SCB_RX_INTR_NOT_EMPTY         SCB_INTR_RX_NOT_EMPTY_Msk
 311:Generated_Source\PSoC6\pdl\drivers/peripheral/scb/cy_scb_common.h **** 
 312:Generated_Source\PSoC6\pdl\drivers/peripheral/scb/cy_scb_common.h **** /** The RX FIFO is full */
 313:Generated_Source\PSoC6\pdl\drivers/peripheral/scb/cy_scb_common.h **** #define CY_SCB_RX_INTR_FULL              SCB_INTR_RX_FULL_Msk
 314:Generated_Source\PSoC6\pdl\drivers/peripheral/scb/cy_scb_common.h **** 
 315:Generated_Source\PSoC6\pdl\drivers/peripheral/scb/cy_scb_common.h **** /** An attempt to write to a full RX FIFO */
 316:Generated_Source\PSoC6\pdl\drivers/peripheral/scb/cy_scb_common.h **** #define CY_SCB_RX_INTR_OVERFLOW          SCB_INTR_RX_OVERFLOW_Msk
 317:Generated_Source\PSoC6\pdl\drivers/peripheral/scb/cy_scb_common.h **** 
 318:Generated_Source\PSoC6\pdl\drivers/peripheral/scb/cy_scb_common.h **** /** An attempt to read from an empty RX FIFO */
 319:Generated_Source\PSoC6\pdl\drivers/peripheral/scb/cy_scb_common.h **** #define CY_SCB_RX_INTR_UNDERFLOW         SCB_INTR_RX_UNDERFLOW_Msk
 320:Generated_Source\PSoC6\pdl\drivers/peripheral/scb/cy_scb_common.h **** 
 321:Generated_Source\PSoC6\pdl\drivers/peripheral/scb/cy_scb_common.h **** /** A UART framing error detected */
 322:Generated_Source\PSoC6\pdl\drivers/peripheral/scb/cy_scb_common.h **** #define CY_SCB_RX_INTR_UART_FRAME_ERROR  SCB_INTR_RX_FRAME_ERROR_Msk
 323:Generated_Source\PSoC6\pdl\drivers/peripheral/scb/cy_scb_common.h **** 
 324:Generated_Source\PSoC6\pdl\drivers/peripheral/scb/cy_scb_common.h **** /** A UART parity error detected  */
 325:Generated_Source\PSoC6\pdl\drivers/peripheral/scb/cy_scb_common.h **** #define CY_SCB_RX_INTR_UART_PARITY_ERROR SCB_INTR_RX_PARITY_ERROR_Msk
 326:Generated_Source\PSoC6\pdl\drivers/peripheral/scb/cy_scb_common.h **** 
 327:Generated_Source\PSoC6\pdl\drivers/peripheral/scb/cy_scb_common.h **** /** A UART break detected */
 328:Generated_Source\PSoC6\pdl\drivers/peripheral/scb/cy_scb_common.h **** #define CY_SCB_RX_INTR_UART_BREAK_DETECT SCB_INTR_RX_BREAK_DETECT_Msk
 329:Generated_Source\PSoC6\pdl\drivers/peripheral/scb/cy_scb_common.h **** /** \} group_scb_common_macros_rx_intr */
 330:Generated_Source\PSoC6\pdl\drivers/peripheral/scb/cy_scb_common.h **** 
 331:Generated_Source\PSoC6\pdl\drivers/peripheral/scb/cy_scb_common.h **** /**
 332:Generated_Source\PSoC6\pdl\drivers/peripheral/scb/cy_scb_common.h **** * \defgroup group_scb_common_macros_slave_intr Slave Interrupt Statuses
 333:Generated_Source\PSoC6\pdl\drivers/peripheral/scb/cy_scb_common.h **** * \{
 334:Generated_Source\PSoC6\pdl\drivers/peripheral/scb/cy_scb_common.h **** */
 335:Generated_Source\PSoC6\pdl\drivers/peripheral/scb/cy_scb_common.h **** /**
 336:Generated_Source\PSoC6\pdl\drivers/peripheral/scb/cy_scb_common.h **** * I2C slave lost arbitration: the value driven on the SDA line is not the same
 337:Generated_Source\PSoC6\pdl\drivers/peripheral/scb/cy_scb_common.h **** * as the value observed on the SDA line
ARM GAS  C:\Users\salaz\AppData\Local\Temp\cclALOeW.s 			page 8


 338:Generated_Source\PSoC6\pdl\drivers/peripheral/scb/cy_scb_common.h **** */
 339:Generated_Source\PSoC6\pdl\drivers/peripheral/scb/cy_scb_common.h **** #define CY_SCB_SLAVE_INTR_I2C_ARB_LOST      SCB_INTR_S_I2C_ARB_LOST_Msk
 340:Generated_Source\PSoC6\pdl\drivers/peripheral/scb/cy_scb_common.h **** 
 341:Generated_Source\PSoC6\pdl\drivers/peripheral/scb/cy_scb_common.h **** /** The I2C slave received a NAK */
 342:Generated_Source\PSoC6\pdl\drivers/peripheral/scb/cy_scb_common.h **** #define CY_SCB_SLAVE_INTR_I2C_NACK          SCB_INTR_S_I2C_NACK_Msk
 343:Generated_Source\PSoC6\pdl\drivers/peripheral/scb/cy_scb_common.h **** 
 344:Generated_Source\PSoC6\pdl\drivers/peripheral/scb/cy_scb_common.h **** /** The I2C slave received  an ACK */
 345:Generated_Source\PSoC6\pdl\drivers/peripheral/scb/cy_scb_common.h **** #define CY_SCB_SLAVE_INTR_I2C_ACK           SCB_INTR_S_I2C_ACK_Msk
 346:Generated_Source\PSoC6\pdl\drivers/peripheral/scb/cy_scb_common.h **** 
 347:Generated_Source\PSoC6\pdl\drivers/peripheral/scb/cy_scb_common.h **** /**
 348:Generated_Source\PSoC6\pdl\drivers/peripheral/scb/cy_scb_common.h **** * A Stop or Repeated Start event for a write transfer intended for this slave
 349:Generated_Source\PSoC6\pdl\drivers/peripheral/scb/cy_scb_common.h **** * was detected.
 350:Generated_Source\PSoC6\pdl\drivers/peripheral/scb/cy_scb_common.h **** */
 351:Generated_Source\PSoC6\pdl\drivers/peripheral/scb/cy_scb_common.h **** #define CY_SCB_SLAVE_INTR_I2C_WRITE_STOP    SCB_INTR_S_I2C_WRITE_STOP_Msk
 352:Generated_Source\PSoC6\pdl\drivers/peripheral/scb/cy_scb_common.h **** 
 353:Generated_Source\PSoC6\pdl\drivers/peripheral/scb/cy_scb_common.h **** /** A Stop or Repeated Start event intended for this slave was detected */
 354:Generated_Source\PSoC6\pdl\drivers/peripheral/scb/cy_scb_common.h **** #define CY_SCB_SLAVE_INTR_I2C_STOP          SCB_INTR_S_I2C_STOP_Msk
 355:Generated_Source\PSoC6\pdl\drivers/peripheral/scb/cy_scb_common.h **** 
 356:Generated_Source\PSoC6\pdl\drivers/peripheral/scb/cy_scb_common.h **** /** The I2C slave received a Start condition */
 357:Generated_Source\PSoC6\pdl\drivers/peripheral/scb/cy_scb_common.h **** #define CY_SCB_SLAVE_INTR_I2C_START         SCB_INTR_S_I2C_START_Msk
 358:Generated_Source\PSoC6\pdl\drivers/peripheral/scb/cy_scb_common.h **** 
 359:Generated_Source\PSoC6\pdl\drivers/peripheral/scb/cy_scb_common.h **** /** The I2C slave received the matching address */
 360:Generated_Source\PSoC6\pdl\drivers/peripheral/scb/cy_scb_common.h **** #define CY_SCB_SLAVE_INTR_I2C_ADDR_MATCH    SCB_INTR_S_I2C_ADDR_MATCH_Msk
 361:Generated_Source\PSoC6\pdl\drivers/peripheral/scb/cy_scb_common.h **** 
 362:Generated_Source\PSoC6\pdl\drivers/peripheral/scb/cy_scb_common.h **** /** The I2C Slave received the general call address */
 363:Generated_Source\PSoC6\pdl\drivers/peripheral/scb/cy_scb_common.h **** #define CY_SCB_SLAVE_INTR_I2C_GENERAL_ADDR  SCB_INTR_S_I2C_GENERAL_Msk
 364:Generated_Source\PSoC6\pdl\drivers/peripheral/scb/cy_scb_common.h **** 
 365:Generated_Source\PSoC6\pdl\drivers/peripheral/scb/cy_scb_common.h **** /** The I2C slave bus error (detection of unexpected Start or Stop condition) */
 366:Generated_Source\PSoC6\pdl\drivers/peripheral/scb/cy_scb_common.h **** #define CY_SCB_SLAVE_INTR_I2C_BUS_ERROR     SCB_INTR_S_I2C_BUS_ERROR_Msk
 367:Generated_Source\PSoC6\pdl\drivers/peripheral/scb/cy_scb_common.h **** 
 368:Generated_Source\PSoC6\pdl\drivers/peripheral/scb/cy_scb_common.h **** /**
 369:Generated_Source\PSoC6\pdl\drivers/peripheral/scb/cy_scb_common.h **** * The SPI slave select line is deselected at an expected time during an
 370:Generated_Source\PSoC6\pdl\drivers/peripheral/scb/cy_scb_common.h **** * SPI transfer.
 371:Generated_Source\PSoC6\pdl\drivers/peripheral/scb/cy_scb_common.h **** */
 372:Generated_Source\PSoC6\pdl\drivers/peripheral/scb/cy_scb_common.h **** #define CY_SCB_SLAVE_INTR_SPI_BUS_ERROR     SCB_INTR_S_SPI_BUS_ERROR_Msk
 373:Generated_Source\PSoC6\pdl\drivers/peripheral/scb/cy_scb_common.h **** /** \} group_scb_common_macros_slave_intr */
 374:Generated_Source\PSoC6\pdl\drivers/peripheral/scb/cy_scb_common.h **** 
 375:Generated_Source\PSoC6\pdl\drivers/peripheral/scb/cy_scb_common.h **** /**
 376:Generated_Source\PSoC6\pdl\drivers/peripheral/scb/cy_scb_common.h **** * \defgroup group_scb_common_macros_master_intr Master Interrupt Statuses
 377:Generated_Source\PSoC6\pdl\drivers/peripheral/scb/cy_scb_common.h **** * \{
 378:Generated_Source\PSoC6\pdl\drivers/peripheral/scb/cy_scb_common.h **** */
 379:Generated_Source\PSoC6\pdl\drivers/peripheral/scb/cy_scb_common.h **** /** The I2C master lost arbitration */
 380:Generated_Source\PSoC6\pdl\drivers/peripheral/scb/cy_scb_common.h **** #define CY_SCB_MASTER_INTR_I2C_ARB_LOST    SCB_INTR_M_I2C_ARB_LOST_Msk
 381:Generated_Source\PSoC6\pdl\drivers/peripheral/scb/cy_scb_common.h **** 
 382:Generated_Source\PSoC6\pdl\drivers/peripheral/scb/cy_scb_common.h **** /** The I2C master received a NACK */
 383:Generated_Source\PSoC6\pdl\drivers/peripheral/scb/cy_scb_common.h **** #define CY_SCB_MASTER_INTR_I2C_NACK        SCB_INTR_M_I2C_NACK_Msk
 384:Generated_Source\PSoC6\pdl\drivers/peripheral/scb/cy_scb_common.h **** 
 385:Generated_Source\PSoC6\pdl\drivers/peripheral/scb/cy_scb_common.h **** /** The I2C master received an ACK */
 386:Generated_Source\PSoC6\pdl\drivers/peripheral/scb/cy_scb_common.h **** #define CY_SCB_MASTER_INTR_I2C_ACK         SCB_INTR_M_I2C_ACK_Msk
 387:Generated_Source\PSoC6\pdl\drivers/peripheral/scb/cy_scb_common.h **** 
 388:Generated_Source\PSoC6\pdl\drivers/peripheral/scb/cy_scb_common.h **** /** The I2C master generated a Stop */
 389:Generated_Source\PSoC6\pdl\drivers/peripheral/scb/cy_scb_common.h **** #define CY_SCB_MASTER_INTR_I2C_STOP        SCB_INTR_M_I2C_STOP_Msk
 390:Generated_Source\PSoC6\pdl\drivers/peripheral/scb/cy_scb_common.h **** 
 391:Generated_Source\PSoC6\pdl\drivers/peripheral/scb/cy_scb_common.h **** /** The I2C master bus error (detection of unexpected START or STOP condition)
 392:Generated_Source\PSoC6\pdl\drivers/peripheral/scb/cy_scb_common.h **** */
 393:Generated_Source\PSoC6\pdl\drivers/peripheral/scb/cy_scb_common.h **** #define CY_SCB_MASTER_INTR_I2C_BUS_ERROR   SCB_INTR_M_I2C_BUS_ERROR_Msk
 394:Generated_Source\PSoC6\pdl\drivers/peripheral/scb/cy_scb_common.h **** 
ARM GAS  C:\Users\salaz\AppData\Local\Temp\cclALOeW.s 			page 9


 395:Generated_Source\PSoC6\pdl\drivers/peripheral/scb/cy_scb_common.h **** /**
 396:Generated_Source\PSoC6\pdl\drivers/peripheral/scb/cy_scb_common.h **** * The SPI master transfer is complete: all data elements transferred from the
 397:Generated_Source\PSoC6\pdl\drivers/peripheral/scb/cy_scb_common.h **** * TX FIFO and TX shift register.
 398:Generated_Source\PSoC6\pdl\drivers/peripheral/scb/cy_scb_common.h **** */
 399:Generated_Source\PSoC6\pdl\drivers/peripheral/scb/cy_scb_common.h **** #define CY_SCB_MASTER_INTR_SPI_DONE        SCB_INTR_M_SPI_DONE_Msk
 400:Generated_Source\PSoC6\pdl\drivers/peripheral/scb/cy_scb_common.h **** /** \} group_scb_common_macros_master_intr */
 401:Generated_Source\PSoC6\pdl\drivers/peripheral/scb/cy_scb_common.h **** 
 402:Generated_Source\PSoC6\pdl\drivers/peripheral/scb/cy_scb_common.h **** /**
 403:Generated_Source\PSoC6\pdl\drivers/peripheral/scb/cy_scb_common.h **** * \defgroup group_scb_common_macros_i2c_intr I2C Interrupt Statuses
 404:Generated_Source\PSoC6\pdl\drivers/peripheral/scb/cy_scb_common.h **** * \{
 405:Generated_Source\PSoC6\pdl\drivers/peripheral/scb/cy_scb_common.h **** */
 406:Generated_Source\PSoC6\pdl\drivers/peripheral/scb/cy_scb_common.h **** /**
 407:Generated_Source\PSoC6\pdl\drivers/peripheral/scb/cy_scb_common.h **** * Wake up request: the I2C slave received the matching address.
 408:Generated_Source\PSoC6\pdl\drivers/peripheral/scb/cy_scb_common.h **** * Note that this interrupt source triggers in active mode.
 409:Generated_Source\PSoC6\pdl\drivers/peripheral/scb/cy_scb_common.h **** */
 410:Generated_Source\PSoC6\pdl\drivers/peripheral/scb/cy_scb_common.h **** #define CY_SCB_I2C_INTR_WAKEUP     SCB_INTR_I2C_EC_WAKE_UP_Msk
 411:Generated_Source\PSoC6\pdl\drivers/peripheral/scb/cy_scb_common.h **** /** \} group_scb_common_macros_i2c_intr */
 412:Generated_Source\PSoC6\pdl\drivers/peripheral/scb/cy_scb_common.h **** 
 413:Generated_Source\PSoC6\pdl\drivers/peripheral/scb/cy_scb_common.h **** /**
 414:Generated_Source\PSoC6\pdl\drivers/peripheral/scb/cy_scb_common.h **** * \defgroup group_scb_common_macros_SpiIntrStatuses SPI Interrupt Statuses
 415:Generated_Source\PSoC6\pdl\drivers/peripheral/scb/cy_scb_common.h **** * \{
 416:Generated_Source\PSoC6\pdl\drivers/peripheral/scb/cy_scb_common.h **** */
 417:Generated_Source\PSoC6\pdl\drivers/peripheral/scb/cy_scb_common.h **** /**
 418:Generated_Source\PSoC6\pdl\drivers/peripheral/scb/cy_scb_common.h **** * Wake up request: the SPI slave detects an active edge of the slave select
 419:Generated_Source\PSoC6\pdl\drivers/peripheral/scb/cy_scb_common.h **** * signal. Note that this interrupt source triggers in active mode.
 420:Generated_Source\PSoC6\pdl\drivers/peripheral/scb/cy_scb_common.h **** */
 421:Generated_Source\PSoC6\pdl\drivers/peripheral/scb/cy_scb_common.h **** #define CY_SCB_SPI_INTR_WAKEUP     SCB_INTR_SPI_EC_WAKE_UP_Msk
 422:Generated_Source\PSoC6\pdl\drivers/peripheral/scb/cy_scb_common.h **** /** \} group_scb_common_macros_SpiIntrStatuses */
 423:Generated_Source\PSoC6\pdl\drivers/peripheral/scb/cy_scb_common.h **** 
 424:Generated_Source\PSoC6\pdl\drivers/peripheral/scb/cy_scb_common.h **** 
 425:Generated_Source\PSoC6\pdl\drivers/peripheral/scb/cy_scb_common.h **** /***************************************
 426:Generated_Source\PSoC6\pdl\drivers/peripheral/scb/cy_scb_common.h **** *         Internal Constants
 427:Generated_Source\PSoC6\pdl\drivers/peripheral/scb/cy_scb_common.h **** ***************************************/
 428:Generated_Source\PSoC6\pdl\drivers/peripheral/scb/cy_scb_common.h **** 
 429:Generated_Source\PSoC6\pdl\drivers/peripheral/scb/cy_scb_common.h **** /** \cond INTERNAL */
 430:Generated_Source\PSoC6\pdl\drivers/peripheral/scb/cy_scb_common.h **** 
 431:Generated_Source\PSoC6\pdl\drivers/peripheral/scb/cy_scb_common.h **** /* Default registers values */
 432:Generated_Source\PSoC6\pdl\drivers/peripheral/scb/cy_scb_common.h **** #define CY_SCB_CTRL_DEF_VAL         (_VAL2FLD(SCB_CTRL_OVS, 15UL) | \
 433:Generated_Source\PSoC6\pdl\drivers/peripheral/scb/cy_scb_common.h ****                                      _VAL2FLD(SCB_CTRL_MODE, 3UL))
 434:Generated_Source\PSoC6\pdl\drivers/peripheral/scb/cy_scb_common.h **** 
 435:Generated_Source\PSoC6\pdl\drivers/peripheral/scb/cy_scb_common.h **** #define CY_SCB_I2C_CTRL_DEF_VAL     (_VAL2FLD(SCB_I2C_CTRL_HIGH_PHASE_OVS, 8UL)        | \
 436:Generated_Source\PSoC6\pdl\drivers/peripheral/scb/cy_scb_common.h ****                                      _VAL2FLD(SCB_I2C_CTRL_HIGH_PHASE_OVS, 8UL)        | \
 437:Generated_Source\PSoC6\pdl\drivers/peripheral/scb/cy_scb_common.h ****                                      _VAL2FLD(SCB_I2C_CTRL_M_READY_DATA_ACK, 1UL)      | \
 438:Generated_Source\PSoC6\pdl\drivers/peripheral/scb/cy_scb_common.h ****                                      _VAL2FLD(SCB_I2C_CTRL_M_NOT_READY_DATA_NACK, 1UL) | \
 439:Generated_Source\PSoC6\pdl\drivers/peripheral/scb/cy_scb_common.h ****                                      _VAL2FLD(SCB_I2C_CTRL_S_GENERAL_IGNORE, 1UL)      | \
 440:Generated_Source\PSoC6\pdl\drivers/peripheral/scb/cy_scb_common.h ****                                      _VAL2FLD(SCB_I2C_CTRL_S_READY_ADDR_ACK, 1UL)      | \
 441:Generated_Source\PSoC6\pdl\drivers/peripheral/scb/cy_scb_common.h ****                                      _VAL2FLD(SCB_I2C_CTRL_S_READY_DATA_ACK, 1UL)      | \
 442:Generated_Source\PSoC6\pdl\drivers/peripheral/scb/cy_scb_common.h ****                                      _VAL2FLD(SCB_I2C_CTRL_S_NOT_READY_ADDR_NACK, 1UL) | \
 443:Generated_Source\PSoC6\pdl\drivers/peripheral/scb/cy_scb_common.h ****                                      _VAL2FLD(SCB_I2C_CTRL_S_NOT_READY_DATA_NACK, 1UL))
 444:Generated_Source\PSoC6\pdl\drivers/peripheral/scb/cy_scb_common.h **** 
 445:Generated_Source\PSoC6\pdl\drivers/peripheral/scb/cy_scb_common.h **** #define CY_SCB_I2C_CFG_DEF_VAL      (_VAL2FLD(SCB_I2C_CFG_SDA_IN_FILT_TRIM, 3UL)   | \
 446:Generated_Source\PSoC6\pdl\drivers/peripheral/scb/cy_scb_common.h ****                                      _VAL2FLD(SCB_I2C_CFG_SDA_IN_FILT_SEL, 1UL)    | \
 447:Generated_Source\PSoC6\pdl\drivers/peripheral/scb/cy_scb_common.h ****                                      _VAL2FLD(SCB_I2C_CFG_SCL_IN_FILT_SEL, 1UL)    | \
 448:Generated_Source\PSoC6\pdl\drivers/peripheral/scb/cy_scb_common.h ****                                      _VAL2FLD(SCB_I2C_CFG_SDA_OUT_FILT0_TRIM, 2UL) | \
 449:Generated_Source\PSoC6\pdl\drivers/peripheral/scb/cy_scb_common.h ****                                      _VAL2FLD(SCB_I2C_CFG_SDA_OUT_FILT1_TRIM, 2UL) | \
 450:Generated_Source\PSoC6\pdl\drivers/peripheral/scb/cy_scb_common.h ****                                      _VAL2FLD(SCB_I2C_CFG_SDA_OUT_FILT2_TRIM, 2UL))
 451:Generated_Source\PSoC6\pdl\drivers/peripheral/scb/cy_scb_common.h **** 
ARM GAS  C:\Users\salaz\AppData\Local\Temp\cclALOeW.s 			page 10


 452:Generated_Source\PSoC6\pdl\drivers/peripheral/scb/cy_scb_common.h **** #define CY_SCB_SPI_CTRL_DEF_VAL     _VAL2FLD(SCB_SPI_CTRL_MODE, 3UL)
 453:Generated_Source\PSoC6\pdl\drivers/peripheral/scb/cy_scb_common.h **** #define CY_SCB_UART_CTRL_DEF_VAL    _VAL2FLD(SCB_UART_CTRL_MODE, 3UL)
 454:Generated_Source\PSoC6\pdl\drivers/peripheral/scb/cy_scb_common.h **** 
 455:Generated_Source\PSoC6\pdl\drivers/peripheral/scb/cy_scb_common.h **** #define CY_SCB_UART_RX_CTRL_DEF_VAL (_VAL2FLD(SCB_UART_RX_CTRL_STOP_BITS, 2UL) | \
 456:Generated_Source\PSoC6\pdl\drivers/peripheral/scb/cy_scb_common.h ****                                      _VAL2FLD(SCB_UART_RX_CTRL_BREAK_WIDTH, 10UL))
 457:Generated_Source\PSoC6\pdl\drivers/peripheral/scb/cy_scb_common.h **** 
 458:Generated_Source\PSoC6\pdl\drivers/peripheral/scb/cy_scb_common.h **** #define CY_SCB_UART_TX_CTRL_DEF_VAL _VAL2FLD(SCB_UART_TX_CTRL_STOP_BITS, 2UL)
 459:Generated_Source\PSoC6\pdl\drivers/peripheral/scb/cy_scb_common.h **** 
 460:Generated_Source\PSoC6\pdl\drivers/peripheral/scb/cy_scb_common.h **** #define CY_SCB_RX_CTRL_DEF_VAL      (_VAL2FLD(SCB_RX_CTRL_DATA_WIDTH, 7UL) | \
 461:Generated_Source\PSoC6\pdl\drivers/peripheral/scb/cy_scb_common.h ****                                      _VAL2FLD(SCB_RX_CTRL_MSB_FIRST,  1UL))
 462:Generated_Source\PSoC6\pdl\drivers/peripheral/scb/cy_scb_common.h **** 
 463:Generated_Source\PSoC6\pdl\drivers/peripheral/scb/cy_scb_common.h **** #define CY_SCB_TX_CTRL_DEF_VAL      (_VAL2FLD(SCB_TX_CTRL_DATA_WIDTH, 7UL) | \
 464:Generated_Source\PSoC6\pdl\drivers/peripheral/scb/cy_scb_common.h ****                                      _VAL2FLD(SCB_TX_CTRL_MSB_FIRST,  1UL))
 465:Generated_Source\PSoC6\pdl\drivers/peripheral/scb/cy_scb_common.h **** 
 466:Generated_Source\PSoC6\pdl\drivers/peripheral/scb/cy_scb_common.h **** /* SCB CTRL modes */
 467:Generated_Source\PSoC6\pdl\drivers/peripheral/scb/cy_scb_common.h **** #define CY_SCB_CTRL_MODE_I2C   (0UL)
 468:Generated_Source\PSoC6\pdl\drivers/peripheral/scb/cy_scb_common.h **** #define CY_SCB_CTRL_MODE_SPI   (1UL)
 469:Generated_Source\PSoC6\pdl\drivers/peripheral/scb/cy_scb_common.h **** #define CY_SCB_CTRL_MODE_UART  (2UL)
 470:Generated_Source\PSoC6\pdl\drivers/peripheral/scb/cy_scb_common.h **** 
 471:Generated_Source\PSoC6\pdl\drivers/peripheral/scb/cy_scb_common.h **** /* The position and mask to set the I2C mode */
 472:Generated_Source\PSoC6\pdl\drivers/peripheral/scb/cy_scb_common.h **** #define CY_SCB_I2C_CTRL_MODE_Pos    SCB_I2C_CTRL_SLAVE_MODE_Pos
 473:Generated_Source\PSoC6\pdl\drivers/peripheral/scb/cy_scb_common.h **** #define CY_SCB_I2C_CTRL_MODE_Msk    (SCB_I2C_CTRL_SLAVE_MODE_Msk | \
 474:Generated_Source\PSoC6\pdl\drivers/peripheral/scb/cy_scb_common.h ****                                      SCB_I2C_CTRL_MASTER_MODE_Msk)
 475:Generated_Source\PSoC6\pdl\drivers/peripheral/scb/cy_scb_common.h **** 
 476:Generated_Source\PSoC6\pdl\drivers/peripheral/scb/cy_scb_common.h **** /* Cypress ID #282226:
 477:Generated_Source\PSoC6\pdl\drivers/peripheral/scb/cy_scb_common.h **** * SCB_I2C_CFG_SDA_IN_FILT_TRIM[1]: SCB clock enable (1), clock disable (0).
 478:Generated_Source\PSoC6\pdl\drivers/peripheral/scb/cy_scb_common.h **** */
 479:Generated_Source\PSoC6\pdl\drivers/peripheral/scb/cy_scb_common.h **** #define CY_SCB_I2C_CFG_CLK_ENABLE_Msk  (_VAL2FLD(SCB_I2C_CFG_SDA_IN_FILT_TRIM, 2UL))
 480:Generated_Source\PSoC6\pdl\drivers/peripheral/scb/cy_scb_common.h **** 
 481:Generated_Source\PSoC6\pdl\drivers/peripheral/scb/cy_scb_common.h **** /* I2C has fixed data width */
 482:Generated_Source\PSoC6\pdl\drivers/peripheral/scb/cy_scb_common.h **** #define CY_SCB_I2C_DATA_WIDTH   (7UL)
 483:Generated_Source\PSoC6\pdl\drivers/peripheral/scb/cy_scb_common.h **** 
 484:Generated_Source\PSoC6\pdl\drivers/peripheral/scb/cy_scb_common.h **** /* RX and TX control register values */
 485:Generated_Source\PSoC6\pdl\drivers/peripheral/scb/cy_scb_common.h **** #define CY_SCB_I2C_RX_CTRL      (_VAL2FLD(SCB_RX_CTRL_DATA_WIDTH, CY_SCB_I2C_DATA_WIDTH) | \
 486:Generated_Source\PSoC6\pdl\drivers/peripheral/scb/cy_scb_common.h ****                                  SCB_RX_CTRL_MSB_FIRST_Msk)
 487:Generated_Source\PSoC6\pdl\drivers/peripheral/scb/cy_scb_common.h **** #define CY_SCB_I2C_TX_CTRL      (_VAL2FLD(SCB_TX_CTRL_DATA_WIDTH, CY_SCB_I2C_DATA_WIDTH) | \
 488:Generated_Source\PSoC6\pdl\drivers/peripheral/scb/cy_scb_common.h ****                                  SCB_TX_CTRL_MSB_FIRST_Msk | SCB_TX_CTRL_OPEN_DRAIN_Msk)
 489:Generated_Source\PSoC6\pdl\drivers/peripheral/scb/cy_scb_common.h **** 
 490:Generated_Source\PSoC6\pdl\drivers/peripheral/scb/cy_scb_common.h **** /* The position and mask to make an address byte */
 491:Generated_Source\PSoC6\pdl\drivers/peripheral/scb/cy_scb_common.h **** #define CY_SCB_I2C_ADDRESS_Pos  (1UL)
 492:Generated_Source\PSoC6\pdl\drivers/peripheral/scb/cy_scb_common.h **** #define CY_SCB_I2C_ADDRESS_Msk  (0xFEUL)
 493:Generated_Source\PSoC6\pdl\drivers/peripheral/scb/cy_scb_common.h **** 
 494:Generated_Source\PSoC6\pdl\drivers/peripheral/scb/cy_scb_common.h **** /* SPI slave select polarity */
 495:Generated_Source\PSoC6\pdl\drivers/peripheral/scb/cy_scb_common.h **** #define CY_SCB_SPI_CTRL_SSEL_POLARITY_Pos   SCB_SPI_CTRL_SSEL_POLARITY0_Pos
 496:Generated_Source\PSoC6\pdl\drivers/peripheral/scb/cy_scb_common.h **** #define CY_SCB_SPI_CTRL_SSEL_POLARITY_Msk   (SCB_SPI_CTRL_SSEL_POLARITY0_Msk | \
 497:Generated_Source\PSoC6\pdl\drivers/peripheral/scb/cy_scb_common.h ****                                              SCB_SPI_CTRL_SSEL_POLARITY1_Msk | \
 498:Generated_Source\PSoC6\pdl\drivers/peripheral/scb/cy_scb_common.h ****                                              SCB_SPI_CTRL_SSEL_POLARITY2_Msk | \
 499:Generated_Source\PSoC6\pdl\drivers/peripheral/scb/cy_scb_common.h ****                                              SCB_SPI_CTRL_SSEL_POLARITY3_Msk)
 500:Generated_Source\PSoC6\pdl\drivers/peripheral/scb/cy_scb_common.h **** 
 501:Generated_Source\PSoC6\pdl\drivers/peripheral/scb/cy_scb_common.h **** /* SPI clock modes: CPHA and CPOL */
 502:Generated_Source\PSoC6\pdl\drivers/peripheral/scb/cy_scb_common.h **** #define CY_SCB_SPI_CTRL_CLK_MODE_Pos    SCB_SPI_CTRL_CPHA_Pos
 503:Generated_Source\PSoC6\pdl\drivers/peripheral/scb/cy_scb_common.h **** #define CY_SCB_SPI_CTRL_CLK_MODE_Msk    (SCB_SPI_CTRL_CPHA_Msk | SCB_SPI_CTRL_CPOL_Msk)
 504:Generated_Source\PSoC6\pdl\drivers/peripheral/scb/cy_scb_common.h **** 
 505:Generated_Source\PSoC6\pdl\drivers/peripheral/scb/cy_scb_common.h **** /* UART parity and parity enable combination */
 506:Generated_Source\PSoC6\pdl\drivers/peripheral/scb/cy_scb_common.h **** #define CY_SCB_UART_RX_CTRL_SET_PARITY_Msk      (SCB_UART_RX_CTRL_PARITY_ENABLED_Msk | \
 507:Generated_Source\PSoC6\pdl\drivers/peripheral/scb/cy_scb_common.h ****                                                  SCB_UART_RX_CTRL_PARITY_Msk)
 508:Generated_Source\PSoC6\pdl\drivers/peripheral/scb/cy_scb_common.h **** #define CY_SCB_UART_RX_CTRL_SET_PARITY_Pos      SCB_UART_RX_CTRL_PARITY_Pos
ARM GAS  C:\Users\salaz\AppData\Local\Temp\cclALOeW.s 			page 11


 509:Generated_Source\PSoC6\pdl\drivers/peripheral/scb/cy_scb_common.h **** 
 510:Generated_Source\PSoC6\pdl\drivers/peripheral/scb/cy_scb_common.h **** #define CY_SCB_UART_TX_CTRL_SET_PARITY_Msk      (SCB_UART_TX_CTRL_PARITY_ENABLED_Msk | \
 511:Generated_Source\PSoC6\pdl\drivers/peripheral/scb/cy_scb_common.h ****                                                  SCB_UART_TX_CTRL_PARITY_Msk)
 512:Generated_Source\PSoC6\pdl\drivers/peripheral/scb/cy_scb_common.h **** #define CY_SCB_UART_TX_CTRL_SET_PARITY_Pos      SCB_UART_TX_CTRL_PARITY_Pos
 513:Generated_Source\PSoC6\pdl\drivers/peripheral/scb/cy_scb_common.h **** 
 514:Generated_Source\PSoC6\pdl\drivers/peripheral/scb/cy_scb_common.h **** /* Max number of bits for byte mode */
 515:Generated_Source\PSoC6\pdl\drivers/peripheral/scb/cy_scb_common.h **** #define CY_SCB_BYTE_WIDTH   (8UL)
 516:Generated_Source\PSoC6\pdl\drivers/peripheral/scb/cy_scb_common.h **** 
 517:Generated_Source\PSoC6\pdl\drivers/peripheral/scb/cy_scb_common.h **** /* Single unit to wait */
 518:Generated_Source\PSoC6\pdl\drivers/peripheral/scb/cy_scb_common.h **** #define CY_SCB_WAIT_1_UNIT  (1U)
 519:Generated_Source\PSoC6\pdl\drivers/peripheral/scb/cy_scb_common.h **** 
 520:Generated_Source\PSoC6\pdl\drivers/peripheral/scb/cy_scb_common.h **** /* Clear interrupt sources */
 521:Generated_Source\PSoC6\pdl\drivers/peripheral/scb/cy_scb_common.h **** #define CY_SCB_CLEAR_ALL_INTR_SRC   (0UL)
 522:Generated_Source\PSoC6\pdl\drivers/peripheral/scb/cy_scb_common.h **** 
 523:Generated_Source\PSoC6\pdl\drivers/peripheral/scb/cy_scb_common.h **** /* Hardware FIFO size */
 524:Generated_Source\PSoC6\pdl\drivers/peripheral/scb/cy_scb_common.h **** #define CY_SCB_FIFO_SIZE(base)    (SCB_GET_EZ_DATA_NR(base) / 2UL)
 525:Generated_Source\PSoC6\pdl\drivers/peripheral/scb/cy_scb_common.h **** 
 526:Generated_Source\PSoC6\pdl\drivers/peripheral/scb/cy_scb_common.h **** /* Provides a list of allowed sources */
 527:Generated_Source\PSoC6\pdl\drivers/peripheral/scb/cy_scb_common.h **** #define CY_SCB_TX_INTR_MASK     (CY_SCB_TX_INTR_LEVEL     | CY_SCB_TX_INTR_NOT_FULL  | CY_SCB_TX_IN
 528:Generated_Source\PSoC6\pdl\drivers/peripheral/scb/cy_scb_common.h ****                                  CY_SCB_TX_INTR_OVERFLOW  | CY_SCB_TX_INTR_UNDERFLOW | CY_SCB_TX_IN
 529:Generated_Source\PSoC6\pdl\drivers/peripheral/scb/cy_scb_common.h ****                                  CY_SCB_TX_INTR_UART_NACK | CY_SCB_TX_INTR_UART_ARB_LOST)
 530:Generated_Source\PSoC6\pdl\drivers/peripheral/scb/cy_scb_common.h **** 
 531:Generated_Source\PSoC6\pdl\drivers/peripheral/scb/cy_scb_common.h **** #define CY_SCB_RX_INTR_MASK     (CY_SCB_RX_INTR_LEVEL             | CY_SCB_RX_INTR_NOT_EMPTY | CY_S
 532:Generated_Source\PSoC6\pdl\drivers/peripheral/scb/cy_scb_common.h ****                                  CY_SCB_RX_INTR_OVERFLOW          | CY_SCB_RX_INTR_UNDERFLOW       
 533:Generated_Source\PSoC6\pdl\drivers/peripheral/scb/cy_scb_common.h ****                                  CY_SCB_RX_INTR_UART_FRAME_ERROR  | CY_SCB_RX_INTR_UART_PARITY_ERRO
 534:Generated_Source\PSoC6\pdl\drivers/peripheral/scb/cy_scb_common.h ****                                  CY_SCB_RX_INTR_UART_BREAK_DETECT)
 535:Generated_Source\PSoC6\pdl\drivers/peripheral/scb/cy_scb_common.h **** 
 536:Generated_Source\PSoC6\pdl\drivers/peripheral/scb/cy_scb_common.h **** 
 537:Generated_Source\PSoC6\pdl\drivers/peripheral/scb/cy_scb_common.h **** #define CY_SCB_SLAVE_INTR_MASK  (CY_SCB_SLAVE_INTR_I2C_ARB_LOST   | CY_SCB_SLAVE_INTR_I2C_NACK | CY
 538:Generated_Source\PSoC6\pdl\drivers/peripheral/scb/cy_scb_common.h ****                                  CY_SCB_SLAVE_INTR_I2C_WRITE_STOP | CY_SCB_SLAVE_INTR_I2C_STOP | CY
 539:Generated_Source\PSoC6\pdl\drivers/peripheral/scb/cy_scb_common.h ****                                  CY_SCB_SLAVE_INTR_I2C_ADDR_MATCH | CY_SCB_SLAVE_INTR_I2C_GENERAL_A
 540:Generated_Source\PSoC6\pdl\drivers/peripheral/scb/cy_scb_common.h ****                                  CY_SCB_SLAVE_INTR_I2C_BUS_ERROR  | CY_SCB_SLAVE_INTR_SPI_BUS_ERROR
 541:Generated_Source\PSoC6\pdl\drivers/peripheral/scb/cy_scb_common.h **** 
 542:Generated_Source\PSoC6\pdl\drivers/peripheral/scb/cy_scb_common.h **** #define CY_SCB_MASTER_INTR_MASK (CY_SCB_MASTER_INTR_I2C_ARB_LOST  | CY_SCB_MASTER_INTR_I2C_NACK | \
 543:Generated_Source\PSoC6\pdl\drivers/peripheral/scb/cy_scb_common.h ****                                  CY_SCB_MASTER_INTR_I2C_ACK       | CY_SCB_MASTER_INTR_I2C_STOP | \
 544:Generated_Source\PSoC6\pdl\drivers/peripheral/scb/cy_scb_common.h ****                                  CY_SCB_MASTER_INTR_I2C_BUS_ERROR | CY_SCB_MASTER_INTR_SPI_DONE)
 545:Generated_Source\PSoC6\pdl\drivers/peripheral/scb/cy_scb_common.h **** 
 546:Generated_Source\PSoC6\pdl\drivers/peripheral/scb/cy_scb_common.h **** #define CY_SCB_I2C_INTR_MASK    CY_SCB_I2C_INTR_WAKEUP
 547:Generated_Source\PSoC6\pdl\drivers/peripheral/scb/cy_scb_common.h **** 
 548:Generated_Source\PSoC6\pdl\drivers/peripheral/scb/cy_scb_common.h **** #define CY_SCB_SPI_INTR_MASK    CY_SCB_SPI_INTR_WAKEUP
 549:Generated_Source\PSoC6\pdl\drivers/peripheral/scb/cy_scb_common.h **** 
 550:Generated_Source\PSoC6\pdl\drivers/peripheral/scb/cy_scb_common.h **** #define CY_SCB_IS_INTR_VALID(intr, mask)            ( 0UL == ((intr) & ((uint32_t) ~(mask))) )
 551:Generated_Source\PSoC6\pdl\drivers/peripheral/scb/cy_scb_common.h **** #define CY_SCB_IS_TRIGGER_LEVEL_VALID(base, level)  ((level) < Cy_SCB_GetFifoSize(base))
 552:Generated_Source\PSoC6\pdl\drivers/peripheral/scb/cy_scb_common.h **** 
 553:Generated_Source\PSoC6\pdl\drivers/peripheral/scb/cy_scb_common.h **** #define CY_SCB_IS_I2C_ADDR_VALID(addr)              ( (0U == ((addr) & 0x80U)) )
 554:Generated_Source\PSoC6\pdl\drivers/peripheral/scb/cy_scb_common.h **** #define CY_SCB_IS_BUFFER_VALID(buffer, size)        ( (NULL != (buffer)) && ((size) > 0UL) )
 555:Generated_Source\PSoC6\pdl\drivers/peripheral/scb/cy_scb_common.h **** #define CY_SCB_IS_I2C_BUFFER_VALID(buffer, size)    ( (0UL == (size)) ? true : (NULL != (buffer)) )
 556:Generated_Source\PSoC6\pdl\drivers/peripheral/scb/cy_scb_common.h **** /** \endcond */
 557:Generated_Source\PSoC6\pdl\drivers/peripheral/scb/cy_scb_common.h **** 
 558:Generated_Source\PSoC6\pdl\drivers/peripheral/scb/cy_scb_common.h **** /** \} group_scb_common_macros */
 559:Generated_Source\PSoC6\pdl\drivers/peripheral/scb/cy_scb_common.h **** 
 560:Generated_Source\PSoC6\pdl\drivers/peripheral/scb/cy_scb_common.h **** 
 561:Generated_Source\PSoC6\pdl\drivers/peripheral/scb/cy_scb_common.h **** /***************************************
 562:Generated_Source\PSoC6\pdl\drivers/peripheral/scb/cy_scb_common.h **** * Inline Function Implementation
 563:Generated_Source\PSoC6\pdl\drivers/peripheral/scb/cy_scb_common.h **** ***************************************/
 564:Generated_Source\PSoC6\pdl\drivers/peripheral/scb/cy_scb_common.h **** 
 565:Generated_Source\PSoC6\pdl\drivers/peripheral/scb/cy_scb_common.h **** /**
ARM GAS  C:\Users\salaz\AppData\Local\Temp\cclALOeW.s 			page 12


 566:Generated_Source\PSoC6\pdl\drivers/peripheral/scb/cy_scb_common.h **** * \addtogroup group_scb_common_functions
 567:Generated_Source\PSoC6\pdl\drivers/peripheral/scb/cy_scb_common.h **** * \{
 568:Generated_Source\PSoC6\pdl\drivers/peripheral/scb/cy_scb_common.h **** */
 569:Generated_Source\PSoC6\pdl\drivers/peripheral/scb/cy_scb_common.h **** 
 570:Generated_Source\PSoC6\pdl\drivers/peripheral/scb/cy_scb_common.h **** /*******************************************************************************
 571:Generated_Source\PSoC6\pdl\drivers/peripheral/scb/cy_scb_common.h **** * Function Name: Cy_SCB_ReadRxFifo
 572:Generated_Source\PSoC6\pdl\drivers/peripheral/scb/cy_scb_common.h **** ****************************************************************************//**
 573:Generated_Source\PSoC6\pdl\drivers/peripheral/scb/cy_scb_common.h **** *
 574:Generated_Source\PSoC6\pdl\drivers/peripheral/scb/cy_scb_common.h **** * Reads a data element directly out of the RX FIFO.
 575:Generated_Source\PSoC6\pdl\drivers/peripheral/scb/cy_scb_common.h **** * This function does not check whether the RX FIFO has data before reading it.
 576:Generated_Source\PSoC6\pdl\drivers/peripheral/scb/cy_scb_common.h **** *
 577:Generated_Source\PSoC6\pdl\drivers/peripheral/scb/cy_scb_common.h **** * \param base
 578:Generated_Source\PSoC6\pdl\drivers/peripheral/scb/cy_scb_common.h **** * The pointer to the SCB instance.
 579:Generated_Source\PSoC6\pdl\drivers/peripheral/scb/cy_scb_common.h **** *
 580:Generated_Source\PSoC6\pdl\drivers/peripheral/scb/cy_scb_common.h **** * \return
 581:Generated_Source\PSoC6\pdl\drivers/peripheral/scb/cy_scb_common.h **** * Data from RX FIFO.
 582:Generated_Source\PSoC6\pdl\drivers/peripheral/scb/cy_scb_common.h **** *
 583:Generated_Source\PSoC6\pdl\drivers/peripheral/scb/cy_scb_common.h **** *******************************************************************************/
 584:Generated_Source\PSoC6\pdl\drivers/peripheral/scb/cy_scb_common.h **** __STATIC_INLINE uint32_t Cy_SCB_ReadRxFifo(CySCB_Type const *base)
 585:Generated_Source\PSoC6\pdl\drivers/peripheral/scb/cy_scb_common.h **** {
 586:Generated_Source\PSoC6\pdl\drivers/peripheral/scb/cy_scb_common.h ****     return (base->RX_FIFO_RD);
 587:Generated_Source\PSoC6\pdl\drivers/peripheral/scb/cy_scb_common.h **** }
 588:Generated_Source\PSoC6\pdl\drivers/peripheral/scb/cy_scb_common.h **** 
 589:Generated_Source\PSoC6\pdl\drivers/peripheral/scb/cy_scb_common.h **** /*******************************************************************************
 590:Generated_Source\PSoC6\pdl\drivers/peripheral/scb/cy_scb_common.h **** * Function Name: Cy_SCB_SetRxFifoLevel
 591:Generated_Source\PSoC6\pdl\drivers/peripheral/scb/cy_scb_common.h **** ****************************************************************************//**
 592:Generated_Source\PSoC6\pdl\drivers/peripheral/scb/cy_scb_common.h **** *
 593:Generated_Source\PSoC6\pdl\drivers/peripheral/scb/cy_scb_common.h **** * Sets the RX FIFO level. When there are more data elements in the RX FIFO than
 594:Generated_Source\PSoC6\pdl\drivers/peripheral/scb/cy_scb_common.h **** * this level, the RX FIFO level interrupt is triggered.
 595:Generated_Source\PSoC6\pdl\drivers/peripheral/scb/cy_scb_common.h **** *
 596:Generated_Source\PSoC6\pdl\drivers/peripheral/scb/cy_scb_common.h **** * \param base
 597:Generated_Source\PSoC6\pdl\drivers/peripheral/scb/cy_scb_common.h **** * The pointer to the SCB instance.
 598:Generated_Source\PSoC6\pdl\drivers/peripheral/scb/cy_scb_common.h **** *
 599:Generated_Source\PSoC6\pdl\drivers/peripheral/scb/cy_scb_common.h **** * \param level
 600:Generated_Source\PSoC6\pdl\drivers/peripheral/scb/cy_scb_common.h **** * When there are more data elements in the FIFO than this level, the RX level
 601:Generated_Source\PSoC6\pdl\drivers/peripheral/scb/cy_scb_common.h **** * interrupt is triggered.
 602:Generated_Source\PSoC6\pdl\drivers/peripheral/scb/cy_scb_common.h **** *
 603:Generated_Source\PSoC6\pdl\drivers/peripheral/scb/cy_scb_common.h **** *******************************************************************************/
 604:Generated_Source\PSoC6\pdl\drivers/peripheral/scb/cy_scb_common.h **** __STATIC_INLINE void Cy_SCB_SetRxFifoLevel(CySCB_Type *base, uint32_t level)
 605:Generated_Source\PSoC6\pdl\drivers/peripheral/scb/cy_scb_common.h **** {
 606:Generated_Source\PSoC6\pdl\drivers/peripheral/scb/cy_scb_common.h ****     CY_ASSERT_L2(CY_SCB_IS_TRIGGER_LEVEL_VALID(base, level));
 607:Generated_Source\PSoC6\pdl\drivers/peripheral/scb/cy_scb_common.h **** 
 608:Generated_Source\PSoC6\pdl\drivers/peripheral/scb/cy_scb_common.h ****     base->RX_FIFO_CTRL = _CLR_SET_FLD32U(base->RX_FIFO_CTRL, SCB_RX_FIFO_CTRL_TRIGGER_LEVEL, level)
 609:Generated_Source\PSoC6\pdl\drivers/peripheral/scb/cy_scb_common.h **** }
 610:Generated_Source\PSoC6\pdl\drivers/peripheral/scb/cy_scb_common.h **** 
 611:Generated_Source\PSoC6\pdl\drivers/peripheral/scb/cy_scb_common.h **** 
 612:Generated_Source\PSoC6\pdl\drivers/peripheral/scb/cy_scb_common.h **** /*******************************************************************************
 613:Generated_Source\PSoC6\pdl\drivers/peripheral/scb/cy_scb_common.h **** * Function Name: Cy_SCB_GetNumInRxFifo
 614:Generated_Source\PSoC6\pdl\drivers/peripheral/scb/cy_scb_common.h **** ****************************************************************************//**
 615:Generated_Source\PSoC6\pdl\drivers/peripheral/scb/cy_scb_common.h **** *
 616:Generated_Source\PSoC6\pdl\drivers/peripheral/scb/cy_scb_common.h **** * Returns the number of data elements currently in the RX FIFO.
 617:Generated_Source\PSoC6\pdl\drivers/peripheral/scb/cy_scb_common.h **** *
 618:Generated_Source\PSoC6\pdl\drivers/peripheral/scb/cy_scb_common.h **** * \param base
 619:Generated_Source\PSoC6\pdl\drivers/peripheral/scb/cy_scb_common.h **** * The pointer to the SCB instance.
 620:Generated_Source\PSoC6\pdl\drivers/peripheral/scb/cy_scb_common.h **** *
 621:Generated_Source\PSoC6\pdl\drivers/peripheral/scb/cy_scb_common.h **** * \return
 622:Generated_Source\PSoC6\pdl\drivers/peripheral/scb/cy_scb_common.h **** * The number or data elements in RX FIFO.
ARM GAS  C:\Users\salaz\AppData\Local\Temp\cclALOeW.s 			page 13


 623:Generated_Source\PSoC6\pdl\drivers/peripheral/scb/cy_scb_common.h **** *
 624:Generated_Source\PSoC6\pdl\drivers/peripheral/scb/cy_scb_common.h **** *******************************************************************************/
 625:Generated_Source\PSoC6\pdl\drivers/peripheral/scb/cy_scb_common.h **** __STATIC_INLINE uint32_t Cy_SCB_GetNumInRxFifo(CySCB_Type const *base)
 626:Generated_Source\PSoC6\pdl\drivers/peripheral/scb/cy_scb_common.h **** {
 627:Generated_Source\PSoC6\pdl\drivers/peripheral/scb/cy_scb_common.h ****     return _FLD2VAL(SCB_RX_FIFO_STATUS_USED, base->RX_FIFO_STATUS);
 628:Generated_Source\PSoC6\pdl\drivers/peripheral/scb/cy_scb_common.h **** }
 629:Generated_Source\PSoC6\pdl\drivers/peripheral/scb/cy_scb_common.h **** 
 630:Generated_Source\PSoC6\pdl\drivers/peripheral/scb/cy_scb_common.h **** 
 631:Generated_Source\PSoC6\pdl\drivers/peripheral/scb/cy_scb_common.h **** /*******************************************************************************
 632:Generated_Source\PSoC6\pdl\drivers/peripheral/scb/cy_scb_common.h **** * Function Name: Cy_SCB_GetRxSrValid
 633:Generated_Source\PSoC6\pdl\drivers/peripheral/scb/cy_scb_common.h **** ****************************************************************************//**
 634:Generated_Source\PSoC6\pdl\drivers/peripheral/scb/cy_scb_common.h **** *
 635:Generated_Source\PSoC6\pdl\drivers/peripheral/scb/cy_scb_common.h **** * Returns the status of the RX FIFO Shift Register valid bit.
 636:Generated_Source\PSoC6\pdl\drivers/peripheral/scb/cy_scb_common.h **** *
 637:Generated_Source\PSoC6\pdl\drivers/peripheral/scb/cy_scb_common.h **** * \param base
 638:Generated_Source\PSoC6\pdl\drivers/peripheral/scb/cy_scb_common.h **** * The pointer to the SCB instance.
 639:Generated_Source\PSoC6\pdl\drivers/peripheral/scb/cy_scb_common.h **** *
 640:Generated_Source\PSoC6\pdl\drivers/peripheral/scb/cy_scb_common.h **** * \return
 641:Generated_Source\PSoC6\pdl\drivers/peripheral/scb/cy_scb_common.h **** * 1 - RX shift register valid; 0 - RX shift register not valid.
 642:Generated_Source\PSoC6\pdl\drivers/peripheral/scb/cy_scb_common.h **** *
 643:Generated_Source\PSoC6\pdl\drivers/peripheral/scb/cy_scb_common.h **** *******************************************************************************/
 644:Generated_Source\PSoC6\pdl\drivers/peripheral/scb/cy_scb_common.h **** __STATIC_INLINE uint32_t Cy_SCB_GetRxSrValid(CySCB_Type const *base)
 645:Generated_Source\PSoC6\pdl\drivers/peripheral/scb/cy_scb_common.h **** {
 646:Generated_Source\PSoC6\pdl\drivers/peripheral/scb/cy_scb_common.h ****     return _FLD2VAL(SCB_RX_FIFO_STATUS_SR_VALID, base->RX_FIFO_STATUS);
 647:Generated_Source\PSoC6\pdl\drivers/peripheral/scb/cy_scb_common.h **** }
 648:Generated_Source\PSoC6\pdl\drivers/peripheral/scb/cy_scb_common.h **** 
 649:Generated_Source\PSoC6\pdl\drivers/peripheral/scb/cy_scb_common.h **** 
 650:Generated_Source\PSoC6\pdl\drivers/peripheral/scb/cy_scb_common.h **** /*******************************************************************************
 651:Generated_Source\PSoC6\pdl\drivers/peripheral/scb/cy_scb_common.h **** * Function Name: Cy_SCB_ClearRxFifo
 652:Generated_Source\PSoC6\pdl\drivers/peripheral/scb/cy_scb_common.h **** ****************************************************************************//**
 653:Generated_Source\PSoC6\pdl\drivers/peripheral/scb/cy_scb_common.h **** *
 654:Generated_Source\PSoC6\pdl\drivers/peripheral/scb/cy_scb_common.h **** * Clears the RX FIFO and shifter.
 655:Generated_Source\PSoC6\pdl\drivers/peripheral/scb/cy_scb_common.h **** *
 656:Generated_Source\PSoC6\pdl\drivers/peripheral/scb/cy_scb_common.h **** * \param base
 657:Generated_Source\PSoC6\pdl\drivers/peripheral/scb/cy_scb_common.h **** * The pointer to the SCB instance.
 658:Generated_Source\PSoC6\pdl\drivers/peripheral/scb/cy_scb_common.h **** *
 659:Generated_Source\PSoC6\pdl\drivers/peripheral/scb/cy_scb_common.h **** * \note
 660:Generated_Source\PSoC6\pdl\drivers/peripheral/scb/cy_scb_common.h **** * If there is partial data in the shifter, it is cleared and lost.
 661:Generated_Source\PSoC6\pdl\drivers/peripheral/scb/cy_scb_common.h **** *
 662:Generated_Source\PSoC6\pdl\drivers/peripheral/scb/cy_scb_common.h **** *******************************************************************************/
 663:Generated_Source\PSoC6\pdl\drivers/peripheral/scb/cy_scb_common.h **** __STATIC_INLINE void Cy_SCB_ClearRxFifo(CySCB_Type* base)
 664:Generated_Source\PSoC6\pdl\drivers/peripheral/scb/cy_scb_common.h **** {
 665:Generated_Source\PSoC6\pdl\drivers/peripheral/scb/cy_scb_common.h ****     base->RX_FIFO_CTRL |= (uint32_t)  SCB_RX_FIFO_CTRL_CLEAR_Msk;
 666:Generated_Source\PSoC6\pdl\drivers/peripheral/scb/cy_scb_common.h ****     base->RX_FIFO_CTRL &= (uint32_t) ~SCB_RX_FIFO_CTRL_CLEAR_Msk;
 667:Generated_Source\PSoC6\pdl\drivers/peripheral/scb/cy_scb_common.h **** 
 668:Generated_Source\PSoC6\pdl\drivers/peripheral/scb/cy_scb_common.h ****     (void) base->RX_FIFO_CTRL;
 669:Generated_Source\PSoC6\pdl\drivers/peripheral/scb/cy_scb_common.h **** }
 670:Generated_Source\PSoC6\pdl\drivers/peripheral/scb/cy_scb_common.h **** 
 671:Generated_Source\PSoC6\pdl\drivers/peripheral/scb/cy_scb_common.h **** 
 672:Generated_Source\PSoC6\pdl\drivers/peripheral/scb/cy_scb_common.h **** /*******************************************************************************
 673:Generated_Source\PSoC6\pdl\drivers/peripheral/scb/cy_scb_common.h **** * Function Name: Cy_SCB_WriteTxFifo
 674:Generated_Source\PSoC6\pdl\drivers/peripheral/scb/cy_scb_common.h **** ****************************************************************************//**
 675:Generated_Source\PSoC6\pdl\drivers/peripheral/scb/cy_scb_common.h **** *
 676:Generated_Source\PSoC6\pdl\drivers/peripheral/scb/cy_scb_common.h **** * Writes data directly into the TX FIFO.
 677:Generated_Source\PSoC6\pdl\drivers/peripheral/scb/cy_scb_common.h **** * This function does not check whether the TX FIFO is not full before writing
 678:Generated_Source\PSoC6\pdl\drivers/peripheral/scb/cy_scb_common.h **** * into it.
 679:Generated_Source\PSoC6\pdl\drivers/peripheral/scb/cy_scb_common.h **** *
ARM GAS  C:\Users\salaz\AppData\Local\Temp\cclALOeW.s 			page 14


 680:Generated_Source\PSoC6\pdl\drivers/peripheral/scb/cy_scb_common.h **** * \param base
 681:Generated_Source\PSoC6\pdl\drivers/peripheral/scb/cy_scb_common.h **** * The pointer to the SCB instance.
 682:Generated_Source\PSoC6\pdl\drivers/peripheral/scb/cy_scb_common.h **** *
 683:Generated_Source\PSoC6\pdl\drivers/peripheral/scb/cy_scb_common.h **** * \param data
 684:Generated_Source\PSoC6\pdl\drivers/peripheral/scb/cy_scb_common.h **** * Data to write to the TX FIFO.
 685:Generated_Source\PSoC6\pdl\drivers/peripheral/scb/cy_scb_common.h **** *
 686:Generated_Source\PSoC6\pdl\drivers/peripheral/scb/cy_scb_common.h **** *******************************************************************************/
 687:Generated_Source\PSoC6\pdl\drivers/peripheral/scb/cy_scb_common.h **** __STATIC_INLINE void Cy_SCB_WriteTxFifo(CySCB_Type* base, uint32_t data)
 688:Generated_Source\PSoC6\pdl\drivers/peripheral/scb/cy_scb_common.h **** {
 689:Generated_Source\PSoC6\pdl\drivers/peripheral/scb/cy_scb_common.h ****     base->TX_FIFO_WR = data;
 690:Generated_Source\PSoC6\pdl\drivers/peripheral/scb/cy_scb_common.h **** }
 691:Generated_Source\PSoC6\pdl\drivers/peripheral/scb/cy_scb_common.h **** 
 692:Generated_Source\PSoC6\pdl\drivers/peripheral/scb/cy_scb_common.h **** 
 693:Generated_Source\PSoC6\pdl\drivers/peripheral/scb/cy_scb_common.h **** /*******************************************************************************
 694:Generated_Source\PSoC6\pdl\drivers/peripheral/scb/cy_scb_common.h **** * Function Name: Cy_SCB_SetTxFifoLevel
 695:Generated_Source\PSoC6\pdl\drivers/peripheral/scb/cy_scb_common.h **** ****************************************************************************//**
 696:Generated_Source\PSoC6\pdl\drivers/peripheral/scb/cy_scb_common.h **** *
 697:Generated_Source\PSoC6\pdl\drivers/peripheral/scb/cy_scb_common.h **** * Sets the TX FIFO level. When there are fewer data elements in the TX FIFO than
 698:Generated_Source\PSoC6\pdl\drivers/peripheral/scb/cy_scb_common.h **** * this level, the TX FIFO level interrupt is triggered.
 699:Generated_Source\PSoC6\pdl\drivers/peripheral/scb/cy_scb_common.h **** *
 700:Generated_Source\PSoC6\pdl\drivers/peripheral/scb/cy_scb_common.h **** * \param base
 701:Generated_Source\PSoC6\pdl\drivers/peripheral/scb/cy_scb_common.h **** * The pointer to the SCB instance.
 702:Generated_Source\PSoC6\pdl\drivers/peripheral/scb/cy_scb_common.h **** *
 703:Generated_Source\PSoC6\pdl\drivers/peripheral/scb/cy_scb_common.h **** * \param level
 704:Generated_Source\PSoC6\pdl\drivers/peripheral/scb/cy_scb_common.h **** * When there are fewer data elements in the FIFO than this level, the TX level
 705:Generated_Source\PSoC6\pdl\drivers/peripheral/scb/cy_scb_common.h **** * interrupt is triggered.
 706:Generated_Source\PSoC6\pdl\drivers/peripheral/scb/cy_scb_common.h **** *
 707:Generated_Source\PSoC6\pdl\drivers/peripheral/scb/cy_scb_common.h **** *******************************************************************************/
 708:Generated_Source\PSoC6\pdl\drivers/peripheral/scb/cy_scb_common.h **** __STATIC_INLINE void Cy_SCB_SetTxFifoLevel(CySCB_Type *base, uint32_t level)
 709:Generated_Source\PSoC6\pdl\drivers/peripheral/scb/cy_scb_common.h **** {
 710:Generated_Source\PSoC6\pdl\drivers/peripheral/scb/cy_scb_common.h ****     CY_ASSERT_L2(CY_SCB_IS_TRIGGER_LEVEL_VALID(base, level));
 711:Generated_Source\PSoC6\pdl\drivers/peripheral/scb/cy_scb_common.h **** 
 712:Generated_Source\PSoC6\pdl\drivers/peripheral/scb/cy_scb_common.h ****     base->TX_FIFO_CTRL = _CLR_SET_FLD32U(base->TX_FIFO_CTRL, SCB_TX_FIFO_CTRL_TRIGGER_LEVEL, level)
 713:Generated_Source\PSoC6\pdl\drivers/peripheral/scb/cy_scb_common.h **** }
 714:Generated_Source\PSoC6\pdl\drivers/peripheral/scb/cy_scb_common.h **** 
 715:Generated_Source\PSoC6\pdl\drivers/peripheral/scb/cy_scb_common.h **** 
 716:Generated_Source\PSoC6\pdl\drivers/peripheral/scb/cy_scb_common.h **** /*******************************************************************************
 717:Generated_Source\PSoC6\pdl\drivers/peripheral/scb/cy_scb_common.h **** * Function Name: Cy_SCB_GetNumInTxFifo
 718:Generated_Source\PSoC6\pdl\drivers/peripheral/scb/cy_scb_common.h **** ****************************************************************************//**
 719:Generated_Source\PSoC6\pdl\drivers/peripheral/scb/cy_scb_common.h **** *
 720:Generated_Source\PSoC6\pdl\drivers/peripheral/scb/cy_scb_common.h **** * Returns the number of data elements currently in the TX FIFO.
 721:Generated_Source\PSoC6\pdl\drivers/peripheral/scb/cy_scb_common.h **** *
 722:Generated_Source\PSoC6\pdl\drivers/peripheral/scb/cy_scb_common.h **** * \param base
 723:Generated_Source\PSoC6\pdl\drivers/peripheral/scb/cy_scb_common.h **** * The pointer to the SCB instance.
 724:Generated_Source\PSoC6\pdl\drivers/peripheral/scb/cy_scb_common.h **** *
 725:Generated_Source\PSoC6\pdl\drivers/peripheral/scb/cy_scb_common.h **** * \return
 726:Generated_Source\PSoC6\pdl\drivers/peripheral/scb/cy_scb_common.h **** * The number or data elements in the TX FIFO.
 727:Generated_Source\PSoC6\pdl\drivers/peripheral/scb/cy_scb_common.h **** *
 728:Generated_Source\PSoC6\pdl\drivers/peripheral/scb/cy_scb_common.h **** *******************************************************************************/
 729:Generated_Source\PSoC6\pdl\drivers/peripheral/scb/cy_scb_common.h **** __STATIC_INLINE uint32_t Cy_SCB_GetNumInTxFifo(CySCB_Type const *base)
 730:Generated_Source\PSoC6\pdl\drivers/peripheral/scb/cy_scb_common.h **** {
 731:Generated_Source\PSoC6\pdl\drivers/peripheral/scb/cy_scb_common.h ****     return _FLD2VAL(SCB_TX_FIFO_STATUS_USED, base->TX_FIFO_STATUS);
  47              		.loc 2 731 0 discriminator 1
  48 000a 7148     		ldr	r0, .L18+4
  49 000c 8221     		movs	r1, #130
  50 000e 8900     		lsls	r1, r1, #2
  51 0010 4358     		ldr	r3, [r0, r1]
ARM GAS  C:\Users\salaz\AppData\Local\Temp\cclALOeW.s 			page 15


  52 0012 DB05     		lsls	r3, r3, #23
  53 0014 DA0D     		lsrs	r2, r3, #23
  54              	.LVL1:
  55              	.LBE24:
  56              	.LBE23:
  57              	.LBB25:
  58              	.LBB26:
 732:Generated_Source\PSoC6\pdl\drivers/peripheral/scb/cy_scb_common.h **** }
 733:Generated_Source\PSoC6\pdl\drivers/peripheral/scb/cy_scb_common.h **** 
 734:Generated_Source\PSoC6\pdl\drivers/peripheral/scb/cy_scb_common.h **** 
 735:Generated_Source\PSoC6\pdl\drivers/peripheral/scb/cy_scb_common.h **** /*******************************************************************************
 736:Generated_Source\PSoC6\pdl\drivers/peripheral/scb/cy_scb_common.h **** * Function Name: Cy_SCB_GetTxSrValid
 737:Generated_Source\PSoC6\pdl\drivers/peripheral/scb/cy_scb_common.h **** ****************************************************************************//**
 738:Generated_Source\PSoC6\pdl\drivers/peripheral/scb/cy_scb_common.h **** *
 739:Generated_Source\PSoC6\pdl\drivers/peripheral/scb/cy_scb_common.h **** * Returns the status of the TX FIFO Shift Register valid bit.
 740:Generated_Source\PSoC6\pdl\drivers/peripheral/scb/cy_scb_common.h **** *
 741:Generated_Source\PSoC6\pdl\drivers/peripheral/scb/cy_scb_common.h **** * \param base
 742:Generated_Source\PSoC6\pdl\drivers/peripheral/scb/cy_scb_common.h **** * The pointer to the SCB instance.
 743:Generated_Source\PSoC6\pdl\drivers/peripheral/scb/cy_scb_common.h **** *
 744:Generated_Source\PSoC6\pdl\drivers/peripheral/scb/cy_scb_common.h **** * \return
 745:Generated_Source\PSoC6\pdl\drivers/peripheral/scb/cy_scb_common.h **** * 1 - TX shift register valid; 0 - TX shift register not valid.
 746:Generated_Source\PSoC6\pdl\drivers/peripheral/scb/cy_scb_common.h **** *
 747:Generated_Source\PSoC6\pdl\drivers/peripheral/scb/cy_scb_common.h **** *******************************************************************************/
 748:Generated_Source\PSoC6\pdl\drivers/peripheral/scb/cy_scb_common.h **** __STATIC_INLINE uint32_t Cy_SCB_GetTxSrValid(CySCB_Type const *base)
 749:Generated_Source\PSoC6\pdl\drivers/peripheral/scb/cy_scb_common.h **** {
 750:Generated_Source\PSoC6\pdl\drivers/peripheral/scb/cy_scb_common.h ****     return _FLD2VAL(SCB_TX_FIFO_STATUS_SR_VALID, base->TX_FIFO_STATUS);
  59              		.loc 2 750 0 discriminator 1
  60 0016 4358     		ldr	r3, [r0, r1]
  61 0018 DB0B     		lsrs	r3, r3, #15
  62 001a 0121     		movs	r1, #1
  63 001c 0B40     		ands	r3, r1
  64              	.LVL2:
  65              	.LBE26:
  66              	.LBE25:
  17:AppProcess.c  ****     DEBUG_WAIT_UART_TX_COMPLETE();
  67              		.loc 1 17 0 discriminator 1
  68 001e 9B18     		adds	r3, r3, r2
  69 0020 002B     		cmp	r3, #0
  70 0022 F2D1     		bne	.L2
  18:AppProcess.c  ****     
  19:AppProcess.c  ****     epoch current_time, prev_time;
  20:AppProcess.c  ****     uint8 dt_buffer[7],battery_percentage = 100;
  71              		.loc 1 20 0
  72 0024 6422     		movs	r2, #100
  73 0026 3F33     		adds	r3, r3, #63
  74 0028 6B44     		add	r3, r3, sp
  75 002a 1A70     		strb	r2, [r3]
  76              	.L3:
  21:AppProcess.c  ****     acc_sample data;
  22:AppProcess.c  ****     
  23:AppProcess.c  ****     while(true) {
  24:AppProcess.c  ****         
  25:AppProcess.c  ****         current_time = KinOS_GetDateAndTime();
  77              		.loc 1 25 0
  78 002c 15AC     		add	r4, sp, #84
  79 002e 2000     		movs	r0, r4
  80 0030 FFF7FEFF 		bl	KinOS_GetDateAndTime
ARM GAS  C:\Users\salaz\AppData\Local\Temp\cclALOeW.s 			page 16


  81              	.LVL3:
  26:AppProcess.c  ****         if((abs(current_time.second - prev_time.second)) >= 1){
  82              		.loc 1 26 0
  83 0034 6389     		ldrh	r3, [r4, #10]
  84 0036 12AA     		add	r2, sp, #72
  85 0038 5289     		ldrh	r2, [r2, #10]
  86 003a 9B1A     		subs	r3, r3, r2
  87 003c DA17     		asrs	r2, r3, #31
  88 003e 9B18     		adds	r3, r3, r2
  89 0040 5340     		eors	r3, r2
  90 0042 002B     		cmp	r3, #0
  91 0044 32DD     		ble	.L5
  27:AppProcess.c  ****             //KinOS_SendResult(1, &battery_percentage);
  28:AppProcess.c  ****             KinOS_ReadAcc(data);
  92              		.loc 1 28 0
  93 0046 06AC     		add	r4, sp, #24
  94 0048 1022     		movs	r2, #16
  95 004a 0AA9     		add	r1, sp, #40
  96 004c 6846     		mov	r0, sp
  97 004e FFF7FEFF 		bl	memcpy
  98              	.LVL4:
  99 0052 0698     		ldr	r0, [sp, #24]
 100 0054 6168     		ldr	r1, [r4, #4]
 101 0056 A268     		ldr	r2, [r4, #8]
 102 0058 E368     		ldr	r3, [r4, #12]
 103 005a FFF7FEFF 		bl	KinOS_ReadAcc
 104              	.LVL5:
  29:AppProcess.c  ****             prev_time = current_time;
 105              		.loc 1 29 0
 106 005e 12AA     		add	r2, sp, #72
 107 0060 15AB     		add	r3, sp, #84
 108 0062 23CB     		ldmia	r3!, {r0, r1, r5}
 109 0064 23C2     		stmia	r2!, {r0, r1, r5}
  30:AppProcess.c  ****             DEBUG_PRINTF("x: %#6x\ty: %#6x\tz: %#6x\r\n\n",(uint16) data.x_raw, (uint16) data.y_raw
 110              		.loc 1 30 0
 111 0066 218A     		ldrh	r1, [r4, #16]
 112 0068 628A     		ldrh	r2, [r4, #18]
 113 006a A38A     		ldrh	r3, [r4, #20]
 114 006c 5948     		ldr	r0, .L18+8
 115 006e FFF7FEFF 		bl	printf
 116              	.LVL6:
  31:AppProcess.c  ****             Cy_BLE_BASS_SetCharacteristicValue(CY_BLE_BATTERY_SERVICE_INDEX, CY_BLE_BAS_BATTERY_LEV
 117              		.loc 1 31 0
 118 0072 3F25     		movs	r5, #63
 119 0074 6D44     		add	r5, r5, sp
 120 0076 2B00     		movs	r3, r5
 121 0078 0122     		movs	r2, #1
 122 007a 0021     		movs	r1, #0
 123 007c 0020     		movs	r0, #0
 124 007e FFF7FEFF 		bl	Cy_BLE_BASS_SetCharacteristicValue
 125              	.LVL7:
  32:AppProcess.c  ****             KinOS_SendAcc(data);
 126              		.loc 1 32 0
 127 0082 1022     		movs	r2, #16
 128 0084 0AA9     		add	r1, sp, #40
 129 0086 6846     		mov	r0, sp
 130 0088 FFF7FEFF 		bl	memcpy
ARM GAS  C:\Users\salaz\AppData\Local\Temp\cclALOeW.s 			page 17


 131              	.LVL8:
 132 008c 0698     		ldr	r0, [sp, #24]
 133 008e 6168     		ldr	r1, [r4, #4]
 134 0090 A268     		ldr	r2, [r4, #8]
 135 0092 E368     		ldr	r3, [r4, #12]
 136 0094 FFF7FEFF 		bl	KinOS_SendAcc
 137              	.LVL9:
  33:AppProcess.c  ****             battery_percentage = (battery_percentage) ? battery_percentage - 1 : 100;
 138              		.loc 1 33 0
 139 0098 2B78     		ldrb	r3, [r5]
 140 009a 002B     		cmp	r3, #0
 141 009c 02D0     		beq	.L17
 142              		.loc 1 33 0 is_stmt 0 discriminator 1
 143 009e 013B     		subs	r3, r3, #1
 144 00a0 DBB2     		uxtb	r3, r3
 145 00a2 00E0     		b	.L6
 146              	.L17:
 147              		.loc 1 33 0
 148 00a4 6423     		movs	r3, #100
 149              	.L6:
 150              		.loc 1 33 0 discriminator 4
 151 00a6 3F22     		movs	r2, #63
 152 00a8 6A44     		add	r2, r2, sp
 153 00aa 1370     		strb	r3, [r2]
 154              	.L5:
  34:AppProcess.c  ****         }
  35:AppProcess.c  ****         
  36:AppProcess.c  ****         if(KinOS_CheckInbox(7 * sizeof(uint8),(uint8*)&dt_buffer))
 155              		.loc 1 36 0 is_stmt 1
 156 00ac 10A9     		add	r1, sp, #64
 157 00ae 0720     		movs	r0, #7
 158 00b0 FFF7FEFF 		bl	KinOS_CheckInbox
 159              	.LVL10:
 160 00b4 0028     		cmp	r0, #0
 161 00b6 B9D0     		beq	.L3
  37:AppProcess.c  ****         {
  38:AppProcess.c  ****             switch(dt_buffer[0])
 162              		.loc 1 38 0
 163 00b8 10AB     		add	r3, sp, #64
 164 00ba 1B78     		ldrb	r3, [r3]
 165 00bc 022B     		cmp	r3, #2
 166 00be 20D0     		beq	.L7
 167 00c0 02D8     		bhi	.L8
 168 00c2 002B     		cmp	r3, #0
 169 00c4 05D0     		beq	.L9
 170 00c6 B1E7     		b	.L3
 171              	.L8:
 172 00c8 032B     		cmp	r3, #3
 173 00ca 30D0     		beq	.L10
 174 00cc 052B     		cmp	r3, #5
 175 00ce 46D0     		beq	.L11
 176 00d0 ACE7     		b	.L3
 177              	.L9:
 178              	.LBB27:
  39:AppProcess.c  ****             {
  40:AppProcess.c  ****                 case BT_CONFIG_LIGHT:
  41:AppProcess.c  ****                     DEBUG_PRINTF("0x00 Received \r\n");
ARM GAS  C:\Users\salaz\AppData\Local\Temp\cclALOeW.s 			page 18


 179              		.loc 1 41 0
 180 00d2 4148     		ldr	r0, .L18+12
 181 00d4 FFF7FEFF 		bl	puts
 182              	.LVL11:
  42:AppProcess.c  ****                     KinOS_ConfigureLight(dt_buffer[1], dt_buffer[2], 255, dt_buffer[4]);
 183              		.loc 1 42 0
 184 00d8 10AA     		add	r2, sp, #64
 185 00da 1379     		ldrb	r3, [r2, #4]
 186 00dc 9178     		ldrb	r1, [r2, #2]
 187 00de 5078     		ldrb	r0, [r2, #1]
 188 00e0 FF22     		movs	r2, #255
 189 00e2 FFF7FEFF 		bl	KinOS_ConfigureLight
 190              	.LVL12:
 191              	.L12:
 192              	.LBB28:
 193              	.LBB29:
 731:Generated_Source\PSoC6\pdl\drivers/peripheral/scb/cy_scb_common.h **** }
 194              		.loc 2 731 0 discriminator 1
 195 00e6 3A48     		ldr	r0, .L18+4
 196 00e8 8221     		movs	r1, #130
 197 00ea 8900     		lsls	r1, r1, #2
 198 00ec 4358     		ldr	r3, [r0, r1]
 199 00ee DB05     		lsls	r3, r3, #23
 200 00f0 DA0D     		lsrs	r2, r3, #23
 201              	.LVL13:
 202              	.LBE29:
 203              	.LBE28:
 204              	.LBB30:
 205              	.LBB31:
 206              		.loc 2 750 0 discriminator 1
 207 00f2 4358     		ldr	r3, [r0, r1]
 208 00f4 DB0B     		lsrs	r3, r3, #15
 209 00f6 0121     		movs	r1, #1
 210 00f8 0B40     		ands	r3, r1
 211              	.LVL14:
 212              	.LBE31:
 213              	.LBE30:
  43:AppProcess.c  ****                     DEBUG_WAIT_UART_TX_COMPLETE();
 214              		.loc 1 43 0 discriminator 1
 215 00fa 9B18     		adds	r3, r3, r2
 216 00fc 002B     		cmp	r3, #0
 217 00fe F2D1     		bne	.L12
 218 0100 94E7     		b	.L3
 219              	.L7:
  44:AppProcess.c  ****                 break;
  45:AppProcess.c  ****                     
  46:AppProcess.c  ****                 case BT_CONFIG_ALARM:
  47:AppProcess.c  ****                     DEBUG_PRINTF("0x02 Received \r\n");
 220              		.loc 1 47 0
 221 0102 3648     		ldr	r0, .L18+16
 222 0104 FFF7FEFF 		bl	puts
 223              	.LVL15:
  48:AppProcess.c  ****                     KinOS_ConfigureChime(dt_buffer[1], dt_buffer[2]);
 224              		.loc 1 48 0
 225 0108 10AB     		add	r3, sp, #64
 226 010a 9978     		ldrb	r1, [r3, #2]
 227 010c 5878     		ldrb	r0, [r3, #1]
ARM GAS  C:\Users\salaz\AppData\Local\Temp\cclALOeW.s 			page 19


 228 010e FFF7FEFF 		bl	KinOS_ConfigureChime
 229              	.LVL16:
 230              	.L14:
 231              	.LBB32:
 232              	.LBB33:
 731:Generated_Source\PSoC6\pdl\drivers/peripheral/scb/cy_scb_common.h **** }
 233              		.loc 2 731 0 discriminator 1
 234 0112 2F48     		ldr	r0, .L18+4
 235 0114 8221     		movs	r1, #130
 236 0116 8900     		lsls	r1, r1, #2
 237 0118 4358     		ldr	r3, [r0, r1]
 238 011a DB05     		lsls	r3, r3, #23
 239 011c DA0D     		lsrs	r2, r3, #23
 240              	.LVL17:
 241              	.LBE33:
 242              	.LBE32:
 243              	.LBB34:
 244              	.LBB35:
 245              		.loc 2 750 0 discriminator 1
 246 011e 4358     		ldr	r3, [r0, r1]
 247 0120 DB0B     		lsrs	r3, r3, #15
 248 0122 0121     		movs	r1, #1
 249 0124 0B40     		ands	r3, r1
 250              	.LVL18:
 251              	.LBE35:
 252              	.LBE34:
  49:AppProcess.c  ****                     DEBUG_WAIT_UART_TX_COMPLETE();
 253              		.loc 1 49 0 discriminator 1
 254 0126 9B18     		adds	r3, r3, r2
 255 0128 002B     		cmp	r3, #0
 256 012a F2D1     		bne	.L14
 257 012c 7EE7     		b	.L3
 258              	.L10:
  50:AppProcess.c  ****                 break;
  51:AppProcess.c  ****                     
  52:AppProcess.c  ****                 case BT_REGISTER_DEV:
  53:AppProcess.c  ****                     DEBUG_PRINTF("0x03 Received \r\n");
 259              		.loc 1 53 0
 260 012e 2C48     		ldr	r0, .L18+20
 261 0130 FFF7FEFF 		bl	puts
 262              	.LVL19:
  54:AppProcess.c  ****                     uint8 token = 0xFF;
 263              		.loc 1 54 0
 264 0134 1721     		movs	r1, #23
 265 0136 6944     		add	r1, r1, sp
 266 0138 FF23     		movs	r3, #255
 267 013a 0B70     		strb	r3, [r1]
  55:AppProcess.c  ****                     KinOS_SendResult(1,&token);
 268              		.loc 1 55 0
 269 013c 0120     		movs	r0, #1
 270 013e FFF7FEFF 		bl	KinOS_SendResult
 271              	.LVL20:
 272              	.L15:
 273              	.LBB36:
 274              	.LBB37:
 731:Generated_Source\PSoC6\pdl\drivers/peripheral/scb/cy_scb_common.h **** }
 275              		.loc 2 731 0 discriminator 1
ARM GAS  C:\Users\salaz\AppData\Local\Temp\cclALOeW.s 			page 20


 276 0142 2348     		ldr	r0, .L18+4
 277 0144 8221     		movs	r1, #130
 278 0146 8900     		lsls	r1, r1, #2
 279 0148 4358     		ldr	r3, [r0, r1]
 280 014a DB05     		lsls	r3, r3, #23
 281 014c DA0D     		lsrs	r2, r3, #23
 282              	.LVL21:
 283              	.LBE37:
 284              	.LBE36:
 285              	.LBB38:
 286              	.LBB39:
 287              		.loc 2 750 0 discriminator 1
 288 014e 4358     		ldr	r3, [r0, r1]
 289 0150 DB0B     		lsrs	r3, r3, #15
 290 0152 0121     		movs	r1, #1
 291 0154 0B40     		ands	r3, r1
 292              	.LVL22:
 293              	.LBE39:
 294              	.LBE38:
  56:AppProcess.c  ****                     DEBUG_WAIT_UART_TX_COMPLETE();
 295              		.loc 1 56 0 discriminator 1
 296 0156 9B18     		adds	r3, r3, r2
 297 0158 002B     		cmp	r3, #0
 298 015a F2D1     		bne	.L15
 299 015c 66E7     		b	.L3
 300              	.L11:
  57:AppProcess.c  ****                 break;
  58:AppProcess.c  ****                     
  59:AppProcess.c  ****                 case BT_TIME_SYNC:
  60:AppProcess.c  ****                     DEBUG_PRINTF("0x04 Received \r\n");
 301              		.loc 1 60 0
 302 015e 2148     		ldr	r0, .L18+24
 303 0160 FFF7FEFF 		bl	puts
 304              	.LVL23:
  61:AppProcess.c  ****                     KinOS_SetDateAndTime(dt_buffer[1],dt_buffer[2],dt_buffer[3],
 305              		.loc 1 61 0
 306 0164 10AC     		add	r4, sp, #64
 307 0166 2379     		ldrb	r3, [r4, #4]
 308 0168 E278     		ldrb	r2, [r4, #3]
 309 016a A178     		ldrb	r1, [r4, #2]
 310 016c 6078     		ldrb	r0, [r4, #1]
 311 016e A579     		ldrb	r5, [r4, #6]
 312 0170 0195     		str	r5, [sp, #4]
 313 0172 6579     		ldrb	r5, [r4, #5]
 314 0174 0095     		str	r5, [sp]
 315 0176 FFF7FEFF 		bl	KinOS_SetDateAndTime
 316              	.LVL24:
  62:AppProcess.c  ****                                          dt_buffer[4],dt_buffer[5],dt_buffer[6]);
  63:AppProcess.c  ****                     DEBUG_PRINTF("epoch received:   ");
 317              		.loc 1 63 0
 318 017a 1B48     		ldr	r0, .L18+28
 319 017c FFF7FEFF 		bl	printf
 320              	.LVL25:
  64:AppProcess.c  ****                     DEBUG_PRINTF("year:     %d\r\n",dt_buffer[0]);
 321              		.loc 1 64 0
 322 0180 2178     		ldrb	r1, [r4]
 323 0182 1A48     		ldr	r0, .L18+32
ARM GAS  C:\Users\salaz\AppData\Local\Temp\cclALOeW.s 			page 21


 324 0184 FFF7FEFF 		bl	printf
 325              	.LVL26:
  65:AppProcess.c  ****                     DEBUG_PRINTF("                  month:    %d\r\n",dt_buffer[1]);
 326              		.loc 1 65 0
 327 0188 6178     		ldrb	r1, [r4, #1]
 328 018a 1948     		ldr	r0, .L18+36
 329 018c FFF7FEFF 		bl	printf
 330              	.LVL27:
  66:AppProcess.c  ****                     DEBUG_PRINTF("                  day:      %d\r\n",dt_buffer[2]);
 331              		.loc 1 66 0
 332 0190 A178     		ldrb	r1, [r4, #2]
 333 0192 1848     		ldr	r0, .L18+40
 334 0194 FFF7FEFF 		bl	printf
 335              	.LVL28:
  67:AppProcess.c  ****                     DEBUG_PRINTF("                  hour:     %d\r\n",dt_buffer[3]); 
 336              		.loc 1 67 0
 337 0198 E178     		ldrb	r1, [r4, #3]
 338 019a 1748     		ldr	r0, .L18+44
 339 019c FFF7FEFF 		bl	printf
 340              	.LVL29:
  68:AppProcess.c  ****                     DEBUG_PRINTF("                  minute:   %d\r\n",dt_buffer[4]);
 341              		.loc 1 68 0
 342 01a0 2179     		ldrb	r1, [r4, #4]
 343 01a2 1648     		ldr	r0, .L18+48
 344 01a4 FFF7FEFF 		bl	printf
 345              	.LVL30:
  69:AppProcess.c  ****                     DEBUG_PRINTF("                  second:   %d\r\n",dt_buffer[5]);
 346              		.loc 1 69 0
 347 01a8 6179     		ldrb	r1, [r4, #5]
 348 01aa 1548     		ldr	r0, .L18+52
 349 01ac FFF7FEFF 		bl	printf
 350              	.LVL31:
 351              	.L16:
 352              	.LBB40:
 353              	.LBB41:
 731:Generated_Source\PSoC6\pdl\drivers/peripheral/scb/cy_scb_common.h **** }
 354              		.loc 2 731 0 discriminator 1
 355 01b0 0748     		ldr	r0, .L18+4
 356 01b2 8221     		movs	r1, #130
 357 01b4 8900     		lsls	r1, r1, #2
 358 01b6 4358     		ldr	r3, [r0, r1]
 359 01b8 DB05     		lsls	r3, r3, #23
 360 01ba DA0D     		lsrs	r2, r3, #23
 361              	.LVL32:
 362              	.LBE41:
 363              	.LBE40:
 364              	.LBB42:
 365              	.LBB43:
 366              		.loc 2 750 0 discriminator 1
 367 01bc 4358     		ldr	r3, [r0, r1]
 368 01be DB0B     		lsrs	r3, r3, #15
 369 01c0 0121     		movs	r1, #1
 370 01c2 0B40     		ands	r3, r1
 371              	.LVL33:
 372              	.LBE43:
 373              	.LBE42:
  70:AppProcess.c  ****                     DEBUG_WAIT_UART_TX_COMPLETE();
ARM GAS  C:\Users\salaz\AppData\Local\Temp\cclALOeW.s 			page 22


 374              		.loc 1 70 0 discriminator 1
 375 01c4 9B18     		adds	r3, r3, r2
 376 01c6 002B     		cmp	r3, #0
 377 01c8 F2D1     		bne	.L16
 378 01ca 2FE7     		b	.L3
 379              	.L19:
 380              		.align	2
 381              	.L18:
 382 01cc 00000000 		.word	.LC0
 383 01d0 00006640 		.word	1080426496
 384 01d4 18000000 		.word	.LC2
 385 01d8 34000000 		.word	.LC4
 386 01dc 44000000 		.word	.LC6
 387 01e0 54000000 		.word	.LC8
 388 01e4 64000000 		.word	.LC10
 389 01e8 74000000 		.word	.LC12
 390 01ec 88000000 		.word	.LC14
 391 01f0 98000000 		.word	.LC16
 392 01f4 BC000000 		.word	.LC18
 393 01f8 E0000000 		.word	.LC20
 394 01fc 04010000 		.word	.LC22
 395 0200 28010000 		.word	.LC24
 396              	.LBE27:
 397              		.cfi_endproc
 398              	.LFE792:
 399              		.size	AppProcess_Start, .-AppProcess_Start
 400              		.section	.rodata.str1.4,"aMS",%progbits,1
 401              		.align	2
 402              	.LC0:
 403 0000 41707050 		.ascii	"AppProcess_Start 1 \015\000"
 403      726F6365 
 403      73735F53 
 403      74617274 
 403      2031200D 
 404 0015 000000   		.space	3
 405              	.LC2:
 406 0018 783A2025 		.ascii	"x: %#6x\011y: %#6x\011z: %#6x\015\012\012\000"
 406      23367809 
 406      793A2025 
 406      23367809 
 406      7A3A2025 
 407 0033 00       		.space	1
 408              	.LC4:
 409 0034 30783030 		.ascii	"0x00 Received \015\000"
 409      20526563 
 409      65697665 
 409      64200D00 
 410              	.LC6:
 411 0044 30783032 		.ascii	"0x02 Received \015\000"
 411      20526563 
 411      65697665 
 411      64200D00 
 412              	.LC8:
 413 0054 30783033 		.ascii	"0x03 Received \015\000"
 413      20526563 
 413      65697665 
 413      64200D00 
ARM GAS  C:\Users\salaz\AppData\Local\Temp\cclALOeW.s 			page 23


 414              	.LC10:
 415 0064 30783034 		.ascii	"0x04 Received \015\000"
 415      20526563 
 415      65697665 
 415      64200D00 
 416              	.LC12:
 417 0074 65706F63 		.ascii	"epoch received:   \000"
 417      68207265 
 417      63656976 
 417      65643A20 
 417      202000
 418 0087 00       		.space	1
 419              	.LC14:
 420 0088 79656172 		.ascii	"year:     %d\015\012\000"
 420      3A202020 
 420      20202564 
 420      0D0A00
 421 0097 00       		.space	1
 422              	.LC16:
 423 0098 20202020 		.ascii	"                  month:    %d\015\012\000"
 423      20202020 
 423      20202020 
 423      20202020 
 423      20206D6F 
 424 00b9 000000   		.space	3
 425              	.LC18:
 426 00bc 20202020 		.ascii	"                  day:      %d\015\012\000"
 426      20202020 
 426      20202020 
 426      20202020 
 426      20206461 
 427 00dd 000000   		.space	3
 428              	.LC20:
 429 00e0 20202020 		.ascii	"                  hour:     %d\015\012\000"
 429      20202020 
 429      20202020 
 429      20202020 
 429      2020686F 
 430 0101 000000   		.space	3
 431              	.LC22:
 432 0104 20202020 		.ascii	"                  minute:   %d\015\012\000"
 432      20202020 
 432      20202020 
 432      20202020 
 432      20206D69 
 433 0125 000000   		.space	3
 434              	.LC24:
 435 0128 20202020 		.ascii	"                  second:   %d\015\012\000"
 435      20202020 
 435      20202020 
 435      20202020 
 435      20207365 
 436              		.text
 437              	.Letext0:
 438              		.file 3 "c:\\program files (x86)\\cypress\\psoc creator\\4.2\\psoc creator\\import\\gnu\\arm\\5.4.
 439              		.file 4 "c:\\program files (x86)\\cypress\\psoc creator\\4.2\\psoc creator\\import\\gnu\\arm\\5.4.
 440              		.file 5 "Generated_Source\\PSoC6\\pdl\\devices/psoc6/ip/cyip_scb.h"
ARM GAS  C:\Users\salaz\AppData\Local\Temp\cclALOeW.s 			page 24


 441              		.file 6 "Generated_Source\\PSoC6\\pdl\\drivers/peripheral/syslib/cy_syslib.h"
 442              		.file 7 "Generated_Source\\PSoC6\\pdl\\drivers/peripheral/tcpwm/cy_tcpwm_counter.h"
 443              		.file 8 "Generated_Source\\PSoC6\\pdl\\drivers/peripheral/tcpwm/cy_tcpwm_pwm.h"
 444              		.file 9 "Generated_Source\\PSoC6\\pdl\\drivers/peripheral/scb/cy_scb_i2c.h"
 445              		.file 10 "Generated_Source\\PSoC6\\pdl\\drivers/peripheral/scb/cy_scb_uart.h"
 446              		.file 11 "Generated_Source\\PSoC6/BLE_config.h"
 447              		.file 12 "Generated_Source\\PSoC6\\pdl\\middleware/ble/cy_ble_stack_host_main.h"
 448              		.file 13 "Generated_Source\\PSoC6\\pdl\\middleware/ble/cy_ble_gap.h"
 449              		.file 14 "Generated_Source\\PSoC6\\pdl\\middleware/ble/cy_ble_bas.h"
 450              		.file 15 "./KinOS.h"
 451              		.file 16 "Generated_Source\\PSoC6\\pdl\\drivers/peripheral/rtc/cy_rtc.h"
 452              		.file 17 "Generated_Source\\PSoC6/UART_DEBUG.h"
 453              		.file 18 "Generated_Source\\PSoC6/SensorBus.h"
 454              		.file 19 "Generated_Source\\PSoC6/LightOutputC.h"
 455              		.file 20 "Generated_Source\\PSoC6/LightOutputA.h"
 456              		.file 21 "Generated_Source\\PSoC6/LightTimer.h"
 457              		.file 22 "Generated_Source\\PSoC6/LightOutputB.h"
 458              		.file 23 "Generated_Source\\PSoC6/MotorOutput.h"
 459              		.file 24 "Generated_Source\\PSoC6/MotorTimer.h"
 460              		.file 25 "Generated_Source\\PSoC6/ChimeOutput.h"
 461              		.file 26 "Generated_Source\\PSoC6/ChimeTimer.h"
 462              		.file 27 "c:\\program files (x86)\\cypress\\psoc creator\\4.2\\psoc creator\\import\\gnu\\arm\\5.4
 463              		.file 28 "<built-in>"