ARM GAS  C:\Users\salaz\AppData\Local\Temp\cczs20OJ.s 			page 1


   1              		.syntax unified
   2              		.cpu cortex-m0plus
   3              		.fpu softvfp
   4              		.eabi_attribute 20, 1
   5              		.eabi_attribute 21, 1
   6              		.eabi_attribute 23, 3
   7              		.eabi_attribute 24, 1
   8              		.eabi_attribute 25, 1
   9              		.eabi_attribute 26, 1
  10              		.eabi_attribute 30, 1
  11              		.eabi_attribute 34, 0
  12              		.eabi_attribute 18, 4
  13              		.thumb
  14              		.syntax unified
  15              		.file	"cy_ble_hal_pvt.c"
  16              		.text
  17              	.Ltext0:
  18              		.cfi_sections	.debug_frame
  19              		.section	.text.Cy_BLE_HAL_RadioCalibrationRead,"ax",%progbits
  20              		.align	2
  21              		.global	Cy_BLE_HAL_RadioCalibrationRead
  22              		.code	16
  23              		.thumb_func
  24              		.type	Cy_BLE_HAL_RadioCalibrationRead, %function
  25              	Cy_BLE_HAL_RadioCalibrationRead:
  26              	.LFB159:
  27              		.file 1 "Generated_Source\\PSoC6\\pdl\\middleware\\ble\\cy_ble_hal_pvt.c"
   1:Generated_Source\PSoC6\pdl\middleware\ble/cy_ble_hal_pvt.c **** /***************************************************************************//**
   2:Generated_Source\PSoC6\pdl\middleware\ble/cy_ble_hal_pvt.c **** * \file cy_ble_hal_pvt.c
   3:Generated_Source\PSoC6\pdl\middleware\ble/cy_ble_hal_pvt.c **** * \version 2.20
   4:Generated_Source\PSoC6\pdl\middleware\ble/cy_ble_hal_pvt.c **** *
   5:Generated_Source\PSoC6\pdl\middleware\ble/cy_ble_hal_pvt.c **** * \brief
   6:Generated_Source\PSoC6\pdl\middleware\ble/cy_ble_hal_pvt.c **** *  This file contains the source code for the HAL section of the BLE Middleware.
   7:Generated_Source\PSoC6\pdl\middleware\ble/cy_ble_hal_pvt.c **** *
   8:Generated_Source\PSoC6\pdl\middleware\ble/cy_ble_hal_pvt.c **** ********************************************************************************
   9:Generated_Source\PSoC6\pdl\middleware\ble/cy_ble_hal_pvt.c **** * \copyright
  10:Generated_Source\PSoC6\pdl\middleware\ble/cy_ble_hal_pvt.c **** * Copyright 2017-2018, Cypress Semiconductor Corporation.  All rights reserved.
  11:Generated_Source\PSoC6\pdl\middleware\ble/cy_ble_hal_pvt.c **** * You may use this file only in accordance with the license, terms, conditions,
  12:Generated_Source\PSoC6\pdl\middleware\ble/cy_ble_hal_pvt.c **** * disclaimers, and limitations in the end user license agreement accompanying
  13:Generated_Source\PSoC6\pdl\middleware\ble/cy_ble_hal_pvt.c **** * the software package with which this file was provided.
  14:Generated_Source\PSoC6\pdl\middleware\ble/cy_ble_hal_pvt.c **** *******************************************************************************/
  15:Generated_Source\PSoC6\pdl\middleware\ble/cy_ble_hal_pvt.c **** 
  16:Generated_Source\PSoC6\pdl\middleware\ble/cy_ble_hal_pvt.c **** #include "cy_ble_event_handler.h"
  17:Generated_Source\PSoC6\pdl\middleware\ble/cy_ble_hal_pvt.c **** #include "cy_ble_hal_pvt.h"
  18:Generated_Source\PSoC6\pdl\middleware\ble/cy_ble_hal_pvt.c **** #include "ipc/cy_ipc_sema.h"
  19:Generated_Source\PSoC6\pdl\middleware\ble/cy_ble_hal_pvt.c **** #include <math.h>
  20:Generated_Source\PSoC6\pdl\middleware\ble/cy_ble_hal_pvt.c **** #include <stdlib.h>
  21:Generated_Source\PSoC6\pdl\middleware\ble/cy_ble_hal_pvt.c **** 
  22:Generated_Source\PSoC6\pdl\middleware\ble/cy_ble_hal_pvt.c **** /* C binding of definitions if building with C++ compiler */
  23:Generated_Source\PSoC6\pdl\middleware\ble/cy_ble_hal_pvt.c **** #ifdef __cplusplus
  24:Generated_Source\PSoC6\pdl\middleware\ble/cy_ble_hal_pvt.c **** extern "C" {
  25:Generated_Source\PSoC6\pdl\middleware\ble/cy_ble_hal_pvt.c **** #endif /* __cplusplus */
  26:Generated_Source\PSoC6\pdl\middleware\ble/cy_ble_hal_pvt.c **** 
  27:Generated_Source\PSoC6\pdl\middleware\ble/cy_ble_hal_pvt.c **** #if (CY_BLE_HOST_CORE)
  28:Generated_Source\PSoC6\pdl\middleware\ble/cy_ble_hal_pvt.c **** cy_ble_intr_callback_t Cy_BLE_InterruptCallback = NULL;
  29:Generated_Source\PSoC6\pdl\middleware\ble/cy_ble_hal_pvt.c **** #endif /* (CY_BLE_HOST_CORE) */
  30:Generated_Source\PSoC6\pdl\middleware\ble/cy_ble_hal_pvt.c **** 
ARM GAS  C:\Users\salaz\AppData\Local\Temp\cczs20OJ.s 			page 2


  31:Generated_Source\PSoC6\pdl\middleware\ble/cy_ble_hal_pvt.c **** #if (CY_BLE_HOST_CONTR_CORE)
  32:Generated_Source\PSoC6\pdl\middleware\ble/cy_ble_hal_pvt.c **** /* Nominal trim step size */    
  33:Generated_Source\PSoC6\pdl\middleware\ble/cy_ble_hal_pvt.c **** static uint32 piloTrimStepSize = CY_BLE_PILO_TRIM_STEP;
  34:Generated_Source\PSoC6\pdl\middleware\ble/cy_ble_hal_pvt.c ****     
  35:Generated_Source\PSoC6\pdl\middleware\ble/cy_ble_hal_pvt.c **** #if (CY_BLE_STACK_MODE_HOST_UART)
  36:Generated_Source\PSoC6\pdl\middleware\ble/cy_ble_hal_pvt.c ****     
  37:Generated_Source\PSoC6\pdl\middleware\ble/cy_ble_hal_pvt.c **** /*******************************************************************************
  38:Generated_Source\PSoC6\pdl\middleware\ble/cy_ble_hal_pvt.c **** * Function Name: Cy_BLE_HAL_HOST_UART_Start
  39:Generated_Source\PSoC6\pdl\middleware\ble/cy_ble_hal_pvt.c **** ****************************************************************************//**
  40:Generated_Source\PSoC6\pdl\middleware\ble/cy_ble_hal_pvt.c **** *
  41:Generated_Source\PSoC6\pdl\middleware\ble/cy_ble_hal_pvt.c **** *  Enables the platform UART TX and RX interrupts and then enables the UART.
  42:Generated_Source\PSoC6\pdl\middleware\ble/cy_ble_hal_pvt.c **** *
  43:Generated_Source\PSoC6\pdl\middleware\ble/cy_ble_hal_pvt.c **** * \return
  44:Generated_Source\PSoC6\pdl\middleware\ble/cy_ble_hal_pvt.c **** *  None
  45:Generated_Source\PSoC6\pdl\middleware\ble/cy_ble_hal_pvt.c **** *
  46:Generated_Source\PSoC6\pdl\middleware\ble/cy_ble_hal_pvt.c **** *******************************************************************************/
  47:Generated_Source\PSoC6\pdl\middleware\ble/cy_ble_hal_pvt.c **** void Cy_BLE_HAL_HOST_UART_Start(void)
  48:Generated_Source\PSoC6\pdl\middleware\ble/cy_ble_hal_pvt.c **** {
  49:Generated_Source\PSoC6\pdl\middleware\ble/cy_ble_hal_pvt.c ****     /* Setup ISR */
  50:Generated_Source\PSoC6\pdl\middleware\ble/cy_ble_hal_pvt.c ****     Cy_SysInt_Init(cy_ble_configPtr->uartHostIsrConfig, &Cy_BLE_HAL_HOST_UART_Interrupt);
  51:Generated_Source\PSoC6\pdl\middleware\ble/cy_ble_hal_pvt.c ****     NVIC_EnableIRQ((IRQn_Type)cy_ble_configPtr->uartHostIsrConfig->intrSrc);
  52:Generated_Source\PSoC6\pdl\middleware\ble/cy_ble_hal_pvt.c **** 
  53:Generated_Source\PSoC6\pdl\middleware\ble/cy_ble_hal_pvt.c ****     (void)Cy_SCB_UART_Init(cy_ble_configPtr->uartHostHw, cy_ble_configPtr->uartHostConfig, NULL);
  54:Generated_Source\PSoC6\pdl\middleware\ble/cy_ble_hal_pvt.c ****     /* Configure interrupt sources. */
  55:Generated_Source\PSoC6\pdl\middleware\ble/cy_ble_hal_pvt.c ****     Cy_SCB_SetRxInterruptMask(cy_ble_configPtr->uartHostHw, CY_SCB_RX_INTR_NOT_EMPTY | CY_SCB_RX_IN
  56:Generated_Source\PSoC6\pdl\middleware\ble/cy_ble_hal_pvt.c ****                               CY_SCB_RX_INTR_UNDERFLOW);
  57:Generated_Source\PSoC6\pdl\middleware\ble/cy_ble_hal_pvt.c ****     Cy_SCB_SetTxInterruptMask(cy_ble_configPtr->uartHostHw, CY_SCB_TX_INTR_OVERFLOW | CY_SCB_TX_INT
  58:Generated_Source\PSoC6\pdl\middleware\ble/cy_ble_hal_pvt.c **** 
  59:Generated_Source\PSoC6\pdl\middleware\ble/cy_ble_hal_pvt.c ****     Cy_SCB_UART_Enable(cy_ble_configPtr->uartHostHw);
  60:Generated_Source\PSoC6\pdl\middleware\ble/cy_ble_hal_pvt.c **** }
  61:Generated_Source\PSoC6\pdl\middleware\ble/cy_ble_hal_pvt.c **** 
  62:Generated_Source\PSoC6\pdl\middleware\ble/cy_ble_hal_pvt.c **** 
  63:Generated_Source\PSoC6\pdl\middleware\ble/cy_ble_hal_pvt.c **** /*******************************************************************************
  64:Generated_Source\PSoC6\pdl\middleware\ble/cy_ble_hal_pvt.c **** * Function Name: Cy_BLE_HAL_HOST_UART_Stop
  65:Generated_Source\PSoC6\pdl\middleware\ble/cy_ble_hal_pvt.c **** ****************************************************************************//**
  66:Generated_Source\PSoC6\pdl\middleware\ble/cy_ble_hal_pvt.c **** *
  67:Generated_Source\PSoC6\pdl\middleware\ble/cy_ble_hal_pvt.c **** *  Disables the UART, clears all pending interrupts and disables the UART TX
  68:Generated_Source\PSoC6\pdl\middleware\ble/cy_ble_hal_pvt.c **** *  and RX interrupts. This will also empty out the FIFOs.
  69:Generated_Source\PSoC6\pdl\middleware\ble/cy_ble_hal_pvt.c **** *
  70:Generated_Source\PSoC6\pdl\middleware\ble/cy_ble_hal_pvt.c **** * \return
  71:Generated_Source\PSoC6\pdl\middleware\ble/cy_ble_hal_pvt.c **** *  None
  72:Generated_Source\PSoC6\pdl\middleware\ble/cy_ble_hal_pvt.c **** *
  73:Generated_Source\PSoC6\pdl\middleware\ble/cy_ble_hal_pvt.c **** *******************************************************************************/
  74:Generated_Source\PSoC6\pdl\middleware\ble/cy_ble_hal_pvt.c **** void Cy_BLE_HAL_HOST_UART_Stop(void)
  75:Generated_Source\PSoC6\pdl\middleware\ble/cy_ble_hal_pvt.c **** {
  76:Generated_Source\PSoC6\pdl\middleware\ble/cy_ble_hal_pvt.c ****     /* Stop interrupt and UART */
  77:Generated_Source\PSoC6\pdl\middleware\ble/cy_ble_hal_pvt.c ****     NVIC_DisableIRQ((IRQn_Type)cy_ble_configPtr->uartHostIsrConfig->intrSrc);
  78:Generated_Source\PSoC6\pdl\middleware\ble/cy_ble_hal_pvt.c **** 
  79:Generated_Source\PSoC6\pdl\middleware\ble/cy_ble_hal_pvt.c ****     Cy_SCB_UART_Disable(cy_ble_configPtr->uartHostHw, NULL);
  80:Generated_Source\PSoC6\pdl\middleware\ble/cy_ble_hal_pvt.c **** }
  81:Generated_Source\PSoC6\pdl\middleware\ble/cy_ble_hal_pvt.c **** 
  82:Generated_Source\PSoC6\pdl\middleware\ble/cy_ble_hal_pvt.c **** 
  83:Generated_Source\PSoC6\pdl\middleware\ble/cy_ble_hal_pvt.c **** /*******************************************************************************
  84:Generated_Source\PSoC6\pdl\middleware\ble/cy_ble_hal_pvt.c **** * Function Name: Cy_BLE_HAL_HOST_UART_Transmit
  85:Generated_Source\PSoC6\pdl\middleware\ble/cy_ble_hal_pvt.c **** ****************************************************************************//**
  86:Generated_Source\PSoC6\pdl\middleware\ble/cy_ble_hal_pvt.c **** *
  87:Generated_Source\PSoC6\pdl\middleware\ble/cy_ble_hal_pvt.c **** *  Sends the data to UART TX FIFO. The function handles data length up to the
ARM GAS  C:\Users\salaz\AppData\Local\Temp\cczs20OJ.s 			page 3


  88:Generated_Source\PSoC6\pdl\middleware\ble/cy_ble_hal_pvt.c **** *  supported TX FIFO length of the UART hardware module.
  89:Generated_Source\PSoC6\pdl\middleware\ble/cy_ble_hal_pvt.c **** *
  90:Generated_Source\PSoC6\pdl\middleware\ble/cy_ble_hal_pvt.c **** *  \param data: Pointer to the data to send through the UART
  91:Generated_Source\PSoC6\pdl\middleware\ble/cy_ble_hal_pvt.c **** *  \param length: the length of data to transmit in bytes
  92:Generated_Source\PSoC6\pdl\middleware\ble/cy_ble_hal_pvt.c **** *
  93:Generated_Source\PSoC6\pdl\middleware\ble/cy_ble_hal_pvt.c **** * \return
  94:Generated_Source\PSoC6\pdl\middleware\ble/cy_ble_hal_pvt.c **** *  None
  95:Generated_Source\PSoC6\pdl\middleware\ble/cy_ble_hal_pvt.c **** *
  96:Generated_Source\PSoC6\pdl\middleware\ble/cy_ble_hal_pvt.c **** *******************************************************************************/
  97:Generated_Source\PSoC6\pdl\middleware\ble/cy_ble_hal_pvt.c **** void Cy_BLE_HAL_HOST_UART_Transmit(const uint8_t *dataBuf,
  98:Generated_Source\PSoC6\pdl\middleware\ble/cy_ble_hal_pvt.c ****                                    uint8_t length)
  99:Generated_Source\PSoC6\pdl\middleware\ble/cy_ble_hal_pvt.c **** {
 100:Generated_Source\PSoC6\pdl\middleware\ble/cy_ble_hal_pvt.c ****     Cy_SCB_UART_PutArrayBlocking(cy_ble_configPtr->uartHostHw, (uint8_t*)dataBuf, (uint32_t)length)
 101:Generated_Source\PSoC6\pdl\middleware\ble/cy_ble_hal_pvt.c **** }
 102:Generated_Source\PSoC6\pdl\middleware\ble/cy_ble_hal_pvt.c **** 
 103:Generated_Source\PSoC6\pdl\middleware\ble/cy_ble_hal_pvt.c **** 
 104:Generated_Source\PSoC6\pdl\middleware\ble/cy_ble_hal_pvt.c **** /*******************************************************************************
 105:Generated_Source\PSoC6\pdl\middleware\ble/cy_ble_hal_pvt.c **** * Function Name: Cy_BLE_HAL_HOST_UART_IsrEnable
 106:Generated_Source\PSoC6\pdl\middleware\ble/cy_ble_hal_pvt.c **** ****************************************************************************//**
 107:Generated_Source\PSoC6\pdl\middleware\ble/cy_ble_hal_pvt.c **** *
 108:Generated_Source\PSoC6\pdl\middleware\ble/cy_ble_hal_pvt.c **** *   Enables the UART interrupt to the interrupt controller.
 109:Generated_Source\PSoC6\pdl\middleware\ble/cy_ble_hal_pvt.c **** *   Do not call this function unless Cy_BLE_HAL_HOST_UART_Start() has been called or the
 110:Generated_Source\PSoC6\pdl\middleware\ble/cy_ble_hal_pvt.c **** *   functionality of the Cy_SysInt_Init() function, which sets the vector and the
 111:Generated_Source\PSoC6\pdl\middleware\ble/cy_ble_hal_pvt.c **** *   priority, has been called.
 112:Generated_Source\PSoC6\pdl\middleware\ble/cy_ble_hal_pvt.c **** *
 113:Generated_Source\PSoC6\pdl\middleware\ble/cy_ble_hal_pvt.c **** *******************************************************************************/
 114:Generated_Source\PSoC6\pdl\middleware\ble/cy_ble_hal_pvt.c **** void Cy_BLE_HAL_HOST_UART_IsrEnable(void)
 115:Generated_Source\PSoC6\pdl\middleware\ble/cy_ble_hal_pvt.c **** {
 116:Generated_Source\PSoC6\pdl\middleware\ble/cy_ble_hal_pvt.c ****     NVIC_EnableIRQ((IRQn_Type)cy_ble_configPtr->uartHostIsrConfig->intrSrc);
 117:Generated_Source\PSoC6\pdl\middleware\ble/cy_ble_hal_pvt.c **** }
 118:Generated_Source\PSoC6\pdl\middleware\ble/cy_ble_hal_pvt.c **** 
 119:Generated_Source\PSoC6\pdl\middleware\ble/cy_ble_hal_pvt.c **** 
 120:Generated_Source\PSoC6\pdl\middleware\ble/cy_ble_hal_pvt.c **** /*******************************************************************************
 121:Generated_Source\PSoC6\pdl\middleware\ble/cy_ble_hal_pvt.c **** * Function Name: Cy_BLE_HAL_HOST_UART_IsrDisable
 122:Generated_Source\PSoC6\pdl\middleware\ble/cy_ble_hal_pvt.c **** ****************************************************************************//**
 123:Generated_Source\PSoC6\pdl\middleware\ble/cy_ble_hal_pvt.c **** *
 124:Generated_Source\PSoC6\pdl\middleware\ble/cy_ble_hal_pvt.c **** *   Disables the UART Interrupt in the interrupt controller.
 125:Generated_Source\PSoC6\pdl\middleware\ble/cy_ble_hal_pvt.c **** *
 126:Generated_Source\PSoC6\pdl\middleware\ble/cy_ble_hal_pvt.c **** *******************************************************************************/
 127:Generated_Source\PSoC6\pdl\middleware\ble/cy_ble_hal_pvt.c **** void Cy_BLE_HAL_HOST_UART_IsrDisable(void)
 128:Generated_Source\PSoC6\pdl\middleware\ble/cy_ble_hal_pvt.c **** {
 129:Generated_Source\PSoC6\pdl\middleware\ble/cy_ble_hal_pvt.c ****     NVIC_DisableIRQ((IRQn_Type)cy_ble_configPtr->uartHostIsrConfig->intrSrc);
 130:Generated_Source\PSoC6\pdl\middleware\ble/cy_ble_hal_pvt.c **** }
 131:Generated_Source\PSoC6\pdl\middleware\ble/cy_ble_hal_pvt.c **** #endif /* (CY_BLE_STACK_MODE_HOST_UART) */
 132:Generated_Source\PSoC6\pdl\middleware\ble/cy_ble_hal_pvt.c **** 
 133:Generated_Source\PSoC6\pdl\middleware\ble/cy_ble_hal_pvt.c **** 
 134:Generated_Source\PSoC6\pdl\middleware\ble/cy_ble_hal_pvt.c **** #if(CY_BLE_STACK_MODE_CONTR_UART)
 135:Generated_Source\PSoC6\pdl\middleware\ble/cy_ble_hal_pvt.c **** 
 136:Generated_Source\PSoC6\pdl\middleware\ble/cy_ble_hal_pvt.c **** /*******************************************************************************
 137:Generated_Source\PSoC6\pdl\middleware\ble/cy_ble_hal_pvt.c **** * Function Name: Cy_BLE_HAL_UART_Interrupt
 138:Generated_Source\PSoC6\pdl\middleware\ble/cy_ble_hal_pvt.c **** ****************************************************************************//**
 139:Generated_Source\PSoC6\pdl\middleware\ble/cy_ble_hal_pvt.c **** *
 140:Generated_Source\PSoC6\pdl\middleware\ble/cy_ble_hal_pvt.c **** *  Handles the Interrupt Service Routine for the UART.
 141:Generated_Source\PSoC6\pdl\middleware\ble/cy_ble_hal_pvt.c **** *
 142:Generated_Source\PSoC6\pdl\middleware\ble/cy_ble_hal_pvt.c **** * \return
 143:Generated_Source\PSoC6\pdl\middleware\ble/cy_ble_hal_pvt.c **** *  None
 144:Generated_Source\PSoC6\pdl\middleware\ble/cy_ble_hal_pvt.c **** *
ARM GAS  C:\Users\salaz\AppData\Local\Temp\cczs20OJ.s 			page 4


 145:Generated_Source\PSoC6\pdl\middleware\ble/cy_ble_hal_pvt.c **** *******************************************************************************/
 146:Generated_Source\PSoC6\pdl\middleware\ble/cy_ble_hal_pvt.c **** void Cy_BLE_HAL_UART_Interrupt(void)
 147:Generated_Source\PSoC6\pdl\middleware\ble/cy_ble_hal_pvt.c **** {
 148:Generated_Source\PSoC6\pdl\middleware\ble/cy_ble_hal_pvt.c ****     uint8_t uartTxStatus = CY_BLE_INTR_TX_SUCCESS;
 149:Generated_Source\PSoC6\pdl\middleware\ble/cy_ble_hal_pvt.c ****     uint32_t srcInterrupt;
 150:Generated_Source\PSoC6\pdl\middleware\ble/cy_ble_hal_pvt.c **** 
 151:Generated_Source\PSoC6\pdl\middleware\ble/cy_ble_hal_pvt.c ****     uint8_t length = 0u;
 152:Generated_Source\PSoC6\pdl\middleware\ble/cy_ble_hal_pvt.c ****     uint8_t srcCount = 0u;
 153:Generated_Source\PSoC6\pdl\middleware\ble/cy_ble_hal_pvt.c ****     uint8_t uartRxStatus = CY_BLE_INTR_RX_SUCCESS;
 154:Generated_Source\PSoC6\pdl\middleware\ble/cy_ble_hal_pvt.c ****     uint8_t receivedData;
 155:Generated_Source\PSoC6\pdl\middleware\ble/cy_ble_hal_pvt.c **** 
 156:Generated_Source\PSoC6\pdl\middleware\ble/cy_ble_hal_pvt.c ****     /* Evaluate RX interrupt event */
 157:Generated_Source\PSoC6\pdl\middleware\ble/cy_ble_hal_pvt.c ****     srcInterrupt = Cy_SCB_GetRxInterruptStatusMasked(cy_ble_configPtr->uartHw);
 158:Generated_Source\PSoC6\pdl\middleware\ble/cy_ble_hal_pvt.c **** 
 159:Generated_Source\PSoC6\pdl\middleware\ble/cy_ble_hal_pvt.c ****     if(0u != (srcInterrupt & CY_SCB_RX_INTR_NOT_EMPTY))
 160:Generated_Source\PSoC6\pdl\middleware\ble/cy_ble_hal_pvt.c ****     {
 161:Generated_Source\PSoC6\pdl\middleware\ble/cy_ble_hal_pvt.c ****         if(0u != (srcInterrupt & CY_SCB_RX_INTR_UART_PARITY_ERROR))
 162:Generated_Source\PSoC6\pdl\middleware\ble/cy_ble_hal_pvt.c ****         {
 163:Generated_Source\PSoC6\pdl\middleware\ble/cy_ble_hal_pvt.c ****             uartRxStatus |= CY_BLE_INTR_RX_PARITY_ERROR;
 164:Generated_Source\PSoC6\pdl\middleware\ble/cy_ble_hal_pvt.c ****         }
 165:Generated_Source\PSoC6\pdl\middleware\ble/cy_ble_hal_pvt.c ****         if(0u != (srcInterrupt & CY_SCB_RX_INTR_UART_FRAME_ERROR))
 166:Generated_Source\PSoC6\pdl\middleware\ble/cy_ble_hal_pvt.c ****         {
 167:Generated_Source\PSoC6\pdl\middleware\ble/cy_ble_hal_pvt.c ****             uartRxStatus |= CY_BLE_INTR_RX_FRAME_ERROR;
 168:Generated_Source\PSoC6\pdl\middleware\ble/cy_ble_hal_pvt.c ****         }
 169:Generated_Source\PSoC6\pdl\middleware\ble/cy_ble_hal_pvt.c ****         if(0u != (srcInterrupt & CY_SCB_RX_INTR_OVERFLOW))
 170:Generated_Source\PSoC6\pdl\middleware\ble/cy_ble_hal_pvt.c ****         {
 171:Generated_Source\PSoC6\pdl\middleware\ble/cy_ble_hal_pvt.c ****             uartRxStatus |= CY_BLE_INTR_RX_OVERFLOW;
 172:Generated_Source\PSoC6\pdl\middleware\ble/cy_ble_hal_pvt.c ****         }
 173:Generated_Source\PSoC6\pdl\middleware\ble/cy_ble_hal_pvt.c ****         if(uartRxStatus == CY_BLE_INTR_RX_SUCCESS)
 174:Generated_Source\PSoC6\pdl\middleware\ble/cy_ble_hal_pvt.c ****         {
 175:Generated_Source\PSoC6\pdl\middleware\ble/cy_ble_hal_pvt.c ****             length = (uint8_t)Cy_SCB_GetNumInRxFifo(cy_ble_configPtr->uartHw);
 176:Generated_Source\PSoC6\pdl\middleware\ble/cy_ble_hal_pvt.c ****             for(srcCount = 0u; srcCount < length; srcCount++)
 177:Generated_Source\PSoC6\pdl\middleware\ble/cy_ble_hal_pvt.c ****             {
 178:Generated_Source\PSoC6\pdl\middleware\ble/cy_ble_hal_pvt.c ****                 receivedData = (uint8_t)Cy_SCB_ReadRxFifo(cy_ble_configPtr->uartHw);
 179:Generated_Source\PSoC6\pdl\middleware\ble/cy_ble_hal_pvt.c ****                 Cy_BLE_HAL_UartRxDataHandler(receivedData);
 180:Generated_Source\PSoC6\pdl\middleware\ble/cy_ble_hal_pvt.c ****             }
 181:Generated_Source\PSoC6\pdl\middleware\ble/cy_ble_hal_pvt.c ****         }
 182:Generated_Source\PSoC6\pdl\middleware\ble/cy_ble_hal_pvt.c ****         else
 183:Generated_Source\PSoC6\pdl\middleware\ble/cy_ble_hal_pvt.c ****         {
 184:Generated_Source\PSoC6\pdl\middleware\ble/cy_ble_hal_pvt.c ****             Cy_SCB_ClearRxFifo(cy_ble_configPtr->uartHw);
 185:Generated_Source\PSoC6\pdl\middleware\ble/cy_ble_hal_pvt.c ****         }
 186:Generated_Source\PSoC6\pdl\middleware\ble/cy_ble_hal_pvt.c ****         Cy_SCB_ClearRxInterrupt(cy_ble_configPtr->uartHw, srcInterrupt);
 187:Generated_Source\PSoC6\pdl\middleware\ble/cy_ble_hal_pvt.c ****     }
 188:Generated_Source\PSoC6\pdl\middleware\ble/cy_ble_hal_pvt.c ****     else
 189:Generated_Source\PSoC6\pdl\middleware\ble/cy_ble_hal_pvt.c ****     {
 190:Generated_Source\PSoC6\pdl\middleware\ble/cy_ble_hal_pvt.c ****         /* No RX interrupt. Do nothing. */
 191:Generated_Source\PSoC6\pdl\middleware\ble/cy_ble_hal_pvt.c ****     }
 192:Generated_Source\PSoC6\pdl\middleware\ble/cy_ble_hal_pvt.c **** 
 193:Generated_Source\PSoC6\pdl\middleware\ble/cy_ble_hal_pvt.c ****     /* Evaluate TX interrupt event in sequence */
 194:Generated_Source\PSoC6\pdl\middleware\ble/cy_ble_hal_pvt.c ****     srcInterrupt = Cy_SCB_GetTxInterruptStatusMasked(cy_ble_configPtr->uartHw);
 195:Generated_Source\PSoC6\pdl\middleware\ble/cy_ble_hal_pvt.c **** 
 196:Generated_Source\PSoC6\pdl\middleware\ble/cy_ble_hal_pvt.c ****     /* BLE Stack manager TX UART complete */
 197:Generated_Source\PSoC6\pdl\middleware\ble/cy_ble_hal_pvt.c ****     if(0u != (srcInterrupt & CY_SCB_TX_INTR_UART_DONE))
 198:Generated_Source\PSoC6\pdl\middleware\ble/cy_ble_hal_pvt.c ****     {
 199:Generated_Source\PSoC6\pdl\middleware\ble/cy_ble_hal_pvt.c ****         if(0u != (srcInterrupt & CY_SCB_TX_INTR_OVERFLOW))
 200:Generated_Source\PSoC6\pdl\middleware\ble/cy_ble_hal_pvt.c ****         {
 201:Generated_Source\PSoC6\pdl\middleware\ble/cy_ble_hal_pvt.c ****             /*Stack manager TX UART error */
ARM GAS  C:\Users\salaz\AppData\Local\Temp\cczs20OJ.s 			page 5


 202:Generated_Source\PSoC6\pdl\middleware\ble/cy_ble_hal_pvt.c ****             uartTxStatus |= CY_BLE_INTR_TX_OVERFLOW;
 203:Generated_Source\PSoC6\pdl\middleware\ble/cy_ble_hal_pvt.c ****         }
 204:Generated_Source\PSoC6\pdl\middleware\ble/cy_ble_hal_pvt.c ****         Cy_BLE_HAL_UartTxCompltHandler();
 205:Generated_Source\PSoC6\pdl\middleware\ble/cy_ble_hal_pvt.c ****         Cy_SCB_ClearTxInterrupt(cy_ble_configPtr->uartHw, srcInterrupt);
 206:Generated_Source\PSoC6\pdl\middleware\ble/cy_ble_hal_pvt.c ****     }
 207:Generated_Source\PSoC6\pdl\middleware\ble/cy_ble_hal_pvt.c ****     else
 208:Generated_Source\PSoC6\pdl\middleware\ble/cy_ble_hal_pvt.c ****     {
 209:Generated_Source\PSoC6\pdl\middleware\ble/cy_ble_hal_pvt.c ****         /* No TX interrupt. Do nothing. */
 210:Generated_Source\PSoC6\pdl\middleware\ble/cy_ble_hal_pvt.c ****     }
 211:Generated_Source\PSoC6\pdl\middleware\ble/cy_ble_hal_pvt.c **** }
 212:Generated_Source\PSoC6\pdl\middleware\ble/cy_ble_hal_pvt.c **** 
 213:Generated_Source\PSoC6\pdl\middleware\ble/cy_ble_hal_pvt.c **** /*******************************************************************************
 214:Generated_Source\PSoC6\pdl\middleware\ble/cy_ble_hal_pvt.c **** * Function Name: Cy_BLE_HAL_UART_Start
 215:Generated_Source\PSoC6\pdl\middleware\ble/cy_ble_hal_pvt.c **** ****************************************************************************//**
 216:Generated_Source\PSoC6\pdl\middleware\ble/cy_ble_hal_pvt.c **** *
 217:Generated_Source\PSoC6\pdl\middleware\ble/cy_ble_hal_pvt.c **** *  Enables the platform UART TX and RX interrupts and then enables the UART.
 218:Generated_Source\PSoC6\pdl\middleware\ble/cy_ble_hal_pvt.c **** *
 219:Generated_Source\PSoC6\pdl\middleware\ble/cy_ble_hal_pvt.c **** * \return
 220:Generated_Source\PSoC6\pdl\middleware\ble/cy_ble_hal_pvt.c **** *  None
 221:Generated_Source\PSoC6\pdl\middleware\ble/cy_ble_hal_pvt.c **** *
 222:Generated_Source\PSoC6\pdl\middleware\ble/cy_ble_hal_pvt.c **** *******************************************************************************/
 223:Generated_Source\PSoC6\pdl\middleware\ble/cy_ble_hal_pvt.c **** void Cy_BLE_HAL_UART_Start(void)
 224:Generated_Source\PSoC6\pdl\middleware\ble/cy_ble_hal_pvt.c **** {
 225:Generated_Source\PSoC6\pdl\middleware\ble/cy_ble_hal_pvt.c ****     /* Setup ISR */
 226:Generated_Source\PSoC6\pdl\middleware\ble/cy_ble_hal_pvt.c ****     Cy_SysInt_Init(cy_ble_configPtr->uartIsrConfig, &Cy_BLE_HAL_UART_Interrupt);
 227:Generated_Source\PSoC6\pdl\middleware\ble/cy_ble_hal_pvt.c ****     NVIC_EnableIRQ((IRQn_Type)cy_ble_configPtr->uartIsrConfig->intrSrc);
 228:Generated_Source\PSoC6\pdl\middleware\ble/cy_ble_hal_pvt.c **** 
 229:Generated_Source\PSoC6\pdl\middleware\ble/cy_ble_hal_pvt.c ****     (void)Cy_SCB_UART_Init(cy_ble_configPtr->uartHw, cy_ble_configPtr->uartConfig, NULL);
 230:Generated_Source\PSoC6\pdl\middleware\ble/cy_ble_hal_pvt.c ****     /* Configure interrupt sources. */
 231:Generated_Source\PSoC6\pdl\middleware\ble/cy_ble_hal_pvt.c ****     Cy_SCB_SetRxInterruptMask(cy_ble_configPtr->uartHw,
 232:Generated_Source\PSoC6\pdl\middleware\ble/cy_ble_hal_pvt.c ****                               CY_SCB_RX_INTR_NOT_EMPTY | CY_SCB_RX_INTR_OVERFLOW | CY_SCB_RX_INTR_U
 233:Generated_Source\PSoC6\pdl\middleware\ble/cy_ble_hal_pvt.c ****     Cy_SCB_SetTxInterruptMask(cy_ble_configPtr->uartHw, CY_SCB_TX_INTR_OVERFLOW | CY_SCB_TX_INTR_UA
 234:Generated_Source\PSoC6\pdl\middleware\ble/cy_ble_hal_pvt.c **** 
 235:Generated_Source\PSoC6\pdl\middleware\ble/cy_ble_hal_pvt.c ****     Cy_SCB_UART_Enable(cy_ble_configPtr->uartHw);
 236:Generated_Source\PSoC6\pdl\middleware\ble/cy_ble_hal_pvt.c **** }
 237:Generated_Source\PSoC6\pdl\middleware\ble/cy_ble_hal_pvt.c **** 
 238:Generated_Source\PSoC6\pdl\middleware\ble/cy_ble_hal_pvt.c **** 
 239:Generated_Source\PSoC6\pdl\middleware\ble/cy_ble_hal_pvt.c **** /*******************************************************************************
 240:Generated_Source\PSoC6\pdl\middleware\ble/cy_ble_hal_pvt.c **** * Function Name: Cy_BLE_HAL_UART_Stop
 241:Generated_Source\PSoC6\pdl\middleware\ble/cy_ble_hal_pvt.c **** ****************************************************************************//**
 242:Generated_Source\PSoC6\pdl\middleware\ble/cy_ble_hal_pvt.c **** *
 243:Generated_Source\PSoC6\pdl\middleware\ble/cy_ble_hal_pvt.c **** *  Disables the UART, clears all pending interrupts and disables the UART TX
 244:Generated_Source\PSoC6\pdl\middleware\ble/cy_ble_hal_pvt.c **** *  and RX interrupts. This will also empty out the FIFOs.
 245:Generated_Source\PSoC6\pdl\middleware\ble/cy_ble_hal_pvt.c **** *
 246:Generated_Source\PSoC6\pdl\middleware\ble/cy_ble_hal_pvt.c **** * \return
 247:Generated_Source\PSoC6\pdl\middleware\ble/cy_ble_hal_pvt.c **** *  None
 248:Generated_Source\PSoC6\pdl\middleware\ble/cy_ble_hal_pvt.c **** *
 249:Generated_Source\PSoC6\pdl\middleware\ble/cy_ble_hal_pvt.c **** *******************************************************************************/
 250:Generated_Source\PSoC6\pdl\middleware\ble/cy_ble_hal_pvt.c **** void Cy_BLE_HAL_UART_Stop(void)
 251:Generated_Source\PSoC6\pdl\middleware\ble/cy_ble_hal_pvt.c **** {
 252:Generated_Source\PSoC6\pdl\middleware\ble/cy_ble_hal_pvt.c ****     /* Stop interrupt and UART */
 253:Generated_Source\PSoC6\pdl\middleware\ble/cy_ble_hal_pvt.c ****     NVIC_DisableIRQ((IRQn_Type)cy_ble_configPtr->uartIsrConfig->intrSrc);
 254:Generated_Source\PSoC6\pdl\middleware\ble/cy_ble_hal_pvt.c **** 
 255:Generated_Source\PSoC6\pdl\middleware\ble/cy_ble_hal_pvt.c ****     Cy_SCB_UART_Disable(cy_ble_configPtr->uartHw, NULL);
 256:Generated_Source\PSoC6\pdl\middleware\ble/cy_ble_hal_pvt.c **** }
 257:Generated_Source\PSoC6\pdl\middleware\ble/cy_ble_hal_pvt.c **** 
 258:Generated_Source\PSoC6\pdl\middleware\ble/cy_ble_hal_pvt.c **** 
ARM GAS  C:\Users\salaz\AppData\Local\Temp\cczs20OJ.s 			page 6


 259:Generated_Source\PSoC6\pdl\middleware\ble/cy_ble_hal_pvt.c **** /*******************************************************************************
 260:Generated_Source\PSoC6\pdl\middleware\ble/cy_ble_hal_pvt.c **** * Function Name: Cy_BLE_HAL_UART_Transmit
 261:Generated_Source\PSoC6\pdl\middleware\ble/cy_ble_hal_pvt.c **** ****************************************************************************//**
 262:Generated_Source\PSoC6\pdl\middleware\ble/cy_ble_hal_pvt.c **** *
 263:Generated_Source\PSoC6\pdl\middleware\ble/cy_ble_hal_pvt.c **** *  Sends the data to UART TX FIFO. The function handles data length up to the
 264:Generated_Source\PSoC6\pdl\middleware\ble/cy_ble_hal_pvt.c **** *  supported TX FIFO length of the UART hardware module.
 265:Generated_Source\PSoC6\pdl\middleware\ble/cy_ble_hal_pvt.c **** *
 266:Generated_Source\PSoC6\pdl\middleware\ble/cy_ble_hal_pvt.c **** *  \param data: Pointer to the data to send through the UART
 267:Generated_Source\PSoC6\pdl\middleware\ble/cy_ble_hal_pvt.c **** *  \param length: the length of data to transmit in bytes
 268:Generated_Source\PSoC6\pdl\middleware\ble/cy_ble_hal_pvt.c **** *
 269:Generated_Source\PSoC6\pdl\middleware\ble/cy_ble_hal_pvt.c **** * \return
 270:Generated_Source\PSoC6\pdl\middleware\ble/cy_ble_hal_pvt.c **** *  None
 271:Generated_Source\PSoC6\pdl\middleware\ble/cy_ble_hal_pvt.c **** *
 272:Generated_Source\PSoC6\pdl\middleware\ble/cy_ble_hal_pvt.c **** *******************************************************************************/
 273:Generated_Source\PSoC6\pdl\middleware\ble/cy_ble_hal_pvt.c **** void Cy_BLE_HAL_UART_Transmit(uint8_t *dataBuf,
 274:Generated_Source\PSoC6\pdl\middleware\ble/cy_ble_hal_pvt.c ****                               uint8_t length)
 275:Generated_Source\PSoC6\pdl\middleware\ble/cy_ble_hal_pvt.c **** {
 276:Generated_Source\PSoC6\pdl\middleware\ble/cy_ble_hal_pvt.c ****     Cy_SCB_UART_PutArrayBlocking(cy_ble_configPtr->uartHw, dataBuf, (uint32_t)length);
 277:Generated_Source\PSoC6\pdl\middleware\ble/cy_ble_hal_pvt.c **** }
 278:Generated_Source\PSoC6\pdl\middleware\ble/cy_ble_hal_pvt.c **** 
 279:Generated_Source\PSoC6\pdl\middleware\ble/cy_ble_hal_pvt.c **** 
 280:Generated_Source\PSoC6\pdl\middleware\ble/cy_ble_hal_pvt.c **** /*******************************************************************************
 281:Generated_Source\PSoC6\pdl\middleware\ble/cy_ble_hal_pvt.c **** * Function Name: Cy_BLE_HAL_UART_IsrEnable
 282:Generated_Source\PSoC6\pdl\middleware\ble/cy_ble_hal_pvt.c **** ****************************************************************************//**
 283:Generated_Source\PSoC6\pdl\middleware\ble/cy_ble_hal_pvt.c **** *
 284:Generated_Source\PSoC6\pdl\middleware\ble/cy_ble_hal_pvt.c **** *   Enables the UART interrupt to the interrupt controller.
 285:Generated_Source\PSoC6\pdl\middleware\ble/cy_ble_hal_pvt.c **** *   Do not call this function unless Cy_BLE_HAL_UART_Start() has been called or the
 286:Generated_Source\PSoC6\pdl\middleware\ble/cy_ble_hal_pvt.c **** *   functionality of the Cy_SysInt_Init() function, which sets the vector and the
 287:Generated_Source\PSoC6\pdl\middleware\ble/cy_ble_hal_pvt.c **** *   priority, has been called.
 288:Generated_Source\PSoC6\pdl\middleware\ble/cy_ble_hal_pvt.c **** *
 289:Generated_Source\PSoC6\pdl\middleware\ble/cy_ble_hal_pvt.c **** *******************************************************************************/
 290:Generated_Source\PSoC6\pdl\middleware\ble/cy_ble_hal_pvt.c **** void Cy_BLE_HAL_UART_IsrEnable(void)
 291:Generated_Source\PSoC6\pdl\middleware\ble/cy_ble_hal_pvt.c **** {
 292:Generated_Source\PSoC6\pdl\middleware\ble/cy_ble_hal_pvt.c ****     NVIC_EnableIRQ((IRQn_Type)cy_ble_configPtr->uartIsrConfig->intrSrc);
 293:Generated_Source\PSoC6\pdl\middleware\ble/cy_ble_hal_pvt.c **** }
 294:Generated_Source\PSoC6\pdl\middleware\ble/cy_ble_hal_pvt.c **** 
 295:Generated_Source\PSoC6\pdl\middleware\ble/cy_ble_hal_pvt.c **** 
 296:Generated_Source\PSoC6\pdl\middleware\ble/cy_ble_hal_pvt.c **** /*******************************************************************************
 297:Generated_Source\PSoC6\pdl\middleware\ble/cy_ble_hal_pvt.c **** * Function Name: Cy_BLE_HAL_UART_IsrDisable
 298:Generated_Source\PSoC6\pdl\middleware\ble/cy_ble_hal_pvt.c **** ****************************************************************************//**
 299:Generated_Source\PSoC6\pdl\middleware\ble/cy_ble_hal_pvt.c **** *
 300:Generated_Source\PSoC6\pdl\middleware\ble/cy_ble_hal_pvt.c **** *   Disables the UART Interrupt in the interrupt controller.
 301:Generated_Source\PSoC6\pdl\middleware\ble/cy_ble_hal_pvt.c **** *
 302:Generated_Source\PSoC6\pdl\middleware\ble/cy_ble_hal_pvt.c **** *******************************************************************************/
 303:Generated_Source\PSoC6\pdl\middleware\ble/cy_ble_hal_pvt.c **** void Cy_BLE_HAL_UART_IsrDisable(void)
 304:Generated_Source\PSoC6\pdl\middleware\ble/cy_ble_hal_pvt.c **** {
 305:Generated_Source\PSoC6\pdl\middleware\ble/cy_ble_hal_pvt.c ****     NVIC_DisableIRQ((IRQn_Type)cy_ble_configPtr->uartIsrConfig->intrSrc);
 306:Generated_Source\PSoC6\pdl\middleware\ble/cy_ble_hal_pvt.c **** }
 307:Generated_Source\PSoC6\pdl\middleware\ble/cy_ble_hal_pvt.c **** 
 308:Generated_Source\PSoC6\pdl\middleware\ble/cy_ble_hal_pvt.c **** #endif /* (CY_BLE_CONFIG_MODE_CONTR_UART) */
 309:Generated_Source\PSoC6\pdl\middleware\ble/cy_ble_hal_pvt.c **** 
 310:Generated_Source\PSoC6\pdl\middleware\ble/cy_ble_hal_pvt.c **** #if(CY_BLE_STACK_CONTR_CORE)
 311:Generated_Source\PSoC6\pdl\middleware\ble/cy_ble_hal_pvt.c **** /*******************************************************************************
 312:Generated_Source\PSoC6\pdl\middleware\ble/cy_ble_hal_pvt.c **** * Function Name: Cy_BLE_HAL_RadioCalibrationWrite
 313:Generated_Source\PSoC6\pdl\middleware\ble/cy_ble_hal_pvt.c **** ****************************************************************************//**
 314:Generated_Source\PSoC6\pdl\middleware\ble/cy_ble_hal_pvt.c **** *
 315:Generated_Source\PSoC6\pdl\middleware\ble/cy_ble_hal_pvt.c **** *  Write radio calibration data to SFLASH
ARM GAS  C:\Users\salaz\AppData\Local\Temp\cczs20OJ.s 			page 7


 316:Generated_Source\PSoC6\pdl\middleware\ble/cy_ble_hal_pvt.c **** *
 317:Generated_Source\PSoC6\pdl\middleware\ble/cy_ble_hal_pvt.c **** *  \param data:   Pointer to the buffer containing the data to be stored.
 318:Generated_Source\PSoC6\pdl\middleware\ble/cy_ble_hal_pvt.c **** *  \param length: The length of the data in bytes.
 319:Generated_Source\PSoC6\pdl\middleware\ble/cy_ble_hal_pvt.c **** *
 320:Generated_Source\PSoC6\pdl\middleware\ble/cy_ble_hal_pvt.c **** *  \return
 321:Generated_Source\PSoC6\pdl\middleware\ble/cy_ble_hal_pvt.c **** *   CY_BLE_SUCCESS                     A successful write
 322:Generated_Source\PSoC6\pdl\middleware\ble/cy_ble_hal_pvt.c **** *   CY_BLE_ERROR_INVALID_PARAMETER     At least one of the input parameters is invalid
 323:Generated_Source\PSoC6\pdl\middleware\ble/cy_ble_hal_pvt.c **** *   CY_BLE_ERROR_FLASH_WRITE           Error in flash Write
 324:Generated_Source\PSoC6\pdl\middleware\ble/cy_ble_hal_pvt.c **** *
 325:Generated_Source\PSoC6\pdl\middleware\ble/cy_ble_hal_pvt.c **** *******************************************************************************/
 326:Generated_Source\PSoC6\pdl\middleware\ble/cy_ble_hal_pvt.c **** cy_en_ble_api_result_t Cy_BLE_HAL_RadioCalibrationWrite(const void *data, uint32_t length)
 327:Generated_Source\PSoC6\pdl\middleware\ble/cy_ble_hal_pvt.c **** {
 328:Generated_Source\PSoC6\pdl\middleware\ble/cy_ble_hal_pvt.c ****     cy_en_ble_api_result_t rc;
 329:Generated_Source\PSoC6\pdl\middleware\ble/cy_ble_hal_pvt.c **** 
 330:Generated_Source\PSoC6\pdl\middleware\ble/cy_ble_hal_pvt.c ****     if((data != NULL) &&
 331:Generated_Source\PSoC6\pdl\middleware\ble/cy_ble_hal_pvt.c ****        (length <= (CY_FLASH_SIZEOF_ROW - sizeof(cy_stc_ble_gap_bd_addr_t))))
 332:Generated_Source\PSoC6\pdl\middleware\ble/cy_ble_hal_pvt.c ****     {
 333:Generated_Source\PSoC6\pdl\middleware\ble/cy_ble_hal_pvt.c ****         rc = Cy_BLE_HAL_NvramWrite(data, (uint8_t *)CY_BLE_SFLASH_BLE_RADIO_CALL_ADDRESS,
 334:Generated_Source\PSoC6\pdl\middleware\ble/cy_ble_hal_pvt.c ****                                    length, CY_BLE_FLASH_BLOCKING_MODE);
 335:Generated_Source\PSoC6\pdl\middleware\ble/cy_ble_hal_pvt.c ****     }
 336:Generated_Source\PSoC6\pdl\middleware\ble/cy_ble_hal_pvt.c ****     else
 337:Generated_Source\PSoC6\pdl\middleware\ble/cy_ble_hal_pvt.c ****     {
 338:Generated_Source\PSoC6\pdl\middleware\ble/cy_ble_hal_pvt.c ****         rc = CY_BLE_ERROR_INVALID_PARAMETER;
 339:Generated_Source\PSoC6\pdl\middleware\ble/cy_ble_hal_pvt.c ****     }
 340:Generated_Source\PSoC6\pdl\middleware\ble/cy_ble_hal_pvt.c ****     return(rc);
 341:Generated_Source\PSoC6\pdl\middleware\ble/cy_ble_hal_pvt.c **** }
 342:Generated_Source\PSoC6\pdl\middleware\ble/cy_ble_hal_pvt.c **** 
 343:Generated_Source\PSoC6\pdl\middleware\ble/cy_ble_hal_pvt.c **** 
 344:Generated_Source\PSoC6\pdl\middleware\ble/cy_ble_hal_pvt.c **** /*******************************************************************************
 345:Generated_Source\PSoC6\pdl\middleware\ble/cy_ble_hal_pvt.c **** * Function Name: Cy_BLE_HAL_RadioCalibrationRead
 346:Generated_Source\PSoC6\pdl\middleware\ble/cy_ble_hal_pvt.c **** ****************************************************************************//**
 347:Generated_Source\PSoC6\pdl\middleware\ble/cy_ble_hal_pvt.c **** *
 348:Generated_Source\PSoC6\pdl\middleware\ble/cy_ble_hal_pvt.c **** *  Read radio calibration data from SFLASH
 349:Generated_Source\PSoC6\pdl\middleware\ble/cy_ble_hal_pvt.c **** *
 350:Generated_Source\PSoC6\pdl\middleware\ble/cy_ble_hal_pvt.c **** *  \param data:   Pointer to the buffer containing the data to be read from SFASH.
 351:Generated_Source\PSoC6\pdl\middleware\ble/cy_ble_hal_pvt.c **** *  \param length: The length of the data in bytes.
 352:Generated_Source\PSoC6\pdl\middleware\ble/cy_ble_hal_pvt.c **** *
 353:Generated_Source\PSoC6\pdl\middleware\ble/cy_ble_hal_pvt.c **** *  \return
 354:Generated_Source\PSoC6\pdl\middleware\ble/cy_ble_hal_pvt.c **** *   CY_BLE_SUCCESS                     A successful read
 355:Generated_Source\PSoC6\pdl\middleware\ble/cy_ble_hal_pvt.c **** *   CY_BLE_ERROR_INVALID_PARAMETER     At least one of the input parameters is invalid
 356:Generated_Source\PSoC6\pdl\middleware\ble/cy_ble_hal_pvt.c **** *
 357:Generated_Source\PSoC6\pdl\middleware\ble/cy_ble_hal_pvt.c **** *******************************************************************************/
 358:Generated_Source\PSoC6\pdl\middleware\ble/cy_ble_hal_pvt.c **** cy_en_ble_api_result_t Cy_BLE_HAL_RadioCalibrationRead(void *data, uint32_t length)
 359:Generated_Source\PSoC6\pdl\middleware\ble/cy_ble_hal_pvt.c **** {
  28              		.loc 1 359 0
  29              		.cfi_startproc
  30              		@ args = 0, pretend = 0, frame = 0
  31              		@ frame_needed = 0, uses_anonymous_args = 0
  32              	.LVL0:
  33 0000 10B5     		push	{r4, lr}
  34              		.cfi_def_cfa_offset 8
  35              		.cfi_offset 4, -8
  36              		.cfi_offset 14, -4
  37              	.LVL1:
 360:Generated_Source\PSoC6\pdl\middleware\ble/cy_ble_hal_pvt.c ****     cy_en_ble_api_result_t rc = CY_BLE_SUCCESS;
 361:Generated_Source\PSoC6\pdl\middleware\ble/cy_ble_hal_pvt.c ****     
 362:Generated_Source\PSoC6\pdl\middleware\ble/cy_ble_hal_pvt.c ****     if((data != NULL) && 
ARM GAS  C:\Users\salaz\AppData\Local\Temp\cczs20OJ.s 			page 8


  38              		.loc 1 362 0
  39 0002 0028     		cmp	r0, #0
  40 0004 09D0     		beq	.L3
  41              		.loc 1 362 0 is_stmt 0 discriminator 1
  42 0006 FA23     		movs	r3, #250
  43 0008 FF33     		adds	r3, r3, #255
  44 000a 9942     		cmp	r1, r3
  45 000c 07D8     		bhi	.L4
 363:Generated_Source\PSoC6\pdl\middleware\ble/cy_ble_hal_pvt.c ****        (length <= (CY_FLASH_SIZEOF_ROW - sizeof(cy_stc_ble_gap_bd_addr_t))))
 364:Generated_Source\PSoC6\pdl\middleware\ble/cy_ble_hal_pvt.c ****     {
 365:Generated_Source\PSoC6\pdl\middleware\ble/cy_ble_hal_pvt.c ****         (void) memcpy(data, (void *)CY_BLE_SFLASH_BLE_RADIO_CALL_ADDRESS, length);
  46              		.loc 1 365 0 is_stmt 1
  47 000e 0A00     		movs	r2, r1
  48 0010 0449     		ldr	r1, .L5
  49              	.LVL2:
  50 0012 FFF7FEFF 		bl	memcpy
  51              	.LVL3:
 360:Generated_Source\PSoC6\pdl\middleware\ble/cy_ble_hal_pvt.c ****     cy_en_ble_api_result_t rc = CY_BLE_SUCCESS;
  52              		.loc 1 360 0
  53 0016 0020     		movs	r0, #0
  54              		.loc 1 365 0
  55 0018 02E0     		b	.L2
  56              	.LVL4:
  57              	.L3:
 366:Generated_Source\PSoC6\pdl\middleware\ble/cy_ble_hal_pvt.c ****     }
 367:Generated_Source\PSoC6\pdl\middleware\ble/cy_ble_hal_pvt.c ****     else
 368:Generated_Source\PSoC6\pdl\middleware\ble/cy_ble_hal_pvt.c ****     {
 369:Generated_Source\PSoC6\pdl\middleware\ble/cy_ble_hal_pvt.c ****         rc = CY_BLE_ERROR_INVALID_PARAMETER;
  58              		.loc 1 369 0
  59 001a 0348     		ldr	r0, .L5+4
  60              	.LVL5:
  61 001c 00E0     		b	.L2
  62              	.LVL6:
  63              	.L4:
  64 001e 0248     		ldr	r0, .L5+4
  65              	.LVL7:
  66              	.L2:
 370:Generated_Source\PSoC6\pdl\middleware\ble/cy_ble_hal_pvt.c ****     }
 371:Generated_Source\PSoC6\pdl\middleware\ble/cy_ble_hal_pvt.c ****     return(rc);
 372:Generated_Source\PSoC6\pdl\middleware\ble/cy_ble_hal_pvt.c **** }
  67              		.loc 1 372 0
  68              		@ sp needed
  69 0020 10BD     		pop	{r4, pc}
  70              	.L6:
  71 0022 C046     		.align	2
  72              	.L5:
  73 0024 07080016 		.word	369100807
  74 0028 01001600 		.word	1441793
  75              		.cfi_endproc
  76              	.LFE159:
  77              		.size	Cy_BLE_HAL_RadioCalibrationRead, .-Cy_BLE_HAL_RadioCalibrationRead
  78              		.section	.text.Cy_BLE_HAL_NvramWrite,"ax",%progbits
  79              		.align	2
  80              		.global	Cy_BLE_HAL_NvramWrite
  81              		.code	16
  82              		.thumb_func
  83              		.type	Cy_BLE_HAL_NvramWrite, %function
ARM GAS  C:\Users\salaz\AppData\Local\Temp\cczs20OJ.s 			page 9


  84              	Cy_BLE_HAL_NvramWrite:
  85              	.LFB160:
 373:Generated_Source\PSoC6\pdl\middleware\ble/cy_ble_hal_pvt.c **** 
 374:Generated_Source\PSoC6\pdl\middleware\ble/cy_ble_hal_pvt.c **** #endif /* CY_BLE_STACK_CONTR_CORE */
 375:Generated_Source\PSoC6\pdl\middleware\ble/cy_ble_hal_pvt.c **** 
 376:Generated_Source\PSoC6\pdl\middleware\ble/cy_ble_hal_pvt.c **** 
 377:Generated_Source\PSoC6\pdl\middleware\ble/cy_ble_hal_pvt.c **** /*******************************************************************************
 378:Generated_Source\PSoC6\pdl\middleware\ble/cy_ble_hal_pvt.c **** * Function Name: Cy_BLE_HAL_NvramWrite
 379:Generated_Source\PSoC6\pdl\middleware\ble/cy_ble_hal_pvt.c **** ****************************************************************************//**
 380:Generated_Source\PSoC6\pdl\middleware\ble/cy_ble_hal_pvt.c **** *
 381:Generated_Source\PSoC6\pdl\middleware\ble/cy_ble_hal_pvt.c **** * This function writes the data to the NVRAM store. It will check the
 382:Generated_Source\PSoC6\pdl\middleware\ble/cy_ble_hal_pvt.c **** * appropriate alignment of a start address and also perform an address range
 383:Generated_Source\PSoC6\pdl\middleware\ble/cy_ble_hal_pvt.c **** * check based on the length before performing the write operation.
 384:Generated_Source\PSoC6\pdl\middleware\ble/cy_ble_hal_pvt.c **** * This function performs memory compare and writes only row where there are new
 385:Generated_Source\PSoC6\pdl\middleware\ble/cy_ble_hal_pvt.c **** * data to write.
 386:Generated_Source\PSoC6\pdl\middleware\ble/cy_ble_hal_pvt.c **** *
 387:Generated_Source\PSoC6\pdl\middleware\ble/cy_ble_hal_pvt.c **** * \param buffer:   Pointer to the buffer containing the data to be stored.
 388:Generated_Source\PSoC6\pdl\middleware\ble/cy_ble_hal_pvt.c **** * \param varFlash: Pointer to the array or variable in the flash.
 389:Generated_Source\PSoC6\pdl\middleware\ble/cy_ble_hal_pvt.c **** * \param length:   The length of the data in bytes.
 390:Generated_Source\PSoC6\pdl\middleware\ble/cy_ble_hal_pvt.c **** * \param mode:     Flash operation mode: 
 391:Generated_Source\PSoC6\pdl\middleware\ble/cy_ble_hal_pvt.c **** *                     CY_BLE_FLASH_NON_BLOCKING_MODE - operate with non
 392:Generated_Source\PSoC6\pdl\middleware\ble/cy_ble_hal_pvt.c **** *                     blocking flash API
 393:Generated_Source\PSoC6\pdl\middleware\ble/cy_ble_hal_pvt.c **** *                     CY_BLE_FLASH_BLOCKING_MODE - operate with blocking 
 394:Generated_Source\PSoC6\pdl\middleware\ble/cy_ble_hal_pvt.c **** *                     flash API
 395:Generated_Source\PSoC6\pdl\middleware\ble/cy_ble_hal_pvt.c **** *
 396:Generated_Source\PSoC6\pdl\middleware\ble/cy_ble_hal_pvt.c **** * \return
 397:Generated_Source\PSoC6\pdl\middleware\ble/cy_ble_hal_pvt.c **** *  CY_BLE_SUCCESS                         | A successful write
 398:Generated_Source\PSoC6\pdl\middleware\ble/cy_ble_hal_pvt.c **** *  CY_BLE_ERROR_INVALID_PARAMETER         | At least one of the input parameters is invalid
 399:Generated_Source\PSoC6\pdl\middleware\ble/cy_ble_hal_pvt.c **** *  CY_BLE_ERROR_FLASH_WRITE               | Error in flash Write
 400:Generated_Source\PSoC6\pdl\middleware\ble/cy_ble_hal_pvt.c **** *  CY_BLE_ERROR_FLASH_WRITE_NOT_PERMITED  | Flash operation is not permitted (see Note)
 401:Generated_Source\PSoC6\pdl\middleware\ble/cy_ble_hal_pvt.c **** * 
 402:Generated_Source\PSoC6\pdl\middleware\ble/cy_ble_hal_pvt.c **** * \note: Flash operation is not permitted with protection context (PC)
 403:Generated_Source\PSoC6\pdl\middleware\ble/cy_ble_hal_pvt.c **** *        value > 0 and core voltage 0.9V, because of a preproduction
 404:Generated_Source\PSoC6\pdl\middleware\ble/cy_ble_hal_pvt.c **** *        hardware limitation.
 405:Generated_Source\PSoC6\pdl\middleware\ble/cy_ble_hal_pvt.c **** *    
 406:Generated_Source\PSoC6\pdl\middleware\ble/cy_ble_hal_pvt.c **** *******************************************************************************/
 407:Generated_Source\PSoC6\pdl\middleware\ble/cy_ble_hal_pvt.c **** cy_en_ble_api_result_t Cy_BLE_HAL_NvramWrite(const uint8_t buffer[],
 408:Generated_Source\PSoC6\pdl\middleware\ble/cy_ble_hal_pvt.c ****                                              const uint8_t varFlash[],
 409:Generated_Source\PSoC6\pdl\middleware\ble/cy_ble_hal_pvt.c ****                                              uint32_t length,
 410:Generated_Source\PSoC6\pdl\middleware\ble/cy_ble_hal_pvt.c ****                                              uint32_t mode)
 411:Generated_Source\PSoC6\pdl\middleware\ble/cy_ble_hal_pvt.c **** {
  86              		.loc 1 411 0
  87              		.cfi_startproc
  88              		@ args = 0, pretend = 0, frame = 536
  89              		@ frame_needed = 0, uses_anonymous_args = 0
  90              	.LVL8:
  91 0000 F0B5     		push	{r4, r5, r6, r7, lr}
  92              		.cfi_def_cfa_offset 20
  93              		.cfi_offset 4, -20
  94              		.cfi_offset 5, -16
  95              		.cfi_offset 6, -12
  96              		.cfi_offset 7, -8
  97              		.cfi_offset 14, -4
  98 0002 5F46     		mov	r7, fp
  99 0004 5646     		mov	r6, r10
 100 0006 4D46     		mov	r5, r9
 101 0008 4446     		mov	r4, r8
ARM GAS  C:\Users\salaz\AppData\Local\Temp\cczs20OJ.s 			page 10


 102 000a F0B4     		push	{r4, r5, r6, r7}
 103              		.cfi_def_cfa_offset 36
 104              		.cfi_offset 8, -36
 105              		.cfi_offset 9, -32
 106              		.cfi_offset 10, -28
 107              		.cfi_offset 11, -24
 108 000c B14C     		ldr	r4, .L53
 109 000e A544     		add	sp, sp, r4
 110              		.cfi_def_cfa_offset 576
 111 0010 8146     		mov	r9, r0
 112 0012 0E00     		movs	r6, r1
 113 0014 9046     		mov	r8, r2
 114 0016 0593     		str	r3, [sp, #20]
 115              	.LVL9:
 412:Generated_Source\PSoC6\pdl\middleware\ble/cy_ble_hal_pvt.c ****     
 413:Generated_Source\PSoC6\pdl\middleware\ble/cy_ble_hal_pvt.c ****     cy_en_ble_api_result_t bleReturn;
 414:Generated_Source\PSoC6\pdl\middleware\ble/cy_ble_hal_pvt.c ****     cy_en_flashdrv_status_t flashReturn = CY_FLASH_DRV_SUCCESS;
 415:Generated_Source\PSoC6\pdl\middleware\ble/cy_ble_hal_pvt.c ****     cy_en_syspm_status_t syspmReturn =  CY_SYSPM_SUCCESS;
 416:Generated_Source\PSoC6\pdl\middleware\ble/cy_ble_hal_pvt.c ****     uint32_t writeBuffer[CY_FLASH_SIZEOF_ROW / sizeof(uint32_t)];
 417:Generated_Source\PSoC6\pdl\middleware\ble/cy_ble_hal_pvt.c ****     uint32_t rowId;
 418:Generated_Source\PSoC6\pdl\middleware\ble/cy_ble_hal_pvt.c ****     uint32_t dstIndex;
 419:Generated_Source\PSoC6\pdl\middleware\ble/cy_ble_hal_pvt.c ****     uint32_t srcIndex = 0u;
 420:Generated_Source\PSoC6\pdl\middleware\ble/cy_ble_hal_pvt.c ****     uint32_t eeOffset;
 421:Generated_Source\PSoC6\pdl\middleware\ble/cy_ble_hal_pvt.c ****     uint32_t byteOffset;
 422:Generated_Source\PSoC6\pdl\middleware\ble/cy_ble_hal_pvt.c ****     bool rowsNotEqual;
 423:Generated_Source\PSoC6\pdl\middleware\ble/cy_ble_hal_pvt.c ****     uint8_t *writeBufferPointer;  
 424:Generated_Source\PSoC6\pdl\middleware\ble/cy_ble_hal_pvt.c **** 
 425:Generated_Source\PSoC6\pdl\middleware\ble/cy_ble_hal_pvt.c ****     eeOffset = (uint32_t)varFlash;
 116              		.loc 1 425 0
 117 0018 0B00     		movs	r3, r1
 118              	.LVL10:
 426:Generated_Source\PSoC6\pdl\middleware\ble/cy_ble_hal_pvt.c ****     writeBufferPointer = (uint8_t*)writeBuffer;
 427:Generated_Source\PSoC6\pdl\middleware\ble/cy_ble_hal_pvt.c **** 
 428:Generated_Source\PSoC6\pdl\middleware\ble/cy_ble_hal_pvt.c ****     /* Make sure, that varFlash[] points to Flash or Emulated EEPROM */
 429:Generated_Source\PSoC6\pdl\middleware\ble/cy_ble_hal_pvt.c ****     if(((eeOffset >= CY_FLASH_BASE) &&
 119              		.loc 1 429 0
 120 001a AF4A     		ldr	r2, .L53+4
 121              	.LVL11:
 122 001c 9142     		cmp	r1, r2
 123 001e 04D9     		bls	.L8
 430:Generated_Source\PSoC6\pdl\middleware\ble/cy_ble_hal_pvt.c ****         ((eeOffset + length) <= (CY_FLASH_BASE + CY_FLASH_SIZE))) ||
 124              		.loc 1 430 0 discriminator 1
 125 0020 4246     		mov	r2, r8
 126 0022 8A18     		adds	r2, r1, r2
 429:Generated_Source\PSoC6\pdl\middleware\ble/cy_ble_hal_pvt.c ****         ((eeOffset + length) <= (CY_FLASH_BASE + CY_FLASH_SIZE))) ||
 127              		.loc 1 429 0 discriminator 1
 128 0024 AD49     		ldr	r1, .L53+8
 129              	.LVL12:
 130 0026 8A42     		cmp	r2, r1
 131 0028 11D9     		bls	.L9
 132              	.L8:
 133              		.loc 1 430 0
 134 002a AD4A     		ldr	r2, .L53+12
 135 002c 9342     		cmp	r3, r2
 136 002e 04D9     		bls	.L10
 431:Generated_Source\PSoC6\pdl\middleware\ble/cy_ble_hal_pvt.c ****        ((eeOffset >= CY_EM_EEPROM_BASE) &&
 432:Generated_Source\PSoC6\pdl\middleware\ble/cy_ble_hal_pvt.c ****         ((eeOffset + length) <= (CY_EM_EEPROM_BASE + CY_EM_EEPROM_SIZE))) ||
ARM GAS  C:\Users\salaz\AppData\Local\Temp\cczs20OJ.s 			page 11


 137              		.loc 1 432 0
 138 0030 4246     		mov	r2, r8
 139 0032 B218     		adds	r2, r6, r2
 431:Generated_Source\PSoC6\pdl\middleware\ble/cy_ble_hal_pvt.c ****        ((eeOffset >= CY_EM_EEPROM_BASE) &&
 140              		.loc 1 431 0
 141 0034 AB49     		ldr	r1, .L53+16
 142 0036 8A42     		cmp	r2, r1
 143 0038 09D9     		bls	.L9
 144              	.L10:
 145              		.loc 1 432 0
 146 003a AB4A     		ldr	r2, .L53+20
 147 003c 9342     		cmp	r3, r2
 148 003e 00D8     		bhi	.LCB122
 149 0040 23E1     		b	.L42	@long jump
 150              	.LCB122:
 433:Generated_Source\PSoC6\pdl\middleware\ble/cy_ble_hal_pvt.c ****        ((eeOffset >= (uint32_t)SFLASH->BLE_DEVICE_ADDRESS) &&
 434:Generated_Source\PSoC6\pdl\middleware\ble/cy_ble_hal_pvt.c ****         ((eeOffset + length) <= ((uint32_t)SFLASH->BLE_DEVICE_ADDRESS + CY_FLASH_SIZEOF_ROW))))
 151              		.loc 1 434 0
 152 0042 4346     		mov	r3, r8
 153              	.LVL13:
 154 0044 F318     		adds	r3, r6, r3
 433:Generated_Source\PSoC6\pdl\middleware\ble/cy_ble_hal_pvt.c ****        ((eeOffset >= (uint32_t)SFLASH->BLE_DEVICE_ADDRESS) &&
 155              		.loc 1 433 0
 156 0046 A94A     		ldr	r2, .L53+24
 157 0048 9342     		cmp	r3, r2
 158 004a 00D9     		bls	.LCB129
 159 004c 22E1     		b	.L43	@long jump
 160              	.LCB129:
 161              	.L9:
 162              	.LVL14:
 163              	.LBB38:
 164              	.LBB39:
 165              	.LBB40:
 166              		.file 2 "Generated_Source\\PSoC6\\pdl\\drivers/peripheral/syspm/cy_syspm.h"
   1:Generated_Source\PSoC6\pdl\drivers/peripheral/syspm/cy_syspm.h **** /***************************************************************************//**
   2:Generated_Source\PSoC6\pdl\drivers/peripheral/syspm/cy_syspm.h **** * \file cy_syspm.h
   3:Generated_Source\PSoC6\pdl\drivers/peripheral/syspm/cy_syspm.h **** * \version 2.21
   4:Generated_Source\PSoC6\pdl\drivers/peripheral/syspm/cy_syspm.h **** *
   5:Generated_Source\PSoC6\pdl\drivers/peripheral/syspm/cy_syspm.h **** * Provides the function definitions for the power management API.
   6:Generated_Source\PSoC6\pdl\drivers/peripheral/syspm/cy_syspm.h **** *
   7:Generated_Source\PSoC6\pdl\drivers/peripheral/syspm/cy_syspm.h **** ********************************************************************************
   8:Generated_Source\PSoC6\pdl\drivers/peripheral/syspm/cy_syspm.h **** * \copyright
   9:Generated_Source\PSoC6\pdl\drivers/peripheral/syspm/cy_syspm.h **** * Copyright 2016-2018, Cypress Semiconductor Corporation.  All rights reserved.
  10:Generated_Source\PSoC6\pdl\drivers/peripheral/syspm/cy_syspm.h **** * You may use this file only in accordance with the license, terms, conditions,
  11:Generated_Source\PSoC6\pdl\drivers/peripheral/syspm/cy_syspm.h **** * disclaimers, and limitations in the end user license agreement accompanying
  12:Generated_Source\PSoC6\pdl\drivers/peripheral/syspm/cy_syspm.h **** * the software package with which this file was provided.
  13:Generated_Source\PSoC6\pdl\drivers/peripheral/syspm/cy_syspm.h **** *
  14:Generated_Source\PSoC6\pdl\drivers/peripheral/syspm/cy_syspm.h **** *******************************************************************************/
  15:Generated_Source\PSoC6\pdl\drivers/peripheral/syspm/cy_syspm.h **** 
  16:Generated_Source\PSoC6\pdl\drivers/peripheral/syspm/cy_syspm.h **** /**
  17:Generated_Source\PSoC6\pdl\drivers/peripheral/syspm/cy_syspm.h **** * \defgroup group_syspm System Power Management (SysPm)
  18:Generated_Source\PSoC6\pdl\drivers/peripheral/syspm/cy_syspm.h **** * \{
  19:Generated_Source\PSoC6\pdl\drivers/peripheral/syspm/cy_syspm.h **** *
  20:Generated_Source\PSoC6\pdl\drivers/peripheral/syspm/cy_syspm.h **** * Use the System Power Management (SysPm) driver to enter low-power modes and 
  21:Generated_Source\PSoC6\pdl\drivers/peripheral/syspm/cy_syspm.h **** * reduce system power consumption in power sensitive designs. For multi-core 
  22:Generated_Source\PSoC6\pdl\drivers/peripheral/syspm/cy_syspm.h **** * devices, this library allows you to individually enter low-power modes for 
  23:Generated_Source\PSoC6\pdl\drivers/peripheral/syspm/cy_syspm.h **** * each core.
ARM GAS  C:\Users\salaz\AppData\Local\Temp\cczs20OJ.s 			page 12


  24:Generated_Source\PSoC6\pdl\drivers/peripheral/syspm/cy_syspm.h **** *
  25:Generated_Source\PSoC6\pdl\drivers/peripheral/syspm/cy_syspm.h **** * This document contains the following topics:
  26:Generated_Source\PSoC6\pdl\drivers/peripheral/syspm/cy_syspm.h **** *
  27:Generated_Source\PSoC6\pdl\drivers/peripheral/syspm/cy_syspm.h **** * * \ref group_syspm_power_modes
  28:Generated_Source\PSoC6\pdl\drivers/peripheral/syspm/cy_syspm.h **** * * \ref group_syspm_device_power_modes
  29:Generated_Source\PSoC6\pdl\drivers/peripheral/syspm/cy_syspm.h **** *   - \ref group_syspm_switching_into_lpactive
  30:Generated_Source\PSoC6\pdl\drivers/peripheral/syspm/cy_syspm.h **** *   - \ref group_syspm_switching_from_lpactive
  31:Generated_Source\PSoC6\pdl\drivers/peripheral/syspm/cy_syspm.h **** *   - \ref group_syspm_switching_into_sleep_deepsleep
  32:Generated_Source\PSoC6\pdl\drivers/peripheral/syspm/cy_syspm.h **** *   - \ref group_syspm_wakingup_from_sleep_deepsleep
  33:Generated_Source\PSoC6\pdl\drivers/peripheral/syspm/cy_syspm.h **** *   - \ref group_syspm_switching_into_hibernate
  34:Generated_Source\PSoC6\pdl\drivers/peripheral/syspm/cy_syspm.h **** *   - \ref group_syspm_wakingup_from_hibernate
  35:Generated_Source\PSoC6\pdl\drivers/peripheral/syspm/cy_syspm.h **** * * \ref group_syspm_managing_core_regulators
  36:Generated_Source\PSoC6\pdl\drivers/peripheral/syspm/cy_syspm.h **** *   - \ref group_syspm_ulp_limitations
  37:Generated_Source\PSoC6\pdl\drivers/peripheral/syspm/cy_syspm.h **** *   - \ref group_syspm_lp_limitations
  38:Generated_Source\PSoC6\pdl\drivers/peripheral/syspm/cy_syspm.h **** * * \ref group_syspm_managing_pmic
  39:Generated_Source\PSoC6\pdl\drivers/peripheral/syspm/cy_syspm.h **** * * \ref group_syspm_managing_backup_domain
  40:Generated_Source\PSoC6\pdl\drivers/peripheral/syspm/cy_syspm.h **** * * \ref group_syspm_cb
  41:Generated_Source\PSoC6\pdl\drivers/peripheral/syspm/cy_syspm.h **** *   - \ref group_syspm_cb_example
  42:Generated_Source\PSoC6\pdl\drivers/peripheral/syspm/cy_syspm.h **** *   - \ref group_syspm_cb_config_consideration
  43:Generated_Source\PSoC6\pdl\drivers/peripheral/syspm/cy_syspm.h **** *     - \ref group_syspm_cb_parameters
  44:Generated_Source\PSoC6\pdl\drivers/peripheral/syspm/cy_syspm.h **** *     - \ref group_syspm_cb_structures
  45:Generated_Source\PSoC6\pdl\drivers/peripheral/syspm/cy_syspm.h **** *     - \ref group_syspm_cb_function_implementation
  46:Generated_Source\PSoC6\pdl\drivers/peripheral/syspm/cy_syspm.h **** *     - \ref group_syspm_cb_flow
  47:Generated_Source\PSoC6\pdl\drivers/peripheral/syspm/cy_syspm.h **** *     - \ref group_syspm_cb_uregistering
  48:Generated_Source\PSoC6\pdl\drivers/peripheral/syspm/cy_syspm.h **** * * \ref group_syspm_definitions
  49:Generated_Source\PSoC6\pdl\drivers/peripheral/syspm/cy_syspm.h **** *
  50:Generated_Source\PSoC6\pdl\drivers/peripheral/syspm/cy_syspm.h **** * \section group_syspm_section_configuration Configuration Considerations
  51:Generated_Source\PSoC6\pdl\drivers/peripheral/syspm/cy_syspm.h **** * \subsection group_syspm_power_modes Power Modes
  52:Generated_Source\PSoC6\pdl\drivers/peripheral/syspm/cy_syspm.h **** * PSoC 6 MCUs support the following power modes (in the order of high-to-low 
  53:Generated_Source\PSoC6\pdl\drivers/peripheral/syspm/cy_syspm.h **** * power consumption): Active, Low-Power (LPActive), Deep Sleep, and Hibernate. 
  54:Generated_Source\PSoC6\pdl\drivers/peripheral/syspm/cy_syspm.h **** * The core(s) can also be in Arm-defined power modes - Active, Sleep, 
  55:Generated_Source\PSoC6\pdl\drivers/peripheral/syspm/cy_syspm.h **** * and Deep Sleep.
  56:Generated_Source\PSoC6\pdl\drivers/peripheral/syspm/cy_syspm.h **** * 
  57:Generated_Source\PSoC6\pdl\drivers/peripheral/syspm/cy_syspm.h **** * \subsection group_syspm_device_power_modes Device Power Modes
  58:Generated_Source\PSoC6\pdl\drivers/peripheral/syspm/cy_syspm.h **** * * <b>Active</b> - In this mode the code is executed, and all logic and 
  59:Generated_Source\PSoC6\pdl\drivers/peripheral/syspm/cy_syspm.h **** * memories are powered. Firmware may disable clocks for specific peripherals 
  60:Generated_Source\PSoC6\pdl\drivers/peripheral/syspm/cy_syspm.h **** * and power down specific analog power domains.
  61:Generated_Source\PSoC6\pdl\drivers/peripheral/syspm/cy_syspm.h **** *
  62:Generated_Source\PSoC6\pdl\drivers/peripheral/syspm/cy_syspm.h **** * * <b>LPActive</b> - Low-Power mode is like Active mode, but with clock 
  63:Generated_Source\PSoC6\pdl\drivers/peripheral/syspm/cy_syspm.h **** * restrictions and limited/slower peripherals to achieve a lower system current.
  64:Generated_Source\PSoC6\pdl\drivers/peripheral/syspm/cy_syspm.h **** * Refer to \ref group_syspm_switching_into_lpactive in Configuration 
  65:Generated_Source\PSoC6\pdl\drivers/peripheral/syspm/cy_syspm.h **** * considerations.
  66:Generated_Source\PSoC6\pdl\drivers/peripheral/syspm/cy_syspm.h **** *
  67:Generated_Source\PSoC6\pdl\drivers/peripheral/syspm/cy_syspm.h **** * * <b>Deep Sleep</b> - is a lower power mode where high-frequency clocks are 
  68:Generated_Source\PSoC6\pdl\drivers/peripheral/syspm/cy_syspm.h **** * disabled. Deep-Sleep-capable peripherals are available. A normal wakeup from 
  69:Generated_Source\PSoC6\pdl\drivers/peripheral/syspm/cy_syspm.h **** * Deep Sleep returns to either LPActive, Active, or Sleep, depending on the 
  70:Generated_Source\PSoC6\pdl\drivers/peripheral/syspm/cy_syspm.h **** * previous state and programmed behavior for the configured wakeup interrupt. 
  71:Generated_Source\PSoC6\pdl\drivers/peripheral/syspm/cy_syspm.h **** * Likewise, a debug wakeup from Deep Sleep returns to Sleep, depending on which 
  72:Generated_Source\PSoC6\pdl\drivers/peripheral/syspm/cy_syspm.h **** * mode was used to enter the Deep Sleep power mode. 
  73:Generated_Source\PSoC6\pdl\drivers/peripheral/syspm/cy_syspm.h **** *
  74:Generated_Source\PSoC6\pdl\drivers/peripheral/syspm/cy_syspm.h **** * * <b>Hibernate</b> - is an even lower power mode that is entered from 
  75:Generated_Source\PSoC6\pdl\drivers/peripheral/syspm/cy_syspm.h **** * firmware, just like Deep Sleep. However, on a wakeup the core and all 
  76:Generated_Source\PSoC6\pdl\drivers/peripheral/syspm/cy_syspm.h **** * peripherals go through a full reset. The I/O's state is frozen so that the 
  77:Generated_Source\PSoC6\pdl\drivers/peripheral/syspm/cy_syspm.h **** * output driver state is held. Note that in this mode, the core(s) and all 
  78:Generated_Source\PSoC6\pdl\drivers/peripheral/syspm/cy_syspm.h **** * peripherals lose their states, so the system and firmware reboot on a wakeup 
  79:Generated_Source\PSoC6\pdl\drivers/peripheral/syspm/cy_syspm.h **** * event. Backup memory (if present) can be used to store system states for use 
  80:Generated_Source\PSoC6\pdl\drivers/peripheral/syspm/cy_syspm.h **** * on the next reboot.
ARM GAS  C:\Users\salaz\AppData\Local\Temp\cczs20OJ.s 			page 13


  81:Generated_Source\PSoC6\pdl\drivers/peripheral/syspm/cy_syspm.h **** *
  82:Generated_Source\PSoC6\pdl\drivers/peripheral/syspm/cy_syspm.h **** * \subsubsection group_syspm_switching_into_lpactive Switching Device into LPActive
  83:Generated_Source\PSoC6\pdl\drivers/peripheral/syspm/cy_syspm.h **** * Before switching into the LPActive power mode, ensure that the device meets 
  84:Generated_Source\PSoC6\pdl\drivers/peripheral/syspm/cy_syspm.h **** * the current load limitation. Decrease the clock frequencies, and slow or 
  85:Generated_Source\PSoC6\pdl\drivers/peripheral/syspm/cy_syspm.h **** * disable peripherals. Refer to the \ref group_syspm_managing_core_regulators
  86:Generated_Source\PSoC6\pdl\drivers/peripheral/syspm/cy_syspm.h **** * Section. <br>
  87:Generated_Source\PSoC6\pdl\drivers/peripheral/syspm/cy_syspm.h **** * * The IMO is set to the Clk_HF
  88:Generated_Source\PSoC6\pdl\drivers/peripheral/syspm/cy_syspm.h **** *
  89:Generated_Source\PSoC6\pdl\drivers/peripheral/syspm/cy_syspm.h **** * * Turn off unused peripherals, or decrease their operating frequencies to 
  90:Generated_Source\PSoC6\pdl\drivers/peripheral/syspm/cy_syspm.h **** *   achieve total current consumption less than or equal to 20 mA.
  91:Generated_Source\PSoC6\pdl\drivers/peripheral/syspm/cy_syspm.h **** *
  92:Generated_Source\PSoC6\pdl\drivers/peripheral/syspm/cy_syspm.h **** * * Call the Cy_SysPm_EnterLowPowerMode() function that will put references 
  93:Generated_Source\PSoC6\pdl\drivers/peripheral/syspm/cy_syspm.h **** *   such as POR and BOD into Low-Power mode.
  94:Generated_Source\PSoC6\pdl\drivers/peripheral/syspm/cy_syspm.h **** *
  95:Generated_Source\PSoC6\pdl\drivers/peripheral/syspm/cy_syspm.h **** * * If the core is sourced by the LDO Core Voltage Regulator, then the 
  96:Generated_Source\PSoC6\pdl\drivers/peripheral/syspm/cy_syspm.h **** *   0.9 V (nominal) mode must be set. Refer \ref group_syspm_functions_ldo API 
  97:Generated_Source\PSoC6\pdl\drivers/peripheral/syspm/cy_syspm.h **** *   in \ref group_syspm_functions_core_regulators.
  98:Generated_Source\PSoC6\pdl\drivers/peripheral/syspm/cy_syspm.h **** *
  99:Generated_Source\PSoC6\pdl\drivers/peripheral/syspm/cy_syspm.h **** * * If the core is sourced by the Buck Core Voltage Regulator, then it is 
 100:Generated_Source\PSoC6\pdl\drivers/peripheral/syspm/cy_syspm.h **** *   recommended, but not required, to set CY_SYSPM_BUCK_OUT1_VOLTAGE_0_9V. 
 101:Generated_Source\PSoC6\pdl\drivers/peripheral/syspm/cy_syspm.h **** *   Decide whether your application can meet the requirements for the 
 102:Generated_Source\PSoC6\pdl\drivers/peripheral/syspm/cy_syspm.h **** *   CY_SYSPM_BUCK_OUT1_VOLTAGE_0_9V. 
 103:Generated_Source\PSoC6\pdl\drivers/peripheral/syspm/cy_syspm.h **** *   See \ref group_syspm_managing_core_regulators.
 104:Generated_Source\PSoC6\pdl\drivers/peripheral/syspm/cy_syspm.h **** *
 105:Generated_Source\PSoC6\pdl\drivers/peripheral/syspm/cy_syspm.h **** * \subsubsection group_syspm_switching_from_lpactive Switching Device from LPActive
 106:Generated_Source\PSoC6\pdl\drivers/peripheral/syspm/cy_syspm.h **** * To switch a device from LPActive to Active mode, just 
 107:Generated_Source\PSoC6\pdl\drivers/peripheral/syspm/cy_syspm.h **** * call Cy_SysPm_ExitLowPowerMode().
 108:Generated_Source\PSoC6\pdl\drivers/peripheral/syspm/cy_syspm.h **** *
 109:Generated_Source\PSoC6\pdl\drivers/peripheral/syspm/cy_syspm.h **** * \subsubsection group_syspm_switching_into_sleep_deepsleep Switching Device or Core to Sleep or De
 110:Generated_Source\PSoC6\pdl\drivers/peripheral/syspm/cy_syspm.h **** * For multi-core devices, the Cy_SysPm_Sleep() and Cy_SysPm_DeepSleep() 
 111:Generated_Source\PSoC6\pdl\drivers/peripheral/syspm/cy_syspm.h **** * functions switch only the core that calls the function into the Sleep or 
 112:Generated_Source\PSoC6\pdl\drivers/peripheral/syspm/cy_syspm.h **** * the Deep Sleep power mode. To set the whole device in the Sleep or Deep Sleep
 113:Generated_Source\PSoC6\pdl\drivers/peripheral/syspm/cy_syspm.h **** * power mode, ensure that each core calls the Cy_SysPm_Sleep() or 
 114:Generated_Source\PSoC6\pdl\drivers/peripheral/syspm/cy_syspm.h **** * Cy_SysPm_DeepSleep() function.
 115:Generated_Source\PSoC6\pdl\drivers/peripheral/syspm/cy_syspm.h **** *
 116:Generated_Source\PSoC6\pdl\drivers/peripheral/syspm/cy_syspm.h **** * There are situations when the device does not switch into the Deep Sleep 
 117:Generated_Source\PSoC6\pdl\drivers/peripheral/syspm/cy_syspm.h **** * power mode immediately after the second core calls Cy_SysPm_DeepSleep(). 
 118:Generated_Source\PSoC6\pdl\drivers/peripheral/syspm/cy_syspm.h **** * The device will switch into Deep Sleep mode automatically a little bit later, 
 119:Generated_Source\PSoC6\pdl\drivers/peripheral/syspm/cy_syspm.h **** * after the low-power circuits are ready to switch into Deep Sleep. Refer to 
 120:Generated_Source\PSoC6\pdl\drivers/peripheral/syspm/cy_syspm.h **** * the Cy_SysPm_DeepSleep() description for more details.
 121:Generated_Source\PSoC6\pdl\drivers/peripheral/syspm/cy_syspm.h **** *
 122:Generated_Source\PSoC6\pdl\drivers/peripheral/syspm/cy_syspm.h **** * All pending interrupts should be cleared before the device is put into a 
 123:Generated_Source\PSoC6\pdl\drivers/peripheral/syspm/cy_syspm.h **** * Sleep or Deep Sleep mode, even if they are masked.
 124:Generated_Source\PSoC6\pdl\drivers/peripheral/syspm/cy_syspm.h **** *
 125:Generated_Source\PSoC6\pdl\drivers/peripheral/syspm/cy_syspm.h **** * For single-core devices, SysPm functions that return the status of the 
 126:Generated_Source\PSoC6\pdl\drivers/peripheral/syspm/cy_syspm.h **** * unsupported core always return CY_SYSPM_STATUS_<CORE>_DEEPSLEEP.
 127:Generated_Source\PSoC6\pdl\drivers/peripheral/syspm/cy_syspm.h **** *
 128:Generated_Source\PSoC6\pdl\drivers/peripheral/syspm/cy_syspm.h **** * \subsubsection group_syspm_wakingup_from_sleep_deepsleep Waking Up from Sleep or Deep Sleep
 129:Generated_Source\PSoC6\pdl\drivers/peripheral/syspm/cy_syspm.h **** * For Arm-based devices, an interrupt is required for the core to wake up. 
 130:Generated_Source\PSoC6\pdl\drivers/peripheral/syspm/cy_syspm.h **** * For multi-core devices, one core can wake up the other core by sending the 
 131:Generated_Source\PSoC6\pdl\drivers/peripheral/syspm/cy_syspm.h **** * event instruction. Use the CMSIS function __SEV() to sent event from one core
 132:Generated_Source\PSoC6\pdl\drivers/peripheral/syspm/cy_syspm.h **** * to another.
 133:Generated_Source\PSoC6\pdl\drivers/peripheral/syspm/cy_syspm.h **** *
 134:Generated_Source\PSoC6\pdl\drivers/peripheral/syspm/cy_syspm.h **** * \subsubsection group_syspm_switching_into_hibernate Switching Device to Hibernate
 135:Generated_Source\PSoC6\pdl\drivers/peripheral/syspm/cy_syspm.h **** * If you call Cy_SysPm_Hibernate() from either core, the device will be switched
 136:Generated_Source\PSoC6\pdl\drivers/peripheral/syspm/cy_syspm.h **** * into the Hibernate power mode directly, as there is no 
 137:Generated_Source\PSoC6\pdl\drivers/peripheral/syspm/cy_syspm.h **** * handshake between cores.
ARM GAS  C:\Users\salaz\AppData\Local\Temp\cczs20OJ.s 			page 14


 138:Generated_Source\PSoC6\pdl\drivers/peripheral/syspm/cy_syspm.h **** *
 139:Generated_Source\PSoC6\pdl\drivers/peripheral/syspm/cy_syspm.h **** * \subsubsection group_syspm_wakingup_from_hibernate Waking Up from Hibernate
 140:Generated_Source\PSoC6\pdl\drivers/peripheral/syspm/cy_syspm.h **** *
 141:Generated_Source\PSoC6\pdl\drivers/peripheral/syspm/cy_syspm.h **** * The system can wake up from Hibernate mode by configuring:
 142:Generated_Source\PSoC6\pdl\drivers/peripheral/syspm/cy_syspm.h **** *
 143:Generated_Source\PSoC6\pdl\drivers/peripheral/syspm/cy_syspm.h **** * * Wakeup pin
 144:Generated_Source\PSoC6\pdl\drivers/peripheral/syspm/cy_syspm.h **** *
 145:Generated_Source\PSoC6\pdl\drivers/peripheral/syspm/cy_syspm.h **** * * LP Comparator
 146:Generated_Source\PSoC6\pdl\drivers/peripheral/syspm/cy_syspm.h **** *
 147:Generated_Source\PSoC6\pdl\drivers/peripheral/syspm/cy_syspm.h **** * * RTC alarm
 148:Generated_Source\PSoC6\pdl\drivers/peripheral/syspm/cy_syspm.h **** *
 149:Generated_Source\PSoC6\pdl\drivers/peripheral/syspm/cy_syspm.h **** * * WDT interrupt
 150:Generated_Source\PSoC6\pdl\drivers/peripheral/syspm/cy_syspm.h **** *
 151:Generated_Source\PSoC6\pdl\drivers/peripheral/syspm/cy_syspm.h **** * Wakeup is supported from device specific pin(s) with programmable polarity. 
 152:Generated_Source\PSoC6\pdl\drivers/peripheral/syspm/cy_syspm.h **** * Additionally, unregulated peripherals can wake the device under some 
 153:Generated_Source\PSoC6\pdl\drivers/peripheral/syspm/cy_syspm.h **** * conditions. For example, a low-power comparator can wake the device by 
 154:Generated_Source\PSoC6\pdl\drivers/peripheral/syspm/cy_syspm.h **** * comparing two external voltages but may not support comparison to an 
 155:Generated_Source\PSoC6\pdl\drivers/peripheral/syspm/cy_syspm.h **** * internally-generated voltage. The Backup domain remains functional, and if 
 156:Generated_Source\PSoC6\pdl\drivers/peripheral/syspm/cy_syspm.h **** * present it can schedule an alarm to wake the device from Hibernate using RTC. 
 157:Generated_Source\PSoC6\pdl\drivers/peripheral/syspm/cy_syspm.h **** * Alternatively, the Watchdog Timer (WDT) can be configured to wake-up the 
 158:Generated_Source\PSoC6\pdl\drivers/peripheral/syspm/cy_syspm.h **** * device by WDT interrupt.
 159:Generated_Source\PSoC6\pdl\drivers/peripheral/syspm/cy_syspm.h **** * Refer to \ref Cy_SysPm_SetHibernateWakeupSource() for more details.
 160:Generated_Source\PSoC6\pdl\drivers/peripheral/syspm/cy_syspm.h **** *
 161:Generated_Source\PSoC6\pdl\drivers/peripheral/syspm/cy_syspm.h **** * \subsection group_syspm_managing_core_regulators Managing Core Voltage Regulators
 162:Generated_Source\PSoC6\pdl\drivers/peripheral/syspm/cy_syspm.h **** * The SysPm driver provides functionality to manage the power modes of the 
 163:Generated_Source\PSoC6\pdl\drivers/peripheral/syspm/cy_syspm.h **** * low-dropout (LDO) and Buck Core Voltage Regulators.
 164:Generated_Source\PSoC6\pdl\drivers/peripheral/syspm/cy_syspm.h **** * For both core regulators, two voltages are possible:
 165:Generated_Source\PSoC6\pdl\drivers/peripheral/syspm/cy_syspm.h **** *
 166:Generated_Source\PSoC6\pdl\drivers/peripheral/syspm/cy_syspm.h **** * * <b>0.9 V (nominal)</b> - core is sourced by 0.9 V (nominal). This core regulator 
 167:Generated_Source\PSoC6\pdl\drivers/peripheral/syspm/cy_syspm.h **** *   power mode is called Ultra Low-Power (ULP). In this mode, the device 
 168:Generated_Source\PSoC6\pdl\drivers/peripheral/syspm/cy_syspm.h **** *   functionality and performance is limited. You must decrease the operating 
 169:Generated_Source\PSoC6\pdl\drivers/peripheral/syspm/cy_syspm.h **** *   frequency and current consumption to meet the 
 170:Generated_Source\PSoC6\pdl\drivers/peripheral/syspm/cy_syspm.h **** *   \ref group_syspm_ulp_limitations, shown below.
 171:Generated_Source\PSoC6\pdl\drivers/peripheral/syspm/cy_syspm.h **** * * <b>1.1 V (nominal)</b> - core is sourced by 1.1 V (nominal). This core regulator 
 172:Generated_Source\PSoC6\pdl\drivers/peripheral/syspm/cy_syspm.h **** *   power mode is called low-power mode (LP). In this mode, you must meet the 
 173:Generated_Source\PSoC6\pdl\drivers/peripheral/syspm/cy_syspm.h **** *   \ref group_syspm_lp_limitations, shown below.
 174:Generated_Source\PSoC6\pdl\drivers/peripheral/syspm/cy_syspm.h **** *
 175:Generated_Source\PSoC6\pdl\drivers/peripheral/syspm/cy_syspm.h **** * \subsubsection group_syspm_ulp_limitations ULP Limitations
 176:Generated_Source\PSoC6\pdl\drivers/peripheral/syspm/cy_syspm.h **** * When the core voltage is <b>0.9 V (nominal)</b> the next limitations must be 
 177:Generated_Source\PSoC6\pdl\drivers/peripheral/syspm/cy_syspm.h **** * meet: <br>
 178:Generated_Source\PSoC6\pdl\drivers/peripheral/syspm/cy_syspm.h **** *   - the maximum operating frequency for all Clk_HF paths must not exceed 
 179:Generated_Source\PSoC6\pdl\drivers/peripheral/syspm/cy_syspm.h **** *     <b>50 MHz</b>, whereas the peripheral and slow clock must not exceed <b>25 MHz</b>
 180:Generated_Source\PSoC6\pdl\drivers/peripheral/syspm/cy_syspm.h **** *     (refer to \ref group_sysclk driver documentation).
 181:Generated_Source\PSoC6\pdl\drivers/peripheral/syspm/cy_syspm.h **** *   - the total current consumption must be less than or equal to <b>20 mA</b><br>
 182:Generated_Source\PSoC6\pdl\drivers/peripheral/syspm/cy_syspm.h **** *
 183:Generated_Source\PSoC6\pdl\drivers/peripheral/syspm/cy_syspm.h **** * \subsubsection group_syspm_lp_limitations LP Limitations
 184:Generated_Source\PSoC6\pdl\drivers/peripheral/syspm/cy_syspm.h **** * When the core voltage is <b>1.1V (nominal)</b> the next limitations must be meet:
 185:Generated_Source\PSoC6\pdl\drivers/peripheral/syspm/cy_syspm.h **** *   - the maximum operating frequency for all Clk_HF paths must not exceed 
 186:Generated_Source\PSoC6\pdl\drivers/peripheral/syspm/cy_syspm.h **** *     <b>150 MHz</b>, whereas the peripheral and slow clock must not exceed <b>100 MHz</b>
 187:Generated_Source\PSoC6\pdl\drivers/peripheral/syspm/cy_syspm.h **** *     (refer to \ref group_sysclk driver documentation). <br>
 188:Generated_Source\PSoC6\pdl\drivers/peripheral/syspm/cy_syspm.h **** *   - the total current consumption must be less than or equal to <b>250 mA</b>
 189:Generated_Source\PSoC6\pdl\drivers/peripheral/syspm/cy_syspm.h **** *
 190:Generated_Source\PSoC6\pdl\drivers/peripheral/syspm/cy_syspm.h **** * \subsection group_syspm_managing_pmic Managing PMIC
 191:Generated_Source\PSoC6\pdl\drivers/peripheral/syspm/cy_syspm.h **** *
 192:Generated_Source\PSoC6\pdl\drivers/peripheral/syspm/cy_syspm.h **** * The SysPm driver also provides an API to configure the external power 
 193:Generated_Source\PSoC6\pdl\drivers/peripheral/syspm/cy_syspm.h **** * management integrated circuit (PMIC) that supplies Vddd.
 194:Generated_Source\PSoC6\pdl\drivers/peripheral/syspm/cy_syspm.h **** * Use the API to enable the PMIC output that is routed to pmic_wakeup_out pin, 
ARM GAS  C:\Users\salaz\AppData\Local\Temp\cczs20OJ.s 			page 15


 195:Generated_Source\PSoC6\pdl\drivers/peripheral/syspm/cy_syspm.h **** * and configure the polarity of the PMIC input (pmic_wakeup_in) that is used to 
 196:Generated_Source\PSoC6\pdl\drivers/peripheral/syspm/cy_syspm.h **** * wake up the PMIC.
 197:Generated_Source\PSoC6\pdl\drivers/peripheral/syspm/cy_syspm.h **** *
 198:Generated_Source\PSoC6\pdl\drivers/peripheral/syspm/cy_syspm.h **** * The PMIC is automatically enabled when:
 199:Generated_Source\PSoC6\pdl\drivers/peripheral/syspm/cy_syspm.h **** *
 200:Generated_Source\PSoC6\pdl\drivers/peripheral/syspm/cy_syspm.h **** * * the PMIC is locked by a call to Cy_SysPm_PmicLock()
 201:Generated_Source\PSoC6\pdl\drivers/peripheral/syspm/cy_syspm.h **** *
 202:Generated_Source\PSoC6\pdl\drivers/peripheral/syspm/cy_syspm.h **** * * the configured polarity of the PMIC input and the polarity driven to 
 203:Generated_Source\PSoC6\pdl\drivers/peripheral/syspm/cy_syspm.h **** * pmic_wakeup_in pin matches.
 204:Generated_Source\PSoC6\pdl\drivers/peripheral/syspm/cy_syspm.h **** *
 205:Generated_Source\PSoC6\pdl\drivers/peripheral/syspm/cy_syspm.h **** * Because a call to Cy_SysPm_PmicLock() automatically enables the PMIC, the PMIC
 206:Generated_Source\PSoC6\pdl\drivers/peripheral/syspm/cy_syspm.h **** * can remain disabled only when it is unlocked. See Cy_SysPm_PmicUnlock() 
 207:Generated_Source\PSoC6\pdl\drivers/peripheral/syspm/cy_syspm.h **** * for more details.
 208:Generated_Source\PSoC6\pdl\drivers/peripheral/syspm/cy_syspm.h **** *
 209:Generated_Source\PSoC6\pdl\drivers/peripheral/syspm/cy_syspm.h **** * Use Cy_SysPm_PmicIsLocked() to read the current PMIC lock status.
 210:Generated_Source\PSoC6\pdl\drivers/peripheral/syspm/cy_syspm.h **** * 
 211:Generated_Source\PSoC6\pdl\drivers/peripheral/syspm/cy_syspm.h **** * To enable the PMIC, use these functions in this order:<br>
 212:Generated_Source\PSoC6\pdl\drivers/peripheral/syspm/cy_syspm.h **** * \code{.c}
 213:Generated_Source\PSoC6\pdl\drivers/peripheral/syspm/cy_syspm.h **** * 1 Cy_SysPm_PmicUnlock();
 214:Generated_Source\PSoC6\pdl\drivers/peripheral/syspm/cy_syspm.h **** * 2 Cy_SysPm_PmicEnable();
 215:Generated_Source\PSoC6\pdl\drivers/peripheral/syspm/cy_syspm.h **** * 3 Cy_SysPm_PmicLock();
 216:Generated_Source\PSoC6\pdl\drivers/peripheral/syspm/cy_syspm.h **** * \endcode
 217:Generated_Source\PSoC6\pdl\drivers/peripheral/syspm/cy_syspm.h **** *
 218:Generated_Source\PSoC6\pdl\drivers/peripheral/syspm/cy_syspm.h **** * To disable the PMIC block, unlock the PMIC. Then call Cy_SysPm_PmicDisable() 
 219:Generated_Source\PSoC6\pdl\drivers/peripheral/syspm/cy_syspm.h **** * with the inverted value of the current active state of the pmic_wakeup_in pin. 
 220:Generated_Source\PSoC6\pdl\drivers/peripheral/syspm/cy_syspm.h **** * For example, assume the current state of the pmic_wakeup_in pin is active low.
 221:Generated_Source\PSoC6\pdl\drivers/peripheral/syspm/cy_syspm.h **** * To disable the PMIC, call these functions in this order:<br>
 222:Generated_Source\PSoC6\pdl\drivers/peripheral/syspm/cy_syspm.h **** * \code{.c}
 223:Generated_Source\PSoC6\pdl\drivers/peripheral/syspm/cy_syspm.h **** * 1 Cy_SysPm_PmicUnlock();
 224:Generated_Source\PSoC6\pdl\drivers/peripheral/syspm/cy_syspm.h **** * 2 Cy_SysPm_PmicDisable(CY_SYSPM_PMIC_POLARITY_HIGH);
 225:Generated_Source\PSoC6\pdl\drivers/peripheral/syspm/cy_syspm.h **** * \endcode
 226:Generated_Source\PSoC6\pdl\drivers/peripheral/syspm/cy_syspm.h **** * Note that you do not call Cy_SysPm_PmicLock(), because that automatically 
 227:Generated_Source\PSoC6\pdl\drivers/peripheral/syspm/cy_syspm.h **** * enables the PMIC.
 228:Generated_Source\PSoC6\pdl\drivers/peripheral/syspm/cy_syspm.h **** * 
 229:Generated_Source\PSoC6\pdl\drivers/peripheral/syspm/cy_syspm.h **** * While disabled, the PMIC block is automatically enabled when the 
 230:Generated_Source\PSoC6\pdl\drivers/peripheral/syspm/cy_syspm.h **** * pmic_wakeup_in pin state is changed into high state.
 231:Generated_Source\PSoC6\pdl\drivers/peripheral/syspm/cy_syspm.h **** *
 232:Generated_Source\PSoC6\pdl\drivers/peripheral/syspm/cy_syspm.h **** * To disable the PMIC output, call these functions in this order:
 233:Generated_Source\PSoC6\pdl\drivers/peripheral/syspm/cy_syspm.h **** * Cy_SysPm_PmicUnlock();
 234:Generated_Source\PSoC6\pdl\drivers/peripheral/syspm/cy_syspm.h **** * Cy_SysPm_PmicDisableOutput();
 235:Generated_Source\PSoC6\pdl\drivers/peripheral/syspm/cy_syspm.h **** *
 236:Generated_Source\PSoC6\pdl\drivers/peripheral/syspm/cy_syspm.h **** * Do not call Cy_SysPm_PmicLock() (which automatically enables the PMIC output).
 237:Generated_Source\PSoC6\pdl\drivers/peripheral/syspm/cy_syspm.h **** * 
 238:Generated_Source\PSoC6\pdl\drivers/peripheral/syspm/cy_syspm.h **** * When disabled, the PMIC output is enabled when the PMIC is locked, or by 
 239:Generated_Source\PSoC6\pdl\drivers/peripheral/syspm/cy_syspm.h **** * calling Cy_SysPm_PmicEnableOutput().
 240:Generated_Source\PSoC6\pdl\drivers/peripheral/syspm/cy_syspm.h **** *
 241:Generated_Source\PSoC6\pdl\drivers/peripheral/syspm/cy_syspm.h **** * \subsection group_syspm_managing_backup_domain Managing the Backup Domain
 242:Generated_Source\PSoC6\pdl\drivers/peripheral/syspm/cy_syspm.h **** * The SysPm driver provide functions to:
 243:Generated_Source\PSoC6\pdl\drivers/peripheral/syspm/cy_syspm.h **** *
 244:Generated_Source\PSoC6\pdl\drivers/peripheral/syspm/cy_syspm.h **** * * Configure supercapacitor charge
 245:Generated_Source\PSoC6\pdl\drivers/peripheral/syspm/cy_syspm.h **** *
 246:Generated_Source\PSoC6\pdl\drivers/peripheral/syspm/cy_syspm.h **** * * Select power supply (Vbackup or Vddd) for the Vddbackup
 247:Generated_Source\PSoC6\pdl\drivers/peripheral/syspm/cy_syspm.h **** *
 248:Generated_Source\PSoC6\pdl\drivers/peripheral/syspm/cy_syspm.h **** * * Measure Vddbackup using the ADC
 249:Generated_Source\PSoC6\pdl\drivers/peripheral/syspm/cy_syspm.h **** * 
 250:Generated_Source\PSoC6\pdl\drivers/peripheral/syspm/cy_syspm.h **** * Refer to the \ref group_syspm_functions_backup functions for more details.
 251:Generated_Source\PSoC6\pdl\drivers/peripheral/syspm/cy_syspm.h **** *
ARM GAS  C:\Users\salaz\AppData\Local\Temp\cczs20OJ.s 			page 16


 252:Generated_Source\PSoC6\pdl\drivers/peripheral/syspm/cy_syspm.h **** * \subsection group_syspm_cb SysPm Callbacks
 253:Generated_Source\PSoC6\pdl\drivers/peripheral/syspm/cy_syspm.h **** * The SysPm driver handles the low power callbacks declared in the application. 
 254:Generated_Source\PSoC6\pdl\drivers/peripheral/syspm/cy_syspm.h **** *
 255:Generated_Source\PSoC6\pdl\drivers/peripheral/syspm/cy_syspm.h **** * If there are no callbacks registered, the device just executes the power mode 
 256:Generated_Source\PSoC6\pdl\drivers/peripheral/syspm/cy_syspm.h **** * transition. However, it is often the case that your firmware must prepare for 
 257:Generated_Source\PSoC6\pdl\drivers/peripheral/syspm/cy_syspm.h **** * low power mode. For example, you may need to disable a peripheral, or ensure 
 258:Generated_Source\PSoC6\pdl\drivers/peripheral/syspm/cy_syspm.h **** * that a message is not being transmitted or received.
 259:Generated_Source\PSoC6\pdl\drivers/peripheral/syspm/cy_syspm.h **** *
 260:Generated_Source\PSoC6\pdl\drivers/peripheral/syspm/cy_syspm.h **** * To enable this, the SysPm driver implements a callback mechanism. When a lower
 261:Generated_Source\PSoC6\pdl\drivers/peripheral/syspm/cy_syspm.h **** * power mode transition is about to take place (either entering or exiting 
 262:Generated_Source\PSoC6\pdl\drivers/peripheral/syspm/cy_syspm.h **** * \ref group_syspm_device_power_modes), the registered callbacks are called.
 263:Generated_Source\PSoC6\pdl\drivers/peripheral/syspm/cy_syspm.h **** *
 264:Generated_Source\PSoC6\pdl\drivers/peripheral/syspm/cy_syspm.h **** * The SysPm driver organizes all the callbacks into a linked list. While 
 265:Generated_Source\PSoC6\pdl\drivers/peripheral/syspm/cy_syspm.h **** * entering a low-power mode, SysPm goes through that linked list from first to 
 266:Generated_Source\PSoC6\pdl\drivers/peripheral/syspm/cy_syspm.h **** * last, executing the callbacks one after another. While exiting low-power mode,
 267:Generated_Source\PSoC6\pdl\drivers/peripheral/syspm/cy_syspm.h **** * SysPm goes through that linked list again, but in the opposite direction from 
 268:Generated_Source\PSoC6\pdl\drivers/peripheral/syspm/cy_syspm.h **** * last to first.
 269:Generated_Source\PSoC6\pdl\drivers/peripheral/syspm/cy_syspm.h **** *
 270:Generated_Source\PSoC6\pdl\drivers/peripheral/syspm/cy_syspm.h **** * For example, the picture below shows three callback structures organized into 
 271:Generated_Source\PSoC6\pdl\drivers/peripheral/syspm/cy_syspm.h **** * a linked list: myDeepSleep1, mySleep1, myDeepSleep2 (represented with the 
 272:Generated_Source\PSoC6\pdl\drivers/peripheral/syspm/cy_syspm.h **** * \ref cy_stc_syspm_callback_t configuration structure). Each structure 
 273:Generated_Source\PSoC6\pdl\drivers/peripheral/syspm/cy_syspm.h **** * contains, among other fields, the address of the callback function. The code 
 274:Generated_Source\PSoC6\pdl\drivers/peripheral/syspm/cy_syspm.h **** * snippets below set this up so that myDeepSleep1 is called first when entering 
 275:Generated_Source\PSoC6\pdl\drivers/peripheral/syspm/cy_syspm.h **** * the low-power mode. This also means that myDeepSleep1 will be the last one to 
 276:Generated_Source\PSoC6\pdl\drivers/peripheral/syspm/cy_syspm.h **** * execute when exiting the low-power mode.
 277:Generated_Source\PSoC6\pdl\drivers/peripheral/syspm/cy_syspm.h **** *
 278:Generated_Source\PSoC6\pdl\drivers/peripheral/syspm/cy_syspm.h **** * The callback structures after registration:
 279:Generated_Source\PSoC6\pdl\drivers/peripheral/syspm/cy_syspm.h **** * \image html syspm_2_10_after_registration.png
 280:Generated_Source\PSoC6\pdl\drivers/peripheral/syspm/cy_syspm.h **** *
 281:Generated_Source\PSoC6\pdl\drivers/peripheral/syspm/cy_syspm.h **** * Your application must register each callback, so that SysPm can execute it. 
 282:Generated_Source\PSoC6\pdl\drivers/peripheral/syspm/cy_syspm.h **** * Upon registration, the linked list is built by the SysPm driver. Notice 
 283:Generated_Source\PSoC6\pdl\drivers/peripheral/syspm/cy_syspm.h **** * the &mySleep1 address in the myDeepSleep1 
 284:Generated_Source\PSoC6\pdl\drivers/peripheral/syspm/cy_syspm.h **** * \ref cy_stc_syspm_callback_t structure. This is filled in by the SysPm driver 
 285:Generated_Source\PSoC6\pdl\drivers/peripheral/syspm/cy_syspm.h **** * when you register mySleep1. The order in which the callbacks are registered in
 286:Generated_Source\PSoC6\pdl\drivers/peripheral/syspm/cy_syspm.h **** * the application defines the order of their execution by the SysPm driver. You
 287:Generated_Source\PSoC6\pdl\drivers/peripheral/syspm/cy_syspm.h **** * may have up to 32 callback functions registered. 
 288:Generated_Source\PSoC6\pdl\drivers/peripheral/syspm/cy_syspm.h **** * Call \ref Cy_SysPm_RegisterCallback() to register each callback function. 
 289:Generated_Source\PSoC6\pdl\drivers/peripheral/syspm/cy_syspm.h **** * 
 290:Generated_Source\PSoC6\pdl\drivers/peripheral/syspm/cy_syspm.h **** * A callback function is typically associated with a particular driver that 
 291:Generated_Source\PSoC6\pdl\drivers/peripheral/syspm/cy_syspm.h **** * handles the peripheral. So the callback mechanism enables a peripheral to 
 292:Generated_Source\PSoC6\pdl\drivers/peripheral/syspm/cy_syspm.h **** * prepare for a low-power mode (for instance, shutting down the analog part); 
 293:Generated_Source\PSoC6\pdl\drivers/peripheral/syspm/cy_syspm.h **** * or to perform tasks while exiting a low-power mode (like enabling the analog 
 294:Generated_Source\PSoC6\pdl\drivers/peripheral/syspm/cy_syspm.h **** * part again).
 295:Generated_Source\PSoC6\pdl\drivers/peripheral/syspm/cy_syspm.h **** *
 296:Generated_Source\PSoC6\pdl\drivers/peripheral/syspm/cy_syspm.h **** * With the callback mechanism you can prevent switching into a low-power mode if
 297:Generated_Source\PSoC6\pdl\drivers/peripheral/syspm/cy_syspm.h **** * a peripheral is not ready. For example, driver X is in the process of 
 298:Generated_Source\PSoC6\pdl\drivers/peripheral/syspm/cy_syspm.h **** * receiving a message. In the callback function implementation simply return 
 299:Generated_Source\PSoC6\pdl\drivers/peripheral/syspm/cy_syspm.h **** * CY_SYSPM_FAIL in a response to CY_SYSPM_CHECK_READY.
 300:Generated_Source\PSoC6\pdl\drivers/peripheral/syspm/cy_syspm.h **** *
 301:Generated_Source\PSoC6\pdl\drivers/peripheral/syspm/cy_syspm.h **** * If success is returned while executing a callback, the SysPm driver calls the 
 302:Generated_Source\PSoC6\pdl\drivers/peripheral/syspm/cy_syspm.h **** * next callback and so on to the end of the list. If at some point a callback 
 303:Generated_Source\PSoC6\pdl\drivers/peripheral/syspm/cy_syspm.h **** * returns CY_SYSPM_FAIL in response to the CY_SYSPM_CHECK_READY step, all the 
 304:Generated_Source\PSoC6\pdl\drivers/peripheral/syspm/cy_syspm.h **** * callbacks that have already executed are executed in reverse order, with the 
 305:Generated_Source\PSoC6\pdl\drivers/peripheral/syspm/cy_syspm.h **** * CY_SYSPM_CHECK_FAIL step. This allows each callback to know that entering the 
 306:Generated_Source\PSoC6\pdl\drivers/peripheral/syspm/cy_syspm.h **** * low-power mode has failed. The callback can then undo whatever it did to 
 307:Generated_Source\PSoC6\pdl\drivers/peripheral/syspm/cy_syspm.h **** * prepare for low power mode. For example, if the driver X callback shut down 
 308:Generated_Source\PSoC6\pdl\drivers/peripheral/syspm/cy_syspm.h **** * the analog part, it can re-enable the analog part.
ARM GAS  C:\Users\salaz\AppData\Local\Temp\cczs20OJ.s 			page 17


 309:Generated_Source\PSoC6\pdl\drivers/peripheral/syspm/cy_syspm.h **** * 
 310:Generated_Source\PSoC6\pdl\drivers/peripheral/syspm/cy_syspm.h **** * Let's switch to an example explaining the implementation, setup, and 
 311:Generated_Source\PSoC6\pdl\drivers/peripheral/syspm/cy_syspm.h **** * registration of three callbacks (myDeepSleep1, mySleep1, myDeepSleep2) in the
 312:Generated_Source\PSoC6\pdl\drivers/peripheral/syspm/cy_syspm.h **** * application. The \ref group_syspm_cb_config_consideration are provided after 
 313:Generated_Source\PSoC6\pdl\drivers/peripheral/syspm/cy_syspm.h **** * the \ref group_syspm_cb_example.
 314:Generated_Source\PSoC6\pdl\drivers/peripheral/syspm/cy_syspm.h **** * 
 315:Generated_Source\PSoC6\pdl\drivers/peripheral/syspm/cy_syspm.h **** * \subsection group_syspm_cb_example SysPm Callbacks Example
 316:Generated_Source\PSoC6\pdl\drivers/peripheral/syspm/cy_syspm.h **** *
 317:Generated_Source\PSoC6\pdl\drivers/peripheral/syspm/cy_syspm.h **** * The following code snippets demonstrate how use the SysPm callbacks mechanism.
 318:Generated_Source\PSoC6\pdl\drivers/peripheral/syspm/cy_syspm.h **** * We will build the prototype for an application that registers 
 319:Generated_Source\PSoC6\pdl\drivers/peripheral/syspm/cy_syspm.h **** * three callback functions: <br>
 320:Generated_Source\PSoC6\pdl\drivers/peripheral/syspm/cy_syspm.h **** *    1. mySleep1 - handles Sleep <br>
 321:Generated_Source\PSoC6\pdl\drivers/peripheral/syspm/cy_syspm.h **** *    2. myDeepSleep1 - handles Deep Sleep and is associated with peripheral 
 322:Generated_Source\PSoC6\pdl\drivers/peripheral/syspm/cy_syspm.h **** *       HW1_address (see <a href="..\..\pdl_user_guide.pdf">PDL Design</a> 
 323:Generated_Source\PSoC6\pdl\drivers/peripheral/syspm/cy_syspm.h **** *       section to learn about the base hardware 
 324:Generated_Source\PSoC6\pdl\drivers/peripheral/syspm/cy_syspm.h **** *       address) <br>
 325:Generated_Source\PSoC6\pdl\drivers/peripheral/syspm/cy_syspm.h **** *    3. myDeepSleep2 - handles entering and exiting Deep Sleep and is 
 326:Generated_Source\PSoC6\pdl\drivers/peripheral/syspm/cy_syspm.h **** *       associated with peripheral HW2_address <br>
 327:Generated_Source\PSoC6\pdl\drivers/peripheral/syspm/cy_syspm.h **** *
 328:Generated_Source\PSoC6\pdl\drivers/peripheral/syspm/cy_syspm.h **** * We set things up so that the mySleep1 and myDeepSleep1 callbacks do nothing 
 329:Generated_Source\PSoC6\pdl\drivers/peripheral/syspm/cy_syspm.h **** * while entering the low power mode (skip on CY_SYSPM_SKIP_BEFORE_TRANSITION - 
 330:Generated_Source\PSoC6\pdl\drivers/peripheral/syspm/cy_syspm.h **** * see \ref group_syspm_cb_function_implementation in 
 331:Generated_Source\PSoC6\pdl\drivers/peripheral/syspm/cy_syspm.h **** * \ref group_syspm_cb_config_consideration).
 332:Generated_Source\PSoC6\pdl\drivers/peripheral/syspm/cy_syspm.h **** * Skipping the actions while entering low power might be useful if you need 
 333:Generated_Source\PSoC6\pdl\drivers/peripheral/syspm/cy_syspm.h **** * to save the time while switching low-power modes. This is because the callback
 334:Generated_Source\PSoC6\pdl\drivers/peripheral/syspm/cy_syspm.h **** * function with skipped mode is not even called.
 335:Generated_Source\PSoC6\pdl\drivers/peripheral/syspm/cy_syspm.h **** * 
 336:Generated_Source\PSoC6\pdl\drivers/peripheral/syspm/cy_syspm.h **** * Let's first declare the callback functions. Each gets the pointer to the 
 337:Generated_Source\PSoC6\pdl\drivers/peripheral/syspm/cy_syspm.h **** * \ref cy_stc_syspm_callback_params_t structure as the argument.
 338:Generated_Source\PSoC6\pdl\drivers/peripheral/syspm/cy_syspm.h **** *
 339:Generated_Source\PSoC6\pdl\drivers/peripheral/syspm/cy_syspm.h **** * \snippet syspm/syspm_2_20_sut_01.cydsn/main_cm4.c snippet_Cy_SysPm_Callback_Func_Declaration
 340:Generated_Source\PSoC6\pdl\drivers/peripheral/syspm/cy_syspm.h **** *
 341:Generated_Source\PSoC6\pdl\drivers/peripheral/syspm/cy_syspm.h **** * Now we setup the \ref cy_stc_syspm_callback_params_t structures that we will
 342:Generated_Source\PSoC6\pdl\drivers/peripheral/syspm/cy_syspm.h **** * pass to callback functions. Note that for the myDeepSleep1 and myDeepSleep2 
 343:Generated_Source\PSoC6\pdl\drivers/peripheral/syspm/cy_syspm.h **** * callbacks we also pass the pointers to the peripherals related to that 
 344:Generated_Source\PSoC6\pdl\drivers/peripheral/syspm/cy_syspm.h **** * callback (see <a href="..\..\pdl_user_guide.pdf">PDL Design</a> section to 
 345:Generated_Source\PSoC6\pdl\drivers/peripheral/syspm/cy_syspm.h **** * learn about the base hardware address). 
 346:Generated_Source\PSoC6\pdl\drivers/peripheral/syspm/cy_syspm.h **** * The configuration considerations related to this structure are described 
 347:Generated_Source\PSoC6\pdl\drivers/peripheral/syspm/cy_syspm.h **** * in \ref group_syspm_cb_parameters in \ref group_syspm_cb_config_consideration.
 348:Generated_Source\PSoC6\pdl\drivers/peripheral/syspm/cy_syspm.h **** *
 349:Generated_Source\PSoC6\pdl\drivers/peripheral/syspm/cy_syspm.h **** * \snippet syspm/syspm_2_20_sut_01.cydsn/main_cm4.c snippet_Cy_SysPm_Callback_Params_Declaration
 350:Generated_Source\PSoC6\pdl\drivers/peripheral/syspm/cy_syspm.h **** *
 351:Generated_Source\PSoC6\pdl\drivers/peripheral/syspm/cy_syspm.h **** * Now we setup the actual callback configuration structures. Each of these 
 352:Generated_Source\PSoC6\pdl\drivers/peripheral/syspm/cy_syspm.h **** * contains, among the other fields, the address of the 
 353:Generated_Source\PSoC6\pdl\drivers/peripheral/syspm/cy_syspm.h **** * \ref cy_stc_syspm_callback_params_t we just set up. We will use the callback 
 354:Generated_Source\PSoC6\pdl\drivers/peripheral/syspm/cy_syspm.h **** * configuration structures later in the code to register the callbacks in the 
 355:Generated_Source\PSoC6\pdl\drivers/peripheral/syspm/cy_syspm.h **** * SysPm driver. Again, we set things up so that the mySleep1 and myDeepSleep1 
 356:Generated_Source\PSoC6\pdl\drivers/peripheral/syspm/cy_syspm.h **** * callbacks do nothing while entering the low power mode 
 357:Generated_Source\PSoC6\pdl\drivers/peripheral/syspm/cy_syspm.h **** * (skip on CY_SYSPM_SKIP_BEFORE_TRANSITION) - see 
 358:Generated_Source\PSoC6\pdl\drivers/peripheral/syspm/cy_syspm.h **** * \ref group_syspm_cb_function_implementation in 
 359:Generated_Source\PSoC6\pdl\drivers/peripheral/syspm/cy_syspm.h **** * \ref group_syspm_cb_config_consideration.
 360:Generated_Source\PSoC6\pdl\drivers/peripheral/syspm/cy_syspm.h **** *
 361:Generated_Source\PSoC6\pdl\drivers/peripheral/syspm/cy_syspm.h **** * \snippet syspm/syspm_2_20_sut_01.cydsn/main_cm4.c snippet_Cy_SysPm_Callback_Structure_Declaration
 362:Generated_Source\PSoC6\pdl\drivers/peripheral/syspm/cy_syspm.h **** *
 363:Generated_Source\PSoC6\pdl\drivers/peripheral/syspm/cy_syspm.h **** * Note that in each case the last two fields are NULL. These are fields used by 
 364:Generated_Source\PSoC6\pdl\drivers/peripheral/syspm/cy_syspm.h **** * the SysPm driver to set up the linked list of callback functions.
 365:Generated_Source\PSoC6\pdl\drivers/peripheral/syspm/cy_syspm.h **** * 
ARM GAS  C:\Users\salaz\AppData\Local\Temp\cczs20OJ.s 			page 18


 366:Generated_Source\PSoC6\pdl\drivers/peripheral/syspm/cy_syspm.h **** * The callback structures are now defined and allocated in the user's 
 367:Generated_Source\PSoC6\pdl\drivers/peripheral/syspm/cy_syspm.h **** * memory space:
 368:Generated_Source\PSoC6\pdl\drivers/peripheral/syspm/cy_syspm.h **** * \image html syspm_2_10_before_registration.png
 369:Generated_Source\PSoC6\pdl\drivers/peripheral/syspm/cy_syspm.h **** *
 370:Generated_Source\PSoC6\pdl\drivers/peripheral/syspm/cy_syspm.h **** * Now we implement the callback functions. See 
 371:Generated_Source\PSoC6\pdl\drivers/peripheral/syspm/cy_syspm.h **** * \ref group_syspm_cb_function_implementation in 
 372:Generated_Source\PSoC6\pdl\drivers/peripheral/syspm/cy_syspm.h **** * \ref group_syspm_cb_config_consideration for the instructions on how the 
 373:Generated_Source\PSoC6\pdl\drivers/peripheral/syspm/cy_syspm.h **** * callback functions should be implemented.
 374:Generated_Source\PSoC6\pdl\drivers/peripheral/syspm/cy_syspm.h **** *
 375:Generated_Source\PSoC6\pdl\drivers/peripheral/syspm/cy_syspm.h **** * \snippet syspm/syspm_2_20_sut_01.cydsn/main_cm4.c snippet_Cy_SysPm_Callback_Func_Implementation
 376:Generated_Source\PSoC6\pdl\drivers/peripheral/syspm/cy_syspm.h **** *
 377:Generated_Source\PSoC6\pdl\drivers/peripheral/syspm/cy_syspm.h **** * Finally, we register the callbacks so that the SysPm driver knows about them. 
 378:Generated_Source\PSoC6\pdl\drivers/peripheral/syspm/cy_syspm.h **** * The order in which the callbacks will be called depends upon the order in 
 379:Generated_Source\PSoC6\pdl\drivers/peripheral/syspm/cy_syspm.h **** * which the callbacks are registered. If there are no callbacks registered, 
 380:Generated_Source\PSoC6\pdl\drivers/peripheral/syspm/cy_syspm.h **** * the device just executes the power mode transition.
 381:Generated_Source\PSoC6\pdl\drivers/peripheral/syspm/cy_syspm.h **** *
 382:Generated_Source\PSoC6\pdl\drivers/peripheral/syspm/cy_syspm.h **** * Callbacks that reconfigure global resources, such as clock frequencies, should
 383:Generated_Source\PSoC6\pdl\drivers/peripheral/syspm/cy_syspm.h **** * be registered last. They then modify global resources as the final step before
 384:Generated_Source\PSoC6\pdl\drivers/peripheral/syspm/cy_syspm.h **** * entering the low power mode, and restore those resources first, as the system
 385:Generated_Source\PSoC6\pdl\drivers/peripheral/syspm/cy_syspm.h **** * returns from low-power mode.
 386:Generated_Source\PSoC6\pdl\drivers/peripheral/syspm/cy_syspm.h **** *
 387:Generated_Source\PSoC6\pdl\drivers/peripheral/syspm/cy_syspm.h **** * \snippet syspm/syspm_2_20_sut_01.cydsn/main_cm4.c snippet_Cy_SysPm_RegisterCallback
 388:Generated_Source\PSoC6\pdl\drivers/peripheral/syspm/cy_syspm.h **** *
 389:Generated_Source\PSoC6\pdl\drivers/peripheral/syspm/cy_syspm.h **** * We are done configuring three callbacks. Now the SysPm driver will execute the
 390:Generated_Source\PSoC6\pdl\drivers/peripheral/syspm/cy_syspm.h **** * callbacks appropriately whenever there is a call to a power mode transition 
 391:Generated_Source\PSoC6\pdl\drivers/peripheral/syspm/cy_syspm.h **** * function: \ref Cy_SysPm_Sleep(), \ref Cy_SysPm_DeepSleep(), 
 392:Generated_Source\PSoC6\pdl\drivers/peripheral/syspm/cy_syspm.h **** * \ref Cy_SysPm_EnterLowPowerMode(), \ref Cy_SysPm_ExitLowPowerMode(), and 
 393:Generated_Source\PSoC6\pdl\drivers/peripheral/syspm/cy_syspm.h **** * \ref Cy_SysPm_Hibernate().
 394:Generated_Source\PSoC6\pdl\drivers/peripheral/syspm/cy_syspm.h **** * \note On a wakeup from hibernate the device goes through a reset, so the 
 395:Generated_Source\PSoC6\pdl\drivers/peripheral/syspm/cy_syspm.h **** * callbacks with CY_SYSPM_AFTER_TRANSITION are not executed. Refer to 
 396:Generated_Source\PSoC6\pdl\drivers/peripheral/syspm/cy_syspm.h **** * \ref Cy_SysPm_Hibernate() for more details.
 397:Generated_Source\PSoC6\pdl\drivers/peripheral/syspm/cy_syspm.h **** * 
 398:Generated_Source\PSoC6\pdl\drivers/peripheral/syspm/cy_syspm.h **** * Refer to \ref group_syspm_cb_uregistering in 
 399:Generated_Source\PSoC6\pdl\drivers/peripheral/syspm/cy_syspm.h **** * \ref group_syspm_cb_config_consideration to learn what to do if you need to 
 400:Generated_Source\PSoC6\pdl\drivers/peripheral/syspm/cy_syspm.h **** * remove the callback from the linked list. You might want to unregister the 
 401:Generated_Source\PSoC6\pdl\drivers/peripheral/syspm/cy_syspm.h **** * callback for debug purposes.
 402:Generated_Source\PSoC6\pdl\drivers/peripheral/syspm/cy_syspm.h **** * 
 403:Generated_Source\PSoC6\pdl\drivers/peripheral/syspm/cy_syspm.h **** * Refer to \ref group_syspm_cb_flow in \ref group_syspm_cb_config_consideration 
 404:Generated_Source\PSoC6\pdl\drivers/peripheral/syspm/cy_syspm.h **** * to learn about how the SysPm is processing the callbacks.
 405:Generated_Source\PSoC6\pdl\drivers/peripheral/syspm/cy_syspm.h **** *
 406:Generated_Source\PSoC6\pdl\drivers/peripheral/syspm/cy_syspm.h **** * \subsection group_syspm_cb_config_consideration Callback Configuration Considerations
 407:Generated_Source\PSoC6\pdl\drivers/peripheral/syspm/cy_syspm.h **** *
 408:Generated_Source\PSoC6\pdl\drivers/peripheral/syspm/cy_syspm.h **** * \subsubsection group_syspm_cb_parameters Callback Function Parameters
 409:Generated_Source\PSoC6\pdl\drivers/peripheral/syspm/cy_syspm.h **** * 
 410:Generated_Source\PSoC6\pdl\drivers/peripheral/syspm/cy_syspm.h **** * The <b>callbackParams</b> parameter of the callback function is a 
 411:Generated_Source\PSoC6\pdl\drivers/peripheral/syspm/cy_syspm.h **** * \ref cy_stc_syspm_callback_params_t structure. The first field in this 
 412:Generated_Source\PSoC6\pdl\drivers/peripheral/syspm/cy_syspm.h **** * structure (<b>mode</b>) is for internal use. In the example code we used a 
 413:Generated_Source\PSoC6\pdl\drivers/peripheral/syspm/cy_syspm.h **** * dummy value CY_SYSPM_CHECK_READY to eliminate compilation errors associated 
 414:Generated_Source\PSoC6\pdl\drivers/peripheral/syspm/cy_syspm.h **** * with the enumeration. The driver sets the <b>mode</b> field to the correct 
 415:Generated_Source\PSoC6\pdl\drivers/peripheral/syspm/cy_syspm.h **** * value when calling the callback functions (the mode is referred to as step in 
 416:Generated_Source\PSoC6\pdl\drivers/peripheral/syspm/cy_syspm.h **** * the \ref group_syspm_cb_function_implementation). The callback function reads 
 417:Generated_Source\PSoC6\pdl\drivers/peripheral/syspm/cy_syspm.h **** * the value and acts based on the mode set by the SysPm driver. The <b>base</b> 
 418:Generated_Source\PSoC6\pdl\drivers/peripheral/syspm/cy_syspm.h **** * and <b>context</b> fields are optional and can be NULL. Some drivers require a
 419:Generated_Source\PSoC6\pdl\drivers/peripheral/syspm/cy_syspm.h **** * base hardware address and a context. If your callback routine needs access to 
 420:Generated_Source\PSoC6\pdl\drivers/peripheral/syspm/cy_syspm.h **** * the driver registers or context, provide those values (see 
 421:Generated_Source\PSoC6\pdl\drivers/peripheral/syspm/cy_syspm.h **** * <a href="..\..\pdl_user_guide.pdf">PDL Design</a> section 
 422:Generated_Source\PSoC6\pdl\drivers/peripheral/syspm/cy_syspm.h **** * to learn about Base Hardware Address). Be aware of MISRA warnings if these 
ARM GAS  C:\Users\salaz\AppData\Local\Temp\cczs20OJ.s 			page 19


 423:Generated_Source\PSoC6\pdl\drivers/peripheral/syspm/cy_syspm.h **** * parameters are NULL.
 424:Generated_Source\PSoC6\pdl\drivers/peripheral/syspm/cy_syspm.h **** *
 425:Generated_Source\PSoC6\pdl\drivers/peripheral/syspm/cy_syspm.h **** * \subsubsection group_syspm_cb_structures Callback Function Structure
 426:Generated_Source\PSoC6\pdl\drivers/peripheral/syspm/cy_syspm.h **** * For each callback, provide a \ref cy_stc_syspm_callback_t structure. Some 
 427:Generated_Source\PSoC6\pdl\drivers/peripheral/syspm/cy_syspm.h **** * fields in this structure are maintained by the driver. Use NULL for 
 428:Generated_Source\PSoC6\pdl\drivers/peripheral/syspm/cy_syspm.h **** * <b>prevItm</b> and <b>nextItm</b>. The driver uses these fields to build a 
 429:Generated_Source\PSoC6\pdl\drivers/peripheral/syspm/cy_syspm.h **** * linked list of callback functions.
 430:Generated_Source\PSoC6\pdl\drivers/peripheral/syspm/cy_syspm.h **** *
 431:Generated_Source\PSoC6\pdl\drivers/peripheral/syspm/cy_syspm.h **** * \warning The Cy_SysPm_RegisterCallback() function stores a pointer to the 
 432:Generated_Source\PSoC6\pdl\drivers/peripheral/syspm/cy_syspm.h **** * cy_stc_syspm_callback_t variable. Do not modify elements of the 
 433:Generated_Source\PSoC6\pdl\drivers/peripheral/syspm/cy_syspm.h **** * cy_stc_syspm_callback_t structure after the callback is registered. 
 434:Generated_Source\PSoC6\pdl\drivers/peripheral/syspm/cy_syspm.h **** * You are responsible for ensuring that the variable remains in scope. 
 435:Generated_Source\PSoC6\pdl\drivers/peripheral/syspm/cy_syspm.h **** * Typically the structure is declared as a global or static variable, or as a 
 436:Generated_Source\PSoC6\pdl\drivers/peripheral/syspm/cy_syspm.h **** * local variable in the main() function.
 437:Generated_Source\PSoC6\pdl\drivers/peripheral/syspm/cy_syspm.h **** *
 438:Generated_Source\PSoC6\pdl\drivers/peripheral/syspm/cy_syspm.h **** * \subsubsection group_syspm_cb_function_implementation Callback Function Implementation
 439:Generated_Source\PSoC6\pdl\drivers/peripheral/syspm/cy_syspm.h **** *
 440:Generated_Source\PSoC6\pdl\drivers/peripheral/syspm/cy_syspm.h **** * Every callback function should handle four possible steps (referred to as 
 441:Generated_Source\PSoC6\pdl\drivers/peripheral/syspm/cy_syspm.h **** * "mode") defined in \ref cy_en_syspm_callback_mode_t : <br>
 442:Generated_Source\PSoC6\pdl\drivers/peripheral/syspm/cy_syspm.h **** *    * CY_SYSPM_CHECK_READY - prepare for entering a low power mode<br>
 443:Generated_Source\PSoC6\pdl\drivers/peripheral/syspm/cy_syspm.h **** *    * CY_SYSPM_BEFORE_TRANSITION - The actions to be done before entering 
 444:Generated_Source\PSoC6\pdl\drivers/peripheral/syspm/cy_syspm.h **** *      the low-power mode <br>
 445:Generated_Source\PSoC6\pdl\drivers/peripheral/syspm/cy_syspm.h **** *    * CY_SYSPM_AFTER_TRANSITION - The actions to be done after exiting the 
 446:Generated_Source\PSoC6\pdl\drivers/peripheral/syspm/cy_syspm.h **** *      low-power mode <br>
 447:Generated_Source\PSoC6\pdl\drivers/peripheral/syspm/cy_syspm.h **** *    * CY_SYSPM_CHECK_FAIL - roll back the actions done in the callbacks 
 448:Generated_Source\PSoC6\pdl\drivers/peripheral/syspm/cy_syspm.h **** *      executed previously with CY_SYSPM_CHECK_READY <br>
 449:Generated_Source\PSoC6\pdl\drivers/peripheral/syspm/cy_syspm.h **** *
 450:Generated_Source\PSoC6\pdl\drivers/peripheral/syspm/cy_syspm.h **** * A callback function can skip steps (see \ref group_syspm_skip_callback_modes).
 451:Generated_Source\PSoC6\pdl\drivers/peripheral/syspm/cy_syspm.h **** * In our example mySleep1 and myDeepSleep1 callbacks do nothing while entering 
 452:Generated_Source\PSoC6\pdl\drivers/peripheral/syspm/cy_syspm.h **** * the low power mode (skip on CY_SYSPM_BEFORE_TRANSITION). If there is anything 
 453:Generated_Source\PSoC6\pdl\drivers/peripheral/syspm/cy_syspm.h **** * preventing low power mode entry - return CY_SYSPM_FAIL in response to 
 454:Generated_Source\PSoC6\pdl\drivers/peripheral/syspm/cy_syspm.h **** * CY_SYSPM_CHECK_READY in your callback implementation. Note that the callback 
 455:Generated_Source\PSoC6\pdl\drivers/peripheral/syspm/cy_syspm.h **** * should return CY_SYSPM_FAIL only in response to CY_SYSPM_CHECK_READY. The 
 456:Generated_Source\PSoC6\pdl\drivers/peripheral/syspm/cy_syspm.h **** * callback function should always return CY_SYSPM_PASS for other modes: 
 457:Generated_Source\PSoC6\pdl\drivers/peripheral/syspm/cy_syspm.h **** * CY_SYSPM_CHECK_FAIL, CY_SYSPM_BEFORE_TRANSITION, and CY_SYSPM_AFTER_TRANSITION
 458:Generated_Source\PSoC6\pdl\drivers/peripheral/syspm/cy_syspm.h **** * (see \ref group_syspm_cb_flow).
 459:Generated_Source\PSoC6\pdl\drivers/peripheral/syspm/cy_syspm.h **** * 
 460:Generated_Source\PSoC6\pdl\drivers/peripheral/syspm/cy_syspm.h **** * \subsubsection group_syspm_cb_flow Callbacks Execution Flow
 461:Generated_Source\PSoC6\pdl\drivers/peripheral/syspm/cy_syspm.h **** *
 462:Generated_Source\PSoC6\pdl\drivers/peripheral/syspm/cy_syspm.h **** * This section explains what happens during a power transition, when callbacks 
 463:Generated_Source\PSoC6\pdl\drivers/peripheral/syspm/cy_syspm.h **** * are implemented and set up correctly. The following discussion assumes: <br>
 464:Generated_Source\PSoC6\pdl\drivers/peripheral/syspm/cy_syspm.h **** * * All required callback functions are defined and implemented <br>
 465:Generated_Source\PSoC6\pdl\drivers/peripheral/syspm/cy_syspm.h **** * * All cy_stc_syspm_callback_t structures are filled with required values <br>
 466:Generated_Source\PSoC6\pdl\drivers/peripheral/syspm/cy_syspm.h **** * * All callbacks are successfully registered 
 467:Generated_Source\PSoC6\pdl\drivers/peripheral/syspm/cy_syspm.h **** *
 468:Generated_Source\PSoC6\pdl\drivers/peripheral/syspm/cy_syspm.h **** * User calls one of the power mode transition functions: \ref Cy_SysPm_Sleep(), 
 469:Generated_Source\PSoC6\pdl\drivers/peripheral/syspm/cy_syspm.h **** * \ref Cy_SysPm_DeepSleep(), \ref Cy_SysPm_EnterLowPowerMode(), 
 470:Generated_Source\PSoC6\pdl\drivers/peripheral/syspm/cy_syspm.h **** * \ref Cy_SysPm_ExitLowPowerMode(), and \ref Cy_SysPm_Hibernate(). 
 471:Generated_Source\PSoC6\pdl\drivers/peripheral/syspm/cy_syspm.h **** * It calls each callback with the mode set to CY_SYSPM_CHECK_READY. This 
 472:Generated_Source\PSoC6\pdl\drivers/peripheral/syspm/cy_syspm.h **** * triggers execution of the code for that step inside of each user callback.
 473:Generated_Source\PSoC6\pdl\drivers/peripheral/syspm/cy_syspm.h **** * 
 474:Generated_Source\PSoC6\pdl\drivers/peripheral/syspm/cy_syspm.h **** * If that process is successful for all callbacks, then 
 475:Generated_Source\PSoC6\pdl\drivers/peripheral/syspm/cy_syspm.h **** * \ref Cy_SysPm_ExecuteCallback() calls each callback with the mode set to 
 476:Generated_Source\PSoC6\pdl\drivers/peripheral/syspm/cy_syspm.h **** * CY_SYSPM_BEFORE_TRANSITION. This triggers execution of the code for that step 
 477:Generated_Source\PSoC6\pdl\drivers/peripheral/syspm/cy_syspm.h **** * inside each user callback. We then enter the low power mode.
 478:Generated_Source\PSoC6\pdl\drivers/peripheral/syspm/cy_syspm.h **** * 
 479:Generated_Source\PSoC6\pdl\drivers/peripheral/syspm/cy_syspm.h **** * When exiting the low power mode, the SysPm driver executes 
ARM GAS  C:\Users\salaz\AppData\Local\Temp\cczs20OJ.s 			page 20


 480:Generated_Source\PSoC6\pdl\drivers/peripheral/syspm/cy_syspm.h **** * \ref Cy_SysPm_ExecuteCallback() again. This time it calls each callback in 
 481:Generated_Source\PSoC6\pdl\drivers/peripheral/syspm/cy_syspm.h **** * reverse order, with the mode set to CY_SYSPM_AFTER_TRANSITION. This triggers 
 482:Generated_Source\PSoC6\pdl\drivers/peripheral/syspm/cy_syspm.h **** * execution of the code for that step inside each user callback. When complete, 
 483:Generated_Source\PSoC6\pdl\drivers/peripheral/syspm/cy_syspm.h **** * we are back to Active state.
 484:Generated_Source\PSoC6\pdl\drivers/peripheral/syspm/cy_syspm.h **** * 
 485:Generated_Source\PSoC6\pdl\drivers/peripheral/syspm/cy_syspm.h **** * A callback can return CY_SYSPM_FAIL only while executing the 
 486:Generated_Source\PSoC6\pdl\drivers/peripheral/syspm/cy_syspm.h **** * CY_SYSPM_CHECK_READY step. If that happens, then the remaining callbacks are 
 487:Generated_Source\PSoC6\pdl\drivers/peripheral/syspm/cy_syspm.h **** * not executed. Any callbacks that have already executed are called again, in 
 488:Generated_Source\PSoC6\pdl\drivers/peripheral/syspm/cy_syspm.h **** * reverse order, with CY_SYSPM_CHECK_FAIL. This allows the system to return to 
 489:Generated_Source\PSoC6\pdl\drivers/peripheral/syspm/cy_syspm.h **** * the previous state. Then any of the functions (\ref Cy_SysPm_Sleep(), 
 490:Generated_Source\PSoC6\pdl\drivers/peripheral/syspm/cy_syspm.h **** * \ref Cy_SysPm_DeepSleep(), \ref Cy_SysPm_EnterLowPowerMode(), 
 491:Generated_Source\PSoC6\pdl\drivers/peripheral/syspm/cy_syspm.h **** * \ref Cy_SysPm_ExitLowPowerMode(), and \ref Cy_SysPm_Hibernate()) that 
 492:Generated_Source\PSoC6\pdl\drivers/peripheral/syspm/cy_syspm.h **** * attempted to switch the device into a low power mode will 
 493:Generated_Source\PSoC6\pdl\drivers/peripheral/syspm/cy_syspm.h **** * return CY_SYSPM_FAIL.
 494:Generated_Source\PSoC6\pdl\drivers/peripheral/syspm/cy_syspm.h **** *
 495:Generated_Source\PSoC6\pdl\drivers/peripheral/syspm/cy_syspm.h **** * Callbacks that reconfigure global resources, such as clock frequencies, 
 496:Generated_Source\PSoC6\pdl\drivers/peripheral/syspm/cy_syspm.h **** * should be registered last. They then modify global resources as the final 
 497:Generated_Source\PSoC6\pdl\drivers/peripheral/syspm/cy_syspm.h **** * step before entering the low power mode, and restore those resources first, 
 498:Generated_Source\PSoC6\pdl\drivers/peripheral/syspm/cy_syspm.h **** * as the system returns from Low-power mode.
 499:Generated_Source\PSoC6\pdl\drivers/peripheral/syspm/cy_syspm.h **** *
 500:Generated_Source\PSoC6\pdl\drivers/peripheral/syspm/cy_syspm.h **** * \subsubsection group_syspm_cb_uregistering Callback Unregistering
 501:Generated_Source\PSoC6\pdl\drivers/peripheral/syspm/cy_syspm.h **** *
 502:Generated_Source\PSoC6\pdl\drivers/peripheral/syspm/cy_syspm.h **** * Unregistering the callback might be useful when you need dynamically manage
 503:Generated_Source\PSoC6\pdl\drivers/peripheral/syspm/cy_syspm.h **** * the callbacks.
 504:Generated_Source\PSoC6\pdl\drivers/peripheral/syspm/cy_syspm.h **** *
 505:Generated_Source\PSoC6\pdl\drivers/peripheral/syspm/cy_syspm.h **** * \snippet syspm/syspm_2_20_sut_01.cydsn/main_cm4.c snippet_Cy_SysPm_UnregisterCallback
 506:Generated_Source\PSoC6\pdl\drivers/peripheral/syspm/cy_syspm.h **** * The callback structures after mySleep1 callback is unregistered:
 507:Generated_Source\PSoC6\pdl\drivers/peripheral/syspm/cy_syspm.h **** * \image html syspm_2_10_unregistration.png
 508:Generated_Source\PSoC6\pdl\drivers/peripheral/syspm/cy_syspm.h **** *
 509:Generated_Source\PSoC6\pdl\drivers/peripheral/syspm/cy_syspm.h **** * \section group_syspm_definitions Definitions
 510:Generated_Source\PSoC6\pdl\drivers/peripheral/syspm/cy_syspm.h **** *
 511:Generated_Source\PSoC6\pdl\drivers/peripheral/syspm/cy_syspm.h **** * <table class="doxtable">
 512:Generated_Source\PSoC6\pdl\drivers/peripheral/syspm/cy_syspm.h **** *   <tr>
 513:Generated_Source\PSoC6\pdl\drivers/peripheral/syspm/cy_syspm.h **** *     <th>Term</th>
 514:Generated_Source\PSoC6\pdl\drivers/peripheral/syspm/cy_syspm.h **** *     <th>Definition</th>
 515:Generated_Source\PSoC6\pdl\drivers/peripheral/syspm/cy_syspm.h **** *   </tr>
 516:Generated_Source\PSoC6\pdl\drivers/peripheral/syspm/cy_syspm.h **** *
 517:Generated_Source\PSoC6\pdl\drivers/peripheral/syspm/cy_syspm.h **** *   <tr>
 518:Generated_Source\PSoC6\pdl\drivers/peripheral/syspm/cy_syspm.h **** *     <td>LDO</td>
 519:Generated_Source\PSoC6\pdl\drivers/peripheral/syspm/cy_syspm.h **** *     <td>Low Dropout Linear Regulator (LDO). The functions that manage this 
 520:Generated_Source\PSoC6\pdl\drivers/peripheral/syspm/cy_syspm.h **** *         block are grouped as \ref group_syspm_functions_ldo under 
 521:Generated_Source\PSoC6\pdl\drivers/peripheral/syspm/cy_syspm.h **** *         \ref group_syspm_functions_core_regulators</td>
 522:Generated_Source\PSoC6\pdl\drivers/peripheral/syspm/cy_syspm.h **** *   </tr>
 523:Generated_Source\PSoC6\pdl\drivers/peripheral/syspm/cy_syspm.h **** *
 524:Generated_Source\PSoC6\pdl\drivers/peripheral/syspm/cy_syspm.h **** *   <tr>
 525:Generated_Source\PSoC6\pdl\drivers/peripheral/syspm/cy_syspm.h **** *     <td>SIMO Buck</td>
 526:Generated_Source\PSoC6\pdl\drivers/peripheral/syspm/cy_syspm.h **** *     <td>Single Inductor Multiple Output Buck Regulator, referred as 
 527:Generated_Source\PSoC6\pdl\drivers/peripheral/syspm/cy_syspm.h **** *         "Buck regulator" throughout the documentation. The functions that 
 528:Generated_Source\PSoC6\pdl\drivers/peripheral/syspm/cy_syspm.h **** *         manage this block are grouped as \ref group_syspm_functions_buck under
 529:Generated_Source\PSoC6\pdl\drivers/peripheral/syspm/cy_syspm.h **** *         \ref group_syspm_functions_core_regulators</td>
 530:Generated_Source\PSoC6\pdl\drivers/peripheral/syspm/cy_syspm.h **** *   </tr>
 531:Generated_Source\PSoC6\pdl\drivers/peripheral/syspm/cy_syspm.h **** *
 532:Generated_Source\PSoC6\pdl\drivers/peripheral/syspm/cy_syspm.h **** *   <tr>
 533:Generated_Source\PSoC6\pdl\drivers/peripheral/syspm/cy_syspm.h **** *     <td>PMIC</td>
 534:Generated_Source\PSoC6\pdl\drivers/peripheral/syspm/cy_syspm.h **** *     <td>Power Management Integrated Circuit. The functions that manage this 
 535:Generated_Source\PSoC6\pdl\drivers/peripheral/syspm/cy_syspm.h **** *         block are grouped as \ref group_syspm_functions_pmic</td>
 536:Generated_Source\PSoC6\pdl\drivers/peripheral/syspm/cy_syspm.h **** *   </tr>
ARM GAS  C:\Users\salaz\AppData\Local\Temp\cczs20OJ.s 			page 21


 537:Generated_Source\PSoC6\pdl\drivers/peripheral/syspm/cy_syspm.h **** *
 538:Generated_Source\PSoC6\pdl\drivers/peripheral/syspm/cy_syspm.h **** *   <tr>
 539:Generated_Source\PSoC6\pdl\drivers/peripheral/syspm/cy_syspm.h **** *     <td>LPActive</td>
 540:Generated_Source\PSoC6\pdl\drivers/peripheral/syspm/cy_syspm.h **** *     <td>Low-Power Active mode. The MCU power mode. 
 541:Generated_Source\PSoC6\pdl\drivers/peripheral/syspm/cy_syspm.h **** *         See the \ref group_syspm_switching_into_lpactive 
 542:Generated_Source\PSoC6\pdl\drivers/peripheral/syspm/cy_syspm.h **** *         section for details</td>
 543:Generated_Source\PSoC6\pdl\drivers/peripheral/syspm/cy_syspm.h **** *   </tr>
 544:Generated_Source\PSoC6\pdl\drivers/peripheral/syspm/cy_syspm.h **** * </table>
 545:Generated_Source\PSoC6\pdl\drivers/peripheral/syspm/cy_syspm.h **** *
 546:Generated_Source\PSoC6\pdl\drivers/peripheral/syspm/cy_syspm.h **** * \section group_syspm_section_more_information More Information
 547:Generated_Source\PSoC6\pdl\drivers/peripheral/syspm/cy_syspm.h **** * For more information on the Power Management (SysPm) driver,
 548:Generated_Source\PSoC6\pdl\drivers/peripheral/syspm/cy_syspm.h **** * refer to the technical reference manual (TRM).
 549:Generated_Source\PSoC6\pdl\drivers/peripheral/syspm/cy_syspm.h **** *
 550:Generated_Source\PSoC6\pdl\drivers/peripheral/syspm/cy_syspm.h **** * \section group_syspm_MISRA MISRA-C Compliance
 551:Generated_Source\PSoC6\pdl\drivers/peripheral/syspm/cy_syspm.h **** * The SysPm driver does not have any specific deviations.
 552:Generated_Source\PSoC6\pdl\drivers/peripheral/syspm/cy_syspm.h **** *
 553:Generated_Source\PSoC6\pdl\drivers/peripheral/syspm/cy_syspm.h **** * \section group_syspm_changelog Changelog
 554:Generated_Source\PSoC6\pdl\drivers/peripheral/syspm/cy_syspm.h **** * <table class="doxtable">
 555:Generated_Source\PSoC6\pdl\drivers/peripheral/syspm/cy_syspm.h **** *   <tr><th>Version</th><th>Changes</th><th>Reason for Change</th></tr>
 556:Generated_Source\PSoC6\pdl\drivers/peripheral/syspm/cy_syspm.h **** *   <tr>
 557:Generated_Source\PSoC6\pdl\drivers/peripheral/syspm/cy_syspm.h **** *     <td>2.21</td>
 558:Generated_Source\PSoC6\pdl\drivers/peripheral/syspm/cy_syspm.h **** *     <td>Removed saving/restoring the SysClk measurement counters while 
 559:Generated_Source\PSoC6\pdl\drivers/peripheral/syspm/cy_syspm.h **** *         in Deep Sleep routine
 560:Generated_Source\PSoC6\pdl\drivers/peripheral/syspm/cy_syspm.h **** *     </td>
 561:Generated_Source\PSoC6\pdl\drivers/peripheral/syspm/cy_syspm.h **** *     <td>Removed possible corruption of SysClk measurement counters if the 
 562:Generated_Source\PSoC6\pdl\drivers/peripheral/syspm/cy_syspm.h **** *         core wakes up from the Deep Sleep
 563:Generated_Source\PSoC6\pdl\drivers/peripheral/syspm/cy_syspm.h **** *     </td>
 564:Generated_Source\PSoC6\pdl\drivers/peripheral/syspm/cy_syspm.h **** *   </tr>
 565:Generated_Source\PSoC6\pdl\drivers/peripheral/syspm/cy_syspm.h **** *   <tr>
 566:Generated_Source\PSoC6\pdl\drivers/peripheral/syspm/cy_syspm.h **** *     <td>2.20</td>
 567:Generated_Source\PSoC6\pdl\drivers/peripheral/syspm/cy_syspm.h **** *     <td> <br>
 568:Generated_Source\PSoC6\pdl\drivers/peripheral/syspm/cy_syspm.h **** *          * Added support for changing core voltage when the protection context
 569:Generated_Source\PSoC6\pdl\drivers/peripheral/syspm/cy_syspm.h **** *            is other that zero. Such support is available only for devices 
 570:Generated_Source\PSoC6\pdl\drivers/peripheral/syspm/cy_syspm.h **** *            that support modifying registers via syscall
 571:Generated_Source\PSoC6\pdl\drivers/peripheral/syspm/cy_syspm.h **** *
 572:Generated_Source\PSoC6\pdl\drivers/peripheral/syspm/cy_syspm.h **** *          * For preproduction PSoC 6 devices the changing core voltage
 573:Generated_Source\PSoC6\pdl\drivers/peripheral/syspm/cy_syspm.h **** *            is prohibited when the protection context is other than zero.
 574:Generated_Source\PSoC6\pdl\drivers/peripheral/syspm/cy_syspm.h **** *
 575:Generated_Source\PSoC6\pdl\drivers/peripheral/syspm/cy_syspm.h **** *          * Updated the following functions. They now have a 
 576:Generated_Source\PSoC6\pdl\drivers/peripheral/syspm/cy_syspm.h **** *            \ref cy_en_syspm_status_t return value and use a syscall: <br>
 577:Generated_Source\PSoC6\pdl\drivers/peripheral/syspm/cy_syspm.h **** *            Cy_SysPm_LdoSetVoltage <br>
 578:Generated_Source\PSoC6\pdl\drivers/peripheral/syspm/cy_syspm.h **** *            Cy_SysPm_BuckSetVoltage1 <br>
 579:Generated_Source\PSoC6\pdl\drivers/peripheral/syspm/cy_syspm.h **** *            Cy_SysPm_BuckEnable <br>
 580:Generated_Source\PSoC6\pdl\drivers/peripheral/syspm/cy_syspm.h **** *            No backward compatibility issues
 581:Generated_Source\PSoC6\pdl\drivers/peripheral/syspm/cy_syspm.h **** *
 582:Generated_Source\PSoC6\pdl\drivers/peripheral/syspm/cy_syspm.h **** *          * Added new CY_SYSPM_CANCELED element in 
 583:Generated_Source\PSoC6\pdl\drivers/peripheral/syspm/cy_syspm.h **** *            the \ref cy_en_syspm_status_t
 584:Generated_Source\PSoC6\pdl\drivers/peripheral/syspm/cy_syspm.h **** *
 585:Generated_Source\PSoC6\pdl\drivers/peripheral/syspm/cy_syspm.h **** *          * Documentation updates
 586:Generated_Source\PSoC6\pdl\drivers/peripheral/syspm/cy_syspm.h **** *
 587:Generated_Source\PSoC6\pdl\drivers/peripheral/syspm/cy_syspm.h **** *          * Added warning that
 588:Generated_Source\PSoC6\pdl\drivers/peripheral/syspm/cy_syspm.h **** *            Cy_SysPm_PmicDisable(CY_SYSPM_PMIC_POLARITY_LOW) is not 
 589:Generated_Source\PSoC6\pdl\drivers/peripheral/syspm/cy_syspm.h **** *            supported by hardware
 590:Generated_Source\PSoC6\pdl\drivers/peripheral/syspm/cy_syspm.h **** *     </td>
 591:Generated_Source\PSoC6\pdl\drivers/peripheral/syspm/cy_syspm.h **** *     <td>Added support for changing the core voltage in protection context 
 592:Generated_Source\PSoC6\pdl\drivers/peripheral/syspm/cy_syspm.h **** *         higher that zero (PC > 0) <br>
 593:Generated_Source\PSoC6\pdl\drivers/peripheral/syspm/cy_syspm.h **** *         Documentation update and clarification
ARM GAS  C:\Users\salaz\AppData\Local\Temp\cczs20OJ.s 			page 22


 594:Generated_Source\PSoC6\pdl\drivers/peripheral/syspm/cy_syspm.h **** *     </td>
 595:Generated_Source\PSoC6\pdl\drivers/peripheral/syspm/cy_syspm.h **** *   </tr>
 596:Generated_Source\PSoC6\pdl\drivers/peripheral/syspm/cy_syspm.h **** *   <tr>
 597:Generated_Source\PSoC6\pdl\drivers/peripheral/syspm/cy_syspm.h **** *     <td>2.10</td>
 598:Generated_Source\PSoC6\pdl\drivers/peripheral/syspm/cy_syspm.h **** *     <td> <br>
 599:Generated_Source\PSoC6\pdl\drivers/peripheral/syspm/cy_syspm.h **** *          * Changed names for all Backup, Buck-related functions, defines, 
 600:Generated_Source\PSoC6\pdl\drivers/peripheral/syspm/cy_syspm.h **** *            and enums <br>
 601:Generated_Source\PSoC6\pdl\drivers/peripheral/syspm/cy_syspm.h **** *          * Changed next power mode function names: <br>
 602:Generated_Source\PSoC6\pdl\drivers/peripheral/syspm/cy_syspm.h **** *            Cy_SysPm_EnterLpMode <br>
 603:Generated_Source\PSoC6\pdl\drivers/peripheral/syspm/cy_syspm.h **** *            Cy_SysPm_ExitLpMode <br>
 604:Generated_Source\PSoC6\pdl\drivers/peripheral/syspm/cy_syspm.h **** *            Cy_SysPm_SetHibWakeupSource <br>
 605:Generated_Source\PSoC6\pdl\drivers/peripheral/syspm/cy_syspm.h **** *            Cy_SysPm_ClearHibWakeupSource <br>
 606:Generated_Source\PSoC6\pdl\drivers/peripheral/syspm/cy_syspm.h **** *            Cy_SysPm_GetIoFreezeStatus <br>
 607:Generated_Source\PSoC6\pdl\drivers/peripheral/syspm/cy_syspm.h **** *          * Changed following enumeration names: <br>
 608:Generated_Source\PSoC6\pdl\drivers/peripheral/syspm/cy_syspm.h **** *            cy_en_syspm_hib_wakeup_source_t <br>
 609:Generated_Source\PSoC6\pdl\drivers/peripheral/syspm/cy_syspm.h **** *            cy_en_syspm_simo_buck_voltage1_t <br>
 610:Generated_Source\PSoC6\pdl\drivers/peripheral/syspm/cy_syspm.h **** *            cy_en_syspm_simo_buck_voltage2_t <br>
 611:Generated_Source\PSoC6\pdl\drivers/peripheral/syspm/cy_syspm.h **** *          * Updated Power Modes documentation section <br>
 612:Generated_Source\PSoC6\pdl\drivers/peripheral/syspm/cy_syspm.h **** *          * Added Low Power Callback Managements section <br>
 613:Generated_Source\PSoC6\pdl\drivers/peripheral/syspm/cy_syspm.h **** *          * Documentation edits 
 614:Generated_Source\PSoC6\pdl\drivers/peripheral/syspm/cy_syspm.h **** *     </td>
 615:Generated_Source\PSoC6\pdl\drivers/peripheral/syspm/cy_syspm.h **** *     <td>Improvements made based on usability feedback <br>
 616:Generated_Source\PSoC6\pdl\drivers/peripheral/syspm/cy_syspm.h **** *         Documentation update and clarification
 617:Generated_Source\PSoC6\pdl\drivers/peripheral/syspm/cy_syspm.h **** *     </td>
 618:Generated_Source\PSoC6\pdl\drivers/peripheral/syspm/cy_syspm.h **** *   </tr>
 619:Generated_Source\PSoC6\pdl\drivers/peripheral/syspm/cy_syspm.h **** *   <tr>
 620:Generated_Source\PSoC6\pdl\drivers/peripheral/syspm/cy_syspm.h **** *     <td>2.0</td>
 621:Generated_Source\PSoC6\pdl\drivers/peripheral/syspm/cy_syspm.h **** *     <td>Enhancement and defect fixes: <br> 
 622:Generated_Source\PSoC6\pdl\drivers/peripheral/syspm/cy_syspm.h **** *         * Added input parameter(s) validation to all public functions <br>
 623:Generated_Source\PSoC6\pdl\drivers/peripheral/syspm/cy_syspm.h **** *         * Removed "_SysPm_" prefixes from the internal functions names <br>
 624:Generated_Source\PSoC6\pdl\drivers/peripheral/syspm/cy_syspm.h **** *         * Changed the type of elements with limited set of values, from 
 625:Generated_Source\PSoC6\pdl\drivers/peripheral/syspm/cy_syspm.h **** *           uint32_t to enumeration
 626:Generated_Source\PSoC6\pdl\drivers/peripheral/syspm/cy_syspm.h **** *         * Enhanced syspm callback mechanism
 627:Generated_Source\PSoC6\pdl\drivers/peripheral/syspm/cy_syspm.h **** *         * Added functions to control: <br>
 628:Generated_Source\PSoC6\pdl\drivers/peripheral/syspm/cy_syspm.h **** *           * Power supply for the Vddbackup <br>
 629:Generated_Source\PSoC6\pdl\drivers/peripheral/syspm/cy_syspm.h **** *           * Supercapacitor charge <br>
 630:Generated_Source\PSoC6\pdl\drivers/peripheral/syspm/cy_syspm.h **** *           * Vddbackup measurement by ADC <br>
 631:Generated_Source\PSoC6\pdl\drivers/peripheral/syspm/cy_syspm.h **** *     </td>
 632:Generated_Source\PSoC6\pdl\drivers/peripheral/syspm/cy_syspm.h **** *     <td></td>
 633:Generated_Source\PSoC6\pdl\drivers/peripheral/syspm/cy_syspm.h **** *   </tr>
 634:Generated_Source\PSoC6\pdl\drivers/peripheral/syspm/cy_syspm.h **** *   <tr>
 635:Generated_Source\PSoC6\pdl\drivers/peripheral/syspm/cy_syspm.h **** *     <td>1.0</td>
 636:Generated_Source\PSoC6\pdl\drivers/peripheral/syspm/cy_syspm.h **** *     <td>Initial version</td>
 637:Generated_Source\PSoC6\pdl\drivers/peripheral/syspm/cy_syspm.h **** *     <td></td>
 638:Generated_Source\PSoC6\pdl\drivers/peripheral/syspm/cy_syspm.h **** *   </tr>
 639:Generated_Source\PSoC6\pdl\drivers/peripheral/syspm/cy_syspm.h **** * </table>
 640:Generated_Source\PSoC6\pdl\drivers/peripheral/syspm/cy_syspm.h **** *
 641:Generated_Source\PSoC6\pdl\drivers/peripheral/syspm/cy_syspm.h **** * \defgroup group_syspm_macros Macros
 642:Generated_Source\PSoC6\pdl\drivers/peripheral/syspm/cy_syspm.h **** * \defgroup group_syspm_functions Functions
 643:Generated_Source\PSoC6\pdl\drivers/peripheral/syspm/cy_syspm.h **** * \{
 644:Generated_Source\PSoC6\pdl\drivers/peripheral/syspm/cy_syspm.h **** *   \defgroup group_syspm_functions_power          Power Modes
 645:Generated_Source\PSoC6\pdl\drivers/peripheral/syspm/cy_syspm.h **** *   \defgroup group_syspm_functions_power_status   Power Status 
 646:Generated_Source\PSoC6\pdl\drivers/peripheral/syspm/cy_syspm.h **** *   \defgroup group_syspm_functions_iofreeze       I/Os Freeze
 647:Generated_Source\PSoC6\pdl\drivers/peripheral/syspm/cy_syspm.h **** *   \defgroup group_syspm_functions_core_regulators    Core Voltage Regulation 
 648:Generated_Source\PSoC6\pdl\drivers/peripheral/syspm/cy_syspm.h **** *   \{
 649:Generated_Source\PSoC6\pdl\drivers/peripheral/syspm/cy_syspm.h **** *     \defgroup group_syspm_functions_ldo      LDO
 650:Generated_Source\PSoC6\pdl\drivers/peripheral/syspm/cy_syspm.h **** *     \defgroup group_syspm_functions_buck     Buck
ARM GAS  C:\Users\salaz\AppData\Local\Temp\cczs20OJ.s 			page 23


 651:Generated_Source\PSoC6\pdl\drivers/peripheral/syspm/cy_syspm.h **** *   \}
 652:Generated_Source\PSoC6\pdl\drivers/peripheral/syspm/cy_syspm.h **** *   \defgroup group_syspm_functions_pmic       PMIC
 653:Generated_Source\PSoC6\pdl\drivers/peripheral/syspm/cy_syspm.h **** *   \defgroup group_syspm_functions_backup     Backup Domain
 654:Generated_Source\PSoC6\pdl\drivers/peripheral/syspm/cy_syspm.h **** *   \defgroup group_syspm_functions_callback   Low Power Callbacks
 655:Generated_Source\PSoC6\pdl\drivers/peripheral/syspm/cy_syspm.h **** * \}
 656:Generated_Source\PSoC6\pdl\drivers/peripheral/syspm/cy_syspm.h **** * \defgroup group_syspm_data_structures Data Structures
 657:Generated_Source\PSoC6\pdl\drivers/peripheral/syspm/cy_syspm.h **** * \defgroup group_syspm_data_enumerates Enumerated Types
 658:Generated_Source\PSoC6\pdl\drivers/peripheral/syspm/cy_syspm.h **** */
 659:Generated_Source\PSoC6\pdl\drivers/peripheral/syspm/cy_syspm.h **** 
 660:Generated_Source\PSoC6\pdl\drivers/peripheral/syspm/cy_syspm.h **** #if !defined (CY_SYSPM_H)
 661:Generated_Source\PSoC6\pdl\drivers/peripheral/syspm/cy_syspm.h **** #define CY_SYSPM_H
 662:Generated_Source\PSoC6\pdl\drivers/peripheral/syspm/cy_syspm.h **** 
 663:Generated_Source\PSoC6\pdl\drivers/peripheral/syspm/cy_syspm.h **** #include <stdbool.h>
 664:Generated_Source\PSoC6\pdl\drivers/peripheral/syspm/cy_syspm.h **** #include <stddef.h>
 665:Generated_Source\PSoC6\pdl\drivers/peripheral/syspm/cy_syspm.h **** #include "cy_device_headers.h"
 666:Generated_Source\PSoC6\pdl\drivers/peripheral/syspm/cy_syspm.h **** #include "syslib/cy_syslib.h"
 667:Generated_Source\PSoC6\pdl\drivers/peripheral/syspm/cy_syspm.h **** 
 668:Generated_Source\PSoC6\pdl\drivers/peripheral/syspm/cy_syspm.h **** #ifdef __cplusplus
 669:Generated_Source\PSoC6\pdl\drivers/peripheral/syspm/cy_syspm.h **** extern "C" {
 670:Generated_Source\PSoC6\pdl\drivers/peripheral/syspm/cy_syspm.h **** #endif
 671:Generated_Source\PSoC6\pdl\drivers/peripheral/syspm/cy_syspm.h **** 
 672:Generated_Source\PSoC6\pdl\drivers/peripheral/syspm/cy_syspm.h **** /*******************************************************************************
 673:Generated_Source\PSoC6\pdl\drivers/peripheral/syspm/cy_syspm.h **** *       Register Constants
 674:Generated_Source\PSoC6\pdl\drivers/peripheral/syspm/cy_syspm.h **** *******************************************************************************/
 675:Generated_Source\PSoC6\pdl\drivers/peripheral/syspm/cy_syspm.h **** 
 676:Generated_Source\PSoC6\pdl\drivers/peripheral/syspm/cy_syspm.h **** /**
 677:Generated_Source\PSoC6\pdl\drivers/peripheral/syspm/cy_syspm.h **** * \addtogroup group_syspm_macros
 678:Generated_Source\PSoC6\pdl\drivers/peripheral/syspm/cy_syspm.h **** * \{
 679:Generated_Source\PSoC6\pdl\drivers/peripheral/syspm/cy_syspm.h **** */
 680:Generated_Source\PSoC6\pdl\drivers/peripheral/syspm/cy_syspm.h **** 
 681:Generated_Source\PSoC6\pdl\drivers/peripheral/syspm/cy_syspm.h **** /** Driver major version */
 682:Generated_Source\PSoC6\pdl\drivers/peripheral/syspm/cy_syspm.h **** #define CY_SYSPM_DRV_VERSION_MAJOR       2
 683:Generated_Source\PSoC6\pdl\drivers/peripheral/syspm/cy_syspm.h **** 
 684:Generated_Source\PSoC6\pdl\drivers/peripheral/syspm/cy_syspm.h **** /** Driver minor version */
 685:Generated_Source\PSoC6\pdl\drivers/peripheral/syspm/cy_syspm.h **** #define CY_SYSPM_DRV_VERSION_MINOR       21
 686:Generated_Source\PSoC6\pdl\drivers/peripheral/syspm/cy_syspm.h **** 
 687:Generated_Source\PSoC6\pdl\drivers/peripheral/syspm/cy_syspm.h **** /** syspm driver identifier */
 688:Generated_Source\PSoC6\pdl\drivers/peripheral/syspm/cy_syspm.h **** #define CY_SYSPM_ID                      (CY_PDL_DRV_ID(0x10U))
 689:Generated_Source\PSoC6\pdl\drivers/peripheral/syspm/cy_syspm.h **** 
 690:Generated_Source\PSoC6\pdl\drivers/peripheral/syspm/cy_syspm.h **** 
 691:Generated_Source\PSoC6\pdl\drivers/peripheral/syspm/cy_syspm.h **** /*******************************************************************************
 692:Generated_Source\PSoC6\pdl\drivers/peripheral/syspm/cy_syspm.h **** *       Internal Defines
 693:Generated_Source\PSoC6\pdl\drivers/peripheral/syspm/cy_syspm.h **** *******************************************************************************/
 694:Generated_Source\PSoC6\pdl\drivers/peripheral/syspm/cy_syspm.h **** 
 695:Generated_Source\PSoC6\pdl\drivers/peripheral/syspm/cy_syspm.h **** /** \cond INTERNAL */
 696:Generated_Source\PSoC6\pdl\drivers/peripheral/syspm/cy_syspm.h **** 
 697:Generated_Source\PSoC6\pdl\drivers/peripheral/syspm/cy_syspm.h **** /* Internal redefine for sflash */
 698:Generated_Source\PSoC6\pdl\drivers/peripheral/syspm/cy_syspm.h **** #define CY_SYSPM_SFLASH                  SFLASH
 699:Generated_Source\PSoC6\pdl\drivers/peripheral/syspm/cy_syspm.h **** 
 700:Generated_Source\PSoC6\pdl\drivers/peripheral/syspm/cy_syspm.h **** /** The internal define of the unlock value for the PMIC functions */
 701:Generated_Source\PSoC6\pdl\drivers/peripheral/syspm/cy_syspm.h **** #define CY_SYSPM_PMIC_UNLOCK_KEY                         (0x3AU)
 702:Generated_Source\PSoC6\pdl\drivers/peripheral/syspm/cy_syspm.h **** 
 703:Generated_Source\PSoC6\pdl\drivers/peripheral/syspm/cy_syspm.h **** /** The internal define of the tries number in the Cy_SysPm_ExitLowPowerMode() 
 704:Generated_Source\PSoC6\pdl\drivers/peripheral/syspm/cy_syspm.h **** * function
 705:Generated_Source\PSoC6\pdl\drivers/peripheral/syspm/cy_syspm.h **** */
 706:Generated_Source\PSoC6\pdl\drivers/peripheral/syspm/cy_syspm.h **** #define CY_SYSPM_WAIT_DELAY_TRYES                        (100U)
 707:Generated_Source\PSoC6\pdl\drivers/peripheral/syspm/cy_syspm.h **** 
ARM GAS  C:\Users\salaz\AppData\Local\Temp\cczs20OJ.s 			page 24


 708:Generated_Source\PSoC6\pdl\drivers/peripheral/syspm/cy_syspm.h **** /* Macro to validate parameters in Cy_SysPm_SetHibernateWakeupSource() and for Cy_SysPm_ClearHibern
 709:Generated_Source\PSoC6\pdl\drivers/peripheral/syspm/cy_syspm.h **** #define CY_SYSPM_IS_WAKE_UP_SOURCE_VALID(wakeupSource)   (0UL == ((wakeupSource) & \
 710:Generated_Source\PSoC6\pdl\drivers/peripheral/syspm/cy_syspm.h ****                                                          ((uint32_t) ~(CY_SYSPM_HIB_WAKEUP_SOURSE_M
 711:Generated_Source\PSoC6\pdl\drivers/peripheral/syspm/cy_syspm.h **** 
 712:Generated_Source\PSoC6\pdl\drivers/peripheral/syspm/cy_syspm.h **** /* Macro to validate parameters in Cy_SysPm_PmicDisable() function */
 713:Generated_Source\PSoC6\pdl\drivers/peripheral/syspm/cy_syspm.h **** #define CY_SYSPM_IS_POLARITY_VALID(polarity)            (((polarity) == CY_SYSPM_PMIC_POLARITY_LOW)
 714:Generated_Source\PSoC6\pdl\drivers/peripheral/syspm/cy_syspm.h ****                                                          ((polarity) == CY_SYSPM_PMIC_POLARITY_HIGH
 715:Generated_Source\PSoC6\pdl\drivers/peripheral/syspm/cy_syspm.h **** 
 716:Generated_Source\PSoC6\pdl\drivers/peripheral/syspm/cy_syspm.h **** /* Macro to validate parameters in Cy_SysPm_BuckSetVoltage1() function */
 717:Generated_Source\PSoC6\pdl\drivers/peripheral/syspm/cy_syspm.h **** #define CY_SYSPM_IS_BUCK_VOLTAGE1_VALID(voltage)        (((voltage) == CY_SYSPM_BUCK_OUT1_VOLTAGE_0
 718:Generated_Source\PSoC6\pdl\drivers/peripheral/syspm/cy_syspm.h ****                                                          ((voltage) == CY_SYSPM_BUCK_OUT1_VOLTAGE_1
 719:Generated_Source\PSoC6\pdl\drivers/peripheral/syspm/cy_syspm.h **** 
 720:Generated_Source\PSoC6\pdl\drivers/peripheral/syspm/cy_syspm.h **** /* Macro to validate parameters in Cy_SysPm_BuckSetVoltage2() function */
 721:Generated_Source\PSoC6\pdl\drivers/peripheral/syspm/cy_syspm.h **** #define CY_SYSPM_IS_BUCK_VOLTAGE2_VALID(voltage)        (((voltage) == CY_SYSPM_BUCK_OUT2_VOLTAGE_1
 722:Generated_Source\PSoC6\pdl\drivers/peripheral/syspm/cy_syspm.h ****                                                          ((voltage) == CY_SYSPM_BUCK_OUT2_VOLTAGE_1
 723:Generated_Source\PSoC6\pdl\drivers/peripheral/syspm/cy_syspm.h ****                                                          ((voltage) == CY_SYSPM_BUCK_OUT2_VOLTAGE_1
 724:Generated_Source\PSoC6\pdl\drivers/peripheral/syspm/cy_syspm.h ****                                                          ((voltage) == CY_SYSPM_BUCK_OUT2_VOLTAGE_1
 725:Generated_Source\PSoC6\pdl\drivers/peripheral/syspm/cy_syspm.h ****                                                          ((voltage) == CY_SYSPM_BUCK_OUT2_VOLTAGE_1
 726:Generated_Source\PSoC6\pdl\drivers/peripheral/syspm/cy_syspm.h ****                                                          ((voltage) == CY_SYSPM_BUCK_OUT2_VOLTAGE_1
 727:Generated_Source\PSoC6\pdl\drivers/peripheral/syspm/cy_syspm.h ****                                                          ((voltage) == CY_SYSPM_BUCK_OUT2_VOLTAGE_1
 728:Generated_Source\PSoC6\pdl\drivers/peripheral/syspm/cy_syspm.h ****                                                          ((voltage) == CY_SYSPM_BUCK_OUT2_VOLTAGE_1
 729:Generated_Source\PSoC6\pdl\drivers/peripheral/syspm/cy_syspm.h **** 
 730:Generated_Source\PSoC6\pdl\drivers/peripheral/syspm/cy_syspm.h **** /* Macro to validate parameters in Cy_SysPm_BuckIsOutputEnabled() function */
 731:Generated_Source\PSoC6\pdl\drivers/peripheral/syspm/cy_syspm.h **** #define CY_SYSPM_IS_BUCK_OUTPUT_VALID(output)           (((output) == CY_SYSPM_BUCK_VBUCK_1) || \
 732:Generated_Source\PSoC6\pdl\drivers/peripheral/syspm/cy_syspm.h ****                                                          ((output) == CY_SYSPM_BUCK_VRF))
 733:Generated_Source\PSoC6\pdl\drivers/peripheral/syspm/cy_syspm.h **** 
 734:Generated_Source\PSoC6\pdl\drivers/peripheral/syspm/cy_syspm.h **** /* Macro to validate parameters in Cy_SysPm_LdoSetVoltage() function */
 735:Generated_Source\PSoC6\pdl\drivers/peripheral/syspm/cy_syspm.h **** #define CY_SYSPM_IS_LDO_VOLTAGE_VALID(voltage)          (((voltage) == CY_SYSPM_LDO_VOLTAGE_0_9V) |
 736:Generated_Source\PSoC6\pdl\drivers/peripheral/syspm/cy_syspm.h ****                                                          ((voltage) == CY_SYSPM_LDO_VOLTAGE_1_1V))
 737:Generated_Source\PSoC6\pdl\drivers/peripheral/syspm/cy_syspm.h **** 
 738:Generated_Source\PSoC6\pdl\drivers/peripheral/syspm/cy_syspm.h **** /* Macro to validate parameters in Cy_SysPm_ExecuteCallback() function */
 739:Generated_Source\PSoC6\pdl\drivers/peripheral/syspm/cy_syspm.h **** #define CY_SYSPM_IS_CALLBACK_TYPE_VALID(type)           (((type) == CY_SYSPM_SLEEP) || \
 740:Generated_Source\PSoC6\pdl\drivers/peripheral/syspm/cy_syspm.h ****                                                          ((type) == CY_SYSPM_DEEPSLEEP) || \
 741:Generated_Source\PSoC6\pdl\drivers/peripheral/syspm/cy_syspm.h ****                                                          ((type) == CY_SYSPM_HIBERNATE) || \
 742:Generated_Source\PSoC6\pdl\drivers/peripheral/syspm/cy_syspm.h ****                                                          ((type) == CY_SYSPM_ENTER_LOWPOWER_MODE) |
 743:Generated_Source\PSoC6\pdl\drivers/peripheral/syspm/cy_syspm.h ****                                                          ((type) == CY_SYSPM_EXIT_LOWPOWER_MODE))
 744:Generated_Source\PSoC6\pdl\drivers/peripheral/syspm/cy_syspm.h **** 
 745:Generated_Source\PSoC6\pdl\drivers/peripheral/syspm/cy_syspm.h **** /* Macro to validate parameters in Cy_SysPm_ExecuteCallback() function */
 746:Generated_Source\PSoC6\pdl\drivers/peripheral/syspm/cy_syspm.h **** #define CY_SYSPM_IS_CALLBACK_MODE_VALID(mode)           (((mode) == CY_SYSPM_CHECK_READY) || \
 747:Generated_Source\PSoC6\pdl\drivers/peripheral/syspm/cy_syspm.h ****                                                          ((mode) == CY_SYSPM_CHECK_FAIL) || \
 748:Generated_Source\PSoC6\pdl\drivers/peripheral/syspm/cy_syspm.h ****                                                          ((mode) == CY_SYSPM_BEFORE_TRANSITION) || 
 749:Generated_Source\PSoC6\pdl\drivers/peripheral/syspm/cy_syspm.h ****                                                          ((mode) == CY_SYSPM_AFTER_TRANSITION))
 750:Generated_Source\PSoC6\pdl\drivers/peripheral/syspm/cy_syspm.h **** 
 751:Generated_Source\PSoC6\pdl\drivers/peripheral/syspm/cy_syspm.h **** /* Macro to validate parameters in Cy_SysPm_Sleep() and for Cy_SysPm_DeepSleep() function */
 752:Generated_Source\PSoC6\pdl\drivers/peripheral/syspm/cy_syspm.h **** #define CY_SYSPM_IS_WAIT_FOR_VALID(waitFor)             (((waitFor) == CY_SYSPM_WAIT_FOR_INTERRUPT)
 753:Generated_Source\PSoC6\pdl\drivers/peripheral/syspm/cy_syspm.h ****                                                          ((waitFor) == CY_SYSPM_WAIT_FOR_EVENT))
 754:Generated_Source\PSoC6\pdl\drivers/peripheral/syspm/cy_syspm.h **** 
 755:Generated_Source\PSoC6\pdl\drivers/peripheral/syspm/cy_syspm.h **** /* Macro to validate parameters in Cy_SysPm_BackupSetSupply() function */
 756:Generated_Source\PSoC6\pdl\drivers/peripheral/syspm/cy_syspm.h **** #define CY_SYSPM_IS_VDDBACKUP_VALID(vddBackControl)      (((vddBackControl) == CY_SYSPM_VDDBACKUP_D
 757:Generated_Source\PSoC6\pdl\drivers/peripheral/syspm/cy_syspm.h ****                                                           ((vddBackControl) == CY_SYSPM_VDDBACKUP_V
 758:Generated_Source\PSoC6\pdl\drivers/peripheral/syspm/cy_syspm.h ****                                                           
 759:Generated_Source\PSoC6\pdl\drivers/peripheral/syspm/cy_syspm.h **** /* Macro to validate parameters in Cy_SysPm_BackupSuperCapCharge() function */
 760:Generated_Source\PSoC6\pdl\drivers/peripheral/syspm/cy_syspm.h **** #define CY_SYSPM_IS_SC_CHARGE_KEY_VALID(key)            (((key) == CY_SYSPM_SC_CHARGE_ENABLE) || \
 761:Generated_Source\PSoC6\pdl\drivers/peripheral/syspm/cy_syspm.h ****                                                          ((key) == CY_SYSPM_SC_CHARGE_DISABLE))
 762:Generated_Source\PSoC6\pdl\drivers/peripheral/syspm/cy_syspm.h **** 
 763:Generated_Source\PSoC6\pdl\drivers/peripheral/syspm/cy_syspm.h **** #if(0u != SRSS_BUCKCTL_PRESENT)
 764:Generated_Source\PSoC6\pdl\drivers/peripheral/syspm/cy_syspm.h **** 
ARM GAS  C:\Users\salaz\AppData\Local\Temp\cczs20OJ.s 			page 25


 765:Generated_Source\PSoC6\pdl\drivers/peripheral/syspm/cy_syspm.h ****     /** The definition for the delay of the Buck supply regulator 
 766:Generated_Source\PSoC6\pdl\drivers/peripheral/syspm/cy_syspm.h ****     * stabilization after it was configured with enabled Buck output 1 */
 767:Generated_Source\PSoC6\pdl\drivers/peripheral/syspm/cy_syspm.h ****     #define CY_SYSPM_BUCK_CORE_SUPPLY_STABLE_US       (900U)
 768:Generated_Source\PSoC6\pdl\drivers/peripheral/syspm/cy_syspm.h **** 
 769:Generated_Source\PSoC6\pdl\drivers/peripheral/syspm/cy_syspm.h ****     /** The definition for the delay of the Buck supply regulator 
 770:Generated_Source\PSoC6\pdl\drivers/peripheral/syspm/cy_syspm.h ****     * stabilization after it was configured with enabled Buck 
 771:Generated_Source\PSoC6\pdl\drivers/peripheral/syspm/cy_syspm.h ****     * output 2 only
 772:Generated_Source\PSoC6\pdl\drivers/peripheral/syspm/cy_syspm.h ****     */
 773:Generated_Source\PSoC6\pdl\drivers/peripheral/syspm/cy_syspm.h ****     #define CY_SYSPM_BUCK_BLE_SUPPLY_STABLE_US        (600U)
 774:Generated_Source\PSoC6\pdl\drivers/peripheral/syspm/cy_syspm.h **** 
 775:Generated_Source\PSoC6\pdl\drivers/peripheral/syspm/cy_syspm.h ****     /** The definition for the delay of the Buck regulator after its output
 776:Generated_Source\PSoC6\pdl\drivers/peripheral/syspm/cy_syspm.h ****     * voltage is changed
 777:Generated_Source\PSoC6\pdl\drivers/peripheral/syspm/cy_syspm.h ****     */
 778:Generated_Source\PSoC6\pdl\drivers/peripheral/syspm/cy_syspm.h ****     #define BUCK_STABILIZATION_DELAY_US                (200U)
 779:Generated_Source\PSoC6\pdl\drivers/peripheral/syspm/cy_syspm.h **** 
 780:Generated_Source\PSoC6\pdl\drivers/peripheral/syspm/cy_syspm.h **** #endif /* (0u != SRSS_BUCKCTL_PRESENT) */
 781:Generated_Source\PSoC6\pdl\drivers/peripheral/syspm/cy_syspm.h **** 
 782:Generated_Source\PSoC6\pdl\drivers/peripheral/syspm/cy_syspm.h **** /** The wait time for transition of the device from the Active into 
 783:Generated_Source\PSoC6\pdl\drivers/peripheral/syspm/cy_syspm.h **** * the LPActive
 784:Generated_Source\PSoC6\pdl\drivers/peripheral/syspm/cy_syspm.h **** */
 785:Generated_Source\PSoC6\pdl\drivers/peripheral/syspm/cy_syspm.h **** #define CY_SYSPM_ACTIVE_TO_LP_WAIT_US           (1U)
 786:Generated_Source\PSoC6\pdl\drivers/peripheral/syspm/cy_syspm.h **** 
 787:Generated_Source\PSoC6\pdl\drivers/peripheral/syspm/cy_syspm.h **** /** The wait delay time which occurs before the Active reference is settled.
 788:Generated_Source\PSoC6\pdl\drivers/peripheral/syspm/cy_syspm.h **** * This delay is used in transition of the device from Active into the LPActive 
 789:Generated_Source\PSoC6\pdl\drivers/peripheral/syspm/cy_syspm.h **** * low-power mode 
 790:Generated_Source\PSoC6\pdl\drivers/peripheral/syspm/cy_syspm.h **** */
 791:Generated_Source\PSoC6\pdl\drivers/peripheral/syspm/cy_syspm.h **** #define CY_SYSPM_LP_TO_ACTIVE_WAIT_BEFORE_US    (8U)
 792:Generated_Source\PSoC6\pdl\drivers/peripheral/syspm/cy_syspm.h **** 
 793:Generated_Source\PSoC6\pdl\drivers/peripheral/syspm/cy_syspm.h **** /** The wait delay time which occurs after the Active reference is settled. 
 794:Generated_Source\PSoC6\pdl\drivers/peripheral/syspm/cy_syspm.h **** * This delay is used in transition the device from Active into the LPActive 
 795:Generated_Source\PSoC6\pdl\drivers/peripheral/syspm/cy_syspm.h **** * mode 
 796:Generated_Source\PSoC6\pdl\drivers/peripheral/syspm/cy_syspm.h **** */
 797:Generated_Source\PSoC6\pdl\drivers/peripheral/syspm/cy_syspm.h **** #define CY_SYSPM_LP_TO_ACTIVE_WAIT_AFTER_US     (1U)
 798:Generated_Source\PSoC6\pdl\drivers/peripheral/syspm/cy_syspm.h **** 
 799:Generated_Source\PSoC6\pdl\drivers/peripheral/syspm/cy_syspm.h **** /** The maximum callbacks number */
 800:Generated_Source\PSoC6\pdl\drivers/peripheral/syspm/cy_syspm.h **** #define CY_SYSPM_CALLBACKS_NUMBER_MAX           (32U)
 801:Generated_Source\PSoC6\pdl\drivers/peripheral/syspm/cy_syspm.h **** 
 802:Generated_Source\PSoC6\pdl\drivers/peripheral/syspm/cy_syspm.h **** /** The mask to unlock the Hibernate power mode */
 803:Generated_Source\PSoC6\pdl\drivers/peripheral/syspm/cy_syspm.h **** #define CY_SYSPM_PWR_HIBERNATE_UNLOCK             ((uint32_t) 0x3Au << SRSS_PWR_HIBERNATE_UNLOCK_Po
 804:Generated_Source\PSoC6\pdl\drivers/peripheral/syspm/cy_syspm.h **** 
 805:Generated_Source\PSoC6\pdl\drivers/peripheral/syspm/cy_syspm.h **** /** The mask to set the Hibernate power mode */
 806:Generated_Source\PSoC6\pdl\drivers/peripheral/syspm/cy_syspm.h **** #define CY_SYSPM_PWR_SET_HIBERNATE                 ((uint32_t) CY_SYSPM_PWR_HIBERNATE_UNLOCK |\
 807:Generated_Source\PSoC6\pdl\drivers/peripheral/syspm/cy_syspm.h ****                                                                    SRSS_PWR_HIBERNATE_FREEZE_Msk |\
 808:Generated_Source\PSoC6\pdl\drivers/peripheral/syspm/cy_syspm.h ****                                                                    SRSS_PWR_HIBERNATE_HIBERNATE_Msk
 809:Generated_Source\PSoC6\pdl\drivers/peripheral/syspm/cy_syspm.h **** 
 810:Generated_Source\PSoC6\pdl\drivers/peripheral/syspm/cy_syspm.h **** /** The mask to retain the Hibernate power mode status */
 811:Generated_Source\PSoC6\pdl\drivers/peripheral/syspm/cy_syspm.h **** #define CY_SYSPM_PWR_RETAIN_HIBERNATE_STATUS      ((uint32_t) SRSS_PWR_HIBERNATE_TOKEN_Msk |\
 812:Generated_Source\PSoC6\pdl\drivers/peripheral/syspm/cy_syspm.h ****                                                               SRSS_PWR_HIBERNATE_MASK_HIBALARM_Msk 
 813:Generated_Source\PSoC6\pdl\drivers/peripheral/syspm/cy_syspm.h ****                                                               SRSS_PWR_HIBERNATE_MASK_HIBWDT_Msk |\
 814:Generated_Source\PSoC6\pdl\drivers/peripheral/syspm/cy_syspm.h ****                                                               SRSS_PWR_HIBERNATE_POLARITY_HIBPIN_Ms
 815:Generated_Source\PSoC6\pdl\drivers/peripheral/syspm/cy_syspm.h ****                                                               SRSS_PWR_HIBERNATE_MASK_HIBPIN_Msk)
 816:Generated_Source\PSoC6\pdl\drivers/peripheral/syspm/cy_syspm.h **** 
 817:Generated_Source\PSoC6\pdl\drivers/peripheral/syspm/cy_syspm.h **** /** The mask for the wakeup sources */
 818:Generated_Source\PSoC6\pdl\drivers/peripheral/syspm/cy_syspm.h **** #define CY_SYSPM_PWR_WAKEUP_HIB_MASK              ((uint32_t) SRSS_PWR_HIBERNATE_MASK_HIBALARM_Msk 
 819:Generated_Source\PSoC6\pdl\drivers/peripheral/syspm/cy_syspm.h ****                                                               SRSS_PWR_HIBERNATE_MASK_HIBWDT_Msk |\
 820:Generated_Source\PSoC6\pdl\drivers/peripheral/syspm/cy_syspm.h ****                                                               SRSS_PWR_HIBERNATE_POLARITY_HIBPIN_Ms
 821:Generated_Source\PSoC6\pdl\drivers/peripheral/syspm/cy_syspm.h ****                                                               SRSS_PWR_HIBERNATE_MASK_HIBPIN_Msk)
ARM GAS  C:\Users\salaz\AppData\Local\Temp\cczs20OJ.s 			page 26


 822:Generated_Source\PSoC6\pdl\drivers/peripheral/syspm/cy_syspm.h **** 
 823:Generated_Source\PSoC6\pdl\drivers/peripheral/syspm/cy_syspm.h **** /** The define to update the token to indicate the transition into Hibernate */
 824:Generated_Source\PSoC6\pdl\drivers/peripheral/syspm/cy_syspm.h **** #define CY_SYSPM_PWR_TOKEN_HIBERNATE      ((uint32_t) 0x1BU << SRSS_PWR_HIBERNATE_TOKEN_Pos)
 825:Generated_Source\PSoC6\pdl\drivers/peripheral/syspm/cy_syspm.h **** 
 826:Generated_Source\PSoC6\pdl\drivers/peripheral/syspm/cy_syspm.h **** /** The internal define of the first wakeup pin bit used in the
 827:Generated_Source\PSoC6\pdl\drivers/peripheral/syspm/cy_syspm.h **** * Cy_SysPm_SetHibernateWakeupSource() function
 828:Generated_Source\PSoC6\pdl\drivers/peripheral/syspm/cy_syspm.h **** */
 829:Generated_Source\PSoC6\pdl\drivers/peripheral/syspm/cy_syspm.h **** #define CY_SYSPM_WAKEUP_PIN0_BIT                         (1UL)
 830:Generated_Source\PSoC6\pdl\drivers/peripheral/syspm/cy_syspm.h **** 
 831:Generated_Source\PSoC6\pdl\drivers/peripheral/syspm/cy_syspm.h **** /** The internal define of the second wakeup pin bit 
 832:Generated_Source\PSoC6\pdl\drivers/peripheral/syspm/cy_syspm.h **** * used in the Cy_SysPm_SetHibernateWakeupSource() function
 833:Generated_Source\PSoC6\pdl\drivers/peripheral/syspm/cy_syspm.h **** */
 834:Generated_Source\PSoC6\pdl\drivers/peripheral/syspm/cy_syspm.h **** #define CY_SYSPM_WAKEUP_PIN1_BIT                         (2UL)
 835:Generated_Source\PSoC6\pdl\drivers/peripheral/syspm/cy_syspm.h **** 
 836:Generated_Source\PSoC6\pdl\drivers/peripheral/syspm/cy_syspm.h **** /**
 837:Generated_Source\PSoC6\pdl\drivers/peripheral/syspm/cy_syspm.h **** * The internal define of the first LPComparator bit 
 838:Generated_Source\PSoC6\pdl\drivers/peripheral/syspm/cy_syspm.h **** * used in the Cy_SysPm_SetHibernateWakeupSource() function
 839:Generated_Source\PSoC6\pdl\drivers/peripheral/syspm/cy_syspm.h **** */
 840:Generated_Source\PSoC6\pdl\drivers/peripheral/syspm/cy_syspm.h **** #define CY_SYSPM_WAKEUP_LPCOMP0_BIT                      (4UL)
 841:Generated_Source\PSoC6\pdl\drivers/peripheral/syspm/cy_syspm.h **** 
 842:Generated_Source\PSoC6\pdl\drivers/peripheral/syspm/cy_syspm.h **** /**
 843:Generated_Source\PSoC6\pdl\drivers/peripheral/syspm/cy_syspm.h **** * The internal define for the second LPComparator bit 
 844:Generated_Source\PSoC6\pdl\drivers/peripheral/syspm/cy_syspm.h **** * used in the Cy_SysPm_SetHibernateWakeupSource() function
 845:Generated_Source\PSoC6\pdl\drivers/peripheral/syspm/cy_syspm.h **** */
 846:Generated_Source\PSoC6\pdl\drivers/peripheral/syspm/cy_syspm.h **** #define CY_SYSPM_WAKEUP_LPCOMP1_BIT                      (8UL)
 847:Generated_Source\PSoC6\pdl\drivers/peripheral/syspm/cy_syspm.h **** 
 848:Generated_Source\PSoC6\pdl\drivers/peripheral/syspm/cy_syspm.h **** /**
 849:Generated_Source\PSoC6\pdl\drivers/peripheral/syspm/cy_syspm.h **** * The internal define of the first LPComparator value 
 850:Generated_Source\PSoC6\pdl\drivers/peripheral/syspm/cy_syspm.h **** * used in the Cy_SysPm_SetHibernateWakeupSource() function
 851:Generated_Source\PSoC6\pdl\drivers/peripheral/syspm/cy_syspm.h **** */
 852:Generated_Source\PSoC6\pdl\drivers/peripheral/syspm/cy_syspm.h **** #define CY_SYSPM_WAKEUP_LPCOMP0    ((uint32_t) CY_SYSPM_WAKEUP_LPCOMP0_BIT << \
 853:Generated_Source\PSoC6\pdl\drivers/peripheral/syspm/cy_syspm.h ****                                                SRSS_PWR_HIBERNATE_MASK_HIBPIN_Pos)
 854:Generated_Source\PSoC6\pdl\drivers/peripheral/syspm/cy_syspm.h **** 
 855:Generated_Source\PSoC6\pdl\drivers/peripheral/syspm/cy_syspm.h **** /**
 856:Generated_Source\PSoC6\pdl\drivers/peripheral/syspm/cy_syspm.h **** * The internal define of the second LPComparator value 
 857:Generated_Source\PSoC6\pdl\drivers/peripheral/syspm/cy_syspm.h **** * used in the Cy_SysPm_SetHibernateWakeupSource() function
 858:Generated_Source\PSoC6\pdl\drivers/peripheral/syspm/cy_syspm.h **** */
 859:Generated_Source\PSoC6\pdl\drivers/peripheral/syspm/cy_syspm.h **** #define CY_SYSPM_WAKEUP_LPCOMP1    ((uint32_t) CY_SYSPM_WAKEUP_LPCOMP1_BIT << \
 860:Generated_Source\PSoC6\pdl\drivers/peripheral/syspm/cy_syspm.h ****                                                SRSS_PWR_HIBERNATE_MASK_HIBPIN_Pos)
 861:Generated_Source\PSoC6\pdl\drivers/peripheral/syspm/cy_syspm.h **** 
 862:Generated_Source\PSoC6\pdl\drivers/peripheral/syspm/cy_syspm.h **** /**
 863:Generated_Source\PSoC6\pdl\drivers/peripheral/syspm/cy_syspm.h **** * The internal define of the first wake-up pin value 
 864:Generated_Source\PSoC6\pdl\drivers/peripheral/syspm/cy_syspm.h **** * used in the Cy_SysPm_SetHibernateWakeupSource() function
 865:Generated_Source\PSoC6\pdl\drivers/peripheral/syspm/cy_syspm.h **** */
 866:Generated_Source\PSoC6\pdl\drivers/peripheral/syspm/cy_syspm.h **** #define CY_SYSPM_WAKEUP_PIN0       ((uint32_t) CY_SYSPM_WAKEUP_PIN0_BIT << \
 867:Generated_Source\PSoC6\pdl\drivers/peripheral/syspm/cy_syspm.h ****                                                SRSS_PWR_HIBERNATE_MASK_HIBPIN_Pos)
 868:Generated_Source\PSoC6\pdl\drivers/peripheral/syspm/cy_syspm.h **** 
 869:Generated_Source\PSoC6\pdl\drivers/peripheral/syspm/cy_syspm.h **** /**
 870:Generated_Source\PSoC6\pdl\drivers/peripheral/syspm/cy_syspm.h **** * The internal define of the second wake-up pin value used 
 871:Generated_Source\PSoC6\pdl\drivers/peripheral/syspm/cy_syspm.h **** * in the Cy_SysPm_SetHibernateWakeupSource() function
 872:Generated_Source\PSoC6\pdl\drivers/peripheral/syspm/cy_syspm.h **** */
 873:Generated_Source\PSoC6\pdl\drivers/peripheral/syspm/cy_syspm.h **** #define CY_SYSPM_WAKEUP_PIN1       ((uint32_t) CY_SYSPM_WAKEUP_PIN1_BIT << \
 874:Generated_Source\PSoC6\pdl\drivers/peripheral/syspm/cy_syspm.h ****                                                SRSS_PWR_HIBERNATE_MASK_HIBPIN_Pos)
 875:Generated_Source\PSoC6\pdl\drivers/peripheral/syspm/cy_syspm.h **** 
 876:Generated_Source\PSoC6\pdl\drivers/peripheral/syspm/cy_syspm.h **** /** The internal define for the first LPComparator polarity configuration */
 877:Generated_Source\PSoC6\pdl\drivers/peripheral/syspm/cy_syspm.h **** #define CY_SYSPM_WAKEUP_LPCOMP0_POLARITY_HIGH    ((uint32_t) CY_SYSPM_WAKEUP_LPCOMP0_BIT << \
 878:Generated_Source\PSoC6\pdl\drivers/peripheral/syspm/cy_syspm.h ****                                                              SRSS_PWR_HIBERNATE_POLARITY_HIBPIN_Pos
ARM GAS  C:\Users\salaz\AppData\Local\Temp\cczs20OJ.s 			page 27


 879:Generated_Source\PSoC6\pdl\drivers/peripheral/syspm/cy_syspm.h **** 
 880:Generated_Source\PSoC6\pdl\drivers/peripheral/syspm/cy_syspm.h **** /** The internal define for the second LPComparator polarity configuration */
 881:Generated_Source\PSoC6\pdl\drivers/peripheral/syspm/cy_syspm.h **** #define CY_SYSPM_WAKEUP_LPCOMP1_POLARITY_HIGH    ((uint32_t) CY_SYSPM_WAKEUP_LPCOMP1_BIT << \
 882:Generated_Source\PSoC6\pdl\drivers/peripheral/syspm/cy_syspm.h ****                                                              SRSS_PWR_HIBERNATE_POLARITY_HIBPIN_Pos
 883:Generated_Source\PSoC6\pdl\drivers/peripheral/syspm/cy_syspm.h **** 
 884:Generated_Source\PSoC6\pdl\drivers/peripheral/syspm/cy_syspm.h **** /** The internal define for the first wake-up pin polarity configuration */
 885:Generated_Source\PSoC6\pdl\drivers/peripheral/syspm/cy_syspm.h **** #define CY_SYSPM_WAKEUP_PIN0_POLARITY_HIGH       ((uint32_t) CY_SYSPM_WAKEUP_PIN0_BIT << \
 886:Generated_Source\PSoC6\pdl\drivers/peripheral/syspm/cy_syspm.h ****                                                              SRSS_PWR_HIBERNATE_POLARITY_HIBPIN_Pos
 887:Generated_Source\PSoC6\pdl\drivers/peripheral/syspm/cy_syspm.h **** 
 888:Generated_Source\PSoC6\pdl\drivers/peripheral/syspm/cy_syspm.h **** /** The internal define for the second wake-up pin polarity configuration */
 889:Generated_Source\PSoC6\pdl\drivers/peripheral/syspm/cy_syspm.h **** #define CY_SYSPM_WAKEUP_PIN1_POLARITY_HIGH      ((uint32_t) CY_SYSPM_WAKEUP_PIN1_BIT << \
 890:Generated_Source\PSoC6\pdl\drivers/peripheral/syspm/cy_syspm.h ****                                                              SRSS_PWR_HIBERNATE_POLARITY_HIBPIN_Pos
 891:Generated_Source\PSoC6\pdl\drivers/peripheral/syspm/cy_syspm.h **** 
 892:Generated_Source\PSoC6\pdl\drivers/peripheral/syspm/cy_syspm.h **** /* Internal macro of all possible wakeup sources from hibernate power mode */
 893:Generated_Source\PSoC6\pdl\drivers/peripheral/syspm/cy_syspm.h **** #define CY_SYSPM_HIB_WAKEUP_SOURSE_MASK        (CY_SYSPM_HIBERNATE_LPCOMP0_HIGH | CY_SYSPM_HIBERNAT
 894:Generated_Source\PSoC6\pdl\drivers/peripheral/syspm/cy_syspm.h ****                                                 CY_SYSPM_HIBERNATE_RTC_ALARM     | CY_SYSPM_HIBERNA
 895:Generated_Source\PSoC6\pdl\drivers/peripheral/syspm/cy_syspm.h ****                                                 CY_SYSPM_HIBERNATE_PIN0_HIGH | CY_SYSPM_HIBERNATE_P
 896:Generated_Source\PSoC6\pdl\drivers/peripheral/syspm/cy_syspm.h **** /** \endcond */
 897:Generated_Source\PSoC6\pdl\drivers/peripheral/syspm/cy_syspm.h **** 
 898:Generated_Source\PSoC6\pdl\drivers/peripheral/syspm/cy_syspm.h **** /**
 899:Generated_Source\PSoC6\pdl\drivers/peripheral/syspm/cy_syspm.h **** * \defgroup group_syspm_return_status The Power Mode Status Defines
 900:Generated_Source\PSoC6\pdl\drivers/peripheral/syspm/cy_syspm.h **** * \{
 901:Generated_Source\PSoC6\pdl\drivers/peripheral/syspm/cy_syspm.h **** * The defines of the core(s) and device power mode status.
 902:Generated_Source\PSoC6\pdl\drivers/peripheral/syspm/cy_syspm.h **** */
 903:Generated_Source\PSoC6\pdl\drivers/peripheral/syspm/cy_syspm.h **** #if(0u != CY_IP_M4CPUSS)
 904:Generated_Source\PSoC6\pdl\drivers/peripheral/syspm/cy_syspm.h **** 
 905:Generated_Source\PSoC6\pdl\drivers/peripheral/syspm/cy_syspm.h ****     /** The CM4 is Active */
 906:Generated_Source\PSoC6\pdl\drivers/peripheral/syspm/cy_syspm.h ****     #define CY_SYSPM_STATUS_CM4_ACTIVE       (0x01U)
 907:Generated_Source\PSoC6\pdl\drivers/peripheral/syspm/cy_syspm.h **** 
 908:Generated_Source\PSoC6\pdl\drivers/peripheral/syspm/cy_syspm.h ****     /** The CM4 is in Sleep */
 909:Generated_Source\PSoC6\pdl\drivers/peripheral/syspm/cy_syspm.h ****     #define CY_SYSPM_STATUS_CM4_SLEEP        (0x02U)
 910:Generated_Source\PSoC6\pdl\drivers/peripheral/syspm/cy_syspm.h **** 
 911:Generated_Source\PSoC6\pdl\drivers/peripheral/syspm/cy_syspm.h ****     /** The CM4 is in Deep Sleep */
 912:Generated_Source\PSoC6\pdl\drivers/peripheral/syspm/cy_syspm.h ****     #define CY_SYSPM_STATUS_CM4_DEEPSLEEP    (0x04U)
 913:Generated_Source\PSoC6\pdl\drivers/peripheral/syspm/cy_syspm.h **** 
 914:Generated_Source\PSoC6\pdl\drivers/peripheral/syspm/cy_syspm.h ****     /** The CM4 is Low-Power mode */
 915:Generated_Source\PSoC6\pdl\drivers/peripheral/syspm/cy_syspm.h ****     #define CY_SYSPM_STATUS_CM4_LOWPOWER     (0x80U)
 916:Generated_Source\PSoC6\pdl\drivers/peripheral/syspm/cy_syspm.h ****     
 917:Generated_Source\PSoC6\pdl\drivers/peripheral/syspm/cy_syspm.h ****     /** The define of retained power mode of the CM4 */
 918:Generated_Source\PSoC6\pdl\drivers/peripheral/syspm/cy_syspm.h ****     #define CY_SYSPM_CM4_PWR_RETAINED        (2UL)
 919:Generated_Source\PSoC6\pdl\drivers/peripheral/syspm/cy_syspm.h ****     
 920:Generated_Source\PSoC6\pdl\drivers/peripheral/syspm/cy_syspm.h **** #endif /* (0u != CY_IP_M4CPUSS) */
 921:Generated_Source\PSoC6\pdl\drivers/peripheral/syspm/cy_syspm.h **** 
 922:Generated_Source\PSoC6\pdl\drivers/peripheral/syspm/cy_syspm.h **** /** The CM0 is Active */
 923:Generated_Source\PSoC6\pdl\drivers/peripheral/syspm/cy_syspm.h **** #define CY_SYSPM_STATUS_CM0_ACTIVE       ((uint32_t) ((uint32_t)0x01U << 8U))
 924:Generated_Source\PSoC6\pdl\drivers/peripheral/syspm/cy_syspm.h **** 
 925:Generated_Source\PSoC6\pdl\drivers/peripheral/syspm/cy_syspm.h **** /** The CM0 is in Sleep */
 926:Generated_Source\PSoC6\pdl\drivers/peripheral/syspm/cy_syspm.h **** #define CY_SYSPM_STATUS_CM0_SLEEP        ((uint32_t) ((uint32_t)0x02U << 8U))
 927:Generated_Source\PSoC6\pdl\drivers/peripheral/syspm/cy_syspm.h **** 
 928:Generated_Source\PSoC6\pdl\drivers/peripheral/syspm/cy_syspm.h **** /** The CM0 is in Deep Sleep */
 929:Generated_Source\PSoC6\pdl\drivers/peripheral/syspm/cy_syspm.h **** #define CY_SYSPM_STATUS_CM0_DEEPSLEEP    ((uint32_t) ((uint32_t)0x04U << 8U))
 930:Generated_Source\PSoC6\pdl\drivers/peripheral/syspm/cy_syspm.h **** 
 931:Generated_Source\PSoC6\pdl\drivers/peripheral/syspm/cy_syspm.h **** /** The CM0 is in Low-Power mode */
 932:Generated_Source\PSoC6\pdl\drivers/peripheral/syspm/cy_syspm.h **** #define CY_SYSPM_STATUS_CM0_LOWPOWER     ((uint32_t) ((uint32_t)0x80U << 8U))
 933:Generated_Source\PSoC6\pdl\drivers/peripheral/syspm/cy_syspm.h **** 
 934:Generated_Source\PSoC6\pdl\drivers/peripheral/syspm/cy_syspm.h **** #if(0u != CY_IP_M4CPUSS)
 935:Generated_Source\PSoC6\pdl\drivers/peripheral/syspm/cy_syspm.h **** 
ARM GAS  C:\Users\salaz\AppData\Local\Temp\cczs20OJ.s 			page 28


 936:Generated_Source\PSoC6\pdl\drivers/peripheral/syspm/cy_syspm.h ****     /** The device is in the Low-Power mode define */
 937:Generated_Source\PSoC6\pdl\drivers/peripheral/syspm/cy_syspm.h ****     #define CY_SYSPM_STATUS_SYSTEM_LOWPOWER    ((uint32_t) (CY_SYSPM_STATUS_CM0_LOWPOWER | \
 938:Generated_Source\PSoC6\pdl\drivers/peripheral/syspm/cy_syspm.h ****                                                            (CY_SYSPM_STATUS_CM4_LOWPOWER)))
 939:Generated_Source\PSoC6\pdl\drivers/peripheral/syspm/cy_syspm.h **** #else
 940:Generated_Source\PSoC6\pdl\drivers/peripheral/syspm/cy_syspm.h ****     /** The device is in the Low-Power mode define */
 941:Generated_Source\PSoC6\pdl\drivers/peripheral/syspm/cy_syspm.h ****     #define CY_SYSPM_STATUS_SYSTEM_LOWPOWER    CY_SYSPM_STATUS_CM0_LOWPOWER
 942:Generated_Source\PSoC6\pdl\drivers/peripheral/syspm/cy_syspm.h **** 
 943:Generated_Source\PSoC6\pdl\drivers/peripheral/syspm/cy_syspm.h **** #endif /* (0u != CY_IP_M4CPUSS) */
 944:Generated_Source\PSoC6\pdl\drivers/peripheral/syspm/cy_syspm.h **** /** \} group_syspm_return_status */
 945:Generated_Source\PSoC6\pdl\drivers/peripheral/syspm/cy_syspm.h **** 
 946:Generated_Source\PSoC6\pdl\drivers/peripheral/syspm/cy_syspm.h **** /** \} group_syspm_macros */
 947:Generated_Source\PSoC6\pdl\drivers/peripheral/syspm/cy_syspm.h **** 
 948:Generated_Source\PSoC6\pdl\drivers/peripheral/syspm/cy_syspm.h **** /*******************************************************************************
 949:Generated_Source\PSoC6\pdl\drivers/peripheral/syspm/cy_syspm.h **** *       Configuration Structures
 950:Generated_Source\PSoC6\pdl\drivers/peripheral/syspm/cy_syspm.h **** *******************************************************************************/
 951:Generated_Source\PSoC6\pdl\drivers/peripheral/syspm/cy_syspm.h **** 
 952:Generated_Source\PSoC6\pdl\drivers/peripheral/syspm/cy_syspm.h **** /**
 953:Generated_Source\PSoC6\pdl\drivers/peripheral/syspm/cy_syspm.h **** * \addtogroup group_syspm_data_enumerates
 954:Generated_Source\PSoC6\pdl\drivers/peripheral/syspm/cy_syspm.h **** * \{
 955:Generated_Source\PSoC6\pdl\drivers/peripheral/syspm/cy_syspm.h **** */
 956:Generated_Source\PSoC6\pdl\drivers/peripheral/syspm/cy_syspm.h **** 
 957:Generated_Source\PSoC6\pdl\drivers/peripheral/syspm/cy_syspm.h **** /** The SysPm status definitions */
 958:Generated_Source\PSoC6\pdl\drivers/peripheral/syspm/cy_syspm.h **** typedef enum
 959:Generated_Source\PSoC6\pdl\drivers/peripheral/syspm/cy_syspm.h **** {
 960:Generated_Source\PSoC6\pdl\drivers/peripheral/syspm/cy_syspm.h ****     CY_SYSPM_SUCCESS        = 0x00U,                                        /**< Successful */
 961:Generated_Source\PSoC6\pdl\drivers/peripheral/syspm/cy_syspm.h ****     CY_SYSPM_BAD_PARAM      = CY_SYSPM_ID | CY_PDL_STATUS_ERROR | 0x01U,    /**< One or more invali
 962:Generated_Source\PSoC6\pdl\drivers/peripheral/syspm/cy_syspm.h ****     CY_SYSPM_TIMEOUT        = CY_SYSPM_ID | CY_PDL_STATUS_ERROR | 0x02U,    /**< A time-out occurs 
 963:Generated_Source\PSoC6\pdl\drivers/peripheral/syspm/cy_syspm.h ****     CY_SYSPM_INVALID_STATE  = CY_SYSPM_ID | CY_PDL_STATUS_ERROR | 0x03U,    /**< The operation is n
 964:Generated_Source\PSoC6\pdl\drivers/peripheral/syspm/cy_syspm.h ****                                                                                  improper state */
 965:Generated_Source\PSoC6\pdl\drivers/peripheral/syspm/cy_syspm.h ****     CY_SYSPM_CANCELED       = CY_SYSPM_ID | CY_PDL_STATUS_ERROR | 0x04U,    /**< Operation canceled
 966:Generated_Source\PSoC6\pdl\drivers/peripheral/syspm/cy_syspm.h ****     CY_SYSPM_FAIL           = CY_SYSPM_ID | CY_PDL_STATUS_ERROR | 0xFFU     /**< An unknown failure
 967:Generated_Source\PSoC6\pdl\drivers/peripheral/syspm/cy_syspm.h **** } cy_en_syspm_status_t;
 968:Generated_Source\PSoC6\pdl\drivers/peripheral/syspm/cy_syspm.h **** 
 969:Generated_Source\PSoC6\pdl\drivers/peripheral/syspm/cy_syspm.h **** /**
 970:Generated_Source\PSoC6\pdl\drivers/peripheral/syspm/cy_syspm.h **** * This enumeration is used to initialize a wait action - an interrupt or
 971:Generated_Source\PSoC6\pdl\drivers/peripheral/syspm/cy_syspm.h **** * an event. Refer to the CMSIS for the WFE and WFI instruction explanations.
 972:Generated_Source\PSoC6\pdl\drivers/peripheral/syspm/cy_syspm.h **** */
 973:Generated_Source\PSoC6\pdl\drivers/peripheral/syspm/cy_syspm.h **** typedef enum
 974:Generated_Source\PSoC6\pdl\drivers/peripheral/syspm/cy_syspm.h **** {
 975:Generated_Source\PSoC6\pdl\drivers/peripheral/syspm/cy_syspm.h ****     CY_SYSPM_WAIT_FOR_INTERRUPT,      /**< Wait for an interrupt */
 976:Generated_Source\PSoC6\pdl\drivers/peripheral/syspm/cy_syspm.h ****     CY_SYSPM_WAIT_FOR_EVENT           /**< Wait for an event */
 977:Generated_Source\PSoC6\pdl\drivers/peripheral/syspm/cy_syspm.h **** } cy_en_syspm_waitfor_t;
 978:Generated_Source\PSoC6\pdl\drivers/peripheral/syspm/cy_syspm.h **** 
 979:Generated_Source\PSoC6\pdl\drivers/peripheral/syspm/cy_syspm.h **** /** This enumeration is used to configure sources for wakeup from the Hibernate 
 980:Generated_Source\PSoC6\pdl\drivers/peripheral/syspm/cy_syspm.h **** *   power mode
 981:Generated_Source\PSoC6\pdl\drivers/peripheral/syspm/cy_syspm.h **** */
 982:Generated_Source\PSoC6\pdl\drivers/peripheral/syspm/cy_syspm.h **** typedef enum
 983:Generated_Source\PSoC6\pdl\drivers/peripheral/syspm/cy_syspm.h **** {
 984:Generated_Source\PSoC6\pdl\drivers/peripheral/syspm/cy_syspm.h ****     /** Configure a low level for the first LPComp */
 985:Generated_Source\PSoC6\pdl\drivers/peripheral/syspm/cy_syspm.h ****     CY_SYSPM_HIBERNATE_LPCOMP0_LOW = 
 986:Generated_Source\PSoC6\pdl\drivers/peripheral/syspm/cy_syspm.h ****     ((uint32_t) CY_SYSPM_WAKEUP_LPCOMP0_BIT << SRSS_PWR_HIBERNATE_MASK_HIBPIN_Pos),
 987:Generated_Source\PSoC6\pdl\drivers/peripheral/syspm/cy_syspm.h **** 
 988:Generated_Source\PSoC6\pdl\drivers/peripheral/syspm/cy_syspm.h ****     /** Configure a high level for the first LPComp */
 989:Generated_Source\PSoC6\pdl\drivers/peripheral/syspm/cy_syspm.h ****     CY_SYSPM_HIBERNATE_LPCOMP0_HIGH = 
 990:Generated_Source\PSoC6\pdl\drivers/peripheral/syspm/cy_syspm.h ****     ((uint32_t) ((uint32_t) CY_SYSPM_WAKEUP_LPCOMP0_BIT << SRSS_PWR_HIBERNATE_POLARITY_HIBPIN_Pos) 
 991:Generated_Source\PSoC6\pdl\drivers/peripheral/syspm/cy_syspm.h ****                 ((uint32_t) CY_SYSPM_WAKEUP_LPCOMP0_BIT << SRSS_PWR_HIBERNATE_MASK_HIBPIN_Pos)),
 992:Generated_Source\PSoC6\pdl\drivers/peripheral/syspm/cy_syspm.h **** 
ARM GAS  C:\Users\salaz\AppData\Local\Temp\cczs20OJ.s 			page 29


 993:Generated_Source\PSoC6\pdl\drivers/peripheral/syspm/cy_syspm.h ****      /** Configure a low level for the second LPComp */
 994:Generated_Source\PSoC6\pdl\drivers/peripheral/syspm/cy_syspm.h ****     CY_SYSPM_HIBERNATE_LPCOMP1_LOW = ((uint32_t) CY_SYSPM_WAKEUP_LPCOMP1_BIT << SRSS_PWR_HIBERNATE_
 995:Generated_Source\PSoC6\pdl\drivers/peripheral/syspm/cy_syspm.h ****     
 996:Generated_Source\PSoC6\pdl\drivers/peripheral/syspm/cy_syspm.h ****     /** Configure a high level for the second LPComp */
 997:Generated_Source\PSoC6\pdl\drivers/peripheral/syspm/cy_syspm.h ****     CY_SYSPM_HIBERNATE_LPCOMP1_HIGH =
 998:Generated_Source\PSoC6\pdl\drivers/peripheral/syspm/cy_syspm.h ****     ((uint32_t) ((uint32_t) CY_SYSPM_WAKEUP_LPCOMP1_BIT << SRSS_PWR_HIBERNATE_POLARITY_HIBPIN_Pos) 
 999:Generated_Source\PSoC6\pdl\drivers/peripheral/syspm/cy_syspm.h ****                 ((uint32_t) CY_SYSPM_WAKEUP_LPCOMP1_BIT << SRSS_PWR_HIBERNATE_MASK_HIBPIN_Pos)),
1000:Generated_Source\PSoC6\pdl\drivers/peripheral/syspm/cy_syspm.h **** 
1001:Generated_Source\PSoC6\pdl\drivers/peripheral/syspm/cy_syspm.h ****     /** Configure the RTC alarm */
1002:Generated_Source\PSoC6\pdl\drivers/peripheral/syspm/cy_syspm.h ****     CY_SYSPM_HIBERNATE_RTC_ALARM = SRSS_PWR_HIBERNATE_MASK_HIBALARM_Msk,
1003:Generated_Source\PSoC6\pdl\drivers/peripheral/syspm/cy_syspm.h ****     
1004:Generated_Source\PSoC6\pdl\drivers/peripheral/syspm/cy_syspm.h ****     /** Configure the WDT interrupt */
1005:Generated_Source\PSoC6\pdl\drivers/peripheral/syspm/cy_syspm.h ****     CY_SYSPM_HIBERNATE_WDT = SRSS_PWR_HIBERNATE_MASK_HIBWDT_Msk,
1006:Generated_Source\PSoC6\pdl\drivers/peripheral/syspm/cy_syspm.h **** 
1007:Generated_Source\PSoC6\pdl\drivers/peripheral/syspm/cy_syspm.h ****     /** Configure a low level for the first wakeup-pin */
1008:Generated_Source\PSoC6\pdl\drivers/peripheral/syspm/cy_syspm.h ****     CY_SYSPM_HIBERNATE_PIN0_LOW = ((uint32_t) CY_SYSPM_WAKEUP_PIN0_BIT << SRSS_PWR_HIBERNATE_MASK_H
1009:Generated_Source\PSoC6\pdl\drivers/peripheral/syspm/cy_syspm.h ****     
1010:Generated_Source\PSoC6\pdl\drivers/peripheral/syspm/cy_syspm.h ****     /** Configure a high level for the first wakeup-pin */
1011:Generated_Source\PSoC6\pdl\drivers/peripheral/syspm/cy_syspm.h ****     CY_SYSPM_HIBERNATE_PIN0_HIGH =
1012:Generated_Source\PSoC6\pdl\drivers/peripheral/syspm/cy_syspm.h ****     ((uint32_t) ((uint32_t) CY_SYSPM_WAKEUP_PIN0_BIT << SRSS_PWR_HIBERNATE_POLARITY_HIBPIN_Pos) | 
1013:Generated_Source\PSoC6\pdl\drivers/peripheral/syspm/cy_syspm.h ****                 ((uint32_t) CY_SYSPM_WAKEUP_PIN0_BIT << SRSS_PWR_HIBERNATE_MASK_HIBPIN_Pos)),
1014:Generated_Source\PSoC6\pdl\drivers/peripheral/syspm/cy_syspm.h **** 
1015:Generated_Source\PSoC6\pdl\drivers/peripheral/syspm/cy_syspm.h ****     /** Configure a low level for the second wakeup-pin */
1016:Generated_Source\PSoC6\pdl\drivers/peripheral/syspm/cy_syspm.h ****     CY_SYSPM_HIBERNATE_PIN1_LOW = ((uint32_t) CY_SYSPM_WAKEUP_PIN1_BIT << SRSS_PWR_HIBERNATE_MASK_H
1017:Generated_Source\PSoC6\pdl\drivers/peripheral/syspm/cy_syspm.h ****     
1018:Generated_Source\PSoC6\pdl\drivers/peripheral/syspm/cy_syspm.h ****    /** Configure a high level for the second wakeup-pin */
1019:Generated_Source\PSoC6\pdl\drivers/peripheral/syspm/cy_syspm.h ****     CY_SYSPM_HIBERNATE_PIN1_HIGH =
1020:Generated_Source\PSoC6\pdl\drivers/peripheral/syspm/cy_syspm.h ****     ((uint32_t) ((uint32_t) CY_SYSPM_WAKEUP_PIN1_BIT << SRSS_PWR_HIBERNATE_POLARITY_HIBPIN_Pos) | 
1021:Generated_Source\PSoC6\pdl\drivers/peripheral/syspm/cy_syspm.h ****                 ((uint32_t) CY_SYSPM_WAKEUP_PIN1_BIT << SRSS_PWR_HIBERNATE_MASK_HIBPIN_Pos)),
1022:Generated_Source\PSoC6\pdl\drivers/peripheral/syspm/cy_syspm.h **** } cy_en_syspm_hibernate_wakeup_source_t;
1023:Generated_Source\PSoC6\pdl\drivers/peripheral/syspm/cy_syspm.h **** 
1024:Generated_Source\PSoC6\pdl\drivers/peripheral/syspm/cy_syspm.h **** /** The enumeration is used to select output voltage for the LDO */
1025:Generated_Source\PSoC6\pdl\drivers/peripheral/syspm/cy_syspm.h **** typedef enum
1026:Generated_Source\PSoC6\pdl\drivers/peripheral/syspm/cy_syspm.h **** {
1027:Generated_Source\PSoC6\pdl\drivers/peripheral/syspm/cy_syspm.h ****     CY_SYSPM_LDO_VOLTAGE_0_9V,       /**< 0.9 V nominal LDO voltage */
1028:Generated_Source\PSoC6\pdl\drivers/peripheral/syspm/cy_syspm.h ****     CY_SYSPM_LDO_VOLTAGE_1_1V        /**< 1.1 V nominal LDO voltage */
1029:Generated_Source\PSoC6\pdl\drivers/peripheral/syspm/cy_syspm.h **** } cy_en_syspm_ldo_voltage_t;
1030:Generated_Source\PSoC6\pdl\drivers/peripheral/syspm/cy_syspm.h **** 
1031:Generated_Source\PSoC6\pdl\drivers/peripheral/syspm/cy_syspm.h **** #if(0u != SRSS_BUCKCTL_PRESENT)
1032:Generated_Source\PSoC6\pdl\drivers/peripheral/syspm/cy_syspm.h **** 
1033:Generated_Source\PSoC6\pdl\drivers/peripheral/syspm/cy_syspm.h ****     /**
1034:Generated_Source\PSoC6\pdl\drivers/peripheral/syspm/cy_syspm.h ****     *  The enumeration is used to select the output voltage for the Buck 
1035:Generated_Source\PSoC6\pdl\drivers/peripheral/syspm/cy_syspm.h ****     *  output 1, which can supply a core(s).
1036:Generated_Source\PSoC6\pdl\drivers/peripheral/syspm/cy_syspm.h ****     */
1037:Generated_Source\PSoC6\pdl\drivers/peripheral/syspm/cy_syspm.h ****     typedef enum
1038:Generated_Source\PSoC6\pdl\drivers/peripheral/syspm/cy_syspm.h ****     {
1039:Generated_Source\PSoC6\pdl\drivers/peripheral/syspm/cy_syspm.h ****         CY_SYSPM_BUCK_OUT1_VOLTAGE_0_9V = 0x02U,    /**< 0.9 V nominal Buck voltage */
1040:Generated_Source\PSoC6\pdl\drivers/peripheral/syspm/cy_syspm.h ****         CY_SYSPM_BUCK_OUT1_VOLTAGE_1_1V = 0x05U     /**< 1.1 V nominal Buck voltage */
1041:Generated_Source\PSoC6\pdl\drivers/peripheral/syspm/cy_syspm.h ****     } cy_en_syspm_buck_voltage1_t;
1042:Generated_Source\PSoC6\pdl\drivers/peripheral/syspm/cy_syspm.h **** 
1043:Generated_Source\PSoC6\pdl\drivers/peripheral/syspm/cy_syspm.h ****     /**
1044:Generated_Source\PSoC6\pdl\drivers/peripheral/syspm/cy_syspm.h ****     * The enumerations are used to select the Buck regulator outputs
1045:Generated_Source\PSoC6\pdl\drivers/peripheral/syspm/cy_syspm.h ****     */
1046:Generated_Source\PSoC6\pdl\drivers/peripheral/syspm/cy_syspm.h ****     typedef enum
1047:Generated_Source\PSoC6\pdl\drivers/peripheral/syspm/cy_syspm.h ****     {
1048:Generated_Source\PSoC6\pdl\drivers/peripheral/syspm/cy_syspm.h ****         CY_SYSPM_BUCK_VBUCK_1,    /**< Buck output 1 Voltage (Vbuck1) */
1049:Generated_Source\PSoC6\pdl\drivers/peripheral/syspm/cy_syspm.h ****         CY_SYSPM_BUCK_VRF         /**< Buck out 2 Voltage (Vbuckrf) */
ARM GAS  C:\Users\salaz\AppData\Local\Temp\cczs20OJ.s 			page 30


1050:Generated_Source\PSoC6\pdl\drivers/peripheral/syspm/cy_syspm.h ****     } cy_en_syspm_buck_out_t;
1051:Generated_Source\PSoC6\pdl\drivers/peripheral/syspm/cy_syspm.h **** 
1052:Generated_Source\PSoC6\pdl\drivers/peripheral/syspm/cy_syspm.h ****     #if(0u != SRSS_SIMOBUCK_PRESENT)
1053:Generated_Source\PSoC6\pdl\drivers/peripheral/syspm/cy_syspm.h **** 
1054:Generated_Source\PSoC6\pdl\drivers/peripheral/syspm/cy_syspm.h ****         /**
1055:Generated_Source\PSoC6\pdl\drivers/peripheral/syspm/cy_syspm.h ****         * The enumeration is used to select the output voltage for the Buck 
1056:Generated_Source\PSoC6\pdl\drivers/peripheral/syspm/cy_syspm.h ****         * output 2, which can source the BLE HW block.
1057:Generated_Source\PSoC6\pdl\drivers/peripheral/syspm/cy_syspm.h ****         */
1058:Generated_Source\PSoC6\pdl\drivers/peripheral/syspm/cy_syspm.h ****         typedef enum
1059:Generated_Source\PSoC6\pdl\drivers/peripheral/syspm/cy_syspm.h ****         {
1060:Generated_Source\PSoC6\pdl\drivers/peripheral/syspm/cy_syspm.h ****             CY_SYSPM_BUCK_OUT2_VOLTAGE_1_15V = 0U,    /**< 1.15 V nominal voltage */
1061:Generated_Source\PSoC6\pdl\drivers/peripheral/syspm/cy_syspm.h ****             CY_SYSPM_BUCK_OUT2_VOLTAGE_1_2V  = 1U,    /**< 1.20 V nominal voltage */
1062:Generated_Source\PSoC6\pdl\drivers/peripheral/syspm/cy_syspm.h ****             CY_SYSPM_BUCK_OUT2_VOLTAGE_1_25V = 2U,    /**< 1.25 V nominal voltage */
1063:Generated_Source\PSoC6\pdl\drivers/peripheral/syspm/cy_syspm.h ****             CY_SYSPM_BUCK_OUT2_VOLTAGE_1_3V  = 3U,    /**< 1.3 V nominal voltage  */
1064:Generated_Source\PSoC6\pdl\drivers/peripheral/syspm/cy_syspm.h ****             CY_SYSPM_BUCK_OUT2_VOLTAGE_1_35V = 4U,    /**< 1.35 V nominal voltage */
1065:Generated_Source\PSoC6\pdl\drivers/peripheral/syspm/cy_syspm.h ****             CY_SYSPM_BUCK_OUT2_VOLTAGE_1_4V  = 5U,    /**< 1.4 V nominal voltage */
1066:Generated_Source\PSoC6\pdl\drivers/peripheral/syspm/cy_syspm.h ****             CY_SYSPM_BUCK_OUT2_VOLTAGE_1_45V = 6U,    /**< 1.45 V nominal voltage */
1067:Generated_Source\PSoC6\pdl\drivers/peripheral/syspm/cy_syspm.h ****             CY_SYSPM_BUCK_OUT2_VOLTAGE_1_5V  = 7U     /**< 1.5 V nominal voltage */
1068:Generated_Source\PSoC6\pdl\drivers/peripheral/syspm/cy_syspm.h ****         } cy_en_syspm_buck_voltage2_t;
1069:Generated_Source\PSoC6\pdl\drivers/peripheral/syspm/cy_syspm.h **** 
1070:Generated_Source\PSoC6\pdl\drivers/peripheral/syspm/cy_syspm.h ****     #endif /* (0u != SRSS_SIMOBUCK_PRESENT) */
1071:Generated_Source\PSoC6\pdl\drivers/peripheral/syspm/cy_syspm.h **** #endif /* (0u != SRSS_BUCKCTL_PRESENT) */
1072:Generated_Source\PSoC6\pdl\drivers/peripheral/syspm/cy_syspm.h **** 
1073:Generated_Source\PSoC6\pdl\drivers/peripheral/syspm/cy_syspm.h **** /**
1074:Generated_Source\PSoC6\pdl\drivers/peripheral/syspm/cy_syspm.h **** * This enumeration is used to set a polarity for the PMIC input. The PMIC is 
1075:Generated_Source\PSoC6\pdl\drivers/peripheral/syspm/cy_syspm.h **** * automatically enabled when configured polarity of PMIC input and the polarity
1076:Generated_Source\PSoC6\pdl\drivers/peripheral/syspm/cy_syspm.h **** * driven to pmic_wakeup_in pin matches.
1077:Generated_Source\PSoC6\pdl\drivers/peripheral/syspm/cy_syspm.h **** *
1078:Generated_Source\PSoC6\pdl\drivers/peripheral/syspm/cy_syspm.h **** * \warning 
1079:Generated_Source\PSoC6\pdl\drivers/peripheral/syspm/cy_syspm.h **** * Do not use CY_SYSPM_PMIC_POLARITY_LOW as it is not supported by hardware.
1080:Generated_Source\PSoC6\pdl\drivers/peripheral/syspm/cy_syspm.h **** */
1081:Generated_Source\PSoC6\pdl\drivers/peripheral/syspm/cy_syspm.h **** typedef enum
1082:Generated_Source\PSoC6\pdl\drivers/peripheral/syspm/cy_syspm.h **** {
1083:Generated_Source\PSoC6\pdl\drivers/peripheral/syspm/cy_syspm.h ****     CY_SYSPM_PMIC_POLARITY_LOW   = 0U,    /**< Set active low state for the PMIC input */
1084:Generated_Source\PSoC6\pdl\drivers/peripheral/syspm/cy_syspm.h ****     CY_SYSPM_PMIC_POLARITY_HIGH  = 1U     /**< Set active high state for the PMIC input */
1085:Generated_Source\PSoC6\pdl\drivers/peripheral/syspm/cy_syspm.h **** } cy_en_syspm_pmic_wakeup_polarity_t;
1086:Generated_Source\PSoC6\pdl\drivers/peripheral/syspm/cy_syspm.h **** 
1087:Generated_Source\PSoC6\pdl\drivers/peripheral/syspm/cy_syspm.h **** /**
1088:Generated_Source\PSoC6\pdl\drivers/peripheral/syspm/cy_syspm.h **** * This enumeration sets a switch to select  Vbackup or Vddd to supply Vddbackup
1089:Generated_Source\PSoC6\pdl\drivers/peripheral/syspm/cy_syspm.h **** */
1090:Generated_Source\PSoC6\pdl\drivers/peripheral/syspm/cy_syspm.h **** typedef enum
1091:Generated_Source\PSoC6\pdl\drivers/peripheral/syspm/cy_syspm.h **** {
1092:Generated_Source\PSoC6\pdl\drivers/peripheral/syspm/cy_syspm.h ****     CY_SYSPM_VDDBACKUP_DEFAULT         = 0U,    /**< Automatically selects Vddd or Vbackup to suppl
1093:Generated_Source\PSoC6\pdl\drivers/peripheral/syspm/cy_syspm.h ****                                                      Vddbackup */
1094:Generated_Source\PSoC6\pdl\drivers/peripheral/syspm/cy_syspm.h ****     CY_SYSPM_VDDBACKUP_VBACKUP         = 2U     /**< Set Vbackup to supply Vddbackup */
1095:Generated_Source\PSoC6\pdl\drivers/peripheral/syspm/cy_syspm.h **** } cy_en_syspm_vddbackup_control_t;
1096:Generated_Source\PSoC6\pdl\drivers/peripheral/syspm/cy_syspm.h **** 
1097:Generated_Source\PSoC6\pdl\drivers/peripheral/syspm/cy_syspm.h **** /**
1098:Generated_Source\PSoC6\pdl\drivers/peripheral/syspm/cy_syspm.h **** * This enumeration configures supercapacitor charging.
1099:Generated_Source\PSoC6\pdl\drivers/peripheral/syspm/cy_syspm.h **** */
1100:Generated_Source\PSoC6\pdl\drivers/peripheral/syspm/cy_syspm.h **** typedef enum
1101:Generated_Source\PSoC6\pdl\drivers/peripheral/syspm/cy_syspm.h **** {
1102:Generated_Source\PSoC6\pdl\drivers/peripheral/syspm/cy_syspm.h ****     CY_SYSPM_SC_CHARGE_ENABLE     = 0x3CU,    /**< Enables supercapacitor charging */
1103:Generated_Source\PSoC6\pdl\drivers/peripheral/syspm/cy_syspm.h ****     CY_SYSPM_SC_CHARGE_DISABLE    = 0x00U     /**< Disables supercapacitor charging */
1104:Generated_Source\PSoC6\pdl\drivers/peripheral/syspm/cy_syspm.h **** } cy_en_syspm_sc_charge_key_t;
1105:Generated_Source\PSoC6\pdl\drivers/peripheral/syspm/cy_syspm.h **** 
1106:Generated_Source\PSoC6\pdl\drivers/peripheral/syspm/cy_syspm.h **** /**
ARM GAS  C:\Users\salaz\AppData\Local\Temp\cczs20OJ.s 			page 31


1107:Generated_Source\PSoC6\pdl\drivers/peripheral/syspm/cy_syspm.h **** * This enumeration is used for selecting the low power mode on which the
1108:Generated_Source\PSoC6\pdl\drivers/peripheral/syspm/cy_syspm.h **** * appropriate registered callback handler will be executed. For example,
1109:Generated_Source\PSoC6\pdl\drivers/peripheral/syspm/cy_syspm.h **** * the registered callback of the type CY_SYSPM_SLEEP will be executed while
1110:Generated_Source\PSoC6\pdl\drivers/peripheral/syspm/cy_syspm.h **** * switching into the Sleep power mode.
1111:Generated_Source\PSoC6\pdl\drivers/peripheral/syspm/cy_syspm.h **** */
1112:Generated_Source\PSoC6\pdl\drivers/peripheral/syspm/cy_syspm.h **** typedef enum
1113:Generated_Source\PSoC6\pdl\drivers/peripheral/syspm/cy_syspm.h **** {
1114:Generated_Source\PSoC6\pdl\drivers/peripheral/syspm/cy_syspm.h ****     CY_SYSPM_SLEEP,          /**< The Sleep enum callback type */
1115:Generated_Source\PSoC6\pdl\drivers/peripheral/syspm/cy_syspm.h ****     CY_SYSPM_DEEPSLEEP,      /**< The Deep Sleep enum callback type */
1116:Generated_Source\PSoC6\pdl\drivers/peripheral/syspm/cy_syspm.h ****     CY_SYSPM_HIBERNATE,      /**< The Hibernate enum callback type */
1117:Generated_Source\PSoC6\pdl\drivers/peripheral/syspm/cy_syspm.h ****     CY_SYSPM_ENTER_LOWPOWER_MODE,  /**< The enter into the LPActive mode enum callback type */
1118:Generated_Source\PSoC6\pdl\drivers/peripheral/syspm/cy_syspm.h ****     CY_SYSPM_EXIT_LOWPOWER_MODE,   /**< The exit out of the LPActive mode enum callback type */
1119:Generated_Source\PSoC6\pdl\drivers/peripheral/syspm/cy_syspm.h **** } cy_en_syspm_callback_type_t;
1120:Generated_Source\PSoC6\pdl\drivers/peripheral/syspm/cy_syspm.h **** 
1121:Generated_Source\PSoC6\pdl\drivers/peripheral/syspm/cy_syspm.h **** /** The callback mode enumeration. This enum defines the callback mode */
1122:Generated_Source\PSoC6\pdl\drivers/peripheral/syspm/cy_syspm.h **** typedef enum
1123:Generated_Source\PSoC6\pdl\drivers/peripheral/syspm/cy_syspm.h **** {
1124:Generated_Source\PSoC6\pdl\drivers/peripheral/syspm/cy_syspm.h ****     CY_SYSPM_CHECK_READY        = 0x01U,    /**< Callbacks with this mode are executed before enter
1125:Generated_Source\PSoC6\pdl\drivers/peripheral/syspm/cy_syspm.h ****                                                  low-power mode. Callback function check if the dev
1126:Generated_Source\PSoC6\pdl\drivers/peripheral/syspm/cy_syspm.h ****                                                  to enter the low-power mode */
1127:Generated_Source\PSoC6\pdl\drivers/peripheral/syspm/cy_syspm.h ****     CY_SYSPM_CHECK_FAIL         = 0x02U,    /**< Callbacks with this mode are executed after the pr
1128:Generated_Source\PSoC6\pdl\drivers/peripheral/syspm/cy_syspm.h ****                                                  execution with CY_SYSPM_CHECK_READY return CY_SYSP
1129:Generated_Source\PSoC6\pdl\drivers/peripheral/syspm/cy_syspm.h ****                                                  with the CY_SYSPM_CHECK_FAIL mode should roll back
1130:Generated_Source\PSoC6\pdl\drivers/peripheral/syspm/cy_syspm.h ****                                                  the callbacks executed previously with CY_SYSPM_CH
1131:Generated_Source\PSoC6\pdl\drivers/peripheral/syspm/cy_syspm.h ****     CY_SYSPM_BEFORE_TRANSITION  = 0x04U,    /**< The actions to be done before entering into the lo
1132:Generated_Source\PSoC6\pdl\drivers/peripheral/syspm/cy_syspm.h ****     CY_SYSPM_AFTER_TRANSITION   = 0x08U,    /**< The actions to be done after exiting the low-power
1133:Generated_Source\PSoC6\pdl\drivers/peripheral/syspm/cy_syspm.h **** } cy_en_syspm_callback_mode_t;
1134:Generated_Source\PSoC6\pdl\drivers/peripheral/syspm/cy_syspm.h **** 
1135:Generated_Source\PSoC6\pdl\drivers/peripheral/syspm/cy_syspm.h **** /** \} group_syspm_data_enumerates */
1136:Generated_Source\PSoC6\pdl\drivers/peripheral/syspm/cy_syspm.h **** 
1137:Generated_Source\PSoC6\pdl\drivers/peripheral/syspm/cy_syspm.h **** /**
1138:Generated_Source\PSoC6\pdl\drivers/peripheral/syspm/cy_syspm.h **** * \addtogroup group_syspm_macros
1139:Generated_Source\PSoC6\pdl\drivers/peripheral/syspm/cy_syspm.h **** * \{
1140:Generated_Source\PSoC6\pdl\drivers/peripheral/syspm/cy_syspm.h **** */
1141:Generated_Source\PSoC6\pdl\drivers/peripheral/syspm/cy_syspm.h **** /**
1142:Generated_Source\PSoC6\pdl\drivers/peripheral/syspm/cy_syspm.h **** * \defgroup group_syspm_skip_callback_modes The Defines to skip the callbacks modes
1143:Generated_Source\PSoC6\pdl\drivers/peripheral/syspm/cy_syspm.h **** * \{
1144:Generated_Source\PSoC6\pdl\drivers/peripheral/syspm/cy_syspm.h **** * The defines of the SysPm callbacks modes that can be skipped during execution.
1145:Generated_Source\PSoC6\pdl\drivers/peripheral/syspm/cy_syspm.h **** * For more information about callbacks modes refer 
1146:Generated_Source\PSoC6\pdl\drivers/peripheral/syspm/cy_syspm.h **** * to \ref cy_en_syspm_callback_mode_t.
1147:Generated_Source\PSoC6\pdl\drivers/peripheral/syspm/cy_syspm.h **** */
1148:Generated_Source\PSoC6\pdl\drivers/peripheral/syspm/cy_syspm.h **** #define CY_SYSPM_SKIP_CHECK_READY                   (0x01U)   /**< The define to skip the check rea
1149:Generated_Source\PSoC6\pdl\drivers/peripheral/syspm/cy_syspm.h **** #define CY_SYSPM_SKIP_CHECK_FAIL                    (0x02U)   /**< The define to skip the check fai
1150:Generated_Source\PSoC6\pdl\drivers/peripheral/syspm/cy_syspm.h **** #define CY_SYSPM_SKIP_BEFORE_TRANSITION             (0x04U)   /**< The define to skip the before tr
1151:Generated_Source\PSoC6\pdl\drivers/peripheral/syspm/cy_syspm.h **** #define CY_SYSPM_SKIP_AFTER_TRANSITION              (0x08U)   /**< The define to skip the after tra
1152:Generated_Source\PSoC6\pdl\drivers/peripheral/syspm/cy_syspm.h **** /** \} group_syspm_skip_callback_modes */
1153:Generated_Source\PSoC6\pdl\drivers/peripheral/syspm/cy_syspm.h **** /** \} group_syspm_macros */
1154:Generated_Source\PSoC6\pdl\drivers/peripheral/syspm/cy_syspm.h **** 
1155:Generated_Source\PSoC6\pdl\drivers/peripheral/syspm/cy_syspm.h **** /**
1156:Generated_Source\PSoC6\pdl\drivers/peripheral/syspm/cy_syspm.h **** * \addtogroup group_syspm_data_structures
1157:Generated_Source\PSoC6\pdl\drivers/peripheral/syspm/cy_syspm.h **** * \{
1158:Generated_Source\PSoC6\pdl\drivers/peripheral/syspm/cy_syspm.h **** */
1159:Generated_Source\PSoC6\pdl\drivers/peripheral/syspm/cy_syspm.h **** 
1160:Generated_Source\PSoC6\pdl\drivers/peripheral/syspm/cy_syspm.h **** /** The structure with the syspm callback parameters */
1161:Generated_Source\PSoC6\pdl\drivers/peripheral/syspm/cy_syspm.h **** typedef struct
1162:Generated_Source\PSoC6\pdl\drivers/peripheral/syspm/cy_syspm.h **** {
1163:Generated_Source\PSoC6\pdl\drivers/peripheral/syspm/cy_syspm.h ****     cy_en_syspm_callback_mode_t mode;   /**< The callback mode. You can skip assigning as this elem
ARM GAS  C:\Users\salaz\AppData\Local\Temp\cczs20OJ.s 			page 32


1164:Generated_Source\PSoC6\pdl\drivers/peripheral/syspm/cy_syspm.h ****                                              internal usage, see \ref cy_en_syspm_callback_mode_t. 
1165:Generated_Source\PSoC6\pdl\drivers/peripheral/syspm/cy_syspm.h ****                                              should not be defined as it is updated every time befo
1166:Generated_Source\PSoC6\pdl\drivers/peripheral/syspm/cy_syspm.h ****                                              callback function is executed */
1167:Generated_Source\PSoC6\pdl\drivers/peripheral/syspm/cy_syspm.h ****     void *base;                         /**< The base address of a HW instance, matches name of the
1168:Generated_Source\PSoC6\pdl\drivers/peripheral/syspm/cy_syspm.h ****                                              the API for the base address. Can be not defined if no
1169:Generated_Source\PSoC6\pdl\drivers/peripheral/syspm/cy_syspm.h ****     void *context;                      /**< The context for the handler function. This item can be
1170:Generated_Source\PSoC6\pdl\drivers/peripheral/syspm/cy_syspm.h ****                                              skipped if not required. Can be not defined if not req
1171:Generated_Source\PSoC6\pdl\drivers/peripheral/syspm/cy_syspm.h **** 
1172:Generated_Source\PSoC6\pdl\drivers/peripheral/syspm/cy_syspm.h **** } cy_stc_syspm_callback_params_t;
1173:Generated_Source\PSoC6\pdl\drivers/peripheral/syspm/cy_syspm.h **** 
1174:Generated_Source\PSoC6\pdl\drivers/peripheral/syspm/cy_syspm.h **** /** The type for syspm callbacks */
1175:Generated_Source\PSoC6\pdl\drivers/peripheral/syspm/cy_syspm.h **** typedef cy_en_syspm_status_t (*Cy_SysPmCallback) (cy_stc_syspm_callback_params_t *callbackParams);
1176:Generated_Source\PSoC6\pdl\drivers/peripheral/syspm/cy_syspm.h **** 
1177:Generated_Source\PSoC6\pdl\drivers/peripheral/syspm/cy_syspm.h **** /** The structure with the syspm callback configuration elements */
1178:Generated_Source\PSoC6\pdl\drivers/peripheral/syspm/cy_syspm.h **** typedef struct cy_stc_syspm_callback
1179:Generated_Source\PSoC6\pdl\drivers/peripheral/syspm/cy_syspm.h **** {
1180:Generated_Source\PSoC6\pdl\drivers/peripheral/syspm/cy_syspm.h ****     Cy_SysPmCallback callback;                         /**< The callback handler function */
1181:Generated_Source\PSoC6\pdl\drivers/peripheral/syspm/cy_syspm.h ****     cy_en_syspm_callback_type_t type;                  /**< The callback type, see \ref cy_en_syspm
1182:Generated_Source\PSoC6\pdl\drivers/peripheral/syspm/cy_syspm.h ****     uint32_t skipMode;                                 /**< The mask of modes to be skipped during 
1183:Generated_Source\PSoC6\pdl\drivers/peripheral/syspm/cy_syspm.h ****                                                              execution, see \ref group_syspm_skip_c
1184:Generated_Source\PSoC6\pdl\drivers/peripheral/syspm/cy_syspm.h ****                                                              corresponding callback mode won't exec
1185:Generated_Source\PSoC6\pdl\drivers/peripheral/syspm/cy_syspm.h ****                                                              appropriate define is set. These value
1186:Generated_Source\PSoC6\pdl\drivers/peripheral/syspm/cy_syspm.h ****                                                              If all modes are required to be execut
1187:Generated_Source\PSoC6\pdl\drivers/peripheral/syspm/cy_syspm.h ****                                                              should be equal to zero. */
1188:Generated_Source\PSoC6\pdl\drivers/peripheral/syspm/cy_syspm.h **** 
1189:Generated_Source\PSoC6\pdl\drivers/peripheral/syspm/cy_syspm.h ****     cy_stc_syspm_callback_params_t *callbackParams;    /**< The address of a cy_stc_syspm_callback_
1190:Generated_Source\PSoC6\pdl\drivers/peripheral/syspm/cy_syspm.h ****                                                             the callback is executed with these par
1191:Generated_Source\PSoC6\pdl\drivers/peripheral/syspm/cy_syspm.h **** 
1192:Generated_Source\PSoC6\pdl\drivers/peripheral/syspm/cy_syspm.h ****     struct cy_stc_syspm_callback *prevItm;              /**< The previous list item. This element s
1193:Generated_Source\PSoC6\pdl\drivers/peripheral/syspm/cy_syspm.h ****                                                              defined, or defined as NULL. It is for
1194:Generated_Source\PSoC6\pdl\drivers/peripheral/syspm/cy_syspm.h ****                                                              usage to link this structure to the ne
1195:Generated_Source\PSoC6\pdl\drivers/peripheral/syspm/cy_syspm.h ****                                                              It will be updated during callback reg
1196:Generated_Source\PSoC6\pdl\drivers/peripheral/syspm/cy_syspm.h ****                                                              modify this element in run-time */
1197:Generated_Source\PSoC6\pdl\drivers/peripheral/syspm/cy_syspm.h ****                                                              
1198:Generated_Source\PSoC6\pdl\drivers/peripheral/syspm/cy_syspm.h ****     struct cy_stc_syspm_callback *nextItm;              /**< The next list item. This element shoul
1199:Generated_Source\PSoC6\pdl\drivers/peripheral/syspm/cy_syspm.h ****                                                              defined, or defined as NULL. It is for
1200:Generated_Source\PSoC6\pdl\drivers/peripheral/syspm/cy_syspm.h ****                                                              link this structure to the previous re
1201:Generated_Source\PSoC6\pdl\drivers/peripheral/syspm/cy_syspm.h ****                                                              It will be updated during callback reg
1202:Generated_Source\PSoC6\pdl\drivers/peripheral/syspm/cy_syspm.h ****                                                              modify this element in run-time */
1203:Generated_Source\PSoC6\pdl\drivers/peripheral/syspm/cy_syspm.h **** } cy_stc_syspm_callback_t;
1204:Generated_Source\PSoC6\pdl\drivers/peripheral/syspm/cy_syspm.h **** 
1205:Generated_Source\PSoC6\pdl\drivers/peripheral/syspm/cy_syspm.h **** #ifdef CY_IP_MXUDB
1206:Generated_Source\PSoC6\pdl\drivers/peripheral/syspm/cy_syspm.h **** 
1207:Generated_Source\PSoC6\pdl\drivers/peripheral/syspm/cy_syspm.h ****     /** \cond INTERNAL */
1208:Generated_Source\PSoC6\pdl\drivers/peripheral/syspm/cy_syspm.h **** 
1209:Generated_Source\PSoC6\pdl\drivers/peripheral/syspm/cy_syspm.h ****     /** This internal structure stores non-retained registers in the Deep Sleep
1210:Generated_Source\PSoC6\pdl\drivers/peripheral/syspm/cy_syspm.h ****     *   power mode.
1211:Generated_Source\PSoC6\pdl\drivers/peripheral/syspm/cy_syspm.h ****     */
1212:Generated_Source\PSoC6\pdl\drivers/peripheral/syspm/cy_syspm.h ****     typedef struct
1213:Generated_Source\PSoC6\pdl\drivers/peripheral/syspm/cy_syspm.h ****     {
1214:Generated_Source\PSoC6\pdl\drivers/peripheral/syspm/cy_syspm.h ****         /* The UDB interface control register */
1215:Generated_Source\PSoC6\pdl\drivers/peripheral/syspm/cy_syspm.h ****         uint32_t CY_UDB_UDBIF_BANK_CTL_REG;
1216:Generated_Source\PSoC6\pdl\drivers/peripheral/syspm/cy_syspm.h **** 
1217:Generated_Source\PSoC6\pdl\drivers/peripheral/syspm/cy_syspm.h ****         /* The UDB bank control registers */
1218:Generated_Source\PSoC6\pdl\drivers/peripheral/syspm/cy_syspm.h ****         uint32_t CY_UDB_BCTL_MDCLK_EN_REG;
1219:Generated_Source\PSoC6\pdl\drivers/peripheral/syspm/cy_syspm.h ****         uint32_t CY_UDB_BCTL_MBCLK_EN_REG;
1220:Generated_Source\PSoC6\pdl\drivers/peripheral/syspm/cy_syspm.h ****         uint32_t CY_UDB_BCTL_BOTSEL_L_REG;
ARM GAS  C:\Users\salaz\AppData\Local\Temp\cczs20OJ.s 			page 33


1221:Generated_Source\PSoC6\pdl\drivers/peripheral/syspm/cy_syspm.h ****         uint32_t CY_UDB_BCTL_BOTSEL_U_REG;
1222:Generated_Source\PSoC6\pdl\drivers/peripheral/syspm/cy_syspm.h ****         uint32_t CY_UDB_BCTL_QCLK_EN0_REG;
1223:Generated_Source\PSoC6\pdl\drivers/peripheral/syspm/cy_syspm.h ****         uint32_t CY_UDB_BCTL_QCLK_EN1_REG;
1224:Generated_Source\PSoC6\pdl\drivers/peripheral/syspm/cy_syspm.h ****         uint32_t CY_UDB_BCTL_QCLK_EN2_REG;
1225:Generated_Source\PSoC6\pdl\drivers/peripheral/syspm/cy_syspm.h ****     } cy_stc_syspm_backup_regs_t;
1226:Generated_Source\PSoC6\pdl\drivers/peripheral/syspm/cy_syspm.h ****     /** \endcond */
1227:Generated_Source\PSoC6\pdl\drivers/peripheral/syspm/cy_syspm.h **** 
1228:Generated_Source\PSoC6\pdl\drivers/peripheral/syspm/cy_syspm.h **** #endif /* CY_IP_MXUDB */
1229:Generated_Source\PSoC6\pdl\drivers/peripheral/syspm/cy_syspm.h **** 
1230:Generated_Source\PSoC6\pdl\drivers/peripheral/syspm/cy_syspm.h **** /** \} group_syspm_data_structures */
1231:Generated_Source\PSoC6\pdl\drivers/peripheral/syspm/cy_syspm.h **** 
1232:Generated_Source\PSoC6\pdl\drivers/peripheral/syspm/cy_syspm.h **** 
1233:Generated_Source\PSoC6\pdl\drivers/peripheral/syspm/cy_syspm.h **** /**
1234:Generated_Source\PSoC6\pdl\drivers/peripheral/syspm/cy_syspm.h **** * \addtogroup group_syspm_functions
1235:Generated_Source\PSoC6\pdl\drivers/peripheral/syspm/cy_syspm.h **** * \{
1236:Generated_Source\PSoC6\pdl\drivers/peripheral/syspm/cy_syspm.h **** */
1237:Generated_Source\PSoC6\pdl\drivers/peripheral/syspm/cy_syspm.h **** 
1238:Generated_Source\PSoC6\pdl\drivers/peripheral/syspm/cy_syspm.h **** /**
1239:Generated_Source\PSoC6\pdl\drivers/peripheral/syspm/cy_syspm.h **** * \addtogroup group_syspm_functions_power_status
1240:Generated_Source\PSoC6\pdl\drivers/peripheral/syspm/cy_syspm.h **** * \{
1241:Generated_Source\PSoC6\pdl\drivers/peripheral/syspm/cy_syspm.h **** */
1242:Generated_Source\PSoC6\pdl\drivers/peripheral/syspm/cy_syspm.h **** #if(0u != CY_IP_M4CPUSS)
1243:Generated_Source\PSoC6\pdl\drivers/peripheral/syspm/cy_syspm.h **** 
1244:Generated_Source\PSoC6\pdl\drivers/peripheral/syspm/cy_syspm.h ****     __STATIC_INLINE bool Cy_SysPm_Cm4IsActive(void);
1245:Generated_Source\PSoC6\pdl\drivers/peripheral/syspm/cy_syspm.h ****     __STATIC_INLINE bool Cy_SysPm_Cm4IsSleep(void);
1246:Generated_Source\PSoC6\pdl\drivers/peripheral/syspm/cy_syspm.h ****     __STATIC_INLINE bool Cy_SysPm_Cm4IsDeepSleep(void);
1247:Generated_Source\PSoC6\pdl\drivers/peripheral/syspm/cy_syspm.h ****     __STATIC_INLINE bool Cy_SysPm_Cm4IsLowPower(void);
1248:Generated_Source\PSoC6\pdl\drivers/peripheral/syspm/cy_syspm.h **** 
1249:Generated_Source\PSoC6\pdl\drivers/peripheral/syspm/cy_syspm.h **** #endif /* (0u != CY_IP_M4CPUSS) */
1250:Generated_Source\PSoC6\pdl\drivers/peripheral/syspm/cy_syspm.h **** 
1251:Generated_Source\PSoC6\pdl\drivers/peripheral/syspm/cy_syspm.h **** __STATIC_INLINE bool Cy_SysPm_Cm0IsActive(void);
1252:Generated_Source\PSoC6\pdl\drivers/peripheral/syspm/cy_syspm.h **** __STATIC_INLINE bool Cy_SysPm_Cm0IsSleep(void);
1253:Generated_Source\PSoC6\pdl\drivers/peripheral/syspm/cy_syspm.h **** __STATIC_INLINE bool Cy_SysPm_Cm0IsDeepSleep(void);
1254:Generated_Source\PSoC6\pdl\drivers/peripheral/syspm/cy_syspm.h **** __STATIC_INLINE bool Cy_SysPm_Cm0IsLowPower(void);
1255:Generated_Source\PSoC6\pdl\drivers/peripheral/syspm/cy_syspm.h **** __STATIC_INLINE bool Cy_SysPm_IsLowPower(void);
1256:Generated_Source\PSoC6\pdl\drivers/peripheral/syspm/cy_syspm.h **** uint32_t Cy_SysPm_ReadStatus(void);
1257:Generated_Source\PSoC6\pdl\drivers/peripheral/syspm/cy_syspm.h **** /** \} group_syspm_functions_power_status */
1258:Generated_Source\PSoC6\pdl\drivers/peripheral/syspm/cy_syspm.h **** 
1259:Generated_Source\PSoC6\pdl\drivers/peripheral/syspm/cy_syspm.h **** /**
1260:Generated_Source\PSoC6\pdl\drivers/peripheral/syspm/cy_syspm.h **** * \addtogroup group_syspm_functions_power
1261:Generated_Source\PSoC6\pdl\drivers/peripheral/syspm/cy_syspm.h **** * \{
1262:Generated_Source\PSoC6\pdl\drivers/peripheral/syspm/cy_syspm.h **** */
1263:Generated_Source\PSoC6\pdl\drivers/peripheral/syspm/cy_syspm.h **** cy_en_syspm_status_t Cy_SysPm_Sleep(cy_en_syspm_waitfor_t waitFor);
1264:Generated_Source\PSoC6\pdl\drivers/peripheral/syspm/cy_syspm.h **** cy_en_syspm_status_t Cy_SysPm_DeepSleep(cy_en_syspm_waitfor_t waitFor);
1265:Generated_Source\PSoC6\pdl\drivers/peripheral/syspm/cy_syspm.h **** cy_en_syspm_status_t Cy_SysPm_Hibernate(void);
1266:Generated_Source\PSoC6\pdl\drivers/peripheral/syspm/cy_syspm.h **** void Cy_SysPm_SetHibernateWakeupSource(uint32_t wakeupSource);
1267:Generated_Source\PSoC6\pdl\drivers/peripheral/syspm/cy_syspm.h **** void Cy_SysPm_ClearHibernateWakeupSource(uint32_t wakeupSource);
1268:Generated_Source\PSoC6\pdl\drivers/peripheral/syspm/cy_syspm.h **** cy_en_syspm_status_t Cy_SysPm_EnterLowPowerMode(void);
1269:Generated_Source\PSoC6\pdl\drivers/peripheral/syspm/cy_syspm.h **** cy_en_syspm_status_t Cy_SysPm_ExitLowPowerMode(void);
1270:Generated_Source\PSoC6\pdl\drivers/peripheral/syspm/cy_syspm.h **** void Cy_SysPm_SleepOnExit(bool enable);
1271:Generated_Source\PSoC6\pdl\drivers/peripheral/syspm/cy_syspm.h **** /** \} group_syspm_functions_power */
1272:Generated_Source\PSoC6\pdl\drivers/peripheral/syspm/cy_syspm.h **** 
1273:Generated_Source\PSoC6\pdl\drivers/peripheral/syspm/cy_syspm.h **** /**
1274:Generated_Source\PSoC6\pdl\drivers/peripheral/syspm/cy_syspm.h **** * \addtogroup group_syspm_functions_iofreeze
1275:Generated_Source\PSoC6\pdl\drivers/peripheral/syspm/cy_syspm.h **** * \{
1276:Generated_Source\PSoC6\pdl\drivers/peripheral/syspm/cy_syspm.h **** */
1277:Generated_Source\PSoC6\pdl\drivers/peripheral/syspm/cy_syspm.h **** 
ARM GAS  C:\Users\salaz\AppData\Local\Temp\cczs20OJ.s 			page 34


1278:Generated_Source\PSoC6\pdl\drivers/peripheral/syspm/cy_syspm.h **** /** \cond INTERNAL */
1279:Generated_Source\PSoC6\pdl\drivers/peripheral/syspm/cy_syspm.h **** void Cy_SysPm_IoFreeze(void);
1280:Generated_Source\PSoC6\pdl\drivers/peripheral/syspm/cy_syspm.h **** /** \endcond */
1281:Generated_Source\PSoC6\pdl\drivers/peripheral/syspm/cy_syspm.h **** 
1282:Generated_Source\PSoC6\pdl\drivers/peripheral/syspm/cy_syspm.h **** void Cy_SysPm_IoUnfreeze(void);
1283:Generated_Source\PSoC6\pdl\drivers/peripheral/syspm/cy_syspm.h **** __STATIC_INLINE bool Cy_SysPm_IoIsFrozen(void);
1284:Generated_Source\PSoC6\pdl\drivers/peripheral/syspm/cy_syspm.h **** /** \} group_syspm_functions_iofreeze */
1285:Generated_Source\PSoC6\pdl\drivers/peripheral/syspm/cy_syspm.h **** 
1286:Generated_Source\PSoC6\pdl\drivers/peripheral/syspm/cy_syspm.h **** /**
1287:Generated_Source\PSoC6\pdl\drivers/peripheral/syspm/cy_syspm.h **** * \addtogroup group_syspm_functions_ldo
1288:Generated_Source\PSoC6\pdl\drivers/peripheral/syspm/cy_syspm.h **** * \{
1289:Generated_Source\PSoC6\pdl\drivers/peripheral/syspm/cy_syspm.h **** */
1290:Generated_Source\PSoC6\pdl\drivers/peripheral/syspm/cy_syspm.h **** cy_en_syspm_status_t Cy_SysPm_LdoSetVoltage(cy_en_syspm_ldo_voltage_t voltage);
1291:Generated_Source\PSoC6\pdl\drivers/peripheral/syspm/cy_syspm.h **** __STATIC_INLINE cy_en_syspm_ldo_voltage_t Cy_SysPm_LdoGetVoltage(void);
1292:Generated_Source\PSoC6\pdl\drivers/peripheral/syspm/cy_syspm.h **** __STATIC_INLINE bool Cy_SysPm_LdoIsEnabled(void);
1293:Generated_Source\PSoC6\pdl\drivers/peripheral/syspm/cy_syspm.h **** /** \} group_syspm_functions_ldo */
1294:Generated_Source\PSoC6\pdl\drivers/peripheral/syspm/cy_syspm.h **** 
1295:Generated_Source\PSoC6\pdl\drivers/peripheral/syspm/cy_syspm.h **** /**
1296:Generated_Source\PSoC6\pdl\drivers/peripheral/syspm/cy_syspm.h **** * \addtogroup group_syspm_functions_pmic
1297:Generated_Source\PSoC6\pdl\drivers/peripheral/syspm/cy_syspm.h **** * \{
1298:Generated_Source\PSoC6\pdl\drivers/peripheral/syspm/cy_syspm.h **** */
1299:Generated_Source\PSoC6\pdl\drivers/peripheral/syspm/cy_syspm.h **** __STATIC_INLINE void Cy_SysPm_PmicEnable(void);
1300:Generated_Source\PSoC6\pdl\drivers/peripheral/syspm/cy_syspm.h **** __STATIC_INLINE void Cy_SysPm_PmicDisable(cy_en_syspm_pmic_wakeup_polarity_t polarity); 
1301:Generated_Source\PSoC6\pdl\drivers/peripheral/syspm/cy_syspm.h **** __STATIC_INLINE void Cy_SysPm_PmicAlwaysEnable(void);
1302:Generated_Source\PSoC6\pdl\drivers/peripheral/syspm/cy_syspm.h **** __STATIC_INLINE void Cy_SysPm_PmicEnableOutput(void);
1303:Generated_Source\PSoC6\pdl\drivers/peripheral/syspm/cy_syspm.h **** __STATIC_INLINE void Cy_SysPm_PmicDisableOutput(void); 
1304:Generated_Source\PSoC6\pdl\drivers/peripheral/syspm/cy_syspm.h **** __STATIC_INLINE void Cy_SysPm_PmicLock(void);
1305:Generated_Source\PSoC6\pdl\drivers/peripheral/syspm/cy_syspm.h **** __STATIC_INLINE void Cy_SysPm_PmicUnlock(void);
1306:Generated_Source\PSoC6\pdl\drivers/peripheral/syspm/cy_syspm.h **** __STATIC_INLINE bool Cy_SysPm_PmicIsEnabled(void);
1307:Generated_Source\PSoC6\pdl\drivers/peripheral/syspm/cy_syspm.h **** __STATIC_INLINE bool Cy_SysPm_PmicIsOutputEnabled(void);
1308:Generated_Source\PSoC6\pdl\drivers/peripheral/syspm/cy_syspm.h **** __STATIC_INLINE bool Cy_SysPm_PmicIsLocked(void);
1309:Generated_Source\PSoC6\pdl\drivers/peripheral/syspm/cy_syspm.h **** /** \} group_syspm_functions_pmic */
1310:Generated_Source\PSoC6\pdl\drivers/peripheral/syspm/cy_syspm.h **** 
1311:Generated_Source\PSoC6\pdl\drivers/peripheral/syspm/cy_syspm.h **** /**
1312:Generated_Source\PSoC6\pdl\drivers/peripheral/syspm/cy_syspm.h **** * \addtogroup group_syspm_functions_backup
1313:Generated_Source\PSoC6\pdl\drivers/peripheral/syspm/cy_syspm.h **** * \{
1314:Generated_Source\PSoC6\pdl\drivers/peripheral/syspm/cy_syspm.h **** */
1315:Generated_Source\PSoC6\pdl\drivers/peripheral/syspm/cy_syspm.h **** __STATIC_INLINE void Cy_SysPm_BackupSetSupply(cy_en_syspm_vddbackup_control_t vddBackControl);
1316:Generated_Source\PSoC6\pdl\drivers/peripheral/syspm/cy_syspm.h **** __STATIC_INLINE cy_en_syspm_vddbackup_control_t Cy_SysPm_BackupGetSupply(void);
1317:Generated_Source\PSoC6\pdl\drivers/peripheral/syspm/cy_syspm.h **** __STATIC_INLINE void Cy_SysPm_BackupEnableVoltageMeasurement(void);
1318:Generated_Source\PSoC6\pdl\drivers/peripheral/syspm/cy_syspm.h **** __STATIC_INLINE void Cy_SysPm_BackupDisableVoltageMeasurement(void);
1319:Generated_Source\PSoC6\pdl\drivers/peripheral/syspm/cy_syspm.h **** __STATIC_INLINE void Cy_SysPm_BackupSuperCapCharge(cy_en_syspm_sc_charge_key_t key);
1320:Generated_Source\PSoC6\pdl\drivers/peripheral/syspm/cy_syspm.h **** /** \} group_syspm_functions_backup */
1321:Generated_Source\PSoC6\pdl\drivers/peripheral/syspm/cy_syspm.h **** 
1322:Generated_Source\PSoC6\pdl\drivers/peripheral/syspm/cy_syspm.h **** /**
1323:Generated_Source\PSoC6\pdl\drivers/peripheral/syspm/cy_syspm.h **** * \addtogroup group_syspm_functions_buck
1324:Generated_Source\PSoC6\pdl\drivers/peripheral/syspm/cy_syspm.h **** * \{
1325:Generated_Source\PSoC6\pdl\drivers/peripheral/syspm/cy_syspm.h **** */
1326:Generated_Source\PSoC6\pdl\drivers/peripheral/syspm/cy_syspm.h **** #if(0u != SRSS_BUCKCTL_PRESENT)
1327:Generated_Source\PSoC6\pdl\drivers/peripheral/syspm/cy_syspm.h ****     __STATIC_INLINE bool Cy_SysPm_BuckIsEnabled(void);
1328:Generated_Source\PSoC6\pdl\drivers/peripheral/syspm/cy_syspm.h ****     __STATIC_INLINE cy_en_syspm_buck_voltage1_t Cy_SysPm_BuckGetVoltage1(void);
1329:Generated_Source\PSoC6\pdl\drivers/peripheral/syspm/cy_syspm.h **** 
1330:Generated_Source\PSoC6\pdl\drivers/peripheral/syspm/cy_syspm.h ****     cy_en_syspm_status_t Cy_SysPm_BuckEnable(cy_en_syspm_buck_voltage1_t voltage);
1331:Generated_Source\PSoC6\pdl\drivers/peripheral/syspm/cy_syspm.h ****     cy_en_syspm_status_t Cy_SysPm_BuckSetVoltage1(cy_en_syspm_buck_voltage1_t voltage);
1332:Generated_Source\PSoC6\pdl\drivers/peripheral/syspm/cy_syspm.h ****     bool Cy_SysPm_BuckIsOutputEnabled(cy_en_syspm_buck_out_t output);
1333:Generated_Source\PSoC6\pdl\drivers/peripheral/syspm/cy_syspm.h **** 
1334:Generated_Source\PSoC6\pdl\drivers/peripheral/syspm/cy_syspm.h ****     #if(0u != SRSS_SIMOBUCK_PRESENT)
ARM GAS  C:\Users\salaz\AppData\Local\Temp\cczs20OJ.s 			page 35


1335:Generated_Source\PSoC6\pdl\drivers/peripheral/syspm/cy_syspm.h ****         __STATIC_INLINE cy_en_syspm_buck_voltage2_t Cy_SysPm_BuckGetVoltage2(void);
1336:Generated_Source\PSoC6\pdl\drivers/peripheral/syspm/cy_syspm.h ****         __STATIC_INLINE void Cy_SysPm_BuckDisableVoltage2(void);
1337:Generated_Source\PSoC6\pdl\drivers/peripheral/syspm/cy_syspm.h ****         __STATIC_INLINE void Cy_SysPm_BuckSetVoltage2HwControl(bool hwControl);
1338:Generated_Source\PSoC6\pdl\drivers/peripheral/syspm/cy_syspm.h ****         __STATIC_INLINE bool Cy_SysPm_BuckIsVoltage2HwControlled(void);
1339:Generated_Source\PSoC6\pdl\drivers/peripheral/syspm/cy_syspm.h ****        void Cy_SysPm_BuckEnableVoltage2(void);
1340:Generated_Source\PSoC6\pdl\drivers/peripheral/syspm/cy_syspm.h ****        void Cy_SysPm_BuckSetVoltage2(cy_en_syspm_buck_voltage2_t voltage, bool waitToSettle);
1341:Generated_Source\PSoC6\pdl\drivers/peripheral/syspm/cy_syspm.h ****     #endif /* (0u != SRSS_SIMOBUCK_PRESENT) */
1342:Generated_Source\PSoC6\pdl\drivers/peripheral/syspm/cy_syspm.h **** #endif /* (0u != SRSS_BUCKCTL_PRESENT) */
1343:Generated_Source\PSoC6\pdl\drivers/peripheral/syspm/cy_syspm.h **** /** \} group_syspm_functions_buck */
1344:Generated_Source\PSoC6\pdl\drivers/peripheral/syspm/cy_syspm.h **** 
1345:Generated_Source\PSoC6\pdl\drivers/peripheral/syspm/cy_syspm.h **** /**
1346:Generated_Source\PSoC6\pdl\drivers/peripheral/syspm/cy_syspm.h **** * \addtogroup group_syspm_functions_callback
1347:Generated_Source\PSoC6\pdl\drivers/peripheral/syspm/cy_syspm.h **** * \{
1348:Generated_Source\PSoC6\pdl\drivers/peripheral/syspm/cy_syspm.h **** */
1349:Generated_Source\PSoC6\pdl\drivers/peripheral/syspm/cy_syspm.h **** bool Cy_SysPm_RegisterCallback(cy_stc_syspm_callback_t *handler);
1350:Generated_Source\PSoC6\pdl\drivers/peripheral/syspm/cy_syspm.h **** bool Cy_SysPm_UnregisterCallback(cy_stc_syspm_callback_t const *handler);
1351:Generated_Source\PSoC6\pdl\drivers/peripheral/syspm/cy_syspm.h **** cy_en_syspm_status_t Cy_SysPm_ExecuteCallback(cy_en_syspm_callback_type_t type, cy_en_syspm_callbac
1352:Generated_Source\PSoC6\pdl\drivers/peripheral/syspm/cy_syspm.h **** /** \} group_syspm_functions_callback */
1353:Generated_Source\PSoC6\pdl\drivers/peripheral/syspm/cy_syspm.h **** 
1354:Generated_Source\PSoC6\pdl\drivers/peripheral/syspm/cy_syspm.h **** /**
1355:Generated_Source\PSoC6\pdl\drivers/peripheral/syspm/cy_syspm.h **** * \addtogroup group_syspm_functions_power_status
1356:Generated_Source\PSoC6\pdl\drivers/peripheral/syspm/cy_syspm.h **** * \{
1357:Generated_Source\PSoC6\pdl\drivers/peripheral/syspm/cy_syspm.h **** */
1358:Generated_Source\PSoC6\pdl\drivers/peripheral/syspm/cy_syspm.h **** 
1359:Generated_Source\PSoC6\pdl\drivers/peripheral/syspm/cy_syspm.h **** #if(0u != CY_IP_M4CPUSS)
1360:Generated_Source\PSoC6\pdl\drivers/peripheral/syspm/cy_syspm.h ****     /*******************************************************************************
1361:Generated_Source\PSoC6\pdl\drivers/peripheral/syspm/cy_syspm.h ****     * Function Name: Cy_SysPm_Cm4IsActive
1362:Generated_Source\PSoC6\pdl\drivers/peripheral/syspm/cy_syspm.h ****     ****************************************************************************//**
1363:Generated_Source\PSoC6\pdl\drivers/peripheral/syspm/cy_syspm.h ****     *
1364:Generated_Source\PSoC6\pdl\drivers/peripheral/syspm/cy_syspm.h ****     * Checks whether CM4 is in Active mode.
1365:Generated_Source\PSoC6\pdl\drivers/peripheral/syspm/cy_syspm.h ****     *
1366:Generated_Source\PSoC6\pdl\drivers/peripheral/syspm/cy_syspm.h ****     * \return
1367:Generated_Source\PSoC6\pdl\drivers/peripheral/syspm/cy_syspm.h ****     * true - if CM4 is in Active mode; false - if the CM4 is not in Active mode.
1368:Generated_Source\PSoC6\pdl\drivers/peripheral/syspm/cy_syspm.h ****     *
1369:Generated_Source\PSoC6\pdl\drivers/peripheral/syspm/cy_syspm.h ****     * \funcusage
1370:Generated_Source\PSoC6\pdl\drivers/peripheral/syspm/cy_syspm.h ****     * \snippet syspm/syspm_2_20_sut_01.cydsn/main_cm4.c snippet_Cy_SysPm_Cm4IsActive
1371:Generated_Source\PSoC6\pdl\drivers/peripheral/syspm/cy_syspm.h ****     *
1372:Generated_Source\PSoC6\pdl\drivers/peripheral/syspm/cy_syspm.h ****     *******************************************************************************/
1373:Generated_Source\PSoC6\pdl\drivers/peripheral/syspm/cy_syspm.h ****     __STATIC_INLINE bool Cy_SysPm_Cm4IsActive(void)
1374:Generated_Source\PSoC6\pdl\drivers/peripheral/syspm/cy_syspm.h ****     {
1375:Generated_Source\PSoC6\pdl\drivers/peripheral/syspm/cy_syspm.h ****         return((Cy_SysPm_ReadStatus() & CY_SYSPM_STATUS_CM4_ACTIVE) != 0U);
1376:Generated_Source\PSoC6\pdl\drivers/peripheral/syspm/cy_syspm.h ****     }
1377:Generated_Source\PSoC6\pdl\drivers/peripheral/syspm/cy_syspm.h **** 
1378:Generated_Source\PSoC6\pdl\drivers/peripheral/syspm/cy_syspm.h **** 
1379:Generated_Source\PSoC6\pdl\drivers/peripheral/syspm/cy_syspm.h ****     /*******************************************************************************
1380:Generated_Source\PSoC6\pdl\drivers/peripheral/syspm/cy_syspm.h ****     * Function Name: Cy_SysPm_Cm4IsSleep
1381:Generated_Source\PSoC6\pdl\drivers/peripheral/syspm/cy_syspm.h ****     ****************************************************************************//**
1382:Generated_Source\PSoC6\pdl\drivers/peripheral/syspm/cy_syspm.h ****     *
1383:Generated_Source\PSoC6\pdl\drivers/peripheral/syspm/cy_syspm.h ****     * Checks whether the CM4 is in Sleep mode.
1384:Generated_Source\PSoC6\pdl\drivers/peripheral/syspm/cy_syspm.h ****     *
1385:Generated_Source\PSoC6\pdl\drivers/peripheral/syspm/cy_syspm.h ****     * \return
1386:Generated_Source\PSoC6\pdl\drivers/peripheral/syspm/cy_syspm.h ****     * true - if the CM4 is in Sleep mode; 
1387:Generated_Source\PSoC6\pdl\drivers/peripheral/syspm/cy_syspm.h ****     * false - if the CM4 is not in Sleep mode.
1388:Generated_Source\PSoC6\pdl\drivers/peripheral/syspm/cy_syspm.h ****     *
1389:Generated_Source\PSoC6\pdl\drivers/peripheral/syspm/cy_syspm.h ****     * \funcusage
1390:Generated_Source\PSoC6\pdl\drivers/peripheral/syspm/cy_syspm.h ****     * \snippet syspm/syspm_2_20_sut_01.cydsn/main_cm4.c snippet_Cy_SysPm_Cm4IsSleep
1391:Generated_Source\PSoC6\pdl\drivers/peripheral/syspm/cy_syspm.h ****     *
ARM GAS  C:\Users\salaz\AppData\Local\Temp\cczs20OJ.s 			page 36


1392:Generated_Source\PSoC6\pdl\drivers/peripheral/syspm/cy_syspm.h ****     *******************************************************************************/
1393:Generated_Source\PSoC6\pdl\drivers/peripheral/syspm/cy_syspm.h ****     __STATIC_INLINE bool Cy_SysPm_Cm4IsSleep(void)
1394:Generated_Source\PSoC6\pdl\drivers/peripheral/syspm/cy_syspm.h ****     {
1395:Generated_Source\PSoC6\pdl\drivers/peripheral/syspm/cy_syspm.h ****         return((Cy_SysPm_ReadStatus() & CY_SYSPM_STATUS_CM4_SLEEP) != 0U);
1396:Generated_Source\PSoC6\pdl\drivers/peripheral/syspm/cy_syspm.h ****     }
1397:Generated_Source\PSoC6\pdl\drivers/peripheral/syspm/cy_syspm.h **** 
1398:Generated_Source\PSoC6\pdl\drivers/peripheral/syspm/cy_syspm.h **** 
1399:Generated_Source\PSoC6\pdl\drivers/peripheral/syspm/cy_syspm.h ****     /*******************************************************************************
1400:Generated_Source\PSoC6\pdl\drivers/peripheral/syspm/cy_syspm.h ****     * Function Name: Cy_SysPm_Cm4IsDeepSleep
1401:Generated_Source\PSoC6\pdl\drivers/peripheral/syspm/cy_syspm.h ****     ****************************************************************************//**
1402:Generated_Source\PSoC6\pdl\drivers/peripheral/syspm/cy_syspm.h ****     *
1403:Generated_Source\PSoC6\pdl\drivers/peripheral/syspm/cy_syspm.h ****     * Checks whether the CM4 is in the Deep Sleep mode.
1404:Generated_Source\PSoC6\pdl\drivers/peripheral/syspm/cy_syspm.h ****     *
1405:Generated_Source\PSoC6\pdl\drivers/peripheral/syspm/cy_syspm.h ****     * \return
1406:Generated_Source\PSoC6\pdl\drivers/peripheral/syspm/cy_syspm.h ****     * true - if CM4 is in Deep Sleep mode; false - if the CM4 is not in 
1407:Generated_Source\PSoC6\pdl\drivers/peripheral/syspm/cy_syspm.h ****     * Deep Sleep mode.
1408:Generated_Source\PSoC6\pdl\drivers/peripheral/syspm/cy_syspm.h ****     *
1409:Generated_Source\PSoC6\pdl\drivers/peripheral/syspm/cy_syspm.h ****     * \funcusage
1410:Generated_Source\PSoC6\pdl\drivers/peripheral/syspm/cy_syspm.h ****     * \snippet syspm/syspm_2_20_sut_01.cydsn/main_cm4.c snippet_Cy_SysPm_Cm4IsDeepSleep
1411:Generated_Source\PSoC6\pdl\drivers/peripheral/syspm/cy_syspm.h ****     *
1412:Generated_Source\PSoC6\pdl\drivers/peripheral/syspm/cy_syspm.h ****     *******************************************************************************/
1413:Generated_Source\PSoC6\pdl\drivers/peripheral/syspm/cy_syspm.h ****     __STATIC_INLINE bool Cy_SysPm_Cm4IsDeepSleep(void)
1414:Generated_Source\PSoC6\pdl\drivers/peripheral/syspm/cy_syspm.h ****     {
1415:Generated_Source\PSoC6\pdl\drivers/peripheral/syspm/cy_syspm.h ****         return((Cy_SysPm_ReadStatus() & CY_SYSPM_STATUS_CM4_DEEPSLEEP) != 0U);
1416:Generated_Source\PSoC6\pdl\drivers/peripheral/syspm/cy_syspm.h ****     }
1417:Generated_Source\PSoC6\pdl\drivers/peripheral/syspm/cy_syspm.h **** 
1418:Generated_Source\PSoC6\pdl\drivers/peripheral/syspm/cy_syspm.h **** 
1419:Generated_Source\PSoC6\pdl\drivers/peripheral/syspm/cy_syspm.h ****     /*******************************************************************************
1420:Generated_Source\PSoC6\pdl\drivers/peripheral/syspm/cy_syspm.h ****     * Function Name: Cy_SysPm_Cm4IsLowPower
1421:Generated_Source\PSoC6\pdl\drivers/peripheral/syspm/cy_syspm.h ****     ****************************************************************************//**
1422:Generated_Source\PSoC6\pdl\drivers/peripheral/syspm/cy_syspm.h ****     *
1423:Generated_Source\PSoC6\pdl\drivers/peripheral/syspm/cy_syspm.h ****     * Checks whether the CM4 is in Low-Power mode. Note that Low-Power mode is a 
1424:Generated_Source\PSoC6\pdl\drivers/peripheral/syspm/cy_syspm.h ****     * status of the device.
1425:Generated_Source\PSoC6\pdl\drivers/peripheral/syspm/cy_syspm.h ****     *
1426:Generated_Source\PSoC6\pdl\drivers/peripheral/syspm/cy_syspm.h ****     * \return
1427:Generated_Source\PSoC6\pdl\drivers/peripheral/syspm/cy_syspm.h ****     * true - if the CM4 is in Low-Power mode; 
1428:Generated_Source\PSoC6\pdl\drivers/peripheral/syspm/cy_syspm.h ****     * false - if the CM4 is not in Low-Power mode.
1429:Generated_Source\PSoC6\pdl\drivers/peripheral/syspm/cy_syspm.h ****     *
1430:Generated_Source\PSoC6\pdl\drivers/peripheral/syspm/cy_syspm.h ****     * \funcusage
1431:Generated_Source\PSoC6\pdl\drivers/peripheral/syspm/cy_syspm.h ****     * \snippet syspm/syspm_2_20_sut_01.cydsn/main_cm4.c snippet_Cy_SysPm_Cm4IsLowPower
1432:Generated_Source\PSoC6\pdl\drivers/peripheral/syspm/cy_syspm.h ****     *
1433:Generated_Source\PSoC6\pdl\drivers/peripheral/syspm/cy_syspm.h ****     *******************************************************************************/
1434:Generated_Source\PSoC6\pdl\drivers/peripheral/syspm/cy_syspm.h ****     __STATIC_INLINE bool Cy_SysPm_Cm4IsLowPower(void)
1435:Generated_Source\PSoC6\pdl\drivers/peripheral/syspm/cy_syspm.h ****     {
1436:Generated_Source\PSoC6\pdl\drivers/peripheral/syspm/cy_syspm.h ****         return((Cy_SysPm_ReadStatus() & CY_SYSPM_STATUS_CM4_LOWPOWER) != 0U);
1437:Generated_Source\PSoC6\pdl\drivers/peripheral/syspm/cy_syspm.h ****     }
1438:Generated_Source\PSoC6\pdl\drivers/peripheral/syspm/cy_syspm.h **** /** \} group_syspm_functions_power_status */
1439:Generated_Source\PSoC6\pdl\drivers/peripheral/syspm/cy_syspm.h **** #endif /* (0u != CY_IP_M4CPUSS) */
1440:Generated_Source\PSoC6\pdl\drivers/peripheral/syspm/cy_syspm.h **** 
1441:Generated_Source\PSoC6\pdl\drivers/peripheral/syspm/cy_syspm.h **** /**
1442:Generated_Source\PSoC6\pdl\drivers/peripheral/syspm/cy_syspm.h **** * \addtogroup group_syspm_functions_power_status
1443:Generated_Source\PSoC6\pdl\drivers/peripheral/syspm/cy_syspm.h **** * \{
1444:Generated_Source\PSoC6\pdl\drivers/peripheral/syspm/cy_syspm.h **** */
1445:Generated_Source\PSoC6\pdl\drivers/peripheral/syspm/cy_syspm.h **** 
1446:Generated_Source\PSoC6\pdl\drivers/peripheral/syspm/cy_syspm.h **** /*******************************************************************************
1447:Generated_Source\PSoC6\pdl\drivers/peripheral/syspm/cy_syspm.h **** * Function Name: Cy_SysPm_Cm0IsActive
1448:Generated_Source\PSoC6\pdl\drivers/peripheral/syspm/cy_syspm.h **** ****************************************************************************//**
ARM GAS  C:\Users\salaz\AppData\Local\Temp\cczs20OJ.s 			page 37


1449:Generated_Source\PSoC6\pdl\drivers/peripheral/syspm/cy_syspm.h **** *
1450:Generated_Source\PSoC6\pdl\drivers/peripheral/syspm/cy_syspm.h **** * Checks whether the CM0+ is in Active mode.
1451:Generated_Source\PSoC6\pdl\drivers/peripheral/syspm/cy_syspm.h **** *
1452:Generated_Source\PSoC6\pdl\drivers/peripheral/syspm/cy_syspm.h **** * \return
1453:Generated_Source\PSoC6\pdl\drivers/peripheral/syspm/cy_syspm.h **** * true - if the CM0+ is in Active mode; 
1454:Generated_Source\PSoC6\pdl\drivers/peripheral/syspm/cy_syspm.h **** * false - if the CM0+ is not in Active mode.
1455:Generated_Source\PSoC6\pdl\drivers/peripheral/syspm/cy_syspm.h **** *
1456:Generated_Source\PSoC6\pdl\drivers/peripheral/syspm/cy_syspm.h **** * \funcusage
1457:Generated_Source\PSoC6\pdl\drivers/peripheral/syspm/cy_syspm.h **** * \snippet syspm/syspm_2_20_sut_01.cydsn/main_cm4.c snippet_Cy_SysPm_Cm0IsActive
1458:Generated_Source\PSoC6\pdl\drivers/peripheral/syspm/cy_syspm.h **** *
1459:Generated_Source\PSoC6\pdl\drivers/peripheral/syspm/cy_syspm.h **** *******************************************************************************/
1460:Generated_Source\PSoC6\pdl\drivers/peripheral/syspm/cy_syspm.h **** __STATIC_INLINE bool Cy_SysPm_Cm0IsActive(void)
1461:Generated_Source\PSoC6\pdl\drivers/peripheral/syspm/cy_syspm.h **** {
1462:Generated_Source\PSoC6\pdl\drivers/peripheral/syspm/cy_syspm.h ****     return((Cy_SysPm_ReadStatus() & CY_SYSPM_STATUS_CM0_ACTIVE) != 0U);
1463:Generated_Source\PSoC6\pdl\drivers/peripheral/syspm/cy_syspm.h **** }
1464:Generated_Source\PSoC6\pdl\drivers/peripheral/syspm/cy_syspm.h **** 
1465:Generated_Source\PSoC6\pdl\drivers/peripheral/syspm/cy_syspm.h **** 
1466:Generated_Source\PSoC6\pdl\drivers/peripheral/syspm/cy_syspm.h **** /*******************************************************************************
1467:Generated_Source\PSoC6\pdl\drivers/peripheral/syspm/cy_syspm.h **** * Function Name: Cy_SysPm_Cm0IsSleep
1468:Generated_Source\PSoC6\pdl\drivers/peripheral/syspm/cy_syspm.h **** ****************************************************************************//**
1469:Generated_Source\PSoC6\pdl\drivers/peripheral/syspm/cy_syspm.h **** *
1470:Generated_Source\PSoC6\pdl\drivers/peripheral/syspm/cy_syspm.h **** * Checks whether the CM0+ is in Sleep mode.
1471:Generated_Source\PSoC6\pdl\drivers/peripheral/syspm/cy_syspm.h **** *
1472:Generated_Source\PSoC6\pdl\drivers/peripheral/syspm/cy_syspm.h **** * \return
1473:Generated_Source\PSoC6\pdl\drivers/peripheral/syspm/cy_syspm.h **** * true - if the CM0+ is in Sleep mode; 
1474:Generated_Source\PSoC6\pdl\drivers/peripheral/syspm/cy_syspm.h **** * false - if the CM0+ is not in Sleep mode.
1475:Generated_Source\PSoC6\pdl\drivers/peripheral/syspm/cy_syspm.h **** *
1476:Generated_Source\PSoC6\pdl\drivers/peripheral/syspm/cy_syspm.h **** * \funcusage
1477:Generated_Source\PSoC6\pdl\drivers/peripheral/syspm/cy_syspm.h **** * \snippet syspm/syspm_2_20_sut_01.cydsn/main_cm4.c snippet_Cy_SysPm_Cm0IsSleep
1478:Generated_Source\PSoC6\pdl\drivers/peripheral/syspm/cy_syspm.h **** *
1479:Generated_Source\PSoC6\pdl\drivers/peripheral/syspm/cy_syspm.h **** *******************************************************************************/
1480:Generated_Source\PSoC6\pdl\drivers/peripheral/syspm/cy_syspm.h **** __STATIC_INLINE bool Cy_SysPm_Cm0IsSleep(void)
1481:Generated_Source\PSoC6\pdl\drivers/peripheral/syspm/cy_syspm.h **** {
1482:Generated_Source\PSoC6\pdl\drivers/peripheral/syspm/cy_syspm.h ****     return((Cy_SysPm_ReadStatus() & CY_SYSPM_STATUS_CM0_SLEEP) != 0U);
1483:Generated_Source\PSoC6\pdl\drivers/peripheral/syspm/cy_syspm.h **** }
1484:Generated_Source\PSoC6\pdl\drivers/peripheral/syspm/cy_syspm.h **** 
1485:Generated_Source\PSoC6\pdl\drivers/peripheral/syspm/cy_syspm.h **** 
1486:Generated_Source\PSoC6\pdl\drivers/peripheral/syspm/cy_syspm.h **** /*******************************************************************************
1487:Generated_Source\PSoC6\pdl\drivers/peripheral/syspm/cy_syspm.h **** * Function Name: Cy_SysPm_Cm0IsDeepSleep
1488:Generated_Source\PSoC6\pdl\drivers/peripheral/syspm/cy_syspm.h **** ****************************************************************************//**
1489:Generated_Source\PSoC6\pdl\drivers/peripheral/syspm/cy_syspm.h **** *
1490:Generated_Source\PSoC6\pdl\drivers/peripheral/syspm/cy_syspm.h **** * Checks whether the CM0+ is in Deep Sleep mode.
1491:Generated_Source\PSoC6\pdl\drivers/peripheral/syspm/cy_syspm.h **** *
1492:Generated_Source\PSoC6\pdl\drivers/peripheral/syspm/cy_syspm.h **** * \return
1493:Generated_Source\PSoC6\pdl\drivers/peripheral/syspm/cy_syspm.h **** * true - if the CM0+ is in Deep Sleep mode; 
1494:Generated_Source\PSoC6\pdl\drivers/peripheral/syspm/cy_syspm.h **** * false - if the CM0+ is not in Deep Sleep mode.
1495:Generated_Source\PSoC6\pdl\drivers/peripheral/syspm/cy_syspm.h **** *
1496:Generated_Source\PSoC6\pdl\drivers/peripheral/syspm/cy_syspm.h **** * \funcusage
1497:Generated_Source\PSoC6\pdl\drivers/peripheral/syspm/cy_syspm.h **** * \snippet syspm/syspm_2_20_sut_01.cydsn/main_cm4.c snippet_Cy_SysPm_Cm0IsDeepSleep
1498:Generated_Source\PSoC6\pdl\drivers/peripheral/syspm/cy_syspm.h **** *
1499:Generated_Source\PSoC6\pdl\drivers/peripheral/syspm/cy_syspm.h **** *******************************************************************************/
1500:Generated_Source\PSoC6\pdl\drivers/peripheral/syspm/cy_syspm.h **** __STATIC_INLINE bool Cy_SysPm_Cm0IsDeepSleep(void)
1501:Generated_Source\PSoC6\pdl\drivers/peripheral/syspm/cy_syspm.h **** {
1502:Generated_Source\PSoC6\pdl\drivers/peripheral/syspm/cy_syspm.h ****     return((Cy_SysPm_ReadStatus() & CY_SYSPM_STATUS_CM0_DEEPSLEEP) != 0U);
1503:Generated_Source\PSoC6\pdl\drivers/peripheral/syspm/cy_syspm.h **** }
1504:Generated_Source\PSoC6\pdl\drivers/peripheral/syspm/cy_syspm.h **** 
1505:Generated_Source\PSoC6\pdl\drivers/peripheral/syspm/cy_syspm.h **** 
ARM GAS  C:\Users\salaz\AppData\Local\Temp\cczs20OJ.s 			page 38


1506:Generated_Source\PSoC6\pdl\drivers/peripheral/syspm/cy_syspm.h **** /*******************************************************************************
1507:Generated_Source\PSoC6\pdl\drivers/peripheral/syspm/cy_syspm.h **** * Function Name: Cy_SysPm_Cm0IsLowPower
1508:Generated_Source\PSoC6\pdl\drivers/peripheral/syspm/cy_syspm.h **** ****************************************************************************//**
1509:Generated_Source\PSoC6\pdl\drivers/peripheral/syspm/cy_syspm.h **** *
1510:Generated_Source\PSoC6\pdl\drivers/peripheral/syspm/cy_syspm.h **** * Checks whether the CM0+ is in Low-Power mode.  Note that Low-Power mode is a
1511:Generated_Source\PSoC6\pdl\drivers/peripheral/syspm/cy_syspm.h **** * status of the device.
1512:Generated_Source\PSoC6\pdl\drivers/peripheral/syspm/cy_syspm.h **** *
1513:Generated_Source\PSoC6\pdl\drivers/peripheral/syspm/cy_syspm.h **** * \return
1514:Generated_Source\PSoC6\pdl\drivers/peripheral/syspm/cy_syspm.h **** * true - if the CM0+ is in Low-Power mode; 
1515:Generated_Source\PSoC6\pdl\drivers/peripheral/syspm/cy_syspm.h **** * false - if the CM0+ is not in Low-Power mode.
1516:Generated_Source\PSoC6\pdl\drivers/peripheral/syspm/cy_syspm.h **** *
1517:Generated_Source\PSoC6\pdl\drivers/peripheral/syspm/cy_syspm.h **** * \funcusage
1518:Generated_Source\PSoC6\pdl\drivers/peripheral/syspm/cy_syspm.h **** * \snippet syspm/syspm_2_20_sut_01.cydsn/main_cm4.c snippet_Cy_SysPm_Cm0IsLowPower
1519:Generated_Source\PSoC6\pdl\drivers/peripheral/syspm/cy_syspm.h **** *
1520:Generated_Source\PSoC6\pdl\drivers/peripheral/syspm/cy_syspm.h **** *******************************************************************************/
1521:Generated_Source\PSoC6\pdl\drivers/peripheral/syspm/cy_syspm.h **** __STATIC_INLINE bool Cy_SysPm_Cm0IsLowPower(void)
1522:Generated_Source\PSoC6\pdl\drivers/peripheral/syspm/cy_syspm.h **** {
1523:Generated_Source\PSoC6\pdl\drivers/peripheral/syspm/cy_syspm.h ****     return((Cy_SysPm_ReadStatus() & CY_SYSPM_STATUS_CM0_LOWPOWER) != 0U);
1524:Generated_Source\PSoC6\pdl\drivers/peripheral/syspm/cy_syspm.h **** }
1525:Generated_Source\PSoC6\pdl\drivers/peripheral/syspm/cy_syspm.h **** 
1526:Generated_Source\PSoC6\pdl\drivers/peripheral/syspm/cy_syspm.h **** 
1527:Generated_Source\PSoC6\pdl\drivers/peripheral/syspm/cy_syspm.h **** /*******************************************************************************
1528:Generated_Source\PSoC6\pdl\drivers/peripheral/syspm/cy_syspm.h **** * Function Name: Cy_SysPm_IsLowPower
1529:Generated_Source\PSoC6\pdl\drivers/peripheral/syspm/cy_syspm.h **** ****************************************************************************//**
1530:Generated_Source\PSoC6\pdl\drivers/peripheral/syspm/cy_syspm.h **** *
1531:Generated_Source\PSoC6\pdl\drivers/peripheral/syspm/cy_syspm.h **** * Checks whether the device is in Low-Power mode.
1532:Generated_Source\PSoC6\pdl\drivers/peripheral/syspm/cy_syspm.h **** *
1533:Generated_Source\PSoC6\pdl\drivers/peripheral/syspm/cy_syspm.h **** * \return
1534:Generated_Source\PSoC6\pdl\drivers/peripheral/syspm/cy_syspm.h **** * true - the system is in Low-Power mode;
1535:Generated_Source\PSoC6\pdl\drivers/peripheral/syspm/cy_syspm.h **** * false - the system is is not in Low-Power mode.
1536:Generated_Source\PSoC6\pdl\drivers/peripheral/syspm/cy_syspm.h **** *
1537:Generated_Source\PSoC6\pdl\drivers/peripheral/syspm/cy_syspm.h **** * \funcusage
1538:Generated_Source\PSoC6\pdl\drivers/peripheral/syspm/cy_syspm.h **** * \snippet syspm/syspm_2_20_sut_01.cydsn/main_cm4.c snippet_Cy_SysPm_IsLowPower
1539:Generated_Source\PSoC6\pdl\drivers/peripheral/syspm/cy_syspm.h **** *
1540:Generated_Source\PSoC6\pdl\drivers/peripheral/syspm/cy_syspm.h **** *******************************************************************************/
1541:Generated_Source\PSoC6\pdl\drivers/peripheral/syspm/cy_syspm.h **** __STATIC_INLINE bool Cy_SysPm_IsLowPower(void)
1542:Generated_Source\PSoC6\pdl\drivers/peripheral/syspm/cy_syspm.h **** {
1543:Generated_Source\PSoC6\pdl\drivers/peripheral/syspm/cy_syspm.h ****     return((Cy_SysPm_ReadStatus() & CY_SYSPM_STATUS_SYSTEM_LOWPOWER) != 0U);
1544:Generated_Source\PSoC6\pdl\drivers/peripheral/syspm/cy_syspm.h **** }
1545:Generated_Source\PSoC6\pdl\drivers/peripheral/syspm/cy_syspm.h **** 
1546:Generated_Source\PSoC6\pdl\drivers/peripheral/syspm/cy_syspm.h **** /** \} group_syspm_functions_power_status */
1547:Generated_Source\PSoC6\pdl\drivers/peripheral/syspm/cy_syspm.h **** 
1548:Generated_Source\PSoC6\pdl\drivers/peripheral/syspm/cy_syspm.h **** 
1549:Generated_Source\PSoC6\pdl\drivers/peripheral/syspm/cy_syspm.h **** /**
1550:Generated_Source\PSoC6\pdl\drivers/peripheral/syspm/cy_syspm.h **** * \addtogroup group_syspm_functions_buck
1551:Generated_Source\PSoC6\pdl\drivers/peripheral/syspm/cy_syspm.h **** * \{
1552:Generated_Source\PSoC6\pdl\drivers/peripheral/syspm/cy_syspm.h **** */
1553:Generated_Source\PSoC6\pdl\drivers/peripheral/syspm/cy_syspm.h **** #if(0u != SRSS_BUCKCTL_PRESENT)
1554:Generated_Source\PSoC6\pdl\drivers/peripheral/syspm/cy_syspm.h **** 
1555:Generated_Source\PSoC6\pdl\drivers/peripheral/syspm/cy_syspm.h ****     /*******************************************************************************
1556:Generated_Source\PSoC6\pdl\drivers/peripheral/syspm/cy_syspm.h ****     * Function Name: Cy_SysPm_BuckIsEnabled
1557:Generated_Source\PSoC6\pdl\drivers/peripheral/syspm/cy_syspm.h ****     ****************************************************************************//**
1558:Generated_Source\PSoC6\pdl\drivers/peripheral/syspm/cy_syspm.h ****     *
1559:Generated_Source\PSoC6\pdl\drivers/peripheral/syspm/cy_syspm.h ****     * Get the current status of the Buck regulator.
1560:Generated_Source\PSoC6\pdl\drivers/peripheral/syspm/cy_syspm.h ****     *
1561:Generated_Source\PSoC6\pdl\drivers/peripheral/syspm/cy_syspm.h ****     * \return
1562:Generated_Source\PSoC6\pdl\drivers/peripheral/syspm/cy_syspm.h ****     * The current state of the Buck regulator. True if the Buck regulator
ARM GAS  C:\Users\salaz\AppData\Local\Temp\cczs20OJ.s 			page 39


1563:Generated_Source\PSoC6\pdl\drivers/peripheral/syspm/cy_syspm.h ****     * is enabled; false if it is disabled.
1564:Generated_Source\PSoC6\pdl\drivers/peripheral/syspm/cy_syspm.h ****     *
1565:Generated_Source\PSoC6\pdl\drivers/peripheral/syspm/cy_syspm.h ****     * \funcusage
1566:Generated_Source\PSoC6\pdl\drivers/peripheral/syspm/cy_syspm.h ****     * \snippet syspm/syspm_2_20_sut_01.cydsn/main_cm4.c snippet_Cy_SysPm_VoltageRegulator
1567:Generated_Source\PSoC6\pdl\drivers/peripheral/syspm/cy_syspm.h ****     *
1568:Generated_Source\PSoC6\pdl\drivers/peripheral/syspm/cy_syspm.h ****     *******************************************************************************/
1569:Generated_Source\PSoC6\pdl\drivers/peripheral/syspm/cy_syspm.h ****     __STATIC_INLINE bool Cy_SysPm_BuckIsEnabled(void)
1570:Generated_Source\PSoC6\pdl\drivers/peripheral/syspm/cy_syspm.h ****     {
1571:Generated_Source\PSoC6\pdl\drivers/peripheral/syspm/cy_syspm.h ****         return((0u !=_FLD2VAL(SRSS_PWR_BUCK_CTL_BUCK_EN, SRSS->PWR_BUCK_CTL)) ? true : false);
 167              		.loc 2 1571 0
 168 004e A84B     		ldr	r3, .L53+28
 169 0050 5B69     		ldr	r3, [r3, #20]
 170              	.LBE40:
 171              	.LBE39:
 435:Generated_Source\PSoC6\pdl\middleware\ble/cy_ble_hal_pvt.c ****     {
 436:Generated_Source\PSoC6\pdl\middleware\ble/cy_ble_hal_pvt.c ****         cy_en_syspm_simo_buck_voltage1_t simoVoltage = CY_SYSPM_SIMO_BUCK_OUT1_VOLTAGE_1_1V;
 437:Generated_Source\PSoC6\pdl\middleware\ble/cy_ble_hal_pvt.c ****         cy_en_syspm_ldo_voltage_t ldoVoltage = CY_SYSPM_LDO_VOLTAGE_1_1V;
 438:Generated_Source\PSoC6\pdl\middleware\ble/cy_ble_hal_pvt.c ****         bool writeFlag = false;
 439:Generated_Source\PSoC6\pdl\middleware\ble/cy_ble_hal_pvt.c ****         
 440:Generated_Source\PSoC6\pdl\middleware\ble/cy_ble_hal_pvt.c ****         /* Increase core voltage for write to flash operation */
 441:Generated_Source\PSoC6\pdl\middleware\ble/cy_ble_hal_pvt.c ****         if(Cy_SysPm_SimoBuckIsEnabled())
 172              		.loc 1 441 0
 173 0052 5B00     		lsls	r3, r3, #1
 174 0054 10D5     		bpl	.L12
 175              	.LBB41:
 176              	.LBB42:
1572:Generated_Source\PSoC6\pdl\drivers/peripheral/syspm/cy_syspm.h ****     }
1573:Generated_Source\PSoC6\pdl\drivers/peripheral/syspm/cy_syspm.h **** 
1574:Generated_Source\PSoC6\pdl\drivers/peripheral/syspm/cy_syspm.h ****     /*******************************************************************************
1575:Generated_Source\PSoC6\pdl\drivers/peripheral/syspm/cy_syspm.h ****     * Function Name: Cy_SysPm_BuckGetVoltage1
1576:Generated_Source\PSoC6\pdl\drivers/peripheral/syspm/cy_syspm.h ****     ****************************************************************************//**
1577:Generated_Source\PSoC6\pdl\drivers/peripheral/syspm/cy_syspm.h ****     *
1578:Generated_Source\PSoC6\pdl\drivers/peripheral/syspm/cy_syspm.h ****     * Gets the current nominal output 1 voltage (Vccbuck1) of 
1579:Generated_Source\PSoC6\pdl\drivers/peripheral/syspm/cy_syspm.h ****     * the Buck regulator.
1580:Generated_Source\PSoC6\pdl\drivers/peripheral/syspm/cy_syspm.h ****     *
1581:Generated_Source\PSoC6\pdl\drivers/peripheral/syspm/cy_syspm.h ****     * \note The actual device output 1 voltage (Vccbuck1) can be different from
1582:Generated_Source\PSoC6\pdl\drivers/peripheral/syspm/cy_syspm.h ****     * the nominal voltage because the actual voltage value depends on the 
1583:Generated_Source\PSoC6\pdl\drivers/peripheral/syspm/cy_syspm.h ****     * conditions including the load current.
1584:Generated_Source\PSoC6\pdl\drivers/peripheral/syspm/cy_syspm.h ****     *
1585:Generated_Source\PSoC6\pdl\drivers/peripheral/syspm/cy_syspm.h ****     * \return
1586:Generated_Source\PSoC6\pdl\drivers/peripheral/syspm/cy_syspm.h ****     * The nominal output voltage 1 (Vccbuck1) of the Buck regulator.
1587:Generated_Source\PSoC6\pdl\drivers/peripheral/syspm/cy_syspm.h ****     * See \ref cy_en_syspm_buck_voltage1_t.
1588:Generated_Source\PSoC6\pdl\drivers/peripheral/syspm/cy_syspm.h ****     *
1589:Generated_Source\PSoC6\pdl\drivers/peripheral/syspm/cy_syspm.h ****     * \funcusage
1590:Generated_Source\PSoC6\pdl\drivers/peripheral/syspm/cy_syspm.h ****     * \snippet syspm/syspm_2_20_sut_01.cydsn/main_cm4.c snippet_Cy_SysPm_VoltageRegulator
1591:Generated_Source\PSoC6\pdl\drivers/peripheral/syspm/cy_syspm.h ****     *
1592:Generated_Source\PSoC6\pdl\drivers/peripheral/syspm/cy_syspm.h ****     *******************************************************************************/
1593:Generated_Source\PSoC6\pdl\drivers/peripheral/syspm/cy_syspm.h ****     __STATIC_INLINE cy_en_syspm_buck_voltage1_t Cy_SysPm_BuckGetVoltage1(void)
1594:Generated_Source\PSoC6\pdl\drivers/peripheral/syspm/cy_syspm.h ****     {
1595:Generated_Source\PSoC6\pdl\drivers/peripheral/syspm/cy_syspm.h ****         uint32_t retVal;
1596:Generated_Source\PSoC6\pdl\drivers/peripheral/syspm/cy_syspm.h ****         retVal = _FLD2VAL(SRSS_PWR_BUCK_CTL_BUCK_OUT1_SEL, SRSS->PWR_BUCK_CTL);
 177              		.loc 2 1596 0
 178 0056 A64B     		ldr	r3, .L53+28
 179 0058 5B69     		ldr	r3, [r3, #20]
 180              	.LVL15:
1597:Generated_Source\PSoC6\pdl\drivers/peripheral/syspm/cy_syspm.h **** 
1598:Generated_Source\PSoC6\pdl\drivers/peripheral/syspm/cy_syspm.h ****         return((cy_en_syspm_buck_voltage1_t) retVal);
ARM GAS  C:\Users\salaz\AppData\Local\Temp\cczs20OJ.s 			page 40


 181              		.loc 2 1598 0
 182 005a 0724     		movs	r4, #7
 183 005c 1C40     		ands	r4, r3
 184              	.LVL16:
 185              	.LBE42:
 186              	.LBE41:
 442:Generated_Source\PSoC6\pdl\middleware\ble/cy_ble_hal_pvt.c ****         {
 443:Generated_Source\PSoC6\pdl\middleware\ble/cy_ble_hal_pvt.c ****             simoVoltage = Cy_SysPm_SimoBuckGetVoltage1();
 444:Generated_Source\PSoC6\pdl\middleware\ble/cy_ble_hal_pvt.c ****             if(simoVoltage == CY_SYSPM_SIMO_BUCK_OUT1_VOLTAGE_0_9V)
 187              		.loc 1 444 0
 188 005e 022C     		cmp	r4, #2
 189 0060 25D1     		bne	.L44
 190              	.LVL17:
 191              	.L14:
 445:Generated_Source\PSoC6\pdl\middleware\ble/cy_ble_hal_pvt.c ****             {   /* Increase core voltage (SIMO) for write to flash operation */
 446:Generated_Source\PSoC6\pdl\middleware\ble/cy_ble_hal_pvt.c ****                 do /* Polls whether syspm is not busy */
 447:Generated_Source\PSoC6\pdl\middleware\ble/cy_ble_hal_pvt.c ****                 {
 448:Generated_Source\PSoC6\pdl\middleware\ble/cy_ble_hal_pvt.c ****                     syspmReturn = Cy_SysPm_BuckSetVoltage1(CY_SYSPM_SIMO_BUCK_OUT1_VOLTAGE_1_1V);
 192              		.loc 1 448 0 discriminator 1
 193 0062 0520     		movs	r0, #5
 194 0064 FFF7FEFF 		bl	Cy_SysPm_BuckSetVoltage1
 195              	.LVL18:
 196 0068 0190     		str	r0, [sp, #4]
 197              	.LVL19:
 449:Generated_Source\PSoC6\pdl\middleware\ble/cy_ble_hal_pvt.c ****                 } while(syspmReturn == CY_SYSPM_CANCELED);
 198              		.loc 1 449 0 discriminator 1
 199 006a A24B     		ldr	r3, .L53+32
 200 006c 9842     		cmp	r0, r3
 201 006e F8D0     		beq	.L14
 443:Generated_Source\PSoC6\pdl\middleware\ble/cy_ble_hal_pvt.c ****             if(simoVoltage == CY_SYSPM_SIMO_BUCK_OUT1_VOLTAGE_0_9V)
 202              		.loc 1 443 0
 203 0070 0394     		str	r4, [sp, #12]
 437:Generated_Source\PSoC6\pdl\middleware\ble/cy_ble_hal_pvt.c ****         bool writeFlag = false;
 204              		.loc 1 437 0
 205 0072 0123     		movs	r3, #1
 206 0074 0493     		str	r3, [sp, #16]
 207 0076 24E0     		b	.L13
 208              	.LVL20:
 209              	.L12:
 210              	.LBB43:
 211              	.LBB44:
1599:Generated_Source\PSoC6\pdl\drivers/peripheral/syspm/cy_syspm.h ****     }
1600:Generated_Source\PSoC6\pdl\drivers/peripheral/syspm/cy_syspm.h **** 
1601:Generated_Source\PSoC6\pdl\drivers/peripheral/syspm/cy_syspm.h **** 
1602:Generated_Source\PSoC6\pdl\drivers/peripheral/syspm/cy_syspm.h ****     #if(0u != SRSS_SIMOBUCK_PRESENT)
1603:Generated_Source\PSoC6\pdl\drivers/peripheral/syspm/cy_syspm.h ****         /*******************************************************************************
1604:Generated_Source\PSoC6\pdl\drivers/peripheral/syspm/cy_syspm.h ****         * Function Name: Cy_SysPm_BuckGetVoltage2
1605:Generated_Source\PSoC6\pdl\drivers/peripheral/syspm/cy_syspm.h ****         ****************************************************************************//**
1606:Generated_Source\PSoC6\pdl\drivers/peripheral/syspm/cy_syspm.h ****         *
1607:Generated_Source\PSoC6\pdl\drivers/peripheral/syspm/cy_syspm.h ****         * Gets the current output 2 nominal voltage (Vbuckrf) of the SIMO 
1608:Generated_Source\PSoC6\pdl\drivers/peripheral/syspm/cy_syspm.h ****         * Buck regulator.
