ARM GAS  C:\Users\salaz\AppData\Local\Temp\ccu2LhKM.s 			page 1


   1              		.syntax unified
   2              		.cpu cortex-m0plus
   3              		.fpu softvfp
   4              		.eabi_attribute 20, 1
   5              		.eabi_attribute 21, 1
   6              		.eabi_attribute 23, 3
   7              		.eabi_attribute 24, 1
   8              		.eabi_attribute 25, 1
   9              		.eabi_attribute 26, 1
  10              		.eabi_attribute 30, 1
  11              		.eabi_attribute 34, 0
  12              		.eabi_attribute 18, 4
  13              		.thumb
  14              		.syntax unified
  15              		.file	"cy_ble_gap.c"
  16              		.text
  17              	.Ltext0:
  18              		.cfi_sections	.debug_frame
  19              		.section	.text.Cy_BLE_ChangeAdLocalName,"ax",%progbits
  20              		.align	2
  21              		.code	16
  22              		.thumb_func
  23              		.type	Cy_BLE_ChangeAdLocalName, %function
  24              	Cy_BLE_ChangeAdLocalName:
  25              	.LFB165:
  26              		.file 1 "Generated_Source\\PSoC6\\pdl\\middleware\\ble\\cy_ble_gap.c"
   1:Generated_Source\PSoC6\pdl\middleware\ble/cy_ble_gap.c **** /***************************************************************************//**
   2:Generated_Source\PSoC6\pdl\middleware\ble/cy_ble_gap.c **** * \file cy_ble_gap.c
   3:Generated_Source\PSoC6\pdl\middleware\ble/cy_ble_gap.c **** * \version 2.20
   4:Generated_Source\PSoC6\pdl\middleware\ble/cy_ble_gap.c **** *
   5:Generated_Source\PSoC6\pdl\middleware\ble/cy_ble_gap.c **** * \brief
   6:Generated_Source\PSoC6\pdl\middleware\ble/cy_ble_gap.c **** *  This file contains the source code for the GAP API of the BLE Middleware.
   7:Generated_Source\PSoC6\pdl\middleware\ble/cy_ble_gap.c **** *
   8:Generated_Source\PSoC6\pdl\middleware\ble/cy_ble_gap.c **** ********************************************************************************
   9:Generated_Source\PSoC6\pdl\middleware\ble/cy_ble_gap.c **** * \copyright
  10:Generated_Source\PSoC6\pdl\middleware\ble/cy_ble_gap.c **** * Copyright 2017-2018, Cypress Semiconductor Corporation.  All rights reserved.
  11:Generated_Source\PSoC6\pdl\middleware\ble/cy_ble_gap.c **** * You may use this file only in accordance with the license, terms, conditions,
  12:Generated_Source\PSoC6\pdl\middleware\ble/cy_ble_gap.c **** * disclaimers, and limitations in the end user license agreement accompanying
  13:Generated_Source\PSoC6\pdl\middleware\ble/cy_ble_gap.c **** * the software package with which this file was provided.
  14:Generated_Source\PSoC6\pdl\middleware\ble/cy_ble_gap.c **** *******************************************************************************/
  15:Generated_Source\PSoC6\pdl\middleware\ble/cy_ble_gap.c **** 
  16:Generated_Source\PSoC6\pdl\middleware\ble/cy_ble_gap.c **** #include "cy_ble_event_handler.h"
  17:Generated_Source\PSoC6\pdl\middleware\ble/cy_ble_gap.c **** /* C binding of definitions if building with C++ compiler */
  18:Generated_Source\PSoC6\pdl\middleware\ble/cy_ble_gap.c **** #ifdef __cplusplus
  19:Generated_Source\PSoC6\pdl\middleware\ble/cy_ble_gap.c **** extern "C" {
  20:Generated_Source\PSoC6\pdl\middleware\ble/cy_ble_gap.c **** #endif /* __cplusplus */
  21:Generated_Source\PSoC6\pdl\middleware\ble/cy_ble_gap.c **** 
  22:Generated_Source\PSoC6\pdl\middleware\ble/cy_ble_gap.c **** #if (CY_BLE_MODE_PROFILE)
  23:Generated_Source\PSoC6\pdl\middleware\ble/cy_ble_gap.c **** 
  24:Generated_Source\PSoC6\pdl\middleware\ble/cy_ble_gap.c **** #include "cy_ble.h"
  25:Generated_Source\PSoC6\pdl\middleware\ble/cy_ble_gap.c **** #include "cy_ble_hal_pvt.h"
  26:Generated_Source\PSoC6\pdl\middleware\ble/cy_ble_gap.c **** #include <stdlib.h>
  27:Generated_Source\PSoC6\pdl\middleware\ble/cy_ble_gap.c **** 
  28:Generated_Source\PSoC6\pdl\middleware\ble/cy_ble_gap.c **** /***************************************
  29:Generated_Source\PSoC6\pdl\middleware\ble/cy_ble_gap.c **** * Function Prototypes
  30:Generated_Source\PSoC6\pdl\middleware\ble/cy_ble_gap.c **** ***************************************/
  31:Generated_Source\PSoC6\pdl\middleware\ble/cy_ble_gap.c **** 
ARM GAS  C:\Users\salaz\AppData\Local\Temp\ccu2LhKM.s 			page 2


  32:Generated_Source\PSoC6\pdl\middleware\ble/cy_ble_gap.c **** #if (CY_BLE_GATT_ROLE_SERVER)
  33:Generated_Source\PSoC6\pdl\middleware\ble/cy_ble_gap.c ****     #if (CY_BLE_GAP_ROLE_PERIPHERAL)
  34:Generated_Source\PSoC6\pdl\middleware\ble/cy_ble_gap.c **** static void Cy_BLE_ChangeAdLocalName(const char8 name[], uint8_t dest);
  35:Generated_Source\PSoC6\pdl\middleware\ble/cy_ble_gap.c ****     #endif /* (CY_BLE_GAP_ROLE_PERIPHERAL) */
  36:Generated_Source\PSoC6\pdl\middleware\ble/cy_ble_gap.c **** #endif     /* (CY_BLE_GATT_ROLE_SERVER) */
  37:Generated_Source\PSoC6\pdl\middleware\ble/cy_ble_gap.c **** 
  38:Generated_Source\PSoC6\pdl\middleware\ble/cy_ble_gap.c **** 
  39:Generated_Source\PSoC6\pdl\middleware\ble/cy_ble_gap.c **** /***************************************
  40:Generated_Source\PSoC6\pdl\middleware\ble/cy_ble_gap.c **** * Global Variables
  41:Generated_Source\PSoC6\pdl\middleware\ble/cy_ble_gap.c **** ***************************************/
  42:Generated_Source\PSoC6\pdl\middleware\ble/cy_ble_gap.c **** 
  43:Generated_Source\PSoC6\pdl\middleware\ble/cy_ble_gap.c **** cy_en_ble_state_t cy_ble_state;
  44:Generated_Source\PSoC6\pdl\middleware\ble/cy_ble_gap.c **** 
  45:Generated_Source\PSoC6\pdl\middleware\ble/cy_ble_gap.c **** #if (CY_BLE_GAP_ROLE_PERIPHERAL || CY_BLE_GAP_ROLE_BROADCASTER)
  46:Generated_Source\PSoC6\pdl\middleware\ble/cy_ble_gap.c **** cy_en_ble_adv_state_t cy_ble_advState;
  47:Generated_Source\PSoC6\pdl\middleware\ble/cy_ble_gap.c **** uint8_t cy_ble_advIndex;
  48:Generated_Source\PSoC6\pdl\middleware\ble/cy_ble_gap.c **** #endif  /* (CY_BLE_GAP_ROLE_PERIPHERAL || CY_BLE_GAP_ROLE_BROADCASTER) */
  49:Generated_Source\PSoC6\pdl\middleware\ble/cy_ble_gap.c **** 
  50:Generated_Source\PSoC6\pdl\middleware\ble/cy_ble_gap.c **** #if (CY_BLE_GAP_ROLE_CENTRAL || CY_BLE_GAP_ROLE_OBSERVER)
  51:Generated_Source\PSoC6\pdl\middleware\ble/cy_ble_gap.c **** cy_en_ble_scan_state_t cy_ble_scanState;
  52:Generated_Source\PSoC6\pdl\middleware\ble/cy_ble_gap.c **** uint8_t cy_ble_scanIndex;
  53:Generated_Source\PSoC6\pdl\middleware\ble/cy_ble_gap.c **** #endif /* (CY_BLE_GAP_ROLE_CENTRAL || CY_BLE_GAP_ROLE_OBSERVER) */
  54:Generated_Source\PSoC6\pdl\middleware\ble/cy_ble_gap.c **** 
  55:Generated_Source\PSoC6\pdl\middleware\ble/cy_ble_gap.c **** #if ((CY_BLE_GAP_ROLE_PERIPHERAL || CY_BLE_GAP_ROLE_CENTRAL))
  56:Generated_Source\PSoC6\pdl\middleware\ble/cy_ble_gap.c **** 
  57:Generated_Source\PSoC6\pdl\middleware\ble/cy_ble_gap.c **** /**
  58:Generated_Source\PSoC6\pdl\middleware\ble/cy_ble_gap.c ****  * \addtogroup group_ble_common_api_global_variables
  59:Generated_Source\PSoC6\pdl\middleware\ble/cy_ble_gap.c ****  * @{
  60:Generated_Source\PSoC6\pdl\middleware\ble/cy_ble_gap.c ****  */    
  61:Generated_Source\PSoC6\pdl\middleware\ble/cy_ble_gap.c **** /** 
  62:Generated_Source\PSoC6\pdl\middleware\ble/cy_ble_gap.c ****  * This global variable is initialized after connection with peer device,
  63:Generated_Source\PSoC6\pdl\middleware\ble/cy_ble_gap.c ****  * after CY_BLE_EVT_GATT_CONNECT_IND event, and could be used by application code
  64:Generated_Source\PSoC6\pdl\middleware\ble/cy_ble_gap.c ****  * to send data to peer device.
  65:Generated_Source\PSoC6\pdl\middleware\ble/cy_ble_gap.c ****  */
  66:Generated_Source\PSoC6\pdl\middleware\ble/cy_ble_gap.c **** cy_stc_ble_conn_handle_t cy_ble_connHandle[CY_BLE_CONN_COUNT];
  67:Generated_Source\PSoC6\pdl\middleware\ble/cy_ble_gap.c **** /** @} group_ble_common_api_global_variables */
  68:Generated_Source\PSoC6\pdl\middleware\ble/cy_ble_gap.c **** 
  69:Generated_Source\PSoC6\pdl\middleware\ble/cy_ble_gap.c **** cy_en_ble_conn_state_t cy_ble_connState[CY_BLE_CONN_COUNT];
  70:Generated_Source\PSoC6\pdl\middleware\ble/cy_ble_gap.c **** 
  71:Generated_Source\PSoC6\pdl\middleware\ble/cy_ble_gap.c **** volatile uint8_t cy_ble_devConnRole[CY_BLE_CONN_COUNT] = {0u}; /* Store information that device con
  72:Generated_Source\PSoC6\pdl\middleware\ble/cy_ble_gap.c ****                                                                 * CY_BLE_GAP_LL_ROLE_SLAVE or CY_BL
  73:Generated_Source\PSoC6\pdl\middleware\ble/cy_ble_gap.c ****                                                                 */
  74:Generated_Source\PSoC6\pdl\middleware\ble/cy_ble_gap.c **** 
  75:Generated_Source\PSoC6\pdl\middleware\ble/cy_ble_gap.c **** volatile bool cy_ble_pairStatus[CY_BLE_CONN_COUNT] = {false};  /* Store information is device paire
  76:Generated_Source\PSoC6\pdl\middleware\ble/cy_ble_gap.c **** 
  77:Generated_Source\PSoC6\pdl\middleware\ble/cy_ble_gap.c **** #if (CY_BLE_BONDING_REQUIREMENT == CY_BLE_BONDING_YES)
  78:Generated_Source\PSoC6\pdl\middleware\ble/cy_ble_gap.c **** uint8_t cy_ble_peerBonding[CY_BLE_CONN_COUNT];
  79:Generated_Source\PSoC6\pdl\middleware\ble/cy_ble_gap.c **** uint8_t cy_ble_pendingFlashWrite;
  80:Generated_Source\PSoC6\pdl\middleware\ble/cy_ble_gap.c **** 
  81:Generated_Source\PSoC6\pdl\middleware\ble/cy_ble_gap.c **** #if (CY_BLE_GATT_DB_CCCD_COUNT != 0u)
  82:Generated_Source\PSoC6\pdl\middleware\ble/cy_ble_gap.c **** static uint8_t cy_ble_pendingFlashClearCccdHandle;
  83:Generated_Source\PSoC6\pdl\middleware\ble/cy_ble_gap.c **** #endif /* CY_BLE_GATT_DB_CCCD_COUNT != 0u */
  84:Generated_Source\PSoC6\pdl\middleware\ble/cy_ble_gap.c **** 
  85:Generated_Source\PSoC6\pdl\middleware\ble/cy_ble_gap.c **** #endif /* (CY_BLE_BONDING_REQUIREMENT == CY_BLE_BONDING_YES) */
  86:Generated_Source\PSoC6\pdl\middleware\ble/cy_ble_gap.c **** #endif /* (CY_BLE_BONDING_REQUIREMENT == CY_BLE_BONDING_YES) */
  87:Generated_Source\PSoC6\pdl\middleware\ble/cy_ble_gap.c **** 
  88:Generated_Source\PSoC6\pdl\middleware\ble/cy_ble_gap.c **** #if (CY_BLE_GAP_ROLE_CENTRAL)
ARM GAS  C:\Users\salaz\AppData\Local\Temp\ccu2LhKM.s 			page 3


  89:Generated_Source\PSoC6\pdl\middleware\ble/cy_ble_gap.c **** 
  90:Generated_Source\PSoC6\pdl\middleware\ble/cy_ble_gap.c **** cy_stc_ble_gapc_conn_info_t cy_ble_connectionParameters;
  91:Generated_Source\PSoC6\pdl\middleware\ble/cy_ble_gap.c **** 
  92:Generated_Source\PSoC6\pdl\middleware\ble/cy_ble_gap.c **** /* Connecting timeout is set to 30 seconds in Cy_BLE_Init function.
  93:Generated_Source\PSoC6\pdl\middleware\ble/cy_ble_gap.c ****  * Not zero value starts timer in Cy_BLE_GAPC_ConnectDevice().
  94:Generated_Source\PSoC6\pdl\middleware\ble/cy_ble_gap.c ****  */
  95:Generated_Source\PSoC6\pdl\middleware\ble/cy_ble_gap.c **** cy_stc_ble_timer_info_t cy_ble_connectingTimeout;
  96:Generated_Source\PSoC6\pdl\middleware\ble/cy_ble_gap.c **** 
  97:Generated_Source\PSoC6\pdl\middleware\ble/cy_ble_gap.c **** #endif /* CY_BLE_GAP_ROLE_CENTRAL */
  98:Generated_Source\PSoC6\pdl\middleware\ble/cy_ble_gap.c **** 
  99:Generated_Source\PSoC6\pdl\middleware\ble/cy_ble_gap.c **** cy_stc_ble_gap_bd_addr_t * cy_ble_sflashDeviceAddress = CY_BLE_SFLASH_DEVICE_ADDRESS_PTR;
 100:Generated_Source\PSoC6\pdl\middleware\ble/cy_ble_gap.c **** 
 101:Generated_Source\PSoC6\pdl\middleware\ble/cy_ble_gap.c **** 
 102:Generated_Source\PSoC6\pdl\middleware\ble/cy_ble_gap.c **** 
 103:Generated_Source\PSoC6\pdl\middleware\ble/cy_ble_gap.c **** /******************************************************************************
 104:Generated_Source\PSoC6\pdl\middleware\ble/cy_ble_gap.c **** * Function Name: Cy_BLE_ServiceInit
 105:Generated_Source\PSoC6\pdl\middleware\ble/cy_ble_gap.c **** ***************************************************************************//**
 106:Generated_Source\PSoC6\pdl\middleware\ble/cy_ble_gap.c **** *
 107:Generated_Source\PSoC6\pdl\middleware\ble/cy_ble_gap.c **** *  Initializes all included services.
 108:Generated_Source\PSoC6\pdl\middleware\ble/cy_ble_gap.c **** *
 109:Generated_Source\PSoC6\pdl\middleware\ble/cy_ble_gap.c **** * \return
 110:Generated_Source\PSoC6\pdl\middleware\ble/cy_ble_gap.c **** *  None
 111:Generated_Source\PSoC6\pdl\middleware\ble/cy_ble_gap.c **** *
 112:Generated_Source\PSoC6\pdl\middleware\ble/cy_ble_gap.c **** ******************************************************************************/
 113:Generated_Source\PSoC6\pdl\middleware\ble/cy_ble_gap.c **** void Cy_BLE_ServiceInit(void)
 114:Generated_Source\PSoC6\pdl\middleware\ble/cy_ble_gap.c **** {
 115:Generated_Source\PSoC6\pdl\middleware\ble/cy_ble_gap.c ****     #if (CY_BLE_GATT_ROLE_CLIENT)
 116:Generated_Source\PSoC6\pdl\middleware\ble/cy_ble_gap.c ****     uint32_t idx;
 117:Generated_Source\PSoC6\pdl\middleware\ble/cy_ble_gap.c ****     for(idx = 0u; idx < CY_BLE_GATTC_COUNT; idx++)
 118:Generated_Source\PSoC6\pdl\middleware\ble/cy_ble_gap.c ****     {
 119:Generated_Source\PSoC6\pdl\middleware\ble/cy_ble_gap.c ****         /* Check service range before clearing to support partial discovery */
 120:Generated_Source\PSoC6\pdl\middleware\ble/cy_ble_gap.c ****         if(cy_ble_serverInfo[idx][CY_BLE_SRVI_GAP].range.startHandle == CY_BLE_GATT_INVALID_ATTR_HA
 121:Generated_Source\PSoC6\pdl\middleware\ble/cy_ble_gap.c ****         {
 122:Generated_Source\PSoC6\pdl\middleware\ble/cy_ble_gap.c ****             (void)memset(&cy_ble_discovery[idx].gapc, 0, sizeof(cy_stc_ble_gapc_t));
 123:Generated_Source\PSoC6\pdl\middleware\ble/cy_ble_gap.c **** 
 124:Generated_Source\PSoC6\pdl\middleware\ble/cy_ble_gap.c ****             /* Initialize UUID  */
 125:Generated_Source\PSoC6\pdl\middleware\ble/cy_ble_gap.c ****             cy_ble_serverInfo[idx][CY_BLE_SRVI_GAP].uuid = CY_BLE_UUID_GAP_SERVICE;
 126:Generated_Source\PSoC6\pdl\middleware\ble/cy_ble_gap.c ****         }
 127:Generated_Source\PSoC6\pdl\middleware\ble/cy_ble_gap.c **** 
 128:Generated_Source\PSoC6\pdl\middleware\ble/cy_ble_gap.c ****         /* Check service range before clearing to support partial discovery */
 129:Generated_Source\PSoC6\pdl\middleware\ble/cy_ble_gap.c ****         if(cy_ble_serverInfo[idx][CY_BLE_SRVI_GATT].range.startHandle == CY_BLE_GATT_INVALID_ATTR_H
 130:Generated_Source\PSoC6\pdl\middleware\ble/cy_ble_gap.c ****         {
 131:Generated_Source\PSoC6\pdl\middleware\ble/cy_ble_gap.c ****             (void)memset(&cy_ble_discovery[idx].gattc, 0, sizeof(cy_stc_ble_gattc_t));
 132:Generated_Source\PSoC6\pdl\middleware\ble/cy_ble_gap.c **** 
 133:Generated_Source\PSoC6\pdl\middleware\ble/cy_ble_gap.c ****             /* Initialize UUID  */
 134:Generated_Source\PSoC6\pdl\middleware\ble/cy_ble_gap.c ****             cy_ble_serverInfo[idx][CY_BLE_SRVI_GATT].uuid = CY_BLE_UUID_GATT_SERVICE;
 135:Generated_Source\PSoC6\pdl\middleware\ble/cy_ble_gap.c ****         }
 136:Generated_Source\PSoC6\pdl\middleware\ble/cy_ble_gap.c **** 
 137:Generated_Source\PSoC6\pdl\middleware\ble/cy_ble_gap.c ****         #ifdef CY_BLE_IPSS_CLIENT
 138:Generated_Source\PSoC6\pdl\middleware\ble/cy_ble_gap.c ****         cy_ble_serverInfo[idx][CY_BLE_SRVI_IPSS].uuid = CY_BLE_UUID_INTERNET_PROTOCOL_SUPPORT_SERVI
 139:Generated_Source\PSoC6\pdl\middleware\ble/cy_ble_gap.c ****         #endif /* CY_BLE_IPSS_CLIENT */
 140:Generated_Source\PSoC6\pdl\middleware\ble/cy_ble_gap.c ****     }
 141:Generated_Source\PSoC6\pdl\middleware\ble/cy_ble_gap.c ****     #endif     /* CY_BLE_GATT_ROLE_CLIENT */
 142:Generated_Source\PSoC6\pdl\middleware\ble/cy_ble_gap.c **** 
 143:Generated_Source\PSoC6\pdl\middleware\ble/cy_ble_gap.c ****     #ifdef CY_BLE_ANCS
 144:Generated_Source\PSoC6\pdl\middleware\ble/cy_ble_gap.c ****     (void)Cy_BLE_ANCS_Init(&cy_ble_ancsConfig);
 145:Generated_Source\PSoC6\pdl\middleware\ble/cy_ble_gap.c ****     #endif /* CY_BLE_ANCS */
ARM GAS  C:\Users\salaz\AppData\Local\Temp\ccu2LhKM.s 			page 4


 146:Generated_Source\PSoC6\pdl\middleware\ble/cy_ble_gap.c **** 
 147:Generated_Source\PSoC6\pdl\middleware\ble/cy_ble_gap.c ****     #ifdef CY_BLE_ANS
 148:Generated_Source\PSoC6\pdl\middleware\ble/cy_ble_gap.c ****     (void)Cy_BLE_ANS_Init(&cy_ble_ansConfig);
 149:Generated_Source\PSoC6\pdl\middleware\ble/cy_ble_gap.c ****     #endif /* CY_BLE_ANS */
 150:Generated_Source\PSoC6\pdl\middleware\ble/cy_ble_gap.c **** 
 151:Generated_Source\PSoC6\pdl\middleware\ble/cy_ble_gap.c ****     #ifdef CY_BLE_AIOS
 152:Generated_Source\PSoC6\pdl\middleware\ble/cy_ble_gap.c ****     (void)Cy_BLE_AIOS_Init(&cy_ble_aiosConfig);
 153:Generated_Source\PSoC6\pdl\middleware\ble/cy_ble_gap.c ****     #endif /* CY_BLE_AIOS */
 154:Generated_Source\PSoC6\pdl\middleware\ble/cy_ble_gap.c **** 
 155:Generated_Source\PSoC6\pdl\middleware\ble/cy_ble_gap.c ****     #ifdef CY_BLE_BAS
 156:Generated_Source\PSoC6\pdl\middleware\ble/cy_ble_gap.c ****     (void)Cy_BLE_BAS_Init(&cy_ble_basConfig);
 157:Generated_Source\PSoC6\pdl\middleware\ble/cy_ble_gap.c ****     #endif /* CY_BLE_BAS */
 158:Generated_Source\PSoC6\pdl\middleware\ble/cy_ble_gap.c **** 
 159:Generated_Source\PSoC6\pdl\middleware\ble/cy_ble_gap.c ****     #ifdef CY_BLE_BCS
 160:Generated_Source\PSoC6\pdl\middleware\ble/cy_ble_gap.c ****     (void)Cy_BLE_BCS_Init(&cy_ble_bcsConfig);
 161:Generated_Source\PSoC6\pdl\middleware\ble/cy_ble_gap.c ****     #endif /* CY_BLE_BCS */
 162:Generated_Source\PSoC6\pdl\middleware\ble/cy_ble_gap.c **** 
 163:Generated_Source\PSoC6\pdl\middleware\ble/cy_ble_gap.c ****     #ifdef CY_BLE_BLS
 164:Generated_Source\PSoC6\pdl\middleware\ble/cy_ble_gap.c ****     (void)Cy_BLE_BLS_Init(&cy_ble_blsConfig);
 165:Generated_Source\PSoC6\pdl\middleware\ble/cy_ble_gap.c ****     #endif /* CY_BLE_BLS */
 166:Generated_Source\PSoC6\pdl\middleware\ble/cy_ble_gap.c **** 
 167:Generated_Source\PSoC6\pdl\middleware\ble/cy_ble_gap.c ****     #ifdef CY_BLE_BMS
 168:Generated_Source\PSoC6\pdl\middleware\ble/cy_ble_gap.c ****     (void)Cy_BLE_BMS_Init(&cy_ble_bmsConfig);
 169:Generated_Source\PSoC6\pdl\middleware\ble/cy_ble_gap.c ****     #endif /* CY_BLE_BMS */
 170:Generated_Source\PSoC6\pdl\middleware\ble/cy_ble_gap.c **** 
 171:Generated_Source\PSoC6\pdl\middleware\ble/cy_ble_gap.c ****     #ifdef CY_BLE_BTS
 172:Generated_Source\PSoC6\pdl\middleware\ble/cy_ble_gap.c ****     (void)Cy_BLE_BTS_Init(&cy_ble_btsConfig);
 173:Generated_Source\PSoC6\pdl\middleware\ble/cy_ble_gap.c ****     #endif /* CY_BLE_BTS */
 174:Generated_Source\PSoC6\pdl\middleware\ble/cy_ble_gap.c **** 
 175:Generated_Source\PSoC6\pdl\middleware\ble/cy_ble_gap.c ****     #ifdef CY_BLE_CGMS
 176:Generated_Source\PSoC6\pdl\middleware\ble/cy_ble_gap.c ****     (void)Cy_BLE_CGMS_Init(&cy_ble_cgmsConfig);
 177:Generated_Source\PSoC6\pdl\middleware\ble/cy_ble_gap.c ****     #endif /* CY_BLE_CGMS */
 178:Generated_Source\PSoC6\pdl\middleware\ble/cy_ble_gap.c **** 
 179:Generated_Source\PSoC6\pdl\middleware\ble/cy_ble_gap.c ****     #ifdef CY_BLE_CPS
 180:Generated_Source\PSoC6\pdl\middleware\ble/cy_ble_gap.c ****     (void)Cy_BLE_CPS_Init(&cy_ble_cpsConfig);
 181:Generated_Source\PSoC6\pdl\middleware\ble/cy_ble_gap.c ****     #endif /* CY_BLE_CPS */
 182:Generated_Source\PSoC6\pdl\middleware\ble/cy_ble_gap.c **** 
 183:Generated_Source\PSoC6\pdl\middleware\ble/cy_ble_gap.c ****     #ifdef CY_BLE_CSCS
 184:Generated_Source\PSoC6\pdl\middleware\ble/cy_ble_gap.c ****     (void)Cy_BLE_CSCS_Init(&cy_ble_cscsConfig);
 185:Generated_Source\PSoC6\pdl\middleware\ble/cy_ble_gap.c ****     #endif /* CY_BLE_CSCS */
 186:Generated_Source\PSoC6\pdl\middleware\ble/cy_ble_gap.c **** 
 187:Generated_Source\PSoC6\pdl\middleware\ble/cy_ble_gap.c ****     #ifdef CY_BLE_CTS
 188:Generated_Source\PSoC6\pdl\middleware\ble/cy_ble_gap.c ****     (void)Cy_BLE_CTS_Init(&cy_ble_ctsConfig);
 189:Generated_Source\PSoC6\pdl\middleware\ble/cy_ble_gap.c ****     #endif /* CY_BLE_CTS */
 190:Generated_Source\PSoC6\pdl\middleware\ble/cy_ble_gap.c **** 
 191:Generated_Source\PSoC6\pdl\middleware\ble/cy_ble_gap.c ****     #ifdef CY_BLE_CUSTOM
 192:Generated_Source\PSoC6\pdl\middleware\ble/cy_ble_gap.c ****     (void)Cy_BLE_CUSTOM_Init(&cy_ble_customConfig);
 193:Generated_Source\PSoC6\pdl\middleware\ble/cy_ble_gap.c ****     #endif /* CY_BLE_CUSTOM */
 194:Generated_Source\PSoC6\pdl\middleware\ble/cy_ble_gap.c **** 
 195:Generated_Source\PSoC6\pdl\middleware\ble/cy_ble_gap.c ****     #ifdef CY_BLE_DIS
 196:Generated_Source\PSoC6\pdl\middleware\ble/cy_ble_gap.c ****     (void)Cy_BLE_DIS_Init(&cy_ble_disConfig);
 197:Generated_Source\PSoC6\pdl\middleware\ble/cy_ble_gap.c ****     #endif /* CY_BLE_DIS */
 198:Generated_Source\PSoC6\pdl\middleware\ble/cy_ble_gap.c **** 
 199:Generated_Source\PSoC6\pdl\middleware\ble/cy_ble_gap.c ****     #ifdef CY_BLE_ESS
 200:Generated_Source\PSoC6\pdl\middleware\ble/cy_ble_gap.c ****     (void)Cy_BLE_ESS_Init(&cy_ble_essConfig);
 201:Generated_Source\PSoC6\pdl\middleware\ble/cy_ble_gap.c ****     #endif /* CY_BLE_ESS */
 202:Generated_Source\PSoC6\pdl\middleware\ble/cy_ble_gap.c **** 
ARM GAS  C:\Users\salaz\AppData\Local\Temp\ccu2LhKM.s 			page 5


 203:Generated_Source\PSoC6\pdl\middleware\ble/cy_ble_gap.c ****     #ifdef CY_BLE_GLS
 204:Generated_Source\PSoC6\pdl\middleware\ble/cy_ble_gap.c ****     (void)Cy_BLE_GLS_Init(&cy_ble_glsConfig);
 205:Generated_Source\PSoC6\pdl\middleware\ble/cy_ble_gap.c ****     #endif /* CY_BLE_GLS */
 206:Generated_Source\PSoC6\pdl\middleware\ble/cy_ble_gap.c **** 
 207:Generated_Source\PSoC6\pdl\middleware\ble/cy_ble_gap.c ****     #ifdef CY_BLE_HIDS
 208:Generated_Source\PSoC6\pdl\middleware\ble/cy_ble_gap.c ****     (void)Cy_BLE_HIDS_Init(&cy_ble_hidsConfig);
 209:Generated_Source\PSoC6\pdl\middleware\ble/cy_ble_gap.c ****     #endif /* CY_BLE_HIDS */
 210:Generated_Source\PSoC6\pdl\middleware\ble/cy_ble_gap.c **** 
 211:Generated_Source\PSoC6\pdl\middleware\ble/cy_ble_gap.c ****     #ifdef CY_BLE_HPS
 212:Generated_Source\PSoC6\pdl\middleware\ble/cy_ble_gap.c ****     (void)Cy_BLE_HPS_Init(&cy_ble_hpsConfig);
 213:Generated_Source\PSoC6\pdl\middleware\ble/cy_ble_gap.c ****     #endif /* CY_BLE_HPS */
 214:Generated_Source\PSoC6\pdl\middleware\ble/cy_ble_gap.c **** 
 215:Generated_Source\PSoC6\pdl\middleware\ble/cy_ble_gap.c ****     #ifdef CY_BLE_HRS
 216:Generated_Source\PSoC6\pdl\middleware\ble/cy_ble_gap.c ****     (void)Cy_BLE_HRS_Init(&cy_ble_hrsConfig);
 217:Generated_Source\PSoC6\pdl\middleware\ble/cy_ble_gap.c ****     #endif /* CY_BLE_HRS */
 218:Generated_Source\PSoC6\pdl\middleware\ble/cy_ble_gap.c **** 
 219:Generated_Source\PSoC6\pdl\middleware\ble/cy_ble_gap.c ****     #ifdef CY_BLE_HTS
 220:Generated_Source\PSoC6\pdl\middleware\ble/cy_ble_gap.c ****     (void)Cy_BLE_HTS_Init(&cy_ble_htsConfig);
 221:Generated_Source\PSoC6\pdl\middleware\ble/cy_ble_gap.c ****     #endif /* CY_BLE_RSCS */
 222:Generated_Source\PSoC6\pdl\middleware\ble/cy_ble_gap.c **** 
 223:Generated_Source\PSoC6\pdl\middleware\ble/cy_ble_gap.c ****     #ifdef CY_BLE_IAS
 224:Generated_Source\PSoC6\pdl\middleware\ble/cy_ble_gap.c ****     (void)Cy_BLE_IAS_Init(&cy_ble_iasConfig);
 225:Generated_Source\PSoC6\pdl\middleware\ble/cy_ble_gap.c ****     #endif /* CY_BLE_IAS */
 226:Generated_Source\PSoC6\pdl\middleware\ble/cy_ble_gap.c **** 
 227:Generated_Source\PSoC6\pdl\middleware\ble/cy_ble_gap.c ****     #ifdef CY_BLE_IPS
 228:Generated_Source\PSoC6\pdl\middleware\ble/cy_ble_gap.c ****     (void)Cy_BLE_IPS_Init(&cy_ble_ipsConfig);
 229:Generated_Source\PSoC6\pdl\middleware\ble/cy_ble_gap.c ****     #endif /* CY_BLE_IPS */
 230:Generated_Source\PSoC6\pdl\middleware\ble/cy_ble_gap.c **** 
 231:Generated_Source\PSoC6\pdl\middleware\ble/cy_ble_gap.c ****     #ifdef CY_BLE_LLS
 232:Generated_Source\PSoC6\pdl\middleware\ble/cy_ble_gap.c ****     (void)Cy_BLE_LLS_Init(&cy_ble_llsConfig);
 233:Generated_Source\PSoC6\pdl\middleware\ble/cy_ble_gap.c ****     #endif /* CY_BLE_LLS */
 234:Generated_Source\PSoC6\pdl\middleware\ble/cy_ble_gap.c **** 
 235:Generated_Source\PSoC6\pdl\middleware\ble/cy_ble_gap.c ****     #ifdef CY_BLE_LNS
 236:Generated_Source\PSoC6\pdl\middleware\ble/cy_ble_gap.c ****     (void)Cy_BLE_LNS_Init(&cy_ble_lnsConfig);
 237:Generated_Source\PSoC6\pdl\middleware\ble/cy_ble_gap.c ****     #endif /* CY_BLE_LNS */
 238:Generated_Source\PSoC6\pdl\middleware\ble/cy_ble_gap.c **** 
 239:Generated_Source\PSoC6\pdl\middleware\ble/cy_ble_gap.c ****     #ifdef CY_BLE_NDCS
 240:Generated_Source\PSoC6\pdl\middleware\ble/cy_ble_gap.c ****     (void)Cy_BLE_NDCS_Init(&cy_ble_ndcsConfig);
 241:Generated_Source\PSoC6\pdl\middleware\ble/cy_ble_gap.c ****     #endif /* CY_BLE_NDCS */
 242:Generated_Source\PSoC6\pdl\middleware\ble/cy_ble_gap.c **** 
 243:Generated_Source\PSoC6\pdl\middleware\ble/cy_ble_gap.c ****     #ifdef CY_BLE_PASS
 244:Generated_Source\PSoC6\pdl\middleware\ble/cy_ble_gap.c ****     (void)Cy_BLE_PASS_Init(&cy_ble_passConfig);
 245:Generated_Source\PSoC6\pdl\middleware\ble/cy_ble_gap.c ****     #endif /* CY_BLE_PASS */
 246:Generated_Source\PSoC6\pdl\middleware\ble/cy_ble_gap.c **** 
 247:Generated_Source\PSoC6\pdl\middleware\ble/cy_ble_gap.c ****     #ifdef CY_BLE_RSCS
 248:Generated_Source\PSoC6\pdl\middleware\ble/cy_ble_gap.c ****     (void)Cy_BLE_RSCS_Init(&cy_ble_rscsConfig);
 249:Generated_Source\PSoC6\pdl\middleware\ble/cy_ble_gap.c ****     #endif /* CY_BLE_RSCS */
 250:Generated_Source\PSoC6\pdl\middleware\ble/cy_ble_gap.c **** 
 251:Generated_Source\PSoC6\pdl\middleware\ble/cy_ble_gap.c ****     #ifdef CY_BLE_PLXS
 252:Generated_Source\PSoC6\pdl\middleware\ble/cy_ble_gap.c ****     (void)Cy_BLE_PLXS_Init(&cy_ble_plxsConfig);
 253:Generated_Source\PSoC6\pdl\middleware\ble/cy_ble_gap.c ****     #endif /* CY_BLE_PLXS */
 254:Generated_Source\PSoC6\pdl\middleware\ble/cy_ble_gap.c **** 
 255:Generated_Source\PSoC6\pdl\middleware\ble/cy_ble_gap.c ****     #ifdef CY_BLE_RTUS
 256:Generated_Source\PSoC6\pdl\middleware\ble/cy_ble_gap.c ****     (void)Cy_BLE_RTUS_Init(&cy_ble_rtusConfig);
 257:Generated_Source\PSoC6\pdl\middleware\ble/cy_ble_gap.c ****     #endif /* CY_BLE_RTUS */
 258:Generated_Source\PSoC6\pdl\middleware\ble/cy_ble_gap.c **** 
 259:Generated_Source\PSoC6\pdl\middleware\ble/cy_ble_gap.c ****     #ifdef CY_BLE_SCPS
ARM GAS  C:\Users\salaz\AppData\Local\Temp\ccu2LhKM.s 			page 6


 260:Generated_Source\PSoC6\pdl\middleware\ble/cy_ble_gap.c ****     (void)Cy_BLE_SCPS_Init(&cy_ble_scpsConfig);
 261:Generated_Source\PSoC6\pdl\middleware\ble/cy_ble_gap.c ****     #endif /* CY_BLE_SCPS */
 262:Generated_Source\PSoC6\pdl\middleware\ble/cy_ble_gap.c **** 
 263:Generated_Source\PSoC6\pdl\middleware\ble/cy_ble_gap.c ****     #ifdef CY_BLE_TPS
 264:Generated_Source\PSoC6\pdl\middleware\ble/cy_ble_gap.c ****     (void)Cy_BLE_TPS_Init(&cy_ble_tpsConfig);
 265:Generated_Source\PSoC6\pdl\middleware\ble/cy_ble_gap.c ****     #endif /* CY_BLE_TPS */
 266:Generated_Source\PSoC6\pdl\middleware\ble/cy_ble_gap.c **** 
 267:Generated_Source\PSoC6\pdl\middleware\ble/cy_ble_gap.c ****     #ifdef CY_BLE_UDS
 268:Generated_Source\PSoC6\pdl\middleware\ble/cy_ble_gap.c ****     (void)Cy_BLE_UDS_Init(&cy_ble_udsConfig);
 269:Generated_Source\PSoC6\pdl\middleware\ble/cy_ble_gap.c ****     #endif /* CY_BLE_UDS */
 270:Generated_Source\PSoC6\pdl\middleware\ble/cy_ble_gap.c **** 
 271:Generated_Source\PSoC6\pdl\middleware\ble/cy_ble_gap.c ****     #ifdef CY_BLE_WPTS
 272:Generated_Source\PSoC6\pdl\middleware\ble/cy_ble_gap.c ****     (void)Cy_BLE_WPTS_Init(&cy_ble_wptsConfig);
 273:Generated_Source\PSoC6\pdl\middleware\ble/cy_ble_gap.c ****     #endif /* CY_BLE_WPTS */
 274:Generated_Source\PSoC6\pdl\middleware\ble/cy_ble_gap.c **** 
 275:Generated_Source\PSoC6\pdl\middleware\ble/cy_ble_gap.c ****     #ifdef CY_BLE_WSS
 276:Generated_Source\PSoC6\pdl\middleware\ble/cy_ble_gap.c ****     (void)Cy_BLE_WSS_Init(&cy_ble_wssConfig);
 277:Generated_Source\PSoC6\pdl\middleware\ble/cy_ble_gap.c ****     #endif /* CY_BLE_WSS */
 278:Generated_Source\PSoC6\pdl\middleware\ble/cy_ble_gap.c **** }
 279:Generated_Source\PSoC6\pdl\middleware\ble/cy_ble_gap.c **** 
 280:Generated_Source\PSoC6\pdl\middleware\ble/cy_ble_gap.c **** /******************************************************************************
 281:Generated_Source\PSoC6\pdl\middleware\ble/cy_ble_gap.c **** * Function Name: Cy_BLE_StoreAppData
 282:Generated_Source\PSoC6\pdl\middleware\ble/cy_ble_gap.c **** ***************************************************************************//**
 283:Generated_Source\PSoC6\pdl\middleware\ble/cy_ble_gap.c **** *
 284:Generated_Source\PSoC6\pdl\middleware\ble/cy_ble_gap.c **** *  This function is used to back up application-specific data into the flash.
 285:Generated_Source\PSoC6\pdl\middleware\ble/cy_ble_gap.c **** *
 286:Generated_Source\PSoC6\pdl\middleware\ble/cy_ble_gap.c **** *  This function works in two Write modes: blocking or non-blocking:
 287:Generated_Source\PSoC6\pdl\middleware\ble/cy_ble_gap.c **** *  * Blocking (#CY_BLE_STORE_DATA_MODE_BLOCKING) - The function writes 
 288:Generated_Source\PSoC6\pdl\middleware\ble/cy_ble_gap.c **** *    all data from srcBuff and returns #CY_BLE_SUCCESS when finished.
 289:Generated_Source\PSoC6\pdl\middleware\ble/cy_ble_gap.c **** *  <br> 
 290:Generated_Source\PSoC6\pdl\middleware\ble/cy_ble_gap.c **** *  * Non-blocking (#CY_BLE_STORE_DATA_MODE_NON_BLOCKING) - The function initiates 
 291:Generated_Source\PSoC6\pdl\middleware\ble/cy_ble_gap.c **** *    Write data and returns #CY_BLE_INFO_FLASH_WRITE_IN_PROGRESS when the Write
 292:Generated_Source\PSoC6\pdl\middleware\ble/cy_ble_gap.c **** *    is in progress, or #CY_BLE_SUCCESS when finished. In order to write complete
 293:Generated_Source\PSoC6\pdl\middleware\ble/cy_ble_gap.c **** *    data, the application needs to continue calling this function with 
 294:Generated_Source\PSoC6\pdl\middleware\ble/cy_ble_gap.c **** *    the same input parameter (param), until this function returns CY_BLE_SUCCESS.
 295:Generated_Source\PSoC6\pdl\middleware\ble/cy_ble_gap.c **** *    The application must not change the input parameter's structure and content
 296:Generated_Source\PSoC6\pdl\middleware\ble/cy_ble_gap.c **** *    until this function returns CY_BLE_SUCCESS.
 297:Generated_Source\PSoC6\pdl\middleware\ble/cy_ble_gap.c **** *
 298:Generated_Source\PSoC6\pdl\middleware\ble/cy_ble_gap.c **** *  \param param: The parameter of type \ref cy_stc_ble_app_flash_param_t.
 299:Generated_Source\PSoC6\pdl\middleware\ble/cy_ble_gap.c **** *   * param->srcBuff:   The source buffer.
 300:Generated_Source\PSoC6\pdl\middleware\ble/cy_ble_gap.c **** *   * param->destAddr:  The destination address. The destination buffer size
 301:Generated_Source\PSoC6\pdl\middleware\ble/cy_ble_gap.c **** *                       should be greater than or equal to the source buffer.
 302:Generated_Source\PSoC6\pdl\middleware\ble/cy_ble_gap.c **** *   * param->buffLen:   The length of srcData (in bytes).
 303:Generated_Source\PSoC6\pdl\middleware\ble/cy_ble_gap.c **** *   * param->writeMode: Blocking or non-blocking Write mode.
 304:Generated_Source\PSoC6\pdl\middleware\ble/cy_ble_gap.c **** *
 305:Generated_Source\PSoC6\pdl\middleware\ble/cy_ble_gap.c **** *  param->destAddr - An array address to be defined in the 
 306:Generated_Source\PSoC6\pdl\middleware\ble/cy_ble_gap.c **** *  application and aligned to the size of the device's flash row. 
 307:Generated_Source\PSoC6\pdl\middleware\ble/cy_ble_gap.c **** *
 308:Generated_Source\PSoC6\pdl\middleware\ble/cy_ble_gap.c **** *  An example of a declaration of such an array (100 bytes): 
 309:Generated_Source\PSoC6\pdl\middleware\ble/cy_ble_gap.c **** *   - CY_ALIGN(CY_FLASH_SIZEOF_ROW) const uint8_t appBuff[100u] = {0u}; <br>
 310:Generated_Source\PSoC6\pdl\middleware\ble/cy_ble_gap.c **** *  <br>
 311:Generated_Source\PSoC6\pdl\middleware\ble/cy_ble_gap.c **** *  CY_ALIGN() - Aligns the array to the size of the device`s flash row. 
 312:Generated_Source\PSoC6\pdl\middleware\ble/cy_ble_gap.c **** *  Even if the length of srcData is not a multiple of the flash row size, 
 313:Generated_Source\PSoC6\pdl\middleware\ble/cy_ble_gap.c **** *  Cy_BLE_StoreAppData() forms whole rows, and programs them in sequence.
 314:Generated_Source\PSoC6\pdl\middleware\ble/cy_ble_gap.c **** *
 315:Generated_Source\PSoC6\pdl\middleware\ble/cy_ble_gap.c **** *  The approximate time to write one row - 16ms.
 316:Generated_Source\PSoC6\pdl\middleware\ble/cy_ble_gap.c **** *
ARM GAS  C:\Users\salaz\AppData\Local\Temp\ccu2LhKM.s 			page 7


 317:Generated_Source\PSoC6\pdl\middleware\ble/cy_ble_gap.c **** *  The following code snippet shows the usage of Cy_BLE_StoreAppData()
 318:Generated_Source\PSoC6\pdl\middleware\ble/cy_ble_gap.c **** * \snippet ble_sut_01_all_api.cydsn/snippets.c BLE Common API: Cy_BLE_StoreAppData()
 319:Generated_Source\PSoC6\pdl\middleware\ble/cy_ble_gap.c **** *
 320:Generated_Source\PSoC6\pdl\middleware\ble/cy_ble_gap.c **** * \return
 321:Generated_Source\PSoC6\pdl\middleware\ble/cy_ble_gap.c **** * \ref cy_en_ble_api_result_t : Return value indicates if the function 
 322:Generated_Source\PSoC6\pdl\middleware\ble/cy_ble_gap.c **** *      succeeded or failed. Following are the possible error codes.
 323:Generated_Source\PSoC6\pdl\middleware\ble/cy_ble_gap.c **** *
 324:Generated_Source\PSoC6\pdl\middleware\ble/cy_ble_gap.c **** *   Error codes                              | Description
 325:Generated_Source\PSoC6\pdl\middleware\ble/cy_ble_gap.c **** *   ------------                             | -----------
 326:Generated_Source\PSoC6\pdl\middleware\ble/cy_ble_gap.c **** *   CY_BLE_SUCCESS                           | On successful operation.
 327:Generated_Source\PSoC6\pdl\middleware\ble/cy_ble_gap.c **** *   CY_BLE_INFO_FLASH_WRITE_IN_PROGRESS      | Write operation is in progress.
 328:Generated_Source\PSoC6\pdl\middleware\ble/cy_ble_gap.c **** *   CY_BLE_ERROR_INVALID_PARAMETER           | An invalid input parameter.
 329:Generated_Source\PSoC6\pdl\middleware\ble/cy_ble_gap.c **** *   CY_BLE_ERROR_FLASH_WRITE                 | An error in the flash Write.
 330:Generated_Source\PSoC6\pdl\middleware\ble/cy_ble_gap.c **** *   CY_BLE_ERROR_FLASH_WRITE_NOT_PERMITED    | Flash operation is not permitted (see Note)
 331:Generated_Source\PSoC6\pdl\middleware\ble/cy_ble_gap.c **** * 
 332:Generated_Source\PSoC6\pdl\middleware\ble/cy_ble_gap.c **** * \note: Flash operation is not permitted with protection context (PC)
 333:Generated_Source\PSoC6\pdl\middleware\ble/cy_ble_gap.c **** *        value > 0 and core voltage 0.9V, because of a preproduction
 334:Generated_Source\PSoC6\pdl\middleware\ble/cy_ble_gap.c **** *        hardware limitation.
 335:Generated_Source\PSoC6\pdl\middleware\ble/cy_ble_gap.c **** *
 336:Generated_Source\PSoC6\pdl\middleware\ble/cy_ble_gap.c **** ******************************************************************************/
 337:Generated_Source\PSoC6\pdl\middleware\ble/cy_ble_gap.c **** cy_en_ble_api_result_t Cy_BLE_StoreAppData(const cy_stc_ble_app_flash_param_t *param)
 338:Generated_Source\PSoC6\pdl\middleware\ble/cy_ble_gap.c **** {
 339:Generated_Source\PSoC6\pdl\middleware\ble/cy_ble_gap.c ****     static cy_en_ble_api_result_t storeState = CY_BLE_SUCCESS;
 340:Generated_Source\PSoC6\pdl\middleware\ble/cy_ble_gap.c ****     static uint32_t tLength = 0u;
 341:Generated_Source\PSoC6\pdl\middleware\ble/cy_ble_gap.c **** 
 342:Generated_Source\PSoC6\pdl\middleware\ble/cy_ble_gap.c ****     
 343:Generated_Source\PSoC6\pdl\middleware\ble/cy_ble_gap.c ****     if ((param == NULL) || (param->writeMode > CY_BLE_STORE_DATA_MODE_NON_BLOCKING))
 344:Generated_Source\PSoC6\pdl\middleware\ble/cy_ble_gap.c ****     {
 345:Generated_Source\PSoC6\pdl\middleware\ble/cy_ble_gap.c ****         storeState = CY_BLE_ERROR_INVALID_PARAMETER;
 346:Generated_Source\PSoC6\pdl\middleware\ble/cy_ble_gap.c ****     }
 347:Generated_Source\PSoC6\pdl\middleware\ble/cy_ble_gap.c ****     else
 348:Generated_Source\PSoC6\pdl\middleware\ble/cy_ble_gap.c ****     {
 349:Generated_Source\PSoC6\pdl\middleware\ble/cy_ble_gap.c ****         uint8_t *tSrcPtr   = (uint8_t *) param->srcBuff;
 350:Generated_Source\PSoC6\pdl\middleware\ble/cy_ble_gap.c ****         uint32_t tOffset   = (uint32) param->destAddr - CY_FLASH_BASE;  /* Get offset */
 351:Generated_Source\PSoC6\pdl\middleware\ble/cy_ble_gap.c ****         uint32_t blockSize;      
 352:Generated_Source\PSoC6\pdl\middleware\ble/cy_ble_gap.c ****         bool exitFlag = false;
 353:Generated_Source\PSoC6\pdl\middleware\ble/cy_ble_gap.c ****         
 354:Generated_Source\PSoC6\pdl\middleware\ble/cy_ble_gap.c ****         switch (storeState)
 355:Generated_Source\PSoC6\pdl\middleware\ble/cy_ble_gap.c ****         {           
 356:Generated_Source\PSoC6\pdl\middleware\ble/cy_ble_gap.c ****             case CY_BLE_SUCCESS: 
 357:Generated_Source\PSoC6\pdl\middleware\ble/cy_ble_gap.c ****             case CY_BLE_ERROR_INVALID_PARAMETER:
 358:Generated_Source\PSoC6\pdl\middleware\ble/cy_ble_gap.c ****             case CY_BLE_ERROR_FLASH_WRITE:
 359:Generated_Source\PSoC6\pdl\middleware\ble/cy_ble_gap.c ****                 tLength = param->buffLen;
 360:Generated_Source\PSoC6\pdl\middleware\ble/cy_ble_gap.c ****                 break;
 361:Generated_Source\PSoC6\pdl\middleware\ble/cy_ble_gap.c ****                 
 362:Generated_Source\PSoC6\pdl\middleware\ble/cy_ble_gap.c ****             case CY_BLE_INFO_FLASH_WRITE_IN_PROGRESS:
 363:Generated_Source\PSoC6\pdl\middleware\ble/cy_ble_gap.c ****                 if (tLength == 0u)
 364:Generated_Source\PSoC6\pdl\middleware\ble/cy_ble_gap.c ****                 {
 365:Generated_Source\PSoC6\pdl\middleware\ble/cy_ble_gap.c ****                     storeState = CY_BLE_SUCCESS;
 366:Generated_Source\PSoC6\pdl\middleware\ble/cy_ble_gap.c ****                     exitFlag = true;
 367:Generated_Source\PSoC6\pdl\middleware\ble/cy_ble_gap.c ****                 }
 368:Generated_Source\PSoC6\pdl\middleware\ble/cy_ble_gap.c ****                 else
 369:Generated_Source\PSoC6\pdl\middleware\ble/cy_ble_gap.c ****                 {
 370:Generated_Source\PSoC6\pdl\middleware\ble/cy_ble_gap.c ****                     /* Restore offset and srcPtr according to length */
 371:Generated_Source\PSoC6\pdl\middleware\ble/cy_ble_gap.c ****                     tSrcPtr += param->buffLen - tLength;
 372:Generated_Source\PSoC6\pdl\middleware\ble/cy_ble_gap.c ****                     tOffset += param->buffLen - tLength;
 373:Generated_Source\PSoC6\pdl\middleware\ble/cy_ble_gap.c ****                 }
ARM GAS  C:\Users\salaz\AppData\Local\Temp\ccu2LhKM.s 			page 8


 374:Generated_Source\PSoC6\pdl\middleware\ble/cy_ble_gap.c ****                 break;
 375:Generated_Source\PSoC6\pdl\middleware\ble/cy_ble_gap.c ****                 
 376:Generated_Source\PSoC6\pdl\middleware\ble/cy_ble_gap.c ****            default:
 377:Generated_Source\PSoC6\pdl\middleware\ble/cy_ble_gap.c ****                 break;
 378:Generated_Source\PSoC6\pdl\middleware\ble/cy_ble_gap.c ****         }
 379:Generated_Source\PSoC6\pdl\middleware\ble/cy_ble_gap.c ****         
 380:Generated_Source\PSoC6\pdl\middleware\ble/cy_ble_gap.c ****         while((tLength != 0u) && (exitFlag == false))
 381:Generated_Source\PSoC6\pdl\middleware\ble/cy_ble_gap.c ****         {
 382:Generated_Source\PSoC6\pdl\middleware\ble/cy_ble_gap.c ****             /* Split srcBuff into parts of flash row size (512 bytes) */
 383:Generated_Source\PSoC6\pdl\middleware\ble/cy_ble_gap.c ****             blockSize = (tOffset >> 9) << 9;                            /* Get current row size reg
 384:Generated_Source\PSoC6\pdl\middleware\ble/cy_ble_gap.c ****             blockSize = CY_FLASH_SIZEOF_ROW - (tOffset - blockSize);    /* Calculate final length o
 385:Generated_Source\PSoC6\pdl\middleware\ble/cy_ble_gap.c ****                                                                            we can write to row */
 386:Generated_Source\PSoC6\pdl\middleware\ble/cy_ble_gap.c ****             blockSize = (blockSize > tLength )? tLength : blockSize;
 387:Generated_Source\PSoC6\pdl\middleware\ble/cy_ble_gap.c **** 
 388:Generated_Source\PSoC6\pdl\middleware\ble/cy_ble_gap.c ****             /* Write 512 byte block */
 389:Generated_Source\PSoC6\pdl\middleware\ble/cy_ble_gap.c ****             storeState = Cy_BLE_HAL_NvramWrite(tSrcPtr, (uint8_t *)(tOffset + CY_FLASH_BASE),
 390:Generated_Source\PSoC6\pdl\middleware\ble/cy_ble_gap.c ****                                                blockSize, CY_BLE_FLASH_NON_BLOCKING_MODE);
 391:Generated_Source\PSoC6\pdl\middleware\ble/cy_ble_gap.c **** 
 392:Generated_Source\PSoC6\pdl\middleware\ble/cy_ble_gap.c ****             if((storeState & CY_PDL_STATUS_ERROR) != 0u)
 393:Generated_Source\PSoC6\pdl\middleware\ble/cy_ble_gap.c ****             {
 394:Generated_Source\PSoC6\pdl\middleware\ble/cy_ble_gap.c ****                 exitFlag = true;
 395:Generated_Source\PSoC6\pdl\middleware\ble/cy_ble_gap.c ****             }
 396:Generated_Source\PSoC6\pdl\middleware\ble/cy_ble_gap.c ****                              
 397:Generated_Source\PSoC6\pdl\middleware\ble/cy_ble_gap.c ****             tSrcPtr += blockSize;
 398:Generated_Source\PSoC6\pdl\middleware\ble/cy_ble_gap.c ****             tOffset += blockSize;
 399:Generated_Source\PSoC6\pdl\middleware\ble/cy_ble_gap.c ****             tLength -= blockSize;
 400:Generated_Source\PSoC6\pdl\middleware\ble/cy_ble_gap.c ****             
 401:Generated_Source\PSoC6\pdl\middleware\ble/cy_ble_gap.c ****             /* For CY_BLE_STORE_DATA_MODE_NON_BLOCKING mode write one row per call */
 402:Generated_Source\PSoC6\pdl\middleware\ble/cy_ble_gap.c ****             if(param->writeMode == CY_BLE_STORE_DATA_MODE_NON_BLOCKING)
 403:Generated_Source\PSoC6\pdl\middleware\ble/cy_ble_gap.c ****             {
 404:Generated_Source\PSoC6\pdl\middleware\ble/cy_ble_gap.c ****                 if (storeState == CY_BLE_SUCCESS)
 405:Generated_Source\PSoC6\pdl\middleware\ble/cy_ble_gap.c ****                 {
 406:Generated_Source\PSoC6\pdl\middleware\ble/cy_ble_gap.c ****                     storeState = CY_BLE_INFO_FLASH_WRITE_IN_PROGRESS;
 407:Generated_Source\PSoC6\pdl\middleware\ble/cy_ble_gap.c ****                 } 
 408:Generated_Source\PSoC6\pdl\middleware\ble/cy_ble_gap.c ****                 exitFlag = true;
 409:Generated_Source\PSoC6\pdl\middleware\ble/cy_ble_gap.c ****             }
 410:Generated_Source\PSoC6\pdl\middleware\ble/cy_ble_gap.c ****         
 411:Generated_Source\PSoC6\pdl\middleware\ble/cy_ble_gap.c ****             /* Cy_BLE_ProcessEvents() allows BLE Stack to process pending events */
 412:Generated_Source\PSoC6\pdl\middleware\ble/cy_ble_gap.c ****             Cy_BLE_ProcessEvents();
 413:Generated_Source\PSoC6\pdl\middleware\ble/cy_ble_gap.c ****         }
 414:Generated_Source\PSoC6\pdl\middleware\ble/cy_ble_gap.c ****     }
 415:Generated_Source\PSoC6\pdl\middleware\ble/cy_ble_gap.c ****     return(storeState);
 416:Generated_Source\PSoC6\pdl\middleware\ble/cy_ble_gap.c **** }
 417:Generated_Source\PSoC6\pdl\middleware\ble/cy_ble_gap.c **** 
 418:Generated_Source\PSoC6\pdl\middleware\ble/cy_ble_gap.c **** 
 419:Generated_Source\PSoC6\pdl\middleware\ble/cy_ble_gap.c **** #if ((CY_BLE_GAP_ROLE_PERIPHERAL || CY_BLE_GAP_ROLE_CENTRAL) && (CY_BLE_BONDING_REQUIREMENT == CY_B
 420:Generated_Source\PSoC6\pdl\middleware\ble/cy_ble_gap.c **** 
 421:Generated_Source\PSoC6\pdl\middleware\ble/cy_ble_gap.c **** 
 422:Generated_Source\PSoC6\pdl\middleware\ble/cy_ble_gap.c **** /******************************************************************************
 423:Generated_Source\PSoC6\pdl\middleware\ble/cy_ble_gap.c **** * Function Name: Cy_BLE_StoreBondingData
 424:Generated_Source\PSoC6\pdl\middleware\ble/cy_ble_gap.c **** ***************************************************************************//**
 425:Generated_Source\PSoC6\pdl\middleware\ble/cy_ble_gap.c **** *
 426:Generated_Source\PSoC6\pdl\middleware\ble/cy_ble_gap.c **** *  This function writes the new bonding data from RAM to the dedicated Flash
 427:Generated_Source\PSoC6\pdl\middleware\ble/cy_ble_gap.c **** *  location as defined by the BLE Middleware. It performs a data comparison 
 428:Generated_Source\PSoC6\pdl\middleware\ble/cy_ble_gap.c **** *  between RAM and Flash before writing to Flash. If there is no change between 
 429:Generated_Source\PSoC6\pdl\middleware\ble/cy_ble_gap.c **** *  RAM and Flash data, then no write is performed. It writes one flash row
 430:Generated_Source\PSoC6\pdl\middleware\ble/cy_ble_gap.c **** *  in one call.
ARM GAS  C:\Users\salaz\AppData\Local\Temp\ccu2LhKM.s 			page 9


 431:Generated_Source\PSoC6\pdl\middleware\ble/cy_ble_gap.c **** *  The application should keep calling this function until it returns
 432:Generated_Source\PSoC6\pdl\middleware\ble/cy_ble_gap.c **** *  #CY_BLE_SUCCESS. This function is available only when Bonding requirement 
 433:Generated_Source\PSoC6\pdl\middleware\ble/cy_ble_gap.c **** *  is selected in Security settings.
 434:Generated_Source\PSoC6\pdl\middleware\ble/cy_ble_gap.c **** *
 435:Generated_Source\PSoC6\pdl\middleware\ble/cy_ble_gap.c **** * \return
 436:Generated_Source\PSoC6\pdl\middleware\ble/cy_ble_gap.c **** * \ref cy_en_ble_api_result_t : Return value indicates if the function 
 437:Generated_Source\PSoC6\pdl\middleware\ble/cy_ble_gap.c **** *      succeeded or failed. Following are the possible error codes.
 438:Generated_Source\PSoC6\pdl\middleware\ble/cy_ble_gap.c **** *
 439:Generated_Source\PSoC6\pdl\middleware\ble/cy_ble_gap.c **** *   Error Codes                           | Description
 440:Generated_Source\PSoC6\pdl\middleware\ble/cy_ble_gap.c **** *   ----------------------------------    | ------------------------------------
 441:Generated_Source\PSoC6\pdl\middleware\ble/cy_ble_gap.c **** *   CY_BLE_SUCCESS                        | On successful operation
 442:Generated_Source\PSoC6\pdl\middleware\ble/cy_ble_gap.c **** *   CY_BLE_INFO_FLASH_WRITE_IN_PROGRESS   | Writing in progress
 443:Generated_Source\PSoC6\pdl\middleware\ble/cy_ble_gap.c **** *   CY_BLE_ERROR_FLASH_WRITE              | Error in flash Write
 444:Generated_Source\PSoC6\pdl\middleware\ble/cy_ble_gap.c **** *   CY_BLE_ERROR_FLASH_WRITE_NOT_PERMITED | Flash operation is not permitted (see Note)
 445:Generated_Source\PSoC6\pdl\middleware\ble/cy_ble_gap.c **** * 
 446:Generated_Source\PSoC6\pdl\middleware\ble/cy_ble_gap.c **** * \note: Flash operation is not permitted with protection context (PC)
 447:Generated_Source\PSoC6\pdl\middleware\ble/cy_ble_gap.c **** *        value > 0 and core voltage 0.9V, because of a preproduction
 448:Generated_Source\PSoC6\pdl\middleware\ble/cy_ble_gap.c **** *        hardware limitation.
 449:Generated_Source\PSoC6\pdl\middleware\ble/cy_ble_gap.c **** *    
 450:Generated_Source\PSoC6\pdl\middleware\ble/cy_ble_gap.c **** * \globalvars
 451:Generated_Source\PSoC6\pdl\middleware\ble/cy_ble_gap.c **** *  The \ref cy_ble_pendingFlashWrite variable is used to detect status
 452:Generated_Source\PSoC6\pdl\middleware\ble/cy_ble_gap.c **** *  of pending write to flash operation for BLE Stack data and CCCD.
 453:Generated_Source\PSoC6\pdl\middleware\ble/cy_ble_gap.c **** *  This function automatically clears pending bits after the write operation
 454:Generated_Source\PSoC6\pdl\middleware\ble/cy_ble_gap.c **** *  completes.
 455:Generated_Source\PSoC6\pdl\middleware\ble/cy_ble_gap.c **** *
 456:Generated_Source\PSoC6\pdl\middleware\ble/cy_ble_gap.c **** ******************************************************************************/
 457:Generated_Source\PSoC6\pdl\middleware\ble/cy_ble_gap.c **** cy_en_ble_api_result_t Cy_BLE_StoreBondingData(void)
 458:Generated_Source\PSoC6\pdl\middleware\ble/cy_ble_gap.c **** {
 459:Generated_Source\PSoC6\pdl\middleware\ble/cy_ble_gap.c ****     cy_en_ble_api_result_t apiResult = CY_BLE_SUCCESS;
 460:Generated_Source\PSoC6\pdl\middleware\ble/cy_ble_gap.c **** 
 461:Generated_Source\PSoC6\pdl\middleware\ble/cy_ble_gap.c ****     /* Store BLE Stack data */
 462:Generated_Source\PSoC6\pdl\middleware\ble/cy_ble_gap.c ****     if((cy_ble_pendingFlashWrite & CY_BLE_PENDING_STACK_FLASH_WRITE_BIT) != 0u)
 463:Generated_Source\PSoC6\pdl\middleware\ble/cy_ble_gap.c ****     {
 464:Generated_Source\PSoC6\pdl\middleware\ble/cy_ble_gap.c ****         cy_stc_ble_stack_flash_param_t stackFlashParam =
 465:Generated_Source\PSoC6\pdl\middleware\ble/cy_ble_gap.c ****         {
 466:Generated_Source\PSoC6\pdl\middleware\ble/cy_ble_gap.c ****             .bitField = CY_BLE_PERSISTENT_BOND_LIST_BITMASK |
 467:Generated_Source\PSoC6\pdl\middleware\ble/cy_ble_gap.c ****                         CY_BLE_PERSISTENT_RPA_LIST_BITMASK |
 468:Generated_Source\PSoC6\pdl\middleware\ble/cy_ble_gap.c ****                         CY_BLE_PERSISTENT_WHITELIST_BITMASK
 469:Generated_Source\PSoC6\pdl\middleware\ble/cy_ble_gap.c ****         };
 470:Generated_Source\PSoC6\pdl\middleware\ble/cy_ble_gap.c **** 
 471:Generated_Source\PSoC6\pdl\middleware\ble/cy_ble_gap.c ****         apiResult = Cy_BLE_StoreStackData(&stackFlashParam);
 472:Generated_Source\PSoC6\pdl\middleware\ble/cy_ble_gap.c ****         if(apiResult == CY_BLE_SUCCESS)
 473:Generated_Source\PSoC6\pdl\middleware\ble/cy_ble_gap.c ****         {
 474:Generated_Source\PSoC6\pdl\middleware\ble/cy_ble_gap.c ****             cy_ble_pendingFlashWrite &= (uint8_t) ~CY_BLE_PENDING_STACK_FLASH_WRITE_BIT;
 475:Generated_Source\PSoC6\pdl\middleware\ble/cy_ble_gap.c ****             
 476:Generated_Source\PSoC6\pdl\middleware\ble/cy_ble_gap.c ****             /* Change apiResult if there are more pending data to store */
 477:Generated_Source\PSoC6\pdl\middleware\ble/cy_ble_gap.c ****             if((cy_ble_pendingFlashWrite & CY_BLE_PENDING_CCCD_FLASH_WRITE_BIT) != 0u)
 478:Generated_Source\PSoC6\pdl\middleware\ble/cy_ble_gap.c ****             {
 479:Generated_Source\PSoC6\pdl\middleware\ble/cy_ble_gap.c ****                 apiResult = CY_BLE_INFO_FLASH_WRITE_IN_PROGRESS;
 480:Generated_Source\PSoC6\pdl\middleware\ble/cy_ble_gap.c ****             }
 481:Generated_Source\PSoC6\pdl\middleware\ble/cy_ble_gap.c ****         }
 482:Generated_Source\PSoC6\pdl\middleware\ble/cy_ble_gap.c ****     }
 483:Generated_Source\PSoC6\pdl\middleware\ble/cy_ble_gap.c **** #if (CY_BLE_GATT_DB_CCCD_COUNT != 0u)
 484:Generated_Source\PSoC6\pdl\middleware\ble/cy_ble_gap.c ****     
 485:Generated_Source\PSoC6\pdl\middleware\ble/cy_ble_gap.c ****     /* Store CCCD values */
 486:Generated_Source\PSoC6\pdl\middleware\ble/cy_ble_gap.c ****     if((apiResult == CY_BLE_SUCCESS) &&
 487:Generated_Source\PSoC6\pdl\middleware\ble/cy_ble_gap.c ****        ((cy_ble_pendingFlashWrite & CY_BLE_PENDING_CCCD_FLASH_WRITE_BIT) != 0u))
ARM GAS  C:\Users\salaz\AppData\Local\Temp\ccu2LhKM.s 			page 10


 488:Generated_Source\PSoC6\pdl\middleware\ble/cy_ble_gap.c ****     {
 489:Generated_Source\PSoC6\pdl\middleware\ble/cy_ble_gap.c ****         uint32_t i;
 490:Generated_Source\PSoC6\pdl\middleware\ble/cy_ble_gap.c ****         cy_stc_ble_app_flash_param_t appFlashParam =
 491:Generated_Source\PSoC6\pdl\middleware\ble/cy_ble_gap.c ****         {
 492:Generated_Source\PSoC6\pdl\middleware\ble/cy_ble_gap.c ****             .buffLen = CY_BLE_GATT_DB_CCCD_COUNT + CY_BLE_CCCD_CRC_BYTE,
 493:Generated_Source\PSoC6\pdl\middleware\ble/cy_ble_gap.c ****         };
 494:Generated_Source\PSoC6\pdl\middleware\ble/cy_ble_gap.c **** 
 495:Generated_Source\PSoC6\pdl\middleware\ble/cy_ble_gap.c ****         /* Update CCCD values from RAM for active connections supporting bonding */
 496:Generated_Source\PSoC6\pdl\middleware\ble/cy_ble_gap.c ****         for(i = 0u; i < CY_BLE_CONN_COUNT; i++)
 497:Generated_Source\PSoC6\pdl\middleware\ble/cy_ble_gap.c ****         {
 498:Generated_Source\PSoC6\pdl\middleware\ble/cy_ble_gap.c ****             if((Cy_BLE_GetConnectionState(cy_ble_connHandle[i]) >= CY_BLE_CONN_STATE_CONNECTED) &&
 499:Generated_Source\PSoC6\pdl\middleware\ble/cy_ble_gap.c ****                (cy_ble_peerBonding[cy_ble_connHandle[i].attId] == CY_BLE_GAP_BONDING))
 500:Generated_Source\PSoC6\pdl\middleware\ble/cy_ble_gap.c ****             {
 501:Generated_Source\PSoC6\pdl\middleware\ble/cy_ble_gap.c ****                 uint8_t cccdBlockCrc;
 502:Generated_Source\PSoC6\pdl\middleware\ble/cy_ble_gap.c ****                 appFlashParam.srcBuff = (uint8_t*)cy_ble_attValuesCccdMultiple[cy_ble_connHandle[i]
 503:Generated_Source\PSoC6\pdl\middleware\ble/cy_ble_gap.c ****                 appFlashParam.destAddr = (uint8_t*)cy_ble_configPtr->flashStorage->attValuesCCCDFla
 504:Generated_Source\PSoC6\pdl\middleware\ble/cy_ble_gap.c ****                                          [cy_ble_connHandle[i].bdHandle];
 505:Generated_Source\PSoC6\pdl\middleware\ble/cy_ble_gap.c **** 
 506:Generated_Source\PSoC6\pdl\middleware\ble/cy_ble_gap.c ****                 /* Calculate CRC for CCCD block */
 507:Generated_Source\PSoC6\pdl\middleware\ble/cy_ble_gap.c ****                 cccdBlockCrc = Cy_BLE_HAL_CalcCRC8(cy_ble_attValuesCccdMultiple[cy_ble_connHandle[i
 508:Generated_Source\PSoC6\pdl\middleware\ble/cy_ble_gap.c ****                                                    CY_BLE_GATT_DB_CCCD_COUNT);
 509:Generated_Source\PSoC6\pdl\middleware\ble/cy_ble_gap.c ****                 /* Store new CRC value */                    
 510:Generated_Source\PSoC6\pdl\middleware\ble/cy_ble_gap.c ****                 cy_ble_attValuesCccdMultiple[cy_ble_connHandle[i].attId][CY_BLE_GATT_DB_CCCD_COUNT]
 511:Generated_Source\PSoC6\pdl\middleware\ble/cy_ble_gap.c ****                 
 512:Generated_Source\PSoC6\pdl\middleware\ble/cy_ble_gap.c ****                 apiResult = Cy_BLE_StoreAppData(&appFlashParam);
 513:Generated_Source\PSoC6\pdl\middleware\ble/cy_ble_gap.c ****                 if(apiResult != CY_BLE_SUCCESS)
 514:Generated_Source\PSoC6\pdl\middleware\ble/cy_ble_gap.c ****                 {
 515:Generated_Source\PSoC6\pdl\middleware\ble/cy_ble_gap.c ****                     break;
 516:Generated_Source\PSoC6\pdl\middleware\ble/cy_ble_gap.c ****                 }
 517:Generated_Source\PSoC6\pdl\middleware\ble/cy_ble_gap.c ****             }
 518:Generated_Source\PSoC6\pdl\middleware\ble/cy_ble_gap.c ****         }
 519:Generated_Source\PSoC6\pdl\middleware\ble/cy_ble_gap.c ****         if(apiResult == CY_BLE_SUCCESS)
 520:Generated_Source\PSoC6\pdl\middleware\ble/cy_ble_gap.c ****         {
 521:Generated_Source\PSoC6\pdl\middleware\ble/cy_ble_gap.c ****             cy_ble_pendingFlashWrite &= (uint8_t) ~CY_BLE_PENDING_CCCD_FLASH_WRITE_BIT;
 522:Generated_Source\PSoC6\pdl\middleware\ble/cy_ble_gap.c ****         }
 523:Generated_Source\PSoC6\pdl\middleware\ble/cy_ble_gap.c ****     }
 524:Generated_Source\PSoC6\pdl\middleware\ble/cy_ble_gap.c **** 
 525:Generated_Source\PSoC6\pdl\middleware\ble/cy_ble_gap.c ****     /* Clear requested CCCD values */
 526:Generated_Source\PSoC6\pdl\middleware\ble/cy_ble_gap.c ****     if((apiResult == CY_BLE_SUCCESS) &&
 527:Generated_Source\PSoC6\pdl\middleware\ble/cy_ble_gap.c ****        ((cy_ble_pendingFlashWrite & CY_BLE_PENDING_CCCD_FLASH_CLEAR_MASK) != 0u))
 528:Generated_Source\PSoC6\pdl\middleware\ble/cy_ble_gap.c ****     {
 529:Generated_Source\PSoC6\pdl\middleware\ble/cy_ble_gap.c ****         if((cy_ble_pendingFlashWrite & CY_BLE_PENDING_CCCD_FLASH_CLEAR_ALL_BIT) != 0u)
 530:Generated_Source\PSoC6\pdl\middleware\ble/cy_ble_gap.c ****         {
 531:Generated_Source\PSoC6\pdl\middleware\ble/cy_ble_gap.c ****             /* Remove CCCD values for all bonded devices */
 532:Generated_Source\PSoC6\pdl\middleware\ble/cy_ble_gap.c ****             uint8_t defaultValuesCCCD[CY_BLE_MAX_BONDED_DEVICES + CY_BLE_CONN_COUNT][CY_BLE_GATT_DB
 533:Generated_Source\PSoC6\pdl\middleware\ble/cy_ble_gap.c ****             cy_stc_ble_app_flash_param_t appFlashParam =
 534:Generated_Source\PSoC6\pdl\middleware\ble/cy_ble_gap.c ****             {
 535:Generated_Source\PSoC6\pdl\middleware\ble/cy_ble_gap.c ****                 .srcBuff  = (uint8_t*)defaultValuesCCCD,
 536:Generated_Source\PSoC6\pdl\middleware\ble/cy_ble_gap.c ****                 .destAddr = (uint8_t*)cy_ble_configPtr->flashStorage->attValuesCCCDFlashMemory,
 537:Generated_Source\PSoC6\pdl\middleware\ble/cy_ble_gap.c ****                 .buffLen  = sizeof(defaultValuesCCCD),
 538:Generated_Source\PSoC6\pdl\middleware\ble/cy_ble_gap.c ****             };
 539:Generated_Source\PSoC6\pdl\middleware\ble/cy_ble_gap.c **** 
 540:Generated_Source\PSoC6\pdl\middleware\ble/cy_ble_gap.c ****             (void)memset(defaultValuesCCCD, 0, sizeof(defaultValuesCCCD));
 541:Generated_Source\PSoC6\pdl\middleware\ble/cy_ble_gap.c **** 
 542:Generated_Source\PSoC6\pdl\middleware\ble/cy_ble_gap.c ****             apiResult = Cy_BLE_StoreAppData(&appFlashParam);
 543:Generated_Source\PSoC6\pdl\middleware\ble/cy_ble_gap.c ****             if(apiResult == CY_BLE_SUCCESS)
 544:Generated_Source\PSoC6\pdl\middleware\ble/cy_ble_gap.c ****             {
ARM GAS  C:\Users\salaz\AppData\Local\Temp\ccu2LhKM.s 			page 11


 545:Generated_Source\PSoC6\pdl\middleware\ble/cy_ble_gap.c ****                 cy_ble_pendingFlashWrite &= (uint8_t) ~CY_BLE_PENDING_CCCD_FLASH_CLEAR_ALL_BIT;
 546:Generated_Source\PSoC6\pdl\middleware\ble/cy_ble_gap.c ****             }
 547:Generated_Source\PSoC6\pdl\middleware\ble/cy_ble_gap.c ****         }
 548:Generated_Source\PSoC6\pdl\middleware\ble/cy_ble_gap.c ****         else /* Remove CCCD values for particular device */
 549:Generated_Source\PSoC6\pdl\middleware\ble/cy_ble_gap.c ****         {
 550:Generated_Source\PSoC6\pdl\middleware\ble/cy_ble_gap.c ****             uint8_t defaultValuesCCCD[CY_BLE_GATT_DB_CCCD_COUNT + CY_BLE_CCCD_CRC_BYTE] = { 0u };
 551:Generated_Source\PSoC6\pdl\middleware\ble/cy_ble_gap.c ****             cy_stc_ble_app_flash_param_t appFlashParam =
 552:Generated_Source\PSoC6\pdl\middleware\ble/cy_ble_gap.c ****             {
 553:Generated_Source\PSoC6\pdl\middleware\ble/cy_ble_gap.c ****                 .srcBuff  = (uint8_t*)defaultValuesCCCD,
 554:Generated_Source\PSoC6\pdl\middleware\ble/cy_ble_gap.c ****                 .destAddr = (uint8_t*)cy_ble_configPtr->flashStorage->
 555:Generated_Source\PSoC6\pdl\middleware\ble/cy_ble_gap.c ****                              attValuesCCCDFlashMemory[cy_ble_pendingFlashClearCccdHandle],
 556:Generated_Source\PSoC6\pdl\middleware\ble/cy_ble_gap.c ****                 .buffLen  = CY_BLE_GATT_DB_CCCD_COUNT + CY_BLE_CCCD_CRC_BYTE,
 557:Generated_Source\PSoC6\pdl\middleware\ble/cy_ble_gap.c ****             };
 558:Generated_Source\PSoC6\pdl\middleware\ble/cy_ble_gap.c **** 
 559:Generated_Source\PSoC6\pdl\middleware\ble/cy_ble_gap.c ****             apiResult = Cy_BLE_StoreAppData(&appFlashParam);
 560:Generated_Source\PSoC6\pdl\middleware\ble/cy_ble_gap.c ****             if(apiResult == CY_BLE_SUCCESS)
 561:Generated_Source\PSoC6\pdl\middleware\ble/cy_ble_gap.c ****             {
 562:Generated_Source\PSoC6\pdl\middleware\ble/cy_ble_gap.c ****                 cy_ble_pendingFlashWrite &= (uint8_t) ~CY_BLE_PENDING_CCCD_FLASH_CLEAR_BIT;
 563:Generated_Source\PSoC6\pdl\middleware\ble/cy_ble_gap.c ****             }
 564:Generated_Source\PSoC6\pdl\middleware\ble/cy_ble_gap.c ****         }
 565:Generated_Source\PSoC6\pdl\middleware\ble/cy_ble_gap.c ****     }
 566:Generated_Source\PSoC6\pdl\middleware\ble/cy_ble_gap.c **** #endif /* CY_BLE_GATT_DB_CCCD_COUNT != 0u */
 567:Generated_Source\PSoC6\pdl\middleware\ble/cy_ble_gap.c **** 
 568:Generated_Source\PSoC6\pdl\middleware\ble/cy_ble_gap.c ****     /* Flash operation is not allowed */
 569:Generated_Source\PSoC6\pdl\middleware\ble/cy_ble_gap.c ****     if (apiResult == CY_BLE_ERROR_FLASH_WRITE_NOT_PERMITED)
 570:Generated_Source\PSoC6\pdl\middleware\ble/cy_ble_gap.c ****     {
 571:Generated_Source\PSoC6\pdl\middleware\ble/cy_ble_gap.c ****          cy_ble_pendingFlashWrite = 0u;   
 572:Generated_Source\PSoC6\pdl\middleware\ble/cy_ble_gap.c ****     }
 573:Generated_Source\PSoC6\pdl\middleware\ble/cy_ble_gap.c **** 
 574:Generated_Source\PSoC6\pdl\middleware\ble/cy_ble_gap.c ****     return(apiResult);
 575:Generated_Source\PSoC6\pdl\middleware\ble/cy_ble_gap.c **** }
 576:Generated_Source\PSoC6\pdl\middleware\ble/cy_ble_gap.c **** 
 577:Generated_Source\PSoC6\pdl\middleware\ble/cy_ble_gap.c **** 
 578:Generated_Source\PSoC6\pdl\middleware\ble/cy_ble_gap.c **** /******************************************************************************
 579:Generated_Source\PSoC6\pdl\middleware\ble/cy_ble_gap.c **** * Function Name: Cy_BLE_GAP_RemoveBondedDevice
 580:Generated_Source\PSoC6\pdl\middleware\ble/cy_ble_gap.c **** ***************************************************************************//**
 581:Generated_Source\PSoC6\pdl\middleware\ble/cy_ble_gap.c **** *
 582:Generated_Source\PSoC6\pdl\middleware\ble/cy_ble_gap.c **** *  This function removes the bonding information of the device including CCCD
 583:Generated_Source\PSoC6\pdl\middleware\ble/cy_ble_gap.c **** *  values. 
 584:Generated_Source\PSoC6\pdl\middleware\ble/cy_ble_gap.c **** *
 585:Generated_Source\PSoC6\pdl\middleware\ble/cy_ble_gap.c **** *  This function is available only when Bonding requirement is selected in
 586:Generated_Source\PSoC6\pdl\middleware\ble/cy_ble_gap.c **** *  Security settings.
 587:Generated_Source\PSoC6\pdl\middleware\ble/cy_ble_gap.c **** *
 588:Generated_Source\PSoC6\pdl\middleware\ble/cy_ble_gap.c **** *  \param bdAddr: Pointer to peer device address,
 589:Generated_Source\PSoC6\pdl\middleware\ble/cy_ble_gap.c **** *                   of type \ref cy_stc_ble_gap_bd_addr_t.
 590:Generated_Source\PSoC6\pdl\middleware\ble/cy_ble_gap.c **** *
 591:Generated_Source\PSoC6\pdl\middleware\ble/cy_ble_gap.c **** *  \return
 592:Generated_Source\PSoC6\pdl\middleware\ble/cy_ble_gap.c **** *  \ref cy_en_ble_api_result_t : Return value indicates if the function 
 593:Generated_Source\PSoC6\pdl\middleware\ble/cy_ble_gap.c **** *   succeeded or failed. The following are possible error codes.
 594:Generated_Source\PSoC6\pdl\middleware\ble/cy_ble_gap.c **** *
 595:Generated_Source\PSoC6\pdl\middleware\ble/cy_ble_gap.c **** *   Error Codes                       | Description
 596:Generated_Source\PSoC6\pdl\middleware\ble/cy_ble_gap.c **** *   --------------------------------- | ------------------------------------
 597:Generated_Source\PSoC6\pdl\middleware\ble/cy_ble_gap.c **** *   CY_BLE_SUCCESS                    | On successful operation.
 598:Generated_Source\PSoC6\pdl\middleware\ble/cy_ble_gap.c **** *   CY_BLE_ERROR_INVALID_PARAMETER    | On specifying NULL as input parameter for 'bdAddr'.
 599:Generated_Source\PSoC6\pdl\middleware\ble/cy_ble_gap.c **** *   CY_BLE_ERROR_INVALID_OPERATION    | Whitelist is already in use or there is pending write to fl
 600:Generated_Source\PSoC6\pdl\middleware\ble/cy_ble_gap.c **** *   CY_BLE_ERROR_NO_DEVICE_ENTITY     | Device does not exist in the bond list.
 601:Generated_Source\PSoC6\pdl\middleware\ble/cy_ble_gap.c **** *
ARM GAS  C:\Users\salaz\AppData\Local\Temp\ccu2LhKM.s 			page 12


 602:Generated_Source\PSoC6\pdl\middleware\ble/cy_ble_gap.c **** *  \globalvars
 603:Generated_Source\PSoC6\pdl\middleware\ble/cy_ble_gap.c **** *   The bdHandle is set in \ref cy_ble_pendingFlashWrite variable to indicate that
 604:Generated_Source\PSoC6\pdl\middleware\ble/cy_ble_gap.c **** *   data should be stored to flash by Cy_BLE_StoreBondingData() afterwards.
 605:Generated_Source\PSoC6\pdl\middleware\ble/cy_ble_gap.c **** *
 606:Generated_Source\PSoC6\pdl\middleware\ble/cy_ble_gap.c **** ******************************************************************************/
 607:Generated_Source\PSoC6\pdl\middleware\ble/cy_ble_gap.c **** cy_en_ble_api_result_t Cy_BLE_GAP_RemoveBondedDevice(cy_stc_ble_gap_bd_addr_t* bdAddr)
 608:Generated_Source\PSoC6\pdl\middleware\ble/cy_ble_gap.c **** {
 609:Generated_Source\PSoC6\pdl\middleware\ble/cy_ble_gap.c ****     cy_en_ble_api_result_t apiResult = CY_BLE_SUCCESS;
 610:Generated_Source\PSoC6\pdl\middleware\ble/cy_ble_gap.c ****     cy_stc_ble_gap_peer_addr_info_t peerAddrInfoParam;
 611:Generated_Source\PSoC6\pdl\middleware\ble/cy_ble_gap.c **** 
 612:Generated_Source\PSoC6\pdl\middleware\ble/cy_ble_gap.c ****     if(bdAddr == NULL)
 613:Generated_Source\PSoC6\pdl\middleware\ble/cy_ble_gap.c ****     {
 614:Generated_Source\PSoC6\pdl\middleware\ble/cy_ble_gap.c ****         apiResult = CY_BLE_ERROR_INVALID_PARAMETER;
 615:Generated_Source\PSoC6\pdl\middleware\ble/cy_ble_gap.c ****     }
 616:Generated_Source\PSoC6\pdl\middleware\ble/cy_ble_gap.c ****     else if(cy_ble_pendingFlashWrite == 0u)
 617:Generated_Source\PSoC6\pdl\middleware\ble/cy_ble_gap.c ****     {
 618:Generated_Source\PSoC6\pdl\middleware\ble/cy_ble_gap.c ****     #if (CY_BLE_GATT_DB_CCCD_COUNT != 0u)
 619:Generated_Source\PSoC6\pdl\middleware\ble/cy_ble_gap.c ****         /* Request to clear CCCD values which will be done by Cy_BLE_StoreBondingData() */
 620:Generated_Source\PSoC6\pdl\middleware\ble/cy_ble_gap.c ****         cy_stc_ble_gap_bd_addr_t invalidBdAddr = { { 0u, 0u, 0u, 0u, 0u, 0u }, 0u };
 621:Generated_Source\PSoC6\pdl\middleware\ble/cy_ble_gap.c **** 
 622:Generated_Source\PSoC6\pdl\middleware\ble/cy_ble_gap.c ****         if(memcmp(((uint8_t*)&(bdAddr->bdAddr)), ((uint8_t*)&(invalidBdAddr.bdAddr)), CY_BLE_GAP_BD
 623:Generated_Source\PSoC6\pdl\middleware\ble/cy_ble_gap.c ****         {
 624:Generated_Source\PSoC6\pdl\middleware\ble/cy_ble_gap.c ****             /* Request to remove all bonded devices by Cy_BLE_StoreBondingData() */
 625:Generated_Source\PSoC6\pdl\middleware\ble/cy_ble_gap.c ****             cy_ble_pendingFlashWrite |= CY_BLE_PENDING_CCCD_FLASH_CLEAR_ALL_BIT;
 626:Generated_Source\PSoC6\pdl\middleware\ble/cy_ble_gap.c ****         }
 627:Generated_Source\PSoC6\pdl\middleware\ble/cy_ble_gap.c ****         else
 628:Generated_Source\PSoC6\pdl\middleware\ble/cy_ble_gap.c ****         {
 629:Generated_Source\PSoC6\pdl\middleware\ble/cy_ble_gap.c ****             /* Get the BD handle from Address */
 630:Generated_Source\PSoC6\pdl\middleware\ble/cy_ble_gap.c ****             peerAddrInfoParam.bdAddr = *bdAddr;
 631:Generated_Source\PSoC6\pdl\middleware\ble/cy_ble_gap.c ****             apiResult = Cy_BLE_GAP_GetPeerBdHandle(&peerAddrInfoParam);
 632:Generated_Source\PSoC6\pdl\middleware\ble/cy_ble_gap.c ****             if(apiResult == CY_BLE_SUCCESS)
 633:Generated_Source\PSoC6\pdl\middleware\ble/cy_ble_gap.c ****             {
 634:Generated_Source\PSoC6\pdl\middleware\ble/cy_ble_gap.c ****                 /* Store BD handle to clear CCCD values by Cy_BLE_StoreBondingData() */
 635:Generated_Source\PSoC6\pdl\middleware\ble/cy_ble_gap.c ****                 cy_ble_pendingFlashWrite |= CY_BLE_PENDING_CCCD_FLASH_CLEAR_BIT;
 636:Generated_Source\PSoC6\pdl\middleware\ble/cy_ble_gap.c ****                 cy_ble_pendingFlashClearCccdHandle = peerAddrInfoParam.bdHandle;
 637:Generated_Source\PSoC6\pdl\middleware\ble/cy_ble_gap.c ****             }
 638:Generated_Source\PSoC6\pdl\middleware\ble/cy_ble_gap.c ****         }
 639:Generated_Source\PSoC6\pdl\middleware\ble/cy_ble_gap.c ****     #endif /* CY_BLE_GATT_DB_CCCD_COUNT != 0u */
 640:Generated_Source\PSoC6\pdl\middleware\ble/cy_ble_gap.c ****         if(apiResult == CY_BLE_SUCCESS)
 641:Generated_Source\PSoC6\pdl\middleware\ble/cy_ble_gap.c ****         {
 642:Generated_Source\PSoC6\pdl\middleware\ble/cy_ble_gap.c ****             apiResult = Cy_BLE_GAP_RemoveDeviceFromBondList(bdAddr);
 643:Generated_Source\PSoC6\pdl\middleware\ble/cy_ble_gap.c ****         }
 644:Generated_Source\PSoC6\pdl\middleware\ble/cy_ble_gap.c ****     }
 645:Generated_Source\PSoC6\pdl\middleware\ble/cy_ble_gap.c ****     else
 646:Generated_Source\PSoC6\pdl\middleware\ble/cy_ble_gap.c ****     {
 647:Generated_Source\PSoC6\pdl\middleware\ble/cy_ble_gap.c ****         apiResult = CY_BLE_ERROR_INVALID_OPERATION;
 648:Generated_Source\PSoC6\pdl\middleware\ble/cy_ble_gap.c ****     }
 649:Generated_Source\PSoC6\pdl\middleware\ble/cy_ble_gap.c **** 
 650:Generated_Source\PSoC6\pdl\middleware\ble/cy_ble_gap.c ****     return(apiResult);
 651:Generated_Source\PSoC6\pdl\middleware\ble/cy_ble_gap.c **** }
 652:Generated_Source\PSoC6\pdl\middleware\ble/cy_ble_gap.c **** 
 653:Generated_Source\PSoC6\pdl\middleware\ble/cy_ble_gap.c **** 
 654:Generated_Source\PSoC6\pdl\middleware\ble/cy_ble_gap.c **** #endif /* (CY_BLE_GAP_ROLE_PERIPHERAL || CY_BLE_GAP_ROLE_CENTRAL) && (CY_BLE_BONDING_REQUIREMENT ==
 655:Generated_Source\PSoC6\pdl\middleware\ble/cy_ble_gap.c **** 
 656:Generated_Source\PSoC6\pdl\middleware\ble/cy_ble_gap.c **** 
 657:Generated_Source\PSoC6\pdl\middleware\ble/cy_ble_gap.c **** #if (CY_BLE_GAP_ROLE_PERIPHERAL || CY_BLE_GAP_ROLE_BROADCASTER)
 658:Generated_Source\PSoC6\pdl\middleware\ble/cy_ble_gap.c **** 
ARM GAS  C:\Users\salaz\AppData\Local\Temp\ccu2LhKM.s 			page 13


 659:Generated_Source\PSoC6\pdl\middleware\ble/cy_ble_gap.c **** /******************************************************************************
 660:Generated_Source\PSoC6\pdl\middleware\ble/cy_ble_gap.c ****  *  Function Name: Cy_BLE_GAPP_StartAdvertisement
 661:Generated_Source\PSoC6\pdl\middleware\ble/cy_ble_gap.c ****  ***************************************************************************//**
 662:Generated_Source\PSoC6\pdl\middleware\ble/cy_ble_gap.c ****  *
 663:Generated_Source\PSoC6\pdl\middleware\ble/cy_ble_gap.c ****  *  This function is used to start the advertisement using the advertisement data
 664:Generated_Source\PSoC6\pdl\middleware\ble/cy_ble_gap.c ****  *  set in the BLE Component customizer's GUI indicated by the advertisingParamIndex.
 665:Generated_Source\PSoC6\pdl\middleware\ble/cy_ble_gap.c ****  *  After invoking this function, the device will be available for connection by
 666:Generated_Source\PSoC6\pdl\middleware\ble/cy_ble_gap.c ****  *  the devices configured for GAP central role. It is only included if the
 667:Generated_Source\PSoC6\pdl\middleware\ble/cy_ble_gap.c ****  *  device is configured for GAP Peripheral or GAP Peripheral + Central role.
 668:Generated_Source\PSoC6\pdl\middleware\ble/cy_ble_gap.c ****  *
 669:Generated_Source\PSoC6\pdl\middleware\ble/cy_ble_gap.c ****  *  On start of advertisement, GAP Peripheral receives the
 670:Generated_Source\PSoC6\pdl\middleware\ble/cy_ble_gap.c ****  *  #CY_BLE_EVT_GAPP_ADVERTISEMENT_START_STOP event. The following events are
 671:Generated_Source\PSoC6\pdl\middleware\ble/cy_ble_gap.c ****  *  possible on invoking this function:
 672:Generated_Source\PSoC6\pdl\middleware\ble/cy_ble_gap.c ****  *
 673:Generated_Source\PSoC6\pdl\middleware\ble/cy_ble_gap.c ****  *  * #CY_BLE_EVT_GAP_DEVICE_CONNECTED - If the device connects to a GAP Central and
 674:Generated_Source\PSoC6\pdl\middleware\ble/cy_ble_gap.c ****  *     Link Layer Privacy is disabled.
 675:Generated_Source\PSoC6\pdl\middleware\ble/cy_ble_gap.c ****  *  * #CY_BLE_EVT_GAP_ENHANCE_CONN_COMPLETE - If the device connects to a GAP Central and
 676:Generated_Source\PSoC6\pdl\middleware\ble/cy_ble_gap.c ****  *     Link Layer Privacy is enabled.
 677:Generated_Source\PSoC6\pdl\middleware\ble/cy_ble_gap.c ****  *  * #CY_BLE_EVT_TIMEOUT: If no device in GAP Central mode connects to this
 678:Generated_Source\PSoC6\pdl\middleware\ble/cy_ble_gap.c ****  *                       device within the specified timeout limit. BLE Stack
 679:Generated_Source\PSoC6\pdl\middleware\ble/cy_ble_gap.c ****  *                       automatically initiate stop advertising when Slow
 680:Generated_Source\PSoC6\pdl\middleware\ble/cy_ble_gap.c ****  *                       advertising was initiated, or starts Slow advertising
 681:Generated_Source\PSoC6\pdl\middleware\ble/cy_ble_gap.c ****  *                       after Fast advertising timeout occur.
 682:Generated_Source\PSoC6\pdl\middleware\ble/cy_ble_gap.c ****  *  * #CY_BLE_EVT_GAPP_ADVERTISEMENT_START_STOP: If device started or stopped
 683:Generated_Source\PSoC6\pdl\middleware\ble/cy_ble_gap.c ****  *                       advertising. Use Cy_BLE_GetAdvertisementState() to
 684:Generated_Source\PSoC6\pdl\middleware\ble/cy_ble_gap.c ****  *                       determine the state. Sequential advertising could be
 685:Generated_Source\PSoC6\pdl\middleware\ble/cy_ble_gap.c ****  *                       started when #CY_BLE_ADV_STATE_STOPPED state is returned.
 686:Generated_Source\PSoC6\pdl\middleware\ble/cy_ble_gap.c ****  *  
 687:Generated_Source\PSoC6\pdl\middleware\ble/cy_ble_gap.c ****  *  \param advertisingIntervalType: Fast or slow advertising interval with timings
 688:Generated_Source\PSoC6\pdl\middleware\ble/cy_ble_gap.c ****  *                                  entered in Advertising settings section of the
 689:Generated_Source\PSoC6\pdl\middleware\ble/cy_ble_gap.c ****  *                                  customizer.
 690:Generated_Source\PSoC6\pdl\middleware\ble/cy_ble_gap.c ****  *  * CY_BLE_ADVERTISING_FAST   0x00u
 691:Generated_Source\PSoC6\pdl\middleware\ble/cy_ble_gap.c ****  *  * CY_BLE_ADVERTISING_SLOW   0x01u
 692:Generated_Source\PSoC6\pdl\middleware\ble/cy_ble_gap.c ****  *  * CY_BLE_ADVERTISING_CUSTOM 0x02u
 693:Generated_Source\PSoC6\pdl\middleware\ble/cy_ble_gap.c ****  *
 694:Generated_Source\PSoC6\pdl\middleware\ble/cy_ble_gap.c ****  *  \param advertisingParamIndex: The index of the peripheral and broadcast
 695:Generated_Source\PSoC6\pdl\middleware\ble/cy_ble_gap.c ****  *                                configuration in customizer. For example:
 696:Generated_Source\PSoC6\pdl\middleware\ble/cy_ble_gap.c ****  *  * CY_BLE_PERIPHERAL_CONFIGURATION_0_INDEX     0x00
 697:Generated_Source\PSoC6\pdl\middleware\ble/cy_ble_gap.c ****  *  * CY_BLE_BROADCASTER_CONFIGURATION_0_INDEX    0x01
 698:Generated_Source\PSoC6\pdl\middleware\ble/cy_ble_gap.c ****  *
 699:Generated_Source\PSoC6\pdl\middleware\ble/cy_ble_gap.c ****  *  \return
 700:Generated_Source\PSoC6\pdl\middleware\ble/cy_ble_gap.c ****  *  \ref cy_en_ble_api_result_t : Return value indicates if the function succeeded or
 701:Generated_Source\PSoC6\pdl\middleware\ble/cy_ble_gap.c ****  *  failed. The following are possible error codes.
 702:Generated_Source\PSoC6\pdl\middleware\ble/cy_ble_gap.c ****  *
 703:Generated_Source\PSoC6\pdl\middleware\ble/cy_ble_gap.c ****  *   Error Codes                       |  Description
 704:Generated_Source\PSoC6\pdl\middleware\ble/cy_ble_gap.c ****  *   --------------------------------- |  --------------------------------
 705:Generated_Source\PSoC6\pdl\middleware\ble/cy_ble_gap.c ****  *   CY_BLE_SUCCESS                    |  On successful operation.
 706:Generated_Source\PSoC6\pdl\middleware\ble/cy_ble_gap.c ****  *   CY_BLE_ERROR_INVALID_PARAMETER    |  On passing an invalid parameter.
 707:Generated_Source\PSoC6\pdl\middleware\ble/cy_ble_gap.c ****  *   CY_BLE_ERROR_INVALID_STATE        |  On calling this function not in Stopped state.
 708:Generated_Source\PSoC6\pdl\middleware\ble/cy_ble_gap.c ****  *   CY_BLE_ERROR_INVALID_OPERATION    |  The operation is not permitted due to connection
 709:Generated_Source\PSoC6\pdl\middleware\ble/cy_ble_gap.c ****  *                                     |  limit exceeded. 
 710:Generated_Source\PSoC6\pdl\middleware\ble/cy_ble_gap.c ****  *
 711:Generated_Source\PSoC6\pdl\middleware\ble/cy_ble_gap.c ****  * \note
 712:Generated_Source\PSoC6\pdl\middleware\ble/cy_ble_gap.c ****  *  #CY_BLE_EVT_GAPP_ADVERTISEMENT_START_STOP event is generated after calling 
 713:Generated_Source\PSoC6\pdl\middleware\ble/cy_ble_gap.c ****  *  Cy_BLE_GAPP_StartAdvertisement() and Cy_BLE_GAPP_StopAdvertisement() functions.
 714:Generated_Source\PSoC6\pdl\middleware\ble/cy_ble_gap.c ****  *  Application should keep track of which function call resulted into this event
 715:Generated_Source\PSoC6\pdl\middleware\ble/cy_ble_gap.c ****  *
ARM GAS  C:\Users\salaz\AppData\Local\Temp\ccu2LhKM.s 			page 14


 716:Generated_Source\PSoC6\pdl\middleware\ble/cy_ble_gap.c ****  *******************************************************************************/
 717:Generated_Source\PSoC6\pdl\middleware\ble/cy_ble_gap.c **** cy_en_ble_api_result_t Cy_BLE_GAPP_StartAdvertisement(uint8_t advertisingIntervalType,
 718:Generated_Source\PSoC6\pdl\middleware\ble/cy_ble_gap.c ****                                                       uint8_t advertisingParamIndex)
 719:Generated_Source\PSoC6\pdl\middleware\ble/cy_ble_gap.c **** {
 720:Generated_Source\PSoC6\pdl\middleware\ble/cy_ble_gap.c ****     cy_en_ble_api_result_t apiResult;
 721:Generated_Source\PSoC6\pdl\middleware\ble/cy_ble_gap.c **** 
 722:Generated_Source\PSoC6\pdl\middleware\ble/cy_ble_gap.c ****     if((advertisingIntervalType > CY_BLE_ADVERTISING_CUSTOM) || (advertisingParamIndex >= CY_BLE_GA
 723:Generated_Source\PSoC6\pdl\middleware\ble/cy_ble_gap.c ****     {
 724:Generated_Source\PSoC6\pdl\middleware\ble/cy_ble_gap.c ****         apiResult = CY_BLE_ERROR_INVALID_PARAMETER;
 725:Generated_Source\PSoC6\pdl\middleware\ble/cy_ble_gap.c ****     }
 726:Generated_Source\PSoC6\pdl\middleware\ble/cy_ble_gap.c **** #if (CY_BLE_GAP_ROLE_PERIPHERAL) 
 727:Generated_Source\PSoC6\pdl\middleware\ble/cy_ble_gap.c ****     else if((Cy_BLE_GetNumOfActiveConn() == CY_BLE_CONN_COUNT) && 
 728:Generated_Source\PSoC6\pdl\middleware\ble/cy_ble_gap.c ****             ((cy_ble_configPtr->discoveryModeInfo[advertisingParamIndex].advParam->advType <
 729:Generated_Source\PSoC6\pdl\middleware\ble/cy_ble_gap.c ****                 CY_BLE_GAPP_SCANNABLE_UNDIRECTED_ADV) ||
 730:Generated_Source\PSoC6\pdl\middleware\ble/cy_ble_gap.c ****              (cy_ble_configPtr->discoveryModeInfo[advertisingParamIndex].advParam->advType >
 731:Generated_Source\PSoC6\pdl\middleware\ble/cy_ble_gap.c ****                 CY_BLE_GAPP_NON_CONNECTABLE_UNDIRECTED_ADV)))
 732:Generated_Source\PSoC6\pdl\middleware\ble/cy_ble_gap.c ****     {
 733:Generated_Source\PSoC6\pdl\middleware\ble/cy_ble_gap.c ****         apiResult = CY_BLE_ERROR_INVALID_OPERATION;
 734:Generated_Source\PSoC6\pdl\middleware\ble/cy_ble_gap.c ****     }
 735:Generated_Source\PSoC6\pdl\middleware\ble/cy_ble_gap.c **** #endif /*CY_BLE_GAP_ROLE_PERIPHERAL */
 736:Generated_Source\PSoC6\pdl\middleware\ble/cy_ble_gap.c ****     else if(Cy_BLE_GetAdvertisementState() == CY_BLE_ADV_STATE_STOPPED)
 737:Generated_Source\PSoC6\pdl\middleware\ble/cy_ble_gap.c ****     {
 738:Generated_Source\PSoC6\pdl\middleware\ble/cy_ble_gap.c ****         cy_ble_advIndex = advertisingParamIndex;
 739:Generated_Source\PSoC6\pdl\middleware\ble/cy_ble_gap.c ****         if(advertisingIntervalType == CY_BLE_ADVERTISING_FAST)
 740:Generated_Source\PSoC6\pdl\middleware\ble/cy_ble_gap.c ****         {
 741:Generated_Source\PSoC6\pdl\middleware\ble/cy_ble_gap.c ****             cy_ble_configPtr->discoveryModeInfo[advertisingParamIndex].advTo =
 742:Generated_Source\PSoC6\pdl\middleware\ble/cy_ble_gap.c ****                 cy_ble_configPtr->gappAdvParams[advertisingParamIndex].fastAdvTimeOut;
 743:Generated_Source\PSoC6\pdl\middleware\ble/cy_ble_gap.c ****             cy_ble_configPtr->discoveryModeInfo[advertisingParamIndex].advParam->advIntvMin =
 744:Generated_Source\PSoC6\pdl\middleware\ble/cy_ble_gap.c ****                 cy_ble_configPtr->gappAdvParams[advertisingParamIndex].fastAdvIntervalMin;
 745:Generated_Source\PSoC6\pdl\middleware\ble/cy_ble_gap.c ****             cy_ble_configPtr->discoveryModeInfo[advertisingParamIndex].advParam->advIntvMax =
 746:Generated_Source\PSoC6\pdl\middleware\ble/cy_ble_gap.c ****                 cy_ble_configPtr->gappAdvParams[advertisingParamIndex].fastAdvIntervalMax;
 747:Generated_Source\PSoC6\pdl\middleware\ble/cy_ble_gap.c ****         }
 748:Generated_Source\PSoC6\pdl\middleware\ble/cy_ble_gap.c ****         else if(advertisingIntervalType == CY_BLE_ADVERTISING_SLOW)
 749:Generated_Source\PSoC6\pdl\middleware\ble/cy_ble_gap.c ****         {
 750:Generated_Source\PSoC6\pdl\middleware\ble/cy_ble_gap.c ****             cy_ble_configPtr->discoveryModeInfo[advertisingParamIndex].advTo =
 751:Generated_Source\PSoC6\pdl\middleware\ble/cy_ble_gap.c ****                 cy_ble_configPtr->gappAdvParams[advertisingParamIndex].slowAdvTimeOut;
 752:Generated_Source\PSoC6\pdl\middleware\ble/cy_ble_gap.c ****             cy_ble_configPtr->discoveryModeInfo[advertisingParamIndex].advParam->advIntvMin =
 753:Generated_Source\PSoC6\pdl\middleware\ble/cy_ble_gap.c ****                 cy_ble_configPtr->gappAdvParams[advertisingParamIndex].slowAdvIntervalMin;
 754:Generated_Source\PSoC6\pdl\middleware\ble/cy_ble_gap.c ****             cy_ble_configPtr->discoveryModeInfo[advertisingParamIndex].advParam->advIntvMax =
 755:Generated_Source\PSoC6\pdl\middleware\ble/cy_ble_gap.c ****                 cy_ble_configPtr->gappAdvParams[advertisingParamIndex].slowAdvIntervalMax;
 756:Generated_Source\PSoC6\pdl\middleware\ble/cy_ble_gap.c ****         }
 757:Generated_Source\PSoC6\pdl\middleware\ble/cy_ble_gap.c ****         else /* Do not update advertising intervals */
 758:Generated_Source\PSoC6\pdl\middleware\ble/cy_ble_gap.c ****         {
 759:Generated_Source\PSoC6\pdl\middleware\ble/cy_ble_gap.c ****         }
 760:Generated_Source\PSoC6\pdl\middleware\ble/cy_ble_gap.c ****         cy_ble_advertisingIntervalType = advertisingIntervalType;
 761:Generated_Source\PSoC6\pdl\middleware\ble/cy_ble_gap.c ****         apiResult = Cy_BLE_GAPP_EnterDiscoveryMode(&cy_ble_configPtr->discoveryModeInfo[cy_ble_advI
 762:Generated_Source\PSoC6\pdl\middleware\ble/cy_ble_gap.c **** 
 763:Generated_Source\PSoC6\pdl\middleware\ble/cy_ble_gap.c ****         if(apiResult == CY_BLE_SUCCESS)
 764:Generated_Source\PSoC6\pdl\middleware\ble/cy_ble_gap.c ****         {
 765:Generated_Source\PSoC6\pdl\middleware\ble/cy_ble_gap.c ****             Cy_BLE_SetAdvertisementState(CY_BLE_ADV_STATE_ADV_INITIATED);
 766:Generated_Source\PSoC6\pdl\middleware\ble/cy_ble_gap.c ****         }
 767:Generated_Source\PSoC6\pdl\middleware\ble/cy_ble_gap.c ****     }
 768:Generated_Source\PSoC6\pdl\middleware\ble/cy_ble_gap.c ****     else
 769:Generated_Source\PSoC6\pdl\middleware\ble/cy_ble_gap.c ****     {
 770:Generated_Source\PSoC6\pdl\middleware\ble/cy_ble_gap.c ****         apiResult = CY_BLE_ERROR_INVALID_STATE;
 771:Generated_Source\PSoC6\pdl\middleware\ble/cy_ble_gap.c ****     }
 772:Generated_Source\PSoC6\pdl\middleware\ble/cy_ble_gap.c **** 
ARM GAS  C:\Users\salaz\AppData\Local\Temp\ccu2LhKM.s 			page 15


 773:Generated_Source\PSoC6\pdl\middleware\ble/cy_ble_gap.c ****     return(apiResult);
 774:Generated_Source\PSoC6\pdl\middleware\ble/cy_ble_gap.c **** }
 775:Generated_Source\PSoC6\pdl\middleware\ble/cy_ble_gap.c **** 
 776:Generated_Source\PSoC6\pdl\middleware\ble/cy_ble_gap.c **** 
 777:Generated_Source\PSoC6\pdl\middleware\ble/cy_ble_gap.c **** /******************************************************************************
 778:Generated_Source\PSoC6\pdl\middleware\ble/cy_ble_gap.c **** * Function Name: Cy_BLE_GAPP_StopAdvertisement
 779:Generated_Source\PSoC6\pdl\middleware\ble/cy_ble_gap.c **** ***************************************************************************//**
 780:Generated_Source\PSoC6\pdl\middleware\ble/cy_ble_gap.c **** *
 781:Generated_Source\PSoC6\pdl\middleware\ble/cy_ble_gap.c **** *   This function can be used to exit from discovery mode. After the execution
 782:Generated_Source\PSoC6\pdl\middleware\ble/cy_ble_gap.c **** *   of this function, there will no longer be any advertisements. On stopping
 783:Generated_Source\PSoC6\pdl\middleware\ble/cy_ble_gap.c **** *   advertising, GAP Peripheral receives #CY_BLE_EVT_GAPP_ADVERTISEMENT_START_STOP
 784:Generated_Source\PSoC6\pdl\middleware\ble/cy_ble_gap.c **** *   event.
 785:Generated_Source\PSoC6\pdl\middleware\ble/cy_ble_gap.c **** *
 786:Generated_Source\PSoC6\pdl\middleware\ble/cy_ble_gap.c **** *   The following event occurs on invoking this function:
 787:Generated_Source\PSoC6\pdl\middleware\ble/cy_ble_gap.c **** *   * #CY_BLE_EVT_GAPP_ADVERTISEMENT_START_STOP
 788:Generated_Source\PSoC6\pdl\middleware\ble/cy_ble_gap.c **** *
 789:Generated_Source\PSoC6\pdl\middleware\ble/cy_ble_gap.c **** *
 790:Generated_Source\PSoC6\pdl\middleware\ble/cy_ble_gap.c **** *  \return
 791:Generated_Source\PSoC6\pdl\middleware\ble/cy_ble_gap.c **** *  \ref cy_en_ble_api_result_t : Return value indicates if the function succeeded or
 792:Generated_Source\PSoC6\pdl\middleware\ble/cy_ble_gap.c **** *  failed. The following are possible error codes.
 793:Generated_Source\PSoC6\pdl\middleware\ble/cy_ble_gap.c **** *
 794:Generated_Source\PSoC6\pdl\middleware\ble/cy_ble_gap.c **** *   Error Codes                           | Description
 795:Generated_Source\PSoC6\pdl\middleware\ble/cy_ble_gap.c **** *   ------------                          | -----------
 796:Generated_Source\PSoC6\pdl\middleware\ble/cy_ble_gap.c **** *   CY_BLE_SUCCESS                        | On successful operation.
 797:Generated_Source\PSoC6\pdl\middleware\ble/cy_ble_gap.c **** *   CY_BLE_ERROR_MEMORY_ALLOCATION_FAILED | Memory allocation failed.
 798:Generated_Source\PSoC6\pdl\middleware\ble/cy_ble_gap.c **** *   CY_BLE_ERROR_INVALID_STATE            | On calling this function not in Advertising state.
 799:Generated_Source\PSoC6\pdl\middleware\ble/cy_ble_gap.c **** *
 800:Generated_Source\PSoC6\pdl\middleware\ble/cy_ble_gap.c **** * \note
 801:Generated_Source\PSoC6\pdl\middleware\ble/cy_ble_gap.c **** *   #CY_BLE_EVT_GAPP_ADVERTISEMENT_START_STOP event is generated after calling 
 802:Generated_Source\PSoC6\pdl\middleware\ble/cy_ble_gap.c **** *   Cy_BLE_GAPP_StartAdvertisement() and Cy_BLE_GAPP_StopAdvertisement() functions.
 803:Generated_Source\PSoC6\pdl\middleware\ble/cy_ble_gap.c **** *   Application should keep track of which function call resulted into this event.
 804:Generated_Source\PSoC6\pdl\middleware\ble/cy_ble_gap.c **** *
 805:Generated_Source\PSoC6\pdl\middleware\ble/cy_ble_gap.c **** *******************************************************************************/
 806:Generated_Source\PSoC6\pdl\middleware\ble/cy_ble_gap.c **** cy_en_ble_api_result_t Cy_BLE_GAPP_StopAdvertisement(void)
 807:Generated_Source\PSoC6\pdl\middleware\ble/cy_ble_gap.c **** {
 808:Generated_Source\PSoC6\pdl\middleware\ble/cy_ble_gap.c ****     cy_en_ble_api_result_t apiResult;
 809:Generated_Source\PSoC6\pdl\middleware\ble/cy_ble_gap.c **** 
 810:Generated_Source\PSoC6\pdl\middleware\ble/cy_ble_gap.c ****     if(Cy_BLE_GetAdvertisementState() != CY_BLE_ADV_STATE_STOPPED)
 811:Generated_Source\PSoC6\pdl\middleware\ble/cy_ble_gap.c ****     {
 812:Generated_Source\PSoC6\pdl\middleware\ble/cy_ble_gap.c ****         apiResult = Cy_BLE_GAPP_ExitDiscoveryMode();
 813:Generated_Source\PSoC6\pdl\middleware\ble/cy_ble_gap.c ****         if(apiResult == CY_BLE_SUCCESS)
 814:Generated_Source\PSoC6\pdl\middleware\ble/cy_ble_gap.c ****         {
 815:Generated_Source\PSoC6\pdl\middleware\ble/cy_ble_gap.c ****             Cy_BLE_SetAdvertisementState(CY_BLE_ADV_STATE_STOP_INITIATED);
 816:Generated_Source\PSoC6\pdl\middleware\ble/cy_ble_gap.c ****         }
 817:Generated_Source\PSoC6\pdl\middleware\ble/cy_ble_gap.c ****     }
 818:Generated_Source\PSoC6\pdl\middleware\ble/cy_ble_gap.c ****     else
 819:Generated_Source\PSoC6\pdl\middleware\ble/cy_ble_gap.c ****     {
 820:Generated_Source\PSoC6\pdl\middleware\ble/cy_ble_gap.c ****         apiResult = CY_BLE_ERROR_INVALID_STATE;
 821:Generated_Source\PSoC6\pdl\middleware\ble/cy_ble_gap.c ****     }
 822:Generated_Source\PSoC6\pdl\middleware\ble/cy_ble_gap.c **** 
 823:Generated_Source\PSoC6\pdl\middleware\ble/cy_ble_gap.c ****     return(apiResult);
 824:Generated_Source\PSoC6\pdl\middleware\ble/cy_ble_gap.c **** }
 825:Generated_Source\PSoC6\pdl\middleware\ble/cy_ble_gap.c **** 
 826:Generated_Source\PSoC6\pdl\middleware\ble/cy_ble_gap.c **** 
 827:Generated_Source\PSoC6\pdl\middleware\ble/cy_ble_gap.c **** /******************************************************************************
 828:Generated_Source\PSoC6\pdl\middleware\ble/cy_ble_gap.c **** * Function Name: Cy_BLE_ChangeAdDeviceAddress
 829:Generated_Source\PSoC6\pdl\middleware\ble/cy_ble_gap.c **** ***************************************************************************//**
ARM GAS  C:\Users\salaz\AppData\Local\Temp\ccu2LhKM.s 			page 16


 830:Generated_Source\PSoC6\pdl\middleware\ble/cy_ble_gap.c **** *
 831:Generated_Source\PSoC6\pdl\middleware\ble/cy_ble_gap.c **** *  This function is used to set the Bluetooth device address into the
 832:Generated_Source\PSoC6\pdl\middleware\ble/cy_ble_gap.c **** *  advertisement or scan response data structures.
 833:Generated_Source\PSoC6\pdl\middleware\ble/cy_ble_gap.c **** *
 834:Generated_Source\PSoC6\pdl\middleware\ble/cy_ble_gap.c **** *  \param bdAddr: Bluetooth Device address. The variable is of type #cy_stc_ble_gap_bd_addr_t.
 835:Generated_Source\PSoC6\pdl\middleware\ble/cy_ble_gap.c **** *  \param dest: 0 - selects advertisement structure, not zero value selects scan
 836:Generated_Source\PSoC6\pdl\middleware\ble/cy_ble_gap.c **** *               response structure.
 837:Generated_Source\PSoC6\pdl\middleware\ble/cy_ble_gap.c **** *
 838:Generated_Source\PSoC6\pdl\middleware\ble/cy_ble_gap.c **** *  \return
 839:Generated_Source\PSoC6\pdl\middleware\ble/cy_ble_gap.c **** *   None
 840:Generated_Source\PSoC6\pdl\middleware\ble/cy_ble_gap.c **** *
 841:Generated_Source\PSoC6\pdl\middleware\ble/cy_ble_gap.c **** *******************************************************************************/
 842:Generated_Source\PSoC6\pdl\middleware\ble/cy_ble_gap.c **** void Cy_BLE_ChangeAdDeviceAddress(const cy_stc_ble_gap_bd_addr_t* bdAddr,
 843:Generated_Source\PSoC6\pdl\middleware\ble/cy_ble_gap.c ****                                   uint8_t dest)
 844:Generated_Source\PSoC6\pdl\middleware\ble/cy_ble_gap.c **** {
 845:Generated_Source\PSoC6\pdl\middleware\ble/cy_ble_gap.c ****     uint32_t i;
 846:Generated_Source\PSoC6\pdl\middleware\ble/cy_ble_gap.c ****     uint32_t fFlag;
 847:Generated_Source\PSoC6\pdl\middleware\ble/cy_ble_gap.c ****     uint32_t adLength;
 848:Generated_Source\PSoC6\pdl\middleware\ble/cy_ble_gap.c ****     uint32_t byteCounter;
 849:Generated_Source\PSoC6\pdl\middleware\ble/cy_ble_gap.c ****     uint32_t maxLength;
 850:Generated_Source\PSoC6\pdl\middleware\ble/cy_ble_gap.c ****     uint32_t advIndex = 0u;
 851:Generated_Source\PSoC6\pdl\middleware\ble/cy_ble_gap.c ****     uint8_t *destBuffer;
 852:Generated_Source\PSoC6\pdl\middleware\ble/cy_ble_gap.c **** 
 853:Generated_Source\PSoC6\pdl\middleware\ble/cy_ble_gap.c ****     do
 854:Generated_Source\PSoC6\pdl\middleware\ble/cy_ble_gap.c ****     {
 855:Generated_Source\PSoC6\pdl\middleware\ble/cy_ble_gap.c ****         fFlag = 0u;
 856:Generated_Source\PSoC6\pdl\middleware\ble/cy_ble_gap.c ****         byteCounter = 0u;
 857:Generated_Source\PSoC6\pdl\middleware\ble/cy_ble_gap.c **** 
 858:Generated_Source\PSoC6\pdl\middleware\ble/cy_ble_gap.c ****         if(dest == 0u)      /* Destination - advertising structure */
 859:Generated_Source\PSoC6\pdl\middleware\ble/cy_ble_gap.c ****         {
 860:Generated_Source\PSoC6\pdl\middleware\ble/cy_ble_gap.c ****             destBuffer = cy_ble_configPtr->discoveryModeInfo[advIndex].advData->advData;
 861:Generated_Source\PSoC6\pdl\middleware\ble/cy_ble_gap.c ****             maxLength = cy_ble_configPtr->discoveryModeInfo[advIndex].advData->advDataLen;
 862:Generated_Source\PSoC6\pdl\middleware\ble/cy_ble_gap.c ****         }
 863:Generated_Source\PSoC6\pdl\middleware\ble/cy_ble_gap.c ****         else                /* Destination - scan response structure */
 864:Generated_Source\PSoC6\pdl\middleware\ble/cy_ble_gap.c ****         {
 865:Generated_Source\PSoC6\pdl\middleware\ble/cy_ble_gap.c ****             destBuffer = cy_ble_configPtr->discoveryModeInfo[advIndex].scanRspData->scanRspData;
 866:Generated_Source\PSoC6\pdl\middleware\ble/cy_ble_gap.c ****             maxLength = cy_ble_configPtr->discoveryModeInfo[advIndex].scanRspData->scanRspDataLen;
 867:Generated_Source\PSoC6\pdl\middleware\ble/cy_ble_gap.c ****         }
 868:Generated_Source\PSoC6\pdl\middleware\ble/cy_ble_gap.c **** 
 869:Generated_Source\PSoC6\pdl\middleware\ble/cy_ble_gap.c ****         while((byteCounter < maxLength) && (fFlag == 0u))
 870:Generated_Source\PSoC6\pdl\middleware\ble/cy_ble_gap.c ****         {
 871:Generated_Source\PSoC6\pdl\middleware\ble/cy_ble_gap.c ****             adLength = destBuffer[byteCounter];
 872:Generated_Source\PSoC6\pdl\middleware\ble/cy_ble_gap.c **** 
 873:Generated_Source\PSoC6\pdl\middleware\ble/cy_ble_gap.c ****             if(adLength != 0u)
 874:Generated_Source\PSoC6\pdl\middleware\ble/cy_ble_gap.c ****             {
 875:Generated_Source\PSoC6\pdl\middleware\ble/cy_ble_gap.c ****                 /* Increment byte counter so it can point to AD type */
 876:Generated_Source\PSoC6\pdl\middleware\ble/cy_ble_gap.c ****                 byteCounter++;
 877:Generated_Source\PSoC6\pdl\middleware\ble/cy_ble_gap.c **** 
 878:Generated_Source\PSoC6\pdl\middleware\ble/cy_ble_gap.c ****                 if(destBuffer[byteCounter] == CY_BLE_ADV_DEVICE_ADDR)
 879:Generated_Source\PSoC6\pdl\middleware\ble/cy_ble_gap.c ****                 {
 880:Generated_Source\PSoC6\pdl\middleware\ble/cy_ble_gap.c ****                     /* Start of the device address type was found. Set flag and exit the loop. */
 881:Generated_Source\PSoC6\pdl\middleware\ble/cy_ble_gap.c ****                     fFlag = 1u;
 882:Generated_Source\PSoC6\pdl\middleware\ble/cy_ble_gap.c ****                 }
 883:Generated_Source\PSoC6\pdl\middleware\ble/cy_ble_gap.c ****                 else
 884:Generated_Source\PSoC6\pdl\middleware\ble/cy_ble_gap.c ****                 {
 885:Generated_Source\PSoC6\pdl\middleware\ble/cy_ble_gap.c ****                     byteCounter += adLength;
 886:Generated_Source\PSoC6\pdl\middleware\ble/cy_ble_gap.c ****                 }
ARM GAS  C:\Users\salaz\AppData\Local\Temp\ccu2LhKM.s 			page 17


 887:Generated_Source\PSoC6\pdl\middleware\ble/cy_ble_gap.c ****             }
 888:Generated_Source\PSoC6\pdl\middleware\ble/cy_ble_gap.c ****             else
 889:Generated_Source\PSoC6\pdl\middleware\ble/cy_ble_gap.c ****             {
 890:Generated_Source\PSoC6\pdl\middleware\ble/cy_ble_gap.c ****                 /* The end of advertisement data structure was encountered though exit the loop. */
 891:Generated_Source\PSoC6\pdl\middleware\ble/cy_ble_gap.c ****                 break;
 892:Generated_Source\PSoC6\pdl\middleware\ble/cy_ble_gap.c ****             }
 893:Generated_Source\PSoC6\pdl\middleware\ble/cy_ble_gap.c ****         }
 894:Generated_Source\PSoC6\pdl\middleware\ble/cy_ble_gap.c **** 
 895:Generated_Source\PSoC6\pdl\middleware\ble/cy_ble_gap.c ****         if(fFlag != 0u)
 896:Generated_Source\PSoC6\pdl\middleware\ble/cy_ble_gap.c ****         {
 897:Generated_Source\PSoC6\pdl\middleware\ble/cy_ble_gap.c ****             /* Increment byte counter so it can point to Device address */
 898:Generated_Source\PSoC6\pdl\middleware\ble/cy_ble_gap.c ****             byteCounter++;
 899:Generated_Source\PSoC6\pdl\middleware\ble/cy_ble_gap.c **** 
 900:Generated_Source\PSoC6\pdl\middleware\ble/cy_ble_gap.c ****             /* Update Device Address type */
 901:Generated_Source\PSoC6\pdl\middleware\ble/cy_ble_gap.c ****             destBuffer[byteCounter] = bdAddr->type;
 902:Generated_Source\PSoC6\pdl\middleware\ble/cy_ble_gap.c **** 
 903:Generated_Source\PSoC6\pdl\middleware\ble/cy_ble_gap.c ****             for(i = 0u; i < CY_BLE_GAP_BD_ADDR_SIZE; i++)
 904:Generated_Source\PSoC6\pdl\middleware\ble/cy_ble_gap.c ****             {
 905:Generated_Source\PSoC6\pdl\middleware\ble/cy_ble_gap.c ****                 destBuffer[byteCounter + i + 1u] = bdAddr->bdAddr[i];
 906:Generated_Source\PSoC6\pdl\middleware\ble/cy_ble_gap.c ****             }
 907:Generated_Source\PSoC6\pdl\middleware\ble/cy_ble_gap.c ****         }
 908:Generated_Source\PSoC6\pdl\middleware\ble/cy_ble_gap.c ****         advIndex++;
 909:Generated_Source\PSoC6\pdl\middleware\ble/cy_ble_gap.c ****     }
 910:Generated_Source\PSoC6\pdl\middleware\ble/cy_ble_gap.c ****     while(advIndex < CY_BLE_GAPP_CONF_COUNT);
 911:Generated_Source\PSoC6\pdl\middleware\ble/cy_ble_gap.c **** }
 912:Generated_Source\PSoC6\pdl\middleware\ble/cy_ble_gap.c **** 
 913:Generated_Source\PSoC6\pdl\middleware\ble/cy_ble_gap.c **** #endif /* CY_BLE_GAP_ROLE_PERIPHERAL || CY_BLE_GAP_ROLE_BROADCASTER */
 914:Generated_Source\PSoC6\pdl\middleware\ble/cy_ble_gap.c **** 
 915:Generated_Source\PSoC6\pdl\middleware\ble/cy_ble_gap.c **** 
 916:Generated_Source\PSoC6\pdl\middleware\ble/cy_ble_gap.c **** #if (CY_BLE_GAP_ROLE_CENTRAL || CY_BLE_GAP_ROLE_OBSERVER)
 917:Generated_Source\PSoC6\pdl\middleware\ble/cy_ble_gap.c **** 
 918:Generated_Source\PSoC6\pdl\middleware\ble/cy_ble_gap.c **** /******************************************************************************
 919:Generated_Source\PSoC6\pdl\middleware\ble/cy_ble_gap.c **** * Function Name: Cy_BLE_GAPC_StartScan
 920:Generated_Source\PSoC6\pdl\middleware\ble/cy_ble_gap.c **** ***************************************************************************//**
 921:Generated_Source\PSoC6\pdl\middleware\ble/cy_ble_gap.c **** *
 922:Generated_Source\PSoC6\pdl\middleware\ble/cy_ble_gap.c **** *   This function is used for discovering GAP peripheral devices that are
 923:Generated_Source\PSoC6\pdl\middleware\ble/cy_ble_gap.c **** *   available for connection. It performs the scanning routine using the
 924:Generated_Source\PSoC6\pdl\middleware\ble/cy_ble_gap.c **** *   parameters entered in the Component's customizer indicated by
 925:Generated_Source\PSoC6\pdl\middleware\ble/cy_ble_gap.c **** *   scanParamIndex parameter.
 926:Generated_Source\PSoC6\pdl\middleware\ble/cy_ble_gap.c **** *
 927:Generated_Source\PSoC6\pdl\middleware\ble/cy_ble_gap.c **** *   As soon as the discovery operation starts, #CY_BLE_EVT_GAPC_SCAN_START_STOP
 928:Generated_Source\PSoC6\pdl\middleware\ble/cy_ble_gap.c **** *   event is generated. The #CY_BLE_EVT_GAPC_SCAN_PROGRESS_RESULT event is
 929:Generated_Source\PSoC6\pdl\middleware\ble/cy_ble_gap.c **** *   generated when a GAP peripheral device is located. There are three discovery
 930:Generated_Source\PSoC6\pdl\middleware\ble/cy_ble_gap.c **** *   procedures can be selected in the customizer's GUI:
 931:Generated_Source\PSoC6\pdl\middleware\ble/cy_ble_gap.c **** *
 932:Generated_Source\PSoC6\pdl\middleware\ble/cy_ble_gap.c **** *   * Observation procedure: A device performing the observer role receives only
 933:Generated_Source\PSoC6\pdl\middleware\ble/cy_ble_gap.c **** *                            advertisement data from devices irrespective of
 934:Generated_Source\PSoC6\pdl\middleware\ble/cy_ble_gap.c **** *                            their discoverable mode settings. Advertisement
 935:Generated_Source\PSoC6\pdl\middleware\ble/cy_ble_gap.c **** *                            data received is provided by the event,
 936:Generated_Source\PSoC6\pdl\middleware\ble/cy_ble_gap.c **** *                            #CY_BLE_EVT_GAPC_SCAN_PROGRESS_RESULT. This procedure
 937:Generated_Source\PSoC6\pdl\middleware\ble/cy_ble_gap.c **** *                            requires the scanType sub parameter to be passive
 938:Generated_Source\PSoC6\pdl\middleware\ble/cy_ble_gap.c **** *                            scanning.
 939:Generated_Source\PSoC6\pdl\middleware\ble/cy_ble_gap.c **** *
 940:Generated_Source\PSoC6\pdl\middleware\ble/cy_ble_gap.c **** *   * Discovery procedure: A device performing the discovery procedure receives
 941:Generated_Source\PSoC6\pdl\middleware\ble/cy_ble_gap.c **** *                          the advertisement data and scan response data from
 942:Generated_Source\PSoC6\pdl\middleware\ble/cy_ble_gap.c **** *                          devices in both limited discoverable mode and the
 943:Generated_Source\PSoC6\pdl\middleware\ble/cy_ble_gap.c **** *                          general discoverable mode. Received data is provided
ARM GAS  C:\Users\salaz\AppData\Local\Temp\ccu2LhKM.s 			page 18


 944:Generated_Source\PSoC6\pdl\middleware\ble/cy_ble_gap.c **** *                          by the event, #CY_BLE_EVT_GAPC_SCAN_PROGRESS_RESULT.
 945:Generated_Source\PSoC6\pdl\middleware\ble/cy_ble_gap.c **** *                          This procedure requires the scanType sub-parameter
 946:Generated_Source\PSoC6\pdl\middleware\ble/cy_ble_gap.c **** *                          to be active scanning.
 947:Generated_Source\PSoC6\pdl\middleware\ble/cy_ble_gap.c **** *
 948:Generated_Source\PSoC6\pdl\middleware\ble/cy_ble_gap.c **** *   Every Advertisement / Scan response packet is received in a new event,
 949:Generated_Source\PSoC6\pdl\middleware\ble/cy_ble_gap.c **** *   #CY_BLE_EVT_GAPC_SCAN_PROGRESS_RESULT.
 950:Generated_Source\PSoC6\pdl\middleware\ble/cy_ble_gap.c **** *   If 'scanTo' sub-parameter is a non-zero value, then upon commencement of
 951:Generated_Source\PSoC6\pdl\middleware\ble/cy_ble_gap.c **** *   discovery procedure and elapsed time = 'scanTo', #CY_BLE_EVT_TIMEOUT event
 952:Generated_Source\PSoC6\pdl\middleware\ble/cy_ble_gap.c **** *   is generated with the event parameter indicating #CY_BLE_GAP_SCAN_TO.
 953:Generated_Source\PSoC6\pdl\middleware\ble/cy_ble_gap.c **** *   Possible generated events are:
 954:Generated_Source\PSoC6\pdl\middleware\ble/cy_ble_gap.c **** *   * #CY_BLE_EVT_GAPC_SCAN_START_STOP: If a device started or stopped scanning.
 955:Generated_Source\PSoC6\pdl\middleware\ble/cy_ble_gap.c **** *                                     Use Cy_BLE_GetScanState() to determine the
 956:Generated_Source\PSoC6\pdl\middleware\ble/cy_ble_gap.c **** *                                     state. Sequential scanning could be
 957:Generated_Source\PSoC6\pdl\middleware\ble/cy_ble_gap.c **** *                                     started when #CY_BLE_ADV_STATE_STOPPED
 958:Generated_Source\PSoC6\pdl\middleware\ble/cy_ble_gap.c **** *                                     state is returned.
 959:Generated_Source\PSoC6\pdl\middleware\ble/cy_ble_gap.c **** *   * #CY_BLE_EVT_GAPC_SCAN_PROGRESS_RESULT
 960:Generated_Source\PSoC6\pdl\middleware\ble/cy_ble_gap.c **** *   * #CY_BLE_EVT_TIMEOUT (CY_BLE_GAP_SCAN_TO)
 961:Generated_Source\PSoC6\pdl\middleware\ble/cy_ble_gap.c **** *
 962:Generated_Source\PSoC6\pdl\middleware\ble/cy_ble_gap.c **** *   \param scanningIntervalType:  Fast or slow scanning interval with
 963:Generated_Source\PSoC6\pdl\middleware\ble/cy_ble_gap.c **** *       timings entered in Scan settings section of the customizer.
 964:Generated_Source\PSoC6\pdl\middleware\ble/cy_ble_gap.c **** *       * CY_BLE_SCANNING_FAST   0x00u
 965:Generated_Source\PSoC6\pdl\middleware\ble/cy_ble_gap.c **** *       * CY_BLE_SCANNING_SLOW   0x01u
 966:Generated_Source\PSoC6\pdl\middleware\ble/cy_ble_gap.c **** *       * CY_BLE_SCANNING_CUSTOM 0x02u
 967:Generated_Source\PSoC6\pdl\middleware\ble/cy_ble_gap.c **** *
 968:Generated_Source\PSoC6\pdl\middleware\ble/cy_ble_gap.c **** *   \param scanParamIndex:  The index of the central and scan configuration
 969:Generated_Source\PSoC6\pdl\middleware\ble/cy_ble_gap.c **** *                           in customizer.
 970:Generated_Source\PSoC6\pdl\middleware\ble/cy_ble_gap.c **** *
 971:Generated_Source\PSoC6\pdl\middleware\ble/cy_ble_gap.c **** *   \return
 972:Generated_Source\PSoC6\pdl\middleware\ble/cy_ble_gap.c **** *   \ref cy_en_ble_api_result_t : Return value indicates if the function succeeded or
 973:Generated_Source\PSoC6\pdl\middleware\ble/cy_ble_gap.c **** *   failed. The following are possible error codes.
 974:Generated_Source\PSoC6\pdl\middleware\ble/cy_ble_gap.c **** *
 975:Generated_Source\PSoC6\pdl\middleware\ble/cy_ble_gap.c **** *   Error Codes                        | Description
 976:Generated_Source\PSoC6\pdl\middleware\ble/cy_ble_gap.c **** *   ---------------------------------- | -----------------------------------
 977:Generated_Source\PSoC6\pdl\middleware\ble/cy_ble_gap.c **** *   CY_BLE_SUCCESS                     | On successful operation.
 978:Generated_Source\PSoC6\pdl\middleware\ble/cy_ble_gap.c **** *   CY_BLE_ERROR_INVALID_PARAMETER     | On passing an invalid parameter.
 979:Generated_Source\PSoC6\pdl\middleware\ble/cy_ble_gap.c **** *   CY_BLE_ERROR_INVALID_STATE         | On calling this function not in Stopped state.
 980:Generated_Source\PSoC6\pdl\middleware\ble/cy_ble_gap.c **** *
 981:Generated_Source\PSoC6\pdl\middleware\ble/cy_ble_gap.c **** *******************************************************************************/
 982:Generated_Source\PSoC6\pdl\middleware\ble/cy_ble_gap.c **** cy_en_ble_api_result_t Cy_BLE_GAPC_StartScan(uint8_t scanningIntervalType,
 983:Generated_Source\PSoC6\pdl\middleware\ble/cy_ble_gap.c ****                                              uint8_t scanParamIndex)
 984:Generated_Source\PSoC6\pdl\middleware\ble/cy_ble_gap.c **** {
 985:Generated_Source\PSoC6\pdl\middleware\ble/cy_ble_gap.c ****     cy_en_ble_api_result_t apiResult;
 986:Generated_Source\PSoC6\pdl\middleware\ble/cy_ble_gap.c **** 
 987:Generated_Source\PSoC6\pdl\middleware\ble/cy_ble_gap.c ****     if(scanningIntervalType > CY_BLE_SCANNING_CUSTOM)
 988:Generated_Source\PSoC6\pdl\middleware\ble/cy_ble_gap.c ****     {
 989:Generated_Source\PSoC6\pdl\middleware\ble/cy_ble_gap.c ****         apiResult = CY_BLE_ERROR_INVALID_PARAMETER;
 990:Generated_Source\PSoC6\pdl\middleware\ble/cy_ble_gap.c ****     }
 991:Generated_Source\PSoC6\pdl\middleware\ble/cy_ble_gap.c ****     else if(Cy_BLE_GetScanState() == CY_BLE_SCAN_STATE_STOPPED)
 992:Generated_Source\PSoC6\pdl\middleware\ble/cy_ble_gap.c ****     {
 993:Generated_Source\PSoC6\pdl\middleware\ble/cy_ble_gap.c ****         cy_ble_scanIndex = scanParamIndex;
 994:Generated_Source\PSoC6\pdl\middleware\ble/cy_ble_gap.c ****         if(scanningIntervalType == CY_BLE_SCANNING_FAST)
 995:Generated_Source\PSoC6\pdl\middleware\ble/cy_ble_gap.c ****         {
 996:Generated_Source\PSoC6\pdl\middleware\ble/cy_ble_gap.c ****             cy_ble_configPtr->discoveryInfo[scanParamIndex].scanTo =
 997:Generated_Source\PSoC6\pdl\middleware\ble/cy_ble_gap.c ****                 cy_ble_configPtr->gapcScanParams[scanParamIndex].fastScanTimeOut;
 998:Generated_Source\PSoC6\pdl\middleware\ble/cy_ble_gap.c ****             cy_ble_configPtr->discoveryInfo[scanParamIndex].scanIntv =
 999:Generated_Source\PSoC6\pdl\middleware\ble/cy_ble_gap.c ****                 cy_ble_configPtr->gapcScanParams[scanParamIndex].fastScanInterval;
1000:Generated_Source\PSoC6\pdl\middleware\ble/cy_ble_gap.c ****             cy_ble_configPtr->discoveryInfo[scanParamIndex].scanWindow =
ARM GAS  C:\Users\salaz\AppData\Local\Temp\ccu2LhKM.s 			page 19


1001:Generated_Source\PSoC6\pdl\middleware\ble/cy_ble_gap.c ****                 cy_ble_configPtr->gapcScanParams[scanParamIndex].fastScanWindow;
1002:Generated_Source\PSoC6\pdl\middleware\ble/cy_ble_gap.c ****         }
1003:Generated_Source\PSoC6\pdl\middleware\ble/cy_ble_gap.c ****         else if(scanningIntervalType == CY_BLE_SCANNING_SLOW)
1004:Generated_Source\PSoC6\pdl\middleware\ble/cy_ble_gap.c ****         {
1005:Generated_Source\PSoC6\pdl\middleware\ble/cy_ble_gap.c ****             cy_ble_configPtr->discoveryInfo[scanParamIndex].scanTo =
1006:Generated_Source\PSoC6\pdl\middleware\ble/cy_ble_gap.c ****                 cy_ble_configPtr->gapcScanParams[scanParamIndex].slowScanTimeOut;
1007:Generated_Source\PSoC6\pdl\middleware\ble/cy_ble_gap.c ****             cy_ble_configPtr->discoveryInfo[scanParamIndex].scanIntv =
1008:Generated_Source\PSoC6\pdl\middleware\ble/cy_ble_gap.c ****                 cy_ble_configPtr->gapcScanParams[scanParamIndex].slowScanInterval;
1009:Generated_Source\PSoC6\pdl\middleware\ble/cy_ble_gap.c ****             cy_ble_configPtr->discoveryInfo[scanParamIndex].scanWindow =
1010:Generated_Source\PSoC6\pdl\middleware\ble/cy_ble_gap.c ****                 cy_ble_configPtr->gapcScanParams[scanParamIndex].slowScanWindow;
1011:Generated_Source\PSoC6\pdl\middleware\ble/cy_ble_gap.c ****         }
1012:Generated_Source\PSoC6\pdl\middleware\ble/cy_ble_gap.c ****         else /* Do not update scanning intervals */
1013:Generated_Source\PSoC6\pdl\middleware\ble/cy_ble_gap.c ****         {
1014:Generated_Source\PSoC6\pdl\middleware\ble/cy_ble_gap.c ****         }
1015:Generated_Source\PSoC6\pdl\middleware\ble/cy_ble_gap.c **** 
1016:Generated_Source\PSoC6\pdl\middleware\ble/cy_ble_gap.c ****         cy_ble_scanningIntervalType = scanningIntervalType;
1017:Generated_Source\PSoC6\pdl\middleware\ble/cy_ble_gap.c ****         apiResult = Cy_BLE_GAPC_StartDiscovery(&cy_ble_configPtr->discoveryInfo[scanParamIndex]);
1018:Generated_Source\PSoC6\pdl\middleware\ble/cy_ble_gap.c **** 
1019:Generated_Source\PSoC6\pdl\middleware\ble/cy_ble_gap.c ****         if(apiResult == CY_BLE_SUCCESS)
1020:Generated_Source\PSoC6\pdl\middleware\ble/cy_ble_gap.c ****         {
1021:Generated_Source\PSoC6\pdl\middleware\ble/cy_ble_gap.c ****             Cy_BLE_SetScanState(CY_BLE_SCAN_STATE_SCAN_INITIATED);
1022:Generated_Source\PSoC6\pdl\middleware\ble/cy_ble_gap.c ****         }
1023:Generated_Source\PSoC6\pdl\middleware\ble/cy_ble_gap.c ****     }
1024:Generated_Source\PSoC6\pdl\middleware\ble/cy_ble_gap.c ****     else
1025:Generated_Source\PSoC6\pdl\middleware\ble/cy_ble_gap.c ****     {
1026:Generated_Source\PSoC6\pdl\middleware\ble/cy_ble_gap.c ****         apiResult = CY_BLE_ERROR_INVALID_STATE;
1027:Generated_Source\PSoC6\pdl\middleware\ble/cy_ble_gap.c ****     }
1028:Generated_Source\PSoC6\pdl\middleware\ble/cy_ble_gap.c **** 
1029:Generated_Source\PSoC6\pdl\middleware\ble/cy_ble_gap.c ****     return(apiResult);
1030:Generated_Source\PSoC6\pdl\middleware\ble/cy_ble_gap.c **** }
1031:Generated_Source\PSoC6\pdl\middleware\ble/cy_ble_gap.c **** 
1032:Generated_Source\PSoC6\pdl\middleware\ble/cy_ble_gap.c **** 
1033:Generated_Source\PSoC6\pdl\middleware\ble/cy_ble_gap.c **** /******************************************************************************
1034:Generated_Source\PSoC6\pdl\middleware\ble/cy_ble_gap.c **** * Function Name: Cy_BLE_GAPC_StopScan
1035:Generated_Source\PSoC6\pdl\middleware\ble/cy_ble_gap.c **** ***************************************************************************//**
1036:Generated_Source\PSoC6\pdl\middleware\ble/cy_ble_gap.c **** *
1037:Generated_Source\PSoC6\pdl\middleware\ble/cy_ble_gap.c **** *   This function used to stop the discovery of devices. On stopping discovery
1038:Generated_Source\PSoC6\pdl\middleware\ble/cy_ble_gap.c **** *   operation, #CY_BLE_EVT_GAPC_SCAN_START_STOP event is generated. Application
1039:Generated_Source\PSoC6\pdl\middleware\ble/cy_ble_gap.c **** *   layer needs to keep track of the function call made before receiving this
1040:Generated_Source\PSoC6\pdl\middleware\ble/cy_ble_gap.c **** *   event to associate this event with either the start or stop discovery
1041:Generated_Source\PSoC6\pdl\middleware\ble/cy_ble_gap.c **** *   function.
1042:Generated_Source\PSoC6\pdl\middleware\ble/cy_ble_gap.c **** *
1043:Generated_Source\PSoC6\pdl\middleware\ble/cy_ble_gap.c **** *   Possible events generated are:
1044:Generated_Source\PSoC6\pdl\middleware\ble/cy_ble_gap.c **** *    * #CY_BLE_EVT_GAPC_SCAN_START_STOP
1045:Generated_Source\PSoC6\pdl\middleware\ble/cy_ble_gap.c **** *
1046:Generated_Source\PSoC6\pdl\middleware\ble/cy_ble_gap.c **** *  \return
1047:Generated_Source\PSoC6\pdl\middleware\ble/cy_ble_gap.c **** *  \ref cy_en_ble_api_result_t : Return value indicates if the function succeeded or
1048:Generated_Source\PSoC6\pdl\middleware\ble/cy_ble_gap.c **** *  failed. The following are possible error codes.
1049:Generated_Source\PSoC6\pdl\middleware\ble/cy_ble_gap.c **** *
1050:Generated_Source\PSoC6\pdl\middleware\ble/cy_ble_gap.c **** *   Error Codes                           | Description
1051:Generated_Source\PSoC6\pdl\middleware\ble/cy_ble_gap.c **** *   ------------------------------------- | -----------------------------------
1052:Generated_Source\PSoC6\pdl\middleware\ble/cy_ble_gap.c **** *   CY_BLE_SUCCESS                        | On successful operation.
1053:Generated_Source\PSoC6\pdl\middleware\ble/cy_ble_gap.c **** *   CY_BLE_ERROR_MEMORY_ALLOCATION_FAILED | Memory allocation failed.
1054:Generated_Source\PSoC6\pdl\middleware\ble/cy_ble_gap.c **** *   CY_BLE_ERROR_INVALID_STATE            | On calling this function not in Scanning state.
1055:Generated_Source\PSoC6\pdl\middleware\ble/cy_ble_gap.c **** *
1056:Generated_Source\PSoC6\pdl\middleware\ble/cy_ble_gap.c **** *******************************************************************************/
1057:Generated_Source\PSoC6\pdl\middleware\ble/cy_ble_gap.c **** cy_en_ble_api_result_t Cy_BLE_GAPC_StopScan(void)
ARM GAS  C:\Users\salaz\AppData\Local\Temp\ccu2LhKM.s 			page 20


1058:Generated_Source\PSoC6\pdl\middleware\ble/cy_ble_gap.c **** {
1059:Generated_Source\PSoC6\pdl\middleware\ble/cy_ble_gap.c ****     cy_en_ble_api_result_t apiResult;
1060:Generated_Source\PSoC6\pdl\middleware\ble/cy_ble_gap.c **** 
1061:Generated_Source\PSoC6\pdl\middleware\ble/cy_ble_gap.c ****     if(Cy_BLE_GetScanState() == CY_BLE_SCAN_STATE_SCANNING)
1062:Generated_Source\PSoC6\pdl\middleware\ble/cy_ble_gap.c ****     {
1063:Generated_Source\PSoC6\pdl\middleware\ble/cy_ble_gap.c ****         apiResult = Cy_BLE_GAPC_StopDiscovery();
1064:Generated_Source\PSoC6\pdl\middleware\ble/cy_ble_gap.c ****         if(apiResult == CY_BLE_SUCCESS)
1065:Generated_Source\PSoC6\pdl\middleware\ble/cy_ble_gap.c ****         {
1066:Generated_Source\PSoC6\pdl\middleware\ble/cy_ble_gap.c ****             Cy_BLE_SetScanState(CY_BLE_SCAN_STATE_STOP_INITIATED);
1067:Generated_Source\PSoC6\pdl\middleware\ble/cy_ble_gap.c ****         }
1068:Generated_Source\PSoC6\pdl\middleware\ble/cy_ble_gap.c ****     }
1069:Generated_Source\PSoC6\pdl\middleware\ble/cy_ble_gap.c ****     else
1070:Generated_Source\PSoC6\pdl\middleware\ble/cy_ble_gap.c ****     {
1071:Generated_Source\PSoC6\pdl\middleware\ble/cy_ble_gap.c ****         apiResult = CY_BLE_ERROR_INVALID_STATE;
1072:Generated_Source\PSoC6\pdl\middleware\ble/cy_ble_gap.c ****     }
1073:Generated_Source\PSoC6\pdl\middleware\ble/cy_ble_gap.c **** 
1074:Generated_Source\PSoC6\pdl\middleware\ble/cy_ble_gap.c ****     return(apiResult);
1075:Generated_Source\PSoC6\pdl\middleware\ble/cy_ble_gap.c **** }
1076:Generated_Source\PSoC6\pdl\middleware\ble/cy_ble_gap.c **** 
1077:Generated_Source\PSoC6\pdl\middleware\ble/cy_ble_gap.c **** 
1078:Generated_Source\PSoC6\pdl\middleware\ble/cy_ble_gap.c **** #endif /* CY_BLE_GAP_ROLE_CENTRAL || CY_BLE_GAP_ROLE_OBSERVER */
1079:Generated_Source\PSoC6\pdl\middleware\ble/cy_ble_gap.c **** 
1080:Generated_Source\PSoC6\pdl\middleware\ble/cy_ble_gap.c **** 
1081:Generated_Source\PSoC6\pdl\middleware\ble/cy_ble_gap.c **** #if (CY_BLE_GAP_ROLE_CENTRAL)
1082:Generated_Source\PSoC6\pdl\middleware\ble/cy_ble_gap.c **** 
1083:Generated_Source\PSoC6\pdl\middleware\ble/cy_ble_gap.c **** /******************************************************************************
1084:Generated_Source\PSoC6\pdl\middleware\ble/cy_ble_gap.c **** * Function Name: Cy_BLE_GAPC_ConnectDevice
1085:Generated_Source\PSoC6\pdl\middleware\ble/cy_ble_gap.c **** ***************************************************************************//**
1086:Generated_Source\PSoC6\pdl\middleware\ble/cy_ble_gap.c **** *
1087:Generated_Source\PSoC6\pdl\middleware\ble/cy_ble_gap.c **** *  This function is used to send a connection request to the remote device with
1088:Generated_Source\PSoC6\pdl\middleware\ble/cy_ble_gap.c **** *  the connection parameters set in the BLE Component customizer. This function 
1089:Generated_Source\PSoC6\pdl\middleware\ble/cy_ble_gap.c **** *  needs to be called only once after the target device is discovered by
1090:Generated_Source\PSoC6\pdl\middleware\ble/cy_ble_gap.c **** *  Cy_BLE_GAPC_StartScan() and further scanning has stopped. Scanning is
1091:Generated_Source\PSoC6\pdl\middleware\ble/cy_ble_gap.c **** *  successfully stopped on invoking Cy_BLE_GAPC_StopScan() and then receiving the
1092:Generated_Source\PSoC6\pdl\middleware\ble/cy_ble_gap.c **** *  event #CY_BLE_EVT_GAPC_SCAN_START_STOP with sub-parameter 'success' = 0x01u.
1093:Generated_Source\PSoC6\pdl\middleware\ble/cy_ble_gap.c **** *
1094:Generated_Source\PSoC6\pdl\middleware\ble/cy_ble_gap.c **** *  On successful connection, the following events are generated at the GAP
1095:Generated_Source\PSoC6\pdl\middleware\ble/cy_ble_gap.c **** *  Central device (as well as the GAP Peripheral device), in the following order.
1096:Generated_Source\PSoC6\pdl\middleware\ble/cy_ble_gap.c **** *  * #CY_BLE_EVT_GATT_CONNECT_IND
1097:Generated_Source\PSoC6\pdl\middleware\ble/cy_ble_gap.c **** *  * #CY_BLE_EVT_GAP_DEVICE_CONNECTED - If the device connects to a GAP Central and
1098:Generated_Source\PSoC6\pdl\middleware\ble/cy_ble_gap.c **** *    Link Layer Privacy is disabled.
1099:Generated_Source\PSoC6\pdl\middleware\ble/cy_ble_gap.c **** *  * #CY_BLE_EVT_GAP_ENHANCE_CONN_COMPLETE - If the device connects to a GAP Central and
1100:Generated_Source\PSoC6\pdl\middleware\ble/cy_ble_gap.c **** *    Link Layer Privacy is enabled.
1101:Generated_Source\PSoC6\pdl\middleware\ble/cy_ble_gap.c **** *  * #CY_BLE_EVT_GAP_DEVICE_CONNECTED
1102:Generated_Source\PSoC6\pdl\middleware\ble/cy_ble_gap.c **** *
1103:Generated_Source\PSoC6\pdl\middleware\ble/cy_ble_gap.c **** *  A procedure is considered to have timed out if a connection response packet is
1104:Generated_Source\PSoC6\pdl\middleware\ble/cy_ble_gap.c **** *  not received within time set by cy_ble_connectingTimeout global variable
1105:Generated_Source\PSoC6\pdl\middleware\ble/cy_ble_gap.c **** *  (30 seconds by default). #CY_BLE_EVT_TIMEOUT event with #CY_BLE_GENERIC_APP_TO parameter
1106:Generated_Source\PSoC6\pdl\middleware\ble/cy_ble_gap.c **** *  will indicate about connection procedure timeout. Connection will automatically
1107:Generated_Source\PSoC6\pdl\middleware\ble/cy_ble_gap.c **** *  be canceled and state will be changed to #CY_BLE_STATE_ON.
1108:Generated_Source\PSoC6\pdl\middleware\ble/cy_ble_gap.c **** *
1109:Generated_Source\PSoC6\pdl\middleware\ble/cy_ble_gap.c **** *  \param address: The device address of the remote device to connect to.
1110:Generated_Source\PSoC6\pdl\middleware\ble/cy_ble_gap.c **** *  \param centralParamIndex: The index of the central configuration in customizer.
1111:Generated_Source\PSoC6\pdl\middleware\ble/cy_ble_gap.c **** *    For example:
1112:Generated_Source\PSoC6\pdl\middleware\ble/cy_ble_gap.c **** *  * CY_BLE_CENTRAL_CONFIGURATION_0_INDEX    0x00
1113:Generated_Source\PSoC6\pdl\middleware\ble/cy_ble_gap.c **** *  * CY_BLE_CENTRAL_CONFIGURATION_1_INDEX    0x01
1114:Generated_Source\PSoC6\pdl\middleware\ble/cy_ble_gap.c **** *
ARM GAS  C:\Users\salaz\AppData\Local\Temp\ccu2LhKM.s 			page 21


1115:Generated_Source\PSoC6\pdl\middleware\ble/cy_ble_gap.c **** * \return
1116:Generated_Source\PSoC6\pdl\middleware\ble/cy_ble_gap.c **** * \ref cy_en_ble_api_result_t : Return value indicates if the function succeeded or
1117:Generated_Source\PSoC6\pdl\middleware\ble/cy_ble_gap.c **** *  failed. The following are possible error codes.
1118:Generated_Source\PSoC6\pdl\middleware\ble/cy_ble_gap.c **** *
1119:Generated_Source\PSoC6\pdl\middleware\ble/cy_ble_gap.c **** *   Error Codes                       | Description
1120:Generated_Source\PSoC6\pdl\middleware\ble/cy_ble_gap.c **** *   ------------                      | -----------
1121:Generated_Source\PSoC6\pdl\middleware\ble/cy_ble_gap.c **** *   CY_BLE_SUCCESS                    | On successful operation.
1122:Generated_Source\PSoC6\pdl\middleware\ble/cy_ble_gap.c **** *   CY_BLE_ERROR_INVALID_PARAMETER    | On passing an invalid parameter.
1123:Generated_Source\PSoC6\pdl\middleware\ble/cy_ble_gap.c **** *   CY_BLE_ERROR_INVALID_STATE        | On calling this function not in Disconnected state.
1124:Generated_Source\PSoC6\pdl\middleware\ble/cy_ble_gap.c **** *   CY_BLE_ERROR_INVALID_OPERATION    | The operation is not permitted due to connection limit exce
1125:Generated_Source\PSoC6\pdl\middleware\ble/cy_ble_gap.c **** *
1126:Generated_Source\PSoC6\pdl\middleware\ble/cy_ble_gap.c **** *   Note: Please refer the description of Cy_BLE_GAPC_InitConnection() for recommended
1127:Generated_Source\PSoC6\pdl\middleware\ble/cy_ble_gap.c **** *   Connection Interval values.
1128:Generated_Source\PSoC6\pdl\middleware\ble/cy_ble_gap.c **** *
1129:Generated_Source\PSoC6\pdl\middleware\ble/cy_ble_gap.c **** *
1130:Generated_Source\PSoC6\pdl\middleware\ble/cy_ble_gap.c **** ******************************************************************************/
1131:Generated_Source\PSoC6\pdl\middleware\ble/cy_ble_gap.c **** cy_en_ble_api_result_t Cy_BLE_GAPC_ConnectDevice(const cy_stc_ble_gap_bd_addr_t * address,
1132:Generated_Source\PSoC6\pdl\middleware\ble/cy_ble_gap.c ****                                                  uint8_t centralParamIndex)
1133:Generated_Source\PSoC6\pdl\middleware\ble/cy_ble_gap.c **** {   
1134:Generated_Source\PSoC6\pdl\middleware\ble/cy_ble_gap.c **** #if (CY_BLE_GAP_ROLE_PERIPHERAL)
1135:Generated_Source\PSoC6\pdl\middleware\ble/cy_ble_gap.c ****     cy_en_ble_adv_state_t advState = Cy_BLE_GetAdvertisementState();
1136:Generated_Source\PSoC6\pdl\middleware\ble/cy_ble_gap.c **** #endif /* CY_BLE_GAP_ROLE_PERIPHERAL */
1137:Generated_Source\PSoC6\pdl\middleware\ble/cy_ble_gap.c **** 
1138:Generated_Source\PSoC6\pdl\middleware\ble/cy_ble_gap.c ****     cy_en_ble_api_result_t apiResult;
1139:Generated_Source\PSoC6\pdl\middleware\ble/cy_ble_gap.c ****     uint32_t i;
1140:Generated_Source\PSoC6\pdl\middleware\ble/cy_ble_gap.c **** 
1141:Generated_Source\PSoC6\pdl\middleware\ble/cy_ble_gap.c ****     if(Cy_BLE_IsPeerConnected((uint8_t *)address->bdAddr) == true)
1142:Generated_Source\PSoC6\pdl\middleware\ble/cy_ble_gap.c ****     {
1143:Generated_Source\PSoC6\pdl\middleware\ble/cy_ble_gap.c ****         apiResult = CY_BLE_ERROR_INVALID_STATE;
1144:Generated_Source\PSoC6\pdl\middleware\ble/cy_ble_gap.c ****     }
1145:Generated_Source\PSoC6\pdl\middleware\ble/cy_ble_gap.c ****     else if(address == NULL)
1146:Generated_Source\PSoC6\pdl\middleware\ble/cy_ble_gap.c ****     {
1147:Generated_Source\PSoC6\pdl\middleware\ble/cy_ble_gap.c ****         apiResult = CY_BLE_ERROR_INVALID_PARAMETER;
1148:Generated_Source\PSoC6\pdl\middleware\ble/cy_ble_gap.c ****     }
1149:Generated_Source\PSoC6\pdl\middleware\ble/cy_ble_gap.c ****     else if(Cy_BLE_GetNumOfActiveConn() == CY_BLE_CONN_COUNT)
1150:Generated_Source\PSoC6\pdl\middleware\ble/cy_ble_gap.c ****     {
1151:Generated_Source\PSoC6\pdl\middleware\ble/cy_ble_gap.c ****         apiResult = CY_BLE_ERROR_INVALID_OPERATION;
1152:Generated_Source\PSoC6\pdl\middleware\ble/cy_ble_gap.c ****     }
1153:Generated_Source\PSoC6\pdl\middleware\ble/cy_ble_gap.c **** #if (CY_BLE_GAP_ROLE_PERIPHERAL)
1154:Generated_Source\PSoC6\pdl\middleware\ble/cy_ble_gap.c ****     else if(((CY_BLE_CONN_COUNT - Cy_BLE_GetNumOfActiveConn()) == 1u) && (advState == CY_BLE_ADV_ST
1155:Generated_Source\PSoC6\pdl\middleware\ble/cy_ble_gap.c ****             ((cy_ble_configPtr->discoveryModeInfo[cy_ble_advIndex].advParam->advType < 
1156:Generated_Source\PSoC6\pdl\middleware\ble/cy_ble_gap.c ****                 CY_BLE_GAPP_SCANNABLE_UNDIRECTED_ADV) ||
1157:Generated_Source\PSoC6\pdl\middleware\ble/cy_ble_gap.c ****              (cy_ble_configPtr->discoveryModeInfo[cy_ble_advIndex].advParam->advType > 
1158:Generated_Source\PSoC6\pdl\middleware\ble/cy_ble_gap.c ****                 CY_BLE_GAPP_NON_CONNECTABLE_UNDIRECTED_ADV)))
1159:Generated_Source\PSoC6\pdl\middleware\ble/cy_ble_gap.c ****     {
1160:Generated_Source\PSoC6\pdl\middleware\ble/cy_ble_gap.c ****         apiResult = CY_BLE_ERROR_INVALID_OPERATION;
1161:Generated_Source\PSoC6\pdl\middleware\ble/cy_ble_gap.c ****     }
1162:Generated_Source\PSoC6\pdl\middleware\ble/cy_ble_gap.c **** #endif /* CY_BLE_GAP_ROLE_PERIPHERAL */
1163:Generated_Source\PSoC6\pdl\middleware\ble/cy_ble_gap.c ****     else
1164:Generated_Source\PSoC6\pdl\middleware\ble/cy_ble_gap.c ****     {
1165:Generated_Source\PSoC6\pdl\middleware\ble/cy_ble_gap.c ****         /* Init default connection parameters.
1166:Generated_Source\PSoC6\pdl\middleware\ble/cy_ble_gap.c ****          * Application may change it before initiating a connection */
1167:Generated_Source\PSoC6\pdl\middleware\ble/cy_ble_gap.c ****         cy_ble_connectionParameters.scanIntv = cy_ble_configPtr->discoveryInfo[centralParamIndex].s
1168:Generated_Source\PSoC6\pdl\middleware\ble/cy_ble_gap.c ****         cy_ble_connectionParameters.scanWindow = cy_ble_configPtr->discoveryInfo[centralParamIndex]
1169:Generated_Source\PSoC6\pdl\middleware\ble/cy_ble_gap.c ****         cy_ble_connectionParameters.ownAddrType = cy_ble_configPtr->discoveryInfo[centralParamIndex
1170:Generated_Source\PSoC6\pdl\middleware\ble/cy_ble_gap.c ****         cy_ble_connectionParameters.initiatorFilterPolicy =
1171:Generated_Source\PSoC6\pdl\middleware\ble/cy_ble_gap.c ****             cy_ble_configPtr->discoveryInfo[centralParamIndex].scanFilterPolicy;
ARM GAS  C:\Users\salaz\AppData\Local\Temp\ccu2LhKM.s 			page 22


1172:Generated_Source\PSoC6\pdl\middleware\ble/cy_ble_gap.c ****         cy_ble_connectionParameters.connIntvMin =
1173:Generated_Source\PSoC6\pdl\middleware\ble/cy_ble_gap.c ****             cy_ble_configPtr->gapcScanParams[centralParamIndex].gapcConnectionIntervalMin;
1174:Generated_Source\PSoC6\pdl\middleware\ble/cy_ble_gap.c ****         cy_ble_connectionParameters.connIntvMax =
1175:Generated_Source\PSoC6\pdl\middleware\ble/cy_ble_gap.c ****             cy_ble_configPtr->gapcScanParams[centralParamIndex].gapcConnectionIntervalMax;
1176:Generated_Source\PSoC6\pdl\middleware\ble/cy_ble_gap.c ****         cy_ble_connectionParameters.connLatency =
1177:Generated_Source\PSoC6\pdl\middleware\ble/cy_ble_gap.c ****             cy_ble_configPtr->gapcScanParams[centralParamIndex].gapcConnectionSlaveLatency;
1178:Generated_Source\PSoC6\pdl\middleware\ble/cy_ble_gap.c ****         cy_ble_connectionParameters.supervisionTO =
1179:Generated_Source\PSoC6\pdl\middleware\ble/cy_ble_gap.c ****             cy_ble_configPtr->gapcScanParams[centralParamIndex].gapcConnectionTimeOut;
1180:Generated_Source\PSoC6\pdl\middleware\ble/cy_ble_gap.c ****         cy_ble_connectionParameters.minCeLength = 0x0000u;
1181:Generated_Source\PSoC6\pdl\middleware\ble/cy_ble_gap.c ****         cy_ble_connectionParameters.maxCeLength = 0xFFFFu;
1182:Generated_Source\PSoC6\pdl\middleware\ble/cy_ble_gap.c ****         cy_ble_connectingTimeout.timeout = CY_BLE_GAPC_CONNECTING_TIMEOUT;
1183:Generated_Source\PSoC6\pdl\middleware\ble/cy_ble_gap.c **** 
1184:Generated_Source\PSoC6\pdl\middleware\ble/cy_ble_gap.c ****         for(i = 0u; i < CY_BLE_GAP_BD_ADDR_SIZE; i++)
1185:Generated_Source\PSoC6\pdl\middleware\ble/cy_ble_gap.c ****         {
1186:Generated_Source\PSoC6\pdl\middleware\ble/cy_ble_gap.c ****             cy_ble_connectionParameters.peerBdAddr[i] = address->bdAddr[i];
1187:Generated_Source\PSoC6\pdl\middleware\ble/cy_ble_gap.c ****         }
1188:Generated_Source\PSoC6\pdl\middleware\ble/cy_ble_gap.c ****         cy_ble_connectionParameters.peerAddrType = address->type;
1189:Generated_Source\PSoC6\pdl\middleware\ble/cy_ble_gap.c **** 
1190:Generated_Source\PSoC6\pdl\middleware\ble/cy_ble_gap.c ****         apiResult = Cy_BLE_StartTimer(&cy_ble_connectingTimeout);
1191:Generated_Source\PSoC6\pdl\middleware\ble/cy_ble_gap.c **** 
1192:Generated_Source\PSoC6\pdl\middleware\ble/cy_ble_gap.c ****         if(apiResult == CY_BLE_SUCCESS)
1193:Generated_Source\PSoC6\pdl\middleware\ble/cy_ble_gap.c ****         {
1194:Generated_Source\PSoC6\pdl\middleware\ble/cy_ble_gap.c ****             apiResult = Cy_BLE_GAPC_InitConnection(&cy_ble_connectionParameters);
1195:Generated_Source\PSoC6\pdl\middleware\ble/cy_ble_gap.c **** 
1196:Generated_Source\PSoC6\pdl\middleware\ble/cy_ble_gap.c ****             if(apiResult == CY_BLE_SUCCESS)
1197:Generated_Source\PSoC6\pdl\middleware\ble/cy_ble_gap.c ****             {
1198:Generated_Source\PSoC6\pdl\middleware\ble/cy_ble_gap.c ****                 Cy_BLE_SetState(CY_BLE_STATE_CONNECTING);
1199:Generated_Source\PSoC6\pdl\middleware\ble/cy_ble_gap.c ****             }
1200:Generated_Source\PSoC6\pdl\middleware\ble/cy_ble_gap.c ****         }
1201:Generated_Source\PSoC6\pdl\middleware\ble/cy_ble_gap.c ****         else
1202:Generated_Source\PSoC6\pdl\middleware\ble/cy_ble_gap.c ****         {
1203:Generated_Source\PSoC6\pdl\middleware\ble/cy_ble_gap.c ****             (void)Cy_BLE_StopTimer(&cy_ble_connectingTimeout);
1204:Generated_Source\PSoC6\pdl\middleware\ble/cy_ble_gap.c ****         }
1205:Generated_Source\PSoC6\pdl\middleware\ble/cy_ble_gap.c ****     }
1206:Generated_Source\PSoC6\pdl\middleware\ble/cy_ble_gap.c **** 
1207:Generated_Source\PSoC6\pdl\middleware\ble/cy_ble_gap.c ****     return(apiResult);
1208:Generated_Source\PSoC6\pdl\middleware\ble/cy_ble_gap.c **** }
1209:Generated_Source\PSoC6\pdl\middleware\ble/cy_ble_gap.c **** 
1210:Generated_Source\PSoC6\pdl\middleware\ble/cy_ble_gap.c **** 
1211:Generated_Source\PSoC6\pdl\middleware\ble/cy_ble_gap.c **** /******************************************************************************
1212:Generated_Source\PSoC6\pdl\middleware\ble/cy_ble_gap.c **** * Function Name: Cy_BLE_GAPC_CancelDeviceConnection
1213:Generated_Source\PSoC6\pdl\middleware\ble/cy_ble_gap.c **** ***************************************************************************//**
1214:Generated_Source\PSoC6\pdl\middleware\ble/cy_ble_gap.c **** *
1215:Generated_Source\PSoC6\pdl\middleware\ble/cy_ble_gap.c **** *  This function cancels a previously initiated connection with the remote
1216:Generated_Source\PSoC6\pdl\middleware\ble/cy_ble_gap.c **** *  device. It is a blocking function. No event is generated on calling this
1217:Generated_Source\PSoC6\pdl\middleware\ble/cy_ble_gap.c **** *  function. If the devices are already connected then this function should not
1218:Generated_Source\PSoC6\pdl\middleware\ble/cy_ble_gap.c **** *  be used. If you intend to disconnect from an existing connection, the function
1219:Generated_Source\PSoC6\pdl\middleware\ble/cy_ble_gap.c **** *  Cy_BLE_GAP_Disconnect() should be used.
1220:Generated_Source\PSoC6\pdl\middleware\ble/cy_ble_gap.c **** *
1221:Generated_Source\PSoC6\pdl\middleware\ble/cy_ble_gap.c **** * \return
1222:Generated_Source\PSoC6\pdl\middleware\ble/cy_ble_gap.c **** * \ref cy_en_ble_api_result_t : Return value indicates if the function succeeded or
1223:Generated_Source\PSoC6\pdl\middleware\ble/cy_ble_gap.c **** *  failed. The following are possible error codes.
1224:Generated_Source\PSoC6\pdl\middleware\ble/cy_ble_gap.c **** *
1225:Generated_Source\PSoC6\pdl\middleware\ble/cy_ble_gap.c **** *   Error Codes                         | Description
1226:Generated_Source\PSoC6\pdl\middleware\ble/cy_ble_gap.c **** *   ----------------------------------- | --------------------------------------
1227:Generated_Source\PSoC6\pdl\middleware\ble/cy_ble_gap.c **** *   CY_BLE_SUCCESS                      | On successful operation.
1228:Generated_Source\PSoC6\pdl\middleware\ble/cy_ble_gap.c **** *   CY_BLE_ERROR_INVALID_STATE          | On calling this function not in Connecting state.
ARM GAS  C:\Users\salaz\AppData\Local\Temp\ccu2LhKM.s 			page 23


1229:Generated_Source\PSoC6\pdl\middleware\ble/cy_ble_gap.c **** *
1230:Generated_Source\PSoC6\pdl\middleware\ble/cy_ble_gap.c **** *******************************************************************************/
1231:Generated_Source\PSoC6\pdl\middleware\ble/cy_ble_gap.c **** cy_en_ble_api_result_t Cy_BLE_GAPC_CancelDeviceConnection(void)
1232:Generated_Source\PSoC6\pdl\middleware\ble/cy_ble_gap.c **** {
1233:Generated_Source\PSoC6\pdl\middleware\ble/cy_ble_gap.c ****     cy_en_ble_api_result_t apiResult;
1234:Generated_Source\PSoC6\pdl\middleware\ble/cy_ble_gap.c **** 
1235:Generated_Source\PSoC6\pdl\middleware\ble/cy_ble_gap.c ****     if(Cy_BLE_GetState() != CY_BLE_STATE_CONNECTING)
1236:Generated_Source\PSoC6\pdl\middleware\ble/cy_ble_gap.c ****     {
1237:Generated_Source\PSoC6\pdl\middleware\ble/cy_ble_gap.c ****         apiResult = CY_BLE_ERROR_INVALID_STATE;
1238:Generated_Source\PSoC6\pdl\middleware\ble/cy_ble_gap.c ****     }
1239:Generated_Source\PSoC6\pdl\middleware\ble/cy_ble_gap.c ****     else
1240:Generated_Source\PSoC6\pdl\middleware\ble/cy_ble_gap.c ****     {
1241:Generated_Source\PSoC6\pdl\middleware\ble/cy_ble_gap.c ****         apiResult = Cy_BLE_GAPC_CancelConnection();
1242:Generated_Source\PSoC6\pdl\middleware\ble/cy_ble_gap.c **** 
1243:Generated_Source\PSoC6\pdl\middleware\ble/cy_ble_gap.c ****         if(cy_ble_connectingTimeout.timeout != 0u)
1244:Generated_Source\PSoC6\pdl\middleware\ble/cy_ble_gap.c ****         {
1245:Generated_Source\PSoC6\pdl\middleware\ble/cy_ble_gap.c ****             (void)Cy_BLE_StopTimer(&cy_ble_connectingTimeout);
1246:Generated_Source\PSoC6\pdl\middleware\ble/cy_ble_gap.c ****         }
1247:Generated_Source\PSoC6\pdl\middleware\ble/cy_ble_gap.c **** 
1248:Generated_Source\PSoC6\pdl\middleware\ble/cy_ble_gap.c ****         if(apiResult == CY_BLE_SUCCESS)
1249:Generated_Source\PSoC6\pdl\middleware\ble/cy_ble_gap.c ****         {
1250:Generated_Source\PSoC6\pdl\middleware\ble/cy_ble_gap.c ****             Cy_BLE_SetState(CY_BLE_STATE_ON);
1251:Generated_Source\PSoC6\pdl\middleware\ble/cy_ble_gap.c ****         }
1252:Generated_Source\PSoC6\pdl\middleware\ble/cy_ble_gap.c ****     }
1253:Generated_Source\PSoC6\pdl\middleware\ble/cy_ble_gap.c **** 
1254:Generated_Source\PSoC6\pdl\middleware\ble/cy_ble_gap.c ****     return(apiResult);
1255:Generated_Source\PSoC6\pdl\middleware\ble/cy_ble_gap.c **** }
1256:Generated_Source\PSoC6\pdl\middleware\ble/cy_ble_gap.c **** 
1257:Generated_Source\PSoC6\pdl\middleware\ble/cy_ble_gap.c **** #endif /* CY_BLE_GAP_ROLE_CENTRAL */
1258:Generated_Source\PSoC6\pdl\middleware\ble/cy_ble_gap.c **** 
1259:Generated_Source\PSoC6\pdl\middleware\ble/cy_ble_gap.c **** 
1260:Generated_Source\PSoC6\pdl\middleware\ble/cy_ble_gap.c **** #if (CY_BLE_GATT_ROLE_SERVER)
1261:Generated_Source\PSoC6\pdl\middleware\ble/cy_ble_gap.c **** 
1262:Generated_Source\PSoC6\pdl\middleware\ble/cy_ble_gap.c **** #if (CY_BLE_GAP_ROLE_PERIPHERAL)
1263:Generated_Source\PSoC6\pdl\middleware\ble/cy_ble_gap.c **** 
1264:Generated_Source\PSoC6\pdl\middleware\ble/cy_ble_gap.c **** /******************************************************************************
1265:Generated_Source\PSoC6\pdl\middleware\ble/cy_ble_gap.c **** * Function Name: Cy_BLE_ChangeAdLocalName
1266:Generated_Source\PSoC6\pdl\middleware\ble/cy_ble_gap.c **** ***************************************************************************//**
1267:Generated_Source\PSoC6\pdl\middleware\ble/cy_ble_gap.c **** *  This function is used to set the local device name in the advertisement or scan
1268:Generated_Source\PSoC6\pdl\middleware\ble/cy_ble_gap.c **** *  response data structure.
1269:Generated_Source\PSoC6\pdl\middleware\ble/cy_ble_gap.c **** *
1270:Generated_Source\PSoC6\pdl\middleware\ble/cy_ble_gap.c **** *  \param name: The local device name string to be set in advertisement data
1271:Generated_Source\PSoC6\pdl\middleware\ble/cy_ble_gap.c **** *            structure.
1272:Generated_Source\PSoC6\pdl\middleware\ble/cy_ble_gap.c **** *  \param dest: 0 - advertisement structure, not zero value selects scan response
1273:Generated_Source\PSoC6\pdl\middleware\ble/cy_ble_gap.c **** *              structure.
1274:Generated_Source\PSoC6\pdl\middleware\ble/cy_ble_gap.c **** *
1275:Generated_Source\PSoC6\pdl\middleware\ble/cy_ble_gap.c **** * \return
1276:Generated_Source\PSoC6\pdl\middleware\ble/cy_ble_gap.c **** *  None
1277:Generated_Source\PSoC6\pdl\middleware\ble/cy_ble_gap.c **** *
1278:Generated_Source\PSoC6\pdl\middleware\ble/cy_ble_gap.c **** *******************************************************************************/
1279:Generated_Source\PSoC6\pdl\middleware\ble/cy_ble_gap.c **** static void Cy_BLE_ChangeAdLocalName(const char8 name[],
1280:Generated_Source\PSoC6\pdl\middleware\ble/cy_ble_gap.c ****                                      uint8_t dest)
1281:Generated_Source\PSoC6\pdl\middleware\ble/cy_ble_gap.c **** {
  27              		.loc 1 1281 0
  28              		.cfi_startproc
  29              		@ args = 0, pretend = 0, frame = 0
  30              		@ frame_needed = 0, uses_anonymous_args = 0
ARM GAS  C:\Users\salaz\AppData\Local\Temp\ccu2LhKM.s 			page 24


  31              	.LVL0:
  32 0000 70B5     		push	{r4, r5, r6, lr}
  33              		.cfi_def_cfa_offset 16
  34              		.cfi_offset 4, -16
  35              		.cfi_offset 5, -12
  36              		.cfi_offset 6, -8
  37              		.cfi_offset 14, -4
  38              	.LVL1:
1282:Generated_Source\PSoC6\pdl\middleware\ble/cy_ble_gap.c ****     uint32_t i;
1283:Generated_Source\PSoC6\pdl\middleware\ble/cy_ble_gap.c ****     uint8_t fFlag;
1284:Generated_Source\PSoC6\pdl\middleware\ble/cy_ble_gap.c ****     uint8_t adLength;
1285:Generated_Source\PSoC6\pdl\middleware\ble/cy_ble_gap.c ****     uint8_t byteCounter;
1286:Generated_Source\PSoC6\pdl\middleware\ble/cy_ble_gap.c ****     uint8_t *destBuffer;
1287:Generated_Source\PSoC6\pdl\middleware\ble/cy_ble_gap.c ****     uint8_t maxLength;
1288:Generated_Source\PSoC6\pdl\middleware\ble/cy_ble_gap.c ****     uint8_t advIndex = 0u;
1289:Generated_Source\PSoC6\pdl\middleware\ble/cy_ble_gap.c **** 
1290:Generated_Source\PSoC6\pdl\middleware\ble/cy_ble_gap.c ****     do
1291:Generated_Source\PSoC6\pdl\middleware\ble/cy_ble_gap.c ****     {
1292:Generated_Source\PSoC6\pdl\middleware\ble/cy_ble_gap.c ****         fFlag = 0u;
1293:Generated_Source\PSoC6\pdl\middleware\ble/cy_ble_gap.c ****         adLength = 0u;
1294:Generated_Source\PSoC6\pdl\middleware\ble/cy_ble_gap.c ****         byteCounter = 0u;
1295:Generated_Source\PSoC6\pdl\middleware\ble/cy_ble_gap.c **** 
1296:Generated_Source\PSoC6\pdl\middleware\ble/cy_ble_gap.c ****         if(dest == 0u)      /* Destination - advertising structure */
  39              		.loc 1 1296 0
  40 0002 0029     		cmp	r1, #0
  41 0004 08D1     		bne	.L2
1297:Generated_Source\PSoC6\pdl\middleware\ble/cy_ble_gap.c ****         {
1298:Generated_Source\PSoC6\pdl\middleware\ble/cy_ble_gap.c ****             destBuffer = cy_ble_configPtr->discoveryModeInfo[advIndex].advData->advData;
  42              		.loc 1 1298 0
  43 0006 1D4B     		ldr	r3, .L14
  44 0008 1B68     		ldr	r3, [r3]
  45 000a 1B68     		ldr	r3, [r3]
  46 000c 9C68     		ldr	r4, [r3, #8]
  47              	.LVL2:
1299:Generated_Source\PSoC6\pdl\middleware\ble/cy_ble_gap.c ****             maxLength = cy_ble_configPtr->discoveryModeInfo[advIndex].advData->advDataLen;
  48              		.loc 1 1299 0
  49 000e E67F     		ldrb	r6, [r4, #31]
  50              	.LVL3:
  51              	.L4:
1300:Generated_Source\PSoC6\pdl\middleware\ble/cy_ble_gap.c ****         }
1301:Generated_Source\PSoC6\pdl\middleware\ble/cy_ble_gap.c ****         else                /* Destination - scan response structure */
1302:Generated_Source\PSoC6\pdl\middleware\ble/cy_ble_gap.c ****         {
1303:Generated_Source\PSoC6\pdl\middleware\ble/cy_ble_gap.c ****             destBuffer = cy_ble_configPtr->discoveryModeInfo[advIndex].scanRspData->scanRspData;
1304:Generated_Source\PSoC6\pdl\middleware\ble/cy_ble_gap.c ****             maxLength = cy_ble_configPtr->discoveryModeInfo[advIndex].scanRspData->scanRspDataLen;
1305:Generated_Source\PSoC6\pdl\middleware\ble/cy_ble_gap.c ****         }
1306:Generated_Source\PSoC6\pdl\middleware\ble/cy_ble_gap.c **** 
1307:Generated_Source\PSoC6\pdl\middleware\ble/cy_ble_gap.c ****         while((byteCounter < maxLength) && (fFlag == 0u))
1308:Generated_Source\PSoC6\pdl\middleware\ble/cy_ble_gap.c ****         {
1309:Generated_Source\PSoC6\pdl\middleware\ble/cy_ble_gap.c ****             adLength = destBuffer[byteCounter];
1310:Generated_Source\PSoC6\pdl\middleware\ble/cy_ble_gap.c **** 
1311:Generated_Source\PSoC6\pdl\middleware\ble/cy_ble_gap.c ****             if(adLength != 0u)
1312:Generated_Source\PSoC6\pdl\middleware\ble/cy_ble_gap.c ****             {
1313:Generated_Source\PSoC6\pdl\middleware\ble/cy_ble_gap.c ****                 /* Increment byte counter so it can point to AD type */
1314:Generated_Source\PSoC6\pdl\middleware\ble/cy_ble_gap.c ****                 byteCounter++;
1315:Generated_Source\PSoC6\pdl\middleware\ble/cy_ble_gap.c **** 
1316:Generated_Source\PSoC6\pdl\middleware\ble/cy_ble_gap.c ****                 if((CY_BLE_SHORT_LOCAL_NAME == destBuffer[byteCounter]) ||
1317:Generated_Source\PSoC6\pdl\middleware\ble/cy_ble_gap.c ****                    (CY_BLE_COMPLETE_LOCAL_NAME == destBuffer[byteCounter]))
ARM GAS  C:\Users\salaz\AppData\Local\Temp\ccu2LhKM.s 			page 25


1318:Generated_Source\PSoC6\pdl\middleware\ble/cy_ble_gap.c ****                 {
1319:Generated_Source\PSoC6\pdl\middleware\ble/cy_ble_gap.c ****                     /* Start of the Local Name AD type was found. Set flag and exit the loop. */
1320:Generated_Source\PSoC6\pdl\middleware\ble/cy_ble_gap.c ****                     fFlag = 1u;
  52              		.loc 1 1320 0
  53 0010 0023     		movs	r3, #0
  54 0012 0021     		movs	r1, #0
  55              	.LVL4:
  56 0014 0025     		movs	r5, #0
  57 0016 13E0     		b	.L3
  58              	.LVL5:
  59              	.L2:
1303:Generated_Source\PSoC6\pdl\middleware\ble/cy_ble_gap.c ****             maxLength = cy_ble_configPtr->discoveryModeInfo[advIndex].scanRspData->scanRspDataLen;
  60              		.loc 1 1303 0
  61 0018 184B     		ldr	r3, .L14
  62 001a 1B68     		ldr	r3, [r3]
  63 001c 1B68     		ldr	r3, [r3]
  64 001e DC68     		ldr	r4, [r3, #12]
  65              	.LVL6:
1304:Generated_Source\PSoC6\pdl\middleware\ble/cy_ble_gap.c ****         }
  66              		.loc 1 1304 0
  67 0020 E67F     		ldrb	r6, [r4, #31]
  68              	.LVL7:
  69 0022 F5E7     		b	.L4
  70              	.LVL8:
  71              	.L7:
1309:Generated_Source\PSoC6\pdl\middleware\ble/cy_ble_gap.c **** 
  72              		.loc 1 1309 0
  73 0024 E15C     		ldrb	r1, [r4, r3]
  74              	.LVL9:
1311:Generated_Source\PSoC6\pdl\middleware\ble/cy_ble_gap.c ****             {
  75              		.loc 1 1311 0
  76 0026 0029     		cmp	r1, #0
  77 0028 0ED0     		beq	.L5
1314:Generated_Source\PSoC6\pdl\middleware\ble/cy_ble_gap.c **** 
  78              		.loc 1 1314 0
  79 002a 0133     		adds	r3, r3, #1
  80              	.LVL10:
  81 002c DBB2     		uxtb	r3, r3
  82              	.LVL11:
1316:Generated_Source\PSoC6\pdl\middleware\ble/cy_ble_gap.c ****                    (CY_BLE_COMPLETE_LOCAL_NAME == destBuffer[byteCounter]))
  83              		.loc 1 1316 0
  84 002e E25C     		ldrb	r2, [r4, r3]
  85 0030 083A     		subs	r2, r2, #8
  86 0032 D2B2     		uxtb	r2, r2
  87 0034 012A     		cmp	r2, #1
  88 0036 02D9     		bls	.L13
1321:Generated_Source\PSoC6\pdl\middleware\ble/cy_ble_gap.c ****                 }
1322:Generated_Source\PSoC6\pdl\middleware\ble/cy_ble_gap.c ****                 else
1323:Generated_Source\PSoC6\pdl\middleware\ble/cy_ble_gap.c ****                 {
1324:Generated_Source\PSoC6\pdl\middleware\ble/cy_ble_gap.c ****                     byteCounter += adLength;
  89              		.loc 1 1324 0
  90 0038 CB18     		adds	r3, r1, r3
  91              	.LVL12:
  92 003a DBB2     		uxtb	r3, r3
  93              	.LVL13:
  94 003c 00E0     		b	.L3
  95              	.L13:
ARM GAS  C:\Users\salaz\AppData\Local\Temp\ccu2LhKM.s 			page 26


1320:Generated_Source\PSoC6\pdl\middleware\ble/cy_ble_gap.c ****                 }
  96              		.loc 1 1320 0
  97 003e 0125     		movs	r5, #1
  98              	.LVL14:
  99              	.L3:
1307:Generated_Source\PSoC6\pdl\middleware\ble/cy_ble_gap.c ****         {
 100              		.loc 1 1307 0
 101 0040 B342     		cmp	r3, r6
 102 0042 01D2     		bcs	.L5
1307:Generated_Source\PSoC6\pdl\middleware\ble/cy_ble_gap.c ****         {
 103              		.loc 1 1307 0 is_stmt 0 discriminator 1
 104 0044 002D     		cmp	r5, #0
 105 0046 EDD0     		beq	.L7
 106              	.L5:
1325:Generated_Source\PSoC6\pdl\middleware\ble/cy_ble_gap.c ****                 }
1326:Generated_Source\PSoC6\pdl\middleware\ble/cy_ble_gap.c ****             }
1327:Generated_Source\PSoC6\pdl\middleware\ble/cy_ble_gap.c ****             else
1328:Generated_Source\PSoC6\pdl\middleware\ble/cy_ble_gap.c ****             {
1329:Generated_Source\PSoC6\pdl\middleware\ble/cy_ble_gap.c ****                 /* The end of advertisement data structure was encountered though exit the loop. */
1330:Generated_Source\PSoC6\pdl\middleware\ble/cy_ble_gap.c ****                 break;
1331:Generated_Source\PSoC6\pdl\middleware\ble/cy_ble_gap.c ****             }
1332:Generated_Source\PSoC6\pdl\middleware\ble/cy_ble_gap.c ****         }
1333:Generated_Source\PSoC6\pdl\middleware\ble/cy_ble_gap.c **** 
1334:Generated_Source\PSoC6\pdl\middleware\ble/cy_ble_gap.c ****         if(fFlag != 0u)
 107              		.loc 1 1334 0 is_stmt 1
 108 0048 002D     		cmp	r5, #0
 109 004a 15D0     		beq	.L1
1335:Generated_Source\PSoC6\pdl\middleware\ble/cy_ble_gap.c ****         {
1336:Generated_Source\PSoC6\pdl\middleware\ble/cy_ble_gap.c ****             /* Reuse "adLength" to hold location of the last character of local name in
1337:Generated_Source\PSoC6\pdl\middleware\ble/cy_ble_gap.c ****              * AD structure. */
1338:Generated_Source\PSoC6\pdl\middleware\ble/cy_ble_gap.c ****             adLength += byteCounter;
 110              		.loc 1 1338 0
 111 004c C918     		adds	r1, r1, r3
 112              	.LVL15:
 113 004e C9B2     		uxtb	r1, r1
 114              	.LVL16:
1339:Generated_Source\PSoC6\pdl\middleware\ble/cy_ble_gap.c **** 
1340:Generated_Source\PSoC6\pdl\middleware\ble/cy_ble_gap.c ****             /* Increment byte counter to point to start of the local Name string */
1341:Generated_Source\PSoC6\pdl\middleware\ble/cy_ble_gap.c ****             byteCounter++;
 115              		.loc 1 1341 0
 116 0050 0133     		adds	r3, r3, #1
 117              	.LVL17:
 118 0052 DBB2     		uxtb	r3, r3
 119              	.LVL18:
1342:Generated_Source\PSoC6\pdl\middleware\ble/cy_ble_gap.c **** 
1343:Generated_Source\PSoC6\pdl\middleware\ble/cy_ble_gap.c ****             for(i = byteCounter; ((i < (adLength)) && (name[i - byteCounter] != CY_BLE_NULL_CHARCTE
 120              		.loc 1 1343 0
 121 0054 1A00     		movs	r2, r3
 122 0056 01E0     		b	.L9
 123              	.LVL19:
 124              	.L11:
1344:Generated_Source\PSoC6\pdl\middleware\ble/cy_ble_gap.c ****             {
1345:Generated_Source\PSoC6\pdl\middleware\ble/cy_ble_gap.c ****                 destBuffer[i] = (uint8_t)name[i - byteCounter];
 125              		.loc 1 1345 0 discriminator 4
 126 0058 A554     		strb	r5, [r4, r2]
1343:Generated_Source\PSoC6\pdl\middleware\ble/cy_ble_gap.c ****             {
 127              		.loc 1 1343 0 discriminator 4
ARM GAS  C:\Users\salaz\AppData\Local\Temp\ccu2LhKM.s 			page 27


 128 005a 0132     		adds	r2, r2, #1
 129              	.LVL20:
 130              	.L9:
1343:Generated_Source\PSoC6\pdl\middleware\ble/cy_ble_gap.c ****             {
 131              		.loc 1 1343 0 is_stmt 0 discriminator 1
 132 005c 0E00     		movs	r6, r1
 133 005e 8A42     		cmp	r2, r1
 134 0060 08D2     		bcs	.L10
1343:Generated_Source\PSoC6\pdl\middleware\ble/cy_ble_gap.c ****             {
 135              		.loc 1 1343 0 discriminator 3
 136 0062 D51A     		subs	r5, r2, r3
 137 0064 455D     		ldrb	r5, [r0, r5]
 138 0066 002D     		cmp	r5, #0
 139 0068 F6D1     		bne	.L11
 140 006a 03E0     		b	.L10
 141              	.LVL21:
 142              	.L12:
1346:Generated_Source\PSoC6\pdl\middleware\ble/cy_ble_gap.c ****             }
1347:Generated_Source\PSoC6\pdl\middleware\ble/cy_ble_gap.c **** 
1348:Generated_Source\PSoC6\pdl\middleware\ble/cy_ble_gap.c ****             /* This loop handles the case when new local name is shorter than old one.
1349:Generated_Source\PSoC6\pdl\middleware\ble/cy_ble_gap.c ****              * In this case all remaining characters should be null characters. */
1350:Generated_Source\PSoC6\pdl\middleware\ble/cy_ble_gap.c ****             while(adLength > i)
1351:Generated_Source\PSoC6\pdl\middleware\ble/cy_ble_gap.c ****             {
1352:Generated_Source\PSoC6\pdl\middleware\ble/cy_ble_gap.c ****                 /* Terminate string */
1353:Generated_Source\PSoC6\pdl\middleware\ble/cy_ble_gap.c ****                 destBuffer[i] = (uint8_t)CY_BLE_NULL_CHARCTER;
 143              		.loc 1 1353 0 is_stmt 1
 144 006c A318     		adds	r3, r4, r2
 145 006e 0021     		movs	r1, #0
 146 0070 1970     		strb	r1, [r3]
1354:Generated_Source\PSoC6\pdl\middleware\ble/cy_ble_gap.c ****                 i++;
 147              		.loc 1 1354 0
 148 0072 0132     		adds	r2, r2, #1
 149              	.LVL22:
 150              	.L10:
1350:Generated_Source\PSoC6\pdl\middleware\ble/cy_ble_gap.c ****             {
 151              		.loc 1 1350 0
 152 0074 B242     		cmp	r2, r6
 153 0076 F9D3     		bcc	.L12
 154              	.LVL23:
 155              	.L1:
1355:Generated_Source\PSoC6\pdl\middleware\ble/cy_ble_gap.c ****             }
1356:Generated_Source\PSoC6\pdl\middleware\ble/cy_ble_gap.c ****         }
1357:Generated_Source\PSoC6\pdl\middleware\ble/cy_ble_gap.c ****         advIndex++;
1358:Generated_Source\PSoC6\pdl\middleware\ble/cy_ble_gap.c ****     }
1359:Generated_Source\PSoC6\pdl\middleware\ble/cy_ble_gap.c ****     while(advIndex < CY_BLE_GAPP_CONF_COUNT);
1360:Generated_Source\PSoC6\pdl\middleware\ble/cy_ble_gap.c **** }
 156              		.loc 1 1360 0
 157              		@ sp needed
 158              	.LVL24:
 159 0078 70BD     		pop	{r4, r5, r6, pc}
 160              	.L15:
 161 007a C046     		.align	2
 162              	.L14:
 163 007c 00000000 		.word	cy_ble_configPtr
 164              		.cfi_endproc
 165              	.LFE165:
 166              		.size	Cy_BLE_ChangeAdLocalName, .-Cy_BLE_ChangeAdLocalName
ARM GAS  C:\Users\salaz\AppData\Local\Temp\ccu2LhKM.s 			page 28


 167              		.section	.text.Cy_BLE_ServiceInit,"ax",%progbits
 168              		.align	2
 169              		.global	Cy_BLE_ServiceInit
 170              		.code	16
 171              		.thumb_func
 172              		.type	Cy_BLE_ServiceInit, %function
 173              	Cy_BLE_ServiceInit:
 174              	.LFB158:
 114:Generated_Source\PSoC6\pdl\middleware\ble/cy_ble_gap.c ****     #if (CY_BLE_GATT_ROLE_CLIENT)
 175              		.loc 1 114 0
 176              		.cfi_startproc
 177              		@ args = 0, pretend = 0, frame = 0
 178              		@ frame_needed = 0, uses_anonymous_args = 0
 179 0000 10B5     		push	{r4, lr}
 180              		.cfi_def_cfa_offset 8
 181              		.cfi_offset 4, -8
 182              		.cfi_offset 14, -4
 192:Generated_Source\PSoC6\pdl\middleware\ble/cy_ble_gap.c ****     #endif /* CY_BLE_CUSTOM */
 183              		.loc 1 192 0
 184 0002 0248     		ldr	r0, .L17
 185 0004 FFF7FEFF 		bl	Cy_BLE_CUSTOM_Init
 186              	.LVL25:
 278:Generated_Source\PSoC6\pdl\middleware\ble/cy_ble_gap.c **** 
 187              		.loc 1 278 0
 188              		@ sp needed
 189 0008 10BD     		pop	{r4, pc}
 190              	.L18:
 191 000a C046     		.align	2
 192              	.L17:
 193 000c 00000000 		.word	cy_ble_customConfig
 194              		.cfi_endproc
 195              	.LFE158:
 196              		.size	Cy_BLE_ServiceInit, .-Cy_BLE_ServiceInit
 197              		.section	.text.Cy_BLE_StoreAppData,"ax",%progbits
 198              		.align	2
 199              		.global	Cy_BLE_StoreAppData
 200              		.code	16
 201              		.thumb_func
 202              		.type	Cy_BLE_StoreAppData, %function
 203              	Cy_BLE_StoreAppData:
 204              	.LFB159:
 338:Generated_Source\PSoC6\pdl\middleware\ble/cy_ble_gap.c ****     static cy_en_ble_api_result_t storeState = CY_BLE_SUCCESS;
 205              		.loc 1 338 0
 206              		.cfi_startproc
 207              		@ args = 0, pretend = 0, frame = 0
 208              		@ frame_needed = 0, uses_anonymous_args = 0
 209              	.LVL26:
 210 0000 F0B5     		push	{r4, r5, r6, r7, lr}
 211              		.cfi_def_cfa_offset 20
 212              		.cfi_offset 4, -20
 213              		.cfi_offset 5, -16
 214              		.cfi_offset 6, -12
 215              		.cfi_offset 7, -8
 216              		.cfi_offset 14, -4
 217 0002 4746     		mov	r7, r8
 218 0004 80B4     		push	{r7}
 219              		.cfi_def_cfa_offset 24
ARM GAS  C:\Users\salaz\AppData\Local\Temp\ccu2LhKM.s 			page 29


 220              		.cfi_offset 8, -24
 221 0006 071E     		subs	r7, r0, #0
 343:Generated_Source\PSoC6\pdl\middleware\ble/cy_ble_gap.c ****     {
 222              		.loc 1 343 0
 223 0008 02D0     		beq	.L20
 343:Generated_Source\PSoC6\pdl\middleware\ble/cy_ble_gap.c ****     {
 224              		.loc 1 343 0 is_stmt 0 discriminator 1
 225 000a C368     		ldr	r3, [r0, #12]
 226 000c 012B     		cmp	r3, #1
 227 000e 03D9     		bls	.L21
 228              	.L20:
 345:Generated_Source\PSoC6\pdl\middleware\ble/cy_ble_gap.c ****     }
 229              		.loc 1 345 0 is_stmt 1
 230 0010 364A     		ldr	r2, .L36
 231 0012 374B     		ldr	r3, .L36+4
 232 0014 1A60     		str	r2, [r3]
 233 0016 63E0     		b	.L22
 234              	.L21:
 235              	.LBB22:
 349:Generated_Source\PSoC6\pdl\middleware\ble/cy_ble_gap.c ****         uint32_t tOffset   = (uint32) param->destAddr - CY_FLASH_BASE;  /* Get offset */
 236              		.loc 1 349 0
 237 0018 0668     		ldr	r6, [r0]
 238              	.LVL27:
 350:Generated_Source\PSoC6\pdl\middleware\ble/cy_ble_gap.c ****         uint32_t blockSize;      
 239              		.loc 1 350 0
 240 001a 4368     		ldr	r3, [r0, #4]
 241 001c F022     		movs	r2, #240
 242 001e 1206     		lsls	r2, r2, #24
 243 0020 9446     		mov	ip, r2
 244 0022 6344     		add	r3, r3, ip
 245 0024 1D00     		movs	r5, r3
 246              	.LVL28:
 354:Generated_Source\PSoC6\pdl\middleware\ble/cy_ble_gap.c ****         {           
 247              		.loc 1 354 0
 248 0026 324B     		ldr	r3, .L36+4
 249              	.LVL29:
 250 0028 1B68     		ldr	r3, [r3]
 251 002a 324A     		ldr	r2, .L36+8
 252 002c 9342     		cmp	r3, r2
 253 002e 0FD0     		beq	.L24
 254 0030 02D8     		bhi	.L25
 255 0032 002B     		cmp	r3, #0
 256 0034 16D1     		bne	.L33
 257 0036 05E0     		b	.L26
 258              	.L25:
 259 0038 2C4A     		ldr	r2, .L36
 260 003a 9342     		cmp	r3, r2
 261 003c 02D0     		beq	.L26
 262 003e 2E4A     		ldr	r2, .L36+12
 263 0040 9342     		cmp	r3, r2
 264 0042 0FD1     		bne	.L33
 265              	.L26:
 359:Generated_Source\PSoC6\pdl\middleware\ble/cy_ble_gap.c ****                 break;
 266              		.loc 1 359 0
 267 0044 2A4B     		ldr	r3, .L36+4
 268 0046 BA68     		ldr	r2, [r7, #8]
 269 0048 5A60     		str	r2, [r3, #4]
ARM GAS  C:\Users\salaz\AppData\Local\Temp\ccu2LhKM.s 			page 30


 352:Generated_Source\PSoC6\pdl\middleware\ble/cy_ble_gap.c ****         
 270              		.loc 1 352 0
 271 004a 0023     		movs	r3, #0
 272 004c 9846     		mov	r8, r3
 360:Generated_Source\PSoC6\pdl\middleware\ble/cy_ble_gap.c ****                 
 273              		.loc 1 360 0
 274 004e 40E0     		b	.L28
 275              	.L24:
 363:Generated_Source\PSoC6\pdl\middleware\ble/cy_ble_gap.c ****                 {
 276              		.loc 1 363 0
 277 0050 274B     		ldr	r3, .L36+4
 278 0052 5B68     		ldr	r3, [r3, #4]
 279 0054 002B     		cmp	r3, #0
 280 0056 08D1     		bne	.L27
 365:Generated_Source\PSoC6\pdl\middleware\ble/cy_ble_gap.c ****                     exitFlag = true;
 281              		.loc 1 365 0
 282 0058 0022     		movs	r2, #0
 283 005a 254B     		ldr	r3, .L36+4
 284 005c 1A60     		str	r2, [r3]
 285              	.LVL30:
 366:Generated_Source\PSoC6\pdl\middleware\ble/cy_ble_gap.c ****                 }
 286              		.loc 1 366 0
 287 005e 0123     		movs	r3, #1
 288 0060 9846     		mov	r8, r3
 289 0062 36E0     		b	.L28
 290              	.LVL31:
 291              	.L33:
 352:Generated_Source\PSoC6\pdl\middleware\ble/cy_ble_gap.c ****         
 292              		.loc 1 352 0
 293 0064 0023     		movs	r3, #0
 294 0066 9846     		mov	r8, r3
 295 0068 33E0     		b	.L28
 296              	.L27:
 371:Generated_Source\PSoC6\pdl\middleware\ble/cy_ble_gap.c ****                     tOffset += param->buffLen - tLength;
 297              		.loc 1 371 0
 298 006a 8268     		ldr	r2, [r0, #8]
 299 006c D31A     		subs	r3, r2, r3
 300 006e F618     		adds	r6, r6, r3
 301              	.LVL32:
 372:Generated_Source\PSoC6\pdl\middleware\ble/cy_ble_gap.c ****                 }
 302              		.loc 1 372 0
 303 0070 ED18     		adds	r5, r5, r3
 304              	.LVL33:
 352:Generated_Source\PSoC6\pdl\middleware\ble/cy_ble_gap.c ****         
 305              		.loc 1 352 0
 306 0072 0023     		movs	r3, #0
 307 0074 9846     		mov	r8, r3
 308 0076 2CE0     		b	.L28
 309              	.LVL34:
 310              	.L32:
 383:Generated_Source\PSoC6\pdl\middleware\ble/cy_ble_gap.c ****             blockSize = CY_FLASH_SIZEOF_ROW - (tOffset - blockSize);    /* Calculate final length o
 311              		.loc 1 383 0
 312 0078 6B0A     		lsrs	r3, r5, #9
 313 007a 5B02     		lsls	r3, r3, #9
 314              	.LVL35:
 384:Generated_Source\PSoC6\pdl\middleware\ble/cy_ble_gap.c ****                                                                            we can write to row */
 315              		.loc 1 384 0
ARM GAS  C:\Users\salaz\AppData\Local\Temp\ccu2LhKM.s 			page 31


 316 007c 5B1B     		subs	r3, r3, r5
 317              	.LVL36:
 318 007e 8022     		movs	r2, #128
 319 0080 9200     		lsls	r2, r2, #2
 320 0082 9446     		mov	ip, r2
 321 0084 6344     		add	r3, r3, ip
 322              	.LVL37:
 386:Generated_Source\PSoC6\pdl\middleware\ble/cy_ble_gap.c **** 
 323              		.loc 1 386 0
 324 0086 9C42     		cmp	r4, r3
 325 0088 00D9     		bls	.L29
 326 008a 1C00     		movs	r4, r3
 327              	.L29:
 328              	.LVL38:
 389:Generated_Source\PSoC6\pdl\middleware\ble/cy_ble_gap.c ****                                                blockSize, CY_BLE_FLASH_NON_BLOCKING_MODE);
 329              		.loc 1 389 0
 330 008c 0023     		movs	r3, #0
 331 008e 2200     		movs	r2, r4
 332 0090 8021     		movs	r1, #128
 333 0092 4905     		lsls	r1, r1, #21
 334 0094 6918     		adds	r1, r5, r1
 335 0096 3000     		movs	r0, r6
 336 0098 FFF7FEFF 		bl	Cy_BLE_HAL_NvramWrite
 337              	.LVL39:
 338 009c 144B     		ldr	r3, .L36+4
 339 009e 1860     		str	r0, [r3]
 392:Generated_Source\PSoC6\pdl\middleware\ble/cy_ble_gap.c ****             {
 340              		.loc 1 392 0
 341 00a0 8303     		lsls	r3, r0, #14
 342 00a2 01D5     		bpl	.L30
 394:Generated_Source\PSoC6\pdl\middleware\ble/cy_ble_gap.c ****             }
 343              		.loc 1 394 0
 344 00a4 0123     		movs	r3, #1
 345 00a6 9846     		mov	r8, r3
 346              	.LVL40:
 347              	.L30:
 397:Generated_Source\PSoC6\pdl\middleware\ble/cy_ble_gap.c ****             tOffset += blockSize;
 348              		.loc 1 397 0
 349 00a8 3619     		adds	r6, r6, r4
 350              	.LVL41:
 398:Generated_Source\PSoC6\pdl\middleware\ble/cy_ble_gap.c ****             tLength -= blockSize;
 351              		.loc 1 398 0
 352 00aa 2D19     		adds	r5, r5, r4
 353              	.LVL42:
 399:Generated_Source\PSoC6\pdl\middleware\ble/cy_ble_gap.c ****             
 354              		.loc 1 399 0
 355 00ac 104B     		ldr	r3, .L36+4
 356 00ae 5A68     		ldr	r2, [r3, #4]
 357 00b0 141B     		subs	r4, r2, r4
 358              	.LVL43:
 359 00b2 5C60     		str	r4, [r3, #4]
 402:Generated_Source\PSoC6\pdl\middleware\ble/cy_ble_gap.c ****             {
 360              		.loc 1 402 0
 361 00b4 FB68     		ldr	r3, [r7, #12]
 362 00b6 012B     		cmp	r3, #1
 363 00b8 09D1     		bne	.L31
 404:Generated_Source\PSoC6\pdl\middleware\ble/cy_ble_gap.c ****                 {
ARM GAS  C:\Users\salaz\AppData\Local\Temp\ccu2LhKM.s 			page 32


 364              		.loc 1 404 0
 365 00ba 0028     		cmp	r0, #0
 366 00bc 05D1     		bne	.L35
 406:Generated_Source\PSoC6\pdl\middleware\ble/cy_ble_gap.c ****                 } 
 367              		.loc 1 406 0
 368 00be 0D4A     		ldr	r2, .L36+8
 369 00c0 0B4B     		ldr	r3, .L36+4
 370 00c2 1A60     		str	r2, [r3]
 408:Generated_Source\PSoC6\pdl\middleware\ble/cy_ble_gap.c ****             }
 371              		.loc 1 408 0
 372 00c4 0123     		movs	r3, #1
 373 00c6 9846     		mov	r8, r3
 374              	.LVL44:
 375 00c8 01E0     		b	.L31
 376              	.LVL45:
 377              	.L35:
 378 00ca 0123     		movs	r3, #1
 379 00cc 9846     		mov	r8, r3
 380              	.LVL46:
 381              	.L31:
 412:Generated_Source\PSoC6\pdl\middleware\ble/cy_ble_gap.c ****         }
 382              		.loc 1 412 0
 383 00ce FFF7FEFF 		bl	Cy_BLE_ProcessEvents
 384              	.LVL47:
 385              	.L28:
 380:Generated_Source\PSoC6\pdl\middleware\ble/cy_ble_gap.c ****         {
 386              		.loc 1 380 0
 387 00d2 074B     		ldr	r3, .L36+4
 388 00d4 5C68     		ldr	r4, [r3, #4]
 389 00d6 002C     		cmp	r4, #0
 390 00d8 02D0     		beq	.L22
 380:Generated_Source\PSoC6\pdl\middleware\ble/cy_ble_gap.c ****         {
 391              		.loc 1 380 0 is_stmt 0 discriminator 1
 392 00da 4346     		mov	r3, r8
 393 00dc 002B     		cmp	r3, #0
 394 00de CBD0     		beq	.L32
 395              	.LVL48:
 396              	.L22:
 397              	.LBE22:
 415:Generated_Source\PSoC6\pdl\middleware\ble/cy_ble_gap.c **** }
 398              		.loc 1 415 0 is_stmt 1
 399 00e0 034B     		ldr	r3, .L36+4
 400 00e2 1868     		ldr	r0, [r3]
 416:Generated_Source\PSoC6\pdl\middleware\ble/cy_ble_gap.c **** 
 401              		.loc 1 416 0
 402              		@ sp needed
 403              	.LVL49:
 404 00e4 04BC     		pop	{r2}
 405 00e6 9046     		mov	r8, r2
 406 00e8 F0BD     		pop	{r4, r5, r6, r7, pc}
 407              	.L37:
 408 00ea C046     		.align	2
 409              	.L36:
 410 00ec 01001600 		.word	1441793
 411 00f0 00000000 		.word	.LANCHOR0
 412 00f4 01001400 		.word	1310721
 413 00f8 13001600 		.word	1441811
ARM GAS  C:\Users\salaz\AppData\Local\Temp\ccu2LhKM.s 			page 33


 414              		.cfi_endproc
 415              	.LFE159:
 416              		.size	Cy_BLE_StoreAppData, .-Cy_BLE_StoreAppData
 417              		.section	.text.Cy_BLE_StoreBondingData,"ax",%progbits
 418              		.align	2
 419              		.global	Cy_BLE_StoreBondingData
 420              		.code	16
 421              		.thumb_func
 422              		.type	Cy_BLE_StoreBondingData, %function
 423              	Cy_BLE_StoreBondingData:
 424              	.LFB160:
 458:Generated_Source\PSoC6\pdl\middleware\ble/cy_ble_gap.c ****     cy_en_ble_api_result_t apiResult = CY_BLE_SUCCESS;
 425              		.loc 1 458 0
 426              		.cfi_startproc
 427              		@ args = 0, pretend = 0, frame = 176
 428              		@ frame_needed = 0, uses_anonymous_args = 0
 429 0000 F0B5     		push	{r4, r5, r6, r7, lr}
 430              		.cfi_def_cfa_offset 20
 431              		.cfi_offset 4, -20
 432              		.cfi_offset 5, -16
 433              		.cfi_offset 6, -12
 434              		.cfi_offset 7, -8
 435              		.cfi_offset 14, -4
 436 0002 ADB0     		sub	sp, sp, #180
 437              		.cfi_def_cfa_offset 200
 438              	.LVL50:
 462:Generated_Source\PSoC6\pdl\middleware\ble/cy_ble_gap.c ****     {
 439              		.loc 1 462 0
 440 0004 5C4B     		ldr	r3, .L56
 441 0006 1B78     		ldrb	r3, [r3]
 442 0008 DB07     		lsls	r3, r3, #31
 443 000a 0FD5     		bpl	.L53
 444              	.LBB23:
 464:Generated_Source\PSoC6\pdl\middleware\ble/cy_ble_gap.c ****         {
 445              		.loc 1 464 0
 446 000c 05A8     		add	r0, sp, #20
 447 000e 0723     		movs	r3, #7
 448 0010 0370     		strb	r3, [r0]
 471:Generated_Source\PSoC6\pdl\middleware\ble/cy_ble_gap.c ****         if(apiResult == CY_BLE_SUCCESS)
 449              		.loc 1 471 0
 450 0012 FFF7FEFF 		bl	Cy_BLE_StoreStackData
 451              	.LVL51:
 452 0016 041E     		subs	r4, r0, #0
 453              	.LVL52:
 472:Generated_Source\PSoC6\pdl\middleware\ble/cy_ble_gap.c ****         {
 454              		.loc 1 472 0
 455 0018 09D1     		bne	.L39
 474:Generated_Source\PSoC6\pdl\middleware\ble/cy_ble_gap.c ****             
 456              		.loc 1 474 0
 457 001a 574A     		ldr	r2, .L56
 458 001c 1378     		ldrb	r3, [r2]
 459 001e 0121     		movs	r1, #1
 460 0020 8B43     		bics	r3, r1
 461 0022 1370     		strb	r3, [r2]
 477:Generated_Source\PSoC6\pdl\middleware\ble/cy_ble_gap.c ****             {
 462              		.loc 1 477 0
 463 0024 9B07     		lsls	r3, r3, #30
ARM GAS  C:\Users\salaz\AppData\Local\Temp\ccu2LhKM.s 			page 34


 464 0026 02D5     		bpl	.L39
 479:Generated_Source\PSoC6\pdl\middleware\ble/cy_ble_gap.c ****             }
 465              		.loc 1 479 0
 466 0028 544C     		ldr	r4, .L56+4
 467              	.LVL53:
 468 002a 00E0     		b	.L39
 469              	.LVL54:
 470              	.L53:
 471              	.LBE23:
 459:Generated_Source\PSoC6\pdl\middleware\ble/cy_ble_gap.c **** 
 472              		.loc 1 459 0
 473 002c 0024     		movs	r4, #0
 474              	.LVL55:
 475              	.L39:
 486:Generated_Source\PSoC6\pdl\middleware\ble/cy_ble_gap.c ****        ((cy_ble_pendingFlashWrite & CY_BLE_PENDING_CCCD_FLASH_WRITE_BIT) != 0u))
 476              		.loc 1 486 0
 477 002e 002C     		cmp	r4, #0
 478 0030 4CD1     		bne	.L41
 487:Generated_Source\PSoC6\pdl\middleware\ble/cy_ble_gap.c ****     {
 479              		.loc 1 487 0 discriminator 1
 480 0032 514B     		ldr	r3, .L56
 481 0034 1B78     		ldrb	r3, [r3]
 486:Generated_Source\PSoC6\pdl\middleware\ble/cy_ble_gap.c ****        ((cy_ble_pendingFlashWrite & CY_BLE_PENDING_CCCD_FLASH_WRITE_BIT) != 0u))
 482              		.loc 1 486 0 discriminator 1
 483 0036 9B07     		lsls	r3, r3, #30
 484 0038 48D5     		bpl	.L41
 485              	.LBB24:
 490:Generated_Source\PSoC6\pdl\middleware\ble/cy_ble_gap.c ****         {
 486              		.loc 1 490 0
 487 003a 1022     		movs	r2, #16
 488 003c 0021     		movs	r1, #0
 489 003e 05A8     		add	r0, sp, #20
 490 0040 FFF7FEFF 		bl	memset
 491              	.LVL56:
 492 0044 0923     		movs	r3, #9
 493 0046 0793     		str	r3, [sp, #28]
 494              	.LVL57:
 496:Generated_Source\PSoC6\pdl\middleware\ble/cy_ble_gap.c ****         {
 495              		.loc 1 496 0
 496 0048 0025     		movs	r5, #0
 497 004a 36E0     		b	.L42
 498              	.LVL58:
 499              	.L46:
 500 004c 6B00     		lsls	r3, r5, #1
 501 004e 4C49     		ldr	r1, .L56+8
 502 0050 C918     		adds	r1, r1, r3
 503 0052 0222     		movs	r2, #2
 504 0054 6846     		mov	r0, sp
 505 0056 FFF7FEFF 		bl	memcpy
 506              	.LVL59:
 507              	.LBB25:
 508              	.LBB26:
 509              		.file 2 "Generated_Source\\PSoC6\\pdl\\middleware\\ble\\cy_ble_gap.h"
   1:Generated_Source\PSoC6\pdl\middleware\ble/cy_ble_gap.h **** /***************************************************************************//**
   2:Generated_Source\PSoC6\pdl\middleware\ble/cy_ble_gap.h **** * \file cy_ble_gap.h
   3:Generated_Source\PSoC6\pdl\middleware\ble/cy_ble_gap.h **** * \version 2.20
   4:Generated_Source\PSoC6\pdl\middleware\ble/cy_ble_gap.h **** *
ARM GAS  C:\Users\salaz\AppData\Local\Temp\ccu2LhKM.s 			page 35


   5:Generated_Source\PSoC6\pdl\middleware\ble/cy_ble_gap.h **** * \brief
   6:Generated_Source\PSoC6\pdl\middleware\ble/cy_ble_gap.h **** *  Contains the prototypes and constants used in the BLE GAP profile.
   7:Generated_Source\PSoC6\pdl\middleware\ble/cy_ble_gap.h **** *
   8:Generated_Source\PSoC6\pdl\middleware\ble/cy_ble_gap.h **** ********************************************************************************
   9:Generated_Source\PSoC6\pdl\middleware\ble/cy_ble_gap.h **** * \copyright
  10:Generated_Source\PSoC6\pdl\middleware\ble/cy_ble_gap.h **** * Copyright 2017-2018, Cypress Semiconductor Corporation.  All rights reserved.
  11:Generated_Source\PSoC6\pdl\middleware\ble/cy_ble_gap.h **** * You may use this file only in accordance with the license, terms, conditions,
  12:Generated_Source\PSoC6\pdl\middleware\ble/cy_ble_gap.h **** * disclaimers, and limitations in the end user license agreement accompanying
  13:Generated_Source\PSoC6\pdl\middleware\ble/cy_ble_gap.h **** * the software package with which this file was provided.
  14:Generated_Source\PSoC6\pdl\middleware\ble/cy_ble_gap.h **** *******************************************************************************/
  15:Generated_Source\PSoC6\pdl\middleware\ble/cy_ble_gap.h **** 
  16:Generated_Source\PSoC6\pdl\middleware\ble/cy_ble_gap.h **** 
  17:Generated_Source\PSoC6\pdl\middleware\ble/cy_ble_gap.h **** #ifndef CY_BLE_GAP_H
  18:Generated_Source\PSoC6\pdl\middleware\ble/cy_ble_gap.h **** #define CY_BLE_GAP_H
  19:Generated_Source\PSoC6\pdl\middleware\ble/cy_ble_gap.h ****     
  20:Generated_Source\PSoC6\pdl\middleware\ble/cy_ble_gap.h **** #include "cy_ble_config.h"
  21:Generated_Source\PSoC6\pdl\middleware\ble/cy_ble_gap.h **** 
  22:Generated_Source\PSoC6\pdl\middleware\ble/cy_ble_gap.h **** /***************************************
  23:Generated_Source\PSoC6\pdl\middleware\ble/cy_ble_gap.h **** * BLE Stack includes
  24:Generated_Source\PSoC6\pdl\middleware\ble/cy_ble_gap.h **** ***************************************/
  25:Generated_Source\PSoC6\pdl\middleware\ble/cy_ble_gap.h **** #include "cy_ble_stack_gatt.h"    
  26:Generated_Source\PSoC6\pdl\middleware\ble/cy_ble_gap.h **** #include "cy_ble_stack_gap.h"
  27:Generated_Source\PSoC6\pdl\middleware\ble/cy_ble_gap.h **** #include "cy_ble_stack_gap_central.h"
  28:Generated_Source\PSoC6\pdl\middleware\ble/cy_ble_gap.h **** #include "cy_ble_stack_gap_peripheral.h"
  29:Generated_Source\PSoC6\pdl\middleware\ble/cy_ble_gap.h **** 
  30:Generated_Source\PSoC6\pdl\middleware\ble/cy_ble_gap.h **** /* C binding of definitions if building with C++ compiler */
  31:Generated_Source\PSoC6\pdl\middleware\ble/cy_ble_gap.h **** #ifdef __cplusplus
  32:Generated_Source\PSoC6\pdl\middleware\ble/cy_ble_gap.h **** extern "C" {
  33:Generated_Source\PSoC6\pdl\middleware\ble/cy_ble_gap.h **** #endif /* __cplusplus */
  34:Generated_Source\PSoC6\pdl\middleware\ble/cy_ble_gap.h **** 
  35:Generated_Source\PSoC6\pdl\middleware\ble/cy_ble_gap.h **** /***************************************
  36:Generated_Source\PSoC6\pdl\middleware\ble/cy_ble_gap.h **** * Conditional Compilation Parameters
  37:Generated_Source\PSoC6\pdl\middleware\ble/cy_ble_gap.h **** ***************************************/
  38:Generated_Source\PSoC6\pdl\middleware\ble/cy_ble_gap.h **** /**
  39:Generated_Source\PSoC6\pdl\middleware\ble/cy_ble_gap.h ****  * The BLE operation mode.
  40:Generated_Source\PSoC6\pdl\middleware\ble/cy_ble_gap.h ****  */
  41:Generated_Source\PSoC6\pdl\middleware\ble/cy_ble_gap.h **** #define CY_BLE_MODE                          (CY_BLE_CONFIG_MODE)
  42:Generated_Source\PSoC6\pdl\middleware\ble/cy_ble_gap.h **** 
  43:Generated_Source\PSoC6\pdl\middleware\ble/cy_ble_gap.h **** /** 
  44:Generated_Source\PSoC6\pdl\middleware\ble/cy_ble_gap.h ****  * Maximum number of BLE connections
  45:Generated_Source\PSoC6\pdl\middleware\ble/cy_ble_gap.h ****  * This parameter displays how many BLE connections (both Central and 
  46:Generated_Source\PSoC6\pdl\middleware\ble/cy_ble_gap.h ****  * Peripheral) are allowed. Valid range is from 1 to 4.
  47:Generated_Source\PSoC6\pdl\middleware\ble/cy_ble_gap.h ****  */
  48:Generated_Source\PSoC6\pdl\middleware\ble/cy_ble_gap.h **** #define CY_BLE_CONN_COUNT                    (CY_BLE_CONFIG_CONN_COUNT)
  49:Generated_Source\PSoC6\pdl\middleware\ble/cy_ble_gap.h ****  
  50:Generated_Source\PSoC6\pdl\middleware\ble/cy_ble_gap.h **** /**
  51:Generated_Source\PSoC6\pdl\middleware\ble/cy_ble_gap.h ****  * The GAP Role 
  52:Generated_Source\PSoC6\pdl\middleware\ble/cy_ble_gap.h ****  * The following defined mask can be used:
  53:Generated_Source\PSoC6\pdl\middleware\ble/cy_ble_gap.h ****  * CY_BLE_GAP_PERIPHERAL  (0x01u) - device operates as peripheral.
  54:Generated_Source\PSoC6\pdl\middleware\ble/cy_ble_gap.h ****  * CY_BLE_GAP_CENTRAL     (0x02u) - device operates as central. 
  55:Generated_Source\PSoC6\pdl\middleware\ble/cy_ble_gap.h ****  * CY_BLE_GAP_BROADCASTER (0x04u) - device operates as broadcaster.
  56:Generated_Source\PSoC6\pdl\middleware\ble/cy_ble_gap.h ****  * CY_BLE_GAP_OBSERVER    (0x08u) - device operates as observer.
  57:Generated_Source\PSoC6\pdl\middleware\ble/cy_ble_gap.h ****  * CY_BLE_GAP_HCI         (0x00u) - used when BLE operates in HCI mode.
  58:Generated_Source\PSoC6\pdl\middleware\ble/cy_ble_gap.h ****  */ 
  59:Generated_Source\PSoC6\pdl\middleware\ble/cy_ble_gap.h **** #define CY_BLE_GAP_ROLE                       (CY_BLE_CONFIG_GAP_ROLE)
  60:Generated_Source\PSoC6\pdl\middleware\ble/cy_ble_gap.h **** 
  61:Generated_Source\PSoC6\pdl\middleware\ble/cy_ble_gap.h **** /** The number of GAP Peripheral configurations structures */
ARM GAS  C:\Users\salaz\AppData\Local\Temp\ccu2LhKM.s 			page 36


  62:Generated_Source\PSoC6\pdl\middleware\ble/cy_ble_gap.h **** #define CY_BLE_GAP_PERIPHERAL_COUNT           (CY_BLE_CONFIG_GAP_PERIPHERAL_COUNT)
  63:Generated_Source\PSoC6\pdl\middleware\ble/cy_ble_gap.h **** 
  64:Generated_Source\PSoC6\pdl\middleware\ble/cy_ble_gap.h **** /** The number of GAP Broadcaster configurations structures */
  65:Generated_Source\PSoC6\pdl\middleware\ble/cy_ble_gap.h **** #define CY_BLE_GAP_BROADCASTER_COUNT          (CY_BLE_CONFIG_GAP_BROADCASTER_COUNT)
  66:Generated_Source\PSoC6\pdl\middleware\ble/cy_ble_gap.h **** 
  67:Generated_Source\PSoC6\pdl\middleware\ble/cy_ble_gap.h **** /** The number of GAP Central configurations structures */
  68:Generated_Source\PSoC6\pdl\middleware\ble/cy_ble_gap.h **** #define CY_BLE_GAP_CENTRAL_COUNT              (CY_BLE_CONFIG_GAP_CENTRAL_COUNT)
  69:Generated_Source\PSoC6\pdl\middleware\ble/cy_ble_gap.h **** 
  70:Generated_Source\PSoC6\pdl\middleware\ble/cy_ble_gap.h **** /** The number of GAP Observer configurations structures */
  71:Generated_Source\PSoC6\pdl\middleware\ble/cy_ble_gap.h **** #define CY_BLE_GAP_OBSERVER_COUNT             (CY_BLE_CONFIG_GAP_OBSERVER_COUNT)
  72:Generated_Source\PSoC6\pdl\middleware\ble/cy_ble_gap.h **** 
  73:Generated_Source\PSoC6\pdl\middleware\ble/cy_ble_gap.h **** /** The number of Security configurations structures */
  74:Generated_Source\PSoC6\pdl\middleware\ble/cy_ble_gap.h **** #define CY_BLE_AUTH_INFO_COUNT                (CY_BLE_CONFIG_AUTH_INFO_COUNT)
  75:Generated_Source\PSoC6\pdl\middleware\ble/cy_ble_gap.h **** 
  76:Generated_Source\PSoC6\pdl\middleware\ble/cy_ble_gap.h **** /** The Bonding Requirement structures */
  77:Generated_Source\PSoC6\pdl\middleware\ble/cy_ble_gap.h **** #define CY_BLE_BONDING_REQUIREMENT            (CY_BLE_CONFIG_BONDING_REQUIREMENT)
  78:Generated_Source\PSoC6\pdl\middleware\ble/cy_ble_gap.h **** 
  79:Generated_Source\PSoC6\pdl\middleware\ble/cy_ble_gap.h **** /** The GAP Role defines */
  80:Generated_Source\PSoC6\pdl\middleware\ble/cy_ble_gap.h **** #define CY_BLE_GAP_ROLE_PERIPHERAL            (0u != (CY_BLE_GAP_ROLE & CY_BLE_GAP_PERIPHERAL))
  81:Generated_Source\PSoC6\pdl\middleware\ble/cy_ble_gap.h **** #define CY_BLE_GAP_ROLE_CENTRAL               (0u != (CY_BLE_GAP_ROLE & CY_BLE_GAP_CENTRAL))
  82:Generated_Source\PSoC6\pdl\middleware\ble/cy_ble_gap.h **** #define CY_BLE_GAP_ROLE_OBSERVER              (0u != (CY_BLE_GAP_ROLE & CY_BLE_GAP_OBSERVER))
  83:Generated_Source\PSoC6\pdl\middleware\ble/cy_ble_gap.h **** #define CY_BLE_GAP_ROLE_BROADCASTER           (0u != (CY_BLE_GAP_ROLE & CY_BLE_GAP_BROADCASTER))
  84:Generated_Source\PSoC6\pdl\middleware\ble/cy_ble_gap.h **** 
  85:Generated_Source\PSoC6\pdl\middleware\ble/cy_ble_gap.h **** #define CY_BLE_GAPP_CONF_COUNT                (CY_BLE_GAP_PERIPHERAL_COUNT + CY_BLE_GAP_BROADCASTER
  86:Generated_Source\PSoC6\pdl\middleware\ble/cy_ble_gap.h **** #define CY_BLE_GAPC_CONF_COUNT                (CY_BLE_GAP_CENTRAL_COUNT + CY_BLE_GAP_OBSERVER_COUNT
  87:Generated_Source\PSoC6\pdl\middleware\ble/cy_ble_gap.h **** 
  88:Generated_Source\PSoC6\pdl\middleware\ble/cy_ble_gap.h **** /***************************************
  89:Generated_Source\PSoC6\pdl\middleware\ble/cy_ble_gap.h **** * Type Definitions
  90:Generated_Source\PSoC6\pdl\middleware\ble/cy_ble_gap.h **** ***************************************/
  91:Generated_Source\PSoC6\pdl\middleware\ble/cy_ble_gap.h **** 
  92:Generated_Source\PSoC6\pdl\middleware\ble/cy_ble_gap.h **** #if (CY_BLE_MODE_PROFILE)
  93:Generated_Source\PSoC6\pdl\middleware\ble/cy_ble_gap.h **** 
  94:Generated_Source\PSoC6\pdl\middleware\ble/cy_ble_gap.h **** /***************************************
  95:Generated_Source\PSoC6\pdl\middleware\ble/cy_ble_gap.h **** * Enumerated Types and Structures
  96:Generated_Source\PSoC6\pdl\middleware\ble/cy_ble_gap.h **** ***************************************/
  97:Generated_Source\PSoC6\pdl\middleware\ble/cy_ble_gap.h **** 
  98:Generated_Source\PSoC6\pdl\middleware\ble/cy_ble_gap.h **** /**
  99:Generated_Source\PSoC6\pdl\middleware\ble/cy_ble_gap.h ****  * \addtogroup group_ble_common_api_gap_definitions
 100:Generated_Source\PSoC6\pdl\middleware\ble/cy_ble_gap.h ****  * @{
 101:Generated_Source\PSoC6\pdl\middleware\ble/cy_ble_gap.h ****  */
 102:Generated_Source\PSoC6\pdl\middleware\ble/cy_ble_gap.h **** 
 103:Generated_Source\PSoC6\pdl\middleware\ble/cy_ble_gap.h **** /** BLE state machine type */
 104:Generated_Source\PSoC6\pdl\middleware\ble/cy_ble_gap.h **** typedef enum
 105:Generated_Source\PSoC6\pdl\middleware\ble/cy_ble_gap.h **** {
 106:Generated_Source\PSoC6\pdl\middleware\ble/cy_ble_gap.h ****     CY_BLE_STATE_STOPPED,                             /**< BLE is turned off */
 107:Generated_Source\PSoC6\pdl\middleware\ble/cy_ble_gap.h ****     CY_BLE_STATE_INITIALIZING,                        /**< Initializing state */
 108:Generated_Source\PSoC6\pdl\middleware\ble/cy_ble_gap.h ****     CY_BLE_STATE_ON,                                  /**< BLE is turned on */
 109:Generated_Source\PSoC6\pdl\middleware\ble/cy_ble_gap.h **** #if (CY_BLE_GAP_ROLE_CENTRAL)
 110:Generated_Source\PSoC6\pdl\middleware\ble/cy_ble_gap.h ****     CY_BLE_STATE_CONNECTING,                          /**< Connecting */
 111:Generated_Source\PSoC6\pdl\middleware\ble/cy_ble_gap.h **** #endif /* CY_BLE_GAP_ROLE_CENTRAL */
 112:Generated_Source\PSoC6\pdl\middleware\ble/cy_ble_gap.h **** } cy_en_ble_state_t;
 113:Generated_Source\PSoC6\pdl\middleware\ble/cy_ble_gap.h **** 
 114:Generated_Source\PSoC6\pdl\middleware\ble/cy_ble_gap.h **** 
 115:Generated_Source\PSoC6\pdl\middleware\ble/cy_ble_gap.h **** /** Scanning state machine type */
 116:Generated_Source\PSoC6\pdl\middleware\ble/cy_ble_gap.h **** typedef enum
 117:Generated_Source\PSoC6\pdl\middleware\ble/cy_ble_gap.h **** {
 118:Generated_Source\PSoC6\pdl\middleware\ble/cy_ble_gap.h ****     CY_BLE_SCAN_STATE_STOPPED,                        /**< Scanning is stopped */
ARM GAS  C:\Users\salaz\AppData\Local\Temp\ccu2LhKM.s 			page 37


 119:Generated_Source\PSoC6\pdl\middleware\ble/cy_ble_gap.h ****     CY_BLE_SCAN_STATE_SCAN_INITIATED,                 /**< Scanning is initiated */
 120:Generated_Source\PSoC6\pdl\middleware\ble/cy_ble_gap.h ****     CY_BLE_SCAN_STATE_SCANNING,                       /**< Scanning process */
 121:Generated_Source\PSoC6\pdl\middleware\ble/cy_ble_gap.h ****     CY_BLE_SCAN_STATE_STOP_INITIATED                  /**< Stop scanning is initiated */
 122:Generated_Source\PSoC6\pdl\middleware\ble/cy_ble_gap.h **** } cy_en_ble_scan_state_t;
 123:Generated_Source\PSoC6\pdl\middleware\ble/cy_ble_gap.h **** 
 124:Generated_Source\PSoC6\pdl\middleware\ble/cy_ble_gap.h **** /** Advertising state machine type */
 125:Generated_Source\PSoC6\pdl\middleware\ble/cy_ble_gap.h **** typedef enum
 126:Generated_Source\PSoC6\pdl\middleware\ble/cy_ble_gap.h **** {
 127:Generated_Source\PSoC6\pdl\middleware\ble/cy_ble_gap.h ****     CY_BLE_ADV_STATE_STOPPED,                         /**< Advertising is stopped */
 128:Generated_Source\PSoC6\pdl\middleware\ble/cy_ble_gap.h ****     CY_BLE_ADV_STATE_ADV_INITIATED,                   /**< Advertising is initiated */
 129:Generated_Source\PSoC6\pdl\middleware\ble/cy_ble_gap.h ****     CY_BLE_ADV_STATE_ADVERTISING,                     /**< Advertising process */
 130:Generated_Source\PSoC6\pdl\middleware\ble/cy_ble_gap.h ****     CY_BLE_ADV_STATE_STOP_INITIATED                   /**< Stop advertising is initiated */
 131:Generated_Source\PSoC6\pdl\middleware\ble/cy_ble_gap.h **** } cy_en_ble_adv_state_t;
 132:Generated_Source\PSoC6\pdl\middleware\ble/cy_ble_gap.h **** 
 133:Generated_Source\PSoC6\pdl\middleware\ble/cy_ble_gap.h **** /** Connection state machine type */
 134:Generated_Source\PSoC6\pdl\middleware\ble/cy_ble_gap.h **** typedef enum
 135:Generated_Source\PSoC6\pdl\middleware\ble/cy_ble_gap.h **** {
 136:Generated_Source\PSoC6\pdl\middleware\ble/cy_ble_gap.h ****     CY_BLE_CONN_STATE_DISCONNECTED,                   /**< Essentially idle state */
 137:Generated_Source\PSoC6\pdl\middleware\ble/cy_ble_gap.h ****     CY_BLE_CONN_STATE_CLIENT_DISCONNECTED_DISCOVERED, /**< Server is disconnected but discovered */
 138:Generated_Source\PSoC6\pdl\middleware\ble/cy_ble_gap.h ****     CY_BLE_CONN_STATE_CONNECTED,                      /**< Peer device is connected for this and fo
 139:Generated_Source\PSoC6\pdl\middleware\ble/cy_ble_gap.h ****     CY_BLE_CONN_STATE_CLIENT_SRVC_DISCOVERING,        /**< Server services are being discovered */
 140:Generated_Source\PSoC6\pdl\middleware\ble/cy_ble_gap.h ****     CY_BLE_CONN_STATE_CLIENT_INCL_DISCOVERING,        /**< Server included services are being disco
 141:Generated_Source\PSoC6\pdl\middleware\ble/cy_ble_gap.h ****     CY_BLE_CONN_STATE_CLIENT_CHAR_DISCOVERING,        /**< Server characteristics are being discove
 142:Generated_Source\PSoC6\pdl\middleware\ble/cy_ble_gap.h ****     CY_BLE_CONN_STATE_CLIENT_DESCR_DISCOVERING,       /**< Server char. descriptors are being disco
 143:Generated_Source\PSoC6\pdl\middleware\ble/cy_ble_gap.h ****     CY_BLE_CONN_STATE_CLIENT_DISCOVERED               /**< Server is discovered */
 144:Generated_Source\PSoC6\pdl\middleware\ble/cy_ble_gap.h **** } cy_en_ble_conn_state_t;
 145:Generated_Source\PSoC6\pdl\middleware\ble/cy_ble_gap.h **** 
 146:Generated_Source\PSoC6\pdl\middleware\ble/cy_ble_gap.h **** /** Structure with Generic Access Profile Service (GAPS) attribute handles */
 147:Generated_Source\PSoC6\pdl\middleware\ble/cy_ble_gap.h **** typedef struct
 148:Generated_Source\PSoC6\pdl\middleware\ble/cy_ble_gap.h **** {
 149:Generated_Source\PSoC6\pdl\middleware\ble/cy_ble_gap.h ****     /** Service handle*/
 150:Generated_Source\PSoC6\pdl\middleware\ble/cy_ble_gap.h ****     cy_ble_gatt_db_attr_handle_t serviceHandle;
 151:Generated_Source\PSoC6\pdl\middleware\ble/cy_ble_gap.h **** 
 152:Generated_Source\PSoC6\pdl\middleware\ble/cy_ble_gap.h ****     /** Handle of the GAPS Device Name Characteristic */
 153:Generated_Source\PSoC6\pdl\middleware\ble/cy_ble_gap.h ****     cy_ble_gatt_db_attr_handle_t deviceNameCharHandle;
 154:Generated_Source\PSoC6\pdl\middleware\ble/cy_ble_gap.h **** 
 155:Generated_Source\PSoC6\pdl\middleware\ble/cy_ble_gap.h ****     /** Handle of the GAPS Appearance Characteristic */
 156:Generated_Source\PSoC6\pdl\middleware\ble/cy_ble_gap.h ****     cy_ble_gatt_db_attr_handle_t appearanceCharHandle;
 157:Generated_Source\PSoC6\pdl\middleware\ble/cy_ble_gap.h **** 
 158:Generated_Source\PSoC6\pdl\middleware\ble/cy_ble_gap.h ****     /** Handle of the GAPS Peripheral Preferred Connection Parameters Characteristic */
 159:Generated_Source\PSoC6\pdl\middleware\ble/cy_ble_gap.h ****     cy_ble_gatt_db_attr_handle_t prefConnParamCharHandle;
 160:Generated_Source\PSoC6\pdl\middleware\ble/cy_ble_gap.h **** 
 161:Generated_Source\PSoC6\pdl\middleware\ble/cy_ble_gap.h ****     /** Handle of the GAPS Central Address Resolution characteristic */
 162:Generated_Source\PSoC6\pdl\middleware\ble/cy_ble_gap.h ****     cy_ble_gatt_db_attr_handle_t centralAddrResolutionCharHandle;
 163:Generated_Source\PSoC6\pdl\middleware\ble/cy_ble_gap.h **** 
 164:Generated_Source\PSoC6\pdl\middleware\ble/cy_ble_gap.h ****     /** Handle of the GAPS Resolvable Private Address Only characteristic */
 165:Generated_Source\PSoC6\pdl\middleware\ble/cy_ble_gap.h ****     cy_ble_gatt_db_attr_handle_t resolvablePrivateAddressOnly;
 166:Generated_Source\PSoC6\pdl\middleware\ble/cy_ble_gap.h **** } cy_stc_ble_gaps_t;
 167:Generated_Source\PSoC6\pdl\middleware\ble/cy_ble_gap.h **** 
 168:Generated_Source\PSoC6\pdl\middleware\ble/cy_ble_gap.h **** /** GAP Service characteristics server's GATT DB handles structure type */
 169:Generated_Source\PSoC6\pdl\middleware\ble/cy_ble_gap.h **** typedef struct
 170:Generated_Source\PSoC6\pdl\middleware\ble/cy_ble_gap.h **** {
 171:Generated_Source\PSoC6\pdl\middleware\ble/cy_ble_gap.h ****     /** Handle of the GAPS Device Name Characteristic */
 172:Generated_Source\PSoC6\pdl\middleware\ble/cy_ble_gap.h ****     cy_ble_gatt_db_attr_handle_t deviceNameCharHandle;
 173:Generated_Source\PSoC6\pdl\middleware\ble/cy_ble_gap.h **** 
 174:Generated_Source\PSoC6\pdl\middleware\ble/cy_ble_gap.h ****     /** Handle of the GAPS Appearance Characteristic */
 175:Generated_Source\PSoC6\pdl\middleware\ble/cy_ble_gap.h ****     cy_ble_gatt_db_attr_handle_t appearanceCharHandle;
ARM GAS  C:\Users\salaz\AppData\Local\Temp\ccu2LhKM.s 			page 38


 176:Generated_Source\PSoC6\pdl\middleware\ble/cy_ble_gap.h **** 
 177:Generated_Source\PSoC6\pdl\middleware\ble/cy_ble_gap.h ****     /** Handle of the GAPS Peripheral Privacy Flag Parameters Characteristic */
 178:Generated_Source\PSoC6\pdl\middleware\ble/cy_ble_gap.h ****     cy_ble_gatt_db_attr_handle_t periphPrivacyCharHandle;
 179:Generated_Source\PSoC6\pdl\middleware\ble/cy_ble_gap.h **** 
 180:Generated_Source\PSoC6\pdl\middleware\ble/cy_ble_gap.h ****     /** Handle of the GAPS Reconnection Address Characteristic */
 181:Generated_Source\PSoC6\pdl\middleware\ble/cy_ble_gap.h ****     cy_ble_gatt_db_attr_handle_t reconnAddrCharHandle;
 182:Generated_Source\PSoC6\pdl\middleware\ble/cy_ble_gap.h **** 
 183:Generated_Source\PSoC6\pdl\middleware\ble/cy_ble_gap.h ****     /** Handle of the GAPS Peripheral Preferred Connection Parameters Characteristic */
 184:Generated_Source\PSoC6\pdl\middleware\ble/cy_ble_gap.h ****     cy_ble_gatt_db_attr_handle_t prefConnParamCharHandle;
 185:Generated_Source\PSoC6\pdl\middleware\ble/cy_ble_gap.h **** 
 186:Generated_Source\PSoC6\pdl\middleware\ble/cy_ble_gap.h ****     /** Handle of the GAPS Central Address Resolution characteristic */
 187:Generated_Source\PSoC6\pdl\middleware\ble/cy_ble_gap.h ****     cy_ble_gatt_db_attr_handle_t centralAddrResolutionCharHandle;
 188:Generated_Source\PSoC6\pdl\middleware\ble/cy_ble_gap.h **** 
 189:Generated_Source\PSoC6\pdl\middleware\ble/cy_ble_gap.h ****     /** Handle of the GAPS Resolvable Private Address Only characteristic */
 190:Generated_Source\PSoC6\pdl\middleware\ble/cy_ble_gap.h ****     cy_ble_gatt_db_attr_handle_t resolvablePrivateAddressOnly;
 191:Generated_Source\PSoC6\pdl\middleware\ble/cy_ble_gap.h **** }cy_stc_ble_gapc_t;
 192:Generated_Source\PSoC6\pdl\middleware\ble/cy_ble_gap.h **** 
 193:Generated_Source\PSoC6\pdl\middleware\ble/cy_ble_gap.h **** /* Stack mode defines */
 194:Generated_Source\PSoC6\pdl\middleware\ble/cy_ble_gap.h **** 
 195:Generated_Source\PSoC6\pdl\middleware\ble/cy_ble_gap.h **** /** Advertisement SIG assigned numbers */
 196:Generated_Source\PSoC6\pdl\middleware\ble/cy_ble_gap.h **** typedef enum
 197:Generated_Source\PSoC6\pdl\middleware\ble/cy_ble_gap.h **** {
 198:Generated_Source\PSoC6\pdl\middleware\ble/cy_ble_gap.h ****     /** Flags */
 199:Generated_Source\PSoC6\pdl\middleware\ble/cy_ble_gap.h ****     CY_BLE_GAP_ADV_FLAGS = 0x01u,
 200:Generated_Source\PSoC6\pdl\middleware\ble/cy_ble_gap.h **** 
 201:Generated_Source\PSoC6\pdl\middleware\ble/cy_ble_gap.h ****     /** Incomplete List of 16-bit Service Class UUIDs */
 202:Generated_Source\PSoC6\pdl\middleware\ble/cy_ble_gap.h ****     CY_BLE_GAP_ADV_INCOMPL_16UUID,
 203:Generated_Source\PSoC6\pdl\middleware\ble/cy_ble_gap.h **** 
 204:Generated_Source\PSoC6\pdl\middleware\ble/cy_ble_gap.h ****     /** Complete List of 16-bit Service Class UUIDs */
 205:Generated_Source\PSoC6\pdl\middleware\ble/cy_ble_gap.h ****     CY_BLE_GAP_ADV_COMPL_16UUID,
 206:Generated_Source\PSoC6\pdl\middleware\ble/cy_ble_gap.h **** 
 207:Generated_Source\PSoC6\pdl\middleware\ble/cy_ble_gap.h ****     /** Incomplete List of 32-bit Service Class UUIDs */
 208:Generated_Source\PSoC6\pdl\middleware\ble/cy_ble_gap.h ****     CY_BLE_GAP_ADV_INCOMPL_32_UUID,
 209:Generated_Source\PSoC6\pdl\middleware\ble/cy_ble_gap.h **** 
 210:Generated_Source\PSoC6\pdl\middleware\ble/cy_ble_gap.h ****     /** Complete List of 32-bit Service Class UUIDs */
 211:Generated_Source\PSoC6\pdl\middleware\ble/cy_ble_gap.h ****     CY_BLE_GAP_ADV_COMPL_32_UUID,
 212:Generated_Source\PSoC6\pdl\middleware\ble/cy_ble_gap.h **** 
 213:Generated_Source\PSoC6\pdl\middleware\ble/cy_ble_gap.h ****     /** Incomplete List of 128-bit Service Class UUIDs */
 214:Generated_Source\PSoC6\pdl\middleware\ble/cy_ble_gap.h ****     CY_BLE_GAP_ADV_INCOMPL_128_UUID,
 215:Generated_Source\PSoC6\pdl\middleware\ble/cy_ble_gap.h **** 
 216:Generated_Source\PSoC6\pdl\middleware\ble/cy_ble_gap.h ****     /** Complete List of 128-bit Service Class UUIDs */
 217:Generated_Source\PSoC6\pdl\middleware\ble/cy_ble_gap.h ****     CY_BLE_GAP_ADV_COMPL_128_UUID,
 218:Generated_Source\PSoC6\pdl\middleware\ble/cy_ble_gap.h **** 
 219:Generated_Source\PSoC6\pdl\middleware\ble/cy_ble_gap.h ****     /** Shortened Local Name */
 220:Generated_Source\PSoC6\pdl\middleware\ble/cy_ble_gap.h ****     CY_BLE_GAP_ADV_SHORT_NAME,
 221:Generated_Source\PSoC6\pdl\middleware\ble/cy_ble_gap.h **** 
 222:Generated_Source\PSoC6\pdl\middleware\ble/cy_ble_gap.h ****     /** Complete Local Name */
 223:Generated_Source\PSoC6\pdl\middleware\ble/cy_ble_gap.h ****     CY_BLE_GAP_ADV_COMPL_NAME,
 224:Generated_Source\PSoC6\pdl\middleware\ble/cy_ble_gap.h **** 
 225:Generated_Source\PSoC6\pdl\middleware\ble/cy_ble_gap.h ****     /** Tx Power Level */
 226:Generated_Source\PSoC6\pdl\middleware\ble/cy_ble_gap.h ****     CY_BLE_GAP_ADV_TX_PWR_LVL,
 227:Generated_Source\PSoC6\pdl\middleware\ble/cy_ble_gap.h **** 
 228:Generated_Source\PSoC6\pdl\middleware\ble/cy_ble_gap.h ****     /** Class of Device */
 229:Generated_Source\PSoC6\pdl\middleware\ble/cy_ble_gap.h ****     CY_BLE_GAP_ADV_CLASS_OF_DEVICE = 0x0Du,
 230:Generated_Source\PSoC6\pdl\middleware\ble/cy_ble_gap.h **** 
 231:Generated_Source\PSoC6\pdl\middleware\ble/cy_ble_gap.h ****     /** Simple Pairing Hash C */
 232:Generated_Source\PSoC6\pdl\middleware\ble/cy_ble_gap.h ****     CY_BLE_GAP_ADV_SMPL_PAIR_HASH_C,
ARM GAS  C:\Users\salaz\AppData\Local\Temp\ccu2LhKM.s 			page 39


 233:Generated_Source\PSoC6\pdl\middleware\ble/cy_ble_gap.h **** 
 234:Generated_Source\PSoC6\pdl\middleware\ble/cy_ble_gap.h ****     /** Simple Pairing Randomizer R */
 235:Generated_Source\PSoC6\pdl\middleware\ble/cy_ble_gap.h ****     CY_BLE_GAP_ADV_SMPL_PAIR_RANDOM_R,
 236:Generated_Source\PSoC6\pdl\middleware\ble/cy_ble_gap.h **** 
 237:Generated_Source\PSoC6\pdl\middleware\ble/cy_ble_gap.h ****     /** Device ID*/
 238:Generated_Source\PSoC6\pdl\middleware\ble/cy_ble_gap.h ****     CY_BLE_GAP_ADV_DEVICE_ID,
 239:Generated_Source\PSoC6\pdl\middleware\ble/cy_ble_gap.h **** 
 240:Generated_Source\PSoC6\pdl\middleware\ble/cy_ble_gap.h ****     /** Security Manager TK Value */
 241:Generated_Source\PSoC6\pdl\middleware\ble/cy_ble_gap.h ****     CY_BLE_GAP_ADV_SCRT_MNGR_TK_VAL = 0x10u,
 242:Generated_Source\PSoC6\pdl\middleware\ble/cy_ble_gap.h **** 
 243:Generated_Source\PSoC6\pdl\middleware\ble/cy_ble_gap.h ****     /** Security Manager Out of Band Flags */
 244:Generated_Source\PSoC6\pdl\middleware\ble/cy_ble_gap.h ****     CY_BLE_GAP_ADV_SCRT_MNGR_OOB_FLAGS,
 245:Generated_Source\PSoC6\pdl\middleware\ble/cy_ble_gap.h **** 
 246:Generated_Source\PSoC6\pdl\middleware\ble/cy_ble_gap.h ****     /** Slave Connection Interval Range */
 247:Generated_Source\PSoC6\pdl\middleware\ble/cy_ble_gap.h ****     CY_BLE_GAP_ADV_SLAVE_CONN_INTRV_RANGE,
 248:Generated_Source\PSoC6\pdl\middleware\ble/cy_ble_gap.h **** 
 249:Generated_Source\PSoC6\pdl\middleware\ble/cy_ble_gap.h ****     /** List of 16-bit Service Solicitation UUIDs */
 250:Generated_Source\PSoC6\pdl\middleware\ble/cy_ble_gap.h ****     CY_BLE_GAP_ADV_SOLICIT_16UUID = 0x14u,
 251:Generated_Source\PSoC6\pdl\middleware\ble/cy_ble_gap.h **** 
 252:Generated_Source\PSoC6\pdl\middleware\ble/cy_ble_gap.h ****     /** List of 128-bit Service Solicitation UUIDs */
 253:Generated_Source\PSoC6\pdl\middleware\ble/cy_ble_gap.h ****     CY_BLE_GAP_ADV_SOLICIT_128UUID,
 254:Generated_Source\PSoC6\pdl\middleware\ble/cy_ble_gap.h **** 
 255:Generated_Source\PSoC6\pdl\middleware\ble/cy_ble_gap.h ****     /** Service Data - 16-bit UUID */
 256:Generated_Source\PSoC6\pdl\middleware\ble/cy_ble_gap.h ****     CY_BLE_GAP_ADV_SRVC_DATA_16UUID,
 257:Generated_Source\PSoC6\pdl\middleware\ble/cy_ble_gap.h **** 
 258:Generated_Source\PSoC6\pdl\middleware\ble/cy_ble_gap.h ****     /** Public Target Address */
 259:Generated_Source\PSoC6\pdl\middleware\ble/cy_ble_gap.h ****     CY_BLE_GAP_ADV_PUBLIC_TARGET_ADDR,
 260:Generated_Source\PSoC6\pdl\middleware\ble/cy_ble_gap.h **** 
 261:Generated_Source\PSoC6\pdl\middleware\ble/cy_ble_gap.h ****     /** Random Target Address */
 262:Generated_Source\PSoC6\pdl\middleware\ble/cy_ble_gap.h ****     CY_BLE_GAP_ADV_RANDOM_TARGET_ADDR,
 263:Generated_Source\PSoC6\pdl\middleware\ble/cy_ble_gap.h **** 
 264:Generated_Source\PSoC6\pdl\middleware\ble/cy_ble_gap.h ****     /** Appearance */
 265:Generated_Source\PSoC6\pdl\middleware\ble/cy_ble_gap.h ****     CY_BLE_GAP_ADV_APPEARANCE,
 266:Generated_Source\PSoC6\pdl\middleware\ble/cy_ble_gap.h **** 
 267:Generated_Source\PSoC6\pdl\middleware\ble/cy_ble_gap.h ****     /** Advertising Interval */
 268:Generated_Source\PSoC6\pdl\middleware\ble/cy_ble_gap.h ****     CY_BLE_GAP_ADV_ADVERT_INTERVAL,
 269:Generated_Source\PSoC6\pdl\middleware\ble/cy_ble_gap.h **** 
 270:Generated_Source\PSoC6\pdl\middleware\ble/cy_ble_gap.h ****     /** LE Bluetooth Device Address */
 271:Generated_Source\PSoC6\pdl\middleware\ble/cy_ble_gap.h ****     CY_BLE_GAP_ADV_LE_BT_DEVICE_ADDR,
 272:Generated_Source\PSoC6\pdl\middleware\ble/cy_ble_gap.h **** 
 273:Generated_Source\PSoC6\pdl\middleware\ble/cy_ble_gap.h ****     /** LE Role */
 274:Generated_Source\PSoC6\pdl\middleware\ble/cy_ble_gap.h ****     CY_BLE_GAP_ADV_LE_ROLE,
 275:Generated_Source\PSoC6\pdl\middleware\ble/cy_ble_gap.h **** 
 276:Generated_Source\PSoC6\pdl\middleware\ble/cy_ble_gap.h ****     /** Simple Pairing Hash C-256 */
 277:Generated_Source\PSoC6\pdl\middleware\ble/cy_ble_gap.h ****     CY_BLE_GAP_ADV_SMPL_PAIR_HASH_C256,
 278:Generated_Source\PSoC6\pdl\middleware\ble/cy_ble_gap.h **** 
 279:Generated_Source\PSoC6\pdl\middleware\ble/cy_ble_gap.h ****     /** Simple Pairing Randomizer R-256 */
 280:Generated_Source\PSoC6\pdl\middleware\ble/cy_ble_gap.h ****     CY_BLE_GAP_ADV_SMPL_PAIR_RANDOM_R256,
 281:Generated_Source\PSoC6\pdl\middleware\ble/cy_ble_gap.h **** 
 282:Generated_Source\PSoC6\pdl\middleware\ble/cy_ble_gap.h ****     /** List of 32-bit Service Solicitation UUIDs */
 283:Generated_Source\PSoC6\pdl\middleware\ble/cy_ble_gap.h ****     CY_BLE_GAP_ADV_SOLICIT_32UUID,
 284:Generated_Source\PSoC6\pdl\middleware\ble/cy_ble_gap.h **** 
 285:Generated_Source\PSoC6\pdl\middleware\ble/cy_ble_gap.h ****     /** Service Data - 32-bit UUID */
 286:Generated_Source\PSoC6\pdl\middleware\ble/cy_ble_gap.h ****     CY_BLE_GAP_ADV_SRVC_DATA_32UUID,
 287:Generated_Source\PSoC6\pdl\middleware\ble/cy_ble_gap.h **** 
 288:Generated_Source\PSoC6\pdl\middleware\ble/cy_ble_gap.h ****     /** Service Data - 128-bit UUID */
 289:Generated_Source\PSoC6\pdl\middleware\ble/cy_ble_gap.h ****     CY_BLE_GAP_ADV_SRVC_DATA_128UUID,
ARM GAS  C:\Users\salaz\AppData\Local\Temp\ccu2LhKM.s 			page 40


 290:Generated_Source\PSoC6\pdl\middleware\ble/cy_ble_gap.h **** 
 291:Generated_Source\PSoC6\pdl\middleware\ble/cy_ble_gap.h ****     /** 3D Information Data */
 292:Generated_Source\PSoC6\pdl\middleware\ble/cy_ble_gap.h ****     CY_BLE_GAP_ADV_3D_INFO_DATA = 0x3D,
 293:Generated_Source\PSoC6\pdl\middleware\ble/cy_ble_gap.h **** 
 294:Generated_Source\PSoC6\pdl\middleware\ble/cy_ble_gap.h ****     /** Manufacturer Specific Data */
 295:Generated_Source\PSoC6\pdl\middleware\ble/cy_ble_gap.h ****     CY_BLE_GAP_ADV_MANUFACTURER_SPECIFIC_DATA = 0xFF
 296:Generated_Source\PSoC6\pdl\middleware\ble/cy_ble_gap.h **** }cy_en_ble_gap_adv_assign_numbers_t;
 297:Generated_Source\PSoC6\pdl\middleware\ble/cy_ble_gap.h **** 
 298:Generated_Source\PSoC6\pdl\middleware\ble/cy_ble_gap.h **** /** GAPP advertising configuration parameters structure */
 299:Generated_Source\PSoC6\pdl\middleware\ble/cy_ble_gap.h **** typedef struct
 300:Generated_Source\PSoC6\pdl\middleware\ble/cy_ble_gap.h **** {
 301:Generated_Source\PSoC6\pdl\middleware\ble/cy_ble_gap.h ****     /** The minimum interval for fast advertising the data and establishing the LE Connection */
 302:Generated_Source\PSoC6\pdl\middleware\ble/cy_ble_gap.h ****     uint16_t fastAdvIntervalMin;
 303:Generated_Source\PSoC6\pdl\middleware\ble/cy_ble_gap.h **** 
 304:Generated_Source\PSoC6\pdl\middleware\ble/cy_ble_gap.h ****     /** The maximum interval for fast advertising the data and establishing the LE Connection */
 305:Generated_Source\PSoC6\pdl\middleware\ble/cy_ble_gap.h ****     uint16_t fastAdvIntervalMax;
 306:Generated_Source\PSoC6\pdl\middleware\ble/cy_ble_gap.h **** 
 307:Generated_Source\PSoC6\pdl\middleware\ble/cy_ble_gap.h ****     /** The timeout value of  fast advertising with fast advertising interval parameters */
 308:Generated_Source\PSoC6\pdl\middleware\ble/cy_ble_gap.h ****     uint16_t fastAdvTimeOut;
 309:Generated_Source\PSoC6\pdl\middleware\ble/cy_ble_gap.h **** 
 310:Generated_Source\PSoC6\pdl\middleware\ble/cy_ble_gap.h ****     /** Slow advertising enable */
 311:Generated_Source\PSoC6\pdl\middleware\ble/cy_ble_gap.h ****     uint8_t  slowAdvEnable;
 312:Generated_Source\PSoC6\pdl\middleware\ble/cy_ble_gap.h **** 
 313:Generated_Source\PSoC6\pdl\middleware\ble/cy_ble_gap.h ****     /** The minimum interval for slow advertising the data and establishing the LE Connection */
 314:Generated_Source\PSoC6\pdl\middleware\ble/cy_ble_gap.h ****     uint16_t slowAdvIntervalMin;
 315:Generated_Source\PSoC6\pdl\middleware\ble/cy_ble_gap.h **** 
 316:Generated_Source\PSoC6\pdl\middleware\ble/cy_ble_gap.h ****     /** The maximum interval for slow  advertising the data and establishing the LE Connection */
 317:Generated_Source\PSoC6\pdl\middleware\ble/cy_ble_gap.h ****     uint16_t slowAdvIntervalMax;
 318:Generated_Source\PSoC6\pdl\middleware\ble/cy_ble_gap.h **** 
 319:Generated_Source\PSoC6\pdl\middleware\ble/cy_ble_gap.h ****     /** The timeout value of slow advertising with slow advertising interval parameters */
 320:Generated_Source\PSoC6\pdl\middleware\ble/cy_ble_gap.h ****     uint16_t slowAdvTimeOut;
 321:Generated_Source\PSoC6\pdl\middleware\ble/cy_ble_gap.h **** }cy_stc_ble_gapp_adv_params_t;
 322:Generated_Source\PSoC6\pdl\middleware\ble/cy_ble_gap.h **** 
 323:Generated_Source\PSoC6\pdl\middleware\ble/cy_ble_gap.h **** /** GAPC advertising configuration parameters structure */
 324:Generated_Source\PSoC6\pdl\middleware\ble/cy_ble_gap.h **** typedef struct
 325:Generated_Source\PSoC6\pdl\middleware\ble/cy_ble_gap.h **** {
 326:Generated_Source\PSoC6\pdl\middleware\ble/cy_ble_gap.h ****     /** The scan interval when operating in Fast connection */
 327:Generated_Source\PSoC6\pdl\middleware\ble/cy_ble_gap.h ****     uint16_t fastScanInterval;
 328:Generated_Source\PSoC6\pdl\middleware\ble/cy_ble_gap.h **** 
 329:Generated_Source\PSoC6\pdl\middleware\ble/cy_ble_gap.h ****     /** Defines the scan window when operating in Fast connection */
 330:Generated_Source\PSoC6\pdl\middleware\ble/cy_ble_gap.h ****     uint16_t fastScanWindow;
 331:Generated_Source\PSoC6\pdl\middleware\ble/cy_ble_gap.h **** 
 332:Generated_Source\PSoC6\pdl\middleware\ble/cy_ble_gap.h ****     /** The timeout value of scanning with fast scan parameters */
 333:Generated_Source\PSoC6\pdl\middleware\ble/cy_ble_gap.h ****     uint16_t fastScanTimeOut;
 334:Generated_Source\PSoC6\pdl\middleware\ble/cy_ble_gap.h **** 
 335:Generated_Source\PSoC6\pdl\middleware\ble/cy_ble_gap.h ****     /** Slow scan enable/disable */
 336:Generated_Source\PSoC6\pdl\middleware\ble/cy_ble_gap.h ****     uint8_t  slowScanEnabled;
 337:Generated_Source\PSoC6\pdl\middleware\ble/cy_ble_gap.h **** 
 338:Generated_Source\PSoC6\pdl\middleware\ble/cy_ble_gap.h ****     /** The scan interval when operating in Slow connection */
 339:Generated_Source\PSoC6\pdl\middleware\ble/cy_ble_gap.h ****     uint16_t slowScanInterval;
 340:Generated_Source\PSoC6\pdl\middleware\ble/cy_ble_gap.h **** 
 341:Generated_Source\PSoC6\pdl\middleware\ble/cy_ble_gap.h ****     /** Defines the scan window when operating in Slow connection */
 342:Generated_Source\PSoC6\pdl\middleware\ble/cy_ble_gap.h ****     uint16_t slowScanWindow;
 343:Generated_Source\PSoC6\pdl\middleware\ble/cy_ble_gap.h **** 
 344:Generated_Source\PSoC6\pdl\middleware\ble/cy_ble_gap.h ****     /** The timeout value of scanning with Slow scan parameters */
 345:Generated_Source\PSoC6\pdl\middleware\ble/cy_ble_gap.h ****     uint16_t slowScanTimeOut;
 346:Generated_Source\PSoC6\pdl\middleware\ble/cy_ble_gap.h **** 
ARM GAS  C:\Users\salaz\AppData\Local\Temp\ccu2LhKM.s 			page 41


 347:Generated_Source\PSoC6\pdl\middleware\ble/cy_ble_gap.h ****     /** The minimum permissible connection time value to be used during a connection event */
 348:Generated_Source\PSoC6\pdl\middleware\ble/cy_ble_gap.h ****     uint16_t gapcConnectionIntervalMin;
 349:Generated_Source\PSoC6\pdl\middleware\ble/cy_ble_gap.h **** 
 350:Generated_Source\PSoC6\pdl\middleware\ble/cy_ble_gap.h ****     /** The maximum permissible connection time value to be used during a connection event */
 351:Generated_Source\PSoC6\pdl\middleware\ble/cy_ble_gap.h ****     uint16_t gapcConnectionIntervalMax;
 352:Generated_Source\PSoC6\pdl\middleware\ble/cy_ble_gap.h **** 
 353:Generated_Source\PSoC6\pdl\middleware\ble/cy_ble_gap.h ****     /** Defines the maximum time between two received Data Packet PDUs before
 354:Generated_Source\PSoC6\pdl\middleware\ble/cy_ble_gap.h ****      *  the connection is considered lost */
 355:Generated_Source\PSoC6\pdl\middleware\ble/cy_ble_gap.h ****     uint16_t gapcConnectionSlaveLatency;
 356:Generated_Source\PSoC6\pdl\middleware\ble/cy_ble_gap.h **** 
 357:Generated_Source\PSoC6\pdl\middleware\ble/cy_ble_gap.h ****     /** Defines the LE link supervision timeout interval */
 358:Generated_Source\PSoC6\pdl\middleware\ble/cy_ble_gap.h ****     uint16_t gapcConnectionTimeOut;
 359:Generated_Source\PSoC6\pdl\middleware\ble/cy_ble_gap.h **** }cy_stc_ble_gapc_scan_params_t;
 360:Generated_Source\PSoC6\pdl\middleware\ble/cy_ble_gap.h **** 
 361:Generated_Source\PSoC6\pdl\middleware\ble/cy_ble_gap.h **** /** Store BLE Application Data parameter into flash */
 362:Generated_Source\PSoC6\pdl\middleware\ble/cy_ble_gap.h **** typedef struct
 363:Generated_Source\PSoC6\pdl\middleware\ble/cy_ble_gap.h **** {
 364:Generated_Source\PSoC6\pdl\middleware\ble/cy_ble_gap.h ****     /** Source buffer */
 365:Generated_Source\PSoC6\pdl\middleware\ble/cy_ble_gap.h ****     const uint8_t *srcBuff;
 366:Generated_Source\PSoC6\pdl\middleware\ble/cy_ble_gap.h **** 
 367:Generated_Source\PSoC6\pdl\middleware\ble/cy_ble_gap.h ****     /** Destination buffer */
 368:Generated_Source\PSoC6\pdl\middleware\ble/cy_ble_gap.h ****     const uint8_t *destAddr;
 369:Generated_Source\PSoC6\pdl\middleware\ble/cy_ble_gap.h **** 
 370:Generated_Source\PSoC6\pdl\middleware\ble/cy_ble_gap.h ****     /** Source buffer length */
 371:Generated_Source\PSoC6\pdl\middleware\ble/cy_ble_gap.h ****     uint32_t      buffLen;
 372:Generated_Source\PSoC6\pdl\middleware\ble/cy_ble_gap.h ****     
 373:Generated_Source\PSoC6\pdl\middleware\ble/cy_ble_gap.h ****     /** Write mode: blocking (default) / non-blocking */
 374:Generated_Source\PSoC6\pdl\middleware\ble/cy_ble_gap.h ****     uint32_t      writeMode;
 375:Generated_Source\PSoC6\pdl\middleware\ble/cy_ble_gap.h ****     
 376:Generated_Source\PSoC6\pdl\middleware\ble/cy_ble_gap.h **** } cy_stc_ble_app_flash_param_t;
 377:Generated_Source\PSoC6\pdl\middleware\ble/cy_ble_gap.h **** 
 378:Generated_Source\PSoC6\pdl\middleware\ble/cy_ble_gap.h **** /** @} group_ble_common_api_gap_definitions */
 379:Generated_Source\PSoC6\pdl\middleware\ble/cy_ble_gap.h ****  
 380:Generated_Source\PSoC6\pdl\middleware\ble/cy_ble_gap.h **** /***************************************
 381:Generated_Source\PSoC6\pdl\middleware\ble/cy_ble_gap.h **** * API Constants
 382:Generated_Source\PSoC6\pdl\middleware\ble/cy_ble_gap.h **** ***************************************/
 383:Generated_Source\PSoC6\pdl\middleware\ble/cy_ble_gap.h **** #define CY_BLE_AD_TYPE_MORE16UUID                  (0x02u)
 384:Generated_Source\PSoC6\pdl\middleware\ble/cy_ble_gap.h **** #define CY_BLE_AD_TYPE_CMPL16UUID                  (0x03u)
 385:Generated_Source\PSoC6\pdl\middleware\ble/cy_ble_gap.h **** #define CY_BLE_AD_TYPE_MORE32UUID                  (0x04u)
 386:Generated_Source\PSoC6\pdl\middleware\ble/cy_ble_gap.h **** #define CY_BLE_AD_TYPE_CMPL32UUID                  (0x05u)
 387:Generated_Source\PSoC6\pdl\middleware\ble/cy_ble_gap.h **** #define CY_BLE_AD_TYPE_MORE128UUID                 (0x06u)
 388:Generated_Source\PSoC6\pdl\middleware\ble/cy_ble_gap.h **** #define CY_BLE_AD_TYPE_CMPL128UUID                 (0x07u)
 389:Generated_Source\PSoC6\pdl\middleware\ble/cy_ble_gap.h **** 
 390:Generated_Source\PSoC6\pdl\middleware\ble/cy_ble_gap.h **** #define CY_BLE_AD_TYPE_SERVICE_DATA                (0x16u)
 391:Generated_Source\PSoC6\pdl\middleware\ble/cy_ble_gap.h **** #define CY_BLE_AD_SERVICE_DATA_OVERHEAD            (0x03u)
 392:Generated_Source\PSoC6\pdl\middleware\ble/cy_ble_gap.h **** 
 393:Generated_Source\PSoC6\pdl\middleware\ble/cy_ble_gap.h **** #define CY_BLE_DISCOVERY_IDLE                      (0x00u)
 394:Generated_Source\PSoC6\pdl\middleware\ble/cy_ble_gap.h **** #define CY_BLE_DISCOVERY_SERVICE                   (0x01u)
 395:Generated_Source\PSoC6\pdl\middleware\ble/cy_ble_gap.h **** #define CY_BLE_DISCOVERY_CHAR                      (0x02u)
 396:Generated_Source\PSoC6\pdl\middleware\ble/cy_ble_gap.h **** #define CY_BLE_DISCOVERY_DESCR                     (0x03u)
 397:Generated_Source\PSoC6\pdl\middleware\ble/cy_ble_gap.h **** #define CY_BLE_DISCOVERY_DONE                      (0x04u)
 398:Generated_Source\PSoC6\pdl\middleware\ble/cy_ble_gap.h **** 
 399:Generated_Source\PSoC6\pdl\middleware\ble/cy_ble_gap.h **** /* Cy_BLE_NextCharDscrDiscovery parameters */
 400:Generated_Source\PSoC6\pdl\middleware\ble/cy_ble_gap.h **** #define CY_BLE_DISCOVERY_INIT                      (0x00u)
 401:Generated_Source\PSoC6\pdl\middleware\ble/cy_ble_gap.h **** #define CY_BLE_DISCOVERY_CONTINUE                  (0x01u)
 402:Generated_Source\PSoC6\pdl\middleware\ble/cy_ble_gap.h **** 
 403:Generated_Source\PSoC6\pdl\middleware\ble/cy_ble_gap.h **** #define CY_BLE_SFLASH_DIE_X_MASK                   (0x3Fu)
ARM GAS  C:\Users\salaz\AppData\Local\Temp\ccu2LhKM.s 			page 42


 404:Generated_Source\PSoC6\pdl\middleware\ble/cy_ble_gap.h **** #define CY_BLE_SFLASH_DIE_X_BITS                   (6u)
 405:Generated_Source\PSoC6\pdl\middleware\ble/cy_ble_gap.h **** #define CY_BLE_SFLASH_DIE_Y_MASK                   (0x3Fu)
 406:Generated_Source\PSoC6\pdl\middleware\ble/cy_ble_gap.h **** #define CY_BLE_SFLASH_DIE_Y_BITS                   (6u)
 407:Generated_Source\PSoC6\pdl\middleware\ble/cy_ble_gap.h **** #define CY_BLE_SFLASH_DIE_XY_BITS                  (CY_BLE_SFLASH_DIE_X_BITS + CY_BLE_SFLASH_DIE_Y_
 408:Generated_Source\PSoC6\pdl\middleware\ble/cy_ble_gap.h **** #define CY_BLE_SFLASH_DIE_WAFER_MASK               (0x1Fu)
 409:Generated_Source\PSoC6\pdl\middleware\ble/cy_ble_gap.h **** #define CY_BLE_SFLASH_DIE_WAFER_BITS               (5u)
 410:Generated_Source\PSoC6\pdl\middleware\ble/cy_ble_gap.h **** #define CY_BLE_SFLASH_DIE_XYWAFER_BITS             (CY_BLE_SFLASH_DIE_XY_BITS + CY_BLE_SFLASH_DIE_W
 411:Generated_Source\PSoC6\pdl\middleware\ble/cy_ble_gap.h **** #define CY_BLE_SFLASH_DIE_LOT_MASK                 (0x7Fu)
 412:Generated_Source\PSoC6\pdl\middleware\ble/cy_ble_gap.h **** #define CY_BLE_SFLASH_DIE_LOT_BITS                 (7u)
 413:Generated_Source\PSoC6\pdl\middleware\ble/cy_ble_gap.h **** 
 414:Generated_Source\PSoC6\pdl\middleware\ble/cy_ble_gap.h **** /* Device address stored by user in ROW4 of the SFLASH */
 415:Generated_Source\PSoC6\pdl\middleware\ble/cy_ble_gap.h **** #define CY_BLE_SFLASH_DEVICE_ADDRESS_PTR           ((cy_stc_ble_gap_bd_addr_t*)(SFLASH->BLE_DEVICE_
 416:Generated_Source\PSoC6\pdl\middleware\ble/cy_ble_gap.h **** #define CY_BLE_AD_STRUCTURE_MAX_LENGTH             (31u)
 417:Generated_Source\PSoC6\pdl\middleware\ble/cy_ble_gap.h **** 
 418:Generated_Source\PSoC6\pdl\middleware\ble/cy_ble_gap.h **** /* AD types for complete, shortened local name and device address */
 419:Generated_Source\PSoC6\pdl\middleware\ble/cy_ble_gap.h **** #define CY_BLE_SHORT_LOCAL_NAME                    (0x08u)  /**< Shortened Local Name */
 420:Generated_Source\PSoC6\pdl\middleware\ble/cy_ble_gap.h **** #define CY_BLE_COMPLETE_LOCAL_NAME                 (0x09u)  /**< Complete Local Name */
 421:Generated_Source\PSoC6\pdl\middleware\ble/cy_ble_gap.h **** #define CY_BLE_ADV_DEVICE_ADDR                     (0x1Bu)  /**< LE Bluetooth Device Address */
 422:Generated_Source\PSoC6\pdl\middleware\ble/cy_ble_gap.h **** 
 423:Generated_Source\PSoC6\pdl\middleware\ble/cy_ble_gap.h **** #define CY_BLE_ADVERTISING_FAST                    (0x00u)
 424:Generated_Source\PSoC6\pdl\middleware\ble/cy_ble_gap.h **** #define CY_BLE_ADVERTISING_SLOW                    (0x01u)
 425:Generated_Source\PSoC6\pdl\middleware\ble/cy_ble_gap.h **** #define CY_BLE_ADVERTISING_CUSTOM                  (0x02u)
 426:Generated_Source\PSoC6\pdl\middleware\ble/cy_ble_gap.h **** 
 427:Generated_Source\PSoC6\pdl\middleware\ble/cy_ble_gap.h **** #define CY_BLE_SCANNING_FAST                       (0x00u)
 428:Generated_Source\PSoC6\pdl\middleware\ble/cy_ble_gap.h **** #define CY_BLE_SCANNING_SLOW                       (0x01u)
 429:Generated_Source\PSoC6\pdl\middleware\ble/cy_ble_gap.h **** #define CY_BLE_SCANNING_CUSTOM                     (0x02u)
 430:Generated_Source\PSoC6\pdl\middleware\ble/cy_ble_gap.h **** 
 431:Generated_Source\PSoC6\pdl\middleware\ble/cy_ble_gap.h **** #define CY_BLE_PENDING_STACK_FLASH_WRITE_BIT       (0x01u)
 432:Generated_Source\PSoC6\pdl\middleware\ble/cy_ble_gap.h **** #define CY_BLE_PENDING_CCCD_FLASH_WRITE_BIT        (0x02u)
 433:Generated_Source\PSoC6\pdl\middleware\ble/cy_ble_gap.h **** #define CY_BLE_PENDING_CCCD_FLASH_CLEAR_BIT        (0x04u)
 434:Generated_Source\PSoC6\pdl\middleware\ble/cy_ble_gap.h **** #define CY_BLE_PENDING_CCCD_FLASH_CLEAR_ALL_BIT    (0x08u)
 435:Generated_Source\PSoC6\pdl\middleware\ble/cy_ble_gap.h **** #define CY_BLE_PENDING_CCCD_FLASH_CLEAR_MASK \
 436:Generated_Source\PSoC6\pdl\middleware\ble/cy_ble_gap.h ****     (CY_BLE_PENDING_CCCD_FLASH_CLEAR_BIT | CY_BLE_PENDING_CCCD_FLASH_CLEAR_ALL_BIT)
 437:Generated_Source\PSoC6\pdl\middleware\ble/cy_ble_gap.h ****   
 438:Generated_Source\PSoC6\pdl\middleware\ble/cy_ble_gap.h **** /**
 439:Generated_Source\PSoC6\pdl\middleware\ble/cy_ble_gap.h ****  * \addtogroup group_ble_common_api_macros
 440:Generated_Source\PSoC6\pdl\middleware\ble/cy_ble_gap.h ****  * @{
 441:Generated_Source\PSoC6\pdl\middleware\ble/cy_ble_gap.h ****  */
 442:Generated_Source\PSoC6\pdl\middleware\ble/cy_ble_gap.h ****  
 443:Generated_Source\PSoC6\pdl\middleware\ble/cy_ble_gap.h **** /* GAP Advertisement Flags */
 444:Generated_Source\PSoC6\pdl\middleware\ble/cy_ble_gap.h **** #define CY_BLE_GAP_ADV_FLAG_LE_LIMITED_DISC_MODE        (0x01u)     /**< LE Limited Discoverable Mo
 445:Generated_Source\PSoC6\pdl\middleware\ble/cy_ble_gap.h **** #define CY_BLE_GAP_ADV_FLAG_LE_GENERAL_DISC_MODE        (0x02u)     /**< LE General Discoverable Mo
 446:Generated_Source\PSoC6\pdl\middleware\ble/cy_ble_gap.h **** #define CY_BLE_GAP_ADV_FLAG_BR_EDR_NOT_SUPPORTED        (0x04u)     /**< BR/EDR not supported. */
 447:Generated_Source\PSoC6\pdl\middleware\ble/cy_ble_gap.h **** #define CY_BLE_GAP_ADV_FLAG_LE_BR_EDR_CONTROLLER        (0x08u)     /**< Simultaneous LE and BR/EDR
 448:Generated_Source\PSoC6\pdl\middleware\ble/cy_ble_gap.h **** #define CY_BLE_GAP_ADV_FLAG_LE_BR_EDR_HOST              (0x10u)     /**< Simultaneous LE and BR/EDR
 449:Generated_Source\PSoC6\pdl\middleware\ble/cy_ble_gap.h **** #define CY_BLE_GAP_ADV_FLAGS_PACKET_LENGTH              (0x02u)     /**< Length of flags in an adve
 450:Generated_Source\PSoC6\pdl\middleware\ble/cy_ble_gap.h **** 
 451:Generated_Source\PSoC6\pdl\middleware\ble/cy_ble_gap.h **** /* GAP Advertising interval min and max */
 452:Generated_Source\PSoC6\pdl\middleware\ble/cy_ble_gap.h **** #define CY_BLE_GAP_ADV_ADVERT_INTERVAL_MIN              (0x0020u)   /**< Minimum Advertising interv
 453:Generated_Source\PSoC6\pdl\middleware\ble/cy_ble_gap.h ****                                                                      *   i.e. 20 ms. */
 454:Generated_Source\PSoC6\pdl\middleware\ble/cy_ble_gap.h **** #define CY_BLE_GAP_ADV_ADVERT_INTERVAL_NONCON_MIN       (0x00A0u)   /**< Minimum Advertising interv
 455:Generated_Source\PSoC6\pdl\middleware\ble/cy_ble_gap.h ****                                                                      *   for non connectable mode, 
 456:Generated_Source\PSoC6\pdl\middleware\ble/cy_ble_gap.h **** #define CY_BLE_GAP_ADV_ADVERT_INTERVAL_MAX              (0x4000u)   /**< Maximum Advertising interv
 457:Generated_Source\PSoC6\pdl\middleware\ble/cy_ble_gap.h ****                                                                      *   i.e. 10.24 s. */
 458:Generated_Source\PSoC6\pdl\middleware\ble/cy_ble_gap.h **** #define CY_BLE_GAP_ADV_ADVERT_INTERVAL_PACKET_LENGTH    (0x03u)     /**< Length of the Advertising 
 459:Generated_Source\PSoC6\pdl\middleware\ble/cy_ble_gap.h ****                                                                      *   an advertisement packet */
 460:Generated_Source\PSoC6\pdl\middleware\ble/cy_ble_gap.h **** #define CY_BLE_GAPC_CONNECTING_TIMEOUT                  (30u)       /**< Seconds */
ARM GAS  C:\Users\salaz\AppData\Local\Temp\ccu2LhKM.s 			page 43


 461:Generated_Source\PSoC6\pdl\middleware\ble/cy_ble_gap.h **** #define CY_BLE_INVALID_CONN_HANDLE_VALUE                (0xFFu)     /**< Invalid Connection Handle 
 462:Generated_Source\PSoC6\pdl\middleware\ble/cy_ble_gap.h **** 
 463:Generated_Source\PSoC6\pdl\middleware\ble/cy_ble_gap.h **** /* Write mode for Cy_BLE_StoreAppData */
 464:Generated_Source\PSoC6\pdl\middleware\ble/cy_ble_gap.h **** #define CY_BLE_STORE_DATA_MODE_BLOCKING                 (0x0u)      /**< Blocking write */
 465:Generated_Source\PSoC6\pdl\middleware\ble/cy_ble_gap.h **** #define CY_BLE_STORE_DATA_MODE_NON_BLOCKING             (0x1u)      /**< Non-blocking write */
 466:Generated_Source\PSoC6\pdl\middleware\ble/cy_ble_gap.h **** 
 467:Generated_Source\PSoC6\pdl\middleware\ble/cy_ble_gap.h **** /** @} group_ble_common_api_macros */
 468:Generated_Source\PSoC6\pdl\middleware\ble/cy_ble_gap.h **** 
 469:Generated_Source\PSoC6\pdl\middleware\ble/cy_ble_gap.h **** /***************************************
 470:Generated_Source\PSoC6\pdl\middleware\ble/cy_ble_gap.h **** * Private Function Prototypes
 471:Generated_Source\PSoC6\pdl\middleware\ble/cy_ble_gap.h **** ***************************************/
 472:Generated_Source\PSoC6\pdl\middleware\ble/cy_ble_gap.h **** void Cy_BLE_ServiceInit(void);
 473:Generated_Source\PSoC6\pdl\middleware\ble/cy_ble_gap.h **** uint32_t Cy_BLE_GetDiscoveryIdx(cy_stc_ble_conn_handle_t connHandle);
 474:Generated_Source\PSoC6\pdl\middleware\ble/cy_ble_gap.h **** 
 475:Generated_Source\PSoC6\pdl\middleware\ble/cy_ble_gap.h **** /***************************************
 476:Generated_Source\PSoC6\pdl\middleware\ble/cy_ble_gap.h **** * Function Prototypes
 477:Generated_Source\PSoC6\pdl\middleware\ble/cy_ble_gap.h **** ***************************************/
 478:Generated_Source\PSoC6\pdl\middleware\ble/cy_ble_gap.h **** /**
 479:Generated_Source\PSoC6\pdl\middleware\ble/cy_ble_gap.h ****  * \addtogroup group_ble_common_api_functions
 480:Generated_Source\PSoC6\pdl\middleware\ble/cy_ble_gap.h ****  * @{
 481:Generated_Source\PSoC6\pdl\middleware\ble/cy_ble_gap.h ****  */
 482:Generated_Source\PSoC6\pdl\middleware\ble/cy_ble_gap.h **** 
 483:Generated_Source\PSoC6\pdl\middleware\ble/cy_ble_gap.h **** cy_en_ble_api_result_t Cy_BLE_StoreAppData(const cy_stc_ble_app_flash_param_t *param);
 484:Generated_Source\PSoC6\pdl\middleware\ble/cy_ble_gap.h **** 
 485:Generated_Source\PSoC6\pdl\middleware\ble/cy_ble_gap.h **** #if ((CY_BLE_GAP_ROLE_PERIPHERAL || CY_BLE_GAP_ROLE_CENTRAL) && (CY_BLE_BONDING_REQUIREMENT == CY_B
 486:Generated_Source\PSoC6\pdl\middleware\ble/cy_ble_gap.h **** cy_en_ble_api_result_t Cy_BLE_StoreBondingData(void);
 487:Generated_Source\PSoC6\pdl\middleware\ble/cy_ble_gap.h **** cy_en_ble_api_result_t Cy_BLE_GAP_RemoveBondedDevice(cy_stc_ble_gap_bd_addr_t* bdAddr);
 488:Generated_Source\PSoC6\pdl\middleware\ble/cy_ble_gap.h **** #endif /* (CY_BLE_GAP_ROLE_PERIPHERAL || CY_BLE_GAP_ROLE_CENTRAL) && (CY_BLE_BONDING_REQUIREMENT ==
 489:Generated_Source\PSoC6\pdl\middleware\ble/cy_ble_gap.h **** 
 490:Generated_Source\PSoC6\pdl\middleware\ble/cy_ble_gap.h **** #if (CY_BLE_GAP_ROLE_PERIPHERAL || CY_BLE_GAP_ROLE_CENTRAL)
 491:Generated_Source\PSoC6\pdl\middleware\ble/cy_ble_gap.h **** bool Cy_BLE_IsPeerConnected(uint8_t *bdAddr);
 492:Generated_Source\PSoC6\pdl\middleware\ble/cy_ble_gap.h **** bool Cy_BLE_IsDevicePaired(cy_stc_ble_conn_handle_t *connHandle);
 493:Generated_Source\PSoC6\pdl\middleware\ble/cy_ble_gap.h **** uint8_t Cy_BLE_GetDeviceRole(cy_stc_ble_conn_handle_t *connHandle);
 494:Generated_Source\PSoC6\pdl\middleware\ble/cy_ble_gap.h **** 
 495:Generated_Source\PSoC6\pdl\middleware\ble/cy_ble_gap.h **** cy_en_ble_api_result_t Cy_BLE_GetRssiPeer(uint8_t  bdHandle);
 496:Generated_Source\PSoC6\pdl\middleware\ble/cy_ble_gap.h **** #endif /* (CY_BLE_GAP_ROLE_PERIPHERAL || CY_BLE_GAP_ROLE_CENTRAL) */
 497:Generated_Source\PSoC6\pdl\middleware\ble/cy_ble_gap.h **** /** @} group_ble_common_api_functions */
 498:Generated_Source\PSoC6\pdl\middleware\ble/cy_ble_gap.h **** 
 499:Generated_Source\PSoC6\pdl\middleware\ble/cy_ble_gap.h **** /**
 500:Generated_Source\PSoC6\pdl\middleware\ble/cy_ble_gap.h ****  * \addtogroup group_ble_common_api_gap_peripheral_functions
 501:Generated_Source\PSoC6\pdl\middleware\ble/cy_ble_gap.h ****  * @{
 502:Generated_Source\PSoC6\pdl\middleware\ble/cy_ble_gap.h ****  */
 503:Generated_Source\PSoC6\pdl\middleware\ble/cy_ble_gap.h ****  
 504:Generated_Source\PSoC6\pdl\middleware\ble/cy_ble_gap.h **** #if (CY_BLE_GAP_ROLE_PERIPHERAL || CY_BLE_GAP_ROLE_BROADCASTER)
 505:Generated_Source\PSoC6\pdl\middleware\ble/cy_ble_gap.h **** cy_en_ble_api_result_t Cy_BLE_GAPP_StartAdvertisement(uint8_t advertisingIntervalType, uint8_t adve
 506:Generated_Source\PSoC6\pdl\middleware\ble/cy_ble_gap.h **** cy_en_ble_api_result_t Cy_BLE_GAPP_StopAdvertisement(void);
 507:Generated_Source\PSoC6\pdl\middleware\ble/cy_ble_gap.h **** 
 508:Generated_Source\PSoC6\pdl\middleware\ble/cy_ble_gap.h **** /** \cond IGNORE */
 509:Generated_Source\PSoC6\pdl\middleware\ble/cy_ble_gap.h **** void Cy_BLE_ChangeAdDeviceAddress(const cy_stc_ble_gap_bd_addr_t* bdAddr, uint8_t dest);
 510:Generated_Source\PSoC6\pdl\middleware\ble/cy_ble_gap.h **** /** \endcond */
 511:Generated_Source\PSoC6\pdl\middleware\ble/cy_ble_gap.h **** 
 512:Generated_Source\PSoC6\pdl\middleware\ble/cy_ble_gap.h **** #endif /* CY_BLE_GAP_ROLE_PERIPHERAL */
 513:Generated_Source\PSoC6\pdl\middleware\ble/cy_ble_gap.h **** 
 514:Generated_Source\PSoC6\pdl\middleware\ble/cy_ble_gap.h **** /** @} group_ble_common_api_gap_peripheral_functions */
 515:Generated_Source\PSoC6\pdl\middleware\ble/cy_ble_gap.h **** 
 516:Generated_Source\PSoC6\pdl\middleware\ble/cy_ble_gap.h **** /**
 517:Generated_Source\PSoC6\pdl\middleware\ble/cy_ble_gap.h ****  * \addtogroup group_ble_common_api_gap_central_functions
ARM GAS  C:\Users\salaz\AppData\Local\Temp\ccu2LhKM.s 			page 44


 518:Generated_Source\PSoC6\pdl\middleware\ble/cy_ble_gap.h ****  * @{
 519:Generated_Source\PSoC6\pdl\middleware\ble/cy_ble_gap.h ****  */
 520:Generated_Source\PSoC6\pdl\middleware\ble/cy_ble_gap.h ****  
 521:Generated_Source\PSoC6\pdl\middleware\ble/cy_ble_gap.h **** #if (CY_BLE_GAP_ROLE_CENTRAL || CY_BLE_GAP_ROLE_OBSERVER)
 522:Generated_Source\PSoC6\pdl\middleware\ble/cy_ble_gap.h **** cy_en_ble_api_result_t Cy_BLE_GAPC_StartScan(uint8_t scanningIntervalType, uint8_t scanParamIndex);
 523:Generated_Source\PSoC6\pdl\middleware\ble/cy_ble_gap.h **** cy_en_ble_api_result_t Cy_BLE_GAPC_StopScan(void);
 524:Generated_Source\PSoC6\pdl\middleware\ble/cy_ble_gap.h **** #endif /* CY_BLE_GAP_ROLE_CENTRAL || CY_BLE_GAP_ROLE_OBSERVER */
 525:Generated_Source\PSoC6\pdl\middleware\ble/cy_ble_gap.h **** 
 526:Generated_Source\PSoC6\pdl\middleware\ble/cy_ble_gap.h **** #if (CY_BLE_GAP_ROLE_CENTRAL)
 527:Generated_Source\PSoC6\pdl\middleware\ble/cy_ble_gap.h **** cy_en_ble_api_result_t Cy_BLE_GAPC_ConnectDevice(const cy_stc_ble_gap_bd_addr_t * address, uint8_t 
 528:Generated_Source\PSoC6\pdl\middleware\ble/cy_ble_gap.h **** cy_en_ble_api_result_t Cy_BLE_GAPC_CancelDeviceConnection(void);
 529:Generated_Source\PSoC6\pdl\middleware\ble/cy_ble_gap.h **** #endif /* CY_BLE_GAP_ROLE_CENTRAL */
 530:Generated_Source\PSoC6\pdl\middleware\ble/cy_ble_gap.h **** 
 531:Generated_Source\PSoC6\pdl\middleware\ble/cy_ble_gap.h **** /** @} group_ble_common_api_gap_central_functions */
 532:Generated_Source\PSoC6\pdl\middleware\ble/cy_ble_gap.h **** 
 533:Generated_Source\PSoC6\pdl\middleware\ble/cy_ble_gap.h **** /***************************************
 534:Generated_Source\PSoC6\pdl\middleware\ble/cy_ble_gap.h **** * External data references
 535:Generated_Source\PSoC6\pdl\middleware\ble/cy_ble_gap.h **** ***************************************/
 536:Generated_Source\PSoC6\pdl\middleware\ble/cy_ble_gap.h **** extern volatile uint8_t cy_ble_eventHandlerFlag;
 537:Generated_Source\PSoC6\pdl\middleware\ble/cy_ble_gap.h **** extern cy_stc_ble_gap_bd_addr_t *cy_ble_sflashDeviceAddress;
 538:Generated_Source\PSoC6\pdl\middleware\ble/cy_ble_gap.h **** extern cy_stc_ble_gap_bd_addr_t cy_ble_deviceAddress;
 539:Generated_Source\PSoC6\pdl\middleware\ble/cy_ble_gap.h **** extern cy_en_ble_state_t cy_ble_state;
 540:Generated_Source\PSoC6\pdl\middleware\ble/cy_ble_gap.h **** 
 541:Generated_Source\PSoC6\pdl\middleware\ble/cy_ble_gap.h **** #if ((CY_BLE_GAP_ROLE_PERIPHERAL || CY_BLE_GAP_ROLE_CENTRAL))
 542:Generated_Source\PSoC6\pdl\middleware\ble/cy_ble_gap.h **** extern cy_stc_ble_gap_auth_info_t cy_ble_authInfo[CY_BLE_AUTH_INFO_COUNT];
 543:Generated_Source\PSoC6\pdl\middleware\ble/cy_ble_gap.h **** #endif /* ((CY_BLE_GAP_ROLE_PERIPHERAL || CY_BLE_GAP_ROLE_CENTRAL)) */
 544:Generated_Source\PSoC6\pdl\middleware\ble/cy_ble_gap.h **** 
 545:Generated_Source\PSoC6\pdl\middleware\ble/cy_ble_gap.h **** #if (CY_BLE_GAP_ROLE_PERIPHERAL || CY_BLE_GAP_ROLE_BROADCASTER)
 546:Generated_Source\PSoC6\pdl\middleware\ble/cy_ble_gap.h **** extern cy_en_ble_adv_state_t cy_ble_advState;
 547:Generated_Source\PSoC6\pdl\middleware\ble/cy_ble_gap.h **** extern uint8_t cy_ble_advIndex;
 548:Generated_Source\PSoC6\pdl\middleware\ble/cy_ble_gap.h **** #endif  /* (CY_BLE_GAP_ROLE_PERIPHERAL || CY_BLE_GAP_ROLE_BROADCASTER) */
 549:Generated_Source\PSoC6\pdl\middleware\ble/cy_ble_gap.h **** 
 550:Generated_Source\PSoC6\pdl\middleware\ble/cy_ble_gap.h **** #if (CY_BLE_GAP_ROLE_CENTRAL || CY_BLE_GAP_ROLE_OBSERVER)
 551:Generated_Source\PSoC6\pdl\middleware\ble/cy_ble_gap.h **** extern cy_en_ble_scan_state_t cy_ble_scanState;
 552:Generated_Source\PSoC6\pdl\middleware\ble/cy_ble_gap.h **** extern uint8_t cy_ble_scanIndex;
 553:Generated_Source\PSoC6\pdl\middleware\ble/cy_ble_gap.h **** #endif /* (CY_BLE_GAP_ROLE_CENTRAL || CY_BLE_GAP_ROLE_OBSERVER) */
 554:Generated_Source\PSoC6\pdl\middleware\ble/cy_ble_gap.h **** 
 555:Generated_Source\PSoC6\pdl\middleware\ble/cy_ble_gap.h **** #if ((CY_BLE_GAP_ROLE_PERIPHERAL || CY_BLE_GAP_ROLE_CENTRAL))
 556:Generated_Source\PSoC6\pdl\middleware\ble/cy_ble_gap.h **** extern cy_stc_ble_conn_handle_t cy_ble_connHandle[CY_BLE_CONN_COUNT];
 557:Generated_Source\PSoC6\pdl\middleware\ble/cy_ble_gap.h **** extern cy_en_ble_conn_state_t cy_ble_connState[CY_BLE_CONN_COUNT];
 558:Generated_Source\PSoC6\pdl\middleware\ble/cy_ble_gap.h **** 
 559:Generated_Source\PSoC6\pdl\middleware\ble/cy_ble_gap.h **** extern volatile uint8_t cy_ble_devConnRole[CY_BLE_CONN_COUNT];                                     
 560:Generated_Source\PSoC6\pdl\middleware\ble/cy_ble_gap.h **** extern volatile bool cy_ble_pairStatus[CY_BLE_CONN_COUNT];
 561:Generated_Source\PSoC6\pdl\middleware\ble/cy_ble_gap.h **** 
 562:Generated_Source\PSoC6\pdl\middleware\ble/cy_ble_gap.h **** #endif /* ((CY_BLE_GAP_ROLE_PERIPHERAL || CY_BLE_GAP_ROLE_CENTRAL)) */
 563:Generated_Source\PSoC6\pdl\middleware\ble/cy_ble_gap.h **** 
 564:Generated_Source\PSoC6\pdl\middleware\ble/cy_ble_gap.h **** #if (CY_BLE_GAP_ROLE_CENTRAL || CY_BLE_GAP_ROLE_OBSERVER)
 565:Generated_Source\PSoC6\pdl\middleware\ble/cy_ble_gap.h **** extern cy_stc_ble_gapc_disc_info_t cy_ble_discoveryInfo[CY_BLE_GAPC_CONF_COUNT];
 566:Generated_Source\PSoC6\pdl\middleware\ble/cy_ble_gap.h **** #endif /* CY_BLE_GAP_ROLE_CENTRAL || CY_BLE_GAP_ROLE_OBSERVER */
 567:Generated_Source\PSoC6\pdl\middleware\ble/cy_ble_gap.h **** 
 568:Generated_Source\PSoC6\pdl\middleware\ble/cy_ble_gap.h **** #if (CY_BLE_GAP_ROLE_CENTRAL)
 569:Generated_Source\PSoC6\pdl\middleware\ble/cy_ble_gap.h **** extern cy_stc_ble_gapc_conn_info_t cy_ble_connectionParameters;
 570:Generated_Source\PSoC6\pdl\middleware\ble/cy_ble_gap.h **** extern cy_stc_ble_timer_info_t cy_ble_connectingTimeout;
 571:Generated_Source\PSoC6\pdl\middleware\ble/cy_ble_gap.h **** #endif /* CY_BLE_GAP_ROLE_CENTRAL */
 572:Generated_Source\PSoC6\pdl\middleware\ble/cy_ble_gap.h **** 
 573:Generated_Source\PSoC6\pdl\middleware\ble/cy_ble_gap.h **** #if (CY_BLE_GAP_ROLE_PERIPHERAL || CY_BLE_GAP_ROLE_BROADCASTER)
 574:Generated_Source\PSoC6\pdl\middleware\ble/cy_ble_gap.h **** extern cy_stc_ble_gapp_disc_mode_info_t cy_ble_discoveryModeInfo[CY_BLE_GAPP_CONF_COUNT];
ARM GAS  C:\Users\salaz\AppData\Local\Temp\ccu2LhKM.s 			page 45


 575:Generated_Source\PSoC6\pdl\middleware\ble/cy_ble_gap.h **** extern cy_stc_ble_gapp_disc_param_t cy_ble_discoveryParam[CY_BLE_GAPP_CONF_COUNT];
 576:Generated_Source\PSoC6\pdl\middleware\ble/cy_ble_gap.h **** extern cy_stc_ble_gapp_disc_data_t cy_ble_discoveryData[CY_BLE_GAPP_CONF_COUNT];
 577:Generated_Source\PSoC6\pdl\middleware\ble/cy_ble_gap.h **** extern cy_stc_ble_gapp_scan_rsp_data_t cy_ble_scanRspData[CY_BLE_GAPP_CONF_COUNT];
 578:Generated_Source\PSoC6\pdl\middleware\ble/cy_ble_gap.h **** #endif /* CY_BLE_GAP_ROLE_PERIPHERAL || CY_BLE_GAP_ROLE_BROADCASTER */
 579:Generated_Source\PSoC6\pdl\middleware\ble/cy_ble_gap.h **** 
 580:Generated_Source\PSoC6\pdl\middleware\ble/cy_ble_gap.h **** #if ((CY_BLE_GAP_ROLE_PERIPHERAL || CY_BLE_GAP_ROLE_CENTRAL) && (CY_BLE_BONDING_REQUIREMENT == CY_B
 581:Generated_Source\PSoC6\pdl\middleware\ble/cy_ble_gap.h **** 
 582:Generated_Source\PSoC6\pdl\middleware\ble/cy_ble_gap.h **** /**
 583:Generated_Source\PSoC6\pdl\middleware\ble/cy_ble_gap.h ****  * \addtogroup group_ble_common_api_global_variables
 584:Generated_Source\PSoC6\pdl\middleware\ble/cy_ble_gap.h ****  * @{
 585:Generated_Source\PSoC6\pdl\middleware\ble/cy_ble_gap.h ****  */  
 586:Generated_Source\PSoC6\pdl\middleware\ble/cy_ble_gap.h **** /** This is a two-bit variable that contains status of pending write to flash operation.
 587:Generated_Source\PSoC6\pdl\middleware\ble/cy_ble_gap.h ****  * This variable is initialized to zero in Cy_BLE_Init().
 588:Generated_Source\PSoC6\pdl\middleware\ble/cy_ble_gap.h ****  * CY_BLE_PENDING_CCCD_FLASH_WRITE_BIT flag is set after write to CCCD event when a
 589:Generated_Source\PSoC6\pdl\middleware\ble/cy_ble_gap.h ****  * peer device supports bonding (cy_ble_peerBonding[eventParam->connHandle.attId] == CY_BLE_GAP_BON
 590:Generated_Source\PSoC6\pdl\middleware\ble/cy_ble_gap.h ****  * CY_BLE_PENDING_STACK_FLASH_WRITE_BIT flag is set after CY_BLE_EVT_PENDING_FLASH_WRITE event.
 591:Generated_Source\PSoC6\pdl\middleware\ble/cy_ble_gap.h ****  * Cy_BLE_StoreBondingData() should be called to store pending bonding data.
 592:Generated_Source\PSoC6\pdl\middleware\ble/cy_ble_gap.h ****  * This function automatically clears pending bits after write operation is complete.
 593:Generated_Source\PSoC6\pdl\middleware\ble/cy_ble_gap.h ****  */
 594:Generated_Source\PSoC6\pdl\middleware\ble/cy_ble_gap.h **** extern uint8_t cy_ble_pendingFlashWrite;
 595:Generated_Source\PSoC6\pdl\middleware\ble/cy_ble_gap.h **** /** @} group_ble_common_api_global_variables */
 596:Generated_Source\PSoC6\pdl\middleware\ble/cy_ble_gap.h ****     
 597:Generated_Source\PSoC6\pdl\middleware\ble/cy_ble_gap.h **** /** Bonding type setting of peer device, CY_BLE_GAP_BONDING_NONE or CY_BLE_GAP_BONDING.
 598:Generated_Source\PSoC6\pdl\middleware\ble/cy_ble_gap.h ****  * It is initialized after pairing with peer device and used for cy_ble_pendingFlashWrite variable
 599:Generated_Source\PSoC6\pdl\middleware\ble/cy_ble_gap.h ****  * setting.
 600:Generated_Source\PSoC6\pdl\middleware\ble/cy_ble_gap.h ****  */
 601:Generated_Source\PSoC6\pdl\middleware\ble/cy_ble_gap.h **** extern uint8_t cy_ble_peerBonding[CY_BLE_CONN_COUNT];
 602:Generated_Source\PSoC6\pdl\middleware\ble/cy_ble_gap.h **** 
 603:Generated_Source\PSoC6\pdl\middleware\ble/cy_ble_gap.h **** #endif  /* (CY_BLE_BONDING_REQUIREMENT == CY_BLE_BONDING_YES) */
 604:Generated_Source\PSoC6\pdl\middleware\ble/cy_ble_gap.h **** 
 605:Generated_Source\PSoC6\pdl\middleware\ble/cy_ble_gap.h **** 
 606:Generated_Source\PSoC6\pdl\middleware\ble/cy_ble_gap.h **** /***************************************
 607:Generated_Source\PSoC6\pdl\middleware\ble/cy_ble_gap.h **** * Exported Functions (MACROS)
 608:Generated_Source\PSoC6\pdl\middleware\ble/cy_ble_gap.h **** ***************************************/
 609:Generated_Source\PSoC6\pdl\middleware\ble/cy_ble_gap.h **** #if ((CY_BLE_GAP_ROLE_PERIPHERAL || CY_BLE_GAP_ROLE_CENTRAL))
 610:Generated_Source\PSoC6\pdl\middleware\ble/cy_ble_gap.h ****    
 611:Generated_Source\PSoC6\pdl\middleware\ble/cy_ble_gap.h **** /******************************************************************************
 612:Generated_Source\PSoC6\pdl\middleware\ble/cy_ble_gap.h **** * Function Name: Cy_BLE_GetConnHandleIdx
 613:Generated_Source\PSoC6\pdl\middleware\ble/cy_ble_gap.h **** ***************************************************************************//**
 614:Generated_Source\PSoC6\pdl\middleware\ble/cy_ble_gap.h **** *
 615:Generated_Source\PSoC6\pdl\middleware\ble/cy_ble_gap.h **** *  This function searches the array of connection handles (cy_ble_connHandle[])
 616:Generated_Source\PSoC6\pdl\middleware\ble/cy_ble_gap.h **** *  for the location (index) of a handle that corresponds to the input parameter
 617:Generated_Source\PSoC6\pdl\middleware\ble/cy_ble_gap.h **** *  connHandle. bdHandle.
 618:Generated_Source\PSoC6\pdl\middleware\ble/cy_ble_gap.h **** *
 619:Generated_Source\PSoC6\pdl\middleware\ble/cy_ble_gap.h **** *  This function is designated for internal usage. 
 620:Generated_Source\PSoC6\pdl\middleware\ble/cy_ble_gap.h **** *    
 621:Generated_Source\PSoC6\pdl\middleware\ble/cy_ble_gap.h **** *  \param connHandle: The connection handle.
 622:Generated_Source\PSoC6\pdl\middleware\ble/cy_ble_gap.h **** *
 623:Generated_Source\PSoC6\pdl\middleware\ble/cy_ble_gap.h **** *  \return
 624:Generated_Source\PSoC6\pdl\middleware\ble/cy_ble_gap.h **** *  retValue: the index of connHandle  
 625:Generated_Source\PSoC6\pdl\middleware\ble/cy_ble_gap.h **** *    
 626:Generated_Source\PSoC6\pdl\middleware\ble/cy_ble_gap.h **** ******************************************************************************/
 627:Generated_Source\PSoC6\pdl\middleware\ble/cy_ble_gap.h **** __STATIC_INLINE uint8_t Cy_BLE_GetConnHandleIdx(cy_stc_ble_conn_handle_t connHandle)
 628:Generated_Source\PSoC6\pdl\middleware\ble/cy_ble_gap.h **** {
 629:Generated_Source\PSoC6\pdl\middleware\ble/cy_ble_gap.h ****     uint8_t idx;
 630:Generated_Source\PSoC6\pdl\middleware\ble/cy_ble_gap.h ****     uint8_t retValue = CY_BLE_CONN_COUNT;
 631:Generated_Source\PSoC6\pdl\middleware\ble/cy_ble_gap.h **** 
ARM GAS  C:\Users\salaz\AppData\Local\Temp\ccu2LhKM.s 			page 46


 632:Generated_Source\PSoC6\pdl\middleware\ble/cy_ble_gap.h ****     for(idx = 0u; idx < CY_BLE_CONN_COUNT; idx++)
 633:Generated_Source\PSoC6\pdl\middleware\ble/cy_ble_gap.h ****     {
 634:Generated_Source\PSoC6\pdl\middleware\ble/cy_ble_gap.h ****         if(cy_ble_connHandle[idx].bdHandle == connHandle.bdHandle)
 635:Generated_Source\PSoC6\pdl\middleware\ble/cy_ble_gap.h ****         {
 636:Generated_Source\PSoC6\pdl\middleware\ble/cy_ble_gap.h ****             retValue = idx;
 637:Generated_Source\PSoC6\pdl\middleware\ble/cy_ble_gap.h ****             break;
 638:Generated_Source\PSoC6\pdl\middleware\ble/cy_ble_gap.h ****         }
 639:Generated_Source\PSoC6\pdl\middleware\ble/cy_ble_gap.h ****     }
 640:Generated_Source\PSoC6\pdl\middleware\ble/cy_ble_gap.h ****     if(retValue == CY_BLE_CONN_COUNT)
 641:Generated_Source\PSoC6\pdl\middleware\ble/cy_ble_gap.h ****     {
 642:Generated_Source\PSoC6\pdl\middleware\ble/cy_ble_gap.h ****         /* HALT in debug mode */
 643:Generated_Source\PSoC6\pdl\middleware\ble/cy_ble_gap.h ****         CY_ASSERT(retValue != CY_BLE_CONN_COUNT);
 644:Generated_Source\PSoC6\pdl\middleware\ble/cy_ble_gap.h ****         retValue = 0u;
 645:Generated_Source\PSoC6\pdl\middleware\ble/cy_ble_gap.h ****     }
 646:Generated_Source\PSoC6\pdl\middleware\ble/cy_ble_gap.h **** 
 647:Generated_Source\PSoC6\pdl\middleware\ble/cy_ble_gap.h ****     return(retValue);
 648:Generated_Source\PSoC6\pdl\middleware\ble/cy_ble_gap.h **** }
 649:Generated_Source\PSoC6\pdl\middleware\ble/cy_ble_gap.h **** #endif  /* ((CY_BLE_GAP_ROLE_PERIPHERAL || CY_BLE_GAP_ROLE_CENTRAL)) */
 650:Generated_Source\PSoC6\pdl\middleware\ble/cy_ble_gap.h **** 
 651:Generated_Source\PSoC6\pdl\middleware\ble/cy_ble_gap.h **** /**
 652:Generated_Source\PSoC6\pdl\middleware\ble/cy_ble_gap.h ****  * \addtogroup group_ble_common_api_functions
 653:Generated_Source\PSoC6\pdl\middleware\ble/cy_ble_gap.h ****  * @{
 654:Generated_Source\PSoC6\pdl\middleware\ble/cy_ble_gap.h **** */
 655:Generated_Source\PSoC6\pdl\middleware\ble/cy_ble_gap.h **** /******************************************************************************
 656:Generated_Source\PSoC6\pdl\middleware\ble/cy_ble_gap.h **** * Function Name: Cy_BLE_GetState
 657:Generated_Source\PSoC6\pdl\middleware\ble/cy_ble_gap.h **** ***************************************************************************//**
 658:Generated_Source\PSoC6\pdl\middleware\ble/cy_ble_gap.h **** *
 659:Generated_Source\PSoC6\pdl\middleware\ble/cy_ble_gap.h **** *  This function is used to determine the current state of the BLE Middleware
 660:Generated_Source\PSoC6\pdl\middleware\ble/cy_ble_gap.h **** *  state machine :
 661:Generated_Source\PSoC6\pdl\middleware\ble/cy_ble_gap.h **** *
 662:Generated_Source\PSoC6\pdl\middleware\ble/cy_ble_gap.h **** *  \image html ble_middleware_state_machine.png
 663:Generated_Source\PSoC6\pdl\middleware\ble/cy_ble_gap.h **** *
 664:Generated_Source\PSoC6\pdl\middleware\ble/cy_ble_gap.h **** *  The BLE Middleware is in the state #CY_BLE_STATE_INITIALIZING after the 
 665:Generated_Source\PSoC6\pdl\middleware\ble/cy_ble_gap.h **** *  Cy_BLE_Enable() is called and until the #CY_BLE_EVT_STACK_ON event is not 
 666:Generated_Source\PSoC6\pdl\middleware\ble/cy_ble_gap.h **** *  received. After successful initialization the state is changed to 
 667:Generated_Source\PSoC6\pdl\middleware\ble/cy_ble_gap.h **** *  #CY_BLE_STATE_ON.
 668:Generated_Source\PSoC6\pdl\middleware\ble/cy_ble_gap.h **** *
 669:Generated_Source\PSoC6\pdl\middleware\ble/cy_ble_gap.h **** *  The BLE Middleware is in the state #CY_BLE_STATE_STOPPED 
 670:Generated_Source\PSoC6\pdl\middleware\ble/cy_ble_gap.h **** *  when the #CY_BLE_EVT_STACK_SHUTDOWN_COMPLETE event is received (after the 
 671:Generated_Source\PSoC6\pdl\middleware\ble/cy_ble_gap.h **** *  Cy_BLE_Disable() is called).
 672:Generated_Source\PSoC6\pdl\middleware\ble/cy_ble_gap.h **** *  
 673:Generated_Source\PSoC6\pdl\middleware\ble/cy_ble_gap.h **** *  For GAP Central role when the Cy_BLE_GAPC_ConnectDevice() is called, the state
 674:Generated_Source\PSoC6\pdl\middleware\ble/cy_ble_gap.h **** *  is changed to #CY_BLE_STATE_CONNECTING. After successful connection indicated
 675:Generated_Source\PSoC6\pdl\middleware\ble/cy_ble_gap.h **** *  by #CY_BLE_EVT_GAP_DEVICE_CONNECTED or #CY_BLE_EVT_GAP_ENHANCE_CONN_COMPLETE
 676:Generated_Source\PSoC6\pdl\middleware\ble/cy_ble_gap.h **** *  event or the timeout indicated by #CY_BLE_EVT_TIMEOUT event, the state is
 677:Generated_Source\PSoC6\pdl\middleware\ble/cy_ble_gap.h **** *  changed to #CY_BLE_STATE_ON.
 678:Generated_Source\PSoC6\pdl\middleware\ble/cy_ble_gap.h **** *
 679:Generated_Source\PSoC6\pdl\middleware\ble/cy_ble_gap.h **** * \return
 680:Generated_Source\PSoC6\pdl\middleware\ble/cy_ble_gap.h **** * \ref cy_en_ble_state_t : The current BLE Middleware state. The following are 
 681:Generated_Source\PSoC6\pdl\middleware\ble/cy_ble_gap.h **** *                         possible states:
 682:Generated_Source\PSoC6\pdl\middleware\ble/cy_ble_gap.h **** *
 683:Generated_Source\PSoC6\pdl\middleware\ble/cy_ble_gap.h **** *   State                      | Description
 684:Generated_Source\PSoC6\pdl\middleware\ble/cy_ble_gap.h **** *   -------------------------- | -----------
 685:Generated_Source\PSoC6\pdl\middleware\ble/cy_ble_gap.h **** *   CY_BLE_STATE_STOPPED       | BLE is turned off.
 686:Generated_Source\PSoC6\pdl\middleware\ble/cy_ble_gap.h **** *   CY_BLE_STATE_INITIALIZING  | BLE is initializing (waiting for #CY_BLE_EVT_STACK_ON event).
 687:Generated_Source\PSoC6\pdl\middleware\ble/cy_ble_gap.h **** *   CY_BLE_STATE_ON            | BLE is turned on.
 688:Generated_Source\PSoC6\pdl\middleware\ble/cy_ble_gap.h **** *   CY_BLE_STATE_CONNECTING    | BLE is connecting.
ARM GAS  C:\Users\salaz\AppData\Local\Temp\ccu2LhKM.s 			page 47


 689:Generated_Source\PSoC6\pdl\middleware\ble/cy_ble_gap.h **** 
 690:Generated_Source\PSoC6\pdl\middleware\ble/cy_ble_gap.h **** ******************************************************************************/
 691:Generated_Source\PSoC6\pdl\middleware\ble/cy_ble_gap.h **** #define Cy_BLE_GetState()    (cy_ble_state)
 692:Generated_Source\PSoC6\pdl\middleware\ble/cy_ble_gap.h **** 
 693:Generated_Source\PSoC6\pdl\middleware\ble/cy_ble_gap.h **** /** \cond IGNORE */
 694:Generated_Source\PSoC6\pdl\middleware\ble/cy_ble_gap.h **** /******************************************************************************
 695:Generated_Source\PSoC6\pdl\middleware\ble/cy_ble_gap.h **** * Function Name: Cy_BLE_SetState
 696:Generated_Source\PSoC6\pdl\middleware\ble/cy_ble_gap.h **** ***************************************************************************//**
 697:Generated_Source\PSoC6\pdl\middleware\ble/cy_ble_gap.h **** *
 698:Generated_Source\PSoC6\pdl\middleware\ble/cy_ble_gap.h **** *  Used to set the BLE Middleware state machine's state.
 699:Generated_Source\PSoC6\pdl\middleware\ble/cy_ble_gap.h **** *
 700:Generated_Source\PSoC6\pdl\middleware\ble/cy_ble_gap.h **** *  \param state: The desired state to which the event handler's
 701:Generated_Source\PSoC6\pdl\middleware\ble/cy_ble_gap.h **** *   state machine should be set. The parameter state is a variable
 702:Generated_Source\PSoC6\pdl\middleware\ble/cy_ble_gap.h **** *   of type cy_en_ble_state_t.
 703:Generated_Source\PSoC6\pdl\middleware\ble/cy_ble_gap.h **** *
 704:Generated_Source\PSoC6\pdl\middleware\ble/cy_ble_gap.h **** * \return
 705:Generated_Source\PSoC6\pdl\middleware\ble/cy_ble_gap.h **** *  None
 706:Generated_Source\PSoC6\pdl\middleware\ble/cy_ble_gap.h **** *
 707:Generated_Source\PSoC6\pdl\middleware\ble/cy_ble_gap.h **** ******************************************************************************/
 708:Generated_Source\PSoC6\pdl\middleware\ble/cy_ble_gap.h **** #define Cy_BLE_SetState(state)    (cy_ble_state = (state))
 709:Generated_Source\PSoC6\pdl\middleware\ble/cy_ble_gap.h **** /** \endcond */
 710:Generated_Source\PSoC6\pdl\middleware\ble/cy_ble_gap.h **** 
 711:Generated_Source\PSoC6\pdl\middleware\ble/cy_ble_gap.h **** #if (CY_BLE_GAP_ROLE_PERIPHERAL || CY_BLE_GAP_ROLE_BROADCASTER)
 712:Generated_Source\PSoC6\pdl\middleware\ble/cy_ble_gap.h **** 
 713:Generated_Source\PSoC6\pdl\middleware\ble/cy_ble_gap.h **** 
 714:Generated_Source\PSoC6\pdl\middleware\ble/cy_ble_gap.h **** /******************************************************************************
 715:Generated_Source\PSoC6\pdl\middleware\ble/cy_ble_gap.h **** * Function Name: Cy_BLE_GetAdvertisementState
 716:Generated_Source\PSoC6\pdl\middleware\ble/cy_ble_gap.h **** ***************************************************************************//**
 717:Generated_Source\PSoC6\pdl\middleware\ble/cy_ble_gap.h **** *    
 718:Generated_Source\PSoC6\pdl\middleware\ble/cy_ble_gap.h **** *  This function returns the state of the link layer hardware advertisement
 719:Generated_Source\PSoC6\pdl\middleware\ble/cy_ble_gap.h **** *  engine.
 720:Generated_Source\PSoC6\pdl\middleware\ble/cy_ble_gap.h **** *
 721:Generated_Source\PSoC6\pdl\middleware\ble/cy_ble_gap.h **** *  \image html ble_advertisement_state_machine.png
 722:Generated_Source\PSoC6\pdl\middleware\ble/cy_ble_gap.h **** *
 723:Generated_Source\PSoC6\pdl\middleware\ble/cy_ble_gap.h **** *  When Cy_BLE_GAPP_StartAdvertisement() is called, the state is set to
 724:Generated_Source\PSoC6\pdl\middleware\ble/cy_ble_gap.h **** *  #CY_BLE_ADV_STATE_ADV_INITIATED. It automatically changes to
 725:Generated_Source\PSoC6\pdl\middleware\ble/cy_ble_gap.h **** *  #CY_BLE_ADV_STATE_ADVERTISING when #CY_BLE_EVT_GAPP_ADVERTISEMENT_START_STOP
 726:Generated_Source\PSoC6\pdl\middleware\ble/cy_ble_gap.h **** *  event is received. When Cy_BLE_GAPP_StopAdvertisement() is called, the
 727:Generated_Source\PSoC6\pdl\middleware\ble/cy_ble_gap.h **** *  state is set to #CY_BLE_ADV_STATE_STOP_INITIATED. It automatically changes
 728:Generated_Source\PSoC6\pdl\middleware\ble/cy_ble_gap.h **** *  to #CY_BLE_ADV_STATE_STOPPED when the #CY_BLE_EVT_GAPP_ADVERTISEMENT_START_STOP
 729:Generated_Source\PSoC6\pdl\middleware\ble/cy_ble_gap.h **** *  event is received.
 730:Generated_Source\PSoC6\pdl\middleware\ble/cy_ble_gap.h **** *
 731:Generated_Source\PSoC6\pdl\middleware\ble/cy_ble_gap.h **** * \return
 732:Generated_Source\PSoC6\pdl\middleware\ble/cy_ble_gap.h **** * \ref cy_en_ble_adv_state_t :The current advertising state. The following are 
 733:Generated_Source\PSoC6\pdl\middleware\ble/cy_ble_gap.h **** *                              possible states.
 734:Generated_Source\PSoC6\pdl\middleware\ble/cy_ble_gap.h **** *
 735:Generated_Source\PSoC6\pdl\middleware\ble/cy_ble_gap.h **** *               State                |         Description
 736:Generated_Source\PSoC6\pdl\middleware\ble/cy_ble_gap.h **** *   -------------------------------- | -----------------------------
 737:Generated_Source\PSoC6\pdl\middleware\ble/cy_ble_gap.h **** *   CY_BLE_ADV_STATE_STOPPED         | Advertising is stopped.
 738:Generated_Source\PSoC6\pdl\middleware\ble/cy_ble_gap.h **** *   CY_BLE_ADV_STATE_ADV_INITIATED   | Advertising is initiated.
 739:Generated_Source\PSoC6\pdl\middleware\ble/cy_ble_gap.h **** *   CY_BLE_ADV_STATE_ADVERTISING     | Advertising is initiated.
 740:Generated_Source\PSoC6\pdl\middleware\ble/cy_ble_gap.h **** *   CY_BLE_ADV_STATE_STOP_INITIATED  | Stop advertising is initiated.
 741:Generated_Source\PSoC6\pdl\middleware\ble/cy_ble_gap.h **** *
 742:Generated_Source\PSoC6\pdl\middleware\ble/cy_ble_gap.h **** ******************************************************************************/
 743:Generated_Source\PSoC6\pdl\middleware\ble/cy_ble_gap.h **** __STATIC_INLINE cy_en_ble_adv_state_t Cy_BLE_GetAdvertisementState(void)
 744:Generated_Source\PSoC6\pdl\middleware\ble/cy_ble_gap.h **** {
 745:Generated_Source\PSoC6\pdl\middleware\ble/cy_ble_gap.h ****     return(cy_ble_advState);
ARM GAS  C:\Users\salaz\AppData\Local\Temp\ccu2LhKM.s 			page 48


 746:Generated_Source\PSoC6\pdl\middleware\ble/cy_ble_gap.h **** }
 747:Generated_Source\PSoC6\pdl\middleware\ble/cy_ble_gap.h **** 
 748:Generated_Source\PSoC6\pdl\middleware\ble/cy_ble_gap.h **** /** \cond IGNORE */
 749:Generated_Source\PSoC6\pdl\middleware\ble/cy_ble_gap.h **** /******************************************************************************
 750:Generated_Source\PSoC6\pdl\middleware\ble/cy_ble_gap.h **** * Function Name: Cy_BLE_SetAdvertisementState
 751:Generated_Source\PSoC6\pdl\middleware\ble/cy_ble_gap.h **** ***************************************************************************//**
 752:Generated_Source\PSoC6\pdl\middleware\ble/cy_ble_gap.h **** *
 753:Generated_Source\PSoC6\pdl\middleware\ble/cy_ble_gap.h **** *  Used to set the state of the link layer hardware advertisement engine.
 754:Generated_Source\PSoC6\pdl\middleware\ble/cy_ble_gap.h **** *
 755:Generated_Source\PSoC6\pdl\middleware\ble/cy_ble_gap.h **** *  \param state: The desired state.
 756:Generated_Source\PSoC6\pdl\middleware\ble/cy_ble_gap.h **** *
 757:Generated_Source\PSoC6\pdl\middleware\ble/cy_ble_gap.h **** * \return
 758:Generated_Source\PSoC6\pdl\middleware\ble/cy_ble_gap.h **** *  None
 759:Generated_Source\PSoC6\pdl\middleware\ble/cy_ble_gap.h **** *
 760:Generated_Source\PSoC6\pdl\middleware\ble/cy_ble_gap.h **** ******************************************************************************/
 761:Generated_Source\PSoC6\pdl\middleware\ble/cy_ble_gap.h **** __STATIC_INLINE void Cy_BLE_SetAdvertisementState(cy_en_ble_adv_state_t state)
 762:Generated_Source\PSoC6\pdl\middleware\ble/cy_ble_gap.h **** {
 763:Generated_Source\PSoC6\pdl\middleware\ble/cy_ble_gap.h ****     cy_ble_advState = state;
 764:Generated_Source\PSoC6\pdl\middleware\ble/cy_ble_gap.h **** }
 765:Generated_Source\PSoC6\pdl\middleware\ble/cy_ble_gap.h **** /** \endcond */
 766:Generated_Source\PSoC6\pdl\middleware\ble/cy_ble_gap.h **** 
 767:Generated_Source\PSoC6\pdl\middleware\ble/cy_ble_gap.h **** #endif /* (CY_BLE_GAP_ROLE_PERIPHERAL || CY_BLE_GAP_ROLE_BROADCASTER) */
 768:Generated_Source\PSoC6\pdl\middleware\ble/cy_ble_gap.h **** 
 769:Generated_Source\PSoC6\pdl\middleware\ble/cy_ble_gap.h **** #if (CY_BLE_GAP_ROLE_CENTRAL || CY_BLE_GAP_ROLE_OBSERVER)
 770:Generated_Source\PSoC6\pdl\middleware\ble/cy_ble_gap.h **** 
 771:Generated_Source\PSoC6\pdl\middleware\ble/cy_ble_gap.h **** /******************************************************************************
 772:Generated_Source\PSoC6\pdl\middleware\ble/cy_ble_gap.h **** * Function Name: Cy_BLE_GetScanState
 773:Generated_Source\PSoC6\pdl\middleware\ble/cy_ble_gap.h **** ***************************************************************************//**
 774:Generated_Source\PSoC6\pdl\middleware\ble/cy_ble_gap.h **** *    
 775:Generated_Source\PSoC6\pdl\middleware\ble/cy_ble_gap.h **** *  This returns the state of the link layer hardware scan engine.
 776:Generated_Source\PSoC6\pdl\middleware\ble/cy_ble_gap.h **** *
 777:Generated_Source\PSoC6\pdl\middleware\ble/cy_ble_gap.h **** *  \image html ble_scanning_state_machine.png
 778:Generated_Source\PSoC6\pdl\middleware\ble/cy_ble_gap.h **** *   
 779:Generated_Source\PSoC6\pdl\middleware\ble/cy_ble_gap.h **** *  When Cy_BLE_GAPC_StartScan() is called the state is set to
 780:Generated_Source\PSoC6\pdl\middleware\ble/cy_ble_gap.h **** *  #CY_BLE_SCAN_STATE_SCAN_INITIATED. It automatically changes to
 781:Generated_Source\PSoC6\pdl\middleware\ble/cy_ble_gap.h **** *  #CY_BLE_SCAN_STATE_SCANNING when the #CY_BLE_EVT_GAPC_SCAN_START_STOP event is
 782:Generated_Source\PSoC6\pdl\middleware\ble/cy_ble_gap.h **** *  received. 
 783:Generated_Source\PSoC6\pdl\middleware\ble/cy_ble_gap.h **** *  When Cy_BLE_GAPC_StopScan() is called, the state is set to
 784:Generated_Source\PSoC6\pdl\middleware\ble/cy_ble_gap.h **** *  #CY_BLE_SCAN_STATE_STOP_INITIATED. It automatically changes to
 785:Generated_Source\PSoC6\pdl\middleware\ble/cy_ble_gap.h **** *  #CY_BLE_SCAN_STATE_STOPPED when the #CY_BLE_EVT_GAPC_SCAN_START_STOP event is
 786:Generated_Source\PSoC6\pdl\middleware\ble/cy_ble_gap.h **** *  received.
 787:Generated_Source\PSoC6\pdl\middleware\ble/cy_ble_gap.h **** *
 788:Generated_Source\PSoC6\pdl\middleware\ble/cy_ble_gap.h **** *  \return
 789:Generated_Source\PSoC6\pdl\middleware\ble/cy_ble_gap.h **** *  \ref cy_en_ble_scan_state_t : The current scan state. The following are 
 790:Generated_Source\PSoC6\pdl\middleware\ble/cy_ble_gap.h **** *                                possible states.
 791:Generated_Source\PSoC6\pdl\middleware\ble/cy_ble_gap.h **** *
 792:Generated_Source\PSoC6\pdl\middleware\ble/cy_ble_gap.h **** *               State                |         Description
 793:Generated_Source\PSoC6\pdl\middleware\ble/cy_ble_gap.h **** *   -------------------------------- | -----------------------------
 794:Generated_Source\PSoC6\pdl\middleware\ble/cy_ble_gap.h **** *   CY_BLE_SCAN_STATE_STOPPED        | Scanning is stopped.
 795:Generated_Source\PSoC6\pdl\middleware\ble/cy_ble_gap.h **** *   CY_BLE_SCAN_STATE_SCAN_INITIATED | Scanning is initiated.
 796:Generated_Source\PSoC6\pdl\middleware\ble/cy_ble_gap.h **** *   CY_BLE_SCAN_STATE_SCANNING       | Scanning process.
 797:Generated_Source\PSoC6\pdl\middleware\ble/cy_ble_gap.h **** *   CY_BLE_SCAN_STATE_STOP_INITIATED | Stop scanning is initiated.
 798:Generated_Source\PSoC6\pdl\middleware\ble/cy_ble_gap.h **** *
 799:Generated_Source\PSoC6\pdl\middleware\ble/cy_ble_gap.h **** ******************************************************************************/
 800:Generated_Source\PSoC6\pdl\middleware\ble/cy_ble_gap.h **** __STATIC_INLINE cy_en_ble_scan_state_t Cy_BLE_GetScanState(void)
 801:Generated_Source\PSoC6\pdl\middleware\ble/cy_ble_gap.h **** {
 802:Generated_Source\PSoC6\pdl\middleware\ble/cy_ble_gap.h ****     return(cy_ble_scanState);
ARM GAS  C:\Users\salaz\AppData\Local\Temp\ccu2LhKM.s 			page 49


 803:Generated_Source\PSoC6\pdl\middleware\ble/cy_ble_gap.h **** }
 804:Generated_Source\PSoC6\pdl\middleware\ble/cy_ble_gap.h **** 
 805:Generated_Source\PSoC6\pdl\middleware\ble/cy_ble_gap.h **** /** \cond IGNORE */
 806:Generated_Source\PSoC6\pdl\middleware\ble/cy_ble_gap.h **** /******************************************************************************
 807:Generated_Source\PSoC6\pdl\middleware\ble/cy_ble_gap.h **** * Function Name: Cy_BLE_SetScanState
 808:Generated_Source\PSoC6\pdl\middleware\ble/cy_ble_gap.h **** ***************************************************************************//**
 809:Generated_Source\PSoC6\pdl\middleware\ble/cy_ble_gap.h **** *
 810:Generated_Source\PSoC6\pdl\middleware\ble/cy_ble_gap.h **** *  Used to set the state of the link layer hardware scan engine.
 811:Generated_Source\PSoC6\pdl\middleware\ble/cy_ble_gap.h **** *
 812:Generated_Source\PSoC6\pdl\middleware\ble/cy_ble_gap.h **** *  \param state: The desired state.
 813:Generated_Source\PSoC6\pdl\middleware\ble/cy_ble_gap.h **** *
 814:Generated_Source\PSoC6\pdl\middleware\ble/cy_ble_gap.h **** *  \return
 815:Generated_Source\PSoC6\pdl\middleware\ble/cy_ble_gap.h **** *  None
 816:Generated_Source\PSoC6\pdl\middleware\ble/cy_ble_gap.h **** *
 817:Generated_Source\PSoC6\pdl\middleware\ble/cy_ble_gap.h **** ******************************************************************************/
 818:Generated_Source\PSoC6\pdl\middleware\ble/cy_ble_gap.h **** __STATIC_INLINE void Cy_BLE_SetScanState(cy_en_ble_scan_state_t state)
 819:Generated_Source\PSoC6\pdl\middleware\ble/cy_ble_gap.h **** {
 820:Generated_Source\PSoC6\pdl\middleware\ble/cy_ble_gap.h ****     cy_ble_scanState = state;
 821:Generated_Source\PSoC6\pdl\middleware\ble/cy_ble_gap.h **** }
 822:Generated_Source\PSoC6\pdl\middleware\ble/cy_ble_gap.h **** /** \endcond */
 823:Generated_Source\PSoC6\pdl\middleware\ble/cy_ble_gap.h **** 
 824:Generated_Source\PSoC6\pdl\middleware\ble/cy_ble_gap.h **** #endif  /* (CY_BLE_GAP_ROLE_CENTRAL || CY_BLE_GAP_ROLE_OBSERVER) */
 825:Generated_Source\PSoC6\pdl\middleware\ble/cy_ble_gap.h **** 
 826:Generated_Source\PSoC6\pdl\middleware\ble/cy_ble_gap.h ****  
 827:Generated_Source\PSoC6\pdl\middleware\ble/cy_ble_gap.h **** #if ((CY_BLE_GAP_ROLE_PERIPHERAL || CY_BLE_GAP_ROLE_CENTRAL))
 828:Generated_Source\PSoC6\pdl\middleware\ble/cy_ble_gap.h **** 
 829:Generated_Source\PSoC6\pdl\middleware\ble/cy_ble_gap.h **** /******************************************************************************
 830:Generated_Source\PSoC6\pdl\middleware\ble/cy_ble_gap.h **** * Function Name: Cy_BLE_GetConnectionState
 831:Generated_Source\PSoC6\pdl\middleware\ble/cy_ble_gap.h **** ***************************************************************************//**
 832:Generated_Source\PSoC6\pdl\middleware\ble/cy_ble_gap.h **** *  This function returns the state of the BLE link for the specified connection
 833:Generated_Source\PSoC6\pdl\middleware\ble/cy_ble_gap.h **** *  handle.
 834:Generated_Source\PSoC6\pdl\middleware\ble/cy_ble_gap.h **** *
 835:Generated_Source\PSoC6\pdl\middleware\ble/cy_ble_gap.h **** *  The state is set to #CY_BLE_CONN_STATE_CONNECTED when #CY_BLE_EVT_GATT_CONNECT_IND
 836:Generated_Source\PSoC6\pdl\middleware\ble/cy_ble_gap.h **** *  event is received with the corresponding connection handle.
 837:Generated_Source\PSoC6\pdl\middleware\ble/cy_ble_gap.h **** *  The state is set to #CY_BLE_CONN_STATE_DISCONNECTED when the
 838:Generated_Source\PSoC6\pdl\middleware\ble/cy_ble_gap.h **** *  #CY_BLE_EVT_GATT_DISCONNECT_IND event is received.
 839:Generated_Source\PSoC6\pdl\middleware\ble/cy_ble_gap.h **** *
 840:Generated_Source\PSoC6\pdl\middleware\ble/cy_ble_gap.h **** *  For GATT Client role when Cy_BLE_GATTC_StartDiscovery() is called, the state
 841:Generated_Source\PSoC6\pdl\middleware\ble/cy_ble_gap.h **** *  indicates the current flow of the discovery procedure by
 842:Generated_Source\PSoC6\pdl\middleware\ble/cy_ble_gap.h **** *  #CY_BLE_CONN_STATE_CLIENT_SRVC_DISCOVERING,
 843:Generated_Source\PSoC6\pdl\middleware\ble/cy_ble_gap.h **** *  #CY_BLE_CONN_STATE_CLIENT_INCL_DISCOVERING,
 844:Generated_Source\PSoC6\pdl\middleware\ble/cy_ble_gap.h **** *  #CY_BLE_CONN_STATE_CLIENT_CHAR_DISCOVERING,
 845:Generated_Source\PSoC6\pdl\middleware\ble/cy_ble_gap.h **** *  #CY_BLE_CONN_STATE_CLIENT_DESCR_DISCOVERING and changes to
 846:Generated_Source\PSoC6\pdl\middleware\ble/cy_ble_gap.h **** *  #CY_BLE_CONN_STATE_CLIENT_DISCOVERED when the procedure successfully completes.
 847:Generated_Source\PSoC6\pdl\middleware\ble/cy_ble_gap.h **** *
 848:Generated_Source\PSoC6\pdl\middleware\ble/cy_ble_gap.h **** *  The state changes from #CY_BLE_CONN_STATE_CLIENT_DISCOVERED to
 849:Generated_Source\PSoC6\pdl\middleware\ble/cy_ble_gap.h **** *  #CY_BLE_CONN_STATE_CLIENT_DISCONNECTED_DISCOVERED when
 850:Generated_Source\PSoC6\pdl\middleware\ble/cy_ble_gap.h **** *  the #CY_BLE_EVT_GATT_DISCONNECT_IND event is received.
 851:Generated_Source\PSoC6\pdl\middleware\ble/cy_ble_gap.h **** *  The state comes backs to #CY_BLE_CONN_STATE_CLIENT_DISCOVERED when
 852:Generated_Source\PSoC6\pdl\middleware\ble/cy_ble_gap.h **** *  #CY_BLE_EVT_GATT_CONNECT_IND event is received and resolvable device
 853:Generated_Source\PSoC6\pdl\middleware\ble/cy_ble_gap.h **** *  address is not changed.
 854:Generated_Source\PSoC6\pdl\middleware\ble/cy_ble_gap.h **** *
 855:Generated_Source\PSoC6\pdl\middleware\ble/cy_ble_gap.h **** *  \param connHandle: The connection handle.
 856:Generated_Source\PSoC6\pdl\middleware\ble/cy_ble_gap.h **** *
 857:Generated_Source\PSoC6\pdl\middleware\ble/cy_ble_gap.h **** * \return
 858:Generated_Source\PSoC6\pdl\middleware\ble/cy_ble_gap.h **** * \ref cy_en_ble_conn_state_t : The current client state. The following are 
 859:Generated_Source\PSoC6\pdl\middleware\ble/cy_ble_gap.h **** *                               possible states.
ARM GAS  C:\Users\salaz\AppData\Local\Temp\ccu2LhKM.s 			page 50


 860:Generated_Source\PSoC6\pdl\middleware\ble/cy_ble_gap.h **** *
 861:Generated_Source\PSoC6\pdl\middleware\ble/cy_ble_gap.h **** *               State                                |         Description
 862:Generated_Source\PSoC6\pdl\middleware\ble/cy_ble_gap.h **** *   ------------------------------------------------ | -----------------------------
 863:Generated_Source\PSoC6\pdl\middleware\ble/cy_ble_gap.h **** *   CY_BLE_CONN_STATE_DISCONNECTED                   | Essentially idle state
 864:Generated_Source\PSoC6\pdl\middleware\ble/cy_ble_gap.h **** *   CY_BLE_CONN_STATE_CLIENT_DISCONNECTED_DISCOVERED | Server is disconnected but discovered.
 865:Generated_Source\PSoC6\pdl\middleware\ble/cy_ble_gap.h **** *   CY_BLE_CONN_STATE_CONNECTED                      | Peer device is connected for this and follow
 866:Generated_Source\PSoC6\pdl\middleware\ble/cy_ble_gap.h **** *   CY_BLE_CONN_STATE_CLIENT_SRVC_DISCOVERING        | Server services are being discovered.
 867:Generated_Source\PSoC6\pdl\middleware\ble/cy_ble_gap.h **** *   CY_BLE_CONN_STATE_CLIENT_INCL_DISCOVERING        | Server included services are being discovere
 868:Generated_Source\PSoC6\pdl\middleware\ble/cy_ble_gap.h **** *   CY_BLE_CONN_STATE_CLIENT_CHAR_DISCOVERING        | Server characteristics are being discovered
 869:Generated_Source\PSoC6\pdl\middleware\ble/cy_ble_gap.h **** *   CY_BLE_CONN_STATE_CLIENT_DESCR_DISCOVERING       | Server char. descriptors are being discovere
 870:Generated_Source\PSoC6\pdl\middleware\ble/cy_ble_gap.h **** *   CY_BLE_CONN_STATE_CLIENT_DISCOVERED              | Server is discovered   
 871:Generated_Source\PSoC6\pdl\middleware\ble/cy_ble_gap.h **** *
 872:Generated_Source\PSoC6\pdl\middleware\ble/cy_ble_gap.h **** *
 873:Generated_Source\PSoC6\pdl\middleware\ble/cy_ble_gap.h **** ******************************************************************************/
 874:Generated_Source\PSoC6\pdl\middleware\ble/cy_ble_gap.h **** __STATIC_INLINE cy_en_ble_conn_state_t Cy_BLE_GetConnectionState(cy_stc_ble_conn_handle_t connHandl
 875:Generated_Source\PSoC6\pdl\middleware\ble/cy_ble_gap.h **** {
 876:Generated_Source\PSoC6\pdl\middleware\ble/cy_ble_gap.h ****     return((connHandle.attId < CY_BLE_CONN_COUNT) ? cy_ble_connState[connHandle.attId] : CY_BLE_CON
 510              		.loc 2 876 0
 511 005a 6B46     		mov	r3, sp
 512 005c 5B78     		ldrb	r3, [r3, #1]
 513 005e 002B     		cmp	r3, #0
 514 0060 02D1     		bne	.L55
 515 0062 484A     		ldr	r2, .L56+12
 516 0064 D25C     		ldrb	r2, [r2, r3]
 517 0066 00E0     		b	.L43
 518              	.L55:
 519 0068 0022     		movs	r2, #0
 520              	.L43:
 521              	.LBE26:
 522              	.LBE25:
 498:Generated_Source\PSoC6\pdl\middleware\ble/cy_ble_gap.c ****                (cy_ble_peerBonding[cy_ble_connHandle[i].attId] == CY_BLE_GAP_BONDING))
 523              		.loc 1 498 0
 524 006a 012A     		cmp	r2, #1
 525 006c 24D9     		bls	.L44
 499:Generated_Source\PSoC6\pdl\middleware\ble/cy_ble_gap.c ****             {
 526              		.loc 1 499 0 discriminator 1
 527 006e 464A     		ldr	r2, .L56+16
 528 0070 D25C     		ldrb	r2, [r2, r3]
 498:Generated_Source\PSoC6\pdl\middleware\ble/cy_ble_gap.c ****                (cy_ble_peerBonding[cy_ble_connHandle[i].attId] == CY_BLE_GAP_BONDING))
 529              		.loc 1 498 0 discriminator 1
 530 0072 012A     		cmp	r2, #1
 531 0074 20D1     		bne	.L44
 532              	.LBB27:
 502:Generated_Source\PSoC6\pdl\middleware\ble/cy_ble_gap.c ****                 appFlashParam.destAddr = (uint8_t*)cy_ble_configPtr->flashStorage->attValuesCCCDFla
 533              		.loc 1 502 0
 534 0076 D800     		lsls	r0, r3, #3
 535 0078 C018     		adds	r0, r0, r3
 536 007a 444E     		ldr	r6, .L56+20
 537 007c 8019     		adds	r0, r0, r6
 538 007e 0590     		str	r0, [sp, #20]
 503:Generated_Source\PSoC6\pdl\middleware\ble/cy_ble_gap.c ****                                          [cy_ble_connHandle[i].bdHandle];
 539              		.loc 1 503 0
 540 0080 434B     		ldr	r3, .L56+24
 541 0082 1B68     		ldr	r3, [r3]
 542 0084 1A69     		ldr	r2, [r3, #16]
 504:Generated_Source\PSoC6\pdl\middleware\ble/cy_ble_gap.c **** 
 543              		.loc 1 504 0
ARM GAS  C:\Users\salaz\AppData\Local\Temp\ccu2LhKM.s 			page 51


 544 0086 3E4F     		ldr	r7, .L56+8
 545 0088 6C00     		lsls	r4, r5, #1
 546              	.LVL60:
 547 008a E35D     		ldrb	r3, [r4, r7]
 503:Generated_Source\PSoC6\pdl\middleware\ble/cy_ble_gap.c ****                                          [cy_ble_connHandle[i].bdHandle];
 548              		.loc 1 503 0
 549 008c D900     		lsls	r1, r3, #3
 550 008e CB18     		adds	r3, r1, r3
 551 0090 4049     		ldr	r1, .L56+28
 552 0092 8C46     		mov	ip, r1
 553 0094 6344     		add	r3, r3, ip
 554 0096 D318     		adds	r3, r2, r3
 555 0098 0633     		adds	r3, r3, #6
 556 009a 0693     		str	r3, [sp, #24]
 507:Generated_Source\PSoC6\pdl\middleware\ble/cy_ble_gap.c ****                                                    CY_BLE_GATT_DB_CCCD_COUNT);
 557              		.loc 1 507 0
 558 009c 0821     		movs	r1, #8
 559 009e FFF7FEFF 		bl	Cy_BLE_HAL_CalcCRC8
 560              	.LVL61:
 510:Generated_Source\PSoC6\pdl\middleware\ble/cy_ble_gap.c ****                 
 561              		.loc 1 510 0
 562 00a2 3C19     		adds	r4, r7, r4
 563 00a4 6378     		ldrb	r3, [r4, #1]
 564 00a6 DA00     		lsls	r2, r3, #3
 565 00a8 D318     		adds	r3, r2, r3
 566 00aa F618     		adds	r6, r6, r3
 567 00ac 3072     		strb	r0, [r6, #8]
 512:Generated_Source\PSoC6\pdl\middleware\ble/cy_ble_gap.c ****                 if(apiResult != CY_BLE_SUCCESS)
 568              		.loc 1 512 0
 569 00ae 05A8     		add	r0, sp, #20
 570              	.LVL62:
 571 00b0 FFF7FEFF 		bl	Cy_BLE_StoreAppData
 572              	.LVL63:
 573 00b4 041E     		subs	r4, r0, #0
 574              	.LVL64:
 513:Generated_Source\PSoC6\pdl\middleware\ble/cy_ble_gap.c ****                 {
 575              		.loc 1 513 0
 576 00b6 02D1     		bne	.L45
 577              	.LVL65:
 578              	.L44:
 579              	.LBE27:
 496:Generated_Source\PSoC6\pdl\middleware\ble/cy_ble_gap.c ****         {
 580              		.loc 1 496 0 discriminator 2
 581 00b8 0135     		adds	r5, r5, #1
 582              	.LVL66:
 583              	.L42:
 496:Generated_Source\PSoC6\pdl\middleware\ble/cy_ble_gap.c ****         {
 584              		.loc 1 496 0 is_stmt 0 discriminator 1
 585 00ba 002D     		cmp	r5, #0
 586 00bc C6D0     		beq	.L46
 587              	.L45:
 519:Generated_Source\PSoC6\pdl\middleware\ble/cy_ble_gap.c ****         {
 588              		.loc 1 519 0 is_stmt 1
 589 00be 002C     		cmp	r4, #0
 590 00c0 04D1     		bne	.L41
 521:Generated_Source\PSoC6\pdl\middleware\ble/cy_ble_gap.c ****         }
 591              		.loc 1 521 0
ARM GAS  C:\Users\salaz\AppData\Local\Temp\ccu2LhKM.s 			page 52


 592 00c2 2D4A     		ldr	r2, .L56
 593 00c4 1378     		ldrb	r3, [r2]
 594 00c6 0221     		movs	r1, #2
 595 00c8 8B43     		bics	r3, r1
 596 00ca 1370     		strb	r3, [r2]
 597              	.LVL67:
 598              	.L41:
 599              	.LBE24:
 526:Generated_Source\PSoC6\pdl\middleware\ble/cy_ble_gap.c ****        ((cy_ble_pendingFlashWrite & CY_BLE_PENDING_CCCD_FLASH_CLEAR_MASK) != 0u))
 600              		.loc 1 526 0
 601 00cc 002C     		cmp	r4, #0
 602 00ce 4AD1     		bne	.L48
 527:Generated_Source\PSoC6\pdl\middleware\ble/cy_ble_gap.c ****     {
 603              		.loc 1 527 0 discriminator 1
 604 00d0 294B     		ldr	r3, .L56
 605 00d2 1B78     		ldrb	r3, [r3]
 526:Generated_Source\PSoC6\pdl\middleware\ble/cy_ble_gap.c ****        ((cy_ble_pendingFlashWrite & CY_BLE_PENDING_CCCD_FLASH_CLEAR_MASK) != 0u))
 606              		.loc 1 526 0 discriminator 1
 607 00d4 0C22     		movs	r2, #12
 608 00d6 1A42     		tst	r2, r3
 609 00d8 45D0     		beq	.L48
 529:Generated_Source\PSoC6\pdl\middleware\ble/cy_ble_gap.c ****         {
 610              		.loc 1 529 0
 611 00da 1B07     		lsls	r3, r3, #28
 612 00dc 1ED5     		bpl	.L49
 613              	.LBB28:
 533:Generated_Source\PSoC6\pdl\middleware\ble/cy_ble_gap.c ****             {
 614              		.loc 1 533 0
 615 00de 0432     		adds	r2, r2, #4
 616 00e0 0021     		movs	r1, #0
 617 00e2 01A8     		add	r0, sp, #4
 618 00e4 FFF7FEFF 		bl	memset
 619              	.LVL68:
 620 00e8 05A8     		add	r0, sp, #20
 621 00ea 0190     		str	r0, [sp, #4]
 536:Generated_Source\PSoC6\pdl\middleware\ble/cy_ble_gap.c ****                 .buffLen  = sizeof(defaultValuesCCCD),
 622              		.loc 1 536 0
 623 00ec 284B     		ldr	r3, .L56+24
 624 00ee 1B68     		ldr	r3, [r3]
 625 00f0 1B69     		ldr	r3, [r3, #16]
 626 00f2 294A     		ldr	r2, .L56+32
 627 00f4 9446     		mov	ip, r2
 628 00f6 6344     		add	r3, r3, ip
 533:Generated_Source\PSoC6\pdl\middleware\ble/cy_ble_gap.c ****             {
 629              		.loc 1 533 0
 630 00f8 0293     		str	r3, [sp, #8]
 631 00fa 9923     		movs	r3, #153
 632 00fc 0393     		str	r3, [sp, #12]
 540:Generated_Source\PSoC6\pdl\middleware\ble/cy_ble_gap.c **** 
 633              		.loc 1 540 0
 634 00fe 9922     		movs	r2, #153
 635 0100 0021     		movs	r1, #0
 636 0102 FFF7FEFF 		bl	memset
 637              	.LVL69:
 542:Generated_Source\PSoC6\pdl\middleware\ble/cy_ble_gap.c ****             if(apiResult == CY_BLE_SUCCESS)
 638              		.loc 1 542 0
 639 0106 01A8     		add	r0, sp, #4
ARM GAS  C:\Users\salaz\AppData\Local\Temp\ccu2LhKM.s 			page 53


 640 0108 FFF7FEFF 		bl	Cy_BLE_StoreAppData
 641              	.LVL70:
 642 010c 041E     		subs	r4, r0, #0
 643              	.LVL71:
 543:Generated_Source\PSoC6\pdl\middleware\ble/cy_ble_gap.c ****             {
 644              		.loc 1 543 0
 645 010e 2AD1     		bne	.L48
 545:Generated_Source\PSoC6\pdl\middleware\ble/cy_ble_gap.c ****             }
 646              		.loc 1 545 0
 647 0110 194A     		ldr	r2, .L56
 648 0112 1378     		ldrb	r3, [r2]
 649 0114 0821     		movs	r1, #8
 650 0116 8B43     		bics	r3, r1
 651 0118 1370     		strb	r3, [r2]
 652 011a 24E0     		b	.L48
 653              	.LVL72:
 654              	.L49:
 655              	.LBE28:
 656              	.LBB29:
 550:Generated_Source\PSoC6\pdl\middleware\ble/cy_ble_gap.c ****             cy_stc_ble_app_flash_param_t appFlashParam =
 657              		.loc 1 550 0
 658 011c 01AC     		add	r4, sp, #4
 659              	.LVL73:
 660 011e 0922     		movs	r2, #9
 661 0120 0021     		movs	r1, #0
 662 0122 2000     		movs	r0, r4
 663 0124 FFF7FEFF 		bl	memset
 664              	.LVL74:
 551:Generated_Source\PSoC6\pdl\middleware\ble/cy_ble_gap.c ****             {
 665              		.loc 1 551 0
 666 0128 1022     		movs	r2, #16
 667 012a 0021     		movs	r1, #0
 668 012c 05A8     		add	r0, sp, #20
 669 012e FFF7FEFF 		bl	memset
 670              	.LVL75:
 671 0132 0594     		str	r4, [sp, #20]
 554:Generated_Source\PSoC6\pdl\middleware\ble/cy_ble_gap.c ****                              attValuesCCCDFlashMemory[cy_ble_pendingFlashClearCccdHandle],
 672              		.loc 1 554 0
 673 0134 164B     		ldr	r3, .L56+24
 674 0136 1B68     		ldr	r3, [r3]
 675 0138 1A69     		ldr	r2, [r3, #16]
 555:Generated_Source\PSoC6\pdl\middleware\ble/cy_ble_gap.c ****                 .buffLen  = CY_BLE_GATT_DB_CCCD_COUNT + CY_BLE_CCCD_CRC_BYTE,
 676              		.loc 1 555 0
 677 013a 184B     		ldr	r3, .L56+36
 678 013c 1B7A     		ldrb	r3, [r3, #8]
 554:Generated_Source\PSoC6\pdl\middleware\ble/cy_ble_gap.c ****                              attValuesCCCDFlashMemory[cy_ble_pendingFlashClearCccdHandle],
 679              		.loc 1 554 0
 680 013e D900     		lsls	r1, r3, #3
 681 0140 CB18     		adds	r3, r1, r3
 682 0142 1449     		ldr	r1, .L56+28
 683 0144 8C46     		mov	ip, r1
 684 0146 6344     		add	r3, r3, ip
 685 0148 D318     		adds	r3, r2, r3
 686 014a 0633     		adds	r3, r3, #6
 551:Generated_Source\PSoC6\pdl\middleware\ble/cy_ble_gap.c ****             {
 687              		.loc 1 551 0
 688 014c 0693     		str	r3, [sp, #24]
ARM GAS  C:\Users\salaz\AppData\Local\Temp\ccu2LhKM.s 			page 54


 689 014e 0923     		movs	r3, #9
 690 0150 0793     		str	r3, [sp, #28]
 559:Generated_Source\PSoC6\pdl\middleware\ble/cy_ble_gap.c ****             if(apiResult == CY_BLE_SUCCESS)
 691              		.loc 1 559 0
 692 0152 05A8     		add	r0, sp, #20
 693 0154 FFF7FEFF 		bl	Cy_BLE_StoreAppData
 694              	.LVL76:
 695 0158 041E     		subs	r4, r0, #0
 696              	.LVL77:
 560:Generated_Source\PSoC6\pdl\middleware\ble/cy_ble_gap.c ****             {
 697              		.loc 1 560 0
 698 015a 04D1     		bne	.L48
 562:Generated_Source\PSoC6\pdl\middleware\ble/cy_ble_gap.c ****             }
 699              		.loc 1 562 0
 700 015c 064A     		ldr	r2, .L56
 701 015e 1378     		ldrb	r3, [r2]
 702 0160 0421     		movs	r1, #4
 703 0162 8B43     		bics	r3, r1
 704 0164 1370     		strb	r3, [r2]
 705              	.LVL78:
 706              	.L48:
 707              	.LBE29:
 569:Generated_Source\PSoC6\pdl\middleware\ble/cy_ble_gap.c ****     {
 708              		.loc 1 569 0
 709 0166 0E4B     		ldr	r3, .L56+40
 710 0168 9C42     		cmp	r4, r3
 711 016a 02D1     		bne	.L52
 571:Generated_Source\PSoC6\pdl\middleware\ble/cy_ble_gap.c ****     }
 712              		.loc 1 571 0
 713 016c 0022     		movs	r2, #0
 714 016e 024B     		ldr	r3, .L56
 715 0170 1A70     		strb	r2, [r3]
 716              	.L52:
 575:Generated_Source\PSoC6\pdl\middleware\ble/cy_ble_gap.c **** 
 717              		.loc 1 575 0
 718 0172 2000     		movs	r0, r4
 719 0174 2DB0     		add	sp, sp, #180
 720              		@ sp needed
 721              	.LVL79:
 722 0176 F0BD     		pop	{r4, r5, r6, r7, pc}
 723              	.L57:
 724              		.align	2
 725              	.L56:
 726 0178 00000000 		.word	cy_ble_pendingFlashWrite
 727 017c 01001400 		.word	1310721
 728 0180 00000000 		.word	cy_ble_connHandle
 729 0184 00000000 		.word	cy_ble_connState
 730 0188 00000000 		.word	cy_ble_peerBonding
 731 018c 00000000 		.word	cy_ble_attValuesCccdMultiple
 732 0190 00000000 		.word	cy_ble_configPtr
 733 0194 90100000 		.word	4240
 734 0198 96100000 		.word	4246
 735 019c 00000000 		.word	.LANCHOR0
 736 01a0 12001600 		.word	1441810
 737              		.cfi_endproc
 738              	.LFE160:
 739              		.size	Cy_BLE_StoreBondingData, .-Cy_BLE_StoreBondingData
ARM GAS  C:\Users\salaz\AppData\Local\Temp\ccu2LhKM.s 			page 55


 740              		.section	.text.Cy_BLE_GAP_RemoveBondedDevice,"ax",%progbits
 741              		.align	2
 742              		.global	Cy_BLE_GAP_RemoveBondedDevice
 743              		.code	16
 744              		.thumb_func
 745              		.type	Cy_BLE_GAP_RemoveBondedDevice, %function
 746              	Cy_BLE_GAP_RemoveBondedDevice:
 747              	.LFB161:
 608:Generated_Source\PSoC6\pdl\middleware\ble/cy_ble_gap.c ****     cy_en_ble_api_result_t apiResult = CY_BLE_SUCCESS;
 748              		.loc 1 608 0
 749              		.cfi_startproc
 750              		@ args = 0, pretend = 0, frame = 16
 751              		@ frame_needed = 0, uses_anonymous_args = 0
 752              	.LVL80:
 753 0000 30B5     		push	{r4, r5, lr}
 754              		.cfi_def_cfa_offset 12
 755              		.cfi_offset 4, -12
 756              		.cfi_offset 5, -8
 757              		.cfi_offset 14, -4
 758 0002 85B0     		sub	sp, sp, #20
 759              		.cfi_def_cfa_offset 32
 760 0004 041E     		subs	r4, r0, #0
 761              	.LVL81:
 612:Generated_Source\PSoC6\pdl\middleware\ble/cy_ble_gap.c ****     {
 762              		.loc 1 612 0
 763 0006 2DD0     		beq	.L63
 616:Generated_Source\PSoC6\pdl\middleware\ble/cy_ble_gap.c ****     {
 764              		.loc 1 616 0
 765 0008 194B     		ldr	r3, .L65
 766 000a 1D78     		ldrb	r5, [r3]
 767 000c 002D     		cmp	r5, #0
 768 000e 2BD1     		bne	.L64
 769              	.LBB30:
 620:Generated_Source\PSoC6\pdl\middleware\ble/cy_ble_gap.c **** 
 770              		.loc 1 620 0
 771 0010 0722     		movs	r2, #7
 772 0012 0021     		movs	r1, #0
 773 0014 6846     		mov	r0, sp
 774              	.LVL82:
 775 0016 FFF7FEFF 		bl	memset
 776              	.LVL83:
 622:Generated_Source\PSoC6\pdl\middleware\ble/cy_ble_gap.c ****         {
 777              		.loc 1 622 0
 778 001a 0622     		movs	r2, #6
 779 001c 6946     		mov	r1, sp
 780 001e 2000     		movs	r0, r4
 781 0020 FFF7FEFF 		bl	memcmp
 782              	.LVL84:
 783 0024 0028     		cmp	r0, #0
 784 0026 04D1     		bne	.L60
 625:Generated_Source\PSoC6\pdl\middleware\ble/cy_ble_gap.c ****         }
 785              		.loc 1 625 0
 786 0028 0823     		movs	r3, #8
 787 002a 1D43     		orrs	r5, r3
 788 002c 104B     		ldr	r3, .L65
 789 002e 1D70     		strb	r5, [r3]
 790 0030 12E0     		b	.L61
ARM GAS  C:\Users\salaz\AppData\Local\Temp\ccu2LhKM.s 			page 56


 791              	.L60:
 630:Generated_Source\PSoC6\pdl\middleware\ble/cy_ble_gap.c ****             apiResult = Cy_BLE_GAP_GetPeerBdHandle(&peerAddrInfoParam);
 792              		.loc 1 630 0
 793 0032 0722     		movs	r2, #7
 794 0034 2100     		movs	r1, r4
 795 0036 02A8     		add	r0, sp, #8
 796 0038 FFF7FEFF 		bl	memcpy
 797              	.LVL85:
 631:Generated_Source\PSoC6\pdl\middleware\ble/cy_ble_gap.c ****             if(apiResult == CY_BLE_SUCCESS)
 798              		.loc 1 631 0
 799 003c 02A8     		add	r0, sp, #8
 800 003e FFF7FEFF 		bl	Cy_BLE_GAP_GetPeerBdHandle
 801              	.LVL86:
 632:Generated_Source\PSoC6\pdl\middleware\ble/cy_ble_gap.c ****             {
 802              		.loc 1 632 0
 803 0042 0028     		cmp	r0, #0
 804 0044 08D1     		bne	.L61
 635:Generated_Source\PSoC6\pdl\middleware\ble/cy_ble_gap.c ****                 cy_ble_pendingFlashClearCccdHandle = peerAddrInfoParam.bdHandle;
 805              		.loc 1 635 0
 806 0046 0A4A     		ldr	r2, .L65
 807 0048 1178     		ldrb	r1, [r2]
 808 004a 0423     		movs	r3, #4
 809 004c 0B43     		orrs	r3, r1
 810 004e 1370     		strb	r3, [r2]
 636:Generated_Source\PSoC6\pdl\middleware\ble/cy_ble_gap.c ****             }
 811              		.loc 1 636 0
 812 0050 02AB     		add	r3, sp, #8
 813 0052 DA79     		ldrb	r2, [r3, #7]
 814 0054 074B     		ldr	r3, .L65+4
 815 0056 1A72     		strb	r2, [r3, #8]
 816              	.LVL87:
 817              	.L61:
 640:Generated_Source\PSoC6\pdl\middleware\ble/cy_ble_gap.c ****         {
 818              		.loc 1 640 0
 819 0058 0028     		cmp	r0, #0
 820 005a 06D1     		bne	.L59
 642:Generated_Source\PSoC6\pdl\middleware\ble/cy_ble_gap.c ****         }
 821              		.loc 1 642 0
 822 005c 2000     		movs	r0, r4
 823              	.LVL88:
 824 005e FFF7FEFF 		bl	Cy_BLE_GAP_RemoveDeviceFromBondList
 825              	.LVL89:
 826 0062 02E0     		b	.L59
 827              	.LVL90:
 828              	.L63:
 829              	.LBE30:
 614:Generated_Source\PSoC6\pdl\middleware\ble/cy_ble_gap.c ****     }
 830              		.loc 1 614 0
 831 0064 0448     		ldr	r0, .L65+8
 832              	.LVL91:
 833 0066 00E0     		b	.L59
 834              	.LVL92:
 835              	.L64:
 647:Generated_Source\PSoC6\pdl\middleware\ble/cy_ble_gap.c ****     }
 836              		.loc 1 647 0
 837 0068 0448     		ldr	r0, .L65+12
 838              	.LVL93:
ARM GAS  C:\Users\salaz\AppData\Local\Temp\ccu2LhKM.s 			page 57


 839              	.L59:
 651:Generated_Source\PSoC6\pdl\middleware\ble/cy_ble_gap.c **** 
 840              		.loc 1 651 0
 841 006a 05B0     		add	sp, sp, #20
 842              		@ sp needed
 843              	.LVL94:
 844 006c 30BD     		pop	{r4, r5, pc}
 845              	.L66:
 846 006e C046     		.align	2
 847              	.L65:
 848 0070 00000000 		.word	cy_ble_pendingFlashWrite
 849 0074 00000000 		.word	.LANCHOR0
 850 0078 01001600 		.word	1441793
 851 007c 02001600 		.word	1441794
 852              		.cfi_endproc
 853              	.LFE161:
 854              		.size	Cy_BLE_GAP_RemoveBondedDevice, .-Cy_BLE_GAP_RemoveBondedDevice
 855              		.section	.text.Cy_BLE_GAPP_StartAdvertisement,"ax",%progbits
 856              		.align	2
 857              		.global	Cy_BLE_GAPP_StartAdvertisement
 858              		.code	16
 859              		.thumb_func
 860              		.type	Cy_BLE_GAPP_StartAdvertisement, %function
 861              	Cy_BLE_GAPP_StartAdvertisement:
 862              	.LFB162:
 719:Generated_Source\PSoC6\pdl\middleware\ble/cy_ble_gap.c ****     cy_en_ble_api_result_t apiResult;
 863              		.loc 1 719 0
 864              		.cfi_startproc
 865              		@ args = 0, pretend = 0, frame = 0
 866              		@ frame_needed = 0, uses_anonymous_args = 0
 867              	.LVL95:
 868 0000 70B5     		push	{r4, r5, r6, lr}
 869              		.cfi_def_cfa_offset 16
 870              		.cfi_offset 4, -16
 871              		.cfi_offset 5, -12
 872              		.cfi_offset 6, -8
 873              		.cfi_offset 14, -4
 722:Generated_Source\PSoC6\pdl\middleware\ble/cy_ble_gap.c ****     {
 874              		.loc 1 722 0
 875 0002 0228     		cmp	r0, #2
 876 0004 75D8     		bhi	.L75
 722:Generated_Source\PSoC6\pdl\middleware\ble/cy_ble_gap.c ****     {
 877              		.loc 1 722 0 is_stmt 0 discriminator 1
 878 0006 0029     		cmp	r1, #0
 879 0008 75D1     		bne	.L76
 880 000a 0022     		movs	r2, #0
 881 000c 0023     		movs	r3, #0
 882 000e 06E0     		b	.L69
 883              	.LVL96:
 884              	.L71:
 885              	.LBB31:
 886              	.LBB32:
 877:Generated_Source\PSoC6\pdl\middleware\ble/cy_ble_gap.h **** }
 878:Generated_Source\PSoC6\pdl\middleware\ble/cy_ble_gap.h **** 
 879:Generated_Source\PSoC6\pdl\middleware\ble/cy_ble_gap.h **** /** \cond IGNORE */
 880:Generated_Source\PSoC6\pdl\middleware\ble/cy_ble_gap.h **** /******************************************************************************
 881:Generated_Source\PSoC6\pdl\middleware\ble/cy_ble_gap.h **** * Function Name: Cy_BLE_SetConnectionState
ARM GAS  C:\Users\salaz\AppData\Local\Temp\ccu2LhKM.s 			page 58


 882:Generated_Source\PSoC6\pdl\middleware\ble/cy_ble_gap.h **** ***************************************************************************//**
 883:Generated_Source\PSoC6\pdl\middleware\ble/cy_ble_gap.h **** *
 884:Generated_Source\PSoC6\pdl\middleware\ble/cy_ble_gap.h **** *  Used to set BLE link state for the specified connection handle.
 885:Generated_Source\PSoC6\pdl\middleware\ble/cy_ble_gap.h **** *
 886:Generated_Source\PSoC6\pdl\middleware\ble/cy_ble_gap.h **** *  \param connHandle: Peer device handle
 887:Generated_Source\PSoC6\pdl\middleware\ble/cy_ble_gap.h **** *  \param state:  The state that is desired to be set
 888:Generated_Source\PSoC6\pdl\middleware\ble/cy_ble_gap.h **** *
 889:Generated_Source\PSoC6\pdl\middleware\ble/cy_ble_gap.h **** ******************************************************************************/
 890:Generated_Source\PSoC6\pdl\middleware\ble/cy_ble_gap.h **** __STATIC_INLINE void Cy_BLE_SetConnectionState(cy_stc_ble_conn_handle_t connHandle,
 891:Generated_Source\PSoC6\pdl\middleware\ble/cy_ble_gap.h ****                                                cy_en_ble_conn_state_t state)
 892:Generated_Source\PSoC6\pdl\middleware\ble/cy_ble_gap.h **** {
 893:Generated_Source\PSoC6\pdl\middleware\ble/cy_ble_gap.h ****     if(connHandle.attId < CY_BLE_CONN_COUNT)
 894:Generated_Source\PSoC6\pdl\middleware\ble/cy_ble_gap.h ****     {
 895:Generated_Source\PSoC6\pdl\middleware\ble/cy_ble_gap.h ****         cy_ble_connState[connHandle.attId] = state;
 896:Generated_Source\PSoC6\pdl\middleware\ble/cy_ble_gap.h ****     }
 897:Generated_Source\PSoC6\pdl\middleware\ble/cy_ble_gap.h ****     else
 898:Generated_Source\PSoC6\pdl\middleware\ble/cy_ble_gap.h ****     {
 899:Generated_Source\PSoC6\pdl\middleware\ble/cy_ble_gap.h ****         /* Halt in debug mode*/
 900:Generated_Source\PSoC6\pdl\middleware\ble/cy_ble_gap.h ****         CY_ASSERT(connHandle.attId >= CY_BLE_CONN_COUNT);
 901:Generated_Source\PSoC6\pdl\middleware\ble/cy_ble_gap.h ****     }
 902:Generated_Source\PSoC6\pdl\middleware\ble/cy_ble_gap.h **** }
 903:Generated_Source\PSoC6\pdl\middleware\ble/cy_ble_gap.h **** /** \endcond */
 904:Generated_Source\PSoC6\pdl\middleware\ble/cy_ble_gap.h **** 
 905:Generated_Source\PSoC6\pdl\middleware\ble/cy_ble_gap.h **** /******************************************************************************
 906:Generated_Source\PSoC6\pdl\middleware\ble/cy_ble_gap.h **** * Function Name: Cy_BLE_GetNumOfActiveConn
 907:Generated_Source\PSoC6\pdl\middleware\ble/cy_ble_gap.h **** ***************************************************************************//**
 908:Generated_Source\PSoC6\pdl\middleware\ble/cy_ble_gap.h **** *
 909:Generated_Source\PSoC6\pdl\middleware\ble/cy_ble_gap.h **** *  Used to get active number of connections.
 910:Generated_Source\PSoC6\pdl\middleware\ble/cy_ble_gap.h **** *
 911:Generated_Source\PSoC6\pdl\middleware\ble/cy_ble_gap.h **** *  \return
 912:Generated_Source\PSoC6\pdl\middleware\ble/cy_ble_gap.h **** *  connNum - number of active connections
 913:Generated_Source\PSoC6\pdl\middleware\ble/cy_ble_gap.h **** *
 914:Generated_Source\PSoC6\pdl\middleware\ble/cy_ble_gap.h **** ******************************************************************************/
 915:Generated_Source\PSoC6\pdl\middleware\ble/cy_ble_gap.h **** __STATIC_INLINE uint8_t Cy_BLE_GetNumOfActiveConn(void)
 916:Generated_Source\PSoC6\pdl\middleware\ble/cy_ble_gap.h **** {
 917:Generated_Source\PSoC6\pdl\middleware\ble/cy_ble_gap.h ****     uint32_t i;
 918:Generated_Source\PSoC6\pdl\middleware\ble/cy_ble_gap.h ****     uint8_t connNum = 0u;
 919:Generated_Source\PSoC6\pdl\middleware\ble/cy_ble_gap.h **** 
 920:Generated_Source\PSoC6\pdl\middleware\ble/cy_ble_gap.h ****     for(i = 0u; i < CY_BLE_CONN_COUNT; i++)
 921:Generated_Source\PSoC6\pdl\middleware\ble/cy_ble_gap.h ****     {
 922:Generated_Source\PSoC6\pdl\middleware\ble/cy_ble_gap.h ****         if(cy_ble_connState[i] >= CY_BLE_CONN_STATE_CONNECTED)
 887              		.loc 2 922 0 is_stmt 1
 888 0010 3C4C     		ldr	r4, .L79
 889 0012 E45C     		ldrb	r4, [r4, r3]
 890 0014 012C     		cmp	r4, #1
 891 0016 01D9     		bls	.L70
 923:Generated_Source\PSoC6\pdl\middleware\ble/cy_ble_gap.h ****         {
 924:Generated_Source\PSoC6\pdl\middleware\ble/cy_ble_gap.h ****             connNum++;
 892              		.loc 2 924 0
 893 0018 0132     		adds	r2, r2, #1
 894              	.LVL97:
 895 001a D2B2     		uxtb	r2, r2
 896              	.LVL98:
 897              	.L70:
 920:Generated_Source\PSoC6\pdl\middleware\ble/cy_ble_gap.h ****     {
 898              		.loc 2 920 0
 899 001c 0133     		adds	r3, r3, #1
ARM GAS  C:\Users\salaz\AppData\Local\Temp\ccu2LhKM.s 			page 59


 900              	.LVL99:
 901              	.L69:
 902 001e 002B     		cmp	r3, #0
 903 0020 F6D0     		beq	.L71
 904              	.LVL100:
 905              	.LBE32:
 906              	.LBE31:
 727:Generated_Source\PSoC6\pdl\middleware\ble/cy_ble_gap.c ****             ((cy_ble_configPtr->discoveryModeInfo[advertisingParamIndex].advParam->advType <
 907              		.loc 1 727 0
 908 0022 012A     		cmp	r2, #1
 909 0024 0CD1     		bne	.L72
 728:Generated_Source\PSoC6\pdl\middleware\ble/cy_ble_gap.c ****                 CY_BLE_GAPP_SCANNABLE_UNDIRECTED_ADV) ||
 910              		.loc 1 728 0 discriminator 1
 911 0026 384B     		ldr	r3, .L79+4
 912 0028 1B68     		ldr	r3, [r3]
 913 002a 1C68     		ldr	r4, [r3]
 914 002c 8A00     		lsls	r2, r1, #2
 915 002e 5218     		adds	r2, r2, r1
 916 0030 9300     		lsls	r3, r2, #2
 917 0032 E318     		adds	r3, r4, r3
 918 0034 5B68     		ldr	r3, [r3, #4]
 919 0036 1B79     		ldrb	r3, [r3, #4]
 729:Generated_Source\PSoC6\pdl\middleware\ble/cy_ble_gap.c ****              (cy_ble_configPtr->discoveryModeInfo[advertisingParamIndex].advParam->advType >
 920              		.loc 1 729 0 discriminator 1
 921 0038 023B     		subs	r3, r3, #2
 922 003a DBB2     		uxtb	r3, r3
 727:Generated_Source\PSoC6\pdl\middleware\ble/cy_ble_gap.c ****             ((cy_ble_configPtr->discoveryModeInfo[advertisingParamIndex].advParam->advType <
 923              		.loc 1 727 0 discriminator 1
 924 003c 012B     		cmp	r3, #1
 925 003e 5CD8     		bhi	.L77
 926              	.L72:
 927              	.LBB33:
 928              	.LBB34:
 745:Generated_Source\PSoC6\pdl\middleware\ble/cy_ble_gap.h **** }
 929              		.loc 2 745 0
 930 0040 324B     		ldr	r3, .L79+8
 931 0042 1B78     		ldrb	r3, [r3]
 932              	.LBE34:
 933              	.LBE33:
 736:Generated_Source\PSoC6\pdl\middleware\ble/cy_ble_gap.c ****     {
 934              		.loc 1 736 0
 935 0044 002B     		cmp	r3, #0
 936 0046 5AD1     		bne	.L78
 738:Generated_Source\PSoC6\pdl\middleware\ble/cy_ble_gap.c ****         if(advertisingIntervalType == CY_BLE_ADVERTISING_FAST)
 937              		.loc 1 738 0
 938 0048 314B     		ldr	r3, .L79+12
 939 004a 1970     		strb	r1, [r3]
 739:Generated_Source\PSoC6\pdl\middleware\ble/cy_ble_gap.c ****         {
 940              		.loc 1 739 0
 941 004c 0028     		cmp	r0, #0
 942 004e 1DD1     		bne	.L73
 741:Generated_Source\PSoC6\pdl\middleware\ble/cy_ble_gap.c ****                 cy_ble_configPtr->gappAdvParams[advertisingParamIndex].fastAdvTimeOut;
 943              		.loc 1 741 0
 944 0050 2D4E     		ldr	r6, .L79+4
 945 0052 3468     		ldr	r4, [r6]
 946 0054 8B00     		lsls	r3, r1, #2
 947 0056 5B18     		adds	r3, r3, r1
ARM GAS  C:\Users\salaz\AppData\Local\Temp\ccu2LhKM.s 			page 60


 948 0058 9A00     		lsls	r2, r3, #2
 949 005a 2368     		ldr	r3, [r4]
 950 005c 9D18     		adds	r5, r3, r2
 742:Generated_Source\PSoC6\pdl\middleware\ble/cy_ble_gap.c ****             cy_ble_configPtr->discoveryModeInfo[advertisingParamIndex].advParam->advIntvMin =
 951              		.loc 1 742 0
 952 005e CB00     		lsls	r3, r1, #3
 953 0060 591A     		subs	r1, r3, r1
 954              	.LVL101:
 955 0062 4B00     		lsls	r3, r1, #1
 956 0064 6168     		ldr	r1, [r4, #4]
 957 0066 C918     		adds	r1, r1, r3
 958 0068 8988     		ldrh	r1, [r1, #4]
 741:Generated_Source\PSoC6\pdl\middleware\ble/cy_ble_gap.c ****                 cy_ble_configPtr->gappAdvParams[advertisingParamIndex].fastAdvTimeOut;
 959              		.loc 1 741 0
 960 006a 2982     		strh	r1, [r5, #16]
 743:Generated_Source\PSoC6\pdl\middleware\ble/cy_ble_gap.c ****                 cy_ble_configPtr->gappAdvParams[advertisingParamIndex].fastAdvIntervalMin;
 961              		.loc 1 743 0
 962 006c 2168     		ldr	r1, [r4]
 963 006e 8918     		adds	r1, r1, r2
 964 0070 4968     		ldr	r1, [r1, #4]
 744:Generated_Source\PSoC6\pdl\middleware\ble/cy_ble_gap.c ****             cy_ble_configPtr->discoveryModeInfo[advertisingParamIndex].advParam->advIntvMax =
 965              		.loc 1 744 0
 966 0072 6468     		ldr	r4, [r4, #4]
 967 0074 E45A     		ldrh	r4, [r4, r3]
 743:Generated_Source\PSoC6\pdl\middleware\ble/cy_ble_gap.c ****                 cy_ble_configPtr->gappAdvParams[advertisingParamIndex].fastAdvIntervalMin;
 968              		.loc 1 743 0
 969 0076 0C80     		strh	r4, [r1]
 970              	.LVL102:
 745:Generated_Source\PSoC6\pdl\middleware\ble/cy_ble_gap.c ****                 cy_ble_configPtr->gappAdvParams[advertisingParamIndex].fastAdvIntervalMax;
 971              		.loc 1 745 0
 972 0078 3168     		ldr	r1, [r6]
 973 007a 0C68     		ldr	r4, [r1]
 974 007c A446     		mov	ip, r4
 975 007e 6244     		add	r2, r2, ip
 976 0080 5268     		ldr	r2, [r2, #4]
 746:Generated_Source\PSoC6\pdl\middleware\ble/cy_ble_gap.c ****         }
 977              		.loc 1 746 0
 978 0082 4968     		ldr	r1, [r1, #4]
 979 0084 CB18     		adds	r3, r1, r3
 980 0086 5B88     		ldrh	r3, [r3, #2]
 745:Generated_Source\PSoC6\pdl\middleware\ble/cy_ble_gap.c ****                 cy_ble_configPtr->gappAdvParams[advertisingParamIndex].fastAdvIntervalMax;
 981              		.loc 1 745 0
 982 0088 5380     		strh	r3, [r2, #2]
 983 008a 1FE0     		b	.L74
 984              	.LVL103:
 985              	.L73:
 748:Generated_Source\PSoC6\pdl\middleware\ble/cy_ble_gap.c ****         {
 986              		.loc 1 748 0
 987 008c 0128     		cmp	r0, #1
 988 008e 1DD1     		bne	.L74
 750:Generated_Source\PSoC6\pdl\middleware\ble/cy_ble_gap.c ****                 cy_ble_configPtr->gappAdvParams[advertisingParamIndex].slowAdvTimeOut;
 989              		.loc 1 750 0
 990 0090 1D4D     		ldr	r5, .L79+4
 991 0092 2C68     		ldr	r4, [r5]
 992 0094 8B00     		lsls	r3, r1, #2
 993 0096 5B18     		adds	r3, r3, r1
 994 0098 9A00     		lsls	r2, r3, #2
ARM GAS  C:\Users\salaz\AppData\Local\Temp\ccu2LhKM.s 			page 61


 995 009a 2368     		ldr	r3, [r4]
 996 009c 9E18     		adds	r6, r3, r2
 751:Generated_Source\PSoC6\pdl\middleware\ble/cy_ble_gap.c ****             cy_ble_configPtr->discoveryModeInfo[advertisingParamIndex].advParam->advIntvMin =
 997              		.loc 1 751 0
 998 009e CB00     		lsls	r3, r1, #3
 999 00a0 591A     		subs	r1, r3, r1
 1000              	.LVL104:
 1001 00a2 4B00     		lsls	r3, r1, #1
 1002 00a4 6168     		ldr	r1, [r4, #4]
 1003 00a6 C918     		adds	r1, r1, r3
 1004 00a8 8989     		ldrh	r1, [r1, #12]
 750:Generated_Source\PSoC6\pdl\middleware\ble/cy_ble_gap.c ****                 cy_ble_configPtr->gappAdvParams[advertisingParamIndex].slowAdvTimeOut;
 1005              		.loc 1 750 0
 1006 00aa 3182     		strh	r1, [r6, #16]
 752:Generated_Source\PSoC6\pdl\middleware\ble/cy_ble_gap.c ****                 cy_ble_configPtr->gappAdvParams[advertisingParamIndex].slowAdvIntervalMin;
 1007              		.loc 1 752 0
 1008 00ac 2168     		ldr	r1, [r4]
 1009 00ae 8918     		adds	r1, r1, r2
 1010 00b0 4E68     		ldr	r6, [r1, #4]
 753:Generated_Source\PSoC6\pdl\middleware\ble/cy_ble_gap.c ****             cy_ble_configPtr->discoveryModeInfo[advertisingParamIndex].advParam->advIntvMax =
 1011              		.loc 1 753 0
 1012 00b2 6168     		ldr	r1, [r4, #4]
 1013 00b4 C918     		adds	r1, r1, r3
 1014 00b6 0989     		ldrh	r1, [r1, #8]
 752:Generated_Source\PSoC6\pdl\middleware\ble/cy_ble_gap.c ****                 cy_ble_configPtr->gappAdvParams[advertisingParamIndex].slowAdvIntervalMin;
 1015              		.loc 1 752 0
 1016 00b8 3180     		strh	r1, [r6]
 1017              	.LVL105:
 754:Generated_Source\PSoC6\pdl\middleware\ble/cy_ble_gap.c ****                 cy_ble_configPtr->gappAdvParams[advertisingParamIndex].slowAdvIntervalMax;
 1018              		.loc 1 754 0
 1019 00ba 2968     		ldr	r1, [r5]
 1020 00bc 0C68     		ldr	r4, [r1]
 1021 00be A446     		mov	ip, r4
 1022 00c0 6244     		add	r2, r2, ip
 1023 00c2 5268     		ldr	r2, [r2, #4]
 755:Generated_Source\PSoC6\pdl\middleware\ble/cy_ble_gap.c ****         }
 1024              		.loc 1 755 0
 1025 00c4 4968     		ldr	r1, [r1, #4]
 1026 00c6 CB18     		adds	r3, r1, r3
 1027 00c8 5B89     		ldrh	r3, [r3, #10]
 754:Generated_Source\PSoC6\pdl\middleware\ble/cy_ble_gap.c ****                 cy_ble_configPtr->gappAdvParams[advertisingParamIndex].slowAdvIntervalMax;
 1028              		.loc 1 754 0
 1029 00ca 5380     		strh	r3, [r2, #2]
 1030              	.L74:
 760:Generated_Source\PSoC6\pdl\middleware\ble/cy_ble_gap.c ****         apiResult = Cy_BLE_GAPP_EnterDiscoveryMode(&cy_ble_configPtr->discoveryModeInfo[cy_ble_advI
 1031              		.loc 1 760 0
 1032 00cc 114B     		ldr	r3, .L79+16
 1033 00ce 1870     		strb	r0, [r3]
 761:Generated_Source\PSoC6\pdl\middleware\ble/cy_ble_gap.c **** 
 1034              		.loc 1 761 0
 1035 00d0 0D4B     		ldr	r3, .L79+4
 1036 00d2 1B68     		ldr	r3, [r3]
 1037 00d4 1868     		ldr	r0, [r3]
 1038              	.LVL106:
 1039 00d6 0E4B     		ldr	r3, .L79+12
 1040 00d8 1B78     		ldrb	r3, [r3]
 1041 00da 9A00     		lsls	r2, r3, #2
ARM GAS  C:\Users\salaz\AppData\Local\Temp\ccu2LhKM.s 			page 62


 1042 00dc D318     		adds	r3, r2, r3
 1043 00de 9A00     		lsls	r2, r3, #2
 1044 00e0 8018     		adds	r0, r0, r2
 1045 00e2 FFF7FEFF 		bl	Cy_BLE_GAPP_EnterDiscoveryMode
 1046              	.LVL107:
 763:Generated_Source\PSoC6\pdl\middleware\ble/cy_ble_gap.c ****         {
 1047              		.loc 1 763 0
 1048 00e6 0028     		cmp	r0, #0
 1049 00e8 0AD1     		bne	.L68
 1050              	.LVL108:
 1051              	.LBB35:
 1052              	.LBB36:
 763:Generated_Source\PSoC6\pdl\middleware\ble/cy_ble_gap.h **** }
 1053              		.loc 2 763 0
 1054 00ea 0122     		movs	r2, #1
 1055 00ec 074B     		ldr	r3, .L79+8
 1056 00ee 1A70     		strb	r2, [r3]
 1057 00f0 06E0     		b	.L68
 1058              	.LVL109:
 1059              	.L75:
 1060              	.LBE36:
 1061              	.LBE35:
 724:Generated_Source\PSoC6\pdl\middleware\ble/cy_ble_gap.c ****     }
 1062              		.loc 1 724 0
 1063 00f2 0948     		ldr	r0, .L79+20
 1064              	.LVL110:
 1065 00f4 04E0     		b	.L68
 1066              	.LVL111:
 1067              	.L76:
 1068 00f6 0848     		ldr	r0, .L79+20
 1069              	.LVL112:
 1070 00f8 02E0     		b	.L68
 1071              	.LVL113:
 1072              	.L77:
 733:Generated_Source\PSoC6\pdl\middleware\ble/cy_ble_gap.c ****     }
 1073              		.loc 1 733 0
 1074 00fa 0848     		ldr	r0, .L79+24
 1075              	.LVL114:
 1076 00fc 00E0     		b	.L68
 1077              	.LVL115:
 1078              	.L78:
 770:Generated_Source\PSoC6\pdl\middleware\ble/cy_ble_gap.c ****     }
 1079              		.loc 1 770 0
 1080 00fe 0848     		ldr	r0, .L79+28
 1081              	.LVL116:
 1082              	.L68:
 774:Generated_Source\PSoC6\pdl\middleware\ble/cy_ble_gap.c **** 
 1083              		.loc 1 774 0
 1084              		@ sp needed
 1085 0100 70BD     		pop	{r4, r5, r6, pc}
 1086              	.L80:
 1087 0102 C046     		.align	2
 1088              	.L79:
 1089 0104 00000000 		.word	cy_ble_connState
 1090 0108 00000000 		.word	cy_ble_configPtr
 1091 010c 00000000 		.word	cy_ble_advState
 1092 0110 00000000 		.word	cy_ble_advIndex
ARM GAS  C:\Users\salaz\AppData\Local\Temp\ccu2LhKM.s 			page 63


 1093 0114 00000000 		.word	cy_ble_advertisingIntervalType
 1094 0118 01001600 		.word	1441793
 1095 011c 02001600 		.word	1441794
 1096 0120 FF001600 		.word	1442047
 1097              		.cfi_endproc
 1098              	.LFE162:
 1099              		.size	Cy_BLE_GAPP_StartAdvertisement, .-Cy_BLE_GAPP_StartAdvertisement
 1100              		.section	.text.Cy_BLE_GAPP_StopAdvertisement,"ax",%progbits
 1101              		.align	2
 1102              		.global	Cy_BLE_GAPP_StopAdvertisement
 1103              		.code	16
 1104              		.thumb_func
 1105              		.type	Cy_BLE_GAPP_StopAdvertisement, %function
 1106              	Cy_BLE_GAPP_StopAdvertisement:
 1107              	.LFB163:
 807:Generated_Source\PSoC6\pdl\middleware\ble/cy_ble_gap.c ****     cy_en_ble_api_result_t apiResult;
 1108              		.loc 1 807 0
 1109              		.cfi_startproc
 1110              		@ args = 0, pretend = 0, frame = 0
 1111              		@ frame_needed = 0, uses_anonymous_args = 0
 1112 0000 10B5     		push	{r4, lr}
 1113              		.cfi_def_cfa_offset 8
 1114              		.cfi_offset 4, -8
 1115              		.cfi_offset 14, -4
 1116              	.LBB37:
 1117              	.LBB38:
 745:Generated_Source\PSoC6\pdl\middleware\ble/cy_ble_gap.h **** }
 1118              		.loc 2 745 0
 1119 0002 074B     		ldr	r3, .L84
 1120 0004 1B78     		ldrb	r3, [r3]
 1121              	.LBE38:
 1122              	.LBE37:
 810:Generated_Source\PSoC6\pdl\middleware\ble/cy_ble_gap.c ****     {
 1123              		.loc 1 810 0
 1124 0006 002B     		cmp	r3, #0
 1125 0008 07D0     		beq	.L83
 812:Generated_Source\PSoC6\pdl\middleware\ble/cy_ble_gap.c ****         if(apiResult == CY_BLE_SUCCESS)
 1126              		.loc 1 812 0
 1127 000a FFF7FEFF 		bl	Cy_BLE_GAPP_ExitDiscoveryMode
 1128              	.LVL117:
 813:Generated_Source\PSoC6\pdl\middleware\ble/cy_ble_gap.c ****         {
 1129              		.loc 1 813 0
 1130 000e 0028     		cmp	r0, #0
 1131 0010 04D1     		bne	.L82
 1132              	.LVL118:
 1133              	.LBB39:
 1134              	.LBB40:
 763:Generated_Source\PSoC6\pdl\middleware\ble/cy_ble_gap.h **** }
 1135              		.loc 2 763 0
 1136 0012 0322     		movs	r2, #3
 1137 0014 024B     		ldr	r3, .L84
 1138 0016 1A70     		strb	r2, [r3]
 1139 0018 00E0     		b	.L82
 1140              	.LVL119:
 1141              	.L83:
 1142              	.LBE40:
 1143              	.LBE39:
ARM GAS  C:\Users\salaz\AppData\Local\Temp\ccu2LhKM.s 			page 64


 820:Generated_Source\PSoC6\pdl\middleware\ble/cy_ble_gap.c ****     }
 1144              		.loc 1 820 0
 1145 001a 0248     		ldr	r0, .L84+4
 1146              	.L82:
 1147              	.LVL120:
 824:Generated_Source\PSoC6\pdl\middleware\ble/cy_ble_gap.c **** 
 1148              		.loc 1 824 0
 1149              		@ sp needed
 1150 001c 10BD     		pop	{r4, pc}
 1151              	.L85:
 1152 001e C046     		.align	2
 1153              	.L84:
 1154 0020 00000000 		.word	cy_ble_advState
 1155 0024 FF001600 		.word	1442047
 1156              		.cfi_endproc
 1157              	.LFE163:
 1158              		.size	Cy_BLE_GAPP_StopAdvertisement, .-Cy_BLE_GAPP_StopAdvertisement
 1159              		.section	.text.Cy_BLE_ChangeAdDeviceAddress,"ax",%progbits
 1160              		.align	2
 1161              		.global	Cy_BLE_ChangeAdDeviceAddress
 1162              		.code	16
 1163              		.thumb_func
 1164              		.type	Cy_BLE_ChangeAdDeviceAddress, %function
 1165              	Cy_BLE_ChangeAdDeviceAddress:
 1166              	.LFB164:
 844:Generated_Source\PSoC6\pdl\middleware\ble/cy_ble_gap.c ****     uint32_t i;
 1167              		.loc 1 844 0
 1168              		.cfi_startproc
 1169              		@ args = 0, pretend = 0, frame = 0
 1170              		@ frame_needed = 0, uses_anonymous_args = 0
 1171              	.LVL121:
 1172 0000 70B5     		push	{r4, r5, r6, lr}
 1173              		.cfi_def_cfa_offset 16
 1174              		.cfi_offset 4, -16
 1175              		.cfi_offset 5, -12
 1176              		.cfi_offset 6, -8
 1177              		.cfi_offset 14, -4
 1178              	.LVL122:
 858:Generated_Source\PSoC6\pdl\middleware\ble/cy_ble_gap.c ****         {
 1179              		.loc 1 858 0
 1180 0002 0029     		cmp	r1, #0
 1181 0004 07D1     		bne	.L87
 860:Generated_Source\PSoC6\pdl\middleware\ble/cy_ble_gap.c ****             maxLength = cy_ble_configPtr->discoveryModeInfo[advIndex].advData->advDataLen;
 1182              		.loc 1 860 0
 1183 0006 154B     		ldr	r3, .L97
 1184 0008 1B68     		ldr	r3, [r3]
 1185 000a 1B68     		ldr	r3, [r3]
 1186 000c 9968     		ldr	r1, [r3, #8]
 1187              	.LVL123:
 861:Generated_Source\PSoC6\pdl\middleware\ble/cy_ble_gap.c ****         }
 1188              		.loc 1 861 0
 1189 000e CE7F     		ldrb	r6, [r1, #31]
 1190              	.LVL124:
 1191              	.L89:
 844:Generated_Source\PSoC6\pdl\middleware\ble/cy_ble_gap.c ****     uint32_t i;
 1192              		.loc 1 844 0
 1193 0010 0023     		movs	r3, #0
ARM GAS  C:\Users\salaz\AppData\Local\Temp\ccu2LhKM.s 			page 65


 1194 0012 0025     		movs	r5, #0
 1195 0014 0FE0     		b	.L91
 1196              	.LVL125:
 1197              	.L87:
 865:Generated_Source\PSoC6\pdl\middleware\ble/cy_ble_gap.c ****             maxLength = cy_ble_configPtr->discoveryModeInfo[advIndex].scanRspData->scanRspDataLen;
 1198              		.loc 1 865 0
 1199 0016 114B     		ldr	r3, .L97
 1200 0018 1B68     		ldr	r3, [r3]
 1201 001a 1B68     		ldr	r3, [r3]
 1202 001c D968     		ldr	r1, [r3, #12]
 1203              	.LVL126:
 866:Generated_Source\PSoC6\pdl\middleware\ble/cy_ble_gap.c ****         }
 1204              		.loc 1 866 0
 1205 001e CE7F     		ldrb	r6, [r1, #31]
 1206              	.LVL127:
 1207 0020 F6E7     		b	.L89
 1208              	.LVL128:
 1209              	.L92:
 871:Generated_Source\PSoC6\pdl\middleware\ble/cy_ble_gap.c **** 
 1210              		.loc 1 871 0
 1211 0022 CA5C     		ldrb	r2, [r1, r3]
 1212              	.LVL129:
 873:Generated_Source\PSoC6\pdl\middleware\ble/cy_ble_gap.c ****             {
 1213              		.loc 1 873 0
 1214 0024 002A     		cmp	r2, #0
 1215 0026 0AD0     		beq	.L90
 876:Generated_Source\PSoC6\pdl\middleware\ble/cy_ble_gap.c **** 
 1216              		.loc 1 876 0
 1217 0028 0133     		adds	r3, r3, #1
 1218              	.LVL130:
 878:Generated_Source\PSoC6\pdl\middleware\ble/cy_ble_gap.c ****                 {
 1219              		.loc 1 878 0
 1220 002a CC5C     		ldrb	r4, [r1, r3]
 1221 002c 1B2C     		cmp	r4, #27
 1222 002e 01D0     		beq	.L96
 885:Generated_Source\PSoC6\pdl\middleware\ble/cy_ble_gap.c ****                 }
 1223              		.loc 1 885 0
 1224 0030 9B18     		adds	r3, r3, r2
 1225              	.LVL131:
 1226 0032 00E0     		b	.L91
 1227              	.L96:
 881:Generated_Source\PSoC6\pdl\middleware\ble/cy_ble_gap.c ****                 }
 1228              		.loc 1 881 0
 1229 0034 0125     		movs	r5, #1
 1230              	.LVL132:
 1231              	.L91:
 869:Generated_Source\PSoC6\pdl\middleware\ble/cy_ble_gap.c ****         {
 1232              		.loc 1 869 0
 1233 0036 B342     		cmp	r3, r6
 1234 0038 01D2     		bcs	.L90
 869:Generated_Source\PSoC6\pdl\middleware\ble/cy_ble_gap.c ****         {
 1235              		.loc 1 869 0 is_stmt 0 discriminator 1
 1236 003a 002D     		cmp	r5, #0
 1237 003c F1D0     		beq	.L92
 1238              	.L90:
 895:Generated_Source\PSoC6\pdl\middleware\ble/cy_ble_gap.c ****         {
 1239              		.loc 1 895 0 is_stmt 1
ARM GAS  C:\Users\salaz\AppData\Local\Temp\ccu2LhKM.s 			page 66


 1240 003e 002D     		cmp	r5, #0
 1241 0040 0BD0     		beq	.L86
 898:Generated_Source\PSoC6\pdl\middleware\ble/cy_ble_gap.c **** 
 1242              		.loc 1 898 0
 1243 0042 0133     		adds	r3, r3, #1
 1244              	.LVL133:
 901:Generated_Source\PSoC6\pdl\middleware\ble/cy_ble_gap.c **** 
 1245              		.loc 1 901 0
 1246 0044 8279     		ldrb	r2, [r0, #6]
 1247 0046 CA54     		strb	r2, [r1, r3]
 1248              	.LVL134:
 903:Generated_Source\PSoC6\pdl\middleware\ble/cy_ble_gap.c ****             {
 1249              		.loc 1 903 0
 1250 0048 0022     		movs	r2, #0
 1251 004a 04E0     		b	.L94
 1252              	.LVL135:
 1253              	.L95:
 905:Generated_Source\PSoC6\pdl\middleware\ble/cy_ble_gap.c ****             }
 1254              		.loc 1 905 0 discriminator 3
 1255 004c D418     		adds	r4, r2, r3
 1256 004e 0134     		adds	r4, r4, #1
 1257 0050 855C     		ldrb	r5, [r0, r2]
 1258 0052 0D55     		strb	r5, [r1, r4]
 903:Generated_Source\PSoC6\pdl\middleware\ble/cy_ble_gap.c ****             {
 1259              		.loc 1 903 0 discriminator 3
 1260 0054 0132     		adds	r2, r2, #1
 1261              	.LVL136:
 1262              	.L94:
 903:Generated_Source\PSoC6\pdl\middleware\ble/cy_ble_gap.c ****             {
 1263              		.loc 1 903 0 is_stmt 0 discriminator 1
 1264 0056 052A     		cmp	r2, #5
 1265 0058 F8D9     		bls	.L95
 1266              	.LVL137:
 1267              	.L86:
 911:Generated_Source\PSoC6\pdl\middleware\ble/cy_ble_gap.c **** 
 1268              		.loc 1 911 0 is_stmt 1
 1269              		@ sp needed
 1270              	.LVL138:
 1271 005a 70BD     		pop	{r4, r5, r6, pc}
 1272              	.L98:
 1273              		.align	2
 1274              	.L97:
 1275 005c 00000000 		.word	cy_ble_configPtr
 1276              		.cfi_endproc
 1277              	.LFE164:
 1278              		.size	Cy_BLE_ChangeAdDeviceAddress, .-Cy_BLE_ChangeAdDeviceAddress
 1279              		.section	.text.Cy_BLE_SetLocalName,"ax",%progbits
 1280              		.align	2
 1281              		.global	Cy_BLE_SetLocalName
 1282              		.code	16
 1283              		.thumb_func
 1284              		.type	Cy_BLE_SetLocalName, %function
 1285              	Cy_BLE_SetLocalName:
 1286              	.LFB166:
1361:Generated_Source\PSoC6\pdl\middleware\ble/cy_ble_gap.c **** 
1362:Generated_Source\PSoC6\pdl\middleware\ble/cy_ble_gap.c **** #endif /* (CY_BLE_GAP_ROLE_PERIPHERAL) */
1363:Generated_Source\PSoC6\pdl\middleware\ble/cy_ble_gap.c **** 
ARM GAS  C:\Users\salaz\AppData\Local\Temp\ccu2LhKM.s 			page 67


1364:Generated_Source\PSoC6\pdl\middleware\ble/cy_ble_gap.c **** 
1365:Generated_Source\PSoC6\pdl\middleware\ble/cy_ble_gap.c **** /******************************************************************************
1366:Generated_Source\PSoC6\pdl\middleware\ble/cy_ble_gap.c ****  * Function Name: Cy_BLE_SetLocalName
1367:Generated_Source\PSoC6\pdl\middleware\ble/cy_ble_gap.c ****  ***************************************************************************//**
1368:Generated_Source\PSoC6\pdl\middleware\ble/cy_ble_gap.c ****  *  This function is used to set the local device name - a Characteristic of the
1369:Generated_Source\PSoC6\pdl\middleware\ble/cy_ble_gap.c ****  *  GAP Service. If the characteristic length entered in the Component customizer
1370:Generated_Source\PSoC6\pdl\middleware\ble/cy_ble_gap.c ****  *  is shorter than the string specified by the "name" parameter, the local device
1371:Generated_Source\PSoC6\pdl\middleware\ble/cy_ble_gap.c ****  *  name will be cut to the length specified in the customizer.
1372:Generated_Source\PSoC6\pdl\middleware\ble/cy_ble_gap.c ****  *
1373:Generated_Source\PSoC6\pdl\middleware\ble/cy_ble_gap.c ****  *  \param name: The local device name string. The name string to be written as
1374:Generated_Source\PSoC6\pdl\middleware\ble/cy_ble_gap.c ****  *              the local device name. It represents a UTF-8 encoded User
1375:Generated_Source\PSoC6\pdl\middleware\ble/cy_ble_gap.c ****  *              Friendly Descriptive Name for the device. The length of the local
1376:Generated_Source\PSoC6\pdl\middleware\ble/cy_ble_gap.c ****  *              device string is entered into the Component customizer and it can
1377:Generated_Source\PSoC6\pdl\middleware\ble/cy_ble_gap.c ****  *              be set to a value from 0 to 248 bytes. If the name contained in
1378:Generated_Source\PSoC6\pdl\middleware\ble/cy_ble_gap.c ****  *              the parameter is shorter than the length from the customizer, the
1379:Generated_Source\PSoC6\pdl\middleware\ble/cy_ble_gap.c ****  *              end of the name is indicated by a NULL octet (0x00).
1380:Generated_Source\PSoC6\pdl\middleware\ble/cy_ble_gap.c ****  *
1381:Generated_Source\PSoC6\pdl\middleware\ble/cy_ble_gap.c ****  *  \return
1382:Generated_Source\PSoC6\pdl\middleware\ble/cy_ble_gap.c ****  *  \ref cy_en_ble_api_result_t : Return value indicates if the function succeeded or
1383:Generated_Source\PSoC6\pdl\middleware\ble/cy_ble_gap.c ****  *   failed. The following are possible error codes.
1384:Generated_Source\PSoC6\pdl\middleware\ble/cy_ble_gap.c ****  *
1385:Generated_Source\PSoC6\pdl\middleware\ble/cy_ble_gap.c ****  *   Error Codes                         | Description
1386:Generated_Source\PSoC6\pdl\middleware\ble/cy_ble_gap.c ****  *   ------------                        | -----------
1387:Generated_Source\PSoC6\pdl\middleware\ble/cy_ble_gap.c ****  *   CY_BLE_SUCCESS                      | The function completed successfully.
1388:Generated_Source\PSoC6\pdl\middleware\ble/cy_ble_gap.c ****  *   CY_BLE_ERROR_INVALID_PARAMETER      | On specifying NULL as input parameter.
1389:Generated_Source\PSoC6\pdl\middleware\ble/cy_ble_gap.c ****  *
1390:Generated_Source\PSoC6\pdl\middleware\ble/cy_ble_gap.c ****  *******************************************************************************/
1391:Generated_Source\PSoC6\pdl\middleware\ble/cy_ble_gap.c **** cy_en_ble_api_result_t Cy_BLE_SetLocalName(const char8 name[])
1392:Generated_Source\PSoC6\pdl\middleware\ble/cy_ble_gap.c **** {
 1287              		.loc 1 1392 0
 1288              		.cfi_startproc
 1289              		@ args = 0, pretend = 0, frame = 0
 1290              		@ frame_needed = 0, uses_anonymous_args = 0
 1291              	.LVL139:
 1292 0000 70B5     		push	{r4, r5, r6, lr}
 1293              		.cfi_def_cfa_offset 16
 1294              		.cfi_offset 4, -16
 1295              		.cfi_offset 5, -12
 1296              		.cfi_offset 6, -8
 1297              		.cfi_offset 14, -4
 1298 0002 041E     		subs	r4, r0, #0
 1299              	.LVL140:
1393:Generated_Source\PSoC6\pdl\middleware\ble/cy_ble_gap.c ****     cy_en_ble_api_result_t apiResult = CY_BLE_SUCCESS;
1394:Generated_Source\PSoC6\pdl\middleware\ble/cy_ble_gap.c ****     uint32_t i;
1395:Generated_Source\PSoC6\pdl\middleware\ble/cy_ble_gap.c ****     char8 *ptr;
1396:Generated_Source\PSoC6\pdl\middleware\ble/cy_ble_gap.c ****     uint8_t charLen;
1397:Generated_Source\PSoC6\pdl\middleware\ble/cy_ble_gap.c **** 
1398:Generated_Source\PSoC6\pdl\middleware\ble/cy_ble_gap.c ****     if(NULL != name)
 1300              		.loc 1 1398 0
 1301 0004 25D0     		beq	.L105
1399:Generated_Source\PSoC6\pdl\middleware\ble/cy_ble_gap.c ****     {
1400:Generated_Source\PSoC6\pdl\middleware\ble/cy_ble_gap.c ****         /* Get the pointer to the Device Name characteristic  */
1401:Generated_Source\PSoC6\pdl\middleware\ble/cy_ble_gap.c ****         ptr = (char8*)CY_BLE_GATT_DB_ATTR_GET_ATTR_GEN_PTR(cy_ble_configPtr->gaps->deviceNameCharHa
 1302              		.loc 1 1401 0
 1303 0006 144B     		ldr	r3, .L106
 1304 0008 1A68     		ldr	r2, [r3]
 1305 000a 136A     		ldr	r3, [r2, #32]
ARM GAS  C:\Users\salaz\AppData\Local\Temp\ccu2LhKM.s 			page 68


 1306 000c 9269     		ldr	r2, [r2, #24]
 1307 000e 5288     		ldrh	r2, [r2, #2]
 1308 0010 9100     		lsls	r1, r2, #2
 1309 0012 8918     		adds	r1, r1, r2
 1310 0014 8A00     		lsls	r2, r1, #2
 1311 0016 143A     		subs	r2, r2, #20
 1312 0018 9B18     		adds	r3, r3, r2
 1313 001a 1A69     		ldr	r2, [r3, #16]
 1314 001c 5568     		ldr	r5, [r2, #4]
 1315              	.LVL141:
1402:Generated_Source\PSoC6\pdl\middleware\ble/cy_ble_gap.c **** 
1403:Generated_Source\PSoC6\pdl\middleware\ble/cy_ble_gap.c ****         /* First need to get the maximum length of the characteristic data in the GATT
1404:Generated_Source\PSoC6\pdl\middleware\ble/cy_ble_gap.c ****          *  database to make sure there is enough place for the data. The length
1405:Generated_Source\PSoC6\pdl\middleware\ble/cy_ble_gap.c ****          *  can't be longer than 248, so only the LSB of 16 bit of length is to
1406:Generated_Source\PSoC6\pdl\middleware\ble/cy_ble_gap.c ****          *  be used. */
1407:Generated_Source\PSoC6\pdl\middleware\ble/cy_ble_gap.c ****         charLen = (uint8_t)CY_BLE_GATT_DB_ATTR_GET_ATTR_GEN_MAX_LEN(cy_ble_configPtr->gaps->deviceN
 1316              		.loc 1 1407 0
 1317 001e 197B     		ldrb	r1, [r3, #12]
 1318              	.LVL142:
1408:Generated_Source\PSoC6\pdl\middleware\ble/cy_ble_gap.c **** 
1409:Generated_Source\PSoC6\pdl\middleware\ble/cy_ble_gap.c ****         /* Copy name into characteristic */
1410:Generated_Source\PSoC6\pdl\middleware\ble/cy_ble_gap.c ****         for(i = 0u; ((i < charLen) && (name[i] != CY_BLE_NULL_CHARCTER)); i++)
 1319              		.loc 1 1410 0
 1320 0020 0023     		movs	r3, #0
 1321 0022 01E0     		b	.L101
 1322              	.LVL143:
 1323              	.L103:
1411:Generated_Source\PSoC6\pdl\middleware\ble/cy_ble_gap.c ****         {
1412:Generated_Source\PSoC6\pdl\middleware\ble/cy_ble_gap.c ****             ptr[i] = name[i];
 1324              		.loc 1 1412 0 discriminator 4
 1325 0024 EA54     		strb	r2, [r5, r3]
1410:Generated_Source\PSoC6\pdl\middleware\ble/cy_ble_gap.c ****         {
 1326              		.loc 1 1410 0 discriminator 4
 1327 0026 0133     		adds	r3, r3, #1
 1328              	.LVL144:
 1329              	.L101:
1410:Generated_Source\PSoC6\pdl\middleware\ble/cy_ble_gap.c ****         {
 1330              		.loc 1 1410 0 is_stmt 0 discriminator 1
 1331 0028 0800     		movs	r0, r1
 1332 002a 8B42     		cmp	r3, r1
 1333 002c 02D2     		bcs	.L102
1410:Generated_Source\PSoC6\pdl\middleware\ble/cy_ble_gap.c ****         {
 1334              		.loc 1 1410 0 discriminator 3
 1335 002e E25C     		ldrb	r2, [r4, r3]
 1336 0030 002A     		cmp	r2, #0
 1337 0032 F7D1     		bne	.L103
 1338              	.L102:
1413:Generated_Source\PSoC6\pdl\middleware\ble/cy_ble_gap.c ****         }
1414:Generated_Source\PSoC6\pdl\middleware\ble/cy_ble_gap.c **** 
1415:Generated_Source\PSoC6\pdl\middleware\ble/cy_ble_gap.c ****         if(i < charLen)
 1339              		.loc 1 1415 0 is_stmt 1
 1340 0034 8342     		cmp	r3, r0
 1341 0036 02D2     		bcs	.L104
1416:Generated_Source\PSoC6\pdl\middleware\ble/cy_ble_gap.c ****         {
1417:Generated_Source\PSoC6\pdl\middleware\ble/cy_ble_gap.c ****             /* Terminate string */
1418:Generated_Source\PSoC6\pdl\middleware\ble/cy_ble_gap.c ****             ptr[i] = CY_BLE_NULL_CHARCTER;
 1342              		.loc 1 1418 0
ARM GAS  C:\Users\salaz\AppData\Local\Temp\ccu2LhKM.s 			page 69


 1343 0038 EB18     		adds	r3, r5, r3
 1344              	.LVL145:
 1345 003a 0022     		movs	r2, #0
 1346 003c 1A70     		strb	r2, [r3]
 1347              	.L104:
1419:Generated_Source\PSoC6\pdl\middleware\ble/cy_ble_gap.c ****         }
1420:Generated_Source\PSoC6\pdl\middleware\ble/cy_ble_gap.c **** 
1421:Generated_Source\PSoC6\pdl\middleware\ble/cy_ble_gap.c ****         /* Update device name in advertising and scan response structure */
1422:Generated_Source\PSoC6\pdl\middleware\ble/cy_ble_gap.c ****         #if (CY_BLE_GAP_ROLE_PERIPHERAL)
1423:Generated_Source\PSoC6\pdl\middleware\ble/cy_ble_gap.c ****         Cy_BLE_ChangeAdLocalName(name, 0u);
 1348              		.loc 1 1423 0
 1349 003e 0021     		movs	r1, #0
 1350              	.LVL146:
 1351 0040 2000     		movs	r0, r4
 1352              	.LVL147:
 1353 0042 FFF7FEFF 		bl	Cy_BLE_ChangeAdLocalName
 1354              	.LVL148:
1424:Generated_Source\PSoC6\pdl\middleware\ble/cy_ble_gap.c ****         Cy_BLE_ChangeAdLocalName(name, 1u);
 1355              		.loc 1 1424 0
 1356 0046 0121     		movs	r1, #1
 1357 0048 2000     		movs	r0, r4
 1358 004a FFF7FEFF 		bl	Cy_BLE_ChangeAdLocalName
 1359              	.LVL149:
1393:Generated_Source\PSoC6\pdl\middleware\ble/cy_ble_gap.c ****     uint32_t i;
 1360              		.loc 1 1393 0
 1361 004e 0020     		movs	r0, #0
 1362 0050 00E0     		b	.L100
 1363              	.LVL150:
 1364              	.L105:
1425:Generated_Source\PSoC6\pdl\middleware\ble/cy_ble_gap.c ****         #endif /* (CY_BLE_GAP_ROLE_PERIPHERAL) */
1426:Generated_Source\PSoC6\pdl\middleware\ble/cy_ble_gap.c ****     }
1427:Generated_Source\PSoC6\pdl\middleware\ble/cy_ble_gap.c ****     else
1428:Generated_Source\PSoC6\pdl\middleware\ble/cy_ble_gap.c ****     {
1429:Generated_Source\PSoC6\pdl\middleware\ble/cy_ble_gap.c ****         apiResult = CY_BLE_ERROR_INVALID_PARAMETER;
 1365              		.loc 1 1429 0
 1366 0052 0248     		ldr	r0, .L106+4
 1367              	.LVL151:
 1368              	.L100:
1430:Generated_Source\PSoC6\pdl\middleware\ble/cy_ble_gap.c ****     }
1431:Generated_Source\PSoC6\pdl\middleware\ble/cy_ble_gap.c **** 
1432:Generated_Source\PSoC6\pdl\middleware\ble/cy_ble_gap.c ****     return(apiResult);
1433:Generated_Source\PSoC6\pdl\middleware\ble/cy_ble_gap.c **** }
 1369              		.loc 1 1433 0
 1370              		@ sp needed
 1371              	.LVL152:
 1372 0054 70BD     		pop	{r4, r5, r6, pc}
 1373              	.L107:
 1374 0056 C046     		.align	2
 1375              	.L106:
 1376 0058 00000000 		.word	cy_ble_configPtr
 1377 005c 01001600 		.word	1441793
 1378              		.cfi_endproc
 1379              	.LFE166:
 1380              		.size	Cy_BLE_SetLocalName, .-Cy_BLE_SetLocalName
 1381              		.section	.text.Cy_BLE_GetLocalName,"ax",%progbits
 1382              		.align	2
 1383              		.global	Cy_BLE_GetLocalName
ARM GAS  C:\Users\salaz\AppData\Local\Temp\ccu2LhKM.s 			page 70


 1384              		.code	16
 1385              		.thumb_func
 1386              		.type	Cy_BLE_GetLocalName, %function
 1387              	Cy_BLE_GetLocalName:
 1388              	.LFB167:
1434:Generated_Source\PSoC6\pdl\middleware\ble/cy_ble_gap.c **** 
1435:Generated_Source\PSoC6\pdl\middleware\ble/cy_ble_gap.c **** 
1436:Generated_Source\PSoC6\pdl\middleware\ble/cy_ble_gap.c **** /******************************************************************************
1437:Generated_Source\PSoC6\pdl\middleware\ble/cy_ble_gap.c **** * Function Name: Cy_BLE_GetLocalName
1438:Generated_Source\PSoC6\pdl\middleware\ble/cy_ble_gap.c **** ***************************************************************************//**
1439:Generated_Source\PSoC6\pdl\middleware\ble/cy_ble_gap.c **** *
1440:Generated_Source\PSoC6\pdl\middleware\ble/cy_ble_gap.c **** *  This function is used to read the local device name - a Characteristic of
1441:Generated_Source\PSoC6\pdl\middleware\ble/cy_ble_gap.c **** *  the GAP Service.
1442:Generated_Source\PSoC6\pdl\middleware\ble/cy_ble_gap.c **** *
1443:Generated_Source\PSoC6\pdl\middleware\ble/cy_ble_gap.c **** *  \param name: The local device name string. Used to read the local name to the
1444:Generated_Source\PSoC6\pdl\middleware\ble/cy_ble_gap.c **** *             given string array. It represents a UTF-8 encoded User Friendly
1445:Generated_Source\PSoC6\pdl\middleware\ble/cy_ble_gap.c **** *             Descriptive Name for the device. The length of the local device
1446:Generated_Source\PSoC6\pdl\middleware\ble/cy_ble_gap.c **** *             string is entered into the Component customizer and it can be set
1447:Generated_Source\PSoC6\pdl\middleware\ble/cy_ble_gap.c **** *             to a value from 0 to 248 bytes. If the name contained in the
1448:Generated_Source\PSoC6\pdl\middleware\ble/cy_ble_gap.c **** *             parameter is shorter than the length from the customizer, the end
1449:Generated_Source\PSoC6\pdl\middleware\ble/cy_ble_gap.c **** *             of the name is indicated by a NULL octet (0x00).
1450:Generated_Source\PSoC6\pdl\middleware\ble/cy_ble_gap.c **** *
1451:Generated_Source\PSoC6\pdl\middleware\ble/cy_ble_gap.c **** *  \return
1452:Generated_Source\PSoC6\pdl\middleware\ble/cy_ble_gap.c **** *  \ref cy_en_ble_api_result_t : Return value indicates if the function succeeded or
1453:Generated_Source\PSoC6\pdl\middleware\ble/cy_ble_gap.c **** *   failed. The following are possible error codes.
1454:Generated_Source\PSoC6\pdl\middleware\ble/cy_ble_gap.c **** *
1455:Generated_Source\PSoC6\pdl\middleware\ble/cy_ble_gap.c **** *   Error Codes                         | Description
1456:Generated_Source\PSoC6\pdl\middleware\ble/cy_ble_gap.c **** *   ------------                        | -----------
1457:Generated_Source\PSoC6\pdl\middleware\ble/cy_ble_gap.c **** *   CY_BLE_SUCCESS                      | The function completed successfully.
1458:Generated_Source\PSoC6\pdl\middleware\ble/cy_ble_gap.c **** *   CY_BLE_ERROR_INVALID_PARAMETER      | On specifying NULL as input parameter.
1459:Generated_Source\PSoC6\pdl\middleware\ble/cy_ble_gap.c **** *
1460:Generated_Source\PSoC6\pdl\middleware\ble/cy_ble_gap.c **** *******************************************************************************/
1461:Generated_Source\PSoC6\pdl\middleware\ble/cy_ble_gap.c **** cy_en_ble_api_result_t Cy_BLE_GetLocalName(char8 name[])
1462:Generated_Source\PSoC6\pdl\middleware\ble/cy_ble_gap.c **** {
 1389              		.loc 1 1462 0
 1390              		.cfi_startproc
 1391              		@ args = 0, pretend = 0, frame = 0
 1392              		@ frame_needed = 0, uses_anonymous_args = 0
 1393              	.LVL153:
 1394 0000 10B5     		push	{r4, lr}
 1395              		.cfi_def_cfa_offset 8
 1396              		.cfi_offset 4, -8
 1397              		.cfi_offset 14, -4
 1398              	.LVL154:
1463:Generated_Source\PSoC6\pdl\middleware\ble/cy_ble_gap.c ****     cy_en_ble_api_result_t apiResult = CY_BLE_SUCCESS;
1464:Generated_Source\PSoC6\pdl\middleware\ble/cy_ble_gap.c ****     uint8_t charLen;
1465:Generated_Source\PSoC6\pdl\middleware\ble/cy_ble_gap.c ****     uint32_t i;
1466:Generated_Source\PSoC6\pdl\middleware\ble/cy_ble_gap.c ****     char8 *ptr;
1467:Generated_Source\PSoC6\pdl\middleware\ble/cy_ble_gap.c **** 
1468:Generated_Source\PSoC6\pdl\middleware\ble/cy_ble_gap.c ****     if(NULL != name)
 1399              		.loc 1 1468 0
 1400 0002 0028     		cmp	r0, #0
 1401 0004 1AD0     		beq	.L113
1469:Generated_Source\PSoC6\pdl\middleware\ble/cy_ble_gap.c ****     {
1470:Generated_Source\PSoC6\pdl\middleware\ble/cy_ble_gap.c ****         /* Get the pointer to the Device Name characteristic  */
1471:Generated_Source\PSoC6\pdl\middleware\ble/cy_ble_gap.c ****         ptr = (char8*)CY_BLE_GATT_DB_ATTR_GET_ATTR_GEN_PTR(cy_ble_configPtr->gaps->deviceNameCharHa
 1402              		.loc 1 1471 0
ARM GAS  C:\Users\salaz\AppData\Local\Temp\ccu2LhKM.s 			page 71


 1403 0006 0E4B     		ldr	r3, .L114
 1404 0008 1A68     		ldr	r2, [r3]
 1405 000a 116A     		ldr	r1, [r2, #32]
 1406 000c 9369     		ldr	r3, [r2, #24]
 1407 000e 5A88     		ldrh	r2, [r3, #2]
 1408 0010 9300     		lsls	r3, r2, #2
 1409 0012 9A18     		adds	r2, r3, r2
 1410 0014 9300     		lsls	r3, r2, #2
 1411 0016 143B     		subs	r3, r3, #20
 1412 0018 CB18     		adds	r3, r1, r3
 1413 001a 1B69     		ldr	r3, [r3, #16]
 1414 001c 5C68     		ldr	r4, [r3, #4]
 1415              	.LVL155:
1472:Generated_Source\PSoC6\pdl\middleware\ble/cy_ble_gap.c **** 
1473:Generated_Source\PSoC6\pdl\middleware\ble/cy_ble_gap.c ****         /* First need to get the length of the characteristic data in the GATT
1474:Generated_Source\PSoC6\pdl\middleware\ble/cy_ble_gap.c ****          *  database to make sure there is enough place for the data. The length
1475:Generated_Source\PSoC6\pdl\middleware\ble/cy_ble_gap.c ****          *  can't be longer than 248, so only the LSB of 16 bit of length is to
1476:Generated_Source\PSoC6\pdl\middleware\ble/cy_ble_gap.c ****          *  be used. */
1477:Generated_Source\PSoC6\pdl\middleware\ble/cy_ble_gap.c ****         charLen = (uint8_t)CY_BLE_GATT_DB_ATTR_GET_ATTR_GEN_LEN(cy_ble_configPtr->gaps->deviceNameC
 1416              		.loc 1 1477 0
 1417 001e 1978     		ldrb	r1, [r3]
 1418              	.LVL156:
1478:Generated_Source\PSoC6\pdl\middleware\ble/cy_ble_gap.c **** 
1479:Generated_Source\PSoC6\pdl\middleware\ble/cy_ble_gap.c ****         /* Copy name from characteristic */
1480:Generated_Source\PSoC6\pdl\middleware\ble/cy_ble_gap.c ****         for(i = 0u; ((i < charLen) && (CY_BLE_NULL_CHARCTER != ptr[i])); i++)
 1419              		.loc 1 1480 0
 1420 0020 0023     		movs	r3, #0
 1421 0022 01E0     		b	.L110
 1422              	.LVL157:
 1423              	.L112:
1481:Generated_Source\PSoC6\pdl\middleware\ble/cy_ble_gap.c ****         {
1482:Generated_Source\PSoC6\pdl\middleware\ble/cy_ble_gap.c ****             name[i] = ptr[i];
 1424              		.loc 1 1482 0 discriminator 4
 1425 0024 C254     		strb	r2, [r0, r3]
1480:Generated_Source\PSoC6\pdl\middleware\ble/cy_ble_gap.c ****         {
 1426              		.loc 1 1480 0 discriminator 4
 1427 0026 0133     		adds	r3, r3, #1
 1428              	.LVL158:
 1429              	.L110:
1480:Generated_Source\PSoC6\pdl\middleware\ble/cy_ble_gap.c ****         {
 1430              		.loc 1 1480 0 is_stmt 0 discriminator 1
 1431 0028 8B42     		cmp	r3, r1
 1432 002a 02D2     		bcs	.L111
1480:Generated_Source\PSoC6\pdl\middleware\ble/cy_ble_gap.c ****         {
 1433              		.loc 1 1480 0 discriminator 3
 1434 002c E25C     		ldrb	r2, [r4, r3]
 1435 002e 002A     		cmp	r2, #0
 1436 0030 F8D1     		bne	.L112
 1437              	.L111:
1483:Generated_Source\PSoC6\pdl\middleware\ble/cy_ble_gap.c ****         }
1484:Generated_Source\PSoC6\pdl\middleware\ble/cy_ble_gap.c **** 
1485:Generated_Source\PSoC6\pdl\middleware\ble/cy_ble_gap.c ****         /* Terminate string */
1486:Generated_Source\PSoC6\pdl\middleware\ble/cy_ble_gap.c ****         name[i] = CY_BLE_NULL_CHARCTER;
 1438              		.loc 1 1486 0 is_stmt 1
 1439 0032 C318     		adds	r3, r0, r3
 1440              	.LVL159:
 1441 0034 0022     		movs	r2, #0
ARM GAS  C:\Users\salaz\AppData\Local\Temp\ccu2LhKM.s 			page 72


 1442 0036 1A70     		strb	r2, [r3]
1463:Generated_Source\PSoC6\pdl\middleware\ble/cy_ble_gap.c ****     uint8_t charLen;
 1443              		.loc 1 1463 0
 1444 0038 0020     		movs	r0, #0
 1445              	.LVL160:
 1446 003a 00E0     		b	.L109
 1447              	.LVL161:
 1448              	.L113:
1487:Generated_Source\PSoC6\pdl\middleware\ble/cy_ble_gap.c ****     }
1488:Generated_Source\PSoC6\pdl\middleware\ble/cy_ble_gap.c ****     else
1489:Generated_Source\PSoC6\pdl\middleware\ble/cy_ble_gap.c ****     {
1490:Generated_Source\PSoC6\pdl\middleware\ble/cy_ble_gap.c ****         apiResult = CY_BLE_ERROR_INVALID_PARAMETER;
 1449              		.loc 1 1490 0
 1450 003c 0148     		ldr	r0, .L114+4
 1451              	.LVL162:
 1452              	.L109:
1491:Generated_Source\PSoC6\pdl\middleware\ble/cy_ble_gap.c ****     }
1492:Generated_Source\PSoC6\pdl\middleware\ble/cy_ble_gap.c **** 
1493:Generated_Source\PSoC6\pdl\middleware\ble/cy_ble_gap.c ****     return(apiResult);
1494:Generated_Source\PSoC6\pdl\middleware\ble/cy_ble_gap.c **** }
 1453              		.loc 1 1494 0
 1454              		@ sp needed
 1455 003e 10BD     		pop	{r4, pc}
 1456              	.L115:
 1457              		.align	2
 1458              	.L114:
 1459 0040 00000000 		.word	cy_ble_configPtr
 1460 0044 01001600 		.word	1441793
 1461              		.cfi_endproc
 1462              	.LFE167:
 1463              		.size	Cy_BLE_GetLocalName, .-Cy_BLE_GetLocalName
 1464              		.section	.text.Cy_BLE_IsPeerConnected,"ax",%progbits
 1465              		.align	2
 1466              		.global	Cy_BLE_IsPeerConnected
 1467              		.code	16
 1468              		.thumb_func
 1469              		.type	Cy_BLE_IsPeerConnected, %function
 1470              	Cy_BLE_IsPeerConnected:
 1471              	.LFB168:
1495:Generated_Source\PSoC6\pdl\middleware\ble/cy_ble_gap.c **** 
1496:Generated_Source\PSoC6\pdl\middleware\ble/cy_ble_gap.c **** #endif /* (CY_BLE_GATT_ROLE_SERVER) */
1497:Generated_Source\PSoC6\pdl\middleware\ble/cy_ble_gap.c **** 
1498:Generated_Source\PSoC6\pdl\middleware\ble/cy_ble_gap.c **** #if (CY_BLE_GAP_ROLE_PERIPHERAL || CY_BLE_GAP_ROLE_CENTRAL)
1499:Generated_Source\PSoC6\pdl\middleware\ble/cy_ble_gap.c ****     
1500:Generated_Source\PSoC6\pdl\middleware\ble/cy_ble_gap.c **** /******************************************************************************
1501:Generated_Source\PSoC6\pdl\middleware\ble/cy_ble_gap.c **** * Function Name: Cy_BLE_IsPeerConnected
1502:Generated_Source\PSoC6\pdl\middleware\ble/cy_ble_gap.c **** ***************************************************************************//**
1503:Generated_Source\PSoC6\pdl\middleware\ble/cy_ble_gap.c **** *
1504:Generated_Source\PSoC6\pdl\middleware\ble/cy_ble_gap.c **** *  This function checks if the peer device represented by the bdAddr parameter
1505:Generated_Source\PSoC6\pdl\middleware\ble/cy_ble_gap.c **** *  is connected or not.
1506:Generated_Source\PSoC6\pdl\middleware\ble/cy_ble_gap.c **** *
1507:Generated_Source\PSoC6\pdl\middleware\ble/cy_ble_gap.c **** *  \param *bdAddr: Pointer to the peer bdAddr array. Peer bdAddr is returned 
1508:Generated_Source\PSoC6\pdl\middleware\ble/cy_ble_gap.c **** *                  as an event parameter of #CY_BLE_EVT_GAP_DEVICE_CONNECTED 
1509:Generated_Source\PSoC6\pdl\middleware\ble/cy_ble_gap.c **** *                  or similar events.
1510:Generated_Source\PSoC6\pdl\middleware\ble/cy_ble_gap.c **** *
1511:Generated_Source\PSoC6\pdl\middleware\ble/cy_ble_gap.c **** *  \return
1512:Generated_Source\PSoC6\pdl\middleware\ble/cy_ble_gap.c **** *   * true  - The peer device is connected.
ARM GAS  C:\Users\salaz\AppData\Local\Temp\ccu2LhKM.s 			page 73


1513:Generated_Source\PSoC6\pdl\middleware\ble/cy_ble_gap.c **** *   * false - The peer device is not connected.
1514:Generated_Source\PSoC6\pdl\middleware\ble/cy_ble_gap.c **** *
1515:Generated_Source\PSoC6\pdl\middleware\ble/cy_ble_gap.c **** *******************************************************************************/
1516:Generated_Source\PSoC6\pdl\middleware\ble/cy_ble_gap.c **** bool Cy_BLE_IsPeerConnected(uint8_t *bdAddr)
1517:Generated_Source\PSoC6\pdl\middleware\ble/cy_ble_gap.c **** { 
 1472              		.loc 1 1517 0
 1473              		.cfi_startproc
 1474              		@ args = 0, pretend = 0, frame = 16
 1475              		@ frame_needed = 0, uses_anonymous_args = 0
 1476              	.LVL163:
 1477 0000 70B5     		push	{r4, r5, r6, lr}
 1478              		.cfi_def_cfa_offset 16
 1479              		.cfi_offset 4, -16
 1480              		.cfi_offset 5, -12
 1481              		.cfi_offset 6, -8
 1482              		.cfi_offset 14, -4
 1483 0002 84B0     		sub	sp, sp, #16
 1484              		.cfi_def_cfa_offset 32
 1485 0004 0500     		movs	r5, r0
 1486              	.LVL164:
1518:Generated_Source\PSoC6\pdl\middleware\ble/cy_ble_gap.c ****     cy_en_ble_api_result_t apiResult = CY_BLE_SUCCESS;
1519:Generated_Source\PSoC6\pdl\middleware\ble/cy_ble_gap.c ****     uint32_t i;
1520:Generated_Source\PSoC6\pdl\middleware\ble/cy_ble_gap.c ****     bool isConnected = false;
1521:Generated_Source\PSoC6\pdl\middleware\ble/cy_ble_gap.c ****     
1522:Generated_Source\PSoC6\pdl\middleware\ble/cy_ble_gap.c ****     for(i = 0u; i < CY_BLE_CONN_COUNT; i++)
 1487              		.loc 1 1522 0
 1488 0006 0024     		movs	r4, #0
 1489 0008 29E0     		b	.L117
 1490              	.LVL165:
 1491              	.L122:
 1492 000a 01AE     		add	r6, sp, #4
 1493 000c 6300     		lsls	r3, r4, #1
 1494 000e 1649     		ldr	r1, .L124
 1495 0010 C918     		adds	r1, r1, r3
 1496 0012 0222     		movs	r2, #2
 1497 0014 3000     		movs	r0, r6
 1498 0016 FFF7FEFF 		bl	memcpy
 1499              	.LVL166:
 1500              	.LBB41:
 1501              	.LBB42:
 876:Generated_Source\PSoC6\pdl\middleware\ble/cy_ble_gap.h **** }
 1502              		.loc 2 876 0
 1503 001a 7378     		ldrb	r3, [r6, #1]
 1504 001c 002B     		cmp	r3, #0
 1505 001e 02D1     		bne	.L123
 1506 0020 124A     		ldr	r2, .L124+4
 1507 0022 D35C     		ldrb	r3, [r2, r3]
 1508 0024 00E0     		b	.L118
 1509              	.L123:
 1510 0026 0023     		movs	r3, #0
 1511              	.L118:
 1512              	.LBE42:
 1513              	.LBE41:
1523:Generated_Source\PSoC6\pdl\middleware\ble/cy_ble_gap.c ****     {
1524:Generated_Source\PSoC6\pdl\middleware\ble/cy_ble_gap.c ****         if(Cy_BLE_GetConnectionState(cy_ble_connHandle[i]) >= CY_BLE_CONN_STATE_CONNECTED)
 1514              		.loc 1 1524 0
 1515 0028 012B     		cmp	r3, #1
ARM GAS  C:\Users\salaz\AppData\Local\Temp\ccu2LhKM.s 			page 74


 1516 002a 17D9     		bls	.L119
 1517              	.LBB43:
1525:Generated_Source\PSoC6\pdl\middleware\ble/cy_ble_gap.c ****         {
1526:Generated_Source\PSoC6\pdl\middleware\ble/cy_ble_gap.c ****             /* Get BdAddress from bdHandle of the connected device */
1527:Generated_Source\PSoC6\pdl\middleware\ble/cy_ble_gap.c ****             cy_stc_ble_gap_peer_addr_info_t param = 
 1518              		.loc 1 1527 0
 1519 002c 02AE     		add	r6, sp, #8
 1520 002e 0822     		movs	r2, #8
 1521 0030 0021     		movs	r1, #0
 1522 0032 3000     		movs	r0, r6
 1523 0034 FFF7FEFF 		bl	memset
 1524              	.LVL167:
1528:Generated_Source\PSoC6\pdl\middleware\ble/cy_ble_gap.c ****             {
1529:Generated_Source\PSoC6\pdl\middleware\ble/cy_ble_gap.c ****                 .bdHandle = cy_ble_connHandle[i].bdHandle
 1525              		.loc 1 1529 0
 1526 0038 6300     		lsls	r3, r4, #1
 1527 003a 0B4A     		ldr	r2, .L124
 1528 003c 9B5C     		ldrb	r3, [r3, r2]
1527:Generated_Source\PSoC6\pdl\middleware\ble/cy_ble_gap.c ****             {
 1529              		.loc 1 1527 0
 1530 003e F371     		strb	r3, [r6, #7]
1530:Generated_Source\PSoC6\pdl\middleware\ble/cy_ble_gap.c ****             };
1531:Generated_Source\PSoC6\pdl\middleware\ble/cy_ble_gap.c ****             apiResult = Cy_BLE_GAP_GetPeerBdAddr(&param);
 1531              		.loc 1 1531 0
 1532 0040 3000     		movs	r0, r6
 1533 0042 FFF7FEFF 		bl	Cy_BLE_GAP_GetPeerBdAddr
 1534              	.LVL168:
1532:Generated_Source\PSoC6\pdl\middleware\ble/cy_ble_gap.c ****             
1533:Generated_Source\PSoC6\pdl\middleware\ble/cy_ble_gap.c ****             if(apiResult == CY_BLE_SUCCESS) 
 1535              		.loc 1 1533 0
 1536 0046 0028     		cmp	r0, #0
 1537 0048 08D1     		bne	.L119
1534:Generated_Source\PSoC6\pdl\middleware\ble/cy_ble_gap.c ****             {
1535:Generated_Source\PSoC6\pdl\middleware\ble/cy_ble_gap.c ****                 if(memcmp(&param.bdAddr.bdAddr,(void*) bdAddr, CY_BLE_GAP_BD_ADDR_SIZE) == 0u)
 1538              		.loc 1 1535 0
 1539 004a 0622     		movs	r2, #6
 1540 004c 2900     		movs	r1, r5
 1541 004e 02A8     		add	r0, sp, #8
 1542              	.LVL169:
 1543 0050 FFF7FEFF 		bl	memcmp
 1544              	.LVL170:
 1545 0054 0028     		cmp	r0, #0
 1546 0056 01D1     		bne	.L119
 1547              	.LVL171:
1536:Generated_Source\PSoC6\pdl\middleware\ble/cy_ble_gap.c ****                 {
1537:Generated_Source\PSoC6\pdl\middleware\ble/cy_ble_gap.c ****                     isConnected = true;
 1548              		.loc 1 1537 0
 1549 0058 0130     		adds	r0, r0, #1
 1550 005a 03E0     		b	.L121
 1551              	.LVL172:
 1552              	.L119:
 1553              	.LBE43:
1522:Generated_Source\PSoC6\pdl\middleware\ble/cy_ble_gap.c ****     {
 1554              		.loc 1 1522 0 discriminator 2
 1555 005c 0134     		adds	r4, r4, #1
 1556              	.LVL173:
 1557              	.L117:
ARM GAS  C:\Users\salaz\AppData\Local\Temp\ccu2LhKM.s 			page 75


1522:Generated_Source\PSoC6\pdl\middleware\ble/cy_ble_gap.c ****     {
 1558              		.loc 1 1522 0 is_stmt 0 discriminator 1
 1559 005e 002C     		cmp	r4, #0
 1560 0060 D3D0     		beq	.L122
1520:Generated_Source\PSoC6\pdl\middleware\ble/cy_ble_gap.c ****     
 1561              		.loc 1 1520 0 is_stmt 1
 1562 0062 0020     		movs	r0, #0
 1563              	.LVL174:
 1564              	.L121:
1538:Generated_Source\PSoC6\pdl\middleware\ble/cy_ble_gap.c ****                     break;
1539:Generated_Source\PSoC6\pdl\middleware\ble/cy_ble_gap.c ****                 } 
1540:Generated_Source\PSoC6\pdl\middleware\ble/cy_ble_gap.c ****             }
1541:Generated_Source\PSoC6\pdl\middleware\ble/cy_ble_gap.c ****         }
1542:Generated_Source\PSoC6\pdl\middleware\ble/cy_ble_gap.c ****     }
1543:Generated_Source\PSoC6\pdl\middleware\ble/cy_ble_gap.c ****     return (isConnected);
1544:Generated_Source\PSoC6\pdl\middleware\ble/cy_ble_gap.c **** } 
 1565              		.loc 1 1544 0
 1566 0064 04B0     		add	sp, sp, #16
 1567              		@ sp needed
 1568              	.LVL175:
 1569              	.LVL176:
 1570 0066 70BD     		pop	{r4, r5, r6, pc}
 1571              	.L125:
 1572              		.align	2
 1573              	.L124:
 1574 0068 00000000 		.word	cy_ble_connHandle
 1575 006c 00000000 		.word	cy_ble_connState
 1576              		.cfi_endproc
 1577              	.LFE168:
 1578              		.size	Cy_BLE_IsPeerConnected, .-Cy_BLE_IsPeerConnected
 1579              		.section	.text.Cy_BLE_IsDevicePaired,"ax",%progbits
 1580              		.align	2
 1581              		.global	Cy_BLE_IsDevicePaired
 1582              		.code	16
 1583              		.thumb_func
 1584              		.type	Cy_BLE_IsDevicePaired, %function
 1585              	Cy_BLE_IsDevicePaired:
 1586              	.LFB169:
1545:Generated_Source\PSoC6\pdl\middleware\ble/cy_ble_gap.c **** 
1546:Generated_Source\PSoC6\pdl\middleware\ble/cy_ble_gap.c **** 
1547:Generated_Source\PSoC6\pdl\middleware\ble/cy_ble_gap.c **** /******************************************************************************
1548:Generated_Source\PSoC6\pdl\middleware\ble/cy_ble_gap.c **** * Function Name: Cy_BLE_IsDevicePaired
1549:Generated_Source\PSoC6\pdl\middleware\ble/cy_ble_gap.c **** ***************************************************************************//**
1550:Generated_Source\PSoC6\pdl\middleware\ble/cy_ble_gap.c **** *
1551:Generated_Source\PSoC6\pdl\middleware\ble/cy_ble_gap.c **** *  The function is used to get the device pairing state.
1552:Generated_Source\PSoC6\pdl\middleware\ble/cy_ble_gap.c **** *
1553:Generated_Source\PSoC6\pdl\middleware\ble/cy_ble_gap.c **** *  \param connHandle: Pointer to the connection handle of the peer device.
1554:Generated_Source\PSoC6\pdl\middleware\ble/cy_ble_gap.c **** *
1555:Generated_Source\PSoC6\pdl\middleware\ble/cy_ble_gap.c **** *  \return
1556:Generated_Source\PSoC6\pdl\middleware\ble/cy_ble_gap.c **** *   * true  - The peer device pairing is successful. A successful pairing is 
1557:Generated_Source\PSoC6\pdl\middleware\ble/cy_ble_gap.c **** *             indicated when #CY_BLE_EVT_GAP_AUTH_COMPLETE event is received.
1558:Generated_Source\PSoC6\pdl\middleware\ble/cy_ble_gap.c **** *   * false - The peer device is not yet paired.
1559:Generated_Source\PSoC6\pdl\middleware\ble/cy_ble_gap.c **** *
1560:Generated_Source\PSoC6\pdl\middleware\ble/cy_ble_gap.c **** ******************************************************************************/
1561:Generated_Source\PSoC6\pdl\middleware\ble/cy_ble_gap.c **** bool Cy_BLE_IsDevicePaired(cy_stc_ble_conn_handle_t *connHandle)
1562:Generated_Source\PSoC6\pdl\middleware\ble/cy_ble_gap.c **** {
 1587              		.loc 1 1562 0
ARM GAS  C:\Users\salaz\AppData\Local\Temp\ccu2LhKM.s 			page 76


 1588              		.cfi_startproc
 1589              		@ args = 0, pretend = 0, frame = 0
 1590              		@ frame_needed = 0, uses_anonymous_args = 0
 1591              		@ link register save eliminated.
 1592              	.LVL177:
1563:Generated_Source\PSoC6\pdl\middleware\ble/cy_ble_gap.c ****     bool isPaired = false;
1564:Generated_Source\PSoC6\pdl\middleware\ble/cy_ble_gap.c ****     
1565:Generated_Source\PSoC6\pdl\middleware\ble/cy_ble_gap.c ****     if((connHandle != NULL) && (connHandle->attId < CY_BLE_CONN_COUNT))
 1593              		.loc 1 1565 0
 1594 0000 0028     		cmp	r0, #0
 1595 0002 07D0     		beq	.L128
 1596              		.loc 1 1565 0 is_stmt 0 discriminator 1
 1597 0004 4378     		ldrb	r3, [r0, #1]
 1598 0006 002B     		cmp	r3, #0
 1599 0008 06D1     		bne	.L129
1566:Generated_Source\PSoC6\pdl\middleware\ble/cy_ble_gap.c ****     {
1567:Generated_Source\PSoC6\pdl\middleware\ble/cy_ble_gap.c ****         isPaired = cy_ble_pairStatus[connHandle->attId];   
 1600              		.loc 1 1567 0 is_stmt 1
 1601 000a 044A     		ldr	r2, .L130
 1602 000c D318     		adds	r3, r2, r3
 1603 000e 187B     		ldrb	r0, [r3, #12]
 1604              	.LVL178:
 1605 0010 C0B2     		uxtb	r0, r0
 1606              	.LVL179:
 1607 0012 02E0     		b	.L127
 1608              	.LVL180:
 1609              	.L128:
1563:Generated_Source\PSoC6\pdl\middleware\ble/cy_ble_gap.c ****     bool isPaired = false;
 1610              		.loc 1 1563 0
 1611 0014 0020     		movs	r0, #0
 1612              	.LVL181:
 1613 0016 00E0     		b	.L127
 1614              	.LVL182:
 1615              	.L129:
 1616 0018 0020     		movs	r0, #0
 1617              	.LVL183:
 1618              	.L127:
1568:Generated_Source\PSoC6\pdl\middleware\ble/cy_ble_gap.c ****     }
1569:Generated_Source\PSoC6\pdl\middleware\ble/cy_ble_gap.c ****    
1570:Generated_Source\PSoC6\pdl\middleware\ble/cy_ble_gap.c ****     return(isPaired);
1571:Generated_Source\PSoC6\pdl\middleware\ble/cy_ble_gap.c **** }
 1619              		.loc 1 1571 0
 1620              		@ sp needed
 1621 001a 7047     		bx	lr
 1622              	.L131:
 1623              		.align	2
 1624              	.L130:
 1625 001c 00000000 		.word	.LANCHOR0
 1626              		.cfi_endproc
 1627              	.LFE169:
 1628              		.size	Cy_BLE_IsDevicePaired, .-Cy_BLE_IsDevicePaired
 1629              		.section	.text.Cy_BLE_GetDeviceRole,"ax",%progbits
 1630              		.align	2
 1631              		.global	Cy_BLE_GetDeviceRole
 1632              		.code	16
 1633              		.thumb_func
 1634              		.type	Cy_BLE_GetDeviceRole, %function
ARM GAS  C:\Users\salaz\AppData\Local\Temp\ccu2LhKM.s 			page 77


 1635              	Cy_BLE_GetDeviceRole:
 1636              	.LFB170:
1572:Generated_Source\PSoC6\pdl\middleware\ble/cy_ble_gap.c **** 
1573:Generated_Source\PSoC6\pdl\middleware\ble/cy_ble_gap.c **** 
1574:Generated_Source\PSoC6\pdl\middleware\ble/cy_ble_gap.c **** /******************************************************************************
1575:Generated_Source\PSoC6\pdl\middleware\ble/cy_ble_gap.c **** * Function Name: Cy_BLE_GetDeviceRole
1576:Generated_Source\PSoC6\pdl\middleware\ble/cy_ble_gap.c **** ***************************************************************************//**
1577:Generated_Source\PSoC6\pdl\middleware\ble/cy_ble_gap.c **** *
1578:Generated_Source\PSoC6\pdl\middleware\ble/cy_ble_gap.c **** *  The function returns the local link layer device role which is connected 
1579:Generated_Source\PSoC6\pdl\middleware\ble/cy_ble_gap.c **** *  to peer device with connection handle indicated by connHandle parameter.
1580:Generated_Source\PSoC6\pdl\middleware\ble/cy_ble_gap.c **** *
1581:Generated_Source\PSoC6\pdl\middleware\ble/cy_ble_gap.c **** *  \param connHandle: Pointer to the connection handle of the peer device.
1582:Generated_Source\PSoC6\pdl\middleware\ble/cy_ble_gap.c **** *
1583:Generated_Source\PSoC6\pdl\middleware\ble/cy_ble_gap.c **** *  \return
1584:Generated_Source\PSoC6\pdl\middleware\ble/cy_ble_gap.c **** *  * CY_BLE_GAP_LL_ROLE_MASTER        (0x00): The local device is connected as a master.
1585:Generated_Source\PSoC6\pdl\middleware\ble/cy_ble_gap.c **** *  * CY_BLE_GAP_LL_ROLE_SLAVE         (0x01): The local device is connected as a slave.
1586:Generated_Source\PSoC6\pdl\middleware\ble/cy_ble_gap.c **** *  * CY_BLE_INVALID_CONN_HANDLE_VALUE (0xff): Invalid connection handle.
1587:Generated_Source\PSoC6\pdl\middleware\ble/cy_ble_gap.c **** *
1588:Generated_Source\PSoC6\pdl\middleware\ble/cy_ble_gap.c **** ******************************************************************************/
1589:Generated_Source\PSoC6\pdl\middleware\ble/cy_ble_gap.c **** uint8_t Cy_BLE_GetDeviceRole(cy_stc_ble_conn_handle_t *connHandle)
1590:Generated_Source\PSoC6\pdl\middleware\ble/cy_ble_gap.c **** {
 1637              		.loc 1 1590 0
 1638              		.cfi_startproc
 1639              		@ args = 0, pretend = 0, frame = 0
 1640              		@ frame_needed = 0, uses_anonymous_args = 0
 1641              		@ link register save eliminated.
 1642              	.LVL184:
1591:Generated_Source\PSoC6\pdl\middleware\ble/cy_ble_gap.c ****     uint8_t ret = CY_BLE_INVALID_CONN_HANDLE_VALUE;
1592:Generated_Source\PSoC6\pdl\middleware\ble/cy_ble_gap.c ****     
1593:Generated_Source\PSoC6\pdl\middleware\ble/cy_ble_gap.c ****     if((connHandle != NULL) && (connHandle->attId < CY_BLE_CONN_COUNT))
 1643              		.loc 1 1593 0
 1644 0000 0028     		cmp	r0, #0
 1645 0002 07D0     		beq	.L134
 1646              		.loc 1 1593 0 is_stmt 0 discriminator 1
 1647 0004 4378     		ldrb	r3, [r0, #1]
 1648 0006 002B     		cmp	r3, #0
 1649 0008 06D1     		bne	.L135
1594:Generated_Source\PSoC6\pdl\middleware\ble/cy_ble_gap.c ****     {
1595:Generated_Source\PSoC6\pdl\middleware\ble/cy_ble_gap.c ****         ret = cy_ble_devConnRole[connHandle->attId];   
 1650              		.loc 1 1595 0 is_stmt 1
 1651 000a 044A     		ldr	r2, .L136
 1652 000c D318     		adds	r3, r2, r3
 1653 000e 187C     		ldrb	r0, [r3, #16]
 1654              	.LVL185:
 1655 0010 C0B2     		uxtb	r0, r0
 1656              	.LVL186:
 1657 0012 02E0     		b	.L133
 1658              	.LVL187:
 1659              	.L134:
1591:Generated_Source\PSoC6\pdl\middleware\ble/cy_ble_gap.c ****     uint8_t ret = CY_BLE_INVALID_CONN_HANDLE_VALUE;
 1660              		.loc 1 1591 0
 1661 0014 FF20     		movs	r0, #255
 1662              	.LVL188:
 1663 0016 00E0     		b	.L133
 1664              	.LVL189:
 1665              	.L135:
 1666 0018 FF20     		movs	r0, #255
ARM GAS  C:\Users\salaz\AppData\Local\Temp\ccu2LhKM.s 			page 78


 1667              	.LVL190:
 1668              	.L133:
1596:Generated_Source\PSoC6\pdl\middleware\ble/cy_ble_gap.c ****     }
1597:Generated_Source\PSoC6\pdl\middleware\ble/cy_ble_gap.c ****    
1598:Generated_Source\PSoC6\pdl\middleware\ble/cy_ble_gap.c ****     return(ret);
1599:Generated_Source\PSoC6\pdl\middleware\ble/cy_ble_gap.c **** }
 1669              		.loc 1 1599 0
 1670              		@ sp needed
 1671 001a 7047     		bx	lr
 1672              	.L137:
 1673              		.align	2
 1674              	.L136:
 1675 001c 00000000 		.word	.LANCHOR0
 1676              		.cfi_endproc
 1677              	.LFE170:
 1678              		.size	Cy_BLE_GetDeviceRole, .-Cy_BLE_GetDeviceRole
 1679              		.section	.text.Cy_BLE_GetRssiPeer,"ax",%progbits
 1680              		.align	2
 1681              		.global	Cy_BLE_GetRssiPeer
 1682              		.code	16
 1683              		.thumb_func
 1684              		.type	Cy_BLE_GetRssiPeer, %function
 1685              	Cy_BLE_GetRssiPeer:
 1686              	.LFB171:
1600:Generated_Source\PSoC6\pdl\middleware\ble/cy_ble_gap.c **** 
1601:Generated_Source\PSoC6\pdl\middleware\ble/cy_ble_gap.c **** 
1602:Generated_Source\PSoC6\pdl\middleware\ble/cy_ble_gap.c **** /******************************************************************************
1603:Generated_Source\PSoC6\pdl\middleware\ble/cy_ble_gap.c **** * Function Name: Cy_BLE_GetRssiPeer
1604:Generated_Source\PSoC6\pdl\middleware\ble/cy_ble_gap.c **** ***************************************************************************//**
1605:Generated_Source\PSoC6\pdl\middleware\ble/cy_ble_gap.c **** *  
1606:Generated_Source\PSoC6\pdl\middleware\ble/cy_ble_gap.c **** *  Replacement for Cy_BLE_GetRssi() API where unused parameters are removed. 
1607:Generated_Source\PSoC6\pdl\middleware\ble/cy_ble_gap.c **** *
1608:Generated_Source\PSoC6\pdl\middleware\ble/cy_ble_gap.c **** *  This function reads the recorded Received Signal Strength Indicator (RSSI) 
1609:Generated_Source\PSoC6\pdl\middleware\ble/cy_ble_gap.c **** *  value of the last received packet on the specified connection.
1610:Generated_Source\PSoC6\pdl\middleware\ble/cy_ble_gap.c **** *  sub-system. 
1611:Generated_Source\PSoC6\pdl\middleware\ble/cy_ble_gap.c **** *  The RSSI value is informed through #CY_BLE_EVT_GET_RSSI_COMPLETE.
1612:Generated_Source\PSoC6\pdl\middleware\ble/cy_ble_gap.c **** *     
1613:Generated_Source\PSoC6\pdl\middleware\ble/cy_ble_gap.c **** *  Deprecate the Cy_BLE_GetRssi() API in BLE_PDL v2_0.
1614:Generated_Source\PSoC6\pdl\middleware\ble/cy_ble_gap.c **** *
1615:Generated_Source\PSoC6\pdl\middleware\ble/cy_ble_gap.c **** *  \param bdHandle: The bd handle of the peer device.
1616:Generated_Source\PSoC6\pdl\middleware\ble/cy_ble_gap.c **** * 
1617:Generated_Source\PSoC6\pdl\middleware\ble/cy_ble_gap.c **** *  \return
1618:Generated_Source\PSoC6\pdl\middleware\ble/cy_ble_gap.c **** *  \ref cy_en_ble_api_result_t : The return value indicates whether the 
1619:Generated_Source\PSoC6\pdl\middleware\ble/cy_ble_gap.c **** *   function succeeded or failed. Following are the possible error codes.
1620:Generated_Source\PSoC6\pdl\middleware\ble/cy_ble_gap.c **** *
1621:Generated_Source\PSoC6\pdl\middleware\ble/cy_ble_gap.c **** *   Errors codes                             | Description
1622:Generated_Source\PSoC6\pdl\middleware\ble/cy_ble_gap.c **** *   ------------                             | -----------
1623:Generated_Source\PSoC6\pdl\middleware\ble/cy_ble_gap.c **** *   CY_BLE_SUCCESS                           | On successful operation.
1624:Generated_Source\PSoC6\pdl\middleware\ble/cy_ble_gap.c **** *   CY_BLE_ERROR_NO_DEVICE_ENTITY            | If there is no connection for corresponding bdHandle
1625:Generated_Source\PSoC6\pdl\middleware\ble/cy_ble_gap.c **** *   CY_BLE_ERROR_MEMORY_ALLOCATION_FAILED    | If Memory allocation failed.
1626:Generated_Source\PSoC6\pdl\middleware\ble/cy_ble_gap.c **** *   CY_BLE_ERROR_INSUFFICIENT_RESOURCES      | If BLE Stack resources are unavailable.
1627:Generated_Source\PSoC6\pdl\middleware\ble/cy_ble_gap.c **** *
1628:Generated_Source\PSoC6\pdl\middleware\ble/cy_ble_gap.c **** *   Information     | Description
1629:Generated_Source\PSoC6\pdl\middleware\ble/cy_ble_gap.c **** *   -----------     | -----------
1630:Generated_Source\PSoC6\pdl\middleware\ble/cy_ble_gap.c **** *   Range           | -85 <= N <= 5
1631:Generated_Source\PSoC6\pdl\middleware\ble/cy_ble_gap.c **** *   \note: The value is in dBm.
1632:Generated_Source\PSoC6\pdl\middleware\ble/cy_ble_gap.c **** *     
ARM GAS  C:\Users\salaz\AppData\Local\Temp\ccu2LhKM.s 			page 79


1633:Generated_Source\PSoC6\pdl\middleware\ble/cy_ble_gap.c **** ******************************************************************************/
1634:Generated_Source\PSoC6\pdl\middleware\ble/cy_ble_gap.c **** cy_en_ble_api_result_t Cy_BLE_GetRssiPeer(uint8_t  bdHandle)
1635:Generated_Source\PSoC6\pdl\middleware\ble/cy_ble_gap.c **** {
 1687              		.loc 1 1635 0
 1688              		.cfi_startproc
 1689              		@ args = 0, pretend = 0, frame = 8
 1690              		@ frame_needed = 0, uses_anonymous_args = 0
 1691              	.LVL191:
 1692 0000 00B5     		push	{lr}
 1693              		.cfi_def_cfa_offset 4
 1694              		.cfi_offset 14, -4
 1695 0002 83B0     		sub	sp, sp, #12
 1696              		.cfi_def_cfa_offset 16
1636:Generated_Source\PSoC6\pdl\middleware\ble/cy_ble_gap.c ****     cy_stc_ble_rssi_info_t param = { .bdHandle = bdHandle };    
 1697              		.loc 1 1636 0
 1698 0004 01AB     		add	r3, sp, #4
 1699 0006 0022     		movs	r2, #0
 1700 0008 1A80     		strh	r2, [r3]
 1701 000a 5870     		strb	r0, [r3, #1]
1637:Generated_Source\PSoC6\pdl\middleware\ble/cy_ble_gap.c ****     return(Cy_BLE_GetRssi(&param));
 1702              		.loc 1 1637 0
 1703 000c 1800     		movs	r0, r3
 1704              	.LVL192:
 1705 000e FFF7FEFF 		bl	Cy_BLE_GetRssi
 1706              	.LVL193:
1638:Generated_Source\PSoC6\pdl\middleware\ble/cy_ble_gap.c **** }
 1707              		.loc 1 1638 0
 1708 0012 03B0     		add	sp, sp, #12
 1709              		@ sp needed
 1710 0014 00BD     		pop	{pc}
 1711              		.cfi_endproc
 1712              	.LFE171:
 1713              		.size	Cy_BLE_GetRssiPeer, .-Cy_BLE_GetRssiPeer
 1714              		.global	cy_ble_sflashDeviceAddress
 1715              		.comm	cy_ble_pendingFlashWrite,1,1
 1716              		.comm	cy_ble_peerBonding,1,4
 1717              		.global	cy_ble_pairStatus
 1718              		.global	cy_ble_devConnRole
 1719              		.comm	cy_ble_connState,1,4
 1720              		.comm	cy_ble_connHandle,2,4
 1721              		.comm	cy_ble_advIndex,1,1
 1722              		.comm	cy_ble_advState,1,1
 1723              		.comm	cy_ble_state,1,1
 1724 0016 C046     		.data
 1725              		.align	2
 1726              		.type	cy_ble_sflashDeviceAddress, %object
 1727              		.size	cy_ble_sflashDeviceAddress, 4
 1728              	cy_ble_sflashDeviceAddress:
 1729 0000 00080016 		.word	369100800
 1730              		.bss
 1731              		.align	2
 1732              		.set	.LANCHOR0,. + 0
 1733              		.type	storeState.12745, %object
 1734              		.size	storeState.12745, 4
 1735              	storeState.12745:
 1736 0000 00000000 		.space	4
 1737              		.type	tLength.12746, %object
ARM GAS  C:\Users\salaz\AppData\Local\Temp\ccu2LhKM.s 			page 80


 1738              		.size	tLength.12746, 4
 1739              	tLength.12746:
 1740 0004 00000000 		.space	4
 1741              		.type	cy_ble_pendingFlashClearCccdHandle, %object
 1742              		.size	cy_ble_pendingFlashClearCccdHandle, 1
 1743              	cy_ble_pendingFlashClearCccdHandle:
 1744 0008 00       		.space	1
 1745 0009 000000   		.space	3
 1746              		.type	cy_ble_pairStatus, %object
 1747              		.size	cy_ble_pairStatus, 1
 1748              	cy_ble_pairStatus:
 1749 000c 00       		.space	1
 1750 000d 000000   		.space	3
 1751              		.type	cy_ble_devConnRole, %object
 1752              		.size	cy_ble_devConnRole, 1
 1753              	cy_ble_devConnRole:
 1754 0010 00       		.space	1
 1755              		.text
 1756              	.Letext0:
 1757              		.file 3 "c:\\program files (x86)\\cypress\\psoc creator\\4.2\\psoc creator\\import\\gnu\\arm\\5.4.
 1758              		.file 4 "c:\\program files (x86)\\cypress\\psoc creator\\4.2\\psoc creator\\import\\gnu\\arm\\5.4.
 1759              		.file 5 "Generated_Source\\PSoC6\\pdl\\devices/psoc6/psoc63/include/cyble_416045_02.h"
 1760              		.file 6 "Generated_Source\\PSoC6\\pdl\\devices/psoc6/ip/cyip_sflash.h"
 1761              		.file 7 "Generated_Source\\PSoC6\\pdl\\drivers/peripheral/syslib/cy_syslib.h"
 1762              		.file 8 "Generated_Source\\PSoC6\\pdl\\drivers/peripheral/sysint/cy_sysint.h"
 1763              		.file 9 "Generated_Source\\PSoC6\\pdl\\middleware\\ble\\cy_ble_stack.h"
 1764              		.file 10 "Generated_Source\\PSoC6\\pdl\\middleware\\ble\\cy_ble_stack_host_main.h"
 1765              		.file 11 "Generated_Source\\PSoC6\\pdl\\middleware\\ble\\cy_ble_stack_gatt.h"
 1766              		.file 12 "Generated_Source\\PSoC6\\pdl\\middleware\\ble\\cy_ble_stack_gap.h"
 1767              		.file 13 "Generated_Source\\PSoC6\\pdl\\middleware\\ble\\cy_ble_stack_gap_central.h"
 1768              		.file 14 "Generated_Source\\PSoC6\\pdl\\middleware\\ble\\cy_ble_stack_gap_peripheral.h"
 1769              		.file 15 "Generated_Source\\PSoC6\\pdl\\middleware\\ble\\cy_ble_stack_gatt_db.h"
 1770              		.file 16 "Generated_Source\\PSoC6\\pdl\\middleware\\ble\\cy_ble_gatt.h"
 1771              		.file 17 "Generated_Source\\PSoC6\\pdl\\middleware\\ble\\cy_ble.h"
 1772              		.file 18 "Generated_Source\\PSoC6\\pdl\\middleware\\ble\\cy_ble_custom.h"
 1773              		.file 19 "Generated_Source\\PSoC6\\pdl\\middleware\\ble\\cy_ble_event_handler.h"
 1774              		.file 20 "Generated_Source\\PSoC6\\pdl\\middleware\\ble\\cy_ble_hal_pvt.h"
 1775              		.file 21 "c:\\program files (x86)\\cypress\\psoc creator\\4.2\\psoc creator\\import\\gnu\\arm\\5.4
 1776              		.section	.debug_info,"",%progbits
 1777              	.Ldebug_info0:
 1778 0000 C5280000 		.4byte	0x28c5
 1779 0004 0400     		.2byte	0x4
 1780 0006 00000000 		.4byte	.Ldebug_abbrev0
 1781 000a 04       		.byte	0x4
 1782 000b 01       		.uleb128 0x1
 1783 000c D3110000 		.4byte	.LASF739
 1784 0010 0C       		.byte	0xc
 1785 0011 421F0000 		.4byte	.LASF740
 1786 0015 BF150000 		.4byte	.LASF741
 1787 0019 00000000 		.4byte	.Ldebug_ranges0+0
 1788 001d 00000000 		.4byte	0
 1789 0021 00000000 		.4byte	.Ldebug_line0
 1790 0025 02       		.uleb128 0x2
 1791 0026 04       		.byte	0x4
 1792 0027 05       		.byte	0x5
 1793 0028 696E7400 		.ascii	"int\000"
 1794 002c 03       		.uleb128 0x3
ARM GAS  C:\Users\salaz\AppData\Local\Temp\ccu2LhKM.s 			page 81


 1795 002d 04       		.byte	0x4
 1796 002e 07       		.byte	0x7
 1797 002f 2F270000 		.4byte	.LASF0
 1798 0033 03       		.uleb128 0x3
 1799 0034 08       		.byte	0x8
 1800 0035 05       		.byte	0x5
 1801 0036 F8210000 		.4byte	.LASF1
 1802 003a 03       		.uleb128 0x3
 1803 003b 08       		.byte	0x8
 1804 003c 04       		.byte	0x4
 1805 003d C32B0000 		.4byte	.LASF2
 1806 0041 04       		.uleb128 0x4
 1807 0042 532E0000 		.4byte	.LASF4
 1808 0046 03       		.byte	0x3
 1809 0047 1B       		.byte	0x1b
 1810 0048 4C000000 		.4byte	0x4c
 1811 004c 03       		.uleb128 0x3
 1812 004d 01       		.byte	0x1
 1813 004e 06       		.byte	0x6
 1814 004f DF0D0000 		.4byte	.LASF3
 1815 0053 04       		.uleb128 0x4
 1816 0054 17090000 		.4byte	.LASF5
 1817 0058 03       		.byte	0x3
 1818 0059 1D       		.byte	0x1d
 1819 005a 5E000000 		.4byte	0x5e
 1820 005e 03       		.uleb128 0x3
 1821 005f 01       		.byte	0x1
 1822 0060 08       		.byte	0x8
 1823 0061 6D000000 		.4byte	.LASF6
 1824 0065 03       		.uleb128 0x3
 1825 0066 02       		.byte	0x2
 1826 0067 05       		.byte	0x5
 1827 0068 A4370000 		.4byte	.LASF7
 1828 006c 04       		.uleb128 0x4
 1829 006d A4140000 		.4byte	.LASF8
 1830 0071 03       		.byte	0x3
 1831 0072 2B       		.byte	0x2b
 1832 0073 77000000 		.4byte	0x77
 1833 0077 03       		.uleb128 0x3
 1834 0078 02       		.byte	0x2
 1835 0079 07       		.byte	0x7
 1836 007a 333F0000 		.4byte	.LASF9
 1837 007e 03       		.uleb128 0x3
 1838 007f 04       		.byte	0x4
 1839 0080 05       		.byte	0x5
 1840 0081 520A0000 		.4byte	.LASF10
 1841 0085 04       		.uleb128 0x4
 1842 0086 F0180000 		.4byte	.LASF11
 1843 008a 03       		.byte	0x3
 1844 008b 41       		.byte	0x41
 1845 008c 90000000 		.4byte	0x90
 1846 0090 03       		.uleb128 0x3
 1847 0091 04       		.byte	0x4
 1848 0092 07       		.byte	0x7
 1849 0093 291C0000 		.4byte	.LASF12
 1850 0097 03       		.uleb128 0x3
 1851 0098 08       		.byte	0x8
ARM GAS  C:\Users\salaz\AppData\Local\Temp\ccu2LhKM.s 			page 82


 1852 0099 07       		.byte	0x7
 1853 009a AD3D0000 		.4byte	.LASF13
 1854 009e 03       		.uleb128 0x3
 1855 009f 04       		.byte	0x4
 1856 00a0 07       		.byte	0x7
 1857 00a1 8F000000 		.4byte	.LASF14
 1858 00a5 05       		.uleb128 0x5
 1859 00a6 04       		.byte	0x4
 1860 00a7 03       		.uleb128 0x3
 1861 00a8 01       		.byte	0x1
 1862 00a9 08       		.byte	0x8
 1863 00aa 11130000 		.4byte	.LASF15
 1864 00ae 04       		.uleb128 0x4
 1865 00af 51000000 		.4byte	.LASF16
 1866 00b3 04       		.byte	0x4
 1867 00b4 14       		.byte	0x14
 1868 00b5 41000000 		.4byte	0x41
 1869 00b9 04       		.uleb128 0x4
 1870 00ba 0D0E0000 		.4byte	.LASF17
 1871 00be 04       		.byte	0x4
 1872 00bf 18       		.byte	0x18
 1873 00c0 53000000 		.4byte	0x53
 1874 00c4 04       		.uleb128 0x4
 1875 00c5 B42F0000 		.4byte	.LASF18
 1876 00c9 04       		.byte	0x4
 1877 00ca 24       		.byte	0x24
 1878 00cb 6C000000 		.4byte	0x6c
 1879 00cf 04       		.uleb128 0x4
 1880 00d0 153E0000 		.4byte	.LASF19
 1881 00d4 04       		.byte	0x4
 1882 00d5 30       		.byte	0x30
 1883 00d6 85000000 		.4byte	0x85
 1884 00da 06       		.uleb128 0x6
 1885 00db 02       		.byte	0x2
 1886 00dc 65000000 		.4byte	0x65
 1887 00e0 05       		.byte	0x5
 1888 00e1 24       		.byte	0x24
 1889 00e2 D1010000 		.4byte	0x1d1
 1890 00e6 07       		.uleb128 0x7
 1891 00e7 A1290000 		.4byte	.LASF20
 1892 00eb 71       		.sleb128 -15
 1893 00ec 07       		.uleb128 0x7
 1894 00ed 8B1B0000 		.4byte	.LASF21
 1895 00f1 72       		.sleb128 -14
 1896 00f2 07       		.uleb128 0x7
 1897 00f3 05430000 		.4byte	.LASF22
 1898 00f7 73       		.sleb128 -13
 1899 00f8 07       		.uleb128 0x7
 1900 00f9 1A230000 		.4byte	.LASF23
 1901 00fd 7B       		.sleb128 -5
 1902 00fe 07       		.uleb128 0x7
 1903 00ff BA220000 		.4byte	.LASF24
 1904 0103 7E       		.sleb128 -2
 1905 0104 07       		.uleb128 0x7
 1906 0105 080D0000 		.4byte	.LASF25
 1907 0109 7F       		.sleb128 -1
 1908 010a 08       		.uleb128 0x8
ARM GAS  C:\Users\salaz\AppData\Local\Temp\ccu2LhKM.s 			page 83


 1909 010b 5D170000 		.4byte	.LASF26
 1910 010f 00       		.byte	0
 1911 0110 08       		.uleb128 0x8
 1912 0111 6D010000 		.4byte	.LASF27
 1913 0115 01       		.byte	0x1
 1914 0116 08       		.uleb128 0x8
 1915 0117 222B0000 		.4byte	.LASF28
 1916 011b 02       		.byte	0x2
 1917 011c 08       		.uleb128 0x8
 1918 011d A1110000 		.4byte	.LASF29
 1919 0121 03       		.byte	0x3
 1920 0122 08       		.uleb128 0x8
 1921 0123 733B0000 		.4byte	.LASF30
 1922 0127 04       		.byte	0x4
 1923 0128 08       		.uleb128 0x8
 1924 0129 0D370000 		.4byte	.LASF31
 1925 012d 05       		.byte	0x5
 1926 012e 08       		.uleb128 0x8
 1927 012f F61C0000 		.4byte	.LASF32
 1928 0133 06       		.byte	0x6
 1929 0134 08       		.uleb128 0x8
 1930 0135 E2020000 		.4byte	.LASF33
 1931 0139 07       		.byte	0x7
 1932 013a 08       		.uleb128 0x8
 1933 013b 6E430000 		.4byte	.LASF34
 1934 013f 08       		.byte	0x8
 1935 0140 08       		.uleb128 0x8
 1936 0141 54280000 		.4byte	.LASF35
 1937 0145 09       		.byte	0x9
 1938 0146 08       		.uleb128 0x8
 1939 0147 682A0000 		.4byte	.LASF36
 1940 014b 0A       		.byte	0xa
 1941 014c 08       		.uleb128 0x8
 1942 014d D0250000 		.4byte	.LASF37
 1943 0151 0B       		.byte	0xb
 1944 0152 08       		.uleb128 0x8
 1945 0153 D7380000 		.4byte	.LASF38
 1946 0157 0C       		.byte	0xc
 1947 0158 08       		.uleb128 0x8
 1948 0159 EB0C0000 		.4byte	.LASF39
 1949 015d 0D       		.byte	0xd
 1950 015e 08       		.uleb128 0x8
 1951 015f CC240000 		.4byte	.LASF40
 1952 0163 0E       		.byte	0xe
 1953 0164 08       		.uleb128 0x8
 1954 0165 832D0000 		.4byte	.LASF41
 1955 0169 0F       		.byte	0xf
 1956 016a 08       		.uleb128 0x8
 1957 016b 95140000 		.4byte	.LASF42
 1958 016f 10       		.byte	0x10
 1959 0170 08       		.uleb128 0x8
 1960 0171 063E0000 		.4byte	.LASF43
 1961 0175 11       		.byte	0x11
 1962 0176 08       		.uleb128 0x8
 1963 0177 70390000 		.4byte	.LASF44
 1964 017b 12       		.byte	0x12
 1965 017c 08       		.uleb128 0x8
ARM GAS  C:\Users\salaz\AppData\Local\Temp\ccu2LhKM.s 			page 84


 1966 017d 791F0000 		.4byte	.LASF45
 1967 0181 13       		.byte	0x13
 1968 0182 08       		.uleb128 0x8
 1969 0183 4C440000 		.4byte	.LASF46
 1970 0187 14       		.byte	0x14
 1971 0188 08       		.uleb128 0x8
 1972 0189 43290000 		.4byte	.LASF47
 1973 018d 15       		.byte	0x15
 1974 018e 08       		.uleb128 0x8
 1975 018f 39250000 		.4byte	.LASF48
 1976 0193 16       		.byte	0x16
 1977 0194 08       		.uleb128 0x8
 1978 0195 310B0000 		.4byte	.LASF49
 1979 0199 17       		.byte	0x17
 1980 019a 08       		.uleb128 0x8
 1981 019b 9A350000 		.4byte	.LASF50
 1982 019f 18       		.byte	0x18
 1983 01a0 08       		.uleb128 0x8
 1984 01a1 33310000 		.4byte	.LASF51
 1985 01a5 19       		.byte	0x19
 1986 01a6 08       		.uleb128 0x8
 1987 01a7 AD170000 		.4byte	.LASF52
 1988 01ab 1A       		.byte	0x1a
 1989 01ac 08       		.uleb128 0x8
 1990 01ad C5410000 		.4byte	.LASF53
 1991 01b1 1B       		.byte	0x1b
 1992 01b2 08       		.uleb128 0x8
 1993 01b3 103D0000 		.4byte	.LASF54
 1994 01b7 1C       		.byte	0x1c
 1995 01b8 08       		.uleb128 0x8
 1996 01b9 AB220000 		.4byte	.LASF55
 1997 01bd 1D       		.byte	0x1d
 1998 01be 08       		.uleb128 0x8
 1999 01bf 14030000 		.4byte	.LASF56
 2000 01c3 1E       		.byte	0x1e
 2001 01c4 08       		.uleb128 0x8
 2002 01c5 1E440000 		.4byte	.LASF57
 2003 01c9 1F       		.byte	0x1f
 2004 01ca 08       		.uleb128 0x8
 2005 01cb 47110000 		.4byte	.LASF58
 2006 01cf F0       		.byte	0xf0
 2007 01d0 00       		.byte	0
 2008 01d1 04       		.uleb128 0x4
 2009 01d2 C61D0000 		.4byte	.LASF59
 2010 01d6 05       		.byte	0x5
 2011 01d7 F4       		.byte	0xf4
 2012 01d8 DA000000 		.4byte	0xda
 2013 01dc 06       		.uleb128 0x6
 2014 01dd 01       		.byte	0x1
 2015 01de 5E000000 		.4byte	0x5e
 2016 01e2 05       		.byte	0x5
 2017 01e3 FD       		.byte	0xfd
 2018 01e4 61050000 		.4byte	0x561
 2019 01e8 08       		.uleb128 0x8
 2020 01e9 0B170000 		.4byte	.LASF60
 2021 01ed 00       		.byte	0
 2022 01ee 08       		.uleb128 0x8
ARM GAS  C:\Users\salaz\AppData\Local\Temp\ccu2LhKM.s 			page 85


 2023 01ef 35410000 		.4byte	.LASF61
 2024 01f3 01       		.byte	0x1
 2025 01f4 08       		.uleb128 0x8
 2026 01f5 353C0000 		.4byte	.LASF62
 2027 01f9 02       		.byte	0x2
 2028 01fa 08       		.uleb128 0x8
 2029 01fb 06220000 		.4byte	.LASF63
 2030 01ff 03       		.byte	0x3
 2031 0200 08       		.uleb128 0x8
 2032 0201 77080000 		.4byte	.LASF64
 2033 0205 04       		.byte	0x4
 2034 0206 08       		.uleb128 0x8
 2035 0207 F6030000 		.4byte	.LASF65
 2036 020b 05       		.byte	0x5
 2037 020c 08       		.uleb128 0x8
 2038 020d 672D0000 		.4byte	.LASF66
 2039 0211 06       		.byte	0x6
 2040 0212 08       		.uleb128 0x8
 2041 0213 DB330000 		.4byte	.LASF67
 2042 0217 07       		.byte	0x7
 2043 0218 08       		.uleb128 0x8
 2044 0219 210F0000 		.4byte	.LASF68
 2045 021d 08       		.byte	0x8
 2046 021e 08       		.uleb128 0x8
 2047 021f 22390000 		.4byte	.LASF69
 2048 0223 09       		.byte	0x9
 2049 0224 08       		.uleb128 0x8
 2050 0225 AF3A0000 		.4byte	.LASF70
 2051 0229 0A       		.byte	0xa
 2052 022a 08       		.uleb128 0x8
 2053 022b A9200000 		.4byte	.LASF71
 2054 022f 0B       		.byte	0xb
 2055 0230 08       		.uleb128 0x8
 2056 0231 65060000 		.4byte	.LASF72
 2057 0235 0C       		.byte	0xc
 2058 0236 08       		.uleb128 0x8
 2059 0237 A6010000 		.4byte	.LASF73
 2060 023b 0D       		.byte	0xd
 2061 023c 08       		.uleb128 0x8
 2062 023d 6F2B0000 		.4byte	.LASF74
 2063 0241 0E       		.byte	0xe
 2064 0242 08       		.uleb128 0x8
 2065 0243 2A290000 		.4byte	.LASF75
 2066 0247 0F       		.byte	0xf
 2067 0248 08       		.uleb128 0x8
 2068 0249 873D0000 		.4byte	.LASF76
 2069 024d 10       		.byte	0x10
 2070 024e 08       		.uleb128 0x8
 2071 024f 35380000 		.4byte	.LASF77
 2072 0253 11       		.byte	0x11
 2073 0254 08       		.uleb128 0x8
 2074 0255 DD420000 		.4byte	.LASF78
 2075 0259 12       		.byte	0x12
 2076 025a 08       		.uleb128 0x8
 2077 025b 10020000 		.4byte	.LASF79
 2078 025f 13       		.byte	0x13
 2079 0260 08       		.uleb128 0x8
ARM GAS  C:\Users\salaz\AppData\Local\Temp\ccu2LhKM.s 			page 86


 2080 0261 EB2B0000 		.4byte	.LASF80
 2081 0265 14       		.byte	0x14
 2082 0266 08       		.uleb128 0x8
 2083 0267 DB1C0000 		.4byte	.LASF81
 2084 026b 15       		.byte	0x15
 2085 026c 08       		.uleb128 0x8
 2086 026d C2040000 		.4byte	.LASF82
 2087 0271 16       		.byte	0x16
 2088 0272 08       		.uleb128 0x8
 2089 0273 94170000 		.4byte	.LASF83
 2090 0277 17       		.byte	0x17
 2091 0278 08       		.uleb128 0x8
 2092 0279 EA2D0000 		.4byte	.LASF84
 2093 027d 18       		.byte	0x18
 2094 027e 08       		.uleb128 0x8
 2095 027f D1400000 		.4byte	.LASF85
 2096 0283 19       		.byte	0x19
 2097 0284 08       		.uleb128 0x8
 2098 0285 F83B0000 		.4byte	.LASF86
 2099 0289 1A       		.byte	0x1a
 2100 028a 08       		.uleb128 0x8
 2101 028b CC210000 		.4byte	.LASF87
 2102 028f 1B       		.byte	0x1b
 2103 0290 08       		.uleb128 0x8
 2104 0291 2B080000 		.4byte	.LASF88
 2105 0295 1C       		.byte	0x1c
 2106 0296 08       		.uleb128 0x8
 2107 0297 7D160000 		.4byte	.LASF89
 2108 029b 1D       		.byte	0x1d
 2109 029c 08       		.uleb128 0x8
 2110 029d 212D0000 		.4byte	.LASF90
 2111 02a1 1E       		.byte	0x1e
 2112 02a2 08       		.uleb128 0x8
 2113 02a3 7E350000 		.4byte	.LASF91
 2114 02a7 1F       		.byte	0x1f
 2115 02a8 08       		.uleb128 0x8
 2116 02a9 BF0E0000 		.4byte	.LASF92
 2117 02ad 20       		.byte	0x20
 2118 02ae 08       		.uleb128 0x8
 2119 02af 06390000 		.4byte	.LASF93
 2120 02b3 21       		.byte	0x21
 2121 02b4 08       		.uleb128 0x8
 2122 02b5 261F0000 		.4byte	.LASF94
 2123 02b9 22       		.byte	0x22
 2124 02ba 08       		.uleb128 0x8
 2125 02bb DF250000 		.4byte	.LASF95
 2126 02bf 23       		.byte	0x23
 2127 02c0 08       		.uleb128 0x8
 2128 02c1 DD0B0000 		.4byte	.LASF96
 2129 02c5 24       		.byte	0x24
 2130 02c6 08       		.uleb128 0x8
 2131 02c7 25360000 		.4byte	.LASF97
 2132 02cb 25       		.byte	0x25
 2133 02cc 08       		.uleb128 0x8
 2134 02cd 57320000 		.4byte	.LASF98
 2135 02d1 26       		.byte	0x26
 2136 02d2 08       		.uleb128 0x8
ARM GAS  C:\Users\salaz\AppData\Local\Temp\ccu2LhKM.s 			page 87


 2137 02d3 AF180000 		.4byte	.LASF99
 2138 02d7 27       		.byte	0x27
 2139 02d8 08       		.uleb128 0x8
 2140 02d9 D7170000 		.4byte	.LASF100
 2141 02dd 28       		.byte	0x28
 2142 02de 08       		.uleb128 0x8
 2143 02df 69150000 		.4byte	.LASF101
 2144 02e3 29       		.byte	0x29
 2145 02e4 08       		.uleb128 0x8
 2146 02e5 6F310000 		.4byte	.LASF102
 2147 02e9 2A       		.byte	0x2a
 2148 02ea 08       		.uleb128 0x8
 2149 02eb 0E200000 		.4byte	.LASF103
 2150 02ef 2B       		.byte	0x2b
 2151 02f0 08       		.uleb128 0x8
 2152 02f1 FB3C0000 		.4byte	.LASF104
 2153 02f5 2C       		.byte	0x2c
 2154 02f6 08       		.uleb128 0x8
 2155 02f7 022B0000 		.4byte	.LASF105
 2156 02fb 2D       		.byte	0x2d
 2157 02fc 08       		.uleb128 0x8
 2158 02fd 3E040000 		.4byte	.LASF106
 2159 0301 2E       		.byte	0x2e
 2160 0302 08       		.uleb128 0x8
 2161 0303 95360000 		.4byte	.LASF107
 2162 0307 2F       		.byte	0x2f
 2163 0308 08       		.uleb128 0x8
 2164 0309 3D0F0000 		.4byte	.LASF108
 2165 030d 30       		.byte	0x30
 2166 030e 08       		.uleb128 0x8
 2167 030f 710D0000 		.4byte	.LASF109
 2168 0313 31       		.byte	0x31
 2169 0314 08       		.uleb128 0x8
 2170 0315 99160000 		.4byte	.LASF110
 2171 0319 32       		.byte	0x32
 2172 031a 08       		.uleb128 0x8
 2173 031b 13400000 		.4byte	.LASF111
 2174 031f 33       		.byte	0x33
 2175 0320 08       		.uleb128 0x8
 2176 0321 6B250000 		.4byte	.LASF112
 2177 0325 34       		.byte	0x34
 2178 0326 08       		.uleb128 0x8
 2179 0327 CF2B0000 		.4byte	.LASF113
 2180 032b 35       		.byte	0x35
 2181 032c 08       		.uleb128 0x8
 2182 032d 00000000 		.4byte	.LASF114
 2183 0331 36       		.byte	0x36
 2184 0332 08       		.uleb128 0x8
 2185 0333 9B310000 		.4byte	.LASF115
 2186 0337 37       		.byte	0x37
 2187 0338 08       		.uleb128 0x8
 2188 0339 B32C0000 		.4byte	.LASF116
 2189 033d 38       		.byte	0x38
 2190 033e 08       		.uleb128 0x8
 2191 033f C0130000 		.4byte	.LASF117
 2192 0343 39       		.byte	0x39
 2193 0344 08       		.uleb128 0x8
ARM GAS  C:\Users\salaz\AppData\Local\Temp\ccu2LhKM.s 			page 88


 2194 0345 A9410000 		.4byte	.LASF118
 2195 0349 3A       		.byte	0x3a
 2196 034a 08       		.uleb128 0x8
 2197 034b C6220000 		.4byte	.LASF119
 2198 034f 3B       		.byte	0x3b
 2199 0350 08       		.uleb128 0x8
 2200 0351 08360000 		.4byte	.LASF120
 2201 0355 3C       		.byte	0x3c
 2202 0356 08       		.uleb128 0x8
 2203 0357 87060000 		.4byte	.LASF121
 2204 035b 3D       		.byte	0x3d
 2205 035c 08       		.uleb128 0x8
 2206 035d 3E300000 		.4byte	.LASF122
 2207 0361 3E       		.byte	0x3e
 2208 0362 08       		.uleb128 0x8
 2209 0363 8C2B0000 		.4byte	.LASF123
 2210 0367 3F       		.byte	0x3f
 2211 0368 08       		.uleb128 0x8
 2212 0369 65120000 		.4byte	.LASF124
 2213 036d 40       		.byte	0x40
 2214 036e 08       		.uleb128 0x8
 2215 036f DB3B0000 		.4byte	.LASF125
 2216 0373 41       		.byte	0x41
 2217 0374 08       		.uleb128 0x8
 2218 0375 1F420000 		.4byte	.LASF126
 2219 0379 42       		.byte	0x42
 2220 037a 08       		.uleb128 0x8
 2221 037b FF260000 		.4byte	.LASF127
 2222 037f 43       		.byte	0x43
 2223 0380 08       		.uleb128 0x8
 2224 0381 CF0C0000 		.4byte	.LASF128
 2225 0385 44       		.byte	0x44
 2226 0386 08       		.uleb128 0x8
 2227 0387 43090000 		.4byte	.LASF129
 2228 038b 45       		.byte	0x45
 2229 038c 08       		.uleb128 0x8
 2230 038d F1320000 		.4byte	.LASF130
 2231 0391 46       		.byte	0x46
 2232 0392 08       		.uleb128 0x8
 2233 0393 5F190000 		.4byte	.LASF131
 2234 0397 47       		.byte	0x47
 2235 0398 08       		.uleb128 0x8
 2236 0399 28150000 		.4byte	.LASF132
 2237 039d 48       		.byte	0x48
 2238 039e 08       		.uleb128 0x8
 2239 039f 8A3E0000 		.4byte	.LASF133
 2240 03a3 49       		.byte	0x49
 2241 03a4 08       		.uleb128 0x8
 2242 03a5 DF230000 		.4byte	.LASF134
 2243 03a9 4A       		.byte	0x4a
 2244 03aa 08       		.uleb128 0x8
 2245 03ab 35200000 		.4byte	.LASF135
 2246 03af 4B       		.byte	0x4b
 2247 03b0 08       		.uleb128 0x8
 2248 03b1 492F0000 		.4byte	.LASF136
 2249 03b5 4C       		.byte	0x4c
 2250 03b6 08       		.uleb128 0x8
ARM GAS  C:\Users\salaz\AppData\Local\Temp\ccu2LhKM.s 			page 89


 2251 03b7 3D160000 		.4byte	.LASF137
 2252 03bb 4D       		.byte	0x4d
 2253 03bc 08       		.uleb128 0x8
 2254 03bd 163F0000 		.4byte	.LASF138
 2255 03c1 4E       		.byte	0x4e
 2256 03c2 08       		.uleb128 0x8
 2257 03c3 213B0000 		.4byte	.LASF139
 2258 03c7 4F       		.byte	0x4f
 2259 03c8 08       		.uleb128 0x8
 2260 03c9 FE200000 		.4byte	.LASF140
 2261 03cd 50       		.byte	0x50
 2262 03ce 08       		.uleb128 0x8
 2263 03cf 55070000 		.4byte	.LASF141
 2264 03d3 51       		.byte	0x51
 2265 03d4 08       		.uleb128 0x8
 2266 03d5 38330000 		.4byte	.LASF142
 2267 03d9 52       		.byte	0x52
 2268 03da 08       		.uleb128 0x8
 2269 03db 7B190000 		.4byte	.LASF143
 2270 03df 53       		.byte	0x53
 2271 03e0 08       		.uleb128 0x8
 2272 03e1 BF330000 		.4byte	.LASF144
 2273 03e5 54       		.byte	0x54
 2274 03e6 08       		.uleb128 0x8
 2275 03e7 2A050000 		.4byte	.LASF145
 2276 03eb 55       		.byte	0x55
 2277 03ec 08       		.uleb128 0x8
 2278 03ed D1320000 		.4byte	.LASF146
 2279 03f1 56       		.byte	0x56
 2280 03f2 08       		.uleb128 0x8
 2281 03f3 F41D0000 		.4byte	.LASF147
 2282 03f7 57       		.byte	0x57
 2283 03f8 08       		.uleb128 0x8
 2284 03f9 6A0F0000 		.4byte	.LASF148
 2285 03fd 58       		.byte	0x58
 2286 03fe 08       		.uleb128 0x8
 2287 03ff 7F390000 		.4byte	.LASF149
 2288 0403 59       		.byte	0x59
 2289 0404 08       		.uleb128 0x8
 2290 0405 CD340000 		.4byte	.LASF150
 2291 0409 5A       		.byte	0x5a
 2292 040a 08       		.uleb128 0x8
 2293 040b C8020000 		.4byte	.LASF151
 2294 040f 5B       		.byte	0x5b
 2295 0410 08       		.uleb128 0x8
 2296 0411 271B0000 		.4byte	.LASF152
 2297 0415 5C       		.byte	0x5c
 2298 0416 08       		.uleb128 0x8
 2299 0417 ED400000 		.4byte	.LASF153
 2300 041b 5D       		.byte	0x5d
 2301 041c 08       		.uleb128 0x8
 2302 041d 143C0000 		.4byte	.LASF154
 2303 0421 5E       		.byte	0x5e
 2304 0422 08       		.uleb128 0x8
 2305 0423 A0420000 		.4byte	.LASF155
 2306 0427 5F       		.byte	0x5f
 2307 0428 08       		.uleb128 0x8
ARM GAS  C:\Users\salaz\AppData\Local\Temp\ccu2LhKM.s 			page 90


 2308 0429 47080000 		.4byte	.LASF156
 2309 042d 60       		.byte	0x60
 2310 042e 08       		.uleb128 0x8
 2311 042f DC030000 		.4byte	.LASF157
 2312 0433 61       		.byte	0x61
 2313 0434 08       		.uleb128 0x8
 2314 0435 DF310000 		.4byte	.LASF158
 2315 0439 62       		.byte	0x62
 2316 043a 08       		.uleb128 0x8
 2317 043b 072D0000 		.4byte	.LASF159
 2318 043f 63       		.byte	0x63
 2319 0440 08       		.uleb128 0x8
 2320 0441 38140000 		.4byte	.LASF160
 2321 0445 64       		.byte	0x64
 2322 0446 08       		.uleb128 0x8
 2323 0447 A92B0000 		.4byte	.LASF161
 2324 044b 65       		.byte	0x65
 2325 044c 08       		.uleb128 0x8
 2326 044d F9220000 		.4byte	.LASF162
 2327 0451 66       		.byte	0x66
 2328 0452 08       		.uleb128 0x8
 2329 0453 0C1F0000 		.4byte	.LASF163
 2330 0457 67       		.byte	0x67
 2331 0458 08       		.uleb128 0x8
 2332 0459 FC040000 		.4byte	.LASF164
 2333 045d 68       		.byte	0x68
 2334 045e 08       		.uleb128 0x8
 2335 045f 5C2E0000 		.4byte	.LASF165
 2336 0463 69       		.byte	0x69
 2337 0464 08       		.uleb128 0x8
 2338 0465 312A0000 		.4byte	.LASF166
 2339 0469 6A       		.byte	0x6a
 2340 046a 08       		.uleb128 0x8
 2341 046b FD340000 		.4byte	.LASF167
 2342 046f 6B       		.byte	0x6b
 2343 0470 08       		.uleb128 0x8
 2344 0471 00160000 		.4byte	.LASF168
 2345 0475 6C       		.byte	0x6c
 2346 0476 08       		.uleb128 0x8
 2347 0477 E53E0000 		.4byte	.LASF169
 2348 047b 6D       		.byte	0x6d
 2349 047c 08       		.uleb128 0x8
 2350 047d 5E240000 		.4byte	.LASF170
 2351 0481 6E       		.byte	0x6e
 2352 0482 08       		.uleb128 0x8
 2353 0483 E00A0000 		.4byte	.LASF171
 2354 0487 6F       		.byte	0x6f
 2355 0488 08       		.uleb128 0x8
 2356 0489 F5060000 		.4byte	.LASF172
 2357 048d 70       		.byte	0x70
 2358 048e 08       		.uleb128 0x8
 2359 048f 27170000 		.4byte	.LASF173
 2360 0493 71       		.byte	0x71
 2361 0494 08       		.uleb128 0x8
 2362 0495 42170000 		.4byte	.LASF174
 2363 0499 72       		.byte	0x72
 2364 049a 08       		.uleb128 0x8
ARM GAS  C:\Users\salaz\AppData\Local\Temp\ccu2LhKM.s 			page 91


 2365 049b F6120000 		.4byte	.LASF175
 2366 049f 73       		.byte	0x73
 2367 04a0 08       		.uleb128 0x8
 2368 04a1 623C0000 		.4byte	.LASF176
 2369 04a5 74       		.byte	0x74
 2370 04a6 08       		.uleb128 0x8
 2371 04a7 22220000 		.4byte	.LASF177
 2372 04ab 75       		.byte	0x75
 2373 04ac 08       		.uleb128 0x8
 2374 04ad 22190000 		.4byte	.LASF178
 2375 04b1 76       		.byte	0x76
 2376 04b2 08       		.uleb128 0x8
 2377 04b3 EC2C0000 		.4byte	.LASF179
 2378 04b7 77       		.byte	0x77
 2379 04b8 08       		.uleb128 0x8
 2380 04b9 E1270000 		.4byte	.LASF180
 2381 04bd 78       		.byte	0x78
 2382 04be 08       		.uleb128 0x8
 2383 04bf B5230000 		.4byte	.LASF181
 2384 04c3 79       		.byte	0x79
 2385 04c4 08       		.uleb128 0x8
 2386 04c5 C40A0000 		.4byte	.LASF182
 2387 04c9 7A       		.byte	0x7a
 2388 04ca 08       		.uleb128 0x8
 2389 04cb E7340000 		.4byte	.LASF183
 2390 04cf 7B       		.byte	0x7b
 2391 04d0 08       		.uleb128 0x8
 2392 04d1 B01A0000 		.4byte	.LASF184
 2393 04d5 7C       		.byte	0x7c
 2394 04d6 08       		.uleb128 0x8
 2395 04d7 3B000000 		.4byte	.LASF185
 2396 04db 7D       		.byte	0x7d
 2397 04dc 08       		.uleb128 0x8
 2398 04dd 003F0000 		.4byte	.LASF186
 2399 04e1 7E       		.byte	0x7e
 2400 04e2 08       		.uleb128 0x8
 2401 04e3 B1250000 		.4byte	.LASF187
 2402 04e7 7F       		.byte	0x7f
 2403 04e8 08       		.uleb128 0x8
 2404 04e9 A20B0000 		.4byte	.LASF188
 2405 04ed 80       		.byte	0x80
 2406 04ee 08       		.uleb128 0x8
 2407 04ef 61080000 		.4byte	.LASF189
 2408 04f3 81       		.byte	0x81
 2409 04f4 08       		.uleb128 0x8
 2410 04f5 19320000 		.4byte	.LASF190
 2411 04f9 82       		.byte	0x82
 2412 04fa 08       		.uleb128 0x8
 2413 04fb 6C180000 		.4byte	.LASF191
 2414 04ff 83       		.byte	0x83
 2415 0500 08       		.uleb128 0x8
 2416 0501 703D0000 		.4byte	.LASF192
 2417 0505 84       		.byte	0x84
 2418 0506 08       		.uleb128 0x8
 2419 0507 E2220000 		.4byte	.LASF193
 2420 050b 85       		.byte	0x85
 2421 050c 08       		.uleb128 0x8
ARM GAS  C:\Users\salaz\AppData\Local\Temp\ccu2LhKM.s 			page 92


 2422 050d CD1E0000 		.4byte	.LASF194
 2423 0511 86       		.byte	0x86
 2424 0512 08       		.uleb128 0x8
 2425 0513 E5040000 		.4byte	.LASF195
 2426 0517 87       		.byte	0x87
 2427 0518 08       		.uleb128 0x8
 2428 0519 87320000 		.4byte	.LASF196
 2429 051d 88       		.byte	0x88
 2430 051e 08       		.uleb128 0x8
 2431 051f FB290000 		.4byte	.LASF197
 2432 0523 89       		.byte	0x89
 2433 0524 08       		.uleb128 0x8
 2434 0525 DA280000 		.4byte	.LASF198
 2435 0529 8A       		.byte	0x8a
 2436 052a 08       		.uleb128 0x8
 2437 052b C01C0000 		.4byte	.LASF199
 2438 052f 8B       		.byte	0x8b
 2439 0530 08       		.uleb128 0x8
 2440 0531 922D0000 		.4byte	.LASF200
 2441 0535 8C       		.byte	0x8c
 2442 0536 08       		.uleb128 0x8
 2443 0537 52140000 		.4byte	.LASF201
 2444 053b 8D       		.byte	0x8d
 2445 053c 08       		.uleb128 0x8
 2446 053d E1060000 		.4byte	.LASF202
 2447 0541 8E       		.byte	0x8e
 2448 0542 08       		.uleb128 0x8
 2449 0543 D92F0000 		.4byte	.LASF203
 2450 0547 8F       		.byte	0x8f
 2451 0548 08       		.uleb128 0x8
 2452 0549 89130000 		.4byte	.LASF204
 2453 054d 90       		.byte	0x90
 2454 054e 08       		.uleb128 0x8
 2455 054f 5D100000 		.4byte	.LASF205
 2456 0553 91       		.byte	0x91
 2457 0554 08       		.uleb128 0x8
 2458 0555 3D190000 		.4byte	.LASF206
 2459 0559 92       		.byte	0x92
 2460 055a 08       		.uleb128 0x8
 2461 055b CF060000 		.4byte	.LASF207
 2462 055f F0       		.byte	0xf0
 2463 0560 00       		.byte	0
 2464 0561 09       		.uleb128 0x9
 2465 0562 C63C0000 		.4byte	.LASF208
 2466 0566 05       		.byte	0x5
 2467 0567 9201     		.2byte	0x192
 2468 0569 DC010000 		.4byte	0x1dc
 2469 056d 0A       		.uleb128 0xa
 2470 056e CF000000 		.4byte	0xcf
 2471 0572 0B       		.uleb128 0xb
 2472 0573 6D050000 		.4byte	0x56d
 2473 0577 0C       		.uleb128 0xc
 2474 0578 0080     		.2byte	0x8000
 2475 057a 06       		.byte	0x6
 2476 057b 21       		.byte	0x21
 2477 057c 2B0B0000 		.4byte	0xb2b
 2478 0580 0D       		.uleb128 0xd
ARM GAS  C:\Users\salaz\AppData\Local\Temp\ccu2LhKM.s 			page 93


 2479 0581 56190000 		.4byte	.LASF209
 2480 0585 06       		.byte	0x6
 2481 0586 22       		.byte	0x22
 2482 0587 300B0000 		.4byte	0xb30
 2483 058b 00       		.byte	0
 2484 058c 0D       		.uleb128 0xd
 2485 058d 6E370000 		.4byte	.LASF210
 2486 0591 06       		.byte	0x6
 2487 0592 23       		.byte	0x23
 2488 0593 2B0B0000 		.4byte	0xb2b
 2489 0597 01       		.byte	0x1
 2490 0598 0D       		.uleb128 0xd
 2491 0599 E51A0000 		.4byte	.LASF211
 2492 059d 06       		.byte	0x6
 2493 059e 24       		.byte	0x24
 2494 059f 350B0000 		.4byte	0xb35
 2495 05a3 02       		.byte	0x2
 2496 05a4 0D       		.uleb128 0xd
 2497 05a5 8A0F0000 		.4byte	.LASF212
 2498 05a9 06       		.byte	0x6
 2499 05aa 25       		.byte	0x25
 2500 05ab 4F0B0000 		.4byte	0xb4f
 2501 05af 04       		.byte	0x4
 2502 05b0 0D       		.uleb128 0xd
 2503 05b1 C4190000 		.4byte	.LASF213
 2504 05b5 06       		.byte	0x6
 2505 05b6 26       		.byte	0x26
 2506 05b7 350B0000 		.4byte	0xb35
 2507 05bb 0C       		.byte	0xc
 2508 05bc 0D       		.uleb128 0xd
 2509 05bd 1E150000 		.4byte	.LASF214
 2510 05c1 06       		.byte	0x6
 2511 05c2 27       		.byte	0x27
 2512 05c3 6F0B0000 		.4byte	0xb6f
 2513 05c7 0E       		.byte	0xe
 2514 05c8 0E       		.uleb128 0xe
 2515 05c9 2D060000 		.4byte	.LASF215
 2516 05cd 06       		.byte	0x6
 2517 05ce 28       		.byte	0x28
 2518 05cf 840B0000 		.4byte	0xb84
 2519 05d3 0006     		.2byte	0x600
 2520 05d5 0E       		.uleb128 0xe
 2521 05d6 8F1E0000 		.4byte	.LASF216
 2522 05da 06       		.byte	0x6
 2523 05db 29       		.byte	0x29
 2524 05dc 2B0B0000 		.4byte	0xb2b
 2525 05e0 0306     		.2byte	0x603
 2526 05e2 0E       		.uleb128 0xe
 2527 05e3 5A430000 		.4byte	.LASF217
 2528 05e7 06       		.byte	0x6
 2529 05e8 2A       		.byte	0x2a
 2530 05e9 2B0B0000 		.4byte	0xb2b
 2531 05ed 0406     		.2byte	0x604
 2532 05ef 0E       		.uleb128 0xe
 2533 05f0 60430000 		.4byte	.LASF218
 2534 05f4 06       		.byte	0x6
 2535 05f5 2B       		.byte	0x2b
ARM GAS  C:\Users\salaz\AppData\Local\Temp\ccu2LhKM.s 			page 94


 2536 05f6 2B0B0000 		.4byte	0xb2b
 2537 05fa 0506     		.2byte	0x605
 2538 05fc 0E       		.uleb128 0xe
 2539 05fd 4C3E0000 		.4byte	.LASF219
 2540 0601 06       		.byte	0x6
 2541 0602 2C       		.byte	0x2c
 2542 0603 2B0B0000 		.4byte	0xb2b
 2543 0607 0606     		.2byte	0x606
 2544 0609 0E       		.uleb128 0xe
 2545 060a 26230000 		.4byte	.LASF220
 2546 060e 06       		.byte	0x6
 2547 060f 2D       		.byte	0x2d
 2548 0610 2B0B0000 		.4byte	0xb2b
 2549 0614 0706     		.2byte	0x607
 2550 0616 0E       		.uleb128 0xe
 2551 0617 93340000 		.4byte	.LASF221
 2552 061b 06       		.byte	0x6
 2553 061c 2E       		.byte	0x2e
 2554 061d 2B0B0000 		.4byte	0xb2b
 2555 0621 0806     		.2byte	0x608
 2556 0623 0E       		.uleb128 0xe
 2557 0624 270B0000 		.4byte	.LASF222
 2558 0628 06       		.byte	0x6
 2559 0629 2F       		.byte	0x2f
 2560 062a 2B0B0000 		.4byte	0xb2b
 2561 062e 0906     		.2byte	0x609
 2562 0630 0E       		.uleb128 0xe
 2563 0631 99190000 		.4byte	.LASF223
 2564 0635 06       		.byte	0x6
 2565 0636 30       		.byte	0x30
 2566 0637 2B0B0000 		.4byte	0xb2b
 2567 063b 0A06     		.2byte	0x60a
 2568 063d 0E       		.uleb128 0xe
 2569 063e AF0F0000 		.4byte	.LASF224
 2570 0642 06       		.byte	0x6
 2571 0643 31       		.byte	0x31
 2572 0644 9E0B0000 		.4byte	0xb9e
 2573 0648 0B06     		.2byte	0x60b
 2574 064a 0E       		.uleb128 0xe
 2575 064b 4B380000 		.4byte	.LASF225
 2576 064f 06       		.byte	0x6
 2577 0650 32       		.byte	0x32
 2578 0651 350B0000 		.4byte	0xb35
 2579 0655 4806     		.2byte	0x648
 2580 0657 0E       		.uleb128 0xe
 2581 0658 36180000 		.4byte	.LASF226
 2582 065c 06       		.byte	0x6
 2583 065d 33       		.byte	0x33
 2584 065e 350B0000 		.4byte	0xb35
 2585 0662 4A06     		.2byte	0x64a
 2586 0664 0E       		.uleb128 0xe
 2587 0665 B90F0000 		.4byte	.LASF227
 2588 0669 06       		.byte	0x6
 2589 066a 34       		.byte	0x34
 2590 066b B80B0000 		.4byte	0xbb8
 2591 066f 4C06     		.2byte	0x64c
 2592 0671 0E       		.uleb128 0xe
ARM GAS  C:\Users\salaz\AppData\Local\Temp\ccu2LhKM.s 			page 95


 2593 0672 61330000 		.4byte	.LASF228
 2594 0676 06       		.byte	0x6
 2595 0677 35       		.byte	0x35
 2596 0678 6D050000 		.4byte	0x56d
 2597 067c 6C06     		.2byte	0x66c
 2598 067e 0E       		.uleb128 0xe
 2599 067f C30F0000 		.4byte	.LASF229
 2600 0683 06       		.byte	0x6
 2601 0684 36       		.byte	0x36
 2602 0685 D20B0000 		.4byte	0xbd2
 2603 0689 7006     		.2byte	0x670
 2604 068b 0E       		.uleb128 0xe
 2605 068c C11B0000 		.4byte	.LASF230
 2606 0690 06       		.byte	0x6
 2607 0691 37       		.byte	0x37
 2608 0692 2B0B0000 		.4byte	0xb2b
 2609 0696 4007     		.2byte	0x740
 2610 0698 0E       		.uleb128 0xe
 2611 0699 FB180000 		.4byte	.LASF231
 2612 069d 06       		.byte	0x6
 2613 069e 38       		.byte	0x38
 2614 069f 2B0B0000 		.4byte	0xb2b
 2615 06a3 4107     		.2byte	0x741
 2616 06a5 0E       		.uleb128 0xe
 2617 06a6 CD0F0000 		.4byte	.LASF232
 2618 06aa 06       		.byte	0x6
 2619 06ab 39       		.byte	0x39
 2620 06ac EC0B0000 		.4byte	0xbec
 2621 06b0 4207     		.2byte	0x742
 2622 06b2 0E       		.uleb128 0xe
 2623 06b3 0E3B0000 		.4byte	.LASF233
 2624 06b7 06       		.byte	0x6
 2625 06b8 3A       		.byte	0x3a
 2626 06b9 010C0000 		.4byte	0xc01
 2627 06bd 0008     		.2byte	0x800
 2628 06bf 0E       		.uleb128 0xe
 2629 06c0 82210000 		.4byte	.LASF234
 2630 06c4 06       		.byte	0x6
 2631 06c5 3B       		.byte	0x3b
 2632 06c6 060C0000 		.4byte	0xc06
 2633 06ca 000A     		.2byte	0xa00
 2634 06cc 0E       		.uleb128 0xe
 2635 06cd 91210000 		.4byte	.LASF235
 2636 06d1 06       		.byte	0x6
 2637 06d2 3C       		.byte	0x3c
 2638 06d3 0B0C0000 		.4byte	0xc0b
 2639 06d7 000C     		.2byte	0xc00
 2640 06d9 0E       		.uleb128 0xe
 2641 06da A0210000 		.4byte	.LASF236
 2642 06de 06       		.byte	0x6
 2643 06df 3D       		.byte	0x3d
 2644 06e0 100C0000 		.4byte	0xc10
 2645 06e4 000E     		.2byte	0xe00
 2646 06e6 0E       		.uleb128 0xe
 2647 06e7 D70F0000 		.4byte	.LASF237
 2648 06eb 06       		.byte	0x6
 2649 06ec 3E       		.byte	0x3e
ARM GAS  C:\Users\salaz\AppData\Local\Temp\ccu2LhKM.s 			page 96


 2650 06ed 2B0C0000 		.4byte	0xc2b
 2651 06f1 0010     		.2byte	0x1000
 2652 06f3 0E       		.uleb128 0xe
 2653 06f4 67090000 		.4byte	.LASF238
 2654 06f8 06       		.byte	0x6
 2655 06f9 3F       		.byte	0x3f
 2656 06fa 400C0000 		.4byte	0xc40
 2657 06fe B814     		.2byte	0x14b8
 2658 0700 0E       		.uleb128 0xe
 2659 0701 CC170000 		.4byte	.LASF239
 2660 0705 06       		.byte	0x6
 2661 0706 40       		.byte	0x40
 2662 0707 450C0000 		.4byte	0xc45
 2663 070b C814     		.2byte	0x14c8
 2664 070d 0E       		.uleb128 0xe
 2665 070e E6380000 		.4byte	.LASF240
 2666 0712 06       		.byte	0x6
 2667 0713 41       		.byte	0x41
 2668 0714 5A0C0000 		.4byte	0xc5a
 2669 0718 D814     		.2byte	0x14d8
 2670 071a 0E       		.uleb128 0xe
 2671 071b C1270000 		.4byte	.LASF241
 2672 071f 06       		.byte	0x6
 2673 0720 42       		.byte	0x42
 2674 0721 5F0C0000 		.4byte	0xc5f
 2675 0725 1815     		.2byte	0x1518
 2676 0727 0E       		.uleb128 0xe
 2677 0728 9F390000 		.4byte	.LASF242
 2678 072c 06       		.byte	0x6
 2679 072d 43       		.byte	0x43
 2680 072e 640C0000 		.4byte	0xc64
 2681 0732 5815     		.2byte	0x1558
 2682 0734 0E       		.uleb128 0xe
 2683 0735 B7080000 		.4byte	.LASF243
 2684 0739 06       		.byte	0x6
 2685 073a 44       		.byte	0x44
 2686 073b 690C0000 		.4byte	0xc69
 2687 073f 9815     		.2byte	0x1598
 2688 0741 0E       		.uleb128 0xe
 2689 0742 1B270000 		.4byte	.LASF244
 2690 0746 06       		.byte	0x6
 2691 0747 45       		.byte	0x45
 2692 0748 6E0C0000 		.4byte	0xc6e
 2693 074c D815     		.2byte	0x15d8
 2694 074e 0E       		.uleb128 0xe
 2695 074f E10F0000 		.4byte	.LASF245
 2696 0753 06       		.byte	0x6
 2697 0754 46       		.byte	0x46
 2698 0755 880C0000 		.4byte	0xc88
 2699 0759 1816     		.2byte	0x1618
 2700 075b 0E       		.uleb128 0xe
 2701 075c 17240000 		.4byte	.LASF246
 2702 0760 06       		.byte	0x6
 2703 0761 47       		.byte	0x47
 2704 0762 350B0000 		.4byte	0xb35
 2705 0766 0018     		.2byte	0x1800
 2706 0768 0E       		.uleb128 0xe
ARM GAS  C:\Users\salaz\AppData\Local\Temp\ccu2LhKM.s 			page 97


 2707 0769 EB0F0000 		.4byte	.LASF247
 2708 076d 06       		.byte	0x6
 2709 076e 48       		.byte	0x48
 2710 076f 650B0000 		.4byte	0xb65
 2711 0773 0218     		.2byte	0x1802
 2712 0775 0E       		.uleb128 0xe
 2713 0776 FB010000 		.4byte	.LASF248
 2714 077a 06       		.byte	0x6
 2715 077b 49       		.byte	0x49
 2716 077c 6D050000 		.4byte	0x56d
 2717 0780 0418     		.2byte	0x1804
 2718 0782 0E       		.uleb128 0xe
 2719 0783 58000000 		.4byte	.LASF249
 2720 0787 06       		.byte	0x6
 2721 0788 4A       		.byte	0x4a
 2722 0789 6D050000 		.4byte	0x56d
 2723 078d 0818     		.2byte	0x1808
 2724 078f 0E       		.uleb128 0xe
 2725 0790 2C020000 		.4byte	.LASF250
 2726 0794 06       		.byte	0x6
 2727 0795 4B       		.byte	0x4b
 2728 0796 6D050000 		.4byte	0x56d
 2729 079a 0C18     		.2byte	0x180c
 2730 079c 0E       		.uleb128 0xe
 2731 079d A63E0000 		.4byte	.LASF251
 2732 07a1 06       		.byte	0x6
 2733 07a2 4C       		.byte	0x4c
 2734 07a3 6D050000 		.4byte	0x56d
 2735 07a7 1018     		.2byte	0x1810
 2736 07a9 0E       		.uleb128 0xe
 2737 07aa 7A300000 		.4byte	.LASF252
 2738 07ae 06       		.byte	0x6
 2739 07af 4D       		.byte	0x4d
 2740 07b0 650B0000 		.4byte	0xb65
 2741 07b4 1418     		.2byte	0x1814
 2742 07b6 0E       		.uleb128 0xe
 2743 07b7 E83D0000 		.4byte	.LASF253
 2744 07bb 06       		.byte	0x6
 2745 07bc 4E       		.byte	0x4e
 2746 07bd 350B0000 		.4byte	0xb35
 2747 07c1 1618     		.2byte	0x1816
 2748 07c3 0E       		.uleb128 0xe
 2749 07c4 ED050000 		.4byte	.LASF254
 2750 07c8 06       		.byte	0x6
 2751 07c9 4F       		.byte	0x4f
 2752 07ca 6D050000 		.4byte	0x56d
 2753 07ce 1818     		.2byte	0x1818
 2754 07d0 0E       		.uleb128 0xe
 2755 07d1 A53F0000 		.4byte	.LASF255
 2756 07d5 06       		.byte	0x6
 2757 07d6 50       		.byte	0x50
 2758 07d7 6D050000 		.4byte	0x56d
 2759 07db 1C18     		.2byte	0x181c
 2760 07dd 0E       		.uleb128 0xe
 2761 07de A90E0000 		.4byte	.LASF256
 2762 07e2 06       		.byte	0x6
 2763 07e3 51       		.byte	0x51
ARM GAS  C:\Users\salaz\AppData\Local\Temp\ccu2LhKM.s 			page 98


 2764 07e4 6D050000 		.4byte	0x56d
 2765 07e8 2018     		.2byte	0x1820
 2766 07ea 0E       		.uleb128 0xe
 2767 07eb FE300000 		.4byte	.LASF257
 2768 07ef 06       		.byte	0x6
 2769 07f0 52       		.byte	0x52
 2770 07f1 6D050000 		.4byte	0x56d
 2771 07f5 2418     		.2byte	0x1824
 2772 07f7 0E       		.uleb128 0xe
 2773 07f8 85300000 		.4byte	.LASF258
 2774 07fc 06       		.byte	0x6
 2775 07fd 53       		.byte	0x53
 2776 07fe A20C0000 		.4byte	0xca2
 2777 0802 2818     		.2byte	0x1828
 2778 0804 0E       		.uleb128 0xe
 2779 0805 D4140000 		.4byte	.LASF259
 2780 0809 06       		.byte	0x6
 2781 080a 54       		.byte	0x54
 2782 080b 6D050000 		.4byte	0x56d
 2783 080f 4418     		.2byte	0x1844
 2784 0811 0E       		.uleb128 0xe
 2785 0812 BD2F0000 		.4byte	.LASF260
 2786 0816 06       		.byte	0x6
 2787 0817 55       		.byte	0x55
 2788 0818 6D050000 		.4byte	0x56d
 2789 081c 4818     		.2byte	0x1848
 2790 081e 0E       		.uleb128 0xe
 2791 081f 603E0000 		.4byte	.LASF261
 2792 0823 06       		.byte	0x6
 2793 0824 56       		.byte	0x56
 2794 0825 6D050000 		.4byte	0x56d
 2795 0829 4C18     		.2byte	0x184c
 2796 082b 0E       		.uleb128 0xe
 2797 082c 48050000 		.4byte	.LASF262
 2798 0830 06       		.byte	0x6
 2799 0831 57       		.byte	0x57
 2800 0832 6D050000 		.4byte	0x56d
 2801 0836 5018     		.2byte	0x1850
 2802 0838 0E       		.uleb128 0xe
 2803 0839 90300000 		.4byte	.LASF263
 2804 083d 06       		.byte	0x6
 2805 083e 58       		.byte	0x58
 2806 083f BD0C0000 		.4byte	0xcbd
 2807 0843 5418     		.2byte	0x1854
 2808 0845 0E       		.uleb128 0xe
 2809 0846 5A0D0000 		.4byte	.LASF264
 2810 084a 06       		.byte	0x6
 2811 084b 59       		.byte	0x59
 2812 084c 6D050000 		.4byte	0x56d
 2813 0850 0020     		.2byte	0x2000
 2814 0852 0E       		.uleb128 0xe
 2815 0853 CD310000 		.4byte	.LASF265
 2816 0857 06       		.byte	0x6
 2817 0858 5A       		.byte	0x5a
 2818 0859 6D050000 		.4byte	0x56d
 2819 085d 0420     		.2byte	0x2004
 2820 085f 0E       		.uleb128 0xe
ARM GAS  C:\Users\salaz\AppData\Local\Temp\ccu2LhKM.s 			page 99


 2821 0860 CF2C0000 		.4byte	.LASF266
 2822 0864 06       		.byte	0x6
 2823 0865 5B       		.byte	0x5b
 2824 0866 6D050000 		.4byte	0x56d
 2825 086a 0820     		.2byte	0x2008
 2826 086c 0E       		.uleb128 0xe
 2827 086d FB230000 		.4byte	.LASF267
 2828 0871 06       		.byte	0x6
 2829 0872 5C       		.byte	0x5c
 2830 0873 6D050000 		.4byte	0x56d
 2831 0877 0C20     		.2byte	0x200c
 2832 0879 0E       		.uleb128 0xe
 2833 087a FF280000 		.4byte	.LASF268
 2834 087e 06       		.byte	0x6
 2835 087f 5D       		.byte	0x5d
 2836 0880 6D050000 		.4byte	0x56d
 2837 0884 1020     		.2byte	0x2010
 2838 0886 0E       		.uleb128 0xe
 2839 0887 AC290000 		.4byte	.LASF269
 2840 088b 06       		.byte	0x6
 2841 088c 5E       		.byte	0x5e
 2842 088d 6D050000 		.4byte	0x56d
 2843 0891 1420     		.2byte	0x2014
 2844 0893 0E       		.uleb128 0xe
 2845 0894 9B300000 		.4byte	.LASF270
 2846 0898 06       		.byte	0x6
 2847 0899 5F       		.byte	0x5f
 2848 089a D70C0000 		.4byte	0xcd7
 2849 089e 1820     		.2byte	0x2018
 2850 08a0 0E       		.uleb128 0xe
 2851 08a1 D01D0000 		.4byte	.LASF271
 2852 08a5 06       		.byte	0x6
 2853 08a6 60       		.byte	0x60
 2854 08a7 ED0C0000 		.4byte	0xced
 2855 08ab D820     		.2byte	0x20d8
 2856 08ad 0E       		.uleb128 0xe
 2857 08ae A6300000 		.4byte	.LASF272
 2858 08b2 06       		.byte	0x6
 2859 08b3 61       		.byte	0x61
 2860 08b4 080D0000 		.4byte	0xd08
 2861 08b8 0042     		.2byte	0x4200
 2862 08ba 0E       		.uleb128 0xe
 2863 08bb 7B200000 		.4byte	.LASF273
 2864 08bf 06       		.byte	0x6
 2865 08c0 62       		.byte	0x62
 2866 08c1 1E0D0000 		.4byte	0xd1e
 2867 08c5 005A     		.2byte	0x5a00
 2868 08c7 0E       		.uleb128 0xe
 2869 08c8 79240000 		.4byte	.LASF274
 2870 08cc 06       		.byte	0x6
 2871 08cd 63       		.byte	0x63
 2872 08ce 340D0000 		.4byte	0xd34
 2873 08d2 0066     		.2byte	0x6600
 2874 08d4 0E       		.uleb128 0xe
 2875 08d5 B1300000 		.4byte	.LASF275
 2876 08d9 06       		.byte	0x6
 2877 08da 64       		.byte	0x64
ARM GAS  C:\Users\salaz\AppData\Local\Temp\ccu2LhKM.s 			page 100


 2878 08db 4F0D0000 		.4byte	0xd4f
 2879 08df 006C     		.2byte	0x6c00
 2880 08e1 0E       		.uleb128 0xe
 2881 08e2 0D330000 		.4byte	.LASF276
 2882 08e6 06       		.byte	0x6
 2883 08e7 65       		.byte	0x65
 2884 08e8 6D050000 		.4byte	0x56d
 2885 08ec 0078     		.2byte	0x7800
 2886 08ee 0E       		.uleb128 0xe
 2887 08ef 23380000 		.4byte	.LASF277
 2888 08f3 06       		.byte	0x6
 2889 08f4 67       		.byte	0x67
 2890 08f5 6D050000 		.4byte	0x56d
 2891 08f9 0478     		.2byte	0x7804
 2892 08fb 0E       		.uleb128 0xe
 2893 08fc F2420000 		.4byte	.LASF278
 2894 0900 06       		.byte	0x6
 2895 0901 68       		.byte	0x68
 2896 0902 6D050000 		.4byte	0x56d
 2897 0906 0878     		.2byte	0x7808
 2898 0908 0E       		.uleb128 0xe
 2899 0909 3E3B0000 		.4byte	.LASF279
 2900 090d 06       		.byte	0x6
 2901 090e 6A       		.byte	0x6a
 2902 090f 6D050000 		.4byte	0x56d
 2903 0913 0C78     		.2byte	0x780c
 2904 0915 0E       		.uleb128 0xe
 2905 0916 C8030000 		.4byte	.LASF280
 2906 091a 06       		.byte	0x6
 2907 091b 6B       		.byte	0x6b
 2908 091c 6D050000 		.4byte	0x56d
 2909 0920 1078     		.2byte	0x7810
 2910 0922 0E       		.uleb128 0xe
 2911 0923 A1260000 		.4byte	.LASF281
 2912 0927 06       		.byte	0x6
 2913 0928 6C       		.byte	0x6c
 2914 0929 6D050000 		.4byte	0x56d
 2915 092d 1478     		.2byte	0x7814
 2916 092f 0E       		.uleb128 0xe
 2917 0930 8A0B0000 		.4byte	.LASF282
 2918 0934 06       		.byte	0x6
 2919 0935 6D       		.byte	0x6d
 2920 0936 6D050000 		.4byte	0x56d
 2921 093a 1878     		.2byte	0x7818
 2922 093c 0E       		.uleb128 0xe
 2923 093d CB3E0000 		.4byte	.LASF283
 2924 0941 06       		.byte	0x6
 2925 0942 6E       		.byte	0x6e
 2926 0943 6D050000 		.4byte	0x56d
 2927 0947 1C78     		.2byte	0x781c
 2928 0949 0E       		.uleb128 0xe
 2929 094a 6C410000 		.4byte	.LASF284
 2930 094e 06       		.byte	0x6
 2931 094f 6F       		.byte	0x6f
 2932 0950 690D0000 		.4byte	0xd69
 2933 0954 2078     		.2byte	0x7820
 2934 0956 0E       		.uleb128 0xe
ARM GAS  C:\Users\salaz\AppData\Local\Temp\ccu2LhKM.s 			page 101


 2935 0957 FA0C0000 		.4byte	.LASF285
 2936 095b 06       		.byte	0x6
 2937 095c 70       		.byte	0x70
 2938 095d 6D050000 		.4byte	0x56d
 2939 0961 FC79     		.2byte	0x79fc
 2940 0963 0E       		.uleb128 0xe
 2941 0964 70380000 		.4byte	.LASF286
 2942 0968 06       		.byte	0x6
 2943 0969 71       		.byte	0x71
 2944 096a 6D050000 		.4byte	0x56d
 2945 096e 007A     		.2byte	0x7a00
 2946 0970 0E       		.uleb128 0xe
 2947 0971 DC390000 		.4byte	.LASF287
 2948 0975 06       		.byte	0x6
 2949 0976 73       		.byte	0x73
 2950 0977 6D050000 		.4byte	0x56d
 2951 097b 047A     		.2byte	0x7a04
 2952 097d 0E       		.uleb128 0xe
 2953 097e AB330000 		.4byte	.LASF288
 2954 0982 06       		.byte	0x6
 2955 0983 74       		.byte	0x74
 2956 0984 6D050000 		.4byte	0x56d
 2957 0988 087A     		.2byte	0x7a08
 2958 098a 0E       		.uleb128 0xe
 2959 098b C3010000 		.4byte	.LASF289
 2960 098f 06       		.byte	0x6
 2961 0990 76       		.byte	0x76
 2962 0991 6D050000 		.4byte	0x56d
 2963 0995 0C7A     		.2byte	0x7a0c
 2964 0997 0E       		.uleb128 0xe
 2965 0998 150D0000 		.4byte	.LASF290
 2966 099c 06       		.byte	0x6
 2967 099d 77       		.byte	0x77
 2968 099e 6D050000 		.4byte	0x56d
 2969 09a2 107A     		.2byte	0x7a10
 2970 09a4 0E       		.uleb128 0xe
 2971 09a5 D4410000 		.4byte	.LASF291
 2972 09a9 06       		.byte	0x6
 2973 09aa 78       		.byte	0x78
 2974 09ab 6D050000 		.4byte	0x56d
 2975 09af 147A     		.2byte	0x7a14
 2976 09b1 0E       		.uleb128 0xe
 2977 09b2 7A0E0000 		.4byte	.LASF292
 2978 09b6 06       		.byte	0x6
 2979 09b7 7A       		.byte	0x7a
 2980 09b8 6D050000 		.4byte	0x56d
 2981 09bc 187A     		.2byte	0x7a18
 2982 09be 0E       		.uleb128 0xe
 2983 09bf DD300000 		.4byte	.LASF293
 2984 09c3 06       		.byte	0x6
 2985 09c4 7B       		.byte	0x7b
 2986 09c5 830D0000 		.4byte	0xd83
 2987 09c9 1C7A     		.2byte	0x7a1c
 2988 09cb 0E       		.uleb128 0xe
 2989 09cc EA080000 		.4byte	.LASF294
 2990 09d0 06       		.byte	0x6
 2991 09d1 7C       		.byte	0x7c
ARM GAS  C:\Users\salaz\AppData\Local\Temp\ccu2LhKM.s 			page 102


 2992 09d2 6D050000 		.4byte	0x56d
 2993 09d6 FC7B     		.2byte	0x7bfc
 2994 09d8 0E       		.uleb128 0xe
 2995 09d9 160B0000 		.4byte	.LASF295
 2996 09dd 06       		.byte	0x6
 2997 09de 7E       		.byte	0x7e
 2998 09df 6D050000 		.4byte	0x56d
 2999 09e3 007C     		.2byte	0x7c00
 3000 09e5 0E       		.uleb128 0xe
 3001 09e6 26280000 		.4byte	.LASF296
 3002 09ea 06       		.byte	0x6
 3003 09eb 80       		.byte	0x80
 3004 09ec 6D050000 		.4byte	0x56d
 3005 09f0 047C     		.2byte	0x7c04
 3006 09f2 0E       		.uleb128 0xe
 3007 09f3 16050000 		.4byte	.LASF297
 3008 09f7 06       		.byte	0x6
 3009 09f8 81       		.byte	0x81
 3010 09f9 6D050000 		.4byte	0x56d
 3011 09fd 087C     		.2byte	0x7c08
 3012 09ff 0E       		.uleb128 0xe
 3013 0a00 463F0000 		.4byte	.LASF298
 3014 0a04 06       		.byte	0x6
 3015 0a05 82       		.byte	0x82
 3016 0a06 6D050000 		.4byte	0x56d
 3017 0a0a 0C7C     		.2byte	0x7c0c
 3018 0a0c 0E       		.uleb128 0xe
 3019 0a0d 6A280000 		.4byte	.LASF299
 3020 0a11 06       		.byte	0x6
 3021 0a12 84       		.byte	0x84
 3022 0a13 6D050000 		.4byte	0x56d
 3023 0a17 107C     		.2byte	0x7c10
 3024 0a19 0E       		.uleb128 0xe
 3025 0a1a 940F0000 		.4byte	.LASF300
 3026 0a1e 06       		.byte	0x6
 3027 0a1f 85       		.byte	0x85
 3028 0a20 6D050000 		.4byte	0x56d
 3029 0a24 147C     		.2byte	0x7c14
 3030 0a26 0E       		.uleb128 0xe
 3031 0a27 A71B0000 		.4byte	.LASF301
 3032 0a2b 06       		.byte	0x6
 3033 0a2c 87       		.byte	0x87
 3034 0a2d 6D050000 		.4byte	0x56d
 3035 0a31 187C     		.2byte	0x7c18
 3036 0a33 0E       		.uleb128 0xe
 3037 0a34 190A0000 		.4byte	.LASF302
 3038 0a38 06       		.byte	0x6
 3039 0a39 88       		.byte	0x88
 3040 0a3a 6D050000 		.4byte	0x56d
 3041 0a3e 1C7C     		.2byte	0x7c1c
 3042 0a40 0E       		.uleb128 0xe
 3043 0a41 150E0000 		.4byte	.LASF303
 3044 0a45 06       		.byte	0x6
 3045 0a46 8A       		.byte	0x8a
 3046 0a47 6D050000 		.4byte	0x56d
 3047 0a4b 207C     		.2byte	0x7c20
 3048 0a4d 0E       		.uleb128 0xe
ARM GAS  C:\Users\salaz\AppData\Local\Temp\ccu2LhKM.s 			page 103


 3049 0a4e 36210000 		.4byte	.LASF304
 3050 0a52 06       		.byte	0x6
 3051 0a53 8D       		.byte	0x8d
 3052 0a54 6D050000 		.4byte	0x56d
 3053 0a58 247C     		.2byte	0x7c24
 3054 0a5a 0E       		.uleb128 0xe
 3055 0a5b E8300000 		.4byte	.LASF305
 3056 0a5f 06       		.byte	0x6
 3057 0a60 8F       		.byte	0x8f
 3058 0a61 9D0D0000 		.4byte	0xd9d
 3059 0a65 287C     		.2byte	0x7c28
 3060 0a67 0E       		.uleb128 0xe
 3061 0a68 553E0000 		.4byte	.LASF306
 3062 0a6c 06       		.byte	0x6
 3063 0a6d 90       		.byte	0x90
 3064 0a6e 6D050000 		.4byte	0x56d
 3065 0a72 F87D     		.2byte	0x7df8
 3066 0a74 0E       		.uleb128 0xe
 3067 0a75 A9000000 		.4byte	.LASF307
 3068 0a79 06       		.byte	0x6
 3069 0a7a 91       		.byte	0x91
 3070 0a7b 6D050000 		.4byte	0x56d
 3071 0a7f FC7D     		.2byte	0x7dfc
 3072 0a81 0E       		.uleb128 0xe
 3073 0a82 CC100000 		.4byte	.LASF308
 3074 0a86 06       		.byte	0x6
 3075 0a87 92       		.byte	0x92
 3076 0a88 6D050000 		.4byte	0x56d
 3077 0a8c 007E     		.2byte	0x7e00
 3078 0a8e 0E       		.uleb128 0xe
 3079 0a8f C2290000 		.4byte	.LASF309
 3080 0a93 06       		.byte	0x6
 3081 0a94 94       		.byte	0x94
 3082 0a95 6D050000 		.4byte	0x56d
 3083 0a99 047E     		.2byte	0x7e04
 3084 0a9b 0E       		.uleb128 0xe
 3085 0a9c 5B3D0000 		.4byte	.LASF310
 3086 0aa0 06       		.byte	0x6
 3087 0aa1 95       		.byte	0x95
 3088 0aa2 6D050000 		.4byte	0x56d
 3089 0aa6 087E     		.2byte	0x7e08
 3090 0aa8 0E       		.uleb128 0xe
 3091 0aa9 272F0000 		.4byte	.LASF311
 3092 0aad 06       		.byte	0x6
 3093 0aae 96       		.byte	0x96
 3094 0aaf 6D050000 		.4byte	0x56d
 3095 0ab3 0C7E     		.2byte	0x7e0c
 3096 0ab5 0E       		.uleb128 0xe
 3097 0ab6 EF2F0000 		.4byte	.LASF312
 3098 0aba 06       		.byte	0x6
 3099 0abb 98       		.byte	0x98
 3100 0abc 6D050000 		.4byte	0x56d
 3101 0ac0 107E     		.2byte	0x7e10
 3102 0ac2 0E       		.uleb128 0xe
 3103 0ac3 C0390000 		.4byte	.LASF313
 3104 0ac7 06       		.byte	0x6
 3105 0ac8 99       		.byte	0x99
ARM GAS  C:\Users\salaz\AppData\Local\Temp\ccu2LhKM.s 			page 104


 3106 0ac9 6D050000 		.4byte	0x56d
 3107 0acd 147E     		.2byte	0x7e14
 3108 0acf 0E       		.uleb128 0xe
 3109 0ad0 72070000 		.4byte	.LASF314
 3110 0ad4 06       		.byte	0x6
 3111 0ad5 9B       		.byte	0x9b
 3112 0ad6 6D050000 		.4byte	0x56d
 3113 0ada 187E     		.2byte	0x7e18
 3114 0adc 0E       		.uleb128 0xe
 3115 0add 311E0000 		.4byte	.LASF315
 3116 0ae1 06       		.byte	0x6
 3117 0ae2 9C       		.byte	0x9c
 3118 0ae3 6D050000 		.4byte	0x56d
 3119 0ae7 1C7E     		.2byte	0x7e1c
 3120 0ae9 0E       		.uleb128 0xe
 3121 0aea 4A240000 		.4byte	.LASF316
 3122 0aee 06       		.byte	0x6
 3123 0aef 9E       		.byte	0x9e
 3124 0af0 6D050000 		.4byte	0x56d
 3125 0af4 207E     		.2byte	0x7e20
 3126 0af6 0E       		.uleb128 0xe
 3127 0af7 39130000 		.4byte	.LASF317
 3128 0afb 06       		.byte	0x6
 3129 0afc A1       		.byte	0xa1
 3130 0afd 6D050000 		.4byte	0x56d
 3131 0b01 247E     		.2byte	0x7e24
 3132 0b03 0E       		.uleb128 0xe
 3133 0b04 F3300000 		.4byte	.LASF318
 3134 0b08 06       		.byte	0x6
 3135 0b09 A4       		.byte	0xa4
 3136 0b0a A70D0000 		.4byte	0xda7
 3137 0b0e 287E     		.2byte	0x7e28
 3138 0b10 0E       		.uleb128 0xe
 3139 0b11 F4150000 		.4byte	.LASF319
 3140 0b15 06       		.byte	0x6
 3141 0b16 A5       		.byte	0xa5
 3142 0b17 6D050000 		.4byte	0x56d
 3143 0b1b F87F     		.2byte	0x7ff8
 3144 0b1d 0E       		.uleb128 0xe
 3145 0b1e A0180000 		.4byte	.LASF320
 3146 0b22 06       		.byte	0x6
 3147 0b23 A6       		.byte	0xa6
 3148 0b24 6D050000 		.4byte	0x56d
 3149 0b28 FC7F     		.2byte	0x7ffc
 3150 0b2a 00       		.byte	0
 3151 0b2b 0A       		.uleb128 0xa
 3152 0b2c B9000000 		.4byte	0xb9
 3153 0b30 0B       		.uleb128 0xb
 3154 0b31 2B0B0000 		.4byte	0xb2b
 3155 0b35 0A       		.uleb128 0xa
 3156 0b36 C4000000 		.4byte	0xc4
 3157 0b3a 0F       		.uleb128 0xf
 3158 0b3b 72050000 		.4byte	0x572
 3159 0b3f 4A0B0000 		.4byte	0xb4a
 3160 0b43 10       		.uleb128 0x10
 3161 0b44 9E000000 		.4byte	0x9e
 3162 0b48 01       		.byte	0x1
ARM GAS  C:\Users\salaz\AppData\Local\Temp\ccu2LhKM.s 			page 105


 3163 0b49 00       		.byte	0
 3164 0b4a 0A       		.uleb128 0xa
 3165 0b4b 3A0B0000 		.4byte	0xb3a
 3166 0b4f 0B       		.uleb128 0xb
 3167 0b50 4A0B0000 		.4byte	0xb4a
 3168 0b54 0F       		.uleb128 0xf
 3169 0b55 650B0000 		.4byte	0xb65
 3170 0b59 650B0000 		.4byte	0xb65
 3171 0b5d 11       		.uleb128 0x11
 3172 0b5e 9E000000 		.4byte	0x9e
 3173 0b62 F802     		.2byte	0x2f8
 3174 0b64 00       		.byte	0
 3175 0b65 0B       		.uleb128 0xb
 3176 0b66 350B0000 		.4byte	0xb35
 3177 0b6a 0A       		.uleb128 0xa
 3178 0b6b 540B0000 		.4byte	0xb54
 3179 0b6f 0B       		.uleb128 0xb
 3180 0b70 6A0B0000 		.4byte	0xb6a
 3181 0b74 0F       		.uleb128 0xf
 3182 0b75 2B0B0000 		.4byte	0xb2b
 3183 0b79 840B0000 		.4byte	0xb84
 3184 0b7d 10       		.uleb128 0x10
 3185 0b7e 9E000000 		.4byte	0x9e
 3186 0b82 02       		.byte	0x2
 3187 0b83 00       		.byte	0
 3188 0b84 0A       		.uleb128 0xa
 3189 0b85 740B0000 		.4byte	0xb74
 3190 0b89 0F       		.uleb128 0xf
 3191 0b8a 300B0000 		.4byte	0xb30
 3192 0b8e 990B0000 		.4byte	0xb99
 3193 0b92 10       		.uleb128 0x10
 3194 0b93 9E000000 		.4byte	0x9e
 3195 0b97 3C       		.byte	0x3c
 3196 0b98 00       		.byte	0
 3197 0b99 0A       		.uleb128 0xa
 3198 0b9a 890B0000 		.4byte	0xb89
 3199 0b9e 0B       		.uleb128 0xb
 3200 0b9f 990B0000 		.4byte	0xb99
 3201 0ba3 0F       		.uleb128 0xf
 3202 0ba4 72050000 		.4byte	0x572
 3203 0ba8 B30B0000 		.4byte	0xbb3
 3204 0bac 10       		.uleb128 0x10
 3205 0bad 9E000000 		.4byte	0x9e
 3206 0bb1 07       		.byte	0x7
 3207 0bb2 00       		.byte	0
 3208 0bb3 0A       		.uleb128 0xa
 3209 0bb4 A30B0000 		.4byte	0xba3
 3210 0bb8 0B       		.uleb128 0xb
 3211 0bb9 B30B0000 		.4byte	0xbb3
 3212 0bbd 0F       		.uleb128 0xf
 3213 0bbe 72050000 		.4byte	0x572
 3214 0bc2 CD0B0000 		.4byte	0xbcd
 3215 0bc6 10       		.uleb128 0x10
 3216 0bc7 9E000000 		.4byte	0x9e
 3217 0bcb 33       		.byte	0x33
 3218 0bcc 00       		.byte	0
 3219 0bcd 0A       		.uleb128 0xa
ARM GAS  C:\Users\salaz\AppData\Local\Temp\ccu2LhKM.s 			page 106


 3220 0bce BD0B0000 		.4byte	0xbbd
 3221 0bd2 0B       		.uleb128 0xb
 3222 0bd3 CD0B0000 		.4byte	0xbcd
 3223 0bd7 0F       		.uleb128 0xf
 3224 0bd8 650B0000 		.4byte	0xb65
 3225 0bdc E70B0000 		.4byte	0xbe7
 3226 0be0 10       		.uleb128 0x10
 3227 0be1 9E000000 		.4byte	0x9e
 3228 0be5 5E       		.byte	0x5e
 3229 0be6 00       		.byte	0
 3230 0be7 0A       		.uleb128 0xa
 3231 0be8 D70B0000 		.4byte	0xbd7
 3232 0bec 0B       		.uleb128 0xb
 3233 0bed E70B0000 		.4byte	0xbe7
 3234 0bf1 0F       		.uleb128 0xf
 3235 0bf2 6D050000 		.4byte	0x56d
 3236 0bf6 010C0000 		.4byte	0xc01
 3237 0bfa 10       		.uleb128 0x10
 3238 0bfb 9E000000 		.4byte	0x9e
 3239 0bff 7F       		.byte	0x7f
 3240 0c00 00       		.byte	0
 3241 0c01 0A       		.uleb128 0xa
 3242 0c02 F10B0000 		.4byte	0xbf1
 3243 0c06 0A       		.uleb128 0xa
 3244 0c07 F10B0000 		.4byte	0xbf1
 3245 0c0b 0A       		.uleb128 0xa
 3246 0c0c F10B0000 		.4byte	0xbf1
 3247 0c10 0A       		.uleb128 0xa
 3248 0c11 F10B0000 		.4byte	0xbf1
 3249 0c15 0F       		.uleb128 0xf
 3250 0c16 72050000 		.4byte	0x572
 3251 0c1a 260C0000 		.4byte	0xc26
 3252 0c1e 11       		.uleb128 0x11
 3253 0c1f 9E000000 		.4byte	0x9e
 3254 0c23 2D01     		.2byte	0x12d
 3255 0c25 00       		.byte	0
 3256 0c26 0A       		.uleb128 0xa
 3257 0c27 150C0000 		.4byte	0xc15
 3258 0c2b 0B       		.uleb128 0xb
 3259 0c2c 260C0000 		.4byte	0xc26
 3260 0c30 0F       		.uleb128 0xf
 3261 0c31 2B0B0000 		.4byte	0xb2b
 3262 0c35 400C0000 		.4byte	0xc40
 3263 0c39 10       		.uleb128 0x10
 3264 0c3a 9E000000 		.4byte	0x9e
 3265 0c3e 0F       		.byte	0xf
 3266 0c3f 00       		.byte	0
 3267 0c40 0A       		.uleb128 0xa
 3268 0c41 300C0000 		.4byte	0xc30
 3269 0c45 0A       		.uleb128 0xa
 3270 0c46 300C0000 		.4byte	0xc30
 3271 0c4a 0F       		.uleb128 0xf
 3272 0c4b 6D050000 		.4byte	0x56d
 3273 0c4f 5A0C0000 		.4byte	0xc5a
 3274 0c53 10       		.uleb128 0x10
 3275 0c54 9E000000 		.4byte	0x9e
 3276 0c58 0F       		.byte	0xf
ARM GAS  C:\Users\salaz\AppData\Local\Temp\ccu2LhKM.s 			page 107


 3277 0c59 00       		.byte	0
 3278 0c5a 0A       		.uleb128 0xa
 3279 0c5b 4A0C0000 		.4byte	0xc4a
 3280 0c5f 0A       		.uleb128 0xa
 3281 0c60 4A0C0000 		.4byte	0xc4a
 3282 0c64 0A       		.uleb128 0xa
 3283 0c65 4A0C0000 		.4byte	0xc4a
 3284 0c69 0A       		.uleb128 0xa
 3285 0c6a 4A0C0000 		.4byte	0xc4a
 3286 0c6e 0A       		.uleb128 0xa
 3287 0c6f 4A0C0000 		.4byte	0xc4a
 3288 0c73 0F       		.uleb128 0xf
 3289 0c74 72050000 		.4byte	0x572
 3290 0c78 830C0000 		.4byte	0xc83
 3291 0c7c 10       		.uleb128 0x10
 3292 0c7d 9E000000 		.4byte	0x9e
 3293 0c81 79       		.byte	0x79
 3294 0c82 00       		.byte	0
 3295 0c83 0A       		.uleb128 0xa
 3296 0c84 730C0000 		.4byte	0xc73
 3297 0c88 0B       		.uleb128 0xb
 3298 0c89 830C0000 		.4byte	0xc83
 3299 0c8d 0F       		.uleb128 0xf
 3300 0c8e 72050000 		.4byte	0x572
 3301 0c92 9D0C0000 		.4byte	0xc9d
 3302 0c96 10       		.uleb128 0x10
 3303 0c97 9E000000 		.4byte	0x9e
 3304 0c9b 06       		.byte	0x6
 3305 0c9c 00       		.byte	0
 3306 0c9d 0A       		.uleb128 0xa
 3307 0c9e 8D0C0000 		.4byte	0xc8d
 3308 0ca2 0B       		.uleb128 0xb
 3309 0ca3 9D0C0000 		.4byte	0xc9d
 3310 0ca7 0F       		.uleb128 0xf
 3311 0ca8 72050000 		.4byte	0x572
 3312 0cac B80C0000 		.4byte	0xcb8
 3313 0cb0 11       		.uleb128 0x11
 3314 0cb1 9E000000 		.4byte	0x9e
 3315 0cb5 EA01     		.2byte	0x1ea
 3316 0cb7 00       		.byte	0
 3317 0cb8 0A       		.uleb128 0xa
 3318 0cb9 A70C0000 		.4byte	0xca7
 3319 0cbd 0B       		.uleb128 0xb
 3320 0cbe B80C0000 		.4byte	0xcb8
 3321 0cc2 0F       		.uleb128 0xf
 3322 0cc3 72050000 		.4byte	0x572
 3323 0cc7 D20C0000 		.4byte	0xcd2
 3324 0ccb 10       		.uleb128 0x10
 3325 0ccc 9E000000 		.4byte	0x9e
 3326 0cd0 2F       		.byte	0x2f
 3327 0cd1 00       		.byte	0
 3328 0cd2 0A       		.uleb128 0xa
 3329 0cd3 C20C0000 		.4byte	0xcc2
 3330 0cd7 0B       		.uleb128 0xb
 3331 0cd8 D20C0000 		.4byte	0xcd2
 3332 0cdc 0F       		.uleb128 0xf
 3333 0cdd 2B0B0000 		.4byte	0xb2b
ARM GAS  C:\Users\salaz\AppData\Local\Temp\ccu2LhKM.s 			page 108


 3334 0ce1 ED0C0000 		.4byte	0xced
 3335 0ce5 11       		.uleb128 0x11
 3336 0ce6 9E000000 		.4byte	0x9e
 3337 0cea 2721     		.2byte	0x2127
 3338 0cec 00       		.byte	0
 3339 0ced 0A       		.uleb128 0xa
 3340 0cee DC0C0000 		.4byte	0xcdc
 3341 0cf2 0F       		.uleb128 0xf
 3342 0cf3 72050000 		.4byte	0x572
 3343 0cf7 030D0000 		.4byte	0xd03
 3344 0cfb 11       		.uleb128 0x11
 3345 0cfc 9E000000 		.4byte	0x9e
 3346 0d00 FF05     		.2byte	0x5ff
 3347 0d02 00       		.byte	0
 3348 0d03 0A       		.uleb128 0xa
 3349 0d04 F20C0000 		.4byte	0xcf2
 3350 0d08 0B       		.uleb128 0xb
 3351 0d09 030D0000 		.4byte	0xd03
 3352 0d0d 0F       		.uleb128 0xf
 3353 0d0e 2B0B0000 		.4byte	0xb2b
 3354 0d12 1E0D0000 		.4byte	0xd1e
 3355 0d16 11       		.uleb128 0x11
 3356 0d17 9E000000 		.4byte	0x9e
 3357 0d1b FF0B     		.2byte	0xbff
 3358 0d1d 00       		.byte	0
 3359 0d1e 0A       		.uleb128 0xa
 3360 0d1f 0D0D0000 		.4byte	0xd0d
 3361 0d23 0F       		.uleb128 0xf
 3362 0d24 6D050000 		.4byte	0x56d
 3363 0d28 340D0000 		.4byte	0xd34
 3364 0d2c 11       		.uleb128 0x11
 3365 0d2d 9E000000 		.4byte	0x9e
 3366 0d31 7F01     		.2byte	0x17f
 3367 0d33 00       		.byte	0
 3368 0d34 0A       		.uleb128 0xa
 3369 0d35 230D0000 		.4byte	0xd23
 3370 0d39 0F       		.uleb128 0xf
 3371 0d3a 72050000 		.4byte	0x572
 3372 0d3e 4A0D0000 		.4byte	0xd4a
 3373 0d42 11       		.uleb128 0x11
 3374 0d43 9E000000 		.4byte	0x9e
 3375 0d47 FF02     		.2byte	0x2ff
 3376 0d49 00       		.byte	0
 3377 0d4a 0A       		.uleb128 0xa
 3378 0d4b 390D0000 		.4byte	0xd39
 3379 0d4f 0B       		.uleb128 0xb
 3380 0d50 4A0D0000 		.4byte	0xd4a
 3381 0d54 0F       		.uleb128 0xf
 3382 0d55 72050000 		.4byte	0x572
 3383 0d59 640D0000 		.4byte	0xd64
 3384 0d5d 10       		.uleb128 0x10
 3385 0d5e 9E000000 		.4byte	0x9e
 3386 0d62 76       		.byte	0x76
 3387 0d63 00       		.byte	0
 3388 0d64 0A       		.uleb128 0xa
 3389 0d65 540D0000 		.4byte	0xd54
 3390 0d69 0B       		.uleb128 0xb
ARM GAS  C:\Users\salaz\AppData\Local\Temp\ccu2LhKM.s 			page 109


 3391 0d6a 640D0000 		.4byte	0xd64
 3392 0d6e 0F       		.uleb128 0xf
 3393 0d6f 72050000 		.4byte	0x572
 3394 0d73 7E0D0000 		.4byte	0xd7e
 3395 0d77 10       		.uleb128 0x10
 3396 0d78 9E000000 		.4byte	0x9e
 3397 0d7c 77       		.byte	0x77
 3398 0d7d 00       		.byte	0
 3399 0d7e 0A       		.uleb128 0xa
 3400 0d7f 6E0D0000 		.4byte	0xd6e
 3401 0d83 0B       		.uleb128 0xb
 3402 0d84 7E0D0000 		.4byte	0xd7e
 3403 0d88 0F       		.uleb128 0xf
 3404 0d89 72050000 		.4byte	0x572
 3405 0d8d 980D0000 		.4byte	0xd98
 3406 0d91 10       		.uleb128 0x10
 3407 0d92 9E000000 		.4byte	0x9e
 3408 0d96 73       		.byte	0x73
 3409 0d97 00       		.byte	0
 3410 0d98 0A       		.uleb128 0xa
 3411 0d99 880D0000 		.4byte	0xd88
 3412 0d9d 0B       		.uleb128 0xb
 3413 0d9e 980D0000 		.4byte	0xd98
 3414 0da2 0A       		.uleb128 0xa
 3415 0da3 880D0000 		.4byte	0xd88
 3416 0da7 0B       		.uleb128 0xb
 3417 0da8 A20D0000 		.4byte	0xda2
 3418 0dac 04       		.uleb128 0x4
 3419 0dad 813B0000 		.4byte	.LASF321
 3420 0db1 06       		.byte	0x6
 3421 0db2 A8       		.byte	0xa8
 3422 0db3 77050000 		.4byte	0x577
 3423 0db7 03       		.uleb128 0x3
 3424 0db8 04       		.byte	0x4
 3425 0db9 04       		.byte	0x4
 3426 0dba DA0A0000 		.4byte	.LASF322
 3427 0dbe 03       		.uleb128 0x3
 3428 0dbf 08       		.byte	0x8
 3429 0dc0 04       		.byte	0x4
 3430 0dc1 13230000 		.4byte	.LASF323
 3431 0dc5 09       		.uleb128 0x9
 3432 0dc6 A91A0000 		.4byte	.LASF324
 3433 0dca 07       		.byte	0x7
 3434 0dcb 8703     		.2byte	0x387
 3435 0dcd CF000000 		.4byte	0xcf
 3436 0dd1 09       		.uleb128 0x9
 3437 0dd2 C0050000 		.4byte	.LASF325
 3438 0dd6 07       		.byte	0x7
 3439 0dd7 9003     		.2byte	0x390
 3440 0dd9 A7000000 		.4byte	0xa7
 3441 0ddd 12       		.uleb128 0x12
 3442 0dde 08       		.byte	0x8
 3443 0ddf 08       		.byte	0x8
 3444 0de0 EB       		.byte	0xeb
 3445 0de1 0A0E0000 		.4byte	0xe0a
 3446 0de5 0D       		.uleb128 0xd
 3447 0de6 5F090000 		.4byte	.LASF326
ARM GAS  C:\Users\salaz\AppData\Local\Temp\ccu2LhKM.s 			page 110


 3448 0dea 08       		.byte	0x8
 3449 0deb EC       		.byte	0xec
 3450 0dec D1010000 		.4byte	0x1d1
 3451 0df0 00       		.byte	0
 3452 0df1 0D       		.uleb128 0xd
 3453 0df2 7C1C0000 		.4byte	.LASF327
 3454 0df6 08       		.byte	0x8
 3455 0df7 EE       		.byte	0xee
 3456 0df8 61050000 		.4byte	0x561
 3457 0dfc 02       		.byte	0x2
 3458 0dfd 0D       		.uleb128 0xd
 3459 0dfe 40350000 		.4byte	.LASF328
 3460 0e02 08       		.byte	0x8
 3461 0e03 F0       		.byte	0xf0
 3462 0e04 CF000000 		.4byte	0xcf
 3463 0e08 04       		.byte	0x4
 3464 0e09 00       		.byte	0
 3465 0e0a 04       		.uleb128 0x4
 3466 0e0b 6C1D0000 		.4byte	.LASF329
 3467 0e0f 08       		.byte	0x8
 3468 0e10 F1       		.byte	0xf1
 3469 0e11 DD0D0000 		.4byte	0xddd
 3470 0e15 13       		.uleb128 0x13
 3471 0e16 02       		.byte	0x2
 3472 0e17 77000000 		.4byte	0x77
 3473 0e1b 09       		.byte	0x9
 3474 0e1c 4201     		.2byte	0x142
 3475 0e1e 4E110000 		.4byte	0x114e
 3476 0e22 08       		.uleb128 0x8
 3477 0e23 E8290000 		.4byte	.LASF330
 3478 0e27 00       		.byte	0
 3479 0e28 14       		.uleb128 0x14
 3480 0e29 E01D0000 		.4byte	.LASF331
 3481 0e2d 0010     		.2byte	0x1000
 3482 0e2f 14       		.uleb128 0x14
 3483 0e30 BC0C0000 		.4byte	.LASF332
 3484 0e34 0110     		.2byte	0x1001
 3485 0e36 14       		.uleb128 0x14
 3486 0e37 350A0000 		.4byte	.LASF333
 3487 0e3b 0210     		.2byte	0x1002
 3488 0e3d 14       		.uleb128 0x14
 3489 0e3e 600E0000 		.4byte	.LASF334
 3490 0e42 0310     		.2byte	0x1003
 3491 0e44 14       		.uleb128 0x14
 3492 0e45 1C000000 		.4byte	.LASF335
 3493 0e49 0410     		.2byte	0x1004
 3494 0e4b 14       		.uleb128 0x14
 3495 0e4c 90410000 		.4byte	.LASF336
 3496 0e50 0510     		.2byte	0x1005
 3497 0e52 14       		.uleb128 0x14
 3498 0e53 24040000 		.4byte	.LASF337
 3499 0e57 0020     		.2byte	0x2000
 3500 0e59 14       		.uleb128 0x14
 3501 0e5a 6F040000 		.4byte	.LASF338
 3502 0e5e 0120     		.2byte	0x2001
 3503 0e60 14       		.uleb128 0x14
 3504 0e61 6B170000 		.4byte	.LASF339
ARM GAS  C:\Users\salaz\AppData\Local\Temp\ccu2LhKM.s 			page 111


 3505 0e65 0220     		.2byte	0x2002
 3506 0e67 14       		.uleb128 0x14
 3507 0e68 1B370000 		.4byte	.LASF340
 3508 0e6c 0320     		.2byte	0x2003
 3509 0e6e 14       		.uleb128 0x14
 3510 0e6f A2030000 		.4byte	.LASF341
 3511 0e73 0420     		.2byte	0x2004
 3512 0e75 14       		.uleb128 0x14
 3513 0e76 662F0000 		.4byte	.LASF342
 3514 0e7a 0520     		.2byte	0x2005
 3515 0e7c 14       		.uleb128 0x14
 3516 0e7d 232C0000 		.4byte	.LASF343
 3517 0e81 0620     		.2byte	0x2006
 3518 0e83 14       		.uleb128 0x14
 3519 0e84 D9430000 		.4byte	.LASF344
 3520 0e88 0720     		.2byte	0x2007
 3521 0e8a 14       		.uleb128 0x14
 3522 0e8b 26240000 		.4byte	.LASF345
 3523 0e8f 0820     		.2byte	0x2008
 3524 0e91 14       		.uleb128 0x14
 3525 0e92 1F3D0000 		.4byte	.LASF346
 3526 0e96 0920     		.2byte	0x2009
 3527 0e98 14       		.uleb128 0x14
 3528 0e99 BC300000 		.4byte	.LASF347
 3529 0e9d 0A20     		.2byte	0x200a
 3530 0e9f 14       		.uleb128 0x14
 3531 0ea0 EC3A0000 		.4byte	.LASF348
 3532 0ea4 0B20     		.2byte	0x200b
 3533 0ea6 14       		.uleb128 0x14
 3534 0ea7 4D1D0000 		.4byte	.LASF349
 3535 0eab 0C20     		.2byte	0x200c
 3536 0ead 14       		.uleb128 0x14
 3537 0eae AD2D0000 		.4byte	.LASF350
 3538 0eb2 0D20     		.2byte	0x200d
 3539 0eb4 14       		.uleb128 0x14
 3540 0eb5 450C0000 		.4byte	.LASF351
 3541 0eb9 0E20     		.2byte	0x200e
 3542 0ebb 14       		.uleb128 0x14
 3543 0ebc AE430000 		.4byte	.LASF352
 3544 0ec0 0F20     		.2byte	0x200f
 3545 0ec2 14       		.uleb128 0x14
 3546 0ec3 2A0D0000 		.4byte	.LASF353
 3547 0ec7 1020     		.2byte	0x2010
 3548 0ec9 14       		.uleb128 0x14
 3549 0eca D2260000 		.4byte	.LASF354
 3550 0ece 1120     		.2byte	0x2011
 3551 0ed0 14       		.uleb128 0x14
 3552 0ed1 7C430000 		.4byte	.LASF355
 3553 0ed5 1220     		.2byte	0x2012
 3554 0ed7 14       		.uleb128 0x14
 3555 0ed8 DC130000 		.4byte	.LASF356
 3556 0edc 1320     		.2byte	0x2013
 3557 0ede 14       		.uleb128 0x14
 3558 0edf CC180000 		.4byte	.LASF357
 3559 0ee3 1420     		.2byte	0x2014
 3560 0ee5 14       		.uleb128 0x14
 3561 0ee6 F8130000 		.4byte	.LASF358
ARM GAS  C:\Users\salaz\AppData\Local\Temp\ccu2LhKM.s 			page 112


 3562 0eea 1520     		.2byte	0x2015
 3563 0eec 14       		.uleb128 0x14
 3564 0eed CE190000 		.4byte	.LASF359
 3565 0ef1 1620     		.2byte	0x2016
 3566 0ef3 14       		.uleb128 0x14
 3567 0ef4 B80B0000 		.4byte	.LASF360
 3568 0ef8 1720     		.2byte	0x2017
 3569 0efa 14       		.uleb128 0x14
 3570 0efb 2B070000 		.4byte	.LASF361
 3571 0eff 0030     		.2byte	0x3000
 3572 0f01 14       		.uleb128 0x14
 3573 0f02 41020000 		.4byte	.LASF362
 3574 0f06 0130     		.2byte	0x3001
 3575 0f08 14       		.uleb128 0x14
 3576 0f09 40010000 		.4byte	.LASF363
 3577 0f0d 0230     		.2byte	0x3002
 3578 0f0f 14       		.uleb128 0x14
 3579 0f10 C43D0000 		.4byte	.LASF364
 3580 0f14 0330     		.2byte	0x3003
 3581 0f16 14       		.uleb128 0x14
 3582 0f17 511B0000 		.4byte	.LASF365
 3583 0f1b 0430     		.2byte	0x3004
 3584 0f1d 14       		.uleb128 0x14
 3585 0f1e D9370000 		.4byte	.LASF366
 3586 0f22 0530     		.2byte	0x3005
 3587 0f24 14       		.uleb128 0x14
 3588 0f25 3B430000 		.4byte	.LASF367
 3589 0f29 0630     		.2byte	0x3006
 3590 0f2b 14       		.uleb128 0x14
 3591 0f2c 23030000 		.4byte	.LASF368
 3592 0f30 0730     		.2byte	0x3007
 3593 0f32 14       		.uleb128 0x14
 3594 0f33 B7000000 		.4byte	.LASF369
 3595 0f37 0830     		.2byte	0x3008
 3596 0f39 14       		.uleb128 0x14
 3597 0f3a 86200000 		.4byte	.LASF370
 3598 0f3e 0930     		.2byte	0x3009
 3599 0f40 14       		.uleb128 0x14
 3600 0f41 81290000 		.4byte	.LASF371
 3601 0f45 0A30     		.2byte	0x300a
 3602 0f47 14       		.uleb128 0x14
 3603 0f48 4E1E0000 		.4byte	.LASF372
 3604 0f4c 0B30     		.2byte	0x300b
 3605 0f4e 14       		.uleb128 0x14
 3606 0f4f 14140000 		.4byte	.LASF373
 3607 0f53 0C30     		.2byte	0x300c
 3608 0f55 14       		.uleb128 0x14
 3609 0f56 CE2A0000 		.4byte	.LASF374
 3610 0f5a 1130     		.2byte	0x3011
 3611 0f5c 14       		.uleb128 0x14
 3612 0f5d AE370000 		.4byte	.LASF375
 3613 0f61 1230     		.2byte	0x3012
 3614 0f63 14       		.uleb128 0x14
 3615 0f64 B4400000 		.4byte	.LASF376
 3616 0f68 1330     		.2byte	0x3013
 3617 0f6a 14       		.uleb128 0x14
 3618 0f6b 613A0000 		.4byte	.LASF377
ARM GAS  C:\Users\salaz\AppData\Local\Temp\ccu2LhKM.s 			page 113


 3619 0f6f 1430     		.2byte	0x3014
 3620 0f71 14       		.uleb128 0x14
 3621 0f72 52290000 		.4byte	.LASF378
 3622 0f76 1530     		.2byte	0x3015
 3623 0f78 14       		.uleb128 0x14
 3624 0f79 7A0A0000 		.4byte	.LASF379
 3625 0f7d 1630     		.2byte	0x3016
 3626 0f7f 14       		.uleb128 0x14
 3627 0f80 952A0000 		.4byte	.LASF380
 3628 0f84 1730     		.2byte	0x3017
 3629 0f86 14       		.uleb128 0x14
 3630 0f87 46180000 		.4byte	.LASF381
 3631 0f8b 1830     		.2byte	0x3018
 3632 0f8d 14       		.uleb128 0x14
 3633 0f8e F9140000 		.4byte	.LASF382
 3634 0f92 0040     		.2byte	0x4000
 3635 0f94 14       		.uleb128 0x14
 3636 0f95 FD240000 		.4byte	.LASF383
 3637 0f99 0140     		.2byte	0x4001
 3638 0f9b 14       		.uleb128 0x14
 3639 0f9c A7100000 		.4byte	.LASF384
 3640 0fa0 0240     		.2byte	0x4002
 3641 0fa2 14       		.uleb128 0x14
 3642 0fa3 14430000 		.4byte	.LASF385
 3643 0fa7 0340     		.2byte	0x4003
 3644 0fa9 14       		.uleb128 0x14
 3645 0faa 84110000 		.4byte	.LASF386
 3646 0fae 0440     		.2byte	0x4004
 3647 0fb0 14       		.uleb128 0x14
 3648 0fb1 51410000 		.4byte	.LASF387
 3649 0fb5 0540     		.2byte	0x4005
 3650 0fb7 14       		.uleb128 0x14
 3651 0fb8 DF350000 		.4byte	.LASF388
 3652 0fbc 0640     		.2byte	0x4006
 3653 0fbe 14       		.uleb128 0x14
 3654 0fbf 283A0000 		.4byte	.LASF389
 3655 0fc3 0740     		.2byte	0x4007
 3656 0fc5 14       		.uleb128 0x14
 3657 0fc6 5A400000 		.4byte	.LASF390
 3658 0fca 0840     		.2byte	0x4008
 3659 0fcc 14       		.uleb128 0x14
 3660 0fcd 270C0000 		.4byte	.LASF391
 3661 0fd1 0940     		.2byte	0x4009
 3662 0fd3 14       		.uleb128 0x14
 3663 0fd4 762E0000 		.4byte	.LASF392
 3664 0fd8 0A40     		.2byte	0x400a
 3665 0fda 14       		.uleb128 0x14
 3666 0fdb A01C0000 		.4byte	.LASF393
 3667 0fdf 0B40     		.2byte	0x400b
 3668 0fe1 14       		.uleb128 0x14
 3669 0fe2 1A2E0000 		.4byte	.LASF394
 3670 0fe6 0C40     		.2byte	0x400c
 3671 0fe8 14       		.uleb128 0x14
 3672 0fe9 603F0000 		.4byte	.LASF395
 3673 0fed 0D40     		.2byte	0x400d
 3674 0fef 14       		.uleb128 0x14
 3675 0ff0 77270000 		.4byte	.LASF396
ARM GAS  C:\Users\salaz\AppData\Local\Temp\ccu2LhKM.s 			page 114


 3676 0ff4 0E40     		.2byte	0x400e
 3677 0ff6 14       		.uleb128 0x14
 3678 0ff7 0C180000 		.4byte	.LASF397
 3679 0ffb 0F40     		.2byte	0x400f
 3680 0ffd 14       		.uleb128 0x14
 3681 0ffe 44150000 		.4byte	.LASF398
 3682 1002 1040     		.2byte	0x4010
 3683 1004 14       		.uleb128 0x14
 3684 1005 EB0D0000 		.4byte	.LASF399
 3685 1009 1140     		.2byte	0x4011
 3686 100b 14       		.uleb128 0x14
 3687 100c 7B330000 		.4byte	.LASF400
 3688 1010 1240     		.2byte	0x4012
 3689 1012 14       		.uleb128 0x14
 3690 1013 0B100000 		.4byte	.LASF401
 3691 1017 1340     		.2byte	0x4013
 3692 1019 14       		.uleb128 0x14
 3693 101a 5B440000 		.4byte	.LASF402
 3694 101e 1440     		.2byte	0x4014
 3695 1020 14       		.uleb128 0x14
 3696 1021 17300000 		.4byte	.LASF403
 3697 1025 1540     		.2byte	0x4015
 3698 1027 14       		.uleb128 0x14
 3699 1028 FB070000 		.4byte	.LASF404
 3700 102c 1640     		.2byte	0x4016
 3701 102e 14       		.uleb128 0x14
 3702 102f 2F400000 		.4byte	.LASF405
 3703 1033 1740     		.2byte	0x4017
 3704 1035 14       		.uleb128 0x14
 3705 1036 B3240000 		.4byte	.LASF406
 3706 103a 1840     		.2byte	0x4018
 3707 103c 14       		.uleb128 0x14
 3708 103d 07410000 		.4byte	.LASF407
 3709 1041 1940     		.2byte	0x4019
 3710 1043 14       		.uleb128 0x14
 3711 1044 B7310000 		.4byte	.LASF408
 3712 1048 1A40     		.2byte	0x401a
 3713 104a 14       		.uleb128 0x14
 3714 104b 1B210000 		.4byte	.LASF409
 3715 104f 0050     		.2byte	0x5000
 3716 1051 14       		.uleb128 0x14
 3717 1052 38280000 		.4byte	.LASF410
 3718 1056 0150     		.2byte	0x5001
 3719 1058 14       		.uleb128 0x14
 3720 1059 991E0000 		.4byte	.LASF411
 3721 105d 0250     		.2byte	0x5002
 3722 105f 14       		.uleb128 0x14
 3723 1060 5B0A0000 		.4byte	.LASF412
 3724 1064 0350     		.2byte	0x5003
 3725 1066 14       		.uleb128 0x14
 3726 1067 5B300000 		.4byte	.LASF413
 3727 106b 0450     		.2byte	0x5004
 3728 106d 14       		.uleb128 0x14
 3729 106e 011C0000 		.4byte	.LASF414
 3730 1072 0550     		.2byte	0x5005
 3731 1074 14       		.uleb128 0x14
 3732 1075 3B1C0000 		.4byte	.LASF415
ARM GAS  C:\Users\salaz\AppData\Local\Temp\ccu2LhKM.s 			page 115


 3733 1079 0650     		.2byte	0x5006
 3734 107b 14       		.uleb128 0x14
 3735 107c 88100000 		.4byte	.LASF416
 3736 1080 0750     		.2byte	0x5007
 3737 1082 14       		.uleb128 0x14
 3738 1083 E41E0000 		.4byte	.LASF417
 3739 1087 0850     		.2byte	0x5008
 3740 1089 14       		.uleb128 0x14
 3741 108a C6200000 		.4byte	.LASF418
 3742 108e 0950     		.2byte	0x5009
 3743 1090 14       		.uleb128 0x14
 3744 1091 9B340000 		.4byte	.LASF419
 3745 1095 0A50     		.2byte	0x500a
 3746 1097 14       		.uleb128 0x14
 3747 1098 3D220000 		.4byte	.LASF420
 3748 109c 0B50     		.2byte	0x500b
 3749 109e 14       		.uleb128 0x14
 3750 109f FB0A0000 		.4byte	.LASF421
 3751 10a3 0C50     		.2byte	0x500c
 3752 10a5 14       		.uleb128 0x14
 3753 10a6 F0160000 		.4byte	.LASF422
 3754 10aa 0D50     		.2byte	0x500d
 3755 10ac 14       		.uleb128 0x14
 3756 10ad 122A0000 		.4byte	.LASF423
 3757 10b1 0E50     		.2byte	0x500e
 3758 10b3 14       		.uleb128 0x14
 3759 10b4 ED190000 		.4byte	.LASF424
 3760 10b8 0F50     		.2byte	0x500f
 3761 10ba 14       		.uleb128 0x14
 3762 10bb 472C0000 		.4byte	.LASF425
 3763 10bf 1050     		.2byte	0x5010
 3764 10c1 14       		.uleb128 0x14
 3765 10c2 A1070000 		.4byte	.LASF426
 3766 10c6 1150     		.2byte	0x5011
 3767 10c8 14       		.uleb128 0x14
 3768 10c9 62110000 		.4byte	.LASF427
 3769 10cd 1250     		.2byte	0x5012
 3770 10cf 14       		.uleb128 0x14
 3771 10d0 D4090000 		.4byte	.LASF428
 3772 10d4 1350     		.2byte	0x5013
 3773 10d6 14       		.uleb128 0x14
 3774 10d7 FF0E0000 		.4byte	.LASF429
 3775 10db 1450     		.2byte	0x5014
 3776 10dd 14       		.uleb128 0x14
 3777 10de FD390000 		.4byte	.LASF430
 3778 10e2 1550     		.2byte	0x5015
 3779 10e4 14       		.uleb128 0x14
 3780 10e5 16130000 		.4byte	.LASF431
 3781 10e9 1650     		.2byte	0x5016
 3782 10eb 14       		.uleb128 0x14
 3783 10ec 4D350000 		.4byte	.LASF432
 3784 10f0 1750     		.2byte	0x5017
 3785 10f2 14       		.uleb128 0x14
 3786 10f3 93080000 		.4byte	.LASF433
 3787 10f7 1850     		.2byte	0x5018
 3788 10f9 14       		.uleb128 0x14
 3789 10fa 7E150000 		.4byte	.LASF434
ARM GAS  C:\Users\salaz\AppData\Local\Temp\ccu2LhKM.s 			page 116


 3790 10fe 0060     		.2byte	0x6000
 3791 1100 14       		.uleb128 0x14
 3792 1101 C6050000 		.4byte	.LASF435
 3793 1105 0160     		.2byte	0x6001
 3794 1107 14       		.uleb128 0x14
 3795 1108 141E0000 		.4byte	.LASF436
 3796 110c 0260     		.2byte	0x6002
 3797 110e 14       		.uleb128 0x14
 3798 110f F01A0000 		.4byte	.LASF437
 3799 1113 0360     		.2byte	0x6003
 3800 1115 14       		.uleb128 0x14
 3801 1116 CB080000 		.4byte	.LASF438
 3802 111a 0460     		.2byte	0x6004
 3803 111c 14       		.uleb128 0x14
 3804 111d AB2E0000 		.4byte	.LASF439
 3805 1121 0560     		.2byte	0x6005
 3806 1123 14       		.uleb128 0x14
 3807 1124 6A220000 		.4byte	.LASF440
 3808 1128 0660     		.2byte	0x6006
 3809 112a 14       		.uleb128 0x14
 3810 112b 53130000 		.4byte	.LASF441
 3811 112f 0760     		.2byte	0x6007
 3812 1131 14       		.uleb128 0x14
 3813 1132 DB0E0000 		.4byte	.LASF442
 3814 1136 0860     		.2byte	0x6008
 3815 1138 14       		.uleb128 0x14
 3816 1139 0D1A0000 		.4byte	.LASF443
 3817 113d 0960     		.2byte	0x6009
 3818 113f 14       		.uleb128 0x14
 3819 1140 35060000 		.4byte	.LASF444
 3820 1144 0A60     		.2byte	0x600a
 3821 1146 14       		.uleb128 0x14
 3822 1147 D6040000 		.4byte	.LASF445
 3823 114b FFFF     		.2byte	0xffff
 3824 114d 00       		.byte	0
 3825 114e 13       		.uleb128 0x13
 3826 114f 04       		.byte	0x4
 3827 1150 2C000000 		.4byte	0x2c
 3828 1154 09       		.byte	0x9
 3829 1155 BF04     		.2byte	0x4bf
 3830 1157 67120000 		.4byte	0x1267
 3831 115b 08       		.uleb128 0x8
 3832 115c 7D400000 		.4byte	.LASF446
 3833 1160 00       		.byte	0
 3834 1161 15       		.uleb128 0x15
 3835 1162 F0020000 		.4byte	.LASF447
 3836 1166 01001400 		.4byte	0x140001
 3837 116a 15       		.uleb128 0x15
 3838 116b EE360000 		.4byte	.LASF448
 3839 116f 01001600 		.4byte	0x160001
 3840 1173 15       		.uleb128 0x15
 3841 1174 BC3F0000 		.4byte	.LASF449
 3842 1178 02001600 		.4byte	0x160002
 3843 117c 15       		.uleb128 0x15
 3844 117d FC250000 		.4byte	.LASF450
 3845 1181 03001600 		.4byte	0x160003
 3846 1185 15       		.uleb128 0x15
ARM GAS  C:\Users\salaz\AppData\Local\Temp\ccu2LhKM.s 			page 117


 3847 1186 15250000 		.4byte	.LASF451
 3848 118a 04001600 		.4byte	0x160004
 3849 118e 15       		.uleb128 0x15
 3850 118f 2D440000 		.4byte	.LASF452
 3851 1193 05001600 		.4byte	0x160005
 3852 1197 15       		.uleb128 0x15
 3853 1198 85230000 		.4byte	.LASF453
 3854 119c 06001600 		.4byte	0x160006
 3855 11a0 15       		.uleb128 0x15
 3856 11a1 D0360000 		.4byte	.LASF454
 3857 11a5 07001600 		.4byte	0x160007
 3858 11a9 15       		.uleb128 0x15
 3859 11aa 5E360000 		.4byte	.LASF455
 3860 11ae 08001600 		.4byte	0x160008
 3861 11b2 15       		.uleb128 0x15
 3862 11b3 F5000000 		.4byte	.LASF456
 3863 11b7 09001600 		.4byte	0x160009
 3864 11bb 15       		.uleb128 0x15
 3865 11bc D63A0000 		.4byte	.LASF457
 3866 11c0 0A001600 		.4byte	0x16000a
 3867 11c4 15       		.uleb128 0x15
 3868 11c5 F4170000 		.4byte	.LASF458
 3869 11c9 0B001600 		.4byte	0x16000b
 3870 11cd 15       		.uleb128 0x15
 3871 11ce 48370000 		.4byte	.LASF459
 3872 11d2 0C001600 		.4byte	0x16000c
 3873 11d6 15       		.uleb128 0x15
 3874 11d7 3D2D0000 		.4byte	.LASF460
 3875 11db 0D001600 		.4byte	0x16000d
 3876 11df 15       		.uleb128 0x15
 3877 11e0 1E3E0000 		.4byte	.LASF461
 3878 11e4 0E001600 		.4byte	0x16000e
 3879 11e8 15       		.uleb128 0x15
 3880 11e9 30230000 		.4byte	.LASF462
 3881 11ed 0F001600 		.4byte	0x16000f
 3882 11f1 15       		.uleb128 0x15
 3883 11f2 8F2C0000 		.4byte	.LASF463
 3884 11f6 10001600 		.4byte	0x160010
 3885 11fa 15       		.uleb128 0x15
 3886 11fb 7C1D0000 		.4byte	.LASF464
 3887 11ff 11001600 		.4byte	0x160011
 3888 1203 15       		.uleb128 0x15
 3889 1204 48340000 		.4byte	.LASF465
 3890 1208 12001600 		.4byte	0x160012
 3891 120c 15       		.uleb128 0x15
 3892 120d E2010000 		.4byte	.LASF466
 3893 1211 13001600 		.4byte	0x160013
 3894 1215 15       		.uleb128 0x15
 3895 1216 A2190000 		.4byte	.LASF467
 3896 121a 14001600 		.4byte	0x160014
 3897 121e 15       		.uleb128 0x15
 3898 121f 82180000 		.4byte	.LASF468
 3899 1223 15001600 		.4byte	0x160015
 3900 1227 15       		.uleb128 0x15
 3901 1228 9F3B0000 		.4byte	.LASF469
 3902 122c 16001600 		.4byte	0x160016
 3903 1230 15       		.uleb128 0x15
ARM GAS  C:\Users\salaz\AppData\Local\Temp\ccu2LhKM.s 			page 118


 3904 1231 C31F0000 		.4byte	.LASF470
 3905 1235 17001600 		.4byte	0x160017
 3906 1239 15       		.uleb128 0x15
 3907 123a A91F0000 		.4byte	.LASF471
 3908 123e 18001600 		.4byte	0x160018
 3909 1242 15       		.uleb128 0x15
 3910 1243 BB0D0000 		.4byte	.LASF472
 3911 1247 19001600 		.4byte	0x160019
 3912 124b 15       		.uleb128 0x15
 3913 124c 72260000 		.4byte	.LASF473
 3914 1250 FE001600 		.4byte	0x1600fe
 3915 1254 15       		.uleb128 0x15
 3916 1255 1A110000 		.4byte	.LASF474
 3917 1259 FF001600 		.4byte	0x1600ff
 3918 125d 15       		.uleb128 0x15
 3919 125e 61260000 		.4byte	.LASF475
 3920 1262 FFFF1600 		.4byte	0x16ffff
 3921 1266 00       		.byte	0
 3922 1267 09       		.uleb128 0x9
 3923 1268 A0130000 		.4byte	.LASF476
 3924 126c 09       		.byte	0x9
 3925 126d 2205     		.2byte	0x522
 3926 126f 4E110000 		.4byte	0x114e
 3927 1273 16       		.uleb128 0x16
 3928 1274 07       		.byte	0x7
 3929 1275 09       		.byte	0x9
 3930 1276 4005     		.2byte	0x540
 3931 1278 97120000 		.4byte	0x1297
 3932 127c 17       		.uleb128 0x17
 3933 127d 5C3B0000 		.4byte	.LASF477
 3934 1281 09       		.byte	0x9
 3935 1282 4305     		.2byte	0x543
 3936 1284 97120000 		.4byte	0x1297
 3937 1288 00       		.byte	0
 3938 1289 17       		.uleb128 0x17
 3939 128a 82060000 		.4byte	.LASF478
 3940 128e 09       		.byte	0x9
 3941 128f 4605     		.2byte	0x546
 3942 1291 B9000000 		.4byte	0xb9
 3943 1295 06       		.byte	0x6
 3944 1296 00       		.byte	0
 3945 1297 0F       		.uleb128 0xf
 3946 1298 B9000000 		.4byte	0xb9
 3947 129c A7120000 		.4byte	0x12a7
 3948 12a0 10       		.uleb128 0x10
 3949 12a1 9E000000 		.4byte	0x9e
 3950 12a5 05       		.byte	0x5
 3951 12a6 00       		.byte	0
 3952 12a7 09       		.uleb128 0x9
 3953 12a8 E9410000 		.4byte	.LASF479
 3954 12ac 09       		.byte	0x9
 3955 12ad 4805     		.2byte	0x548
 3956 12af 73120000 		.4byte	0x1273
 3957 12b3 18       		.uleb128 0x18
 3958 12b4 04       		.byte	0x4
 3959 12b5 B9000000 		.4byte	0xb9
 3960 12b9 18       		.uleb128 0x18
ARM GAS  C:\Users\salaz\AppData\Local\Temp\ccu2LhKM.s 			page 119


 3961 12ba 04       		.byte	0x4
 3962 12bb BF120000 		.4byte	0x12bf
 3963 12bf 0B       		.uleb128 0xb
 3964 12c0 B9000000 		.4byte	0xb9
 3965 12c4 13       		.uleb128 0x13
 3966 12c5 01       		.byte	0x1
 3967 12c6 4C000000 		.4byte	0x4c
 3968 12ca 09       		.byte	0x9
 3969 12cb 1606     		.2byte	0x616
 3970 12cd F6120000 		.4byte	0x12f6
 3971 12d1 07       		.uleb128 0x7
 3972 12d2 4B2A0000 		.4byte	.LASF480
 3973 12d6 6C       		.sleb128 -20
 3974 12d7 07       		.uleb128 0x7
 3975 12d8 85050000 		.4byte	.LASF481
 3976 12dc 70       		.sleb128 -16
 3977 12dd 07       		.uleb128 0x7
 3978 12de 972F0000 		.4byte	.LASF482
 3979 12e2 74       		.sleb128 -12
 3980 12e3 07       		.uleb128 0x7
 3981 12e4 840D0000 		.4byte	.LASF483
 3982 12e8 7A       		.sleb128 -6
 3983 12e9 08       		.uleb128 0x8
 3984 12ea C5160000 		.4byte	.LASF484
 3985 12ee 00       		.byte	0
 3986 12ef 08       		.uleb128 0x8
 3987 12f0 6F230000 		.4byte	.LASF485
 3988 12f4 04       		.byte	0x4
 3989 12f5 00       		.byte	0
 3990 12f6 09       		.uleb128 0x9
 3991 12f7 AE020000 		.4byte	.LASF486
 3992 12fb 09       		.byte	0x9
 3993 12fc 2906     		.2byte	0x629
 3994 12fe C4120000 		.4byte	0x12c4
 3995 1302 16       		.uleb128 0x16
 3996 1303 02       		.byte	0x2
 3997 1304 0A       		.byte	0xa
 3998 1305 5B01     		.2byte	0x15b
 3999 1307 26130000 		.4byte	0x1326
 4000 130b 17       		.uleb128 0x17
 4001 130c C7250000 		.4byte	.LASF487
 4002 1310 0A       		.byte	0xa
 4003 1311 6501     		.2byte	0x165
 4004 1313 B9000000 		.4byte	0xb9
 4005 1317 00       		.byte	0
 4006 1318 17       		.uleb128 0x17
 4007 1319 49420000 		.4byte	.LASF488
 4008 131d 0A       		.byte	0xa
 4009 131e 6901     		.2byte	0x169
 4010 1320 B9000000 		.4byte	0xb9
 4011 1324 01       		.byte	0x1
 4012 1325 00       		.byte	0
 4013 1326 09       		.uleb128 0x9
 4014 1327 A9350000 		.4byte	.LASF489
 4015 132b 0A       		.byte	0xa
 4016 132c 6B01     		.2byte	0x16b
 4017 132e 02130000 		.4byte	0x1302
ARM GAS  C:\Users\salaz\AppData\Local\Temp\ccu2LhKM.s 			page 120


 4018 1332 16       		.uleb128 0x16
 4019 1333 01       		.byte	0x1
 4020 1334 0A       		.byte	0xa
 4021 1335 6E01     		.2byte	0x16e
 4022 1337 49130000 		.4byte	0x1349
 4023 133b 17       		.uleb128 0x17
 4024 133c F0140000 		.4byte	.LASF490
 4025 1340 0A       		.byte	0xa
 4026 1341 7701     		.2byte	0x177
 4027 1343 B9000000 		.4byte	0xb9
 4028 1347 00       		.byte	0
 4029 1348 00       		.byte	0
 4030 1349 09       		.uleb128 0x9
 4031 134a 5D1C0000 		.4byte	.LASF491
 4032 134e 0A       		.byte	0xa
 4033 134f 7801     		.2byte	0x178
 4034 1351 32130000 		.4byte	0x1332
 4035 1355 16       		.uleb128 0x16
 4036 1356 02       		.byte	0x2
 4037 1357 0A       		.byte	0xa
 4038 1358 A801     		.2byte	0x1a8
 4039 135a 79130000 		.4byte	0x1379
 4040 135e 17       		.uleb128 0x17
 4041 135f 380E0000 		.4byte	.LASF492
 4042 1363 0A       		.byte	0xa
 4043 1364 AC01     		.2byte	0x1ac
 4044 1366 AE000000 		.4byte	0xae
 4045 136a 00       		.byte	0
 4046 136b 17       		.uleb128 0x17
 4047 136c C7250000 		.4byte	.LASF487
 4048 1370 0A       		.byte	0xa
 4049 1371 AF01     		.2byte	0x1af
 4050 1373 B9000000 		.4byte	0xb9
 4051 1377 01       		.byte	0x1
 4052 1378 00       		.byte	0
 4053 1379 09       		.uleb128 0x9
 4054 137a B72A0000 		.4byte	.LASF493
 4055 137e 0A       		.byte	0xa
 4056 137f B101     		.2byte	0x1b1
 4057 1381 55130000 		.4byte	0x1355
 4058 1385 09       		.uleb128 0x9
 4059 1386 97400000 		.4byte	.LASF494
 4060 138a 0B       		.byte	0xb
 4061 138b 7F01     		.2byte	0x17f
 4062 138d C4000000 		.4byte	0xc4
 4063 1391 06       		.uleb128 0x6
 4064 1392 01       		.byte	0x1
 4065 1393 5E000000 		.4byte	0x5e
 4066 1397 0C       		.byte	0xc
 4067 1398 D0       		.byte	0xd0
 4068 1399 BC130000 		.4byte	0x13bc
 4069 139d 08       		.uleb128 0x8
 4070 139e 772A0000 		.4byte	.LASF495
 4071 13a2 00       		.byte	0
 4072 13a3 08       		.uleb128 0x8
 4073 13a4 C61A0000 		.4byte	.LASF496
 4074 13a8 01       		.byte	0x1
ARM GAS  C:\Users\salaz\AppData\Local\Temp\ccu2LhKM.s 			page 121


 4075 13a9 08       		.uleb128 0x8
 4076 13aa 29340000 		.4byte	.LASF497
 4077 13ae 02       		.byte	0x2
 4078 13af 08       		.uleb128 0x8
 4079 13b0 DB240000 		.4byte	.LASF498
 4080 13b4 03       		.byte	0x3
 4081 13b5 08       		.uleb128 0x8
 4082 13b6 63050000 		.4byte	.LASF499
 4083 13ba 04       		.byte	0x4
 4084 13bb 00       		.byte	0
 4085 13bc 04       		.uleb128 0x4
 4086 13bd B01D0000 		.4byte	.LASF500
 4087 13c1 0C       		.byte	0xc
 4088 13c2 E2       		.byte	0xe2
 4089 13c3 91130000 		.4byte	0x1391
 4090 13c7 06       		.uleb128 0x6
 4091 13c8 01       		.byte	0x1
 4092 13c9 5E000000 		.4byte	0x5e
 4093 13cd 0C       		.byte	0xc
 4094 13ce E6       		.byte	0xe6
 4095 13cf 3A140000 		.4byte	0x143a
 4096 13d3 08       		.uleb128 0x8
 4097 13d4 A00D0000 		.4byte	.LASF501
 4098 13d8 00       		.byte	0
 4099 13d9 08       		.uleb128 0x8
 4100 13da 7B010000 		.4byte	.LASF502
 4101 13de 01       		.byte	0x1
 4102 13df 08       		.uleb128 0x8
 4103 13e0 FC330000 		.4byte	.LASF503
 4104 13e4 02       		.byte	0x2
 4105 13e5 08       		.uleb128 0x8
 4106 13e6 DD1F0000 		.4byte	.LASF504
 4107 13ea 03       		.byte	0x3
 4108 13eb 08       		.uleb128 0x8
 4109 13ec 80020000 		.4byte	.LASF505
 4110 13f0 04       		.byte	0x4
 4111 13f1 08       		.uleb128 0x8
 4112 13f2 14010000 		.4byte	.LASF506
 4113 13f6 05       		.byte	0x5
 4114 13f7 08       		.uleb128 0x8
 4115 13f8 69420000 		.4byte	.LASF507
 4116 13fc 06       		.byte	0x6
 4117 13fd 08       		.uleb128 0x8
 4118 13fe FB2E0000 		.4byte	.LASF508
 4119 1402 07       		.byte	0x7
 4120 1403 08       		.uleb128 0x8
 4121 1404 04060000 		.4byte	.LASF509
 4122 1408 08       		.byte	0x8
 4123 1409 08       		.uleb128 0x8
 4124 140a 672C0000 		.4byte	.LASF510
 4125 140e 09       		.byte	0x9
 4126 140f 08       		.uleb128 0x8
 4127 1410 F1100000 		.4byte	.LASF511
 4128 1414 0A       		.byte	0xa
 4129 1415 08       		.uleb128 0x8
 4130 1416 17350000 		.4byte	.LASF512
 4131 141a 0B       		.byte	0xb
ARM GAS  C:\Users\salaz\AppData\Local\Temp\ccu2LhKM.s 			page 122


 4132 141b 08       		.uleb128 0x8
 4133 141c 8F090000 		.4byte	.LASF513
 4134 1420 0C       		.byte	0xc
 4135 1421 08       		.uleb128 0x8
 4136 1422 3F1A0000 		.4byte	.LASF514
 4137 1426 0D       		.byte	0xd
 4138 1427 08       		.uleb128 0x8
 4139 1428 82120000 		.4byte	.LASF515
 4140 142c 0E       		.byte	0xe
 4141 142d 08       		.uleb128 0x8
 4142 142e FA0B0000 		.4byte	.LASF516
 4143 1432 15       		.byte	0x15
 4144 1433 08       		.uleb128 0x8
 4145 1434 D33C0000 		.4byte	.LASF517
 4146 1438 18       		.byte	0x18
 4147 1439 00       		.byte	0
 4148 143a 09       		.uleb128 0x9
 4149 143b F6090000 		.4byte	.LASF518
 4150 143f 0C       		.byte	0xc
 4151 1440 2301     		.2byte	0x123
 4152 1442 C7130000 		.4byte	0x13c7
 4153 1446 09       		.uleb128 0x9
 4154 1447 24160000 		.4byte	.LASF519
 4155 144b 0C       		.byte	0xc
 4156 144c 6101     		.2byte	0x161
 4157 144e A7120000 		.4byte	0x12a7
 4158 1452 16       		.uleb128 0x16
 4159 1453 08       		.byte	0x8
 4160 1454 0C       		.byte	0xc
 4161 1455 9001     		.2byte	0x190
 4162 1457 76140000 		.4byte	0x1476
 4163 145b 17       		.uleb128 0x17
 4164 145c 5C3B0000 		.4byte	.LASF477
 4165 1460 0C       		.byte	0xc
 4166 1461 9301     		.2byte	0x193
 4167 1463 46140000 		.4byte	0x1446
 4168 1467 00       		.byte	0
 4169 1468 17       		.uleb128 0x17
 4170 1469 C7250000 		.4byte	.LASF487
 4171 146d 0C       		.byte	0xc
 4172 146e 9601     		.2byte	0x196
 4173 1470 B9000000 		.4byte	0xb9
 4174 1474 07       		.byte	0x7
 4175 1475 00       		.byte	0
 4176 1476 09       		.uleb128 0x9
 4177 1477 60020000 		.4byte	.LASF520
 4178 147b 0C       		.byte	0xc
 4179 147c 9801     		.2byte	0x198
 4180 147e 52140000 		.4byte	0x1452
 4181 1482 16       		.uleb128 0x16
 4182 1483 06       		.byte	0x6
 4183 1484 0C       		.byte	0xc
 4184 1485 E501     		.2byte	0x1e5
 4185 1487 DA140000 		.4byte	0x14da
 4186 148b 17       		.uleb128 0x17
 4187 148c 3F370000 		.4byte	.LASF521
 4188 1490 0C       		.byte	0xc
ARM GAS  C:\Users\salaz\AppData\Local\Temp\ccu2LhKM.s 			page 123


 4189 1491 EE01     		.2byte	0x1ee
 4190 1493 B9000000 		.4byte	0xb9
 4191 1497 00       		.byte	0
 4192 1498 17       		.uleb128 0x17
 4193 1499 A9250000 		.4byte	.LASF522
 4194 149d 0C       		.byte	0xc
 4195 149e F401     		.2byte	0x1f4
 4196 14a0 B9000000 		.4byte	0xb9
 4197 14a4 01       		.byte	0x1
 4198 14a5 17       		.uleb128 0x17
 4199 14a6 64010000 		.4byte	.LASF523
 4200 14aa 0C       		.byte	0xc
 4201 14ab FB01     		.2byte	0x1fb
 4202 14ad B9000000 		.4byte	0xb9
 4203 14b1 02       		.byte	0x2
 4204 14b2 17       		.uleb128 0x17
 4205 14b3 D1370000 		.4byte	.LASF524
 4206 14b7 0C       		.byte	0xc
 4207 14b8 FF01     		.2byte	0x1ff
 4208 14ba 3A140000 		.4byte	0x143a
 4209 14be 03       		.byte	0x3
 4210 14bf 17       		.uleb128 0x17
 4211 14c0 8F260000 		.4byte	.LASF525
 4212 14c4 0C       		.byte	0xc
 4213 14c5 0902     		.2byte	0x209
 4214 14c7 B9000000 		.4byte	0xb9
 4215 14cb 04       		.byte	0x4
 4216 14cc 17       		.uleb128 0x17
 4217 14cd C7250000 		.4byte	.LASF487
 4218 14d1 0C       		.byte	0xc
 4219 14d2 0C02     		.2byte	0x20c
 4220 14d4 B9000000 		.4byte	0xb9
 4221 14d8 05       		.byte	0x5
 4222 14d9 00       		.byte	0
 4223 14da 09       		.uleb128 0x9
 4224 14db 701A0000 		.4byte	.LASF526
 4225 14df 0C       		.byte	0xc
 4226 14e0 0E02     		.2byte	0x20e
 4227 14e2 82140000 		.4byte	0x1482
 4228 14e6 12       		.uleb128 0x12
 4229 14e7 0C       		.byte	0xc
 4230 14e8 0D       		.byte	0xd
 4231 14e9 6D       		.byte	0x6d
 4232 14ea 4F150000 		.4byte	0x154f
 4233 14ee 0D       		.uleb128 0xd
 4234 14ef 0F1B0000 		.4byte	.LASF527
 4235 14f3 0D       		.byte	0xd
 4236 14f4 74       		.byte	0x74
 4237 14f5 B9000000 		.4byte	0xb9
 4238 14f9 00       		.byte	0
 4239 14fa 0D       		.uleb128 0xd
 4240 14fb 810B0000 		.4byte	.LASF528
 4241 14ff 0D       		.byte	0xd
 4242 1500 7A       		.byte	0x7a
 4243 1501 B9000000 		.4byte	0xb9
 4244 1505 01       		.byte	0x1
 4245 1506 0D       		.uleb128 0xd
ARM GAS  C:\Users\salaz\AppData\Local\Temp\ccu2LhKM.s 			page 124


 4246 1507 0E240000 		.4byte	.LASF529
 4247 150b 0D       		.byte	0xd
 4248 150c 81       		.byte	0x81
 4249 150d C4000000 		.4byte	0xc4
 4250 1511 02       		.byte	0x2
 4251 1512 0D       		.uleb128 0xd
 4252 1513 A02E0000 		.4byte	.LASF530
 4253 1517 0D       		.byte	0xd
 4254 1518 88       		.byte	0x88
 4255 1519 C4000000 		.4byte	0xc4
 4256 151d 04       		.byte	0x4
 4257 151e 0D       		.uleb128 0xd
 4258 151f 12440000 		.4byte	.LASF531
 4259 1523 0D       		.byte	0xd
 4260 1524 90       		.byte	0x90
 4261 1525 B9000000 		.4byte	0xb9
 4262 1529 06       		.byte	0x6
 4263 152a 0D       		.uleb128 0xd
 4264 152b 58420000 		.4byte	.LASF532
 4265 152f 0D       		.byte	0xd
 4266 1530 98       		.byte	0x98
 4267 1531 B9000000 		.4byte	0xb9
 4268 1535 07       		.byte	0x7
 4269 1536 0D       		.uleb128 0xd
 4270 1537 6E340000 		.4byte	.LASF533
 4271 153b 0D       		.byte	0xd
 4272 153c 9C       		.byte	0x9c
 4273 153d C4000000 		.4byte	0xc4
 4274 1541 08       		.byte	0x8
 4275 1542 0D       		.uleb128 0xd
 4276 1543 5A250000 		.4byte	.LASF534
 4277 1547 0D       		.byte	0xd
 4278 1548 A6       		.byte	0xa6
 4279 1549 B9000000 		.4byte	0xb9
 4280 154d 0A       		.byte	0xa
 4281 154e 00       		.byte	0
 4282 154f 04       		.uleb128 0x4
 4283 1550 91380000 		.4byte	.LASF535
 4284 1554 0D       		.byte	0xd
 4285 1555 A8       		.byte	0xa8
 4286 1556 E6140000 		.4byte	0x14e6
 4287 155a 06       		.uleb128 0x6
 4288 155b 01       		.byte	0x1
 4289 155c 5E000000 		.4byte	0x5e
 4290 1560 0E       		.byte	0xe
 4291 1561 39       		.byte	0x39
 4292 1562 85150000 		.4byte	0x1585
 4293 1566 08       		.uleb128 0x8
 4294 1567 3C270000 		.4byte	.LASF536
 4295 156b 00       		.byte	0
 4296 156c 08       		.uleb128 0x8
 4297 156d 42310000 		.4byte	.LASF537
 4298 1571 01       		.byte	0x1
 4299 1572 08       		.uleb128 0x8
 4300 1573 AF140000 		.4byte	.LASF538
 4301 1577 02       		.byte	0x2
 4302 1578 08       		.uleb128 0x8
ARM GAS  C:\Users\salaz\AppData\Local\Temp\ccu2LhKM.s 			page 125


 4303 1579 A4060000 		.4byte	.LASF539
 4304 157d 03       		.byte	0x3
 4305 157e 08       		.uleb128 0x8
 4306 157f 69140000 		.4byte	.LASF540
 4307 1583 04       		.byte	0x4
 4308 1584 00       		.byte	0
 4309 1585 04       		.uleb128 0x4
 4310 1586 75340000 		.4byte	.LASF541
 4311 158a 0E       		.byte	0xe
 4312 158b 49       		.byte	0x49
 4313 158c 5A150000 		.4byte	0x155a
 4314 1590 12       		.uleb128 0x12
 4315 1591 10       		.byte	0x10
 4316 1592 0E       		.byte	0xe
 4317 1593 51       		.byte	0x51
 4318 1594 F9150000 		.4byte	0x15f9
 4319 1598 0D       		.uleb128 0xd
 4320 1599 73100000 		.4byte	.LASF542
 4321 159d 0E       		.byte	0xe
 4322 159e 59       		.byte	0x59
 4323 159f C4000000 		.4byte	0xc4
 4324 15a3 00       		.byte	0
 4325 15a4 0D       		.uleb128 0xd
 4326 15a5 07440000 		.4byte	.LASF543
 4327 15a9 0E       		.byte	0xe
 4328 15aa 61       		.byte	0x61
 4329 15ab C4000000 		.4byte	0xc4
 4330 15af 02       		.byte	0x2
 4331 15b0 0D       		.uleb128 0xd
 4332 15b1 9F1B0000 		.4byte	.LASF544
 4333 15b5 0E       		.byte	0xe
 4334 15b6 6A       		.byte	0x6a
 4335 15b7 85150000 		.4byte	0x1585
 4336 15bb 04       		.byte	0x4
 4337 15bc 0D       		.uleb128 0xd
 4338 15bd 12440000 		.4byte	.LASF531
 4339 15c1 0E       		.byte	0xe
 4340 15c2 72       		.byte	0x72
 4341 15c3 B9000000 		.4byte	0xb9
 4342 15c7 05       		.byte	0x5
 4343 15c8 0D       		.uleb128 0xd
 4344 15c9 D0230000 		.4byte	.LASF545
 4345 15cd 0E       		.byte	0xe
 4346 15ce 79       		.byte	0x79
 4347 15cf B9000000 		.4byte	0xb9
 4348 15d3 06       		.byte	0x6
 4349 15d4 0D       		.uleb128 0xd
 4350 15d5 8C400000 		.4byte	.LASF546
 4351 15d9 0E       		.byte	0xe
 4352 15da 7F       		.byte	0x7f
 4353 15db 97120000 		.4byte	0x1297
 4354 15df 07       		.byte	0x7
 4355 15e0 0D       		.uleb128 0xd
 4356 15e1 77410000 		.4byte	.LASF547
 4357 15e5 0E       		.byte	0xe
 4358 15e6 87       		.byte	0x87
 4359 15e7 B9000000 		.4byte	0xb9
ARM GAS  C:\Users\salaz\AppData\Local\Temp\ccu2LhKM.s 			page 126


 4360 15eb 0D       		.byte	0xd
 4361 15ec 0D       		.uleb128 0xd
 4362 15ed 411B0000 		.4byte	.LASF548
 4363 15f1 0E       		.byte	0xe
 4364 15f2 93       		.byte	0x93
 4365 15f3 B9000000 		.4byte	0xb9
 4366 15f7 0E       		.byte	0xe
 4367 15f8 00       		.byte	0
 4368 15f9 04       		.uleb128 0x4
 4369 15fa 72090000 		.4byte	.LASF549
 4370 15fe 0E       		.byte	0xe
 4371 15ff 95       		.byte	0x95
 4372 1600 90150000 		.4byte	0x1590
 4373 1604 12       		.uleb128 0x12
 4374 1605 20       		.byte	0x20
 4375 1606 0E       		.byte	0xe
 4376 1607 98       		.byte	0x98
 4377 1608 25160000 		.4byte	0x1625
 4378 160c 0D       		.uleb128 0xd
 4379 160d 66430000 		.4byte	.LASF550
 4380 1611 0E       		.byte	0xe
 4381 1612 9B       		.byte	0x9b
 4382 1613 25160000 		.4byte	0x1625
 4383 1617 00       		.byte	0
 4384 1618 0D       		.uleb128 0xd
 4385 1619 172B0000 		.4byte	.LASF551
 4386 161d 0E       		.byte	0xe
 4387 161e 9E       		.byte	0x9e
 4388 161f B9000000 		.4byte	0xb9
 4389 1623 1F       		.byte	0x1f
 4390 1624 00       		.byte	0
 4391 1625 0F       		.uleb128 0xf
 4392 1626 B9000000 		.4byte	0xb9
 4393 162a 35160000 		.4byte	0x1635
 4394 162e 10       		.uleb128 0x10
 4395 162f 9E000000 		.4byte	0x9e
 4396 1633 1E       		.byte	0x1e
 4397 1634 00       		.byte	0
 4398 1635 04       		.uleb128 0x4
 4399 1636 841C0000 		.4byte	.LASF552
 4400 163a 0E       		.byte	0xe
 4401 163b A0       		.byte	0xa0
 4402 163c 04160000 		.4byte	0x1604
 4403 1640 12       		.uleb128 0x12
 4404 1641 20       		.byte	0x20
 4405 1642 0E       		.byte	0xe
 4406 1643 A3       		.byte	0xa3
 4407 1644 61160000 		.4byte	0x1661
 4408 1648 0D       		.uleb128 0xd
 4409 1649 7B000000 		.4byte	.LASF553
 4410 164d 0E       		.byte	0xe
 4411 164e A7       		.byte	0xa7
 4412 164f 25160000 		.4byte	0x1625
 4413 1653 00       		.byte	0
 4414 1654 0D       		.uleb128 0xd
 4415 1655 82380000 		.4byte	.LASF554
 4416 1659 0E       		.byte	0xe
ARM GAS  C:\Users\salaz\AppData\Local\Temp\ccu2LhKM.s 			page 127


 4417 165a AA       		.byte	0xaa
 4418 165b B9000000 		.4byte	0xb9
 4419 165f 1F       		.byte	0x1f
 4420 1660 00       		.byte	0
 4421 1661 04       		.uleb128 0x4
 4422 1662 A2040000 		.4byte	.LASF555
 4423 1666 0E       		.byte	0xe
 4424 1667 AC       		.byte	0xac
 4425 1668 40160000 		.4byte	0x1640
 4426 166c 12       		.uleb128 0x12
 4427 166d 14       		.byte	0x14
 4428 166e 0E       		.byte	0xe
 4429 166f AF       		.byte	0xaf
 4430 1670 B1160000 		.4byte	0x16b1
 4431 1674 0D       		.uleb128 0xd
 4432 1675 99040000 		.4byte	.LASF556
 4433 1679 0E       		.byte	0xe
 4434 167a B7       		.byte	0xb7
 4435 167b B9000000 		.4byte	0xb9
 4436 167f 00       		.byte	0
 4437 1680 0D       		.uleb128 0xd
 4438 1681 1B160000 		.4byte	.LASF557
 4439 1685 0E       		.byte	0xe
 4440 1686 BC       		.byte	0xbc
 4441 1687 B1160000 		.4byte	0x16b1
 4442 168b 04       		.byte	0x4
 4443 168c 0D       		.uleb128 0xd
 4444 168d 66430000 		.4byte	.LASF550
 4445 1691 0E       		.byte	0xe
 4446 1692 BE       		.byte	0xbe
 4447 1693 B7160000 		.4byte	0x16b7
 4448 1697 08       		.byte	0x8
 4449 1698 0D       		.uleb128 0xd
 4450 1699 7B000000 		.4byte	.LASF553
 4451 169d 0E       		.byte	0xe
 4452 169e C0       		.byte	0xc0
 4453 169f BD160000 		.4byte	0x16bd
 4454 16a3 0C       		.byte	0xc
 4455 16a4 0D       		.uleb128 0xd
 4456 16a5 5A160000 		.4byte	.LASF558
 4457 16a9 0E       		.byte	0xe
 4458 16aa CA       		.byte	0xca
 4459 16ab C4000000 		.4byte	0xc4
 4460 16af 10       		.byte	0x10
 4461 16b0 00       		.byte	0
 4462 16b1 18       		.uleb128 0x18
 4463 16b2 04       		.byte	0x4
 4464 16b3 F9150000 		.4byte	0x15f9
 4465 16b7 18       		.uleb128 0x18
 4466 16b8 04       		.byte	0x4
 4467 16b9 35160000 		.4byte	0x1635
 4468 16bd 18       		.uleb128 0x18
 4469 16be 04       		.byte	0x4
 4470 16bf 61160000 		.4byte	0x1661
 4471 16c3 04       		.uleb128 0x4
 4472 16c4 881F0000 		.4byte	.LASF559
 4473 16c8 0E       		.byte	0xe
ARM GAS  C:\Users\salaz\AppData\Local\Temp\ccu2LhKM.s 			page 128


 4474 16c9 CC       		.byte	0xcc
 4475 16ca 6C160000 		.4byte	0x166c
 4476 16ce 06       		.uleb128 0x6
 4477 16cf 01       		.byte	0x1
 4478 16d0 5E000000 		.4byte	0x5e
 4479 16d4 02       		.byte	0x2
 4480 16d5 69       		.byte	0x69
 4481 16d6 ED160000 		.4byte	0x16ed
 4482 16da 08       		.uleb128 0x8
 4483 16db 3E390000 		.4byte	.LASF560
 4484 16df 00       		.byte	0
 4485 16e0 08       		.uleb128 0x8
 4486 16e1 A5150000 		.4byte	.LASF561
 4487 16e5 01       		.byte	0x1
 4488 16e6 08       		.uleb128 0x8
 4489 16e7 EB070000 		.4byte	.LASF562
 4490 16eb 02       		.byte	0x2
 4491 16ec 00       		.byte	0
 4492 16ed 04       		.uleb128 0x4
 4493 16ee 12040000 		.4byte	.LASF563
 4494 16f2 02       		.byte	0x2
 4495 16f3 70       		.byte	0x70
 4496 16f4 CE160000 		.4byte	0x16ce
 4497 16f8 06       		.uleb128 0x6
 4498 16f9 01       		.byte	0x1
 4499 16fa 5E000000 		.4byte	0x5e
 4500 16fe 02       		.byte	0x2
 4501 16ff 7E       		.byte	0x7e
 4502 1700 1D170000 		.4byte	0x171d
 4503 1704 08       		.uleb128 0x8
 4504 1705 83280000 		.4byte	.LASF564
 4505 1709 00       		.byte	0
 4506 170a 08       		.uleb128 0x8
 4507 170b 950C0000 		.4byte	.LASF565
 4508 170f 01       		.byte	0x1
 4509 1710 08       		.uleb128 0x8
 4510 1711 85030000 		.4byte	.LASF566
 4511 1715 02       		.byte	0x2
 4512 1716 08       		.uleb128 0x8
 4513 1717 F9310000 		.4byte	.LASF567
 4514 171b 03       		.byte	0x3
 4515 171c 00       		.byte	0
 4516 171d 04       		.uleb128 0x4
 4517 171e 14290000 		.4byte	.LASF568
 4518 1722 02       		.byte	0x2
 4519 1723 83       		.byte	0x83
 4520 1724 F8160000 		.4byte	0x16f8
 4521 1728 06       		.uleb128 0x6
 4522 1729 01       		.byte	0x1
 4523 172a 5E000000 		.4byte	0x5e
 4524 172e 02       		.byte	0x2
 4525 172f 87       		.byte	0x87
 4526 1730 65170000 		.4byte	0x1765
 4527 1734 08       		.uleb128 0x8
 4528 1735 85370000 		.4byte	.LASF569
 4529 1739 00       		.byte	0
 4530 173a 08       		.uleb128 0x8
ARM GAS  C:\Users\salaz\AppData\Local\Temp\ccu2LhKM.s 			page 129


 4531 173b 22260000 		.4byte	.LASF570
 4532 173f 01       		.byte	0x1
 4533 1740 08       		.uleb128 0x8
 4534 1741 42360000 		.4byte	.LASF571
 4535 1745 02       		.byte	0x2
 4536 1746 08       		.uleb128 0x8
 4537 1747 51200000 		.4byte	.LASF572
 4538 174b 03       		.byte	0x3
 4539 174c 08       		.uleb128 0x8
 4540 174d FC270000 		.4byte	.LASF573
 4541 1751 04       		.byte	0x4
 4542 1752 08       		.uleb128 0x8
 4543 1753 33100000 		.4byte	.LASF574
 4544 1757 05       		.byte	0x5
 4545 1758 08       		.uleb128 0x8
 4546 1759 46030000 		.4byte	.LASF575
 4547 175d 06       		.byte	0x6
 4548 175e 08       		.uleb128 0x8
 4549 175f 452B0000 		.4byte	.LASF576
 4550 1763 07       		.byte	0x7
 4551 1764 00       		.byte	0
 4552 1765 04       		.uleb128 0x4
 4553 1766 84310000 		.4byte	.LASF577
 4554 176a 02       		.byte	0x2
 4555 176b 90       		.byte	0x90
 4556 176c 28170000 		.4byte	0x1728
 4557 1770 12       		.uleb128 0x12
 4558 1771 0C       		.byte	0xc
 4559 1772 02       		.byte	0x2
 4560 1773 93       		.byte	0x93
 4561 1774 C1170000 		.4byte	0x17c1
 4562 1778 0D       		.uleb128 0xd
 4563 1779 09090000 		.4byte	.LASF578
 4564 177d 02       		.byte	0x2
 4565 177e 96       		.byte	0x96
 4566 177f 85130000 		.4byte	0x1385
 4567 1783 00       		.byte	0
 4568 1784 0D       		.uleb128 0xd
 4569 1785 A0230000 		.4byte	.LASF579
 4570 1789 02       		.byte	0x2
 4571 178a 99       		.byte	0x99
 4572 178b 85130000 		.4byte	0x1385
 4573 178f 02       		.byte	0x2
 4574 1790 0D       		.uleb128 0xd
 4575 1791 9C280000 		.4byte	.LASF580
 4576 1795 02       		.byte	0x2
 4577 1796 9C       		.byte	0x9c
 4578 1797 85130000 		.4byte	0x1385
 4579 179b 04       		.byte	0x4
 4580 179c 0D       		.uleb128 0xd
 4581 179d 520F0000 		.4byte	.LASF581
 4582 17a1 02       		.byte	0x2
 4583 17a2 9F       		.byte	0x9f
 4584 17a3 85130000 		.4byte	0x1385
 4585 17a7 06       		.byte	0x6
 4586 17a8 0D       		.uleb128 0xd
 4587 17a9 1A1D0000 		.4byte	.LASF582
ARM GAS  C:\Users\salaz\AppData\Local\Temp\ccu2LhKM.s 			page 130


 4588 17ad 02       		.byte	0x2
 4589 17ae A2       		.byte	0xa2
 4590 17af 85130000 		.4byte	0x1385
 4591 17b3 08       		.byte	0x8
 4592 17b4 0D       		.uleb128 0xd
 4593 17b5 721E0000 		.4byte	.LASF583
 4594 17b9 02       		.byte	0x2
 4595 17ba A5       		.byte	0xa5
 4596 17bb 85130000 		.4byte	0x1385
 4597 17bf 0A       		.byte	0xa
 4598 17c0 00       		.byte	0
 4599 17c1 04       		.uleb128 0x4
 4600 17c2 6A0C0000 		.4byte	.LASF584
 4601 17c6 02       		.byte	0x2
 4602 17c7 A6       		.byte	0xa6
 4603 17c8 70170000 		.4byte	0x1770
 4604 17cc 16       		.uleb128 0x16
 4605 17cd 0E       		.byte	0xe
 4606 17ce 02       		.byte	0x2
 4607 17cf 2B01     		.2byte	0x12b
 4608 17d1 31180000 		.4byte	0x1831
 4609 17d5 17       		.uleb128 0x17
 4610 17d6 C83B0000 		.4byte	.LASF585
 4611 17da 02       		.byte	0x2
 4612 17db 2E01     		.2byte	0x12e
 4613 17dd C4000000 		.4byte	0xc4
 4614 17e1 00       		.byte	0
 4615 17e2 17       		.uleb128 0x17
 4616 17e3 D5290000 		.4byte	.LASF586
 4617 17e7 02       		.byte	0x2
 4618 17e8 3101     		.2byte	0x131
 4619 17ea C4000000 		.4byte	0xc4
 4620 17ee 02       		.byte	0x2
 4621 17ef 17       		.uleb128 0x17
 4622 17f0 B1050000 		.4byte	.LASF587
 4623 17f4 02       		.byte	0x2
 4624 17f5 3401     		.2byte	0x134
 4625 17f7 C4000000 		.4byte	0xc4
 4626 17fb 04       		.byte	0x4
 4627 17fc 17       		.uleb128 0x17
 4628 17fd 3B420000 		.4byte	.LASF588
 4629 1801 02       		.byte	0x2
 4630 1802 3701     		.2byte	0x137
 4631 1804 B9000000 		.4byte	0xb9
 4632 1808 06       		.byte	0x6
 4633 1809 17       		.uleb128 0x17
 4634 180a CF1B0000 		.4byte	.LASF589
 4635 180e 02       		.byte	0x2
 4636 180f 3A01     		.2byte	0x13a
 4637 1811 C4000000 		.4byte	0xc4
 4638 1815 08       		.byte	0x8
 4639 1816 17       		.uleb128 0x17
 4640 1817 B10A0000 		.4byte	.LASF590
 4641 181b 02       		.byte	0x2
 4642 181c 3D01     		.2byte	0x13d
 4643 181e C4000000 		.4byte	0xc4
 4644 1822 0A       		.byte	0xa
ARM GAS  C:\Users\salaz\AppData\Local\Temp\ccu2LhKM.s 			page 131


 4645 1823 17       		.uleb128 0x17
 4646 1824 4C3D0000 		.4byte	.LASF591
 4647 1828 02       		.byte	0x2
 4648 1829 4001     		.2byte	0x140
 4649 182b C4000000 		.4byte	0xc4
 4650 182f 0C       		.byte	0xc
 4651 1830 00       		.byte	0
 4652 1831 09       		.uleb128 0x9
 4653 1832 B5260000 		.4byte	.LASF592
 4654 1836 02       		.byte	0x2
 4655 1837 4101     		.2byte	0x141
 4656 1839 CC170000 		.4byte	0x17cc
 4657 183d 16       		.uleb128 0x16
 4658 183e 16       		.byte	0x16
 4659 183f 02       		.byte	0x2
 4660 1840 4401     		.2byte	0x144
 4661 1842 D6180000 		.4byte	0x18d6
 4662 1846 17       		.uleb128 0x17
 4663 1847 513C0000 		.4byte	.LASF593
 4664 184b 02       		.byte	0x2
 4665 184c 4701     		.2byte	0x147
 4666 184e C4000000 		.4byte	0xc4
 4667 1852 00       		.byte	0
 4668 1853 17       		.uleb128 0x17
 4669 1854 A2050000 		.4byte	.LASF594
 4670 1858 02       		.byte	0x2
 4671 1859 4A01     		.2byte	0x14a
 4672 185b C4000000 		.4byte	0xc4
 4673 185f 02       		.byte	0x2
 4674 1860 17       		.uleb128 0x17
 4675 1861 B5160000 		.4byte	.LASF595
 4676 1865 02       		.byte	0x2
 4677 1866 4D01     		.2byte	0x14d
 4678 1868 C4000000 		.4byte	0xc4
 4679 186c 04       		.byte	0x4
 4680 186d 17       		.uleb128 0x17
 4681 186e 280E0000 		.4byte	.LASF596
 4682 1872 02       		.byte	0x2
 4683 1873 5001     		.2byte	0x150
 4684 1875 B9000000 		.4byte	0xb9
 4685 1879 06       		.byte	0x6
 4686 187a 17       		.uleb128 0x17
 4687 187b 5F380000 		.4byte	.LASF597
 4688 187f 02       		.byte	0x2
 4689 1880 5301     		.2byte	0x153
 4690 1882 C4000000 		.4byte	0xc4
 4691 1886 08       		.byte	0x8
 4692 1887 17       		.uleb128 0x17
 4693 1888 3D3D0000 		.4byte	.LASF598
 4694 188c 02       		.byte	0x2
 4695 188d 5601     		.2byte	0x156
 4696 188f C4000000 		.4byte	0xc4
 4697 1893 0A       		.byte	0xa
 4698 1894 17       		.uleb128 0x17
 4699 1895 E8210000 		.4byte	.LASF599
 4700 1899 02       		.byte	0x2
 4701 189a 5901     		.2byte	0x159
ARM GAS  C:\Users\salaz\AppData\Local\Temp\ccu2LhKM.s 			page 132


 4702 189c C4000000 		.4byte	0xc4
 4703 18a0 0C       		.byte	0xc
 4704 18a1 17       		.uleb128 0x17
 4705 18a2 DB3F0000 		.4byte	.LASF600
 4706 18a6 02       		.byte	0x2
 4707 18a7 5C01     		.2byte	0x15c
 4708 18a9 C4000000 		.4byte	0xc4
 4709 18ad 0E       		.byte	0xe
 4710 18ae 17       		.uleb128 0x17
 4711 18af D02D0000 		.4byte	.LASF601
 4712 18b3 02       		.byte	0x2
 4713 18b4 5F01     		.2byte	0x15f
 4714 18b6 C4000000 		.4byte	0xc4
 4715 18ba 10       		.byte	0x10
 4716 18bb 17       		.uleb128 0x17
 4717 18bc 8A3F0000 		.4byte	.LASF602
 4718 18c0 02       		.byte	0x2
 4719 18c1 6301     		.2byte	0x163
 4720 18c3 C4000000 		.4byte	0xc4
 4721 18c7 12       		.byte	0x12
 4722 18c8 17       		.uleb128 0x17
 4723 18c9 041D0000 		.4byte	.LASF603
 4724 18cd 02       		.byte	0x2
 4725 18ce 6601     		.2byte	0x166
 4726 18d0 C4000000 		.4byte	0xc4
 4727 18d4 14       		.byte	0x14
 4728 18d5 00       		.byte	0
 4729 18d6 09       		.uleb128 0x9
 4730 18d7 803A0000 		.4byte	.LASF604
 4731 18db 02       		.byte	0x2
 4732 18dc 6701     		.2byte	0x167
 4733 18de 3D180000 		.4byte	0x183d
 4734 18e2 16       		.uleb128 0x16
 4735 18e3 10       		.byte	0x10
 4736 18e4 02       		.byte	0x2
 4737 18e5 6A01     		.2byte	0x16a
 4738 18e7 20190000 		.4byte	0x1920
 4739 18eb 17       		.uleb128 0x17
 4740 18ec B9270000 		.4byte	.LASF605
 4741 18f0 02       		.byte	0x2
 4742 18f1 6D01     		.2byte	0x16d
 4743 18f3 B9120000 		.4byte	0x12b9
 4744 18f7 00       		.byte	0
 4745 18f8 17       		.uleb128 0x17
 4746 18f9 16420000 		.4byte	.LASF606
 4747 18fd 02       		.byte	0x2
 4748 18fe 7001     		.2byte	0x170
 4749 1900 B9120000 		.4byte	0x12b9
 4750 1904 04       		.byte	0x4
 4751 1905 17       		.uleb128 0x17
 4752 1906 A3330000 		.4byte	.LASF607
 4753 190a 02       		.byte	0x2
 4754 190b 7301     		.2byte	0x173
 4755 190d CF000000 		.4byte	0xcf
 4756 1911 08       		.byte	0x8
 4757 1912 17       		.uleb128 0x17
 4758 1913 58110000 		.4byte	.LASF608
ARM GAS  C:\Users\salaz\AppData\Local\Temp\ccu2LhKM.s 			page 133


 4759 1917 02       		.byte	0x2
 4760 1918 7601     		.2byte	0x176
 4761 191a CF000000 		.4byte	0xcf
 4762 191e 0C       		.byte	0xc
 4763 191f 00       		.byte	0
 4764 1920 09       		.uleb128 0x9
 4765 1921 53390000 		.4byte	.LASF609
 4766 1925 02       		.byte	0x2
 4767 1926 7801     		.2byte	0x178
 4768 1928 E2180000 		.4byte	0x18e2
 4769 192c 12       		.uleb128 0x12
 4770 192d 08       		.byte	0x8
 4771 192e 0F       		.byte	0xf
 4772 192f D6       		.byte	0xd6
 4773 1930 4D190000 		.4byte	0x194d
 4774 1934 0D       		.uleb128 0xd
 4775 1935 6E330000 		.4byte	.LASF610
 4776 1939 0F       		.byte	0xf
 4777 193a D9       		.byte	0xd9
 4778 193b C4000000 		.4byte	0xc4
 4779 193f 00       		.byte	0
 4780 1940 0D       		.uleb128 0xd
 4781 1941 AA360000 		.4byte	.LASF611
 4782 1945 0F       		.byte	0xf
 4783 1946 DE       		.byte	0xde
 4784 1947 A5000000 		.4byte	0xa5
 4785 194b 04       		.byte	0x4
 4786 194c 00       		.byte	0
 4787 194d 04       		.uleb128 0x4
 4788 194e BA420000 		.4byte	.LASF612
 4789 1952 0F       		.byte	0xf
 4790 1953 E0       		.byte	0xe0
 4791 1954 2C190000 		.4byte	0x192c
 4792 1958 12       		.uleb128 0x12
 4793 1959 08       		.byte	0x8
 4794 195a 0F       		.byte	0xf
 4795 195b E3       		.byte	0xe3
 4796 195c 79190000 		.4byte	0x1979
 4797 1960 0D       		.uleb128 0xd
 4798 1961 9F3D0000 		.4byte	.LASF613
 4799 1965 0F       		.byte	0xf
 4800 1966 E6       		.byte	0xe6
 4801 1967 C4000000 		.4byte	0xc4
 4802 196b 00       		.byte	0
 4803 196c 0D       		.uleb128 0xd
 4804 196d 12380000 		.4byte	.LASF614
 4805 1971 0F       		.byte	0xf
 4806 1972 EB       		.byte	0xeb
 4807 1973 79190000 		.4byte	0x1979
 4808 1977 04       		.byte	0x4
 4809 1978 00       		.byte	0
 4810 1979 18       		.uleb128 0x18
 4811 197a 04       		.byte	0x4
 4812 197b 4D190000 		.4byte	0x194d
 4813 197f 04       		.uleb128 0x4
 4814 1980 C0120000 		.4byte	.LASF615
 4815 1984 0F       		.byte	0xf
ARM GAS  C:\Users\salaz\AppData\Local\Temp\ccu2LhKM.s 			page 134


 4816 1985 ED       		.byte	0xed
 4817 1986 58190000 		.4byte	0x1958
 4818 198a 19       		.uleb128 0x19
 4819 198b 08       		.byte	0x8
 4820 198c 0F       		.byte	0xf
 4821 198d F0       		.byte	0xf0
 4822 198e A9190000 		.4byte	0x19a9
 4823 1992 1A       		.uleb128 0x1a
 4824 1993 CB280000 		.4byte	.LASF616
 4825 1997 0F       		.byte	0xf
 4826 1998 F6       		.byte	0xf6
 4827 1999 7F190000 		.4byte	0x197f
 4828 199d 1A       		.uleb128 0x1a
 4829 199e B81E0000 		.4byte	.LASF617
 4830 19a2 0F       		.byte	0xf
 4831 19a3 F9       		.byte	0xf9
 4832 19a4 C4000000 		.4byte	0xc4
 4833 19a8 00       		.byte	0
 4834 19a9 04       		.uleb128 0x4
 4835 19aa 9C270000 		.4byte	.LASF618
 4836 19ae 0F       		.byte	0xf
 4837 19af FB       		.byte	0xfb
 4838 19b0 8A190000 		.4byte	0x198a
 4839 19b4 12       		.uleb128 0x12
 4840 19b5 14       		.byte	0x14
 4841 19b6 0F       		.byte	0xf
 4842 19b7 FE       		.byte	0xfe
 4843 19b8 FE190000 		.4byte	0x19fe
 4844 19bc 17       		.uleb128 0x17
 4845 19bd 7E100000 		.4byte	.LASF619
 4846 19c1 0F       		.byte	0xf
 4847 19c2 0101     		.2byte	0x101
 4848 19c4 C4000000 		.4byte	0xc4
 4849 19c8 00       		.byte	0
 4850 19c9 17       		.uleb128 0x17
 4851 19ca B40C0000 		.4byte	.LASF620
 4852 19ce 0F       		.byte	0xf
 4853 19cf 0701     		.2byte	0x107
 4854 19d1 C4000000 		.4byte	0xc4
 4855 19d5 02       		.byte	0x2
 4856 19d6 17       		.uleb128 0x17
 4857 19d7 5A060000 		.4byte	.LASF621
 4858 19db 0F       		.byte	0xf
 4859 19dc 1501     		.2byte	0x115
 4860 19de CF000000 		.4byte	0xcf
 4861 19e2 04       		.byte	0x4
 4862 19e3 17       		.uleb128 0x17
 4863 19e4 5D220000 		.4byte	.LASF622
 4864 19e8 0F       		.byte	0xf
 4865 19e9 1801     		.2byte	0x118
 4866 19eb C4000000 		.4byte	0xc4
 4867 19ef 08       		.byte	0x8
 4868 19f0 17       		.uleb128 0x17
 4869 19f1 F92A0000 		.4byte	.LASF623
 4870 19f5 0F       		.byte	0xf
 4871 19f6 2101     		.2byte	0x121
 4872 19f8 A9190000 		.4byte	0x19a9
ARM GAS  C:\Users\salaz\AppData\Local\Temp\ccu2LhKM.s 			page 135


 4873 19fc 0C       		.byte	0xc
 4874 19fd 00       		.byte	0
 4875 19fe 09       		.uleb128 0x9
 4876 19ff F50F0000 		.4byte	.LASF624
 4877 1a03 0F       		.byte	0xf
 4878 1a04 2301     		.2byte	0x123
 4879 1a06 B4190000 		.4byte	0x19b4
 4880 1a0a 18       		.uleb128 0x18
 4881 1a0b 04       		.byte	0x4
 4882 1a0c 101A0000 		.4byte	0x1a10
 4883 1a10 0B       		.uleb128 0xb
 4884 1a11 FE190000 		.4byte	0x19fe
 4885 1a15 12       		.uleb128 0x12
 4886 1a16 06       		.byte	0x6
 4887 1a17 10       		.byte	0x10
 4888 1a18 87       		.byte	0x87
 4889 1a19 421A0000 		.4byte	0x1a42
 4890 1a1d 0D       		.uleb128 0xd
 4891 1a1e 09090000 		.4byte	.LASF578
 4892 1a22 10       		.byte	0x10
 4893 1a23 89       		.byte	0x89
 4894 1a24 85130000 		.4byte	0x1385
 4895 1a28 00       		.byte	0
 4896 1a29 0D       		.uleb128 0xd
 4897 1a2a 2F320000 		.4byte	.LASF625
 4898 1a2e 10       		.byte	0x10
 4899 1a2f 8A       		.byte	0x8a
 4900 1a30 85130000 		.4byte	0x1385
 4901 1a34 02       		.byte	0x2
 4902 1a35 0D       		.uleb128 0xd
 4903 1a36 85410000 		.4byte	.LASF626
 4904 1a3a 10       		.byte	0x10
 4905 1a3b 8B       		.byte	0x8b
 4906 1a3c 85130000 		.4byte	0x1385
 4907 1a40 04       		.byte	0x4
 4908 1a41 00       		.byte	0
 4909 1a42 04       		.uleb128 0x4
 4910 1a43 B83E0000 		.4byte	.LASF627
 4911 1a47 10       		.byte	0x10
 4912 1a48 8C       		.byte	0x8c
 4913 1a49 151A0000 		.4byte	0x1a15
 4914 1a4d 04       		.uleb128 0x4
 4915 1a4e 8D3B0000 		.4byte	.LASF628
 4916 1a52 11       		.byte	0x11
 4917 1a53 40       		.byte	0x40
 4918 1a54 581A0000 		.4byte	0x1a58
 4919 1a58 18       		.uleb128 0x18
 4920 1a59 04       		.byte	0x4
 4921 1a5a 5E1A0000 		.4byte	0x1a5e
 4922 1a5e 1B       		.uleb128 0x1b
 4923 1a5f 6E1A0000 		.4byte	0x1a6e
 4924 1a63 1C       		.uleb128 0x1c
 4925 1a64 CF000000 		.4byte	0xcf
 4926 1a68 1C       		.uleb128 0x1c
 4927 1a69 A5000000 		.4byte	0xa5
 4928 1a6d 00       		.byte	0
 4929 1a6e 03       		.uleb128 0x3
ARM GAS  C:\Users\salaz\AppData\Local\Temp\ccu2LhKM.s 			page 136


 4930 1a6f 01       		.byte	0x1
 4931 1a70 02       		.byte	0x2
 4932 1a71 AF110000 		.4byte	.LASF629
 4933 1a75 1D       		.uleb128 0x1d
 4934 1a76 3111     		.2byte	0x1131
 4935 1a78 11       		.byte	0x11
 4936 1a79 D901     		.2byte	0x1d9
 4937 1a7b B71A0000 		.4byte	0x1ab7
 4938 1a7f 17       		.uleb128 0x17
 4939 1a80 311A0000 		.4byte	.LASF630
 4940 1a84 11       		.byte	0x11
 4941 1a85 DC01     		.2byte	0x1dc
 4942 1a87 B71A0000 		.4byte	0x1ab7
 4943 1a8b 00       		.byte	0
 4944 1a8c 1E       		.uleb128 0x1e
 4945 1a8d 09190000 		.4byte	.LASF631
 4946 1a91 11       		.byte	0x11
 4947 1a92 DF01     		.2byte	0x1df
 4948 1a94 C81A0000 		.4byte	0x1ac8
 4949 1a98 9610     		.2byte	0x1096
 4950 1a9a 1E       		.uleb128 0x1e
 4951 1a9b CC3A0000 		.4byte	.LASF632
 4952 1a9f 11       		.byte	0x11
 4953 1aa0 E201     		.2byte	0x1e2
 4954 1aa2 B9000000 		.4byte	0xb9
 4955 1aa6 2F11     		.2byte	0x112f
 4956 1aa8 1E       		.uleb128 0x1e
 4957 1aa9 BC170000 		.4byte	.LASF633
 4958 1aad 11       		.byte	0x11
 4959 1aae E501     		.2byte	0x1e5
 4960 1ab0 B9000000 		.4byte	0xb9
 4961 1ab4 3011     		.2byte	0x1130
 4962 1ab6 00       		.byte	0
 4963 1ab7 0F       		.uleb128 0xf
 4964 1ab8 B9000000 		.4byte	0xb9
 4965 1abc C81A0000 		.4byte	0x1ac8
 4966 1ac0 11       		.uleb128 0x11
 4967 1ac1 9E000000 		.4byte	0x9e
 4968 1ac5 9510     		.2byte	0x1095
 4969 1ac7 00       		.byte	0
 4970 1ac8 0F       		.uleb128 0xf
 4971 1ac9 B9000000 		.4byte	0xb9
 4972 1acd DE1A0000 		.4byte	0x1ade
 4973 1ad1 10       		.uleb128 0x10
 4974 1ad2 9E000000 		.4byte	0x9e
 4975 1ad6 10       		.byte	0x10
 4976 1ad7 10       		.uleb128 0x10
 4977 1ad8 9E000000 		.4byte	0x9e
 4978 1adc 08       		.byte	0x8
 4979 1add 00       		.byte	0
 4980 1ade 09       		.uleb128 0x9
 4981 1adf 400B0000 		.4byte	.LASF634
 4982 1ae3 11       		.byte	0x11
 4983 1ae4 E601     		.2byte	0x1e6
 4984 1ae6 751A0000 		.4byte	0x1a75
 4985 1aea 16       		.uleb128 0x16
 4986 1aeb 08       		.byte	0x8
ARM GAS  C:\Users\salaz\AppData\Local\Temp\ccu2LhKM.s 			page 137


 4987 1aec 11       		.byte	0x11
 4988 1aed E901     		.2byte	0x1e9
 4989 1aef 421B0000 		.4byte	0x1b42
 4990 1af3 17       		.uleb128 0x17
 4991 1af4 8C240000 		.4byte	.LASF635
 4992 1af8 11       		.byte	0x11
 4993 1af9 EC01     		.2byte	0x1ec
 4994 1afb F6120000 		.4byte	0x12f6
 4995 1aff 00       		.byte	0
 4996 1b00 17       		.uleb128 0x17
 4997 1b01 98000000 		.4byte	.LASF636
 4998 1b05 11       		.byte	0x11
 4999 1b06 EF01     		.2byte	0x1ef
 5000 1b08 F6120000 		.4byte	0x12f6
 5001 1b0c 01       		.byte	0x1
 5002 1b0d 17       		.uleb128 0x17
 5003 1b0e CD2E0000 		.4byte	.LASF637
 5004 1b12 11       		.byte	0x11
 5005 1b13 F201     		.2byte	0x1f2
 5006 1b15 BC130000 		.4byte	0x13bc
 5007 1b19 02       		.byte	0x2
 5008 1b1a 17       		.uleb128 0x17
 5009 1b1b B03C0000 		.4byte	.LASF638
 5010 1b1f 11       		.byte	0x11
 5011 1b20 F501     		.2byte	0x1f5
 5012 1b22 B9000000 		.4byte	0xb9
 5013 1b26 03       		.byte	0x3
 5014 1b27 17       		.uleb128 0x17
 5015 1b28 53040000 		.4byte	.LASF639
 5016 1b2c 11       		.byte	0x11
 5017 1b2d F801     		.2byte	0x1f8
 5018 1b2f B9000000 		.4byte	0xb9
 5019 1b33 04       		.byte	0x4
 5020 1b34 17       		.uleb128 0x17
 5021 1b35 AA320000 		.4byte	.LASF640
 5022 1b39 11       		.byte	0x11
 5023 1b3a FB01     		.2byte	0x1fb
 5024 1b3c C4000000 		.4byte	0xc4
 5025 1b40 06       		.byte	0x6
 5026 1b41 00       		.byte	0
 5027 1b42 09       		.uleb128 0x9
 5028 1b43 63270000 		.4byte	.LASF641
 5029 1b47 11       		.byte	0x11
 5030 1b48 FC01     		.2byte	0x1fc
 5031 1b4a EA1A0000 		.4byte	0x1aea
 5032 1b4e 16       		.uleb128 0x16
 5033 1b4f 38       		.byte	0x38
 5034 1b50 11       		.byte	0x11
 5035 1b51 0002     		.2byte	0x200
 5036 1b53 0E1C0000 		.4byte	0x1c0e
 5037 1b57 17       		.uleb128 0x17
 5038 1b58 CE070000 		.4byte	.LASF642
 5039 1b5c 11       		.byte	0x11
 5040 1b5d 0402     		.2byte	0x204
 5041 1b5f 0E1C0000 		.4byte	0x1c0e
 5042 1b63 00       		.byte	0
 5043 1b64 17       		.uleb128 0x17
ARM GAS  C:\Users\salaz\AppData\Local\Temp\ccu2LhKM.s 			page 138


 5044 1b65 09300000 		.4byte	.LASF643
 5045 1b69 11       		.byte	0x11
 5046 1b6a 0702     		.2byte	0x207
 5047 1b6c 141C0000 		.4byte	0x1c14
 5048 1b70 04       		.byte	0x4
 5049 1b71 17       		.uleb128 0x17
 5050 1b72 73290000 		.4byte	.LASF644
 5051 1b76 11       		.byte	0x11
 5052 1b77 0A02     		.2byte	0x20a
 5053 1b79 1A1C0000 		.4byte	0x1c1a
 5054 1b7d 08       		.byte	0x8
 5055 1b7e 17       		.uleb128 0x17
 5056 1b7f 7B3E0000 		.4byte	.LASF645
 5057 1b83 11       		.byte	0x11
 5058 1b84 0D02     		.2byte	0x20d
 5059 1b86 201C0000 		.4byte	0x1c20
 5060 1b8a 0C       		.byte	0xc
 5061 1b8b 17       		.uleb128 0x17
 5062 1b8c 9C250000 		.4byte	.LASF646
 5063 1b90 11       		.byte	0x11
 5064 1b91 1002     		.2byte	0x210
 5065 1b93 261C0000 		.4byte	0x1c26
 5066 1b97 10       		.byte	0x10
 5067 1b98 17       		.uleb128 0x17
 5068 1b99 223A0000 		.4byte	.LASF647
 5069 1b9d 11       		.byte	0x11
 5070 1b9e 1302     		.2byte	0x213
 5071 1ba0 311C0000 		.4byte	0x1c31
 5072 1ba4 14       		.byte	0x14
 5073 1ba5 17       		.uleb128 0x17
 5074 1ba6 BF190000 		.4byte	.LASF648
 5075 1baa 11       		.byte	0x11
 5076 1bab 1602     		.2byte	0x216
 5077 1bad 3C1C0000 		.4byte	0x1c3c
 5078 1bb1 18       		.byte	0x18
 5079 1bb2 17       		.uleb128 0x17
 5080 1bb3 53260000 		.4byte	.LASF649
 5081 1bb7 11       		.byte	0x11
 5082 1bb8 1902     		.2byte	0x219
 5083 1bba B3120000 		.4byte	0x12b3
 5084 1bbe 1C       		.byte	0x1c
 5085 1bbf 17       		.uleb128 0x17
 5086 1bc0 072C0000 		.4byte	.LASF650
 5087 1bc4 11       		.byte	0x11
 5088 1bc5 1C02     		.2byte	0x21c
 5089 1bc7 0A1A0000 		.4byte	0x1a0a
 5090 1bcb 20       		.byte	0x20
 5091 1bcc 17       		.uleb128 0x17
 5092 1bcd 8A340000 		.4byte	.LASF651
 5093 1bd1 11       		.byte	0x11
 5094 1bd2 1F02     		.2byte	0x21f
 5095 1bd4 471C0000 		.4byte	0x1c47
 5096 1bd8 24       		.byte	0x24
 5097 1bd9 17       		.uleb128 0x17
 5098 1bda 422F0000 		.4byte	.LASF652
 5099 1bde 11       		.byte	0x11
 5100 1bdf 2202     		.2byte	0x222
ARM GAS  C:\Users\salaz\AppData\Local\Temp\ccu2LhKM.s 			page 139


 5101 1be1 4D1C0000 		.4byte	0x1c4d
 5102 1be5 28       		.byte	0x28
 5103 1be6 17       		.uleb128 0x17
 5104 1be7 C1070000 		.4byte	.LASF653
 5105 1beb 11       		.byte	0x11
 5106 1bec 2602     		.2byte	0x226
 5107 1bee 4D1A0000 		.4byte	0x1a4d
 5108 1bf2 2C       		.byte	0x2c
 5109 1bf3 17       		.uleb128 0x17
 5110 1bf4 EF390000 		.4byte	.LASF654
 5111 1bf8 11       		.byte	0x11
 5112 1bf9 2902     		.2byte	0x229
 5113 1bfb 581C0000 		.4byte	0x1c58
 5114 1bff 30       		.byte	0x30
 5115 1c00 17       		.uleb128 0x17
 5116 1c01 73210000 		.4byte	.LASF655
 5117 1c05 11       		.byte	0x11
 5118 1c06 2D02     		.2byte	0x22d
 5119 1c08 5E1C0000 		.4byte	0x1c5e
 5120 1c0c 34       		.byte	0x34
 5121 1c0d 00       		.byte	0
 5122 1c0e 18       		.uleb128 0x18
 5123 1c0f 04       		.byte	0x4
 5124 1c10 C3160000 		.4byte	0x16c3
 5125 1c14 18       		.uleb128 0x18
 5126 1c15 04       		.byte	0x4
 5127 1c16 31180000 		.4byte	0x1831
 5128 1c1a 18       		.uleb128 0x18
 5129 1c1b 04       		.byte	0x4
 5130 1c1c 4F150000 		.4byte	0x154f
 5131 1c20 18       		.uleb128 0x18
 5132 1c21 04       		.byte	0x4
 5133 1c22 D6180000 		.4byte	0x18d6
 5134 1c26 18       		.uleb128 0x18
 5135 1c27 04       		.byte	0x4
 5136 1c28 2C1C0000 		.4byte	0x1c2c
 5137 1c2c 0B       		.uleb128 0xb
 5138 1c2d DE1A0000 		.4byte	0x1ade
 5139 1c31 18       		.uleb128 0x18
 5140 1c32 04       		.byte	0x4
 5141 1c33 371C0000 		.4byte	0x1c37
 5142 1c37 0B       		.uleb128 0xb
 5143 1c38 421A0000 		.4byte	0x1a42
 5144 1c3c 18       		.uleb128 0x18
 5145 1c3d 04       		.byte	0x4
 5146 1c3e 421C0000 		.4byte	0x1c42
 5147 1c42 0B       		.uleb128 0xb
 5148 1c43 C1170000 		.4byte	0x17c1
 5149 1c47 18       		.uleb128 0x18
 5150 1c48 04       		.byte	0x4
 5151 1c49 DA140000 		.4byte	0x14da
 5152 1c4d 18       		.uleb128 0x18
 5153 1c4e 04       		.byte	0x4
 5154 1c4f 531C0000 		.4byte	0x1c53
 5155 1c53 0B       		.uleb128 0xb
 5156 1c54 421B0000 		.4byte	0x1b42
 5157 1c58 18       		.uleb128 0x18
ARM GAS  C:\Users\salaz\AppData\Local\Temp\ccu2LhKM.s 			page 140


 5158 1c59 04       		.byte	0x4
 5159 1c5a 46140000 		.4byte	0x1446
 5160 1c5e 18       		.uleb128 0x18
 5161 1c5f 04       		.byte	0x4
 5162 1c60 641C0000 		.4byte	0x1c64
 5163 1c64 0B       		.uleb128 0xb
 5164 1c65 0A0E0000 		.4byte	0xe0a
 5165 1c69 09       		.uleb128 0x9
 5166 1c6a 3F2E0000 		.4byte	.LASF656
 5167 1c6e 11       		.byte	0x11
 5168 1c6f 4402     		.2byte	0x244
 5169 1c71 4E1B0000 		.4byte	0x1b4e
 5170 1c75 12       		.uleb128 0x12
 5171 1c76 04       		.byte	0x4
 5172 1c77 12       		.byte	0x12
 5173 1c78 3B       		.byte	0x3b
 5174 1c79 961C0000 		.4byte	0x1c96
 5175 1c7d 0D       		.uleb128 0xd
 5176 1c7e 87250000 		.4byte	.LASF657
 5177 1c82 12       		.byte	0x12
 5178 1c83 3E       		.byte	0x3e
 5179 1c84 85130000 		.4byte	0x1385
 5180 1c88 00       		.byte	0
 5181 1c89 0D       		.uleb128 0xd
 5182 1c8a 44320000 		.4byte	.LASF658
 5183 1c8e 12       		.byte	0x12
 5184 1c8f 41       		.byte	0x41
 5185 1c90 961C0000 		.4byte	0x1c96
 5186 1c94 02       		.byte	0x2
 5187 1c95 00       		.byte	0
 5188 1c96 0F       		.uleb128 0xf
 5189 1c97 85130000 		.4byte	0x1385
 5190 1c9b A61C0000 		.4byte	0x1ca6
 5191 1c9f 10       		.uleb128 0x10
 5192 1ca0 9E000000 		.4byte	0x9e
 5193 1ca4 00       		.byte	0
 5194 1ca5 00       		.byte	0
 5195 1ca6 04       		.uleb128 0x4
 5196 1ca7 F8370000 		.4byte	.LASF659
 5197 1cab 12       		.byte	0x12
 5198 1cac 43       		.byte	0x43
 5199 1cad 751C0000 		.4byte	0x1c75
 5200 1cb1 12       		.uleb128 0x12
 5201 1cb2 0E       		.byte	0xe
 5202 1cb3 12       		.byte	0x12
 5203 1cb4 46       		.byte	0x46
 5204 1cb5 D21C0000 		.4byte	0x1cd2
 5205 1cb9 0D       		.uleb128 0xd
 5206 1cba 862F0000 		.4byte	.LASF660
 5207 1cbe 12       		.byte	0x12
 5208 1cbf 49       		.byte	0x49
 5209 1cc0 85130000 		.4byte	0x1385
 5210 1cc4 00       		.byte	0
 5211 1cc5 0D       		.uleb128 0xd
 5212 1cc6 34090000 		.4byte	.LASF661
 5213 1cca 12       		.byte	0x12
 5214 1ccb 4C       		.byte	0x4c
ARM GAS  C:\Users\salaz\AppData\Local\Temp\ccu2LhKM.s 			page 141


 5215 1ccc D21C0000 		.4byte	0x1cd2
 5216 1cd0 02       		.byte	0x2
 5217 1cd1 00       		.byte	0
 5218 1cd2 0F       		.uleb128 0xf
 5219 1cd3 A61C0000 		.4byte	0x1ca6
 5220 1cd7 E21C0000 		.4byte	0x1ce2
 5221 1cdb 10       		.uleb128 0x10
 5222 1cdc 9E000000 		.4byte	0x9e
 5223 1ce0 02       		.byte	0x2
 5224 1ce1 00       		.byte	0
 5225 1ce2 04       		.uleb128 0x4
 5226 1ce3 BF090000 		.4byte	.LASF662
 5227 1ce7 12       		.byte	0x12
 5228 1ce8 4E       		.byte	0x4e
 5229 1ce9 B11C0000 		.4byte	0x1cb1
 5230 1ced 12       		.uleb128 0x12
 5231 1cee 04       		.byte	0x4
 5232 1cef 12       		.byte	0x12
 5233 1cf0 90       		.byte	0x90
 5234 1cf1 021D0000 		.4byte	0x1d02
 5235 1cf5 0D       		.uleb128 0xd
 5236 1cf6 87000000 		.4byte	.LASF663
 5237 1cfa 12       		.byte	0x12
 5238 1cfb 94       		.byte	0x94
 5239 1cfc 021D0000 		.4byte	0x1d02
 5240 1d00 00       		.byte	0
 5241 1d01 00       		.byte	0
 5242 1d02 18       		.uleb128 0x18
 5243 1d03 04       		.byte	0x4
 5244 1d04 081D0000 		.4byte	0x1d08
 5245 1d08 0B       		.uleb128 0xb
 5246 1d09 E21C0000 		.4byte	0x1ce2
 5247 1d0d 04       		.uleb128 0x4
 5248 1d0e 10070000 		.4byte	.LASF664
 5249 1d12 12       		.byte	0x12
 5250 1d13 9B       		.byte	0x9b
 5251 1d14 ED1C0000 		.4byte	0x1ced
 5252 1d18 1F       		.uleb128 0x1f
 5253 1d19 B1280000 		.4byte	.LASF665
 5254 1d1d 02       		.byte	0x2
 5255 1d1e 6A03     		.2byte	0x36a
 5256 1d20 65170000 		.4byte	0x1765
 5257 1d24 03       		.byte	0x3
 5258 1d25 361D0000 		.4byte	0x1d36
 5259 1d29 20       		.uleb128 0x20
 5260 1d2a 56330000 		.4byte	.LASF668
 5261 1d2e 02       		.byte	0x2
 5262 1d2f 6A03     		.2byte	0x36a
 5263 1d31 26130000 		.4byte	0x1326
 5264 1d35 00       		.byte	0
 5265 1d36 1F       		.uleb128 0x1f
 5266 1d37 1E330000 		.4byte	.LASF666
 5267 1d3b 02       		.byte	0x2
 5268 1d3c 9303     		.2byte	0x393
 5269 1d3e B9000000 		.4byte	0xb9
 5270 1d42 03       		.byte	0x3
 5271 1d43 5E1D0000 		.4byte	0x1d5e
ARM GAS  C:\Users\salaz\AppData\Local\Temp\ccu2LhKM.s 			page 142


 5272 1d47 21       		.uleb128 0x21
 5273 1d48 6900     		.ascii	"i\000"
 5274 1d4a 02       		.byte	0x2
 5275 1d4b 9503     		.2byte	0x395
 5276 1d4d CF000000 		.4byte	0xcf
 5277 1d51 22       		.uleb128 0x22
 5278 1d52 C51E0000 		.4byte	.LASF667
 5279 1d56 02       		.byte	0x2
 5280 1d57 9603     		.2byte	0x396
 5281 1d59 B9000000 		.4byte	0xb9
 5282 1d5d 00       		.byte	0
 5283 1d5e 23       		.uleb128 0x23
 5284 1d5f 60160000 		.4byte	.LASF742
 5285 1d63 02       		.byte	0x2
 5286 1d64 E702     		.2byte	0x2e7
 5287 1d66 1D170000 		.4byte	0x171d
 5288 1d6a 03       		.byte	0x3
 5289 1d6b 24       		.uleb128 0x24
 5290 1d6c AF210000 		.4byte	.LASF743
 5291 1d70 02       		.byte	0x2
 5292 1d71 F902     		.2byte	0x2f9
 5293 1d73 03       		.byte	0x3
 5294 1d74 851D0000 		.4byte	0x1d85
 5295 1d78 20       		.uleb128 0x20
 5296 1d79 42050000 		.4byte	.LASF669
 5297 1d7d 02       		.byte	0x2
 5298 1d7e F902     		.2byte	0x2f9
 5299 1d80 1D170000 		.4byte	0x171d
 5300 1d84 00       		.byte	0
 5301 1d85 25       		.uleb128 0x25
 5302 1d86 E22E0000 		.4byte	.LASF744
 5303 1d8a 01       		.byte	0x1
 5304 1d8b FF04     		.2byte	0x4ff
 5305 1d8d 00000000 		.4byte	.LFB165
 5306 1d91 80000000 		.4byte	.LFE165-.LFB165
 5307 1d95 01       		.uleb128 0x1
 5308 1d96 9C       		.byte	0x9c
 5309 1d97 251E0000 		.4byte	0x1e25
 5310 1d9b 26       		.uleb128 0x26
 5311 1d9c B8360000 		.4byte	.LASF670
 5312 1da0 01       		.byte	0x1
 5313 1da1 FF04     		.2byte	0x4ff
 5314 1da3 251E0000 		.4byte	0x1e25
 5315 1da7 01       		.uleb128 0x1
 5316 1da8 50       		.byte	0x50
 5317 1da9 27       		.uleb128 0x27
 5318 1daa F7330000 		.4byte	.LASF671
 5319 1dae 01       		.byte	0x1
 5320 1daf 0005     		.2byte	0x500
 5321 1db1 B9000000 		.4byte	0xb9
 5322 1db5 00000000 		.4byte	.LLST0
 5323 1db9 28       		.uleb128 0x28
 5324 1dba 6900     		.ascii	"i\000"
 5325 1dbc 01       		.byte	0x1
 5326 1dbd 0205     		.2byte	0x502
 5327 1dbf CF000000 		.4byte	0xcf
 5328 1dc3 3A000000 		.4byte	.LLST1
ARM GAS  C:\Users\salaz\AppData\Local\Temp\ccu2LhKM.s 			page 143


 5329 1dc7 29       		.uleb128 0x29
 5330 1dc8 21090000 		.4byte	.LASF672
 5331 1dcc 01       		.byte	0x1
 5332 1dcd 0305     		.2byte	0x503
 5333 1dcf B9000000 		.4byte	0xb9
 5334 1dd3 58000000 		.4byte	.LLST2
 5335 1dd7 29       		.uleb128 0x29
 5336 1dd8 4F420000 		.4byte	.LASF673
 5337 1ddc 01       		.byte	0x1
 5338 1ddd 0405     		.2byte	0x504
 5339 1ddf B9000000 		.4byte	0xb9
 5340 1de3 77000000 		.4byte	.LLST3
 5341 1de7 29       		.uleb128 0x29
 5342 1de8 7D3C0000 		.4byte	.LASF674
 5343 1dec 01       		.byte	0x1
 5344 1ded 0505     		.2byte	0x505
 5345 1def B9000000 		.4byte	0xb9
 5346 1df3 AC000000 		.4byte	.LLST4
 5347 1df7 29       		.uleb128 0x29
 5348 1df8 0E2C0000 		.4byte	.LASF675
 5349 1dfc 01       		.byte	0x1
 5350 1dfd 0605     		.2byte	0x506
 5351 1dff B3120000 		.4byte	0x12b3
 5352 1e03 E1000000 		.4byte	.LLST5
 5353 1e07 29       		.uleb128 0x29
 5354 1e08 1D1B0000 		.4byte	.LASF676
 5355 1e0c 01       		.byte	0x1
 5356 1e0d 0705     		.2byte	0x507
 5357 1e0f B9000000 		.4byte	0xb9
 5358 1e13 FF000000 		.4byte	.LLST6
 5359 1e17 2A       		.uleb128 0x2a
 5360 1e18 B7130000 		.4byte	.LASF677
 5361 1e1c 01       		.byte	0x1
 5362 1e1d 0805     		.2byte	0x508
 5363 1e1f B9000000 		.4byte	0xb9
 5364 1e23 00       		.byte	0
 5365 1e24 00       		.byte	0
 5366 1e25 18       		.uleb128 0x18
 5367 1e26 04       		.byte	0x4
 5368 1e27 2B1E0000 		.4byte	0x1e2b
 5369 1e2b 0B       		.uleb128 0xb
 5370 1e2c D10D0000 		.4byte	0xdd1
 5371 1e30 2B       		.uleb128 0x2b
 5372 1e31 BD360000 		.4byte	.LASF699
 5373 1e35 01       		.byte	0x1
 5374 1e36 71       		.byte	0x71
 5375 1e37 00000000 		.4byte	.LFB158
 5376 1e3b 10000000 		.4byte	.LFE158-.LFB158
 5377 1e3f 01       		.uleb128 0x1
 5378 1e40 9C       		.byte	0x9c
 5379 1e41 4F1E0000 		.4byte	0x1e4f
 5380 1e45 2C       		.uleb128 0x2c
 5381 1e46 08000000 		.4byte	.LVL25
 5382 1e4a 2A280000 		.4byte	0x282a
 5383 1e4e 00       		.byte	0
 5384 1e4f 2D       		.uleb128 0x2d
 5385 1e50 AD380000 		.4byte	.LASF685
ARM GAS  C:\Users\salaz\AppData\Local\Temp\ccu2LhKM.s 			page 144


 5386 1e54 01       		.byte	0x1
 5387 1e55 5101     		.2byte	0x151
 5388 1e57 67120000 		.4byte	0x1267
 5389 1e5b 00000000 		.4byte	.LFB159
 5390 1e5f FC000000 		.4byte	.LFE159-.LFB159
 5391 1e63 01       		.uleb128 0x1
 5392 1e64 9C       		.byte	0x9c
 5393 1e65 1A1F0000 		.4byte	0x1f1a
 5394 1e69 27       		.uleb128 0x27
 5395 1e6a 692B0000 		.4byte	.LASF678
 5396 1e6e 01       		.byte	0x1
 5397 1e6f 5101     		.2byte	0x151
 5398 1e71 1A1F0000 		.4byte	0x1f1a
 5399 1e75 1D010000 		.4byte	.LLST7
 5400 1e79 2E       		.uleb128 0x2e
 5401 1e7a E0070000 		.4byte	.LASF679
 5402 1e7e 01       		.byte	0x1
 5403 1e7f 5301     		.2byte	0x153
 5404 1e81 67120000 		.4byte	0x1267
 5405 1e85 05       		.uleb128 0x5
 5406 1e86 03       		.byte	0x3
 5407 1e87 00000000 		.4byte	storeState.12745
 5408 1e8b 2E       		.uleb128 0x2e
 5409 1e8c 443E0000 		.4byte	.LASF680
 5410 1e90 01       		.byte	0x1
 5411 1e91 5401     		.2byte	0x154
 5412 1e93 CF000000 		.4byte	0xcf
 5413 1e97 05       		.uleb128 0x5
 5414 1e98 03       		.byte	0x3
 5415 1e99 04000000 		.4byte	tLength.12746
 5416 1e9d 2F       		.uleb128 0x2f
 5417 1e9e 18000000 		.4byte	.LBB22
 5418 1ea2 C8000000 		.4byte	.LBE22-.LBB22
 5419 1ea6 29       		.uleb128 0x29
 5420 1ea7 E42C0000 		.4byte	.LASF681
 5421 1eab 01       		.byte	0x1
 5422 1eac 5D01     		.2byte	0x15d
 5423 1eae B3120000 		.4byte	0x12b3
 5424 1eb2 49010000 		.4byte	.LLST8
 5425 1eb6 29       		.uleb128 0x29
 5426 1eb7 7D370000 		.4byte	.LASF682
 5427 1ebb 01       		.byte	0x1
 5428 1ebc 5E01     		.2byte	0x15e
 5429 1ebe CF000000 		.4byte	0xcf
 5430 1ec2 5C010000 		.4byte	.LLST9
 5431 1ec6 29       		.uleb128 0x29
 5432 1ec7 192C0000 		.4byte	.LASF683
 5433 1ecb 01       		.byte	0x1
 5434 1ecc 5F01     		.2byte	0x15f
 5435 1ece CF000000 		.4byte	0xcf
 5436 1ed2 7A010000 		.4byte	.LLST10
 5437 1ed6 29       		.uleb128 0x29
 5438 1ed7 BA340000 		.4byte	.LASF684
 5439 1edb 01       		.byte	0x1
 5440 1edc 6001     		.2byte	0x160
 5441 1ede 6E1A0000 		.4byte	0x1a6e
 5442 1ee2 B4010000 		.4byte	.LLST11
ARM GAS  C:\Users\salaz\AppData\Local\Temp\ccu2LhKM.s 			page 145


 5443 1ee6 30       		.uleb128 0x30
 5444 1ee7 9C000000 		.4byte	.LVL39
 5445 1eeb 35280000 		.4byte	0x2835
 5446 1eef 0F1F0000 		.4byte	0x1f0f
 5447 1ef3 31       		.uleb128 0x31
 5448 1ef4 01       		.uleb128 0x1
 5449 1ef5 50       		.byte	0x50
 5450 1ef6 02       		.uleb128 0x2
 5451 1ef7 76       		.byte	0x76
 5452 1ef8 00       		.sleb128 0
 5453 1ef9 31       		.uleb128 0x31
 5454 1efa 01       		.uleb128 0x1
 5455 1efb 51       		.byte	0x51
 5456 1efc 06       		.uleb128 0x6
 5457 1efd 75       		.byte	0x75
 5458 1efe 80808080 		.sleb128 268435456
 5458      01
 5459 1f03 31       		.uleb128 0x31
 5460 1f04 01       		.uleb128 0x1
 5461 1f05 52       		.byte	0x52
 5462 1f06 02       		.uleb128 0x2
 5463 1f07 74       		.byte	0x74
 5464 1f08 00       		.sleb128 0
 5465 1f09 31       		.uleb128 0x31
 5466 1f0a 01       		.uleb128 0x1
 5467 1f0b 53       		.byte	0x53
 5468 1f0c 01       		.uleb128 0x1
 5469 1f0d 30       		.byte	0x30
 5470 1f0e 00       		.byte	0
 5471 1f0f 2C       		.uleb128 0x2c
 5472 1f10 D2000000 		.4byte	.LVL47
 5473 1f14 40280000 		.4byte	0x2840
 5474 1f18 00       		.byte	0
 5475 1f19 00       		.byte	0
 5476 1f1a 18       		.uleb128 0x18
 5477 1f1b 04       		.byte	0x4
 5478 1f1c 201F0000 		.4byte	0x1f20
 5479 1f20 0B       		.uleb128 0xb
 5480 1f21 20190000 		.4byte	0x1920
 5481 1f25 2D       		.uleb128 0x2d
 5482 1f26 690B0000 		.4byte	.LASF686
 5483 1f2a 01       		.byte	0x1
 5484 1f2b C901     		.2byte	0x1c9
 5485 1f2d 67120000 		.4byte	0x1267
 5486 1f31 00000000 		.4byte	.LFB160
 5487 1f35 A4010000 		.4byte	.LFE160-.LFB160
 5488 1f39 01       		.uleb128 0x1
 5489 1f3a 9C       		.byte	0x9c
 5490 1f3b 43210000 		.4byte	0x2143
 5491 1f3f 29       		.uleb128 0x29
 5492 1f40 C3340000 		.4byte	.LASF687
 5493 1f44 01       		.byte	0x1
 5494 1f45 CB01     		.2byte	0x1cb
 5495 1f47 67120000 		.4byte	0x1267
 5496 1f4b F6010000 		.4byte	.LLST12
 5497 1f4f 32       		.uleb128 0x32
 5498 1f50 0C000000 		.4byte	.LBB23
ARM GAS  C:\Users\salaz\AppData\Local\Temp\ccu2LhKM.s 			page 146


 5499 1f54 20000000 		.4byte	.LBE23-.LBB23
 5500 1f58 7E1F0000 		.4byte	0x1f7e
 5501 1f5c 2E       		.uleb128 0x2e
 5502 1f5d 633B0000 		.4byte	.LASF688
 5503 1f61 01       		.byte	0x1
 5504 1f62 D001     		.2byte	0x1d0
 5505 1f64 49130000 		.4byte	0x1349
 5506 1f68 03       		.uleb128 0x3
 5507 1f69 91       		.byte	0x91
 5508 1f6a CC7E     		.sleb128 -180
 5509 1f6c 33       		.uleb128 0x33
 5510 1f6d 16000000 		.4byte	.LVL51
 5511 1f71 4C280000 		.4byte	0x284c
 5512 1f75 31       		.uleb128 0x31
 5513 1f76 01       		.uleb128 0x1
 5514 1f77 50       		.byte	0x50
 5515 1f78 03       		.uleb128 0x3
 5516 1f79 91       		.byte	0x91
 5517 1f7a CC7E     		.sleb128 -180
 5518 1f7c 00       		.byte	0
 5519 1f7d 00       		.byte	0
 5520 1f7e 32       		.uleb128 0x32
 5521 1f7f 3A000000 		.4byte	.LBB24
 5522 1f83 92000000 		.4byte	.LBE24-.LBB24
 5523 1f87 25200000 		.4byte	0x2025
 5524 1f8b 28       		.uleb128 0x28
 5525 1f8c 6900     		.ascii	"i\000"
 5526 1f8e 01       		.byte	0x1
 5527 1f8f E901     		.2byte	0x1e9
 5528 1f91 CF000000 		.4byte	0xcf
 5529 1f95 89020000 		.4byte	.LLST13
 5530 1f99 2E       		.uleb128 0x2e
 5531 1f9a 5B0B0000 		.4byte	.LASF689
 5532 1f9e 01       		.byte	0x1
 5533 1f9f EA01     		.2byte	0x1ea
 5534 1fa1 20190000 		.4byte	0x1920
 5535 1fa5 03       		.uleb128 0x3
 5536 1fa6 91       		.byte	0x91
 5537 1fa7 CC7E     		.sleb128 -180
 5538 1fa9 34       		.uleb128 0x34
 5539 1faa 181D0000 		.4byte	0x1d18
 5540 1fae 5A000000 		.4byte	.LBB25
 5541 1fb2 10000000 		.4byte	.LBE25-.LBB25
 5542 1fb6 01       		.byte	0x1
 5543 1fb7 F201     		.2byte	0x1f2
 5544 1fb9 C71F0000 		.4byte	0x1fc7
 5545 1fbd 35       		.uleb128 0x35
 5546 1fbe 291D0000 		.4byte	0x1d29
 5547 1fc2 03       		.uleb128 0x3
 5548 1fc3 91       		.byte	0x91
 5549 1fc4 B87E     		.sleb128 -200
 5550 1fc6 00       		.byte	0
 5551 1fc7 32       		.uleb128 0x32
 5552 1fc8 76000000 		.4byte	.LBB27
 5553 1fcc 42000000 		.4byte	.LBE27-.LBB27
 5554 1fd0 09200000 		.4byte	0x2009
 5555 1fd4 29       		.uleb128 0x29
ARM GAS  C:\Users\salaz\AppData\Local\Temp\ccu2LhKM.s 			page 147


 5556 1fd5 27090000 		.4byte	.LASF690
 5557 1fd9 01       		.byte	0x1
 5558 1fda F501     		.2byte	0x1f5
 5559 1fdc B9000000 		.4byte	0xb9
 5560 1fe0 A8020000 		.4byte	.LLST14
 5561 1fe4 30       		.uleb128 0x30
 5562 1fe5 A2000000 		.4byte	.LVL61
 5563 1fe9 58280000 		.4byte	0x2858
 5564 1fed F71F0000 		.4byte	0x1ff7
 5565 1ff1 31       		.uleb128 0x31
 5566 1ff2 01       		.uleb128 0x1
 5567 1ff3 51       		.byte	0x51
 5568 1ff4 01       		.uleb128 0x1
 5569 1ff5 38       		.byte	0x38
 5570 1ff6 00       		.byte	0
 5571 1ff7 33       		.uleb128 0x33
 5572 1ff8 B4000000 		.4byte	.LVL63
 5573 1ffc 4F1E0000 		.4byte	0x1e4f
 5574 2000 31       		.uleb128 0x31
 5575 2001 01       		.uleb128 0x1
 5576 2002 50       		.byte	0x50
 5577 2003 03       		.uleb128 0x3
 5578 2004 91       		.byte	0x91
 5579 2005 CC7E     		.sleb128 -180
 5580 2007 00       		.byte	0
 5581 2008 00       		.byte	0
 5582 2009 33       		.uleb128 0x33
 5583 200a 44000000 		.4byte	.LVL56
 5584 200e 63280000 		.4byte	0x2863
 5585 2012 31       		.uleb128 0x31
 5586 2013 01       		.uleb128 0x1
 5587 2014 50       		.byte	0x50
 5588 2015 03       		.uleb128 0x3
 5589 2016 91       		.byte	0x91
 5590 2017 CC7E     		.sleb128 -180
 5591 2019 31       		.uleb128 0x31
 5592 201a 01       		.uleb128 0x1
 5593 201b 51       		.byte	0x51
 5594 201c 01       		.uleb128 0x1
 5595 201d 30       		.byte	0x30
 5596 201e 31       		.uleb128 0x31
 5597 201f 01       		.uleb128 0x1
 5598 2020 52       		.byte	0x52
 5599 2021 01       		.uleb128 0x1
 5600 2022 40       		.byte	0x40
 5601 2023 00       		.byte	0
 5602 2024 00       		.byte	0
 5603 2025 32       		.uleb128 0x32
 5604 2026 DE000000 		.4byte	.LBB28
 5605 202a 3E000000 		.4byte	.LBE28-.LBB28
 5606 202e A3200000 		.4byte	0x20a3
 5607 2032 2E       		.uleb128 0x2e
 5608 2033 48250000 		.4byte	.LASF691
 5609 2037 01       		.byte	0x1
 5610 2038 1402     		.2byte	0x214
 5611 203a C81A0000 		.4byte	0x1ac8
 5612 203e 03       		.uleb128 0x3
ARM GAS  C:\Users\salaz\AppData\Local\Temp\ccu2LhKM.s 			page 148


 5613 203f 91       		.byte	0x91
 5614 2040 CC7E     		.sleb128 -180
 5615 2042 2E       		.uleb128 0x2e
 5616 2043 5B0B0000 		.4byte	.LASF689
 5617 2047 01       		.byte	0x1
 5618 2048 1502     		.2byte	0x215
 5619 204a 20190000 		.4byte	0x1920
 5620 204e 03       		.uleb128 0x3
 5621 204f 91       		.byte	0x91
 5622 2050 BC7E     		.sleb128 -196
 5623 2052 30       		.uleb128 0x30
 5624 2053 E8000000 		.4byte	.LVL68
 5625 2057 63280000 		.4byte	0x2863
 5626 205b 71200000 		.4byte	0x2071
 5627 205f 31       		.uleb128 0x31
 5628 2060 01       		.uleb128 0x1
 5629 2061 50       		.byte	0x50
 5630 2062 03       		.uleb128 0x3
 5631 2063 91       		.byte	0x91
 5632 2064 BC7E     		.sleb128 -196
 5633 2066 31       		.uleb128 0x31
 5634 2067 01       		.uleb128 0x1
 5635 2068 51       		.byte	0x51
 5636 2069 01       		.uleb128 0x1
 5637 206a 30       		.byte	0x30
 5638 206b 31       		.uleb128 0x31
 5639 206c 01       		.uleb128 0x1
 5640 206d 52       		.byte	0x52
 5641 206e 01       		.uleb128 0x1
 5642 206f 40       		.byte	0x40
 5643 2070 00       		.byte	0
 5644 2071 30       		.uleb128 0x30
 5645 2072 06010000 		.4byte	.LVL69
 5646 2076 63280000 		.4byte	0x2863
 5647 207a 91200000 		.4byte	0x2091
 5648 207e 31       		.uleb128 0x31
 5649 207f 01       		.uleb128 0x1
 5650 2080 50       		.byte	0x50
 5651 2081 03       		.uleb128 0x3
 5652 2082 91       		.byte	0x91
 5653 2083 CC7E     		.sleb128 -180
 5654 2085 31       		.uleb128 0x31
 5655 2086 01       		.uleb128 0x1
 5656 2087 51       		.byte	0x51
 5657 2088 01       		.uleb128 0x1
 5658 2089 30       		.byte	0x30
 5659 208a 31       		.uleb128 0x31
 5660 208b 01       		.uleb128 0x1
 5661 208c 52       		.byte	0x52
 5662 208d 02       		.uleb128 0x2
 5663 208e 08       		.byte	0x8
 5664 208f 99       		.byte	0x99
 5665 2090 00       		.byte	0
 5666 2091 33       		.uleb128 0x33
 5667 2092 0C010000 		.4byte	.LVL70
 5668 2096 4F1E0000 		.4byte	0x1e4f
 5669 209a 31       		.uleb128 0x31
ARM GAS  C:\Users\salaz\AppData\Local\Temp\ccu2LhKM.s 			page 149


 5670 209b 01       		.uleb128 0x1
 5671 209c 50       		.byte	0x50
 5672 209d 03       		.uleb128 0x3
 5673 209e 91       		.byte	0x91
 5674 209f BC7E     		.sleb128 -196
 5675 20a1 00       		.byte	0
 5676 20a2 00       		.byte	0
 5677 20a3 32       		.uleb128 0x32
 5678 20a4 1C010000 		.4byte	.LBB29
 5679 20a8 4A000000 		.4byte	.LBE29-.LBB29
 5680 20ac 1F210000 		.4byte	0x211f
 5681 20b0 2E       		.uleb128 0x2e
 5682 20b1 48250000 		.4byte	.LASF691
 5683 20b5 01       		.byte	0x1
 5684 20b6 2602     		.2byte	0x226
 5685 20b8 43210000 		.4byte	0x2143
 5686 20bc 03       		.uleb128 0x3
 5687 20bd 91       		.byte	0x91
 5688 20be BC7E     		.sleb128 -196
 5689 20c0 2E       		.uleb128 0x2e
 5690 20c1 5B0B0000 		.4byte	.LASF689
 5691 20c5 01       		.byte	0x1
 5692 20c6 2702     		.2byte	0x227
 5693 20c8 20190000 		.4byte	0x1920
 5694 20cc 03       		.uleb128 0x3
 5695 20cd 91       		.byte	0x91
 5696 20ce CC7E     		.sleb128 -180
 5697 20d0 30       		.uleb128 0x30
 5698 20d1 28010000 		.4byte	.LVL74
 5699 20d5 63280000 		.4byte	0x2863
 5700 20d9 EE200000 		.4byte	0x20ee
 5701 20dd 31       		.uleb128 0x31
 5702 20de 01       		.uleb128 0x1
 5703 20df 50       		.byte	0x50
 5704 20e0 02       		.uleb128 0x2
 5705 20e1 74       		.byte	0x74
 5706 20e2 00       		.sleb128 0
 5707 20e3 31       		.uleb128 0x31
 5708 20e4 01       		.uleb128 0x1
 5709 20e5 51       		.byte	0x51
 5710 20e6 01       		.uleb128 0x1
 5711 20e7 30       		.byte	0x30
 5712 20e8 31       		.uleb128 0x31
 5713 20e9 01       		.uleb128 0x1
 5714 20ea 52       		.byte	0x52
 5715 20eb 01       		.uleb128 0x1
 5716 20ec 39       		.byte	0x39
 5717 20ed 00       		.byte	0
 5718 20ee 30       		.uleb128 0x30
 5719 20ef 32010000 		.4byte	.LVL75
 5720 20f3 63280000 		.4byte	0x2863
 5721 20f7 0D210000 		.4byte	0x210d
 5722 20fb 31       		.uleb128 0x31
 5723 20fc 01       		.uleb128 0x1
 5724 20fd 50       		.byte	0x50
 5725 20fe 03       		.uleb128 0x3
 5726 20ff 91       		.byte	0x91
ARM GAS  C:\Users\salaz\AppData\Local\Temp\ccu2LhKM.s 			page 150


 5727 2100 CC7E     		.sleb128 -180
 5728 2102 31       		.uleb128 0x31
 5729 2103 01       		.uleb128 0x1
 5730 2104 51       		.byte	0x51
 5731 2105 01       		.uleb128 0x1
 5732 2106 30       		.byte	0x30
 5733 2107 31       		.uleb128 0x31
 5734 2108 01       		.uleb128 0x1
 5735 2109 52       		.byte	0x52
 5736 210a 01       		.uleb128 0x1
 5737 210b 40       		.byte	0x40
 5738 210c 00       		.byte	0
 5739 210d 33       		.uleb128 0x33
 5740 210e 58010000 		.4byte	.LVL76
 5741 2112 4F1E0000 		.4byte	0x1e4f
 5742 2116 31       		.uleb128 0x31
 5743 2117 01       		.uleb128 0x1
 5744 2118 50       		.byte	0x50
 5745 2119 03       		.uleb128 0x3
 5746 211a 91       		.byte	0x91
 5747 211b CC7E     		.sleb128 -180
 5748 211d 00       		.byte	0
 5749 211e 00       		.byte	0
 5750 211f 33       		.uleb128 0x33
 5751 2120 5A000000 		.4byte	.LVL59
 5752 2124 6C280000 		.4byte	0x286c
 5753 2128 31       		.uleb128 0x31
 5754 2129 01       		.uleb128 0x1
 5755 212a 50       		.byte	0x50
 5756 212b 02       		.uleb128 0x2
 5757 212c 7D       		.byte	0x7d
 5758 212d 00       		.sleb128 0
 5759 212e 31       		.uleb128 0x31
 5760 212f 01       		.uleb128 0x1
 5761 2130 51       		.byte	0x51
 5762 2131 0A       		.uleb128 0xa
 5763 2132 75       		.byte	0x75
 5764 2133 00       		.sleb128 0
 5765 2134 31       		.byte	0x31
 5766 2135 24       		.byte	0x24
 5767 2136 03       		.byte	0x3
 5768 2137 00000000 		.4byte	cy_ble_connHandle
 5769 213b 22       		.byte	0x22
 5770 213c 31       		.uleb128 0x31
 5771 213d 01       		.uleb128 0x1
 5772 213e 52       		.byte	0x52
 5773 213f 01       		.uleb128 0x1
 5774 2140 32       		.byte	0x32
 5775 2141 00       		.byte	0
 5776 2142 00       		.byte	0
 5777 2143 0F       		.uleb128 0xf
 5778 2144 B9000000 		.4byte	0xb9
 5779 2148 53210000 		.4byte	0x2153
 5780 214c 10       		.uleb128 0x10
 5781 214d 9E000000 		.4byte	0x9e
 5782 2151 08       		.byte	0x8
 5783 2152 00       		.byte	0
ARM GAS  C:\Users\salaz\AppData\Local\Temp\ccu2LhKM.s 			page 151


 5784 2153 2D       		.uleb128 0x2d
 5785 2154 8B1A0000 		.4byte	.LASF692
 5786 2158 01       		.byte	0x1
 5787 2159 5F02     		.2byte	0x25f
 5788 215b 67120000 		.4byte	0x1267
 5789 215f 00000000 		.4byte	.LFB161
 5790 2163 80000000 		.4byte	.LFE161-.LFB161
 5791 2167 01       		.uleb128 0x1
 5792 2168 9C       		.byte	0x9c
 5793 2169 36220000 		.4byte	0x2236
 5794 216d 27       		.uleb128 0x27
 5795 216e 5C3B0000 		.4byte	.LASF477
 5796 2172 01       		.byte	0x1
 5797 2173 5F02     		.2byte	0x25f
 5798 2175 581C0000 		.4byte	0x1c58
 5799 2179 C7020000 		.4byte	.LLST15
 5800 217d 29       		.uleb128 0x29
 5801 217e C3340000 		.4byte	.LASF687
 5802 2182 01       		.byte	0x1
 5803 2183 6102     		.2byte	0x261
 5804 2185 67120000 		.4byte	0x1267
 5805 2189 1F030000 		.4byte	.LLST16
 5806 218d 2E       		.uleb128 0x2e
 5807 218e 23200000 		.4byte	.LASF693
 5808 2192 01       		.byte	0x1
 5809 2193 6202     		.2byte	0x262
 5810 2195 76140000 		.4byte	0x1476
 5811 2199 02       		.uleb128 0x2
 5812 219a 91       		.byte	0x91
 5813 219b 68       		.sleb128 -24
 5814 219c 2F       		.uleb128 0x2f
 5815 219d 10000000 		.4byte	.LBB30
 5816 21a1 54000000 		.4byte	.LBE30-.LBB30
 5817 21a5 2E       		.uleb128 0x2e
 5818 21a6 F83D0000 		.4byte	.LASF694
 5819 21aa 01       		.byte	0x1
 5820 21ab 6C02     		.2byte	0x26c
 5821 21ad 46140000 		.4byte	0x1446
 5822 21b1 02       		.uleb128 0x2
 5823 21b2 91       		.byte	0x91
 5824 21b3 60       		.sleb128 -32
 5825 21b4 30       		.uleb128 0x30
 5826 21b5 1A000000 		.4byte	.LVL83
 5827 21b9 63280000 		.4byte	0x2863
 5828 21bd D2210000 		.4byte	0x21d2
 5829 21c1 31       		.uleb128 0x31
 5830 21c2 01       		.uleb128 0x1
 5831 21c3 50       		.byte	0x50
 5832 21c4 02       		.uleb128 0x2
 5833 21c5 7D       		.byte	0x7d
 5834 21c6 00       		.sleb128 0
 5835 21c7 31       		.uleb128 0x31
 5836 21c8 01       		.uleb128 0x1
 5837 21c9 51       		.byte	0x51
 5838 21ca 01       		.uleb128 0x1
 5839 21cb 30       		.byte	0x30
 5840 21cc 31       		.uleb128 0x31
ARM GAS  C:\Users\salaz\AppData\Local\Temp\ccu2LhKM.s 			page 152


 5841 21cd 01       		.uleb128 0x1
 5842 21ce 52       		.byte	0x52
 5843 21cf 01       		.uleb128 0x1
 5844 21d0 37       		.byte	0x37
 5845 21d1 00       		.byte	0
 5846 21d2 30       		.uleb128 0x30
 5847 21d3 24000000 		.4byte	.LVL84
 5848 21d7 75280000 		.4byte	0x2875
 5849 21db F1210000 		.4byte	0x21f1
 5850 21df 31       		.uleb128 0x31
 5851 21e0 01       		.uleb128 0x1
 5852 21e1 50       		.byte	0x50
 5853 21e2 02       		.uleb128 0x2
 5854 21e3 74       		.byte	0x74
 5855 21e4 00       		.sleb128 0
 5856 21e5 31       		.uleb128 0x31
 5857 21e6 01       		.uleb128 0x1
 5858 21e7 51       		.byte	0x51
 5859 21e8 02       		.uleb128 0x2
 5860 21e9 7D       		.byte	0x7d
 5861 21ea 00       		.sleb128 0
 5862 21eb 31       		.uleb128 0x31
 5863 21ec 01       		.uleb128 0x1
 5864 21ed 52       		.byte	0x52
 5865 21ee 01       		.uleb128 0x1
 5866 21ef 36       		.byte	0x36
 5867 21f0 00       		.byte	0
 5868 21f1 30       		.uleb128 0x30
 5869 21f2 3C000000 		.4byte	.LVL85
 5870 21f6 6C280000 		.4byte	0x286c
 5871 21fa 10220000 		.4byte	0x2210
 5872 21fe 31       		.uleb128 0x31
 5873 21ff 01       		.uleb128 0x1
 5874 2200 50       		.byte	0x50
 5875 2201 02       		.uleb128 0x2
 5876 2202 91       		.byte	0x91
 5877 2203 68       		.sleb128 -24
 5878 2204 31       		.uleb128 0x31
 5879 2205 01       		.uleb128 0x1
 5880 2206 51       		.byte	0x51
 5881 2207 02       		.uleb128 0x2
 5882 2208 74       		.byte	0x74
 5883 2209 00       		.sleb128 0
 5884 220a 31       		.uleb128 0x31
 5885 220b 01       		.uleb128 0x1
 5886 220c 52       		.byte	0x52
 5887 220d 01       		.uleb128 0x1
 5888 220e 37       		.byte	0x37
 5889 220f 00       		.byte	0
 5890 2210 30       		.uleb128 0x30
 5891 2211 42000000 		.4byte	.LVL86
 5892 2215 80280000 		.4byte	0x2880
 5893 2219 24220000 		.4byte	0x2224
 5894 221d 31       		.uleb128 0x31
 5895 221e 01       		.uleb128 0x1
 5896 221f 50       		.byte	0x50
 5897 2220 02       		.uleb128 0x2
ARM GAS  C:\Users\salaz\AppData\Local\Temp\ccu2LhKM.s 			page 153


 5898 2221 91       		.byte	0x91
 5899 2222 68       		.sleb128 -24
 5900 2223 00       		.byte	0
 5901 2224 33       		.uleb128 0x33
 5902 2225 62000000 		.4byte	.LVL89
 5903 2229 8C280000 		.4byte	0x288c
 5904 222d 31       		.uleb128 0x31
 5905 222e 01       		.uleb128 0x1
 5906 222f 50       		.byte	0x50
 5907 2230 02       		.uleb128 0x2
 5908 2231 74       		.byte	0x74
 5909 2232 00       		.sleb128 0
 5910 2233 00       		.byte	0
 5911 2234 00       		.byte	0
 5912 2235 00       		.byte	0
 5913 2236 2D       		.uleb128 0x2d
 5914 2237 8C220000 		.4byte	.LASF695
 5915 223b 01       		.byte	0x1
 5916 223c CD02     		.2byte	0x2cd
 5917 223e 67120000 		.4byte	0x1267
 5918 2242 00000000 		.4byte	.LFB162
 5919 2246 24010000 		.4byte	.LFE162-.LFB162
 5920 224a 01       		.uleb128 0x1
 5921 224b 9C       		.byte	0x9c
 5922 224c E9220000 		.4byte	0x22e9
 5923 2250 27       		.uleb128 0x27
 5924 2251 FE410000 		.4byte	.LASF696
 5925 2255 01       		.byte	0x1
 5926 2256 CD02     		.2byte	0x2cd
 5927 2258 B9000000 		.4byte	0xb9
 5928 225c 60030000 		.4byte	.LLST17
 5929 2260 27       		.uleb128 0x27
 5930 2261 9A3C0000 		.4byte	.LASF697
 5931 2265 01       		.byte	0x1
 5932 2266 CE02     		.2byte	0x2ce
 5933 2268 B9000000 		.4byte	0xb9
 5934 226c E5030000 		.4byte	.LLST18
 5935 2270 29       		.uleb128 0x29
 5936 2271 C3340000 		.4byte	.LASF687
 5937 2275 01       		.byte	0x1
 5938 2276 D002     		.2byte	0x2d0
 5939 2278 67120000 		.4byte	0x1267
 5940 227c 56040000 		.4byte	.LLST19
 5941 2280 34       		.uleb128 0x34
 5942 2281 361D0000 		.4byte	0x1d36
 5943 2285 10000000 		.4byte	.LBB31
 5944 2289 12000000 		.4byte	.LBE31-.LBB31
 5945 228d 01       		.byte	0x1
 5946 228e D702     		.2byte	0x2d7
 5947 2290 B1220000 		.4byte	0x22b1
 5948 2294 2F       		.uleb128 0x2f
 5949 2295 10000000 		.4byte	.LBB32
 5950 2299 12000000 		.4byte	.LBE32-.LBB32
 5951 229d 36       		.uleb128 0x36
 5952 229e 471D0000 		.4byte	0x1d47
 5953 22a2 74040000 		.4byte	.LLST20
 5954 22a6 36       		.uleb128 0x36
ARM GAS  C:\Users\salaz\AppData\Local\Temp\ccu2LhKM.s 			page 154


 5955 22a7 511D0000 		.4byte	0x1d51
 5956 22ab 87040000 		.4byte	.LLST21
 5957 22af 00       		.byte	0
 5958 22b0 00       		.byte	0
 5959 22b1 37       		.uleb128 0x37
 5960 22b2 5E1D0000 		.4byte	0x1d5e
 5961 22b6 40000000 		.4byte	.LBB33
 5962 22ba 04000000 		.4byte	.LBE33-.LBB33
 5963 22be 01       		.byte	0x1
 5964 22bf E002     		.2byte	0x2e0
 5965 22c1 34       		.uleb128 0x34
 5966 22c2 6B1D0000 		.4byte	0x1d6b
 5967 22c6 EA000000 		.4byte	.LBB35
 5968 22ca 08000000 		.4byte	.LBE35-.LBB35
 5969 22ce 01       		.byte	0x1
 5970 22cf FD02     		.2byte	0x2fd
 5971 22d1 DF220000 		.4byte	0x22df
 5972 22d5 38       		.uleb128 0x38
 5973 22d6 781D0000 		.4byte	0x1d78
 5974 22da A5040000 		.4byte	.LLST22
 5975 22de 00       		.byte	0
 5976 22df 2C       		.uleb128 0x2c
 5977 22e0 E6000000 		.4byte	.LVL107
 5978 22e4 98280000 		.4byte	0x2898
 5979 22e8 00       		.byte	0
 5980 22e9 2D       		.uleb128 0x2d
 5981 22ea B5110000 		.4byte	.LASF698
 5982 22ee 01       		.byte	0x1
 5983 22ef 2603     		.2byte	0x326
 5984 22f1 67120000 		.4byte	0x1267
 5985 22f5 00000000 		.4byte	.LFB163
 5986 22f9 28000000 		.4byte	.LFE163-.LFB163
 5987 22fd 01       		.uleb128 0x1
 5988 22fe 9C       		.byte	0x9c
 5989 22ff 4B230000 		.4byte	0x234b
 5990 2303 29       		.uleb128 0x29
 5991 2304 C3340000 		.4byte	.LASF687
 5992 2308 01       		.byte	0x1
 5993 2309 2803     		.2byte	0x328
 5994 230b 67120000 		.4byte	0x1267
 5995 230f B9040000 		.4byte	.LLST23
 5996 2313 37       		.uleb128 0x37
 5997 2314 5E1D0000 		.4byte	0x1d5e
 5998 2318 02000000 		.4byte	.LBB37
 5999 231c 04000000 		.4byte	.LBE37-.LBB37
 6000 2320 01       		.byte	0x1
 6001 2321 2A03     		.2byte	0x32a
 6002 2323 34       		.uleb128 0x34
 6003 2324 6B1D0000 		.4byte	0x1d6b
 6004 2328 12000000 		.4byte	.LBB39
 6005 232c 08000000 		.4byte	.LBE39-.LBB39
 6006 2330 01       		.byte	0x1
 6007 2331 2F03     		.2byte	0x32f
 6008 2333 41230000 		.4byte	0x2341
 6009 2337 38       		.uleb128 0x38
 6010 2338 781D0000 		.4byte	0x1d78
 6011 233c D7040000 		.4byte	.LLST24
ARM GAS  C:\Users\salaz\AppData\Local\Temp\ccu2LhKM.s 			page 155


 6012 2340 00       		.byte	0
 6013 2341 2C       		.uleb128 0x2c
 6014 2342 0E000000 		.4byte	.LVL117
 6015 2346 A4280000 		.4byte	0x28a4
 6016 234a 00       		.byte	0
 6017 234b 39       		.uleb128 0x39
 6018 234c 6E1B0000 		.4byte	.LASF700
 6019 2350 01       		.byte	0x1
 6020 2351 4A03     		.2byte	0x34a
 6021 2353 00000000 		.4byte	.LFB164
 6022 2357 60000000 		.4byte	.LFE164-.LFB164
 6023 235b 01       		.uleb128 0x1
 6024 235c 9C       		.byte	0x9c
 6025 235d EB230000 		.4byte	0x23eb
 6026 2361 26       		.uleb128 0x26
 6027 2362 5C3B0000 		.4byte	.LASF477
 6028 2366 01       		.byte	0x1
 6029 2367 4A03     		.2byte	0x34a
 6030 2369 EB230000 		.4byte	0x23eb
 6031 236d 01       		.uleb128 0x1
 6032 236e 50       		.byte	0x50
 6033 236f 27       		.uleb128 0x27
 6034 2370 F7330000 		.4byte	.LASF671
 6035 2374 01       		.byte	0x1
 6036 2375 4B03     		.2byte	0x34b
 6037 2377 B9000000 		.4byte	0xb9
 6038 237b EB040000 		.4byte	.LLST25
 6039 237f 28       		.uleb128 0x28
 6040 2380 6900     		.ascii	"i\000"
 6041 2382 01       		.byte	0x1
 6042 2383 4D03     		.2byte	0x34d
 6043 2385 CF000000 		.4byte	0xcf
 6044 2389 25050000 		.4byte	.LLST26
 6045 238d 29       		.uleb128 0x29
 6046 238e 21090000 		.4byte	.LASF672
 6047 2392 01       		.byte	0x1
 6048 2393 4E03     		.2byte	0x34e
 6049 2395 CF000000 		.4byte	0xcf
 6050 2399 44050000 		.4byte	.LLST27
 6051 239d 29       		.uleb128 0x29
 6052 239e 4F420000 		.4byte	.LASF673
 6053 23a2 01       		.byte	0x1
 6054 23a3 4F03     		.2byte	0x34f
 6055 23a5 CF000000 		.4byte	0xcf
 6056 23a9 63050000 		.4byte	.LLST28
 6057 23ad 29       		.uleb128 0x29
 6058 23ae 7D3C0000 		.4byte	.LASF674
 6059 23b2 01       		.byte	0x1
 6060 23b3 5003     		.2byte	0x350
 6061 23b5 CF000000 		.4byte	0xcf
 6062 23b9 76050000 		.4byte	.LLST29
 6063 23bd 29       		.uleb128 0x29
 6064 23be 1D1B0000 		.4byte	.LASF676
 6065 23c2 01       		.byte	0x1
 6066 23c3 5103     		.2byte	0x351
 6067 23c5 CF000000 		.4byte	0xcf
 6068 23c9 95050000 		.4byte	.LLST30
ARM GAS  C:\Users\salaz\AppData\Local\Temp\ccu2LhKM.s 			page 156


 6069 23cd 2A       		.uleb128 0x2a
 6070 23ce B7130000 		.4byte	.LASF677
 6071 23d2 01       		.byte	0x1
 6072 23d3 5203     		.2byte	0x352
 6073 23d5 CF000000 		.4byte	0xcf
 6074 23d9 00       		.byte	0
 6075 23da 29       		.uleb128 0x29
 6076 23db 0E2C0000 		.4byte	.LASF675
 6077 23df 01       		.byte	0x1
 6078 23e0 5303     		.2byte	0x353
 6079 23e2 B3120000 		.4byte	0x12b3
 6080 23e6 B3050000 		.4byte	.LLST31
 6081 23ea 00       		.byte	0
 6082 23eb 18       		.uleb128 0x18
 6083 23ec 04       		.byte	0x4
 6084 23ed F1230000 		.4byte	0x23f1
 6085 23f1 0B       		.uleb128 0xb
 6086 23f2 46140000 		.4byte	0x1446
 6087 23f6 2D       		.uleb128 0x2d
 6088 23f7 9D0A0000 		.4byte	.LASF701
 6089 23fb 01       		.byte	0x1
 6090 23fc 6F05     		.2byte	0x56f
 6091 23fe 67120000 		.4byte	0x1267
 6092 2402 00000000 		.4byte	.LFB166
 6093 2406 60000000 		.4byte	.LFE166-.LFB166
 6094 240a 01       		.uleb128 0x1
 6095 240b 9C       		.byte	0x9c
 6096 240c 8D240000 		.4byte	0x248d
 6097 2410 27       		.uleb128 0x27
 6098 2411 B8360000 		.4byte	.LASF670
 6099 2415 01       		.byte	0x1
 6100 2416 6F05     		.2byte	0x56f
 6101 2418 251E0000 		.4byte	0x1e25
 6102 241c D1050000 		.4byte	.LLST32
 6103 2420 29       		.uleb128 0x29
 6104 2421 C3340000 		.4byte	.LASF687
 6105 2425 01       		.byte	0x1
 6106 2426 7105     		.2byte	0x571
 6107 2428 67120000 		.4byte	0x1267
 6108 242c 13060000 		.4byte	.LLST33
 6109 2430 28       		.uleb128 0x28
 6110 2431 6900     		.ascii	"i\000"
 6111 2433 01       		.byte	0x1
 6112 2434 7205     		.2byte	0x572
 6113 2436 CF000000 		.4byte	0xcf
 6114 243a 32060000 		.4byte	.LLST34
 6115 243e 28       		.uleb128 0x28
 6116 243f 70747200 		.ascii	"ptr\000"
 6117 2443 01       		.byte	0x1
 6118 2444 7305     		.2byte	0x573
 6119 2446 8D240000 		.4byte	0x248d
 6120 244a 51060000 		.4byte	.LLST35
 6121 244e 29       		.uleb128 0x29
 6122 244f 62280000 		.4byte	.LASF702
 6123 2453 01       		.byte	0x1
 6124 2454 7405     		.2byte	0x574
 6125 2456 B9000000 		.4byte	0xb9
ARM GAS  C:\Users\salaz\AppData\Local\Temp\ccu2LhKM.s 			page 157


 6126 245a 64060000 		.4byte	.LLST36
 6127 245e 30       		.uleb128 0x30
 6128 245f 46000000 		.4byte	.LVL148
 6129 2463 851D0000 		.4byte	0x1d85
 6130 2467 77240000 		.4byte	0x2477
 6131 246b 31       		.uleb128 0x31
 6132 246c 01       		.uleb128 0x1
 6133 246d 50       		.byte	0x50
 6134 246e 02       		.uleb128 0x2
 6135 246f 74       		.byte	0x74
 6136 2470 00       		.sleb128 0
 6137 2471 31       		.uleb128 0x31
 6138 2472 01       		.uleb128 0x1
 6139 2473 51       		.byte	0x51
 6140 2474 01       		.uleb128 0x1
 6141 2475 30       		.byte	0x30
 6142 2476 00       		.byte	0
 6143 2477 33       		.uleb128 0x33
 6144 2478 4E000000 		.4byte	.LVL149
 6145 247c 851D0000 		.4byte	0x1d85
 6146 2480 31       		.uleb128 0x31
 6147 2481 01       		.uleb128 0x1
 6148 2482 50       		.byte	0x50
 6149 2483 02       		.uleb128 0x2
 6150 2484 74       		.byte	0x74
 6151 2485 00       		.sleb128 0
 6152 2486 31       		.uleb128 0x31
 6153 2487 01       		.uleb128 0x1
 6154 2488 51       		.byte	0x51
 6155 2489 01       		.uleb128 0x1
 6156 248a 31       		.byte	0x31
 6157 248b 00       		.byte	0
 6158 248c 00       		.byte	0
 6159 248d 18       		.uleb128 0x18
 6160 248e 04       		.byte	0x4
 6161 248f D10D0000 		.4byte	0xdd1
 6162 2493 2D       		.uleb128 0x2d
 6163 2494 81360000 		.4byte	.LASF703
 6164 2498 01       		.byte	0x1
 6165 2499 B505     		.2byte	0x5b5
 6166 249b 67120000 		.4byte	0x1267
 6167 249f 00000000 		.4byte	.LFB167
 6168 24a3 48000000 		.4byte	.LFE167-.LFB167
 6169 24a7 01       		.uleb128 0x1
 6170 24a8 9C       		.byte	0x9c
 6171 24a9 FC240000 		.4byte	0x24fc
 6172 24ad 27       		.uleb128 0x27
 6173 24ae B8360000 		.4byte	.LASF670
 6174 24b2 01       		.byte	0x1
 6175 24b3 B505     		.2byte	0x5b5
 6176 24b5 8D240000 		.4byte	0x248d
 6177 24b9 82060000 		.4byte	.LLST37
 6178 24bd 29       		.uleb128 0x29
 6179 24be C3340000 		.4byte	.LASF687
 6180 24c2 01       		.byte	0x1
 6181 24c3 B705     		.2byte	0x5b7
 6182 24c5 67120000 		.4byte	0x1267
ARM GAS  C:\Users\salaz\AppData\Local\Temp\ccu2LhKM.s 			page 158


 6183 24c9 BC060000 		.4byte	.LLST38
 6184 24cd 29       		.uleb128 0x29
 6185 24ce 62280000 		.4byte	.LASF702
 6186 24d2 01       		.byte	0x1
 6187 24d3 B805     		.2byte	0x5b8
 6188 24d5 B9000000 		.4byte	0xb9
 6189 24d9 DB060000 		.4byte	.LLST39
 6190 24dd 28       		.uleb128 0x28
 6191 24de 6900     		.ascii	"i\000"
 6192 24e0 01       		.byte	0x1
 6193 24e1 B905     		.2byte	0x5b9
 6194 24e3 CF000000 		.4byte	0xcf
 6195 24e7 EE060000 		.4byte	.LLST40
 6196 24eb 28       		.uleb128 0x28
 6197 24ec 70747200 		.ascii	"ptr\000"
 6198 24f0 01       		.byte	0x1
 6199 24f1 BA05     		.2byte	0x5ba
 6200 24f3 8D240000 		.4byte	0x248d
 6201 24f7 0D070000 		.4byte	.LLST41
 6202 24fb 00       		.byte	0
 6203 24fc 2D       		.uleb128 0x2d
 6204 24fd 9C240000 		.4byte	.LASF704
 6205 2501 01       		.byte	0x1
 6206 2502 EC05     		.2byte	0x5ec
 6207 2504 6E1A0000 		.4byte	0x1a6e
 6208 2508 00000000 		.4byte	.LFB168
 6209 250c 70000000 		.4byte	.LFE168-.LFB168
 6210 2510 01       		.uleb128 0x1
 6211 2511 9C       		.byte	0x9c
 6212 2512 FF250000 		.4byte	0x25ff
 6213 2516 27       		.uleb128 0x27
 6214 2517 5C3B0000 		.4byte	.LASF477
 6215 251b 01       		.byte	0x1
 6216 251c EC05     		.2byte	0x5ec
 6217 251e B3120000 		.4byte	0x12b3
 6218 2522 20070000 		.4byte	.LLST42
 6219 2526 29       		.uleb128 0x29
 6220 2527 C3340000 		.4byte	.LASF687
 6221 252b 01       		.byte	0x1
 6222 252c EE05     		.2byte	0x5ee
 6223 252e 67120000 		.4byte	0x1267
 6224 2532 4C070000 		.4byte	.LLST43
 6225 2536 28       		.uleb128 0x28
 6226 2537 6900     		.ascii	"i\000"
 6227 2539 01       		.byte	0x1
 6228 253a EF05     		.2byte	0x5ef
 6229 253c CF000000 		.4byte	0xcf
 6230 2540 6B070000 		.4byte	.LLST44
 6231 2544 29       		.uleb128 0x29
 6232 2545 9E320000 		.4byte	.LASF705
 6233 2549 01       		.byte	0x1
 6234 254a F005     		.2byte	0x5f0
 6235 254c 6E1A0000 		.4byte	0x1a6e
 6236 2550 8A070000 		.4byte	.LLST45
 6237 2554 34       		.uleb128 0x34
 6238 2555 181D0000 		.4byte	0x1d18
 6239 2559 1A000000 		.4byte	.LBB41
ARM GAS  C:\Users\salaz\AppData\Local\Temp\ccu2LhKM.s 			page 159


 6240 255d 0E000000 		.4byte	.LBE41-.LBB41
 6241 2561 01       		.byte	0x1
 6242 2562 F405     		.2byte	0x5f4
 6243 2564 71250000 		.4byte	0x2571
 6244 2568 35       		.uleb128 0x35
 6245 2569 291D0000 		.4byte	0x1d29
 6246 256d 02       		.uleb128 0x2
 6247 256e 91       		.byte	0x91
 6248 256f 64       		.sleb128 -28
 6249 2570 00       		.byte	0
 6250 2571 32       		.uleb128 0x32
 6251 2572 2C000000 		.4byte	.LBB43
 6252 2576 30000000 		.4byte	.LBE43-.LBB43
 6253 257a DB250000 		.4byte	0x25db
 6254 257e 2E       		.uleb128 0x2e
 6255 257f 692B0000 		.4byte	.LASF678
 6256 2583 01       		.byte	0x1
 6257 2584 F705     		.2byte	0x5f7
 6258 2586 76140000 		.4byte	0x1476
 6259 258a 02       		.uleb128 0x2
 6260 258b 91       		.byte	0x91
 6261 258c 68       		.sleb128 -24
 6262 258d 30       		.uleb128 0x30
 6263 258e 38000000 		.4byte	.LVL167
 6264 2592 63280000 		.4byte	0x2863
 6265 2596 AB250000 		.4byte	0x25ab
 6266 259a 31       		.uleb128 0x31
 6267 259b 01       		.uleb128 0x1
 6268 259c 50       		.byte	0x50
 6269 259d 02       		.uleb128 0x2
 6270 259e 76       		.byte	0x76
 6271 259f 00       		.sleb128 0
 6272 25a0 31       		.uleb128 0x31
 6273 25a1 01       		.uleb128 0x1
 6274 25a2 51       		.byte	0x51
 6275 25a3 01       		.uleb128 0x1
 6276 25a4 30       		.byte	0x30
 6277 25a5 31       		.uleb128 0x31
 6278 25a6 01       		.uleb128 0x1
 6279 25a7 52       		.byte	0x52
 6280 25a8 01       		.uleb128 0x1
 6281 25a9 38       		.byte	0x38
 6282 25aa 00       		.byte	0
 6283 25ab 30       		.uleb128 0x30
 6284 25ac 46000000 		.4byte	.LVL168
 6285 25b0 B0280000 		.4byte	0x28b0
 6286 25b4 BF250000 		.4byte	0x25bf
 6287 25b8 31       		.uleb128 0x31
 6288 25b9 01       		.uleb128 0x1
 6289 25ba 50       		.byte	0x50
 6290 25bb 02       		.uleb128 0x2
 6291 25bc 76       		.byte	0x76
 6292 25bd 00       		.sleb128 0
 6293 25be 00       		.byte	0
 6294 25bf 33       		.uleb128 0x33
 6295 25c0 54000000 		.4byte	.LVL170
 6296 25c4 75280000 		.4byte	0x2875
ARM GAS  C:\Users\salaz\AppData\Local\Temp\ccu2LhKM.s 			page 160


 6297 25c8 31       		.uleb128 0x31
 6298 25c9 01       		.uleb128 0x1
 6299 25ca 50       		.byte	0x50
 6300 25cb 02       		.uleb128 0x2
 6301 25cc 76       		.byte	0x76
 6302 25cd 00       		.sleb128 0
 6303 25ce 31       		.uleb128 0x31
 6304 25cf 01       		.uleb128 0x1
 6305 25d0 51       		.byte	0x51
 6306 25d1 02       		.uleb128 0x2
 6307 25d2 75       		.byte	0x75
 6308 25d3 00       		.sleb128 0
 6309 25d4 31       		.uleb128 0x31
 6310 25d5 01       		.uleb128 0x1
 6311 25d6 52       		.byte	0x52
 6312 25d7 01       		.uleb128 0x1
 6313 25d8 36       		.byte	0x36
 6314 25d9 00       		.byte	0
 6315 25da 00       		.byte	0
 6316 25db 33       		.uleb128 0x33
 6317 25dc 1A000000 		.4byte	.LVL166
 6318 25e0 6C280000 		.4byte	0x286c
 6319 25e4 31       		.uleb128 0x31
 6320 25e5 01       		.uleb128 0x1
 6321 25e6 50       		.byte	0x50
 6322 25e7 02       		.uleb128 0x2
 6323 25e8 76       		.byte	0x76
 6324 25e9 00       		.sleb128 0
 6325 25ea 31       		.uleb128 0x31
 6326 25eb 01       		.uleb128 0x1
 6327 25ec 51       		.byte	0x51
 6328 25ed 0A       		.uleb128 0xa
 6329 25ee 74       		.byte	0x74
 6330 25ef 00       		.sleb128 0
 6331 25f0 31       		.byte	0x31
 6332 25f1 24       		.byte	0x24
 6333 25f2 03       		.byte	0x3
 6334 25f3 00000000 		.4byte	cy_ble_connHandle
 6335 25f7 22       		.byte	0x22
 6336 25f8 31       		.uleb128 0x31
 6337 25f9 01       		.uleb128 0x1
 6338 25fa 52       		.byte	0x52
 6339 25fb 01       		.uleb128 0x1
 6340 25fc 32       		.byte	0x32
 6341 25fd 00       		.byte	0
 6342 25fe 00       		.byte	0
 6343 25ff 2D       		.uleb128 0x2d
 6344 2600 C1380000 		.4byte	.LASF706
 6345 2604 01       		.byte	0x1
 6346 2605 1906     		.2byte	0x619
 6347 2607 6E1A0000 		.4byte	0x1a6e
 6348 260b 00000000 		.4byte	.LFB169
 6349 260f 20000000 		.4byte	.LFE169-.LFB169
 6350 2613 01       		.uleb128 0x1
 6351 2614 9C       		.byte	0x9c
 6352 2615 3A260000 		.4byte	0x263a
 6353 2619 27       		.uleb128 0x27
ARM GAS  C:\Users\salaz\AppData\Local\Temp\ccu2LhKM.s 			page 161


 6354 261a 56330000 		.4byte	.LASF668
 6355 261e 01       		.byte	0x1
 6356 261f 1906     		.2byte	0x619
 6357 2621 3A260000 		.4byte	0x263a
 6358 2625 C1070000 		.4byte	.LLST46
 6359 2629 29       		.uleb128 0x29
 6360 262a E0200000 		.4byte	.LASF707
 6361 262e 01       		.byte	0x1
 6362 262f 1B06     		.2byte	0x61b
 6363 2631 6E1A0000 		.4byte	0x1a6e
 6364 2635 14080000 		.4byte	.LLST47
 6365 2639 00       		.byte	0
 6366 263a 18       		.uleb128 0x18
 6367 263b 04       		.byte	0x4
 6368 263c 26130000 		.4byte	0x1326
 6369 2640 2D       		.uleb128 0x2d
 6370 2641 302B0000 		.4byte	.LASF708
 6371 2645 01       		.byte	0x1
 6372 2646 3506     		.2byte	0x635
 6373 2648 B9000000 		.4byte	0xb9
 6374 264c 00000000 		.4byte	.LFB170
 6375 2650 20000000 		.4byte	.LFE170-.LFB170
 6376 2654 01       		.uleb128 0x1
 6377 2655 9C       		.byte	0x9c
 6378 2656 7B260000 		.4byte	0x267b
 6379 265a 27       		.uleb128 0x27
 6380 265b 56330000 		.4byte	.LASF668
 6381 265f 01       		.byte	0x1
 6382 2660 3506     		.2byte	0x635
 6383 2662 3A260000 		.4byte	0x263a
 6384 2666 4A080000 		.4byte	.LLST48
 6385 266a 28       		.uleb128 0x28
 6386 266b 72657400 		.ascii	"ret\000"
 6387 266f 01       		.byte	0x1
 6388 2670 3706     		.2byte	0x637
 6389 2672 B9000000 		.4byte	0xb9
 6390 2676 9D080000 		.4byte	.LLST49
 6391 267a 00       		.byte	0
 6392 267b 2D       		.uleb128 0x2d
 6393 267c DD160000 		.4byte	.LASF709
 6394 2680 01       		.byte	0x1
 6395 2681 6206     		.2byte	0x662
 6396 2683 67120000 		.4byte	0x1267
 6397 2687 00000000 		.4byte	.LFB171
 6398 268b 16000000 		.4byte	.LFE171-.LFB171
 6399 268f 01       		.uleb128 0x1
 6400 2690 9C       		.byte	0x9c
 6401 2691 C5260000 		.4byte	0x26c5
 6402 2695 27       		.uleb128 0x27
 6403 2696 C7250000 		.4byte	.LASF487
 6404 269a 01       		.byte	0x1
 6405 269b 6206     		.2byte	0x662
 6406 269d B9000000 		.4byte	0xb9
 6407 26a1 D5080000 		.4byte	.LLST50
 6408 26a5 2E       		.uleb128 0x2e
 6409 26a6 692B0000 		.4byte	.LASF678
 6410 26aa 01       		.byte	0x1
ARM GAS  C:\Users\salaz\AppData\Local\Temp\ccu2LhKM.s 			page 162


 6411 26ab 6406     		.2byte	0x664
 6412 26ad 79130000 		.4byte	0x1379
 6413 26b1 02       		.uleb128 0x2
 6414 26b2 91       		.byte	0x91
 6415 26b3 74       		.sleb128 -12
 6416 26b4 33       		.uleb128 0x33
 6417 26b5 12000000 		.4byte	.LVL193
 6418 26b9 BC280000 		.4byte	0x28bc
 6419 26bd 31       		.uleb128 0x31
 6420 26be 01       		.uleb128 0x1
 6421 26bf 50       		.byte	0x50
 6422 26c0 02       		.uleb128 0x2
 6423 26c1 91       		.byte	0x91
 6424 26c2 74       		.sleb128 -12
 6425 26c3 00       		.byte	0
 6426 26c4 00       		.byte	0
 6427 26c5 3A       		.uleb128 0x3a
 6428 26c6 3D0E0000 		.4byte	.LASF710
 6429 26ca 01       		.byte	0x1
 6430 26cb 52       		.byte	0x52
 6431 26cc B9000000 		.4byte	0xb9
 6432 26d0 05       		.uleb128 0x5
 6433 26d1 03       		.byte	0x3
 6434 26d2 08000000 		.4byte	cy_ble_pendingFlashClearCccdHandle
 6435 26d6 3B       		.uleb128 0x3b
 6436 26d7 FF2D0000 		.4byte	.LASF711
 6437 26db 01       		.byte	0x1
 6438 26dc 63       		.byte	0x63
 6439 26dd 581C0000 		.4byte	0x1c58
 6440 26e1 05       		.uleb128 0x5
 6441 26e2 03       		.byte	0x3
 6442 26e3 00000000 		.4byte	cy_ble_sflashDeviceAddress
 6443 26e7 3B       		.uleb128 0x3b
 6444 26e8 F2280000 		.4byte	.LASF712
 6445 26ec 01       		.byte	0x1
 6446 26ed 2B       		.byte	0x2b
 6447 26ee ED160000 		.4byte	0x16ed
 6448 26f2 05       		.uleb128 0x5
 6449 26f3 03       		.byte	0x3
 6450 26f4 00000000 		.4byte	cy_ble_state
 6451 26f8 3B       		.uleb128 0x3b
 6452 26f9 F9080000 		.4byte	.LASF713
 6453 26fd 01       		.byte	0x1
 6454 26fe 2E       		.byte	0x2e
 6455 26ff 1D170000 		.4byte	0x171d
 6456 2703 05       		.uleb128 0x5
 6457 2704 03       		.byte	0x3
 6458 2705 00000000 		.4byte	cy_ble_advState
 6459 2709 3B       		.uleb128 0x3b
 6460 270a 5F230000 		.4byte	.LASF714
 6461 270e 01       		.byte	0x1
 6462 270f 2F       		.byte	0x2f
 6463 2710 B9000000 		.4byte	0xb9
 6464 2714 05       		.uleb128 0x5
 6465 2715 03       		.byte	0x3
 6466 2716 00000000 		.4byte	cy_ble_advIndex
 6467 271a 0F       		.uleb128 0xf
ARM GAS  C:\Users\salaz\AppData\Local\Temp\ccu2LhKM.s 			page 163


 6468 271b 26130000 		.4byte	0x1326
 6469 271f 2A270000 		.4byte	0x272a
 6470 2723 10       		.uleb128 0x10
 6471 2724 9E000000 		.4byte	0x9e
 6472 2728 00       		.byte	0
 6473 2729 00       		.byte	0
 6474 272a 3B       		.uleb128 0x3b
 6475 272b 35110000 		.4byte	.LASF715
 6476 272f 01       		.byte	0x1
 6477 2730 42       		.byte	0x42
 6478 2731 1A270000 		.4byte	0x271a
 6479 2735 05       		.uleb128 0x5
 6480 2736 03       		.byte	0x3
 6481 2737 00000000 		.4byte	cy_ble_connHandle
 6482 273b 0F       		.uleb128 0xf
 6483 273c 65170000 		.4byte	0x1765
 6484 2740 4B270000 		.4byte	0x274b
 6485 2744 10       		.uleb128 0x10
 6486 2745 9E000000 		.4byte	0x9e
 6487 2749 00       		.byte	0
 6488 274a 00       		.byte	0
 6489 274b 3B       		.uleb128 0x3b
 6490 274c 9E3A0000 		.4byte	.LASF716
 6491 2750 01       		.byte	0x1
 6492 2751 45       		.byte	0x45
 6493 2752 3B270000 		.4byte	0x273b
 6494 2756 05       		.uleb128 0x5
 6495 2757 03       		.byte	0x3
 6496 2758 00000000 		.4byte	cy_ble_connState
 6497 275c 0F       		.uleb128 0xf
 6498 275d 2B0B0000 		.4byte	0xb2b
 6499 2761 6C270000 		.4byte	0x276c
 6500 2765 10       		.uleb128 0x10
 6501 2766 9E000000 		.4byte	0x9e
 6502 276a 00       		.byte	0
 6503 276b 00       		.byte	0
 6504 276c 3B       		.uleb128 0x3b
 6505 276d DE100000 		.4byte	.LASF717
 6506 2771 01       		.byte	0x1
 6507 2772 47       		.byte	0x47
 6508 2773 7D270000 		.4byte	0x277d
 6509 2777 05       		.uleb128 0x5
 6510 2778 03       		.byte	0x3
 6511 2779 00000000 		.4byte	cy_ble_devConnRole
 6512 277d 0A       		.uleb128 0xa
 6513 277e 5C270000 		.4byte	0x275c
 6514 2782 0F       		.uleb128 0xf
 6515 2783 92270000 		.4byte	0x2792
 6516 2787 92270000 		.4byte	0x2792
 6517 278b 10       		.uleb128 0x10
 6518 278c 9E000000 		.4byte	0x9e
 6519 2790 00       		.byte	0
 6520 2791 00       		.byte	0
 6521 2792 0A       		.uleb128 0xa
 6522 2793 6E1A0000 		.4byte	0x1a6e
 6523 2797 3B       		.uleb128 0x3b
 6524 2798 E4120000 		.4byte	.LASF718
ARM GAS  C:\Users\salaz\AppData\Local\Temp\ccu2LhKM.s 			page 164


 6525 279c 01       		.byte	0x1
 6526 279d 4B       		.byte	0x4b
 6527 279e A8270000 		.4byte	0x27a8
 6528 27a2 05       		.uleb128 0x5
 6529 27a3 03       		.byte	0x3
 6530 27a4 00000000 		.4byte	cy_ble_pairStatus
 6531 27a8 0A       		.uleb128 0xa
 6532 27a9 82270000 		.4byte	0x2782
 6533 27ad 3B       		.uleb128 0x3b
 6534 27ae 7C0C0000 		.4byte	.LASF719
 6535 27b2 01       		.byte	0x1
 6536 27b3 4F       		.byte	0x4f
 6537 27b4 B9000000 		.4byte	0xb9
 6538 27b8 05       		.uleb128 0x5
 6539 27b9 03       		.byte	0x3
 6540 27ba 00000000 		.4byte	cy_ble_pendingFlashWrite
 6541 27be 0F       		.uleb128 0xf
 6542 27bf B9000000 		.4byte	0xb9
 6543 27c3 CE270000 		.4byte	0x27ce
 6544 27c7 10       		.uleb128 0x10
 6545 27c8 9E000000 		.4byte	0x9e
 6546 27cc 00       		.byte	0
 6547 27cd 00       		.byte	0
 6548 27ce 3B       		.uleb128 0x3b
 6549 27cf 74320000 		.4byte	.LASF720
 6550 27d3 01       		.byte	0x1
 6551 27d4 4E       		.byte	0x4e
 6552 27d5 BE270000 		.4byte	0x27be
 6553 27d9 05       		.uleb128 0x5
 6554 27da 03       		.byte	0x3
 6555 27db 00000000 		.4byte	cy_ble_peerBonding
 6556 27df 0F       		.uleb128 0xf
 6557 27e0 B9000000 		.4byte	0xb9
 6558 27e4 F5270000 		.4byte	0x27f5
 6559 27e8 10       		.uleb128 0x10
 6560 27e9 9E000000 		.4byte	0x9e
 6561 27ed 00       		.byte	0
 6562 27ee 10       		.uleb128 0x10
 6563 27ef 9E000000 		.4byte	0x9e
 6564 27f3 08       		.byte	0x8
 6565 27f4 00       		.byte	0
 6566 27f5 3C       		.uleb128 0x3c
 6567 27f6 C2350000 		.4byte	.LASF721
 6568 27fa 10       		.byte	0x10
 6569 27fb 0401     		.2byte	0x104
 6570 27fd DF270000 		.4byte	0x27df
 6571 2801 3C       		.uleb128 0x3c
 6572 2802 893C0000 		.4byte	.LASF722
 6573 2806 11       		.byte	0x11
 6574 2807 7902     		.2byte	0x279
 6575 2809 0D280000 		.4byte	0x280d
 6576 280d 18       		.uleb128 0x18
 6577 280e 04       		.byte	0x4
 6578 280f 691C0000 		.4byte	0x1c69
 6579 2813 3D       		.uleb128 0x3d
 6580 2814 8D070000 		.4byte	.LASF723
 6581 2818 12       		.byte	0x12
ARM GAS  C:\Users\salaz\AppData\Local\Temp\ccu2LhKM.s 			page 165


 6582 2819 AD       		.byte	0xad
 6583 281a 0D1D0000 		.4byte	0x1d0d
 6584 281e 3C       		.uleb128 0x3c
 6585 281f E21B0000 		.4byte	.LASF724
 6586 2823 13       		.byte	0x13
 6587 2824 7809     		.2byte	0x978
 6588 2826 B9000000 		.4byte	0xb9
 6589 282a 3E       		.uleb128 0x3e
 6590 282b 3A1D0000 		.4byte	.LASF725
 6591 282f 3A1D0000 		.4byte	.LASF725
 6592 2833 12       		.byte	0x12
 6593 2834 A2       		.byte	0xa2
 6594 2835 3E       		.uleb128 0x3e
 6595 2836 930E0000 		.4byte	.LASF726
 6596 283a 930E0000 		.4byte	.LASF726
 6597 283e 14       		.byte	0x14
 6598 283f C1       		.byte	0xc1
 6599 2840 3F       		.uleb128 0x3f
 6600 2841 E9200000 		.4byte	.LASF727
 6601 2845 E9200000 		.4byte	.LASF727
 6602 2849 09       		.byte	0x9
 6603 284a B107     		.2byte	0x7b1
 6604 284c 3F       		.uleb128 0x3f
 6605 284d 73130000 		.4byte	.LASF728
 6606 2851 73130000 		.4byte	.LASF728
 6607 2855 0A       		.byte	0xa
 6608 2856 B003     		.2byte	0x3b0
 6609 2858 3E       		.uleb128 0x3e
 6610 2859 71030000 		.4byte	.LASF729
 6611 285d 71030000 		.4byte	.LASF729
 6612 2861 14       		.byte	0x14
 6613 2862 C7       		.byte	0xc7
 6614 2863 40       		.uleb128 0x40
 6615 2864 CA320000 		.4byte	.LASF730
 6616 2868 CA320000 		.4byte	.LASF730
 6617 286c 40       		.uleb128 0x40
 6618 286d 2E3C0000 		.4byte	.LASF731
 6619 2871 2E3C0000 		.4byte	.LASF731
 6620 2875 3E       		.uleb128 0x3e
 6621 2876 77350000 		.4byte	.LASF732
 6622 287a 77350000 		.4byte	.LASF732
 6623 287e 15       		.byte	0x15
 6624 287f 16       		.byte	0x16
 6625 2880 3F       		.uleb128 0x3f
 6626 2881 DA000000 		.4byte	.LASF733
 6627 2885 DA000000 		.4byte	.LASF733
 6628 2889 0C       		.byte	0xc
 6629 288a 9104     		.2byte	0x491
 6630 288c 3F       		.uleb128 0x3f
 6631 288d 4F210000 		.4byte	.LASF734
 6632 2891 4F210000 		.4byte	.LASF734
 6633 2895 0C       		.byte	0xc
 6634 2896 0A07     		.2byte	0x70a
 6635 2898 3F       		.uleb128 0x3f
 6636 2899 14310000 		.4byte	.LASF735
 6637 289d 14310000 		.4byte	.LASF735
 6638 28a1 0E       		.byte	0xe
ARM GAS  C:\Users\salaz\AppData\Local\Temp\ccu2LhKM.s 			page 166


 6639 28a2 0101     		.2byte	0x101
 6640 28a4 3F       		.uleb128 0x3f
 6641 28a5 F53F0000 		.4byte	.LASF736
 6642 28a9 F53F0000 		.4byte	.LASF736
 6643 28ad 0E       		.byte	0xe
 6644 28ae 2101     		.2byte	0x121
 6645 28b0 3F       		.uleb128 0x3f
 6646 28b1 483A0000 		.4byte	.LASF737
 6647 28b5 483A0000 		.4byte	.LASF737
 6648 28b9 0C       		.byte	0xc
 6649 28ba 7404     		.2byte	0x474
 6650 28bc 3F       		.uleb128 0x3f
 6651 28bd BB320000 		.4byte	.LASF738
 6652 28c1 BB320000 		.4byte	.LASF738
 6653 28c5 0A       		.byte	0xa
 6654 28c6 1204     		.2byte	0x412
 6655 28c8 00       		.byte	0
 6656              		.section	.debug_abbrev,"",%progbits
 6657              	.Ldebug_abbrev0:
 6658 0000 01       		.uleb128 0x1
 6659 0001 11       		.uleb128 0x11
 6660 0002 01       		.byte	0x1
 6661 0003 25       		.uleb128 0x25
 6662 0004 0E       		.uleb128 0xe
 6663 0005 13       		.uleb128 0x13
 6664 0006 0B       		.uleb128 0xb
 6665 0007 03       		.uleb128 0x3
 6666 0008 0E       		.uleb128 0xe
 6667 0009 1B       		.uleb128 0x1b
 6668 000a 0E       		.uleb128 0xe
 6669 000b 55       		.uleb128 0x55
 6670 000c 17       		.uleb128 0x17
 6671 000d 11       		.uleb128 0x11
 6672 000e 01       		.uleb128 0x1
 6673 000f 10       		.uleb128 0x10
 6674 0010 17       		.uleb128 0x17
 6675 0011 00       		.byte	0
 6676 0012 00       		.byte	0
 6677 0013 02       		.uleb128 0x2
 6678 0014 24       		.uleb128 0x24
 6679 0015 00       		.byte	0
 6680 0016 0B       		.uleb128 0xb
 6681 0017 0B       		.uleb128 0xb
 6682 0018 3E       		.uleb128 0x3e
 6683 0019 0B       		.uleb128 0xb
 6684 001a 03       		.uleb128 0x3
 6685 001b 08       		.uleb128 0x8
 6686 001c 00       		.byte	0
 6687 001d 00       		.byte	0
 6688 001e 03       		.uleb128 0x3
 6689 001f 24       		.uleb128 0x24
 6690 0020 00       		.byte	0
 6691 0021 0B       		.uleb128 0xb
 6692 0022 0B       		.uleb128 0xb
 6693 0023 3E       		.uleb128 0x3e
 6694 0024 0B       		.uleb128 0xb
 6695 0025 03       		.uleb128 0x3
ARM GAS  C:\Users\salaz\AppData\Local\Temp\ccu2LhKM.s 			page 167


 6696 0026 0E       		.uleb128 0xe
 6697 0027 00       		.byte	0
 6698 0028 00       		.byte	0
 6699 0029 04       		.uleb128 0x4
 6700 002a 16       		.uleb128 0x16
 6701 002b 00       		.byte	0
 6702 002c 03       		.uleb128 0x3
 6703 002d 0E       		.uleb128 0xe
 6704 002e 3A       		.uleb128 0x3a
 6705 002f 0B       		.uleb128 0xb
 6706 0030 3B       		.uleb128 0x3b
 6707 0031 0B       		.uleb128 0xb
 6708 0032 49       		.uleb128 0x49
 6709 0033 13       		.uleb128 0x13
 6710 0034 00       		.byte	0
 6711 0035 00       		.byte	0
 6712 0036 05       		.uleb128 0x5
 6713 0037 0F       		.uleb128 0xf
 6714 0038 00       		.byte	0
 6715 0039 0B       		.uleb128 0xb
 6716 003a 0B       		.uleb128 0xb
 6717 003b 00       		.byte	0
 6718 003c 00       		.byte	0
 6719 003d 06       		.uleb128 0x6
 6720 003e 04       		.uleb128 0x4
 6721 003f 01       		.byte	0x1
 6722 0040 0B       		.uleb128 0xb
 6723 0041 0B       		.uleb128 0xb
 6724 0042 49       		.uleb128 0x49
 6725 0043 13       		.uleb128 0x13
 6726 0044 3A       		.uleb128 0x3a
 6727 0045 0B       		.uleb128 0xb
 6728 0046 3B       		.uleb128 0x3b
 6729 0047 0B       		.uleb128 0xb
 6730 0048 01       		.uleb128 0x1
 6731 0049 13       		.uleb128 0x13
 6732 004a 00       		.byte	0
 6733 004b 00       		.byte	0
 6734 004c 07       		.uleb128 0x7
 6735 004d 28       		.uleb128 0x28
 6736 004e 00       		.byte	0
 6737 004f 03       		.uleb128 0x3
 6738 0050 0E       		.uleb128 0xe
 6739 0051 1C       		.uleb128 0x1c
 6740 0052 0D       		.uleb128 0xd
 6741 0053 00       		.byte	0
 6742 0054 00       		.byte	0
 6743 0055 08       		.uleb128 0x8
 6744 0056 28       		.uleb128 0x28
 6745 0057 00       		.byte	0
 6746 0058 03       		.uleb128 0x3
 6747 0059 0E       		.uleb128 0xe
 6748 005a 1C       		.uleb128 0x1c
 6749 005b 0B       		.uleb128 0xb
 6750 005c 00       		.byte	0
 6751 005d 00       		.byte	0
 6752 005e 09       		.uleb128 0x9
ARM GAS  C:\Users\salaz\AppData\Local\Temp\ccu2LhKM.s 			page 168


 6753 005f 16       		.uleb128 0x16
 6754 0060 00       		.byte	0
 6755 0061 03       		.uleb128 0x3
 6756 0062 0E       		.uleb128 0xe
 6757 0063 3A       		.uleb128 0x3a
 6758 0064 0B       		.uleb128 0xb
 6759 0065 3B       		.uleb128 0x3b
 6760 0066 05       		.uleb128 0x5
 6761 0067 49       		.uleb128 0x49
 6762 0068 13       		.uleb128 0x13
 6763 0069 00       		.byte	0
 6764 006a 00       		.byte	0
 6765 006b 0A       		.uleb128 0xa
 6766 006c 35       		.uleb128 0x35
 6767 006d 00       		.byte	0
 6768 006e 49       		.uleb128 0x49
 6769 006f 13       		.uleb128 0x13
 6770 0070 00       		.byte	0
 6771 0071 00       		.byte	0
 6772 0072 0B       		.uleb128 0xb
 6773 0073 26       		.uleb128 0x26
 6774 0074 00       		.byte	0
 6775 0075 49       		.uleb128 0x49
 6776 0076 13       		.uleb128 0x13
 6777 0077 00       		.byte	0
 6778 0078 00       		.byte	0
 6779 0079 0C       		.uleb128 0xc
 6780 007a 13       		.uleb128 0x13
 6781 007b 01       		.byte	0x1
 6782 007c 0B       		.uleb128 0xb
 6783 007d 05       		.uleb128 0x5
 6784 007e 3A       		.uleb128 0x3a
 6785 007f 0B       		.uleb128 0xb
 6786 0080 3B       		.uleb128 0x3b
 6787 0081 0B       		.uleb128 0xb
 6788 0082 01       		.uleb128 0x1
 6789 0083 13       		.uleb128 0x13
 6790 0084 00       		.byte	0
 6791 0085 00       		.byte	0
 6792 0086 0D       		.uleb128 0xd
 6793 0087 0D       		.uleb128 0xd
 6794 0088 00       		.byte	0
 6795 0089 03       		.uleb128 0x3
 6796 008a 0E       		.uleb128 0xe
 6797 008b 3A       		.uleb128 0x3a
 6798 008c 0B       		.uleb128 0xb
 6799 008d 3B       		.uleb128 0x3b
 6800 008e 0B       		.uleb128 0xb
 6801 008f 49       		.uleb128 0x49
 6802 0090 13       		.uleb128 0x13
 6803 0091 38       		.uleb128 0x38
 6804 0092 0B       		.uleb128 0xb
 6805 0093 00       		.byte	0
 6806 0094 00       		.byte	0
 6807 0095 0E       		.uleb128 0xe
 6808 0096 0D       		.uleb128 0xd
 6809 0097 00       		.byte	0
ARM GAS  C:\Users\salaz\AppData\Local\Temp\ccu2LhKM.s 			page 169


 6810 0098 03       		.uleb128 0x3
 6811 0099 0E       		.uleb128 0xe
 6812 009a 3A       		.uleb128 0x3a
 6813 009b 0B       		.uleb128 0xb
 6814 009c 3B       		.uleb128 0x3b
 6815 009d 0B       		.uleb128 0xb
 6816 009e 49       		.uleb128 0x49
 6817 009f 13       		.uleb128 0x13
 6818 00a0 38       		.uleb128 0x38
 6819 00a1 05       		.uleb128 0x5
 6820 00a2 00       		.byte	0
 6821 00a3 00       		.byte	0
 6822 00a4 0F       		.uleb128 0xf
 6823 00a5 01       		.uleb128 0x1
 6824 00a6 01       		.byte	0x1
 6825 00a7 49       		.uleb128 0x49
 6826 00a8 13       		.uleb128 0x13
 6827 00a9 01       		.uleb128 0x1
 6828 00aa 13       		.uleb128 0x13
 6829 00ab 00       		.byte	0
 6830 00ac 00       		.byte	0
 6831 00ad 10       		.uleb128 0x10
 6832 00ae 21       		.uleb128 0x21
 6833 00af 00       		.byte	0
 6834 00b0 49       		.uleb128 0x49
 6835 00b1 13       		.uleb128 0x13
 6836 00b2 2F       		.uleb128 0x2f
 6837 00b3 0B       		.uleb128 0xb
 6838 00b4 00       		.byte	0
 6839 00b5 00       		.byte	0
 6840 00b6 11       		.uleb128 0x11
 6841 00b7 21       		.uleb128 0x21
 6842 00b8 00       		.byte	0
 6843 00b9 49       		.uleb128 0x49
 6844 00ba 13       		.uleb128 0x13
 6845 00bb 2F       		.uleb128 0x2f
 6846 00bc 05       		.uleb128 0x5
 6847 00bd 00       		.byte	0
 6848 00be 00       		.byte	0
 6849 00bf 12       		.uleb128 0x12
 6850 00c0 13       		.uleb128 0x13
 6851 00c1 01       		.byte	0x1
 6852 00c2 0B       		.uleb128 0xb
 6853 00c3 0B       		.uleb128 0xb
 6854 00c4 3A       		.uleb128 0x3a
 6855 00c5 0B       		.uleb128 0xb
 6856 00c6 3B       		.uleb128 0x3b
 6857 00c7 0B       		.uleb128 0xb
 6858 00c8 01       		.uleb128 0x1
 6859 00c9 13       		.uleb128 0x13
 6860 00ca 00       		.byte	0
 6861 00cb 00       		.byte	0
 6862 00cc 13       		.uleb128 0x13
 6863 00cd 04       		.uleb128 0x4
 6864 00ce 01       		.byte	0x1
 6865 00cf 0B       		.uleb128 0xb
 6866 00d0 0B       		.uleb128 0xb
ARM GAS  C:\Users\salaz\AppData\Local\Temp\ccu2LhKM.s 			page 170


 6867 00d1 49       		.uleb128 0x49
 6868 00d2 13       		.uleb128 0x13
 6869 00d3 3A       		.uleb128 0x3a
 6870 00d4 0B       		.uleb128 0xb
 6871 00d5 3B       		.uleb128 0x3b
 6872 00d6 05       		.uleb128 0x5
 6873 00d7 01       		.uleb128 0x1
 6874 00d8 13       		.uleb128 0x13
 6875 00d9 00       		.byte	0
 6876 00da 00       		.byte	0
 6877 00db 14       		.uleb128 0x14
 6878 00dc 28       		.uleb128 0x28
 6879 00dd 00       		.byte	0
 6880 00de 03       		.uleb128 0x3
 6881 00df 0E       		.uleb128 0xe
 6882 00e0 1C       		.uleb128 0x1c
 6883 00e1 05       		.uleb128 0x5
 6884 00e2 00       		.byte	0
 6885 00e3 00       		.byte	0
 6886 00e4 15       		.uleb128 0x15
 6887 00e5 28       		.uleb128 0x28
 6888 00e6 00       		.byte	0
 6889 00e7 03       		.uleb128 0x3
 6890 00e8 0E       		.uleb128 0xe
 6891 00e9 1C       		.uleb128 0x1c
 6892 00ea 06       		.uleb128 0x6
 6893 00eb 00       		.byte	0
 6894 00ec 00       		.byte	0
 6895 00ed 16       		.uleb128 0x16
 6896 00ee 13       		.uleb128 0x13
 6897 00ef 01       		.byte	0x1
 6898 00f0 0B       		.uleb128 0xb
 6899 00f1 0B       		.uleb128 0xb
 6900 00f2 3A       		.uleb128 0x3a
 6901 00f3 0B       		.uleb128 0xb
 6902 00f4 3B       		.uleb128 0x3b
 6903 00f5 05       		.uleb128 0x5
 6904 00f6 01       		.uleb128 0x1
 6905 00f7 13       		.uleb128 0x13
 6906 00f8 00       		.byte	0
 6907 00f9 00       		.byte	0
 6908 00fa 17       		.uleb128 0x17
 6909 00fb 0D       		.uleb128 0xd
 6910 00fc 00       		.byte	0
 6911 00fd 03       		.uleb128 0x3
 6912 00fe 0E       		.uleb128 0xe
 6913 00ff 3A       		.uleb128 0x3a
 6914 0100 0B       		.uleb128 0xb
 6915 0101 3B       		.uleb128 0x3b
 6916 0102 05       		.uleb128 0x5
 6917 0103 49       		.uleb128 0x49
 6918 0104 13       		.uleb128 0x13
 6919 0105 38       		.uleb128 0x38
 6920 0106 0B       		.uleb128 0xb
 6921 0107 00       		.byte	0
 6922 0108 00       		.byte	0
 6923 0109 18       		.uleb128 0x18
ARM GAS  C:\Users\salaz\AppData\Local\Temp\ccu2LhKM.s 			page 171


 6924 010a 0F       		.uleb128 0xf
 6925 010b 00       		.byte	0
 6926 010c 0B       		.uleb128 0xb
 6927 010d 0B       		.uleb128 0xb
 6928 010e 49       		.uleb128 0x49
 6929 010f 13       		.uleb128 0x13
 6930 0110 00       		.byte	0
 6931 0111 00       		.byte	0
 6932 0112 19       		.uleb128 0x19
 6933 0113 17       		.uleb128 0x17
 6934 0114 01       		.byte	0x1
 6935 0115 0B       		.uleb128 0xb
 6936 0116 0B       		.uleb128 0xb
 6937 0117 3A       		.uleb128 0x3a
 6938 0118 0B       		.uleb128 0xb
 6939 0119 3B       		.uleb128 0x3b
 6940 011a 0B       		.uleb128 0xb
 6941 011b 01       		.uleb128 0x1
 6942 011c 13       		.uleb128 0x13
 6943 011d 00       		.byte	0
 6944 011e 00       		.byte	0
 6945 011f 1A       		.uleb128 0x1a
 6946 0120 0D       		.uleb128 0xd
 6947 0121 00       		.byte	0
 6948 0122 03       		.uleb128 0x3
 6949 0123 0E       		.uleb128 0xe
 6950 0124 3A       		.uleb128 0x3a
 6951 0125 0B       		.uleb128 0xb
 6952 0126 3B       		.uleb128 0x3b
 6953 0127 0B       		.uleb128 0xb
 6954 0128 49       		.uleb128 0x49
 6955 0129 13       		.uleb128 0x13
 6956 012a 00       		.byte	0
 6957 012b 00       		.byte	0
 6958 012c 1B       		.uleb128 0x1b
 6959 012d 15       		.uleb128 0x15
 6960 012e 01       		.byte	0x1
 6961 012f 27       		.uleb128 0x27
 6962 0130 19       		.uleb128 0x19
 6963 0131 01       		.uleb128 0x1
 6964 0132 13       		.uleb128 0x13
 6965 0133 00       		.byte	0
 6966 0134 00       		.byte	0
 6967 0135 1C       		.uleb128 0x1c
 6968 0136 05       		.uleb128 0x5
 6969 0137 00       		.byte	0
 6970 0138 49       		.uleb128 0x49
 6971 0139 13       		.uleb128 0x13
 6972 013a 00       		.byte	0
 6973 013b 00       		.byte	0
 6974 013c 1D       		.uleb128 0x1d
 6975 013d 13       		.uleb128 0x13
 6976 013e 01       		.byte	0x1
 6977 013f 0B       		.uleb128 0xb
 6978 0140 05       		.uleb128 0x5
 6979 0141 3A       		.uleb128 0x3a
 6980 0142 0B       		.uleb128 0xb
ARM GAS  C:\Users\salaz\AppData\Local\Temp\ccu2LhKM.s 			page 172


 6981 0143 3B       		.uleb128 0x3b
 6982 0144 05       		.uleb128 0x5
 6983 0145 01       		.uleb128 0x1
 6984 0146 13       		.uleb128 0x13
 6985 0147 00       		.byte	0
 6986 0148 00       		.byte	0
 6987 0149 1E       		.uleb128 0x1e
 6988 014a 0D       		.uleb128 0xd
 6989 014b 00       		.byte	0
 6990 014c 03       		.uleb128 0x3
 6991 014d 0E       		.uleb128 0xe
 6992 014e 3A       		.uleb128 0x3a
 6993 014f 0B       		.uleb128 0xb
 6994 0150 3B       		.uleb128 0x3b
 6995 0151 05       		.uleb128 0x5
 6996 0152 49       		.uleb128 0x49
 6997 0153 13       		.uleb128 0x13
 6998 0154 38       		.uleb128 0x38
 6999 0155 05       		.uleb128 0x5
 7000 0156 00       		.byte	0
 7001 0157 00       		.byte	0
 7002 0158 1F       		.uleb128 0x1f
 7003 0159 2E       		.uleb128 0x2e
 7004 015a 01       		.byte	0x1
 7005 015b 03       		.uleb128 0x3
 7006 015c 0E       		.uleb128 0xe
 7007 015d 3A       		.uleb128 0x3a
 7008 015e 0B       		.uleb128 0xb
 7009 015f 3B       		.uleb128 0x3b
 7010 0160 05       		.uleb128 0x5
 7011 0161 27       		.uleb128 0x27
 7012 0162 19       		.uleb128 0x19
 7013 0163 49       		.uleb128 0x49
 7014 0164 13       		.uleb128 0x13
 7015 0165 20       		.uleb128 0x20
 7016 0166 0B       		.uleb128 0xb
 7017 0167 01       		.uleb128 0x1
 7018 0168 13       		.uleb128 0x13
 7019 0169 00       		.byte	0
 7020 016a 00       		.byte	0
 7021 016b 20       		.uleb128 0x20
 7022 016c 05       		.uleb128 0x5
 7023 016d 00       		.byte	0
 7024 016e 03       		.uleb128 0x3
 7025 016f 0E       		.uleb128 0xe
 7026 0170 3A       		.uleb128 0x3a
 7027 0171 0B       		.uleb128 0xb
 7028 0172 3B       		.uleb128 0x3b
 7029 0173 05       		.uleb128 0x5
 7030 0174 49       		.uleb128 0x49
 7031 0175 13       		.uleb128 0x13
 7032 0176 00       		.byte	0
 7033 0177 00       		.byte	0
 7034 0178 21       		.uleb128 0x21
 7035 0179 34       		.uleb128 0x34
 7036 017a 00       		.byte	0
 7037 017b 03       		.uleb128 0x3
ARM GAS  C:\Users\salaz\AppData\Local\Temp\ccu2LhKM.s 			page 173


 7038 017c 08       		.uleb128 0x8
 7039 017d 3A       		.uleb128 0x3a
 7040 017e 0B       		.uleb128 0xb
 7041 017f 3B       		.uleb128 0x3b
 7042 0180 05       		.uleb128 0x5
 7043 0181 49       		.uleb128 0x49
 7044 0182 13       		.uleb128 0x13
 7045 0183 00       		.byte	0
 7046 0184 00       		.byte	0
 7047 0185 22       		.uleb128 0x22
 7048 0186 34       		.uleb128 0x34
 7049 0187 00       		.byte	0
 7050 0188 03       		.uleb128 0x3
 7051 0189 0E       		.uleb128 0xe
 7052 018a 3A       		.uleb128 0x3a
 7053 018b 0B       		.uleb128 0xb
 7054 018c 3B       		.uleb128 0x3b
 7055 018d 05       		.uleb128 0x5
 7056 018e 49       		.uleb128 0x49
 7057 018f 13       		.uleb128 0x13
 7058 0190 00       		.byte	0
 7059 0191 00       		.byte	0
 7060 0192 23       		.uleb128 0x23
 7061 0193 2E       		.uleb128 0x2e
 7062 0194 00       		.byte	0
 7063 0195 03       		.uleb128 0x3
 7064 0196 0E       		.uleb128 0xe
 7065 0197 3A       		.uleb128 0x3a
 7066 0198 0B       		.uleb128 0xb
 7067 0199 3B       		.uleb128 0x3b
 7068 019a 05       		.uleb128 0x5
 7069 019b 27       		.uleb128 0x27
 7070 019c 19       		.uleb128 0x19
 7071 019d 49       		.uleb128 0x49
 7072 019e 13       		.uleb128 0x13
 7073 019f 20       		.uleb128 0x20
 7074 01a0 0B       		.uleb128 0xb
 7075 01a1 00       		.byte	0
 7076 01a2 00       		.byte	0
 7077 01a3 24       		.uleb128 0x24
 7078 01a4 2E       		.uleb128 0x2e
 7079 01a5 01       		.byte	0x1
 7080 01a6 03       		.uleb128 0x3
 7081 01a7 0E       		.uleb128 0xe
 7082 01a8 3A       		.uleb128 0x3a
 7083 01a9 0B       		.uleb128 0xb
 7084 01aa 3B       		.uleb128 0x3b
 7085 01ab 05       		.uleb128 0x5
 7086 01ac 27       		.uleb128 0x27
 7087 01ad 19       		.uleb128 0x19
 7088 01ae 20       		.uleb128 0x20
 7089 01af 0B       		.uleb128 0xb
 7090 01b0 01       		.uleb128 0x1
 7091 01b1 13       		.uleb128 0x13
 7092 01b2 00       		.byte	0
 7093 01b3 00       		.byte	0
 7094 01b4 25       		.uleb128 0x25
ARM GAS  C:\Users\salaz\AppData\Local\Temp\ccu2LhKM.s 			page 174


 7095 01b5 2E       		.uleb128 0x2e
 7096 01b6 01       		.byte	0x1
 7097 01b7 03       		.uleb128 0x3
 7098 01b8 0E       		.uleb128 0xe
 7099 01b9 3A       		.uleb128 0x3a
 7100 01ba 0B       		.uleb128 0xb
 7101 01bb 3B       		.uleb128 0x3b
 7102 01bc 05       		.uleb128 0x5
 7103 01bd 27       		.uleb128 0x27
 7104 01be 19       		.uleb128 0x19
 7105 01bf 11       		.uleb128 0x11
 7106 01c0 01       		.uleb128 0x1
 7107 01c1 12       		.uleb128 0x12
 7108 01c2 06       		.uleb128 0x6
 7109 01c3 40       		.uleb128 0x40
 7110 01c4 18       		.uleb128 0x18
 7111 01c5 9742     		.uleb128 0x2117
 7112 01c7 19       		.uleb128 0x19
 7113 01c8 01       		.uleb128 0x1
 7114 01c9 13       		.uleb128 0x13
 7115 01ca 00       		.byte	0
 7116 01cb 00       		.byte	0
 7117 01cc 26       		.uleb128 0x26
 7118 01cd 05       		.uleb128 0x5
 7119 01ce 00       		.byte	0
 7120 01cf 03       		.uleb128 0x3
 7121 01d0 0E       		.uleb128 0xe
 7122 01d1 3A       		.uleb128 0x3a
 7123 01d2 0B       		.uleb128 0xb
 7124 01d3 3B       		.uleb128 0x3b
 7125 01d4 05       		.uleb128 0x5
 7126 01d5 49       		.uleb128 0x49
 7127 01d6 13       		.uleb128 0x13
 7128 01d7 02       		.uleb128 0x2
 7129 01d8 18       		.uleb128 0x18
 7130 01d9 00       		.byte	0
 7131 01da 00       		.byte	0
 7132 01db 27       		.uleb128 0x27
 7133 01dc 05       		.uleb128 0x5
 7134 01dd 00       		.byte	0
 7135 01de 03       		.uleb128 0x3
 7136 01df 0E       		.uleb128 0xe
 7137 01e0 3A       		.uleb128 0x3a
 7138 01e1 0B       		.uleb128 0xb
 7139 01e2 3B       		.uleb128 0x3b
 7140 01e3 05       		.uleb128 0x5
 7141 01e4 49       		.uleb128 0x49
 7142 01e5 13       		.uleb128 0x13
 7143 01e6 02       		.uleb128 0x2
 7144 01e7 17       		.uleb128 0x17
 7145 01e8 00       		.byte	0
 7146 01e9 00       		.byte	0
 7147 01ea 28       		.uleb128 0x28
 7148 01eb 34       		.uleb128 0x34
 7149 01ec 00       		.byte	0
 7150 01ed 03       		.uleb128 0x3
 7151 01ee 08       		.uleb128 0x8
ARM GAS  C:\Users\salaz\AppData\Local\Temp\ccu2LhKM.s 			page 175


 7152 01ef 3A       		.uleb128 0x3a
 7153 01f0 0B       		.uleb128 0xb
 7154 01f1 3B       		.uleb128 0x3b
 7155 01f2 05       		.uleb128 0x5
 7156 01f3 49       		.uleb128 0x49
 7157 01f4 13       		.uleb128 0x13
 7158 01f5 02       		.uleb128 0x2
 7159 01f6 17       		.uleb128 0x17
 7160 01f7 00       		.byte	0
 7161 01f8 00       		.byte	0
 7162 01f9 29       		.uleb128 0x29
 7163 01fa 34       		.uleb128 0x34
 7164 01fb 00       		.byte	0
 7165 01fc 03       		.uleb128 0x3
 7166 01fd 0E       		.uleb128 0xe
 7167 01fe 3A       		.uleb128 0x3a
 7168 01ff 0B       		.uleb128 0xb
 7169 0200 3B       		.uleb128 0x3b
 7170 0201 05       		.uleb128 0x5
 7171 0202 49       		.uleb128 0x49
 7172 0203 13       		.uleb128 0x13
 7173 0204 02       		.uleb128 0x2
 7174 0205 17       		.uleb128 0x17
 7175 0206 00       		.byte	0
 7176 0207 00       		.byte	0
 7177 0208 2A       		.uleb128 0x2a
 7178 0209 34       		.uleb128 0x34
 7179 020a 00       		.byte	0
 7180 020b 03       		.uleb128 0x3
 7181 020c 0E       		.uleb128 0xe
 7182 020d 3A       		.uleb128 0x3a
 7183 020e 0B       		.uleb128 0xb
 7184 020f 3B       		.uleb128 0x3b
 7185 0210 05       		.uleb128 0x5
 7186 0211 49       		.uleb128 0x49
 7187 0212 13       		.uleb128 0x13
 7188 0213 1C       		.uleb128 0x1c
 7189 0214 0B       		.uleb128 0xb
 7190 0215 00       		.byte	0
 7191 0216 00       		.byte	0
 7192 0217 2B       		.uleb128 0x2b
 7193 0218 2E       		.uleb128 0x2e
 7194 0219 01       		.byte	0x1
 7195 021a 3F       		.uleb128 0x3f
 7196 021b 19       		.uleb128 0x19
 7197 021c 03       		.uleb128 0x3
 7198 021d 0E       		.uleb128 0xe
 7199 021e 3A       		.uleb128 0x3a
 7200 021f 0B       		.uleb128 0xb
 7201 0220 3B       		.uleb128 0x3b
 7202 0221 0B       		.uleb128 0xb
 7203 0222 27       		.uleb128 0x27
 7204 0223 19       		.uleb128 0x19
 7205 0224 11       		.uleb128 0x11
 7206 0225 01       		.uleb128 0x1
 7207 0226 12       		.uleb128 0x12
 7208 0227 06       		.uleb128 0x6
ARM GAS  C:\Users\salaz\AppData\Local\Temp\ccu2LhKM.s 			page 176


 7209 0228 40       		.uleb128 0x40
 7210 0229 18       		.uleb128 0x18
 7211 022a 9742     		.uleb128 0x2117
 7212 022c 19       		.uleb128 0x19
 7213 022d 01       		.uleb128 0x1
 7214 022e 13       		.uleb128 0x13
 7215 022f 00       		.byte	0
 7216 0230 00       		.byte	0
 7217 0231 2C       		.uleb128 0x2c
 7218 0232 898201   		.uleb128 0x4109
 7219 0235 00       		.byte	0
 7220 0236 11       		.uleb128 0x11
 7221 0237 01       		.uleb128 0x1
 7222 0238 31       		.uleb128 0x31
 7223 0239 13       		.uleb128 0x13
 7224 023a 00       		.byte	0
 7225 023b 00       		.byte	0
 7226 023c 2D       		.uleb128 0x2d
 7227 023d 2E       		.uleb128 0x2e
 7228 023e 01       		.byte	0x1
 7229 023f 3F       		.uleb128 0x3f
 7230 0240 19       		.uleb128 0x19
 7231 0241 03       		.uleb128 0x3
 7232 0242 0E       		.uleb128 0xe
 7233 0243 3A       		.uleb128 0x3a
 7234 0244 0B       		.uleb128 0xb
 7235 0245 3B       		.uleb128 0x3b
 7236 0246 05       		.uleb128 0x5
 7237 0247 27       		.uleb128 0x27
 7238 0248 19       		.uleb128 0x19
 7239 0249 49       		.uleb128 0x49
 7240 024a 13       		.uleb128 0x13
 7241 024b 11       		.uleb128 0x11
 7242 024c 01       		.uleb128 0x1
 7243 024d 12       		.uleb128 0x12
 7244 024e 06       		.uleb128 0x6
 7245 024f 40       		.uleb128 0x40
 7246 0250 18       		.uleb128 0x18
 7247 0251 9742     		.uleb128 0x2117
 7248 0253 19       		.uleb128 0x19
 7249 0254 01       		.uleb128 0x1
 7250 0255 13       		.uleb128 0x13
 7251 0256 00       		.byte	0
 7252 0257 00       		.byte	0
 7253 0258 2E       		.uleb128 0x2e
 7254 0259 34       		.uleb128 0x34
 7255 025a 00       		.byte	0
 7256 025b 03       		.uleb128 0x3
 7257 025c 0E       		.uleb128 0xe
 7258 025d 3A       		.uleb128 0x3a
 7259 025e 0B       		.uleb128 0xb
 7260 025f 3B       		.uleb128 0x3b
 7261 0260 05       		.uleb128 0x5
 7262 0261 49       		.uleb128 0x49
 7263 0262 13       		.uleb128 0x13
 7264 0263 02       		.uleb128 0x2
 7265 0264 18       		.uleb128 0x18
ARM GAS  C:\Users\salaz\AppData\Local\Temp\ccu2LhKM.s 			page 177


 7266 0265 00       		.byte	0
 7267 0266 00       		.byte	0
 7268 0267 2F       		.uleb128 0x2f
 7269 0268 0B       		.uleb128 0xb
 7270 0269 01       		.byte	0x1
 7271 026a 11       		.uleb128 0x11
 7272 026b 01       		.uleb128 0x1
 7273 026c 12       		.uleb128 0x12
 7274 026d 06       		.uleb128 0x6
 7275 026e 00       		.byte	0
 7276 026f 00       		.byte	0
 7277 0270 30       		.uleb128 0x30
 7278 0271 898201   		.uleb128 0x4109
 7279 0274 01       		.byte	0x1
 7280 0275 11       		.uleb128 0x11
 7281 0276 01       		.uleb128 0x1
 7282 0277 31       		.uleb128 0x31
 7283 0278 13       		.uleb128 0x13
 7284 0279 01       		.uleb128 0x1
 7285 027a 13       		.uleb128 0x13
 7286 027b 00       		.byte	0
 7287 027c 00       		.byte	0
 7288 027d 31       		.uleb128 0x31
 7289 027e 8A8201   		.uleb128 0x410a
 7290 0281 00       		.byte	0
 7291 0282 02       		.uleb128 0x2
 7292 0283 18       		.uleb128 0x18
 7293 0284 9142     		.uleb128 0x2111
 7294 0286 18       		.uleb128 0x18
 7295 0287 00       		.byte	0
 7296 0288 00       		.byte	0
 7297 0289 32       		.uleb128 0x32
 7298 028a 0B       		.uleb128 0xb
 7299 028b 01       		.byte	0x1
 7300 028c 11       		.uleb128 0x11
 7301 028d 01       		.uleb128 0x1
 7302 028e 12       		.uleb128 0x12
 7303 028f 06       		.uleb128 0x6
 7304 0290 01       		.uleb128 0x1
 7305 0291 13       		.uleb128 0x13
 7306 0292 00       		.byte	0
 7307 0293 00       		.byte	0
 7308 0294 33       		.uleb128 0x33
 7309 0295 898201   		.uleb128 0x4109
 7310 0298 01       		.byte	0x1
 7311 0299 11       		.uleb128 0x11
 7312 029a 01       		.uleb128 0x1
 7313 029b 31       		.uleb128 0x31
 7314 029c 13       		.uleb128 0x13
 7315 029d 00       		.byte	0
 7316 029e 00       		.byte	0
 7317 029f 34       		.uleb128 0x34
 7318 02a0 1D       		.uleb128 0x1d
 7319 02a1 01       		.byte	0x1
 7320 02a2 31       		.uleb128 0x31
 7321 02a3 13       		.uleb128 0x13
 7322 02a4 11       		.uleb128 0x11
ARM GAS  C:\Users\salaz\AppData\Local\Temp\ccu2LhKM.s 			page 178


 7323 02a5 01       		.uleb128 0x1
 7324 02a6 12       		.uleb128 0x12
 7325 02a7 06       		.uleb128 0x6
 7326 02a8 58       		.uleb128 0x58
 7327 02a9 0B       		.uleb128 0xb
 7328 02aa 59       		.uleb128 0x59
 7329 02ab 05       		.uleb128 0x5
 7330 02ac 01       		.uleb128 0x1
 7331 02ad 13       		.uleb128 0x13
 7332 02ae 00       		.byte	0
 7333 02af 00       		.byte	0
 7334 02b0 35       		.uleb128 0x35
 7335 02b1 05       		.uleb128 0x5
 7336 02b2 00       		.byte	0
 7337 02b3 31       		.uleb128 0x31
 7338 02b4 13       		.uleb128 0x13
 7339 02b5 02       		.uleb128 0x2
 7340 02b6 18       		.uleb128 0x18
 7341 02b7 00       		.byte	0
 7342 02b8 00       		.byte	0
 7343 02b9 36       		.uleb128 0x36
 7344 02ba 34       		.uleb128 0x34
 7345 02bb 00       		.byte	0
 7346 02bc 31       		.uleb128 0x31
 7347 02bd 13       		.uleb128 0x13
 7348 02be 02       		.uleb128 0x2
 7349 02bf 17       		.uleb128 0x17
 7350 02c0 00       		.byte	0
 7351 02c1 00       		.byte	0
 7352 02c2 37       		.uleb128 0x37
 7353 02c3 1D       		.uleb128 0x1d
 7354 02c4 00       		.byte	0
 7355 02c5 31       		.uleb128 0x31
 7356 02c6 13       		.uleb128 0x13
 7357 02c7 11       		.uleb128 0x11
 7358 02c8 01       		.uleb128 0x1
 7359 02c9 12       		.uleb128 0x12
 7360 02ca 06       		.uleb128 0x6
 7361 02cb 58       		.uleb128 0x58
 7362 02cc 0B       		.uleb128 0xb
 7363 02cd 59       		.uleb128 0x59
 7364 02ce 05       		.uleb128 0x5
 7365 02cf 00       		.byte	0
 7366 02d0 00       		.byte	0
 7367 02d1 38       		.uleb128 0x38
 7368 02d2 05       		.uleb128 0x5
 7369 02d3 00       		.byte	0
 7370 02d4 31       		.uleb128 0x31
 7371 02d5 13       		.uleb128 0x13
 7372 02d6 02       		.uleb128 0x2
 7373 02d7 17       		.uleb128 0x17
 7374 02d8 00       		.byte	0
 7375 02d9 00       		.byte	0
 7376 02da 39       		.uleb128 0x39
 7377 02db 2E       		.uleb128 0x2e
 7378 02dc 01       		.byte	0x1
 7379 02dd 3F       		.uleb128 0x3f
ARM GAS  C:\Users\salaz\AppData\Local\Temp\ccu2LhKM.s 			page 179


 7380 02de 19       		.uleb128 0x19
 7381 02df 03       		.uleb128 0x3
 7382 02e0 0E       		.uleb128 0xe
 7383 02e1 3A       		.uleb128 0x3a
 7384 02e2 0B       		.uleb128 0xb
 7385 02e3 3B       		.uleb128 0x3b
 7386 02e4 05       		.uleb128 0x5
 7387 02e5 27       		.uleb128 0x27
 7388 02e6 19       		.uleb128 0x19
 7389 02e7 11       		.uleb128 0x11
 7390 02e8 01       		.uleb128 0x1
 7391 02e9 12       		.uleb128 0x12
 7392 02ea 06       		.uleb128 0x6
 7393 02eb 40       		.uleb128 0x40
 7394 02ec 18       		.uleb128 0x18
 7395 02ed 9742     		.uleb128 0x2117
 7396 02ef 19       		.uleb128 0x19
 7397 02f0 01       		.uleb128 0x1
 7398 02f1 13       		.uleb128 0x13
 7399 02f2 00       		.byte	0
 7400 02f3 00       		.byte	0
 7401 02f4 3A       		.uleb128 0x3a
 7402 02f5 34       		.uleb128 0x34
 7403 02f6 00       		.byte	0
 7404 02f7 03       		.uleb128 0x3
 7405 02f8 0E       		.uleb128 0xe
 7406 02f9 3A       		.uleb128 0x3a
 7407 02fa 0B       		.uleb128 0xb
 7408 02fb 3B       		.uleb128 0x3b
 7409 02fc 0B       		.uleb128 0xb
 7410 02fd 49       		.uleb128 0x49
 7411 02fe 13       		.uleb128 0x13
 7412 02ff 02       		.uleb128 0x2
 7413 0300 18       		.uleb128 0x18
 7414 0301 00       		.byte	0
 7415 0302 00       		.byte	0
 7416 0303 3B       		.uleb128 0x3b
 7417 0304 34       		.uleb128 0x34
 7418 0305 00       		.byte	0
 7419 0306 03       		.uleb128 0x3
 7420 0307 0E       		.uleb128 0xe
 7421 0308 3A       		.uleb128 0x3a
 7422 0309 0B       		.uleb128 0xb
 7423 030a 3B       		.uleb128 0x3b
 7424 030b 0B       		.uleb128 0xb
 7425 030c 49       		.uleb128 0x49
 7426 030d 13       		.uleb128 0x13
 7427 030e 3F       		.uleb128 0x3f
 7428 030f 19       		.uleb128 0x19
 7429 0310 02       		.uleb128 0x2
 7430 0311 18       		.uleb128 0x18
 7431 0312 00       		.byte	0
 7432 0313 00       		.byte	0
 7433 0314 3C       		.uleb128 0x3c
 7434 0315 34       		.uleb128 0x34
 7435 0316 00       		.byte	0
 7436 0317 03       		.uleb128 0x3
ARM GAS  C:\Users\salaz\AppData\Local\Temp\ccu2LhKM.s 			page 180


 7437 0318 0E       		.uleb128 0xe
 7438 0319 3A       		.uleb128 0x3a
 7439 031a 0B       		.uleb128 0xb
 7440 031b 3B       		.uleb128 0x3b
 7441 031c 05       		.uleb128 0x5
 7442 031d 49       		.uleb128 0x49
 7443 031e 13       		.uleb128 0x13
 7444 031f 3F       		.uleb128 0x3f
 7445 0320 19       		.uleb128 0x19
 7446 0321 3C       		.uleb128 0x3c
 7447 0322 19       		.uleb128 0x19
 7448 0323 00       		.byte	0
 7449 0324 00       		.byte	0
 7450 0325 3D       		.uleb128 0x3d
 7451 0326 34       		.uleb128 0x34
 7452 0327 00       		.byte	0
 7453 0328 03       		.uleb128 0x3
 7454 0329 0E       		.uleb128 0xe
 7455 032a 3A       		.uleb128 0x3a
 7456 032b 0B       		.uleb128 0xb
 7457 032c 3B       		.uleb128 0x3b
 7458 032d 0B       		.uleb128 0xb
 7459 032e 49       		.uleb128 0x49
 7460 032f 13       		.uleb128 0x13
 7461 0330 3F       		.uleb128 0x3f
 7462 0331 19       		.uleb128 0x19
 7463 0332 3C       		.uleb128 0x3c
 7464 0333 19       		.uleb128 0x19
 7465 0334 00       		.byte	0
 7466 0335 00       		.byte	0
 7467 0336 3E       		.uleb128 0x3e
 7468 0337 2E       		.uleb128 0x2e
 7469 0338 00       		.byte	0
 7470 0339 3F       		.uleb128 0x3f
 7471 033a 19       		.uleb128 0x19
 7472 033b 3C       		.uleb128 0x3c
 7473 033c 19       		.uleb128 0x19
 7474 033d 6E       		.uleb128 0x6e
 7475 033e 0E       		.uleb128 0xe
 7476 033f 03       		.uleb128 0x3
 7477 0340 0E       		.uleb128 0xe
 7478 0341 3A       		.uleb128 0x3a
 7479 0342 0B       		.uleb128 0xb
 7480 0343 3B       		.uleb128 0x3b
 7481 0344 0B       		.uleb128 0xb
 7482 0345 00       		.byte	0
 7483 0346 00       		.byte	0
 7484 0347 3F       		.uleb128 0x3f
 7485 0348 2E       		.uleb128 0x2e
 7486 0349 00       		.byte	0
 7487 034a 3F       		.uleb128 0x3f
 7488 034b 19       		.uleb128 0x19
 7489 034c 3C       		.uleb128 0x3c
 7490 034d 19       		.uleb128 0x19
 7491 034e 6E       		.uleb128 0x6e
 7492 034f 0E       		.uleb128 0xe
 7493 0350 03       		.uleb128 0x3
ARM GAS  C:\Users\salaz\AppData\Local\Temp\ccu2LhKM.s 			page 181


 7494 0351 0E       		.uleb128 0xe
 7495 0352 3A       		.uleb128 0x3a
 7496 0353 0B       		.uleb128 0xb
 7497 0354 3B       		.uleb128 0x3b
 7498 0355 05       		.uleb128 0x5
 7499 0356 00       		.byte	0
 7500 0357 00       		.byte	0
 7501 0358 40       		.uleb128 0x40
 7502 0359 2E       		.uleb128 0x2e
 7503 035a 00       		.byte	0
 7504 035b 3F       		.uleb128 0x3f
 7505 035c 19       		.uleb128 0x19
 7506 035d 3C       		.uleb128 0x3c
 7507 035e 19       		.uleb128 0x19
 7508 035f 6E       		.uleb128 0x6e
 7509 0360 0E       		.uleb128 0xe
 7510 0361 03       		.uleb128 0x3
 7511 0362 0E       		.uleb128 0xe
 7512 0363 00       		.byte	0
 7513 0364 00       		.byte	0
 7514 0365 00       		.byte	0
 7515              		.section	.debug_loc,"",%progbits
 7516              	.Ldebug_loc0:
 7517              	.LLST0:
 7518 0000 00000000 		.4byte	.LVL0
 7519 0004 14000000 		.4byte	.LVL4
 7520 0008 0100     		.2byte	0x1
 7521 000a 51       		.byte	0x51
 7522 000b 14000000 		.4byte	.LVL4
 7523 000f 18000000 		.4byte	.LVL5
 7524 0013 0400     		.2byte	0x4
 7525 0015 F3       		.byte	0xf3
 7526 0016 01       		.uleb128 0x1
 7527 0017 51       		.byte	0x51
 7528 0018 9F       		.byte	0x9f
 7529 0019 18000000 		.4byte	.LVL5
 7530 001d 24000000 		.4byte	.LVL8
 7531 0021 0100     		.2byte	0x1
 7532 0023 51       		.byte	0x51
 7533 0024 24000000 		.4byte	.LVL8
 7534 0028 80000000 		.4byte	.LFE165
 7535 002c 0400     		.2byte	0x4
 7536 002e F3       		.byte	0xf3
 7537 002f 01       		.uleb128 0x1
 7538 0030 51       		.byte	0x51
 7539 0031 9F       		.byte	0x9f
 7540 0032 00000000 		.4byte	0
 7541 0036 00000000 		.4byte	0
 7542              	.LLST1:
 7543 003a 54000000 		.4byte	.LVL18
 7544 003e 58000000 		.4byte	.LVL19
 7545 0042 0100     		.2byte	0x1
 7546 0044 53       		.byte	0x53
 7547 0045 58000000 		.4byte	.LVL19
 7548 0049 78000000 		.4byte	.LVL23
 7549 004d 0100     		.2byte	0x1
 7550 004f 52       		.byte	0x52
ARM GAS  C:\Users\salaz\AppData\Local\Temp\ccu2LhKM.s 			page 182


 7551 0050 00000000 		.4byte	0
 7552 0054 00000000 		.4byte	0
 7553              	.LLST2:
 7554 0058 02000000 		.4byte	.LVL1
 7555 005c 24000000 		.4byte	.LVL8
 7556 0060 0200     		.2byte	0x2
 7557 0062 30       		.byte	0x30
 7558 0063 9F       		.byte	0x9f
 7559 0064 24000000 		.4byte	.LVL8
 7560 0068 58000000 		.4byte	.LVL19
 7561 006c 0100     		.2byte	0x1
 7562 006e 55       		.byte	0x55
 7563 006f 00000000 		.4byte	0
 7564 0073 00000000 		.4byte	0
 7565              	.LLST3:
 7566 0077 02000000 		.4byte	.LVL1
 7567 007b 24000000 		.4byte	.LVL8
 7568 007f 0200     		.2byte	0x2
 7569 0081 30       		.byte	0x30
 7570 0082 9F       		.byte	0x9f
 7571 0083 24000000 		.4byte	.LVL8
 7572 0087 4E000000 		.4byte	.LVL15
 7573 008b 0100     		.2byte	0x1
 7574 008d 51       		.byte	0x51
 7575 008e 50000000 		.4byte	.LVL16
 7576 0092 6C000000 		.4byte	.LVL21
 7577 0096 0100     		.2byte	0x1
 7578 0098 51       		.byte	0x51
 7579 0099 6C000000 		.4byte	.LVL21
 7580 009d 78000000 		.4byte	.LVL23
 7581 00a1 0100     		.2byte	0x1
 7582 00a3 56       		.byte	0x56
 7583 00a4 00000000 		.4byte	0
 7584 00a8 00000000 		.4byte	0
 7585              	.LLST4:
 7586 00ac 02000000 		.4byte	.LVL1
 7587 00b0 24000000 		.4byte	.LVL8
 7588 00b4 0200     		.2byte	0x2
 7589 00b6 30       		.byte	0x30
 7590 00b7 9F       		.byte	0x9f
 7591 00b8 24000000 		.4byte	.LVL8
 7592 00bc 2C000000 		.4byte	.LVL10
 7593 00c0 0100     		.2byte	0x1
 7594 00c2 53       		.byte	0x53
 7595 00c3 2E000000 		.4byte	.LVL11
 7596 00c7 3A000000 		.4byte	.LVL12
 7597 00cb 0100     		.2byte	0x1
 7598 00cd 53       		.byte	0x53
 7599 00ce 3C000000 		.4byte	.LVL13
 7600 00d2 52000000 		.4byte	.LVL17
 7601 00d6 0100     		.2byte	0x1
 7602 00d8 53       		.byte	0x53
 7603 00d9 00000000 		.4byte	0
 7604 00dd 00000000 		.4byte	0
 7605              	.LLST5:
 7606 00e1 0E000000 		.4byte	.LVL2
 7607 00e5 18000000 		.4byte	.LVL5
ARM GAS  C:\Users\salaz\AppData\Local\Temp\ccu2LhKM.s 			page 183


 7608 00e9 0100     		.2byte	0x1
 7609 00eb 54       		.byte	0x54
 7610 00ec 20000000 		.4byte	.LVL6
 7611 00f0 78000000 		.4byte	.LVL24
 7612 00f4 0100     		.2byte	0x1
 7613 00f6 54       		.byte	0x54
 7614 00f7 00000000 		.4byte	0
 7615 00fb 00000000 		.4byte	0
 7616              	.LLST6:
 7617 00ff 10000000 		.4byte	.LVL3
 7618 0103 18000000 		.4byte	.LVL5
 7619 0107 0100     		.2byte	0x1
 7620 0109 56       		.byte	0x56
 7621 010a 22000000 		.4byte	.LVL7
 7622 010e 58000000 		.4byte	.LVL19
 7623 0112 0100     		.2byte	0x1
 7624 0114 56       		.byte	0x56
 7625 0115 00000000 		.4byte	0
 7626 0119 00000000 		.4byte	0
 7627              	.LLST7:
 7628 011d 00000000 		.4byte	.LVL26
 7629 0121 78000000 		.4byte	.LVL34
 7630 0125 0100     		.2byte	0x1
 7631 0127 50       		.byte	0x50
 7632 0128 78000000 		.4byte	.LVL34
 7633 012c E4000000 		.4byte	.LVL49
 7634 0130 0100     		.2byte	0x1
 7635 0132 57       		.byte	0x57
 7636 0133 E4000000 		.4byte	.LVL49
 7637 0137 FC000000 		.4byte	.LFE159
 7638 013b 0400     		.2byte	0x4
 7639 013d F3       		.byte	0xf3
 7640 013e 01       		.uleb128 0x1
 7641 013f 50       		.byte	0x50
 7642 0140 9F       		.byte	0x9f
 7643 0141 00000000 		.4byte	0
 7644 0145 00000000 		.4byte	0
 7645              	.LLST8:
 7646 0149 1A000000 		.4byte	.LVL27
 7647 014d E0000000 		.4byte	.LVL48
 7648 0151 0100     		.2byte	0x1
 7649 0153 56       		.byte	0x56
 7650 0154 00000000 		.4byte	0
 7651 0158 00000000 		.4byte	0
 7652              	.LLST9:
 7653 015c 26000000 		.4byte	.LVL28
 7654 0160 28000000 		.4byte	.LVL29
 7655 0164 0100     		.2byte	0x1
 7656 0166 53       		.byte	0x53
 7657 0167 28000000 		.4byte	.LVL29
 7658 016b E0000000 		.4byte	.LVL48
 7659 016f 0100     		.2byte	0x1
 7660 0171 55       		.byte	0x55
 7661 0172 00000000 		.4byte	0
 7662 0176 00000000 		.4byte	0
 7663              	.LLST10:
 7664 017a 7C000000 		.4byte	.LVL35
ARM GAS  C:\Users\salaz\AppData\Local\Temp\ccu2LhKM.s 			page 184


 7665 017e 7E000000 		.4byte	.LVL36
 7666 0182 0100     		.2byte	0x1
 7667 0184 53       		.byte	0x53
 7668 0185 7E000000 		.4byte	.LVL36
 7669 0189 86000000 		.4byte	.LVL37
 7670 018d 0700     		.2byte	0x7
 7671 018f 75       		.byte	0x75
 7672 0190 00       		.sleb128 0
 7673 0191 39       		.byte	0x39
 7674 0192 25       		.byte	0x25
 7675 0193 39       		.byte	0x39
 7676 0194 24       		.byte	0x24
 7677 0195 9F       		.byte	0x9f
 7678 0196 86000000 		.4byte	.LVL37
 7679 019a 8C000000 		.4byte	.LVL38
 7680 019e 0100     		.2byte	0x1
 7681 01a0 53       		.byte	0x53
 7682 01a1 8C000000 		.4byte	.LVL38
 7683 01a5 B2000000 		.4byte	.LVL43
 7684 01a9 0100     		.2byte	0x1
 7685 01ab 54       		.byte	0x54
 7686 01ac 00000000 		.4byte	0
 7687 01b0 00000000 		.4byte	0
 7688              	.LLST11:
 7689 01b4 26000000 		.4byte	.LVL28
 7690 01b8 5E000000 		.4byte	.LVL30
 7691 01bc 0200     		.2byte	0x2
 7692 01be 30       		.byte	0x30
 7693 01bf 9F       		.byte	0x9f
 7694 01c0 5E000000 		.4byte	.LVL30
 7695 01c4 64000000 		.4byte	.LVL31
 7696 01c8 0200     		.2byte	0x2
 7697 01ca 31       		.byte	0x31
 7698 01cb 9F       		.byte	0x9f
 7699 01cc 64000000 		.4byte	.LVL31
 7700 01d0 78000000 		.4byte	.LVL34
 7701 01d4 0200     		.2byte	0x2
 7702 01d6 30       		.byte	0x30
 7703 01d7 9F       		.byte	0x9f
 7704 01d8 78000000 		.4byte	.LVL34
 7705 01dc C8000000 		.4byte	.LVL44
 7706 01e0 0100     		.2byte	0x1
 7707 01e2 58       		.byte	0x58
 7708 01e3 CA000000 		.4byte	.LVL45
 7709 01e7 E0000000 		.4byte	.LVL48
 7710 01eb 0100     		.2byte	0x1
 7711 01ed 58       		.byte	0x58
 7712 01ee 00000000 		.4byte	0
 7713 01f2 00000000 		.4byte	0
 7714              	.LLST12:
 7715 01f6 04000000 		.4byte	.LVL50
 7716 01fa 18000000 		.4byte	.LVL52
 7717 01fe 0200     		.2byte	0x2
 7718 0200 30       		.byte	0x30
 7719 0201 9F       		.byte	0x9f
 7720 0202 18000000 		.4byte	.LVL52
 7721 0206 2A000000 		.4byte	.LVL53
ARM GAS  C:\Users\salaz\AppData\Local\Temp\ccu2LhKM.s 			page 185


 7722 020a 0100     		.2byte	0x1
 7723 020c 50       		.byte	0x50
 7724 020d 2A000000 		.4byte	.LVL53
 7725 0211 2C000000 		.4byte	.LVL54
 7726 0215 0600     		.2byte	0x6
 7727 0217 0C       		.byte	0xc
 7728 0218 01001400 		.4byte	0x140001
 7729 021c 9F       		.byte	0x9f
 7730 021d 2C000000 		.4byte	.LVL54
 7731 0221 2E000000 		.4byte	.LVL55
 7732 0225 0200     		.2byte	0x2
 7733 0227 30       		.byte	0x30
 7734 0228 9F       		.byte	0x9f
 7735 0229 2E000000 		.4byte	.LVL55
 7736 022d 8A000000 		.4byte	.LVL60
 7737 0231 0100     		.2byte	0x1
 7738 0233 54       		.byte	0x54
 7739 0234 B6000000 		.4byte	.LVL64
 7740 0238 B8000000 		.4byte	.LVL65
 7741 023c 0100     		.2byte	0x1
 7742 023e 50       		.byte	0x50
 7743 023f B8000000 		.4byte	.LVL65
 7744 0243 0E010000 		.4byte	.LVL71
 7745 0247 0100     		.2byte	0x1
 7746 0249 54       		.byte	0x54
 7747 024a 0E010000 		.4byte	.LVL71
 7748 024e 1C010000 		.4byte	.LVL72
 7749 0252 0100     		.2byte	0x1
 7750 0254 50       		.byte	0x50
 7751 0255 1C010000 		.4byte	.LVL72
 7752 0259 1E010000 		.4byte	.LVL73
 7753 025d 0100     		.2byte	0x1
 7754 025f 54       		.byte	0x54
 7755 0260 5A010000 		.4byte	.LVL77
 7756 0264 66010000 		.4byte	.LVL78
 7757 0268 0100     		.2byte	0x1
 7758 026a 50       		.byte	0x50
 7759 026b 66010000 		.4byte	.LVL78
 7760 026f 76010000 		.4byte	.LVL79
 7761 0273 0100     		.2byte	0x1
 7762 0275 54       		.byte	0x54
 7763 0276 76010000 		.4byte	.LVL79
 7764 027a A4010000 		.4byte	.LFE160
 7765 027e 0100     		.2byte	0x1
 7766 0280 50       		.byte	0x50
 7767 0281 00000000 		.4byte	0
 7768 0285 00000000 		.4byte	0
 7769              	.LLST13:
 7770 0289 48000000 		.4byte	.LVL57
 7771 028d 4C000000 		.4byte	.LVL58
 7772 0291 0200     		.2byte	0x2
 7773 0293 30       		.byte	0x30
 7774 0294 9F       		.byte	0x9f
 7775 0295 4C000000 		.4byte	.LVL58
 7776 0299 CC000000 		.4byte	.LVL67
 7777 029d 0100     		.2byte	0x1
 7778 029f 55       		.byte	0x55
ARM GAS  C:\Users\salaz\AppData\Local\Temp\ccu2LhKM.s 			page 186


 7779 02a0 00000000 		.4byte	0
 7780 02a4 00000000 		.4byte	0
 7781              	.LLST14:
 7782 02a8 A2000000 		.4byte	.LVL61
 7783 02ac B0000000 		.4byte	.LVL62
 7784 02b0 0100     		.2byte	0x1
 7785 02b2 50       		.byte	0x50
 7786 02b3 B0000000 		.4byte	.LVL62
 7787 02b7 B3000000 		.4byte	.LVL63-1
 7788 02bb 0200     		.2byte	0x2
 7789 02bd 76       		.byte	0x76
 7790 02be 08       		.sleb128 8
 7791 02bf 00000000 		.4byte	0
 7792 02c3 00000000 		.4byte	0
 7793              	.LLST15:
 7794 02c7 00000000 		.4byte	.LVL80
 7795 02cb 16000000 		.4byte	.LVL82
 7796 02cf 0100     		.2byte	0x1
 7797 02d1 50       		.byte	0x50
 7798 02d2 16000000 		.4byte	.LVL82
 7799 02d6 64000000 		.4byte	.LVL90
 7800 02da 0100     		.2byte	0x1
 7801 02dc 54       		.byte	0x54
 7802 02dd 64000000 		.4byte	.LVL90
 7803 02e1 66000000 		.4byte	.LVL91
 7804 02e5 0100     		.2byte	0x1
 7805 02e7 50       		.byte	0x50
 7806 02e8 66000000 		.4byte	.LVL91
 7807 02ec 68000000 		.4byte	.LVL92
 7808 02f0 0100     		.2byte	0x1
 7809 02f2 54       		.byte	0x54
 7810 02f3 68000000 		.4byte	.LVL92
 7811 02f7 6A000000 		.4byte	.LVL93
 7812 02fb 0100     		.2byte	0x1
 7813 02fd 50       		.byte	0x50
 7814 02fe 6A000000 		.4byte	.LVL93
 7815 0302 6C000000 		.4byte	.LVL94
 7816 0306 0100     		.2byte	0x1
 7817 0308 54       		.byte	0x54
 7818 0309 6C000000 		.4byte	.LVL94
 7819 030d 80000000 		.4byte	.LFE161
 7820 0311 0400     		.2byte	0x4
 7821 0313 F3       		.byte	0xf3
 7822 0314 01       		.uleb128 0x1
 7823 0315 50       		.byte	0x50
 7824 0316 9F       		.byte	0x9f
 7825 0317 00000000 		.4byte	0
 7826 031b 00000000 		.4byte	0
 7827              	.LLST16:
 7828 031f 06000000 		.4byte	.LVL81
 7829 0323 42000000 		.4byte	.LVL86
 7830 0327 0200     		.2byte	0x2
 7831 0329 30       		.byte	0x30
 7832 032a 9F       		.byte	0x9f
 7833 032b 42000000 		.4byte	.LVL86
 7834 032f 5E000000 		.4byte	.LVL88
 7835 0333 0100     		.2byte	0x1
ARM GAS  C:\Users\salaz\AppData\Local\Temp\ccu2LhKM.s 			page 187


 7836 0335 50       		.byte	0x50
 7837 0336 62000000 		.4byte	.LVL89
 7838 033a 64000000 		.4byte	.LVL90
 7839 033e 0100     		.2byte	0x1
 7840 0340 50       		.byte	0x50
 7841 0341 64000000 		.4byte	.LVL90
 7842 0345 6A000000 		.4byte	.LVL93
 7843 0349 0200     		.2byte	0x2
 7844 034b 30       		.byte	0x30
 7845 034c 9F       		.byte	0x9f
 7846 034d 6A000000 		.4byte	.LVL93
 7847 0351 80000000 		.4byte	.LFE161
 7848 0355 0100     		.2byte	0x1
 7849 0357 50       		.byte	0x50
 7850 0358 00000000 		.4byte	0
 7851 035c 00000000 		.4byte	0
 7852              	.LLST17:
 7853 0360 00000000 		.4byte	.LVL95
 7854 0364 D6000000 		.4byte	.LVL106
 7855 0368 0100     		.2byte	0x1
 7856 036a 50       		.byte	0x50
 7857 036b E5000000 		.4byte	.LVL107-1
 7858 036f F2000000 		.4byte	.LVL109
 7859 0373 0400     		.2byte	0x4
 7860 0375 F3       		.byte	0xf3
 7861 0376 01       		.uleb128 0x1
 7862 0377 50       		.byte	0x50
 7863 0378 9F       		.byte	0x9f
 7864 0379 F2000000 		.4byte	.LVL109
 7865 037d F4000000 		.4byte	.LVL110
 7866 0381 0100     		.2byte	0x1
 7867 0383 50       		.byte	0x50
 7868 0384 F4000000 		.4byte	.LVL110
 7869 0388 F6000000 		.4byte	.LVL111
 7870 038c 0400     		.2byte	0x4
 7871 038e F3       		.byte	0xf3
 7872 038f 01       		.uleb128 0x1
 7873 0390 50       		.byte	0x50
 7874 0391 9F       		.byte	0x9f
 7875 0392 F6000000 		.4byte	.LVL111
 7876 0396 F8000000 		.4byte	.LVL112
 7877 039a 0100     		.2byte	0x1
 7878 039c 50       		.byte	0x50
 7879 039d F8000000 		.4byte	.LVL112
 7880 03a1 FA000000 		.4byte	.LVL113
 7881 03a5 0400     		.2byte	0x4
 7882 03a7 F3       		.byte	0xf3
 7883 03a8 01       		.uleb128 0x1
 7884 03a9 50       		.byte	0x50
 7885 03aa 9F       		.byte	0x9f
 7886 03ab FA000000 		.4byte	.LVL113
 7887 03af FC000000 		.4byte	.LVL114
 7888 03b3 0100     		.2byte	0x1
 7889 03b5 50       		.byte	0x50
 7890 03b6 FC000000 		.4byte	.LVL114
 7891 03ba FE000000 		.4byte	.LVL115
 7892 03be 0400     		.2byte	0x4
ARM GAS  C:\Users\salaz\AppData\Local\Temp\ccu2LhKM.s 			page 188


 7893 03c0 F3       		.byte	0xf3
 7894 03c1 01       		.uleb128 0x1
 7895 03c2 50       		.byte	0x50
 7896 03c3 9F       		.byte	0x9f
 7897 03c4 FE000000 		.4byte	.LVL115
 7898 03c8 00010000 		.4byte	.LVL116
 7899 03cc 0100     		.2byte	0x1
 7900 03ce 50       		.byte	0x50
 7901 03cf 00010000 		.4byte	.LVL116
 7902 03d3 24010000 		.4byte	.LFE162
 7903 03d7 0400     		.2byte	0x4
 7904 03d9 F3       		.byte	0xf3
 7905 03da 01       		.uleb128 0x1
 7906 03db 50       		.byte	0x50
 7907 03dc 9F       		.byte	0x9f
 7908 03dd 00000000 		.4byte	0
 7909 03e1 00000000 		.4byte	0
 7910              	.LLST18:
 7911 03e5 00000000 		.4byte	.LVL95
 7912 03e9 62000000 		.4byte	.LVL101
 7913 03ed 0100     		.2byte	0x1
 7914 03ef 51       		.byte	0x51
 7915 03f0 62000000 		.4byte	.LVL101
 7916 03f4 78000000 		.4byte	.LVL102
 7917 03f8 0500     		.2byte	0x5
 7918 03fa 03       		.byte	0x3
 7919 03fb 00000000 		.4byte	cy_ble_advIndex
 7920 03ff 78000000 		.4byte	.LVL102
 7921 0403 8C000000 		.4byte	.LVL103
 7922 0407 0400     		.2byte	0x4
 7923 0409 F3       		.byte	0xf3
 7924 040a 01       		.uleb128 0x1
 7925 040b 51       		.byte	0x51
 7926 040c 9F       		.byte	0x9f
 7927 040d 8C000000 		.4byte	.LVL103
 7928 0411 A2000000 		.4byte	.LVL104
 7929 0415 0100     		.2byte	0x1
 7930 0417 51       		.byte	0x51
 7931 0418 A2000000 		.4byte	.LVL104
 7932 041c BA000000 		.4byte	.LVL105
 7933 0420 0500     		.2byte	0x5
 7934 0422 03       		.byte	0x3
 7935 0423 00000000 		.4byte	cy_ble_advIndex
 7936 0427 BA000000 		.4byte	.LVL105
 7937 042b F2000000 		.4byte	.LVL109
 7938 042f 0400     		.2byte	0x4
 7939 0431 F3       		.byte	0xf3
 7940 0432 01       		.uleb128 0x1
 7941 0433 51       		.byte	0x51
 7942 0434 9F       		.byte	0x9f
 7943 0435 F2000000 		.4byte	.LVL109
 7944 0439 00010000 		.4byte	.LVL116
 7945 043d 0100     		.2byte	0x1
 7946 043f 51       		.byte	0x51
 7947 0440 00010000 		.4byte	.LVL116
 7948 0444 24010000 		.4byte	.LFE162
 7949 0448 0400     		.2byte	0x4
ARM GAS  C:\Users\salaz\AppData\Local\Temp\ccu2LhKM.s 			page 189


 7950 044a F3       		.byte	0xf3
 7951 044b 01       		.uleb128 0x1
 7952 044c 51       		.byte	0x51
 7953 044d 9F       		.byte	0x9f
 7954 044e 00000000 		.4byte	0
 7955 0452 00000000 		.4byte	0
 7956              	.LLST19:
 7957 0456 E6000000 		.4byte	.LVL107
 7958 045a F2000000 		.4byte	.LVL109
 7959 045e 0100     		.2byte	0x1
 7960 0460 50       		.byte	0x50
 7961 0461 00010000 		.4byte	.LVL116
 7962 0465 24010000 		.4byte	.LFE162
 7963 0469 0100     		.2byte	0x1
 7964 046b 50       		.byte	0x50
 7965 046c 00000000 		.4byte	0
 7966 0470 00000000 		.4byte	0
 7967              	.LLST20:
 7968 0474 10000000 		.4byte	.LVL96
 7969 0478 22000000 		.4byte	.LVL100
 7970 047c 0100     		.2byte	0x1
 7971 047e 53       		.byte	0x53
 7972 047f 00000000 		.4byte	0
 7973 0483 00000000 		.4byte	0
 7974              	.LLST21:
 7975 0487 10000000 		.4byte	.LVL96
 7976 048b 1A000000 		.4byte	.LVL97
 7977 048f 0100     		.2byte	0x1
 7978 0491 52       		.byte	0x52
 7979 0492 1C000000 		.4byte	.LVL98
 7980 0496 22000000 		.4byte	.LVL100
 7981 049a 0100     		.2byte	0x1
 7982 049c 52       		.byte	0x52
 7983 049d 00000000 		.4byte	0
 7984 04a1 00000000 		.4byte	0
 7985              	.LLST22:
 7986 04a5 EA000000 		.4byte	.LVL108
 7987 04a9 F2000000 		.4byte	.LVL109
 7988 04ad 0200     		.2byte	0x2
 7989 04af 31       		.byte	0x31
 7990 04b0 9F       		.byte	0x9f
 7991 04b1 00000000 		.4byte	0
 7992 04b5 00000000 		.4byte	0
 7993              	.LLST23:
 7994 04b9 0E000000 		.4byte	.LVL117
 7995 04bd 1A000000 		.4byte	.LVL119
 7996 04c1 0100     		.2byte	0x1
 7997 04c3 50       		.byte	0x50
 7998 04c4 1C000000 		.4byte	.LVL120
 7999 04c8 28000000 		.4byte	.LFE163
 8000 04cc 0100     		.2byte	0x1
 8001 04ce 50       		.byte	0x50
 8002 04cf 00000000 		.4byte	0
 8003 04d3 00000000 		.4byte	0
 8004              	.LLST24:
 8005 04d7 12000000 		.4byte	.LVL118
 8006 04db 1A000000 		.4byte	.LVL119
ARM GAS  C:\Users\salaz\AppData\Local\Temp\ccu2LhKM.s 			page 190


 8007 04df 0200     		.2byte	0x2
 8008 04e1 33       		.byte	0x33
 8009 04e2 9F       		.byte	0x9f
 8010 04e3 00000000 		.4byte	0
 8011 04e7 00000000 		.4byte	0
 8012              	.LLST25:
 8013 04eb 00000000 		.4byte	.LVL121
 8014 04ef 0E000000 		.4byte	.LVL123
 8015 04f3 0100     		.2byte	0x1
 8016 04f5 51       		.byte	0x51
 8017 04f6 0E000000 		.4byte	.LVL123
 8018 04fa 16000000 		.4byte	.LVL125
 8019 04fe 0400     		.2byte	0x4
 8020 0500 F3       		.byte	0xf3
 8021 0501 01       		.uleb128 0x1
 8022 0502 51       		.byte	0x51
 8023 0503 9F       		.byte	0x9f
 8024 0504 16000000 		.4byte	.LVL125
 8025 0508 1E000000 		.4byte	.LVL126
 8026 050c 0100     		.2byte	0x1
 8027 050e 51       		.byte	0x51
 8028 050f 1E000000 		.4byte	.LVL126
 8029 0513 60000000 		.4byte	.LFE164
 8030 0517 0400     		.2byte	0x4
 8031 0519 F3       		.byte	0xf3
 8032 051a 01       		.uleb128 0x1
 8033 051b 51       		.byte	0x51
 8034 051c 9F       		.byte	0x9f
 8035 051d 00000000 		.4byte	0
 8036 0521 00000000 		.4byte	0
 8037              	.LLST26:
 8038 0525 48000000 		.4byte	.LVL134
 8039 0529 4C000000 		.4byte	.LVL135
 8040 052d 0200     		.2byte	0x2
 8041 052f 30       		.byte	0x30
 8042 0530 9F       		.byte	0x9f
 8043 0531 4C000000 		.4byte	.LVL135
 8044 0535 5A000000 		.4byte	.LVL137
 8045 0539 0100     		.2byte	0x1
 8046 053b 52       		.byte	0x52
 8047 053c 00000000 		.4byte	0
 8048 0540 00000000 		.4byte	0
 8049              	.LLST27:
 8050 0544 02000000 		.4byte	.LVL122
 8051 0548 22000000 		.4byte	.LVL128
 8052 054c 0200     		.2byte	0x2
 8053 054e 30       		.byte	0x30
 8054 054f 9F       		.byte	0x9f
 8055 0550 22000000 		.4byte	.LVL128
 8056 0554 4C000000 		.4byte	.LVL135
 8057 0558 0100     		.2byte	0x1
 8058 055a 55       		.byte	0x55
 8059 055b 00000000 		.4byte	0
 8060 055f 00000000 		.4byte	0
 8061              	.LLST28:
 8062 0563 24000000 		.4byte	.LVL129
 8063 0567 36000000 		.4byte	.LVL132
ARM GAS  C:\Users\salaz\AppData\Local\Temp\ccu2LhKM.s 			page 191


 8064 056b 0100     		.2byte	0x1
 8065 056d 52       		.byte	0x52
 8066 056e 00000000 		.4byte	0
 8067 0572 00000000 		.4byte	0
 8068              	.LLST29:
 8069 0576 02000000 		.4byte	.LVL122
 8070 057a 22000000 		.4byte	.LVL128
 8071 057e 0200     		.2byte	0x2
 8072 0580 30       		.byte	0x30
 8073 0581 9F       		.byte	0x9f
 8074 0582 22000000 		.4byte	.LVL128
 8075 0586 60000000 		.4byte	.LFE164
 8076 058a 0100     		.2byte	0x1
 8077 058c 53       		.byte	0x53
 8078 058d 00000000 		.4byte	0
 8079 0591 00000000 		.4byte	0
 8080              	.LLST30:
 8081 0595 10000000 		.4byte	.LVL124
 8082 0599 16000000 		.4byte	.LVL125
 8083 059d 0100     		.2byte	0x1
 8084 059f 56       		.byte	0x56
 8085 05a0 20000000 		.4byte	.LVL127
 8086 05a4 5A000000 		.4byte	.LVL138
 8087 05a8 0100     		.2byte	0x1
 8088 05aa 56       		.byte	0x56
 8089 05ab 00000000 		.4byte	0
 8090 05af 00000000 		.4byte	0
 8091              	.LLST31:
 8092 05b3 0E000000 		.4byte	.LVL123
 8093 05b7 16000000 		.4byte	.LVL125
 8094 05bb 0100     		.2byte	0x1
 8095 05bd 51       		.byte	0x51
 8096 05be 1E000000 		.4byte	.LVL126
 8097 05c2 60000000 		.4byte	.LFE164
 8098 05c6 0100     		.2byte	0x1
 8099 05c8 51       		.byte	0x51
 8100 05c9 00000000 		.4byte	0
 8101 05cd 00000000 		.4byte	0
 8102              	.LLST32:
 8103 05d1 00000000 		.4byte	.LVL139
 8104 05d5 24000000 		.4byte	.LVL143
 8105 05d9 0100     		.2byte	0x1
 8106 05db 50       		.byte	0x50
 8107 05dc 24000000 		.4byte	.LVL143
 8108 05e0 52000000 		.4byte	.LVL150
 8109 05e4 0100     		.2byte	0x1
 8110 05e6 54       		.byte	0x54
 8111 05e7 52000000 		.4byte	.LVL150
 8112 05eb 54000000 		.4byte	.LVL151
 8113 05ef 0100     		.2byte	0x1
 8114 05f1 50       		.byte	0x50
 8115 05f2 54000000 		.4byte	.LVL151
 8116 05f6 54000000 		.4byte	.LVL152
 8117 05fa 0100     		.2byte	0x1
 8118 05fc 54       		.byte	0x54
 8119 05fd 54000000 		.4byte	.LVL152
 8120 0601 60000000 		.4byte	.LFE166
ARM GAS  C:\Users\salaz\AppData\Local\Temp\ccu2LhKM.s 			page 192


 8121 0605 0400     		.2byte	0x4
 8122 0607 F3       		.byte	0xf3
 8123 0608 01       		.uleb128 0x1
 8124 0609 50       		.byte	0x50
 8125 060a 9F       		.byte	0x9f
 8126 060b 00000000 		.4byte	0
 8127 060f 00000000 		.4byte	0
 8128              	.LLST33:
 8129 0613 04000000 		.4byte	.LVL140
 8130 0617 54000000 		.4byte	.LVL151
 8131 061b 0200     		.2byte	0x2
 8132 061d 30       		.byte	0x30
 8133 061e 9F       		.byte	0x9f
 8134 061f 54000000 		.4byte	.LVL151
 8135 0623 60000000 		.4byte	.LFE166
 8136 0627 0100     		.2byte	0x1
 8137 0629 50       		.byte	0x50
 8138 062a 00000000 		.4byte	0
 8139 062e 00000000 		.4byte	0
 8140              	.LLST34:
 8141 0632 20000000 		.4byte	.LVL142
 8142 0636 24000000 		.4byte	.LVL143
 8143 063a 0200     		.2byte	0x2
 8144 063c 30       		.byte	0x30
 8145 063d 9F       		.byte	0x9f
 8146 063e 24000000 		.4byte	.LVL143
 8147 0642 3A000000 		.4byte	.LVL145
 8148 0646 0100     		.2byte	0x1
 8149 0648 53       		.byte	0x53
 8150 0649 00000000 		.4byte	0
 8151 064d 00000000 		.4byte	0
 8152              	.LLST35:
 8153 0651 1E000000 		.4byte	.LVL141
 8154 0655 52000000 		.4byte	.LVL150
 8155 0659 0100     		.2byte	0x1
 8156 065b 55       		.byte	0x55
 8157 065c 00000000 		.4byte	0
 8158 0660 00000000 		.4byte	0
 8159              	.LLST36:
 8160 0664 20000000 		.4byte	.LVL142
 8161 0668 40000000 		.4byte	.LVL146
 8162 066c 0100     		.2byte	0x1
 8163 066e 51       		.byte	0x51
 8164 066f 40000000 		.4byte	.LVL146
 8165 0673 42000000 		.4byte	.LVL147
 8166 0677 0100     		.2byte	0x1
 8167 0679 50       		.byte	0x50
 8168 067a 00000000 		.4byte	0
 8169 067e 00000000 		.4byte	0
 8170              	.LLST37:
 8171 0682 00000000 		.4byte	.LVL153
 8172 0686 3A000000 		.4byte	.LVL160
 8173 068a 0100     		.2byte	0x1
 8174 068c 50       		.byte	0x50
 8175 068d 3A000000 		.4byte	.LVL160
 8176 0691 3C000000 		.4byte	.LVL161
 8177 0695 0400     		.2byte	0x4
ARM GAS  C:\Users\salaz\AppData\Local\Temp\ccu2LhKM.s 			page 193


 8178 0697 F3       		.byte	0xf3
 8179 0698 01       		.uleb128 0x1
 8180 0699 50       		.byte	0x50
 8181 069a 9F       		.byte	0x9f
 8182 069b 3C000000 		.4byte	.LVL161
 8183 069f 3E000000 		.4byte	.LVL162
 8184 06a3 0100     		.2byte	0x1
 8185 06a5 50       		.byte	0x50
 8186 06a6 3E000000 		.4byte	.LVL162
 8187 06aa 48000000 		.4byte	.LFE167
 8188 06ae 0400     		.2byte	0x4
 8189 06b0 F3       		.byte	0xf3
 8190 06b1 01       		.uleb128 0x1
 8191 06b2 50       		.byte	0x50
 8192 06b3 9F       		.byte	0x9f
 8193 06b4 00000000 		.4byte	0
 8194 06b8 00000000 		.4byte	0
 8195              	.LLST38:
 8196 06bc 02000000 		.4byte	.LVL154
 8197 06c0 3E000000 		.4byte	.LVL162
 8198 06c4 0200     		.2byte	0x2
 8199 06c6 30       		.byte	0x30
 8200 06c7 9F       		.byte	0x9f
 8201 06c8 3E000000 		.4byte	.LVL162
 8202 06cc 48000000 		.4byte	.LFE167
 8203 06d0 0100     		.2byte	0x1
 8204 06d2 50       		.byte	0x50
 8205 06d3 00000000 		.4byte	0
 8206 06d7 00000000 		.4byte	0
 8207              	.LLST39:
 8208 06db 20000000 		.4byte	.LVL156
 8209 06df 3C000000 		.4byte	.LVL161
 8210 06e3 0100     		.2byte	0x1
 8211 06e5 51       		.byte	0x51
 8212 06e6 00000000 		.4byte	0
 8213 06ea 00000000 		.4byte	0
 8214              	.LLST40:
 8215 06ee 20000000 		.4byte	.LVL156
 8216 06f2 24000000 		.4byte	.LVL157
 8217 06f6 0200     		.2byte	0x2
 8218 06f8 30       		.byte	0x30
 8219 06f9 9F       		.byte	0x9f
 8220 06fa 24000000 		.4byte	.LVL157
 8221 06fe 34000000 		.4byte	.LVL159
 8222 0702 0100     		.2byte	0x1
 8223 0704 53       		.byte	0x53
 8224 0705 00000000 		.4byte	0
 8225 0709 00000000 		.4byte	0
 8226              	.LLST41:
 8227 070d 1E000000 		.4byte	.LVL155
 8228 0711 3C000000 		.4byte	.LVL161
 8229 0715 0100     		.2byte	0x1
 8230 0717 54       		.byte	0x54
 8231 0718 00000000 		.4byte	0
 8232 071c 00000000 		.4byte	0
 8233              	.LLST42:
 8234 0720 00000000 		.4byte	.LVL163
ARM GAS  C:\Users\salaz\AppData\Local\Temp\ccu2LhKM.s 			page 194


 8235 0724 0A000000 		.4byte	.LVL165
 8236 0728 0100     		.2byte	0x1
 8237 072a 50       		.byte	0x50
 8238 072b 0A000000 		.4byte	.LVL165
 8239 072f 66000000 		.4byte	.LVL176
 8240 0733 0100     		.2byte	0x1
 8241 0735 55       		.byte	0x55
 8242 0736 66000000 		.4byte	.LVL176
 8243 073a 70000000 		.4byte	.LFE168
 8244 073e 0400     		.2byte	0x4
 8245 0740 F3       		.byte	0xf3
 8246 0741 01       		.uleb128 0x1
 8247 0742 50       		.byte	0x50
 8248 0743 9F       		.byte	0x9f
 8249 0744 00000000 		.4byte	0
 8250 0748 00000000 		.4byte	0
 8251              	.LLST43:
 8252 074c 06000000 		.4byte	.LVL164
 8253 0750 0A000000 		.4byte	.LVL165
 8254 0754 0200     		.2byte	0x2
 8255 0756 30       		.byte	0x30
 8256 0757 9F       		.byte	0x9f
 8257 0758 46000000 		.4byte	.LVL168
 8258 075c 50000000 		.4byte	.LVL169
 8259 0760 0100     		.2byte	0x1
 8260 0762 50       		.byte	0x50
 8261 0763 00000000 		.4byte	0
 8262 0767 00000000 		.4byte	0
 8263              	.LLST44:
 8264 076b 06000000 		.4byte	.LVL164
 8265 076f 0A000000 		.4byte	.LVL165
 8266 0773 0200     		.2byte	0x2
 8267 0775 30       		.byte	0x30
 8268 0776 9F       		.byte	0x9f
 8269 0777 0A000000 		.4byte	.LVL165
 8270 077b 66000000 		.4byte	.LVL175
 8271 077f 0100     		.2byte	0x1
 8272 0781 54       		.byte	0x54
 8273 0782 00000000 		.4byte	0
 8274 0786 00000000 		.4byte	0
 8275              	.LLST45:
 8276 078a 06000000 		.4byte	.LVL164
 8277 078e 58000000 		.4byte	.LVL171
 8278 0792 0200     		.2byte	0x2
 8279 0794 30       		.byte	0x30
 8280 0795 9F       		.byte	0x9f
 8281 0796 58000000 		.4byte	.LVL171
 8282 079a 5C000000 		.4byte	.LVL172
 8283 079e 0200     		.2byte	0x2
 8284 07a0 31       		.byte	0x31
 8285 07a1 9F       		.byte	0x9f
 8286 07a2 5C000000 		.4byte	.LVL172
 8287 07a6 64000000 		.4byte	.LVL174
 8288 07aa 0200     		.2byte	0x2
 8289 07ac 30       		.byte	0x30
 8290 07ad 9F       		.byte	0x9f
 8291 07ae 64000000 		.4byte	.LVL174
ARM GAS  C:\Users\salaz\AppData\Local\Temp\ccu2LhKM.s 			page 195


 8292 07b2 70000000 		.4byte	.LFE168
 8293 07b6 0100     		.2byte	0x1
 8294 07b8 50       		.byte	0x50
 8295 07b9 00000000 		.4byte	0
 8296 07bd 00000000 		.4byte	0
 8297              	.LLST46:
 8298 07c1 00000000 		.4byte	.LVL177
 8299 07c5 10000000 		.4byte	.LVL178
 8300 07c9 0100     		.2byte	0x1
 8301 07cb 50       		.byte	0x50
 8302 07cc 10000000 		.4byte	.LVL178
 8303 07d0 14000000 		.4byte	.LVL180
 8304 07d4 0400     		.2byte	0x4
 8305 07d6 F3       		.byte	0xf3
 8306 07d7 01       		.uleb128 0x1
 8307 07d8 50       		.byte	0x50
 8308 07d9 9F       		.byte	0x9f
 8309 07da 14000000 		.4byte	.LVL180
 8310 07de 16000000 		.4byte	.LVL181
 8311 07e2 0100     		.2byte	0x1
 8312 07e4 50       		.byte	0x50
 8313 07e5 16000000 		.4byte	.LVL181
 8314 07e9 18000000 		.4byte	.LVL182
 8315 07ed 0400     		.2byte	0x4
 8316 07ef F3       		.byte	0xf3
 8317 07f0 01       		.uleb128 0x1
 8318 07f1 50       		.byte	0x50
 8319 07f2 9F       		.byte	0x9f
 8320 07f3 18000000 		.4byte	.LVL182
 8321 07f7 1A000000 		.4byte	.LVL183
 8322 07fb 0100     		.2byte	0x1
 8323 07fd 50       		.byte	0x50
 8324 07fe 1A000000 		.4byte	.LVL183
 8325 0802 20000000 		.4byte	.LFE169
 8326 0806 0400     		.2byte	0x4
 8327 0808 F3       		.byte	0xf3
 8328 0809 01       		.uleb128 0x1
 8329 080a 50       		.byte	0x50
 8330 080b 9F       		.byte	0x9f
 8331 080c 00000000 		.4byte	0
 8332 0810 00000000 		.4byte	0
 8333              	.LLST47:
 8334 0814 00000000 		.4byte	.LVL177
 8335 0818 12000000 		.4byte	.LVL179
 8336 081c 0200     		.2byte	0x2
 8337 081e 30       		.byte	0x30
 8338 081f 9F       		.byte	0x9f
 8339 0820 12000000 		.4byte	.LVL179
 8340 0824 14000000 		.4byte	.LVL180
 8341 0828 0100     		.2byte	0x1
 8342 082a 50       		.byte	0x50
 8343 082b 14000000 		.4byte	.LVL180
 8344 082f 1A000000 		.4byte	.LVL183
 8345 0833 0200     		.2byte	0x2
 8346 0835 30       		.byte	0x30
 8347 0836 9F       		.byte	0x9f
 8348 0837 1A000000 		.4byte	.LVL183
ARM GAS  C:\Users\salaz\AppData\Local\Temp\ccu2LhKM.s 			page 196


 8349 083b 20000000 		.4byte	.LFE169
 8350 083f 0100     		.2byte	0x1
 8351 0841 50       		.byte	0x50
 8352 0842 00000000 		.4byte	0
 8353 0846 00000000 		.4byte	0
 8354              	.LLST48:
 8355 084a 00000000 		.4byte	.LVL184
 8356 084e 10000000 		.4byte	.LVL185
 8357 0852 0100     		.2byte	0x1
 8358 0854 50       		.byte	0x50
 8359 0855 10000000 		.4byte	.LVL185
 8360 0859 14000000 		.4byte	.LVL187
 8361 085d 0400     		.2byte	0x4
 8362 085f F3       		.byte	0xf3
 8363 0860 01       		.uleb128 0x1
 8364 0861 50       		.byte	0x50
 8365 0862 9F       		.byte	0x9f
 8366 0863 14000000 		.4byte	.LVL187
 8367 0867 16000000 		.4byte	.LVL188
 8368 086b 0100     		.2byte	0x1
 8369 086d 50       		.byte	0x50
 8370 086e 16000000 		.4byte	.LVL188
 8371 0872 18000000 		.4byte	.LVL189
 8372 0876 0400     		.2byte	0x4
 8373 0878 F3       		.byte	0xf3
 8374 0879 01       		.uleb128 0x1
 8375 087a 50       		.byte	0x50
 8376 087b 9F       		.byte	0x9f
 8377 087c 18000000 		.4byte	.LVL189
 8378 0880 1A000000 		.4byte	.LVL190
 8379 0884 0100     		.2byte	0x1
 8380 0886 50       		.byte	0x50
 8381 0887 1A000000 		.4byte	.LVL190
 8382 088b 20000000 		.4byte	.LFE170
 8383 088f 0400     		.2byte	0x4
 8384 0891 F3       		.byte	0xf3
 8385 0892 01       		.uleb128 0x1
 8386 0893 50       		.byte	0x50
 8387 0894 9F       		.byte	0x9f
 8388 0895 00000000 		.4byte	0
 8389 0899 00000000 		.4byte	0
 8390              	.LLST49:
 8391 089d 00000000 		.4byte	.LVL184
 8392 08a1 12000000 		.4byte	.LVL186
 8393 08a5 0300     		.2byte	0x3
 8394 08a7 09       		.byte	0x9
 8395 08a8 FF       		.byte	0xff
 8396 08a9 9F       		.byte	0x9f
 8397 08aa 12000000 		.4byte	.LVL186
 8398 08ae 14000000 		.4byte	.LVL187
 8399 08b2 0100     		.2byte	0x1
 8400 08b4 50       		.byte	0x50
 8401 08b5 14000000 		.4byte	.LVL187
 8402 08b9 1A000000 		.4byte	.LVL190
 8403 08bd 0300     		.2byte	0x3
 8404 08bf 09       		.byte	0x9
 8405 08c0 FF       		.byte	0xff
ARM GAS  C:\Users\salaz\AppData\Local\Temp\ccu2LhKM.s 			page 197


 8406 08c1 9F       		.byte	0x9f
 8407 08c2 1A000000 		.4byte	.LVL190
 8408 08c6 20000000 		.4byte	.LFE170
 8409 08ca 0100     		.2byte	0x1
 8410 08cc 50       		.byte	0x50
 8411 08cd 00000000 		.4byte	0
 8412 08d1 00000000 		.4byte	0
 8413              	.LLST50:
 8414 08d5 00000000 		.4byte	.LVL191
 8415 08d9 0E000000 		.4byte	.LVL192
 8416 08dd 0100     		.2byte	0x1
 8417 08df 50       		.byte	0x50
 8418 08e0 0E000000 		.4byte	.LVL192
 8419 08e4 11000000 		.4byte	.LVL193-1
 8420 08e8 0200     		.2byte	0x2
 8421 08ea 70       		.byte	0x70
 8422 08eb 01       		.sleb128 1
 8423 08ec 11000000 		.4byte	.LVL193-1
 8424 08f0 16000000 		.4byte	.LFE171
 8425 08f4 0400     		.2byte	0x4
 8426 08f6 F3       		.byte	0xf3
 8427 08f7 01       		.uleb128 0x1
 8428 08f8 50       		.byte	0x50
 8429 08f9 9F       		.byte	0x9f
 8430 08fa 00000000 		.4byte	0
 8431 08fe 00000000 		.4byte	0
 8432              		.section	.debug_aranges,"",%progbits
 8433 0000 84000000 		.4byte	0x84
 8434 0004 0200     		.2byte	0x2
 8435 0006 00000000 		.4byte	.Ldebug_info0
 8436 000a 04       		.byte	0x4
 8437 000b 00       		.byte	0
 8438 000c 0000     		.2byte	0
 8439 000e 0000     		.2byte	0
 8440 0010 00000000 		.4byte	.LFB165
 8441 0014 80000000 		.4byte	.LFE165-.LFB165
 8442 0018 00000000 		.4byte	.LFB158
 8443 001c 10000000 		.4byte	.LFE158-.LFB158
 8444 0020 00000000 		.4byte	.LFB159
 8445 0024 FC000000 		.4byte	.LFE159-.LFB159
 8446 0028 00000000 		.4byte	.LFB160
 8447 002c A4010000 		.4byte	.LFE160-.LFB160
 8448 0030 00000000 		.4byte	.LFB161
 8449 0034 80000000 		.4byte	.LFE161-.LFB161
 8450 0038 00000000 		.4byte	.LFB162
 8451 003c 24010000 		.4byte	.LFE162-.LFB162
 8452 0040 00000000 		.4byte	.LFB163
 8453 0044 28000000 		.4byte	.LFE163-.LFB163
 8454 0048 00000000 		.4byte	.LFB164
 8455 004c 60000000 		.4byte	.LFE164-.LFB164
 8456 0050 00000000 		.4byte	.LFB166
 8457 0054 60000000 		.4byte	.LFE166-.LFB166
 8458 0058 00000000 		.4byte	.LFB167
 8459 005c 48000000 		.4byte	.LFE167-.LFB167
 8460 0060 00000000 		.4byte	.LFB168
 8461 0064 70000000 		.4byte	.LFE168-.LFB168
 8462 0068 00000000 		.4byte	.LFB169
ARM GAS  C:\Users\salaz\AppData\Local\Temp\ccu2LhKM.s 			page 198


 8463 006c 20000000 		.4byte	.LFE169-.LFB169
 8464 0070 00000000 		.4byte	.LFB170
 8465 0074 20000000 		.4byte	.LFE170-.LFB170
 8466 0078 00000000 		.4byte	.LFB171
 8467 007c 16000000 		.4byte	.LFE171-.LFB171
 8468 0080 00000000 		.4byte	0
 8469 0084 00000000 		.4byte	0
 8470              		.section	.debug_ranges,"",%progbits
 8471              	.Ldebug_ranges0:
 8472 0000 00000000 		.4byte	.LFB165
 8473 0004 80000000 		.4byte	.LFE165
 8474 0008 00000000 		.4byte	.LFB158
 8475 000c 10000000 		.4byte	.LFE158
 8476 0010 00000000 		.4byte	.LFB159
 8477 0014 FC000000 		.4byte	.LFE159
 8478 0018 00000000 		.4byte	.LFB160
 8479 001c A4010000 		.4byte	.LFE160
 8480 0020 00000000 		.4byte	.LFB161
 8481 0024 80000000 		.4byte	.LFE161
 8482 0028 00000000 		.4byte	.LFB162
 8483 002c 24010000 		.4byte	.LFE162
 8484 0030 00000000 		.4byte	.LFB163
 8485 0034 28000000 		.4byte	.LFE163
 8486 0038 00000000 		.4byte	.LFB164
 8487 003c 60000000 		.4byte	.LFE164
 8488 0040 00000000 		.4byte	.LFB166
 8489 0044 60000000 		.4byte	.LFE166
 8490 0048 00000000 		.4byte	.LFB167
 8491 004c 48000000 		.4byte	.LFE167
 8492 0050 00000000 		.4byte	.LFB168
 8493 0054 70000000 		.4byte	.LFE168
 8494 0058 00000000 		.4byte	.LFB169
 8495 005c 20000000 		.4byte	.LFE169
 8496 0060 00000000 		.4byte	.LFB170
 8497 0064 20000000 		.4byte	.LFE170
 8498 0068 00000000 		.4byte	.LFB171
 8499 006c 16000000 		.4byte	.LFE171
 8500 0070 00000000 		.4byte	0
 8501 0074 00000000 		.4byte	0
 8502              		.section	.debug_line,"",%progbits
 8503              	.Ldebug_line0:
 8504 0000 FF060000 		.section	.debug_str,"MS",%progbits,1
 8504      0200F203 
 8504      00000201 
 8504      FB0E0D00 
 8504      01010101 
 8505              	.LASF114:
 8506 0000 63707573 		.ascii	"cpuss_interrupts_dw0_4_IRQn\000"
 8506      735F696E 
 8506      74657272 
 8506      75707473 
 8506      5F647730 
 8507              	.LASF335:
 8508 001c 43595F42 		.ascii	"CY_BLE_EVT_PENDING_FLASH_WRITE\000"
 8508      4C455F45 
 8508      56545F50 
 8508      454E4449 
ARM GAS  C:\Users\salaz\AppData\Local\Temp\ccu2LhKM.s 			page 199


 8508      4E475F46 
 8509              	.LASF185:
 8510 003b 7564625F 		.ascii	"udb_interrupts_3_IRQn\000"
 8510      696E7465 
 8510      72727570 
 8510      74735F33 
 8510      5F495251 
 8511              	.LASF16:
 8512 0051 696E7438 		.ascii	"int8_t\000"
 8512      5F7400
 8513              	.LASF249:
 8514 0058 43534456 		.ascii	"CSDV2_CSD0_ADC_VREF1\000"
 8514      325F4353 
 8514      44305F41 
 8514      44435F56 
 8514      52454631 
 8515              	.LASF6:
 8516 006d 756E7369 		.ascii	"unsigned char\000"
 8516      676E6564 
 8516      20636861 
 8516      7200
 8517              	.LASF553:
 8518 007b 7363616E 		.ascii	"scanRspData\000"
 8518      52737044 
 8518      61746100 
 8519              	.LASF663:
 8520 0087 63757374 		.ascii	"customs\000"
 8520      6F6D7300 
 8521              	.LASF14:
 8522 008f 73697A65 		.ascii	"sizetype\000"
 8522      74797065 
 8522      00
 8523              	.LASF636:
 8524 0098 7478506F 		.ascii	"txPowerLevelConn\000"
 8524      7765724C 
 8524      6576656C 
 8524      436F6E6E 
 8524      00
 8525              	.LASF307:
 8526 00a9 544F4332 		.ascii	"TOC2_CRC_ADDR\000"
 8526      5F435243 
 8526      5F414444 
 8526      5200
 8527              	.LASF369:
 8528 00b7 43595F42 		.ascii	"CY_BLE_EVT_SET_CLK_CONFIG_COMPLETE\000"
 8528      4C455F45 
 8528      56545F53 
 8528      45545F43 
 8528      4C4B5F43 
 8529              	.LASF733:
 8530 00da 43795F42 		.ascii	"Cy_BLE_GAP_GetPeerBdHandle\000"
 8530      4C455F47 
 8530      41505F47 
 8530      65745065 
 8530      65724264 
 8531              	.LASF456:
 8532 00f5 43595F42 		.ascii	"CY_BLE_ERROR_REPEATED_ATTEMPTS\000"
ARM GAS  C:\Users\salaz\AppData\Local\Temp\ccu2LhKM.s 			page 200


 8532      4C455F45 
 8532      52524F52 
 8532      5F524550 
 8532      45415445 
 8533              	.LASF506:
 8534 0114 43595F42 		.ascii	"CY_BLE_GAP_AUTH_ERROR_PAIRING_NOT_SUPPORTED\000"
 8534      4C455F47 
 8534      41505F41 
 8534      5554485F 
 8534      4552524F 
 8535              	.LASF363:
 8536 0140 43595F42 		.ascii	"CY_BLE_EVT_SET_DEVICE_ADDR_COMPLETE\000"
 8536      4C455F45 
 8536      56545F53 
 8536      45545F44 
 8536      45564943 
 8537              	.LASF523:
 8538 0164 656B6579 		.ascii	"ekeySize\000"
 8538      53697A65 
 8538      00
 8539              	.LASF27:
 8540 016d 4E766963 		.ascii	"NvicMux1_IRQn\000"
 8540      4D757831 
 8540      5F495251 
 8540      6E00
 8541              	.LASF502:
 8542 017b 43595F42 		.ascii	"CY_BLE_GAP_AUTH_ERROR_PASSKEY_ENTRY_FAILED\000"
 8542      4C455F47 
 8542      41505F41 
 8542      5554485F 
 8542      4552524F 
 8543              	.LASF73:
 8544 01a6 696F7373 		.ascii	"ioss_interrupts_gpio_13_IRQn\000"
 8544      5F696E74 
 8544      65727275 
 8544      7074735F 
 8544      6770696F 
 8545              	.LASF289:
 8546 01c3 52544F43 		.ascii	"RTOC1_SFLASH_GENERAL_TRIM_ADDR\000"
 8546      315F5346 
 8546      4C415348 
 8546      5F47454E 
 8546      4552414C 
 8547              	.LASF466:
 8548 01e2 43595F42 		.ascii	"CY_BLE_ERROR_FLASH_WRITE\000"
 8548      4C455F45 
 8548      52524F52 
 8548      5F464C41 
 8548      53485F57 
 8549              	.LASF248:
 8550 01fb 43534456 		.ascii	"CSDV2_CSD0_ADC_VREF0\000"
 8550      325F4353 
 8550      44305F41 
 8550      44435F56 
 8550      52454630 
 8551              	.LASF79:
 8552 0210 73727373 		.ascii	"srss_interrupt_mcwdt_0_IRQn\000"
ARM GAS  C:\Users\salaz\AppData\Local\Temp\ccu2LhKM.s 			page 201


 8552      5F696E74 
 8552      65727275 
 8552      70745F6D 
 8552      63776474 
 8553              	.LASF250:
 8554 022c 43534456 		.ascii	"CSDV2_CSD0_ADC_VREF2\000"
 8554      325F4353 
 8554      44305F41 
 8554      44435F56 
 8554      52454632 
 8555              	.LASF362:
 8556 0241 43595F42 		.ascii	"CY_BLE_EVT_SOFT_RESET_COMPLETE\000"
 8556      4C455F45 
 8556      56545F53 
 8556      4F46545F 
 8556      52455345 
 8557              	.LASF520:
 8558 0260 63795F73 		.ascii	"cy_stc_ble_gap_peer_addr_info_t\000"
 8558      74635F62 
 8558      6C655F67 
 8558      61705F70 
 8558      6565725F 
 8559              	.LASF505:
 8560 0280 43595F42 		.ascii	"CY_BLE_GAP_AUTH_ERROR_CONFIRM_VALUE_NOT_MATCH\000"
 8560      4C455F47 
 8560      41505F41 
 8560      5554485F 
 8560      4552524F 
 8561              	.LASF486:
 8562 02ae 63795F65 		.ascii	"cy_en_ble_bless_pwr_lvl_t\000"
 8562      6E5F626C 
 8562      655F626C 
 8562      6573735F 
 8562      7077725F 
 8563              	.LASF151:
 8564 02c8 74637077 		.ascii	"tcpwm_0_interrupts_1_IRQn\000"
 8564      6D5F305F 
 8564      696E7465 
 8564      72727570 
 8564      74735F31 
 8565              	.LASF33:
 8566 02e2 4E766963 		.ascii	"NvicMux7_IRQn\000"
 8566      4D757837 
 8566      5F495251 
 8566      6E00
 8567              	.LASF447:
 8568 02f0 43595F42 		.ascii	"CY_BLE_INFO_FLASH_WRITE_IN_PROGRESS\000"
 8568      4C455F49 
 8568      4E464F5F 
 8568      464C4153 
 8568      485F5752 
 8569              	.LASF56:
 8570 0314 4E766963 		.ascii	"NvicMux30_IRQn\000"
 8570      4D757833 
 8570      305F4952 
 8570      516E00
 8571              	.LASF368:
ARM GAS  C:\Users\salaz\AppData\Local\Temp\ccu2LhKM.s 			page 202


 8572 0323 43595F42 		.ascii	"CY_BLE_EVT_GET_CLK_CONFIG_COMPLETE\000"
 8572      4C455F45 
 8572      56545F47 
 8572      45545F43 
 8572      4C4B5F43 
 8573              	.LASF575:
 8574 0346 43595F42 		.ascii	"CY_BLE_CONN_STATE_CLIENT_DESCR_DISCOVERING\000"
 8574      4C455F43 
 8574      4F4E4E5F 
 8574      53544154 
 8574      455F434C 
 8575              	.LASF729:
 8576 0371 43795F42 		.ascii	"Cy_BLE_HAL_CalcCRC8\000"
 8576      4C455F48 
 8576      414C5F43 
 8576      616C6343 
 8576      52433800 
 8577              	.LASF566:
 8578 0385 43595F42 		.ascii	"CY_BLE_ADV_STATE_ADVERTISING\000"
 8578      4C455F41 
 8578      44565F53 
 8578      54415445 
 8578      5F414456 
 8579              	.LASF341:
 8580 03a2 43595F42 		.ascii	"CY_BLE_EVT_LE_SET_EVENT_MASK_COMPLETE\000"
 8580      4C455F45 
 8580      56545F4C 
 8580      455F5345 
 8580      545F4556 
 8581              	.LASF280:
 8582 03c8 544F4331 		.ascii	"TOC1_UNIQUE_ID_ADDR\000"
 8582      5F554E49 
 8582      5155455F 
 8582      49445F41 
 8582      44445200 
 8583              	.LASF157:
 8584 03dc 74637077 		.ascii	"tcpwm_0_interrupts_7_IRQn\000"
 8584      6D5F305F 
 8584      696E7465 
 8584      72727570 
 8584      74735F37 
 8585              	.LASF65:
 8586 03f6 696F7373 		.ascii	"ioss_interrupts_gpio_5_IRQn\000"
 8586      5F696E74 
 8586      65727275 
 8586      7074735F 
 8586      6770696F 
 8587              	.LASF563:
 8588 0412 63795F65 		.ascii	"cy_en_ble_state_t\000"
 8588      6E5F626C 
 8588      655F7374 
 8588      6174655F 
 8588      7400
 8589              	.LASF337:
 8590 0424 43595F42 		.ascii	"CY_BLE_EVT_HARDWARE_ERROR\000"
 8590      4C455F45 
 8590      56545F48 
ARM GAS  C:\Users\salaz\AppData\Local\Temp\ccu2LhKM.s 			page 203


 8590      41524457 
 8590      4152455F 
 8591              	.LASF106:
 8592 043e 7363625F 		.ascii	"scb_5_interrupt_IRQn\000"
 8592      355F696E 
 8592      74657272 
 8592      7570745F 
 8592      4952516E 
 8593              	.LASF639:
 8594 0453 73696C69 		.ascii	"siliconDeviceAddressEnabled\000"
 8594      636F6E44 
 8594      65766963 
 8594      65416464 
 8594      72657373 
 8595              	.LASF338:
 8596 046f 43595F42 		.ascii	"CY_BLE_EVT_WRITE_AUTH_PAYLOAD_TO_COMPLETE\000"
 8596      4C455F45 
 8596      56545F57 
 8596      52495445 
 8596      5F415554 
 8597              	.LASF556:
 8598 0499 64697363 		.ascii	"discMode\000"
 8598      4D6F6465 
 8598      00
 8599              	.LASF555:
 8600 04a2 63795F73 		.ascii	"cy_stc_ble_gapp_scan_rsp_data_t\000"
 8600      74635F62 
 8600      6C655F67 
 8600      6170705F 
 8600      7363616E 
 8601              	.LASF82:
 8602 04c2 73727373 		.ascii	"srss_interrupt_IRQn\000"
 8602      5F696E74 
 8602      65727275 
 8602      70745F49 
 8602      52516E00 
 8603              	.LASF445:
 8604 04d6 43595F42 		.ascii	"CY_BLE_EVT_MAX\000"
 8604      4C455F45 
 8604      56545F4D 
 8604      415800
 8605              	.LASF195:
 8606 04e5 7564625F 		.ascii	"udb_interrupts_13_IRQn\000"
 8606      696E7465 
 8606      72727570 
 8606      74735F31 
 8606      335F4952 
 8607              	.LASF164:
 8608 04fc 74637077 		.ascii	"tcpwm_1_interrupts_6_IRQn\000"
 8608      6D5F315F 
 8608      696E7465 
 8608      72727570 
 8608      74735F36 
 8609              	.LASF297:
 8610 0516 544F4332 		.ascii	"TOC2_KEY_BLOCK_ADDR\000"
 8610      5F4B4559 
 8610      5F424C4F 
ARM GAS  C:\Users\salaz\AppData\Local\Temp\ccu2LhKM.s 			page 204


 8610      434B5F41 
 8610      44445200 
 8611              	.LASF145:
 8612 052a 63707573 		.ascii	"cpuss_interrupt_fm_IRQn\000"
 8612      735F696E 
 8612      74657272 
 8612      7570745F 
 8612      666D5F49 
 8613              	.LASF669:
 8614 0542 73746174 		.ascii	"state\000"
 8614      6500
 8615              	.LASF262:
 8616 0548 43505553 		.ascii	"CPUSS_TRIM_RAM_CTL_HALF_LP\000"
 8616      535F5452 
 8616      494D5F52 
 8616      414D5F43 
 8616      544C5F48 
 8617              	.LASF499:
 8618 0563 43595F42 		.ascii	"CY_BLE_GAP_IOCAP_KEYBOARD_DISPLAY\000"
 8618      4C455F47 
 8618      41505F49 
 8618      4F434150 
 8618      5F4B4559 
 8619              	.LASF481:
 8620 0585 43595F42 		.ascii	"CY_BLE_LL_PWR_LVL_NEG_16_DBM\000"
 8620      4C455F4C 
 8620      4C5F5057 
 8620      525F4C56 
 8620      4C5F4E45 
 8621              	.LASF594:
 8622 05a2 66617374 		.ascii	"fastScanWindow\000"
 8622      5363616E 
 8622      57696E64 
 8622      6F7700
 8623              	.LASF587:
 8624 05b1 66617374 		.ascii	"fastAdvTimeOut\000"
 8624      41647654 
 8624      696D654F 
 8624      757400
 8625              	.LASF325:
 8626 05c0 63686172 		.ascii	"char8\000"
 8626      3800
 8627              	.LASF435:
 8628 05c6 43595F42 		.ascii	"CY_BLE_EVT_L2CAP_CONN_PARAM_UPDATE_RSP\000"
 8628      4C455F45 
 8628      56545F4C 
 8628      32434150 
 8628      5F434F4E 
 8629              	.LASF254:
 8630 05ed 43505553 		.ascii	"CPUSS_TRIM_ROM_CTL_ULP\000"
 8630      535F5452 
 8630      494D5F52 
 8630      4F4D5F43 
 8630      544C5F55 
 8631              	.LASF509:
 8632 0604 43595F42 		.ascii	"CY_BLE_GAP_AUTH_ERROR_UNSPECIFIED_REASON\000"
 8632      4C455F47 
ARM GAS  C:\Users\salaz\AppData\Local\Temp\ccu2LhKM.s 			page 205


 8632      41505F41 
 8632      5554485F 
 8632      4552524F 
 8633              	.LASF215:
 8634 062d 4449455F 		.ascii	"DIE_LOT\000"
 8634      4C4F5400 
 8635              	.LASF444:
 8636 0635 43595F42 		.ascii	"CY_BLE_EVT_L2CAP_CBFC_DATA_WRITE_IND\000"
 8636      4C455F45 
 8636      56545F4C 
 8636      32434150 
 8636      5F434246 
 8637              	.LASF621:
 8638 065a 7065726D 		.ascii	"permission\000"
 8638      69737369 
 8638      6F6E00
 8639              	.LASF72:
 8640 0665 696F7373 		.ascii	"ioss_interrupts_gpio_12_IRQn\000"
 8640      5F696E74 
 8640      65727275 
 8640      7074735F 
 8640      6770696F 
 8641              	.LASF478:
 8642 0682 74797065 		.ascii	"type\000"
 8642      00
 8643              	.LASF121:
 8644 0687 63707573 		.ascii	"cpuss_interrupts_dw0_11_IRQn\000"
 8644      735F696E 
 8644      74657272 
 8644      75707473 
 8644      5F647730 
 8645              	.LASF539:
 8646 06a4 43595F42 		.ascii	"CY_BLE_GAPP_NON_CONNECTABLE_UNDIRECTED_ADV\000"
 8646      4C455F47 
 8646      4150505F 
 8646      4E4F4E5F 
 8646      434F4E4E 
 8647              	.LASF207:
 8648 06cf 64697363 		.ascii	"disconnected_IRQn\000"
 8648      6F6E6E65 
 8648      63746564 
 8648      5F495251 
 8648      6E00
 8649              	.LASF202:
 8650 06e1 736D6966 		.ascii	"smif_interrupt_IRQn\000"
 8650      5F696E74 
 8650      65727275 
 8650      70745F49 
 8650      52516E00 
 8651              	.LASF172:
 8652 06f5 74637077 		.ascii	"tcpwm_1_interrupts_14_IRQn\000"
 8652      6D5F315F 
 8652      696E7465 
 8652      72727570 
 8652      74735F31 
 8653              	.LASF664:
 8654 0710 63795F73 		.ascii	"cy_stc_ble_custom_config_t\000"
ARM GAS  C:\Users\salaz\AppData\Local\Temp\ccu2LhKM.s 			page 206


 8654      74635F62 
 8654      6C655F63 
 8654      7573746F 
 8654      6D5F636F 
 8655              	.LASF361:
 8656 072b 43595F42 		.ascii	"CY_BLE_EVT_LL_CNTRL_PROC_PENDING_COMPLETE\000"
 8656      4C455F45 
 8656      56545F4C 
 8656      4C5F434E 
 8656      54524C5F 
 8657              	.LASF141:
 8658 0755 63707573 		.ascii	"cpuss_interrupts_dw1_15_IRQn\000"
 8658      735F696E 
 8658      74657272 
 8658      75707473 
 8658      5F647731 
 8659              	.LASF314:
 8660 0772 52544F43 		.ascii	"RTOC2_SECOND_USER_APP_ADDR\000"
 8660      325F5345 
 8660      434F4E44 
 8660      5F555345 
 8660      525F4150 
 8661              	.LASF723:
 8662 078d 63795F62 		.ascii	"cy_ble_customConfig\000"
 8662      6C655F63 
 8662      7573746F 
 8662      6D436F6E 
 8662      66696700 
 8663              	.LASF426:
 8664 07a1 43595F42 		.ascii	"CY_BLE_EVT_GATTC_EXEC_WRITE_RSP\000"
 8664      4C455F45 
 8664      56545F47 
 8664      41545443 
 8664      5F455845 
 8665              	.LASF653:
 8666 07c1 63616C6C 		.ascii	"callbackFunc\000"
 8666      6261636B 
 8666      46756E63 
 8666      00
 8667              	.LASF642:
 8668 07ce 64697363 		.ascii	"discoveryModeInfo\000"
 8668      6F766572 
 8668      794D6F64 
 8668      65496E66 
 8668      6F00
 8669              	.LASF679:
 8670 07e0 73746F72 		.ascii	"storeState\000"
 8670      65537461 
 8670      746500
 8671              	.LASF562:
 8672 07eb 43595F42 		.ascii	"CY_BLE_STATE_ON\000"
 8672      4C455F53 
 8672      54415445 
 8672      5F4F4E00 
 8673              	.LASF404:
 8674 07fb 43595F42 		.ascii	"CY_BLE_EVT_GAP_GEN_SET_LOCAL_P256_KEYS_COMPLETE\000"
 8674      4C455F45 
ARM GAS  C:\Users\salaz\AppData\Local\Temp\ccu2LhKM.s 			page 207


 8674      56545F47 
 8674      41505F47 
 8674      454E5F53 
 8675              	.LASF88:
 8676 082b 63707573 		.ascii	"cpuss_interrupts_ipc_3_IRQn\000"
 8676      735F696E 
 8676      74657272 
 8676      75707473 
 8676      5F697063 
 8677              	.LASF156:
 8678 0847 74637077 		.ascii	"tcpwm_0_interrupts_6_IRQn\000"
 8678      6D5F305F 
 8678      696E7465 
 8678      72727570 
 8678      74735F36 
 8679              	.LASF189:
 8680 0861 7564625F 		.ascii	"udb_interrupts_7_IRQn\000"
 8680      696E7465 
 8680      72727570 
 8680      74735F37 
 8680      5F495251 
 8681              	.LASF64:
 8682 0877 696F7373 		.ascii	"ioss_interrupts_gpio_4_IRQn\000"
 8682      5F696E74 
 8682      65727275 
 8682      7074735F 
 8682      6770696F 
 8683              	.LASF433:
 8684 0893 43595F42 		.ascii	"CY_BLE_EVT_GATTC_LONG_PROCEDURE_END\000"
 8684      4C455F45 
 8684      56545F47 
 8684      41545443 
 8684      5F4C4F4E 
 8685              	.LASF243:
 8686 08b7 5354414E 		.ascii	"STANDARD_MPU_STRUCT\000"
 8686      44415244 
 8686      5F4D5055 
 8686      5F535452 
 8686      55435400 
 8687              	.LASF438:
 8688 08cb 43595F42 		.ascii	"CY_BLE_EVT_L2CAP_CBFC_CONN_CNF\000"
 8688      4C455F45 
 8688      56545F4C 
 8688      32434150 
 8688      5F434246 
 8689              	.LASF294:
 8690 08ea 52544F43 		.ascii	"RTOC1_CRC_ADDR\000"
 8690      315F4352 
 8690      435F4144 
 8690      445200
 8691              	.LASF713:
 8692 08f9 63795F62 		.ascii	"cy_ble_advState\000"
 8692      6C655F61 
 8692      64765374 
 8692      61746500 
 8693              	.LASF578:
 8694 0909 73657276 		.ascii	"serviceHandle\000"
ARM GAS  C:\Users\salaz\AppData\Local\Temp\ccu2LhKM.s 			page 208


 8694      69636548 
 8694      616E646C 
 8694      6500
 8695              	.LASF5:
 8696 0917 5F5F7569 		.ascii	"__uint8_t\000"
 8696      6E74385F 
 8696      7400
 8697              	.LASF672:
 8698 0921 66466C61 		.ascii	"fFlag\000"
 8698      6700
 8699              	.LASF690:
 8700 0927 63636364 		.ascii	"cccdBlockCrc\000"
 8700      426C6F63 
 8700      6B437263 
 8700      00
 8701              	.LASF661:
 8702 0934 63757374 		.ascii	"customServInfo\000"
 8702      6F6D5365 
 8702      7276496E 
 8702      666F00
 8703              	.LASF129:
 8704 0943 63707573 		.ascii	"cpuss_interrupts_dw1_3_IRQn\000"
 8704      735F696E 
 8704      74657272 
 8704      75707473 
 8704      5F647731 
 8705              	.LASF326:
 8706 095f 696E7472 		.ascii	"intrSrc\000"
 8706      53726300 
 8707              	.LASF238:
 8708 0967 44455649 		.ascii	"DEVICE_UID\000"
 8708      43455F55 
 8708      494400
 8709              	.LASF549:
 8710 0972 63795F73 		.ascii	"cy_stc_ble_gapp_disc_param_t\000"
 8710      74635F62 
 8710      6C655F67 
 8710      6170705F 
 8710      64697363 
 8711              	.LASF513:
 8712 098f 43595F42 		.ascii	"CY_BLE_GAP_AUTH_ERROR_NUMERIC_COMPARISON_FAILED\000"
 8712      4C455F47 
 8712      41505F41 
 8712      5554485F 
 8712      4552524F 
 8713              	.LASF662:
 8714 09bf 63795F73 		.ascii	"cy_stc_ble_customs_t\000"
 8714      74635F62 
 8714      6C655F63 
 8714      7573746F 
 8714      6D735F74 
 8715              	.LASF428:
 8716 09d4 43595F42 		.ascii	"CY_BLE_EVT_GATTC_HANDLE_VALUE_IND\000"
 8716      4C455F45 
 8716      56545F47 
 8716      41545443 
 8716      5F48414E 
ARM GAS  C:\Users\salaz\AppData\Local\Temp\ccu2LhKM.s 			page 209


 8717              	.LASF518:
 8718 09f6 63795F65 		.ascii	"cy_en_ble_gap_auth_failed_reason_t\000"
 8718      6E5F626C 
 8718      655F6761 
 8718      705F6175 
 8718      74685F66 
 8719              	.LASF302:
 8720 0a19 544F4332 		.ascii	"TOC2_SECOND_USER_APP_FORMAT\000"
 8720      5F534543 
 8720      4F4E445F 
 8720      55534552 
 8720      5F415050 
 8721              	.LASF333:
 8722 0a35 43595F42 		.ascii	"CY_BLE_EVT_STACK_BUSY_STATUS\000"
 8722      4C455F45 
 8722      56545F53 
 8722      5441434B 
 8722      5F425553 
 8723              	.LASF10:
 8724 0a52 6C6F6E67 		.ascii	"long int\000"
 8724      20696E74 
 8724      00
 8725              	.LASF412:
 8726 0a5b 43595F42 		.ascii	"CY_BLE_EVT_GATTS_XCNHG_MTU_REQ\000"
 8726      4C455F45 
 8726      56545F47 
 8726      41545453 
 8726      5F58434E 
 8727              	.LASF379:
 8728 0a7a 43595F42 		.ascii	"CY_BLE_EVT_SET_EVENT_MASK_COMPLETE\000"
 8728      4C455F45 
 8728      56545F53 
 8728      45545F45 
 8728      56454E54 
 8729              	.LASF701:
 8730 0a9d 43795F42 		.ascii	"Cy_BLE_SetLocalName\000"
 8730      4C455F53 
 8730      65744C6F 
 8730      63616C4E 
 8730      616D6500 
 8731              	.LASF590:
 8732 0ab1 736C6F77 		.ascii	"slowAdvIntervalMax\000"
 8732      41647649 
 8732      6E746572 
 8732      76616C4D 
 8732      617800
 8733              	.LASF182:
 8734 0ac4 7564625F 		.ascii	"udb_interrupts_0_IRQn\000"
 8734      696E7465 
 8734      72727570 
 8734      74735F30 
 8734      5F495251 
 8735              	.LASF322:
 8736 0ada 666C6F61 		.ascii	"float\000"
 8736      7400
 8737              	.LASF171:
 8738 0ae0 74637077 		.ascii	"tcpwm_1_interrupts_13_IRQn\000"
ARM GAS  C:\Users\salaz\AppData\Local\Temp\ccu2LhKM.s 			page 210


 8738      6D5F315F 
 8738      696E7465 
 8738      72727570 
 8738      74735F31 
 8739              	.LASF421:
 8740 0afb 43595F42 		.ascii	"CY_BLE_EVT_GATTS_WRITE_REQ\000"
 8740      4C455F45 
 8740      56545F47 
 8740      41545453 
 8740      5F575249 
 8741              	.LASF295:
 8742 0b16 544F4332 		.ascii	"TOC2_OBJECT_SIZE\000"
 8742      5F4F424A 
 8742      4543545F 
 8742      53495A45 
 8742      00
 8743              	.LASF222:
 8744 0b27 4449455F 		.ascii	"DIE_MONTH\000"
 8744      4D4F4E54 
 8744      4800
 8745              	.LASF49:
 8746 0b31 4E766963 		.ascii	"NvicMux23_IRQn\000"
 8746      4D757832 
 8746      335F4952 
 8746      516E00
 8747              	.LASF634:
 8748 0b40 63795F73 		.ascii	"cy_stc_ble_flash_storage_t\000"
 8748      74635F62 
 8748      6C655F66 
 8748      6C617368 
 8748      5F73746F 
 8749              	.LASF689:
 8750 0b5b 61707046 		.ascii	"appFlashParam\000"
 8750      6C617368 
 8750      50617261 
 8750      6D00
 8751              	.LASF686:
 8752 0b69 43795F42 		.ascii	"Cy_BLE_StoreBondingData\000"
 8752      4C455F53 
 8752      746F7265 
 8752      426F6E64 
 8752      696E6744 
 8753              	.LASF528:
 8754 0b81 7363616E 		.ascii	"scanType\000"
 8754      54797065 
 8754      00
 8755              	.LASF282:
 8756 0b8a 544F4331 		.ascii	"TOC1_SYSCALL_TABLE_ADDR\000"
 8756      5F535953 
 8756      43414C4C 
 8756      5F544142 
 8756      4C455F41 
 8757              	.LASF188:
 8758 0ba2 7564625F 		.ascii	"udb_interrupts_6_IRQn\000"
 8758      696E7465 
 8758      72727570 
 8758      74735F36 
ARM GAS  C:\Users\salaz\AppData\Local\Temp\ccu2LhKM.s 			page 211


 8758      5F495251 
 8759              	.LASF360:
 8760 0bb8 43595F42 		.ascii	"CY_BLE_EVT_SET_PRIVACY_MODE_COMPLETE\000"
 8760      4C455F45 
 8760      56545F53 
 8760      45545F50 
 8760      52495641 
 8761              	.LASF96:
 8762 0bdd 63707573 		.ascii	"cpuss_interrupts_ipc_11_IRQn\000"
 8762      735F696E 
 8762      74657272 
 8762      75707473 
 8762      5F697063 
 8763              	.LASF516:
 8764 0bfa 43595F42 		.ascii	"CY_BLE_GAP_AUTH_ERROR_AUTHENTICATION_TIMEOUT\000"
 8764      4C455F47 
 8764      41505F41 
 8764      5554485F 
 8764      4552524F 
 8765              	.LASF391:
 8766 0c27 43595F42 		.ascii	"CY_BLE_EVT_GAP_ENCRYPT_CHANGE\000"
 8766      4C455F45 
 8766      56545F47 
 8766      41505F45 
 8766      4E435259 
 8767              	.LASF351:
 8768 0c45 43595F42 		.ascii	"CY_BLE_EVT_SET_HOST_CHANNEL_COMPLETE\000"
 8768      4C455F45 
 8768      56545F53 
 8768      45545F48 
 8768      4F53545F 
 8769              	.LASF584:
 8770 0c6a 63795F73 		.ascii	"cy_stc_ble_gaps_t\000"
 8770      74635F62 
 8770      6C655F67 
 8770      6170735F 
 8770      7400
 8771              	.LASF719:
 8772 0c7c 63795F62 		.ascii	"cy_ble_pendingFlashWrite\000"
 8772      6C655F70 
 8772      656E6469 
 8772      6E67466C 
 8772      61736857 
 8773              	.LASF565:
 8774 0c95 43595F42 		.ascii	"CY_BLE_ADV_STATE_ADV_INITIATED\000"
 8774      4C455F41 
 8774      44565F53 
 8774      54415445 
 8774      5F414456 
 8775              	.LASF620:
 8776 0cb4 61747454 		.ascii	"attType\000"
 8776      79706500 
 8777              	.LASF332:
 8778 0cbc 43595F42 		.ascii	"CY_BLE_EVT_TIMEOUT\000"
 8778      4C455F45 
 8778      56545F54 
 8778      494D454F 
ARM GAS  C:\Users\salaz\AppData\Local\Temp\ccu2LhKM.s 			page 212


 8778      555400
 8779              	.LASF128:
 8780 0ccf 63707573 		.ascii	"cpuss_interrupts_dw1_2_IRQn\000"
 8780      735F696E 
 8780      74657272 
 8780      75707473 
 8780      5F647731 
 8781              	.LASF39:
 8782 0ceb 4E766963 		.ascii	"NvicMux13_IRQn\000"
 8782      4D757831 
 8782      335F4952 
 8782      516E00
 8783              	.LASF285:
 8784 0cfa 544F4331 		.ascii	"TOC1_CRC_ADDR\000"
 8784      5F435243 
 8784      5F414444 
 8784      5200
 8785              	.LASF25:
 8786 0d08 53797354 		.ascii	"SysTick_IRQn\000"
 8786      69636B5F 
 8786      4952516E 
 8786      00
 8787              	.LASF290:
 8788 0d15 52544F43 		.ascii	"RTOC1_UNIQUE_ID_ADDR\000"
 8788      315F554E 
 8788      49515545 
 8788      5F49445F 
 8788      41444452 
 8789              	.LASF353:
 8790 0d2a 43595F42 		.ascii	"CY_BLE_EVT_REMOVE_DEVICE_FROM_RPA_LIST_COMPLETE\000"
 8790      4C455F45 
 8790      56545F52 
 8790      454D4F56 
 8790      455F4445 
 8791              	.LASF264:
 8792 0d5a 464C4153 		.ascii	"FLASH_BOOT_OBJECT_SIZE\000"
 8792      485F424F 
 8792      4F545F4F 
 8792      424A4543 
 8792      545F5349 
 8793              	.LASF109:
 8794 0d71 6373645F 		.ascii	"csd_interrupt_IRQn\000"
 8794      696E7465 
 8794      72727570 
 8794      745F4952 
 8794      516E00
 8795              	.LASF483:
 8796 0d84 43595F42 		.ascii	"CY_BLE_LL_PWR_LVL_NEG_6_DBM\000"
 8796      4C455F4C 
 8796      4C5F5057 
 8796      525F4C56 
 8796      4C5F4E45 
 8797              	.LASF501:
 8798 0da0 43595F42 		.ascii	"CY_BLE_GAP_AUTH_ERROR_NONE\000"
 8798      4C455F47 
 8798      41505F41 
 8798      5554485F 
ARM GAS  C:\Users\salaz\AppData\Local\Temp\ccu2LhKM.s 			page 213


 8798      4552524F 
 8799              	.LASF472:
 8800 0dbb 43595F42 		.ascii	"CY_BLE_ERROR_CHAR_IS_NOT_DISCOVERED\000"
 8800      4C455F45 
 8800      52524F52 
 8800      5F434841 
 8800      525F4953 
 8801              	.LASF3:
 8802 0ddf 7369676E 		.ascii	"signed char\000"
 8802      65642063 
 8802      68617200 
 8803              	.LASF399:
 8804 0deb 43595F42 		.ascii	"CY_BLE_EVT_GAPC_DIRECT_ADV_REPORT\000"
 8804      4C455F45 
 8804      56545F47 
 8804      4150435F 
 8804      44495245 
 8805              	.LASF17:
 8806 0e0d 75696E74 		.ascii	"uint8_t\000"
 8806      385F7400 
 8807              	.LASF303:
 8808 0e15 544F4332 		.ascii	"TOC2_SHASH_OBJECTS\000"
 8808      5F534841 
 8808      53485F4F 
 8808      424A4543 
 8808      545300
 8809              	.LASF596:
 8810 0e28 736C6F77 		.ascii	"slowScanEnabled\000"
 8810      5363616E 
 8810      456E6162 
 8810      6C656400 
 8811              	.LASF492:
 8812 0e38 72737369 		.ascii	"rssi\000"
 8812      00
 8813              	.LASF710:
 8814 0e3d 63795F62 		.ascii	"cy_ble_pendingFlashClearCccdHandle\000"
 8814      6C655F70 
 8814      656E6469 
 8814      6E67466C 
 8814      61736843 
 8815              	.LASF334:
 8816 0e60 43595F42 		.ascii	"CY_BLE_EVT_MEMORY_REQUEST\000"
 8816      4C455F45 
 8816      56545F4D 
 8816      454D4F52 
 8816      595F5245 
 8817              	.LASF292:
 8818 0e7a 52544F43 		.ascii	"RTOC1_SYSCALL_TABLE_ADDR\000"
 8818      315F5359 
 8818      5343414C 
 8818      4C5F5441 
 8818      424C455F 
 8819              	.LASF726:
 8820 0e93 43795F42 		.ascii	"Cy_BLE_HAL_NvramWrite\000"
 8820      4C455F48 
 8820      414C5F4E 
 8820      7672616D 
ARM GAS  C:\Users\salaz\AppData\Local\Temp\ccu2LhKM.s 			page 214


 8820      57726974 
 8821              	.LASF256:
 8822 0ea9 43505553 		.ascii	"CPUSS_TRIM_ROM_CTL_LP\000"
 8822      535F5452 
 8822      494D5F52 
 8822      4F4D5F43 
 8822      544C5F4C 
 8823              	.LASF92:
 8824 0ebf 63707573 		.ascii	"cpuss_interrupts_ipc_7_IRQn\000"
 8824      735F696E 
 8824      74657272 
 8824      75707473 
 8824      5F697063 
 8825              	.LASF442:
 8826 0edb 43595F42 		.ascii	"CY_BLE_EVT_L2CAP_CBFC_RX_CREDIT_IND\000"
 8826      4C455F45 
 8826      56545F4C 
 8826      32434150 
 8826      5F434246 
 8827              	.LASF429:
 8828 0eff 43595F42 		.ascii	"CY_BLE_EVT_GATTS_HANDLE_VALUE_CNF\000"
 8828      4C455F45 
 8828      56545F47 
 8828      41545453 
 8828      5F48414E 
 8829              	.LASF68:
 8830 0f21 696F7373 		.ascii	"ioss_interrupts_gpio_8_IRQn\000"
 8830      5F696E74 
 8830      65727275 
 8830      7074735F 
 8830      6770696F 
 8831              	.LASF108:
 8832 0f3d 7363625F 		.ascii	"scb_7_interrupt_IRQn\000"
 8832      375F696E 
 8832      74657272 
 8832      7570745F 
 8832      4952516E 
 8833              	.LASF581:
 8834 0f52 70726566 		.ascii	"prefConnParamCharHandle\000"
 8834      436F6E6E 
 8834      50617261 
 8834      6D436861 
 8834      7248616E 
 8835              	.LASF148:
 8836 0f6a 63707573 		.ascii	"cpuss_interrupts_cm4_cti_0_IRQn\000"
 8836      735F696E 
 8836      74657272 
 8836      75707473 
 8836      5F636D34 
 8837              	.LASF212:
 8838 0f8a 52455345 		.ascii	"RESERVED1\000"
 8838      52564544 
 8838      3100
 8839              	.LASF300:
 8840 0f94 544F4332 		.ascii	"TOC2_FIRST_USER_APP_FORMAT\000"
 8840      5F464952 
 8840      53545F55 
ARM GAS  C:\Users\salaz\AppData\Local\Temp\ccu2LhKM.s 			page 215


 8840      5345525F 
 8840      4150505F 
 8841              	.LASF224:
 8842 0faf 52455345 		.ascii	"RESERVED3\000"
 8842      52564544 
 8842      3300
 8843              	.LASF227:
 8844 0fb9 52455345 		.ascii	"RESERVED4\000"
 8844      52564544 
 8844      3400
 8845              	.LASF229:
 8846 0fc3 52455345 		.ascii	"RESERVED5\000"
 8846      52564544 
 8846      3500
 8847              	.LASF232:
 8848 0fcd 52455345 		.ascii	"RESERVED6\000"
 8848      52564544 
 8848      3600
 8849              	.LASF237:
 8850 0fd7 52455345 		.ascii	"RESERVED7\000"
 8850      52564544 
 8850      3700
 8851              	.LASF245:
 8852 0fe1 52455345 		.ascii	"RESERVED8\000"
 8852      52564544 
 8852      3800
 8853              	.LASF247:
 8854 0feb 52455345 		.ascii	"RESERVED9\000"
 8854      52564544 
 8854      3900
 8855              	.LASF624:
 8856 0ff5 63795F73 		.ascii	"cy_stc_ble_gatts_db_t\000"
 8856      74635F62 
 8856      6C655F67 
 8856      61747473 
 8856      5F64625F 
 8857              	.LASF401:
 8858 100b 43595F42 		.ascii	"CY_BLE_EVT_GAP_DEVICE_ADDR_GEN_COMPLETE\000"
 8858      4C455F45 
 8858      56545F47 
 8858      41505F44 
 8858      45564943 
 8859              	.LASF574:
 8860 1033 43595F42 		.ascii	"CY_BLE_CONN_STATE_CLIENT_CHAR_DISCOVERING\000"
 8860      4C455F43 
 8860      4F4E4E5F 
 8860      53544154 
 8860      455F434C 
 8861              	.LASF205:
 8862 105d 7573625F 		.ascii	"usb_interrupt_lo_IRQn\000"
 8862      696E7465 
 8862      72727570 
 8862      745F6C6F 
 8862      5F495251 
 8863              	.LASF542:
 8864 1073 61647649 		.ascii	"advIntvMin\000"
 8864      6E74764D 
ARM GAS  C:\Users\salaz\AppData\Local\Temp\ccu2LhKM.s 			page 216


 8864      696E00
 8865              	.LASF619:
 8866 107e 61747448 		.ascii	"attHandle\000"
 8866      616E646C 
 8866      6500
 8867              	.LASF416:
 8868 1088 43595F42 		.ascii	"CY_BLE_EVT_GATTC_FIND_INFO_RSP\000"
 8868      4C455F45 
 8868      56545F47 
 8868      41545443 
 8868      5F46494E 
 8869              	.LASF384:
 8870 10a7 43595F42 		.ascii	"CY_BLE_EVT_GAP_PASSKEY_ENTRY_REQUEST\000"
 8870      4C455F45 
 8870      56545F47 
 8870      41505F50 
 8870      4153534B 
 8871              	.LASF308:
 8872 10cc 52544F43 		.ascii	"RTOC2_OBJECT_SIZE\000"
 8872      325F4F42 
 8872      4A454354 
 8872      5F53495A 
 8872      4500
 8873              	.LASF717:
 8874 10de 63795F62 		.ascii	"cy_ble_devConnRole\000"
 8874      6C655F64 
 8874      6576436F 
 8874      6E6E526F 
 8874      6C6500
 8875              	.LASF511:
 8876 10f1 43595F42 		.ascii	"CY_BLE_GAP_AUTH_ERROR_INVALID_PARAMETERS\000"
 8876      4C455F47 
 8876      41505F41 
 8876      5554485F 
 8876      4552524F 
 8877              	.LASF474:
 8878 111a 43595F42 		.ascii	"CY_BLE_ERROR_INVALID_STATE\000"
 8878      4C455F45 
 8878      52524F52 
 8878      5F494E56 
 8878      414C4944 
 8879              	.LASF715:
 8880 1135 63795F62 		.ascii	"cy_ble_connHandle\000"
 8880      6C655F63 
 8880      6F6E6E48 
 8880      616E646C 
 8880      6500
 8881              	.LASF58:
 8882 1147 756E636F 		.ascii	"unconnected_IRQn\000"
 8882      6E6E6563 
 8882      7465645F 
 8882      4952516E 
 8882      00
 8883              	.LASF608:
 8884 1158 77726974 		.ascii	"writeMode\000"
 8884      654D6F64 
 8884      6500
ARM GAS  C:\Users\salaz\AppData\Local\Temp\ccu2LhKM.s 			page 217


 8885              	.LASF427:
 8886 1162 43595F42 		.ascii	"CY_BLE_EVT_GATTC_HANDLE_VALUE_NTF\000"
 8886      4C455F45 
 8886      56545F47 
 8886      41545443 
 8886      5F48414E 
 8887              	.LASF386:
 8888 1184 43595F42 		.ascii	"CY_BLE_EVT_GAP_AUTH_COMPLETE\000"
 8888      4C455F45 
 8888      56545F47 
 8888      41505F41 
 8888      5554485F 
 8889              	.LASF29:
 8890 11a1 4E766963 		.ascii	"NvicMux3_IRQn\000"
 8890      4D757833 
 8890      5F495251 
 8890      6E00
 8891              	.LASF629:
 8892 11af 5F426F6F 		.ascii	"_Bool\000"
 8892      6C00
 8893              	.LASF698:
 8894 11b5 43795F42 		.ascii	"Cy_BLE_GAPP_StopAdvertisement\000"
 8894      4C455F47 
 8894      4150505F 
 8894      53746F70 
 8894      41647665 
 8895              	.LASF739:
 8896 11d3 474E5520 		.ascii	"GNU C11 5.4.1 20160609 (release) [ARM/embedded-5-br"
 8896      43313120 
 8896      352E342E 
 8896      31203230 
 8896      31363036 
 8897 1206 616E6368 		.ascii	"anch revision 237715] -mcpu=cortex-m0plus -mthumb -"
 8897      20726576 
 8897      6973696F 
 8897      6E203233 
 8897      37373135 
 8898 1239 67202D4F 		.ascii	"g -Og -ffunction-sections -ffat-lto-objects\000"
 8898      67202D66 
 8898      66756E63 
 8898      74696F6E 
 8898      2D736563 
 8899              	.LASF124:
 8900 1265 63707573 		.ascii	"cpuss_interrupts_dw0_14_IRQn\000"
 8900      735F696E 
 8900      74657272 
 8900      75707473 
 8900      5F647730 
 8901              	.LASF515:
 8902 1282 43595F42 		.ascii	"CY_BLE_GAP_AUTH_ERROR_CROSS_TRANSPORT_KEY_GEN_DER_N"
 8902      4C455F47 
 8902      41505F41 
 8902      5554485F 
 8902      4552524F 
 8903 12b5 4F545F41 		.ascii	"OT_ALLOWED\000"
 8903      4C4C4F57 
 8903      454400
ARM GAS  C:\Users\salaz\AppData\Local\Temp\ccu2LhKM.s 			page 218


 8904              	.LASF615:
 8905 12c0 63795F73 		.ascii	"cy_stc_ble_gatts_att_pack_val_len_t\000"
 8905      74635F62 
 8905      6C655F67 
 8905      61747473 
 8905      5F617474 
 8906              	.LASF718:
 8907 12e4 63795F62 		.ascii	"cy_ble_pairStatus\000"
 8907      6C655F70 
 8907      61697253 
 8907      74617475 
 8907      7300
 8908              	.LASF175:
 8909 12f6 74637077 		.ascii	"tcpwm_1_interrupts_17_IRQn\000"
 8909      6D5F315F 
 8909      696E7465 
 8909      72727570 
 8909      74735F31 
 8910              	.LASF15:
 8911 1311 63686172 		.ascii	"char\000"
 8911      00
 8912              	.LASF431:
 8913 1316 43595F42 		.ascii	"CY_BLE_EVT_GATTC_STOP_CMD_COMPLETE\000"
 8913      4C455F45 
 8913      56545F47 
 8913      41545443 
 8913      5F53544F 
 8914              	.LASF317:
 8915 1339 52544F43 		.ascii	"RTOC2_SIGNATURE_VERIF_KEY\000"
 8915      325F5349 
 8915      474E4154 
 8915      5552455F 
 8915      56455249 
 8916              	.LASF441:
 8917 1353 43595F42 		.ascii	"CY_BLE_EVT_L2CAP_CBFC_DATA_READ\000"
 8917      4C455F45 
 8917      56545F4C 
 8917      32434150 
 8917      5F434246 
 8918              	.LASF728:
 8919 1373 43795F42 		.ascii	"Cy_BLE_StoreStackData\000"
 8919      4C455F53 
 8919      746F7265 
 8919      53746163 
 8919      6B446174 
 8920              	.LASF204:
 8921 1389 7573625F 		.ascii	"usb_interrupt_med_IRQn\000"
 8921      696E7465 
 8921      72727570 
 8921      745F6D65 
 8921      645F4952 
 8922              	.LASF476:
 8923 13a0 63795F65 		.ascii	"cy_en_ble_api_result_t\000"
 8923      6E5F626C 
 8923      655F6170 
 8923      695F7265 
 8923      73756C74 
ARM GAS  C:\Users\salaz\AppData\Local\Temp\ccu2LhKM.s 			page 219


 8924              	.LASF677:
 8925 13b7 61647649 		.ascii	"advIndex\000"
 8925      6E646578 
 8925      00
 8926              	.LASF117:
 8927 13c0 63707573 		.ascii	"cpuss_interrupts_dw0_7_IRQn\000"
 8927      735F696E 
 8927      74657272 
 8927      75707473 
 8927      5F647730 
 8928              	.LASF356:
 8929 13dc 43595F42 		.ascii	"CY_BLE_EVT_GET_PHY_COMPLETE\000"
 8929      4C455F45 
 8929      56545F47 
 8929      45545F50 
 8929      48595F43 
 8930              	.LASF358:
 8931 13f8 43595F42 		.ascii	"CY_BLE_EVT_SET_PHY_COMPLETE\000"
 8931      4C455F45 
 8931      56545F53 
 8931      45545F50 
 8931      48595F43 
 8932              	.LASF373:
 8933 1414 43595F42 		.ascii	"CY_BLE_EVT_AES_CCM_DECRYPT_COMPLETE\000"
 8933      4C455F45 
 8933      56545F41 
 8933      45535F43 
 8933      434D5F44 
 8934              	.LASF160:
 8935 1438 74637077 		.ascii	"tcpwm_1_interrupts_2_IRQn\000"
 8935      6D5F315F 
 8935      696E7465 
 8935      72727570 
 8935      74735F32 
 8936              	.LASF201:
 8937 1452 70726F66 		.ascii	"profile_interrupt_IRQn\000"
 8937      696C655F 
 8937      696E7465 
 8937      72727570 
 8937      745F4952 
 8938              	.LASF540:
 8939 1469 43595F42 		.ascii	"CY_BLE_GAPP_CONNECTABLE_LOW_DC_DIRECTED_ADV\000"
 8939      4C455F47 
 8939      4150505F 
 8939      434F4E4E 
 8939      45435441 
 8940              	.LASF42:
 8941 1495 4E766963 		.ascii	"NvicMux16_IRQn\000"
 8941      4D757831 
 8941      365F4952 
 8941      516E00
 8942              	.LASF8:
 8943 14a4 5F5F7569 		.ascii	"__uint16_t\000"
 8943      6E743136 
 8943      5F7400
 8944              	.LASF538:
 8945 14af 43595F42 		.ascii	"CY_BLE_GAPP_SCANNABLE_UNDIRECTED_ADV\000"
ARM GAS  C:\Users\salaz\AppData\Local\Temp\ccu2LhKM.s 			page 220


 8945      4C455F47 
 8945      4150505F 
 8945      5343414E 
 8945      4E41424C 
 8946              	.LASF259:
 8947 14d4 43505553 		.ascii	"CPUSS_TRIM_ROM_CTL_HALF_ULP\000"
 8947      535F5452 
 8947      494D5F52 
 8947      4F4D5F43 
 8947      544C5F48 
 8948              	.LASF490:
 8949 14f0 62697446 		.ascii	"bitField\000"
 8949      69656C64 
 8949      00
 8950              	.LASF382:
 8951 14f9 43595F42 		.ascii	"CY_BLE_EVT_GAPC_SCAN_PROGRESS_RESULT\000"
 8951      4C455F45 
 8951      56545F47 
 8951      4150435F 
 8951      5343414E 
 8952              	.LASF214:
 8953 151e 52455345 		.ascii	"RESERVED2\000"
 8953      52564544 
 8953      3200
 8954              	.LASF132:
 8955 1528 63707573 		.ascii	"cpuss_interrupts_dw1_6_IRQn\000"
 8955      735F696E 
 8955      74657272 
 8955      75707473 
 8955      5F647731 
 8956              	.LASF398:
 8957 1544 43595F42 		.ascii	"CY_BLE_EVT_GAP_ENHANCE_CONN_COMPLETE\000"
 8957      4C455F45 
 8957      56545F47 
 8957      41505F45 
 8957      4E48414E 
 8958              	.LASF101:
 8959 1569 7363625F 		.ascii	"scb_0_interrupt_IRQn\000"
 8959      305F696E 
 8959      74657272 
 8959      7570745F 
 8959      4952516E 
 8960              	.LASF434:
 8961 157e 43595F42 		.ascii	"CY_BLE_EVT_L2CAP_CONN_PARAM_UPDATE_REQ\000"
 8961      4C455F45 
 8961      56545F4C 
 8961      32434150 
 8961      5F434F4E 
 8962              	.LASF561:
 8963 15a5 43595F42 		.ascii	"CY_BLE_STATE_INITIALIZING\000"
 8963      4C455F53 
 8963      54415445 
 8963      5F494E49 
 8963      5449414C 
 8964              	.LASF741:
 8965 15bf 433A5C55 		.ascii	"C:\\Users\\salaz\\Desktop\\SmartHandle\\SmartHandle"
 8965      73657273 
ARM GAS  C:\Users\salaz\AppData\Local\Temp\ccu2LhKM.s 			page 221


 8965      5C73616C 
 8965      617A5C44 
 8965      65736B74 
 8966 15ed 2E637964 		.ascii	".cydsn\000"
 8966      736E00
 8967              	.LASF319:
 8968 15f4 52544F43 		.ascii	"RTOC2_FLAGS\000"
 8968      325F464C 
 8968      41475300 
 8969              	.LASF168:
 8970 1600 74637077 		.ascii	"tcpwm_1_interrupts_10_IRQn\000"
 8970      6D5F315F 
 8970      696E7465 
 8970      72727570 
 8970      74735F31 
 8971              	.LASF557:
 8972 161b 61647650 		.ascii	"advParam\000"
 8972      6172616D 
 8972      00
 8973              	.LASF519:
 8974 1624 63795F73 		.ascii	"cy_stc_ble_gap_bd_addr_t\000"
 8974      74635F62 
 8974      6C655F67 
 8974      61705F62 
 8974      645F6164 
 8975              	.LASF137:
 8976 163d 63707573 		.ascii	"cpuss_interrupts_dw1_11_IRQn\000"
 8976      735F696E 
 8976      74657272 
 8976      75707473 
 8976      5F647731 
 8977              	.LASF558:
 8978 165a 61647654 		.ascii	"advTo\000"
 8978      6F00
 8979              	.LASF742:
 8980 1660 43795F42 		.ascii	"Cy_BLE_GetAdvertisementState\000"
 8980      4C455F47 
 8980      65744164 
 8980      76657274 
 8980      6973656D 
 8981              	.LASF89:
 8982 167d 63707573 		.ascii	"cpuss_interrupts_ipc_4_IRQn\000"
 8982      735F696E 
 8982      74657272 
 8982      75707473 
 8982      5F697063 
 8983              	.LASF110:
 8984 1699 63707573 		.ascii	"cpuss_interrupts_dw0_0_IRQn\000"
 8984      735F696E 
 8984      74657272 
 8984      75707473 
 8984      5F647730 
 8985              	.LASF595:
 8986 16b5 66617374 		.ascii	"fastScanTimeOut\000"
 8986      5363616E 
 8986      54696D65 
 8986      4F757400 
ARM GAS  C:\Users\salaz\AppData\Local\Temp\ccu2LhKM.s 			page 222


 8987              	.LASF484:
 8988 16c5 43595F42 		.ascii	"CY_BLE_LL_PWR_LVL_0_DBM\000"
 8988      4C455F4C 
 8988      4C5F5057 
 8988      525F4C56 
 8988      4C5F305F 
 8989              	.LASF709:
 8990 16dd 43795F42 		.ascii	"Cy_BLE_GetRssiPeer\000"
 8990      4C455F47 
 8990      65745273 
 8990      73695065 
 8990      657200
 8991              	.LASF422:
 8992 16f0 43595F42 		.ascii	"CY_BLE_EVT_GATTC_WRITE_RSP\000"
 8992      4C455F45 
 8992      56545F47 
 8992      41545443 
 8992      5F575249 
 8993              	.LASF60:
 8994 170b 696F7373 		.ascii	"ioss_interrupts_gpio_0_IRQn\000"
 8994      5F696E74 
 8994      65727275 
 8994      7074735F 
 8994      6770696F 
 8995              	.LASF173:
 8996 1727 74637077 		.ascii	"tcpwm_1_interrupts_15_IRQn\000"
 8996      6D5F315F 
 8996      696E7465 
 8996      72727570 
 8996      74735F31 
 8997              	.LASF174:
 8998 1742 74637077 		.ascii	"tcpwm_1_interrupts_16_IRQn\000"
 8998      6D5F315F 
 8998      696E7465 
 8998      72727570 
 8998      74735F31 
 8999              	.LASF26:
 9000 175d 4E766963 		.ascii	"NvicMux0_IRQn\000"
 9000      4D757830 
 9000      5F495251 
 9000      6E00
 9001              	.LASF339:
 9002 176b 43595F42 		.ascii	"CY_BLE_EVT_READ_AUTH_PAYLOAD_TO_COMPLETE\000"
 9002      4C455F45 
 9002      56545F52 
 9002      4541445F 
 9002      41555448 
 9003              	.LASF83:
 9004 1794 70617373 		.ascii	"pass_interrupt_ctbs_IRQn\000"
 9004      5F696E74 
 9004      65727275 
 9004      70745F63 
 9004      7462735F 
 9005              	.LASF52:
 9006 17ad 4E766963 		.ascii	"NvicMux26_IRQn\000"
 9006      4D757832 
 9006      365F4952 
ARM GAS  C:\Users\salaz\AppData\Local\Temp\ccu2LhKM.s 			page 223


 9006      516E00
 9007              	.LASF633:
 9008 17bc 626F756E 		.ascii	"boundedDevCount\000"
 9008      64656444 
 9008      6576436F 
 9008      756E7400 
 9009              	.LASF239:
 9010 17cc 4D415354 		.ascii	"MASTER_KEY\000"
 9010      45525F4B 
 9010      455900
 9011              	.LASF100:
 9012 17d7 63707573 		.ascii	"cpuss_interrupts_ipc_15_IRQn\000"
 9012      735F696E 
 9012      74657272 
 9012      75707473 
 9012      5F697063 
 9013              	.LASF458:
 9014 17f4 43595F42 		.ascii	"CY_BLE_ERROR_SEC_FAILED\000"
 9014      4C455F45 
 9014      52524F52 
 9014      5F534543 
 9014      5F464149 
 9015              	.LASF397:
 9016 180c 43595F42 		.ascii	"CY_BLE_EVT_GAP_OOB_GENERATED_NOTIFICATION\000"
 9016      4C455F45 
 9016      56545F47 
 9016      41505F4F 
 9016      4F425F47 
 9017              	.LASF226:
 9018 1836 5341525F 		.ascii	"SAR_TEMP_OFFSET\000"
 9018      54454D50 
 9018      5F4F4646 
 9018      53455400 
 9019              	.LASF381:
 9020 1846 43595F42 		.ascii	"CY_BLE_EVT_SET_CONN_PRIORITY_COMPLETE\000"
 9020      4C455F45 
 9020      56545F53 
 9020      45545F43 
 9020      4F4E4E5F 
 9021              	.LASF191:
 9022 186c 7564625F 		.ascii	"udb_interrupts_9_IRQn\000"
 9022      696E7465 
 9022      72727570 
 9022      74735F39 
 9022      5F495251 
 9023              	.LASF468:
 9024 1882 43595F42 		.ascii	"CY_BLE_ERROR_HARDWARE_FAILURE\000"
 9024      4C455F45 
 9024      52524F52 
 9024      5F484152 
 9024      44574152 
 9025              	.LASF320:
 9026 18a0 52544F43 		.ascii	"RTOC2_CRC_ADDR\000"
 9026      325F4352 
 9026      435F4144 
 9026      445200
 9027              	.LASF99:
ARM GAS  C:\Users\salaz\AppData\Local\Temp\ccu2LhKM.s 			page 224


 9028 18af 63707573 		.ascii	"cpuss_interrupts_ipc_14_IRQn\000"
 9028      735F696E 
 9028      74657272 
 9028      75707473 
 9028      5F697063 
 9029              	.LASF357:
 9030 18cc 43595F42 		.ascii	"CY_BLE_EVT_SET_DEFAULT_PHY_COMPLETE\000"
 9030      4C455F45 
 9030      56545F53 
 9030      45545F44 
 9030      45464155 
 9031              	.LASF11:
 9032 18f0 5F5F7569 		.ascii	"__uint32_t\000"
 9032      6E743332 
 9032      5F7400
 9033              	.LASF231:
 9034 18fb 4C444F5F 		.ascii	"LDO_1P1V_TRIM\000"
 9034      31503156 
 9034      5F545249 
 9034      4D00
 9035              	.LASF631:
 9036 1909 61747456 		.ascii	"attValuesCCCDFlashMemory\000"
 9036      616C7565 
 9036      73434343 
 9036      44466C61 
 9036      73684D65 
 9037              	.LASF178:
 9038 1922 74637077 		.ascii	"tcpwm_1_interrupts_20_IRQn\000"
 9038      6D5F315F 
 9038      696E7465 
 9038      72727570 
 9038      74735F32 
 9039              	.LASF206:
 9040 193d 70617373 		.ascii	"pass_interrupt_dacs_IRQn\000"
 9040      5F696E74 
 9040      65727275 
 9040      70745F64 
 9040      6163735F 
 9041              	.LASF209:
 9042 1956 52455345 		.ascii	"RESERVED\000"
 9042      52564544 
 9042      00
 9043              	.LASF131:
 9044 195f 63707573 		.ascii	"cpuss_interrupts_dw1_5_IRQn\000"
 9044      735F696E 
 9044      74657272 
 9044      75707473 
 9044      5F647731 
 9045              	.LASF143:
 9046 197b 63707573 		.ascii	"cpuss_interrupts_fault_1_IRQn\000"
 9046      735F696E 
 9046      74657272 
 9046      75707473 
 9046      5F666175 
 9047              	.LASF223:
 9048 1999 4449455F 		.ascii	"DIE_YEAR\000"
 9048      59454152 
ARM GAS  C:\Users\salaz\AppData\Local\Temp\ccu2LhKM.s 			page 225


 9048      00
 9049              	.LASF467:
 9050 19a2 43595F42 		.ascii	"CY_BLE_ERROR_MIC_AUTH_FAILED\000"
 9050      4C455F45 
 9050      52524F52 
 9050      5F4D4943 
 9050      5F415554 
 9051              	.LASF648:
 9052 19bf 67617073 		.ascii	"gaps\000"
 9052      00
 9053              	.LASF213:
 9054 19c4 46414D49 		.ascii	"FAMILY_ID\000"
 9054      4C595F49 
 9054      4400
 9055              	.LASF359:
 9056 19ce 43595F42 		.ascii	"CY_BLE_EVT_PHY_UPDATE_COMPLETE\000"
 9056      4C455F45 
 9056      56545F50 
 9056      48595F55 
 9056      50444154 
 9057              	.LASF424:
 9058 19ed 43595F42 		.ascii	"CY_BLE_EVT_GATTS_PREP_WRITE_REQ\000"
 9058      4C455F45 
 9058      56545F47 
 9058      41545453 
 9058      5F505245 
 9059              	.LASF443:
 9060 1a0d 43595F42 		.ascii	"CY_BLE_EVT_L2CAP_CBFC_TX_CREDIT_IND\000"
 9060      4C455F45 
 9060      56545F4C 
 9060      32434150 
 9060      5F434246 
 9061              	.LASF630:
 9062 1a31 73746163 		.ascii	"stackFlashptr\000"
 9062      6B466C61 
 9062      73687074 
 9062      7200
 9063              	.LASF514:
 9064 1a3f 43595F42 		.ascii	"CY_BLE_GAP_AUTH_ERROR_BR_EDR_PAIRING_IN_PROGRESS\000"
 9064      4C455F47 
 9064      41505F41 
 9064      5554485F 
 9064      4552524F 
 9065              	.LASF526:
 9066 1a70 63795F73 		.ascii	"cy_stc_ble_gap_auth_info_t\000"
 9066      74635F62 
 9066      6C655F67 
 9066      61705F61 
 9066      7574685F 
 9067              	.LASF692:
 9068 1a8b 43795F42 		.ascii	"Cy_BLE_GAP_RemoveBondedDevice\000"
 9068      4C455F47 
 9068      41505F52 
 9068      656D6F76 
 9068      65426F6E 
 9069              	.LASF324:
 9070 1aa9 75696E74 		.ascii	"uint32\000"
ARM GAS  C:\Users\salaz\AppData\Local\Temp\ccu2LhKM.s 			page 226


 9070      333200
 9071              	.LASF184:
 9072 1ab0 7564625F 		.ascii	"udb_interrupts_2_IRQn\000"
 9072      696E7465 
 9072      72727570 
 9072      74735F32 
 9072      5F495251 
 9073              	.LASF496:
 9074 1ac6 43595F42 		.ascii	"CY_BLE_GAP_IOCAP_DISPLAY_YESNO\000"
 9074      4C455F47 
 9074      41505F49 
 9074      4F434150 
 9074      5F444953 
 9075              	.LASF211:
 9076 1ae5 53494C49 		.ascii	"SILICON_ID\000"
 9076      434F4E5F 
 9076      494400
 9077              	.LASF437:
 9078 1af0 43595F42 		.ascii	"CY_BLE_EVT_L2CAP_CBFC_CONN_IND\000"
 9078      4C455F45 
 9078      56545F4C 
 9078      32434150 
 9078      5F434246 
 9079              	.LASF527:
 9080 1b0f 64697363 		.ascii	"discProcedure\000"
 9080      50726F63 
 9080      65647572 
 9080      6500
 9081              	.LASF676:
 9082 1b1d 6D61784C 		.ascii	"maxLength\000"
 9082      656E6774 
 9082      6800
 9083              	.LASF152:
 9084 1b27 74637077 		.ascii	"tcpwm_0_interrupts_2_IRQn\000"
 9084      6D5F305F 
 9084      696E7465 
 9084      72727570 
 9084      74735F32 
 9085              	.LASF548:
 9086 1b41 61647646 		.ascii	"advFilterPolicy\000"
 9086      696C7465 
 9086      72506F6C 
 9086      69637900 
 9087              	.LASF365:
 9088 1b51 43595F42 		.ascii	"CY_BLE_EVT_GET_RSSI_COMPLETE\000"
 9088      4C455F45 
 9088      56545F47 
 9088      45545F52 
 9088      5353495F 
 9089              	.LASF700:
 9090 1b6e 43795F42 		.ascii	"Cy_BLE_ChangeAdDeviceAddress\000"
 9090      4C455F43 
 9090      68616E67 
 9090      65416444 
 9090      65766963 
 9091              	.LASF21:
 9092 1b8b 4E6F6E4D 		.ascii	"NonMaskableInt_IRQn\000"
ARM GAS  C:\Users\salaz\AppData\Local\Temp\ccu2LhKM.s 			page 227


 9092      61736B61 
 9092      626C6549 
 9092      6E745F49 
 9092      52516E00 
 9093              	.LASF544:
 9094 1b9f 61647654 		.ascii	"advType\000"
 9094      79706500 
 9095              	.LASF301:
 9096 1ba7 544F4332 		.ascii	"TOC2_SECOND_USER_APP_ADDR\000"
 9096      5F534543 
 9096      4F4E445F 
 9096      55534552 
 9096      5F415050 
 9097              	.LASF230:
 9098 1bc1 4C444F5F 		.ascii	"LDO_0P9V_TRIM\000"
 9098      30503956 
 9098      5F545249 
 9098      4D00
 9099              	.LASF589:
 9100 1bcf 736C6F77 		.ascii	"slowAdvIntervalMin\000"
 9100      41647649 
 9100      6E746572 
 9100      76616C4D 
 9100      696E00
 9101              	.LASF724:
 9102 1be2 63795F62 		.ascii	"cy_ble_advertisingIntervalType\000"
 9102      6C655F61 
 9102      64766572 
 9102      74697369 
 9102      6E67496E 
 9103              	.LASF414:
 9104 1c01 43595F42 		.ascii	"CY_BLE_EVT_GATTC_READ_BY_GROUP_TYPE_RSP\000"
 9104      4C455F45 
 9104      56545F47 
 9104      41545443 
 9104      5F524541 
 9105              	.LASF12:
 9106 1c29 6C6F6E67 		.ascii	"long unsigned int\000"
 9106      20756E73 
 9106      69676E65 
 9106      6420696E 
 9106      7400
 9107              	.LASF415:
 9108 1c3b 43595F42 		.ascii	"CY_BLE_EVT_GATTC_READ_BY_TYPE_RSP\000"
 9108      4C455F45 
 9108      56545F47 
 9108      41545443 
 9108      5F524541 
 9109              	.LASF491:
 9110 1c5d 63795F73 		.ascii	"cy_stc_ble_stack_flash_param_t\000"
 9110      74635F62 
 9110      6C655F73 
 9110      7461636B 
 9110      5F666C61 
 9111              	.LASF327:
 9112 1c7c 636D3070 		.ascii	"cm0pSrc\000"
 9112      53726300 
ARM GAS  C:\Users\salaz\AppData\Local\Temp\ccu2LhKM.s 			page 228


 9113              	.LASF552:
 9114 1c84 63795F73 		.ascii	"cy_stc_ble_gapp_disc_data_t\000"
 9114      74635F62 
 9114      6C655F67 
 9114      6170705F 
 9114      64697363 
 9115              	.LASF393:
 9116 1ca0 43595F42 		.ascii	"CY_BLE_EVT_GAPC_SCAN_START_STOP\000"
 9116      4C455F45 
 9116      56545F47 
 9116      4150435F 
 9116      5343414E 
 9117              	.LASF199:
 9118 1cc0 61756469 		.ascii	"audioss_interrupt_i2s_IRQn\000"
 9118      6F73735F 
 9118      696E7465 
 9118      72727570 
 9118      745F6932 
 9119              	.LASF81:
 9120 1cdb 73727373 		.ascii	"srss_interrupt_backup_IRQn\000"
 9120      5F696E74 
 9120      65727275 
 9120      70745F62 
 9120      61636B75 
 9121              	.LASF32:
 9122 1cf6 4E766963 		.ascii	"NvicMux6_IRQn\000"
 9122      4D757836 
 9122      5F495251 
 9122      6E00
 9123              	.LASF603:
 9124 1d04 67617063 		.ascii	"gapcConnectionTimeOut\000"
 9124      436F6E6E 
 9124      65637469 
 9124      6F6E5469 
 9124      6D654F75 
 9125              	.LASF582:
 9126 1d1a 63656E74 		.ascii	"centralAddrResolutionCharHandle\000"
 9126      72616C41 
 9126      64647252 
 9126      65736F6C 
 9126      7574696F 
 9127              	.LASF725:
 9128 1d3a 43795F42 		.ascii	"Cy_BLE_CUSTOM_Init\000"
 9128      4C455F43 
 9128      5553544F 
 9128      4D5F496E 
 9128      697400
 9129              	.LASF349:
 9130 1d4d 43595F42 		.ascii	"CY_BLE_EVT_SET_RPA_TO_COMPLETE\000"
 9130      4C455F45 
 9130      56545F53 
 9130      45545F52 
 9130      50415F54 
 9131              	.LASF329:
 9132 1d6c 63795F73 		.ascii	"cy_stc_sysint_t\000"
 9132      74635F73 
 9132      7973696E 
ARM GAS  C:\Users\salaz\AppData\Local\Temp\ccu2LhKM.s 			page 229


 9132      745F7400 
 9133              	.LASF464:
 9134 1d7c 43595F42 		.ascii	"CY_BLE_ERROR_UNSUPPORTED_FEATURE_OR_PARAMETER_VALUE"
 9134      4C455F45 
 9134      52524F52 
 9134      5F554E53 
 9134      5550504F 
 9135 1daf 00       		.ascii	"\000"
 9136              	.LASF500:
 9137 1db0 63795F65 		.ascii	"cy_en_ble_gap_iocap_t\000"
 9137      6E5F626C 
 9137      655F6761 
 9137      705F696F 
 9137      6361705F 
 9138              	.LASF59:
 9139 1dc6 4952516E 		.ascii	"IRQn_Type\000"
 9139      5F547970 
 9139      6500
 9140              	.LASF271:
 9141 1dd0 464C4153 		.ascii	"FLASH_BOOT_CODE\000"
 9141      485F424F 
 9141      4F545F43 
 9141      4F444500 
 9142              	.LASF331:
 9143 1de0 43595F42 		.ascii	"CY_BLE_EVT_STACK_ON\000"
 9143      4C455F45 
 9143      56545F53 
 9143      5441434B 
 9143      5F4F4E00 
 9144              	.LASF147:
 9145 1df4 63707573 		.ascii	"cpuss_interrupts_cm0_cti_1_IRQn\000"
 9145      735F696E 
 9145      74657272 
 9145      75707473 
 9145      5F636D30 
 9146              	.LASF436:
 9147 1e14 43595F42 		.ascii	"CY_BLE_EVT_L2CAP_COMMAND_REJ\000"
 9147      4C455F45 
 9147      56545F4C 
 9147      32434150 
 9147      5F434F4D 
 9148              	.LASF315:
 9149 1e31 52544F43 		.ascii	"RTOC2_SECOND_USER_APP_FORMAT\000"
 9149      325F5345 
 9149      434F4E44 
 9149      5F555345 
 9149      525F4150 
 9150              	.LASF372:
 9151 1e4e 43595F42 		.ascii	"CY_BLE_EVT_AES_CCM_ENCRYPT_COMPLETE\000"
 9151      4C455F45 
 9151      56545F41 
 9151      45535F43 
 9151      434D5F45 
 9152              	.LASF583:
 9153 1e72 7265736F 		.ascii	"resolvablePrivateAddressOnly\000"
 9153      6C766162 
 9153      6C655072 
ARM GAS  C:\Users\salaz\AppData\Local\Temp\ccu2LhKM.s 			page 230


 9153      69766174 
 9153      65416464 
 9154              	.LASF216:
 9155 1e8f 4449455F 		.ascii	"DIE_WAFER\000"
 9155      57414645 
 9155      5200
 9156              	.LASF411:
 9157 1e99 43595F42 		.ascii	"CY_BLE_EVT_GATT_DISCONNECT_IND\000"
 9157      4C455F45 
 9157      56545F47 
 9157      4154545F 
 9157      44495343 
 9158              	.LASF617:
 9159 1eb8 61747456 		.ascii	"attValueUuid\000"
 9159      616C7565 
 9159      55756964 
 9159      00
 9160              	.LASF667:
 9161 1ec5 636F6E6E 		.ascii	"connNum\000"
 9161      4E756D00 
 9162              	.LASF194:
 9163 1ecd 7564625F 		.ascii	"udb_interrupts_12_IRQn\000"
 9163      696E7465 
 9163      72727570 
 9163      74735F31 
 9163      325F4952 
 9164              	.LASF417:
 9165 1ee4 43595F42 		.ascii	"CY_BLE_EVT_GATTC_FIND_BY_TYPE_VALUE_RSP\000"
 9165      4C455F45 
 9165      56545F47 
 9165      41545443 
 9165      5F46494E 
 9166              	.LASF163:
 9167 1f0c 74637077 		.ascii	"tcpwm_1_interrupts_5_IRQn\000"
 9167      6D5F315F 
 9167      696E7465 
 9167      72727570 
 9167      74735F35 
 9168              	.LASF94:
 9169 1f26 63707573 		.ascii	"cpuss_interrupts_ipc_9_IRQn\000"
 9169      735F696E 
 9169      74657272 
 9169      75707473 
 9169      5F697063 
 9170              	.LASF740:
 9171 1f42 47656E65 		.ascii	"Generated_Source\\PSoC6\\pdl\\middleware\\ble\\cy_b"
 9171      72617465 
 9171      645F536F 
 9171      75726365 
 9171      5C50536F 
 9172 1f70 6C655F67 		.ascii	"le_gap.c\000"
 9172      61702E63 
 9172      00
 9173              	.LASF45:
 9174 1f79 4E766963 		.ascii	"NvicMux19_IRQn\000"
 9174      4D757831 
 9174      395F4952 
ARM GAS  C:\Users\salaz\AppData\Local\Temp\ccu2LhKM.s 			page 231


 9174      516E00
 9175              	.LASF559:
 9176 1f88 63795F73 		.ascii	"cy_stc_ble_gapp_disc_mode_info_t\000"
 9176      74635F62 
 9176      6C655F67 
 9176      6170705F 
 9176      64697363 
 9177              	.LASF471:
 9178 1fa9 43595F42 		.ascii	"CY_BLE_ERROR_IND_DISABLED\000"
 9178      4C455F45 
 9178      52524F52 
 9178      5F494E44 
 9178      5F444953 
 9179              	.LASF470:
 9180 1fc3 43595F42 		.ascii	"CY_BLE_ERROR_NTF_DISABLED\000"
 9180      4C455F45 
 9180      52524F52 
 9180      5F4E5446 
 9180      5F444953 
 9181              	.LASF504:
 9182 1fdd 43595F42 		.ascii	"CY_BLE_GAP_AUTH_ERROR_AUTHENTICATION_REQ_NOT_MET\000"
 9182      4C455F47 
 9182      41505F41 
 9182      5554485F 
 9182      4552524F 
 9183              	.LASF103:
 9184 200e 7363625F 		.ascii	"scb_2_interrupt_IRQn\000"
 9184      325F696E 
 9184      74657272 
 9184      7570745F 
 9184      4952516E 
 9185              	.LASF693:
 9186 2023 70656572 		.ascii	"peerAddrInfoParam\000"
 9186      41646472 
 9186      496E666F 
 9186      50617261 
 9186      6D00
 9187              	.LASF135:
 9188 2035 63707573 		.ascii	"cpuss_interrupts_dw1_9_IRQn\000"
 9188      735F696E 
 9188      74657272 
 9188      75707473 
 9188      5F647731 
 9189              	.LASF572:
 9190 2051 43595F42 		.ascii	"CY_BLE_CONN_STATE_CLIENT_SRVC_DISCOVERING\000"
 9190      4C455F43 
 9190      4F4E4E5F 
 9190      53544154 
 9190      455F434C 
 9191              	.LASF273:
 9192 207b 5055424C 		.ascii	"PUBLIC_KEY\000"
 9192      49435F4B 
 9192      455900
 9193              	.LASF370:
 9194 2086 43595F42 		.ascii	"CY_BLE_EVT_RANDOM_NUM_GEN_COMPLETE\000"
 9194      4C455F45 
 9194      56545F52 
ARM GAS  C:\Users\salaz\AppData\Local\Temp\ccu2LhKM.s 			page 232


 9194      414E444F 
 9194      4D5F4E55 
 9195              	.LASF71:
 9196 20a9 696F7373 		.ascii	"ioss_interrupts_gpio_11_IRQn\000"
 9196      5F696E74 
 9196      65727275 
 9196      7074735F 
 9196      6770696F 
 9197              	.LASF418:
 9198 20c6 43595F42 		.ascii	"CY_BLE_EVT_GATTC_READ_RSP\000"
 9198      4C455F45 
 9198      56545F47 
 9198      41545443 
 9198      5F524541 
 9199              	.LASF707:
 9200 20e0 69735061 		.ascii	"isPaired\000"
 9200      69726564 
 9200      00
 9201              	.LASF727:
 9202 20e9 43795F42 		.ascii	"Cy_BLE_ProcessEvents\000"
 9202      4C455F50 
 9202      726F6365 
 9202      73734576 
 9202      656E7473 
 9203              	.LASF140:
 9204 20fe 63707573 		.ascii	"cpuss_interrupts_dw1_14_IRQn\000"
 9204      735F696E 
 9204      74657272 
 9204      75707473 
 9204      5F647731 
 9205              	.LASF409:
 9206 211b 43595F42 		.ascii	"CY_BLE_EVT_GATTC_ERROR_RSP\000"
 9206      4C455F45 
 9206      56545F47 
 9206      41545443 
 9206      5F455252 
 9207              	.LASF304:
 9208 2136 544F4332 		.ascii	"TOC2_SIGNATURE_VERIF_KEY\000"
 9208      5F534947 
 9208      4E415455 
 9208      52455F56 
 9208      45524946 
 9209              	.LASF734:
 9210 214f 43795F42 		.ascii	"Cy_BLE_GAP_RemoveDeviceFromBondList\000"
 9210      4C455F47 
 9210      41505F52 
 9210      656D6F76 
 9210      65446576 
 9211              	.LASF655:
 9212 2173 626C6573 		.ascii	"blessIsrConfig\000"
 9212      73497372 
 9212      436F6E66 
 9212      696700
 9213              	.LASF234:
 9214 2182 55534552 		.ascii	"USER_FREE_ROW1\000"
 9214      5F465245 
 9214      455F524F 
ARM GAS  C:\Users\salaz\AppData\Local\Temp\ccu2LhKM.s 			page 233


 9214      573100
 9215              	.LASF235:
 9216 2191 55534552 		.ascii	"USER_FREE_ROW2\000"
 9216      5F465245 
 9216      455F524F 
 9216      573200
 9217              	.LASF236:
 9218 21a0 55534552 		.ascii	"USER_FREE_ROW3\000"
 9218      5F465245 
 9218      455F524F 
 9218      573300
 9219              	.LASF743:
 9220 21af 43795F42 		.ascii	"Cy_BLE_SetAdvertisementState\000"
 9220      4C455F53 
 9220      65744164 
 9220      76657274 
 9220      6973656D 
 9221              	.LASF87:
 9222 21cc 63707573 		.ascii	"cpuss_interrupts_ipc_2_IRQn\000"
 9222      735F696E 
 9222      74657272 
 9222      75707473 
 9222      5F697063 
 9223              	.LASF599:
 9224 21e8 736C6F77 		.ascii	"slowScanTimeOut\000"
 9224      5363616E 
 9224      54696D65 
 9224      4F757400 
 9225              	.LASF1:
 9226 21f8 6C6F6E67 		.ascii	"long long int\000"
 9226      206C6F6E 
 9226      6720696E 
 9226      7400
 9227              	.LASF63:
 9228 2206 696F7373 		.ascii	"ioss_interrupts_gpio_3_IRQn\000"
 9228      5F696E74 
 9228      65727275 
 9228      7074735F 
 9228      6770696F 
 9229              	.LASF177:
 9230 2222 74637077 		.ascii	"tcpwm_1_interrupts_19_IRQn\000"
 9230      6D5F315F 
 9230      696E7465 
 9230      72727570 
 9230      74735F31 
 9231              	.LASF420:
 9232 223d 43595F42 		.ascii	"CY_BLE_EVT_GATTC_READ_MULTI_RSP\000"
 9232      4C455F45 
 9232      56545F47 
 9232      41545443 
 9232      5F524541 
 9233              	.LASF622:
 9234 225d 61747445 		.ascii	"attEndHandle\000"
 9234      6E644861 
 9234      6E646C65 
 9234      00
 9235              	.LASF440:
ARM GAS  C:\Users\salaz\AppData\Local\Temp\ccu2LhKM.s 			page 234


 9236 226a 43595F42 		.ascii	"CY_BLE_EVT_L2CAP_CBFC_DISCONN_CNF\000"
 9236      4C455F45 
 9236      56545F4C 
 9236      32434150 
 9236      5F434246 
 9237              	.LASF695:
 9238 228c 43795F42 		.ascii	"Cy_BLE_GAPP_StartAdvertisement\000"
 9238      4C455F47 
 9238      4150505F 
 9238      53746172 
 9238      74416476 
 9239              	.LASF55:
 9240 22ab 4E766963 		.ascii	"NvicMux29_IRQn\000"
 9240      4D757832 
 9240      395F4952 
 9240      516E00
 9241              	.LASF24:
 9242 22ba 50656E64 		.ascii	"PendSV_IRQn\000"
 9242      53565F49 
 9242      52516E00 
 9243              	.LASF119:
 9244 22c6 63707573 		.ascii	"cpuss_interrupts_dw0_9_IRQn\000"
 9244      735F696E 
 9244      74657272 
 9244      75707473 
 9244      5F647730 
 9245              	.LASF193:
 9246 22e2 7564625F 		.ascii	"udb_interrupts_11_IRQn\000"
 9246      696E7465 
 9246      72727570 
 9246      74735F31 
 9246      315F4952 
 9247              	.LASF162:
 9248 22f9 74637077 		.ascii	"tcpwm_1_interrupts_4_IRQn\000"
 9248      6D5F315F 
 9248      696E7465 
 9248      72727570 
 9248      74735F34 
 9249              	.LASF323:
 9250 2313 646F7562 		.ascii	"double\000"
 9250      6C6500
 9251              	.LASF23:
 9252 231a 53564361 		.ascii	"SVCall_IRQn\000"
 9252      6C6C5F49 
 9252      52516E00 
 9253              	.LASF220:
 9254 2326 4449455F 		.ascii	"DIE_MINOR\000"
 9254      4D494E4F 
 9254      5200
 9255              	.LASF462:
 9256 2330 43595F42 		.ascii	"CY_BLE_ERROR_L2CAP_CONNECTION_ENTITY_NOT_FOUND\000"
 9256      4C455F45 
 9256      52524F52 
 9256      5F4C3243 
 9256      41505F43 
 9257              	.LASF714:
 9258 235f 63795F62 		.ascii	"cy_ble_advIndex\000"
ARM GAS  C:\Users\salaz\AppData\Local\Temp\ccu2LhKM.s 			page 235


 9258      6C655F61 
 9258      6476496E 
 9258      64657800 
 9259              	.LASF485:
 9260 236f 43595F42 		.ascii	"CY_BLE_LL_PWR_LVL_MAX\000"
 9260      4C455F4C 
 9260      4C5F5057 
 9260      525F4C56 
 9260      4C5F4D41 
 9261              	.LASF453:
 9262 2385 43595F42 		.ascii	"CY_BLE_ERROR_NO_CONNECTION\000"
 9262      4C455F45 
 9262      52524F52 
 9262      5F4E4F5F 
 9262      434F4E4E 
 9263              	.LASF579:
 9264 23a0 64657669 		.ascii	"deviceNameCharHandle\000"
 9264      63654E61 
 9264      6D654368 
 9264      61724861 
 9264      6E646C65 
 9265              	.LASF181:
 9266 23b5 74637077 		.ascii	"tcpwm_1_interrupts_23_IRQn\000"
 9266      6D5F315F 
 9266      696E7465 
 9266      72727570 
 9266      74735F32 
 9267              	.LASF545:
 9268 23d0 64697265 		.ascii	"directAddrType\000"
 9268      63744164 
 9268      64725479 
 9268      706500
 9269              	.LASF134:
 9270 23df 63707573 		.ascii	"cpuss_interrupts_dw1_8_IRQn\000"
 9270      735F696E 
 9270      74657272 
 9270      75707473 
 9270      5F647731 
 9271              	.LASF267:
 9272 23fb 464C4153 		.ascii	"FLASH_BOOT_N_CORES\000"
 9272      485F424F 
 9272      4F545F4E 
 9272      5F434F52 
 9272      455300
 9273              	.LASF529:
 9274 240e 7363616E 		.ascii	"scanIntv\000"
 9274      496E7476 
 9274      00
 9275              	.LASF246:
 9276 2417 50494C4F 		.ascii	"PILO_FREQ_STEP\000"
 9276      5F465245 
 9276      515F5354 
 9276      455000
 9277              	.LASF345:
 9278 2426 43595F42 		.ascii	"CY_BLE_EVT_GET_DATA_LENGTH_COMPLETE\000"
 9278      4C455F45 
 9278      56545F47 
ARM GAS  C:\Users\salaz\AppData\Local\Temp\ccu2LhKM.s 			page 236


 9278      45545F44 
 9278      4154415F 
 9279              	.LASF316:
 9280 244a 52544F43 		.ascii	"RTOC2_SHASH_OBJECTS\000"
 9280      325F5348 
 9280      4153485F 
 9280      4F424A45 
 9280      43545300 
 9281              	.LASF170:
 9282 245e 74637077 		.ascii	"tcpwm_1_interrupts_12_IRQn\000"
 9282      6D5F315F 
 9282      696E7465 
 9282      72727570 
 9282      74735F31 
 9283              	.LASF274:
 9284 2479 424F4F54 		.ascii	"BOOT_PROT_SETTINGS\000"
 9284      5F50524F 
 9284      545F5345 
 9284      5454494E 
 9284      475300
 9285              	.LASF635:
 9286 248c 7478506F 		.ascii	"txPowerLevelAdv\000"
 9286      7765724C 
 9286      6576656C 
 9286      41647600 
 9287              	.LASF704:
 9288 249c 43795F42 		.ascii	"Cy_BLE_IsPeerConnected\000"
 9288      4C455F49 
 9288      73506565 
 9288      72436F6E 
 9288      6E656374 
 9289              	.LASF406:
 9290 24b3 43595F42 		.ascii	"CY_BLE_EVT_GAP_CONN_ESTB\000"
 9290      4C455F45 
 9290      56545F47 
 9290      41505F43 
 9290      4F4E4E5F 
 9291              	.LASF40:
 9292 24cc 4E766963 		.ascii	"NvicMux14_IRQn\000"
 9292      4D757831 
 9292      345F4952 
 9292      516E00
 9293              	.LASF498:
 9294 24db 43595F42 		.ascii	"CY_BLE_GAP_IOCAP_NOINPUT_NOOUTPUT\000"
 9294      4C455F47 
 9294      41505F49 
 9294      4F434150 
 9294      5F4E4F49 
 9295              	.LASF383:
 9296 24fd 43595F42 		.ascii	"CY_BLE_EVT_GAP_AUTH_REQ\000"
 9296      4C455F45 
 9296      56545F47 
 9296      41505F41 
 9296      5554485F 
 9297              	.LASF451:
 9298 2515 43595F42 		.ascii	"CY_BLE_ERROR_INSUFFICIENT_RESOURCES\000"
 9298      4C455F45 
ARM GAS  C:\Users\salaz\AppData\Local\Temp\ccu2LhKM.s 			page 237


 9298      52524F52 
 9298      5F494E53 
 9298      55464649 
 9299              	.LASF48:
 9300 2539 4E766963 		.ascii	"NvicMux22_IRQn\000"
 9300      4D757832 
 9300      325F4952 
 9300      516E00
 9301              	.LASF691:
 9302 2548 64656661 		.ascii	"defaultValuesCCCD\000"
 9302      756C7456 
 9302      616C7565 
 9302      73434343 
 9302      4400
 9303              	.LASF534:
 9304 255a 66696C74 		.ascii	"filterDuplicates\000"
 9304      65724475 
 9304      706C6963 
 9304      61746573 
 9304      00
 9305              	.LASF112:
 9306 256b 63707573 		.ascii	"cpuss_interrupts_dw0_2_IRQn\000"
 9306      735F696E 
 9306      74657272 
 9306      75707473 
 9306      5F647730 
 9307              	.LASF657:
 9308 2587 63757374 		.ascii	"customServCharHandle\000"
 9308      6F6D5365 
 9308      72764368 
 9308      61724861 
 9308      6E646C65 
 9309              	.LASF646:
 9310 259c 666C6173 		.ascii	"flashStorage\000"
 9310      6853746F 
 9310      72616765 
 9310      00
 9311              	.LASF522:
 9312 25a9 626F6E64 		.ascii	"bonding\000"
 9312      696E6700 
 9313              	.LASF187:
 9314 25b1 7564625F 		.ascii	"udb_interrupts_5_IRQn\000"
 9314      696E7465 
 9314      72727570 
 9314      74735F35 
 9314      5F495251 
 9315              	.LASF487:
 9316 25c7 62644861 		.ascii	"bdHandle\000"
 9316      6E646C65 
 9316      00
 9317              	.LASF37:
 9318 25d0 4E766963 		.ascii	"NvicMux11_IRQn\000"
 9318      4D757831 
 9318      315F4952 
 9318      516E00
 9319              	.LASF95:
 9320 25df 63707573 		.ascii	"cpuss_interrupts_ipc_10_IRQn\000"
ARM GAS  C:\Users\salaz\AppData\Local\Temp\ccu2LhKM.s 			page 238


 9320      735F696E 
 9320      74657272 
 9320      75707473 
 9320      5F697063 
 9321              	.LASF450:
 9322 25fc 43595F42 		.ascii	"CY_BLE_ERROR_MEMORY_ALLOCATION_FAILED\000"
 9322      4C455F45 
 9322      52524F52 
 9322      5F4D454D 
 9322      4F52595F 
 9323              	.LASF570:
 9324 2622 43595F42 		.ascii	"CY_BLE_CONN_STATE_CLIENT_DISCONNECTED_DISCOVERED\000"
 9324      4C455F43 
 9324      4F4E4E5F 
 9324      53544154 
 9324      455F434C 
 9325              	.LASF649:
 9326 2653 61747456 		.ascii	"attValuesCCCD\000"
 9326      616C7565 
 9326      73434343 
 9326      4400
 9327              	.LASF475:
 9328 2661 43595F42 		.ascii	"CY_BLE_ERROR_MAX\000"
 9328      4C455F45 
 9328      52524F52 
 9328      5F4D4158 
 9328      00
 9329              	.LASF473:
 9330 2672 43595F42 		.ascii	"CY_BLE_ERROR_CONTROLLER_BUSY\000"
 9330      4C455F45 
 9330      52524F52 
 9330      5F434F4E 
 9330      54524F4C 
 9331              	.LASF525:
 9332 268f 70616972 		.ascii	"pairingProperties\000"
 9332      696E6750 
 9332      726F7065 
 9332      72746965 
 9332      7300
 9333              	.LASF281:
 9334 26a1 544F4331 		.ascii	"TOC1_FB_OBJECT_ADDR\000"
 9334      5F46425F 
 9334      4F424A45 
 9334      43545F41 
 9334      44445200 
 9335              	.LASF592:
 9336 26b5 63795F73 		.ascii	"cy_stc_ble_gapp_adv_params_t\000"
 9336      74635F62 
 9336      6C655F67 
 9336      6170705F 
 9336      6164765F 
 9337              	.LASF354:
 9338 26d2 43595F42 		.ascii	"CY_BLE_EVT_ADD_DEVICE_TO_WHITE_LIST_COMPLETE\000"
 9338      4C455F45 
 9338      56545F41 
 9338      44445F44 
 9338      45564943 
ARM GAS  C:\Users\salaz\AppData\Local\Temp\ccu2LhKM.s 			page 239


 9339              	.LASF127:
 9340 26ff 63707573 		.ascii	"cpuss_interrupts_dw1_1_IRQn\000"
 9340      735F696E 
 9340      74657272 
 9340      75707473 
 9340      5F647731 
 9341              	.LASF244:
 9342 271b 5354414E 		.ascii	"STANDARD_PPU_STRUCT\000"
 9342      44415244 
 9342      5F505055 
 9342      5F535452 
 9342      55435400 
 9343              	.LASF0:
 9344 272f 756E7369 		.ascii	"unsigned int\000"
 9344      676E6564 
 9344      20696E74 
 9344      00
 9345              	.LASF536:
 9346 273c 43595F42 		.ascii	"CY_BLE_GAPP_CONNECTABLE_UNDIRECTED_ADV\000"
 9346      4C455F47 
 9346      4150505F 
 9346      434F4E4E 
 9346      45435441 
 9347              	.LASF641:
 9348 2763 63795F73 		.ascii	"cy_stc_ble_params_t\000"
 9348      74635F62 
 9348      6C655F70 
 9348      6172616D 
 9348      735F7400 
 9349              	.LASF396:
 9350 2777 43595F42 		.ascii	"CY_BLE_EVT_GAP_KEYPRESS_NOTIFICATION\000"
 9350      4C455F45 
 9350      56545F47 
 9350      41505F4B 
 9350      45595052 
 9351              	.LASF618:
 9352 279c 63795F73 		.ascii	"cy_stc_ble_gatts_att_value_t\000"
 9352      74635F62 
 9352      6C655F67 
 9352      61747473 
 9352      5F617474 
 9353              	.LASF605:
 9354 27b9 73726342 		.ascii	"srcBuff\000"
 9354      75666600 
 9355              	.LASF241:
 9356 27c1 5354414E 		.ascii	"STANDARD_SMPU_STRUCT_SLAVE_ATTR\000"
 9356      44415244 
 9356      5F534D50 
 9356      555F5354 
 9356      52554354 
 9357              	.LASF180:
 9358 27e1 74637077 		.ascii	"tcpwm_1_interrupts_22_IRQn\000"
 9358      6D5F315F 
 9358      696E7465 
 9358      72727570 
 9358      74735F32 
 9359              	.LASF573:
ARM GAS  C:\Users\salaz\AppData\Local\Temp\ccu2LhKM.s 			page 240


 9360 27fc 43595F42 		.ascii	"CY_BLE_CONN_STATE_CLIENT_INCL_DISCOVERING\000"
 9360      4C455F43 
 9360      4F4E4E5F 
 9360      53544154 
 9360      455F434C 
 9361              	.LASF296:
 9362 2826 544F4332 		.ascii	"TOC2_MAGIC_NUMBER\000"
 9362      5F4D4147 
 9362      49435F4E 
 9362      554D4245 
 9362      5200
 9363              	.LASF410:
 9364 2838 43595F42 		.ascii	"CY_BLE_EVT_GATT_CONNECT_IND\000"
 9364      4C455F45 
 9364      56545F47 
 9364      4154545F 
 9364      434F4E4E 
 9365              	.LASF35:
 9366 2854 4E766963 		.ascii	"NvicMux9_IRQn\000"
 9366      4D757839 
 9366      5F495251 
 9366      6E00
 9367              	.LASF702:
 9368 2862 63686172 		.ascii	"charLen\000"
 9368      4C656E00 
 9369              	.LASF299:
 9370 286a 544F4332 		.ascii	"TOC2_FIRST_USER_APP_ADDR\000"
 9370      5F464952 
 9370      53545F55 
 9370      5345525F 
 9370      4150505F 
 9371              	.LASF564:
 9372 2883 43595F42 		.ascii	"CY_BLE_ADV_STATE_STOPPED\000"
 9372      4C455F41 
 9372      44565F53 
 9372      54415445 
 9372      5F53544F 
 9373              	.LASF580:
 9374 289c 61707065 		.ascii	"appearanceCharHandle\000"
 9374      6172616E 
 9374      63654368 
 9374      61724861 
 9374      6E646C65 
 9375              	.LASF665:
 9376 28b1 43795F42 		.ascii	"Cy_BLE_GetConnectionState\000"
 9376      4C455F47 
 9376      6574436F 
 9376      6E6E6563 
 9376      74696F6E 
 9377              	.LASF616:
 9378 28cb 61747446 		.ascii	"attFormatValue\000"
 9378      6F726D61 
 9378      7456616C 
 9378      756500
 9379              	.LASF198:
 9380 28da 70617373 		.ascii	"pass_interrupt_sar_IRQn\000"
 9380      5F696E74 
ARM GAS  C:\Users\salaz\AppData\Local\Temp\ccu2LhKM.s 			page 241


 9380      65727275 
 9380      70745F73 
 9380      61725F49 
 9381              	.LASF712:
 9382 28f2 63795F62 		.ascii	"cy_ble_state\000"
 9382      6C655F73 
 9382      74617465 
 9382      00
 9383              	.LASF268:
 9384 28ff 464C4153 		.ascii	"FLASH_BOOT_VT_OFFSET\000"
 9384      485F424F 
 9384      4F545F56 
 9384      545F4F46 
 9384      46534554 
 9385              	.LASF568:
 9386 2914 63795F65 		.ascii	"cy_en_ble_adv_state_t\000"
 9386      6E5F626C 
 9386      655F6164 
 9386      765F7374 
 9386      6174655F 
 9387              	.LASF75:
 9388 292a 696F7373 		.ascii	"ioss_interrupt_gpio_IRQn\000"
 9388      5F696E74 
 9388      65727275 
 9388      70745F67 
 9388      70696F5F 
 9389              	.LASF47:
 9390 2943 4E766963 		.ascii	"NvicMux21_IRQn\000"
 9390      4D757832 
 9390      315F4952 
 9390      516E00
 9391              	.LASF378:
 9392 2952 43595F42 		.ascii	"CY_BLE_EVT_AES_CMAC_GEN_COMPLETE\000"
 9392      4C455F45 
 9392      56545F41 
 9392      45535F43 
 9392      4D41435F 
 9393              	.LASF644:
 9394 2973 64697363 		.ascii	"discoveryInfo\000"
 9394      6F766572 
 9394      79496E66 
 9394      6F00
 9395              	.LASF371:
 9396 2981 43595F42 		.ascii	"CY_BLE_EVT_AES_ENCRYPT_COMPLETE\000"
 9396      4C455F45 
 9396      56545F41 
 9396      45535F45 
 9396      4E435259 
 9397              	.LASF20:
 9398 29a1 52657365 		.ascii	"Reset_IRQn\000"
 9398      745F4952 
 9398      516E00
 9399              	.LASF269:
 9400 29ac 464C4153 		.ascii	"FLASH_BOOT_CORE_CPUID\000"
 9400      485F424F 
 9400      4F545F43 
 9400      4F52455F 
ARM GAS  C:\Users\salaz\AppData\Local\Temp\ccu2LhKM.s 			page 242


 9400      43505549 
 9401              	.LASF309:
 9402 29c2 52544F43 		.ascii	"RTOC2_MAGIC_NUMBER\000"
 9402      325F4D41 
 9402      4749435F 
 9402      4E554D42 
 9402      455200
 9403              	.LASF586:
 9404 29d5 66617374 		.ascii	"fastAdvIntervalMax\000"
 9404      41647649 
 9404      6E746572 
 9404      76616C4D 
 9404      617800
 9405              	.LASF330:
 9406 29e8 43595F42 		.ascii	"CY_BLE_EVT_INVALID\000"
 9406      4C455F45 
 9406      56545F49 
 9406      4E56414C 
 9406      494400
 9407              	.LASF197:
 9408 29fb 7564625F 		.ascii	"udb_interrupts_15_IRQn\000"
 9408      696E7465 
 9408      72727570 
 9408      74735F31 
 9408      355F4952 
 9409              	.LASF423:
 9410 2a12 43595F42 		.ascii	"CY_BLE_EVT_GATTS_WRITE_CMD_REQ\000"
 9410      4C455F45 
 9410      56545F47 
 9410      41545453 
 9410      5F575249 
 9411              	.LASF166:
 9412 2a31 74637077 		.ascii	"tcpwm_1_interrupts_8_IRQn\000"
 9412      6D5F315F 
 9412      696E7465 
 9412      72727570 
 9412      74735F38 
 9413              	.LASF480:
 9414 2a4b 43595F42 		.ascii	"CY_BLE_LL_PWR_LVL_NEG_20_DBM\000"
 9414      4C455F4C 
 9414      4C5F5057 
 9414      525F4C56 
 9414      4C5F4E45 
 9415              	.LASF36:
 9416 2a68 4E766963 		.ascii	"NvicMux10_IRQn\000"
 9416      4D757831 
 9416      305F4952 
 9416      516E00
 9417              	.LASF495:
 9418 2a77 43595F42 		.ascii	"CY_BLE_GAP_IOCAP_DISPLAY_ONLY\000"
 9418      4C455F47 
 9418      41505F49 
 9418      4F434150 
 9418      5F444953 
 9419              	.LASF380:
 9420 2a95 43595F42 		.ascii	"CY_BLE_EVT_SET_CE_LENGTH_COMPLETE\000"
 9420      4C455F45 
ARM GAS  C:\Users\salaz\AppData\Local\Temp\ccu2LhKM.s 			page 243


 9420      56545F53 
 9420      45545F43 
 9420      455F4C45 
 9421              	.LASF493:
 9422 2ab7 63795F73 		.ascii	"cy_stc_ble_rssi_info_t\000"
 9422      74635F62 
 9422      6C655F72 
 9422      7373695F 
 9422      696E666F 
 9423              	.LASF374:
 9424 2ace 43595F42 		.ascii	"CY_BLE_EVT_SET_SLAVE_LATENCY_MODE_COMPLETE\000"
 9424      4C455F45 
 9424      56545F53 
 9424      45545F53 
 9424      4C415645 
 9425              	.LASF623:
 9426 2af9 61747456 		.ascii	"attValue\000"
 9426      616C7565 
 9426      00
 9427              	.LASF105:
 9428 2b02 7363625F 		.ascii	"scb_4_interrupt_IRQn\000"
 9428      345F696E 
 9428      74657272 
 9428      7570745F 
 9428      4952516E 
 9429              	.LASF551:
 9430 2b17 61647644 		.ascii	"advDataLen\000"
 9430      6174614C 
 9430      656E00
 9431              	.LASF28:
 9432 2b22 4E766963 		.ascii	"NvicMux2_IRQn\000"
 9432      4D757832 
 9432      5F495251 
 9432      6E00
 9433              	.LASF708:
 9434 2b30 43795F42 		.ascii	"Cy_BLE_GetDeviceRole\000"
 9434      4C455F47 
 9434      65744465 
 9434      76696365 
 9434      526F6C65 
 9435              	.LASF576:
 9436 2b45 43595F42 		.ascii	"CY_BLE_CONN_STATE_CLIENT_DISCOVERED\000"
 9436      4C455F43 
 9436      4F4E4E5F 
 9436      53544154 
 9436      455F434C 
 9437              	.LASF678:
 9438 2b69 70617261 		.ascii	"param\000"
 9438      6D00
 9439              	.LASF74:
 9440 2b6f 696F7373 		.ascii	"ioss_interrupts_gpio_14_IRQn\000"
 9440      5F696E74 
 9440      65727275 
 9440      7074735F 
 9440      6770696F 
 9441              	.LASF123:
 9442 2b8c 63707573 		.ascii	"cpuss_interrupts_dw0_13_IRQn\000"
ARM GAS  C:\Users\salaz\AppData\Local\Temp\ccu2LhKM.s 			page 244


 9442      735F696E 
 9442      74657272 
 9442      75707473 
 9442      5F647730 
 9443              	.LASF161:
 9444 2ba9 74637077 		.ascii	"tcpwm_1_interrupts_3_IRQn\000"
 9444      6D5F315F 
 9444      696E7465 
 9444      72727570 
 9444      74735F33 
 9445              	.LASF2:
 9446 2bc3 6C6F6E67 		.ascii	"long double\000"
 9446      20646F75 
 9446      626C6500 
 9447              	.LASF113:
 9448 2bcf 63707573 		.ascii	"cpuss_interrupts_dw0_3_IRQn\000"
 9448      735F696E 
 9448      74657272 
 9448      75707473 
 9448      5F647730 
 9449              	.LASF80:
 9450 2beb 73727373 		.ascii	"srss_interrupt_mcwdt_1_IRQn\000"
 9450      5F696E74 
 9450      65727275 
 9450      70745F6D 
 9450      63776474 
 9451              	.LASF650:
 9452 2c07 67617474 		.ascii	"gattDB\000"
 9452      444200
 9453              	.LASF675:
 9454 2c0e 64657374 		.ascii	"destBuffer\000"
 9454      42756666 
 9454      657200
 9455              	.LASF683:
 9456 2c19 626C6F63 		.ascii	"blockSize\000"
 9456      6B53697A 
 9456      6500
 9457              	.LASF343:
 9458 2c23 43595F42 		.ascii	"CY_BLE_EVT_SET_DATA_LENGTH_COMPLETE\000"
 9458      4C455F45 
 9458      56545F53 
 9458      45545F44 
 9458      4154415F 
 9459              	.LASF425:
 9460 2c47 43595F42 		.ascii	"CY_BLE_EVT_GATTS_EXEC_WRITE_REQ\000"
 9460      4C455F45 
 9460      56545F47 
 9460      41545453 
 9460      5F455845 
 9461              	.LASF510:
 9462 2c67 43595F42 		.ascii	"CY_BLE_GAP_AUTH_ERROR_REPEATED_ATTEMPTS\000"
 9462      4C455F47 
 9462      41505F41 
 9462      5554485F 
 9462      4552524F 
 9463              	.LASF463:
 9464 2c8f 43595F42 		.ascii	"CY_BLE_ERROR_L2CAP_PSM_NOT_IN_RANGE\000"
ARM GAS  C:\Users\salaz\AppData\Local\Temp\ccu2LhKM.s 			page 245


 9464      4C455F45 
 9464      52524F52 
 9464      5F4C3243 
 9464      41505F50 
 9465              	.LASF116:
 9466 2cb3 63707573 		.ascii	"cpuss_interrupts_dw0_6_IRQn\000"
 9466      735F696E 
 9466      74657272 
 9466      75707473 
 9466      5F647730 
 9467              	.LASF266:
 9468 2ccf 464C4153 		.ascii	"FLASH_BOOT_ATTRIBUTE\000"
 9468      485F424F 
 9468      4F545F41 
 9468      54545249 
 9468      42555445 
 9469              	.LASF681:
 9470 2ce4 74537263 		.ascii	"tSrcPtr\000"
 9470      50747200 
 9471              	.LASF179:
 9472 2cec 74637077 		.ascii	"tcpwm_1_interrupts_21_IRQn\000"
 9472      6D5F315F 
 9472      696E7465 
 9472      72727570 
 9472      74735F32 
 9473              	.LASF159:
 9474 2d07 74637077 		.ascii	"tcpwm_1_interrupts_1_IRQn\000"
 9474      6D5F315F 
 9474      696E7465 
 9474      72727570 
 9474      74735F31 
 9475              	.LASF90:
 9476 2d21 63707573 		.ascii	"cpuss_interrupts_ipc_5_IRQn\000"
 9476      735F696E 
 9476      74657272 
 9476      75707473 
 9476      5F697063 
 9477              	.LASF460:
 9478 2d3d 43595F42 		.ascii	"CY_BLE_ERROR_L2CAP_PSM_ALREADY_REGISTERED\000"
 9478      4C455F45 
 9478      52524F52 
 9478      5F4C3243 
 9478      41505F50 
 9479              	.LASF66:
 9480 2d67 696F7373 		.ascii	"ioss_interrupts_gpio_6_IRQn\000"
 9480      5F696E74 
 9480      65727275 
 9480      7074735F 
 9480      6770696F 
 9481              	.LASF41:
 9482 2d83 4E766963 		.ascii	"NvicMux15_IRQn\000"
 9482      4D757831 
 9482      355F4952 
 9482      516E00
 9483              	.LASF200:
 9484 2d92 61756469 		.ascii	"audioss_interrupt_pdm_IRQn\000"
 9484      6F73735F 
ARM GAS  C:\Users\salaz\AppData\Local\Temp\ccu2LhKM.s 			page 246


 9484      696E7465 
 9484      72727570 
 9484      745F7064 
 9485              	.LASF350:
 9486 2dad 43595F42 		.ascii	"CY_BLE_EVT_SET_RPA_ENABLE_COMPLETE\000"
 9486      4C455F45 
 9486      56545F53 
 9486      45545F52 
 9486      50415F45 
 9487              	.LASF601:
 9488 2dd0 67617063 		.ascii	"gapcConnectionIntervalMax\000"
 9488      436F6E6E 
 9488      65637469 
 9488      6F6E496E 
 9488      74657276 
 9489              	.LASF84:
 9490 2dea 626C6573 		.ascii	"bless_interrupt_IRQn\000"
 9490      735F696E 
 9490      74657272 
 9490      7570745F 
 9490      4952516E 
 9491              	.LASF711:
 9492 2dff 63795F62 		.ascii	"cy_ble_sflashDeviceAddress\000"
 9492      6C655F73 
 9492      666C6173 
 9492      68446576 
 9492      69636541 
 9493              	.LASF394:
 9494 2e1a 43595F42 		.ascii	"CY_BLE_EVT_GAP_KEYINFO_EXCHNGE_CMPLT\000"
 9494      4C455F45 
 9494      56545F47 
 9494      41505F4B 
 9494      4559494E 
 9495              	.LASF656:
 9496 2e3f 63795F73 		.ascii	"cy_stc_ble_config_t\000"
 9496      74635F62 
 9496      6C655F63 
 9496      6F6E6669 
 9496      675F7400 
 9497              	.LASF4:
 9498 2e53 5F5F696E 		.ascii	"__int8_t\000"
 9498      74385F74 
 9498      00
 9499              	.LASF165:
 9500 2e5c 74637077 		.ascii	"tcpwm_1_interrupts_7_IRQn\000"
 9500      6D5F315F 
 9500      696E7465 
 9500      72727570 
 9500      74735F37 
 9501              	.LASF392:
 9502 2e76 43595F42 		.ascii	"CY_BLE_EVT_GAP_CONNECTION_UPDATE_COMPLETE\000"
 9502      4C455F45 
 9502      56545F47 
 9502      41505F43 
 9502      4F4E4E45 
 9503              	.LASF530:
 9504 2ea0 7363616E 		.ascii	"scanWindow\000"
ARM GAS  C:\Users\salaz\AppData\Local\Temp\ccu2LhKM.s 			page 247


 9504      57696E64 
 9504      6F7700
 9505              	.LASF439:
 9506 2eab 43595F42 		.ascii	"CY_BLE_EVT_L2CAP_CBFC_DISCONN_IND\000"
 9506      4C455F45 
 9506      56545F4C 
 9506      32434150 
 9506      5F434246 
 9507              	.LASF637:
 9508 2ecd 73656375 		.ascii	"securityIoCapability\000"
 9508      72697479 
 9508      496F4361 
 9508      70616269 
 9508      6C697479 
 9509              	.LASF744:
 9510 2ee2 43795F42 		.ascii	"Cy_BLE_ChangeAdLocalName\000"
 9510      4C455F43 
 9510      68616E67 
 9510      6541644C 
 9510      6F63616C 
 9511              	.LASF508:
 9512 2efb 43595F42 		.ascii	"CY_BLE_GAP_AUTH_ERROR_COMMAND_NOT_SUPPORTED\000"
 9512      4C455F47 
 9512      41505F41 
 9512      5554485F 
 9512      4552524F 
 9513              	.LASF311:
 9514 2f27 52544F43 		.ascii	"RTOC2_SMIF_CFG_STRUCT_ADDR\000"
 9514      325F534D 
 9514      49465F43 
 9514      46475F53 
 9514      54525543 
 9515              	.LASF652:
 9516 2f42 70617261 		.ascii	"params\000"
 9516      6D7300
 9517              	.LASF136:
 9518 2f49 63707573 		.ascii	"cpuss_interrupts_dw1_10_IRQn\000"
 9518      735F696E 
 9518      74657272 
 9518      75707473 
 9518      5F647731 
 9519              	.LASF342:
 9520 2f66 43595F42 		.ascii	"CY_BLE_EVT_LE_PING_AUTH_TIMEOUT\000"
 9520      4C455F45 
 9520      56545F4C 
 9520      455F5049 
 9520      4E475F41 
 9521              	.LASF660:
 9522 2f86 63757374 		.ascii	"customServHandle\000"
 9522      6F6D5365 
 9522      72764861 
 9522      6E646C65 
 9522      00
 9523              	.LASF482:
 9524 2f97 43595F42 		.ascii	"CY_BLE_LL_PWR_LVL_NEG_12_DBM\000"
 9524      4C455F4C 
 9524      4C5F5057 
ARM GAS  C:\Users\salaz\AppData\Local\Temp\ccu2LhKM.s 			page 248


 9524      525F4C56 
 9524      4C5F4E45 
 9525              	.LASF18:
 9526 2fb4 75696E74 		.ascii	"uint16_t\000"
 9526      31365F74 
 9526      00
 9527              	.LASF260:
 9528 2fbd 43505553 		.ascii	"CPUSS_TRIM_RAM_CTL_HALF_ULP\000"
 9528      535F5452 
 9528      494D5F52 
 9528      414D5F43 
 9528      544C5F48 
 9529              	.LASF203:
 9530 2fd9 7573625F 		.ascii	"usb_interrupt_hi_IRQn\000"
 9530      696E7465 
 9530      72727570 
 9530      745F6869 
 9530      5F495251 
 9531              	.LASF312:
 9532 2fef 52544F43 		.ascii	"RTOC2_FIRST_USER_APP_ADDR\000"
 9532      325F4649 
 9532      5253545F 
 9532      55534552 
 9532      5F415050 
 9533              	.LASF643:
 9534 3009 67617070 		.ascii	"gappAdvParams\000"
 9534      41647650 
 9534      6172616D 
 9534      7300
 9535              	.LASF403:
 9536 3017 43595F42 		.ascii	"CY_BLE_EVT_GAP_RESOLVE_DEVICE_COMPLETE\000"
 9536      4C455F45 
 9536      56545F47 
 9536      41505F52 
 9536      45534F4C 
 9537              	.LASF122:
 9538 303e 63707573 		.ascii	"cpuss_interrupts_dw0_12_IRQn\000"
 9538      735F696E 
 9538      74657272 
 9538      75707473 
 9538      5F647730 
 9539              	.LASF413:
 9540 305b 43595F42 		.ascii	"CY_BLE_EVT_GATTC_XCHNG_MTU_RSP\000"
 9540      4C455F45 
 9540      56545F47 
 9540      41545443 
 9540      5F584348 
 9541              	.LASF252:
 9542 307a 52455345 		.ascii	"RESERVED10\000"
 9542      52564544 
 9542      313000
 9543              	.LASF258:
 9544 3085 52455345 		.ascii	"RESERVED11\000"
 9544      52564544 
 9544      313100
 9545              	.LASF263:
 9546 3090 52455345 		.ascii	"RESERVED12\000"
ARM GAS  C:\Users\salaz\AppData\Local\Temp\ccu2LhKM.s 			page 249


 9546      52564544 
 9546      313200
 9547              	.LASF270:
 9548 309b 52455345 		.ascii	"RESERVED13\000"
 9548      52564544 
 9548      313300
 9549              	.LASF272:
 9550 30a6 52455345 		.ascii	"RESERVED14\000"
 9550      52564544 
 9550      313400
 9551              	.LASF275:
 9552 30b1 52455345 		.ascii	"RESERVED15\000"
 9552      52564544 
 9552      313500
 9553              	.LASF347:
 9554 30bc 43595F42 		.ascii	"CY_BLE_EVT_GET_PEER_RPA_COMPLETE\000"
 9554      4C455F45 
 9554      56545F47 
 9554      45545F50 
 9554      4545525F 
 9555              	.LASF293:
 9556 30dd 52455345 		.ascii	"RESERVED17\000"
 9556      52564544 
 9556      313700
 9557              	.LASF305:
 9558 30e8 52455345 		.ascii	"RESERVED18\000"
 9558      52564544 
 9558      313800
 9559              	.LASF318:
 9560 30f3 52455345 		.ascii	"RESERVED19\000"
 9560      52564544 
 9560      313900
 9561              	.LASF257:
 9562 30fe 43505553 		.ascii	"CPUSS_TRIM_RAM_CTL_LP\000"
 9562      535F5452 
 9562      494D5F52 
 9562      414D5F43 
 9562      544C5F4C 
 9563              	.LASF735:
 9564 3114 43795F42 		.ascii	"Cy_BLE_GAPP_EnterDiscoveryMode\000"
 9564      4C455F47 
 9564      4150505F 
 9564      456E7465 
 9564      72446973 
 9565              	.LASF51:
 9566 3133 4E766963 		.ascii	"NvicMux25_IRQn\000"
 9566      4D757832 
 9566      355F4952 
 9566      516E00
 9567              	.LASF537:
 9568 3142 43595F42 		.ascii	"CY_BLE_GAPP_CONNECTABLE_HIGH_DC_DIRECTED_ADV\000"
 9568      4C455F47 
 9568      4150505F 
 9568      434F4E4E 
 9568      45435441 
 9569              	.LASF102:
 9570 316f 7363625F 		.ascii	"scb_1_interrupt_IRQn\000"
ARM GAS  C:\Users\salaz\AppData\Local\Temp\ccu2LhKM.s 			page 250


 9570      315F696E 
 9570      74657272 
 9570      7570745F 
 9570      4952516E 
 9571              	.LASF577:
 9572 3184 63795F65 		.ascii	"cy_en_ble_conn_state_t\000"
 9572      6E5F626C 
 9572      655F636F 
 9572      6E6E5F73 
 9572      74617465 
 9573              	.LASF115:
 9574 319b 63707573 		.ascii	"cpuss_interrupts_dw0_5_IRQn\000"
 9574      735F696E 
 9574      74657272 
 9574      75707473 
 9574      5F647730 
 9575              	.LASF408:
 9576 31b7 43595F42 		.ascii	"CY_BLE_EVT_GAP_ADV_TX\000"
 9576      4C455F45 
 9576      56545F47 
 9576      41505F41 
 9576      44565F54 
 9577              	.LASF265:
 9578 31cd 464C4153 		.ascii	"FLASH_BOOT_APP_ID\000"
 9578      485F424F 
 9578      4F545F41 
 9578      50505F49 
 9578      4400
 9579              	.LASF158:
 9580 31df 74637077 		.ascii	"tcpwm_1_interrupts_0_IRQn\000"
 9580      6D5F315F 
 9580      696E7465 
 9580      72727570 
 9580      74735F30 
 9581              	.LASF567:
 9582 31f9 43595F42 		.ascii	"CY_BLE_ADV_STATE_STOP_INITIATED\000"
 9582      4C455F41 
 9582      44565F53 
 9582      54415445 
 9582      5F53544F 
 9583              	.LASF190:
 9584 3219 7564625F 		.ascii	"udb_interrupts_8_IRQn\000"
 9584      696E7465 
 9584      72727570 
 9584      74735F38 
 9584      5F495251 
 9585              	.LASF625:
 9586 322f 73657276 		.ascii	"serviceChangedHandle\000"
 9586      69636543 
 9586      68616E67 
 9586      65644861 
 9586      6E646C65 
 9587              	.LASF658:
 9588 3244 63757374 		.ascii	"customServCharDesc\000"
 9588      6F6D5365 
 9588      72764368 
 9588      61724465 
ARM GAS  C:\Users\salaz\AppData\Local\Temp\ccu2LhKM.s 			page 251


 9588      736300
 9589              	.LASF98:
 9590 3257 63707573 		.ascii	"cpuss_interrupts_ipc_13_IRQn\000"
 9590      735F696E 
 9590      74657272 
 9590      75707473 
 9590      5F697063 
 9591              	.LASF720:
 9592 3274 63795F62 		.ascii	"cy_ble_peerBonding\000"
 9592      6C655F70 
 9592      65657242 
 9592      6F6E6469 
 9592      6E6700
 9593              	.LASF196:
 9594 3287 7564625F 		.ascii	"udb_interrupts_14_IRQn\000"
 9594      696E7465 
 9594      72727570 
 9594      74735F31 
 9594      345F4952 
 9595              	.LASF705:
 9596 329e 6973436F 		.ascii	"isConnected\000"
 9596      6E6E6563 
 9596      74656400 
 9597              	.LASF640:
 9598 32aa 67617474 		.ascii	"gattDbIndexCount\000"
 9598      4462496E 
 9598      64657843 
 9598      6F756E74 
 9598      00
 9599              	.LASF738:
 9600 32bb 43795F42 		.ascii	"Cy_BLE_GetRssi\000"
 9600      4C455F47 
 9600      65745273 
 9600      736900
 9601              	.LASF730:
 9602 32ca 6D656D73 		.ascii	"memset\000"
 9602      657400
 9603              	.LASF146:
 9604 32d1 63707573 		.ascii	"cpuss_interrupts_cm0_cti_0_IRQn\000"
 9604      735F696E 
 9604      74657272 
 9604      75707473 
 9604      5F636D30 
 9605              	.LASF130:
 9606 32f1 63707573 		.ascii	"cpuss_interrupts_dw1_4_IRQn\000"
 9606      735F696E 
 9606      74657272 
 9606      75707473 
 9606      5F647731 
 9607              	.LASF276:
 9608 330d 544F4331 		.ascii	"TOC1_OBJECT_SIZE\000"
 9608      5F4F424A 
 9608      4543545F 
 9608      53495A45 
 9608      00
 9609              	.LASF666:
 9610 331e 43795F42 		.ascii	"Cy_BLE_GetNumOfActiveConn\000"
ARM GAS  C:\Users\salaz\AppData\Local\Temp\ccu2LhKM.s 			page 252


 9610      4C455F47 
 9610      65744E75 
 9610      6D4F6641 
 9610      63746976 
 9611              	.LASF142:
 9612 3338 63707573 		.ascii	"cpuss_interrupts_fault_0_IRQn\000"
 9612      735F696E 
 9612      74657272 
 9612      75707473 
 9612      5F666175 
 9613              	.LASF668:
 9614 3356 636F6E6E 		.ascii	"connHandle\000"
 9614      48616E64 
 9614      6C6500
 9615              	.LASF228:
 9616 3361 4353505F 		.ascii	"CSP_PANEL_ID\000"
 9616      50414E45 
 9616      4C5F4944 
 9616      00
 9617              	.LASF610:
 9618 336e 61637475 		.ascii	"actualLength\000"
 9618      616C4C65 
 9618      6E677468 
 9618      00
 9619              	.LASF400:
 9620 337b 43595F42 		.ascii	"CY_BLE_EVT_GAP_SMP_NEGOTIATED_AUTH_INFO\000"
 9620      4C455F45 
 9620      56545F47 
 9620      41505F53 
 9620      4D505F4E 
 9621              	.LASF607:
 9622 33a3 62756666 		.ascii	"buffLen\000"
 9622      4C656E00 
 9623              	.LASF288:
 9624 33ab 52544F43 		.ascii	"RTOC1_FHASH_OBJECTS\000"
 9624      315F4648 
 9624      4153485F 
 9624      4F424A45 
 9624      43545300 
 9625              	.LASF144:
 9626 33bf 63707573 		.ascii	"cpuss_interrupt_crypto_IRQn\000"
 9626      735F696E 
 9626      74657272 
 9626      7570745F 
 9626      63727970 
 9627              	.LASF67:
 9628 33db 696F7373 		.ascii	"ioss_interrupts_gpio_7_IRQn\000"
 9628      5F696E74 
 9628      65727275 
 9628      7074735F 
 9628      6770696F 
 9629              	.LASF671:
 9630 33f7 64657374 		.ascii	"dest\000"
 9630      00
 9631              	.LASF503:
 9632 33fc 43595F42 		.ascii	"CY_BLE_GAP_AUTH_ERROR_OOB_DATA_NOT_AVAILABLE\000"
 9632      4C455F47 
ARM GAS  C:\Users\salaz\AppData\Local\Temp\ccu2LhKM.s 			page 253


 9632      41505F41 
 9632      5554485F 
 9632      4552524F 
 9633              	.LASF497:
 9634 3429 43595F42 		.ascii	"CY_BLE_GAP_IOCAP_KEYBOARD_ONLY\000"
 9634      4C455F47 
 9634      41505F49 
 9634      4F434150 
 9634      5F4B4559 
 9635              	.LASF465:
 9636 3448 43595F42 		.ascii	"CY_BLE_ERROR_FLASH_WRITE_NOT_PERMITED\000"
 9636      4C455F45 
 9636      52524F52 
 9636      5F464C41 
 9636      53485F57 
 9637              	.LASF533:
 9638 346e 7363616E 		.ascii	"scanTo\000"
 9638      546F00
 9639              	.LASF541:
 9640 3475 63795F65 		.ascii	"cy_en_ble_gapp_adv_t\000"
 9640      6E5F626C 
 9640      655F6761 
 9640      70705F61 
 9640      64765F74 
 9641              	.LASF651:
 9642 348a 61757468 		.ascii	"authInfo\000"
 9642      496E666F 
 9642      00
 9643              	.LASF221:
 9644 3493 4449455F 		.ascii	"DIE_DAY\000"
 9644      44415900 
 9645              	.LASF419:
 9646 349b 43595F42 		.ascii	"CY_BLE_EVT_GATTC_READ_BLOB_RSP\000"
 9646      4C455F45 
 9646      56545F47 
 9646      41545443 
 9646      5F524541 
 9647              	.LASF684:
 9648 34ba 65786974 		.ascii	"exitFlag\000"
 9648      466C6167 
 9648      00
 9649              	.LASF687:
 9650 34c3 61706952 		.ascii	"apiResult\000"
 9650      6573756C 
 9650      7400
 9651              	.LASF150:
 9652 34cd 74637077 		.ascii	"tcpwm_0_interrupts_0_IRQn\000"
 9652      6D5F305F 
 9652      696E7465 
 9652      72727570 
 9652      74735F30 
 9653              	.LASF183:
 9654 34e7 7564625F 		.ascii	"udb_interrupts_1_IRQn\000"
 9654      696E7465 
 9654      72727570 
 9654      74735F31 
 9654      5F495251 
ARM GAS  C:\Users\salaz\AppData\Local\Temp\ccu2LhKM.s 			page 254


 9655              	.LASF167:
 9656 34fd 74637077 		.ascii	"tcpwm_1_interrupts_9_IRQn\000"
 9656      6D5F315F 
 9656      696E7465 
 9656      72727570 
 9656      74735F39 
 9657              	.LASF512:
 9658 3517 43595F42 		.ascii	"CY_BLE_GAP_AUTH_ERROR_DHKEY_CHECK_FAILED\000"
 9658      4C455F47 
 9658      41505F41 
 9658      5554485F 
 9658      4552524F 
 9659              	.LASF328:
 9660 3540 696E7472 		.ascii	"intrPriority\000"
 9660      5072696F 
 9660      72697479 
 9660      00
 9661              	.LASF432:
 9662 354d 43595F42 		.ascii	"CY_BLE_EVT_GATTS_READ_CHAR_VAL_ACCESS_REQ\000"
 9662      4C455F45 
 9662      56545F47 
 9662      41545453 
 9662      5F524541 
 9663              	.LASF732:
 9664 3577 6D656D63 		.ascii	"memcmp\000"
 9664      6D7000
 9665              	.LASF91:
 9666 357e 63707573 		.ascii	"cpuss_interrupts_ipc_6_IRQn\000"
 9666      735F696E 
 9666      74657272 
 9666      75707473 
 9666      5F697063 
 9667              	.LASF50:
 9668 359a 4E766963 		.ascii	"NvicMux24_IRQn\000"
 9668      4D757832 
 9668      345F4952 
 9668      516E00
 9669              	.LASF489:
 9670 35a9 63795F73 		.ascii	"cy_stc_ble_conn_handle_t\000"
 9670      74635F62 
 9670      6C655F63 
 9670      6F6E6E5F 
 9670      68616E64 
 9671              	.LASF721:
 9672 35c2 63795F62 		.ascii	"cy_ble_attValuesCccdMultiple\000"
 9672      6C655F61 
 9672      74745661 
 9672      6C756573 
 9672      43636364 
 9673              	.LASF388:
 9674 35df 43595F42 		.ascii	"CY_BLE_EVT_GAPP_ADVERTISEMENT_START_STOP\000"
 9674      4C455F45 
 9674      56545F47 
 9674      4150505F 
 9674      41445645 
 9675              	.LASF120:
 9676 3608 63707573 		.ascii	"cpuss_interrupts_dw0_10_IRQn\000"
ARM GAS  C:\Users\salaz\AppData\Local\Temp\ccu2LhKM.s 			page 255


 9676      735F696E 
 9676      74657272 
 9676      75707473 
 9676      5F647730 
 9677              	.LASF97:
 9678 3625 63707573 		.ascii	"cpuss_interrupts_ipc_12_IRQn\000"
 9678      735F696E 
 9678      74657272 
 9678      75707473 
 9678      5F697063 
 9679              	.LASF571:
 9680 3642 43595F42 		.ascii	"CY_BLE_CONN_STATE_CONNECTED\000"
 9680      4C455F43 
 9680      4F4E4E5F 
 9680      53544154 
 9680      455F434F 
 9681              	.LASF455:
 9682 365e 43595F42 		.ascii	"CY_BLE_ERROR_DEVICE_ALREADY_EXISTS\000"
 9682      4C455F45 
 9682      52524F52 
 9682      5F444556 
 9682      4943455F 
 9683              	.LASF703:
 9684 3681 43795F42 		.ascii	"Cy_BLE_GetLocalName\000"
 9684      4C455F47 
 9684      65744C6F 
 9684      63616C4E 
 9684      616D6500 
 9685              	.LASF107:
 9686 3695 7363625F 		.ascii	"scb_6_interrupt_IRQn\000"
 9686      365F696E 
 9686      74657272 
 9686      7570745F 
 9686      4952516E 
 9687              	.LASF611:
 9688 36aa 61747447 		.ascii	"attGenericVal\000"
 9688      656E6572 
 9688      69635661 
 9688      6C00
 9689              	.LASF670:
 9690 36b8 6E616D65 		.ascii	"name\000"
 9690      00
 9691              	.LASF699:
 9692 36bd 43795F42 		.ascii	"Cy_BLE_ServiceInit\000"
 9692      4C455F53 
 9692      65727669 
 9692      6365496E 
 9692      697400
 9693              	.LASF454:
 9694 36d0 43595F42 		.ascii	"CY_BLE_ERROR_NO_DEVICE_ENTITY\000"
 9694      4C455F45 
 9694      52524F52 
 9694      5F4E4F5F 
 9694      44455649 
 9695              	.LASF448:
 9696 36ee 43595F42 		.ascii	"CY_BLE_ERROR_INVALID_PARAMETER\000"
 9696      4C455F45 
ARM GAS  C:\Users\salaz\AppData\Local\Temp\ccu2LhKM.s 			page 256


 9696      52524F52 
 9696      5F494E56 
 9696      414C4944 
 9697              	.LASF31:
 9698 370d 4E766963 		.ascii	"NvicMux5_IRQn\000"
 9698      4D757835 
 9698      5F495251 
 9698      6E00
 9699              	.LASF340:
 9700 371b 43595F42 		.ascii	"CY_BLE_EVT_GET_CHANNEL_MAP_COMPLETE\000"
 9700      4C455F45 
 9700      56545F47 
 9700      45545F43 
 9700      48414E4E 
 9701              	.LASF521:
 9702 373f 73656375 		.ascii	"security\000"
 9702      72697479 
 9702      00
 9703              	.LASF459:
 9704 3748 43595F42 		.ascii	"CY_BLE_ERROR_L2CAP_PSM_WRONG_ENCODING\000"
 9704      4C455F45 
 9704      52524F52 
 9704      5F4C3243 
 9704      41505F50 
 9705              	.LASF210:
 9706 376e 53495F52 		.ascii	"SI_REVISION_ID\000"
 9706      45564953 
 9706      494F4E5F 
 9706      494400
 9707              	.LASF682:
 9708 377d 744F6666 		.ascii	"tOffset\000"
 9708      73657400 
 9709              	.LASF569:
 9710 3785 43595F42 		.ascii	"CY_BLE_CONN_STATE_DISCONNECTED\000"
 9710      4C455F43 
 9710      4F4E4E5F 
 9710      53544154 
 9710      455F4449 
 9711              	.LASF7:
 9712 37a4 73686F72 		.ascii	"short int\000"
 9712      7420696E 
 9712      7400
 9713              	.LASF375:
 9714 37ae 43595F42 		.ascii	"CY_BLE_EVT_STACK_SHUTDOWN_COMPLETE\000"
 9714      4C455F45 
 9714      56545F53 
 9714      5441434B 
 9714      5F534855 
 9715              	.LASF524:
 9716 37d1 61757468 		.ascii	"authErr\000"
 9716      45727200 
 9717              	.LASF366:
 9718 37d9 43595F42 		.ascii	"CY_BLE_EVT_GET_TX_PWR_COMPLETE\000"
 9718      4C455F45 
 9718      56545F47 
 9718      45545F54 
 9718      585F5057 
ARM GAS  C:\Users\salaz\AppData\Local\Temp\ccu2LhKM.s 			page 257


 9719              	.LASF659:
 9720 37f8 63795F73 		.ascii	"cy_stc_ble_customs_info_t\000"
 9720      74635F62 
 9720      6C655F63 
 9720      7573746F 
 9720      6D735F69 
 9721              	.LASF614:
 9722 3812 61747447 		.ascii	"attGenericValLen\000"
 9722      656E6572 
 9722      69635661 
 9722      6C4C656E 
 9722      00
 9723              	.LASF277:
 9724 3823 544F4331 		.ascii	"TOC1_MAGIC_NUMBER\000"
 9724      5F4D4147 
 9724      49435F4E 
 9724      554D4245 
 9724      5200
 9725              	.LASF77:
 9726 3835 6C70636F 		.ascii	"lpcomp_interrupt_IRQn\000"
 9726      6D705F69 
 9726      6E746572 
 9726      72757074 
 9726      5F495251 
 9727              	.LASF225:
 9728 384b 5341525F 		.ascii	"SAR_TEMP_MULTIPLIER\000"
 9728      54454D50 
 9728      5F4D554C 
 9728      5449504C 
 9728      49455200 
 9729              	.LASF597:
 9730 385f 736C6F77 		.ascii	"slowScanInterval\000"
 9730      5363616E 
 9730      496E7465 
 9730      7276616C 
 9730      00
 9731              	.LASF286:
 9732 3870 52544F43 		.ascii	"RTOC1_OBJECT_SIZE\000"
 9732      315F4F42 
 9732      4A454354 
 9732      5F53495A 
 9732      4500
 9733              	.LASF554:
 9734 3882 7363616E 		.ascii	"scanRspDataLen\000"
 9734      52737044 
 9734      6174614C 
 9734      656E00
 9735              	.LASF535:
 9736 3891 63795F73 		.ascii	"cy_stc_ble_gapc_disc_info_t\000"
 9736      74635F62 
 9736      6C655F67 
 9736      6170635F 
 9736      64697363 
 9737              	.LASF685:
 9738 38ad 43795F42 		.ascii	"Cy_BLE_StoreAppData\000"
 9738      4C455F53 
 9738      746F7265 
ARM GAS  C:\Users\salaz\AppData\Local\Temp\ccu2LhKM.s 			page 258


 9738      41707044 
 9738      61746100 
 9739              	.LASF706:
 9740 38c1 43795F42 		.ascii	"Cy_BLE_IsDevicePaired\000"
 9740      4C455F49 
 9740      73446576 
 9740      69636550 
 9740      61697265 
 9741              	.LASF38:
 9742 38d7 4E766963 		.ascii	"NvicMux12_IRQn\000"
 9742      4D757831 
 9742      325F4952 
 9742      516E00
 9743              	.LASF240:
 9744 38e6 5354414E 		.ascii	"STANDARD_SMPU_STRUCT_SLAVE_ADDR\000"
 9744      44415244 
 9744      5F534D50 
 9744      555F5354 
 9744      52554354 
 9745              	.LASF93:
 9746 3906 63707573 		.ascii	"cpuss_interrupts_ipc_8_IRQn\000"
 9746      735F696E 
 9746      74657272 
 9746      75707473 
 9746      5F697063 
 9747              	.LASF69:
 9748 3922 696F7373 		.ascii	"ioss_interrupts_gpio_9_IRQn\000"
 9748      5F696E74 
 9748      65727275 
 9748      7074735F 
 9748      6770696F 
 9749              	.LASF560:
 9750 393e 43595F42 		.ascii	"CY_BLE_STATE_STOPPED\000"
 9750      4C455F53 
 9750      54415445 
 9750      5F53544F 
 9750      50504544 
 9751              	.LASF609:
 9752 3953 63795F73 		.ascii	"cy_stc_ble_app_flash_param_t\000"
 9752      74635F62 
 9752      6C655F61 
 9752      70705F66 
 9752      6C617368 
 9753              	.LASF44:
 9754 3970 4E766963 		.ascii	"NvicMux18_IRQn\000"
 9754      4D757831 
 9754      385F4952 
 9754      516E00
 9755              	.LASF149:
 9756 397f 63707573 		.ascii	"cpuss_interrupts_cm4_cti_1_IRQn\000"
 9756      735F696E 
 9756      74657272 
 9756      75707473 
 9756      5F636D34 
 9757              	.LASF242:
 9758 399f 5354414E 		.ascii	"STANDARD_SMPU_STRUCT_MASTER_ATTR\000"
 9758      44415244 
ARM GAS  C:\Users\salaz\AppData\Local\Temp\ccu2LhKM.s 			page 259


 9758      5F534D50 
 9758      555F5354 
 9758      52554354 
 9759              	.LASF313:
 9760 39c0 52544F43 		.ascii	"RTOC2_FIRST_USER_APP_FORMAT\000"
 9760      325F4649 
 9760      5253545F 
 9760      55534552 
 9760      5F415050 
 9761              	.LASF287:
 9762 39dc 52544F43 		.ascii	"RTOC1_MAGIC_NUMBER\000"
 9762      315F4D41 
 9762      4749435F 
 9762      4E554D42 
 9762      455200
 9763              	.LASF654:
 9764 39ef 64657669 		.ascii	"deviceAddress\000"
 9764      63654164 
 9764      64726573 
 9764      7300
 9765              	.LASF430:
 9766 39fd 43595F42 		.ascii	"CY_BLE_EVT_GATTS_DATA_SIGNED_CMD_REQ\000"
 9766      4C455F45 
 9766      56545F47 
 9766      41545453 
 9766      5F444154 
 9767              	.LASF647:
 9768 3a22 67617474 		.ascii	"gatts\000"
 9768      7300
 9769              	.LASF389:
 9770 3a28 43595F42 		.ascii	"CY_BLE_EVT_GAP_DEVICE_CONNECTED\000"
 9770      4C455F45 
 9770      56545F47 
 9770      41505F44 
 9770      45564943 
 9771              	.LASF737:
 9772 3a48 43795F42 		.ascii	"Cy_BLE_GAP_GetPeerBdAddr\000"
 9772      4C455F47 
 9772      41505F47 
 9772      65745065 
 9772      65724264 
 9773              	.LASF377:
 9774 3a61 43595F42 		.ascii	"CY_BLE_EVT_RADIO_VOLTAGE_LEVEL\000"
 9774      4C455F45 
 9774      56545F52 
 9774      4144494F 
 9774      5F564F4C 
 9775              	.LASF604:
 9776 3a80 63795F73 		.ascii	"cy_stc_ble_gapc_scan_params_t\000"
 9776      74635F62 
 9776      6C655F67 
 9776      6170635F 
 9776      7363616E 
 9777              	.LASF716:
 9778 3a9e 63795F62 		.ascii	"cy_ble_connState\000"
 9778      6C655F63 
 9778      6F6E6E53 
ARM GAS  C:\Users\salaz\AppData\Local\Temp\ccu2LhKM.s 			page 260


 9778      74617465 
 9778      00
 9779              	.LASF70:
 9780 3aaf 696F7373 		.ascii	"ioss_interrupts_gpio_10_IRQn\000"
 9780      5F696E74 
 9780      65727275 
 9780      7074735F 
 9780      6770696F 
 9781              	.LASF632:
 9782 3acc 63636364 		.ascii	"cccdCount\000"
 9782      436F756E 
 9782      7400
 9783              	.LASF457:
 9784 3ad6 43595F42 		.ascii	"CY_BLE_ERROR_GAP_ROLE\000"
 9784      4C455F45 
 9784      52524F52 
 9784      5F474150 
 9784      5F524F4C 
 9785              	.LASF348:
 9786 3aec 43595F42 		.ascii	"CY_BLE_EVT_GET_LOCAL_RPA_COMPLETE\000"
 9786      4C455F45 
 9786      56545F47 
 9786      45545F4C 
 9786      4F43414C 
 9787              	.LASF233:
 9788 3b0e 424C455F 		.ascii	"BLE_DEVICE_ADDRESS\000"
 9788      44455649 
 9788      43455F41 
 9788      44445245 
 9788      535300
 9789              	.LASF139:
 9790 3b21 63707573 		.ascii	"cpuss_interrupts_dw1_13_IRQn\000"
 9790      735F696E 
 9790      74657272 
 9790      75707473 
 9790      5F647731 
 9791              	.LASF279:
 9792 3b3e 544F4331 		.ascii	"TOC1_SFLASH_GENERAL_TRIM_ADDR\000"
 9792      5F53464C 
 9792      4153485F 
 9792      47454E45 
 9792      52414C5F 
 9793              	.LASF477:
 9794 3b5c 62644164 		.ascii	"bdAddr\000"
 9794      647200
 9795              	.LASF688:
 9796 3b63 73746163 		.ascii	"stackFlashParam\000"
 9796      6B466C61 
 9796      73685061 
 9796      72616D00 
 9797              	.LASF30:
 9798 3b73 4E766963 		.ascii	"NvicMux4_IRQn\000"
 9798      4D757834 
 9798      5F495251 
 9798      6E00
 9799              	.LASF321:
 9800 3b81 53464C41 		.ascii	"SFLASH_Type\000"
ARM GAS  C:\Users\salaz\AppData\Local\Temp\ccu2LhKM.s 			page 261


 9800      53485F54 
 9800      79706500 
 9801              	.LASF628:
 9802 3b8d 63795F62 		.ascii	"cy_ble_callback_t\000"
 9802      6C655F63 
 9802      616C6C62 
 9802      61636B5F 
 9802      7400
 9803              	.LASF469:
 9804 3b9f 43595F42 		.ascii	"CY_BLE_ERROR_GATT_DB_INVALID_ATTR_HANDLE\000"
 9804      4C455F45 
 9804      52524F52 
 9804      5F474154 
 9804      545F4442 
 9805              	.LASF585:
 9806 3bc8 66617374 		.ascii	"fastAdvIntervalMin\000"
 9806      41647649 
 9806      6E746572 
 9806      76616C4D 
 9806      696E00
 9807              	.LASF125:
 9808 3bdb 63707573 		.ascii	"cpuss_interrupts_dw0_15_IRQn\000"
 9808      735F696E 
 9808      74657272 
 9808      75707473 
 9808      5F647730 
 9809              	.LASF86:
 9810 3bf8 63707573 		.ascii	"cpuss_interrupts_ipc_1_IRQn\000"
 9810      735F696E 
 9810      74657272 
 9810      75707473 
 9810      5F697063 
 9811              	.LASF154:
 9812 3c14 74637077 		.ascii	"tcpwm_0_interrupts_4_IRQn\000"
 9812      6D5F305F 
 9812      696E7465 
 9812      72727570 
 9812      74735F34 
 9813              	.LASF731:
 9814 3c2e 6D656D63 		.ascii	"memcpy\000"
 9814      707900
 9815              	.LASF62:
 9816 3c35 696F7373 		.ascii	"ioss_interrupts_gpio_2_IRQn\000"
 9816      5F696E74 
 9816      65727275 
 9816      7074735F 
 9816      6770696F 
 9817              	.LASF593:
 9818 3c51 66617374 		.ascii	"fastScanInterval\000"
 9818      5363616E 
 9818      496E7465 
 9818      7276616C 
 9818      00
 9819              	.LASF176:
 9820 3c62 74637077 		.ascii	"tcpwm_1_interrupts_18_IRQn\000"
 9820      6D5F315F 
 9820      696E7465 
ARM GAS  C:\Users\salaz\AppData\Local\Temp\ccu2LhKM.s 			page 262


 9820      72727570 
 9820      74735F31 
 9821              	.LASF674:
 9822 3c7d 62797465 		.ascii	"byteCounter\000"
 9822      436F756E 
 9822      74657200 
 9823              	.LASF722:
 9824 3c89 63795F62 		.ascii	"cy_ble_configPtr\000"
 9824      6C655F63 
 9824      6F6E6669 
 9824      67507472 
 9824      00
 9825              	.LASF697:
 9826 3c9a 61647665 		.ascii	"advertisingParamIndex\000"
 9826      72746973 
 9826      696E6750 
 9826      6172616D 
 9826      496E6465 
 9827              	.LASF638:
 9828 3cb0 73656375 		.ascii	"securityPairingMethod\000"
 9828      72697479 
 9828      50616972 
 9828      696E674D 
 9828      6574686F 
 9829              	.LASF208:
 9830 3cc6 63795F65 		.ascii	"cy_en_intr_t\000"
 9830      6E5F696E 
 9830      74725F74 
 9830      00
 9831              	.LASF517:
 9832 3cd3 43595F42 		.ascii	"CY_BLE_GAP_AUTH_ERROR_LINK_DISCONNECTED\000"
 9832      4C455F47 
 9832      41505F41 
 9832      5554485F 
 9832      4552524F 
 9833              	.LASF104:
 9834 3cfb 7363625F 		.ascii	"scb_3_interrupt_IRQn\000"
 9834      335F696E 
 9834      74657272 
 9834      7570745F 
 9834      4952516E 
 9835              	.LASF54:
 9836 3d10 4E766963 		.ascii	"NvicMux28_IRQn\000"
 9836      4D757832 
 9836      385F4952 
 9836      516E00
 9837              	.LASF346:
 9838 3d1f 43595F42 		.ascii	"CY_BLE_EVT_DATA_LENGTH_CHANGE\000"
 9838      4C455F45 
 9838      56545F44 
 9838      4154415F 
 9838      4C454E47 
 9839              	.LASF598:
 9840 3d3d 736C6F77 		.ascii	"slowScanWindow\000"
 9840      5363616E 
 9840      57696E64 
 9840      6F7700
ARM GAS  C:\Users\salaz\AppData\Local\Temp\ccu2LhKM.s 			page 263


 9841              	.LASF591:
 9842 3d4c 736C6F77 		.ascii	"slowAdvTimeOut\000"
 9842      41647654 
 9842      696D654F 
 9842      757400
 9843              	.LASF310:
 9844 3d5b 52544F43 		.ascii	"RTOC2_KEY_BLOCK_ADDR\000"
 9844      325F4B45 
 9844      595F424C 
 9844      4F434B5F 
 9844      41444452 
 9845              	.LASF192:
 9846 3d70 7564625F 		.ascii	"udb_interrupts_10_IRQn\000"
 9846      696E7465 
 9846      72727570 
 9846      74735F31 
 9846      305F4952 
 9847              	.LASF76:
 9848 3d87 696F7373 		.ascii	"ioss_interrupt_vdd_IRQn\000"
 9848      5F696E74 
 9848      65727275 
 9848      70745F76 
 9848      64645F49 
 9849              	.LASF613:
 9850 3d9f 6D617841 		.ascii	"maxAttrLength\000"
 9850      7474724C 
 9850      656E6774 
 9850      6800
 9851              	.LASF13:
 9852 3dad 6C6F6E67 		.ascii	"long long unsigned int\000"
 9852      206C6F6E 
 9852      6720756E 
 9852      7369676E 
 9852      65642069 
 9853              	.LASF364:
 9854 3dc4 43595F42 		.ascii	"CY_BLE_EVT_GET_DEVICE_ADDR_COMPLETE\000"
 9854      4C455F45 
 9854      56545F47 
 9854      45545F44 
 9854      45564943 
 9855              	.LASF253:
 9856 3de8 52414449 		.ascii	"RADIO_LDO_TRIMS\000"
 9856      4F5F4C44 
 9856      4F5F5452 
 9856      494D5300 
 9857              	.LASF694:
 9858 3df8 696E7661 		.ascii	"invalidBdAddr\000"
 9858      6C696442 
 9858      64416464 
 9858      7200
 9859              	.LASF43:
 9860 3e06 4E766963 		.ascii	"NvicMux17_IRQn\000"
 9860      4D757831 
 9860      375F4952 
 9860      516E00
 9861              	.LASF19:
 9862 3e15 75696E74 		.ascii	"uint32_t\000"
ARM GAS  C:\Users\salaz\AppData\Local\Temp\ccu2LhKM.s 			page 264


 9862      33325F74 
 9862      00
 9863              	.LASF461:
 9864 3e1e 43595F42 		.ascii	"CY_BLE_ERROR_L2CAP_PSM_NOT_REGISTERED\000"
 9864      4C455F45 
 9864      52524F52 
 9864      5F4C3243 
 9864      41505F50 
 9865              	.LASF680:
 9866 3e44 744C656E 		.ascii	"tLength\000"
 9866      67746800 
 9867              	.LASF219:
 9868 3e4c 4449455F 		.ascii	"DIE_SORT\000"
 9868      534F5254 
 9868      00
 9869              	.LASF306:
 9870 3e55 544F4332 		.ascii	"TOC2_FLAGS\000"
 9870      5F464C41 
 9870      475300
 9871              	.LASF261:
 9872 3e60 43505553 		.ascii	"CPUSS_TRIM_ROM_CTL_HALF_LP\000"
 9872      535F5452 
 9872      494D5F52 
 9872      4F4D5F43 
 9872      544C5F48 
 9873              	.LASF645:
 9874 3e7b 67617063 		.ascii	"gapcScanParams\000"
 9874      5363616E 
 9874      50617261 
 9874      6D7300
 9875              	.LASF133:
 9876 3e8a 63707573 		.ascii	"cpuss_interrupts_dw1_7_IRQn\000"
 9876      735F696E 
 9876      74657272 
 9876      75707473 
 9876      5F647731 
 9877              	.LASF251:
 9878 3ea6 5057525F 		.ascii	"PWR_TRIM_WAKE_CTL\000"
 9878      5452494D 
 9878      5F57414B 
 9878      455F4354 
 9878      4C00
 9879              	.LASF627:
 9880 3eb8 63795F73 		.ascii	"cy_stc_ble_gatts_t\000"
 9880      74635F62 
 9880      6C655F67 
 9880      61747473 
 9880      5F7400
 9881              	.LASF283:
 9882 3ecb 544F4331 		.ascii	"TOC1_BOOT_PROTECTION_ADDR\000"
 9882      5F424F4F 
 9882      545F5052 
 9882      4F544543 
 9882      54494F4E 
 9883              	.LASF169:
 9884 3ee5 74637077 		.ascii	"tcpwm_1_interrupts_11_IRQn\000"
 9884      6D5F315F 
ARM GAS  C:\Users\salaz\AppData\Local\Temp\ccu2LhKM.s 			page 265


 9884      696E7465 
 9884      72727570 
 9884      74735F31 
 9885              	.LASF186:
 9886 3f00 7564625F 		.ascii	"udb_interrupts_4_IRQn\000"
 9886      696E7465 
 9886      72727570 
 9886      74735F34 
 9886      5F495251 
 9887              	.LASF138:
 9888 3f16 63707573 		.ascii	"cpuss_interrupts_dw1_12_IRQn\000"
 9888      735F696E 
 9888      74657272 
 9888      75707473 
 9888      5F647731 
 9889              	.LASF9:
 9890 3f33 73686F72 		.ascii	"short unsigned int\000"
 9890      7420756E 
 9890      7369676E 
 9890      65642069 
 9890      6E7400
 9891              	.LASF298:
 9892 3f46 544F4332 		.ascii	"TOC2_SMIF_CFG_STRUCT_ADDR\000"
 9892      5F534D49 
 9892      465F4346 
 9892      475F5354 
 9892      52554354 
 9893              	.LASF395:
 9894 3f60 43595F42 		.ascii	"CY_BLE_EVT_GAP_NUMERIC_COMPARISON_REQUEST\000"
 9894      4C455F45 
 9894      56545F47 
 9894      41505F4E 
 9894      554D4552 
 9895              	.LASF602:
 9896 3f8a 67617063 		.ascii	"gapcConnectionSlaveLatency\000"
 9896      436F6E6E 
 9896      65637469 
 9896      6F6E536C 
 9896      6176654C 
 9897              	.LASF255:
 9898 3fa5 43505553 		.ascii	"CPUSS_TRIM_RAM_CTL_ULP\000"
 9898      535F5452 
 9898      494D5F52 
 9898      414D5F43 
 9898      544C5F55 
 9899              	.LASF449:
 9900 3fbc 43595F42 		.ascii	"CY_BLE_ERROR_INVALID_OPERATION\000"
 9900      4C455F45 
 9900      52524F52 
 9900      5F494E56 
 9900      414C4944 
 9901              	.LASF600:
 9902 3fdb 67617063 		.ascii	"gapcConnectionIntervalMin\000"
 9902      436F6E6E 
 9902      65637469 
 9902      6F6E496E 
 9902      74657276 
ARM GAS  C:\Users\salaz\AppData\Local\Temp\ccu2LhKM.s 			page 266


 9903              	.LASF736:
 9904 3ff5 43795F42 		.ascii	"Cy_BLE_GAPP_ExitDiscoveryMode\000"
 9904      4C455F47 
 9904      4150505F 
 9904      45786974 
 9904      44697363 
 9905              	.LASF111:
 9906 4013 63707573 		.ascii	"cpuss_interrupts_dw0_1_IRQn\000"
 9906      735F696E 
 9906      74657272 
 9906      75707473 
 9906      5F647730 
 9907              	.LASF405:
 9908 402f 43595F42 		.ascii	"CY_BLE_EVT_GAP_CREATE_CONN_CANCEL_COMPLETE\000"
 9908      4C455F45 
 9908      56545F47 
 9908      41505F43 
 9908      52454154 
 9909              	.LASF390:
 9910 405a 43595F42 		.ascii	"CY_BLE_EVT_GAP_DEVICE_DISCONNECTED\000"
 9910      4C455F45 
 9910      56545F47 
 9910      41505F44 
 9910      45564943 
 9911              	.LASF446:
 9912 407d 43595F42 		.ascii	"CY_BLE_SUCCESS\000"
 9912      4C455F53 
 9912      55434345 
 9912      535300
 9913              	.LASF546:
 9914 408c 64697265 		.ascii	"directAddr\000"
 9914      63744164 
 9914      647200
 9915              	.LASF494:
 9916 4097 63795F62 		.ascii	"cy_ble_gatt_db_attr_handle_t\000"
 9916      6C655F67 
 9916      6174745F 
 9916      64625F61 
 9916      7474725F 
 9917              	.LASF376:
 9918 40b4 43595F42 		.ascii	"CY_BLE_EVT_RADIO_TEMPERATURE\000"
 9918      4C455F45 
 9918      56545F52 
 9918      4144494F 
 9918      5F54454D 
 9919              	.LASF85:
 9920 40d1 63707573 		.ascii	"cpuss_interrupts_ipc_0_IRQn\000"
 9920      735F696E 
 9920      74657272 
 9920      75707473 
 9920      5F697063 
 9921              	.LASF153:
 9922 40ed 74637077 		.ascii	"tcpwm_0_interrupts_3_IRQn\000"
 9922      6D5F305F 
 9922      696E7465 
 9922      72727570 
 9922      74735F33 
ARM GAS  C:\Users\salaz\AppData\Local\Temp\ccu2LhKM.s 			page 267


 9923              	.LASF407:
 9924 4107 43595F42 		.ascii	"CY_BLE_EVT_GAPP_UPDATE_ADV_SCAN_DATA_COMPLETE\000"
 9924      4C455F45 
 9924      56545F47 
 9924      4150505F 
 9924      55504441 
 9925              	.LASF61:
 9926 4135 696F7373 		.ascii	"ioss_interrupts_gpio_1_IRQn\000"
 9926      5F696E74 
 9926      65727275 
 9926      7074735F 
 9926      6770696F 
 9927              	.LASF387:
 9928 4151 43595F42 		.ascii	"CY_BLE_EVT_GAP_AUTH_FAILED\000"
 9928      4C455F45 
 9928      56545F47 
 9928      41505F41 
 9928      5554485F 
 9929              	.LASF284:
 9930 416c 52455345 		.ascii	"RESERVED16\000"
 9930      52564544 
 9930      313600
 9931              	.LASF547:
 9932 4177 61647643 		.ascii	"advChannelMap\000"
 9932      68616E6E 
 9932      656C4D61 
 9932      7000
 9933              	.LASF626:
 9934 4185 63636364 		.ascii	"cccdHandle\000"
 9934      48616E64 
 9934      6C6500
 9935              	.LASF336:
 9936 4190 43595F42 		.ascii	"CY_BLE_EVT_FLASH_CORRUPT\000"
 9936      4C455F45 
 9936      56545F46 
 9936      4C415348 
 9936      5F434F52 
 9937              	.LASF118:
 9938 41a9 63707573 		.ascii	"cpuss_interrupts_dw0_8_IRQn\000"
 9938      735F696E 
 9938      74657272 
 9938      75707473 
 9938      5F647730 
 9939              	.LASF53:
 9940 41c5 4E766963 		.ascii	"NvicMux27_IRQn\000"
 9940      4D757832 
 9940      375F4952 
 9940      516E00
 9941              	.LASF291:
 9942 41d4 52544F43 		.ascii	"RTOC1_FB_OBJECT_ADDR\000"
 9942      315F4642 
 9942      5F4F424A 
 9942      4543545F 
 9942      41444452 
 9943              	.LASF479:
 9944 41e9 63795F73 		.ascii	"cy_stc_ble_bd_addr_t\000"
 9944      74635F62 
ARM GAS  C:\Users\salaz\AppData\Local\Temp\ccu2LhKM.s 			page 268


 9944      6C655F62 
 9944      645F6164 
 9944      64725F74 
 9945              	.LASF696:
 9946 41fe 61647665 		.ascii	"advertisingIntervalType\000"
 9946      72746973 
 9946      696E6749 
 9946      6E746572 
 9946      76616C54 
 9947              	.LASF606:
 9948 4216 64657374 		.ascii	"destAddr\000"
 9948      41646472 
 9948      00
 9949              	.LASF126:
 9950 421f 63707573 		.ascii	"cpuss_interrupts_dw1_0_IRQn\000"
 9950      735F696E 
 9950      74657272 
 9950      75707473 
 9950      5F647731 
 9951              	.LASF588:
 9952 423b 736C6F77 		.ascii	"slowAdvEnable\000"
 9952      41647645 
 9952      6E61626C 
 9952      6500
 9953              	.LASF488:
 9954 4249 61747449 		.ascii	"attId\000"
 9954      6400
 9955              	.LASF673:
 9956 424f 61644C65 		.ascii	"adLength\000"
 9956      6E677468 
 9956      00
 9957              	.LASF532:
 9958 4258 7363616E 		.ascii	"scanFilterPolicy\000"
 9958      46696C74 
 9958      6572506F 
 9958      6C696379 
 9958      00
 9959              	.LASF507:
 9960 4269 43595F42 		.ascii	"CY_BLE_GAP_AUTH_ERROR_INSUFFICIENT_ENCRYPTION_KEY_S"
 9960      4C455F47 
 9960      41505F41 
 9960      5554485F 
 9960      4552524F 
 9961 429c 495A4500 		.ascii	"IZE\000"
 9962              	.LASF155:
 9963 42a0 74637077 		.ascii	"tcpwm_0_interrupts_5_IRQn\000"
 9963      6D5F305F 
 9963      696E7465 
 9963      72727570 
 9963      74735F35 
 9964              	.LASF612:
 9965 42ba 63795F73 		.ascii	"cy_stc_ble_gatts_att_gen_val_len_t\000"
 9965      74635F62 
 9965      6C655F67 
 9965      61747473 
 9965      5F617474 
 9966              	.LASF78:
ARM GAS  C:\Users\salaz\AppData\Local\Temp\ccu2LhKM.s 			page 269


 9967 42dd 7363625F 		.ascii	"scb_8_interrupt_IRQn\000"
 9967      385F696E 
 9967      74657272 
 9967      7570745F 
 9967      4952516E 
 9968              	.LASF278:
 9969 42f2 544F4331 		.ascii	"TOC1_FHASH_OBJECTS\000"
 9969      5F464841 
 9969      53485F4F 
 9969      424A4543 
 9969      545300
 9970              	.LASF22:
 9971 4305 48617264 		.ascii	"HardFault_IRQn\000"
 9971      4661756C 
 9971      745F4952 
 9971      516E00
 9972              	.LASF385:
 9973 4314 43595F42 		.ascii	"CY_BLE_EVT_GAP_PASSKEY_DISPLAY_REQUEST\000"
 9973      4C455F45 
 9973      56545F47 
 9973      41505F50 
 9973      4153534B 
 9974              	.LASF367:
 9975 433b 43595F42 		.ascii	"CY_BLE_EVT_SET_TX_PWR_COMPLETE\000"
 9975      4C455F45 
 9975      56545F53 
 9975      45545F54 
 9975      585F5057 
 9976              	.LASF217:
 9977 435a 4449455F 		.ascii	"DIE_X\000"
 9977      5800
 9978              	.LASF218:
 9979 4360 4449455F 		.ascii	"DIE_Y\000"
 9979      5900
 9980              	.LASF550:
 9981 4366 61647644 		.ascii	"advData\000"
 9981      61746100 
 9982              	.LASF34:
 9983 436e 4E766963 		.ascii	"NvicMux8_IRQn\000"
 9983      4D757838 
 9983      5F495251 
 9983      6E00
 9984              	.LASF355:
 9985 437c 43595F42 		.ascii	"CY_BLE_EVT_REMOVE_DEVICE_FROM_WHITE_LIST_COMPLETE\000"
 9985      4C455F45 
 9985      56545F52 
 9985      454D4F56 
 9985      455F4445 
 9986              	.LASF352:
 9987 43ae 43595F42 		.ascii	"CY_BLE_EVT_ADD_DEVICE_TO_RPA_LIST_COMPLETE\000"
 9987      4C455F45 
 9987      56545F41 
 9987      44445F44 
 9987      45564943 
 9988              	.LASF344:
 9989 43d9 43595F42 		.ascii	"CY_BLE_EVT_SET_SUGGESTED_DATA_LENGTH_COMPLETE\000"
 9989      4C455F45 
ARM GAS  C:\Users\salaz\AppData\Local\Temp\ccu2LhKM.s 			page 270


 9989      56545F53 
 9989      45545F53 
 9989      55474745 
 9990              	.LASF543:
 9991 4407 61647649 		.ascii	"advIntvMax\000"
 9991      6E74764D 
 9991      617800
 9992              	.LASF531:
 9993 4412 6F776E41 		.ascii	"ownAddrType\000"
 9993      64647254 
 9993      79706500 
 9994              	.LASF57:
 9995 441e 4E766963 		.ascii	"NvicMux31_IRQn\000"
 9995      4D757833 
 9995      315F4952 
 9995      516E00
 9996              	.LASF452:
 9997 442d 43595F42 		.ascii	"CY_BLE_ERROR_OOB_NOT_AVAILABLE\000"
 9997      4C455F45 
 9997      52524F52 
 9997      5F4F4F42 
 9997      5F4E4F54 
 9998              	.LASF46:
 9999 444c 4E766963 		.ascii	"NvicMux20_IRQn\000"
 9999      4D757832 
 9999      305F4952 
 9999      516E00
 10000              	.LASF402:
 10001 445b 43595F42 		.ascii	"CY_BLE_EVT_GAP_KEYS_GEN_COMPLETE\000"
 10001      4C455F45 
 10001      56545F47 
 10001      41505F4B 
 10001      4559535F 
 10002              		.ident	"GCC: (GNU Tools for ARM Embedded Processors) 5.4.1 20160609 (release) [ARM/embedded-5-bran
