ARM GAS  C:\Users\salaz\AppData\Local\Temp\ccgHiAyq.s 			page 1


   1              		.syntax unified
   2              		.cpu cortex-m0plus
   3              		.fpu softvfp
   4              		.eabi_attribute 20, 1
   5              		.eabi_attribute 21, 1
   6              		.eabi_attribute 23, 3
   7              		.eabi_attribute 24, 1
   8              		.eabi_attribute 25, 1
   9              		.eabi_attribute 26, 1
  10              		.eabi_attribute 30, 1
  11              		.eabi_attribute 34, 0
  12              		.eabi_attribute 18, 4
  13              		.thumb
  14              		.syntax unified
  15              		.file	"cy_gpio.c"
  16              		.text
  17              	.Ltext0:
  18              		.cfi_sections	.debug_frame
  19              		.section	.text.Cy_GPIO_Pin_Init,"ax",%progbits
  20              		.align	2
  21              		.global	Cy_GPIO_Pin_Init
  22              		.code	16
  23              		.thumb_func
  24              		.type	Cy_GPIO_Pin_Init, %function
  25              	Cy_GPIO_Pin_Init:
  26              	.LFB74:
  27              		.file 1 "Generated_Source\\PSoC6\\pdl\\drivers\\peripheral\\gpio\\cy_gpio.c"
   1:Generated_Source\PSoC6\pdl\drivers\peripheral\gpio/cy_gpio.c **** /***************************************************************************//**
   2:Generated_Source\PSoC6\pdl\drivers\peripheral\gpio/cy_gpio.c **** * \file cy_gpio.c
   3:Generated_Source\PSoC6\pdl\drivers\peripheral\gpio/cy_gpio.c **** * \version 1.10.1
   4:Generated_Source\PSoC6\pdl\drivers\peripheral\gpio/cy_gpio.c **** *
   5:Generated_Source\PSoC6\pdl\drivers\peripheral\gpio/cy_gpio.c **** * \brief
   6:Generated_Source\PSoC6\pdl\drivers\peripheral\gpio/cy_gpio.c **** * Provides an API implementation of the GPIO driver
   7:Generated_Source\PSoC6\pdl\drivers\peripheral\gpio/cy_gpio.c **** *
   8:Generated_Source\PSoC6\pdl\drivers\peripheral\gpio/cy_gpio.c **** ********************************************************************************
   9:Generated_Source\PSoC6\pdl\drivers\peripheral\gpio/cy_gpio.c **** * \copyright
  10:Generated_Source\PSoC6\pdl\drivers\peripheral\gpio/cy_gpio.c **** * Copyright 2016-2018, Cypress Semiconductor Corporation. All rights reserved.
  11:Generated_Source\PSoC6\pdl\drivers\peripheral\gpio/cy_gpio.c **** * You may use this file only in accordance with the license, terms, conditions,
  12:Generated_Source\PSoC6\pdl\drivers\peripheral\gpio/cy_gpio.c **** * disclaimers, and limitations in the end user license agreement accompanying
  13:Generated_Source\PSoC6\pdl\drivers\peripheral\gpio/cy_gpio.c **** * the software package with which this file was provided.
  14:Generated_Source\PSoC6\pdl\drivers\peripheral\gpio/cy_gpio.c **** *******************************************************************************/
  15:Generated_Source\PSoC6\pdl\drivers\peripheral\gpio/cy_gpio.c **** 
  16:Generated_Source\PSoC6\pdl\drivers\peripheral\gpio/cy_gpio.c **** #include "cy_gpio.h"
  17:Generated_Source\PSoC6\pdl\drivers\peripheral\gpio/cy_gpio.c **** 
  18:Generated_Source\PSoC6\pdl\drivers\peripheral\gpio/cy_gpio.c **** #if defined(__cplusplus)
  19:Generated_Source\PSoC6\pdl\drivers\peripheral\gpio/cy_gpio.c **** extern "C" {
  20:Generated_Source\PSoC6\pdl\drivers\peripheral\gpio/cy_gpio.c **** #endif
  21:Generated_Source\PSoC6\pdl\drivers\peripheral\gpio/cy_gpio.c **** 
  22:Generated_Source\PSoC6\pdl\drivers\peripheral\gpio/cy_gpio.c **** 
  23:Generated_Source\PSoC6\pdl\drivers\peripheral\gpio/cy_gpio.c **** /*******************************************************************************
  24:Generated_Source\PSoC6\pdl\drivers\peripheral\gpio/cy_gpio.c **** * Function Name: Cy_GPIO_Pin_Init
  25:Generated_Source\PSoC6\pdl\drivers\peripheral\gpio/cy_gpio.c **** ****************************************************************************//**
  26:Generated_Source\PSoC6\pdl\drivers\peripheral\gpio/cy_gpio.c **** *
  27:Generated_Source\PSoC6\pdl\drivers\peripheral\gpio/cy_gpio.c **** * \brief Initializes all pin configuration settings for the specified pin.
  28:Generated_Source\PSoC6\pdl\drivers\peripheral\gpio/cy_gpio.c **** *
  29:Generated_Source\PSoC6\pdl\drivers\peripheral\gpio/cy_gpio.c **** * \param base
  30:Generated_Source\PSoC6\pdl\drivers\peripheral\gpio/cy_gpio.c **** * Pointer to the pin's port register base address
ARM GAS  C:\Users\salaz\AppData\Local\Temp\ccgHiAyq.s 			page 2


  31:Generated_Source\PSoC6\pdl\drivers\peripheral\gpio/cy_gpio.c **** *
  32:Generated_Source\PSoC6\pdl\drivers\peripheral\gpio/cy_gpio.c **** * \param pinNum
  33:Generated_Source\PSoC6\pdl\drivers\peripheral\gpio/cy_gpio.c **** * Position of the pin bit-field within the port register
  34:Generated_Source\PSoC6\pdl\drivers\peripheral\gpio/cy_gpio.c **** *
  35:Generated_Source\PSoC6\pdl\drivers\peripheral\gpio/cy_gpio.c **** * \param config
  36:Generated_Source\PSoC6\pdl\drivers\peripheral\gpio/cy_gpio.c **** * Pointer to the pin config structure base address
  37:Generated_Source\PSoC6\pdl\drivers\peripheral\gpio/cy_gpio.c **** *
  38:Generated_Source\PSoC6\pdl\drivers\peripheral\gpio/cy_gpio.c **** * \return
  39:Generated_Source\PSoC6\pdl\drivers\peripheral\gpio/cy_gpio.c **** * Initialization status
  40:Generated_Source\PSoC6\pdl\drivers\peripheral\gpio/cy_gpio.c **** *
  41:Generated_Source\PSoC6\pdl\drivers\peripheral\gpio/cy_gpio.c **** * \note 
  42:Generated_Source\PSoC6\pdl\drivers\peripheral\gpio/cy_gpio.c **** * This function modifies port registers in read-modify-write operations. It is
  43:Generated_Source\PSoC6\pdl\drivers\peripheral\gpio/cy_gpio.c **** * not thread safe as the resource is shared among multiple pins on a port.
  44:Generated_Source\PSoC6\pdl\drivers\peripheral\gpio/cy_gpio.c **** *
  45:Generated_Source\PSoC6\pdl\drivers\peripheral\gpio/cy_gpio.c **** * \funcusage
  46:Generated_Source\PSoC6\pdl\drivers\peripheral\gpio/cy_gpio.c **** * \snippet gpio/gpio_v1_10_sut_01.cydsn/main_cm4.c snippet_Cy_GPIO_Pin_Init
  47:Generated_Source\PSoC6\pdl\drivers\peripheral\gpio/cy_gpio.c **** *
  48:Generated_Source\PSoC6\pdl\drivers\peripheral\gpio/cy_gpio.c **** *******************************************************************************/
  49:Generated_Source\PSoC6\pdl\drivers\peripheral\gpio/cy_gpio.c **** cy_en_gpio_status_t Cy_GPIO_Pin_Init(GPIO_PRT_Type *base, uint32_t pinNum, const cy_stc_gpio_pin_co
  50:Generated_Source\PSoC6\pdl\drivers\peripheral\gpio/cy_gpio.c **** {
  28              		.loc 1 50 0
  29              		.cfi_startproc
  30              		@ args = 0, pretend = 0, frame = 0
  31              		@ frame_needed = 0, uses_anonymous_args = 0
  32              	.LVL0:
  33 0000 F8B5     		push	{r3, r4, r5, r6, r7, lr}
  34              		.cfi_def_cfa_offset 24
  35              		.cfi_offset 3, -24
  36              		.cfi_offset 4, -20
  37              		.cfi_offset 5, -16
  38              		.cfi_offset 6, -12
  39              		.cfi_offset 7, -8
  40              		.cfi_offset 14, -4
  41 0002 0600     		movs	r6, r0
  42 0004 0D00     		movs	r5, r1
  43 0006 1400     		movs	r4, r2
  44              	.LVL1:
  51:Generated_Source\PSoC6\pdl\drivers\peripheral\gpio/cy_gpio.c ****     cy_en_gpio_status_t status = CY_GPIO_SUCCESS;
  52:Generated_Source\PSoC6\pdl\drivers\peripheral\gpio/cy_gpio.c ****     uint32_t maskCfgOut;
  53:Generated_Source\PSoC6\pdl\drivers\peripheral\gpio/cy_gpio.c ****     uint32_t tempReg;
  54:Generated_Source\PSoC6\pdl\drivers\peripheral\gpio/cy_gpio.c **** 
  55:Generated_Source\PSoC6\pdl\drivers\peripheral\gpio/cy_gpio.c ****     if((NULL != base) && (NULL != config))
  45              		.loc 1 55 0
  46 0008 0028     		cmp	r0, #0
  47 000a 00D1     		bne	.LCB20
  48 000c 42E1     		b	.L33	@long jump
  49              	.LCB20:
  50              		.loc 1 55 0 is_stmt 0 discriminator 1
  51 000e 002A     		cmp	r2, #0
  52 0010 00D1     		bne	.LCB22
  53 0012 41E1     		b	.L34	@long jump
  54              	.LCB22:
  56:Generated_Source\PSoC6\pdl\drivers\peripheral\gpio/cy_gpio.c ****     {
  57:Generated_Source\PSoC6\pdl\drivers\peripheral\gpio/cy_gpio.c ****         CY_ASSERT_L2(CY_GPIO_IS_PIN_VALID(pinNum));
  55              		.loc 1 57 0 is_stmt 1
  56 0014 0729     		cmp	r1, #7
  57 0016 03D9     		bls	.L3
ARM GAS  C:\Users\salaz\AppData\Local\Temp\ccgHiAyq.s 			page 3


  58              		.loc 1 57 0 is_stmt 0 discriminator 1
  59 0018 3921     		movs	r1, #57
  60              	.LVL2:
  61 001a A048     		ldr	r0, .L35
  62              	.LVL3:
  63 001c FFF7FEFF 		bl	Cy_SysLib_AssertFailed
  64              	.LVL4:
  65              	.L3:
  58:Generated_Source\PSoC6\pdl\drivers\peripheral\gpio/cy_gpio.c ****         CY_ASSERT_L2(CY_GPIO_IS_VALUE_VALID(config->outVal));
  66              		.loc 1 58 0 is_stmt 1
  67 0020 2368     		ldr	r3, [r4]
  68 0022 012B     		cmp	r3, #1
  69 0024 03D9     		bls	.L4
  70              		.loc 1 58 0 is_stmt 0 discriminator 1
  71 0026 3A21     		movs	r1, #58
  72 0028 9C48     		ldr	r0, .L35
  73 002a FFF7FEFF 		bl	Cy_SysLib_AssertFailed
  74              	.LVL5:
  75              	.L4:
  59:Generated_Source\PSoC6\pdl\drivers\peripheral\gpio/cy_gpio.c ****         CY_ASSERT_L2(CY_GPIO_IS_DM_VALID(config->driveMode));
  76              		.loc 1 59 0 is_stmt 1
  77 002e 0F23     		movs	r3, #15
  78 0030 6268     		ldr	r2, [r4, #4]
  79 0032 9A43     		bics	r2, r3
  80 0034 03D0     		beq	.L5
  81              		.loc 1 59 0 is_stmt 0 discriminator 1
  82 0036 3B21     		movs	r1, #59
  83 0038 9848     		ldr	r0, .L35
  84 003a FFF7FEFF 		bl	Cy_SysLib_AssertFailed
  85              	.LVL6:
  86              	.L5:
  60:Generated_Source\PSoC6\pdl\drivers\peripheral\gpio/cy_gpio.c ****         CY_ASSERT_L2(CY_GPIO_IS_HSIOM_VALID(config->hsiom));  
  87              		.loc 1 60 0 is_stmt 1
  88 003e 237A     		ldrb	r3, [r4, #8]
  89 0040 1F22     		movs	r2, #31
  90 0042 9343     		bics	r3, r2
  91 0044 03D0     		beq	.L6
  92              		.loc 1 60 0 is_stmt 0 discriminator 1
  93 0046 3C21     		movs	r1, #60
  94 0048 9448     		ldr	r0, .L35
  95 004a FFF7FEFF 		bl	Cy_SysLib_AssertFailed
  96              	.LVL7:
  97              	.L6:
  61:Generated_Source\PSoC6\pdl\drivers\peripheral\gpio/cy_gpio.c ****         CY_ASSERT_L2(CY_GPIO_IS_INT_EDGE_VALID(config->intEdge)); 
  98              		.loc 1 61 0 is_stmt 1
  99 004e E368     		ldr	r3, [r4, #12]
 100 0050 032B     		cmp	r3, #3
 101 0052 03D9     		bls	.L7
 102              		.loc 1 61 0 is_stmt 0 discriminator 1
 103 0054 3D21     		movs	r1, #61
 104 0056 9148     		ldr	r0, .L35
 105 0058 FFF7FEFF 		bl	Cy_SysLib_AssertFailed
 106              	.LVL8:
 107              	.L7:
  62:Generated_Source\PSoC6\pdl\drivers\peripheral\gpio/cy_gpio.c ****         CY_ASSERT_L2(CY_GPIO_IS_VALUE_VALID(config->intMask));
 108              		.loc 1 62 0 is_stmt 1
 109 005c 2369     		ldr	r3, [r4, #16]
ARM GAS  C:\Users\salaz\AppData\Local\Temp\ccgHiAyq.s 			page 4


 110 005e 012B     		cmp	r3, #1
 111 0060 03D9     		bls	.L8
 112              		.loc 1 62 0 is_stmt 0 discriminator 1
 113 0062 3E21     		movs	r1, #62
 114 0064 8D48     		ldr	r0, .L35
 115 0066 FFF7FEFF 		bl	Cy_SysLib_AssertFailed
 116              	.LVL9:
 117              	.L8:
  63:Generated_Source\PSoC6\pdl\drivers\peripheral\gpio/cy_gpio.c ****         CY_ASSERT_L2(CY_GPIO_IS_VALUE_VALID(config->vtrip));
 118              		.loc 1 63 0 is_stmt 1
 119 006a 6369     		ldr	r3, [r4, #20]
 120 006c 012B     		cmp	r3, #1
 121 006e 03D9     		bls	.L9
 122              		.loc 1 63 0 is_stmt 0 discriminator 1
 123 0070 3F21     		movs	r1, #63
 124 0072 8A48     		ldr	r0, .L35
 125 0074 FFF7FEFF 		bl	Cy_SysLib_AssertFailed
 126              	.LVL10:
 127              	.L9:
  64:Generated_Source\PSoC6\pdl\drivers\peripheral\gpio/cy_gpio.c ****         CY_ASSERT_L2(CY_GPIO_IS_VALUE_VALID(config->slewRate));
 128              		.loc 1 64 0 is_stmt 1
 129 0078 A369     		ldr	r3, [r4, #24]
 130 007a 012B     		cmp	r3, #1
 131 007c 03D9     		bls	.L10
 132              		.loc 1 64 0 is_stmt 0 discriminator 1
 133 007e 4021     		movs	r1, #64
 134 0080 8648     		ldr	r0, .L35
 135 0082 FFF7FEFF 		bl	Cy_SysLib_AssertFailed
 136              	.LVL11:
 137              	.L10:
  65:Generated_Source\PSoC6\pdl\drivers\peripheral\gpio/cy_gpio.c ****         CY_ASSERT_L2(CY_GPIO_IS_DRIVE_SEL_VALID(config->driveSel));
 138              		.loc 1 65 0 is_stmt 1
 139 0086 E369     		ldr	r3, [r4, #28]
 140 0088 032B     		cmp	r3, #3
 141 008a 03D9     		bls	.L11
 142              		.loc 1 65 0 is_stmt 0 discriminator 1
 143 008c 4121     		movs	r1, #65
 144 008e 8348     		ldr	r0, .L35
 145 0090 FFF7FEFF 		bl	Cy_SysLib_AssertFailed
 146              	.LVL12:
 147              	.L11:
  66:Generated_Source\PSoC6\pdl\drivers\peripheral\gpio/cy_gpio.c ****         CY_ASSERT_L2(CY_GPIO_IS_VALUE_VALID(config->vregEn));
 148              		.loc 1 66 0 is_stmt 1
 149 0094 236A     		ldr	r3, [r4, #32]
 150 0096 012B     		cmp	r3, #1
 151 0098 03D9     		bls	.L12
 152              		.loc 1 66 0 is_stmt 0 discriminator 1
 153 009a 4221     		movs	r1, #66
 154 009c 7F48     		ldr	r0, .L35
 155 009e FFF7FEFF 		bl	Cy_SysLib_AssertFailed
 156              	.LVL13:
 157              	.L12:
  67:Generated_Source\PSoC6\pdl\drivers\peripheral\gpio/cy_gpio.c ****         CY_ASSERT_L2(CY_GPIO_IS_VALUE_VALID(config->ibufMode));
 158              		.loc 1 67 0 is_stmt 1
 159 00a2 636A     		ldr	r3, [r4, #36]
 160 00a4 012B     		cmp	r3, #1
 161 00a6 03D9     		bls	.L13
ARM GAS  C:\Users\salaz\AppData\Local\Temp\ccgHiAyq.s 			page 5


 162              		.loc 1 67 0 is_stmt 0 discriminator 1
 163 00a8 4321     		movs	r1, #67
 164 00aa 7C48     		ldr	r0, .L35
 165 00ac FFF7FEFF 		bl	Cy_SysLib_AssertFailed
 166              	.LVL14:
 167              	.L13:
  68:Generated_Source\PSoC6\pdl\drivers\peripheral\gpio/cy_gpio.c ****         CY_ASSERT_L2(CY_GPIO_IS_VALUE_VALID(config->vtripSel));
 168              		.loc 1 68 0 is_stmt 1
 169 00b0 A36A     		ldr	r3, [r4, #40]
 170 00b2 012B     		cmp	r3, #1
 171 00b4 03D9     		bls	.L14
 172              		.loc 1 68 0 is_stmt 0 discriminator 1
 173 00b6 4421     		movs	r1, #68
 174 00b8 7848     		ldr	r0, .L35
 175 00ba FFF7FEFF 		bl	Cy_SysLib_AssertFailed
 176              	.LVL15:
 177              	.L14:
  69:Generated_Source\PSoC6\pdl\drivers\peripheral\gpio/cy_gpio.c ****         CY_ASSERT_L2(CY_GPIO_IS_VREF_SEL_VALID(config->vrefSel));
 178              		.loc 1 69 0 is_stmt 1
 179 00be E36A     		ldr	r3, [r4, #44]
 180 00c0 032B     		cmp	r3, #3
 181 00c2 03D9     		bls	.L15
 182              		.loc 1 69 0 is_stmt 0 discriminator 1
 183 00c4 4521     		movs	r1, #69
 184 00c6 7548     		ldr	r0, .L35
 185 00c8 FFF7FEFF 		bl	Cy_SysLib_AssertFailed
 186              	.LVL16:
 187              	.L15:
  70:Generated_Source\PSoC6\pdl\drivers\peripheral\gpio/cy_gpio.c ****         CY_ASSERT_L2(CY_GPIO_IS_VOH_SEL_VALID(config->vohSel));
 188              		.loc 1 70 0 is_stmt 1
 189 00cc 236B     		ldr	r3, [r4, #48]
 190 00ce 072B     		cmp	r3, #7
 191 00d0 03D9     		bls	.L16
 192              		.loc 1 70 0 is_stmt 0 discriminator 1
 193 00d2 4621     		movs	r1, #70
 194 00d4 7148     		ldr	r0, .L35
 195 00d6 FFF7FEFF 		bl	Cy_SysLib_AssertFailed
 196              	.LVL17:
 197              	.L16:
  71:Generated_Source\PSoC6\pdl\drivers\peripheral\gpio/cy_gpio.c ****     
  72:Generated_Source\PSoC6\pdl\drivers\peripheral\gpio/cy_gpio.c ****         Cy_GPIO_Write(base, pinNum, config->outVal);
 198              		.loc 1 72 0 is_stmt 1
 199 00da 2768     		ldr	r7, [r4]
 200              	.LVL18:
 201              	.LBB14:
 202              	.LBB15:
 203              		.file 2 "Generated_Source\\PSoC6\\pdl\\drivers\\peripheral\\gpio\\cy_gpio.h"
   1:Generated_Source\PSoC6\pdl\drivers\peripheral\gpio/cy_gpio.h **** /***************************************************************************//**
   2:Generated_Source\PSoC6\pdl\drivers\peripheral\gpio/cy_gpio.h **** * \file cy_gpio.h
   3:Generated_Source\PSoC6\pdl\drivers\peripheral\gpio/cy_gpio.h **** * \version 1.10.1
   4:Generated_Source\PSoC6\pdl\drivers\peripheral\gpio/cy_gpio.h **** *
   5:Generated_Source\PSoC6\pdl\drivers\peripheral\gpio/cy_gpio.h **** * \brief
   6:Generated_Source\PSoC6\pdl\drivers\peripheral\gpio/cy_gpio.h **** * Provides an API declaration of the GPIO driver
   7:Generated_Source\PSoC6\pdl\drivers\peripheral\gpio/cy_gpio.h **** *
   8:Generated_Source\PSoC6\pdl\drivers\peripheral\gpio/cy_gpio.h **** ********************************************************************************
   9:Generated_Source\PSoC6\pdl\drivers\peripheral\gpio/cy_gpio.h **** * \copyright
  10:Generated_Source\PSoC6\pdl\drivers\peripheral\gpio/cy_gpio.h **** * Copyright 2016-2018, Cypress Semiconductor Corporation. All rights reserved.
ARM GAS  C:\Users\salaz\AppData\Local\Temp\ccgHiAyq.s 			page 6


  11:Generated_Source\PSoC6\pdl\drivers\peripheral\gpio/cy_gpio.h **** * You may use this file only in accordance with the license, terms, conditions,
  12:Generated_Source\PSoC6\pdl\drivers\peripheral\gpio/cy_gpio.h **** * disclaimers, and limitations in the end user license agreement accompanying
  13:Generated_Source\PSoC6\pdl\drivers\peripheral\gpio/cy_gpio.h **** * the software package with which this file was provided.
  14:Generated_Source\PSoC6\pdl\drivers\peripheral\gpio/cy_gpio.h **** *******************************************************************************/
  15:Generated_Source\PSoC6\pdl\drivers\peripheral\gpio/cy_gpio.h **** 
  16:Generated_Source\PSoC6\pdl\drivers\peripheral\gpio/cy_gpio.h **** /**
  17:Generated_Source\PSoC6\pdl\drivers\peripheral\gpio/cy_gpio.h **** * \defgroup group_gpio General Purpose Input Output (GPIO)
  18:Generated_Source\PSoC6\pdl\drivers\peripheral\gpio/cy_gpio.h **** * \{
  19:Generated_Source\PSoC6\pdl\drivers\peripheral\gpio/cy_gpio.h **** * The GPIO driver provides an API to configure and access device Input/Output pins.
  20:Generated_Source\PSoC6\pdl\drivers\peripheral\gpio/cy_gpio.h **** * IO pins include all general purpose types such as GPIO, SIO, HSIO, AUXIO, and
  21:Generated_Source\PSoC6\pdl\drivers\peripheral\gpio/cy_gpio.h **** * their variants.
  22:Generated_Source\PSoC6\pdl\drivers\peripheral\gpio/cy_gpio.h **** *
  23:Generated_Source\PSoC6\pdl\drivers\peripheral\gpio/cy_gpio.h **** * Initialization can be performed either at the port level or by configuring the
  24:Generated_Source\PSoC6\pdl\drivers\peripheral\gpio/cy_gpio.h **** * individual pins. For efficient use of code space, port
  25:Generated_Source\PSoC6\pdl\drivers\peripheral\gpio/cy_gpio.h **** * configuration should be used in the field. Refer to the product device header files 
  26:Generated_Source\PSoC6\pdl\drivers\peripheral\gpio/cy_gpio.h **** * for the list of supported ports and pins.
  27:Generated_Source\PSoC6\pdl\drivers\peripheral\gpio/cy_gpio.h **** * 
  28:Generated_Source\PSoC6\pdl\drivers\peripheral\gpio/cy_gpio.h **** * - Single pin configuration is performed by using \ref Cy_GPIO_Pin_FastInit 
  29:Generated_Source\PSoC6\pdl\drivers\peripheral\gpio/cy_gpio.h **** *   (provide specific values) or \ref Cy_GPIO_Pin_Init (provide a filled
  30:Generated_Source\PSoC6\pdl\drivers\peripheral\gpio/cy_gpio.h **** *   cy_stc_gpio_pin_config_t structure).
  31:Generated_Source\PSoC6\pdl\drivers\peripheral\gpio/cy_gpio.h **** * - An entire port can be configured using \ref Cy_GPIO_Port_Init. Provide a filled 
  32:Generated_Source\PSoC6\pdl\drivers\peripheral\gpio/cy_gpio.h **** *   cy_stc_gpio_prt_config_t structure. The values in the structure are 
  33:Generated_Source\PSoC6\pdl\drivers\peripheral\gpio/cy_gpio.h **** *   bitfields representing the desired value for each pin in the port.
  34:Generated_Source\PSoC6\pdl\drivers\peripheral\gpio/cy_gpio.h **** * - Pin configuration and management is based on the port address and pin number.
  35:Generated_Source\PSoC6\pdl\drivers\peripheral\gpio/cy_gpio.h **** *   \ref Cy_GPIO_PortToAddr function can optionally be used to calculate the port
  36:Generated_Source\PSoC6\pdl\drivers\peripheral\gpio/cy_gpio.h **** *   address from the port number at run-time.
  37:Generated_Source\PSoC6\pdl\drivers\peripheral\gpio/cy_gpio.h **** *
  38:Generated_Source\PSoC6\pdl\drivers\peripheral\gpio/cy_gpio.h **** * Once the pin/port initialization is complete, each pin can be accessed by 
  39:Generated_Source\PSoC6\pdl\drivers\peripheral\gpio/cy_gpio.h **** * specifying the port (GPIO_PRT_Type) and the pin (0-7) in the provided API 
  40:Generated_Source\PSoC6\pdl\drivers\peripheral\gpio/cy_gpio.h **** * functions.
  41:Generated_Source\PSoC6\pdl\drivers\peripheral\gpio/cy_gpio.h **** *
  42:Generated_Source\PSoC6\pdl\drivers\peripheral\gpio/cy_gpio.h **** * \section group_gpio_configuration Configuration Considerations
  43:Generated_Source\PSoC6\pdl\drivers\peripheral\gpio/cy_gpio.h **** *
  44:Generated_Source\PSoC6\pdl\drivers\peripheral\gpio/cy_gpio.h **** * 1. Pin multiplexing is controlled through the High-Speed IO Matrix (HSIOM) selection.
  45:Generated_Source\PSoC6\pdl\drivers\peripheral\gpio/cy_gpio.h **** *    This allows the pin to connect to signal sources/sinks throughout the device,
  46:Generated_Source\PSoC6\pdl\drivers\peripheral\gpio/cy_gpio.h **** *    as defined by the pin HSIOM selection options (en_hsiom_sel_t).
  47:Generated_Source\PSoC6\pdl\drivers\peripheral\gpio/cy_gpio.h **** * 2. All pins are initialized to High-Z drive mode with HSIOM connected to CPU (SW
  48:Generated_Source\PSoC6\pdl\drivers\peripheral\gpio/cy_gpio.h **** *    control digital pin only) at Power-On-Reset(POR).
  49:Generated_Source\PSoC6\pdl\drivers\peripheral\gpio/cy_gpio.h **** * 3. Some API functions perform read-modify-write operations on shared port
  50:Generated_Source\PSoC6\pdl\drivers\peripheral\gpio/cy_gpio.h **** *    registers. These functions are not thread safe and care must be taken when
  51:Generated_Source\PSoC6\pdl\drivers\peripheral\gpio/cy_gpio.h **** *    called by the application.
  52:Generated_Source\PSoC6\pdl\drivers\peripheral\gpio/cy_gpio.h **** *
  53:Generated_Source\PSoC6\pdl\drivers\peripheral\gpio/cy_gpio.h **** * Multiple pins on a port can be updated using direct port register writes with an
  54:Generated_Source\PSoC6\pdl\drivers\peripheral\gpio/cy_gpio.h **** * appropriate port mask. An example is shown below, highlighting the different ways of 
  55:Generated_Source\PSoC6\pdl\drivers\peripheral\gpio/cy_gpio.h **** * configuring Port 1 pins using,
  56:Generated_Source\PSoC6\pdl\drivers\peripheral\gpio/cy_gpio.h **** * 
  57:Generated_Source\PSoC6\pdl\drivers\peripheral\gpio/cy_gpio.h **** * - Port output data register
  58:Generated_Source\PSoC6\pdl\drivers\peripheral\gpio/cy_gpio.h **** * - Port output data set register
  59:Generated_Source\PSoC6\pdl\drivers\peripheral\gpio/cy_gpio.h **** * - Port output data clear register
  60:Generated_Source\PSoC6\pdl\drivers\peripheral\gpio/cy_gpio.h **** *
  61:Generated_Source\PSoC6\pdl\drivers\peripheral\gpio/cy_gpio.h **** * \snippet gpio/gpio_v1_10_sut_01.cydsn/main_cm4.c Cy_GPIO_Snippet
  62:Generated_Source\PSoC6\pdl\drivers\peripheral\gpio/cy_gpio.h **** *
  63:Generated_Source\PSoC6\pdl\drivers\peripheral\gpio/cy_gpio.h **** * \section group_gpio_more_information More Information
  64:Generated_Source\PSoC6\pdl\drivers\peripheral\gpio/cy_gpio.h **** *
  65:Generated_Source\PSoC6\pdl\drivers\peripheral\gpio/cy_gpio.h **** * Refer to the technical reference manual (TRM) and the device datasheet.
  66:Generated_Source\PSoC6\pdl\drivers\peripheral\gpio/cy_gpio.h **** *
  67:Generated_Source\PSoC6\pdl\drivers\peripheral\gpio/cy_gpio.h **** * \section group_gpio_MISRA MISRA-C Compliance]
ARM GAS  C:\Users\salaz\AppData\Local\Temp\ccgHiAyq.s 			page 7


  68:Generated_Source\PSoC6\pdl\drivers\peripheral\gpio/cy_gpio.h **** * <table class="doxtable">
  69:Generated_Source\PSoC6\pdl\drivers\peripheral\gpio/cy_gpio.h **** *   <tr>
  70:Generated_Source\PSoC6\pdl\drivers\peripheral\gpio/cy_gpio.h **** *     <th>MISRA Rule</th>
  71:Generated_Source\PSoC6\pdl\drivers\peripheral\gpio/cy_gpio.h **** *     <th>Rule Class (Required/Advisory)</th>
  72:Generated_Source\PSoC6\pdl\drivers\peripheral\gpio/cy_gpio.h **** *     <th>Rule Description</th>
  73:Generated_Source\PSoC6\pdl\drivers\peripheral\gpio/cy_gpio.h **** *     <th>Description of Deviation(s)</th>
  74:Generated_Source\PSoC6\pdl\drivers\peripheral\gpio/cy_gpio.h **** *   </tr>
  75:Generated_Source\PSoC6\pdl\drivers\peripheral\gpio/cy_gpio.h **** *   <tr>
  76:Generated_Source\PSoC6\pdl\drivers\peripheral\gpio/cy_gpio.h **** *     <td>16.7</td>
  77:Generated_Source\PSoC6\pdl\drivers\peripheral\gpio/cy_gpio.h **** *     <td>A</td>
  78:Generated_Source\PSoC6\pdl\drivers\peripheral\gpio/cy_gpio.h **** *     <td>A pointer parameter in a function prototype should be declared as pointer 
  79:Generated_Source\PSoC6\pdl\drivers\peripheral\gpio/cy_gpio.h **** *         to const if the pointer is not used to modify the addressed object.</td>
  80:Generated_Source\PSoC6\pdl\drivers\peripheral\gpio/cy_gpio.h **** *     <td>The objects pointed to by the base addresses of the GPIO port are not always modified.
  81:Generated_Source\PSoC6\pdl\drivers\peripheral\gpio/cy_gpio.h **** *         While a const qualifier can be used in select scenarios, it brings little benefit
  82:Generated_Source\PSoC6\pdl\drivers\peripheral\gpio/cy_gpio.h **** *         in adding this to the affected functions. </td>
  83:Generated_Source\PSoC6\pdl\drivers\peripheral\gpio/cy_gpio.h **** *   </tr>
  84:Generated_Source\PSoC6\pdl\drivers\peripheral\gpio/cy_gpio.h **** * </table>
  85:Generated_Source\PSoC6\pdl\drivers\peripheral\gpio/cy_gpio.h **** *
  86:Generated_Source\PSoC6\pdl\drivers\peripheral\gpio/cy_gpio.h **** * \section group_gpio_changelog Changelog
  87:Generated_Source\PSoC6\pdl\drivers\peripheral\gpio/cy_gpio.h **** * <table class="doxtable">
  88:Generated_Source\PSoC6\pdl\drivers\peripheral\gpio/cy_gpio.h **** *   <tr><th>Version</th><th>Changes</th><th>Reason for Change</th></tr>
  89:Generated_Source\PSoC6\pdl\drivers\peripheral\gpio/cy_gpio.h **** *   <tr>
  90:Generated_Source\PSoC6\pdl\drivers\peripheral\gpio/cy_gpio.h **** *     <td>1.10.1</td>
  91:Generated_Source\PSoC6\pdl\drivers\peripheral\gpio/cy_gpio.h **** *     <td>Updated description for the functions: \ref Cy_GPIO_GetInterruptStatus, 
  92:Generated_Source\PSoC6\pdl\drivers\peripheral\gpio/cy_gpio.h **** *         \ref Cy_GPIO_GetInterruptMask, \ref Cy_GPIO_GetInterruptStatusMasked.
  93:Generated_Source\PSoC6\pdl\drivers\peripheral\gpio/cy_gpio.h **** *         Minor documentation edits.
  94:Generated_Source\PSoC6\pdl\drivers\peripheral\gpio/cy_gpio.h **** *     </td>
  95:Generated_Source\PSoC6\pdl\drivers\peripheral\gpio/cy_gpio.h **** *     <td>Documentation update and clarification</td>
  96:Generated_Source\PSoC6\pdl\drivers\peripheral\gpio/cy_gpio.h **** *   </tr>
  97:Generated_Source\PSoC6\pdl\drivers\peripheral\gpio/cy_gpio.h **** *   <tr>
  98:Generated_Source\PSoC6\pdl\drivers\peripheral\gpio/cy_gpio.h **** *     <td>1.10</td>
  99:Generated_Source\PSoC6\pdl\drivers\peripheral\gpio/cy_gpio.h **** *     <td>Added input parameter validation to the API functions</td>
 100:Generated_Source\PSoC6\pdl\drivers\peripheral\gpio/cy_gpio.h **** *     <td></td>
 101:Generated_Source\PSoC6\pdl\drivers\peripheral\gpio/cy_gpio.h **** *   </tr>
 102:Generated_Source\PSoC6\pdl\drivers\peripheral\gpio/cy_gpio.h **** *   <tr>
 103:Generated_Source\PSoC6\pdl\drivers\peripheral\gpio/cy_gpio.h **** *     <td>1.0</td>
 104:Generated_Source\PSoC6\pdl\drivers\peripheral\gpio/cy_gpio.h **** *     <td>Initial version</td>
 105:Generated_Source\PSoC6\pdl\drivers\peripheral\gpio/cy_gpio.h **** *     <td></td>
 106:Generated_Source\PSoC6\pdl\drivers\peripheral\gpio/cy_gpio.h **** *   </tr>
 107:Generated_Source\PSoC6\pdl\drivers\peripheral\gpio/cy_gpio.h **** * </table>
 108:Generated_Source\PSoC6\pdl\drivers\peripheral\gpio/cy_gpio.h **** *
 109:Generated_Source\PSoC6\pdl\drivers\peripheral\gpio/cy_gpio.h **** * \defgroup group_gpio_macros Macros
 110:Generated_Source\PSoC6\pdl\drivers\peripheral\gpio/cy_gpio.h **** * \defgroup group_gpio_functions Functions
 111:Generated_Source\PSoC6\pdl\drivers\peripheral\gpio/cy_gpio.h **** * \{
 112:Generated_Source\PSoC6\pdl\drivers\peripheral\gpio/cy_gpio.h **** *   \defgroup group_gpio_functions_init       Initialization Functions
 113:Generated_Source\PSoC6\pdl\drivers\peripheral\gpio/cy_gpio.h **** *   \defgroup group_gpio_functions_gpio       GPIO Functions
 114:Generated_Source\PSoC6\pdl\drivers\peripheral\gpio/cy_gpio.h **** *   \defgroup group_gpio_functions_sio        SIO Functions
 115:Generated_Source\PSoC6\pdl\drivers\peripheral\gpio/cy_gpio.h **** *   \defgroup group_gpio_functions_interrupt  Port Interrupt Functions
 116:Generated_Source\PSoC6\pdl\drivers\peripheral\gpio/cy_gpio.h **** * \}
 117:Generated_Source\PSoC6\pdl\drivers\peripheral\gpio/cy_gpio.h **** * \defgroup group_gpio_data_structures Data Structures
 118:Generated_Source\PSoC6\pdl\drivers\peripheral\gpio/cy_gpio.h **** * \defgroup group_gpio_enums Enumerated Types
 119:Generated_Source\PSoC6\pdl\drivers\peripheral\gpio/cy_gpio.h **** */
 120:Generated_Source\PSoC6\pdl\drivers\peripheral\gpio/cy_gpio.h **** 
 121:Generated_Source\PSoC6\pdl\drivers\peripheral\gpio/cy_gpio.h **** #if !defined(CY_GPIO_H)
 122:Generated_Source\PSoC6\pdl\drivers\peripheral\gpio/cy_gpio.h **** #define CY_GPIO_H
 123:Generated_Source\PSoC6\pdl\drivers\peripheral\gpio/cy_gpio.h **** 
 124:Generated_Source\PSoC6\pdl\drivers\peripheral\gpio/cy_gpio.h **** #include <stddef.h>
ARM GAS  C:\Users\salaz\AppData\Local\Temp\ccgHiAyq.s 			page 8


 125:Generated_Source\PSoC6\pdl\drivers\peripheral\gpio/cy_gpio.h **** #include "syslib/cy_syslib.h"
 126:Generated_Source\PSoC6\pdl\drivers\peripheral\gpio/cy_gpio.h **** #include "cy_device_headers.h"
 127:Generated_Source\PSoC6\pdl\drivers\peripheral\gpio/cy_gpio.h **** 
 128:Generated_Source\PSoC6\pdl\drivers\peripheral\gpio/cy_gpio.h **** #if defined(__cplusplus)
 129:Generated_Source\PSoC6\pdl\drivers\peripheral\gpio/cy_gpio.h **** extern "C" {
 130:Generated_Source\PSoC6\pdl\drivers\peripheral\gpio/cy_gpio.h **** #endif
 131:Generated_Source\PSoC6\pdl\drivers\peripheral\gpio/cy_gpio.h **** 
 132:Generated_Source\PSoC6\pdl\drivers\peripheral\gpio/cy_gpio.h **** /** \addtogroup group_gpio_macros
 133:Generated_Source\PSoC6\pdl\drivers\peripheral\gpio/cy_gpio.h **** * \{
 134:Generated_Source\PSoC6\pdl\drivers\peripheral\gpio/cy_gpio.h **** */
 135:Generated_Source\PSoC6\pdl\drivers\peripheral\gpio/cy_gpio.h **** 
 136:Generated_Source\PSoC6\pdl\drivers\peripheral\gpio/cy_gpio.h **** /** Driver major version */
 137:Generated_Source\PSoC6\pdl\drivers\peripheral\gpio/cy_gpio.h **** #define CY_GPIO_DRV_VERSION_MAJOR       1
 138:Generated_Source\PSoC6\pdl\drivers\peripheral\gpio/cy_gpio.h **** 
 139:Generated_Source\PSoC6\pdl\drivers\peripheral\gpio/cy_gpio.h **** /** Driver minor version */
 140:Generated_Source\PSoC6\pdl\drivers\peripheral\gpio/cy_gpio.h **** #define CY_GPIO_DRV_VERSION_MINOR       10
 141:Generated_Source\PSoC6\pdl\drivers\peripheral\gpio/cy_gpio.h **** 
 142:Generated_Source\PSoC6\pdl\drivers\peripheral\gpio/cy_gpio.h **** /** GPIO driver ID */
 143:Generated_Source\PSoC6\pdl\drivers\peripheral\gpio/cy_gpio.h **** #define CY_GPIO_ID CY_PDL_DRV_ID(0x16u)
 144:Generated_Source\PSoC6\pdl\drivers\peripheral\gpio/cy_gpio.h **** 
 145:Generated_Source\PSoC6\pdl\drivers\peripheral\gpio/cy_gpio.h **** /** \} group_gpio_macros */
 146:Generated_Source\PSoC6\pdl\drivers\peripheral\gpio/cy_gpio.h **** 
 147:Generated_Source\PSoC6\pdl\drivers\peripheral\gpio/cy_gpio.h **** 
 148:Generated_Source\PSoC6\pdl\drivers\peripheral\gpio/cy_gpio.h **** /***************************************
 149:Generated_Source\PSoC6\pdl\drivers\peripheral\gpio/cy_gpio.h **** *       Enumerations
 150:Generated_Source\PSoC6\pdl\drivers\peripheral\gpio/cy_gpio.h **** ***************************************/
 151:Generated_Source\PSoC6\pdl\drivers\peripheral\gpio/cy_gpio.h **** /**
 152:Generated_Source\PSoC6\pdl\drivers\peripheral\gpio/cy_gpio.h **** * \addtogroup group_gpio_enums
 153:Generated_Source\PSoC6\pdl\drivers\peripheral\gpio/cy_gpio.h **** * \{
 154:Generated_Source\PSoC6\pdl\drivers\peripheral\gpio/cy_gpio.h **** */
 155:Generated_Source\PSoC6\pdl\drivers\peripheral\gpio/cy_gpio.h **** 
 156:Generated_Source\PSoC6\pdl\drivers\peripheral\gpio/cy_gpio.h **** /**
 157:Generated_Source\PSoC6\pdl\drivers\peripheral\gpio/cy_gpio.h **** * GPIO Driver error codes
 158:Generated_Source\PSoC6\pdl\drivers\peripheral\gpio/cy_gpio.h **** */
 159:Generated_Source\PSoC6\pdl\drivers\peripheral\gpio/cy_gpio.h **** typedef enum 
 160:Generated_Source\PSoC6\pdl\drivers\peripheral\gpio/cy_gpio.h **** {
 161:Generated_Source\PSoC6\pdl\drivers\peripheral\gpio/cy_gpio.h ****     CY_GPIO_SUCCESS   = 0x00u,                                    /**< Returned successful */
 162:Generated_Source\PSoC6\pdl\drivers\peripheral\gpio/cy_gpio.h ****     CY_GPIO_BAD_PARAM = CY_GPIO_ID | CY_PDL_STATUS_ERROR | 0x01u, /**< Bad parameter was passed */
 163:Generated_Source\PSoC6\pdl\drivers\peripheral\gpio/cy_gpio.h **** } cy_en_gpio_status_t;
 164:Generated_Source\PSoC6\pdl\drivers\peripheral\gpio/cy_gpio.h **** 
 165:Generated_Source\PSoC6\pdl\drivers\peripheral\gpio/cy_gpio.h **** /** \} group_gpio_enums */
 166:Generated_Source\PSoC6\pdl\drivers\peripheral\gpio/cy_gpio.h **** 
 167:Generated_Source\PSoC6\pdl\drivers\peripheral\gpio/cy_gpio.h **** 
 168:Generated_Source\PSoC6\pdl\drivers\peripheral\gpio/cy_gpio.h **** /***************************************
 169:Generated_Source\PSoC6\pdl\drivers\peripheral\gpio/cy_gpio.h **** *       Configuration Structures
 170:Generated_Source\PSoC6\pdl\drivers\peripheral\gpio/cy_gpio.h **** ***************************************/
 171:Generated_Source\PSoC6\pdl\drivers\peripheral\gpio/cy_gpio.h **** 
 172:Generated_Source\PSoC6\pdl\drivers\peripheral\gpio/cy_gpio.h **** /**
 173:Generated_Source\PSoC6\pdl\drivers\peripheral\gpio/cy_gpio.h **** * \addtogroup group_gpio_data_structures
 174:Generated_Source\PSoC6\pdl\drivers\peripheral\gpio/cy_gpio.h **** * \{
 175:Generated_Source\PSoC6\pdl\drivers\peripheral\gpio/cy_gpio.h **** */
 176:Generated_Source\PSoC6\pdl\drivers\peripheral\gpio/cy_gpio.h **** 
 177:Generated_Source\PSoC6\pdl\drivers\peripheral\gpio/cy_gpio.h **** /** This structure is used to initialize a port of GPIO pins */
 178:Generated_Source\PSoC6\pdl\drivers\peripheral\gpio/cy_gpio.h **** typedef struct {
 179:Generated_Source\PSoC6\pdl\drivers\peripheral\gpio/cy_gpio.h ****     uint32_t out;           /**< Initial output data for the IO pins in the port */
 180:Generated_Source\PSoC6\pdl\drivers\peripheral\gpio/cy_gpio.h ****     uint32_t intrMask;      /**< Interrupt enable mask for the port interrupt */
 181:Generated_Source\PSoC6\pdl\drivers\peripheral\gpio/cy_gpio.h ****     uint32_t intrCfg;       /**< Port pin interrupt edge detection configuration */
ARM GAS  C:\Users\salaz\AppData\Local\Temp\ccgHiAyq.s 			page 9


 182:Generated_Source\PSoC6\pdl\drivers\peripheral\gpio/cy_gpio.h ****     uint32_t cfg;           /**< Port pin drive modes and input buffer enable configuration */
 183:Generated_Source\PSoC6\pdl\drivers\peripheral\gpio/cy_gpio.h ****     uint32_t cfgIn;         /**< Port pin input buffer configuration */
 184:Generated_Source\PSoC6\pdl\drivers\peripheral\gpio/cy_gpio.h ****     uint32_t cfgOut;        /**< Port pin output buffer configuration */
 185:Generated_Source\PSoC6\pdl\drivers\peripheral\gpio/cy_gpio.h ****     uint32_t cfgSIO;        /**< Port SIO pins configuration */
 186:Generated_Source\PSoC6\pdl\drivers\peripheral\gpio/cy_gpio.h ****     uint32_t sel0Active;    /**< HSIOM selection for port pins 0,1,2,3 */
 187:Generated_Source\PSoC6\pdl\drivers\peripheral\gpio/cy_gpio.h ****     uint32_t sel1Active;    /**< HSIOM selection for port pins 4,5,6,7 */
 188:Generated_Source\PSoC6\pdl\drivers\peripheral\gpio/cy_gpio.h **** } cy_stc_gpio_prt_config_t;
 189:Generated_Source\PSoC6\pdl\drivers\peripheral\gpio/cy_gpio.h **** 
 190:Generated_Source\PSoC6\pdl\drivers\peripheral\gpio/cy_gpio.h **** /** This structure is used to initialize a single GPIO pin */
 191:Generated_Source\PSoC6\pdl\drivers\peripheral\gpio/cy_gpio.h **** typedef struct {
 192:Generated_Source\PSoC6\pdl\drivers\peripheral\gpio/cy_gpio.h ****     uint32_t outVal;         /**< Pin output state */
 193:Generated_Source\PSoC6\pdl\drivers\peripheral\gpio/cy_gpio.h ****     uint32_t driveMode;      /**< Drive mode */
 194:Generated_Source\PSoC6\pdl\drivers\peripheral\gpio/cy_gpio.h ****     en_hsiom_sel_t hsiom;   /**< HSIOM selection */
 195:Generated_Source\PSoC6\pdl\drivers\peripheral\gpio/cy_gpio.h ****     uint32_t intEdge;        /**< Interrupt Edge type */
 196:Generated_Source\PSoC6\pdl\drivers\peripheral\gpio/cy_gpio.h ****     uint32_t intMask;        /**< Interrupt enable mask */
 197:Generated_Source\PSoC6\pdl\drivers\peripheral\gpio/cy_gpio.h ****     uint32_t vtrip;          /**< Input buffer voltage trip type */
 198:Generated_Source\PSoC6\pdl\drivers\peripheral\gpio/cy_gpio.h ****     uint32_t slewRate;       /**< Output buffer slew rate */
 199:Generated_Source\PSoC6\pdl\drivers\peripheral\gpio/cy_gpio.h ****     uint32_t driveSel;       /**< Drive strength */
 200:Generated_Source\PSoC6\pdl\drivers\peripheral\gpio/cy_gpio.h ****     uint32_t vregEn;         /**< SIO pair output buffer mode */
 201:Generated_Source\PSoC6\pdl\drivers\peripheral\gpio/cy_gpio.h ****     uint32_t ibufMode;       /**< SIO pair input buffer mode */
 202:Generated_Source\PSoC6\pdl\drivers\peripheral\gpio/cy_gpio.h ****     uint32_t vtripSel;       /**< SIO pair input buffer trip point */
 203:Generated_Source\PSoC6\pdl\drivers\peripheral\gpio/cy_gpio.h ****     uint32_t vrefSel;        /**< SIO pair reference voltage for input buffer trip point */
 204:Generated_Source\PSoC6\pdl\drivers\peripheral\gpio/cy_gpio.h ****     uint32_t vohSel;         /**< SIO pair regulated voltage output level */
 205:Generated_Source\PSoC6\pdl\drivers\peripheral\gpio/cy_gpio.h **** } cy_stc_gpio_pin_config_t;
 206:Generated_Source\PSoC6\pdl\drivers\peripheral\gpio/cy_gpio.h **** 
 207:Generated_Source\PSoC6\pdl\drivers\peripheral\gpio/cy_gpio.h **** /** \} group_gpio_data_structures */
 208:Generated_Source\PSoC6\pdl\drivers\peripheral\gpio/cy_gpio.h **** 
 209:Generated_Source\PSoC6\pdl\drivers\peripheral\gpio/cy_gpio.h **** /***************************************
 210:Generated_Source\PSoC6\pdl\drivers\peripheral\gpio/cy_gpio.h **** *        Constants
 211:Generated_Source\PSoC6\pdl\drivers\peripheral\gpio/cy_gpio.h **** ***************************************/
 212:Generated_Source\PSoC6\pdl\drivers\peripheral\gpio/cy_gpio.h **** 
 213:Generated_Source\PSoC6\pdl\drivers\peripheral\gpio/cy_gpio.h **** /** \cond INTERNAL */
 214:Generated_Source\PSoC6\pdl\drivers\peripheral\gpio/cy_gpio.h **** 
 215:Generated_Source\PSoC6\pdl\drivers\peripheral\gpio/cy_gpio.h **** /* General Constants */
 216:Generated_Source\PSoC6\pdl\drivers\peripheral\gpio/cy_gpio.h **** #define CY_GPIO_PRT_HALF                       (4UL)      /**< Half-way point of a GPIO port */
 217:Generated_Source\PSoC6\pdl\drivers\peripheral\gpio/cy_gpio.h **** #define CY_GPIO_PRT_DEINIT                     (0UL)      /**< De-init value for port registers */
 218:Generated_Source\PSoC6\pdl\drivers\peripheral\gpio/cy_gpio.h **** 
 219:Generated_Source\PSoC6\pdl\drivers\peripheral\gpio/cy_gpio.h **** /* GPIO Masks */
 220:Generated_Source\PSoC6\pdl\drivers\peripheral\gpio/cy_gpio.h **** #define CY_GPIO_HSIOM_MASK                     (0x1FUL)   /**< HSIOM selection mask */
 221:Generated_Source\PSoC6\pdl\drivers\peripheral\gpio/cy_gpio.h **** #define CY_GPIO_OUT_MASK                       (0x01UL)   /**< Single pin mask for OUT register */
 222:Generated_Source\PSoC6\pdl\drivers\peripheral\gpio/cy_gpio.h **** #define CY_GPIO_IN_MASK                        (0x01UL)   /**< Single pin mask for IN register */
 223:Generated_Source\PSoC6\pdl\drivers\peripheral\gpio/cy_gpio.h **** #define CY_GPIO_CFG_DM_MASK                    (0x0FUL)   /**< Single pin mask for drive mode in CF
 224:Generated_Source\PSoC6\pdl\drivers\peripheral\gpio/cy_gpio.h **** #define CY_GPIO_CFG_IN_VTRIP_SEL_MASK          (0x01UL)   /**< Single pin mask for VTRIP selection 
 225:Generated_Source\PSoC6\pdl\drivers\peripheral\gpio/cy_gpio.h **** #define CY_GPIO_CFG_OUT_SLOW_MASK              (0x01UL)   /**< Single pin mask for slew rate in CFG
 226:Generated_Source\PSoC6\pdl\drivers\peripheral\gpio/cy_gpio.h **** #define CY_GPIO_CFG_OUT_DRIVE_SEL_MASK         (0x03UL)   /**< Single pin mask for drive strength i
 227:Generated_Source\PSoC6\pdl\drivers\peripheral\gpio/cy_gpio.h **** #define CY_GPIO_INTR_STATUS_MASK               (0x01UL)   /**< Single pin mask for interrupt status
 228:Generated_Source\PSoC6\pdl\drivers\peripheral\gpio/cy_gpio.h **** #define CY_GPIO_INTR_EN_MASK                   (0x01UL)   /**< Single pin mask for interrupt status
 229:Generated_Source\PSoC6\pdl\drivers\peripheral\gpio/cy_gpio.h **** #define CY_GPIO_INTR_MASKED_MASK               (0x01UL)   /**< Single pin mask for masked interrupt
 230:Generated_Source\PSoC6\pdl\drivers\peripheral\gpio/cy_gpio.h **** #define CY_GPIO_INTR_SET_MASK                  (0x01UL)   /**< Single pin mask for setting the inte
 231:Generated_Source\PSoC6\pdl\drivers\peripheral\gpio/cy_gpio.h **** #define CY_GPIO_INTR_EDGE_MASK                 (0x03UL)   /**< Single pin mask for interrupt edge t
 232:Generated_Source\PSoC6\pdl\drivers\peripheral\gpio/cy_gpio.h **** #define CY_GPIO_INTR_FLT_EDGE_MASK             (0x07UL)   /**< Single pin mask for setting filtered
 233:Generated_Source\PSoC6\pdl\drivers\peripheral\gpio/cy_gpio.h **** 
 234:Generated_Source\PSoC6\pdl\drivers\peripheral\gpio/cy_gpio.h **** /* SIO Masks */
 235:Generated_Source\PSoC6\pdl\drivers\peripheral\gpio/cy_gpio.h **** #define CY_GPIO_VREG_EN_MASK                   (0x01UL)   /**< Single SIO pin mask for voltage regu
 236:Generated_Source\PSoC6\pdl\drivers\peripheral\gpio/cy_gpio.h **** #define CY_GPIO_IBUF_MASK                      (0x01UL)   /**< Single SIO pin mask for input buffer
 237:Generated_Source\PSoC6\pdl\drivers\peripheral\gpio/cy_gpio.h **** #define CY_GPIO_IBUF_SHIFT                     (0x01UL)   /**< Single SIO pin shift for input buffe
 238:Generated_Source\PSoC6\pdl\drivers\peripheral\gpio/cy_gpio.h **** #define CY_GPIO_VTRIP_SEL_MASK                 (0x01UL)   /**< Single SIO pin mask for the input bu
ARM GAS  C:\Users\salaz\AppData\Local\Temp\ccgHiAyq.s 			page 10


 239:Generated_Source\PSoC6\pdl\drivers\peripheral\gpio/cy_gpio.h **** #define CY_GPIO_VTRIP_SEL_SHIFT                (0x02UL)   /**< Single SIO pin shift for the input b
 240:Generated_Source\PSoC6\pdl\drivers\peripheral\gpio/cy_gpio.h **** #define CY_GPIO_VREF_SEL_MASK                  (0x03UL)   /**< Single SIO pin mask for voltage refe
 241:Generated_Source\PSoC6\pdl\drivers\peripheral\gpio/cy_gpio.h **** #define CY_GPIO_VREF_SEL_SHIFT                 (0x03UL)   /**< Single SIO pin shift for voltage ref
 242:Generated_Source\PSoC6\pdl\drivers\peripheral\gpio/cy_gpio.h **** #define CY_GPIO_VOH_SEL_MASK                   (0x07UL)   /**< Single SIO pin mask for VOH */
 243:Generated_Source\PSoC6\pdl\drivers\peripheral\gpio/cy_gpio.h **** #define CY_GPIO_VOH_SEL_SHIFT                  (0x05UL)   /**< Single SIO pin shift for VOH */
 244:Generated_Source\PSoC6\pdl\drivers\peripheral\gpio/cy_gpio.h **** 
 245:Generated_Source\PSoC6\pdl\drivers\peripheral\gpio/cy_gpio.h **** /* Special mask for SIO pin pair setting */
 246:Generated_Source\PSoC6\pdl\drivers\peripheral\gpio/cy_gpio.h **** #define CY_GPIO_SIO_ODD_PIN_MASK               (0x00FEUL) /**< SIO pin pair selection mask */
 247:Generated_Source\PSoC6\pdl\drivers\peripheral\gpio/cy_gpio.h **** #define CY_GPIO_SIO_PIN_MASK                   (0x00FFUL) /**< SIO pin pair mask */
 248:Generated_Source\PSoC6\pdl\drivers\peripheral\gpio/cy_gpio.h **** 
 249:Generated_Source\PSoC6\pdl\drivers\peripheral\gpio/cy_gpio.h **** /* Offsets */
 250:Generated_Source\PSoC6\pdl\drivers\peripheral\gpio/cy_gpio.h **** #define CY_GPIO_HSIOM_OFFSET                   (3UL)      /**< Offset for HSIOM */
 251:Generated_Source\PSoC6\pdl\drivers\peripheral\gpio/cy_gpio.h **** #define CY_GPIO_DRIVE_MODE_OFFSET              (2UL)      /**< Offset for Drive mode */
 252:Generated_Source\PSoC6\pdl\drivers\peripheral\gpio/cy_gpio.h **** #define CY_GPIO_INBUF_OFFSET                   (3UL)      /**< Offset for input buffer */
 253:Generated_Source\PSoC6\pdl\drivers\peripheral\gpio/cy_gpio.h **** #define CY_GPIO_CFG_OUT_DRIVE_OFFSET           (16UL)     /**< Offset for drive strength */
 254:Generated_Source\PSoC6\pdl\drivers\peripheral\gpio/cy_gpio.h **** #define CY_GPIO_INTR_CFG_OFFSET                (1UL)      /**< Offset for interrupt config */
 255:Generated_Source\PSoC6\pdl\drivers\peripheral\gpio/cy_gpio.h **** #define CY_GPIO_INTR_FILT_OFFSET               (18UL)     /**< Offset for filtered interrupt config
 256:Generated_Source\PSoC6\pdl\drivers\peripheral\gpio/cy_gpio.h **** #define CY_GPIO_CFG_SIO_OFFSET                 (2UL)      /**< Offset for SIO config */
 257:Generated_Source\PSoC6\pdl\drivers\peripheral\gpio/cy_gpio.h **** 
 258:Generated_Source\PSoC6\pdl\drivers\peripheral\gpio/cy_gpio.h **** /* Parameter validation constants */
 259:Generated_Source\PSoC6\pdl\drivers\peripheral\gpio/cy_gpio.h **** #define CY_GPIO_PINS_MAX                       (8UL)      /**< Number of pins in the port */
 260:Generated_Source\PSoC6\pdl\drivers\peripheral\gpio/cy_gpio.h **** #define CY_GPIO_PRT_PINS_MASK                  (0x0000000FFUL)
 261:Generated_Source\PSoC6\pdl\drivers\peripheral\gpio/cy_gpio.h **** #define CY_GPIO_PRT_INTR_CFG_EDGE_SEL_MASK     (GPIO_PRT_INTR_CFG_EDGE0_SEL_Msk | \
 262:Generated_Source\PSoC6\pdl\drivers\peripheral\gpio/cy_gpio.h ****                                                 GPIO_PRT_INTR_CFG_EDGE1_SEL_Msk | \
 263:Generated_Source\PSoC6\pdl\drivers\peripheral\gpio/cy_gpio.h ****                                                 GPIO_PRT_INTR_CFG_EDGE2_SEL_Msk | \
 264:Generated_Source\PSoC6\pdl\drivers\peripheral\gpio/cy_gpio.h ****                                                 GPIO_PRT_INTR_CFG_EDGE3_SEL_Msk | \
 265:Generated_Source\PSoC6\pdl\drivers\peripheral\gpio/cy_gpio.h ****                                                 GPIO_PRT_INTR_CFG_EDGE4_SEL_Msk | \
 266:Generated_Source\PSoC6\pdl\drivers\peripheral\gpio/cy_gpio.h ****                                                 GPIO_PRT_INTR_CFG_EDGE5_SEL_Msk | \
 267:Generated_Source\PSoC6\pdl\drivers\peripheral\gpio/cy_gpio.h ****                                                 GPIO_PRT_INTR_CFG_EDGE6_SEL_Msk | \
 268:Generated_Source\PSoC6\pdl\drivers\peripheral\gpio/cy_gpio.h ****                                                 GPIO_PRT_INTR_CFG_EDGE7_SEL_Msk)            
 269:Generated_Source\PSoC6\pdl\drivers\peripheral\gpio/cy_gpio.h **** #define CY_GPIO_PRT_INTR_CFG_RANGE_MASK        (CY_GPIO_PRT_INTR_CFG_EDGE_SEL_MASK | \
 270:Generated_Source\PSoC6\pdl\drivers\peripheral\gpio/cy_gpio.h ****                                                 GPIO_PRT_INTR_CFG_FLT_EDGE_SEL_Msk | \
 271:Generated_Source\PSoC6\pdl\drivers\peripheral\gpio/cy_gpio.h ****                                                 GPIO_PRT_INTR_CFG_FLT_SEL_Msk)
 272:Generated_Source\PSoC6\pdl\drivers\peripheral\gpio/cy_gpio.h **** #define CY_GPIO_PRT_INT_MASK_MASK              (0x0000001FFUL)
 273:Generated_Source\PSoC6\pdl\drivers\peripheral\gpio/cy_gpio.h **** #define CY_GPIO_PRT_SEL_ACTIVE_MASK            (0x1FFFFFFFUL)
 274:Generated_Source\PSoC6\pdl\drivers\peripheral\gpio/cy_gpio.h **** 
 275:Generated_Source\PSoC6\pdl\drivers\peripheral\gpio/cy_gpio.h **** /* Parameter validation macros */
 276:Generated_Source\PSoC6\pdl\drivers\peripheral\gpio/cy_gpio.h **** #define CY_GPIO_IS_PIN_VALID(pinNum)           (CY_GPIO_PINS_MAX > (pinNum))
 277:Generated_Source\PSoC6\pdl\drivers\peripheral\gpio/cy_gpio.h **** #define CY_GPIO_IS_FILTER_PIN_VALID(pinNum)    (CY_GPIO_PINS_MAX >= (pinNum))
 278:Generated_Source\PSoC6\pdl\drivers\peripheral\gpio/cy_gpio.h **** #define CY_GPIO_IS_VALUE_VALID(outVal)         (1UL >= (outVal))
 279:Generated_Source\PSoC6\pdl\drivers\peripheral\gpio/cy_gpio.h **** #define CY_GPIO_IS_DM_VALID(driveMode)         (0U == ((driveMode) & (uint32_t)~CY_GPIO_CFG_DM_MASK
 280:Generated_Source\PSoC6\pdl\drivers\peripheral\gpio/cy_gpio.h **** 
 281:Generated_Source\PSoC6\pdl\drivers\peripheral\gpio/cy_gpio.h **** #define CY_GPIO_IS_HSIOM_VALID(hsiom)          (0U == ((hsiom) & (uint32_t)~CY_GPIO_HSIOM_MASK))
 282:Generated_Source\PSoC6\pdl\drivers\peripheral\gpio/cy_gpio.h **** 
 283:Generated_Source\PSoC6\pdl\drivers\peripheral\gpio/cy_gpio.h **** #define CY_GPIO_IS_INT_EDGE_VALID(intEdge)     ((CY_GPIO_INTR_DISABLE  == (intEdge)) || \
 284:Generated_Source\PSoC6\pdl\drivers\peripheral\gpio/cy_gpio.h ****                                                 (CY_GPIO_INTR_RISING   == (intEdge)) || \
 285:Generated_Source\PSoC6\pdl\drivers\peripheral\gpio/cy_gpio.h ****                                                 (CY_GPIO_INTR_FALLING  == (intEdge)) || \
 286:Generated_Source\PSoC6\pdl\drivers\peripheral\gpio/cy_gpio.h ****                                                 (CY_GPIO_INTR_BOTH     == (intEdge)))
 287:Generated_Source\PSoC6\pdl\drivers\peripheral\gpio/cy_gpio.h **** 
 288:Generated_Source\PSoC6\pdl\drivers\peripheral\gpio/cy_gpio.h **** #define CY_GPIO_IS_DRIVE_SEL_VALID(driveSel)   ((CY_GPIO_DRIVE_FULL    == (driveSel)) || \
 289:Generated_Source\PSoC6\pdl\drivers\peripheral\gpio/cy_gpio.h ****                                                 (CY_GPIO_DRIVE_1_2     == (driveSel)) || \
 290:Generated_Source\PSoC6\pdl\drivers\peripheral\gpio/cy_gpio.h ****                                                 (CY_GPIO_DRIVE_1_4     == (driveSel)) || \
 291:Generated_Source\PSoC6\pdl\drivers\peripheral\gpio/cy_gpio.h ****                                                 (CY_GPIO_DRIVE_1_8     == (driveSel)))
 292:Generated_Source\PSoC6\pdl\drivers\peripheral\gpio/cy_gpio.h **** 
 293:Generated_Source\PSoC6\pdl\drivers\peripheral\gpio/cy_gpio.h **** #define CY_GPIO_IS_VREF_SEL_VALID(vrefSel)     ((CY_SIO_VREF_PINREF    == (vrefSel)) || \
 294:Generated_Source\PSoC6\pdl\drivers\peripheral\gpio/cy_gpio.h ****                                                 (CY_SIO_VREF_1_2V      == (vrefSel)) || \
 295:Generated_Source\PSoC6\pdl\drivers\peripheral\gpio/cy_gpio.h ****                                                 (CY_SIO_VREF_AMUX_A    == (vrefSel)) || \
ARM GAS  C:\Users\salaz\AppData\Local\Temp\ccgHiAyq.s 			page 11


 296:Generated_Source\PSoC6\pdl\drivers\peripheral\gpio/cy_gpio.h ****                                                 (CY_SIO_VREF_AMUX_B    == (vrefSel)))
 297:Generated_Source\PSoC6\pdl\drivers\peripheral\gpio/cy_gpio.h **** 
 298:Generated_Source\PSoC6\pdl\drivers\peripheral\gpio/cy_gpio.h **** #define CY_GPIO_IS_VOH_SEL_VALID(vrefSel)      ((CY_SIO_VOH_1_00       == (vrefSel)) || \
 299:Generated_Source\PSoC6\pdl\drivers\peripheral\gpio/cy_gpio.h ****                                                 (CY_SIO_VOH_1_25       == (vrefSel)) || \
 300:Generated_Source\PSoC6\pdl\drivers\peripheral\gpio/cy_gpio.h ****                                                 (CY_SIO_VOH_1_49       == (vrefSel)) || \
 301:Generated_Source\PSoC6\pdl\drivers\peripheral\gpio/cy_gpio.h ****                                                 (CY_SIO_VOH_1_67       == (vrefSel)) || \
 302:Generated_Source\PSoC6\pdl\drivers\peripheral\gpio/cy_gpio.h ****                                                 (CY_SIO_VOH_2_08       == (vrefSel)) || \
 303:Generated_Source\PSoC6\pdl\drivers\peripheral\gpio/cy_gpio.h ****                                                 (CY_SIO_VOH_2_50       == (vrefSel)) || \
 304:Generated_Source\PSoC6\pdl\drivers\peripheral\gpio/cy_gpio.h ****                                                 (CY_SIO_VOH_2_78       == (vrefSel)) || \
 305:Generated_Source\PSoC6\pdl\drivers\peripheral\gpio/cy_gpio.h ****                                                 (CY_SIO_VOH_4_16       == (vrefSel)))
 306:Generated_Source\PSoC6\pdl\drivers\peripheral\gpio/cy_gpio.h ****                    
 307:Generated_Source\PSoC6\pdl\drivers\peripheral\gpio/cy_gpio.h **** #define CY_GPIO_IS_PIN_BIT_VALID(pinBit)       (0U == ((pinBit) & (uint32_t)~CY_GPIO_PRT_PINS_MASK)
 308:Generated_Source\PSoC6\pdl\drivers\peripheral\gpio/cy_gpio.h **** #define CY_GPIO_IS_INTR_CFG_VALID(intrCfg)     (0U == ((intrCfg) & (uint32_t)~CY_GPIO_PRT_INTR_CFG_
 309:Generated_Source\PSoC6\pdl\drivers\peripheral\gpio/cy_gpio.h **** #define CY_GPIO_IS_INTR_MASK_VALID(intrMask)   (0U == ((intrMask) & (uint32_t)~CY_GPIO_PRT_INT_MASK
 310:Generated_Source\PSoC6\pdl\drivers\peripheral\gpio/cy_gpio.h **** #define CY_GPIO_IS_SEL_ACT_VALID(selActive)    (0U == ((selActive) & (uint32_t)~CY_GPIO_PRT_SEL_ACT
 311:Generated_Source\PSoC6\pdl\drivers\peripheral\gpio/cy_gpio.h **** 
 312:Generated_Source\PSoC6\pdl\drivers\peripheral\gpio/cy_gpio.h **** /** \endcond */
 313:Generated_Source\PSoC6\pdl\drivers\peripheral\gpio/cy_gpio.h **** 
 314:Generated_Source\PSoC6\pdl\drivers\peripheral\gpio/cy_gpio.h **** 
 315:Generated_Source\PSoC6\pdl\drivers\peripheral\gpio/cy_gpio.h **** /***************************************
 316:Generated_Source\PSoC6\pdl\drivers\peripheral\gpio/cy_gpio.h **** *        Function Constants
 317:Generated_Source\PSoC6\pdl\drivers\peripheral\gpio/cy_gpio.h **** ***************************************/
 318:Generated_Source\PSoC6\pdl\drivers\peripheral\gpio/cy_gpio.h **** 
 319:Generated_Source\PSoC6\pdl\drivers\peripheral\gpio/cy_gpio.h **** /**
 320:Generated_Source\PSoC6\pdl\drivers\peripheral\gpio/cy_gpio.h **** * \addtogroup group_gpio_macros
 321:Generated_Source\PSoC6\pdl\drivers\peripheral\gpio/cy_gpio.h **** * \{
 322:Generated_Source\PSoC6\pdl\drivers\peripheral\gpio/cy_gpio.h **** */
 323:Generated_Source\PSoC6\pdl\drivers\peripheral\gpio/cy_gpio.h **** 
 324:Generated_Source\PSoC6\pdl\drivers\peripheral\gpio/cy_gpio.h **** /**
 325:Generated_Source\PSoC6\pdl\drivers\peripheral\gpio/cy_gpio.h **** * \defgroup group_gpio_driveModes Pin drive mode
 326:Generated_Source\PSoC6\pdl\drivers\peripheral\gpio/cy_gpio.h **** * \{
 327:Generated_Source\PSoC6\pdl\drivers\peripheral\gpio/cy_gpio.h **** * Constants to be used for setting the drive mode of the pin.
 328:Generated_Source\PSoC6\pdl\drivers\peripheral\gpio/cy_gpio.h **** */
 329:Generated_Source\PSoC6\pdl\drivers\peripheral\gpio/cy_gpio.h **** #define CY_GPIO_DM_ANALOG                      (0x00UL) /**< \brief Analog High-Z. Input buffer off
 330:Generated_Source\PSoC6\pdl\drivers\peripheral\gpio/cy_gpio.h **** #define CY_GPIO_DM_PULLUP_IN_OFF               (0x02UL) /**< \brief Resistive Pull-Up. Input buffer
 331:Generated_Source\PSoC6\pdl\drivers\peripheral\gpio/cy_gpio.h **** #define CY_GPIO_DM_PULLDOWN_IN_OFF             (0x03UL) /**< \brief Resistive Pull-Down. Input buff
 332:Generated_Source\PSoC6\pdl\drivers\peripheral\gpio/cy_gpio.h **** #define CY_GPIO_DM_OD_DRIVESLOW_IN_OFF         (0x04UL) /**< \brief Open Drain, Drives Low. Input b
 333:Generated_Source\PSoC6\pdl\drivers\peripheral\gpio/cy_gpio.h **** #define CY_GPIO_DM_OD_DRIVESHIGH_IN_OFF        (0x05UL) /**< \brief Open Drain, Drives High. Input 
 334:Generated_Source\PSoC6\pdl\drivers\peripheral\gpio/cy_gpio.h **** #define CY_GPIO_DM_STRONG_IN_OFF               (0x06UL) /**< \brief Strong Drive. Input buffer off 
 335:Generated_Source\PSoC6\pdl\drivers\peripheral\gpio/cy_gpio.h **** #define CY_GPIO_DM_PULLUP_DOWN_IN_OFF          (0x07UL) /**< \brief Resistive Pull-Up/Down. Input b
 336:Generated_Source\PSoC6\pdl\drivers\peripheral\gpio/cy_gpio.h **** #define CY_GPIO_DM_HIGHZ                       (0x08UL) /**< \brief Digital High-Z. Input buffer on
 337:Generated_Source\PSoC6\pdl\drivers\peripheral\gpio/cy_gpio.h **** #define CY_GPIO_DM_PULLUP                      (0x0AUL) /**< \brief Resistive Pull-Up. Input buffer
 338:Generated_Source\PSoC6\pdl\drivers\peripheral\gpio/cy_gpio.h **** #define CY_GPIO_DM_PULLDOWN                    (0x0BUL) /**< \brief Resistive Pull-Down. Input buff
 339:Generated_Source\PSoC6\pdl\drivers\peripheral\gpio/cy_gpio.h **** #define CY_GPIO_DM_OD_DRIVESLOW                (0x0CUL) /**< \brief Open Drain, Drives Low. Input b
 340:Generated_Source\PSoC6\pdl\drivers\peripheral\gpio/cy_gpio.h **** #define CY_GPIO_DM_OD_DRIVESHIGH               (0x0DUL) /**< \brief Open Drain, Drives High. Input 
 341:Generated_Source\PSoC6\pdl\drivers\peripheral\gpio/cy_gpio.h **** #define CY_GPIO_DM_STRONG                      (0x0EUL) /**< \brief Strong Drive. Input buffer on *
 342:Generated_Source\PSoC6\pdl\drivers\peripheral\gpio/cy_gpio.h **** #define CY_GPIO_DM_PULLUP_DOWN                 (0x0FUL) /**< \brief Resistive Pull-Up/Down. Input b
 343:Generated_Source\PSoC6\pdl\drivers\peripheral\gpio/cy_gpio.h **** /** \} */
 344:Generated_Source\PSoC6\pdl\drivers\peripheral\gpio/cy_gpio.h **** 
 345:Generated_Source\PSoC6\pdl\drivers\peripheral\gpio/cy_gpio.h **** /**
 346:Generated_Source\PSoC6\pdl\drivers\peripheral\gpio/cy_gpio.h **** * \defgroup group_gpio_vtrip Voltage trip mode
 347:Generated_Source\PSoC6\pdl\drivers\peripheral\gpio/cy_gpio.h **** * \{
 348:Generated_Source\PSoC6\pdl\drivers\peripheral\gpio/cy_gpio.h **** * Constants to be used for setting the voltage trip type on the pin.
 349:Generated_Source\PSoC6\pdl\drivers\peripheral\gpio/cy_gpio.h **** */
 350:Generated_Source\PSoC6\pdl\drivers\peripheral\gpio/cy_gpio.h **** #define CY_GPIO_VTRIP_CMOS                     (0x00UL) /**< \brief Input buffer compatible with CM
 351:Generated_Source\PSoC6\pdl\drivers\peripheral\gpio/cy_gpio.h **** #define CY_GPIO_VTRIP_TTL                      (0x01UL) /**< \brief Input buffer compatible with TT
 352:Generated_Source\PSoC6\pdl\drivers\peripheral\gpio/cy_gpio.h **** /** \} */
ARM GAS  C:\Users\salaz\AppData\Local\Temp\ccgHiAyq.s 			page 12


 353:Generated_Source\PSoC6\pdl\drivers\peripheral\gpio/cy_gpio.h **** 
 354:Generated_Source\PSoC6\pdl\drivers\peripheral\gpio/cy_gpio.h **** /**
 355:Generated_Source\PSoC6\pdl\drivers\peripheral\gpio/cy_gpio.h **** * \defgroup group_gpio_slewRate Slew Rate Mode
 356:Generated_Source\PSoC6\pdl\drivers\peripheral\gpio/cy_gpio.h **** * \{
 357:Generated_Source\PSoC6\pdl\drivers\peripheral\gpio/cy_gpio.h **** * Constants to be used for setting the slew rate of the pin.
 358:Generated_Source\PSoC6\pdl\drivers\peripheral\gpio/cy_gpio.h **** */
 359:Generated_Source\PSoC6\pdl\drivers\peripheral\gpio/cy_gpio.h **** #define CY_GPIO_SLEW_FAST                      (0x00UL) /**< \brief Fast slew rate */
 360:Generated_Source\PSoC6\pdl\drivers\peripheral\gpio/cy_gpio.h **** #define CY_GPIO_SLEW_SLOW                      (0x01UL) /**< \brief Slow slew rate */
 361:Generated_Source\PSoC6\pdl\drivers\peripheral\gpio/cy_gpio.h **** /** \} */
 362:Generated_Source\PSoC6\pdl\drivers\peripheral\gpio/cy_gpio.h **** 
 363:Generated_Source\PSoC6\pdl\drivers\peripheral\gpio/cy_gpio.h **** /**
 364:Generated_Source\PSoC6\pdl\drivers\peripheral\gpio/cy_gpio.h **** * \defgroup group_gpio_driveStrength Pin drive strength
 365:Generated_Source\PSoC6\pdl\drivers\peripheral\gpio/cy_gpio.h **** * \{
 366:Generated_Source\PSoC6\pdl\drivers\peripheral\gpio/cy_gpio.h **** * Constants to be used for setting the drive strength of the pin.
 367:Generated_Source\PSoC6\pdl\drivers\peripheral\gpio/cy_gpio.h **** */
 368:Generated_Source\PSoC6\pdl\drivers\peripheral\gpio/cy_gpio.h **** #define CY_GPIO_DRIVE_FULL                     (0x00UL) /**< \brief Full drive strength: Max drive 
 369:Generated_Source\PSoC6\pdl\drivers\peripheral\gpio/cy_gpio.h **** #define CY_GPIO_DRIVE_1_2                      (0x01UL) /**< \brief 1/2 drive strength: 1/2 drive c
 370:Generated_Source\PSoC6\pdl\drivers\peripheral\gpio/cy_gpio.h **** #define CY_GPIO_DRIVE_1_4                      (0x02UL) /**< \brief 1/4 drive strength: 1/4 drive c
 371:Generated_Source\PSoC6\pdl\drivers\peripheral\gpio/cy_gpio.h **** #define CY_GPIO_DRIVE_1_8                      (0x03UL) /**< \brief 1/8 drive strength: 1/8 drive c
 372:Generated_Source\PSoC6\pdl\drivers\peripheral\gpio/cy_gpio.h **** /** \} */
 373:Generated_Source\PSoC6\pdl\drivers\peripheral\gpio/cy_gpio.h **** 
 374:Generated_Source\PSoC6\pdl\drivers\peripheral\gpio/cy_gpio.h **** /**
 375:Generated_Source\PSoC6\pdl\drivers\peripheral\gpio/cy_gpio.h **** * \defgroup group_gpio_interruptTrigger Interrupt trigger type
 376:Generated_Source\PSoC6\pdl\drivers\peripheral\gpio/cy_gpio.h **** * \{
 377:Generated_Source\PSoC6\pdl\drivers\peripheral\gpio/cy_gpio.h **** * Constants to be used for setting the interrupt trigger type on the pin.
 378:Generated_Source\PSoC6\pdl\drivers\peripheral\gpio/cy_gpio.h **** */
 379:Generated_Source\PSoC6\pdl\drivers\peripheral\gpio/cy_gpio.h **** #define CY_GPIO_INTR_DISABLE                   (0x00UL) /**< \brief Disable the pin interrupt gener
 380:Generated_Source\PSoC6\pdl\drivers\peripheral\gpio/cy_gpio.h **** #define CY_GPIO_INTR_RISING                    (0x01UL) /**< \brief Rising-Edge interrupt */
 381:Generated_Source\PSoC6\pdl\drivers\peripheral\gpio/cy_gpio.h **** #define CY_GPIO_INTR_FALLING                   (0x02UL) /**< \brief Falling-Edge interrupt */
 382:Generated_Source\PSoC6\pdl\drivers\peripheral\gpio/cy_gpio.h **** #define CY_GPIO_INTR_BOTH                      (0x03UL) /**< \brief Both-Edge interrupt */
 383:Generated_Source\PSoC6\pdl\drivers\peripheral\gpio/cy_gpio.h **** /** \} */
 384:Generated_Source\PSoC6\pdl\drivers\peripheral\gpio/cy_gpio.h **** 
 385:Generated_Source\PSoC6\pdl\drivers\peripheral\gpio/cy_gpio.h **** /**
 386:Generated_Source\PSoC6\pdl\drivers\peripheral\gpio/cy_gpio.h **** * \defgroup group_gpio_sioVreg SIO output buffer mode
 387:Generated_Source\PSoC6\pdl\drivers\peripheral\gpio/cy_gpio.h **** * \{
 388:Generated_Source\PSoC6\pdl\drivers\peripheral\gpio/cy_gpio.h **** * Constants to be used for setting the SIO output buffer mode on the pin.
 389:Generated_Source\PSoC6\pdl\drivers\peripheral\gpio/cy_gpio.h **** */
 390:Generated_Source\PSoC6\pdl\drivers\peripheral\gpio/cy_gpio.h **** #define CY_SIO_VREG_UNREGULATED                (0x00UL) /**< \brief Unregulated output buffer */
 391:Generated_Source\PSoC6\pdl\drivers\peripheral\gpio/cy_gpio.h **** #define CY_SIO_VREG_REGULATED                  (0x01UL) /**< \brief Regulated output buffer */
 392:Generated_Source\PSoC6\pdl\drivers\peripheral\gpio/cy_gpio.h **** /** \} */
 393:Generated_Source\PSoC6\pdl\drivers\peripheral\gpio/cy_gpio.h **** 
 394:Generated_Source\PSoC6\pdl\drivers\peripheral\gpio/cy_gpio.h **** /**
 395:Generated_Source\PSoC6\pdl\drivers\peripheral\gpio/cy_gpio.h **** * \defgroup group_gpio_sioIbuf SIO input buffer mode
 396:Generated_Source\PSoC6\pdl\drivers\peripheral\gpio/cy_gpio.h **** * \{
 397:Generated_Source\PSoC6\pdl\drivers\peripheral\gpio/cy_gpio.h **** * Constants to be used for setting the SIO input buffer mode on the pin.
 398:Generated_Source\PSoC6\pdl\drivers\peripheral\gpio/cy_gpio.h **** */
 399:Generated_Source\PSoC6\pdl\drivers\peripheral\gpio/cy_gpio.h **** #define CY_SIO_IBUF_SINGLEENDED                (0x00UL) /**< \brief Single ended input buffer */
 400:Generated_Source\PSoC6\pdl\drivers\peripheral\gpio/cy_gpio.h **** #define CY_SIO_IBUF_DIFFERENTIAL               (0x01UL) /**< \brief Differential input buffer */
 401:Generated_Source\PSoC6\pdl\drivers\peripheral\gpio/cy_gpio.h **** /** \} */
 402:Generated_Source\PSoC6\pdl\drivers\peripheral\gpio/cy_gpio.h **** 
 403:Generated_Source\PSoC6\pdl\drivers\peripheral\gpio/cy_gpio.h **** /**
 404:Generated_Source\PSoC6\pdl\drivers\peripheral\gpio/cy_gpio.h **** * \defgroup group_gpio_sioVtrip SIO input buffer trip-point
 405:Generated_Source\PSoC6\pdl\drivers\peripheral\gpio/cy_gpio.h **** * \{
 406:Generated_Source\PSoC6\pdl\drivers\peripheral\gpio/cy_gpio.h **** * Constants to be used for setting the SIO input buffer trip-point of the pin.
 407:Generated_Source\PSoC6\pdl\drivers\peripheral\gpio/cy_gpio.h **** */
 408:Generated_Source\PSoC6\pdl\drivers\peripheral\gpio/cy_gpio.h **** #define CY_SIO_VTRIP_CMOS                      (0x00UL) /**< \brief CMOS input buffer (single-ended
 409:Generated_Source\PSoC6\pdl\drivers\peripheral\gpio/cy_gpio.h **** #define CY_SIO_VTRIP_TTL                       (0x01UL) /**< \brief TTL input buffer (single-ended)
ARM GAS  C:\Users\salaz\AppData\Local\Temp\ccgHiAyq.s 			page 13


 410:Generated_Source\PSoC6\pdl\drivers\peripheral\gpio/cy_gpio.h **** #define CY_SIO_VTRIP_0_5VDDIO_0_5VOH           (0x00UL) /**< \brief 0.5xVddio or 0.5xVoh (different
 411:Generated_Source\PSoC6\pdl\drivers\peripheral\gpio/cy_gpio.h **** #define CY_SIO_VTRIP_0_4VDDIO_1_0VREF          (0x01UL) /**< \brief 0.4xVddio or 0.4xVoh (different
 412:Generated_Source\PSoC6\pdl\drivers\peripheral\gpio/cy_gpio.h **** /** \} */
 413:Generated_Source\PSoC6\pdl\drivers\peripheral\gpio/cy_gpio.h **** 
 414:Generated_Source\PSoC6\pdl\drivers\peripheral\gpio/cy_gpio.h **** /**
 415:Generated_Source\PSoC6\pdl\drivers\peripheral\gpio/cy_gpio.h **** * \defgroup group_gpio_sioVref SIO reference voltage for input buffer trip-point
 416:Generated_Source\PSoC6\pdl\drivers\peripheral\gpio/cy_gpio.h **** * \{
 417:Generated_Source\PSoC6\pdl\drivers\peripheral\gpio/cy_gpio.h **** * Constants to be used for setting the reference voltage of SIO input buffer trip-point.
 418:Generated_Source\PSoC6\pdl\drivers\peripheral\gpio/cy_gpio.h **** */
 419:Generated_Source\PSoC6\pdl\drivers\peripheral\gpio/cy_gpio.h **** #define CY_SIO_VREF_PINREF                     (0x00UL) /**< \brief Vref from analog pin */
 420:Generated_Source\PSoC6\pdl\drivers\peripheral\gpio/cy_gpio.h **** #define CY_SIO_VREF_1_2V                       (0x01UL) /**< \brief Vref from internal 1.2V referen
 421:Generated_Source\PSoC6\pdl\drivers\peripheral\gpio/cy_gpio.h **** #define CY_SIO_VREF_AMUX_A                     (0x02UL) /**< \brief Vref from AMUXBUS_A */
 422:Generated_Source\PSoC6\pdl\drivers\peripheral\gpio/cy_gpio.h **** #define CY_SIO_VREF_AMUX_B                     (0x03UL) /**< \brief Vref from AMUXBUS_B */
 423:Generated_Source\PSoC6\pdl\drivers\peripheral\gpio/cy_gpio.h **** /** \} */
 424:Generated_Source\PSoC6\pdl\drivers\peripheral\gpio/cy_gpio.h **** 
 425:Generated_Source\PSoC6\pdl\drivers\peripheral\gpio/cy_gpio.h **** /**
 426:Generated_Source\PSoC6\pdl\drivers\peripheral\gpio/cy_gpio.h **** * \defgroup group_gpio_sioVoh Regulated output voltage level (Voh) and input buffer trip-point of a
 427:Generated_Source\PSoC6\pdl\drivers\peripheral\gpio/cy_gpio.h **** * \{
 428:Generated_Source\PSoC6\pdl\drivers\peripheral\gpio/cy_gpio.h **** * Constants to be used for setting the Voh and input buffer trip-point of an SIO pair
 429:Generated_Source\PSoC6\pdl\drivers\peripheral\gpio/cy_gpio.h **** */
 430:Generated_Source\PSoC6\pdl\drivers\peripheral\gpio/cy_gpio.h **** #define CY_SIO_VOH_1_00                        (0x00UL) /**< \brief Voh = 1 x Reference */
 431:Generated_Source\PSoC6\pdl\drivers\peripheral\gpio/cy_gpio.h **** #define CY_SIO_VOH_1_25                        (0x01UL) /**< \brief Voh = 1.25 x Reference */
 432:Generated_Source\PSoC6\pdl\drivers\peripheral\gpio/cy_gpio.h **** #define CY_SIO_VOH_1_49                        (0x02UL) /**< \brief Voh = 1.49 x Reference */
 433:Generated_Source\PSoC6\pdl\drivers\peripheral\gpio/cy_gpio.h **** #define CY_SIO_VOH_1_67                        (0x03UL) /**< \brief Voh = 1.67 x Reference */
 434:Generated_Source\PSoC6\pdl\drivers\peripheral\gpio/cy_gpio.h **** #define CY_SIO_VOH_2_08                        (0x04UL) /**< \brief Voh = 2.08 x Reference */
 435:Generated_Source\PSoC6\pdl\drivers\peripheral\gpio/cy_gpio.h **** #define CY_SIO_VOH_2_50                        (0x05UL) /**< \brief Voh = 2.50 x Reference */
 436:Generated_Source\PSoC6\pdl\drivers\peripheral\gpio/cy_gpio.h **** #define CY_SIO_VOH_2_78                        (0x06UL) /**< \brief Voh = 2.78 x Reference */
 437:Generated_Source\PSoC6\pdl\drivers\peripheral\gpio/cy_gpio.h **** #define CY_SIO_VOH_4_16                        (0x07UL) /**< \brief Voh = 4.16 x Reference */
 438:Generated_Source\PSoC6\pdl\drivers\peripheral\gpio/cy_gpio.h **** /** \} */
 439:Generated_Source\PSoC6\pdl\drivers\peripheral\gpio/cy_gpio.h **** 
 440:Generated_Source\PSoC6\pdl\drivers\peripheral\gpio/cy_gpio.h **** /** \} group_gpio_macros */
 441:Generated_Source\PSoC6\pdl\drivers\peripheral\gpio/cy_gpio.h **** 
 442:Generated_Source\PSoC6\pdl\drivers\peripheral\gpio/cy_gpio.h **** /***************************************
 443:Generated_Source\PSoC6\pdl\drivers\peripheral\gpio/cy_gpio.h **** *        Function Prototypes
 444:Generated_Source\PSoC6\pdl\drivers\peripheral\gpio/cy_gpio.h **** ***************************************/
 445:Generated_Source\PSoC6\pdl\drivers\peripheral\gpio/cy_gpio.h **** 
 446:Generated_Source\PSoC6\pdl\drivers\peripheral\gpio/cy_gpio.h **** /**
 447:Generated_Source\PSoC6\pdl\drivers\peripheral\gpio/cy_gpio.h **** * \addtogroup group_gpio_functions
 448:Generated_Source\PSoC6\pdl\drivers\peripheral\gpio/cy_gpio.h **** * \{
 449:Generated_Source\PSoC6\pdl\drivers\peripheral\gpio/cy_gpio.h **** */
 450:Generated_Source\PSoC6\pdl\drivers\peripheral\gpio/cy_gpio.h **** 
 451:Generated_Source\PSoC6\pdl\drivers\peripheral\gpio/cy_gpio.h **** /**
 452:Generated_Source\PSoC6\pdl\drivers\peripheral\gpio/cy_gpio.h **** * \addtogroup group_gpio_functions_init
 453:Generated_Source\PSoC6\pdl\drivers\peripheral\gpio/cy_gpio.h **** * \{
 454:Generated_Source\PSoC6\pdl\drivers\peripheral\gpio/cy_gpio.h **** */
 455:Generated_Source\PSoC6\pdl\drivers\peripheral\gpio/cy_gpio.h **** 
 456:Generated_Source\PSoC6\pdl\drivers\peripheral\gpio/cy_gpio.h **** cy_en_gpio_status_t Cy_GPIO_Pin_Init(GPIO_PRT_Type* base, uint32_t pinNum, const cy_stc_gpio_pin_co
 457:Generated_Source\PSoC6\pdl\drivers\peripheral\gpio/cy_gpio.h **** cy_en_gpio_status_t Cy_GPIO_Port_Init(GPIO_PRT_Type* base, const cy_stc_gpio_prt_config_t *config);
 458:Generated_Source\PSoC6\pdl\drivers\peripheral\gpio/cy_gpio.h **** void Cy_GPIO_Pin_FastInit(GPIO_PRT_Type* base, uint32_t pinNum, uint32_t driveMode, uint32_t outVal
 459:Generated_Source\PSoC6\pdl\drivers\peripheral\gpio/cy_gpio.h **** void Cy_GPIO_Port_Deinit(GPIO_PRT_Type* base);
 460:Generated_Source\PSoC6\pdl\drivers\peripheral\gpio/cy_gpio.h **** __STATIC_INLINE void Cy_GPIO_SetHSIOM(GPIO_PRT_Type* base, uint32_t pinNum, en_hsiom_sel_t value);
 461:Generated_Source\PSoC6\pdl\drivers\peripheral\gpio/cy_gpio.h **** __STATIC_INLINE en_hsiom_sel_t Cy_GPIO_GetHSIOM(GPIO_PRT_Type* base, uint32_t pinNum);
 462:Generated_Source\PSoC6\pdl\drivers\peripheral\gpio/cy_gpio.h **** __STATIC_INLINE GPIO_PRT_Type* Cy_GPIO_PortToAddr(uint32_t portNum);
 463:Generated_Source\PSoC6\pdl\drivers\peripheral\gpio/cy_gpio.h **** 
 464:Generated_Source\PSoC6\pdl\drivers\peripheral\gpio/cy_gpio.h **** /** \} group_gpio_functions_init */
 465:Generated_Source\PSoC6\pdl\drivers\peripheral\gpio/cy_gpio.h **** 
 466:Generated_Source\PSoC6\pdl\drivers\peripheral\gpio/cy_gpio.h **** /**
ARM GAS  C:\Users\salaz\AppData\Local\Temp\ccgHiAyq.s 			page 14


 467:Generated_Source\PSoC6\pdl\drivers\peripheral\gpio/cy_gpio.h **** * \addtogroup group_gpio_functions_gpio
 468:Generated_Source\PSoC6\pdl\drivers\peripheral\gpio/cy_gpio.h **** * \{
 469:Generated_Source\PSoC6\pdl\drivers\peripheral\gpio/cy_gpio.h **** */
 470:Generated_Source\PSoC6\pdl\drivers\peripheral\gpio/cy_gpio.h **** 
 471:Generated_Source\PSoC6\pdl\drivers\peripheral\gpio/cy_gpio.h **** __STATIC_INLINE uint32_t Cy_GPIO_Read(GPIO_PRT_Type* base, uint32_t pinNum);
 472:Generated_Source\PSoC6\pdl\drivers\peripheral\gpio/cy_gpio.h **** __STATIC_INLINE void Cy_GPIO_Write(GPIO_PRT_Type* base, uint32_t pinNum, uint32_t value);
 473:Generated_Source\PSoC6\pdl\drivers\peripheral\gpio/cy_gpio.h **** __STATIC_INLINE uint32_t Cy_GPIO_ReadOut(GPIO_PRT_Type* base, uint32_t pinNum);
 474:Generated_Source\PSoC6\pdl\drivers\peripheral\gpio/cy_gpio.h **** __STATIC_INLINE void Cy_GPIO_Set(GPIO_PRT_Type* base, uint32_t pinNum);
 475:Generated_Source\PSoC6\pdl\drivers\peripheral\gpio/cy_gpio.h **** __STATIC_INLINE void Cy_GPIO_Clr(GPIO_PRT_Type* base, uint32_t pinNum);
 476:Generated_Source\PSoC6\pdl\drivers\peripheral\gpio/cy_gpio.h **** __STATIC_INLINE void Cy_GPIO_Inv(GPIO_PRT_Type* base, uint32_t pinNum);
 477:Generated_Source\PSoC6\pdl\drivers\peripheral\gpio/cy_gpio.h **** __STATIC_INLINE void Cy_GPIO_SetDrivemode(GPIO_PRT_Type* base, uint32_t pinNum, uint32_t value);
 478:Generated_Source\PSoC6\pdl\drivers\peripheral\gpio/cy_gpio.h **** __STATIC_INLINE uint32_t Cy_GPIO_GetDrivemode(GPIO_PRT_Type* base, uint32_t pinNum);
 479:Generated_Source\PSoC6\pdl\drivers\peripheral\gpio/cy_gpio.h **** __STATIC_INLINE void Cy_GPIO_SetVtrip(GPIO_PRT_Type* base, uint32_t pinNum, uint32_t value);
 480:Generated_Source\PSoC6\pdl\drivers\peripheral\gpio/cy_gpio.h **** __STATIC_INLINE uint32_t Cy_GPIO_GetVtrip(GPIO_PRT_Type* base, uint32_t pinNum);
 481:Generated_Source\PSoC6\pdl\drivers\peripheral\gpio/cy_gpio.h **** __STATIC_INLINE void Cy_GPIO_SetSlewRate(GPIO_PRT_Type* base, uint32_t pinNum, uint32_t value);
 482:Generated_Source\PSoC6\pdl\drivers\peripheral\gpio/cy_gpio.h **** __STATIC_INLINE uint32_t Cy_GPIO_GetSlewRate(GPIO_PRT_Type* base, uint32_t pinNum);
 483:Generated_Source\PSoC6\pdl\drivers\peripheral\gpio/cy_gpio.h **** __STATIC_INLINE void Cy_GPIO_SetDriveSel(GPIO_PRT_Type* base, uint32_t pinNum, uint32_t value);
 484:Generated_Source\PSoC6\pdl\drivers\peripheral\gpio/cy_gpio.h **** __STATIC_INLINE uint32_t Cy_GPIO_GetDriveSel(GPIO_PRT_Type* base, uint32_t pinNum);
 485:Generated_Source\PSoC6\pdl\drivers\peripheral\gpio/cy_gpio.h **** 
 486:Generated_Source\PSoC6\pdl\drivers\peripheral\gpio/cy_gpio.h **** /** \} group_gpio_functions_gpio */
 487:Generated_Source\PSoC6\pdl\drivers\peripheral\gpio/cy_gpio.h **** 
 488:Generated_Source\PSoC6\pdl\drivers\peripheral\gpio/cy_gpio.h **** /**
 489:Generated_Source\PSoC6\pdl\drivers\peripheral\gpio/cy_gpio.h **** * \addtogroup group_gpio_functions_sio
 490:Generated_Source\PSoC6\pdl\drivers\peripheral\gpio/cy_gpio.h **** * \{
 491:Generated_Source\PSoC6\pdl\drivers\peripheral\gpio/cy_gpio.h **** */
 492:Generated_Source\PSoC6\pdl\drivers\peripheral\gpio/cy_gpio.h **** 
 493:Generated_Source\PSoC6\pdl\drivers\peripheral\gpio/cy_gpio.h **** __STATIC_INLINE void Cy_GPIO_SetVregEn(GPIO_PRT_Type* base, uint32_t pinNum, uint32_t value);
 494:Generated_Source\PSoC6\pdl\drivers\peripheral\gpio/cy_gpio.h **** __STATIC_INLINE uint32_t Cy_GPIO_GetVregEn(GPIO_PRT_Type* base, uint32_t pinNum);
 495:Generated_Source\PSoC6\pdl\drivers\peripheral\gpio/cy_gpio.h **** __STATIC_INLINE void Cy_GPIO_SetIbufMode(GPIO_PRT_Type* base, uint32_t pinNum, uint32_t value);
 496:Generated_Source\PSoC6\pdl\drivers\peripheral\gpio/cy_gpio.h **** __STATIC_INLINE uint32_t Cy_GPIO_GetIbufMode(GPIO_PRT_Type* base, uint32_t pinNum);
 497:Generated_Source\PSoC6\pdl\drivers\peripheral\gpio/cy_gpio.h **** __STATIC_INLINE void Cy_GPIO_SetVtripSel(GPIO_PRT_Type* base, uint32_t pinNum, uint32_t value);
 498:Generated_Source\PSoC6\pdl\drivers\peripheral\gpio/cy_gpio.h **** __STATIC_INLINE uint32_t Cy_GPIO_GetVtripSel(GPIO_PRT_Type* base, uint32_t pinNum);
 499:Generated_Source\PSoC6\pdl\drivers\peripheral\gpio/cy_gpio.h **** __STATIC_INLINE void Cy_GPIO_SetVrefSel(GPIO_PRT_Type* base, uint32_t pinNum, uint32_t value);
 500:Generated_Source\PSoC6\pdl\drivers\peripheral\gpio/cy_gpio.h **** __STATIC_INLINE uint32_t Cy_GPIO_GetVrefSel(GPIO_PRT_Type* base, uint32_t pinNum);
 501:Generated_Source\PSoC6\pdl\drivers\peripheral\gpio/cy_gpio.h **** __STATIC_INLINE void Cy_GPIO_SetVohSel(GPIO_PRT_Type* base, uint32_t pinNum, uint32_t value);
 502:Generated_Source\PSoC6\pdl\drivers\peripheral\gpio/cy_gpio.h **** __STATIC_INLINE uint32_t Cy_GPIO_GetVohSel(GPIO_PRT_Type* base, uint32_t pinNum);
 503:Generated_Source\PSoC6\pdl\drivers\peripheral\gpio/cy_gpio.h **** 
 504:Generated_Source\PSoC6\pdl\drivers\peripheral\gpio/cy_gpio.h **** /** \} group_gpio_functions_sio */
 505:Generated_Source\PSoC6\pdl\drivers\peripheral\gpio/cy_gpio.h **** 
 506:Generated_Source\PSoC6\pdl\drivers\peripheral\gpio/cy_gpio.h **** /**
 507:Generated_Source\PSoC6\pdl\drivers\peripheral\gpio/cy_gpio.h **** * \addtogroup group_gpio_functions_interrupt
 508:Generated_Source\PSoC6\pdl\drivers\peripheral\gpio/cy_gpio.h **** * \{
 509:Generated_Source\PSoC6\pdl\drivers\peripheral\gpio/cy_gpio.h **** */
 510:Generated_Source\PSoC6\pdl\drivers\peripheral\gpio/cy_gpio.h **** 
 511:Generated_Source\PSoC6\pdl\drivers\peripheral\gpio/cy_gpio.h **** __STATIC_INLINE uint32_t Cy_GPIO_GetInterruptStatus(GPIO_PRT_Type* base, uint32_t pinNum);
 512:Generated_Source\PSoC6\pdl\drivers\peripheral\gpio/cy_gpio.h **** __STATIC_INLINE void Cy_GPIO_ClearInterrupt(GPIO_PRT_Type* base, uint32_t pinNum);
 513:Generated_Source\PSoC6\pdl\drivers\peripheral\gpio/cy_gpio.h **** __STATIC_INLINE void Cy_GPIO_SetInterruptMask(GPIO_PRT_Type* base, uint32_t pinNum, uint32_t value)
 514:Generated_Source\PSoC6\pdl\drivers\peripheral\gpio/cy_gpio.h **** __STATIC_INLINE uint32_t Cy_GPIO_GetInterruptMask(GPIO_PRT_Type* base, uint32_t pinNum);
 515:Generated_Source\PSoC6\pdl\drivers\peripheral\gpio/cy_gpio.h **** __STATIC_INLINE uint32_t Cy_GPIO_GetInterruptStatusMasked(GPIO_PRT_Type* base, uint32_t pinNum);
 516:Generated_Source\PSoC6\pdl\drivers\peripheral\gpio/cy_gpio.h **** __STATIC_INLINE void Cy_GPIO_SetSwInterrupt(GPIO_PRT_Type* base, uint32_t pinNum);
 517:Generated_Source\PSoC6\pdl\drivers\peripheral\gpio/cy_gpio.h **** __STATIC_INLINE void Cy_GPIO_SetInterruptEdge(GPIO_PRT_Type* base, uint32_t pinNum, uint32_t value)
 518:Generated_Source\PSoC6\pdl\drivers\peripheral\gpio/cy_gpio.h **** __STATIC_INLINE uint32_t Cy_GPIO_GetInterruptEdge(GPIO_PRT_Type* base, uint32_t pinNum);
 519:Generated_Source\PSoC6\pdl\drivers\peripheral\gpio/cy_gpio.h **** __STATIC_INLINE void Cy_GPIO_SetFilter(GPIO_PRT_Type* base, uint32_t value);
 520:Generated_Source\PSoC6\pdl\drivers\peripheral\gpio/cy_gpio.h **** __STATIC_INLINE uint32_t Cy_GPIO_GetFilter(GPIO_PRT_Type* base);
 521:Generated_Source\PSoC6\pdl\drivers\peripheral\gpio/cy_gpio.h **** 
 522:Generated_Source\PSoC6\pdl\drivers\peripheral\gpio/cy_gpio.h **** #if (IOSS_GPIO_GPIO_PORT_NR_0_31 != 0) || defined (CY_DOXYGEN)
 523:Generated_Source\PSoC6\pdl\drivers\peripheral\gpio/cy_gpio.h **** __STATIC_INLINE uint32_t Cy_GPIO_GetInterruptCause0(void);
ARM GAS  C:\Users\salaz\AppData\Local\Temp\ccgHiAyq.s 			page 15


 524:Generated_Source\PSoC6\pdl\drivers\peripheral\gpio/cy_gpio.h **** #endif /* (IOSS_GPIO_GPIO_PORT_NR_0_31 != 0) */
 525:Generated_Source\PSoC6\pdl\drivers\peripheral\gpio/cy_gpio.h **** 
 526:Generated_Source\PSoC6\pdl\drivers\peripheral\gpio/cy_gpio.h **** #if (IOSS_GPIO_GPIO_PORT_NR_32_63 != 0) || defined (CY_DOXYGEN)
 527:Generated_Source\PSoC6\pdl\drivers\peripheral\gpio/cy_gpio.h **** __STATIC_INLINE uint32_t Cy_GPIO_GetInterruptCause1(void);
 528:Generated_Source\PSoC6\pdl\drivers\peripheral\gpio/cy_gpio.h **** #endif /* (IOSS_GPIO_GPIO_PORT_NR_32_63 != 0) */
 529:Generated_Source\PSoC6\pdl\drivers\peripheral\gpio/cy_gpio.h **** 
 530:Generated_Source\PSoC6\pdl\drivers\peripheral\gpio/cy_gpio.h **** #if (IOSS_GPIO_GPIO_PORT_NR_64_95 != 0) || defined (CY_DOXYGEN)
 531:Generated_Source\PSoC6\pdl\drivers\peripheral\gpio/cy_gpio.h **** __STATIC_INLINE uint32_t Cy_GPIO_GetInterruptCause2(void);
 532:Generated_Source\PSoC6\pdl\drivers\peripheral\gpio/cy_gpio.h **** #endif /* (IOSS_GPIO_GPIO_PORT_NR_64_95 != 0) */
 533:Generated_Source\PSoC6\pdl\drivers\peripheral\gpio/cy_gpio.h **** 
 534:Generated_Source\PSoC6\pdl\drivers\peripheral\gpio/cy_gpio.h **** #if (IOSS_GPIO_GPIO_PORT_NR_96_127 != 0) || defined (CY_DOXYGEN)
 535:Generated_Source\PSoC6\pdl\drivers\peripheral\gpio/cy_gpio.h **** __STATIC_INLINE uint32_t Cy_GPIO_GetInterruptCause3(void);
 536:Generated_Source\PSoC6\pdl\drivers\peripheral\gpio/cy_gpio.h **** #endif /* (IOSS_GPIO_GPIO_PORT_NR_96_127 != 0) */
 537:Generated_Source\PSoC6\pdl\drivers\peripheral\gpio/cy_gpio.h **** 
 538:Generated_Source\PSoC6\pdl\drivers\peripheral\gpio/cy_gpio.h **** /** \} group_gpio_functions_interrupt */
 539:Generated_Source\PSoC6\pdl\drivers\peripheral\gpio/cy_gpio.h **** 
 540:Generated_Source\PSoC6\pdl\drivers\peripheral\gpio/cy_gpio.h **** 
 541:Generated_Source\PSoC6\pdl\drivers\peripheral\gpio/cy_gpio.h **** /**
 542:Generated_Source\PSoC6\pdl\drivers\peripheral\gpio/cy_gpio.h **** * \addtogroup group_gpio_functions_init
 543:Generated_Source\PSoC6\pdl\drivers\peripheral\gpio/cy_gpio.h **** * \{
 544:Generated_Source\PSoC6\pdl\drivers\peripheral\gpio/cy_gpio.h **** */
 545:Generated_Source\PSoC6\pdl\drivers\peripheral\gpio/cy_gpio.h **** 
 546:Generated_Source\PSoC6\pdl\drivers\peripheral\gpio/cy_gpio.h **** /*******************************************************************************
 547:Generated_Source\PSoC6\pdl\drivers\peripheral\gpio/cy_gpio.h **** * Function Name: Cy_GPIO_SetHSIOM
 548:Generated_Source\PSoC6\pdl\drivers\peripheral\gpio/cy_gpio.h **** ****************************************************************************//**
 549:Generated_Source\PSoC6\pdl\drivers\peripheral\gpio/cy_gpio.h **** *
 550:Generated_Source\PSoC6\pdl\drivers\peripheral\gpio/cy_gpio.h **** * \brief Configures the HSIOM connection to the pin.
 551:Generated_Source\PSoC6\pdl\drivers\peripheral\gpio/cy_gpio.h **** *
 552:Generated_Source\PSoC6\pdl\drivers\peripheral\gpio/cy_gpio.h **** * Connects the specified High-Speed Input Output Multiplexer (HSIOM) selection
 553:Generated_Source\PSoC6\pdl\drivers\peripheral\gpio/cy_gpio.h **** * to the pin.
 554:Generated_Source\PSoC6\pdl\drivers\peripheral\gpio/cy_gpio.h **** *
 555:Generated_Source\PSoC6\pdl\drivers\peripheral\gpio/cy_gpio.h **** * \param base
 556:Generated_Source\PSoC6\pdl\drivers\peripheral\gpio/cy_gpio.h **** * Pointer to the pin's port register base address
 557:Generated_Source\PSoC6\pdl\drivers\peripheral\gpio/cy_gpio.h **** *
 558:Generated_Source\PSoC6\pdl\drivers\peripheral\gpio/cy_gpio.h **** * \param pinNum
 559:Generated_Source\PSoC6\pdl\drivers\peripheral\gpio/cy_gpio.h **** * Position of the pin bit-field within the port register
 560:Generated_Source\PSoC6\pdl\drivers\peripheral\gpio/cy_gpio.h **** *
 561:Generated_Source\PSoC6\pdl\drivers\peripheral\gpio/cy_gpio.h **** * \param value
 562:Generated_Source\PSoC6\pdl\drivers\peripheral\gpio/cy_gpio.h **** * HSIOM input selection
 563:Generated_Source\PSoC6\pdl\drivers\peripheral\gpio/cy_gpio.h **** *
 564:Generated_Source\PSoC6\pdl\drivers\peripheral\gpio/cy_gpio.h **** * \return
 565:Generated_Source\PSoC6\pdl\drivers\peripheral\gpio/cy_gpio.h **** * void
 566:Generated_Source\PSoC6\pdl\drivers\peripheral\gpio/cy_gpio.h **** *
 567:Generated_Source\PSoC6\pdl\drivers\peripheral\gpio/cy_gpio.h **** * \note 
 568:Generated_Source\PSoC6\pdl\drivers\peripheral\gpio/cy_gpio.h **** * This function modifies a port register in a read-modify-write operation. It is
 569:Generated_Source\PSoC6\pdl\drivers\peripheral\gpio/cy_gpio.h **** * not thread safe as the resource is shared among multiple pins on a port.
 570:Generated_Source\PSoC6\pdl\drivers\peripheral\gpio/cy_gpio.h **** *
 571:Generated_Source\PSoC6\pdl\drivers\peripheral\gpio/cy_gpio.h **** * \funcusage
 572:Generated_Source\PSoC6\pdl\drivers\peripheral\gpio/cy_gpio.h **** * \snippet gpio/gpio_v1_10_sut_01.cydsn/main_cm4.c snippet_Cy_GPIO_SetHSIOM
 573:Generated_Source\PSoC6\pdl\drivers\peripheral\gpio/cy_gpio.h **** *
 574:Generated_Source\PSoC6\pdl\drivers\peripheral\gpio/cy_gpio.h **** *******************************************************************************/
 575:Generated_Source\PSoC6\pdl\drivers\peripheral\gpio/cy_gpio.h **** __STATIC_INLINE void Cy_GPIO_SetHSIOM(GPIO_PRT_Type* base, uint32_t pinNum, en_hsiom_sel_t value)
 576:Generated_Source\PSoC6\pdl\drivers\peripheral\gpio/cy_gpio.h **** {
 577:Generated_Source\PSoC6\pdl\drivers\peripheral\gpio/cy_gpio.h ****     uint32_t portNum;
 578:Generated_Source\PSoC6\pdl\drivers\peripheral\gpio/cy_gpio.h ****     uint32_t tempReg;
 579:Generated_Source\PSoC6\pdl\drivers\peripheral\gpio/cy_gpio.h ****     HSIOM_PRT_Type* portAddrHSIOM;
 580:Generated_Source\PSoC6\pdl\drivers\peripheral\gpio/cy_gpio.h **** 
ARM GAS  C:\Users\salaz\AppData\Local\Temp\ccgHiAyq.s 			page 16


 581:Generated_Source\PSoC6\pdl\drivers\peripheral\gpio/cy_gpio.h ****     CY_ASSERT_L2(CY_GPIO_IS_PIN_VALID(pinNum));
 582:Generated_Source\PSoC6\pdl\drivers\peripheral\gpio/cy_gpio.h ****     CY_ASSERT_L2(CY_GPIO_IS_HSIOM_VALID(value));
 583:Generated_Source\PSoC6\pdl\drivers\peripheral\gpio/cy_gpio.h **** 
 584:Generated_Source\PSoC6\pdl\drivers\peripheral\gpio/cy_gpio.h ****     portNum = ((uint32_t)(base) - GPIO_BASE) / GPIO_PRT_SECTION_SIZE;
 585:Generated_Source\PSoC6\pdl\drivers\peripheral\gpio/cy_gpio.h ****     portAddrHSIOM = (HSIOM_PRT_Type*)(HSIOM_BASE + (HSIOM_PRT_SECTION_SIZE * portNum));
 586:Generated_Source\PSoC6\pdl\drivers\peripheral\gpio/cy_gpio.h **** 
 587:Generated_Source\PSoC6\pdl\drivers\peripheral\gpio/cy_gpio.h ****     if(pinNum < CY_GPIO_PRT_HALF)
 588:Generated_Source\PSoC6\pdl\drivers\peripheral\gpio/cy_gpio.h ****     {
 589:Generated_Source\PSoC6\pdl\drivers\peripheral\gpio/cy_gpio.h ****         tempReg = portAddrHSIOM->PORT_SEL0 & ~(CY_GPIO_HSIOM_MASK << (pinNum << CY_GPIO_HSIOM_OFFSE
 590:Generated_Source\PSoC6\pdl\drivers\peripheral\gpio/cy_gpio.h ****         portAddrHSIOM->PORT_SEL0 = tempReg | ((value & CY_GPIO_HSIOM_MASK) << (pinNum << CY_GPIO_HS
 591:Generated_Source\PSoC6\pdl\drivers\peripheral\gpio/cy_gpio.h ****     }
 592:Generated_Source\PSoC6\pdl\drivers\peripheral\gpio/cy_gpio.h ****     else
 593:Generated_Source\PSoC6\pdl\drivers\peripheral\gpio/cy_gpio.h ****     {
 594:Generated_Source\PSoC6\pdl\drivers\peripheral\gpio/cy_gpio.h ****         pinNum -= CY_GPIO_PRT_HALF;
 595:Generated_Source\PSoC6\pdl\drivers\peripheral\gpio/cy_gpio.h ****         tempReg = portAddrHSIOM->PORT_SEL1 & ~(CY_GPIO_HSIOM_MASK << (pinNum << CY_GPIO_HSIOM_OFFSE
 596:Generated_Source\PSoC6\pdl\drivers\peripheral\gpio/cy_gpio.h ****         portAddrHSIOM->PORT_SEL1 = tempReg | ((value & CY_GPIO_HSIOM_MASK) << (pinNum << CY_GPIO_HS
 597:Generated_Source\PSoC6\pdl\drivers\peripheral\gpio/cy_gpio.h ****     }
 598:Generated_Source\PSoC6\pdl\drivers\peripheral\gpio/cy_gpio.h **** }
 599:Generated_Source\PSoC6\pdl\drivers\peripheral\gpio/cy_gpio.h **** 
 600:Generated_Source\PSoC6\pdl\drivers\peripheral\gpio/cy_gpio.h **** 
 601:Generated_Source\PSoC6\pdl\drivers\peripheral\gpio/cy_gpio.h **** /*******************************************************************************
 602:Generated_Source\PSoC6\pdl\drivers\peripheral\gpio/cy_gpio.h **** * Function Name: Cy_GPIO_GetHSIOM
 603:Generated_Source\PSoC6\pdl\drivers\peripheral\gpio/cy_gpio.h **** ****************************************************************************//**
 604:Generated_Source\PSoC6\pdl\drivers\peripheral\gpio/cy_gpio.h **** *
 605:Generated_Source\PSoC6\pdl\drivers\peripheral\gpio/cy_gpio.h **** * \brief Returns the current HSIOM multiplexer connection to the pin.
 606:Generated_Source\PSoC6\pdl\drivers\peripheral\gpio/cy_gpio.h **** *
 607:Generated_Source\PSoC6\pdl\drivers\peripheral\gpio/cy_gpio.h **** * \param base
 608:Generated_Source\PSoC6\pdl\drivers\peripheral\gpio/cy_gpio.h **** * Pointer to the pin's port register base address
 609:Generated_Source\PSoC6\pdl\drivers\peripheral\gpio/cy_gpio.h **** *
 610:Generated_Source\PSoC6\pdl\drivers\peripheral\gpio/cy_gpio.h **** * \param pinNum
 611:Generated_Source\PSoC6\pdl\drivers\peripheral\gpio/cy_gpio.h **** * Position of the pin bit-field within the port register
 612:Generated_Source\PSoC6\pdl\drivers\peripheral\gpio/cy_gpio.h **** *
 613:Generated_Source\PSoC6\pdl\drivers\peripheral\gpio/cy_gpio.h **** * \return
 614:Generated_Source\PSoC6\pdl\drivers\peripheral\gpio/cy_gpio.h **** * HSIOM input selection
 615:Generated_Source\PSoC6\pdl\drivers\peripheral\gpio/cy_gpio.h **** *
 616:Generated_Source\PSoC6\pdl\drivers\peripheral\gpio/cy_gpio.h **** * \funcusage
 617:Generated_Source\PSoC6\pdl\drivers\peripheral\gpio/cy_gpio.h **** * \snippet gpio/gpio_v1_10_sut_01.cydsn/main_cm4.c snippet_Cy_GPIO_SetHSIOM
 618:Generated_Source\PSoC6\pdl\drivers\peripheral\gpio/cy_gpio.h **** *
 619:Generated_Source\PSoC6\pdl\drivers\peripheral\gpio/cy_gpio.h **** *******************************************************************************/
 620:Generated_Source\PSoC6\pdl\drivers\peripheral\gpio/cy_gpio.h **** __STATIC_INLINE en_hsiom_sel_t Cy_GPIO_GetHSIOM(GPIO_PRT_Type* base, uint32_t pinNum)
 621:Generated_Source\PSoC6\pdl\drivers\peripheral\gpio/cy_gpio.h **** {
 622:Generated_Source\PSoC6\pdl\drivers\peripheral\gpio/cy_gpio.h ****     uint32_t returnValue;
 623:Generated_Source\PSoC6\pdl\drivers\peripheral\gpio/cy_gpio.h ****     uint32_t portNum;
 624:Generated_Source\PSoC6\pdl\drivers\peripheral\gpio/cy_gpio.h ****     HSIOM_PRT_Type* portAddrHSIOM;
 625:Generated_Source\PSoC6\pdl\drivers\peripheral\gpio/cy_gpio.h ****     
 626:Generated_Source\PSoC6\pdl\drivers\peripheral\gpio/cy_gpio.h ****     CY_ASSERT_L2(CY_GPIO_IS_PIN_VALID(pinNum));
 627:Generated_Source\PSoC6\pdl\drivers\peripheral\gpio/cy_gpio.h **** 
 628:Generated_Source\PSoC6\pdl\drivers\peripheral\gpio/cy_gpio.h ****     portNum = ((uint32_t)(base) - GPIO_BASE) / GPIO_PRT_SECTION_SIZE;
 629:Generated_Source\PSoC6\pdl\drivers\peripheral\gpio/cy_gpio.h ****     portAddrHSIOM = (HSIOM_PRT_Type*)(HSIOM_BASE + (HSIOM_PRT_SECTION_SIZE * portNum));
 630:Generated_Source\PSoC6\pdl\drivers\peripheral\gpio/cy_gpio.h **** 
 631:Generated_Source\PSoC6\pdl\drivers\peripheral\gpio/cy_gpio.h ****     if(pinNum < CY_GPIO_PRT_HALF)
 632:Generated_Source\PSoC6\pdl\drivers\peripheral\gpio/cy_gpio.h ****     {
 633:Generated_Source\PSoC6\pdl\drivers\peripheral\gpio/cy_gpio.h ****         returnValue = (portAddrHSIOM->PORT_SEL0 >> (pinNum << CY_GPIO_HSIOM_OFFSET)) & CY_GPIO_HSIO
 634:Generated_Source\PSoC6\pdl\drivers\peripheral\gpio/cy_gpio.h ****     }
 635:Generated_Source\PSoC6\pdl\drivers\peripheral\gpio/cy_gpio.h ****     else
 636:Generated_Source\PSoC6\pdl\drivers\peripheral\gpio/cy_gpio.h ****     {
 637:Generated_Source\PSoC6\pdl\drivers\peripheral\gpio/cy_gpio.h ****         pinNum -= CY_GPIO_PRT_HALF;
ARM GAS  C:\Users\salaz\AppData\Local\Temp\ccgHiAyq.s 			page 17


 638:Generated_Source\PSoC6\pdl\drivers\peripheral\gpio/cy_gpio.h ****         returnValue = (portAddrHSIOM->PORT_SEL1 >> (pinNum << CY_GPIO_HSIOM_OFFSET)) & CY_GPIO_HSIO
 639:Generated_Source\PSoC6\pdl\drivers\peripheral\gpio/cy_gpio.h ****     }
 640:Generated_Source\PSoC6\pdl\drivers\peripheral\gpio/cy_gpio.h **** 
 641:Generated_Source\PSoC6\pdl\drivers\peripheral\gpio/cy_gpio.h ****     return (en_hsiom_sel_t)returnValue;
 642:Generated_Source\PSoC6\pdl\drivers\peripheral\gpio/cy_gpio.h **** }
 643:Generated_Source\PSoC6\pdl\drivers\peripheral\gpio/cy_gpio.h **** 
 644:Generated_Source\PSoC6\pdl\drivers\peripheral\gpio/cy_gpio.h **** 
 645:Generated_Source\PSoC6\pdl\drivers\peripheral\gpio/cy_gpio.h **** /*******************************************************************************
 646:Generated_Source\PSoC6\pdl\drivers\peripheral\gpio/cy_gpio.h **** * Function Name: Cy_GPIO_PortToAddr
 647:Generated_Source\PSoC6\pdl\drivers\peripheral\gpio/cy_gpio.h **** ****************************************************************************//**
 648:Generated_Source\PSoC6\pdl\drivers\peripheral\gpio/cy_gpio.h **** *
 649:Generated_Source\PSoC6\pdl\drivers\peripheral\gpio/cy_gpio.h **** * \brief Retrieves the port address based on the given port number.
 650:Generated_Source\PSoC6\pdl\drivers\peripheral\gpio/cy_gpio.h **** *
 651:Generated_Source\PSoC6\pdl\drivers\peripheral\gpio/cy_gpio.h **** * This is a helper function to calculate the port base address when given a port
 652:Generated_Source\PSoC6\pdl\drivers\peripheral\gpio/cy_gpio.h **** * number. It is to be used when pin access needs to be calculated at runtime.
 653:Generated_Source\PSoC6\pdl\drivers\peripheral\gpio/cy_gpio.h **** *
 654:Generated_Source\PSoC6\pdl\drivers\peripheral\gpio/cy_gpio.h **** * \param portNum
 655:Generated_Source\PSoC6\pdl\drivers\peripheral\gpio/cy_gpio.h **** * Port number
 656:Generated_Source\PSoC6\pdl\drivers\peripheral\gpio/cy_gpio.h **** *
 657:Generated_Source\PSoC6\pdl\drivers\peripheral\gpio/cy_gpio.h **** * \return
 658:Generated_Source\PSoC6\pdl\drivers\peripheral\gpio/cy_gpio.h **** * Base address of the port register structure
 659:Generated_Source\PSoC6\pdl\drivers\peripheral\gpio/cy_gpio.h **** *
 660:Generated_Source\PSoC6\pdl\drivers\peripheral\gpio/cy_gpio.h **** * \funcusage
 661:Generated_Source\PSoC6\pdl\drivers\peripheral\gpio/cy_gpio.h **** * \snippet gpio/gpio_v1_10_sut_01.cydsn/main_cm4.c snippet_Cy_GPIO_PortToAddr
 662:Generated_Source\PSoC6\pdl\drivers\peripheral\gpio/cy_gpio.h **** *
 663:Generated_Source\PSoC6\pdl\drivers\peripheral\gpio/cy_gpio.h **** *******************************************************************************/
 664:Generated_Source\PSoC6\pdl\drivers\peripheral\gpio/cy_gpio.h **** __STATIC_INLINE GPIO_PRT_Type* Cy_GPIO_PortToAddr(uint32_t portNum)
 665:Generated_Source\PSoC6\pdl\drivers\peripheral\gpio/cy_gpio.h **** {
 666:Generated_Source\PSoC6\pdl\drivers\peripheral\gpio/cy_gpio.h ****     GPIO_PRT_Type* base;
 667:Generated_Source\PSoC6\pdl\drivers\peripheral\gpio/cy_gpio.h ****     
 668:Generated_Source\PSoC6\pdl\drivers\peripheral\gpio/cy_gpio.h ****     if(portNum < (uint32_t)IOSS_GPIO_GPIO_PORT_NR)
 669:Generated_Source\PSoC6\pdl\drivers\peripheral\gpio/cy_gpio.h ****     {
 670:Generated_Source\PSoC6\pdl\drivers\peripheral\gpio/cy_gpio.h ****          base = (GPIO_PRT_Type *)(GPIO_BASE + (GPIO_PRT_SECTION_SIZE * portNum));
 671:Generated_Source\PSoC6\pdl\drivers\peripheral\gpio/cy_gpio.h ****     }
 672:Generated_Source\PSoC6\pdl\drivers\peripheral\gpio/cy_gpio.h ****     else
 673:Generated_Source\PSoC6\pdl\drivers\peripheral\gpio/cy_gpio.h ****     {
 674:Generated_Source\PSoC6\pdl\drivers\peripheral\gpio/cy_gpio.h ****         /* Error: Return default base address */
 675:Generated_Source\PSoC6\pdl\drivers\peripheral\gpio/cy_gpio.h ****         base = (GPIO_PRT_Type *)(GPIO_BASE);
 676:Generated_Source\PSoC6\pdl\drivers\peripheral\gpio/cy_gpio.h ****     }
 677:Generated_Source\PSoC6\pdl\drivers\peripheral\gpio/cy_gpio.h **** 
 678:Generated_Source\PSoC6\pdl\drivers\peripheral\gpio/cy_gpio.h ****     return (base);
 679:Generated_Source\PSoC6\pdl\drivers\peripheral\gpio/cy_gpio.h **** }
 680:Generated_Source\PSoC6\pdl\drivers\peripheral\gpio/cy_gpio.h **** 
 681:Generated_Source\PSoC6\pdl\drivers\peripheral\gpio/cy_gpio.h **** /** \} group_gpio_functions_init */
 682:Generated_Source\PSoC6\pdl\drivers\peripheral\gpio/cy_gpio.h **** 
 683:Generated_Source\PSoC6\pdl\drivers\peripheral\gpio/cy_gpio.h **** /**
 684:Generated_Source\PSoC6\pdl\drivers\peripheral\gpio/cy_gpio.h **** * \addtogroup group_gpio_functions_gpio
 685:Generated_Source\PSoC6\pdl\drivers\peripheral\gpio/cy_gpio.h **** * \{
 686:Generated_Source\PSoC6\pdl\drivers\peripheral\gpio/cy_gpio.h **** */
 687:Generated_Source\PSoC6\pdl\drivers\peripheral\gpio/cy_gpio.h **** 
 688:Generated_Source\PSoC6\pdl\drivers\peripheral\gpio/cy_gpio.h **** /*******************************************************************************
 689:Generated_Source\PSoC6\pdl\drivers\peripheral\gpio/cy_gpio.h **** * Function Name: Cy_GPIO_Read
 690:Generated_Source\PSoC6\pdl\drivers\peripheral\gpio/cy_gpio.h **** ****************************************************************************//**
 691:Generated_Source\PSoC6\pdl\drivers\peripheral\gpio/cy_gpio.h **** *
 692:Generated_Source\PSoC6\pdl\drivers\peripheral\gpio/cy_gpio.h **** * \brief Reads the current logic level on the input buffer of the pin.
 693:Generated_Source\PSoC6\pdl\drivers\peripheral\gpio/cy_gpio.h **** *
 694:Generated_Source\PSoC6\pdl\drivers\peripheral\gpio/cy_gpio.h **** * \param base
ARM GAS  C:\Users\salaz\AppData\Local\Temp\ccgHiAyq.s 			page 18


 695:Generated_Source\PSoC6\pdl\drivers\peripheral\gpio/cy_gpio.h **** * Pointer to the pin's port register base address
 696:Generated_Source\PSoC6\pdl\drivers\peripheral\gpio/cy_gpio.h **** *
 697:Generated_Source\PSoC6\pdl\drivers\peripheral\gpio/cy_gpio.h **** * \param pinNum
 698:Generated_Source\PSoC6\pdl\drivers\peripheral\gpio/cy_gpio.h **** * Position of the pin bit-field within the port register.
 699:Generated_Source\PSoC6\pdl\drivers\peripheral\gpio/cy_gpio.h **** * Bit position 8 is the routed pin through the port glitch filter.
 700:Generated_Source\PSoC6\pdl\drivers\peripheral\gpio/cy_gpio.h **** *
 701:Generated_Source\PSoC6\pdl\drivers\peripheral\gpio/cy_gpio.h **** * \return
 702:Generated_Source\PSoC6\pdl\drivers\peripheral\gpio/cy_gpio.h **** * Logic level present on the pin
 703:Generated_Source\PSoC6\pdl\drivers\peripheral\gpio/cy_gpio.h **** *
 704:Generated_Source\PSoC6\pdl\drivers\peripheral\gpio/cy_gpio.h **** * \funcusage
 705:Generated_Source\PSoC6\pdl\drivers\peripheral\gpio/cy_gpio.h **** * \snippet gpio/gpio_v1_10_sut_01.cydsn/main_cm4.c snippet_Cy_GPIO_Read
 706:Generated_Source\PSoC6\pdl\drivers\peripheral\gpio/cy_gpio.h **** *
 707:Generated_Source\PSoC6\pdl\drivers\peripheral\gpio/cy_gpio.h **** *******************************************************************************/
 708:Generated_Source\PSoC6\pdl\drivers\peripheral\gpio/cy_gpio.h **** __STATIC_INLINE uint32_t Cy_GPIO_Read(GPIO_PRT_Type* base, uint32_t pinNum)
 709:Generated_Source\PSoC6\pdl\drivers\peripheral\gpio/cy_gpio.h **** {
 710:Generated_Source\PSoC6\pdl\drivers\peripheral\gpio/cy_gpio.h ****     CY_ASSERT_L2(CY_GPIO_IS_FILTER_PIN_VALID(pinNum));
 711:Generated_Source\PSoC6\pdl\drivers\peripheral\gpio/cy_gpio.h ****     
 712:Generated_Source\PSoC6\pdl\drivers\peripheral\gpio/cy_gpio.h ****     return (base->IN >> (pinNum)) & CY_GPIO_IN_MASK;
 713:Generated_Source\PSoC6\pdl\drivers\peripheral\gpio/cy_gpio.h **** }
 714:Generated_Source\PSoC6\pdl\drivers\peripheral\gpio/cy_gpio.h **** 
 715:Generated_Source\PSoC6\pdl\drivers\peripheral\gpio/cy_gpio.h **** 
 716:Generated_Source\PSoC6\pdl\drivers\peripheral\gpio/cy_gpio.h **** /*******************************************************************************
 717:Generated_Source\PSoC6\pdl\drivers\peripheral\gpio/cy_gpio.h **** * Function Name: Cy_GPIO_Write
 718:Generated_Source\PSoC6\pdl\drivers\peripheral\gpio/cy_gpio.h **** ****************************************************************************//**
 719:Generated_Source\PSoC6\pdl\drivers\peripheral\gpio/cy_gpio.h **** *
 720:Generated_Source\PSoC6\pdl\drivers\peripheral\gpio/cy_gpio.h **** * \brief Write a logic 0 or logic 1 state to the output driver.
 721:Generated_Source\PSoC6\pdl\drivers\peripheral\gpio/cy_gpio.h **** *
 722:Generated_Source\PSoC6\pdl\drivers\peripheral\gpio/cy_gpio.h **** * This function should be used only for software driven pins. It does not have
 723:Generated_Source\PSoC6\pdl\drivers\peripheral\gpio/cy_gpio.h **** * any effect on peripheral driven pins.
 724:Generated_Source\PSoC6\pdl\drivers\peripheral\gpio/cy_gpio.h **** *
 725:Generated_Source\PSoC6\pdl\drivers\peripheral\gpio/cy_gpio.h **** * \param base
 726:Generated_Source\PSoC6\pdl\drivers\peripheral\gpio/cy_gpio.h **** * Pointer to the pin's port register base address
 727:Generated_Source\PSoC6\pdl\drivers\peripheral\gpio/cy_gpio.h **** *
 728:Generated_Source\PSoC6\pdl\drivers\peripheral\gpio/cy_gpio.h **** * \param pinNum
 729:Generated_Source\PSoC6\pdl\drivers\peripheral\gpio/cy_gpio.h **** * Position of the pin bit-field within the port register
 730:Generated_Source\PSoC6\pdl\drivers\peripheral\gpio/cy_gpio.h **** *
 731:Generated_Source\PSoC6\pdl\drivers\peripheral\gpio/cy_gpio.h **** * \param value
 732:Generated_Source\PSoC6\pdl\drivers\peripheral\gpio/cy_gpio.h **** * Logic level to drive out on the pin
 733:Generated_Source\PSoC6\pdl\drivers\peripheral\gpio/cy_gpio.h **** *
 734:Generated_Source\PSoC6\pdl\drivers\peripheral\gpio/cy_gpio.h **** * \return
 735:Generated_Source\PSoC6\pdl\drivers\peripheral\gpio/cy_gpio.h **** * void
 736:Generated_Source\PSoC6\pdl\drivers\peripheral\gpio/cy_gpio.h **** *
 737:Generated_Source\PSoC6\pdl\drivers\peripheral\gpio/cy_gpio.h **** * \funcusage
 738:Generated_Source\PSoC6\pdl\drivers\peripheral\gpio/cy_gpio.h **** * \snippet gpio/gpio_v1_10_sut_01.cydsn/main_cm4.c snippet_Cy_GPIO_Write
 739:Generated_Source\PSoC6\pdl\drivers\peripheral\gpio/cy_gpio.h **** *
 740:Generated_Source\PSoC6\pdl\drivers\peripheral\gpio/cy_gpio.h **** *******************************************************************************/
 741:Generated_Source\PSoC6\pdl\drivers\peripheral\gpio/cy_gpio.h **** __STATIC_INLINE void Cy_GPIO_Write(GPIO_PRT_Type* base, uint32_t pinNum, uint32_t value)
 742:Generated_Source\PSoC6\pdl\drivers\peripheral\gpio/cy_gpio.h **** {
 743:Generated_Source\PSoC6\pdl\drivers\peripheral\gpio/cy_gpio.h ****     CY_ASSERT_L2(CY_GPIO_IS_PIN_VALID(pinNum));
 204              		.loc 2 743 0
 205 00dc 072D     		cmp	r5, #7
 206 00de 03D9     		bls	.L17
 207 00e0 6F49     		ldr	r1, .L35+4
 208 00e2 7048     		ldr	r0, .L35+8
 209 00e4 FFF7FEFF 		bl	Cy_SysLib_AssertFailed
 210              	.LVL19:
 211              	.L17:
ARM GAS  C:\Users\salaz\AppData\Local\Temp\ccgHiAyq.s 			page 19


 744:Generated_Source\PSoC6\pdl\drivers\peripheral\gpio/cy_gpio.h ****     CY_ASSERT_L2(CY_GPIO_IS_VALUE_VALID(value));
 212              		.loc 2 744 0
 213 00e8 012F     		cmp	r7, #1
 214 00ea 04D9     		bls	.L18
 215 00ec BA21     		movs	r1, #186
 216 00ee 8900     		lsls	r1, r1, #2
 217 00f0 6C48     		ldr	r0, .L35+8
 218 00f2 FFF7FEFF 		bl	Cy_SysLib_AssertFailed
 219              	.LVL20:
 220              	.L18:
 745:Generated_Source\PSoC6\pdl\drivers\peripheral\gpio/cy_gpio.h **** 
 746:Generated_Source\PSoC6\pdl\drivers\peripheral\gpio/cy_gpio.h ****     /* Thread-safe: Directly access the pin registers instead of base->OUT */
 747:Generated_Source\PSoC6\pdl\drivers\peripheral\gpio/cy_gpio.h ****     if(0UL == value)
 221              		.loc 2 747 0
 222 00f6 002F     		cmp	r7, #0
 223 00f8 03D1     		bne	.L19
 748:Generated_Source\PSoC6\pdl\drivers\peripheral\gpio/cy_gpio.h ****     {
 749:Generated_Source\PSoC6\pdl\drivers\peripheral\gpio/cy_gpio.h ****         base->OUT_CLR = CY_GPIO_OUT_MASK << pinNum;
 224              		.loc 2 749 0
 225 00fa 0123     		movs	r3, #1
 226 00fc AB40     		lsls	r3, r3, r5
 227 00fe 7360     		str	r3, [r6, #4]
 228 0100 02E0     		b	.L20
 229              	.L19:
 750:Generated_Source\PSoC6\pdl\drivers\peripheral\gpio/cy_gpio.h ****     }
 751:Generated_Source\PSoC6\pdl\drivers\peripheral\gpio/cy_gpio.h ****     else
 752:Generated_Source\PSoC6\pdl\drivers\peripheral\gpio/cy_gpio.h ****     {
 753:Generated_Source\PSoC6\pdl\drivers\peripheral\gpio/cy_gpio.h ****         base->OUT_SET = CY_GPIO_OUT_MASK << pinNum;
 230              		.loc 2 753 0
 231 0102 0123     		movs	r3, #1
 232 0104 AB40     		lsls	r3, r3, r5
 233 0106 B360     		str	r3, [r6, #8]
 234              	.L20:
 235              	.LVL21:
 236              	.LBE15:
 237              	.LBE14:
  73:Generated_Source\PSoC6\pdl\drivers\peripheral\gpio/cy_gpio.c ****         Cy_GPIO_SetDrivemode(base, pinNum, config->driveMode);
 238              		.loc 1 73 0
 239 0108 6768     		ldr	r7, [r4, #4]
 240              	.LVL22:
 241              	.LBB16:
 242              	.LBB17:
 754:Generated_Source\PSoC6\pdl\drivers\peripheral\gpio/cy_gpio.h ****     }
 755:Generated_Source\PSoC6\pdl\drivers\peripheral\gpio/cy_gpio.h **** }
 756:Generated_Source\PSoC6\pdl\drivers\peripheral\gpio/cy_gpio.h **** 
 757:Generated_Source\PSoC6\pdl\drivers\peripheral\gpio/cy_gpio.h **** 
 758:Generated_Source\PSoC6\pdl\drivers\peripheral\gpio/cy_gpio.h **** /*******************************************************************************
 759:Generated_Source\PSoC6\pdl\drivers\peripheral\gpio/cy_gpio.h **** * Function Name: Cy_GPIO_ReadOut
 760:Generated_Source\PSoC6\pdl\drivers\peripheral\gpio/cy_gpio.h **** ****************************************************************************//**
 761:Generated_Source\PSoC6\pdl\drivers\peripheral\gpio/cy_gpio.h **** *
 762:Generated_Source\PSoC6\pdl\drivers\peripheral\gpio/cy_gpio.h **** * \brief Reads the current logic level on the pin output driver.
 763:Generated_Source\PSoC6\pdl\drivers\peripheral\gpio/cy_gpio.h **** *
 764:Generated_Source\PSoC6\pdl\drivers\peripheral\gpio/cy_gpio.h **** * \param base
 765:Generated_Source\PSoC6\pdl\drivers\peripheral\gpio/cy_gpio.h **** * Pointer to the pin's port register base address
 766:Generated_Source\PSoC6\pdl\drivers\peripheral\gpio/cy_gpio.h **** *
 767:Generated_Source\PSoC6\pdl\drivers\peripheral\gpio/cy_gpio.h **** * \param pinNum
 768:Generated_Source\PSoC6\pdl\drivers\peripheral\gpio/cy_gpio.h **** * Position of the pin bit-field within the port register
ARM GAS  C:\Users\salaz\AppData\Local\Temp\ccgHiAyq.s 			page 20


 769:Generated_Source\PSoC6\pdl\drivers\peripheral\gpio/cy_gpio.h **** *
 770:Generated_Source\PSoC6\pdl\drivers\peripheral\gpio/cy_gpio.h **** * \return
 771:Generated_Source\PSoC6\pdl\drivers\peripheral\gpio/cy_gpio.h **** * Logic level on the pin output driver
 772:Generated_Source\PSoC6\pdl\drivers\peripheral\gpio/cy_gpio.h **** *
 773:Generated_Source\PSoC6\pdl\drivers\peripheral\gpio/cy_gpio.h **** * \funcusage
 774:Generated_Source\PSoC6\pdl\drivers\peripheral\gpio/cy_gpio.h **** * \snippet gpio/gpio_v1_10_sut_01.cydsn/main_cm4.c snippet_Cy_GPIO_ReadOut
 775:Generated_Source\PSoC6\pdl\drivers\peripheral\gpio/cy_gpio.h **** *
 776:Generated_Source\PSoC6\pdl\drivers\peripheral\gpio/cy_gpio.h **** *******************************************************************************/
 777:Generated_Source\PSoC6\pdl\drivers\peripheral\gpio/cy_gpio.h **** __STATIC_INLINE uint32_t Cy_GPIO_ReadOut(GPIO_PRT_Type* base, uint32_t pinNum)
 778:Generated_Source\PSoC6\pdl\drivers\peripheral\gpio/cy_gpio.h **** {
 779:Generated_Source\PSoC6\pdl\drivers\peripheral\gpio/cy_gpio.h ****     CY_ASSERT_L2(CY_GPIO_IS_PIN_VALID(pinNum));
 780:Generated_Source\PSoC6\pdl\drivers\peripheral\gpio/cy_gpio.h **** 
 781:Generated_Source\PSoC6\pdl\drivers\peripheral\gpio/cy_gpio.h ****     return (base->OUT >> pinNum) & CY_GPIO_OUT_MASK;
 782:Generated_Source\PSoC6\pdl\drivers\peripheral\gpio/cy_gpio.h **** }
 783:Generated_Source\PSoC6\pdl\drivers\peripheral\gpio/cy_gpio.h **** 
 784:Generated_Source\PSoC6\pdl\drivers\peripheral\gpio/cy_gpio.h **** 
 785:Generated_Source\PSoC6\pdl\drivers\peripheral\gpio/cy_gpio.h **** /*******************************************************************************
 786:Generated_Source\PSoC6\pdl\drivers\peripheral\gpio/cy_gpio.h **** * Function Name: Cy_GPIO_Set
 787:Generated_Source\PSoC6\pdl\drivers\peripheral\gpio/cy_gpio.h **** ****************************************************************************//**
 788:Generated_Source\PSoC6\pdl\drivers\peripheral\gpio/cy_gpio.h **** *
 789:Generated_Source\PSoC6\pdl\drivers\peripheral\gpio/cy_gpio.h **** * \brief Set a pin output to logic state high.
 790:Generated_Source\PSoC6\pdl\drivers\peripheral\gpio/cy_gpio.h **** *
 791:Generated_Source\PSoC6\pdl\drivers\peripheral\gpio/cy_gpio.h **** * This function should be used only for software driven pins. It does not have
 792:Generated_Source\PSoC6\pdl\drivers\peripheral\gpio/cy_gpio.h **** * any effect on peripheral driven pins.
 793:Generated_Source\PSoC6\pdl\drivers\peripheral\gpio/cy_gpio.h **** *
 794:Generated_Source\PSoC6\pdl\drivers\peripheral\gpio/cy_gpio.h **** * \param base
 795:Generated_Source\PSoC6\pdl\drivers\peripheral\gpio/cy_gpio.h **** * Pointer to the pin's port register base address
 796:Generated_Source\PSoC6\pdl\drivers\peripheral\gpio/cy_gpio.h **** *
 797:Generated_Source\PSoC6\pdl\drivers\peripheral\gpio/cy_gpio.h **** * \param pinNum
 798:Generated_Source\PSoC6\pdl\drivers\peripheral\gpio/cy_gpio.h **** * Position of the pin bit-field within the port register
 799:Generated_Source\PSoC6\pdl\drivers\peripheral\gpio/cy_gpio.h **** *
 800:Generated_Source\PSoC6\pdl\drivers\peripheral\gpio/cy_gpio.h **** * \return
 801:Generated_Source\PSoC6\pdl\drivers\peripheral\gpio/cy_gpio.h **** * void
 802:Generated_Source\PSoC6\pdl\drivers\peripheral\gpio/cy_gpio.h **** *
 803:Generated_Source\PSoC6\pdl\drivers\peripheral\gpio/cy_gpio.h **** * \funcusage
 804:Generated_Source\PSoC6\pdl\drivers\peripheral\gpio/cy_gpio.h **** * \snippet gpio/gpio_v1_10_sut_01.cydsn/main_cm4.c snippet_Cy_GPIO_Set
 805:Generated_Source\PSoC6\pdl\drivers\peripheral\gpio/cy_gpio.h **** *
 806:Generated_Source\PSoC6\pdl\drivers\peripheral\gpio/cy_gpio.h **** *******************************************************************************/
 807:Generated_Source\PSoC6\pdl\drivers\peripheral\gpio/cy_gpio.h **** __STATIC_INLINE void Cy_GPIO_Set(GPIO_PRT_Type* base, uint32_t pinNum)
 808:Generated_Source\PSoC6\pdl\drivers\peripheral\gpio/cy_gpio.h **** {
 809:Generated_Source\PSoC6\pdl\drivers\peripheral\gpio/cy_gpio.h ****     CY_ASSERT_L2(CY_GPIO_IS_PIN_VALID(pinNum));
 810:Generated_Source\PSoC6\pdl\drivers\peripheral\gpio/cy_gpio.h ****     
 811:Generated_Source\PSoC6\pdl\drivers\peripheral\gpio/cy_gpio.h ****     base->OUT_SET = CY_GPIO_OUT_MASK << pinNum;
 812:Generated_Source\PSoC6\pdl\drivers\peripheral\gpio/cy_gpio.h **** }
 813:Generated_Source\PSoC6\pdl\drivers\peripheral\gpio/cy_gpio.h **** 
 814:Generated_Source\PSoC6\pdl\drivers\peripheral\gpio/cy_gpio.h **** 
 815:Generated_Source\PSoC6\pdl\drivers\peripheral\gpio/cy_gpio.h **** /*******************************************************************************
 816:Generated_Source\PSoC6\pdl\drivers\peripheral\gpio/cy_gpio.h **** * Function Name: Cy_GPIO_Clr
 817:Generated_Source\PSoC6\pdl\drivers\peripheral\gpio/cy_gpio.h **** ****************************************************************************//**
 818:Generated_Source\PSoC6\pdl\drivers\peripheral\gpio/cy_gpio.h **** *
 819:Generated_Source\PSoC6\pdl\drivers\peripheral\gpio/cy_gpio.h **** * \brief Set a pin output to logic state Low.
 820:Generated_Source\PSoC6\pdl\drivers\peripheral\gpio/cy_gpio.h **** *
 821:Generated_Source\PSoC6\pdl\drivers\peripheral\gpio/cy_gpio.h **** * This function should be used only for software driven pins. It does not have
 822:Generated_Source\PSoC6\pdl\drivers\peripheral\gpio/cy_gpio.h **** * any effect on peripheral driven pins.
 823:Generated_Source\PSoC6\pdl\drivers\peripheral\gpio/cy_gpio.h **** *
 824:Generated_Source\PSoC6\pdl\drivers\peripheral\gpio/cy_gpio.h **** * \param base
 825:Generated_Source\PSoC6\pdl\drivers\peripheral\gpio/cy_gpio.h **** * Pointer to the pin's port register base address
ARM GAS  C:\Users\salaz\AppData\Local\Temp\ccgHiAyq.s 			page 21


 826:Generated_Source\PSoC6\pdl\drivers\peripheral\gpio/cy_gpio.h **** *
 827:Generated_Source\PSoC6\pdl\drivers\peripheral\gpio/cy_gpio.h **** * \param pinNum
 828:Generated_Source\PSoC6\pdl\drivers\peripheral\gpio/cy_gpio.h **** * Position of the pin bit-field within the port register
 829:Generated_Source\PSoC6\pdl\drivers\peripheral\gpio/cy_gpio.h **** *
 830:Generated_Source\PSoC6\pdl\drivers\peripheral\gpio/cy_gpio.h **** * \return
 831:Generated_Source\PSoC6\pdl\drivers\peripheral\gpio/cy_gpio.h **** * void
 832:Generated_Source\PSoC6\pdl\drivers\peripheral\gpio/cy_gpio.h **** *
 833:Generated_Source\PSoC6\pdl\drivers\peripheral\gpio/cy_gpio.h **** * \funcusage
 834:Generated_Source\PSoC6\pdl\drivers\peripheral\gpio/cy_gpio.h **** * \snippet gpio/gpio_v1_10_sut_01.cydsn/main_cm4.c snippet_Cy_GPIO_Clr
 835:Generated_Source\PSoC6\pdl\drivers\peripheral\gpio/cy_gpio.h **** *
 836:Generated_Source\PSoC6\pdl\drivers\peripheral\gpio/cy_gpio.h **** *******************************************************************************/
 837:Generated_Source\PSoC6\pdl\drivers\peripheral\gpio/cy_gpio.h **** __STATIC_INLINE void Cy_GPIO_Clr(GPIO_PRT_Type* base, uint32_t pinNum)
 838:Generated_Source\PSoC6\pdl\drivers\peripheral\gpio/cy_gpio.h **** {
 839:Generated_Source\PSoC6\pdl\drivers\peripheral\gpio/cy_gpio.h ****     CY_ASSERT_L2(CY_GPIO_IS_PIN_VALID(pinNum));
 840:Generated_Source\PSoC6\pdl\drivers\peripheral\gpio/cy_gpio.h ****     
 841:Generated_Source\PSoC6\pdl\drivers\peripheral\gpio/cy_gpio.h ****     base->OUT_CLR = CY_GPIO_OUT_MASK << pinNum;
 842:Generated_Source\PSoC6\pdl\drivers\peripheral\gpio/cy_gpio.h **** }
 843:Generated_Source\PSoC6\pdl\drivers\peripheral\gpio/cy_gpio.h **** 
 844:Generated_Source\PSoC6\pdl\drivers\peripheral\gpio/cy_gpio.h **** 
 845:Generated_Source\PSoC6\pdl\drivers\peripheral\gpio/cy_gpio.h **** /*******************************************************************************
 846:Generated_Source\PSoC6\pdl\drivers\peripheral\gpio/cy_gpio.h **** * Function Name: Cy_GPIO_Inv
 847:Generated_Source\PSoC6\pdl\drivers\peripheral\gpio/cy_gpio.h **** ****************************************************************************//**
 848:Generated_Source\PSoC6\pdl\drivers\peripheral\gpio/cy_gpio.h **** *
 849:Generated_Source\PSoC6\pdl\drivers\peripheral\gpio/cy_gpio.h **** * \brief Set a pin output logic state to the inverse of the current output
 850:Generated_Source\PSoC6\pdl\drivers\peripheral\gpio/cy_gpio.h **** * logic state.
 851:Generated_Source\PSoC6\pdl\drivers\peripheral\gpio/cy_gpio.h **** *
 852:Generated_Source\PSoC6\pdl\drivers\peripheral\gpio/cy_gpio.h **** * This function should be used only for software driven pins. It does not have
 853:Generated_Source\PSoC6\pdl\drivers\peripheral\gpio/cy_gpio.h **** * any effect on peripheral driven pins.
 854:Generated_Source\PSoC6\pdl\drivers\peripheral\gpio/cy_gpio.h **** *
 855:Generated_Source\PSoC6\pdl\drivers\peripheral\gpio/cy_gpio.h **** * \param base
 856:Generated_Source\PSoC6\pdl\drivers\peripheral\gpio/cy_gpio.h **** * Pointer to the pin's port register base address
 857:Generated_Source\PSoC6\pdl\drivers\peripheral\gpio/cy_gpio.h **** *
 858:Generated_Source\PSoC6\pdl\drivers\peripheral\gpio/cy_gpio.h **** * \param pinNum
 859:Generated_Source\PSoC6\pdl\drivers\peripheral\gpio/cy_gpio.h **** * Position of the pin bit-field within the port register
 860:Generated_Source\PSoC6\pdl\drivers\peripheral\gpio/cy_gpio.h **** *
 861:Generated_Source\PSoC6\pdl\drivers\peripheral\gpio/cy_gpio.h **** * \return
 862:Generated_Source\PSoC6\pdl\drivers\peripheral\gpio/cy_gpio.h **** * void
 863:Generated_Source\PSoC6\pdl\drivers\peripheral\gpio/cy_gpio.h **** *
 864:Generated_Source\PSoC6\pdl\drivers\peripheral\gpio/cy_gpio.h **** * \funcusage
 865:Generated_Source\PSoC6\pdl\drivers\peripheral\gpio/cy_gpio.h **** * \snippet gpio/gpio_v1_10_sut_01.cydsn/main_cm4.c snippet_Cy_GPIO_Inv
 866:Generated_Source\PSoC6\pdl\drivers\peripheral\gpio/cy_gpio.h **** *
 867:Generated_Source\PSoC6\pdl\drivers\peripheral\gpio/cy_gpio.h **** *******************************************************************************/
 868:Generated_Source\PSoC6\pdl\drivers\peripheral\gpio/cy_gpio.h **** __STATIC_INLINE void Cy_GPIO_Inv(GPIO_PRT_Type* base, uint32_t pinNum)
 869:Generated_Source\PSoC6\pdl\drivers\peripheral\gpio/cy_gpio.h **** {
 870:Generated_Source\PSoC6\pdl\drivers\peripheral\gpio/cy_gpio.h ****     CY_ASSERT_L2(CY_GPIO_IS_PIN_VALID(pinNum));
 871:Generated_Source\PSoC6\pdl\drivers\peripheral\gpio/cy_gpio.h ****     
 872:Generated_Source\PSoC6\pdl\drivers\peripheral\gpio/cy_gpio.h ****     base->OUT_INV = CY_GPIO_OUT_MASK << pinNum;
 873:Generated_Source\PSoC6\pdl\drivers\peripheral\gpio/cy_gpio.h **** }
 874:Generated_Source\PSoC6\pdl\drivers\peripheral\gpio/cy_gpio.h **** 
 875:Generated_Source\PSoC6\pdl\drivers\peripheral\gpio/cy_gpio.h **** 
 876:Generated_Source\PSoC6\pdl\drivers\peripheral\gpio/cy_gpio.h **** /*******************************************************************************
 877:Generated_Source\PSoC6\pdl\drivers\peripheral\gpio/cy_gpio.h **** * Function Name: Cy_GPIO_SetDrivemode
 878:Generated_Source\PSoC6\pdl\drivers\peripheral\gpio/cy_gpio.h **** ****************************************************************************//**
 879:Generated_Source\PSoC6\pdl\drivers\peripheral\gpio/cy_gpio.h **** *
 880:Generated_Source\PSoC6\pdl\drivers\peripheral\gpio/cy_gpio.h **** * \brief Configures the pin output buffer drive mode and input buffer enable.
 881:Generated_Source\PSoC6\pdl\drivers\peripheral\gpio/cy_gpio.h **** *
 882:Generated_Source\PSoC6\pdl\drivers\peripheral\gpio/cy_gpio.h **** * The output buffer drive mode and input buffer enable are combined into a single
ARM GAS  C:\Users\salaz\AppData\Local\Temp\ccgHiAyq.s 			page 22


 883:Generated_Source\PSoC6\pdl\drivers\peripheral\gpio/cy_gpio.h **** * parameter. The drive mode controls the behavior of the pin in general.
 884:Generated_Source\PSoC6\pdl\drivers\peripheral\gpio/cy_gpio.h **** * Enabling the input buffer allows the digital pin state to be read but also
 885:Generated_Source\PSoC6\pdl\drivers\peripheral\gpio/cy_gpio.h **** * contributes to extra current consumption.
 886:Generated_Source\PSoC6\pdl\drivers\peripheral\gpio/cy_gpio.h **** *
 887:Generated_Source\PSoC6\pdl\drivers\peripheral\gpio/cy_gpio.h **** * \param base
 888:Generated_Source\PSoC6\pdl\drivers\peripheral\gpio/cy_gpio.h **** * Pointer to the pin's port register base address
 889:Generated_Source\PSoC6\pdl\drivers\peripheral\gpio/cy_gpio.h **** *
 890:Generated_Source\PSoC6\pdl\drivers\peripheral\gpio/cy_gpio.h **** * \param pinNum
 891:Generated_Source\PSoC6\pdl\drivers\peripheral\gpio/cy_gpio.h **** * Position of the pin bit-field within the port register
 892:Generated_Source\PSoC6\pdl\drivers\peripheral\gpio/cy_gpio.h **** *
 893:Generated_Source\PSoC6\pdl\drivers\peripheral\gpio/cy_gpio.h **** * \param value
 894:Generated_Source\PSoC6\pdl\drivers\peripheral\gpio/cy_gpio.h **** * Pin drive mode. Options are detailed in \ref group_gpio_driveModes macros
 895:Generated_Source\PSoC6\pdl\drivers\peripheral\gpio/cy_gpio.h **** *
 896:Generated_Source\PSoC6\pdl\drivers\peripheral\gpio/cy_gpio.h **** * \return
 897:Generated_Source\PSoC6\pdl\drivers\peripheral\gpio/cy_gpio.h **** * void
 898:Generated_Source\PSoC6\pdl\drivers\peripheral\gpio/cy_gpio.h **** *
 899:Generated_Source\PSoC6\pdl\drivers\peripheral\gpio/cy_gpio.h **** * \note 
 900:Generated_Source\PSoC6\pdl\drivers\peripheral\gpio/cy_gpio.h **** * This function modifies a port register in a read-modify-write operation. It is
 901:Generated_Source\PSoC6\pdl\drivers\peripheral\gpio/cy_gpio.h **** * not thread safe as the resource is shared among multiple pins on a port.
 902:Generated_Source\PSoC6\pdl\drivers\peripheral\gpio/cy_gpio.h **** *
 903:Generated_Source\PSoC6\pdl\drivers\peripheral\gpio/cy_gpio.h **** * \funcusage
 904:Generated_Source\PSoC6\pdl\drivers\peripheral\gpio/cy_gpio.h **** * \snippet gpio/gpio_v1_10_sut_01.cydsn/main_cm4.c snippet_Cy_GPIO_SetDrivemode
 905:Generated_Source\PSoC6\pdl\drivers\peripheral\gpio/cy_gpio.h **** *
 906:Generated_Source\PSoC6\pdl\drivers\peripheral\gpio/cy_gpio.h **** *******************************************************************************/
 907:Generated_Source\PSoC6\pdl\drivers\peripheral\gpio/cy_gpio.h **** __STATIC_INLINE void Cy_GPIO_SetDrivemode(GPIO_PRT_Type* base, uint32_t pinNum, uint32_t value)
 908:Generated_Source\PSoC6\pdl\drivers\peripheral\gpio/cy_gpio.h **** {
 909:Generated_Source\PSoC6\pdl\drivers\peripheral\gpio/cy_gpio.h ****     uint32_t tempReg;
 910:Generated_Source\PSoC6\pdl\drivers\peripheral\gpio/cy_gpio.h ****     uint32_t pinLoc;
 911:Generated_Source\PSoC6\pdl\drivers\peripheral\gpio/cy_gpio.h **** 
 912:Generated_Source\PSoC6\pdl\drivers\peripheral\gpio/cy_gpio.h ****     CY_ASSERT_L2(CY_GPIO_IS_PIN_VALID(pinNum));
 243              		.loc 2 912 0
 244 010a 072D     		cmp	r5, #7
 245 010c 04D9     		bls	.L21
 246 010e E421     		movs	r1, #228
 247 0110 8900     		lsls	r1, r1, #2
 248 0112 6448     		ldr	r0, .L35+8
 249 0114 FFF7FEFF 		bl	Cy_SysLib_AssertFailed
 250              	.LVL23:
 251              	.L21:
 913:Generated_Source\PSoC6\pdl\drivers\peripheral\gpio/cy_gpio.h ****     CY_ASSERT_L2(CY_GPIO_IS_DM_VALID(value));
 252              		.loc 2 913 0
 253 0118 0F23     		movs	r3, #15
 254 011a 3A00     		movs	r2, r7
 255 011c 9A43     		bics	r2, r3
 256 011e 03D0     		beq	.L22
 257 0120 6149     		ldr	r1, .L35+12
 258 0122 6048     		ldr	r0, .L35+8
 259 0124 FFF7FEFF 		bl	Cy_SysLib_AssertFailed
 260              	.LVL24:
 261              	.L22:
 914:Generated_Source\PSoC6\pdl\drivers\peripheral\gpio/cy_gpio.h **** 
 915:Generated_Source\PSoC6\pdl\drivers\peripheral\gpio/cy_gpio.h ****     pinLoc = pinNum << CY_GPIO_DRIVE_MODE_OFFSET;
 262              		.loc 2 915 0
 263 0128 AA00     		lsls	r2, r5, #2
 264              	.LVL25:
 916:Generated_Source\PSoC6\pdl\drivers\peripheral\gpio/cy_gpio.h ****     tempReg = (base->CFG & ~(CY_GPIO_CFG_DM_MASK << pinLoc));
 265              		.loc 2 916 0
ARM GAS  C:\Users\salaz\AppData\Local\Temp\ccgHiAyq.s 			page 23


 266 012a B36A     		ldr	r3, [r6, #40]
 267 012c 0F21     		movs	r1, #15
 268 012e 0800     		movs	r0, r1
 269 0130 9040     		lsls	r0, r0, r2
 270 0132 8343     		bics	r3, r0
 271              	.LVL26:
 917:Generated_Source\PSoC6\pdl\drivers\peripheral\gpio/cy_gpio.h ****     base->CFG = tempReg | ((value & CY_GPIO_CFG_DM_MASK) << pinLoc);
 272              		.loc 2 917 0
 273 0134 0F40     		ands	r7, r1
 274              	.LVL27:
 275 0136 9740     		lsls	r7, r7, r2
 276 0138 1F43     		orrs	r7, r3
 277 013a B762     		str	r7, [r6, #40]
 278              	.LVL28:
 279              	.LBE17:
 280              	.LBE16:
  74:Generated_Source\PSoC6\pdl\drivers\peripheral\gpio/cy_gpio.c ****         Cy_GPIO_SetHSIOM(base, pinNum, config->hsiom);
 281              		.loc 1 74 0
 282 013c 277A     		ldrb	r7, [r4, #8]
 283              	.LVL29:
 284              	.LBB18:
 285              	.LBB19:
 581:Generated_Source\PSoC6\pdl\drivers\peripheral\gpio/cy_gpio.h ****     CY_ASSERT_L2(CY_GPIO_IS_HSIOM_VALID(value));
 286              		.loc 2 581 0
 287 013e 072D     		cmp	r5, #7
 288 0140 03D9     		bls	.L23
 289 0142 5A49     		ldr	r1, .L35+16
 290 0144 5748     		ldr	r0, .L35+8
 291 0146 FFF7FEFF 		bl	Cy_SysLib_AssertFailed
 292              	.LVL30:
 293              	.L23:
 582:Generated_Source\PSoC6\pdl\drivers\peripheral\gpio/cy_gpio.h **** 
 294              		.loc 2 582 0
 295 014a 1F23     		movs	r3, #31
 296 014c 3A00     		movs	r2, r7
 297 014e 9A43     		bics	r2, r3
 298 0150 03D0     		beq	.L24
 299 0152 5749     		ldr	r1, .L35+20
 300 0154 5348     		ldr	r0, .L35+8
 301 0156 FFF7FEFF 		bl	Cy_SysLib_AssertFailed
 302              	.LVL31:
 303              	.L24:
 584:Generated_Source\PSoC6\pdl\drivers\peripheral\gpio/cy_gpio.h ****     portAddrHSIOM = (HSIOM_PRT_Type*)(HSIOM_BASE + (HSIOM_PRT_SECTION_SIZE * portNum));
 304              		.loc 2 584 0
 305 015a 564B     		ldr	r3, .L35+24
 306 015c F318     		adds	r3, r6, r3
 307 015e DB09     		lsrs	r3, r3, #7
 308              	.LVL32:
 585:Generated_Source\PSoC6\pdl\drivers\peripheral\gpio/cy_gpio.h **** 
 309              		.loc 2 585 0
 310 0160 554A     		ldr	r2, .L35+28
 311 0162 9446     		mov	ip, r2
 312 0164 6344     		add	r3, r3, ip
 313              	.LVL33:
 314 0166 1B01     		lsls	r3, r3, #4
 315              	.LVL34:
 587:Generated_Source\PSoC6\pdl\drivers\peripheral\gpio/cy_gpio.h ****     {
ARM GAS  C:\Users\salaz\AppData\Local\Temp\ccgHiAyq.s 			page 24


 316              		.loc 2 587 0
 317 0168 032D     		cmp	r5, #3
 318 016a 0BD8     		bhi	.L25
 589:Generated_Source\PSoC6\pdl\drivers\peripheral\gpio/cy_gpio.h ****         portAddrHSIOM->PORT_SEL0 = tempReg | ((value & CY_GPIO_HSIOM_MASK) << (pinNum << CY_GPIO_HS
 319              		.loc 2 589 0
 320 016c 1A68     		ldr	r2, [r3]
 321 016e E800     		lsls	r0, r5, #3
 322 0170 1F21     		movs	r1, #31
 323 0172 8140     		lsls	r1, r1, r0
 324 0174 8A43     		bics	r2, r1
 325 0176 1100     		movs	r1, r2
 326              	.LVL35:
 590:Generated_Source\PSoC6\pdl\drivers\peripheral\gpio/cy_gpio.h ****     }
 327              		.loc 2 590 0
 328 0178 1F22     		movs	r2, #31
 329 017a 3A40     		ands	r2, r7
 330 017c 8240     		lsls	r2, r2, r0
 331 017e 0A43     		orrs	r2, r1
 332 0180 1A60     		str	r2, [r3]
 333 0182 0BE0     		b	.L26
 334              	.LVL36:
 335              	.L25:
 594:Generated_Source\PSoC6\pdl\drivers\peripheral\gpio/cy_gpio.h ****         tempReg = portAddrHSIOM->PORT_SEL1 & ~(CY_GPIO_HSIOM_MASK << (pinNum << CY_GPIO_HSIOM_OFFSE
 336              		.loc 2 594 0
 337 0184 291F     		subs	r1, r5, #4
 338              	.LVL37:
 595:Generated_Source\PSoC6\pdl\drivers\peripheral\gpio/cy_gpio.h ****         portAddrHSIOM->PORT_SEL1 = tempReg | ((value & CY_GPIO_HSIOM_MASK) << (pinNum << CY_GPIO_HS
 339              		.loc 2 595 0
 340 0186 5A68     		ldr	r2, [r3, #4]
 341 0188 C900     		lsls	r1, r1, #3
 342 018a 1F20     		movs	r0, #31
 343 018c 8840     		lsls	r0, r0, r1
 344 018e 8243     		bics	r2, r0
 345 0190 1000     		movs	r0, r2
 346              	.LVL38:
 596:Generated_Source\PSoC6\pdl\drivers\peripheral\gpio/cy_gpio.h ****     }
 347              		.loc 2 596 0
 348 0192 1F22     		movs	r2, #31
 349 0194 3A40     		ands	r2, r7
 350 0196 8A40     		lsls	r2, r2, r1
 351 0198 0243     		orrs	r2, r0
 352 019a 5A60     		str	r2, [r3, #4]
 353              	.LVL39:
 354              	.L26:
 355              	.LBE19:
 356              	.LBE18:
  75:Generated_Source\PSoC6\pdl\drivers\peripheral\gpio/cy_gpio.c **** 
  76:Generated_Source\PSoC6\pdl\drivers\peripheral\gpio/cy_gpio.c ****         Cy_GPIO_SetInterruptEdge(base, pinNum, config->intEdge);
 357              		.loc 1 76 0
 358 019c E768     		ldr	r7, [r4, #12]
 359              	.LVL40:
 360              	.LBB20:
 361              	.LBB21:
 918:Generated_Source\PSoC6\pdl\drivers\peripheral\gpio/cy_gpio.h **** }
 919:Generated_Source\PSoC6\pdl\drivers\peripheral\gpio/cy_gpio.h **** 
 920:Generated_Source\PSoC6\pdl\drivers\peripheral\gpio/cy_gpio.h **** 
 921:Generated_Source\PSoC6\pdl\drivers\peripheral\gpio/cy_gpio.h **** /*******************************************************************************
ARM GAS  C:\Users\salaz\AppData\Local\Temp\ccgHiAyq.s 			page 25


 922:Generated_Source\PSoC6\pdl\drivers\peripheral\gpio/cy_gpio.h **** * Function Name: Cy_GPIO_GetDrivemode
 923:Generated_Source\PSoC6\pdl\drivers\peripheral\gpio/cy_gpio.h **** ****************************************************************************//**
 924:Generated_Source\PSoC6\pdl\drivers\peripheral\gpio/cy_gpio.h **** *
 925:Generated_Source\PSoC6\pdl\drivers\peripheral\gpio/cy_gpio.h **** * \brief Returns the pin output buffer drive mode and input buffer enable state.
 926:Generated_Source\PSoC6\pdl\drivers\peripheral\gpio/cy_gpio.h **** *
 927:Generated_Source\PSoC6\pdl\drivers\peripheral\gpio/cy_gpio.h **** * \param base
 928:Generated_Source\PSoC6\pdl\drivers\peripheral\gpio/cy_gpio.h **** * Pointer to the pin's port register base address
 929:Generated_Source\PSoC6\pdl\drivers\peripheral\gpio/cy_gpio.h **** *
 930:Generated_Source\PSoC6\pdl\drivers\peripheral\gpio/cy_gpio.h **** * \param pinNum
 931:Generated_Source\PSoC6\pdl\drivers\peripheral\gpio/cy_gpio.h **** * Position of the pin bit-field within the port register
 932:Generated_Source\PSoC6\pdl\drivers\peripheral\gpio/cy_gpio.h **** *
 933:Generated_Source\PSoC6\pdl\drivers\peripheral\gpio/cy_gpio.h **** * \return
 934:Generated_Source\PSoC6\pdl\drivers\peripheral\gpio/cy_gpio.h **** * Pin drive mode. Options are detailed in \ref group_gpio_driveModes macros
 935:Generated_Source\PSoC6\pdl\drivers\peripheral\gpio/cy_gpio.h **** *
 936:Generated_Source\PSoC6\pdl\drivers\peripheral\gpio/cy_gpio.h **** * \funcusage
 937:Generated_Source\PSoC6\pdl\drivers\peripheral\gpio/cy_gpio.h **** * \snippet gpio/gpio_v1_10_sut_01.cydsn/main_cm4.c snippet_Cy_GPIO_SetDrivemode
 938:Generated_Source\PSoC6\pdl\drivers\peripheral\gpio/cy_gpio.h **** *
 939:Generated_Source\PSoC6\pdl\drivers\peripheral\gpio/cy_gpio.h **** *******************************************************************************/
 940:Generated_Source\PSoC6\pdl\drivers\peripheral\gpio/cy_gpio.h **** __STATIC_INLINE uint32_t Cy_GPIO_GetDrivemode(GPIO_PRT_Type* base, uint32_t pinNum)
 941:Generated_Source\PSoC6\pdl\drivers\peripheral\gpio/cy_gpio.h **** {
 942:Generated_Source\PSoC6\pdl\drivers\peripheral\gpio/cy_gpio.h ****     CY_ASSERT_L2(CY_GPIO_IS_PIN_VALID(pinNum));
 943:Generated_Source\PSoC6\pdl\drivers\peripheral\gpio/cy_gpio.h ****     
 944:Generated_Source\PSoC6\pdl\drivers\peripheral\gpio/cy_gpio.h ****     return (base->CFG >> (pinNum << CY_GPIO_DRIVE_MODE_OFFSET)) & CY_GPIO_CFG_DM_MASK;
 945:Generated_Source\PSoC6\pdl\drivers\peripheral\gpio/cy_gpio.h **** }
 946:Generated_Source\PSoC6\pdl\drivers\peripheral\gpio/cy_gpio.h **** 
 947:Generated_Source\PSoC6\pdl\drivers\peripheral\gpio/cy_gpio.h **** 
 948:Generated_Source\PSoC6\pdl\drivers\peripheral\gpio/cy_gpio.h **** /*******************************************************************************
 949:Generated_Source\PSoC6\pdl\drivers\peripheral\gpio/cy_gpio.h **** * Function Name: Cy_GPIO_SetVtrip
 950:Generated_Source\PSoC6\pdl\drivers\peripheral\gpio/cy_gpio.h **** ****************************************************************************//**
 951:Generated_Source\PSoC6\pdl\drivers\peripheral\gpio/cy_gpio.h **** *
 952:Generated_Source\PSoC6\pdl\drivers\peripheral\gpio/cy_gpio.h **** * \brief Configures the GPIO pin input buffer voltage threshold mode.
 953:Generated_Source\PSoC6\pdl\drivers\peripheral\gpio/cy_gpio.h **** *
 954:Generated_Source\PSoC6\pdl\drivers\peripheral\gpio/cy_gpio.h **** * \param base
 955:Generated_Source\PSoC6\pdl\drivers\peripheral\gpio/cy_gpio.h **** * Pointer to the pin's port register base address
 956:Generated_Source\PSoC6\pdl\drivers\peripheral\gpio/cy_gpio.h **** *
 957:Generated_Source\PSoC6\pdl\drivers\peripheral\gpio/cy_gpio.h **** * \param pinNum
 958:Generated_Source\PSoC6\pdl\drivers\peripheral\gpio/cy_gpio.h **** * Position of the pin bit-field within the port register
 959:Generated_Source\PSoC6\pdl\drivers\peripheral\gpio/cy_gpio.h **** *
 960:Generated_Source\PSoC6\pdl\drivers\peripheral\gpio/cy_gpio.h **** * \param value
 961:Generated_Source\PSoC6\pdl\drivers\peripheral\gpio/cy_gpio.h **** * Pin voltage threshold mode. Options are detailed in \ref group_gpio_vtrip macros
 962:Generated_Source\PSoC6\pdl\drivers\peripheral\gpio/cy_gpio.h **** *
 963:Generated_Source\PSoC6\pdl\drivers\peripheral\gpio/cy_gpio.h **** * \return
 964:Generated_Source\PSoC6\pdl\drivers\peripheral\gpio/cy_gpio.h **** * void
 965:Generated_Source\PSoC6\pdl\drivers\peripheral\gpio/cy_gpio.h **** *
 966:Generated_Source\PSoC6\pdl\drivers\peripheral\gpio/cy_gpio.h **** * \note 
 967:Generated_Source\PSoC6\pdl\drivers\peripheral\gpio/cy_gpio.h **** * This function modifies a port register in a read-modify-write operation. It is
 968:Generated_Source\PSoC6\pdl\drivers\peripheral\gpio/cy_gpio.h **** * not thread safe as the resource is shared among multiple pins on a port.
 969:Generated_Source\PSoC6\pdl\drivers\peripheral\gpio/cy_gpio.h **** *
 970:Generated_Source\PSoC6\pdl\drivers\peripheral\gpio/cy_gpio.h **** * \funcusage
 971:Generated_Source\PSoC6\pdl\drivers\peripheral\gpio/cy_gpio.h **** * \snippet gpio/gpio_v1_10_sut_01.cydsn/main_cm4.c snippet_Cy_GPIO_SetVtrip
 972:Generated_Source\PSoC6\pdl\drivers\peripheral\gpio/cy_gpio.h **** *
 973:Generated_Source\PSoC6\pdl\drivers\peripheral\gpio/cy_gpio.h **** *******************************************************************************/
 974:Generated_Source\PSoC6\pdl\drivers\peripheral\gpio/cy_gpio.h **** __STATIC_INLINE void Cy_GPIO_SetVtrip(GPIO_PRT_Type* base, uint32_t pinNum, uint32_t value)
 975:Generated_Source\PSoC6\pdl\drivers\peripheral\gpio/cy_gpio.h **** {
 976:Generated_Source\PSoC6\pdl\drivers\peripheral\gpio/cy_gpio.h ****     uint32_t tempReg;
 977:Generated_Source\PSoC6\pdl\drivers\peripheral\gpio/cy_gpio.h **** 
 978:Generated_Source\PSoC6\pdl\drivers\peripheral\gpio/cy_gpio.h ****     CY_ASSERT_L2(CY_GPIO_IS_PIN_VALID(pinNum));
ARM GAS  C:\Users\salaz\AppData\Local\Temp\ccgHiAyq.s 			page 26


 979:Generated_Source\PSoC6\pdl\drivers\peripheral\gpio/cy_gpio.h ****     CY_ASSERT_L2(CY_GPIO_IS_VALUE_VALID(value));
 980:Generated_Source\PSoC6\pdl\drivers\peripheral\gpio/cy_gpio.h **** 
 981:Generated_Source\PSoC6\pdl\drivers\peripheral\gpio/cy_gpio.h ****     tempReg = base->CFG_IN & ~(CY_GPIO_CFG_IN_VTRIP_SEL_MASK << pinNum);
 982:Generated_Source\PSoC6\pdl\drivers\peripheral\gpio/cy_gpio.h ****     base->CFG_IN = tempReg | ((value & CY_GPIO_CFG_IN_VTRIP_SEL_MASK) << pinNum);
 983:Generated_Source\PSoC6\pdl\drivers\peripheral\gpio/cy_gpio.h **** }
 984:Generated_Source\PSoC6\pdl\drivers\peripheral\gpio/cy_gpio.h **** 
 985:Generated_Source\PSoC6\pdl\drivers\peripheral\gpio/cy_gpio.h **** 
 986:Generated_Source\PSoC6\pdl\drivers\peripheral\gpio/cy_gpio.h **** /*******************************************************************************
 987:Generated_Source\PSoC6\pdl\drivers\peripheral\gpio/cy_gpio.h **** * Function Name: Cy_GPIO_GetVtrip
 988:Generated_Source\PSoC6\pdl\drivers\peripheral\gpio/cy_gpio.h **** ****************************************************************************//**
 989:Generated_Source\PSoC6\pdl\drivers\peripheral\gpio/cy_gpio.h **** *
 990:Generated_Source\PSoC6\pdl\drivers\peripheral\gpio/cy_gpio.h **** * \brief Returns the pin input buffer voltage threshold mode.
 991:Generated_Source\PSoC6\pdl\drivers\peripheral\gpio/cy_gpio.h **** *
 992:Generated_Source\PSoC6\pdl\drivers\peripheral\gpio/cy_gpio.h **** * \param base
 993:Generated_Source\PSoC6\pdl\drivers\peripheral\gpio/cy_gpio.h **** * Pointer to the pin's port register base address
 994:Generated_Source\PSoC6\pdl\drivers\peripheral\gpio/cy_gpio.h **** *
 995:Generated_Source\PSoC6\pdl\drivers\peripheral\gpio/cy_gpio.h **** * \param pinNum
 996:Generated_Source\PSoC6\pdl\drivers\peripheral\gpio/cy_gpio.h **** * Position of the pin bit-field within the port register
 997:Generated_Source\PSoC6\pdl\drivers\peripheral\gpio/cy_gpio.h **** *
 998:Generated_Source\PSoC6\pdl\drivers\peripheral\gpio/cy_gpio.h **** * \return
 999:Generated_Source\PSoC6\pdl\drivers\peripheral\gpio/cy_gpio.h **** * Pin voltage threshold mode. Options are detailed in \ref group_gpio_vtrip macros
1000:Generated_Source\PSoC6\pdl\drivers\peripheral\gpio/cy_gpio.h **** *
1001:Generated_Source\PSoC6\pdl\drivers\peripheral\gpio/cy_gpio.h **** * \funcusage
1002:Generated_Source\PSoC6\pdl\drivers\peripheral\gpio/cy_gpio.h **** * \snippet gpio/gpio_v1_10_sut_01.cydsn/main_cm4.c snippet_Cy_GPIO_SetVtrip
1003:Generated_Source\PSoC6\pdl\drivers\peripheral\gpio/cy_gpio.h **** *
1004:Generated_Source\PSoC6\pdl\drivers\peripheral\gpio/cy_gpio.h **** *******************************************************************************/
1005:Generated_Source\PSoC6\pdl\drivers\peripheral\gpio/cy_gpio.h **** __STATIC_INLINE uint32_t Cy_GPIO_GetVtrip(GPIO_PRT_Type* base, uint32_t pinNum)
1006:Generated_Source\PSoC6\pdl\drivers\peripheral\gpio/cy_gpio.h **** {
1007:Generated_Source\PSoC6\pdl\drivers\peripheral\gpio/cy_gpio.h ****     CY_ASSERT_L2(CY_GPIO_IS_PIN_VALID(pinNum));
1008:Generated_Source\PSoC6\pdl\drivers\peripheral\gpio/cy_gpio.h ****     
1009:Generated_Source\PSoC6\pdl\drivers\peripheral\gpio/cy_gpio.h ****     return (base->CFG_IN >> pinNum) & CY_GPIO_CFG_IN_VTRIP_SEL_MASK;
1010:Generated_Source\PSoC6\pdl\drivers\peripheral\gpio/cy_gpio.h **** }
1011:Generated_Source\PSoC6\pdl\drivers\peripheral\gpio/cy_gpio.h **** 
1012:Generated_Source\PSoC6\pdl\drivers\peripheral\gpio/cy_gpio.h **** 
1013:Generated_Source\PSoC6\pdl\drivers\peripheral\gpio/cy_gpio.h **** /*******************************************************************************
1014:Generated_Source\PSoC6\pdl\drivers\peripheral\gpio/cy_gpio.h **** * Function Name: Cy_GPIO_SetSlewRate
1015:Generated_Source\PSoC6\pdl\drivers\peripheral\gpio/cy_gpio.h **** ****************************************************************************//**
1016:Generated_Source\PSoC6\pdl\drivers\peripheral\gpio/cy_gpio.h **** *
1017:Generated_Source\PSoC6\pdl\drivers\peripheral\gpio/cy_gpio.h **** * \brief Configures the pin output buffer slew rate.
1018:Generated_Source\PSoC6\pdl\drivers\peripheral\gpio/cy_gpio.h **** *
1019:Generated_Source\PSoC6\pdl\drivers\peripheral\gpio/cy_gpio.h **** * \param base
1020:Generated_Source\PSoC6\pdl\drivers\peripheral\gpio/cy_gpio.h **** * Pointer to the pin's port register base address
1021:Generated_Source\PSoC6\pdl\drivers\peripheral\gpio/cy_gpio.h **** *
1022:Generated_Source\PSoC6\pdl\drivers\peripheral\gpio/cy_gpio.h **** * \param pinNum
1023:Generated_Source\PSoC6\pdl\drivers\peripheral\gpio/cy_gpio.h **** * Position of the pin bit-field within the port register
1024:Generated_Source\PSoC6\pdl\drivers\peripheral\gpio/cy_gpio.h **** *
1025:Generated_Source\PSoC6\pdl\drivers\peripheral\gpio/cy_gpio.h **** * \param value
1026:Generated_Source\PSoC6\pdl\drivers\peripheral\gpio/cy_gpio.h **** * Pin slew rate. Options are detailed in \ref group_gpio_slewRate macros
1027:Generated_Source\PSoC6\pdl\drivers\peripheral\gpio/cy_gpio.h **** *
1028:Generated_Source\PSoC6\pdl\drivers\peripheral\gpio/cy_gpio.h **** * \return
1029:Generated_Source\PSoC6\pdl\drivers\peripheral\gpio/cy_gpio.h **** * void
1030:Generated_Source\PSoC6\pdl\drivers\peripheral\gpio/cy_gpio.h **** *
1031:Generated_Source\PSoC6\pdl\drivers\peripheral\gpio/cy_gpio.h **** * \note 
1032:Generated_Source\PSoC6\pdl\drivers\peripheral\gpio/cy_gpio.h **** * This function modifies a port register in a read-modify-write operation. It is
1033:Generated_Source\PSoC6\pdl\drivers\peripheral\gpio/cy_gpio.h **** * not thread safe as the resource is shared among multiple pins on a port.
1034:Generated_Source\PSoC6\pdl\drivers\peripheral\gpio/cy_gpio.h **** *
1035:Generated_Source\PSoC6\pdl\drivers\peripheral\gpio/cy_gpio.h **** * \funcusage
ARM GAS  C:\Users\salaz\AppData\Local\Temp\ccgHiAyq.s 			page 27


1036:Generated_Source\PSoC6\pdl\drivers\peripheral\gpio/cy_gpio.h **** * \snippet gpio/gpio_v1_10_sut_01.cydsn/main_cm4.c snippet_Cy_GPIO_SetSlewRate
1037:Generated_Source\PSoC6\pdl\drivers\peripheral\gpio/cy_gpio.h **** *
1038:Generated_Source\PSoC6\pdl\drivers\peripheral\gpio/cy_gpio.h **** *******************************************************************************/
1039:Generated_Source\PSoC6\pdl\drivers\peripheral\gpio/cy_gpio.h **** __STATIC_INLINE void Cy_GPIO_SetSlewRate(GPIO_PRT_Type* base, uint32_t pinNum, uint32_t value)
1040:Generated_Source\PSoC6\pdl\drivers\peripheral\gpio/cy_gpio.h **** {
1041:Generated_Source\PSoC6\pdl\drivers\peripheral\gpio/cy_gpio.h ****     uint32_t tempReg;
1042:Generated_Source\PSoC6\pdl\drivers\peripheral\gpio/cy_gpio.h **** 
1043:Generated_Source\PSoC6\pdl\drivers\peripheral\gpio/cy_gpio.h ****     CY_ASSERT_L2(CY_GPIO_IS_PIN_VALID(pinNum));
1044:Generated_Source\PSoC6\pdl\drivers\peripheral\gpio/cy_gpio.h ****     CY_ASSERT_L2(CY_GPIO_IS_VALUE_VALID(value));
1045:Generated_Source\PSoC6\pdl\drivers\peripheral\gpio/cy_gpio.h **** 
1046:Generated_Source\PSoC6\pdl\drivers\peripheral\gpio/cy_gpio.h ****     tempReg = base->CFG_OUT & ~(CY_GPIO_CFG_OUT_SLOW_MASK << pinNum);
1047:Generated_Source\PSoC6\pdl\drivers\peripheral\gpio/cy_gpio.h ****     base->CFG_OUT = tempReg | ((value & CY_GPIO_CFG_OUT_SLOW_MASK) << pinNum);
1048:Generated_Source\PSoC6\pdl\drivers\peripheral\gpio/cy_gpio.h **** }
1049:Generated_Source\PSoC6\pdl\drivers\peripheral\gpio/cy_gpio.h **** 
1050:Generated_Source\PSoC6\pdl\drivers\peripheral\gpio/cy_gpio.h **** 
1051:Generated_Source\PSoC6\pdl\drivers\peripheral\gpio/cy_gpio.h **** /*******************************************************************************
1052:Generated_Source\PSoC6\pdl\drivers\peripheral\gpio/cy_gpio.h **** * Function Name: Cy_GPIO_GetSlewRate
1053:Generated_Source\PSoC6\pdl\drivers\peripheral\gpio/cy_gpio.h **** ****************************************************************************//**
1054:Generated_Source\PSoC6\pdl\drivers\peripheral\gpio/cy_gpio.h **** *
1055:Generated_Source\PSoC6\pdl\drivers\peripheral\gpio/cy_gpio.h **** * \brief Returns the pin output buffer slew rate.
1056:Generated_Source\PSoC6\pdl\drivers\peripheral\gpio/cy_gpio.h **** *
1057:Generated_Source\PSoC6\pdl\drivers\peripheral\gpio/cy_gpio.h **** * \param base
1058:Generated_Source\PSoC6\pdl\drivers\peripheral\gpio/cy_gpio.h **** * Pointer to the pin's port register base address
1059:Generated_Source\PSoC6\pdl\drivers\peripheral\gpio/cy_gpio.h **** *
1060:Generated_Source\PSoC6\pdl\drivers\peripheral\gpio/cy_gpio.h **** * \param pinNum
1061:Generated_Source\PSoC6\pdl\drivers\peripheral\gpio/cy_gpio.h **** * Position of the pin bit-field within the port register
1062:Generated_Source\PSoC6\pdl\drivers\peripheral\gpio/cy_gpio.h **** *
1063:Generated_Source\PSoC6\pdl\drivers\peripheral\gpio/cy_gpio.h **** * \return
1064:Generated_Source\PSoC6\pdl\drivers\peripheral\gpio/cy_gpio.h **** * Pin slew rate. Options are detailed in \ref group_gpio_slewRate macros
1065:Generated_Source\PSoC6\pdl\drivers\peripheral\gpio/cy_gpio.h **** *
1066:Generated_Source\PSoC6\pdl\drivers\peripheral\gpio/cy_gpio.h **** * \funcusage
1067:Generated_Source\PSoC6\pdl\drivers\peripheral\gpio/cy_gpio.h **** * \snippet gpio/gpio_v1_10_sut_01.cydsn/main_cm4.c snippet_Cy_GPIO_SetSlewRate
1068:Generated_Source\PSoC6\pdl\drivers\peripheral\gpio/cy_gpio.h **** *
1069:Generated_Source\PSoC6\pdl\drivers\peripheral\gpio/cy_gpio.h **** *******************************************************************************/
1070:Generated_Source\PSoC6\pdl\drivers\peripheral\gpio/cy_gpio.h **** __STATIC_INLINE uint32_t Cy_GPIO_GetSlewRate(GPIO_PRT_Type* base, uint32_t pinNum)
1071:Generated_Source\PSoC6\pdl\drivers\peripheral\gpio/cy_gpio.h **** {
1072:Generated_Source\PSoC6\pdl\drivers\peripheral\gpio/cy_gpio.h ****     CY_ASSERT_L2(CY_GPIO_IS_PIN_VALID(pinNum));
1073:Generated_Source\PSoC6\pdl\drivers\peripheral\gpio/cy_gpio.h **** 
1074:Generated_Source\PSoC6\pdl\drivers\peripheral\gpio/cy_gpio.h ****     return (base->CFG_OUT >> pinNum) & CY_GPIO_CFG_OUT_SLOW_MASK;
1075:Generated_Source\PSoC6\pdl\drivers\peripheral\gpio/cy_gpio.h **** }
1076:Generated_Source\PSoC6\pdl\drivers\peripheral\gpio/cy_gpio.h **** 
1077:Generated_Source\PSoC6\pdl\drivers\peripheral\gpio/cy_gpio.h **** 
1078:Generated_Source\PSoC6\pdl\drivers\peripheral\gpio/cy_gpio.h **** /*******************************************************************************
1079:Generated_Source\PSoC6\pdl\drivers\peripheral\gpio/cy_gpio.h **** * Function Name: Cy_GPIO_SetDriveSel
1080:Generated_Source\PSoC6\pdl\drivers\peripheral\gpio/cy_gpio.h **** ****************************************************************************//**
1081:Generated_Source\PSoC6\pdl\drivers\peripheral\gpio/cy_gpio.h **** *
1082:Generated_Source\PSoC6\pdl\drivers\peripheral\gpio/cy_gpio.h **** * \brief Configures the pin output buffer drive strength.
1083:Generated_Source\PSoC6\pdl\drivers\peripheral\gpio/cy_gpio.h **** *
1084:Generated_Source\PSoC6\pdl\drivers\peripheral\gpio/cy_gpio.h **** * \param base
1085:Generated_Source\PSoC6\pdl\drivers\peripheral\gpio/cy_gpio.h **** * Pointer to the pin's port register base address
1086:Generated_Source\PSoC6\pdl\drivers\peripheral\gpio/cy_gpio.h **** *
1087:Generated_Source\PSoC6\pdl\drivers\peripheral\gpio/cy_gpio.h **** * \param pinNum
1088:Generated_Source\PSoC6\pdl\drivers\peripheral\gpio/cy_gpio.h **** * Position of the pin bit-field within the port register
1089:Generated_Source\PSoC6\pdl\drivers\peripheral\gpio/cy_gpio.h **** *
1090:Generated_Source\PSoC6\pdl\drivers\peripheral\gpio/cy_gpio.h **** * \param value
1091:Generated_Source\PSoC6\pdl\drivers\peripheral\gpio/cy_gpio.h **** * Pin drive strength. Options are detailed in \ref group_gpio_driveStrength macros
1092:Generated_Source\PSoC6\pdl\drivers\peripheral\gpio/cy_gpio.h **** *
ARM GAS  C:\Users\salaz\AppData\Local\Temp\ccgHiAyq.s 			page 28


1093:Generated_Source\PSoC6\pdl\drivers\peripheral\gpio/cy_gpio.h **** * \return
1094:Generated_Source\PSoC6\pdl\drivers\peripheral\gpio/cy_gpio.h **** * void
1095:Generated_Source\PSoC6\pdl\drivers\peripheral\gpio/cy_gpio.h **** *
1096:Generated_Source\PSoC6\pdl\drivers\peripheral\gpio/cy_gpio.h **** * \note 
1097:Generated_Source\PSoC6\pdl\drivers\peripheral\gpio/cy_gpio.h **** * This function modifies a port register in a read-modify-write operation. It is
1098:Generated_Source\PSoC6\pdl\drivers\peripheral\gpio/cy_gpio.h **** * not thread safe as the resource is shared among multiple pins on a port.
1099:Generated_Source\PSoC6\pdl\drivers\peripheral\gpio/cy_gpio.h **** *
1100:Generated_Source\PSoC6\pdl\drivers\peripheral\gpio/cy_gpio.h **** * \funcusage
1101:Generated_Source\PSoC6\pdl\drivers\peripheral\gpio/cy_gpio.h **** * \snippet gpio/gpio_v1_10_sut_01.cydsn/main_cm4.c snippet_Cy_GPIO_SetDriveSel
1102:Generated_Source\PSoC6\pdl\drivers\peripheral\gpio/cy_gpio.h **** *
1103:Generated_Source\PSoC6\pdl\drivers\peripheral\gpio/cy_gpio.h **** *******************************************************************************/
1104:Generated_Source\PSoC6\pdl\drivers\peripheral\gpio/cy_gpio.h **** __STATIC_INLINE void Cy_GPIO_SetDriveSel(GPIO_PRT_Type* base, uint32_t pinNum, uint32_t value)
1105:Generated_Source\PSoC6\pdl\drivers\peripheral\gpio/cy_gpio.h **** {
1106:Generated_Source\PSoC6\pdl\drivers\peripheral\gpio/cy_gpio.h ****     uint32_t tempReg;
1107:Generated_Source\PSoC6\pdl\drivers\peripheral\gpio/cy_gpio.h ****     uint32_t pinLoc;
1108:Generated_Source\PSoC6\pdl\drivers\peripheral\gpio/cy_gpio.h **** 
1109:Generated_Source\PSoC6\pdl\drivers\peripheral\gpio/cy_gpio.h ****     CY_ASSERT_L2(CY_GPIO_IS_PIN_VALID(pinNum));
1110:Generated_Source\PSoC6\pdl\drivers\peripheral\gpio/cy_gpio.h ****     CY_ASSERT_L2(CY_GPIO_IS_DRIVE_SEL_VALID(value));
1111:Generated_Source\PSoC6\pdl\drivers\peripheral\gpio/cy_gpio.h ****     
1112:Generated_Source\PSoC6\pdl\drivers\peripheral\gpio/cy_gpio.h ****     pinLoc = (uint32_t)(pinNum << 1u) + CY_GPIO_CFG_OUT_DRIVE_OFFSET;
1113:Generated_Source\PSoC6\pdl\drivers\peripheral\gpio/cy_gpio.h ****     tempReg = base->CFG_OUT & ~(CY_GPIO_CFG_OUT_DRIVE_SEL_MASK << pinLoc);
1114:Generated_Source\PSoC6\pdl\drivers\peripheral\gpio/cy_gpio.h ****     base->CFG_OUT = tempReg | ((value & CY_GPIO_CFG_OUT_DRIVE_SEL_MASK) << pinLoc);
1115:Generated_Source\PSoC6\pdl\drivers\peripheral\gpio/cy_gpio.h **** }
1116:Generated_Source\PSoC6\pdl\drivers\peripheral\gpio/cy_gpio.h **** 
1117:Generated_Source\PSoC6\pdl\drivers\peripheral\gpio/cy_gpio.h **** 
1118:Generated_Source\PSoC6\pdl\drivers\peripheral\gpio/cy_gpio.h **** /*******************************************************************************
1119:Generated_Source\PSoC6\pdl\drivers\peripheral\gpio/cy_gpio.h **** * Function Name: Cy_GPIO_GetDriveSel
1120:Generated_Source\PSoC6\pdl\drivers\peripheral\gpio/cy_gpio.h **** ****************************************************************************//**
1121:Generated_Source\PSoC6\pdl\drivers\peripheral\gpio/cy_gpio.h **** *
1122:Generated_Source\PSoC6\pdl\drivers\peripheral\gpio/cy_gpio.h **** * \brief Returns the pin output buffer drive strength.
1123:Generated_Source\PSoC6\pdl\drivers\peripheral\gpio/cy_gpio.h **** *
1124:Generated_Source\PSoC6\pdl\drivers\peripheral\gpio/cy_gpio.h **** * \param base
1125:Generated_Source\PSoC6\pdl\drivers\peripheral\gpio/cy_gpio.h **** * Pointer to the pin's port register base address
1126:Generated_Source\PSoC6\pdl\drivers\peripheral\gpio/cy_gpio.h **** *
1127:Generated_Source\PSoC6\pdl\drivers\peripheral\gpio/cy_gpio.h **** * \param pinNum
1128:Generated_Source\PSoC6\pdl\drivers\peripheral\gpio/cy_gpio.h **** * Position of the pin bit-field within the port register
1129:Generated_Source\PSoC6\pdl\drivers\peripheral\gpio/cy_gpio.h **** *
1130:Generated_Source\PSoC6\pdl\drivers\peripheral\gpio/cy_gpio.h **** * \return
1131:Generated_Source\PSoC6\pdl\drivers\peripheral\gpio/cy_gpio.h **** * Pin drive strength. Options are detailed in \ref group_gpio_driveStrength macros
1132:Generated_Source\PSoC6\pdl\drivers\peripheral\gpio/cy_gpio.h **** *
1133:Generated_Source\PSoC6\pdl\drivers\peripheral\gpio/cy_gpio.h **** * \funcusage
1134:Generated_Source\PSoC6\pdl\drivers\peripheral\gpio/cy_gpio.h **** * \snippet gpio/gpio_v1_10_sut_01.cydsn/main_cm4.c snippet_Cy_GPIO_SetDriveSel
1135:Generated_Source\PSoC6\pdl\drivers\peripheral\gpio/cy_gpio.h **** *
1136:Generated_Source\PSoC6\pdl\drivers\peripheral\gpio/cy_gpio.h **** *******************************************************************************/
1137:Generated_Source\PSoC6\pdl\drivers\peripheral\gpio/cy_gpio.h **** __STATIC_INLINE uint32_t Cy_GPIO_GetDriveSel(GPIO_PRT_Type* base, uint32_t pinNum)
1138:Generated_Source\PSoC6\pdl\drivers\peripheral\gpio/cy_gpio.h **** {
1139:Generated_Source\PSoC6\pdl\drivers\peripheral\gpio/cy_gpio.h ****     CY_ASSERT_L2(CY_GPIO_IS_PIN_VALID(pinNum));
1140:Generated_Source\PSoC6\pdl\drivers\peripheral\gpio/cy_gpio.h **** 
1141:Generated_Source\PSoC6\pdl\drivers\peripheral\gpio/cy_gpio.h ****     return ((base->CFG_OUT >> ((uint32_t)(pinNum << 1u) + CY_GPIO_CFG_OUT_DRIVE_OFFSET)) 
1142:Generated_Source\PSoC6\pdl\drivers\peripheral\gpio/cy_gpio.h ****             & CY_GPIO_CFG_OUT_DRIVE_SEL_MASK);
1143:Generated_Source\PSoC6\pdl\drivers\peripheral\gpio/cy_gpio.h **** }
1144:Generated_Source\PSoC6\pdl\drivers\peripheral\gpio/cy_gpio.h **** 
1145:Generated_Source\PSoC6\pdl\drivers\peripheral\gpio/cy_gpio.h **** /** \} group_gpio_functions_gpio */
1146:Generated_Source\PSoC6\pdl\drivers\peripheral\gpio/cy_gpio.h **** 
1147:Generated_Source\PSoC6\pdl\drivers\peripheral\gpio/cy_gpio.h **** /**
1148:Generated_Source\PSoC6\pdl\drivers\peripheral\gpio/cy_gpio.h **** * \addtogroup group_gpio_functions_sio
1149:Generated_Source\PSoC6\pdl\drivers\peripheral\gpio/cy_gpio.h **** * \{
ARM GAS  C:\Users\salaz\AppData\Local\Temp\ccgHiAyq.s 			page 29


1150:Generated_Source\PSoC6\pdl\drivers\peripheral\gpio/cy_gpio.h **** */
1151:Generated_Source\PSoC6\pdl\drivers\peripheral\gpio/cy_gpio.h **** 
1152:Generated_Source\PSoC6\pdl\drivers\peripheral\gpio/cy_gpio.h **** /*******************************************************************************
1153:Generated_Source\PSoC6\pdl\drivers\peripheral\gpio/cy_gpio.h **** * Function Name: Cy_GPIO_SetVregEn
1154:Generated_Source\PSoC6\pdl\drivers\peripheral\gpio/cy_gpio.h **** ****************************************************************************//**
1155:Generated_Source\PSoC6\pdl\drivers\peripheral\gpio/cy_gpio.h **** *
1156:Generated_Source\PSoC6\pdl\drivers\peripheral\gpio/cy_gpio.h **** * \brief Configures the SIO pin pair output buffer regulation mode.
1157:Generated_Source\PSoC6\pdl\drivers\peripheral\gpio/cy_gpio.h **** *
1158:Generated_Source\PSoC6\pdl\drivers\peripheral\gpio/cy_gpio.h **** * Note that this function has no effect on non-SIO pins.
1159:Generated_Source\PSoC6\pdl\drivers\peripheral\gpio/cy_gpio.h **** *
1160:Generated_Source\PSoC6\pdl\drivers\peripheral\gpio/cy_gpio.h **** * \param base
1161:Generated_Source\PSoC6\pdl\drivers\peripheral\gpio/cy_gpio.h **** * Pointer to the pin's port register base address
1162:Generated_Source\PSoC6\pdl\drivers\peripheral\gpio/cy_gpio.h **** *
1163:Generated_Source\PSoC6\pdl\drivers\peripheral\gpio/cy_gpio.h **** * \param pinNum
1164:Generated_Source\PSoC6\pdl\drivers\peripheral\gpio/cy_gpio.h **** * Position of the pin bit-field within the port register
1165:Generated_Source\PSoC6\pdl\drivers\peripheral\gpio/cy_gpio.h **** *
1166:Generated_Source\PSoC6\pdl\drivers\peripheral\gpio/cy_gpio.h **** * \param value
1167:Generated_Source\PSoC6\pdl\drivers\peripheral\gpio/cy_gpio.h **** * SIO pair output buffer regulator mode. Options are detailed in \ref group_gpio_sioVreg macros
1168:Generated_Source\PSoC6\pdl\drivers\peripheral\gpio/cy_gpio.h **** *
1169:Generated_Source\PSoC6\pdl\drivers\peripheral\gpio/cy_gpio.h **** * \return
1170:Generated_Source\PSoC6\pdl\drivers\peripheral\gpio/cy_gpio.h **** * void
1171:Generated_Source\PSoC6\pdl\drivers\peripheral\gpio/cy_gpio.h **** *
1172:Generated_Source\PSoC6\pdl\drivers\peripheral\gpio/cy_gpio.h **** * \note 
1173:Generated_Source\PSoC6\pdl\drivers\peripheral\gpio/cy_gpio.h **** * This function modifies a port register in a read-modify-write operation. It is
1174:Generated_Source\PSoC6\pdl\drivers\peripheral\gpio/cy_gpio.h **** * not thread safe as the resource is shared among multiple pins on a port.
1175:Generated_Source\PSoC6\pdl\drivers\peripheral\gpio/cy_gpio.h **** *
1176:Generated_Source\PSoC6\pdl\drivers\peripheral\gpio/cy_gpio.h **** * \funcusage
1177:Generated_Source\PSoC6\pdl\drivers\peripheral\gpio/cy_gpio.h **** * \snippet gpio/gpio_v1_10_sut_01.cydsn/main_cm4.c snippet_Cy_GPIO_SetVregEn
1178:Generated_Source\PSoC6\pdl\drivers\peripheral\gpio/cy_gpio.h **** *
1179:Generated_Source\PSoC6\pdl\drivers\peripheral\gpio/cy_gpio.h **** *******************************************************************************/
1180:Generated_Source\PSoC6\pdl\drivers\peripheral\gpio/cy_gpio.h **** __STATIC_INLINE void Cy_GPIO_SetVregEn(GPIO_PRT_Type* base, uint32_t pinNum, uint32_t value)
1181:Generated_Source\PSoC6\pdl\drivers\peripheral\gpio/cy_gpio.h **** {
1182:Generated_Source\PSoC6\pdl\drivers\peripheral\gpio/cy_gpio.h ****     uint32_t tempReg;
1183:Generated_Source\PSoC6\pdl\drivers\peripheral\gpio/cy_gpio.h ****     uint32_t pinLoc;
1184:Generated_Source\PSoC6\pdl\drivers\peripheral\gpio/cy_gpio.h **** 
1185:Generated_Source\PSoC6\pdl\drivers\peripheral\gpio/cy_gpio.h ****     CY_ASSERT_L2(CY_GPIO_IS_PIN_VALID(pinNum));
1186:Generated_Source\PSoC6\pdl\drivers\peripheral\gpio/cy_gpio.h ****     CY_ASSERT_L2(CY_GPIO_IS_VALUE_VALID(value));
1187:Generated_Source\PSoC6\pdl\drivers\peripheral\gpio/cy_gpio.h **** 
1188:Generated_Source\PSoC6\pdl\drivers\peripheral\gpio/cy_gpio.h ****     pinLoc = (pinNum & CY_GPIO_SIO_ODD_PIN_MASK) << CY_GPIO_CFG_SIO_OFFSET;
1189:Generated_Source\PSoC6\pdl\drivers\peripheral\gpio/cy_gpio.h ****     tempReg = base->CFG_SIO & ~(CY_GPIO_VREG_EN_MASK << pinLoc);
1190:Generated_Source\PSoC6\pdl\drivers\peripheral\gpio/cy_gpio.h ****     base->CFG_SIO = tempReg | ((value & CY_GPIO_VREG_EN_MASK) << pinLoc);
1191:Generated_Source\PSoC6\pdl\drivers\peripheral\gpio/cy_gpio.h **** }
1192:Generated_Source\PSoC6\pdl\drivers\peripheral\gpio/cy_gpio.h **** 
1193:Generated_Source\PSoC6\pdl\drivers\peripheral\gpio/cy_gpio.h **** 
1194:Generated_Source\PSoC6\pdl\drivers\peripheral\gpio/cy_gpio.h **** /*******************************************************************************
1195:Generated_Source\PSoC6\pdl\drivers\peripheral\gpio/cy_gpio.h **** * Function Name: Cy_GPIO_GetVregEn
1196:Generated_Source\PSoC6\pdl\drivers\peripheral\gpio/cy_gpio.h **** ****************************************************************************//**
1197:Generated_Source\PSoC6\pdl\drivers\peripheral\gpio/cy_gpio.h **** *
1198:Generated_Source\PSoC6\pdl\drivers\peripheral\gpio/cy_gpio.h **** * \brief Returns the SIO pin pair output buffer regulation mode.
1199:Generated_Source\PSoC6\pdl\drivers\peripheral\gpio/cy_gpio.h **** *
1200:Generated_Source\PSoC6\pdl\drivers\peripheral\gpio/cy_gpio.h **** * Note that this function has no effect on non-SIO pins.
1201:Generated_Source\PSoC6\pdl\drivers\peripheral\gpio/cy_gpio.h **** *
1202:Generated_Source\PSoC6\pdl\drivers\peripheral\gpio/cy_gpio.h **** * \param base
1203:Generated_Source\PSoC6\pdl\drivers\peripheral\gpio/cy_gpio.h **** * Pointer to the pin's port register base address
1204:Generated_Source\PSoC6\pdl\drivers\peripheral\gpio/cy_gpio.h **** *
1205:Generated_Source\PSoC6\pdl\drivers\peripheral\gpio/cy_gpio.h **** * \param pinNum
1206:Generated_Source\PSoC6\pdl\drivers\peripheral\gpio/cy_gpio.h **** * Position of the pin bit-field within the port register
ARM GAS  C:\Users\salaz\AppData\Local\Temp\ccgHiAyq.s 			page 30


1207:Generated_Source\PSoC6\pdl\drivers\peripheral\gpio/cy_gpio.h **** *
1208:Generated_Source\PSoC6\pdl\drivers\peripheral\gpio/cy_gpio.h **** * \return
1209:Generated_Source\PSoC6\pdl\drivers\peripheral\gpio/cy_gpio.h **** * SIO pair output buffer regulator mode. Options are detailed in \ref group_gpio_sioVreg macros
1210:Generated_Source\PSoC6\pdl\drivers\peripheral\gpio/cy_gpio.h **** *
1211:Generated_Source\PSoC6\pdl\drivers\peripheral\gpio/cy_gpio.h **** * \funcusage
1212:Generated_Source\PSoC6\pdl\drivers\peripheral\gpio/cy_gpio.h **** * \snippet gpio/gpio_v1_10_sut_01.cydsn/main_cm4.c snippet_Cy_GPIO_SetVregEn
1213:Generated_Source\PSoC6\pdl\drivers\peripheral\gpio/cy_gpio.h **** *
1214:Generated_Source\PSoC6\pdl\drivers\peripheral\gpio/cy_gpio.h **** *******************************************************************************/
1215:Generated_Source\PSoC6\pdl\drivers\peripheral\gpio/cy_gpio.h **** __STATIC_INLINE uint32_t Cy_GPIO_GetVregEn(GPIO_PRT_Type* base, uint32_t pinNum)
1216:Generated_Source\PSoC6\pdl\drivers\peripheral\gpio/cy_gpio.h **** {
1217:Generated_Source\PSoC6\pdl\drivers\peripheral\gpio/cy_gpio.h ****     CY_ASSERT_L2(CY_GPIO_IS_PIN_VALID(pinNum));
1218:Generated_Source\PSoC6\pdl\drivers\peripheral\gpio/cy_gpio.h ****     
1219:Generated_Source\PSoC6\pdl\drivers\peripheral\gpio/cy_gpio.h ****     return (base->CFG_SIO >> ((pinNum & CY_GPIO_SIO_ODD_PIN_MASK) << CY_GPIO_CFG_SIO_OFFSET)) & CY_
1220:Generated_Source\PSoC6\pdl\drivers\peripheral\gpio/cy_gpio.h **** }
1221:Generated_Source\PSoC6\pdl\drivers\peripheral\gpio/cy_gpio.h **** 
1222:Generated_Source\PSoC6\pdl\drivers\peripheral\gpio/cy_gpio.h **** 
1223:Generated_Source\PSoC6\pdl\drivers\peripheral\gpio/cy_gpio.h **** /*******************************************************************************
1224:Generated_Source\PSoC6\pdl\drivers\peripheral\gpio/cy_gpio.h **** * Function Name: Cy_GPIO_SetIbufMode
1225:Generated_Source\PSoC6\pdl\drivers\peripheral\gpio/cy_gpio.h **** ****************************************************************************//**
1226:Generated_Source\PSoC6\pdl\drivers\peripheral\gpio/cy_gpio.h **** *
1227:Generated_Source\PSoC6\pdl\drivers\peripheral\gpio/cy_gpio.h **** * \brief Configures the SIO pin pair input buffer mode.
1228:Generated_Source\PSoC6\pdl\drivers\peripheral\gpio/cy_gpio.h **** *
1229:Generated_Source\PSoC6\pdl\drivers\peripheral\gpio/cy_gpio.h **** * Note that this function has no effect on non-SIO pins.
1230:Generated_Source\PSoC6\pdl\drivers\peripheral\gpio/cy_gpio.h **** *
1231:Generated_Source\PSoC6\pdl\drivers\peripheral\gpio/cy_gpio.h **** * \param base
1232:Generated_Source\PSoC6\pdl\drivers\peripheral\gpio/cy_gpio.h **** * Pointer to the pin's port register base address
1233:Generated_Source\PSoC6\pdl\drivers\peripheral\gpio/cy_gpio.h **** *
1234:Generated_Source\PSoC6\pdl\drivers\peripheral\gpio/cy_gpio.h **** * \param pinNum
1235:Generated_Source\PSoC6\pdl\drivers\peripheral\gpio/cy_gpio.h **** * Position of the pin bit-field within the port register
1236:Generated_Source\PSoC6\pdl\drivers\peripheral\gpio/cy_gpio.h **** *
1237:Generated_Source\PSoC6\pdl\drivers\peripheral\gpio/cy_gpio.h **** * \param value
1238:Generated_Source\PSoC6\pdl\drivers\peripheral\gpio/cy_gpio.h **** * SIO pair input buffer mode. Options are detailed in \ref group_gpio_sioIbuf macros
1239:Generated_Source\PSoC6\pdl\drivers\peripheral\gpio/cy_gpio.h **** *
1240:Generated_Source\PSoC6\pdl\drivers\peripheral\gpio/cy_gpio.h **** * \return
1241:Generated_Source\PSoC6\pdl\drivers\peripheral\gpio/cy_gpio.h **** * void
1242:Generated_Source\PSoC6\pdl\drivers\peripheral\gpio/cy_gpio.h **** *
1243:Generated_Source\PSoC6\pdl\drivers\peripheral\gpio/cy_gpio.h **** * \note 
1244:Generated_Source\PSoC6\pdl\drivers\peripheral\gpio/cy_gpio.h **** * This function modifies a port register in a read-modify-write operation. It is
1245:Generated_Source\PSoC6\pdl\drivers\peripheral\gpio/cy_gpio.h **** * not thread safe as the resource is shared among multiple pins on a port.
1246:Generated_Source\PSoC6\pdl\drivers\peripheral\gpio/cy_gpio.h **** *
1247:Generated_Source\PSoC6\pdl\drivers\peripheral\gpio/cy_gpio.h **** * \funcusage
1248:Generated_Source\PSoC6\pdl\drivers\peripheral\gpio/cy_gpio.h **** * \snippet gpio/gpio_v1_10_sut_01.cydsn/main_cm4.c snippet_Cy_GPIO_SetIbufMode
1249:Generated_Source\PSoC6\pdl\drivers\peripheral\gpio/cy_gpio.h **** *
1250:Generated_Source\PSoC6\pdl\drivers\peripheral\gpio/cy_gpio.h **** *******************************************************************************/
1251:Generated_Source\PSoC6\pdl\drivers\peripheral\gpio/cy_gpio.h **** __STATIC_INLINE void Cy_GPIO_SetIbufMode(GPIO_PRT_Type* base, uint32_t pinNum, uint32_t value)
1252:Generated_Source\PSoC6\pdl\drivers\peripheral\gpio/cy_gpio.h **** {
1253:Generated_Source\PSoC6\pdl\drivers\peripheral\gpio/cy_gpio.h ****     uint32_t tempReg;
1254:Generated_Source\PSoC6\pdl\drivers\peripheral\gpio/cy_gpio.h ****     uint32_t pinLoc;
1255:Generated_Source\PSoC6\pdl\drivers\peripheral\gpio/cy_gpio.h **** 
1256:Generated_Source\PSoC6\pdl\drivers\peripheral\gpio/cy_gpio.h ****     CY_ASSERT_L2(CY_GPIO_IS_PIN_VALID(pinNum));
1257:Generated_Source\PSoC6\pdl\drivers\peripheral\gpio/cy_gpio.h ****     CY_ASSERT_L2(CY_GPIO_IS_VALUE_VALID(value));
1258:Generated_Source\PSoC6\pdl\drivers\peripheral\gpio/cy_gpio.h **** 
1259:Generated_Source\PSoC6\pdl\drivers\peripheral\gpio/cy_gpio.h ****     pinLoc = ((pinNum & CY_GPIO_SIO_ODD_PIN_MASK) << CY_GPIO_CFG_SIO_OFFSET) + CY_GPIO_IBUF_SHIFT;
1260:Generated_Source\PSoC6\pdl\drivers\peripheral\gpio/cy_gpio.h ****     tempReg = (base->CFG_SIO & ~(CY_GPIO_IBUF_MASK << pinLoc));
1261:Generated_Source\PSoC6\pdl\drivers\peripheral\gpio/cy_gpio.h ****     base->CFG_SIO = tempReg | ((value & CY_GPIO_IBUF_MASK) << pinLoc);
1262:Generated_Source\PSoC6\pdl\drivers\peripheral\gpio/cy_gpio.h **** }
1263:Generated_Source\PSoC6\pdl\drivers\peripheral\gpio/cy_gpio.h **** 
ARM GAS  C:\Users\salaz\AppData\Local\Temp\ccgHiAyq.s 			page 31


1264:Generated_Source\PSoC6\pdl\drivers\peripheral\gpio/cy_gpio.h **** 
1265:Generated_Source\PSoC6\pdl\drivers\peripheral\gpio/cy_gpio.h **** /*******************************************************************************
1266:Generated_Source\PSoC6\pdl\drivers\peripheral\gpio/cy_gpio.h **** * Function Name: Cy_GPIO_GetIbufMode
1267:Generated_Source\PSoC6\pdl\drivers\peripheral\gpio/cy_gpio.h **** ****************************************************************************//**
1268:Generated_Source\PSoC6\pdl\drivers\peripheral\gpio/cy_gpio.h **** *
1269:Generated_Source\PSoC6\pdl\drivers\peripheral\gpio/cy_gpio.h **** * \brief Returns the SIO pin pair input buffer mode.
1270:Generated_Source\PSoC6\pdl\drivers\peripheral\gpio/cy_gpio.h **** *
1271:Generated_Source\PSoC6\pdl\drivers\peripheral\gpio/cy_gpio.h **** * Note that this function has no effect on non-SIO pins.
1272:Generated_Source\PSoC6\pdl\drivers\peripheral\gpio/cy_gpio.h **** *
1273:Generated_Source\PSoC6\pdl\drivers\peripheral\gpio/cy_gpio.h **** * \param base
1274:Generated_Source\PSoC6\pdl\drivers\peripheral\gpio/cy_gpio.h **** * Pointer to the pin's port register base address
1275:Generated_Source\PSoC6\pdl\drivers\peripheral\gpio/cy_gpio.h **** *
1276:Generated_Source\PSoC6\pdl\drivers\peripheral\gpio/cy_gpio.h **** * \param pinNum
1277:Generated_Source\PSoC6\pdl\drivers\peripheral\gpio/cy_gpio.h **** * Position of the pin bit-field within the port register
1278:Generated_Source\PSoC6\pdl\drivers\peripheral\gpio/cy_gpio.h **** *
1279:Generated_Source\PSoC6\pdl\drivers\peripheral\gpio/cy_gpio.h **** * \return
1280:Generated_Source\PSoC6\pdl\drivers\peripheral\gpio/cy_gpio.h **** * SIO pair input buffer mode. Options are detailed in \ref group_gpio_sioIbuf macros
1281:Generated_Source\PSoC6\pdl\drivers\peripheral\gpio/cy_gpio.h **** *
1282:Generated_Source\PSoC6\pdl\drivers\peripheral\gpio/cy_gpio.h **** * \funcusage
1283:Generated_Source\PSoC6\pdl\drivers\peripheral\gpio/cy_gpio.h **** * \snippet gpio/gpio_v1_10_sut_01.cydsn/main_cm4.c snippet_Cy_GPIO_SetIbufMode
1284:Generated_Source\PSoC6\pdl\drivers\peripheral\gpio/cy_gpio.h **** *
1285:Generated_Source\PSoC6\pdl\drivers\peripheral\gpio/cy_gpio.h **** *******************************************************************************/
1286:Generated_Source\PSoC6\pdl\drivers\peripheral\gpio/cy_gpio.h **** __STATIC_INLINE uint32_t Cy_GPIO_GetIbufMode(GPIO_PRT_Type* base, uint32_t pinNum)
1287:Generated_Source\PSoC6\pdl\drivers\peripheral\gpio/cy_gpio.h **** {
1288:Generated_Source\PSoC6\pdl\drivers\peripheral\gpio/cy_gpio.h ****     CY_ASSERT_L2(CY_GPIO_IS_PIN_VALID(pinNum));
1289:Generated_Source\PSoC6\pdl\drivers\peripheral\gpio/cy_gpio.h ****     
1290:Generated_Source\PSoC6\pdl\drivers\peripheral\gpio/cy_gpio.h ****     return (base->CFG_SIO >> (((pinNum & CY_GPIO_SIO_ODD_PIN_MASK) << CY_GPIO_CFG_SIO_OFFSET) + CY_
1291:Generated_Source\PSoC6\pdl\drivers\peripheral\gpio/cy_gpio.h **** }
1292:Generated_Source\PSoC6\pdl\drivers\peripheral\gpio/cy_gpio.h **** 
1293:Generated_Source\PSoC6\pdl\drivers\peripheral\gpio/cy_gpio.h **** 
1294:Generated_Source\PSoC6\pdl\drivers\peripheral\gpio/cy_gpio.h **** /*******************************************************************************
1295:Generated_Source\PSoC6\pdl\drivers\peripheral\gpio/cy_gpio.h **** * Function Name: Cy_GPIO_SetVtripSel
1296:Generated_Source\PSoC6\pdl\drivers\peripheral\gpio/cy_gpio.h **** ****************************************************************************//**
1297:Generated_Source\PSoC6\pdl\drivers\peripheral\gpio/cy_gpio.h **** *
1298:Generated_Source\PSoC6\pdl\drivers\peripheral\gpio/cy_gpio.h **** * \brief Configures the SIO pin pair input buffer trip point.
1299:Generated_Source\PSoC6\pdl\drivers\peripheral\gpio/cy_gpio.h **** *
1300:Generated_Source\PSoC6\pdl\drivers\peripheral\gpio/cy_gpio.h **** * Note that this function has no effect on non-SIO pins.
1301:Generated_Source\PSoC6\pdl\drivers\peripheral\gpio/cy_gpio.h **** *
1302:Generated_Source\PSoC6\pdl\drivers\peripheral\gpio/cy_gpio.h **** * \param base
1303:Generated_Source\PSoC6\pdl\drivers\peripheral\gpio/cy_gpio.h **** * Pointer to the pin's port register base address
1304:Generated_Source\PSoC6\pdl\drivers\peripheral\gpio/cy_gpio.h **** *
1305:Generated_Source\PSoC6\pdl\drivers\peripheral\gpio/cy_gpio.h **** * \param pinNum
1306:Generated_Source\PSoC6\pdl\drivers\peripheral\gpio/cy_gpio.h **** * Position of the pin bit-field within the port register
1307:Generated_Source\PSoC6\pdl\drivers\peripheral\gpio/cy_gpio.h **** *
1308:Generated_Source\PSoC6\pdl\drivers\peripheral\gpio/cy_gpio.h **** * \param value
1309:Generated_Source\PSoC6\pdl\drivers\peripheral\gpio/cy_gpio.h **** * SIO pair input buffer trip point. Options are detailed in \ref group_gpio_sioVtrip macros
1310:Generated_Source\PSoC6\pdl\drivers\peripheral\gpio/cy_gpio.h **** *
1311:Generated_Source\PSoC6\pdl\drivers\peripheral\gpio/cy_gpio.h **** * \return
1312:Generated_Source\PSoC6\pdl\drivers\peripheral\gpio/cy_gpio.h **** * void
1313:Generated_Source\PSoC6\pdl\drivers\peripheral\gpio/cy_gpio.h **** *
1314:Generated_Source\PSoC6\pdl\drivers\peripheral\gpio/cy_gpio.h **** * \note 
1315:Generated_Source\PSoC6\pdl\drivers\peripheral\gpio/cy_gpio.h **** * This function modifies a port register in a read-modify-write operation. It is
1316:Generated_Source\PSoC6\pdl\drivers\peripheral\gpio/cy_gpio.h **** * not thread safe as the resource is shared among multiple pins on a port.
1317:Generated_Source\PSoC6\pdl\drivers\peripheral\gpio/cy_gpio.h **** *
1318:Generated_Source\PSoC6\pdl\drivers\peripheral\gpio/cy_gpio.h **** * \funcusage
1319:Generated_Source\PSoC6\pdl\drivers\peripheral\gpio/cy_gpio.h **** * \snippet gpio/gpio_v1_10_sut_01.cydsn/main_cm4.c snippet_Cy_GPIO_SetVtripSel
1320:Generated_Source\PSoC6\pdl\drivers\peripheral\gpio/cy_gpio.h **** *
ARM GAS  C:\Users\salaz\AppData\Local\Temp\ccgHiAyq.s 			page 32


1321:Generated_Source\PSoC6\pdl\drivers\peripheral\gpio/cy_gpio.h **** *******************************************************************************/
1322:Generated_Source\PSoC6\pdl\drivers\peripheral\gpio/cy_gpio.h **** __STATIC_INLINE void Cy_GPIO_SetVtripSel(GPIO_PRT_Type* base, uint32_t pinNum, uint32_t value)
1323:Generated_Source\PSoC6\pdl\drivers\peripheral\gpio/cy_gpio.h **** {
1324:Generated_Source\PSoC6\pdl\drivers\peripheral\gpio/cy_gpio.h ****     uint32_t tempReg;
1325:Generated_Source\PSoC6\pdl\drivers\peripheral\gpio/cy_gpio.h ****     uint32_t pinLoc;
1326:Generated_Source\PSoC6\pdl\drivers\peripheral\gpio/cy_gpio.h **** 
1327:Generated_Source\PSoC6\pdl\drivers\peripheral\gpio/cy_gpio.h ****     CY_ASSERT_L2(CY_GPIO_IS_PIN_VALID(pinNum));
1328:Generated_Source\PSoC6\pdl\drivers\peripheral\gpio/cy_gpio.h ****     CY_ASSERT_L2(CY_GPIO_IS_VALUE_VALID(value));
1329:Generated_Source\PSoC6\pdl\drivers\peripheral\gpio/cy_gpio.h **** 
1330:Generated_Source\PSoC6\pdl\drivers\peripheral\gpio/cy_gpio.h ****     pinLoc = ((pinNum & CY_GPIO_SIO_ODD_PIN_MASK) << CY_GPIO_CFG_SIO_OFFSET) + CY_GPIO_VTRIP_SEL_SH
1331:Generated_Source\PSoC6\pdl\drivers\peripheral\gpio/cy_gpio.h ****     tempReg = (base->CFG_SIO & ~(CY_GPIO_VTRIP_SEL_MASK << pinLoc));
1332:Generated_Source\PSoC6\pdl\drivers\peripheral\gpio/cy_gpio.h ****     base->CFG_SIO = tempReg | ((value & CY_GPIO_VTRIP_SEL_MASK) << pinLoc);
1333:Generated_Source\PSoC6\pdl\drivers\peripheral\gpio/cy_gpio.h **** }
1334:Generated_Source\PSoC6\pdl\drivers\peripheral\gpio/cy_gpio.h **** 
1335:Generated_Source\PSoC6\pdl\drivers\peripheral\gpio/cy_gpio.h **** 
1336:Generated_Source\PSoC6\pdl\drivers\peripheral\gpio/cy_gpio.h **** /*******************************************************************************
1337:Generated_Source\PSoC6\pdl\drivers\peripheral\gpio/cy_gpio.h **** * Function Name: Cy_GPIO_GetVtripSel
1338:Generated_Source\PSoC6\pdl\drivers\peripheral\gpio/cy_gpio.h **** ****************************************************************************//**
1339:Generated_Source\PSoC6\pdl\drivers\peripheral\gpio/cy_gpio.h **** *
1340:Generated_Source\PSoC6\pdl\drivers\peripheral\gpio/cy_gpio.h **** * \brief Returns the SIO pin pair input buffer trip point.
1341:Generated_Source\PSoC6\pdl\drivers\peripheral\gpio/cy_gpio.h **** *
1342:Generated_Source\PSoC6\pdl\drivers\peripheral\gpio/cy_gpio.h **** * Note that this function has no effect on non-SIO pins.
1343:Generated_Source\PSoC6\pdl\drivers\peripheral\gpio/cy_gpio.h **** *
1344:Generated_Source\PSoC6\pdl\drivers\peripheral\gpio/cy_gpio.h **** * \param base
1345:Generated_Source\PSoC6\pdl\drivers\peripheral\gpio/cy_gpio.h **** * Pointer to the pin's port register base address
1346:Generated_Source\PSoC6\pdl\drivers\peripheral\gpio/cy_gpio.h **** *
1347:Generated_Source\PSoC6\pdl\drivers\peripheral\gpio/cy_gpio.h **** * \param pinNum
1348:Generated_Source\PSoC6\pdl\drivers\peripheral\gpio/cy_gpio.h **** * Position of the pin bit-field within the port register
1349:Generated_Source\PSoC6\pdl\drivers\peripheral\gpio/cy_gpio.h **** *
1350:Generated_Source\PSoC6\pdl\drivers\peripheral\gpio/cy_gpio.h **** * \return
1351:Generated_Source\PSoC6\pdl\drivers\peripheral\gpio/cy_gpio.h **** * SIO pair input buffer trip point. Options are detailed in \ref group_gpio_sioVtrip macros
1352:Generated_Source\PSoC6\pdl\drivers\peripheral\gpio/cy_gpio.h **** *
1353:Generated_Source\PSoC6\pdl\drivers\peripheral\gpio/cy_gpio.h **** * \funcusage
1354:Generated_Source\PSoC6\pdl\drivers\peripheral\gpio/cy_gpio.h **** * \snippet gpio/gpio_v1_10_sut_01.cydsn/main_cm4.c snippet_Cy_GPIO_SetVtripSel
1355:Generated_Source\PSoC6\pdl\drivers\peripheral\gpio/cy_gpio.h **** *
1356:Generated_Source\PSoC6\pdl\drivers\peripheral\gpio/cy_gpio.h **** *******************************************************************************/
1357:Generated_Source\PSoC6\pdl\drivers\peripheral\gpio/cy_gpio.h **** __STATIC_INLINE uint32_t Cy_GPIO_GetVtripSel(GPIO_PRT_Type* base, uint32_t pinNum)
1358:Generated_Source\PSoC6\pdl\drivers\peripheral\gpio/cy_gpio.h **** {
1359:Generated_Source\PSoC6\pdl\drivers\peripheral\gpio/cy_gpio.h ****     CY_ASSERT_L2(CY_GPIO_IS_PIN_VALID(pinNum));
1360:Generated_Source\PSoC6\pdl\drivers\peripheral\gpio/cy_gpio.h **** 
1361:Generated_Source\PSoC6\pdl\drivers\peripheral\gpio/cy_gpio.h ****     return (base->CFG_SIO >> (((pinNum & CY_GPIO_SIO_ODD_PIN_MASK) << CY_GPIO_CFG_SIO_OFFSET) + CY_
1362:Generated_Source\PSoC6\pdl\drivers\peripheral\gpio/cy_gpio.h **** }
1363:Generated_Source\PSoC6\pdl\drivers\peripheral\gpio/cy_gpio.h **** 
1364:Generated_Source\PSoC6\pdl\drivers\peripheral\gpio/cy_gpio.h **** 
1365:Generated_Source\PSoC6\pdl\drivers\peripheral\gpio/cy_gpio.h **** /*******************************************************************************
1366:Generated_Source\PSoC6\pdl\drivers\peripheral\gpio/cy_gpio.h **** * Function Name: Cy_GPIO_SetVrefSel
1367:Generated_Source\PSoC6\pdl\drivers\peripheral\gpio/cy_gpio.h **** ****************************************************************************//**
1368:Generated_Source\PSoC6\pdl\drivers\peripheral\gpio/cy_gpio.h **** *
1369:Generated_Source\PSoC6\pdl\drivers\peripheral\gpio/cy_gpio.h **** * \brief Configures the SIO reference voltage for the input buffer trip point.
1370:Generated_Source\PSoC6\pdl\drivers\peripheral\gpio/cy_gpio.h **** *
1371:Generated_Source\PSoC6\pdl\drivers\peripheral\gpio/cy_gpio.h **** * Note that this function has no effect on non-SIO pins.
1372:Generated_Source\PSoC6\pdl\drivers\peripheral\gpio/cy_gpio.h **** *
1373:Generated_Source\PSoC6\pdl\drivers\peripheral\gpio/cy_gpio.h **** * \param base
1374:Generated_Source\PSoC6\pdl\drivers\peripheral\gpio/cy_gpio.h **** * Pointer to the pin's port register base address
1375:Generated_Source\PSoC6\pdl\drivers\peripheral\gpio/cy_gpio.h **** *
1376:Generated_Source\PSoC6\pdl\drivers\peripheral\gpio/cy_gpio.h **** * \param pinNum
1377:Generated_Source\PSoC6\pdl\drivers\peripheral\gpio/cy_gpio.h **** * Position of the pin bit-field within the port register
ARM GAS  C:\Users\salaz\AppData\Local\Temp\ccgHiAyq.s 			page 33


1378:Generated_Source\PSoC6\pdl\drivers\peripheral\gpio/cy_gpio.h **** *
1379:Generated_Source\PSoC6\pdl\drivers\peripheral\gpio/cy_gpio.h **** * \param value
1380:Generated_Source\PSoC6\pdl\drivers\peripheral\gpio/cy_gpio.h **** * SIO pair reference voltage. Options are detailed in \ref group_gpio_sioVref macros
1381:Generated_Source\PSoC6\pdl\drivers\peripheral\gpio/cy_gpio.h **** *
1382:Generated_Source\PSoC6\pdl\drivers\peripheral\gpio/cy_gpio.h **** * \return
1383:Generated_Source\PSoC6\pdl\drivers\peripheral\gpio/cy_gpio.h **** * void
1384:Generated_Source\PSoC6\pdl\drivers\peripheral\gpio/cy_gpio.h **** *
1385:Generated_Source\PSoC6\pdl\drivers\peripheral\gpio/cy_gpio.h **** * \note 
1386:Generated_Source\PSoC6\pdl\drivers\peripheral\gpio/cy_gpio.h **** * This function modifies a port register in a read-modify-write operation. It is
1387:Generated_Source\PSoC6\pdl\drivers\peripheral\gpio/cy_gpio.h **** * not thread safe as the resource is shared among multiple pins on a port.
1388:Generated_Source\PSoC6\pdl\drivers\peripheral\gpio/cy_gpio.h **** *
1389:Generated_Source\PSoC6\pdl\drivers\peripheral\gpio/cy_gpio.h **** * \funcusage
1390:Generated_Source\PSoC6\pdl\drivers\peripheral\gpio/cy_gpio.h **** * \snippet gpio/gpio_v1_10_sut_01.cydsn/main_cm4.c snippet_Cy_GPIO_SetVrefSel
1391:Generated_Source\PSoC6\pdl\drivers\peripheral\gpio/cy_gpio.h **** *
1392:Generated_Source\PSoC6\pdl\drivers\peripheral\gpio/cy_gpio.h **** *******************************************************************************/
1393:Generated_Source\PSoC6\pdl\drivers\peripheral\gpio/cy_gpio.h **** __STATIC_INLINE void Cy_GPIO_SetVrefSel(GPIO_PRT_Type* base, uint32_t pinNum, uint32_t value)
1394:Generated_Source\PSoC6\pdl\drivers\peripheral\gpio/cy_gpio.h **** {
1395:Generated_Source\PSoC6\pdl\drivers\peripheral\gpio/cy_gpio.h ****     uint32_t tempReg;
1396:Generated_Source\PSoC6\pdl\drivers\peripheral\gpio/cy_gpio.h ****     uint32_t pinLoc;
1397:Generated_Source\PSoC6\pdl\drivers\peripheral\gpio/cy_gpio.h **** 
1398:Generated_Source\PSoC6\pdl\drivers\peripheral\gpio/cy_gpio.h ****     CY_ASSERT_L2(CY_GPIO_IS_PIN_VALID(pinNum));
1399:Generated_Source\PSoC6\pdl\drivers\peripheral\gpio/cy_gpio.h ****     CY_ASSERT_L2(CY_GPIO_IS_VREF_SEL_VALID(value));
1400:Generated_Source\PSoC6\pdl\drivers\peripheral\gpio/cy_gpio.h ****     
1401:Generated_Source\PSoC6\pdl\drivers\peripheral\gpio/cy_gpio.h ****     pinLoc = ((pinNum & CY_GPIO_SIO_ODD_PIN_MASK) << CY_GPIO_CFG_SIO_OFFSET) + CY_GPIO_VREF_SEL_SHI
1402:Generated_Source\PSoC6\pdl\drivers\peripheral\gpio/cy_gpio.h ****     tempReg = (base->CFG_SIO & ~(CY_GPIO_VREF_SEL_MASK << pinLoc));
1403:Generated_Source\PSoC6\pdl\drivers\peripheral\gpio/cy_gpio.h ****     base->CFG_SIO = tempReg | ((value & CY_GPIO_VREF_SEL_MASK) << pinLoc);
1404:Generated_Source\PSoC6\pdl\drivers\peripheral\gpio/cy_gpio.h **** }
1405:Generated_Source\PSoC6\pdl\drivers\peripheral\gpio/cy_gpio.h **** 
1406:Generated_Source\PSoC6\pdl\drivers\peripheral\gpio/cy_gpio.h **** 
1407:Generated_Source\PSoC6\pdl\drivers\peripheral\gpio/cy_gpio.h **** /*******************************************************************************
1408:Generated_Source\PSoC6\pdl\drivers\peripheral\gpio/cy_gpio.h **** * Function Name: Cy_GPIO_GetVrefSel
1409:Generated_Source\PSoC6\pdl\drivers\peripheral\gpio/cy_gpio.h **** ****************************************************************************//**
1410:Generated_Source\PSoC6\pdl\drivers\peripheral\gpio/cy_gpio.h **** *
1411:Generated_Source\PSoC6\pdl\drivers\peripheral\gpio/cy_gpio.h **** * \brief Returns the SIO reference voltage for the input buffer trip point.
1412:Generated_Source\PSoC6\pdl\drivers\peripheral\gpio/cy_gpio.h **** *
1413:Generated_Source\PSoC6\pdl\drivers\peripheral\gpio/cy_gpio.h **** * Note that this function has no effect on non-SIO pins.
1414:Generated_Source\PSoC6\pdl\drivers\peripheral\gpio/cy_gpio.h **** *
1415:Generated_Source\PSoC6\pdl\drivers\peripheral\gpio/cy_gpio.h **** * \param base
1416:Generated_Source\PSoC6\pdl\drivers\peripheral\gpio/cy_gpio.h **** * Pointer to the pin's port register base address
1417:Generated_Source\PSoC6\pdl\drivers\peripheral\gpio/cy_gpio.h **** *
1418:Generated_Source\PSoC6\pdl\drivers\peripheral\gpio/cy_gpio.h **** * \param pinNum
1419:Generated_Source\PSoC6\pdl\drivers\peripheral\gpio/cy_gpio.h **** * Position of the pin bit-field within the port register
1420:Generated_Source\PSoC6\pdl\drivers\peripheral\gpio/cy_gpio.h **** *
1421:Generated_Source\PSoC6\pdl\drivers\peripheral\gpio/cy_gpio.h **** * \return
1422:Generated_Source\PSoC6\pdl\drivers\peripheral\gpio/cy_gpio.h **** * SIO pair reference voltage. Options are detailed in \ref group_gpio_sioVref macros
1423:Generated_Source\PSoC6\pdl\drivers\peripheral\gpio/cy_gpio.h **** *
1424:Generated_Source\PSoC6\pdl\drivers\peripheral\gpio/cy_gpio.h **** * \funcusage
1425:Generated_Source\PSoC6\pdl\drivers\peripheral\gpio/cy_gpio.h **** * \snippet gpio/gpio_v1_10_sut_01.cydsn/main_cm4.c snippet_Cy_GPIO_SetVrefSel
1426:Generated_Source\PSoC6\pdl\drivers\peripheral\gpio/cy_gpio.h **** *
1427:Generated_Source\PSoC6\pdl\drivers\peripheral\gpio/cy_gpio.h **** *******************************************************************************/
1428:Generated_Source\PSoC6\pdl\drivers\peripheral\gpio/cy_gpio.h **** __STATIC_INLINE uint32_t Cy_GPIO_GetVrefSel(GPIO_PRT_Type* base, uint32_t pinNum)
1429:Generated_Source\PSoC6\pdl\drivers\peripheral\gpio/cy_gpio.h **** {
1430:Generated_Source\PSoC6\pdl\drivers\peripheral\gpio/cy_gpio.h ****     CY_ASSERT_L2(CY_GPIO_IS_PIN_VALID(pinNum));
1431:Generated_Source\PSoC6\pdl\drivers\peripheral\gpio/cy_gpio.h ****     
1432:Generated_Source\PSoC6\pdl\drivers\peripheral\gpio/cy_gpio.h ****     return (base->CFG_SIO >> (((pinNum & CY_GPIO_SIO_ODD_PIN_MASK) << CY_GPIO_CFG_SIO_OFFSET) + CY_
1433:Generated_Source\PSoC6\pdl\drivers\peripheral\gpio/cy_gpio.h **** }
1434:Generated_Source\PSoC6\pdl\drivers\peripheral\gpio/cy_gpio.h **** 
ARM GAS  C:\Users\salaz\AppData\Local\Temp\ccgHiAyq.s 			page 34


1435:Generated_Source\PSoC6\pdl\drivers\peripheral\gpio/cy_gpio.h **** 
1436:Generated_Source\PSoC6\pdl\drivers\peripheral\gpio/cy_gpio.h **** /*******************************************************************************
1437:Generated_Source\PSoC6\pdl\drivers\peripheral\gpio/cy_gpio.h **** * Function Name: Cy_GPIO_SetVohSel
1438:Generated_Source\PSoC6\pdl\drivers\peripheral\gpio/cy_gpio.h **** ****************************************************************************//**
1439:Generated_Source\PSoC6\pdl\drivers\peripheral\gpio/cy_gpio.h **** *
1440:Generated_Source\PSoC6\pdl\drivers\peripheral\gpio/cy_gpio.h **** * \brief Configures the regulated output reference multiplier for the SIO pin pair.
1441:Generated_Source\PSoC6\pdl\drivers\peripheral\gpio/cy_gpio.h **** *
1442:Generated_Source\PSoC6\pdl\drivers\peripheral\gpio/cy_gpio.h **** * The regulated output reference controls both the output level of digital output
1443:Generated_Source\PSoC6\pdl\drivers\peripheral\gpio/cy_gpio.h **** * pin and the input trip point of digital input pin in the SIO pair.
1444:Generated_Source\PSoC6\pdl\drivers\peripheral\gpio/cy_gpio.h **** *
1445:Generated_Source\PSoC6\pdl\drivers\peripheral\gpio/cy_gpio.h **** * Note that this function has no effect on non-SIO pins.
1446:Generated_Source\PSoC6\pdl\drivers\peripheral\gpio/cy_gpio.h **** *
1447:Generated_Source\PSoC6\pdl\drivers\peripheral\gpio/cy_gpio.h **** * \param base
1448:Generated_Source\PSoC6\pdl\drivers\peripheral\gpio/cy_gpio.h **** * Pointer to the pin's port register base address
1449:Generated_Source\PSoC6\pdl\drivers\peripheral\gpio/cy_gpio.h **** *
1450:Generated_Source\PSoC6\pdl\drivers\peripheral\gpio/cy_gpio.h **** * \param pinNum
1451:Generated_Source\PSoC6\pdl\drivers\peripheral\gpio/cy_gpio.h **** * Position of the pin bit-field within the port register
1452:Generated_Source\PSoC6\pdl\drivers\peripheral\gpio/cy_gpio.h **** *
1453:Generated_Source\PSoC6\pdl\drivers\peripheral\gpio/cy_gpio.h **** * \param value
1454:Generated_Source\PSoC6\pdl\drivers\peripheral\gpio/cy_gpio.h **** * SIO pair reference voltage. Options are detailed in \ref group_gpio_sioVoh macros
1455:Generated_Source\PSoC6\pdl\drivers\peripheral\gpio/cy_gpio.h **** *
1456:Generated_Source\PSoC6\pdl\drivers\peripheral\gpio/cy_gpio.h **** * \return
1457:Generated_Source\PSoC6\pdl\drivers\peripheral\gpio/cy_gpio.h **** * void
1458:Generated_Source\PSoC6\pdl\drivers\peripheral\gpio/cy_gpio.h **** *
1459:Generated_Source\PSoC6\pdl\drivers\peripheral\gpio/cy_gpio.h **** * \note 
1460:Generated_Source\PSoC6\pdl\drivers\peripheral\gpio/cy_gpio.h **** * This function modifies a port register in a read-modify-write operation. It is
1461:Generated_Source\PSoC6\pdl\drivers\peripheral\gpio/cy_gpio.h **** * not thread safe as the resource is shared among multiple pins on a port.
1462:Generated_Source\PSoC6\pdl\drivers\peripheral\gpio/cy_gpio.h **** *
1463:Generated_Source\PSoC6\pdl\drivers\peripheral\gpio/cy_gpio.h **** * \funcusage
1464:Generated_Source\PSoC6\pdl\drivers\peripheral\gpio/cy_gpio.h **** * \snippet gpio/gpio_v1_10_sut_01.cydsn/main_cm4.c snippet_Cy_GPIO_SetVohSel
1465:Generated_Source\PSoC6\pdl\drivers\peripheral\gpio/cy_gpio.h **** *
1466:Generated_Source\PSoC6\pdl\drivers\peripheral\gpio/cy_gpio.h **** *******************************************************************************/
1467:Generated_Source\PSoC6\pdl\drivers\peripheral\gpio/cy_gpio.h **** __STATIC_INLINE void Cy_GPIO_SetVohSel(GPIO_PRT_Type* base, uint32_t pinNum, uint32_t value)
1468:Generated_Source\PSoC6\pdl\drivers\peripheral\gpio/cy_gpio.h **** {
1469:Generated_Source\PSoC6\pdl\drivers\peripheral\gpio/cy_gpio.h ****     uint32_t tempReg;
1470:Generated_Source\PSoC6\pdl\drivers\peripheral\gpio/cy_gpio.h ****     uint32_t pinLoc;
1471:Generated_Source\PSoC6\pdl\drivers\peripheral\gpio/cy_gpio.h **** 
1472:Generated_Source\PSoC6\pdl\drivers\peripheral\gpio/cy_gpio.h ****     CY_ASSERT_L2(CY_GPIO_IS_PIN_VALID(pinNum));
1473:Generated_Source\PSoC6\pdl\drivers\peripheral\gpio/cy_gpio.h ****     CY_ASSERT_L2(CY_GPIO_IS_VOH_SEL_VALID(value));
1474:Generated_Source\PSoC6\pdl\drivers\peripheral\gpio/cy_gpio.h **** 
1475:Generated_Source\PSoC6\pdl\drivers\peripheral\gpio/cy_gpio.h ****     pinLoc = ((pinNum & CY_GPIO_SIO_ODD_PIN_MASK) << CY_GPIO_CFG_SIO_OFFSET) + CY_GPIO_VOH_SEL_SHIF
1476:Generated_Source\PSoC6\pdl\drivers\peripheral\gpio/cy_gpio.h ****     tempReg = (base->CFG_SIO & ~(CY_GPIO_VOH_SEL_MASK << pinLoc));
1477:Generated_Source\PSoC6\pdl\drivers\peripheral\gpio/cy_gpio.h ****     base->CFG_SIO = tempReg | ((value & CY_GPIO_VOH_SEL_MASK) << pinLoc);
1478:Generated_Source\PSoC6\pdl\drivers\peripheral\gpio/cy_gpio.h **** }
1479:Generated_Source\PSoC6\pdl\drivers\peripheral\gpio/cy_gpio.h **** 
1480:Generated_Source\PSoC6\pdl\drivers\peripheral\gpio/cy_gpio.h **** 
1481:Generated_Source\PSoC6\pdl\drivers\peripheral\gpio/cy_gpio.h **** /*******************************************************************************
1482:Generated_Source\PSoC6\pdl\drivers\peripheral\gpio/cy_gpio.h **** * Function Name: Cy_GPIO_GetVohSel
1483:Generated_Source\PSoC6\pdl\drivers\peripheral\gpio/cy_gpio.h **** ****************************************************************************//**
1484:Generated_Source\PSoC6\pdl\drivers\peripheral\gpio/cy_gpio.h **** *
1485:Generated_Source\PSoC6\pdl\drivers\peripheral\gpio/cy_gpio.h **** * \brief Returns the regulated output reference multiplier for the SIO pin pair.
1486:Generated_Source\PSoC6\pdl\drivers\peripheral\gpio/cy_gpio.h **** *
1487:Generated_Source\PSoC6\pdl\drivers\peripheral\gpio/cy_gpio.h **** * Note that this function has no effect on non-SIO pins.
1488:Generated_Source\PSoC6\pdl\drivers\peripheral\gpio/cy_gpio.h **** *
1489:Generated_Source\PSoC6\pdl\drivers\peripheral\gpio/cy_gpio.h **** * \param base
1490:Generated_Source\PSoC6\pdl\drivers\peripheral\gpio/cy_gpio.h **** * Pointer to the pin's port register base address
1491:Generated_Source\PSoC6\pdl\drivers\peripheral\gpio/cy_gpio.h **** *
ARM GAS  C:\Users\salaz\AppData\Local\Temp\ccgHiAyq.s 			page 35


1492:Generated_Source\PSoC6\pdl\drivers\peripheral\gpio/cy_gpio.h **** * \param pinNum
1493:Generated_Source\PSoC6\pdl\drivers\peripheral\gpio/cy_gpio.h **** * Position of the pin bit-field within the port register
1494:Generated_Source\PSoC6\pdl\drivers\peripheral\gpio/cy_gpio.h **** *
1495:Generated_Source\PSoC6\pdl\drivers\peripheral\gpio/cy_gpio.h **** * \return
1496:Generated_Source\PSoC6\pdl\drivers\peripheral\gpio/cy_gpio.h **** * SIO pair reference voltage. Options are detailed in \ref group_gpio_sioVoh macros
1497:Generated_Source\PSoC6\pdl\drivers\peripheral\gpio/cy_gpio.h **** *
1498:Generated_Source\PSoC6\pdl\drivers\peripheral\gpio/cy_gpio.h **** * \funcusage
1499:Generated_Source\PSoC6\pdl\drivers\peripheral\gpio/cy_gpio.h **** * \snippet gpio/gpio_v1_10_sut_01.cydsn/main_cm4.c snippet_Cy_GPIO_SetVohSel
1500:Generated_Source\PSoC6\pdl\drivers\peripheral\gpio/cy_gpio.h **** *
1501:Generated_Source\PSoC6\pdl\drivers\peripheral\gpio/cy_gpio.h **** *******************************************************************************/
1502:Generated_Source\PSoC6\pdl\drivers\peripheral\gpio/cy_gpio.h **** __STATIC_INLINE uint32_t Cy_GPIO_GetVohSel(GPIO_PRT_Type* base, uint32_t pinNum)
1503:Generated_Source\PSoC6\pdl\drivers\peripheral\gpio/cy_gpio.h **** {
1504:Generated_Source\PSoC6\pdl\drivers\peripheral\gpio/cy_gpio.h ****     CY_ASSERT_L2(CY_GPIO_IS_PIN_VALID(pinNum));
1505:Generated_Source\PSoC6\pdl\drivers\peripheral\gpio/cy_gpio.h ****     
1506:Generated_Source\PSoC6\pdl\drivers\peripheral\gpio/cy_gpio.h ****     return (base->CFG_SIO >> (((pinNum & CY_GPIO_SIO_ODD_PIN_MASK) << CY_GPIO_CFG_SIO_OFFSET) + CY_
1507:Generated_Source\PSoC6\pdl\drivers\peripheral\gpio/cy_gpio.h **** }
1508:Generated_Source\PSoC6\pdl\drivers\peripheral\gpio/cy_gpio.h **** 
1509:Generated_Source\PSoC6\pdl\drivers\peripheral\gpio/cy_gpio.h **** /** \} group_gpio_functions_sio */
1510:Generated_Source\PSoC6\pdl\drivers\peripheral\gpio/cy_gpio.h **** 
1511:Generated_Source\PSoC6\pdl\drivers\peripheral\gpio/cy_gpio.h **** /**
1512:Generated_Source\PSoC6\pdl\drivers\peripheral\gpio/cy_gpio.h **** * \addtogroup group_gpio_functions_interrupt
1513:Generated_Source\PSoC6\pdl\drivers\peripheral\gpio/cy_gpio.h **** * \{
1514:Generated_Source\PSoC6\pdl\drivers\peripheral\gpio/cy_gpio.h **** */
1515:Generated_Source\PSoC6\pdl\drivers\peripheral\gpio/cy_gpio.h **** 
1516:Generated_Source\PSoC6\pdl\drivers\peripheral\gpio/cy_gpio.h **** /*******************************************************************************
1517:Generated_Source\PSoC6\pdl\drivers\peripheral\gpio/cy_gpio.h **** * Function Name: Cy_GPIO_GetInterruptStatus
1518:Generated_Source\PSoC6\pdl\drivers\peripheral\gpio/cy_gpio.h **** ****************************************************************************//**
1519:Generated_Source\PSoC6\pdl\drivers\peripheral\gpio/cy_gpio.h **** *
1520:Generated_Source\PSoC6\pdl\drivers\peripheral\gpio/cy_gpio.h **** * \brief Returns the current unmasked interrupt state of the pin.
1521:Generated_Source\PSoC6\pdl\drivers\peripheral\gpio/cy_gpio.h **** *
1522:Generated_Source\PSoC6\pdl\drivers\peripheral\gpio/cy_gpio.h **** * The core processor's NVIC is triggered by the masked interrupt bits. This 
1523:Generated_Source\PSoC6\pdl\drivers\peripheral\gpio/cy_gpio.h **** * function allows reading the unmasked interrupt state. Whether the bit
1524:Generated_Source\PSoC6\pdl\drivers\peripheral\gpio/cy_gpio.h **** * positions actually trigger the interrupt are defined by the interrupt mask bits.
1525:Generated_Source\PSoC6\pdl\drivers\peripheral\gpio/cy_gpio.h **** *
1526:Generated_Source\PSoC6\pdl\drivers\peripheral\gpio/cy_gpio.h **** * \param base
1527:Generated_Source\PSoC6\pdl\drivers\peripheral\gpio/cy_gpio.h **** * Pointer to the pin's port register base address
1528:Generated_Source\PSoC6\pdl\drivers\peripheral\gpio/cy_gpio.h **** *
1529:Generated_Source\PSoC6\pdl\drivers\peripheral\gpio/cy_gpio.h **** * \param pinNum
1530:Generated_Source\PSoC6\pdl\drivers\peripheral\gpio/cy_gpio.h **** * Position of the pin bit-field within the port register
1531:Generated_Source\PSoC6\pdl\drivers\peripheral\gpio/cy_gpio.h **** * Bit position 8 is the routed pin through the port glitch filter.
1532:Generated_Source\PSoC6\pdl\drivers\peripheral\gpio/cy_gpio.h **** *
1533:Generated_Source\PSoC6\pdl\drivers\peripheral\gpio/cy_gpio.h **** * \return
1534:Generated_Source\PSoC6\pdl\drivers\peripheral\gpio/cy_gpio.h **** * 0 = Pin interrupt condition not detected
1535:Generated_Source\PSoC6\pdl\drivers\peripheral\gpio/cy_gpio.h **** * 1 = Pin interrupt condition detected
1536:Generated_Source\PSoC6\pdl\drivers\peripheral\gpio/cy_gpio.h **** *
1537:Generated_Source\PSoC6\pdl\drivers\peripheral\gpio/cy_gpio.h **** * \funcusage
1538:Generated_Source\PSoC6\pdl\drivers\peripheral\gpio/cy_gpio.h **** * \snippet gpio/gpio_v1_10_sut_01.cydsn/main_cm4.c snippet_Cy_GPIO_GetInterruptStatus
1539:Generated_Source\PSoC6\pdl\drivers\peripheral\gpio/cy_gpio.h **** *
1540:Generated_Source\PSoC6\pdl\drivers\peripheral\gpio/cy_gpio.h **** *******************************************************************************/
1541:Generated_Source\PSoC6\pdl\drivers\peripheral\gpio/cy_gpio.h **** __STATIC_INLINE uint32_t Cy_GPIO_GetInterruptStatus(GPIO_PRT_Type* base, uint32_t pinNum)
1542:Generated_Source\PSoC6\pdl\drivers\peripheral\gpio/cy_gpio.h **** {
1543:Generated_Source\PSoC6\pdl\drivers\peripheral\gpio/cy_gpio.h ****     CY_ASSERT_L2(CY_GPIO_IS_FILTER_PIN_VALID(pinNum));
1544:Generated_Source\PSoC6\pdl\drivers\peripheral\gpio/cy_gpio.h ****     
1545:Generated_Source\PSoC6\pdl\drivers\peripheral\gpio/cy_gpio.h ****     return (base->INTR >> pinNum) & CY_GPIO_INTR_STATUS_MASK;
1546:Generated_Source\PSoC6\pdl\drivers\peripheral\gpio/cy_gpio.h **** }
1547:Generated_Source\PSoC6\pdl\drivers\peripheral\gpio/cy_gpio.h **** 
1548:Generated_Source\PSoC6\pdl\drivers\peripheral\gpio/cy_gpio.h **** 
ARM GAS  C:\Users\salaz\AppData\Local\Temp\ccgHiAyq.s 			page 36


1549:Generated_Source\PSoC6\pdl\drivers\peripheral\gpio/cy_gpio.h **** /*******************************************************************************
1550:Generated_Source\PSoC6\pdl\drivers\peripheral\gpio/cy_gpio.h **** * Function Name: Cy_GPIO_ClearInterrupt
1551:Generated_Source\PSoC6\pdl\drivers\peripheral\gpio/cy_gpio.h **** ****************************************************************************//**
1552:Generated_Source\PSoC6\pdl\drivers\peripheral\gpio/cy_gpio.h **** *
1553:Generated_Source\PSoC6\pdl\drivers\peripheral\gpio/cy_gpio.h **** * \brief Clears the triggered pin interrupt.
1554:Generated_Source\PSoC6\pdl\drivers\peripheral\gpio/cy_gpio.h **** *
1555:Generated_Source\PSoC6\pdl\drivers\peripheral\gpio/cy_gpio.h **** * \param base
1556:Generated_Source\PSoC6\pdl\drivers\peripheral\gpio/cy_gpio.h **** * Pointer to the pin's port register base address
1557:Generated_Source\PSoC6\pdl\drivers\peripheral\gpio/cy_gpio.h **** *
1558:Generated_Source\PSoC6\pdl\drivers\peripheral\gpio/cy_gpio.h **** * \param pinNum
1559:Generated_Source\PSoC6\pdl\drivers\peripheral\gpio/cy_gpio.h **** * Position of the pin bit-field within the port register
1560:Generated_Source\PSoC6\pdl\drivers\peripheral\gpio/cy_gpio.h **** * Bit position 8 is the routed pin through the port glitch filter.
1561:Generated_Source\PSoC6\pdl\drivers\peripheral\gpio/cy_gpio.h **** *
1562:Generated_Source\PSoC6\pdl\drivers\peripheral\gpio/cy_gpio.h **** * \return
1563:Generated_Source\PSoC6\pdl\drivers\peripheral\gpio/cy_gpio.h **** * void
1564:Generated_Source\PSoC6\pdl\drivers\peripheral\gpio/cy_gpio.h **** *
1565:Generated_Source\PSoC6\pdl\drivers\peripheral\gpio/cy_gpio.h **** * \funcusage
1566:Generated_Source\PSoC6\pdl\drivers\peripheral\gpio/cy_gpio.h **** * \snippet gpio/gpio_v1_10_sut_01.cydsn/main_cm4.c snippet_Cy_GPIO_ClearInterrupt
1567:Generated_Source\PSoC6\pdl\drivers\peripheral\gpio/cy_gpio.h **** *
1568:Generated_Source\PSoC6\pdl\drivers\peripheral\gpio/cy_gpio.h **** *******************************************************************************/
1569:Generated_Source\PSoC6\pdl\drivers\peripheral\gpio/cy_gpio.h **** __STATIC_INLINE void Cy_GPIO_ClearInterrupt(GPIO_PRT_Type* base, uint32_t pinNum)
1570:Generated_Source\PSoC6\pdl\drivers\peripheral\gpio/cy_gpio.h **** {
1571:Generated_Source\PSoC6\pdl\drivers\peripheral\gpio/cy_gpio.h ****     CY_ASSERT_L2(CY_GPIO_IS_FILTER_PIN_VALID(pinNum));
1572:Generated_Source\PSoC6\pdl\drivers\peripheral\gpio/cy_gpio.h ****     
1573:Generated_Source\PSoC6\pdl\drivers\peripheral\gpio/cy_gpio.h ****     /* Any INTR MMIO registers AHB clearing must be preceded with an AHB read access */
1574:Generated_Source\PSoC6\pdl\drivers\peripheral\gpio/cy_gpio.h ****     (void)base->INTR;
1575:Generated_Source\PSoC6\pdl\drivers\peripheral\gpio/cy_gpio.h **** 
1576:Generated_Source\PSoC6\pdl\drivers\peripheral\gpio/cy_gpio.h ****     base->INTR = CY_GPIO_INTR_STATUS_MASK << pinNum;
1577:Generated_Source\PSoC6\pdl\drivers\peripheral\gpio/cy_gpio.h **** 
1578:Generated_Source\PSoC6\pdl\drivers\peripheral\gpio/cy_gpio.h ****     /* This read ensures that the initial write has been flushed out to the hardware */
1579:Generated_Source\PSoC6\pdl\drivers\peripheral\gpio/cy_gpio.h ****     (void)base->INTR;
1580:Generated_Source\PSoC6\pdl\drivers\peripheral\gpio/cy_gpio.h **** }
1581:Generated_Source\PSoC6\pdl\drivers\peripheral\gpio/cy_gpio.h **** 
1582:Generated_Source\PSoC6\pdl\drivers\peripheral\gpio/cy_gpio.h **** 
1583:Generated_Source\PSoC6\pdl\drivers\peripheral\gpio/cy_gpio.h **** /*******************************************************************************
1584:Generated_Source\PSoC6\pdl\drivers\peripheral\gpio/cy_gpio.h **** * Function Name: Cy_GPIO_SetInterruptMask
1585:Generated_Source\PSoC6\pdl\drivers\peripheral\gpio/cy_gpio.h **** ****************************************************************************//**
1586:Generated_Source\PSoC6\pdl\drivers\peripheral\gpio/cy_gpio.h **** *
1587:Generated_Source\PSoC6\pdl\drivers\peripheral\gpio/cy_gpio.h **** * \brief Configures the pin interrupt to be forwarded to the CPU NVIC.
1588:Generated_Source\PSoC6\pdl\drivers\peripheral\gpio/cy_gpio.h **** *
1589:Generated_Source\PSoC6\pdl\drivers\peripheral\gpio/cy_gpio.h **** * \param base
1590:Generated_Source\PSoC6\pdl\drivers\peripheral\gpio/cy_gpio.h **** * Pointer to the pin's port register base address
1591:Generated_Source\PSoC6\pdl\drivers\peripheral\gpio/cy_gpio.h **** *
1592:Generated_Source\PSoC6\pdl\drivers\peripheral\gpio/cy_gpio.h **** * \param pinNum
1593:Generated_Source\PSoC6\pdl\drivers\peripheral\gpio/cy_gpio.h **** * Position of the pin bit-field within the port register.
1594:Generated_Source\PSoC6\pdl\drivers\peripheral\gpio/cy_gpio.h **** * Bit position 8 is the routed pin through the port glitch filter.
1595:Generated_Source\PSoC6\pdl\drivers\peripheral\gpio/cy_gpio.h **** *
1596:Generated_Source\PSoC6\pdl\drivers\peripheral\gpio/cy_gpio.h **** * \param value
1597:Generated_Source\PSoC6\pdl\drivers\peripheral\gpio/cy_gpio.h **** * 0 = Pin interrupt not forwarded to CPU interrupt controller
1598:Generated_Source\PSoC6\pdl\drivers\peripheral\gpio/cy_gpio.h **** * 1 = Pin interrupt masked and forwarded to CPU interrupt controller
1599:Generated_Source\PSoC6\pdl\drivers\peripheral\gpio/cy_gpio.h **** *
1600:Generated_Source\PSoC6\pdl\drivers\peripheral\gpio/cy_gpio.h **** * \return
1601:Generated_Source\PSoC6\pdl\drivers\peripheral\gpio/cy_gpio.h **** * void
1602:Generated_Source\PSoC6\pdl\drivers\peripheral\gpio/cy_gpio.h **** *
1603:Generated_Source\PSoC6\pdl\drivers\peripheral\gpio/cy_gpio.h **** * \note 
1604:Generated_Source\PSoC6\pdl\drivers\peripheral\gpio/cy_gpio.h **** * This function modifies a port register in a read-modify-write operation. It is
1605:Generated_Source\PSoC6\pdl\drivers\peripheral\gpio/cy_gpio.h **** * not thread safe as the resource is shared among multiple pins on a port.
ARM GAS  C:\Users\salaz\AppData\Local\Temp\ccgHiAyq.s 			page 37


1606:Generated_Source\PSoC6\pdl\drivers\peripheral\gpio/cy_gpio.h **** *
1607:Generated_Source\PSoC6\pdl\drivers\peripheral\gpio/cy_gpio.h **** * \funcusage
1608:Generated_Source\PSoC6\pdl\drivers\peripheral\gpio/cy_gpio.h **** * \snippet gpio/gpio_v1_10_sut_01.cydsn/main_cm4.c snippet_Cy_GPIO_SetInterruptMask
1609:Generated_Source\PSoC6\pdl\drivers\peripheral\gpio/cy_gpio.h **** *
1610:Generated_Source\PSoC6\pdl\drivers\peripheral\gpio/cy_gpio.h **** *******************************************************************************/
1611:Generated_Source\PSoC6\pdl\drivers\peripheral\gpio/cy_gpio.h **** __STATIC_INLINE void Cy_GPIO_SetInterruptMask(GPIO_PRT_Type* base, uint32_t pinNum, uint32_t value)
1612:Generated_Source\PSoC6\pdl\drivers\peripheral\gpio/cy_gpio.h **** {
1613:Generated_Source\PSoC6\pdl\drivers\peripheral\gpio/cy_gpio.h ****     uint32_t tempReg;
1614:Generated_Source\PSoC6\pdl\drivers\peripheral\gpio/cy_gpio.h **** 
1615:Generated_Source\PSoC6\pdl\drivers\peripheral\gpio/cy_gpio.h ****     CY_ASSERT_L2(CY_GPIO_IS_FILTER_PIN_VALID(pinNum));
1616:Generated_Source\PSoC6\pdl\drivers\peripheral\gpio/cy_gpio.h ****     CY_ASSERT_L2(CY_GPIO_IS_VALUE_VALID(value));
1617:Generated_Source\PSoC6\pdl\drivers\peripheral\gpio/cy_gpio.h **** 
1618:Generated_Source\PSoC6\pdl\drivers\peripheral\gpio/cy_gpio.h ****     tempReg= base->INTR_MASK & ~(CY_GPIO_INTR_EN_MASK << pinNum);
1619:Generated_Source\PSoC6\pdl\drivers\peripheral\gpio/cy_gpio.h ****     base->INTR_MASK = tempReg | ((value & CY_GPIO_INTR_EN_MASK) << pinNum);
1620:Generated_Source\PSoC6\pdl\drivers\peripheral\gpio/cy_gpio.h **** }
1621:Generated_Source\PSoC6\pdl\drivers\peripheral\gpio/cy_gpio.h **** 
1622:Generated_Source\PSoC6\pdl\drivers\peripheral\gpio/cy_gpio.h **** 
1623:Generated_Source\PSoC6\pdl\drivers\peripheral\gpio/cy_gpio.h **** /*******************************************************************************
1624:Generated_Source\PSoC6\pdl\drivers\peripheral\gpio/cy_gpio.h **** * Function Name: Cy_GPIO_GetInterruptMask
1625:Generated_Source\PSoC6\pdl\drivers\peripheral\gpio/cy_gpio.h **** ****************************************************************************//**
1626:Generated_Source\PSoC6\pdl\drivers\peripheral\gpio/cy_gpio.h **** *
1627:Generated_Source\PSoC6\pdl\drivers\peripheral\gpio/cy_gpio.h **** * \brief Returns the state of the pin interrupt mask.
1628:Generated_Source\PSoC6\pdl\drivers\peripheral\gpio/cy_gpio.h **** *
1629:Generated_Source\PSoC6\pdl\drivers\peripheral\gpio/cy_gpio.h **** * This mask is used to determine whether the pin is configured to be forwarded
1630:Generated_Source\PSoC6\pdl\drivers\peripheral\gpio/cy_gpio.h **** * to the CPU NVIC.
1631:Generated_Source\PSoC6\pdl\drivers\peripheral\gpio/cy_gpio.h **** *
1632:Generated_Source\PSoC6\pdl\drivers\peripheral\gpio/cy_gpio.h **** * \param base
1633:Generated_Source\PSoC6\pdl\drivers\peripheral\gpio/cy_gpio.h **** * Pointer to the pin's port register base address
1634:Generated_Source\PSoC6\pdl\drivers\peripheral\gpio/cy_gpio.h **** *
1635:Generated_Source\PSoC6\pdl\drivers\peripheral\gpio/cy_gpio.h **** * \param pinNum
1636:Generated_Source\PSoC6\pdl\drivers\peripheral\gpio/cy_gpio.h **** * Position of the pin bit-field within the port register.
1637:Generated_Source\PSoC6\pdl\drivers\peripheral\gpio/cy_gpio.h **** * Bit position 8 is the routed pin through the port glitch filter.
1638:Generated_Source\PSoC6\pdl\drivers\peripheral\gpio/cy_gpio.h **** *
1639:Generated_Source\PSoC6\pdl\drivers\peripheral\gpio/cy_gpio.h **** * \return
1640:Generated_Source\PSoC6\pdl\drivers\peripheral\gpio/cy_gpio.h **** * 0 = Pin interrupt not forwarded to CPU interrupt controller
1641:Generated_Source\PSoC6\pdl\drivers\peripheral\gpio/cy_gpio.h **** * 1 = Pin interrupt masked and forwarded to CPU interrupt controller
1642:Generated_Source\PSoC6\pdl\drivers\peripheral\gpio/cy_gpio.h **** *
1643:Generated_Source\PSoC6\pdl\drivers\peripheral\gpio/cy_gpio.h **** * \funcusage
1644:Generated_Source\PSoC6\pdl\drivers\peripheral\gpio/cy_gpio.h **** * \snippet gpio/gpio_v1_10_sut_01.cydsn/main_cm4.c snippet_Cy_GPIO_SetInterruptMask
1645:Generated_Source\PSoC6\pdl\drivers\peripheral\gpio/cy_gpio.h **** *
1646:Generated_Source\PSoC6\pdl\drivers\peripheral\gpio/cy_gpio.h **** *******************************************************************************/
1647:Generated_Source\PSoC6\pdl\drivers\peripheral\gpio/cy_gpio.h **** __STATIC_INLINE uint32_t Cy_GPIO_GetInterruptMask(GPIO_PRT_Type* base, uint32_t pinNum)
1648:Generated_Source\PSoC6\pdl\drivers\peripheral\gpio/cy_gpio.h **** {
1649:Generated_Source\PSoC6\pdl\drivers\peripheral\gpio/cy_gpio.h ****     CY_ASSERT_L2(CY_GPIO_IS_FILTER_PIN_VALID(pinNum));
1650:Generated_Source\PSoC6\pdl\drivers\peripheral\gpio/cy_gpio.h ****     
1651:Generated_Source\PSoC6\pdl\drivers\peripheral\gpio/cy_gpio.h ****     return (base->INTR_MASK >> pinNum) & CY_GPIO_INTR_EN_MASK;
1652:Generated_Source\PSoC6\pdl\drivers\peripheral\gpio/cy_gpio.h **** }
1653:Generated_Source\PSoC6\pdl\drivers\peripheral\gpio/cy_gpio.h **** 
1654:Generated_Source\PSoC6\pdl\drivers\peripheral\gpio/cy_gpio.h **** 
1655:Generated_Source\PSoC6\pdl\drivers\peripheral\gpio/cy_gpio.h **** /*******************************************************************************
1656:Generated_Source\PSoC6\pdl\drivers\peripheral\gpio/cy_gpio.h **** * Function Name: Cy_GPIO_GetInterruptStatusMasked
1657:Generated_Source\PSoC6\pdl\drivers\peripheral\gpio/cy_gpio.h **** ****************************************************************************//**
1658:Generated_Source\PSoC6\pdl\drivers\peripheral\gpio/cy_gpio.h **** *
1659:Generated_Source\PSoC6\pdl\drivers\peripheral\gpio/cy_gpio.h **** * \brief Return the pin's current interrupt state after being masked.
1660:Generated_Source\PSoC6\pdl\drivers\peripheral\gpio/cy_gpio.h **** *
1661:Generated_Source\PSoC6\pdl\drivers\peripheral\gpio/cy_gpio.h **** * The core processor's NVIC is triggered by the masked interrupt bits. This 
1662:Generated_Source\PSoC6\pdl\drivers\peripheral\gpio/cy_gpio.h **** * function allows reading this masked interrupt state. Note that the bits that
ARM GAS  C:\Users\salaz\AppData\Local\Temp\ccgHiAyq.s 			page 38


1663:Generated_Source\PSoC6\pdl\drivers\peripheral\gpio/cy_gpio.h **** * are not masked will not be forwarded to the NVIC.
1664:Generated_Source\PSoC6\pdl\drivers\peripheral\gpio/cy_gpio.h **** *
1665:Generated_Source\PSoC6\pdl\drivers\peripheral\gpio/cy_gpio.h **** * \param base
1666:Generated_Source\PSoC6\pdl\drivers\peripheral\gpio/cy_gpio.h **** * Pointer to the pin's port register base address
1667:Generated_Source\PSoC6\pdl\drivers\peripheral\gpio/cy_gpio.h **** *
1668:Generated_Source\PSoC6\pdl\drivers\peripheral\gpio/cy_gpio.h **** * \param pinNum
1669:Generated_Source\PSoC6\pdl\drivers\peripheral\gpio/cy_gpio.h **** * Position of the pin bit-field within the port register.
1670:Generated_Source\PSoC6\pdl\drivers\peripheral\gpio/cy_gpio.h **** * Bit position 8 is the routed pin through the port glitch filter.
1671:Generated_Source\PSoC6\pdl\drivers\peripheral\gpio/cy_gpio.h **** *
1672:Generated_Source\PSoC6\pdl\drivers\peripheral\gpio/cy_gpio.h **** * \return
1673:Generated_Source\PSoC6\pdl\drivers\peripheral\gpio/cy_gpio.h **** * 0 = Pin interrupt not detected or not forwarded to CPU interrupt controller
1674:Generated_Source\PSoC6\pdl\drivers\peripheral\gpio/cy_gpio.h **** * 1 = Pin interrupt detected and forwarded to CPU interrupt controller
1675:Generated_Source\PSoC6\pdl\drivers\peripheral\gpio/cy_gpio.h **** *
1676:Generated_Source\PSoC6\pdl\drivers\peripheral\gpio/cy_gpio.h **** * \funcusage
1677:Generated_Source\PSoC6\pdl\drivers\peripheral\gpio/cy_gpio.h **** * \snippet gpio/gpio_v1_10_sut_01.cydsn/main_cm4.c snippet_Cy_GPIO_GetInterruptStatusMasked
1678:Generated_Source\PSoC6\pdl\drivers\peripheral\gpio/cy_gpio.h **** *
1679:Generated_Source\PSoC6\pdl\drivers\peripheral\gpio/cy_gpio.h **** *******************************************************************************/
1680:Generated_Source\PSoC6\pdl\drivers\peripheral\gpio/cy_gpio.h **** __STATIC_INLINE uint32_t Cy_GPIO_GetInterruptStatusMasked(GPIO_PRT_Type* base, uint32_t pinNum)
1681:Generated_Source\PSoC6\pdl\drivers\peripheral\gpio/cy_gpio.h **** {
1682:Generated_Source\PSoC6\pdl\drivers\peripheral\gpio/cy_gpio.h ****     CY_ASSERT_L2(CY_GPIO_IS_FILTER_PIN_VALID(pinNum));
1683:Generated_Source\PSoC6\pdl\drivers\peripheral\gpio/cy_gpio.h ****     
1684:Generated_Source\PSoC6\pdl\drivers\peripheral\gpio/cy_gpio.h ****     return (base->INTR_MASKED >> pinNum) & CY_GPIO_INTR_MASKED_MASK;
1685:Generated_Source\PSoC6\pdl\drivers\peripheral\gpio/cy_gpio.h **** }
1686:Generated_Source\PSoC6\pdl\drivers\peripheral\gpio/cy_gpio.h **** 
1687:Generated_Source\PSoC6\pdl\drivers\peripheral\gpio/cy_gpio.h **** 
1688:Generated_Source\PSoC6\pdl\drivers\peripheral\gpio/cy_gpio.h **** /*******************************************************************************
1689:Generated_Source\PSoC6\pdl\drivers\peripheral\gpio/cy_gpio.h **** * Function Name: Cy_GPIO_SetSwInterrupt
1690:Generated_Source\PSoC6\pdl\drivers\peripheral\gpio/cy_gpio.h **** ****************************************************************************//**
1691:Generated_Source\PSoC6\pdl\drivers\peripheral\gpio/cy_gpio.h **** *
1692:Generated_Source\PSoC6\pdl\drivers\peripheral\gpio/cy_gpio.h **** * \brief Force a pin interrupt to trigger.
1693:Generated_Source\PSoC6\pdl\drivers\peripheral\gpio/cy_gpio.h **** *
1694:Generated_Source\PSoC6\pdl\drivers\peripheral\gpio/cy_gpio.h **** * \param base
1695:Generated_Source\PSoC6\pdl\drivers\peripheral\gpio/cy_gpio.h **** * Pointer to the pin's port register base address
1696:Generated_Source\PSoC6\pdl\drivers\peripheral\gpio/cy_gpio.h **** *
1697:Generated_Source\PSoC6\pdl\drivers\peripheral\gpio/cy_gpio.h **** * \param pinNum
1698:Generated_Source\PSoC6\pdl\drivers\peripheral\gpio/cy_gpio.h **** * Position of the pin bit-field within the port register.
1699:Generated_Source\PSoC6\pdl\drivers\peripheral\gpio/cy_gpio.h **** * Bit position 8 is the routed pin through the port glitch filter.
1700:Generated_Source\PSoC6\pdl\drivers\peripheral\gpio/cy_gpio.h **** *
1701:Generated_Source\PSoC6\pdl\drivers\peripheral\gpio/cy_gpio.h **** * \return
1702:Generated_Source\PSoC6\pdl\drivers\peripheral\gpio/cy_gpio.h **** * void
1703:Generated_Source\PSoC6\pdl\drivers\peripheral\gpio/cy_gpio.h **** *
1704:Generated_Source\PSoC6\pdl\drivers\peripheral\gpio/cy_gpio.h **** * \funcusage
1705:Generated_Source\PSoC6\pdl\drivers\peripheral\gpio/cy_gpio.h **** * \snippet gpio/gpio_v1_10_sut_01.cydsn/main_cm4.c snippet_Cy_GPIO_SetSwInterrupt
1706:Generated_Source\PSoC6\pdl\drivers\peripheral\gpio/cy_gpio.h **** *
1707:Generated_Source\PSoC6\pdl\drivers\peripheral\gpio/cy_gpio.h **** *******************************************************************************/
1708:Generated_Source\PSoC6\pdl\drivers\peripheral\gpio/cy_gpio.h **** __STATIC_INLINE void Cy_GPIO_SetSwInterrupt(GPIO_PRT_Type* base, uint32_t pinNum)
1709:Generated_Source\PSoC6\pdl\drivers\peripheral\gpio/cy_gpio.h **** {
1710:Generated_Source\PSoC6\pdl\drivers\peripheral\gpio/cy_gpio.h ****     CY_ASSERT_L2(CY_GPIO_IS_FILTER_PIN_VALID(pinNum));
1711:Generated_Source\PSoC6\pdl\drivers\peripheral\gpio/cy_gpio.h ****     
1712:Generated_Source\PSoC6\pdl\drivers\peripheral\gpio/cy_gpio.h ****     base->INTR_SET = CY_GPIO_INTR_SET_MASK << pinNum;
1713:Generated_Source\PSoC6\pdl\drivers\peripheral\gpio/cy_gpio.h **** }
1714:Generated_Source\PSoC6\pdl\drivers\peripheral\gpio/cy_gpio.h **** 
1715:Generated_Source\PSoC6\pdl\drivers\peripheral\gpio/cy_gpio.h **** 
1716:Generated_Source\PSoC6\pdl\drivers\peripheral\gpio/cy_gpio.h **** /*******************************************************************************
1717:Generated_Source\PSoC6\pdl\drivers\peripheral\gpio/cy_gpio.h **** * Function Name: Cy_GPIO_SetInterruptEdge
1718:Generated_Source\PSoC6\pdl\drivers\peripheral\gpio/cy_gpio.h **** ****************************************************************************//**
1719:Generated_Source\PSoC6\pdl\drivers\peripheral\gpio/cy_gpio.h **** *
ARM GAS  C:\Users\salaz\AppData\Local\Temp\ccgHiAyq.s 			page 39


1720:Generated_Source\PSoC6\pdl\drivers\peripheral\gpio/cy_gpio.h **** * \brief Configures the type of edge that will trigger a pin interrupt.
1721:Generated_Source\PSoC6\pdl\drivers\peripheral\gpio/cy_gpio.h **** *
1722:Generated_Source\PSoC6\pdl\drivers\peripheral\gpio/cy_gpio.h **** * \param base
1723:Generated_Source\PSoC6\pdl\drivers\peripheral\gpio/cy_gpio.h **** * Pointer to the pin's port register base address
1724:Generated_Source\PSoC6\pdl\drivers\peripheral\gpio/cy_gpio.h **** *
1725:Generated_Source\PSoC6\pdl\drivers\peripheral\gpio/cy_gpio.h **** * \param pinNum
1726:Generated_Source\PSoC6\pdl\drivers\peripheral\gpio/cy_gpio.h **** * Position of the pin bit-field within the port register.
1727:Generated_Source\PSoC6\pdl\drivers\peripheral\gpio/cy_gpio.h **** * Bit position 8 is the routed pin through the port glitch filter.
1728:Generated_Source\PSoC6\pdl\drivers\peripheral\gpio/cy_gpio.h **** *
1729:Generated_Source\PSoC6\pdl\drivers\peripheral\gpio/cy_gpio.h **** * \param value
1730:Generated_Source\PSoC6\pdl\drivers\peripheral\gpio/cy_gpio.h **** * Pin interrupt mode. Options are detailed in \ref group_gpio_interruptTrigger macros
1731:Generated_Source\PSoC6\pdl\drivers\peripheral\gpio/cy_gpio.h **** *
1732:Generated_Source\PSoC6\pdl\drivers\peripheral\gpio/cy_gpio.h **** * \return
1733:Generated_Source\PSoC6\pdl\drivers\peripheral\gpio/cy_gpio.h **** * void
1734:Generated_Source\PSoC6\pdl\drivers\peripheral\gpio/cy_gpio.h **** *
1735:Generated_Source\PSoC6\pdl\drivers\peripheral\gpio/cy_gpio.h **** * \note 
1736:Generated_Source\PSoC6\pdl\drivers\peripheral\gpio/cy_gpio.h **** * This function modifies a port register in a read-modify-write operation. It is
1737:Generated_Source\PSoC6\pdl\drivers\peripheral\gpio/cy_gpio.h **** * not thread safe as the resource is shared among multiple pins on a port.
1738:Generated_Source\PSoC6\pdl\drivers\peripheral\gpio/cy_gpio.h **** *
1739:Generated_Source\PSoC6\pdl\drivers\peripheral\gpio/cy_gpio.h **** * \funcusage
1740:Generated_Source\PSoC6\pdl\drivers\peripheral\gpio/cy_gpio.h **** * \snippet gpio/gpio_v1_10_sut_01.cydsn/main_cm4.c snippet_Cy_GPIO_SetInterruptEdge
1741:Generated_Source\PSoC6\pdl\drivers\peripheral\gpio/cy_gpio.h **** *
1742:Generated_Source\PSoC6\pdl\drivers\peripheral\gpio/cy_gpio.h **** *******************************************************************************/
1743:Generated_Source\PSoC6\pdl\drivers\peripheral\gpio/cy_gpio.h **** __STATIC_INLINE void Cy_GPIO_SetInterruptEdge(GPIO_PRT_Type* base, uint32_t pinNum, uint32_t value)
1744:Generated_Source\PSoC6\pdl\drivers\peripheral\gpio/cy_gpio.h **** {
1745:Generated_Source\PSoC6\pdl\drivers\peripheral\gpio/cy_gpio.h ****     uint32_t tempReg;
1746:Generated_Source\PSoC6\pdl\drivers\peripheral\gpio/cy_gpio.h ****     uint32_t pinLoc;
1747:Generated_Source\PSoC6\pdl\drivers\peripheral\gpio/cy_gpio.h **** 
1748:Generated_Source\PSoC6\pdl\drivers\peripheral\gpio/cy_gpio.h ****     CY_ASSERT_L2(CY_GPIO_IS_FILTER_PIN_VALID(pinNum));
 362              		.loc 2 1748 0
 363 019e 082D     		cmp	r5, #8
 364 01a0 03D9     		bls	.L27
 365 01a2 4649     		ldr	r1, .L35+32
 366 01a4 3F48     		ldr	r0, .L35+8
 367 01a6 FFF7FEFF 		bl	Cy_SysLib_AssertFailed
 368              	.LVL41:
 369              	.L27:
1749:Generated_Source\PSoC6\pdl\drivers\peripheral\gpio/cy_gpio.h ****     CY_ASSERT_L2(CY_GPIO_IS_INT_EDGE_VALID(value));
 370              		.loc 2 1749 0
 371 01aa 032F     		cmp	r7, #3
 372 01ac 03D9     		bls	.L28
 373 01ae 4449     		ldr	r1, .L35+36
 374 01b0 3C48     		ldr	r0, .L35+8
 375 01b2 FFF7FEFF 		bl	Cy_SysLib_AssertFailed
 376              	.LVL42:
 377              	.L28:
1750:Generated_Source\PSoC6\pdl\drivers\peripheral\gpio/cy_gpio.h **** 
1751:Generated_Source\PSoC6\pdl\drivers\peripheral\gpio/cy_gpio.h ****     pinLoc = pinNum << CY_GPIO_INTR_CFG_OFFSET;
 378              		.loc 2 1751 0
 379 01b6 6A00     		lsls	r2, r5, #1
 380              	.LVL43:
1752:Generated_Source\PSoC6\pdl\drivers\peripheral\gpio/cy_gpio.h ****     tempReg = base->INTR_CFG & ~(CY_GPIO_INTR_EDGE_MASK << pinLoc);
 381              		.loc 2 1752 0
 382 01b8 736A     		ldr	r3, [r6, #36]
 383 01ba 0321     		movs	r1, #3
 384 01bc 0800     		movs	r0, r1
 385 01be 9040     		lsls	r0, r0, r2
ARM GAS  C:\Users\salaz\AppData\Local\Temp\ccgHiAyq.s 			page 40


 386 01c0 8343     		bics	r3, r0
 387              	.LVL44:
1753:Generated_Source\PSoC6\pdl\drivers\peripheral\gpio/cy_gpio.h ****     base->INTR_CFG = tempReg | ((value & CY_GPIO_INTR_EDGE_MASK) << pinLoc);
 388              		.loc 2 1753 0
 389 01c2 0F40     		ands	r7, r1
 390              	.LVL45:
 391 01c4 9740     		lsls	r7, r7, r2
 392 01c6 1F43     		orrs	r7, r3
 393 01c8 7762     		str	r7, [r6, #36]
 394              	.LVL46:
 395              	.LBE21:
 396              	.LBE20:
  77:Generated_Source\PSoC6\pdl\drivers\peripheral\gpio/cy_gpio.c ****         Cy_GPIO_SetInterruptMask(base, pinNum, config->intMask);
 397              		.loc 1 77 0
 398 01ca 2769     		ldr	r7, [r4, #16]
 399              	.LVL47:
 400              	.LBB22:
 401              	.LBB23:
1615:Generated_Source\PSoC6\pdl\drivers\peripheral\gpio/cy_gpio.h ****     CY_ASSERT_L2(CY_GPIO_IS_VALUE_VALID(value));
 402              		.loc 2 1615 0
 403 01cc 082D     		cmp	r5, #8
 404 01ce 03D9     		bls	.L29
 405 01d0 3C49     		ldr	r1, .L35+40
 406 01d2 3448     		ldr	r0, .L35+8
 407 01d4 FFF7FEFF 		bl	Cy_SysLib_AssertFailed
 408              	.LVL48:
 409              	.L29:
1616:Generated_Source\PSoC6\pdl\drivers\peripheral\gpio/cy_gpio.h **** 
 410              		.loc 2 1616 0
 411 01d8 012F     		cmp	r7, #1
 412 01da 04D9     		bls	.L30
 413 01dc CA21     		movs	r1, #202
 414 01de C900     		lsls	r1, r1, #3
 415 01e0 3048     		ldr	r0, .L35+8
 416 01e2 FFF7FEFF 		bl	Cy_SysLib_AssertFailed
 417              	.LVL49:
 418              	.L30:
1618:Generated_Source\PSoC6\pdl\drivers\peripheral\gpio/cy_gpio.h ****     base->INTR_MASK = tempReg | ((value & CY_GPIO_INTR_EN_MASK) << pinNum);
 419              		.loc 2 1618 0
 420 01e6 B369     		ldr	r3, [r6, #24]
 421 01e8 0122     		movs	r2, #1
 422 01ea 1100     		movs	r1, r2
 423 01ec A940     		lsls	r1, r1, r5
 424 01ee 8B43     		bics	r3, r1
 425              	.LVL50:
1619:Generated_Source\PSoC6\pdl\drivers\peripheral\gpio/cy_gpio.h **** }
 426              		.loc 2 1619 0
 427 01f0 1740     		ands	r7, r2
 428              	.LVL51:
 429 01f2 AF40     		lsls	r7, r7, r5
 430 01f4 1F43     		orrs	r7, r3
 431 01f6 B761     		str	r7, [r6, #24]
 432              	.LVL52:
 433              	.LBE23:
 434              	.LBE22:
  78:Generated_Source\PSoC6\pdl\drivers\peripheral\gpio/cy_gpio.c ****         Cy_GPIO_SetVtrip(base, pinNum, config->vtrip);
 435              		.loc 1 78 0
ARM GAS  C:\Users\salaz\AppData\Local\Temp\ccgHiAyq.s 			page 41


 436 01f8 6769     		ldr	r7, [r4, #20]
 437              	.LVL53:
 438              	.LBB24:
 439              	.LBB25:
 978:Generated_Source\PSoC6\pdl\drivers\peripheral\gpio/cy_gpio.h ****     CY_ASSERT_L2(CY_GPIO_IS_VALUE_VALID(value));
 440              		.loc 2 978 0
 441 01fa 072D     		cmp	r5, #7
 442 01fc 03D9     		bls	.L31
 443 01fe 3249     		ldr	r1, .L35+44
 444 0200 2848     		ldr	r0, .L35+8
 445 0202 FFF7FEFF 		bl	Cy_SysLib_AssertFailed
 446              	.LVL54:
 447              	.L31:
 979:Generated_Source\PSoC6\pdl\drivers\peripheral\gpio/cy_gpio.h **** 
 448              		.loc 2 979 0
 449 0206 012F     		cmp	r7, #1
 450 0208 03D9     		bls	.L32
 451 020a 3049     		ldr	r1, .L35+48
 452 020c 2548     		ldr	r0, .L35+8
 453 020e FFF7FEFF 		bl	Cy_SysLib_AssertFailed
 454              	.LVL55:
 455              	.L32:
 981:Generated_Source\PSoC6\pdl\drivers\peripheral\gpio/cy_gpio.h ****     base->CFG_IN = tempReg | ((value & CY_GPIO_CFG_IN_VTRIP_SEL_MASK) << pinNum);
 456              		.loc 2 981 0
 457 0212 F26A     		ldr	r2, [r6, #44]
 458 0214 0123     		movs	r3, #1
 459 0216 1900     		movs	r1, r3
 460 0218 A940     		lsls	r1, r1, r5
 461 021a 8C46     		mov	ip, r1
 462 021c 8A43     		bics	r2, r1
 463              	.LVL56:
 982:Generated_Source\PSoC6\pdl\drivers\peripheral\gpio/cy_gpio.h **** }
 464              		.loc 2 982 0
 465 021e 1F40     		ands	r7, r3
 466              	.LVL57:
 467 0220 AF40     		lsls	r7, r7, r5
 468 0222 1743     		orrs	r7, r2
 469 0224 F762     		str	r7, [r6, #44]
 470              	.LVL58:
 471              	.LBE25:
 472              	.LBE24:
  79:Generated_Source\PSoC6\pdl\drivers\peripheral\gpio/cy_gpio.c **** 
  80:Generated_Source\PSoC6\pdl\drivers\peripheral\gpio/cy_gpio.c ****         /* Slew rate and Driver strength */
  81:Generated_Source\PSoC6\pdl\drivers\peripheral\gpio/cy_gpio.c ****         maskCfgOut = (CY_GPIO_CFG_OUT_SLOW_MASK << pinNum) 
  82:Generated_Source\PSoC6\pdl\drivers\peripheral\gpio/cy_gpio.c ****                         | (CY_GPIO_CFG_OUT_DRIVE_SEL_MASK << ((uint32_t)(pinNum << 1u) + CY_GPIO_CF
 473              		.loc 1 82 0
 474 0226 6F00     		lsls	r7, r5, #1
 475 0228 1037     		adds	r7, r7, #16
 476 022a 0321     		movs	r1, #3
 477 022c 0800     		movs	r0, r1
 478 022e B840     		lsls	r0, r0, r7
  81:Generated_Source\PSoC6\pdl\drivers\peripheral\gpio/cy_gpio.c ****                         | (CY_GPIO_CFG_OUT_DRIVE_SEL_MASK << ((uint32_t)(pinNum << 1u) + CY_GPIO_CF
 479              		.loc 1 81 0
 480 0230 6246     		mov	r2, ip
 481 0232 1043     		orrs	r0, r2
 482              	.LVL59:
  83:Generated_Source\PSoC6\pdl\drivers\peripheral\gpio/cy_gpio.c ****         tempReg = base->CFG_OUT & ~(maskCfgOut);
ARM GAS  C:\Users\salaz\AppData\Local\Temp\ccgHiAyq.s 			page 42


 483              		.loc 1 83 0
 484 0234 326B     		ldr	r2, [r6, #48]
 485 0236 8243     		bics	r2, r0
 486              	.LVL60:
  84:Generated_Source\PSoC6\pdl\drivers\peripheral\gpio/cy_gpio.c ****         base->CFG_OUT = tempReg | ((config->slewRate & CY_GPIO_CFG_OUT_SLOW_MASK) << pinNum)
 487              		.loc 1 84 0
 488 0238 A069     		ldr	r0, [r4, #24]
 489              	.LVL61:
 490 023a 1840     		ands	r0, r3
 491 023c A840     		lsls	r0, r0, r5
 492 023e 0243     		orrs	r2, r0
 493              	.LVL62:
  85:Generated_Source\PSoC6\pdl\drivers\peripheral\gpio/cy_gpio.c ****                             | ((config->driveSel & CY_GPIO_CFG_OUT_DRIVE_SEL_MASK) << ((uint32_t)(p
 494              		.loc 1 85 0
 495 0240 E069     		ldr	r0, [r4, #28]
 496 0242 0140     		ands	r1, r0
 497              	.LVL63:
 498 0244 B940     		lsls	r1, r1, r7
 499 0246 0A43     		orrs	r2, r1
  84:Generated_Source\PSoC6\pdl\drivers\peripheral\gpio/cy_gpio.c ****         base->CFG_OUT = tempReg | ((config->slewRate & CY_GPIO_CFG_OUT_SLOW_MASK) << pinNum)
 500              		.loc 1 84 0
 501 0248 3263     		str	r2, [r6, #48]
  86:Generated_Source\PSoC6\pdl\drivers\peripheral\gpio/cy_gpio.c **** 
  87:Generated_Source\PSoC6\pdl\drivers\peripheral\gpio/cy_gpio.c ****         /* SIO specific configuration */
  88:Generated_Source\PSoC6\pdl\drivers\peripheral\gpio/cy_gpio.c ****         tempReg = base->CFG_SIO & ~(CY_GPIO_SIO_PIN_MASK);
 502              		.loc 1 88 0
 503 024a 706B     		ldr	r0, [r6, #52]
 504 024c FF22     		movs	r2, #255
 505 024e 9446     		mov	ip, r2
 506              	.LVL64:
 507 0250 9043     		bics	r0, r2
 508              	.LVL65:
  89:Generated_Source\PSoC6\pdl\drivers\peripheral\gpio/cy_gpio.c ****         base->CFG_SIO = tempReg | (((config->vregEn & CY_GPIO_VREG_EN_MASK)
 509              		.loc 1 89 0
 510 0252 276A     		ldr	r7, [r4, #32]
 511              	.LVL66:
 512 0254 1F40     		ands	r7, r3
  90:Generated_Source\PSoC6\pdl\drivers\peripheral\gpio/cy_gpio.c ****                                         | ((config->ibufMode & CY_GPIO_IBUF_MASK) << CY_GPIO_IBUF_S
 513              		.loc 1 90 0
 514 0256 636A     		ldr	r3, [r4, #36]
 515              	.LVL67:
 516 0258 5A00     		lsls	r2, r3, #1
 517 025a 0223     		movs	r3, #2
 518 025c 1340     		ands	r3, r2
 519 025e 3B43     		orrs	r3, r7
  91:Generated_Source\PSoC6\pdl\drivers\peripheral\gpio/cy_gpio.c ****                                         | ((config->vtripSel & CY_GPIO_VTRIP_SEL_MASK) << CY_GPIO_V
 520              		.loc 1 91 0
 521 0260 A26A     		ldr	r2, [r4, #40]
 522 0262 9100     		lsls	r1, r2, #2
 523 0264 0427     		movs	r7, #4
 524 0266 3940     		ands	r1, r7
 525 0268 0B43     		orrs	r3, r1
 526 026a 1F00     		movs	r7, r3
  92:Generated_Source\PSoC6\pdl\drivers\peripheral\gpio/cy_gpio.c ****                                         | ((config->vrefSel & CY_GPIO_VREF_SEL_MASK)  << CY_GPIO_VR
 527              		.loc 1 92 0
 528 026c E36A     		ldr	r3, [r4, #44]
 529 026e D900     		lsls	r1, r3, #3
ARM GAS  C:\Users\salaz\AppData\Local\Temp\ccgHiAyq.s 			page 43


 530 0270 1823     		movs	r3, #24
 531 0272 1940     		ands	r1, r3
 532 0274 3B00     		movs	r3, r7
 533 0276 0B43     		orrs	r3, r1
  93:Generated_Source\PSoC6\pdl\drivers\peripheral\gpio/cy_gpio.c ****                                         | ((config->vohSel & CY_GPIO_VOH_SEL_MASK) << CY_GPIO_VOH_S
 534              		.loc 1 93 0
 535 0278 226B     		ldr	r2, [r4, #48]
 536 027a 5201     		lsls	r2, r2, #5
 537 027c 6146     		mov	r1, ip
 538 027e 0A40     		ands	r2, r1
 539 0280 1343     		orrs	r3, r2
  94:Generated_Source\PSoC6\pdl\drivers\peripheral\gpio/cy_gpio.c ****                                             << ((pinNum & CY_GPIO_SIO_ODD_PIN_MASK) << CY_GPIO_CFG_
 540              		.loc 1 94 0
 541 0282 AD00     		lsls	r5, r5, #2
 542              	.LVL68:
 543 0284 FE22     		movs	r2, #254
 544 0286 9200     		lsls	r2, r2, #2
 545 0288 1540     		ands	r5, r2
 546 028a AB40     		lsls	r3, r3, r5
  89:Generated_Source\PSoC6\pdl\drivers\peripheral\gpio/cy_gpio.c ****                                         | ((config->ibufMode & CY_GPIO_IBUF_MASK) << CY_GPIO_IBUF_S
 547              		.loc 1 89 0
 548 028c 0343     		orrs	r3, r0
 549 028e 7363     		str	r3, [r6, #52]
  51:Generated_Source\PSoC6\pdl\drivers\peripheral\gpio/cy_gpio.c ****     uint32_t maskCfgOut;
 550              		.loc 1 51 0
 551 0290 0020     		movs	r0, #0
 552              	.LVL69:
  89:Generated_Source\PSoC6\pdl\drivers\peripheral\gpio/cy_gpio.c ****                                         | ((config->ibufMode & CY_GPIO_IBUF_MASK) << CY_GPIO_IBUF_S
 553              		.loc 1 89 0
 554 0292 02E0     		b	.L2
 555              	.LVL70:
 556              	.L33:
  95:Generated_Source\PSoC6\pdl\drivers\peripheral\gpio/cy_gpio.c ****     }
  96:Generated_Source\PSoC6\pdl\drivers\peripheral\gpio/cy_gpio.c ****     else
  97:Generated_Source\PSoC6\pdl\drivers\peripheral\gpio/cy_gpio.c ****     {
  98:Generated_Source\PSoC6\pdl\drivers\peripheral\gpio/cy_gpio.c ****         status = CY_GPIO_BAD_PARAM;
 557              		.loc 1 98 0
 558 0294 0E48     		ldr	r0, .L35+52
 559              	.LVL71:
 560 0296 00E0     		b	.L2
 561              	.LVL72:
 562              	.L34:
 563 0298 0D48     		ldr	r0, .L35+52
 564              	.LVL73:
 565              	.L2:
  99:Generated_Source\PSoC6\pdl\drivers\peripheral\gpio/cy_gpio.c ****     }
 100:Generated_Source\PSoC6\pdl\drivers\peripheral\gpio/cy_gpio.c ****     
 101:Generated_Source\PSoC6\pdl\drivers\peripheral\gpio/cy_gpio.c ****     return(status);
 102:Generated_Source\PSoC6\pdl\drivers\peripheral\gpio/cy_gpio.c **** }
 566              		.loc 1 102 0
 567              		@ sp needed
 568              	.LVL74:
 569              	.LVL75:
 570 029a F8BD     		pop	{r3, r4, r5, r6, r7, pc}
 571              	.L36:
 572              		.align	2
 573              	.L35:
ARM GAS  C:\Users\salaz\AppData\Local\Temp\ccgHiAyq.s 			page 44


 574 029c 00000000 		.word	.LC0
 575 02a0 E7020000 		.word	743
 576 02a4 40000000 		.word	.LC2
 577 02a8 91030000 		.word	913
 578 02ac 45020000 		.word	581
 579 02b0 46020000 		.word	582
 580 02b4 0000CEBF 		.word	-1077018624
 581 02b8 00100304 		.word	67309568
 582 02bc D4060000 		.word	1748
 583 02c0 D5060000 		.word	1749
 584 02c4 4F060000 		.word	1615
 585 02c8 D2030000 		.word	978
 586 02cc D3030000 		.word	979
 587 02d0 01005A00 		.word	5898241
 588              		.cfi_endproc
 589              	.LFE74:
 590              		.size	Cy_GPIO_Pin_Init, .-Cy_GPIO_Pin_Init
 591              		.section	.text.Cy_GPIO_Port_Init,"ax",%progbits
 592              		.align	2
 593              		.global	Cy_GPIO_Port_Init
 594              		.code	16
 595              		.thumb_func
 596              		.type	Cy_GPIO_Port_Init, %function
 597              	Cy_GPIO_Port_Init:
 598              	.LFB75:
 103:Generated_Source\PSoC6\pdl\drivers\peripheral\gpio/cy_gpio.c **** 
 104:Generated_Source\PSoC6\pdl\drivers\peripheral\gpio/cy_gpio.c **** 
 105:Generated_Source\PSoC6\pdl\drivers\peripheral\gpio/cy_gpio.c **** /*******************************************************************************
 106:Generated_Source\PSoC6\pdl\drivers\peripheral\gpio/cy_gpio.c **** * Function Name: Cy_GPIO_Port_Init
 107:Generated_Source\PSoC6\pdl\drivers\peripheral\gpio/cy_gpio.c **** ****************************************************************************//**
 108:Generated_Source\PSoC6\pdl\drivers\peripheral\gpio/cy_gpio.c **** *
 109:Generated_Source\PSoC6\pdl\drivers\peripheral\gpio/cy_gpio.c **** * \brief Initialize a complete port of pins from a single init structure.
 110:Generated_Source\PSoC6\pdl\drivers\peripheral\gpio/cy_gpio.c **** *
 111:Generated_Source\PSoC6\pdl\drivers\peripheral\gpio/cy_gpio.c **** * The configuration structure used in this function has a 1:1 mapping to the
 112:Generated_Source\PSoC6\pdl\drivers\peripheral\gpio/cy_gpio.c **** * GPIO and HSIOM registers. Refer to the device Technical Reference Manual (TRM)
 113:Generated_Source\PSoC6\pdl\drivers\peripheral\gpio/cy_gpio.c **** * for the register details on how to populate them.
 114:Generated_Source\PSoC6\pdl\drivers\peripheral\gpio/cy_gpio.c **** *
 115:Generated_Source\PSoC6\pdl\drivers\peripheral\gpio/cy_gpio.c **** * \param base
 116:Generated_Source\PSoC6\pdl\drivers\peripheral\gpio/cy_gpio.c **** * Pointer to the pin's port register base address
 117:Generated_Source\PSoC6\pdl\drivers\peripheral\gpio/cy_gpio.c **** *
 118:Generated_Source\PSoC6\pdl\drivers\peripheral\gpio/cy_gpio.c **** * \param config
 119:Generated_Source\PSoC6\pdl\drivers\peripheral\gpio/cy_gpio.c **** * Pointer to the pin config structure base address
 120:Generated_Source\PSoC6\pdl\drivers\peripheral\gpio/cy_gpio.c **** *
 121:Generated_Source\PSoC6\pdl\drivers\peripheral\gpio/cy_gpio.c **** * \return
 122:Generated_Source\PSoC6\pdl\drivers\peripheral\gpio/cy_gpio.c **** * Initialization status
 123:Generated_Source\PSoC6\pdl\drivers\peripheral\gpio/cy_gpio.c **** *
 124:Generated_Source\PSoC6\pdl\drivers\peripheral\gpio/cy_gpio.c **** * \note 
 125:Generated_Source\PSoC6\pdl\drivers\peripheral\gpio/cy_gpio.c **** * If using the PSoC Creator IDE, there is no need to initialize the pins when 
 126:Generated_Source\PSoC6\pdl\drivers\peripheral\gpio/cy_gpio.c **** * using the GPIO component on the schematic. Ports are configured in 
 127:Generated_Source\PSoC6\pdl\drivers\peripheral\gpio/cy_gpio.c **** * Cy_SystemInit() before main() entry.
 128:Generated_Source\PSoC6\pdl\drivers\peripheral\gpio/cy_gpio.c **** *
 129:Generated_Source\PSoC6\pdl\drivers\peripheral\gpio/cy_gpio.c **** * \funcusage
 130:Generated_Source\PSoC6\pdl\drivers\peripheral\gpio/cy_gpio.c **** * \snippet gpio/gpio_v1_10_sut_01.cydsn/main_cm4.c snippet_Cy_GPIO_Port_Init
 131:Generated_Source\PSoC6\pdl\drivers\peripheral\gpio/cy_gpio.c **** *
 132:Generated_Source\PSoC6\pdl\drivers\peripheral\gpio/cy_gpio.c **** *******************************************************************************/
 133:Generated_Source\PSoC6\pdl\drivers\peripheral\gpio/cy_gpio.c **** cy_en_gpio_status_t Cy_GPIO_Port_Init(GPIO_PRT_Type* base, const cy_stc_gpio_prt_config_t *config)
 134:Generated_Source\PSoC6\pdl\drivers\peripheral\gpio/cy_gpio.c **** {
ARM GAS  C:\Users\salaz\AppData\Local\Temp\ccgHiAyq.s 			page 45


 599              		.loc 1 134 0
 600              		.cfi_startproc
 601              		@ args = 0, pretend = 0, frame = 0
 602              		@ frame_needed = 0, uses_anonymous_args = 0
 603              	.LVL76:
 604 0000 70B5     		push	{r4, r5, r6, lr}
 605              		.cfi_def_cfa_offset 16
 606              		.cfi_offset 4, -16
 607              		.cfi_offset 5, -12
 608              		.cfi_offset 6, -8
 609              		.cfi_offset 14, -4
 610 0002 0500     		movs	r5, r0
 611 0004 0C00     		movs	r4, r1
 612              	.LVL77:
 135:Generated_Source\PSoC6\pdl\drivers\peripheral\gpio/cy_gpio.c ****     cy_en_gpio_status_t status = CY_GPIO_SUCCESS;
 136:Generated_Source\PSoC6\pdl\drivers\peripheral\gpio/cy_gpio.c ****     uint32_t portNum;
 137:Generated_Source\PSoC6\pdl\drivers\peripheral\gpio/cy_gpio.c ****     HSIOM_PRT_Type* baseHSIOM;
 138:Generated_Source\PSoC6\pdl\drivers\peripheral\gpio/cy_gpio.c **** 
 139:Generated_Source\PSoC6\pdl\drivers\peripheral\gpio/cy_gpio.c ****     if((NULL != base) && (NULL != config))
 613              		.loc 1 139 0
 614 0006 0028     		cmp	r0, #0
 615 0008 48D0     		beq	.L45
 616              		.loc 1 139 0 is_stmt 0 discriminator 1
 617 000a 0029     		cmp	r1, #0
 618 000c 48D0     		beq	.L46
 140:Generated_Source\PSoC6\pdl\drivers\peripheral\gpio/cy_gpio.c ****     {
 141:Generated_Source\PSoC6\pdl\drivers\peripheral\gpio/cy_gpio.c ****         CY_ASSERT_L2(CY_GPIO_IS_PIN_BIT_VALID(config->out));
 619              		.loc 1 141 0 is_stmt 1
 620 000e FF23     		movs	r3, #255
 621 0010 0A68     		ldr	r2, [r1]
 622 0012 9A43     		bics	r2, r3
 623 0014 03D0     		beq	.L39
 624              		.loc 1 141 0 is_stmt 0 discriminator 1
 625 0016 8D21     		movs	r1, #141
 626              	.LVL78:
 627 0018 2248     		ldr	r0, .L47
 628              	.LVL79:
 629 001a FFF7FEFF 		bl	Cy_SysLib_AssertFailed
 630              	.LVL80:
 631              	.L39:
 142:Generated_Source\PSoC6\pdl\drivers\peripheral\gpio/cy_gpio.c ****         CY_ASSERT_L2(CY_GPIO_IS_PIN_BIT_VALID(config->cfgIn));
 632              		.loc 1 142 0 is_stmt 1
 633 001e FF23     		movs	r3, #255
 634 0020 2269     		ldr	r2, [r4, #16]
 635 0022 9A43     		bics	r2, r3
 636 0024 03D0     		beq	.L40
 637              		.loc 1 142 0 is_stmt 0 discriminator 1
 638 0026 8E21     		movs	r1, #142
 639 0028 1E48     		ldr	r0, .L47
 640 002a FFF7FEFF 		bl	Cy_SysLib_AssertFailed
 641              	.LVL81:
 642              	.L40:
 143:Generated_Source\PSoC6\pdl\drivers\peripheral\gpio/cy_gpio.c ****         CY_ASSERT_L2(CY_GPIO_IS_INTR_CFG_VALID(config->intrCfg));
 643              		.loc 1 143 0 is_stmt 1
 644 002e A368     		ldr	r3, [r4, #8]
 645 0030 5B0D     		lsrs	r3, r3, #21
 646 0032 03D0     		beq	.L41
ARM GAS  C:\Users\salaz\AppData\Local\Temp\ccgHiAyq.s 			page 46


 647              		.loc 1 143 0 is_stmt 0 discriminator 1
 648 0034 8F21     		movs	r1, #143
 649 0036 1B48     		ldr	r0, .L47
 650 0038 FFF7FEFF 		bl	Cy_SysLib_AssertFailed
 651              	.LVL82:
 652              	.L41:
 144:Generated_Source\PSoC6\pdl\drivers\peripheral\gpio/cy_gpio.c ****         CY_ASSERT_L2(CY_GPIO_IS_INTR_MASK_VALID(config->intrMask));
 653              		.loc 1 144 0 is_stmt 1
 654 003c 6368     		ldr	r3, [r4, #4]
 655 003e 5B0A     		lsrs	r3, r3, #9
 656 0040 03D0     		beq	.L42
 657              		.loc 1 144 0 is_stmt 0 discriminator 1
 658 0042 9021     		movs	r1, #144
 659 0044 1748     		ldr	r0, .L47
 660 0046 FFF7FEFF 		bl	Cy_SysLib_AssertFailed
 661              	.LVL83:
 662              	.L42:
 145:Generated_Source\PSoC6\pdl\drivers\peripheral\gpio/cy_gpio.c ****         CY_ASSERT_L2(CY_GPIO_IS_SEL_ACT_VALID(config->sel0Active));
 663              		.loc 1 145 0 is_stmt 1
 664 004a E369     		ldr	r3, [r4, #28]
 665 004c 5B0F     		lsrs	r3, r3, #29
 666 004e 03D0     		beq	.L43
 667              		.loc 1 145 0 is_stmt 0 discriminator 1
 668 0050 9121     		movs	r1, #145
 669 0052 1448     		ldr	r0, .L47
 670 0054 FFF7FEFF 		bl	Cy_SysLib_AssertFailed
 671              	.LVL84:
 672              	.L43:
 146:Generated_Source\PSoC6\pdl\drivers\peripheral\gpio/cy_gpio.c ****         CY_ASSERT_L2(CY_GPIO_IS_SEL_ACT_VALID(config->sel1Active));
 673              		.loc 1 146 0 is_stmt 1
 674 0058 236A     		ldr	r3, [r4, #32]
 675 005a 5B0F     		lsrs	r3, r3, #29
 676 005c 03D0     		beq	.L44
 677              		.loc 1 146 0 is_stmt 0 discriminator 1
 678 005e 9221     		movs	r1, #146
 679 0060 1048     		ldr	r0, .L47
 680 0062 FFF7FEFF 		bl	Cy_SysLib_AssertFailed
 681              	.LVL85:
 682              	.L44:
 147:Generated_Source\PSoC6\pdl\drivers\peripheral\gpio/cy_gpio.c ****     
 148:Generated_Source\PSoC6\pdl\drivers\peripheral\gpio/cy_gpio.c ****         portNum = ((uint32_t)(base) - GPIO_BASE) / GPIO_PRT_SECTION_SIZE;
 683              		.loc 1 148 0 is_stmt 1
 684 0066 104B     		ldr	r3, .L47+4
 685 0068 EB18     		adds	r3, r5, r3
 686 006a DB09     		lsrs	r3, r3, #7
 687              	.LVL86:
 149:Generated_Source\PSoC6\pdl\drivers\peripheral\gpio/cy_gpio.c ****         baseHSIOM = (HSIOM_PRT_Type*)(HSIOM_BASE + (HSIOM_PRT_SECTION_SIZE * portNum));
 688              		.loc 1 149 0
 689 006c 0F4A     		ldr	r2, .L47+8
 690 006e 9446     		mov	ip, r2
 691 0070 6344     		add	r3, r3, ip
 692              	.LVL87:
 693 0072 1B01     		lsls	r3, r3, #4
 694              	.LVL88:
 150:Generated_Source\PSoC6\pdl\drivers\peripheral\gpio/cy_gpio.c **** 
 151:Generated_Source\PSoC6\pdl\drivers\peripheral\gpio/cy_gpio.c ****         base->OUT            = config->out;
 695              		.loc 1 151 0
ARM GAS  C:\Users\salaz\AppData\Local\Temp\ccgHiAyq.s 			page 47


 696 0074 2268     		ldr	r2, [r4]
 697 0076 2A60     		str	r2, [r5]
 152:Generated_Source\PSoC6\pdl\drivers\peripheral\gpio/cy_gpio.c ****         base->CFG            = config->cfg;
 698              		.loc 1 152 0
 699 0078 E268     		ldr	r2, [r4, #12]
 700 007a AA62     		str	r2, [r5, #40]
 153:Generated_Source\PSoC6\pdl\drivers\peripheral\gpio/cy_gpio.c ****         base->CFG_IN         = config->cfgIn;
 701              		.loc 1 153 0
 702 007c 2269     		ldr	r2, [r4, #16]
 703 007e EA62     		str	r2, [r5, #44]
 154:Generated_Source\PSoC6\pdl\drivers\peripheral\gpio/cy_gpio.c ****         base->CFG_OUT        = config->cfgOut;
 704              		.loc 1 154 0
 705 0080 6269     		ldr	r2, [r4, #20]
 706 0082 2A63     		str	r2, [r5, #48]
 155:Generated_Source\PSoC6\pdl\drivers\peripheral\gpio/cy_gpio.c ****         base->INTR_CFG       = config->intrCfg;
 707              		.loc 1 155 0
 708 0084 A268     		ldr	r2, [r4, #8]
 709 0086 6A62     		str	r2, [r5, #36]
 156:Generated_Source\PSoC6\pdl\drivers\peripheral\gpio/cy_gpio.c ****         base->INTR_MASK      = config->intrMask;
 710              		.loc 1 156 0
 711 0088 6268     		ldr	r2, [r4, #4]
 712 008a AA61     		str	r2, [r5, #24]
 157:Generated_Source\PSoC6\pdl\drivers\peripheral\gpio/cy_gpio.c ****         base->CFG_SIO        = config->cfgSIO;
 713              		.loc 1 157 0
 714 008c A269     		ldr	r2, [r4, #24]
 715 008e 6A63     		str	r2, [r5, #52]
 158:Generated_Source\PSoC6\pdl\drivers\peripheral\gpio/cy_gpio.c ****         baseHSIOM->PORT_SEL0 = config->sel0Active;
 716              		.loc 1 158 0
 717 0090 E269     		ldr	r2, [r4, #28]
 718 0092 1A60     		str	r2, [r3]
 159:Generated_Source\PSoC6\pdl\drivers\peripheral\gpio/cy_gpio.c ****         baseHSIOM->PORT_SEL1 = config->sel1Active;
 719              		.loc 1 159 0
 720 0094 226A     		ldr	r2, [r4, #32]
 721 0096 5A60     		str	r2, [r3, #4]
 135:Generated_Source\PSoC6\pdl\drivers\peripheral\gpio/cy_gpio.c ****     uint32_t portNum;
 722              		.loc 1 135 0
 723 0098 0020     		movs	r0, #0
 724              		.loc 1 159 0
 725 009a 02E0     		b	.L38
 726              	.LVL89:
 727              	.L45:
 160:Generated_Source\PSoC6\pdl\drivers\peripheral\gpio/cy_gpio.c ****     }
 161:Generated_Source\PSoC6\pdl\drivers\peripheral\gpio/cy_gpio.c ****     else
 162:Generated_Source\PSoC6\pdl\drivers\peripheral\gpio/cy_gpio.c ****     {
 163:Generated_Source\PSoC6\pdl\drivers\peripheral\gpio/cy_gpio.c ****         status = CY_GPIO_BAD_PARAM;
 728              		.loc 1 163 0
 729 009c 0448     		ldr	r0, .L47+12
 730              	.LVL90:
 731 009e 00E0     		b	.L38
 732              	.LVL91:
 733              	.L46:
 734 00a0 0348     		ldr	r0, .L47+12
 735              	.LVL92:
 736              	.L38:
 164:Generated_Source\PSoC6\pdl\drivers\peripheral\gpio/cy_gpio.c ****     }
 165:Generated_Source\PSoC6\pdl\drivers\peripheral\gpio/cy_gpio.c ****     
 166:Generated_Source\PSoC6\pdl\drivers\peripheral\gpio/cy_gpio.c ****     return(status);
ARM GAS  C:\Users\salaz\AppData\Local\Temp\ccgHiAyq.s 			page 48


 167:Generated_Source\PSoC6\pdl\drivers\peripheral\gpio/cy_gpio.c **** }
 737              		.loc 1 167 0
 738              		@ sp needed
 739              	.LVL93:
 740              	.LVL94:
 741 00a2 70BD     		pop	{r4, r5, r6, pc}
 742              	.L48:
 743              		.align	2
 744              	.L47:
 745 00a4 00000000 		.word	.LC0
 746 00a8 0000CEBF 		.word	-1077018624
 747 00ac 00100304 		.word	67309568
 748 00b0 01005A00 		.word	5898241
 749              		.cfi_endproc
 750              	.LFE75:
 751              		.size	Cy_GPIO_Port_Init, .-Cy_GPIO_Port_Init
 752              		.section	.text.Cy_GPIO_Pin_FastInit,"ax",%progbits
 753              		.align	2
 754              		.global	Cy_GPIO_Pin_FastInit
 755              		.code	16
 756              		.thumb_func
 757              		.type	Cy_GPIO_Pin_FastInit, %function
 758              	Cy_GPIO_Pin_FastInit:
 759              	.LFB76:
 168:Generated_Source\PSoC6\pdl\drivers\peripheral\gpio/cy_gpio.c **** 
 169:Generated_Source\PSoC6\pdl\drivers\peripheral\gpio/cy_gpio.c **** 
 170:Generated_Source\PSoC6\pdl\drivers\peripheral\gpio/cy_gpio.c **** /*******************************************************************************
 171:Generated_Source\PSoC6\pdl\drivers\peripheral\gpio/cy_gpio.c **** * Function Name: Cy_GPIO_Pin_FastInit
 172:Generated_Source\PSoC6\pdl\drivers\peripheral\gpio/cy_gpio.c **** ****************************************************************************//**
 173:Generated_Source\PSoC6\pdl\drivers\peripheral\gpio/cy_gpio.c **** *
 174:Generated_Source\PSoC6\pdl\drivers\peripheral\gpio/cy_gpio.c **** * \brief Initialize the most common configuration settings for all pin types.
 175:Generated_Source\PSoC6\pdl\drivers\peripheral\gpio/cy_gpio.c **** *
 176:Generated_Source\PSoC6\pdl\drivers\peripheral\gpio/cy_gpio.c **** * These include, drive mode, initial output value, and HSIOM connection.
 177:Generated_Source\PSoC6\pdl\drivers\peripheral\gpio/cy_gpio.c **** *
 178:Generated_Source\PSoC6\pdl\drivers\peripheral\gpio/cy_gpio.c **** * \param base
 179:Generated_Source\PSoC6\pdl\drivers\peripheral\gpio/cy_gpio.c **** * Pointer to the pin's port register base address
 180:Generated_Source\PSoC6\pdl\drivers\peripheral\gpio/cy_gpio.c **** *
 181:Generated_Source\PSoC6\pdl\drivers\peripheral\gpio/cy_gpio.c **** * \param pinNum
 182:Generated_Source\PSoC6\pdl\drivers\peripheral\gpio/cy_gpio.c **** * Position of the pin bit-field within the port register
 183:Generated_Source\PSoC6\pdl\drivers\peripheral\gpio/cy_gpio.c **** *
 184:Generated_Source\PSoC6\pdl\drivers\peripheral\gpio/cy_gpio.c **** * \param driveMode
 185:Generated_Source\PSoC6\pdl\drivers\peripheral\gpio/cy_gpio.c **** * Pin drive mode. Options are detailed in \ref group_gpio_driveModes macros
 186:Generated_Source\PSoC6\pdl\drivers\peripheral\gpio/cy_gpio.c **** *
 187:Generated_Source\PSoC6\pdl\drivers\peripheral\gpio/cy_gpio.c **** * \param outVal
 188:Generated_Source\PSoC6\pdl\drivers\peripheral\gpio/cy_gpio.c **** * Logic state of the output buffer driven to the pin (1 or 0)
 189:Generated_Source\PSoC6\pdl\drivers\peripheral\gpio/cy_gpio.c **** *
 190:Generated_Source\PSoC6\pdl\drivers\peripheral\gpio/cy_gpio.c **** * \param hsiom
 191:Generated_Source\PSoC6\pdl\drivers\peripheral\gpio/cy_gpio.c **** * HSIOM input selection
 192:Generated_Source\PSoC6\pdl\drivers\peripheral\gpio/cy_gpio.c **** *
 193:Generated_Source\PSoC6\pdl\drivers\peripheral\gpio/cy_gpio.c **** * \return
 194:Generated_Source\PSoC6\pdl\drivers\peripheral\gpio/cy_gpio.c **** * void
 195:Generated_Source\PSoC6\pdl\drivers\peripheral\gpio/cy_gpio.c **** *
 196:Generated_Source\PSoC6\pdl\drivers\peripheral\gpio/cy_gpio.c **** * \note 
 197:Generated_Source\PSoC6\pdl\drivers\peripheral\gpio/cy_gpio.c **** * This function modifies port registers in read-modify-write operations. It is
 198:Generated_Source\PSoC6\pdl\drivers\peripheral\gpio/cy_gpio.c **** * not thread safe as the resource is shared among multiple pins on a port.
 199:Generated_Source\PSoC6\pdl\drivers\peripheral\gpio/cy_gpio.c **** *
 200:Generated_Source\PSoC6\pdl\drivers\peripheral\gpio/cy_gpio.c **** * \funcusage
ARM GAS  C:\Users\salaz\AppData\Local\Temp\ccgHiAyq.s 			page 49


 201:Generated_Source\PSoC6\pdl\drivers\peripheral\gpio/cy_gpio.c **** * \snippet gpio/gpio_v1_10_sut_01.cydsn/main_cm4.c snippet_Cy_GPIO_Pin_FastInit
 202:Generated_Source\PSoC6\pdl\drivers\peripheral\gpio/cy_gpio.c **** *
 203:Generated_Source\PSoC6\pdl\drivers\peripheral\gpio/cy_gpio.c **** *******************************************************************************/
 204:Generated_Source\PSoC6\pdl\drivers\peripheral\gpio/cy_gpio.c **** void Cy_GPIO_Pin_FastInit(GPIO_PRT_Type* base, uint32_t pinNum, uint32_t driveMode,
 205:Generated_Source\PSoC6\pdl\drivers\peripheral\gpio/cy_gpio.c ****                                         uint32_t outVal, en_hsiom_sel_t hsiom)
 206:Generated_Source\PSoC6\pdl\drivers\peripheral\gpio/cy_gpio.c **** {
 760              		.loc 1 206 0
 761              		.cfi_startproc
 762              		@ args = 4, pretend = 0, frame = 0
 763              		@ frame_needed = 0, uses_anonymous_args = 0
 764              	.LVL95:
 765 0000 F0B5     		push	{r4, r5, r6, r7, lr}
 766              		.cfi_def_cfa_offset 20
 767              		.cfi_offset 4, -20
 768              		.cfi_offset 5, -16
 769              		.cfi_offset 6, -12
 770              		.cfi_offset 7, -8
 771              		.cfi_offset 14, -4
 772 0002 4746     		mov	r7, r8
 773 0004 80B4     		push	{r7}
 774              		.cfi_def_cfa_offset 24
 775              		.cfi_offset 8, -24
 776 0006 0400     		movs	r4, r0
 777 0008 0D00     		movs	r5, r1
 778 000a 1700     		movs	r7, r2
 779 000c 9846     		mov	r8, r3
 780 000e 06AB     		add	r3, sp, #24
 781              	.LVL96:
 782 0010 1E78     		ldrb	r6, [r3]
 207:Generated_Source\PSoC6\pdl\drivers\peripheral\gpio/cy_gpio.c ****     uint32_t tempReg;
 208:Generated_Source\PSoC6\pdl\drivers\peripheral\gpio/cy_gpio.c **** 
 209:Generated_Source\PSoC6\pdl\drivers\peripheral\gpio/cy_gpio.c ****     CY_ASSERT_L2(CY_GPIO_IS_PIN_VALID(pinNum));
 783              		.loc 1 209 0
 784 0012 0729     		cmp	r1, #7
 785 0014 03D9     		bls	.L50
 786              		.loc 1 209 0 is_stmt 0 discriminator 1
 787 0016 D121     		movs	r1, #209
 788              	.LVL97:
 789 0018 2F48     		ldr	r0, .L58
 790              	.LVL98:
 791 001a FFF7FEFF 		bl	Cy_SysLib_AssertFailed
 792              	.LVL99:
 793              	.L50:
 210:Generated_Source\PSoC6\pdl\drivers\peripheral\gpio/cy_gpio.c ****     CY_ASSERT_L2(CY_GPIO_IS_DM_VALID(driveMode));
 794              		.loc 1 210 0 is_stmt 1
 795 001e 0F23     		movs	r3, #15
 796 0020 3A00     		movs	r2, r7
