ARM GAS  C:\Users\salaz\AppData\Local\Temp\ccmUlyJK.s 			page 1


   1              		.syntax unified
   2              		.cpu cortex-m0plus
   3              		.fpu softvfp
   4              		.eabi_attribute 20, 1
   5              		.eabi_attribute 21, 1
   6              		.eabi_attribute 23, 3
   7              		.eabi_attribute 24, 1
   8              		.eabi_attribute 25, 1
   9              		.eabi_attribute 26, 1
  10              		.eabi_attribute 30, 1
  11              		.eabi_attribute 34, 0
  12              		.eabi_attribute 18, 4
  13              		.thumb
  14              		.syntax unified
  15              		.file	"KinOS.c"
  16              		.text
  17              	.Ltext0:
  18              		.cfi_sections	.debug_frame
  19              		.section	.text.KinOS_BatteryVoltage,"ax",%progbits
  20              		.align	2
  21              		.global	KinOS_BatteryVoltage
  22              		.code	16
  23              		.thumb_func
  24              		.type	KinOS_BatteryVoltage, %function
  25              	KinOS_BatteryVoltage:
  26              	.LFB793:
  27              		.file 1 "KinOS.c"
   1:KinOS.c       **** 
   2:KinOS.c       **** #include <KinOS.h>
   3:KinOS.c       **** 
   4:KinOS.c       **** #include <SystemCore.h>
   5:KinOS.c       **** #include <BusManager.h>
   6:KinOS.c       **** #include <Transmission.h>
   7:KinOS.c       **** #include <UserInterface.h>
   8:KinOS.c       **** 
   9:KinOS.c       **** #include <AppControl.h>
  10:KinOS.c       **** #include <AppProcess.h>
  11:KinOS.c       **** 
  12:KinOS.c       **** #include "debug.h"
  13:KinOS.c       **** 
  14:KinOS.c       **** //-------------------------------------------------------------//
  15:KinOS.c       **** 
  16:KinOS.c       **** bool app_timeout_a, app_timeout_b, app_timeout_c;
  17:KinOS.c       **** 
  18:KinOS.c       **** extern epoch  date_time;        // The date and time
  19:KinOS.c       **** extern uint16 battery_voltage;  // Battery voltage in mV
  20:KinOS.c       **** extern  bool  is_advertising;   // BLE advertising
  21:KinOS.c       **** extern  bool  is_connected;     // Client connected
  22:KinOS.c       **** extern  bool  is_enabled;       // Notifications on
  23:KinOS.c       **** 
  24:KinOS.c       **** extern  int8  press_detected;   // Which button pressed
  25:KinOS.c       **** extern  bool  tap2x_detected;   // Double tap detected
  26:KinOS.c       **** extern  bool  hover_detected;   // CapSense hover detected
  27:KinOS.c       **** extern  bool  shake_detected;   // Shake detected
  28:KinOS.c       **** 
  29:KinOS.c       **** //-------------------------------------------------------------//
  30:KinOS.c       **** //--------------------SYSTEM-CORE-FUNCTIONS--------------------//
ARM GAS  C:\Users\salaz\AppData\Local\Temp\ccmUlyJK.s 			page 2


  31:KinOS.c       **** //-------------------------------------------------------------//
  32:KinOS.c       **** 
  33:KinOS.c       **** void KinOS_Boot()
  34:KinOS.c       **** {
  35:KinOS.c       ****     UART_DEBUG_START();
  36:KinOS.c       ****     DEBUG_PRINTF("\r\n");
  37:KinOS.c       ****     DEBUG_WAIT_UART_TX_COMPLETE();
  38:KinOS.c       ****     DEBUG_PRINTF("KinOS_Boot 1 \r\n");
  39:KinOS.c       ****     DEBUG_WAIT_UART_TX_COMPLETE();
  40:KinOS.c       ****     
  41:KinOS.c       ****     __enable_irq(); // Start the event driven operating system and enable global interrupts
  42:KinOS.c       ****     
  43:KinOS.c       ****     SystemCore_Init(); // Setup watchdog, ADC, flash manager etc
  44:KinOS.c       ****     BusManager_Init();  // Setup data buses, acc and data buffer
  45:KinOS.c       ****     Transmission_Init(); // Setup bluetooth and send buffer
  46:KinOS.c       ****     UserInterface_Init(); // Setup light, chime, motor feedback
  47:KinOS.c       ****     
  48:KinOS.c       ****     KinOS_Advertise(60,50);
  49:KinOS.c       ****     
  50:KinOS.c       ****     //KinOS_ConfigureLight(GREEN,ZIGZAG,25,100);
  51:KinOS.c       ****     
  52:KinOS.c       ****     CyDelay(1000); // Wait for subsystems to finish initialization
  53:KinOS.c       ****     
  54:KinOS.c       ****     Cy_SysInt_Init(&AppControl_IRQ_cfg, AppControlHandler); // State machine IRQ
  55:KinOS.c       ****     NVIC_ClearPendingIRQ(AppControl_IRQ_cfg.intrSrc);
  56:KinOS.c       ****     NVIC_EnableIRQ(AppControl_IRQ_cfg.intrSrc);
  57:KinOS.c       ****     NVIC_SetPendingIRQ(AppControl_IRQ_cfg.intrSrc); // Trigger AppControl state machine
  58:KinOS.c       ****     
  59:KinOS.c       ****     AppProcess_Start(); // Start the application main process loop
  60:KinOS.c       **** }
  61:KinOS.c       **** uint16 KinOS_BatteryVoltage()
  62:KinOS.c       **** {
  28              		.loc 1 62 0
  29              		.cfi_startproc
  30              		@ args = 0, pretend = 0, frame = 0
  31              		@ frame_needed = 0, uses_anonymous_args = 0
  32              		@ link register save eliminated.
  63:KinOS.c       ****     return battery_voltage; // Updated in SystemCore.c
  33              		.loc 1 63 0
  34 0000 014B     		ldr	r3, .L2
  35 0002 1888     		ldrh	r0, [r3]
  64:KinOS.c       **** }
  36              		.loc 1 64 0
  37              		@ sp needed
  38 0004 7047     		bx	lr
  39              	.L3:
  40 0006 C046     		.align	2
  41              	.L2:
  42 0008 00000000 		.word	battery_voltage
  43              		.cfi_endproc
  44              	.LFE793:
  45              		.size	KinOS_BatteryVoltage, .-KinOS_BatteryVoltage
  46              		.section	.text.KinOS_SetDateAndTime,"ax",%progbits
  47              		.align	2
  48              		.global	KinOS_SetDateAndTime
  49              		.code	16
  50              		.thumb_func
ARM GAS  C:\Users\salaz\AppData\Local\Temp\ccmUlyJK.s 			page 3


  51              		.type	KinOS_SetDateAndTime, %function
  52              	KinOS_SetDateAndTime:
  53              	.LFB794:
  65:KinOS.c       **** void KinOS_SetDateAndTime(uint8 year, uint8 month, uint8 day,
  66:KinOS.c       ****                           uint8 hour, uint8 minute, uint8 second)
  67:KinOS.c       **** {
  54              		.loc 1 67 0
  55              		.cfi_startproc
  56              		@ args = 8, pretend = 0, frame = 0
  57              		@ frame_needed = 0, uses_anonymous_args = 0
  58              	.LVL0:
  59 0000 30B5     		push	{r4, r5, lr}
  60              		.cfi_def_cfa_offset 12
  61              		.cfi_offset 4, -12
  62              		.cfi_offset 5, -8
  63              		.cfi_offset 14, -4
  64 0002 83B0     		sub	sp, sp, #12
  65              		.cfi_def_cfa_offset 24
  66 0004 06AC     		add	r4, sp, #24
  67              	.LVL1:
  68 0006 2478     		ldrb	r4, [r4]
  69              	.LVL2:
  70 0008 07AD     		add	r5, sp, #28
  71              	.LVL3:
  72 000a 2D78     		ldrb	r5, [r5]
  73              	.LVL4:
  68:KinOS.c       ****     SystemCore_SetDateAndTime(year,month,day,hour,minute,second);
  74              		.loc 1 68 0
  75 000c 0195     		str	r5, [sp, #4]
  76 000e 0094     		str	r4, [sp]
  77 0010 FFF7FEFF 		bl	SystemCore_SetDateAndTime
  78              	.LVL5:
  69:KinOS.c       **** }
  79              		.loc 1 69 0
  80 0014 03B0     		add	sp, sp, #12
  81              		@ sp needed
  82 0016 30BD     		pop	{r4, r5, pc}
  83              		.cfi_endproc
  84              	.LFE794:
  85              		.size	KinOS_SetDateAndTime, .-KinOS_SetDateAndTime
  86              		.section	.text.KinOS_GetDateAndTime,"ax",%progbits
  87              		.align	2
  88              		.global	KinOS_GetDateAndTime
  89              		.code	16
  90              		.thumb_func
  91              		.type	KinOS_GetDateAndTime, %function
  92              	KinOS_GetDateAndTime:
  93              	.LFB795:
  70:KinOS.c       **** epoch KinOS_GetDateAndTime()
  71:KinOS.c       **** {
  94              		.loc 1 71 0
  95              		.cfi_startproc
  96              		@ args = 0, pretend = 0, frame = 0
  97              		@ frame_needed = 0, uses_anonymous_args = 0
  98              	.LVL6:
  99 0000 10B5     		push	{r4, lr}
 100              		.cfi_def_cfa_offset 8
ARM GAS  C:\Users\salaz\AppData\Local\Temp\ccmUlyJK.s 			page 4


 101              		.cfi_offset 4, -8
 102              		.cfi_offset 14, -4
 103 0002 0400     		movs	r4, r0
  72:KinOS.c       ****     return System_Core_GetDateAndTime();
 104              		.loc 1 72 0
 105 0004 FFF7FEFF 		bl	System_Core_GetDateAndTime
 106              	.LVL7:
  73:KinOS.c       ****     
  74:KinOS.c       **** }
 107              		.loc 1 74 0
 108 0008 2000     		movs	r0, r4
 109              		@ sp needed
 110              	.LVL8:
 111 000a 10BD     		pop	{r4, pc}
 112              		.cfi_endproc
 113              	.LFE795:
 114              		.size	KinOS_GetDateAndTime, .-KinOS_GetDateAndTime
 115              		.section	.text.KinOS_SetupTimerA,"ax",%progbits
 116              		.align	2
 117              		.global	KinOS_SetupTimerA
 118              		.code	16
 119              		.thumb_func
 120              		.type	KinOS_SetupTimerA, %function
 121              	KinOS_SetupTimerA:
 122              	.LFB796:
  75:KinOS.c       **** //-------------------------------------------------------------//
  76:KinOS.c       **** 
  77:KinOS.c       **** void KinOS_SetupTimerA(uint32 timeout_ms)
  78:KinOS.c       **** {
 123              		.loc 1 78 0
 124              		.cfi_startproc
 125              		@ args = 0, pretend = 0, frame = 0
 126              		@ frame_needed = 0, uses_anonymous_args = 0
 127              	.LVL9:
 128 0000 10B5     		push	{r4, lr}
 129              		.cfi_def_cfa_offset 8
 130              		.cfi_offset 4, -8
 131              		.cfi_offset 14, -4
  79:KinOS.c       ****     SystemCore_SetApplicationTimerA(timeout_ms);
 132              		.loc 1 79 0
 133 0002 FFF7FEFF 		bl	SystemCore_SetApplicationTimerA
 134              	.LVL10:
  80:KinOS.c       **** }
 135              		.loc 1 80 0
 136              		@ sp needed
 137 0006 10BD     		pop	{r4, pc}
 138              		.cfi_endproc
 139              	.LFE796:
 140              		.size	KinOS_SetupTimerA, .-KinOS_SetupTimerA
 141              		.section	.text.KinOS_SetupTimerB,"ax",%progbits
 142              		.align	2
 143              		.global	KinOS_SetupTimerB
 144              		.code	16
 145              		.thumb_func
 146              		.type	KinOS_SetupTimerB, %function
 147              	KinOS_SetupTimerB:
 148              	.LFB797:
ARM GAS  C:\Users\salaz\AppData\Local\Temp\ccmUlyJK.s 			page 5


  81:KinOS.c       **** void KinOS_SetupTimerB(uint32 timeout_ms)
  82:KinOS.c       **** {
 149              		.loc 1 82 0
 150              		.cfi_startproc
 151              		@ args = 0, pretend = 0, frame = 0
 152              		@ frame_needed = 0, uses_anonymous_args = 0
 153              	.LVL11:
 154 0000 10B5     		push	{r4, lr}
 155              		.cfi_def_cfa_offset 8
 156              		.cfi_offset 4, -8
 157              		.cfi_offset 14, -4
  83:KinOS.c       ****     SystemCore_SetApplicationTimerB(timeout_ms);
 158              		.loc 1 83 0
 159 0002 FFF7FEFF 		bl	SystemCore_SetApplicationTimerB
 160              	.LVL12:
  84:KinOS.c       **** }
 161              		.loc 1 84 0
 162              		@ sp needed
 163 0006 10BD     		pop	{r4, pc}
 164              		.cfi_endproc
 165              	.LFE797:
 166              		.size	KinOS_SetupTimerB, .-KinOS_SetupTimerB
 167              		.section	.text.KinOS_SetupTimerC,"ax",%progbits
 168              		.align	2
 169              		.global	KinOS_SetupTimerC
 170              		.code	16
 171              		.thumb_func
 172              		.type	KinOS_SetupTimerC, %function
 173              	KinOS_SetupTimerC:
 174              	.LFB798:
  85:KinOS.c       **** void KinOS_SetupTimerC(uint32 timeout_ms)
  86:KinOS.c       **** {
 175              		.loc 1 86 0
 176              		.cfi_startproc
 177              		@ args = 0, pretend = 0, frame = 0
 178              		@ frame_needed = 0, uses_anonymous_args = 0
 179              	.LVL13:
 180 0000 10B5     		push	{r4, lr}
 181              		.cfi_def_cfa_offset 8
 182              		.cfi_offset 4, -8
 183              		.cfi_offset 14, -4
  87:KinOS.c       ****     SystemCore_SetApplicationTimerC(timeout_ms);
 184              		.loc 1 87 0
 185 0002 FFF7FEFF 		bl	SystemCore_SetApplicationTimerC
 186              	.LVL14:
  88:KinOS.c       **** }
 187              		.loc 1 88 0
 188              		@ sp needed
 189 0006 10BD     		pop	{r4, pc}
 190              		.cfi_endproc
 191              	.LFE798:
 192              		.size	KinOS_SetupTimerC, .-KinOS_SetupTimerC
 193              		.section	.text.KinOS_CheckTimerA,"ax",%progbits
 194              		.align	2
 195              		.global	KinOS_CheckTimerA
 196              		.code	16
 197              		.thumb_func
ARM GAS  C:\Users\salaz\AppData\Local\Temp\ccmUlyJK.s 			page 6


 198              		.type	KinOS_CheckTimerA, %function
 199              	KinOS_CheckTimerA:
 200              	.LFB799:
  89:KinOS.c       **** //-------------------------------------------------------------//
  90:KinOS.c       **** 
  91:KinOS.c       **** bool KinOS_CheckTimerA()
  92:KinOS.c       **** {
 201              		.loc 1 92 0
 202              		.cfi_startproc
 203              		@ args = 0, pretend = 0, frame = 0
 204              		@ frame_needed = 0, uses_anonymous_args = 0
 205              		@ link register save eliminated.
  93:KinOS.c       ****     bool timeout = app_timeout_a;
 206              		.loc 1 93 0
 207 0000 024B     		ldr	r3, .L10
 208 0002 1878     		ldrb	r0, [r3]
 209              	.LVL15:
  94:KinOS.c       ****     app_timeout_a = false;  // Clear on read
 210              		.loc 1 94 0
 211 0004 0022     		movs	r2, #0
 212 0006 1A70     		strb	r2, [r3]
  95:KinOS.c       ****     return timeout;  // Updated in SystemCore.c
  96:KinOS.c       **** }
 213              		.loc 1 96 0
 214              		@ sp needed
 215 0008 7047     		bx	lr
 216              	.L11:
 217 000a C046     		.align	2
 218              	.L10:
 219 000c 00000000 		.word	app_timeout_a
 220              		.cfi_endproc
 221              	.LFE799:
 222              		.size	KinOS_CheckTimerA, .-KinOS_CheckTimerA
 223              		.section	.text.KinOS_CheckTimerB,"ax",%progbits
 224              		.align	2
 225              		.global	KinOS_CheckTimerB
 226              		.code	16
 227              		.thumb_func
 228              		.type	KinOS_CheckTimerB, %function
 229              	KinOS_CheckTimerB:
 230              	.LFB800:
  97:KinOS.c       **** bool KinOS_CheckTimerB()
  98:KinOS.c       **** {
 231              		.loc 1 98 0
 232              		.cfi_startproc
 233              		@ args = 0, pretend = 0, frame = 0
 234              		@ frame_needed = 0, uses_anonymous_args = 0
 235              		@ link register save eliminated.
  99:KinOS.c       ****     bool timeout = app_timeout_b;
 236              		.loc 1 99 0
 237 0000 024B     		ldr	r3, .L13
 238 0002 1878     		ldrb	r0, [r3]
 239              	.LVL16:
 100:KinOS.c       ****     app_timeout_b = false;  // Clear on read
 240              		.loc 1 100 0
 241 0004 0022     		movs	r2, #0
 242 0006 1A70     		strb	r2, [r3]
ARM GAS  C:\Users\salaz\AppData\Local\Temp\ccmUlyJK.s 			page 7


 101:KinOS.c       ****     return timeout;  // Updated in SystemCore.c
 102:KinOS.c       **** }
 243              		.loc 1 102 0
 244              		@ sp needed
 245 0008 7047     		bx	lr
 246              	.L14:
 247 000a C046     		.align	2
 248              	.L13:
 249 000c 00000000 		.word	app_timeout_b
 250              		.cfi_endproc
 251              	.LFE800:
 252              		.size	KinOS_CheckTimerB, .-KinOS_CheckTimerB
 253              		.section	.text.KinOS_CheckTimerC,"ax",%progbits
 254              		.align	2
 255              		.global	KinOS_CheckTimerC
 256              		.code	16
 257              		.thumb_func
 258              		.type	KinOS_CheckTimerC, %function
 259              	KinOS_CheckTimerC:
 260              	.LFB801:
 103:KinOS.c       **** bool KinOS_CheckTimerC()
 104:KinOS.c       **** {
 261              		.loc 1 104 0
 262              		.cfi_startproc
 263              		@ args = 0, pretend = 0, frame = 0
 264              		@ frame_needed = 0, uses_anonymous_args = 0
 265              		@ link register save eliminated.
 105:KinOS.c       ****     bool timeout = app_timeout_c;
 266              		.loc 1 105 0
 267 0000 024B     		ldr	r3, .L16
 268 0002 1878     		ldrb	r0, [r3]
 269              	.LVL17:
 106:KinOS.c       ****     app_timeout_c = false;  // Clear on read
 270              		.loc 1 106 0
 271 0004 0022     		movs	r2, #0
 272 0006 1A70     		strb	r2, [r3]
 107:KinOS.c       ****     return timeout;  // Updated in SystemCore.c
 108:KinOS.c       **** }
 273              		.loc 1 108 0
 274              		@ sp needed
 275 0008 7047     		bx	lr
 276              	.L17:
 277 000a C046     		.align	2
 278              	.L16:
 279 000c 00000000 		.word	app_timeout_c
 280              		.cfi_endproc
 281              	.LFE801:
 282              		.size	KinOS_CheckTimerC, .-KinOS_CheckTimerC
 283              		.section	.text.KinOS_ReadSample,"ax",%progbits
 284              		.align	2
 285              		.global	KinOS_ReadSample
 286              		.code	16
 287              		.thumb_func
 288              		.type	KinOS_ReadSample, %function
 289              	KinOS_ReadSample:
 290              	.LFB802:
 109:KinOS.c       **** //-------------------------------------------------------------//
ARM GAS  C:\Users\salaz\AppData\Local\Temp\ccmUlyJK.s 			page 8


 110:KinOS.c       **** //--------------------BUS-MANAGER-FUNCTIONS--------------------//
 111:KinOS.c       **** //-------------------------------------------------------------//
 112:KinOS.c       **** 
 113:KinOS.c       **** bool KinOS_ReadSample(uint8 *data)
 114:KinOS.c       **** {
 291              		.loc 1 114 0
 292              		.cfi_startproc
 293              		@ args = 0, pretend = 0, frame = 0
 294              		@ frame_needed = 0, uses_anonymous_args = 0
 295              	.LVL18:
 296 0000 10B5     		push	{r4, lr}
 297              		.cfi_def_cfa_offset 8
 298              		.cfi_offset 4, -8
 299              		.cfi_offset 14, -4
 300 0002 0400     		movs	r4, r0
 301              	.LVL19:
 115:KinOS.c       ****     static uint8* rsample_ptr;
 116:KinOS.c       ****     
 117:KinOS.c       ****     uint16 slot = 0;
 118:KinOS.c       ****     slot = DataBuffer_QueryNextJob();
 302              		.loc 1 118 0
 303 0004 FFF7FEFF 		bl	DataBuffer_QueryNextJob
 304              	.LVL20:
 119:KinOS.c       ****     switch(slot)
 305              		.loc 1 119 0
 306 0008 0128     		cmp	r0, #1
 307 000a 02D0     		beq	.L20
 308 000c 0228     		cmp	r0, #2
 309 000e 24D0     		beq	.L21
 310 0010 42E0     		b	.L25
 311              	.L20:
 312              	.LBB26:
 120:KinOS.c       ****     {            
 121:KinOS.c       ****         case GYR20SLOT:
 122:KinOS.c       ****         {
 123:KinOS.c       ****             static struct dGyr20Slot rsample_gyr;
 124:KinOS.c       ****             rsample_ptr = (uint8*) &rsample_gyr;
 313              		.loc 1 124 0
 314 0012 2348     		ldr	r0, .L26
 315              	.LVL21:
 316 0014 031D     		adds	r3, r0, #4
 317 0016 0360     		str	r3, [r0]
 318              	.LVL22:
 125:KinOS.c       ****             gyr_sample* gyr_sample_ptr = (gyr_sample*) data;
 126:KinOS.c       ****             if(DataBuffer_OpenReadSlot((uint8**) &rsample_ptr, GYR20SLOT, sizeof(struct dGyr20Slot)
 319              		.loc 1 126 0
 320 0018 0722     		movs	r2, #7
 321 001a 0121     		movs	r1, #1
 322 001c FFF7FEFF 		bl	DataBuffer_OpenReadSlot
 323              	.LVL23:
 324 0020 0028     		cmp	r0, #0
 325 0022 03D0     		beq	.L22
 127:KinOS.c       ****             {                
 128:KinOS.c       ****                 DataBuffer_CloseReadSlot((uint8**)&rsample_ptr,GYR20SLOT);                
 326              		.loc 1 128 0
 327 0024 0121     		movs	r1, #1
 328 0026 1E48     		ldr	r0, .L26
ARM GAS  C:\Users\salaz\AppData\Local\Temp\ccmUlyJK.s 			page 9


 329 0028 FFF7FEFF 		bl	DataBuffer_CloseReadSlot
 330              	.LVL24:
 331              	.L22:
 129:KinOS.c       ****             }
 130:KinOS.c       ****             gyr_sample_ptr->sensor_type = GYR;
 332              		.loc 1 130 0
 333 002c 0623     		movs	r3, #6
 334 002e 2370     		strb	r3, [r4]
 131:KinOS.c       ****             gyr_sample_ptr->x_numerator = ((uint16) rsample_gyr.x_msb << 8) | rsample_gyr.x_lsb;
 335              		.loc 1 131 0
 336 0030 1B4B     		ldr	r3, .L26
 337 0032 5A79     		ldrb	r2, [r3, #5]
 338 0034 1202     		lsls	r2, r2, #8
 339 0036 9979     		ldrb	r1, [r3, #6]
 340 0038 0A43     		orrs	r2, r1
 341 003a 2261     		str	r2, [r4, #16]
 132:KinOS.c       ****             gyr_sample_ptr->y_numerator = ((uint16) rsample_gyr.y_msb << 8) | rsample_gyr.y_lsb;
 342              		.loc 1 132 0
 343 003c DA79     		ldrb	r2, [r3, #7]
 344 003e 1202     		lsls	r2, r2, #8
 345 0040 197A     		ldrb	r1, [r3, #8]
 346 0042 0A43     		orrs	r2, r1
 347 0044 6261     		str	r2, [r4, #20]
 133:KinOS.c       ****             gyr_sample_ptr->z_numerator = ((uint16) rsample_gyr.z_msb << 8) | rsample_gyr.z_lsb; 
 348              		.loc 1 133 0
 349 0046 5A7A     		ldrb	r2, [r3, #9]
 350 0048 1202     		lsls	r2, r2, #8
 351 004a 9B7A     		ldrb	r3, [r3, #10]
 352 004c 1343     		orrs	r3, r2
 353 004e A361     		str	r3, [r4, #24]
 134:KinOS.c       ****             gyr_sample_ptr->denominator = denominators[GYR20SLOT];
 354              		.loc 1 134 0
 355 0050 144B     		ldr	r3, .L26+4
 356 0052 5B68     		ldr	r3, [r3, #4]
 357 0054 E361     		str	r3, [r4, #28]
 358              	.LBE26:
 135:KinOS.c       ****             break;
 136:KinOS.c       ****         }
 137:KinOS.c       ****         case ACC1ESLOT:
 138:KinOS.c       ****         {
 139:KinOS.c       ****             static struct dAcc1ESlot rsample_acc;
 140:KinOS.c       ****             rsample_ptr = (uint8*) &rsample_acc;
 141:KinOS.c       ****             acc_sample* acc_sample_ptr = (acc_sample*) data;
 142:KinOS.c       ****             if(DataBuffer_OpenReadSlot((uint8**) &rsample_ptr, ACC1ESLOT, sizeof(struct dAcc1ESlot)
 143:KinOS.c       ****             {
 144:KinOS.c       ****                 DataBuffer_CloseReadSlot((uint8**)&rsample_ptr,ACC1ESLOT);                
 145:KinOS.c       ****             }             
 146:KinOS.c       ****             acc_sample_ptr->sensor_type = ACC;
 147:KinOS.c       ****             acc_sample_ptr->x_raw = rsample_acc.x_raw;
 148:KinOS.c       ****             acc_sample_ptr->y_raw = rsample_acc.y_raw;
 149:KinOS.c       ****             acc_sample_ptr->z_raw = rsample_acc.z_raw;
 150:KinOS.c       ****             acc_sample_ptr->denominator = denominators[ACC1ESLOT];
 151:KinOS.c       ****             acc_sample_ptr->numerator = numerators[ACC1ESLOT];
 152:KinOS.c       ****             break;
 153:KinOS.c       ****         }
 154:KinOS.c       ****         default:
 155:KinOS.c       ****         {
ARM GAS  C:\Users\salaz\AppData\Local\Temp\ccmUlyJK.s 			page 10


 156:KinOS.c       ****             data[0] = NONE;
 157:KinOS.c       **** //            SystemCore_TryToSleep();
 158:KinOS.c       ****             return false;
 159:KinOS.c       ****         }
 160:KinOS.c       ****     }
 161:KinOS.c       ****     return true;
 359              		.loc 1 161 0
 360 0056 0120     		movs	r0, #1
 361              	.LBB27:
 135:KinOS.c       ****             break;
 362              		.loc 1 135 0
 363 0058 21E0     		b	.L23
 364              	.LVL25:
 365              	.L21:
 366              	.LBE27:
 367              	.LBB28:
 140:KinOS.c       ****             acc_sample* acc_sample_ptr = (acc_sample*) data;
 368              		.loc 1 140 0
 369 005a 1148     		ldr	r0, .L26
 370              	.LVL26:
 371 005c 0300     		movs	r3, r0
 372 005e 0C33     		adds	r3, r3, #12
 373 0060 0360     		str	r3, [r0]
 374              	.LVL27:
 142:KinOS.c       ****             {
 375              		.loc 1 142 0
 376 0062 0822     		movs	r2, #8
 377 0064 0221     		movs	r1, #2
 378 0066 FFF7FEFF 		bl	DataBuffer_OpenReadSlot
 379              	.LVL28:
 380 006a 0028     		cmp	r0, #0
 381 006c 03D0     		beq	.L24
 144:KinOS.c       ****             }             
 382              		.loc 1 144 0
 383 006e 0221     		movs	r1, #2
 384 0070 0B48     		ldr	r0, .L26
 385 0072 FFF7FEFF 		bl	DataBuffer_CloseReadSlot
 386              	.LVL29:
 387              	.L24:
 146:KinOS.c       ****             acc_sample_ptr->x_raw = rsample_acc.x_raw;
 388              		.loc 1 146 0
 389 0076 0123     		movs	r3, #1
 390 0078 2370     		strb	r3, [r4]
 147:KinOS.c       ****             acc_sample_ptr->y_raw = rsample_acc.y_raw;
 391              		.loc 1 147 0
 392 007a 094B     		ldr	r3, .L26
 393 007c DA89     		ldrh	r2, [r3, #14]
 394 007e 2282     		strh	r2, [r4, #16]
 148:KinOS.c       ****             acc_sample_ptr->z_raw = rsample_acc.z_raw;
 395              		.loc 1 148 0
 396 0080 1A8A     		ldrh	r2, [r3, #16]
 397 0082 6282     		strh	r2, [r4, #18]
 149:KinOS.c       ****             acc_sample_ptr->denominator = denominators[ACC1ESLOT];
 398              		.loc 1 149 0
 399 0084 5B8A     		ldrh	r3, [r3, #18]
 400 0086 A382     		strh	r3, [r4, #20]
 150:KinOS.c       ****             acc_sample_ptr->numerator = numerators[ACC1ESLOT];
ARM GAS  C:\Users\salaz\AppData\Local\Temp\ccmUlyJK.s 			page 11


 401              		.loc 1 150 0
 402 0088 064B     		ldr	r3, .L26+4
 403 008a 9B68     		ldr	r3, [r3, #8]
 404 008c A361     		str	r3, [r4, #24]
 151:KinOS.c       ****             break;
 405              		.loc 1 151 0
 406 008e 064B     		ldr	r3, .L26+8
 407 0090 9B68     		ldr	r3, [r3, #8]
 408 0092 E361     		str	r3, [r4, #28]
 409              	.LBE28:
 410              		.loc 1 161 0
 411 0094 0120     		movs	r0, #1
 412              	.LBB29:
 152:KinOS.c       ****         }
 413              		.loc 1 152 0
 414 0096 02E0     		b	.L23
 415              	.LVL30:
 416              	.L25:
 417              	.LBE29:
 156:KinOS.c       **** //            SystemCore_TryToSleep();
 418              		.loc 1 156 0
 419 0098 0023     		movs	r3, #0
 420 009a 2370     		strb	r3, [r4]
 158:KinOS.c       ****         }
 421              		.loc 1 158 0
 422 009c 0020     		movs	r0, #0
 423              	.LVL31:
 424              	.L23:
 162:KinOS.c       **** }
 425              		.loc 1 162 0
 426              		@ sp needed
 427              	.LVL32:
 428 009e 10BD     		pop	{r4, pc}
 429              	.L27:
 430              		.align	2
 431              	.L26:
 432 00a0 00000000 		.word	.LANCHOR0
 433 00a4 00000000 		.word	denominators
 434 00a8 00000000 		.word	numerators
 435              		.cfi_endproc
 436              	.LFE802:
 437              		.size	KinOS_ReadSample, .-KinOS_ReadSample
 438              		.section	.text.KinOS_ConfigureSensor,"ax",%progbits
 439              		.align	2
 440              		.global	KinOS_ConfigureSensor
 441              		.code	16
 442              		.thumb_func
 443              		.type	KinOS_ConfigureSensor, %function
 444              	KinOS_ConfigureSensor:
 445              	.LFB803:
 163:KinOS.c       **** bool KinOS_ConfigureSensor(uint8 sensor_type, uint8 setting_type, int32 setting_value)
 164:KinOS.c       **** {
 446              		.loc 1 164 0
 447              		.cfi_startproc
 448              		@ args = 0, pretend = 0, frame = 0
 449              		@ frame_needed = 0, uses_anonymous_args = 0
 450              	.LVL33:
ARM GAS  C:\Users\salaz\AppData\Local\Temp\ccmUlyJK.s 			page 12


 451 0000 10B5     		push	{r4, lr}
 452              		.cfi_def_cfa_offset 8
 453              		.cfi_offset 4, -8
 454              		.cfi_offset 14, -4
 165:KinOS.c       ****     return BusManager_UpdateSetting(sensor_type,setting_type,setting_value);
 455              		.loc 1 165 0
 456 0002 FFF7FEFF 		bl	BusManager_UpdateSetting
 457              	.LVL34:
 166:KinOS.c       **** }
 458              		.loc 1 166 0
 459              		@ sp needed
 460 0006 10BD     		pop	{r4, pc}
 461              		.cfi_endproc
 462              	.LFE803:
 463              		.size	KinOS_ConfigureSensor, .-KinOS_ConfigureSensor
 464              		.section	.text.KinOS_IsAdvertising,"ax",%progbits
 465              		.align	2
 466              		.global	KinOS_IsAdvertising
 467              		.code	16
 468              		.thumb_func
 469              		.type	KinOS_IsAdvertising, %function
 470              	KinOS_IsAdvertising:
 471              	.LFB804:
 167:KinOS.c       **** //-------------------------------------------------------------//
 168:KinOS.c       **** //--------------------TRANSMISSION-FUNCTIONS-------------------//
 169:KinOS.c       **** //-------------------------------------------------------------//
 170:KinOS.c       **** 
 171:KinOS.c       **** bool KinOS_IsAdvertising()
 172:KinOS.c       **** {
 472              		.loc 1 172 0
 473              		.cfi_startproc
 474              		@ args = 0, pretend = 0, frame = 0
 475              		@ frame_needed = 0, uses_anonymous_args = 0
 476              		@ link register save eliminated.
 173:KinOS.c       ****     return is_advertising;
 477              		.loc 1 173 0
 478 0000 014B     		ldr	r3, .L30
 479 0002 1878     		ldrb	r0, [r3]
 174:KinOS.c       **** }
 480              		.loc 1 174 0
 481              		@ sp needed
 482 0004 7047     		bx	lr
 483              	.L31:
 484 0006 C046     		.align	2
 485              	.L30:
 486 0008 00000000 		.word	is_advertising
 487              		.cfi_endproc
 488              	.LFE804:
 489              		.size	KinOS_IsAdvertising, .-KinOS_IsAdvertising
 490              		.section	.text.KinOS_IsConnected,"ax",%progbits
 491              		.align	2
 492              		.global	KinOS_IsConnected
 493              		.code	16
 494              		.thumb_func
 495              		.type	KinOS_IsConnected, %function
 496              	KinOS_IsConnected:
 497              	.LFB805:
ARM GAS  C:\Users\salaz\AppData\Local\Temp\ccmUlyJK.s 			page 13


 175:KinOS.c       **** bool KinOS_IsConnected()
 176:KinOS.c       **** {
 498              		.loc 1 176 0
 499              		.cfi_startproc
 500              		@ args = 0, pretend = 0, frame = 0
 501              		@ frame_needed = 0, uses_anonymous_args = 0
 502              		@ link register save eliminated.
 177:KinOS.c       ****     return is_connected;
 503              		.loc 1 177 0
 504 0000 014B     		ldr	r3, .L33
 505 0002 1878     		ldrb	r0, [r3]
 178:KinOS.c       **** }
 506              		.loc 1 178 0
 507              		@ sp needed
 508 0004 7047     		bx	lr
 509              	.L34:
 510 0006 C046     		.align	2
 511              	.L33:
 512 0008 00000000 		.word	is_connected
 513              		.cfi_endproc
 514              	.LFE805:
 515              		.size	KinOS_IsConnected, .-KinOS_IsConnected
 516              		.section	.text.KinOS_Advertise,"ax",%progbits
 517              		.align	2
 518              		.global	KinOS_Advertise
 519              		.code	16
 520              		.thumb_func
 521              		.type	KinOS_Advertise, %function
 522              	KinOS_Advertise:
 523              	.LFB806:
 179:KinOS.c       **** //-------------------------------------------------------------//
 180:KinOS.c       **** 
 181:KinOS.c       **** bool KinOS_Advertise(uint16 timeout_s, uint16 interval_ms)
 182:KinOS.c       **** {
 524              		.loc 1 182 0
 525              		.cfi_startproc
 526              		@ args = 0, pretend = 0, frame = 0
 527              		@ frame_needed = 0, uses_anonymous_args = 0
 528              	.LVL35:
 529 0000 10B5     		push	{r4, lr}
 530              		.cfi_def_cfa_offset 8
 531              		.cfi_offset 4, -8
 532              		.cfi_offset 14, -4
 183:KinOS.c       ****     return Transmission_Advertise(timeout_s,interval_ms);
 533              		.loc 1 183 0
 534 0002 FFF7FEFF 		bl	Transmission_Advertise
 535              	.LVL36:
 184:KinOS.c       **** }
 536              		.loc 1 184 0
 537              		@ sp needed
 538 0006 10BD     		pop	{r4, pc}
 539              		.cfi_endproc
 540              	.LFE806:
 541              		.size	KinOS_Advertise, .-KinOS_Advertise
 542              		.section	.text.KinOS_Boot,"ax",%progbits
 543              		.align	2
 544              		.global	KinOS_Boot
ARM GAS  C:\Users\salaz\AppData\Local\Temp\ccmUlyJK.s 			page 14


 545              		.code	16
 546              		.thumb_func
 547              		.type	KinOS_Boot, %function
 548              	KinOS_Boot:
 549              	.LFB792:
  34:KinOS.c       ****     UART_DEBUG_START();
 550              		.loc 1 34 0
 551              		.cfi_startproc
 552              		@ args = 0, pretend = 0, frame = 0
 553              		@ frame_needed = 0, uses_anonymous_args = 0
 554 0000 10B5     		push	{r4, lr}
 555              		.cfi_def_cfa_offset 8
 556              		.cfi_offset 4, -8
 557              		.cfi_offset 14, -4
 558              	.LBB30:
 559              	.LBB31:
 560              		.file 2 "debug.h"
   1:debug.h       **** /*******************************************************************************
   2:debug.h       **** * File Name: debug.h
   3:debug.h       **** *
   4:debug.h       **** * Version: 1.20
   5:debug.h       **** *
   6:debug.h       **** * Description:
   7:debug.h       **** *  Contains the function prototypes and constants available to the code example
   8:debug.h       **** *  for debugging purposes.
   9:debug.h       **** *
  10:debug.h       **** ********************************************************************************
  11:debug.h       **** * Copyright 2017, Cypress Semiconductor Corporation.  All rights reserved.
  12:debug.h       **** * You may use this file only in accordance with the license, terms, conditions,
  13:debug.h       **** * disclaimers, and limitations in the end user license agreement accompanying
  14:debug.h       **** * the software package with which this file was provided.
  15:debug.h       **** *******************************************************************************/
  16:debug.h       **** 
  17:debug.h       **** #ifndef DEBUG_H
  18:debug.h       ****     
  19:debug.h       ****     #define DEBUG_H
  20:debug.h       ****     
  21:debug.h       ****     #include <project.h>
  22:debug.h       ****     #include <stdio.h>
  23:debug.h       ****     
  24:debug.h       ****     #define DISABLED                    0
  25:debug.h       ****     #define ENABLED                     (!DISABLED)
  26:debug.h       ****     
  27:debug.h       ****     /***************************************
  28:debug.h       ****     * Conditional Compilation Parameters
  29:debug.h       ****     ***************************************/
  30:debug.h       ****     #define DEBUG_UART_ENABLED          ENABLED
  31:debug.h       **** 
  32:debug.h       ****     /***************************************
  33:debug.h       ****     *        External Function Prototypes
  34:debug.h       ****     ***************************************/
  35:debug.h       ****     void ShowError(void);
  36:debug.h       **** 
  37:debug.h       ****     /***************************************
  38:debug.h       ****     *        Macros
  39:debug.h       ****     ***************************************/
  40:debug.h       ****     #if (DEBUG_UART_ENABLED == ENABLED)
ARM GAS  C:\Users\salaz\AppData\Local\Temp\ccmUlyJK.s 			page 15


  41:debug.h       ****         
  42:debug.h       ****         __STATIC_INLINE void UART_DEBUG_START(void)              
  43:debug.h       ****         {
  44:debug.h       ****             (void) Cy_SCB_UART_Init(UART_DEBUG_HW, &UART_DEBUG_config, &UART_DEBUG_context);
 561              		.loc 2 44 0
 562 0002 334C     		ldr	r4, .L42
 563 0004 334A     		ldr	r2, .L42+4
 564 0006 3449     		ldr	r1, .L42+8
 565 0008 2000     		movs	r0, r4
 566 000a FFF7FEFF 		bl	Cy_SCB_UART_Init
 567              	.LVL37:
 568              	.LBB32:
 569              	.LBB33:
 570              		.file 3 "Generated_Source\\PSoC6\\pdl\\drivers/peripheral/scb/cy_scb_uart.h"
   1:Generated_Source\PSoC6\pdl\drivers/peripheral/scb/cy_scb_uart.h **** /***************************************************************************//**
   2:Generated_Source\PSoC6\pdl\drivers/peripheral/scb/cy_scb_uart.h **** * \file cy_scb_uart.h
   3:Generated_Source\PSoC6\pdl\drivers/peripheral/scb/cy_scb_uart.h **** * \version 2.10
   4:Generated_Source\PSoC6\pdl\drivers/peripheral/scb/cy_scb_uart.h **** *
   5:Generated_Source\PSoC6\pdl\drivers/peripheral/scb/cy_scb_uart.h **** * Provides UART API declarations of the SCB driver.
   6:Generated_Source\PSoC6\pdl\drivers/peripheral/scb/cy_scb_uart.h **** *
   7:Generated_Source\PSoC6\pdl\drivers/peripheral/scb/cy_scb_uart.h **** ********************************************************************************
   8:Generated_Source\PSoC6\pdl\drivers/peripheral/scb/cy_scb_uart.h **** * \copyright
   9:Generated_Source\PSoC6\pdl\drivers/peripheral/scb/cy_scb_uart.h **** * Copyright 2016-2018, Cypress Semiconductor Corporation.  All rights reserved.
  10:Generated_Source\PSoC6\pdl\drivers/peripheral/scb/cy_scb_uart.h **** * You may use this file only in accordance with the license, terms, conditions,
  11:Generated_Source\PSoC6\pdl\drivers/peripheral/scb/cy_scb_uart.h **** * disclaimers, and limitations in the end user license agreement accompanying
  12:Generated_Source\PSoC6\pdl\drivers/peripheral/scb/cy_scb_uart.h **** * the software package with which this file was provided.
  13:Generated_Source\PSoC6\pdl\drivers/peripheral/scb/cy_scb_uart.h **** *******************************************************************************/
  14:Generated_Source\PSoC6\pdl\drivers/peripheral/scb/cy_scb_uart.h **** 
  15:Generated_Source\PSoC6\pdl\drivers/peripheral/scb/cy_scb_uart.h **** /**
  16:Generated_Source\PSoC6\pdl\drivers/peripheral/scb/cy_scb_uart.h **** * \addtogroup group_scb_uart
  17:Generated_Source\PSoC6\pdl\drivers/peripheral/scb/cy_scb_uart.h **** * \{
  18:Generated_Source\PSoC6\pdl\drivers/peripheral/scb/cy_scb_uart.h **** * Driver API for UART
  19:Generated_Source\PSoC6\pdl\drivers/peripheral/scb/cy_scb_uart.h **** *
  20:Generated_Source\PSoC6\pdl\drivers/peripheral/scb/cy_scb_uart.h **** * UART - Universal Synchronous/Asynchronous Receiver/Transmitter,
  21:Generated_Source\PSoC6\pdl\drivers/peripheral/scb/cy_scb_uart.h **** * commonly referred to as RS-232.
  22:Generated_Source\PSoC6\pdl\drivers/peripheral/scb/cy_scb_uart.h **** *
  23:Generated_Source\PSoC6\pdl\drivers/peripheral/scb/cy_scb_uart.h **** * Three different UART-like serial interface protocols are supported:
  24:Generated_Source\PSoC6\pdl\drivers/peripheral/scb/cy_scb_uart.h **** * * UART - the standard mode with an optional UART Hardware flow control.
  25:Generated_Source\PSoC6\pdl\drivers/peripheral/scb/cy_scb_uart.h **** * * SmartCard - the transfer is similar to the UART transfer,
  26:Generated_Source\PSoC6\pdl\drivers/peripheral/scb/cy_scb_uart.h **** *   but a NACK (negative acknowledgment) may be sent from the
  27:Generated_Source\PSoC6\pdl\drivers/peripheral/scb/cy_scb_uart.h **** *   receiver to the transmitter. Both transmitter and receiver drive the same
  28:Generated_Source\PSoC6\pdl\drivers/peripheral/scb/cy_scb_uart.h **** *   line, although never at the same time.
  29:Generated_Source\PSoC6\pdl\drivers/peripheral/scb/cy_scb_uart.h **** * * IrDA - the Infra-red Data Association protocol adds a modulation
  30:Generated_Source\PSoC6\pdl\drivers/peripheral/scb/cy_scb_uart.h **** *   scheme to the UART signaling. At the transmitter, bits are modulated.
  31:Generated_Source\PSoC6\pdl\drivers/peripheral/scb/cy_scb_uart.h **** *   At the receiver, bits are demodulated. The modulation scheme uses the
  32:Generated_Source\PSoC6\pdl\drivers/peripheral/scb/cy_scb_uart.h **** *   Return-to-Zero-Inverted (RZI) format. Bit value "0" is signaled by a
  33:Generated_Source\PSoC6\pdl\drivers/peripheral/scb/cy_scb_uart.h **** *   short "1" pulse on the line and bit value "1" is signaled by holding
  34:Generated_Source\PSoC6\pdl\drivers/peripheral/scb/cy_scb_uart.h **** *   the line to "0".
  35:Generated_Source\PSoC6\pdl\drivers/peripheral/scb/cy_scb_uart.h **** *
  36:Generated_Source\PSoC6\pdl\drivers/peripheral/scb/cy_scb_uart.h **** * \section group_scb_uart_configuration Configuration Considerations
  37:Generated_Source\PSoC6\pdl\drivers/peripheral/scb/cy_scb_uart.h **** * The UART driver configuration can be divided to number of sequential
  38:Generated_Source\PSoC6\pdl\drivers/peripheral/scb/cy_scb_uart.h **** * steps listed below:
  39:Generated_Source\PSoC6\pdl\drivers/peripheral/scb/cy_scb_uart.h **** * * \ref group_scb_uart_config
  40:Generated_Source\PSoC6\pdl\drivers/peripheral/scb/cy_scb_uart.h **** * * \ref group_scb_uart_pins
  41:Generated_Source\PSoC6\pdl\drivers/peripheral/scb/cy_scb_uart.h **** * * \ref group_scb_uart_clock
  42:Generated_Source\PSoC6\pdl\drivers/peripheral/scb/cy_scb_uart.h **** * * \ref group_scb_uart_data_rate
  43:Generated_Source\PSoC6\pdl\drivers/peripheral/scb/cy_scb_uart.h **** * * \ref group_scb_uart_intr
ARM GAS  C:\Users\salaz\AppData\Local\Temp\ccmUlyJK.s 			page 16


  44:Generated_Source\PSoC6\pdl\drivers/peripheral/scb/cy_scb_uart.h **** * * \ref group_scb_uart_enable
  45:Generated_Source\PSoC6\pdl\drivers/peripheral/scb/cy_scb_uart.h **** *
  46:Generated_Source\PSoC6\pdl\drivers/peripheral/scb/cy_scb_uart.h **** * \note
  47:Generated_Source\PSoC6\pdl\drivers/peripheral/scb/cy_scb_uart.h **** * UART driver is built on top of the SCB hardware block. The SCB5 instance is
  48:Generated_Source\PSoC6\pdl\drivers/peripheral/scb/cy_scb_uart.h **** * used as an example for all code snippets. Modify the code to match your
  49:Generated_Source\PSoC6\pdl\drivers/peripheral/scb/cy_scb_uart.h **** * design.
  50:Generated_Source\PSoC6\pdl\drivers/peripheral/scb/cy_scb_uart.h **** *
  51:Generated_Source\PSoC6\pdl\drivers/peripheral/scb/cy_scb_uart.h **** * \subsection group_scb_uart_config Configure UART
  52:Generated_Source\PSoC6\pdl\drivers/peripheral/scb/cy_scb_uart.h **** * To set up the UART slave driver, provide the configuration parameters in the
  53:Generated_Source\PSoC6\pdl\drivers/peripheral/scb/cy_scb_uart.h **** * \ref cy_stc_scb_uart_config_t structure. For example: provide uartMode,
  54:Generated_Source\PSoC6\pdl\drivers/peripheral/scb/cy_scb_uart.h **** * oversample, dataWidth, enableMsbFirst, parity, and stopBits. The other
  55:Generated_Source\PSoC6\pdl\drivers/peripheral/scb/cy_scb_uart.h **** * parameters are optional for operation. To initialize the driver,
  56:Generated_Source\PSoC6\pdl\drivers/peripheral/scb/cy_scb_uart.h **** * call \ref Cy_SCB_UART_Init function providing a pointer to the filled
  57:Generated_Source\PSoC6\pdl\drivers/peripheral/scb/cy_scb_uart.h **** * \ref cy_stc_scb_uart_config_t structure and allocated \ref cy_stc_scb_uart_context_t.
  58:Generated_Source\PSoC6\pdl\drivers/peripheral/scb/cy_scb_uart.h **** *
  59:Generated_Source\PSoC6\pdl\drivers/peripheral/scb/cy_scb_uart.h **** * \snippet SCB_CompDatasheet_sut_01_revA.cydsn\uart_snippets.c UART_CFG
  60:Generated_Source\PSoC6\pdl\drivers/peripheral/scb/cy_scb_uart.h **** *
  61:Generated_Source\PSoC6\pdl\drivers/peripheral/scb/cy_scb_uart.h **** * \subsection group_scb_uart_pins Assign and Configure Pins
  62:Generated_Source\PSoC6\pdl\drivers/peripheral/scb/cy_scb_uart.h **** * Only dedicated SCB pins can be used for UART operation. The HSIOM
  63:Generated_Source\PSoC6\pdl\drivers/peripheral/scb/cy_scb_uart.h **** * register must be configured to connect the block to the pins. Also the UART output
  64:Generated_Source\PSoC6\pdl\drivers/peripheral/scb/cy_scb_uart.h **** * pins must be configured in Strong Drive mode and UART input pins in
  65:Generated_Source\PSoC6\pdl\drivers/peripheral/scb/cy_scb_uart.h **** * Digital High-Z:
  66:Generated_Source\PSoC6\pdl\drivers/peripheral/scb/cy_scb_uart.h **** *
  67:Generated_Source\PSoC6\pdl\drivers/peripheral/scb/cy_scb_uart.h **** * \snippet SCB_CompDatasheet_sut_01_revA.cydsn\uart_snippets.c UART_CFG_PINS
  68:Generated_Source\PSoC6\pdl\drivers/peripheral/scb/cy_scb_uart.h **** *
  69:Generated_Source\PSoC6\pdl\drivers/peripheral/scb/cy_scb_uart.h **** * \note
  70:Generated_Source\PSoC6\pdl\drivers/peripheral/scb/cy_scb_uart.h **** * The SCB stops driving pins when it is disabled or enters low power mode (except
  71:Generated_Source\PSoC6\pdl\drivers/peripheral/scb/cy_scb_uart.h **** * Alternate Active or Sleep). To keep the pins' states, they should be reconfigured or
  72:Generated_Source\PSoC6\pdl\drivers/peripheral/scb/cy_scb_uart.h **** * be frozen.
  73:Generated_Source\PSoC6\pdl\drivers/peripheral/scb/cy_scb_uart.h **** *
  74:Generated_Source\PSoC6\pdl\drivers/peripheral/scb/cy_scb_uart.h **** * \subsection group_scb_uart_clock Assign Clock Divider
  75:Generated_Source\PSoC6\pdl\drivers/peripheral/scb/cy_scb_uart.h **** * The clock source must be connected to the SCB block to oversample input and
  76:Generated_Source\PSoC6\pdl\drivers/peripheral/scb/cy_scb_uart.h **** * output signals. You must use one of the 8-bit or 16-bit dividers <em><b>(the
  77:Generated_Source\PSoC6\pdl\drivers/peripheral/scb/cy_scb_uart.h **** * source clock of this divider must be Clk_Peri)</b></em>. Use the \ref group_sysclk
  78:Generated_Source\PSoC6\pdl\drivers/peripheral/scb/cy_scb_uart.h **** * driver API to do that.
  79:Generated_Source\PSoC6\pdl\drivers/peripheral/scb/cy_scb_uart.h **** *
  80:Generated_Source\PSoC6\pdl\drivers/peripheral/scb/cy_scb_uart.h **** * \snippet SCB_CompDatasheet_sut_01_revA.cydsn\uart_snippets.c UART_CFG_ASSIGN_CLOCK
  81:Generated_Source\PSoC6\pdl\drivers/peripheral/scb/cy_scb_uart.h **** *
  82:Generated_Source\PSoC6\pdl\drivers/peripheral/scb/cy_scb_uart.h **** * \subsection group_scb_uart_data_rate Configure Baud Rate
  83:Generated_Source\PSoC6\pdl\drivers/peripheral/scb/cy_scb_uart.h **** * To get the UART to operate with the desired baud rate, the source clock frequency
  84:Generated_Source\PSoC6\pdl\drivers/peripheral/scb/cy_scb_uart.h **** * and the oversample must be configured. Use the \ref group_sysclk driver API
  85:Generated_Source\PSoC6\pdl\drivers/peripheral/scb/cy_scb_uart.h **** * to configure source clock frequency. Set the <em><b>oversample parameter
  86:Generated_Source\PSoC6\pdl\drivers/peripheral/scb/cy_scb_uart.h **** * in configuration structure</b></em> to define the number of the SCB clocks
  87:Generated_Source\PSoC6\pdl\drivers/peripheral/scb/cy_scb_uart.h **** * within one UART bit-time.
  88:Generated_Source\PSoC6\pdl\drivers/peripheral/scb/cy_scb_uart.h **** *
  89:Generated_Source\PSoC6\pdl\drivers/peripheral/scb/cy_scb_uart.h **** * \snippet SCB_CompDatasheet_sut_01_revA.cydsn\uart_snippets.c UART_CFG_DATA_RATE
  90:Generated_Source\PSoC6\pdl\drivers/peripheral/scb/cy_scb_uart.h **** *
  91:Generated_Source\PSoC6\pdl\drivers/peripheral/scb/cy_scb_uart.h **** * Refer to the technical reference manual (TRM) section UART sub-section
  92:Generated_Source\PSoC6\pdl\drivers/peripheral/scb/cy_scb_uart.h **** * Clocking and Oversampling to get information about how to configure the UART to run with
  93:Generated_Source\PSoC6\pdl\drivers/peripheral/scb/cy_scb_uart.h **** * desired baud rate.
  94:Generated_Source\PSoC6\pdl\drivers/peripheral/scb/cy_scb_uart.h **** *
  95:Generated_Source\PSoC6\pdl\drivers/peripheral/scb/cy_scb_uart.h **** * \subsection group_scb_uart_intr Configure Interrupt
  96:Generated_Source\PSoC6\pdl\drivers/peripheral/scb/cy_scb_uart.h **** * The interrupt is optional for the UART operation. To configure interrupt
  97:Generated_Source\PSoC6\pdl\drivers/peripheral/scb/cy_scb_uart.h **** * the \ref Cy_SCB_UART_Interrupt function must be called in the interrupt
  98:Generated_Source\PSoC6\pdl\drivers/peripheral/scb/cy_scb_uart.h **** * handler for the selected SCB instance. Also, this interrupt must be enabled
  99:Generated_Source\PSoC6\pdl\drivers/peripheral/scb/cy_scb_uart.h **** * in the NVIC.
 100:Generated_Source\PSoC6\pdl\drivers/peripheral/scb/cy_scb_uart.h **** *
ARM GAS  C:\Users\salaz\AppData\Local\Temp\ccmUlyJK.s 			page 17


 101:Generated_Source\PSoC6\pdl\drivers/peripheral/scb/cy_scb_uart.h **** * \snippet SCB_CompDatasheet_sut_01_revA.cydsn\uart_snippets.c UART_INTR_A
 102:Generated_Source\PSoC6\pdl\drivers/peripheral/scb/cy_scb_uart.h **** * \snippet SCB_CompDatasheet_sut_01_revA.cydsn\uart_snippets.c UART_INTR_B
 103:Generated_Source\PSoC6\pdl\drivers/peripheral/scb/cy_scb_uart.h **** *
 104:Generated_Source\PSoC6\pdl\drivers/peripheral/scb/cy_scb_uart.h **** * \subsection group_scb_uart_enable Enable UART
 105:Generated_Source\PSoC6\pdl\drivers/peripheral/scb/cy_scb_uart.h **** * Finally, enable the UART operation calling \ref Cy_SCB_UART_Enable.
 106:Generated_Source\PSoC6\pdl\drivers/peripheral/scb/cy_scb_uart.h **** *
 107:Generated_Source\PSoC6\pdl\drivers/peripheral/scb/cy_scb_uart.h **** * \snippet SCB_CompDatasheet_sut_01_revA.cydsn\uart_snippets.c UART_ENABLE
 108:Generated_Source\PSoC6\pdl\drivers/peripheral/scb/cy_scb_uart.h **** 
 109:Generated_Source\PSoC6\pdl\drivers/peripheral/scb/cy_scb_uart.h **** * \section group_scb_uart_use_cases Common Use Cases
 110:Generated_Source\PSoC6\pdl\drivers/peripheral/scb/cy_scb_uart.h **** * The UART API is divided into two categories: \ref group_scb_spi_low_level_functions
 111:Generated_Source\PSoC6\pdl\drivers/peripheral/scb/cy_scb_uart.h **** * and \ref group_scb_spi_high_level_functions. \n
 112:Generated_Source\PSoC6\pdl\drivers/peripheral/scb/cy_scb_uart.h **** * <em>Do not mix <b>High-Level</b> and <b>Low-Level</b> API because a Low-Level
 113:Generated_Source\PSoC6\pdl\drivers/peripheral/scb/cy_scb_uart.h **** * API can adversely affect the operation of a High-Level API.</em>
 114:Generated_Source\PSoC6\pdl\drivers/peripheral/scb/cy_scb_uart.h **** *
 115:Generated_Source\PSoC6\pdl\drivers/peripheral/scb/cy_scb_uart.h **** * \subsection group_scb_uart_ll Low-Level API
 116:Generated_Source\PSoC6\pdl\drivers/peripheral/scb/cy_scb_uart.h **** * The \ref group_scb_uart_low_level_functions API allows
 117:Generated_Source\PSoC6\pdl\drivers/peripheral/scb/cy_scb_uart.h **** * interacting directly with the hardware and do not use interrupt.
 118:Generated_Source\PSoC6\pdl\drivers/peripheral/scb/cy_scb_uart.h **** * These functions do not require context for operation, thus NULL can be
 119:Generated_Source\PSoC6\pdl\drivers/peripheral/scb/cy_scb_uart.h **** * passed in \ref Cy_SCB_UART_Init and \ref Cy_SCB_UART_Disable instead of
 120:Generated_Source\PSoC6\pdl\drivers/peripheral/scb/cy_scb_uart.h **** * a pointer to the context structure.
 121:Generated_Source\PSoC6\pdl\drivers/peripheral/scb/cy_scb_uart.h **** *
 122:Generated_Source\PSoC6\pdl\drivers/peripheral/scb/cy_scb_uart.h **** * * To write data into the TX FIFO, use one of the provided functions:
 123:Generated_Source\PSoC6\pdl\drivers/peripheral/scb/cy_scb_uart.h **** *   \ref Cy_SCB_UART_Put, \ref Cy_SCB_UART_PutArray,
 124:Generated_Source\PSoC6\pdl\drivers/peripheral/scb/cy_scb_uart.h **** *   \ref Cy_SCB_UART_PutArrayBlocking or \ref Cy_SCB_UART_PutString.
 125:Generated_Source\PSoC6\pdl\drivers/peripheral/scb/cy_scb_uart.h **** *   Note that putting data into the TX FIFO starts data transfer.
 126:Generated_Source\PSoC6\pdl\drivers/peripheral/scb/cy_scb_uart.h **** *
 127:Generated_Source\PSoC6\pdl\drivers/peripheral/scb/cy_scb_uart.h **** * * To read data from the RX FIFO, use one of the provided functions:
 128:Generated_Source\PSoC6\pdl\drivers/peripheral/scb/cy_scb_uart.h **** *   \ref Cy_SCB_UART_Get, \ref Cy_SCB_UART_GetArray or
 129:Generated_Source\PSoC6\pdl\drivers/peripheral/scb/cy_scb_uart.h **** *   \ref Cy_SCB_UART_GetArrayBlocking.
 130:Generated_Source\PSoC6\pdl\drivers/peripheral/scb/cy_scb_uart.h **** *
 131:Generated_Source\PSoC6\pdl\drivers/peripheral/scb/cy_scb_uart.h **** * * The statuses can be polled using: \ref Cy_SCB_UART_GetRxFifoStatus and
 132:Generated_Source\PSoC6\pdl\drivers/peripheral/scb/cy_scb_uart.h **** *   \ref Cy_SCB_UART_GetTxFifoStatus.
 133:Generated_Source\PSoC6\pdl\drivers/peripheral/scb/cy_scb_uart.h **** *   <em>The statuses are <b>W1C (Write 1 to Clear)</b> and after a status
 134:Generated_Source\PSoC6\pdl\drivers/peripheral/scb/cy_scb_uart.h **** *   is set, it must be cleared.</em> Note that there are statuses evaluated as level.
 135:Generated_Source\PSoC6\pdl\drivers/peripheral/scb/cy_scb_uart.h **** *   These statuses remain set until an event is true. Therefore, after the clear
 136:Generated_Source\PSoC6\pdl\drivers/peripheral/scb/cy_scb_uart.h **** *   operation, the status is cleared but then it is restored (if event is still
 137:Generated_Source\PSoC6\pdl\drivers/peripheral/scb/cy_scb_uart.h **** *   true).
 138:Generated_Source\PSoC6\pdl\drivers/peripheral/scb/cy_scb_uart.h **** *   For example: the TX FIFO empty interrupt source can be cleared when the
 139:Generated_Source\PSoC6\pdl\drivers/peripheral/scb/cy_scb_uart.h **** *   TX FIFO is not empty. Put at least two data elements (one goes to the
 140:Generated_Source\PSoC6\pdl\drivers/peripheral/scb/cy_scb_uart.h **** *   shifter and next to FIFO) before clearing this status. \n
 141:Generated_Source\PSoC6\pdl\drivers/peripheral/scb/cy_scb_uart.h **** *   Also, following functions can be used for polling as well
 142:Generated_Source\PSoC6\pdl\drivers/peripheral/scb/cy_scb_uart.h **** *   \ref Cy_SCB_UART_IsTxComplete, \ref Cy_SCB_UART_GetNumInRxFifo and
 143:Generated_Source\PSoC6\pdl\drivers/peripheral/scb/cy_scb_uart.h **** *   \ref Cy_SCB_UART_GetNumInTxFifo.
 144:Generated_Source\PSoC6\pdl\drivers/peripheral/scb/cy_scb_uart.h **** *
 145:Generated_Source\PSoC6\pdl\drivers/peripheral/scb/cy_scb_uart.h **** * \snippet SCB_CompDatasheet_sut_01_revA.cydsn\uart_snippets.c UART_TRANSMIT_DATA_LL
 146:Generated_Source\PSoC6\pdl\drivers/peripheral/scb/cy_scb_uart.h **** *
 147:Generated_Source\PSoC6\pdl\drivers/peripheral/scb/cy_scb_uart.h **** * \subsection group_scb_uart_hl High-Level API
 148:Generated_Source\PSoC6\pdl\drivers/peripheral/scb/cy_scb_uart.h **** 
 149:Generated_Source\PSoC6\pdl\drivers/peripheral/scb/cy_scb_uart.h **** * The \ref group_scb_uart_high_level_functions API uses an interrupt to
 150:Generated_Source\PSoC6\pdl\drivers/peripheral/scb/cy_scb_uart.h **** * execute transfer. Call \ref Cy_SCB_UART_Transmit to start transmission.
 151:Generated_Source\PSoC6\pdl\drivers/peripheral/scb/cy_scb_uart.h **** * Call \ref Cy_SCB_UART_Receive to start receive operation. After the
 152:Generated_Source\PSoC6\pdl\drivers/peripheral/scb/cy_scb_uart.h **** * operation is started the \ref Cy_SCB_UART_Interrupt handles the data
 153:Generated_Source\PSoC6\pdl\drivers/peripheral/scb/cy_scb_uart.h **** * transfer until its completion.
 154:Generated_Source\PSoC6\pdl\drivers/peripheral/scb/cy_scb_uart.h **** * Therefore \ref Cy_SCB_UART_Interrupt must be called inside the
 155:Generated_Source\PSoC6\pdl\drivers/peripheral/scb/cy_scb_uart.h **** * interrupt handler to make the High-Level API work. To monitor status
 156:Generated_Source\PSoC6\pdl\drivers/peripheral/scb/cy_scb_uart.h **** * of transmit operation, use \ref Cy_SCB_UART_GetTransmitStatus and
 157:Generated_Source\PSoC6\pdl\drivers/peripheral/scb/cy_scb_uart.h **** * \ref Cy_SCB_UART_GetReceiveStatus to monitor receive status appropriately.
ARM GAS  C:\Users\salaz\AppData\Local\Temp\ccmUlyJK.s 			page 18


 158:Generated_Source\PSoC6\pdl\drivers/peripheral/scb/cy_scb_uart.h **** * Alternatively use \ref Cy_SCB_UART_RegisterCallback to register callback
 159:Generated_Source\PSoC6\pdl\drivers/peripheral/scb/cy_scb_uart.h **** * function to be notified about \ref group_scb_uart_macros_callback_events.
 160:Generated_Source\PSoC6\pdl\drivers/peripheral/scb/cy_scb_uart.h **** *
 161:Generated_Source\PSoC6\pdl\drivers/peripheral/scb/cy_scb_uart.h **** * <b>Receive Operation</b>
 162:Generated_Source\PSoC6\pdl\drivers/peripheral/scb/cy_scb_uart.h **** * \snippet SCB_CompDatasheet_sut_01_revA.cydsn\uart_snippets.c UART_RECEIVE_DATA_HL
 163:Generated_Source\PSoC6\pdl\drivers/peripheral/scb/cy_scb_uart.h **** *
 164:Generated_Source\PSoC6\pdl\drivers/peripheral/scb/cy_scb_uart.h **** * <b>Transmit Operation</b>
 165:Generated_Source\PSoC6\pdl\drivers/peripheral/scb/cy_scb_uart.h **** * \snippet SCB_CompDatasheet_sut_01_revA.cydsn\uart_snippets.c UART_TRANSMIT_DATA_HL
 166:Generated_Source\PSoC6\pdl\drivers/peripheral/scb/cy_scb_uart.h **** *
 167:Generated_Source\PSoC6\pdl\drivers/peripheral/scb/cy_scb_uart.h **** * There is also capability to insert a receive ring buffer that operates between
 168:Generated_Source\PSoC6\pdl\drivers/peripheral/scb/cy_scb_uart.h **** * the RX FIFO and the user buffer. The received data is copied into the ring
 169:Generated_Source\PSoC6\pdl\drivers/peripheral/scb/cy_scb_uart.h **** * buffer from the RX FIFO. This process runs in the background after the ring
 170:Generated_Source\PSoC6\pdl\drivers/peripheral/scb/cy_scb_uart.h **** * buffer operation is started by \ref Cy_SCB_UART_StartRingBuffer.
 171:Generated_Source\PSoC6\pdl\drivers/peripheral/scb/cy_scb_uart.h **** * When \ref Cy_SCB_UART_Receive is called, it first reads data from the ring
 172:Generated_Source\PSoC6\pdl\drivers/peripheral/scb/cy_scb_uart.h **** * buffer and then sets up an interrupt to receive more data if the required
 173:Generated_Source\PSoC6\pdl\drivers/peripheral/scb/cy_scb_uart.h **** * amount has not yet been read.
 174:Generated_Source\PSoC6\pdl\drivers/peripheral/scb/cy_scb_uart.h **** *
 175:Generated_Source\PSoC6\pdl\drivers/peripheral/scb/cy_scb_uart.h **** * \section group_scb_uart_dma_trig DMA Trigger
 176:Generated_Source\PSoC6\pdl\drivers/peripheral/scb/cy_scb_uart.h **** * The SCB provides TX and RX output trigger signals that can be routed to the
 177:Generated_Source\PSoC6\pdl\drivers/peripheral/scb/cy_scb_uart.h **** * DMA controller inputs. These signals are assigned based on the data availability
 178:Generated_Source\PSoC6\pdl\drivers/peripheral/scb/cy_scb_uart.h **** * in the TX and RX FIFOs appropriately.
 179:Generated_Source\PSoC6\pdl\drivers/peripheral/scb/cy_scb_uart.h **** *
 180:Generated_Source\PSoC6\pdl\drivers/peripheral/scb/cy_scb_uart.h **** * * The RX trigger signal remains active until the number of data
 181:Generated_Source\PSoC6\pdl\drivers/peripheral/scb/cy_scb_uart.h **** *   elements in the RX FIFO is greater than the value of RX FIFO level. Use
 182:Generated_Source\PSoC6\pdl\drivers/peripheral/scb/cy_scb_uart.h **** *   function \ref Cy_SCB_SetRxFifoLevel or set configuration structure
 183:Generated_Source\PSoC6\pdl\drivers/peripheral/scb/cy_scb_uart.h **** *   rxFifoTriggerLevel parameter to configure RX FIFO level value. \n
 184:Generated_Source\PSoC6\pdl\drivers/peripheral/scb/cy_scb_uart.h **** *   <em>For example, the RX FIFO has 8 data elements and the RX FIFO level is 0.
 185:Generated_Source\PSoC6\pdl\drivers/peripheral/scb/cy_scb_uart.h **** *   The RX trigger signal remains active until DMA does not read all data from
 186:Generated_Source\PSoC6\pdl\drivers/peripheral/scb/cy_scb_uart.h **** *   the RX FIFO.</em>
 187:Generated_Source\PSoC6\pdl\drivers/peripheral/scb/cy_scb_uart.h **** *
 188:Generated_Source\PSoC6\pdl\drivers/peripheral/scb/cy_scb_uart.h **** * * The TX trigger signal remains active until the number of data elements
 189:Generated_Source\PSoC6\pdl\drivers/peripheral/scb/cy_scb_uart.h **** *   in the TX FIFO is less than the value of TX FIFO level. Use function
 190:Generated_Source\PSoC6\pdl\drivers/peripheral/scb/cy_scb_uart.h **** *   \ref Cy_SCB_SetTxFifoLevel or set configuration structure txFifoTriggerLevel
 191:Generated_Source\PSoC6\pdl\drivers/peripheral/scb/cy_scb_uart.h **** *   parameter to configure TX FIFO level value. \n
 192:Generated_Source\PSoC6\pdl\drivers/peripheral/scb/cy_scb_uart.h **** *   <em>For example, the TX FIFO has 0 data elements (empty) and the TX FIFO level
 193:Generated_Source\PSoC6\pdl\drivers/peripheral/scb/cy_scb_uart.h **** *   is 7. The TX trigger signal remains active until DMA does not load TX FIFO
 194:Generated_Source\PSoC6\pdl\drivers/peripheral/scb/cy_scb_uart.h **** *   with 7 data elements (note that after the first TX load operation, the data 
 195:Generated_Source\PSoC6\pdl\drivers/peripheral/scb/cy_scb_uart.h **** *   element goes to the shift register and TX FIFO remains empty).</em>
 196:Generated_Source\PSoC6\pdl\drivers/peripheral/scb/cy_scb_uart.h **** *
 197:Generated_Source\PSoC6\pdl\drivers/peripheral/scb/cy_scb_uart.h **** * To route SCB TX or RX trigger signals to DMA controller use \ref group_trigmux
 198:Generated_Source\PSoC6\pdl\drivers/peripheral/scb/cy_scb_uart.h **** * driver API.
 199:Generated_Source\PSoC6\pdl\drivers/peripheral/scb/cy_scb_uart.h **** *
 200:Generated_Source\PSoC6\pdl\drivers/peripheral/scb/cy_scb_uart.h **** * \note
 201:Generated_Source\PSoC6\pdl\drivers/peripheral/scb/cy_scb_uart.h **** * To properly handle DMA level request signal activation and de-activation from the SCB
 202:Generated_Source\PSoC6\pdl\drivers/peripheral/scb/cy_scb_uart.h **** * peripheral block the DMA Descriptor typically must be configured to re-trigger
 203:Generated_Source\PSoC6\pdl\drivers/peripheral/scb/cy_scb_uart.h **** * after 16 Clk_Slow cycles.
 204:Generated_Source\PSoC6\pdl\drivers/peripheral/scb/cy_scb_uart.h **** *
 205:Generated_Source\PSoC6\pdl\drivers/peripheral/scb/cy_scb_uart.h **** * \section group_scb_uart_lp Low Power Support
 206:Generated_Source\PSoC6\pdl\drivers/peripheral/scb/cy_scb_uart.h **** * The UART driver provides the callback functions to handle power mode
 207:Generated_Source\PSoC6\pdl\drivers/peripheral/scb/cy_scb_uart.h **** * transition. The callback \ref Cy_SCB_UART_DeepSleepCallback must be called
 208:Generated_Source\PSoC6\pdl\drivers/peripheral/scb/cy_scb_uart.h **** * during execution of \ref Cy_SysPm_DeepSleep; \ref Cy_SCB_UART_HibernateCallback
 209:Generated_Source\PSoC6\pdl\drivers/peripheral/scb/cy_scb_uart.h **** * must be called during execution of \ref Cy_SysPm_Hibernate. To trigger the
 210:Generated_Source\PSoC6\pdl\drivers/peripheral/scb/cy_scb_uart.h **** * callback execution, the callback must be registered before calling the
 211:Generated_Source\PSoC6\pdl\drivers/peripheral/scb/cy_scb_uart.h **** * power mode transition function. Refer to \ref group_syspm driver for more
 212:Generated_Source\PSoC6\pdl\drivers/peripheral/scb/cy_scb_uart.h **** * information about power mode transitions and callback registration.
 213:Generated_Source\PSoC6\pdl\drivers/peripheral/scb/cy_scb_uart.h **** *
 214:Generated_Source\PSoC6\pdl\drivers/peripheral/scb/cy_scb_uart.h **** * The UART is disabled during Deep Sleep and Hibernate and stops driving 
ARM GAS  C:\Users\salaz\AppData\Local\Temp\ccmUlyJK.s 			page 19


 215:Generated_Source\PSoC6\pdl\drivers/peripheral/scb/cy_scb_uart.h **** * the output pins. The state of the UART output pins TX and RTS is High-Z, 
 216:Generated_Source\PSoC6\pdl\drivers/peripheral/scb/cy_scb_uart.h **** * which can cause unexpected behavior of the UART receiver due to possible
 217:Generated_Source\PSoC6\pdl\drivers/peripheral/scb/cy_scb_uart.h **** * glitches on these lines. These pins must be set to the inactive state before 
 218:Generated_Source\PSoC6\pdl\drivers/peripheral/scb/cy_scb_uart.h **** * entering Deep Sleep or Hibernate mode. To do that, configure the UART  
 219:Generated_Source\PSoC6\pdl\drivers/peripheral/scb/cy_scb_uart.h **** * pins output to drive the inactive state and High-Speed Input Output 
 220:Generated_Source\PSoC6\pdl\drivers/peripheral/scb/cy_scb_uart.h **** * Multiplexer (HSIOM) to control output by GPIO (use \ref group_gpio 
 221:Generated_Source\PSoC6\pdl\drivers/peripheral/scb/cy_scb_uart.h **** * driver API). The pins configuration must be restored after exiting Deep Sleep 
 222:Generated_Source\PSoC6\pdl\drivers/peripheral/scb/cy_scb_uart.h **** * mode to return the UART control of the pins (after exiting Hibernate mode, 
 223:Generated_Source\PSoC6\pdl\drivers/peripheral/scb/cy_scb_uart.h **** * the system init code does the same). 
 224:Generated_Source\PSoC6\pdl\drivers/peripheral/scb/cy_scb_uart.h **** * Note that the UART must be enabled to drive the pins during configuration 
 225:Generated_Source\PSoC6\pdl\drivers/peripheral/scb/cy_scb_uart.h **** * change not to cause glitches on the lines. Copy either or both 
 226:Generated_Source\PSoC6\pdl\drivers/peripheral/scb/cy_scb_uart.h **** * \ref Cy_SCB_UART_DeepSleepCallback and \ref Cy_SCB_UART_HibernateCallback as 
 227:Generated_Source\PSoC6\pdl\drivers/peripheral/scb/cy_scb_uart.h **** * appropriate, and make the changes described above inside the function.
 228:Generated_Source\PSoC6\pdl\drivers/peripheral/scb/cy_scb_uart.h **** * Alternately, external pull-up or pull-down resistors can be connected 
 229:Generated_Source\PSoC6\pdl\drivers/peripheral/scb/cy_scb_uart.h **** * to the appropriate UART lines to keep them inactive during Deep-Sleep or 
 230:Generated_Source\PSoC6\pdl\drivers/peripheral/scb/cy_scb_uart.h **** * Hibernate.
 231:Generated_Source\PSoC6\pdl\drivers/peripheral/scb/cy_scb_uart.h **** *
 232:Generated_Source\PSoC6\pdl\drivers/peripheral/scb/cy_scb_uart.h **** * \section group_scb_uart_more_information More Information
 233:Generated_Source\PSoC6\pdl\drivers/peripheral/scb/cy_scb_uart.h **** *
 234:Generated_Source\PSoC6\pdl\drivers/peripheral/scb/cy_scb_uart.h **** * For more information on the SCB peripheral, refer to the technical reference
 235:Generated_Source\PSoC6\pdl\drivers/peripheral/scb/cy_scb_uart.h **** * manual (TRM).
 236:Generated_Source\PSoC6\pdl\drivers/peripheral/scb/cy_scb_uart.h **** *
 237:Generated_Source\PSoC6\pdl\drivers/peripheral/scb/cy_scb_uart.h **** * \section group_scb_uart_MISRA MISRA-C Compliance
 238:Generated_Source\PSoC6\pdl\drivers/peripheral/scb/cy_scb_uart.h **** * <table class="doxtable">
 239:Generated_Source\PSoC6\pdl\drivers/peripheral/scb/cy_scb_uart.h **** *   <tr>
 240:Generated_Source\PSoC6\pdl\drivers/peripheral/scb/cy_scb_uart.h **** *     <th>MISRA Rule</th>
 241:Generated_Source\PSoC6\pdl\drivers/peripheral/scb/cy_scb_uart.h **** *     <th>Rule Class (Required/Advisory)</th>
 242:Generated_Source\PSoC6\pdl\drivers/peripheral/scb/cy_scb_uart.h **** *     <th>Rule Description</th>
 243:Generated_Source\PSoC6\pdl\drivers/peripheral/scb/cy_scb_uart.h **** *     <th>Description of Deviation(s)</th>
 244:Generated_Source\PSoC6\pdl\drivers/peripheral/scb/cy_scb_uart.h **** *   </tr>
 245:Generated_Source\PSoC6\pdl\drivers/peripheral/scb/cy_scb_uart.h **** *   <tr>
 246:Generated_Source\PSoC6\pdl\drivers/peripheral/scb/cy_scb_uart.h **** *     <td>11.4</td>
 247:Generated_Source\PSoC6\pdl\drivers/peripheral/scb/cy_scb_uart.h **** *     <td>A</td>
 248:Generated_Source\PSoC6\pdl\drivers/peripheral/scb/cy_scb_uart.h **** *     <td>A cast should not be performed between a pointer to object type and
 249:Generated_Source\PSoC6\pdl\drivers/peripheral/scb/cy_scb_uart.h **** *         a different pointer to object type.</td>
 250:Generated_Source\PSoC6\pdl\drivers/peripheral/scb/cy_scb_uart.h **** *     <td>
 251:Generated_Source\PSoC6\pdl\drivers/peripheral/scb/cy_scb_uart.h **** *         * The pointer to the buffer memory is void to allow handling different
 252:Generated_Source\PSoC6\pdl\drivers/peripheral/scb/cy_scb_uart.h **** *         different data types: uint8_t (4-8 bits) or uint16_t (9-16 bits).
 253:Generated_Source\PSoC6\pdl\drivers/peripheral/scb/cy_scb_uart.h **** *         The cast operation is safe because the configuration is verified
 254:Generated_Source\PSoC6\pdl\drivers/peripheral/scb/cy_scb_uart.h **** *         before operation is performed.
 255:Generated_Source\PSoC6\pdl\drivers/peripheral/scb/cy_scb_uart.h **** *         * The functions \ref Cy_SCB_UART_DeepSleepCallback and
 256:Generated_Source\PSoC6\pdl\drivers/peripheral/scb/cy_scb_uart.h **** *         \ref Cy_SCB_UART_HibernateCallback are callback of
 257:Generated_Source\PSoC6\pdl\drivers/peripheral/scb/cy_scb_uart.h **** *         \ref cy_en_syspm_status_t type. The cast operation safety in these
 258:Generated_Source\PSoC6\pdl\drivers/peripheral/scb/cy_scb_uart.h **** *         functions becomes the user's responsibility because pointers are
 259:Generated_Source\PSoC6\pdl\drivers/peripheral/scb/cy_scb_uart.h **** *         initialized when callback is registered in SysPm driver.</td>
 260:Generated_Source\PSoC6\pdl\drivers/peripheral/scb/cy_scb_uart.h **** *   </tr>
 261:Generated_Source\PSoC6\pdl\drivers/peripheral/scb/cy_scb_uart.h **** *   <tr>
 262:Generated_Source\PSoC6\pdl\drivers/peripheral/scb/cy_scb_uart.h **** *     <td>14.2</td>
 263:Generated_Source\PSoC6\pdl\drivers/peripheral/scb/cy_scb_uart.h **** *     <td>R</td>
 264:Generated_Source\PSoC6\pdl\drivers/peripheral/scb/cy_scb_uart.h **** *     <td>All non-null statements shall either: a) have at least one side-effect
 265:Generated_Source\PSoC6\pdl\drivers/peripheral/scb/cy_scb_uart.h **** *         however executed, or b) cause control flow to change.</td>
 266:Generated_Source\PSoC6\pdl\drivers/peripheral/scb/cy_scb_uart.h **** *     <td>The unused function parameters are cast to void. This statement
 267:Generated_Source\PSoC6\pdl\drivers/peripheral/scb/cy_scb_uart.h **** *         has no side-effect and is used to suppress a compiler warning.</td>
 268:Generated_Source\PSoC6\pdl\drivers/peripheral/scb/cy_scb_uart.h **** *   </tr>
 269:Generated_Source\PSoC6\pdl\drivers/peripheral/scb/cy_scb_uart.h **** *   <tr>
 270:Generated_Source\PSoC6\pdl\drivers/peripheral/scb/cy_scb_uart.h **** *     <td>14.7</td>
 271:Generated_Source\PSoC6\pdl\drivers/peripheral/scb/cy_scb_uart.h **** *     <td>R</td>
ARM GAS  C:\Users\salaz\AppData\Local\Temp\ccmUlyJK.s 			page 20


 272:Generated_Source\PSoC6\pdl\drivers/peripheral/scb/cy_scb_uart.h **** *     <td>A function shall have a single point of exit at the end of the
 273:Generated_Source\PSoC6\pdl\drivers/peripheral/scb/cy_scb_uart.h **** *         function.</td>
 274:Generated_Source\PSoC6\pdl\drivers/peripheral/scb/cy_scb_uart.h **** *     <td>The functions can return from several points. This is done to improve
 275:Generated_Source\PSoC6\pdl\drivers/peripheral/scb/cy_scb_uart.h **** *         code clarity when returning error status code if input parameters
 276:Generated_Source\PSoC6\pdl\drivers/peripheral/scb/cy_scb_uart.h **** *         validation fails.</td>
 277:Generated_Source\PSoC6\pdl\drivers/peripheral/scb/cy_scb_uart.h **** *   </tr>
 278:Generated_Source\PSoC6\pdl\drivers/peripheral/scb/cy_scb_uart.h **** * </table>
 279:Generated_Source\PSoC6\pdl\drivers/peripheral/scb/cy_scb_uart.h **** *
 280:Generated_Source\PSoC6\pdl\drivers/peripheral/scb/cy_scb_uart.h **** * \section group_scb_uart_changelog Changelog
 281:Generated_Source\PSoC6\pdl\drivers/peripheral/scb/cy_scb_uart.h **** * <table class="doxtable">
 282:Generated_Source\PSoC6\pdl\drivers/peripheral/scb/cy_scb_uart.h **** *   <tr><th>Version</th><th>Changes</th><th>Reason for Change</th></tr>
 283:Generated_Source\PSoC6\pdl\drivers/peripheral/scb/cy_scb_uart.h **** *   <tr>
 284:Generated_Source\PSoC6\pdl\drivers/peripheral/scb/cy_scb_uart.h **** *     <td>2.10</td>
 285:Generated_Source\PSoC6\pdl\drivers/peripheral/scb/cy_scb_uart.h **** *     <td>None.</td>
 286:Generated_Source\PSoC6\pdl\drivers/peripheral/scb/cy_scb_uart.h **** *     <td>SCB I2C driver updated.</td>
 287:Generated_Source\PSoC6\pdl\drivers/peripheral/scb/cy_scb_uart.h **** *   </tr>
 288:Generated_Source\PSoC6\pdl\drivers/peripheral/scb/cy_scb_uart.h **** *   <tr>
 289:Generated_Source\PSoC6\pdl\drivers/peripheral/scb/cy_scb_uart.h **** *     <td rowspan="5">2.0</td>
 290:Generated_Source\PSoC6\pdl\drivers/peripheral/scb/cy_scb_uart.h **** *     <td>Added parameters validation for public API.</td>
 291:Generated_Source\PSoC6\pdl\drivers/peripheral/scb/cy_scb_uart.h **** *     <td></td>
 292:Generated_Source\PSoC6\pdl\drivers/peripheral/scb/cy_scb_uart.h **** *   </tr>
 293:Generated_Source\PSoC6\pdl\drivers/peripheral/scb/cy_scb_uart.h **** *   <tr>
 294:Generated_Source\PSoC6\pdl\drivers/peripheral/scb/cy_scb_uart.h **** *     <td>Replaced variables that have limited range of values with enumerated
 295:Generated_Source\PSoC6\pdl\drivers/peripheral/scb/cy_scb_uart.h **** *         types.</td>
 296:Generated_Source\PSoC6\pdl\drivers/peripheral/scb/cy_scb_uart.h **** *     <td></td>
 297:Generated_Source\PSoC6\pdl\drivers/peripheral/scb/cy_scb_uart.h **** *   </tr>
 298:Generated_Source\PSoC6\pdl\drivers/peripheral/scb/cy_scb_uart.h **** *   <tr>
 299:Generated_Source\PSoC6\pdl\drivers/peripheral/scb/cy_scb_uart.h **** *     <td>Added missing "cy_cb_" to the callback function type names.</td>
 300:Generated_Source\PSoC6\pdl\drivers/peripheral/scb/cy_scb_uart.h **** *     <td></td>
 301:Generated_Source\PSoC6\pdl\drivers/peripheral/scb/cy_scb_uart.h **** *   </tr>
 302:Generated_Source\PSoC6\pdl\drivers/peripheral/scb/cy_scb_uart.h **** *   <tr>
 303:Generated_Source\PSoC6\pdl\drivers/peripheral/scb/cy_scb_uart.h **** *     <td>Added function \ref Cy_SCB_UART_SendBreakBlocking for break condition
 304:Generated_Source\PSoC6\pdl\drivers/peripheral/scb/cy_scb_uart.h **** *         generation.</td>
 305:Generated_Source\PSoC6\pdl\drivers/peripheral/scb/cy_scb_uart.h **** *     <td></td>
 306:Generated_Source\PSoC6\pdl\drivers/peripheral/scb/cy_scb_uart.h **** *   </tr>
 307:Generated_Source\PSoC6\pdl\drivers/peripheral/scb/cy_scb_uart.h **** *   <tr>
 308:Generated_Source\PSoC6\pdl\drivers/peripheral/scb/cy_scb_uart.h **** *     <td>Fixed low power callbacks \ref Cy_SCB_UART_DeepSleepCallback and
 309:Generated_Source\PSoC6\pdl\drivers/peripheral/scb/cy_scb_uart.h **** *         \ref Cy_SCB_UART_HibernateCallback to prevent the device from entering
 310:Generated_Source\PSoC6\pdl\drivers/peripheral/scb/cy_scb_uart.h **** *         low power mode when RX FIFO is not empty.</td>
 311:Generated_Source\PSoC6\pdl\drivers/peripheral/scb/cy_scb_uart.h **** *     <td>The callbacks allowed entering device into low power mode when RX FIFO
 312:Generated_Source\PSoC6\pdl\drivers/peripheral/scb/cy_scb_uart.h **** *         had data.</td>
 313:Generated_Source\PSoC6\pdl\drivers/peripheral/scb/cy_scb_uart.h **** *   </tr>
 314:Generated_Source\PSoC6\pdl\drivers/peripheral/scb/cy_scb_uart.h **** *   <tr>
 315:Generated_Source\PSoC6\pdl\drivers/peripheral/scb/cy_scb_uart.h **** *     <td>1.0</td>
 316:Generated_Source\PSoC6\pdl\drivers/peripheral/scb/cy_scb_uart.h **** *     <td>Initial version.</td>
 317:Generated_Source\PSoC6\pdl\drivers/peripheral/scb/cy_scb_uart.h **** *     <td></td>
 318:Generated_Source\PSoC6\pdl\drivers/peripheral/scb/cy_scb_uart.h **** *   </tr>
 319:Generated_Source\PSoC6\pdl\drivers/peripheral/scb/cy_scb_uart.h **** * </table>
 320:Generated_Source\PSoC6\pdl\drivers/peripheral/scb/cy_scb_uart.h **** *
 321:Generated_Source\PSoC6\pdl\drivers/peripheral/scb/cy_scb_uart.h **** * \defgroup group_scb_uart_macros Macros
 322:Generated_Source\PSoC6\pdl\drivers/peripheral/scb/cy_scb_uart.h **** * \defgroup group_scb_uart_functions Functions
 323:Generated_Source\PSoC6\pdl\drivers/peripheral/scb/cy_scb_uart.h **** * \{
 324:Generated_Source\PSoC6\pdl\drivers/peripheral/scb/cy_scb_uart.h **** * \defgroup group_scb_uart_general_functions General
 325:Generated_Source\PSoC6\pdl\drivers/peripheral/scb/cy_scb_uart.h **** * \defgroup group_scb_uart_high_level_functions High-Level
 326:Generated_Source\PSoC6\pdl\drivers/peripheral/scb/cy_scb_uart.h **** * \defgroup group_scb_uart_low_level_functions Low-Level
 327:Generated_Source\PSoC6\pdl\drivers/peripheral/scb/cy_scb_uart.h **** * \defgroup group_scb_uart_interrupt_functions Interrupt
 328:Generated_Source\PSoC6\pdl\drivers/peripheral/scb/cy_scb_uart.h **** * \defgroup group_scb_uart_low_power_functions Low Power Callbacks
ARM GAS  C:\Users\salaz\AppData\Local\Temp\ccmUlyJK.s 			page 21


 329:Generated_Source\PSoC6\pdl\drivers/peripheral/scb/cy_scb_uart.h **** * \}
 330:Generated_Source\PSoC6\pdl\drivers/peripheral/scb/cy_scb_uart.h **** * \defgroup group_scb_uart_data_structures Data Structures
 331:Generated_Source\PSoC6\pdl\drivers/peripheral/scb/cy_scb_uart.h **** * \defgroup group_scb_uart_enums Enumerated Types
 332:Generated_Source\PSoC6\pdl\drivers/peripheral/scb/cy_scb_uart.h **** */
 333:Generated_Source\PSoC6\pdl\drivers/peripheral/scb/cy_scb_uart.h **** 
 334:Generated_Source\PSoC6\pdl\drivers/peripheral/scb/cy_scb_uart.h **** #if !defined(CY_SCB_UART_H)
 335:Generated_Source\PSoC6\pdl\drivers/peripheral/scb/cy_scb_uart.h **** #define CY_SCB_UART_H
 336:Generated_Source\PSoC6\pdl\drivers/peripheral/scb/cy_scb_uart.h **** 
 337:Generated_Source\PSoC6\pdl\drivers/peripheral/scb/cy_scb_uart.h **** #include "cy_scb_common.h"
 338:Generated_Source\PSoC6\pdl\drivers/peripheral/scb/cy_scb_uart.h **** 
 339:Generated_Source\PSoC6\pdl\drivers/peripheral/scb/cy_scb_uart.h **** #if defined(__cplusplus)
 340:Generated_Source\PSoC6\pdl\drivers/peripheral/scb/cy_scb_uart.h **** extern "C" {
 341:Generated_Source\PSoC6\pdl\drivers/peripheral/scb/cy_scb_uart.h **** #endif
 342:Generated_Source\PSoC6\pdl\drivers/peripheral/scb/cy_scb_uart.h **** 
 343:Generated_Source\PSoC6\pdl\drivers/peripheral/scb/cy_scb_uart.h **** /***************************************
 344:Generated_Source\PSoC6\pdl\drivers/peripheral/scb/cy_scb_uart.h **** *          Enumerated Types
 345:Generated_Source\PSoC6\pdl\drivers/peripheral/scb/cy_scb_uart.h **** ***************************************/
 346:Generated_Source\PSoC6\pdl\drivers/peripheral/scb/cy_scb_uart.h **** 
 347:Generated_Source\PSoC6\pdl\drivers/peripheral/scb/cy_scb_uart.h **** /**
 348:Generated_Source\PSoC6\pdl\drivers/peripheral/scb/cy_scb_uart.h **** * \addtogroup group_scb_uart_enums
 349:Generated_Source\PSoC6\pdl\drivers/peripheral/scb/cy_scb_uart.h **** * \{
 350:Generated_Source\PSoC6\pdl\drivers/peripheral/scb/cy_scb_uart.h **** */
 351:Generated_Source\PSoC6\pdl\drivers/peripheral/scb/cy_scb_uart.h **** 
 352:Generated_Source\PSoC6\pdl\drivers/peripheral/scb/cy_scb_uart.h **** /** UART status codes */
 353:Generated_Source\PSoC6\pdl\drivers/peripheral/scb/cy_scb_uart.h **** typedef enum
 354:Generated_Source\PSoC6\pdl\drivers/peripheral/scb/cy_scb_uart.h **** {
 355:Generated_Source\PSoC6\pdl\drivers/peripheral/scb/cy_scb_uart.h ****     /** Operation completed successfully */
 356:Generated_Source\PSoC6\pdl\drivers/peripheral/scb/cy_scb_uart.h ****     CY_SCB_UART_SUCCESS = 0U,
 357:Generated_Source\PSoC6\pdl\drivers/peripheral/scb/cy_scb_uart.h **** 
 358:Generated_Source\PSoC6\pdl\drivers/peripheral/scb/cy_scb_uart.h ****     /** One or more of input parameters are invalid */
 359:Generated_Source\PSoC6\pdl\drivers/peripheral/scb/cy_scb_uart.h ****     CY_SCB_UART_BAD_PARAM = (CY_SCB_ID | CY_PDL_STATUS_ERROR | CY_SCB_UART_ID | 1U),
 360:Generated_Source\PSoC6\pdl\drivers/peripheral/scb/cy_scb_uart.h **** 
 361:Generated_Source\PSoC6\pdl\drivers/peripheral/scb/cy_scb_uart.h ****     /**
 362:Generated_Source\PSoC6\pdl\drivers/peripheral/scb/cy_scb_uart.h ****     * The UART is busy processing a transmit operation.
 363:Generated_Source\PSoC6\pdl\drivers/peripheral/scb/cy_scb_uart.h ****     * Call \ref Cy_SCB_UART_Receive function again once that operation
 364:Generated_Source\PSoC6\pdl\drivers/peripheral/scb/cy_scb_uart.h ****     * is completed or aborted.
 365:Generated_Source\PSoC6\pdl\drivers/peripheral/scb/cy_scb_uart.h ****     */
 366:Generated_Source\PSoC6\pdl\drivers/peripheral/scb/cy_scb_uart.h ****     CY_SCB_UART_RECEIVE_BUSY = (CY_SCB_ID | CY_PDL_STATUS_ERROR | CY_SCB_UART_ID | 2U),
 367:Generated_Source\PSoC6\pdl\drivers/peripheral/scb/cy_scb_uart.h **** 
 368:Generated_Source\PSoC6\pdl\drivers/peripheral/scb/cy_scb_uart.h ****     /**
 369:Generated_Source\PSoC6\pdl\drivers/peripheral/scb/cy_scb_uart.h ****     * The UART is busy processing a receive operation.
 370:Generated_Source\PSoC6\pdl\drivers/peripheral/scb/cy_scb_uart.h ****     * Call \ref Cy_SCB_UART_Transmit function again once that operation
 371:Generated_Source\PSoC6\pdl\drivers/peripheral/scb/cy_scb_uart.h ****     * is completed or aborted.
 372:Generated_Source\PSoC6\pdl\drivers/peripheral/scb/cy_scb_uart.h ****     */
 373:Generated_Source\PSoC6\pdl\drivers/peripheral/scb/cy_scb_uart.h ****     CY_SCB_UART_TRANSMIT_BUSY = (CY_SCB_ID | CY_PDL_STATUS_ERROR | CY_SCB_UART_ID | 3U)
 374:Generated_Source\PSoC6\pdl\drivers/peripheral/scb/cy_scb_uart.h **** } cy_en_scb_uart_status_t;
 375:Generated_Source\PSoC6\pdl\drivers/peripheral/scb/cy_scb_uart.h **** 
 376:Generated_Source\PSoC6\pdl\drivers/peripheral/scb/cy_scb_uart.h **** /** UART Mode */
 377:Generated_Source\PSoC6\pdl\drivers/peripheral/scb/cy_scb_uart.h **** typedef enum
 378:Generated_Source\PSoC6\pdl\drivers/peripheral/scb/cy_scb_uart.h **** {
 379:Generated_Source\PSoC6\pdl\drivers/peripheral/scb/cy_scb_uart.h ****     CY_SCB_UART_STANDARD  = 0U, /**< Configures the SCB for Standard UART operation */
 380:Generated_Source\PSoC6\pdl\drivers/peripheral/scb/cy_scb_uart.h ****     CY_SCB_UART_SMARTCARD = 1U, /**< Configures the SCB for SmartCard operation */
 381:Generated_Source\PSoC6\pdl\drivers/peripheral/scb/cy_scb_uart.h ****     CY_SCB_UART_IRDA      = 2U, /**< Configures the SCB for IrDA operation */
 382:Generated_Source\PSoC6\pdl\drivers/peripheral/scb/cy_scb_uart.h **** } cy_en_scb_uart_mode_t;
 383:Generated_Source\PSoC6\pdl\drivers/peripheral/scb/cy_scb_uart.h **** 
 384:Generated_Source\PSoC6\pdl\drivers/peripheral/scb/cy_scb_uart.h **** /** UART Stop Bits */
 385:Generated_Source\PSoC6\pdl\drivers/peripheral/scb/cy_scb_uart.h **** typedef enum
ARM GAS  C:\Users\salaz\AppData\Local\Temp\ccmUlyJK.s 			page 22


 386:Generated_Source\PSoC6\pdl\drivers/peripheral/scb/cy_scb_uart.h **** {
 387:Generated_Source\PSoC6\pdl\drivers/peripheral/scb/cy_scb_uart.h ****     CY_SCB_UART_STOP_BITS_1   = 2U,  /**< UART looks for 1 Stop Bit    */
 388:Generated_Source\PSoC6\pdl\drivers/peripheral/scb/cy_scb_uart.h ****     CY_SCB_UART_STOP_BITS_1_5 = 3U,  /**< UART looks for 1.5 Stop Bits */
 389:Generated_Source\PSoC6\pdl\drivers/peripheral/scb/cy_scb_uart.h ****     CY_SCB_UART_STOP_BITS_2   = 4U,  /**< UART looks for 2 Stop Bits   */
 390:Generated_Source\PSoC6\pdl\drivers/peripheral/scb/cy_scb_uart.h ****     CY_SCB_UART_STOP_BITS_2_5 = 5U,  /**< UART looks for 2.5 Stop Bits */
 391:Generated_Source\PSoC6\pdl\drivers/peripheral/scb/cy_scb_uart.h ****     CY_SCB_UART_STOP_BITS_3   = 6U,  /**< UART looks for 3 Stop Bits   */
 392:Generated_Source\PSoC6\pdl\drivers/peripheral/scb/cy_scb_uart.h ****     CY_SCB_UART_STOP_BITS_3_5 = 7U,  /**< UART looks for 3.5 Stop Bits */
 393:Generated_Source\PSoC6\pdl\drivers/peripheral/scb/cy_scb_uart.h ****     CY_SCB_UART_STOP_BITS_4   = 8U,  /**< UART looks for 4 Stop Bits   */
 394:Generated_Source\PSoC6\pdl\drivers/peripheral/scb/cy_scb_uart.h **** } cy_en_scb_uart_stop_bits_t;
 395:Generated_Source\PSoC6\pdl\drivers/peripheral/scb/cy_scb_uart.h **** 
 396:Generated_Source\PSoC6\pdl\drivers/peripheral/scb/cy_scb_uart.h **** /** UART Parity */
 397:Generated_Source\PSoC6\pdl\drivers/peripheral/scb/cy_scb_uart.h **** typedef enum
 398:Generated_Source\PSoC6\pdl\drivers/peripheral/scb/cy_scb_uart.h **** {
 399:Generated_Source\PSoC6\pdl\drivers/peripheral/scb/cy_scb_uart.h ****     CY_SCB_UART_PARITY_NONE = 0U,    /**< UART has no parity check   */
 400:Generated_Source\PSoC6\pdl\drivers/peripheral/scb/cy_scb_uart.h ****     CY_SCB_UART_PARITY_EVEN = 2U,    /**< UART has even parity check */
 401:Generated_Source\PSoC6\pdl\drivers/peripheral/scb/cy_scb_uart.h ****     CY_SCB_UART_PARITY_ODD  = 3U,    /**< UART has odd parity check  */
 402:Generated_Source\PSoC6\pdl\drivers/peripheral/scb/cy_scb_uart.h **** } cy_en_scb_uart_parity_t;
 403:Generated_Source\PSoC6\pdl\drivers/peripheral/scb/cy_scb_uart.h **** 
 404:Generated_Source\PSoC6\pdl\drivers/peripheral/scb/cy_scb_uart.h **** /** UART Polarity */
 405:Generated_Source\PSoC6\pdl\drivers/peripheral/scb/cy_scb_uart.h **** typedef enum
 406:Generated_Source\PSoC6\pdl\drivers/peripheral/scb/cy_scb_uart.h **** {
 407:Generated_Source\PSoC6\pdl\drivers/peripheral/scb/cy_scb_uart.h ****     CY_SCB_UART_ACTIVE_LOW  = 0U,   /**< Signal is active low */
 408:Generated_Source\PSoC6\pdl\drivers/peripheral/scb/cy_scb_uart.h ****     CY_SCB_UART_ACTIVE_HIGH = 1U,   /**< Signal is active high */
 409:Generated_Source\PSoC6\pdl\drivers/peripheral/scb/cy_scb_uart.h **** } cy_en_scb_uart_polarity_t;
 410:Generated_Source\PSoC6\pdl\drivers/peripheral/scb/cy_scb_uart.h **** /** \} group_scb_uart_enums */
 411:Generated_Source\PSoC6\pdl\drivers/peripheral/scb/cy_scb_uart.h **** 
 412:Generated_Source\PSoC6\pdl\drivers/peripheral/scb/cy_scb_uart.h **** 
 413:Generated_Source\PSoC6\pdl\drivers/peripheral/scb/cy_scb_uart.h **** /***************************************
 414:Generated_Source\PSoC6\pdl\drivers/peripheral/scb/cy_scb_uart.h **** *       Type Definitions
 415:Generated_Source\PSoC6\pdl\drivers/peripheral/scb/cy_scb_uart.h **** ***************************************/
 416:Generated_Source\PSoC6\pdl\drivers/peripheral/scb/cy_scb_uart.h **** 
 417:Generated_Source\PSoC6\pdl\drivers/peripheral/scb/cy_scb_uart.h **** /**
 418:Generated_Source\PSoC6\pdl\drivers/peripheral/scb/cy_scb_uart.h **** * \addtogroup group_scb_uart_data_structures
 419:Generated_Source\PSoC6\pdl\drivers/peripheral/scb/cy_scb_uart.h **** * \{
 420:Generated_Source\PSoC6\pdl\drivers/peripheral/scb/cy_scb_uart.h **** */
 421:Generated_Source\PSoC6\pdl\drivers/peripheral/scb/cy_scb_uart.h **** 
 422:Generated_Source\PSoC6\pdl\drivers/peripheral/scb/cy_scb_uart.h **** /**
 423:Generated_Source\PSoC6\pdl\drivers/peripheral/scb/cy_scb_uart.h **** * Provides the typedef for the callback function called in the
 424:Generated_Source\PSoC6\pdl\drivers/peripheral/scb/cy_scb_uart.h **** * \ref Cy_SCB_UART_Interrupt to notify the user about occurrences of
 425:Generated_Source\PSoC6\pdl\drivers/peripheral/scb/cy_scb_uart.h **** * \ref group_scb_uart_macros_callback_events.
 426:Generated_Source\PSoC6\pdl\drivers/peripheral/scb/cy_scb_uart.h **** */
 427:Generated_Source\PSoC6\pdl\drivers/peripheral/scb/cy_scb_uart.h **** typedef void (* cy_cb_scb_uart_handle_events_t)(uint32_t event);
 428:Generated_Source\PSoC6\pdl\drivers/peripheral/scb/cy_scb_uart.h **** 
 429:Generated_Source\PSoC6\pdl\drivers/peripheral/scb/cy_scb_uart.h **** /** UART configuration structure */
 430:Generated_Source\PSoC6\pdl\drivers/peripheral/scb/cy_scb_uart.h **** typedef struct stc_scb_uart_config
 431:Generated_Source\PSoC6\pdl\drivers/peripheral/scb/cy_scb_uart.h **** {
 432:Generated_Source\PSoC6\pdl\drivers/peripheral/scb/cy_scb_uart.h ****     /** Specifies the UART's mode of operation */
 433:Generated_Source\PSoC6\pdl\drivers/peripheral/scb/cy_scb_uart.h ****     cy_en_scb_uart_mode_t    uartMode;
 434:Generated_Source\PSoC6\pdl\drivers/peripheral/scb/cy_scb_uart.h **** 
 435:Generated_Source\PSoC6\pdl\drivers/peripheral/scb/cy_scb_uart.h ****     /**
 436:Generated_Source\PSoC6\pdl\drivers/peripheral/scb/cy_scb_uart.h ****     * Oversample factor for UART.
 437:Generated_Source\PSoC6\pdl\drivers/peripheral/scb/cy_scb_uart.h ****     * * The UART baud rate is the SCB Clock frequency / oversample
 438:Generated_Source\PSoC6\pdl\drivers/peripheral/scb/cy_scb_uart.h ****     *  (valid range is 8-16).
 439:Generated_Source\PSoC6\pdl\drivers/peripheral/scb/cy_scb_uart.h ****     * * For IrDA, the oversample is always 16, unless
 440:Generated_Source\PSoC6\pdl\drivers/peripheral/scb/cy_scb_uart.h ****     * \ref irdaEnableLowPowerReceiver is enabled. Then the oversample is
 441:Generated_Source\PSoC6\pdl\drivers/peripheral/scb/cy_scb_uart.h ****     * reduced to the \ref group_scb_uart_macros_irda_lp_ovs set.
 442:Generated_Source\PSoC6\pdl\drivers/peripheral/scb/cy_scb_uart.h ****     */
ARM GAS  C:\Users\salaz\AppData\Local\Temp\ccmUlyJK.s 			page 23


 443:Generated_Source\PSoC6\pdl\drivers/peripheral/scb/cy_scb_uart.h ****     uint32_t    oversample;
 444:Generated_Source\PSoC6\pdl\drivers/peripheral/scb/cy_scb_uart.h **** 
 445:Generated_Source\PSoC6\pdl\drivers/peripheral/scb/cy_scb_uart.h ****     /** The width of UART data (valid range is 5 to 9) */
 446:Generated_Source\PSoC6\pdl\drivers/peripheral/scb/cy_scb_uart.h ****     uint32_t    dataWidth;
 447:Generated_Source\PSoC6\pdl\drivers/peripheral/scb/cy_scb_uart.h **** 
 448:Generated_Source\PSoC6\pdl\drivers/peripheral/scb/cy_scb_uart.h ****     /**
 449:Generated_Source\PSoC6\pdl\drivers/peripheral/scb/cy_scb_uart.h ****     * Enables the hardware to shift out data element MSB first; otherwise,
 450:Generated_Source\PSoC6\pdl\drivers/peripheral/scb/cy_scb_uart.h ****     * LSB first
 451:Generated_Source\PSoC6\pdl\drivers/peripheral/scb/cy_scb_uart.h ****     */
 452:Generated_Source\PSoC6\pdl\drivers/peripheral/scb/cy_scb_uart.h ****     bool        enableMsbFirst;
 453:Generated_Source\PSoC6\pdl\drivers/peripheral/scb/cy_scb_uart.h **** 
 454:Generated_Source\PSoC6\pdl\drivers/peripheral/scb/cy_scb_uart.h ****     /**
 455:Generated_Source\PSoC6\pdl\drivers/peripheral/scb/cy_scb_uart.h ****     * Specifies the number of stop bits in the UART transaction, in half-bit
 456:Generated_Source\PSoC6\pdl\drivers/peripheral/scb/cy_scb_uart.h ****     * increments
 457:Generated_Source\PSoC6\pdl\drivers/peripheral/scb/cy_scb_uart.h ****     */
 458:Generated_Source\PSoC6\pdl\drivers/peripheral/scb/cy_scb_uart.h ****     cy_en_scb_uart_stop_bits_t    stopBits;
 459:Generated_Source\PSoC6\pdl\drivers/peripheral/scb/cy_scb_uart.h **** 
 460:Generated_Source\PSoC6\pdl\drivers/peripheral/scb/cy_scb_uart.h ****     /** Configures the UART parity */
 461:Generated_Source\PSoC6\pdl\drivers/peripheral/scb/cy_scb_uart.h ****     cy_en_scb_uart_parity_t    parity;
 462:Generated_Source\PSoC6\pdl\drivers/peripheral/scb/cy_scb_uart.h **** 
 463:Generated_Source\PSoC6\pdl\drivers/peripheral/scb/cy_scb_uart.h ****     /**
 464:Generated_Source\PSoC6\pdl\drivers/peripheral/scb/cy_scb_uart.h ****     * Enables a digital 3-tap median filter to be applied to the input
 465:Generated_Source\PSoC6\pdl\drivers/peripheral/scb/cy_scb_uart.h ****     * of the RX FIFO to filter glitches on the line (for IrDA, this parameter
 466:Generated_Source\PSoC6\pdl\drivers/peripheral/scb/cy_scb_uart.h ****     * is ignored)
 467:Generated_Source\PSoC6\pdl\drivers/peripheral/scb/cy_scb_uart.h ****     *
 468:Generated_Source\PSoC6\pdl\drivers/peripheral/scb/cy_scb_uart.h ****     */
 469:Generated_Source\PSoC6\pdl\drivers/peripheral/scb/cy_scb_uart.h ****     bool        enableInputFilter;
 470:Generated_Source\PSoC6\pdl\drivers/peripheral/scb/cy_scb_uart.h **** 
 471:Generated_Source\PSoC6\pdl\drivers/peripheral/scb/cy_scb_uart.h ****     /**
 472:Generated_Source\PSoC6\pdl\drivers/peripheral/scb/cy_scb_uart.h ****     * Enables the hardware to drop data in the RX FIFO when a parity error is
 473:Generated_Source\PSoC6\pdl\drivers/peripheral/scb/cy_scb_uart.h ****     * detected
 474:Generated_Source\PSoC6\pdl\drivers/peripheral/scb/cy_scb_uart.h ****     */
 475:Generated_Source\PSoC6\pdl\drivers/peripheral/scb/cy_scb_uart.h ****     bool        dropOnParityError;
 476:Generated_Source\PSoC6\pdl\drivers/peripheral/scb/cy_scb_uart.h **** 
 477:Generated_Source\PSoC6\pdl\drivers/peripheral/scb/cy_scb_uart.h ****     /**
 478:Generated_Source\PSoC6\pdl\drivers/peripheral/scb/cy_scb_uart.h ****     * Enables the hardware to drop data in the RX FIFO when a frame error is
 479:Generated_Source\PSoC6\pdl\drivers/peripheral/scb/cy_scb_uart.h ****     * detected
 480:Generated_Source\PSoC6\pdl\drivers/peripheral/scb/cy_scb_uart.h ****     */
 481:Generated_Source\PSoC6\pdl\drivers/peripheral/scb/cy_scb_uart.h ****     bool        dropOnFrameError;
 482:Generated_Source\PSoC6\pdl\drivers/peripheral/scb/cy_scb_uart.h **** 
 483:Generated_Source\PSoC6\pdl\drivers/peripheral/scb/cy_scb_uart.h ****     /**
 484:Generated_Source\PSoC6\pdl\drivers/peripheral/scb/cy_scb_uart.h ****     * Enables the UART operation in Multi-Processor mode which requires
 485:Generated_Source\PSoC6\pdl\drivers/peripheral/scb/cy_scb_uart.h ****     * dataWidth to be 9 bits (the 9th bit is used to indicate address byte)
 486:Generated_Source\PSoC6\pdl\drivers/peripheral/scb/cy_scb_uart.h ****     */
 487:Generated_Source\PSoC6\pdl\drivers/peripheral/scb/cy_scb_uart.h ****     bool        enableMutliProcessorMode;
 488:Generated_Source\PSoC6\pdl\drivers/peripheral/scb/cy_scb_uart.h **** 
 489:Generated_Source\PSoC6\pdl\drivers/peripheral/scb/cy_scb_uart.h ****     /**
 490:Generated_Source\PSoC6\pdl\drivers/peripheral/scb/cy_scb_uart.h ****     * If Multi Processor mode is enabled, this is the address of the RX
 491:Generated_Source\PSoC6\pdl\drivers/peripheral/scb/cy_scb_uart.h ****     * FIFO. If the address matches, data is accepted into the FIFO. If
 492:Generated_Source\PSoC6\pdl\drivers/peripheral/scb/cy_scb_uart.h ****     * it does not match, the data is ignored.
 493:Generated_Source\PSoC6\pdl\drivers/peripheral/scb/cy_scb_uart.h ****     */
 494:Generated_Source\PSoC6\pdl\drivers/peripheral/scb/cy_scb_uart.h ****     uint32_t    receiverAddress;
 495:Generated_Source\PSoC6\pdl\drivers/peripheral/scb/cy_scb_uart.h **** 
 496:Generated_Source\PSoC6\pdl\drivers/peripheral/scb/cy_scb_uart.h ****     /**
 497:Generated_Source\PSoC6\pdl\drivers/peripheral/scb/cy_scb_uart.h ****     * This is the address mask for the Multi Processor address. 1 indicates
 498:Generated_Source\PSoC6\pdl\drivers/peripheral/scb/cy_scb_uart.h ****     * that the incoming address must match the corresponding bit in the slave
 499:Generated_Source\PSoC6\pdl\drivers/peripheral/scb/cy_scb_uart.h ****     * address. A 0 in the mask indicates that the incoming address does
ARM GAS  C:\Users\salaz\AppData\Local\Temp\ccmUlyJK.s 			page 24


 500:Generated_Source\PSoC6\pdl\drivers/peripheral/scb/cy_scb_uart.h ****     * not need to match.
 501:Generated_Source\PSoC6\pdl\drivers/peripheral/scb/cy_scb_uart.h ****     */
 502:Generated_Source\PSoC6\pdl\drivers/peripheral/scb/cy_scb_uart.h ****     uint32_t    receiverAddressMask;
 503:Generated_Source\PSoC6\pdl\drivers/peripheral/scb/cy_scb_uart.h **** 
 504:Generated_Source\PSoC6\pdl\drivers/peripheral/scb/cy_scb_uart.h ****     /**
 505:Generated_Source\PSoC6\pdl\drivers/peripheral/scb/cy_scb_uart.h ****     * Enables the hardware to accept the matching address in the RX FIFO.
 506:Generated_Source\PSoC6\pdl\drivers/peripheral/scb/cy_scb_uart.h ****     * This is useful when the device supports more than one address.
 507:Generated_Source\PSoC6\pdl\drivers/peripheral/scb/cy_scb_uart.h ****     */
 508:Generated_Source\PSoC6\pdl\drivers/peripheral/scb/cy_scb_uart.h ****     bool        acceptAddrInFifo;
 509:Generated_Source\PSoC6\pdl\drivers/peripheral/scb/cy_scb_uart.h **** 
 510:Generated_Source\PSoC6\pdl\drivers/peripheral/scb/cy_scb_uart.h ****     /** Inverts the IrDA RX input */
 511:Generated_Source\PSoC6\pdl\drivers/peripheral/scb/cy_scb_uart.h ****     bool        irdaInvertRx;
 512:Generated_Source\PSoC6\pdl\drivers/peripheral/scb/cy_scb_uart.h **** 
 513:Generated_Source\PSoC6\pdl\drivers/peripheral/scb/cy_scb_uart.h ****     /**
 514:Generated_Source\PSoC6\pdl\drivers/peripheral/scb/cy_scb_uart.h ****     * Enables the low-power receive for IrDA mode.
 515:Generated_Source\PSoC6\pdl\drivers/peripheral/scb/cy_scb_uart.h ****     * Note that the transmission must be disabled if this mode is enabled.
 516:Generated_Source\PSoC6\pdl\drivers/peripheral/scb/cy_scb_uart.h ****     */
 517:Generated_Source\PSoC6\pdl\drivers/peripheral/scb/cy_scb_uart.h ****     bool        irdaEnableLowPowerReceiver;
 518:Generated_Source\PSoC6\pdl\drivers/peripheral/scb/cy_scb_uart.h **** 
 519:Generated_Source\PSoC6\pdl\drivers/peripheral/scb/cy_scb_uart.h ****     /**
 520:Generated_Source\PSoC6\pdl\drivers/peripheral/scb/cy_scb_uart.h ****     * Enables retransmission of the frame placed in the TX FIFO when
 521:Generated_Source\PSoC6\pdl\drivers/peripheral/scb/cy_scb_uart.h ****     * NACK is received in SmartCard mode (for Standard and IrDA , this parameter
 522:Generated_Source\PSoC6\pdl\drivers/peripheral/scb/cy_scb_uart.h ****     * is ignored)
 523:Generated_Source\PSoC6\pdl\drivers/peripheral/scb/cy_scb_uart.h ****     */
 524:Generated_Source\PSoC6\pdl\drivers/peripheral/scb/cy_scb_uart.h ****     bool        smartCardRetryOnNack;
 525:Generated_Source\PSoC6\pdl\drivers/peripheral/scb/cy_scb_uart.h **** 
 526:Generated_Source\PSoC6\pdl\drivers/peripheral/scb/cy_scb_uart.h ****     /**
 527:Generated_Source\PSoC6\pdl\drivers/peripheral/scb/cy_scb_uart.h ****     * Enables the usage of the CTS input signal for the transmitter. The
 528:Generated_Source\PSoC6\pdl\drivers/peripheral/scb/cy_scb_uart.h ****     * transmitter waits for CTS to be active before sending data
 529:Generated_Source\PSoC6\pdl\drivers/peripheral/scb/cy_scb_uart.h ****     */
 530:Generated_Source\PSoC6\pdl\drivers/peripheral/scb/cy_scb_uart.h ****     bool        enableCts;
 531:Generated_Source\PSoC6\pdl\drivers/peripheral/scb/cy_scb_uart.h **** 
 532:Generated_Source\PSoC6\pdl\drivers/peripheral/scb/cy_scb_uart.h ****     /** Sets the CTS Polarity */
 533:Generated_Source\PSoC6\pdl\drivers/peripheral/scb/cy_scb_uart.h ****     cy_en_scb_uart_polarity_t    ctsPolarity;
 534:Generated_Source\PSoC6\pdl\drivers/peripheral/scb/cy_scb_uart.h **** 
 535:Generated_Source\PSoC6\pdl\drivers/peripheral/scb/cy_scb_uart.h ****     /**
 536:Generated_Source\PSoC6\pdl\drivers/peripheral/scb/cy_scb_uart.h ****     * When the RX FIFO has fewer entries than rtsRxFifoLevel, the
 537:Generated_Source\PSoC6\pdl\drivers/peripheral/scb/cy_scb_uart.h ****     * RTS signal is active (note to disable RTS, set this field to zero)
 538:Generated_Source\PSoC6\pdl\drivers/peripheral/scb/cy_scb_uart.h ****     */
 539:Generated_Source\PSoC6\pdl\drivers/peripheral/scb/cy_scb_uart.h ****     uint32_t    rtsRxFifoLevel;
 540:Generated_Source\PSoC6\pdl\drivers/peripheral/scb/cy_scb_uart.h **** 
 541:Generated_Source\PSoC6\pdl\drivers/peripheral/scb/cy_scb_uart.h ****     /** Sets the RTS Polarity */
 542:Generated_Source\PSoC6\pdl\drivers/peripheral/scb/cy_scb_uart.h ****     cy_en_scb_uart_polarity_t    rtsPolarity;
 543:Generated_Source\PSoC6\pdl\drivers/peripheral/scb/cy_scb_uart.h **** 
 544:Generated_Source\PSoC6\pdl\drivers/peripheral/scb/cy_scb_uart.h ****     /** Specifies the number of bits to detect a break condition */
 545:Generated_Source\PSoC6\pdl\drivers/peripheral/scb/cy_scb_uart.h ****     uint32_t    breakWidth;
 546:Generated_Source\PSoC6\pdl\drivers/peripheral/scb/cy_scb_uart.h **** 
 547:Generated_Source\PSoC6\pdl\drivers/peripheral/scb/cy_scb_uart.h ****     /**
 548:Generated_Source\PSoC6\pdl\drivers/peripheral/scb/cy_scb_uart.h ****     * When there are more entries in the RX FIFO than this level
 549:Generated_Source\PSoC6\pdl\drivers/peripheral/scb/cy_scb_uart.h ****     * the RX trigger output goes high. This output can be connected
 550:Generated_Source\PSoC6\pdl\drivers/peripheral/scb/cy_scb_uart.h ****     * to a DMA channel through a trigger mux.
 551:Generated_Source\PSoC6\pdl\drivers/peripheral/scb/cy_scb_uart.h ****     * Also, it controls the \ref CY_SCB_UART_RX_TRIGGER interrupt source.
 552:Generated_Source\PSoC6\pdl\drivers/peripheral/scb/cy_scb_uart.h ****     */
 553:Generated_Source\PSoC6\pdl\drivers/peripheral/scb/cy_scb_uart.h ****     uint32_t    rxFifoTriggerLevel;
 554:Generated_Source\PSoC6\pdl\drivers/peripheral/scb/cy_scb_uart.h **** 
 555:Generated_Source\PSoC6\pdl\drivers/peripheral/scb/cy_scb_uart.h ****     /**
 556:Generated_Source\PSoC6\pdl\drivers/peripheral/scb/cy_scb_uart.h ****     * The bits set in this mask allow the event to cause an interrupt
ARM GAS  C:\Users\salaz\AppData\Local\Temp\ccmUlyJK.s 			page 25


 557:Generated_Source\PSoC6\pdl\drivers/peripheral/scb/cy_scb_uart.h ****     * (See \ref group_scb_uart_macros_rx_fifo_status for the set of constants)
 558:Generated_Source\PSoC6\pdl\drivers/peripheral/scb/cy_scb_uart.h ****     */
 559:Generated_Source\PSoC6\pdl\drivers/peripheral/scb/cy_scb_uart.h ****     uint32_t    rxFifoIntEnableMask;
 560:Generated_Source\PSoC6\pdl\drivers/peripheral/scb/cy_scb_uart.h **** 
 561:Generated_Source\PSoC6\pdl\drivers/peripheral/scb/cy_scb_uart.h ****     /**
 562:Generated_Source\PSoC6\pdl\drivers/peripheral/scb/cy_scb_uart.h ****     * When there are fewer entries in the TX FIFO then this level
 563:Generated_Source\PSoC6\pdl\drivers/peripheral/scb/cy_scb_uart.h ****     * the TX trigger output goes high. This output can be connected
 564:Generated_Source\PSoC6\pdl\drivers/peripheral/scb/cy_scb_uart.h ****     * to a DMA channel through a trigger mux.
 565:Generated_Source\PSoC6\pdl\drivers/peripheral/scb/cy_scb_uart.h ****     * Also, it controls \ref CY_SCB_UART_TX_TRIGGER interrupt source.
 566:Generated_Source\PSoC6\pdl\drivers/peripheral/scb/cy_scb_uart.h ****     */
 567:Generated_Source\PSoC6\pdl\drivers/peripheral/scb/cy_scb_uart.h ****     uint32_t    txFifoTriggerLevel;
 568:Generated_Source\PSoC6\pdl\drivers/peripheral/scb/cy_scb_uart.h **** 
 569:Generated_Source\PSoC6\pdl\drivers/peripheral/scb/cy_scb_uart.h ****     /**
 570:Generated_Source\PSoC6\pdl\drivers/peripheral/scb/cy_scb_uart.h ****     * Bits set in this mask allows the event to cause an interrupt
 571:Generated_Source\PSoC6\pdl\drivers/peripheral/scb/cy_scb_uart.h ****     * (See \ref group_scb_uart_macros_tx_fifo_status for the set of constants)
 572:Generated_Source\PSoC6\pdl\drivers/peripheral/scb/cy_scb_uart.h ****     */
 573:Generated_Source\PSoC6\pdl\drivers/peripheral/scb/cy_scb_uart.h ****     uint32_t    txFifoIntEnableMask;
 574:Generated_Source\PSoC6\pdl\drivers/peripheral/scb/cy_scb_uart.h **** } cy_stc_scb_uart_config_t;
 575:Generated_Source\PSoC6\pdl\drivers/peripheral/scb/cy_scb_uart.h **** 
 576:Generated_Source\PSoC6\pdl\drivers/peripheral/scb/cy_scb_uart.h **** /** UART context structure.
 577:Generated_Source\PSoC6\pdl\drivers/peripheral/scb/cy_scb_uart.h **** * All fields for the context structure are internal. Firmware never reads or
 578:Generated_Source\PSoC6\pdl\drivers/peripheral/scb/cy_scb_uart.h **** * writes these values. Firmware allocates the structure and provides the
 579:Generated_Source\PSoC6\pdl\drivers/peripheral/scb/cy_scb_uart.h **** * address of the structure to the driver in function calls. Firmware must
 580:Generated_Source\PSoC6\pdl\drivers/peripheral/scb/cy_scb_uart.h **** * ensure that the defined instance of this structure remains in scope
 581:Generated_Source\PSoC6\pdl\drivers/peripheral/scb/cy_scb_uart.h **** * while the drive is in use.
 582:Generated_Source\PSoC6\pdl\drivers/peripheral/scb/cy_scb_uart.h **** */
 583:Generated_Source\PSoC6\pdl\drivers/peripheral/scb/cy_scb_uart.h **** typedef struct cy_stc_scb_uart_context
 584:Generated_Source\PSoC6\pdl\drivers/peripheral/scb/cy_scb_uart.h **** {
 585:Generated_Source\PSoC6\pdl\drivers/peripheral/scb/cy_scb_uart.h ****     /** \cond INTERNAL */
 586:Generated_Source\PSoC6\pdl\drivers/peripheral/scb/cy_scb_uart.h ****     uint32_t volatile txStatus;         /**< The transmit status */
 587:Generated_Source\PSoC6\pdl\drivers/peripheral/scb/cy_scb_uart.h ****     uint32_t volatile rxStatus;         /**< The receive status */
 588:Generated_Source\PSoC6\pdl\drivers/peripheral/scb/cy_scb_uart.h **** 
 589:Generated_Source\PSoC6\pdl\drivers/peripheral/scb/cy_scb_uart.h ****     void     *rxRingBuf;                /**< The pointer to the ring buffer */
 590:Generated_Source\PSoC6\pdl\drivers/peripheral/scb/cy_scb_uart.h ****     uint32_t  rxRingBufSize;            /**< The ring buffer size */
 591:Generated_Source\PSoC6\pdl\drivers/peripheral/scb/cy_scb_uart.h ****     uint32_t volatile rxRingBufHead;    /**< The ring buffer head index */
 592:Generated_Source\PSoC6\pdl\drivers/peripheral/scb/cy_scb_uart.h ****     uint32_t volatile rxRingBufTail;    /**< The ring buffer tail index */
 593:Generated_Source\PSoC6\pdl\drivers/peripheral/scb/cy_scb_uart.h **** 
 594:Generated_Source\PSoC6\pdl\drivers/peripheral/scb/cy_scb_uart.h ****     void     *rxBuf;                    /**< The pointer to the receive buffer */
 595:Generated_Source\PSoC6\pdl\drivers/peripheral/scb/cy_scb_uart.h ****     uint32_t  rxBufSize;                /**< The receive buffer size */
 596:Generated_Source\PSoC6\pdl\drivers/peripheral/scb/cy_scb_uart.h ****     uint32_t volatile rxBufIdx;         /**< The current location in the receive buffer */
 597:Generated_Source\PSoC6\pdl\drivers/peripheral/scb/cy_scb_uart.h **** 
 598:Generated_Source\PSoC6\pdl\drivers/peripheral/scb/cy_scb_uart.h ****     void     *txBuf;                    /**< The pointer to the transmit buffer */
 599:Generated_Source\PSoC6\pdl\drivers/peripheral/scb/cy_scb_uart.h ****     uint32_t  txBufSize;                /**< The transmit buffer size */
 600:Generated_Source\PSoC6\pdl\drivers/peripheral/scb/cy_scb_uart.h ****     uint32_t volatile txLeftToTransmit; /**< The number of data elements left to be transmitted */
 601:Generated_Source\PSoC6\pdl\drivers/peripheral/scb/cy_scb_uart.h **** 
 602:Generated_Source\PSoC6\pdl\drivers/peripheral/scb/cy_scb_uart.h ****     /** The pointer to an event callback that is called when any of
 603:Generated_Source\PSoC6\pdl\drivers/peripheral/scb/cy_scb_uart.h ****     * \ref group_scb_uart_macros_callback_events occurs
 604:Generated_Source\PSoC6\pdl\drivers/peripheral/scb/cy_scb_uart.h ****     */
 605:Generated_Source\PSoC6\pdl\drivers/peripheral/scb/cy_scb_uart.h ****     cy_cb_scb_uart_handle_events_t cbEvents;
 606:Generated_Source\PSoC6\pdl\drivers/peripheral/scb/cy_scb_uart.h **** 
 607:Generated_Source\PSoC6\pdl\drivers/peripheral/scb/cy_scb_uart.h **** #if !defined(NDEBUG)
 608:Generated_Source\PSoC6\pdl\drivers/peripheral/scb/cy_scb_uart.h ****     uint32_t initKey;               /**< Tracks the context initialization */
 609:Generated_Source\PSoC6\pdl\drivers/peripheral/scb/cy_scb_uart.h **** #endif /* !(NDEBUG) */
 610:Generated_Source\PSoC6\pdl\drivers/peripheral/scb/cy_scb_uart.h ****     /** \endcond */
 611:Generated_Source\PSoC6\pdl\drivers/peripheral/scb/cy_scb_uart.h **** } cy_stc_scb_uart_context_t;
 612:Generated_Source\PSoC6\pdl\drivers/peripheral/scb/cy_scb_uart.h **** /** \} group_scb_uart_data_structures */
 613:Generated_Source\PSoC6\pdl\drivers/peripheral/scb/cy_scb_uart.h **** 
ARM GAS  C:\Users\salaz\AppData\Local\Temp\ccmUlyJK.s 			page 26


 614:Generated_Source\PSoC6\pdl\drivers/peripheral/scb/cy_scb_uart.h **** 
 615:Generated_Source\PSoC6\pdl\drivers/peripheral/scb/cy_scb_uart.h **** /***************************************
 616:Generated_Source\PSoC6\pdl\drivers/peripheral/scb/cy_scb_uart.h **** *        Function Prototypes
 617:Generated_Source\PSoC6\pdl\drivers/peripheral/scb/cy_scb_uart.h **** ***************************************/
 618:Generated_Source\PSoC6\pdl\drivers/peripheral/scb/cy_scb_uart.h **** 
 619:Generated_Source\PSoC6\pdl\drivers/peripheral/scb/cy_scb_uart.h **** /**
 620:Generated_Source\PSoC6\pdl\drivers/peripheral/scb/cy_scb_uart.h **** * \addtogroup group_scb_uart_general_functions
 621:Generated_Source\PSoC6\pdl\drivers/peripheral/scb/cy_scb_uart.h **** * \{
 622:Generated_Source\PSoC6\pdl\drivers/peripheral/scb/cy_scb_uart.h **** */
 623:Generated_Source\PSoC6\pdl\drivers/peripheral/scb/cy_scb_uart.h **** cy_en_scb_uart_status_t Cy_SCB_UART_Init(CySCB_Type *base, cy_stc_scb_uart_config_t const *config,
 624:Generated_Source\PSoC6\pdl\drivers/peripheral/scb/cy_scb_uart.h ****                                          cy_stc_scb_uart_context_t *context);
 625:Generated_Source\PSoC6\pdl\drivers/peripheral/scb/cy_scb_uart.h **** void Cy_SCB_UART_DeInit (CySCB_Type *base);
 626:Generated_Source\PSoC6\pdl\drivers/peripheral/scb/cy_scb_uart.h **** __STATIC_INLINE void Cy_SCB_UART_Enable(CySCB_Type *base);
 627:Generated_Source\PSoC6\pdl\drivers/peripheral/scb/cy_scb_uart.h **** void Cy_SCB_UART_Disable(CySCB_Type *base, cy_stc_scb_uart_context_t *context);
 628:Generated_Source\PSoC6\pdl\drivers/peripheral/scb/cy_scb_uart.h **** 
 629:Generated_Source\PSoC6\pdl\drivers/peripheral/scb/cy_scb_uart.h **** __STATIC_INLINE void     Cy_SCB_UART_EnableCts      (CySCB_Type *base);
 630:Generated_Source\PSoC6\pdl\drivers/peripheral/scb/cy_scb_uart.h **** __STATIC_INLINE void     Cy_SCB_UART_DisableCts     (CySCB_Type *base);
 631:Generated_Source\PSoC6\pdl\drivers/peripheral/scb/cy_scb_uart.h **** __STATIC_INLINE void     Cy_SCB_UART_SetRtsFifoLevel(CySCB_Type *base, uint32_t level);
 632:Generated_Source\PSoC6\pdl\drivers/peripheral/scb/cy_scb_uart.h **** __STATIC_INLINE uint32_t Cy_SCB_UART_GetRtsFifoLevel(CySCB_Type const *base);
 633:Generated_Source\PSoC6\pdl\drivers/peripheral/scb/cy_scb_uart.h **** 
 634:Generated_Source\PSoC6\pdl\drivers/peripheral/scb/cy_scb_uart.h **** __STATIC_INLINE void Cy_SCB_UART_EnableSkipStart (CySCB_Type *base);
 635:Generated_Source\PSoC6\pdl\drivers/peripheral/scb/cy_scb_uart.h **** __STATIC_INLINE void Cy_SCB_UART_DisableSkipStart(CySCB_Type *base);
 636:Generated_Source\PSoC6\pdl\drivers/peripheral/scb/cy_scb_uart.h **** /** \} group_scb_uart_general_functions */
 637:Generated_Source\PSoC6\pdl\drivers/peripheral/scb/cy_scb_uart.h **** 
 638:Generated_Source\PSoC6\pdl\drivers/peripheral/scb/cy_scb_uart.h **** /**
 639:Generated_Source\PSoC6\pdl\drivers/peripheral/scb/cy_scb_uart.h **** * \addtogroup group_scb_uart_high_level_functions
 640:Generated_Source\PSoC6\pdl\drivers/peripheral/scb/cy_scb_uart.h **** * \{
 641:Generated_Source\PSoC6\pdl\drivers/peripheral/scb/cy_scb_uart.h **** */
 642:Generated_Source\PSoC6\pdl\drivers/peripheral/scb/cy_scb_uart.h **** void     Cy_SCB_UART_StartRingBuffer   (CySCB_Type *base, void *buffer, uint32_t size,
 643:Generated_Source\PSoC6\pdl\drivers/peripheral/scb/cy_scb_uart.h ****                                         cy_stc_scb_uart_context_t *context);
 644:Generated_Source\PSoC6\pdl\drivers/peripheral/scb/cy_scb_uart.h **** void     Cy_SCB_UART_StopRingBuffer    (CySCB_Type *base, cy_stc_scb_uart_context_t *context);
 645:Generated_Source\PSoC6\pdl\drivers/peripheral/scb/cy_scb_uart.h **** uint32_t Cy_SCB_UART_GetNumInRingBuffer(CySCB_Type const *base, cy_stc_scb_uart_context_t const *co
 646:Generated_Source\PSoC6\pdl\drivers/peripheral/scb/cy_scb_uart.h **** void     Cy_SCB_UART_ClearRingBuffer   (CySCB_Type const *base, cy_stc_scb_uart_context_t *context)
 647:Generated_Source\PSoC6\pdl\drivers/peripheral/scb/cy_scb_uart.h **** 
 648:Generated_Source\PSoC6\pdl\drivers/peripheral/scb/cy_scb_uart.h **** cy_en_scb_uart_status_t Cy_SCB_UART_Receive(CySCB_Type *base, void *buffer, uint32_t size,
 649:Generated_Source\PSoC6\pdl\drivers/peripheral/scb/cy_scb_uart.h ****                                             cy_stc_scb_uart_context_t *context);
 650:Generated_Source\PSoC6\pdl\drivers/peripheral/scb/cy_scb_uart.h **** void     Cy_SCB_UART_AbortReceive    (CySCB_Type *base, cy_stc_scb_uart_context_t *context);
 651:Generated_Source\PSoC6\pdl\drivers/peripheral/scb/cy_scb_uart.h **** uint32_t Cy_SCB_UART_GetReceiveStatus(CySCB_Type const *base, cy_stc_scb_uart_context_t const *cont
 652:Generated_Source\PSoC6\pdl\drivers/peripheral/scb/cy_scb_uart.h **** uint32_t Cy_SCB_UART_GetNumReceived  (CySCB_Type const *base, cy_stc_scb_uart_context_t const *cont
 653:Generated_Source\PSoC6\pdl\drivers/peripheral/scb/cy_scb_uart.h **** 
 654:Generated_Source\PSoC6\pdl\drivers/peripheral/scb/cy_scb_uart.h **** cy_en_scb_uart_status_t Cy_SCB_UART_Transmit(CySCB_Type *base, void *buffer, uint32_t size,
 655:Generated_Source\PSoC6\pdl\drivers/peripheral/scb/cy_scb_uart.h ****                                              cy_stc_scb_uart_context_t *context);
 656:Generated_Source\PSoC6\pdl\drivers/peripheral/scb/cy_scb_uart.h **** void     Cy_SCB_UART_AbortTransmit       (CySCB_Type *base, cy_stc_scb_uart_context_t *context);
 657:Generated_Source\PSoC6\pdl\drivers/peripheral/scb/cy_scb_uart.h **** uint32_t Cy_SCB_UART_GetTransmitStatus   (CySCB_Type const *base, cy_stc_scb_uart_context_t const *
 658:Generated_Source\PSoC6\pdl\drivers/peripheral/scb/cy_scb_uart.h **** uint32_t Cy_SCB_UART_GetNumLeftToTransmit(CySCB_Type const *base, cy_stc_scb_uart_context_t const *
 659:Generated_Source\PSoC6\pdl\drivers/peripheral/scb/cy_scb_uart.h **** /** \} group_scb_uart_high_level_functions */
 660:Generated_Source\PSoC6\pdl\drivers/peripheral/scb/cy_scb_uart.h **** 
 661:Generated_Source\PSoC6\pdl\drivers/peripheral/scb/cy_scb_uart.h **** /**
 662:Generated_Source\PSoC6\pdl\drivers/peripheral/scb/cy_scb_uart.h **** * \addtogroup group_scb_uart_low_level_functions
 663:Generated_Source\PSoC6\pdl\drivers/peripheral/scb/cy_scb_uart.h **** * \{
 664:Generated_Source\PSoC6\pdl\drivers/peripheral/scb/cy_scb_uart.h **** */
 665:Generated_Source\PSoC6\pdl\drivers/peripheral/scb/cy_scb_uart.h **** __STATIC_INLINE uint32_t Cy_SCB_UART_Put             (CySCB_Type *base, uint32_t data);
 666:Generated_Source\PSoC6\pdl\drivers/peripheral/scb/cy_scb_uart.h **** __STATIC_INLINE uint32_t Cy_SCB_UART_PutArray        (CySCB_Type *base, void *buffer, uint32_t size
 667:Generated_Source\PSoC6\pdl\drivers/peripheral/scb/cy_scb_uart.h **** __STATIC_INLINE void     Cy_SCB_UART_PutArrayBlocking(CySCB_Type *base, void *buffer, uint32_t size
 668:Generated_Source\PSoC6\pdl\drivers/peripheral/scb/cy_scb_uart.h **** __STATIC_INLINE void     Cy_SCB_UART_PutString       (CySCB_Type *base, char_t const string[]);
 669:Generated_Source\PSoC6\pdl\drivers/peripheral/scb/cy_scb_uart.h **** void Cy_SCB_UART_SendBreakBlocking(CySCB_Type *base, uint32_t breakWidth);
 670:Generated_Source\PSoC6\pdl\drivers/peripheral/scb/cy_scb_uart.h **** 
ARM GAS  C:\Users\salaz\AppData\Local\Temp\ccmUlyJK.s 			page 27


 671:Generated_Source\PSoC6\pdl\drivers/peripheral/scb/cy_scb_uart.h **** __STATIC_INLINE uint32_t Cy_SCB_UART_Get             (CySCB_Type const *base);
 672:Generated_Source\PSoC6\pdl\drivers/peripheral/scb/cy_scb_uart.h **** __STATIC_INLINE uint32_t Cy_SCB_UART_GetArray        (CySCB_Type const *base, void *buffer, uint32_
 673:Generated_Source\PSoC6\pdl\drivers/peripheral/scb/cy_scb_uart.h **** __STATIC_INLINE void     Cy_SCB_UART_GetArrayBlocking(CySCB_Type const *base, void *buffer, uint32_
 674:Generated_Source\PSoC6\pdl\drivers/peripheral/scb/cy_scb_uart.h **** 
 675:Generated_Source\PSoC6\pdl\drivers/peripheral/scb/cy_scb_uart.h **** __STATIC_INLINE uint32_t Cy_SCB_UART_GetTxFifoStatus  (CySCB_Type const *base);
 676:Generated_Source\PSoC6\pdl\drivers/peripheral/scb/cy_scb_uart.h **** __STATIC_INLINE void     Cy_SCB_UART_ClearTxFifoStatus(CySCB_Type *base, uint32_t clearMask);
 677:Generated_Source\PSoC6\pdl\drivers/peripheral/scb/cy_scb_uart.h **** 
 678:Generated_Source\PSoC6\pdl\drivers/peripheral/scb/cy_scb_uart.h **** __STATIC_INLINE uint32_t Cy_SCB_UART_GetRxFifoStatus  (CySCB_Type const *base);
 679:Generated_Source\PSoC6\pdl\drivers/peripheral/scb/cy_scb_uart.h **** __STATIC_INLINE void     Cy_SCB_UART_ClearRxFifoStatus(CySCB_Type *base, uint32_t clearMask);
 680:Generated_Source\PSoC6\pdl\drivers/peripheral/scb/cy_scb_uart.h **** 
 681:Generated_Source\PSoC6\pdl\drivers/peripheral/scb/cy_scb_uart.h **** __STATIC_INLINE uint32_t Cy_SCB_UART_GetNumInTxFifo   (CySCB_Type const *base);
 682:Generated_Source\PSoC6\pdl\drivers/peripheral/scb/cy_scb_uart.h **** __STATIC_INLINE bool     Cy_SCB_UART_IsTxComplete     (CySCB_Type const *base);
 683:Generated_Source\PSoC6\pdl\drivers/peripheral/scb/cy_scb_uart.h **** 
 684:Generated_Source\PSoC6\pdl\drivers/peripheral/scb/cy_scb_uart.h **** __STATIC_INLINE uint32_t Cy_SCB_UART_GetNumInRxFifo   (CySCB_Type const *base);
 685:Generated_Source\PSoC6\pdl\drivers/peripheral/scb/cy_scb_uart.h **** 
 686:Generated_Source\PSoC6\pdl\drivers/peripheral/scb/cy_scb_uart.h **** __STATIC_INLINE void     Cy_SCB_UART_ClearRxFifo      (CySCB_Type *base);
 687:Generated_Source\PSoC6\pdl\drivers/peripheral/scb/cy_scb_uart.h **** __STATIC_INLINE void     Cy_SCB_UART_ClearTxFifo      (CySCB_Type *base);
 688:Generated_Source\PSoC6\pdl\drivers/peripheral/scb/cy_scb_uart.h **** /** \} group_scb_uart_low_level_functions */
 689:Generated_Source\PSoC6\pdl\drivers/peripheral/scb/cy_scb_uart.h **** 
 690:Generated_Source\PSoC6\pdl\drivers/peripheral/scb/cy_scb_uart.h **** /**
 691:Generated_Source\PSoC6\pdl\drivers/peripheral/scb/cy_scb_uart.h **** * \addtogroup group_scb_uart_interrupt_functions
 692:Generated_Source\PSoC6\pdl\drivers/peripheral/scb/cy_scb_uart.h **** * \{
 693:Generated_Source\PSoC6\pdl\drivers/peripheral/scb/cy_scb_uart.h **** */
 694:Generated_Source\PSoC6\pdl\drivers/peripheral/scb/cy_scb_uart.h **** void Cy_SCB_UART_Interrupt(CySCB_Type *base, cy_stc_scb_uart_context_t *context);
 695:Generated_Source\PSoC6\pdl\drivers/peripheral/scb/cy_scb_uart.h **** 
 696:Generated_Source\PSoC6\pdl\drivers/peripheral/scb/cy_scb_uart.h **** __STATIC_INLINE void Cy_SCB_UART_RegisterCallback(CySCB_Type const *base, cy_cb_scb_uart_handle_eve
 697:Generated_Source\PSoC6\pdl\drivers/peripheral/scb/cy_scb_uart.h ****                                                   cy_stc_scb_uart_context_t *context);
 698:Generated_Source\PSoC6\pdl\drivers/peripheral/scb/cy_scb_uart.h **** /** \} group_scb_uart_interrupt_functions */
 699:Generated_Source\PSoC6\pdl\drivers/peripheral/scb/cy_scb_uart.h **** 
 700:Generated_Source\PSoC6\pdl\drivers/peripheral/scb/cy_scb_uart.h **** /**
 701:Generated_Source\PSoC6\pdl\drivers/peripheral/scb/cy_scb_uart.h **** * \addtogroup group_scb_uart_low_power_functions
 702:Generated_Source\PSoC6\pdl\drivers/peripheral/scb/cy_scb_uart.h **** * \{
 703:Generated_Source\PSoC6\pdl\drivers/peripheral/scb/cy_scb_uart.h **** */
 704:Generated_Source\PSoC6\pdl\drivers/peripheral/scb/cy_scb_uart.h **** cy_en_syspm_status_t Cy_SCB_UART_DeepSleepCallback(cy_stc_syspm_callback_params_t *callbackParams);
 705:Generated_Source\PSoC6\pdl\drivers/peripheral/scb/cy_scb_uart.h **** cy_en_syspm_status_t Cy_SCB_UART_HibernateCallback(cy_stc_syspm_callback_params_t *callbackParams);
 706:Generated_Source\PSoC6\pdl\drivers/peripheral/scb/cy_scb_uart.h **** /** \} group_scb_uart_low_power_functions */
 707:Generated_Source\PSoC6\pdl\drivers/peripheral/scb/cy_scb_uart.h **** 
 708:Generated_Source\PSoC6\pdl\drivers/peripheral/scb/cy_scb_uart.h **** 
 709:Generated_Source\PSoC6\pdl\drivers/peripheral/scb/cy_scb_uart.h **** /***************************************
 710:Generated_Source\PSoC6\pdl\drivers/peripheral/scb/cy_scb_uart.h **** *            API Constants
 711:Generated_Source\PSoC6\pdl\drivers/peripheral/scb/cy_scb_uart.h **** ***************************************/
 712:Generated_Source\PSoC6\pdl\drivers/peripheral/scb/cy_scb_uart.h **** 
 713:Generated_Source\PSoC6\pdl\drivers/peripheral/scb/cy_scb_uart.h **** /**
 714:Generated_Source\PSoC6\pdl\drivers/peripheral/scb/cy_scb_uart.h **** * \addtogroup group_scb_uart_macros
 715:Generated_Source\PSoC6\pdl\drivers/peripheral/scb/cy_scb_uart.h **** * \{
 716:Generated_Source\PSoC6\pdl\drivers/peripheral/scb/cy_scb_uart.h **** */
 717:Generated_Source\PSoC6\pdl\drivers/peripheral/scb/cy_scb_uart.h **** 
 718:Generated_Source\PSoC6\pdl\drivers/peripheral/scb/cy_scb_uart.h **** /**
 719:Generated_Source\PSoC6\pdl\drivers/peripheral/scb/cy_scb_uart.h **** * \defgroup group_scb_uart_macros_irda_lp_ovs UART IRDA Low Power Oversample factors
 720:Generated_Source\PSoC6\pdl\drivers/peripheral/scb/cy_scb_uart.h **** * \{
 721:Generated_Source\PSoC6\pdl\drivers/peripheral/scb/cy_scb_uart.h **** */
 722:Generated_Source\PSoC6\pdl\drivers/peripheral/scb/cy_scb_uart.h **** #define CY_SCB_UART_IRDA_LP_OVS16      (1UL)   /**< IrDA in low-power mode oversampled by 16   */
 723:Generated_Source\PSoC6\pdl\drivers/peripheral/scb/cy_scb_uart.h **** #define CY_SCB_UART_IRDA_LP_OVS32      (2UL)   /**< IrDA in low-power mode oversampled by 32   */
 724:Generated_Source\PSoC6\pdl\drivers/peripheral/scb/cy_scb_uart.h **** #define CY_SCB_UART_IRDA_LP_OVS48      (3UL)   /**< IrDA in low-power mode oversampled by 48   */
 725:Generated_Source\PSoC6\pdl\drivers/peripheral/scb/cy_scb_uart.h **** #define CY_SCB_UART_IRDA_LP_OVS96      (4UL)   /**< IrDA in low-power mode oversampled by 96   */
 726:Generated_Source\PSoC6\pdl\drivers/peripheral/scb/cy_scb_uart.h **** #define CY_SCB_UART_IRDA_LP_OVS192     (5UL)   /**< IrDA in low-power mode oversampled by 192  */
 727:Generated_Source\PSoC6\pdl\drivers/peripheral/scb/cy_scb_uart.h **** #define CY_SCB_UART_IRDA_LP_OVS768     (6UL)   /**< IrDA in low-power mode oversampled by 768  */
ARM GAS  C:\Users\salaz\AppData\Local\Temp\ccmUlyJK.s 			page 28


 728:Generated_Source\PSoC6\pdl\drivers/peripheral/scb/cy_scb_uart.h **** #define CY_SCB_UART_IRDA_LP_OVS1536    (7UL)   /**< IrDA in low-power mode oversampled by 1536 */
 729:Generated_Source\PSoC6\pdl\drivers/peripheral/scb/cy_scb_uart.h **** /** \} group_scb_uart_macros_irda_lp_ovs */
 730:Generated_Source\PSoC6\pdl\drivers/peripheral/scb/cy_scb_uart.h **** 
 731:Generated_Source\PSoC6\pdl\drivers/peripheral/scb/cy_scb_uart.h **** /**
 732:Generated_Source\PSoC6\pdl\drivers/peripheral/scb/cy_scb_uart.h **** * \defgroup group_scb_uart_macros_rx_fifo_status UART Receive FIFO status.
 733:Generated_Source\PSoC6\pdl\drivers/peripheral/scb/cy_scb_uart.h **** * \{
 734:Generated_Source\PSoC6\pdl\drivers/peripheral/scb/cy_scb_uart.h **** */
 735:Generated_Source\PSoC6\pdl\drivers/peripheral/scb/cy_scb_uart.h **** /** The number of entries in the RX FIFO is more than the RX FIFO trigger level
 736:Generated_Source\PSoC6\pdl\drivers/peripheral/scb/cy_scb_uart.h **** * value
 737:Generated_Source\PSoC6\pdl\drivers/peripheral/scb/cy_scb_uart.h **** */
 738:Generated_Source\PSoC6\pdl\drivers/peripheral/scb/cy_scb_uart.h **** #define CY_SCB_UART_RX_TRIGGER         (SCB_INTR_RX_TRIGGER_Msk)
 739:Generated_Source\PSoC6\pdl\drivers/peripheral/scb/cy_scb_uart.h **** 
 740:Generated_Source\PSoC6\pdl\drivers/peripheral/scb/cy_scb_uart.h **** /** The RX FIFO is not empty, there is data to read */
 741:Generated_Source\PSoC6\pdl\drivers/peripheral/scb/cy_scb_uart.h **** #define CY_SCB_UART_RX_NOT_EMPTY       (SCB_INTR_RX_NOT_EMPTY_Msk)
 742:Generated_Source\PSoC6\pdl\drivers/peripheral/scb/cy_scb_uart.h **** 
 743:Generated_Source\PSoC6\pdl\drivers/peripheral/scb/cy_scb_uart.h **** /**
 744:Generated_Source\PSoC6\pdl\drivers/peripheral/scb/cy_scb_uart.h **** * The RX FIFO is full, there is no more space for additional data, and
 745:Generated_Source\PSoC6\pdl\drivers/peripheral/scb/cy_scb_uart.h **** * any additional data will be dropped
 746:Generated_Source\PSoC6\pdl\drivers/peripheral/scb/cy_scb_uart.h **** */
 747:Generated_Source\PSoC6\pdl\drivers/peripheral/scb/cy_scb_uart.h **** #define CY_SCB_UART_RX_FULL            (SCB_INTR_RX_FULL_Msk)
 748:Generated_Source\PSoC6\pdl\drivers/peripheral/scb/cy_scb_uart.h **** 
 749:Generated_Source\PSoC6\pdl\drivers/peripheral/scb/cy_scb_uart.h **** /**
 750:Generated_Source\PSoC6\pdl\drivers/peripheral/scb/cy_scb_uart.h **** * The RX FIFO was full and there was an attempt to write to it.
 751:Generated_Source\PSoC6\pdl\drivers/peripheral/scb/cy_scb_uart.h **** * That additional data was dropped.
 752:Generated_Source\PSoC6\pdl\drivers/peripheral/scb/cy_scb_uart.h **** */
 753:Generated_Source\PSoC6\pdl\drivers/peripheral/scb/cy_scb_uart.h **** #define CY_SCB_UART_RX_OVERFLOW        (SCB_INTR_RX_OVERFLOW_Msk)
 754:Generated_Source\PSoC6\pdl\drivers/peripheral/scb/cy_scb_uart.h **** 
 755:Generated_Source\PSoC6\pdl\drivers/peripheral/scb/cy_scb_uart.h **** /** An attempt to read from an empty RX FIFO */
 756:Generated_Source\PSoC6\pdl\drivers/peripheral/scb/cy_scb_uart.h **** #define CY_SCB_UART_RX_UNDERFLOW       (SCB_INTR_RX_UNDERFLOW_Msk)
 757:Generated_Source\PSoC6\pdl\drivers/peripheral/scb/cy_scb_uart.h **** 
 758:Generated_Source\PSoC6\pdl\drivers/peripheral/scb/cy_scb_uart.h **** /** The RX FIFO detected a frame error, either a stop or stop-bit error */
 759:Generated_Source\PSoC6\pdl\drivers/peripheral/scb/cy_scb_uart.h **** #define CY_SCB_UART_RX_ERR_FRAME       (SCB_INTR_RX_FRAME_ERROR_Msk)
 760:Generated_Source\PSoC6\pdl\drivers/peripheral/scb/cy_scb_uart.h **** 
 761:Generated_Source\PSoC6\pdl\drivers/peripheral/scb/cy_scb_uart.h **** /** The RX FIFO detected a parity error */
 762:Generated_Source\PSoC6\pdl\drivers/peripheral/scb/cy_scb_uart.h **** #define CY_SCB_UART_RX_ERR_PARITY      (SCB_INTR_RX_PARITY_ERROR_Msk)
 763:Generated_Source\PSoC6\pdl\drivers/peripheral/scb/cy_scb_uart.h **** 
 764:Generated_Source\PSoC6\pdl\drivers/peripheral/scb/cy_scb_uart.h **** /** The RX FIFO detected a break transmission from the transmitter */
 765:Generated_Source\PSoC6\pdl\drivers/peripheral/scb/cy_scb_uart.h **** #define CY_SCB_UART_RX_BREAK_DETECT    (SCB_INTR_RX_BREAK_DETECT_Msk)
 766:Generated_Source\PSoC6\pdl\drivers/peripheral/scb/cy_scb_uart.h **** /** \} group_scb_uart_macros_rx_fifo_status */
 767:Generated_Source\PSoC6\pdl\drivers/peripheral/scb/cy_scb_uart.h **** 
 768:Generated_Source\PSoC6\pdl\drivers/peripheral/scb/cy_scb_uart.h **** /**
 769:Generated_Source\PSoC6\pdl\drivers/peripheral/scb/cy_scb_uart.h **** * \defgroup group_scb_uart_macros_tx_fifo_status UART TX FIFO Statuses
 770:Generated_Source\PSoC6\pdl\drivers/peripheral/scb/cy_scb_uart.h **** * \{
 771:Generated_Source\PSoC6\pdl\drivers/peripheral/scb/cy_scb_uart.h **** */
 772:Generated_Source\PSoC6\pdl\drivers/peripheral/scb/cy_scb_uart.h **** /** The number of entries in the TX FIFO is less than the TX FIFO trigger level
 773:Generated_Source\PSoC6\pdl\drivers/peripheral/scb/cy_scb_uart.h **** * value
 774:Generated_Source\PSoC6\pdl\drivers/peripheral/scb/cy_scb_uart.h **** */
 775:Generated_Source\PSoC6\pdl\drivers/peripheral/scb/cy_scb_uart.h **** #define CY_SCB_UART_TX_TRIGGER     (SCB_INTR_TX_TRIGGER_Msk)
 776:Generated_Source\PSoC6\pdl\drivers/peripheral/scb/cy_scb_uart.h **** 
 777:Generated_Source\PSoC6\pdl\drivers/peripheral/scb/cy_scb_uart.h **** /** The TX FIFO is not full, there is a space for more data */
 778:Generated_Source\PSoC6\pdl\drivers/peripheral/scb/cy_scb_uart.h **** #define CY_SCB_UART_TX_NOT_FULL    (SCB_INTR_TX_NOT_FULL_Msk)
 779:Generated_Source\PSoC6\pdl\drivers/peripheral/scb/cy_scb_uart.h **** 
 780:Generated_Source\PSoC6\pdl\drivers/peripheral/scb/cy_scb_uart.h **** /** The TX FIFO is empty, note there may still be data in the shift register.*/
 781:Generated_Source\PSoC6\pdl\drivers/peripheral/scb/cy_scb_uart.h **** #define CY_SCB_UART_TX_EMPTY       (SCB_INTR_TX_EMPTY_Msk)
 782:Generated_Source\PSoC6\pdl\drivers/peripheral/scb/cy_scb_uart.h **** 
 783:Generated_Source\PSoC6\pdl\drivers/peripheral/scb/cy_scb_uart.h **** /** An attempt to write to the full TX FIFO */
 784:Generated_Source\PSoC6\pdl\drivers/peripheral/scb/cy_scb_uart.h **** #define CY_SCB_UART_TX_OVERFLOW    (SCB_INTR_TX_OVERFLOW_Msk)
ARM GAS  C:\Users\salaz\AppData\Local\Temp\ccmUlyJK.s 			page 29


 785:Generated_Source\PSoC6\pdl\drivers/peripheral/scb/cy_scb_uart.h **** 
 786:Generated_Source\PSoC6\pdl\drivers/peripheral/scb/cy_scb_uart.h **** /** An attempt to read from an empty transmitter FIFO (hardware reads). */
 787:Generated_Source\PSoC6\pdl\drivers/peripheral/scb/cy_scb_uart.h **** #define CY_SCB_UART_TX_UNDERFLOW (SCB_INTR_TX_UNDERFLOW_Msk)
 788:Generated_Source\PSoC6\pdl\drivers/peripheral/scb/cy_scb_uart.h **** 
 789:Generated_Source\PSoC6\pdl\drivers/peripheral/scb/cy_scb_uart.h **** /** All data has been transmitted out of the FIFO, including shifter */
 790:Generated_Source\PSoC6\pdl\drivers/peripheral/scb/cy_scb_uart.h **** #define CY_SCB_UART_TX_DONE        (SCB_INTR_TX_UART_DONE_Msk)
 791:Generated_Source\PSoC6\pdl\drivers/peripheral/scb/cy_scb_uart.h **** 
 792:Generated_Source\PSoC6\pdl\drivers/peripheral/scb/cy_scb_uart.h **** /** SmartCard only: the transmitter received a NACK */
 793:Generated_Source\PSoC6\pdl\drivers/peripheral/scb/cy_scb_uart.h **** #define CY_SCB_UART_TX_NACK        (SCB_INTR_TX_UART_NACK_Msk)
 794:Generated_Source\PSoC6\pdl\drivers/peripheral/scb/cy_scb_uart.h **** 
 795:Generated_Source\PSoC6\pdl\drivers/peripheral/scb/cy_scb_uart.h **** /** SmartCard only: the transmitter lost arbitration */
 796:Generated_Source\PSoC6\pdl\drivers/peripheral/scb/cy_scb_uart.h **** #define CY_SCB_UART_TX_ARB_LOST    (SCB_INTR_TX_UART_ARB_LOST_Msk)
 797:Generated_Source\PSoC6\pdl\drivers/peripheral/scb/cy_scb_uart.h **** /** \} group_scb_uart_macros_tx_fifo_status */
 798:Generated_Source\PSoC6\pdl\drivers/peripheral/scb/cy_scb_uart.h **** 
 799:Generated_Source\PSoC6\pdl\drivers/peripheral/scb/cy_scb_uart.h **** /**
 800:Generated_Source\PSoC6\pdl\drivers/peripheral/scb/cy_scb_uart.h **** * \defgroup group_scb_uart_macros_receive_status UART Receive Statuses
 801:Generated_Source\PSoC6\pdl\drivers/peripheral/scb/cy_scb_uart.h **** * \{
 802:Generated_Source\PSoC6\pdl\drivers/peripheral/scb/cy_scb_uart.h **** */
 803:Generated_Source\PSoC6\pdl\drivers/peripheral/scb/cy_scb_uart.h **** /** The receive operation started by \ref Cy_SCB_UART_Receive is in progress */
 804:Generated_Source\PSoC6\pdl\drivers/peripheral/scb/cy_scb_uart.h **** #define CY_SCB_UART_RECEIVE_ACTIVE         (0x01UL)
 805:Generated_Source\PSoC6\pdl\drivers/peripheral/scb/cy_scb_uart.h **** 
 806:Generated_Source\PSoC6\pdl\drivers/peripheral/scb/cy_scb_uart.h **** /**
 807:Generated_Source\PSoC6\pdl\drivers/peripheral/scb/cy_scb_uart.h **** * The hardware RX FIFO was full and there was an attempt to write to it.
 808:Generated_Source\PSoC6\pdl\drivers/peripheral/scb/cy_scb_uart.h **** * That additional data was dropped.
 809:Generated_Source\PSoC6\pdl\drivers/peripheral/scb/cy_scb_uart.h **** */
 810:Generated_Source\PSoC6\pdl\drivers/peripheral/scb/cy_scb_uart.h **** #define CY_SCB_UART_RECEIVE_OVERFLOW       (SCB_INTR_RX_OVERFLOW_Msk)
 811:Generated_Source\PSoC6\pdl\drivers/peripheral/scb/cy_scb_uart.h **** 
 812:Generated_Source\PSoC6\pdl\drivers/peripheral/scb/cy_scb_uart.h **** /** The receive hardware detected a frame error, either a start or
 813:Generated_Source\PSoC6\pdl\drivers/peripheral/scb/cy_scb_uart.h **** * stop bit error
 814:Generated_Source\PSoC6\pdl\drivers/peripheral/scb/cy_scb_uart.h **** */
 815:Generated_Source\PSoC6\pdl\drivers/peripheral/scb/cy_scb_uart.h **** #define CY_SCB_UART_RECEIVE_ERR_FRAME      (SCB_INTR_RX_FRAME_ERROR_Msk)
 816:Generated_Source\PSoC6\pdl\drivers/peripheral/scb/cy_scb_uart.h **** 
 817:Generated_Source\PSoC6\pdl\drivers/peripheral/scb/cy_scb_uart.h **** /** The receive hardware detected a parity error */
 818:Generated_Source\PSoC6\pdl\drivers/peripheral/scb/cy_scb_uart.h **** #define CY_SCB_UART_RECEIVE_ERR_PARITY     (SCB_INTR_RX_PARITY_ERROR_Msk)
 819:Generated_Source\PSoC6\pdl\drivers/peripheral/scb/cy_scb_uart.h **** 
 820:Generated_Source\PSoC6\pdl\drivers/peripheral/scb/cy_scb_uart.h **** /** The receive hardware detected a break transmission from transmitter */
 821:Generated_Source\PSoC6\pdl\drivers/peripheral/scb/cy_scb_uart.h **** #define CY_SCB_UART_RECEIVE_BREAK_DETECT   (SCB_INTR_RX_BREAK_DETECT_Msk)
 822:Generated_Source\PSoC6\pdl\drivers/peripheral/scb/cy_scb_uart.h **** /** \} group_scb_uart_macros_receive_status */
 823:Generated_Source\PSoC6\pdl\drivers/peripheral/scb/cy_scb_uart.h **** 
 824:Generated_Source\PSoC6\pdl\drivers/peripheral/scb/cy_scb_uart.h **** /**
 825:Generated_Source\PSoC6\pdl\drivers/peripheral/scb/cy_scb_uart.h **** * \defgroup group_scb_uart_macros_transmit_status UART Transmit Status
 826:Generated_Source\PSoC6\pdl\drivers/peripheral/scb/cy_scb_uart.h **** * \{
 827:Generated_Source\PSoC6\pdl\drivers/peripheral/scb/cy_scb_uart.h **** */
 828:Generated_Source\PSoC6\pdl\drivers/peripheral/scb/cy_scb_uart.h **** /** The transmit operation started by \ref Cy_SCB_UART_Transmit is in progress */
 829:Generated_Source\PSoC6\pdl\drivers/peripheral/scb/cy_scb_uart.h **** #define CY_SCB_UART_TRANSMIT_ACTIVE    (0x01UL)
 830:Generated_Source\PSoC6\pdl\drivers/peripheral/scb/cy_scb_uart.h **** 
 831:Generated_Source\PSoC6\pdl\drivers/peripheral/scb/cy_scb_uart.h **** /**
 832:Generated_Source\PSoC6\pdl\drivers/peripheral/scb/cy_scb_uart.h **** * All data elements specified by \ref Cy_SCB_UART_Transmit have been loaded
 833:Generated_Source\PSoC6\pdl\drivers/peripheral/scb/cy_scb_uart.h **** * into the TX FIFO
 834:Generated_Source\PSoC6\pdl\drivers/peripheral/scb/cy_scb_uart.h **** */
 835:Generated_Source\PSoC6\pdl\drivers/peripheral/scb/cy_scb_uart.h **** #define CY_SCB_UART_TRANSMIT_IN_FIFO   (0x02UL)
 836:Generated_Source\PSoC6\pdl\drivers/peripheral/scb/cy_scb_uart.h **** 
 837:Generated_Source\PSoC6\pdl\drivers/peripheral/scb/cy_scb_uart.h **** /** SmartCard only: the transmitter received a NACK */
 838:Generated_Source\PSoC6\pdl\drivers/peripheral/scb/cy_scb_uart.h **** #define CY_SCB_UART_TRANSMIT_NACK      (SCB_INTR_TX_UART_NACK_Msk)
 839:Generated_Source\PSoC6\pdl\drivers/peripheral/scb/cy_scb_uart.h **** 
 840:Generated_Source\PSoC6\pdl\drivers/peripheral/scb/cy_scb_uart.h **** /** SmartCard only: the transmitter lost arbitration */
 841:Generated_Source\PSoC6\pdl\drivers/peripheral/scb/cy_scb_uart.h **** #define CY_SCB_UART_TRANSMIT_ARB_LOST  (SCB_INTR_TX_UART_ARB_LOST_Msk)
ARM GAS  C:\Users\salaz\AppData\Local\Temp\ccmUlyJK.s 			page 30


 842:Generated_Source\PSoC6\pdl\drivers/peripheral/scb/cy_scb_uart.h **** /** \} group_scb_uart_macros_transmit_status */
 843:Generated_Source\PSoC6\pdl\drivers/peripheral/scb/cy_scb_uart.h **** 
 844:Generated_Source\PSoC6\pdl\drivers/peripheral/scb/cy_scb_uart.h **** /**
 845:Generated_Source\PSoC6\pdl\drivers/peripheral/scb/cy_scb_uart.h **** * \defgroup group_scb_uart_macros_callback_events UART Callback Events
 846:Generated_Source\PSoC6\pdl\drivers/peripheral/scb/cy_scb_uart.h **** * \{
 847:Generated_Source\PSoC6\pdl\drivers/peripheral/scb/cy_scb_uart.h **** * Only single event is notified by the callback.
 848:Generated_Source\PSoC6\pdl\drivers/peripheral/scb/cy_scb_uart.h **** */
 849:Generated_Source\PSoC6\pdl\drivers/peripheral/scb/cy_scb_uart.h **** /**
 850:Generated_Source\PSoC6\pdl\drivers/peripheral/scb/cy_scb_uart.h **** * All data elements specified by \ref Cy_SCB_UART_Transmit have been loaded
 851:Generated_Source\PSoC6\pdl\drivers/peripheral/scb/cy_scb_uart.h **** * into the TX FIFO
 852:Generated_Source\PSoC6\pdl\drivers/peripheral/scb/cy_scb_uart.h **** */
 853:Generated_Source\PSoC6\pdl\drivers/peripheral/scb/cy_scb_uart.h **** #define CY_SCB_UART_TRANSMIT_IN_FIFO_EVENT (0x01UL)
 854:Generated_Source\PSoC6\pdl\drivers/peripheral/scb/cy_scb_uart.h **** 
 855:Generated_Source\PSoC6\pdl\drivers/peripheral/scb/cy_scb_uart.h **** /** The transmit operation started by \ref Cy_SCB_UART_Transmit is complete */
 856:Generated_Source\PSoC6\pdl\drivers/peripheral/scb/cy_scb_uart.h **** #define CY_SCB_UART_TRANSMIT_DONE_EVENT    (0x02UL)
 857:Generated_Source\PSoC6\pdl\drivers/peripheral/scb/cy_scb_uart.h **** 
 858:Generated_Source\PSoC6\pdl\drivers/peripheral/scb/cy_scb_uart.h **** /** The receive operation started by \ref Cy_SCB_UART_Receive is complete */
 859:Generated_Source\PSoC6\pdl\drivers/peripheral/scb/cy_scb_uart.h **** #define CY_SCB_UART_RECEIVE_DONE_EVENT     (0x04UL)
 860:Generated_Source\PSoC6\pdl\drivers/peripheral/scb/cy_scb_uart.h **** 
 861:Generated_Source\PSoC6\pdl\drivers/peripheral/scb/cy_scb_uart.h **** /**
 862:Generated_Source\PSoC6\pdl\drivers/peripheral/scb/cy_scb_uart.h **** * The ring buffer is full, there is no more space for additional data.
 863:Generated_Source\PSoC6\pdl\drivers/peripheral/scb/cy_scb_uart.h **** * Additional data is stored in the RX FIFO until it becomes full, at which
 864:Generated_Source\PSoC6\pdl\drivers/peripheral/scb/cy_scb_uart.h **** * point data is dropped.
 865:Generated_Source\PSoC6\pdl\drivers/peripheral/scb/cy_scb_uart.h **** */
 866:Generated_Source\PSoC6\pdl\drivers/peripheral/scb/cy_scb_uart.h **** #define CY_SCB_UART_RB_FULL_EVENT          (0x08UL)
 867:Generated_Source\PSoC6\pdl\drivers/peripheral/scb/cy_scb_uart.h **** 
 868:Generated_Source\PSoC6\pdl\drivers/peripheral/scb/cy_scb_uart.h **** /**
 869:Generated_Source\PSoC6\pdl\drivers/peripheral/scb/cy_scb_uart.h **** * An error was detected during the receive operation. This includes overflow,
 870:Generated_Source\PSoC6\pdl\drivers/peripheral/scb/cy_scb_uart.h **** * frame error, or parity error. Check \ref Cy_SCB_UART_GetReceiveStatus to
 871:Generated_Source\PSoC6\pdl\drivers/peripheral/scb/cy_scb_uart.h **** * determine the source of the error.
 872:Generated_Source\PSoC6\pdl\drivers/peripheral/scb/cy_scb_uart.h **** */
 873:Generated_Source\PSoC6\pdl\drivers/peripheral/scb/cy_scb_uart.h **** #define CY_SCB_UART_RECEIVE_ERR_EVENT      (0x10UL)
 874:Generated_Source\PSoC6\pdl\drivers/peripheral/scb/cy_scb_uart.h **** 
 875:Generated_Source\PSoC6\pdl\drivers/peripheral/scb/cy_scb_uart.h **** /**
 876:Generated_Source\PSoC6\pdl\drivers/peripheral/scb/cy_scb_uart.h **** * An error was detected during the transmit operation. This includes a NACK
 877:Generated_Source\PSoC6\pdl\drivers/peripheral/scb/cy_scb_uart.h **** * or lost arbitration. Check \ref Cy_SCB_UART_GetTransmitStatus to determine
 878:Generated_Source\PSoC6\pdl\drivers/peripheral/scb/cy_scb_uart.h **** * the source of the error
 879:Generated_Source\PSoC6\pdl\drivers/peripheral/scb/cy_scb_uart.h **** */
 880:Generated_Source\PSoC6\pdl\drivers/peripheral/scb/cy_scb_uart.h **** #define CY_SCB_UART_TRANSMIT_ERR_EVENT     (0x20UL)
 881:Generated_Source\PSoC6\pdl\drivers/peripheral/scb/cy_scb_uart.h **** /** \} group_scb_uart_macros_callback_events */
 882:Generated_Source\PSoC6\pdl\drivers/peripheral/scb/cy_scb_uart.h **** 
 883:Generated_Source\PSoC6\pdl\drivers/peripheral/scb/cy_scb_uart.h **** /** Data returned by the hardware when an empty RX FIFO is read */
 884:Generated_Source\PSoC6\pdl\drivers/peripheral/scb/cy_scb_uart.h **** #define CY_SCB_UART_RX_NO_DATA         (0xFFFFFFFFUL)
 885:Generated_Source\PSoC6\pdl\drivers/peripheral/scb/cy_scb_uart.h **** 
 886:Generated_Source\PSoC6\pdl\drivers/peripheral/scb/cy_scb_uart.h **** 
 887:Generated_Source\PSoC6\pdl\drivers/peripheral/scb/cy_scb_uart.h **** /***************************************
 888:Generated_Source\PSoC6\pdl\drivers/peripheral/scb/cy_scb_uart.h **** *         Internal Constants
 889:Generated_Source\PSoC6\pdl\drivers/peripheral/scb/cy_scb_uart.h **** ***************************************/
 890:Generated_Source\PSoC6\pdl\drivers/peripheral/scb/cy_scb_uart.h **** 
 891:Generated_Source\PSoC6\pdl\drivers/peripheral/scb/cy_scb_uart.h **** /** \cond INTERNAL */
 892:Generated_Source\PSoC6\pdl\drivers/peripheral/scb/cy_scb_uart.h **** #define CY_SCB_UART_TX_INTR_MASK    (CY_SCB_UART_TX_TRIGGER  | CY_SCB_UART_TX_NOT_FULL  | CY_SCB_UA
 893:Generated_Source\PSoC6\pdl\drivers/peripheral/scb/cy_scb_uart.h ****                                      CY_SCB_UART_TX_OVERFLOW | CY_SCB_UART_TX_UNDERFLOW | CY_SCB_UA
 894:Generated_Source\PSoC6\pdl\drivers/peripheral/scb/cy_scb_uart.h ****                                      CY_SCB_UART_TX_NACK     | CY_SCB_UART_TX_ARB_LOST)
 895:Generated_Source\PSoC6\pdl\drivers/peripheral/scb/cy_scb_uart.h **** 
 896:Generated_Source\PSoC6\pdl\drivers/peripheral/scb/cy_scb_uart.h **** #define CY_SCB_UART_RX_INTR_MASK    (CY_SCB_UART_RX_TRIGGER    | CY_SCB_UART_RX_NOT_EMPTY | CY_SCB_
 897:Generated_Source\PSoC6\pdl\drivers/peripheral/scb/cy_scb_uart.h ****                                      CY_SCB_UART_RX_OVERFLOW   | CY_SCB_UART_RX_UNDERFLOW | CY_SCB_
 898:Generated_Source\PSoC6\pdl\drivers/peripheral/scb/cy_scb_uart.h ****                                      CY_SCB_UART_RX_ERR_PARITY | CY_SCB_UART_RX_BREAK_DETECT)
ARM GAS  C:\Users\salaz\AppData\Local\Temp\ccmUlyJK.s 			page 31


 899:Generated_Source\PSoC6\pdl\drivers/peripheral/scb/cy_scb_uart.h **** 
 900:Generated_Source\PSoC6\pdl\drivers/peripheral/scb/cy_scb_uart.h **** #define CY_SCB_UART_TX_INTR        (CY_SCB_TX_INTR_LEVEL | CY_SCB_TX_INTR_UART_NACK | CY_SCB_TX_INT
 901:Generated_Source\PSoC6\pdl\drivers/peripheral/scb/cy_scb_uart.h **** 
 902:Generated_Source\PSoC6\pdl\drivers/peripheral/scb/cy_scb_uart.h **** #define CY_SCB_UART_RX_INTR        (CY_SCB_RX_INTR_LEVEL | CY_SCB_RX_INTR_OVERFLOW | CY_SCB_RX_INTR
 903:Generated_Source\PSoC6\pdl\drivers/peripheral/scb/cy_scb_uart.h ****                                     CY_SCB_RX_INTR_UART_PARITY_ERROR | CY_SCB_RX_INTR_UART_BREAK_DE
 904:Generated_Source\PSoC6\pdl\drivers/peripheral/scb/cy_scb_uart.h **** 
 905:Generated_Source\PSoC6\pdl\drivers/peripheral/scb/cy_scb_uart.h **** #define CY_SCB_UART_RECEIVE_ERR    (CY_SCB_RX_INTR_OVERFLOW | CY_SCB_RX_INTR_UART_FRAME_ERROR | \
 906:Generated_Source\PSoC6\pdl\drivers/peripheral/scb/cy_scb_uart.h ****                                     CY_SCB_RX_INTR_UART_PARITY_ERROR)
 907:Generated_Source\PSoC6\pdl\drivers/peripheral/scb/cy_scb_uart.h **** 
 908:Generated_Source\PSoC6\pdl\drivers/peripheral/scb/cy_scb_uart.h **** #define CY_SCB_UART_TRANSMIT_ERR   (CY_SCB_TX_INTR_UART_NACK | CY_SCB_TX_INTR_UART_ARB_LOST)
 909:Generated_Source\PSoC6\pdl\drivers/peripheral/scb/cy_scb_uart.h **** 
 910:Generated_Source\PSoC6\pdl\drivers/peripheral/scb/cy_scb_uart.h **** #define CY_SCB_UART_INIT_KEY       (0x00ABCDEFUL)
 911:Generated_Source\PSoC6\pdl\drivers/peripheral/scb/cy_scb_uart.h **** 
 912:Generated_Source\PSoC6\pdl\drivers/peripheral/scb/cy_scb_uart.h **** #define CY_SCB_UART_IS_MODE_VALID(mode)     ( (CY_SCB_UART_STANDARD  == (mode)) || \
 913:Generated_Source\PSoC6\pdl\drivers/peripheral/scb/cy_scb_uart.h ****                                               (CY_SCB_UART_SMARTCARD == (mode)) || \
 914:Generated_Source\PSoC6\pdl\drivers/peripheral/scb/cy_scb_uart.h ****                                               (CY_SCB_UART_IRDA      == (mode)) )
 915:Generated_Source\PSoC6\pdl\drivers/peripheral/scb/cy_scb_uart.h **** 
 916:Generated_Source\PSoC6\pdl\drivers/peripheral/scb/cy_scb_uart.h **** #define CY_SCB_UART_IS_STOP_BITS_VALID(stopBits)    ( (CY_SCB_UART_STOP_BITS_1   == (stopBits)) || 
 917:Generated_Source\PSoC6\pdl\drivers/peripheral/scb/cy_scb_uart.h ****                                                       (CY_SCB_UART_STOP_BITS_1_5 == (stopBits)) || 
 918:Generated_Source\PSoC6\pdl\drivers/peripheral/scb/cy_scb_uart.h ****                                                       (CY_SCB_UART_STOP_BITS_2   == (stopBits)) || 
 919:Generated_Source\PSoC6\pdl\drivers/peripheral/scb/cy_scb_uart.h ****                                                       (CY_SCB_UART_STOP_BITS_2_5 == (stopBits)) || 
 920:Generated_Source\PSoC6\pdl\drivers/peripheral/scb/cy_scb_uart.h ****                                                       (CY_SCB_UART_STOP_BITS_3   == (stopBits)) || 
 921:Generated_Source\PSoC6\pdl\drivers/peripheral/scb/cy_scb_uart.h ****                                                       (CY_SCB_UART_STOP_BITS_3_5 == (stopBits)) || 
 922:Generated_Source\PSoC6\pdl\drivers/peripheral/scb/cy_scb_uart.h ****                                                       (CY_SCB_UART_STOP_BITS_4   == (stopBits)) )
 923:Generated_Source\PSoC6\pdl\drivers/peripheral/scb/cy_scb_uart.h **** 
 924:Generated_Source\PSoC6\pdl\drivers/peripheral/scb/cy_scb_uart.h **** #define CY_SCB_UART_IS_PARITY_VALID(parity)         ( (CY_SCB_UART_PARITY_NONE == (parity)) || \
 925:Generated_Source\PSoC6\pdl\drivers/peripheral/scb/cy_scb_uart.h ****                                                       (CY_SCB_UART_PARITY_EVEN == (parity)) || \
 926:Generated_Source\PSoC6\pdl\drivers/peripheral/scb/cy_scb_uart.h ****                                                       (CY_SCB_UART_PARITY_ODD  == (parity)) )
 927:Generated_Source\PSoC6\pdl\drivers/peripheral/scb/cy_scb_uart.h **** 
 928:Generated_Source\PSoC6\pdl\drivers/peripheral/scb/cy_scb_uart.h **** #define CY_SCB_UART_IS_POLARITY_VALID(polarity)     ( (CY_SCB_UART_ACTIVE_LOW  == (polarity)) || \
 929:Generated_Source\PSoC6\pdl\drivers/peripheral/scb/cy_scb_uart.h ****                                                       (CY_SCB_UART_ACTIVE_HIGH == (polarity)) )
 930:Generated_Source\PSoC6\pdl\drivers/peripheral/scb/cy_scb_uart.h **** 
 931:Generated_Source\PSoC6\pdl\drivers/peripheral/scb/cy_scb_uart.h **** #define CY_SCB_UART_IS_IRDA_LP_OVS_VALID(ovs)       ( (CY_SCB_UART_IRDA_LP_OVS16   == (ovs)) || \
 932:Generated_Source\PSoC6\pdl\drivers/peripheral/scb/cy_scb_uart.h ****                                                       (CY_SCB_UART_IRDA_LP_OVS32   == (ovs)) || \
 933:Generated_Source\PSoC6\pdl\drivers/peripheral/scb/cy_scb_uart.h ****                                                       (CY_SCB_UART_IRDA_LP_OVS48   == (ovs)) || \
 934:Generated_Source\PSoC6\pdl\drivers/peripheral/scb/cy_scb_uart.h ****                                                       (CY_SCB_UART_IRDA_LP_OVS96   == (ovs)) || \
 935:Generated_Source\PSoC6\pdl\drivers/peripheral/scb/cy_scb_uart.h ****                                                       (CY_SCB_UART_IRDA_LP_OVS192  == (ovs)) || \
 936:Generated_Source\PSoC6\pdl\drivers/peripheral/scb/cy_scb_uart.h ****                                                       (CY_SCB_UART_IRDA_LP_OVS768  == (ovs)) || \
 937:Generated_Source\PSoC6\pdl\drivers/peripheral/scb/cy_scb_uart.h ****                                                       (CY_SCB_UART_IRDA_LP_OVS1536 == (ovs)) )
 938:Generated_Source\PSoC6\pdl\drivers/peripheral/scb/cy_scb_uart.h **** 
 939:Generated_Source\PSoC6\pdl\drivers/peripheral/scb/cy_scb_uart.h **** #define CY_SCB_UART_IS_ADDRESS_VALID(addr)          ((addr) <= 0xFFUL)
 940:Generated_Source\PSoC6\pdl\drivers/peripheral/scb/cy_scb_uart.h **** #define CY_SCB_UART_IS_ADDRESS_MASK_VALID(mask)     ((mask) <= 0xFFUL)
 941:Generated_Source\PSoC6\pdl\drivers/peripheral/scb/cy_scb_uart.h **** #define CY_SCB_UART_IS_DATA_WIDTH_VALID(width)      ( ((width) >= 5UL) && ((width) <= 9UL) )
 942:Generated_Source\PSoC6\pdl\drivers/peripheral/scb/cy_scb_uart.h **** #define CY_SCB_UART_IS_OVERSAMPLE_VALID(ovs, mode, lpRx)    ( ((CY_SCB_UART_STANDARD  == (mode)) ||
 943:Generated_Source\PSoC6\pdl\drivers/peripheral/scb/cy_scb_uart.h ****                                                               (((ovs) >= 8UL) && ((ovs) <= 16UL)) :
 944:Generated_Source\PSoC6\pdl\drivers/peripheral/scb/cy_scb_uart.h ****                                                               ((lpRx) ? CY_SCB_UART_IS_IRDA_LP_OVS_
 945:Generated_Source\PSoC6\pdl\drivers/peripheral/scb/cy_scb_uart.h **** 
 946:Generated_Source\PSoC6\pdl\drivers/peripheral/scb/cy_scb_uart.h **** #define CY_SCB_UART_IS_RX_BREAK_WIDTH_VALID(base, width)    ( ((width) >= (_FLD2VAL(SCB_RX_CTRL_DAT
 947:Generated_Source\PSoC6\pdl\drivers/peripheral/scb/cy_scb_uart.h ****                                                               ((width) <= 16UL) )
 948:Generated_Source\PSoC6\pdl\drivers/peripheral/scb/cy_scb_uart.h **** #define CY_SCB_UART_IS_TX_BREAK_WIDTH_VALID(width)          ( ((width) >= 4UL) && ((width) <= 16UL)
 949:Generated_Source\PSoC6\pdl\drivers/peripheral/scb/cy_scb_uart.h **** 
 950:Generated_Source\PSoC6\pdl\drivers/peripheral/scb/cy_scb_uart.h **** #define CY_SCB_UART_IS_MUTLI_PROC_VALID(mp, mode, width, parity)    ( (mp) ? ((CY_SCB_UART_STANDARD
 951:Generated_Source\PSoC6\pdl\drivers/peripheral/scb/cy_scb_uart.h ****                                                                               (CY_SCB_UART_PARITY_N
 952:Generated_Source\PSoC6\pdl\drivers/peripheral/scb/cy_scb_uart.h **** /** \endcond */
 953:Generated_Source\PSoC6\pdl\drivers/peripheral/scb/cy_scb_uart.h **** 
 954:Generated_Source\PSoC6\pdl\drivers/peripheral/scb/cy_scb_uart.h **** /** \} group_scb_uart_macros */
 955:Generated_Source\PSoC6\pdl\drivers/peripheral/scb/cy_scb_uart.h **** 
ARM GAS  C:\Users\salaz\AppData\Local\Temp\ccmUlyJK.s 			page 32


 956:Generated_Source\PSoC6\pdl\drivers/peripheral/scb/cy_scb_uart.h **** 
 957:Generated_Source\PSoC6\pdl\drivers/peripheral/scb/cy_scb_uart.h **** /***************************************
 958:Generated_Source\PSoC6\pdl\drivers/peripheral/scb/cy_scb_uart.h **** *    In-line Function Implementation
 959:Generated_Source\PSoC6\pdl\drivers/peripheral/scb/cy_scb_uart.h **** ***************************************/
 960:Generated_Source\PSoC6\pdl\drivers/peripheral/scb/cy_scb_uart.h **** 
 961:Generated_Source\PSoC6\pdl\drivers/peripheral/scb/cy_scb_uart.h **** /**
 962:Generated_Source\PSoC6\pdl\drivers/peripheral/scb/cy_scb_uart.h **** * \addtogroup group_scb_uart_general_functions
 963:Generated_Source\PSoC6\pdl\drivers/peripheral/scb/cy_scb_uart.h **** * \{
 964:Generated_Source\PSoC6\pdl\drivers/peripheral/scb/cy_scb_uart.h **** */
 965:Generated_Source\PSoC6\pdl\drivers/peripheral/scb/cy_scb_uart.h **** 
 966:Generated_Source\PSoC6\pdl\drivers/peripheral/scb/cy_scb_uart.h **** /*******************************************************************************
 967:Generated_Source\PSoC6\pdl\drivers/peripheral/scb/cy_scb_uart.h **** * Function Name: Cy_SCB_UART_Enable
 968:Generated_Source\PSoC6\pdl\drivers/peripheral/scb/cy_scb_uart.h **** ****************************************************************************//**
 969:Generated_Source\PSoC6\pdl\drivers/peripheral/scb/cy_scb_uart.h **** *
 970:Generated_Source\PSoC6\pdl\drivers/peripheral/scb/cy_scb_uart.h **** * Enables the SCB block for the UART operation.
 971:Generated_Source\PSoC6\pdl\drivers/peripheral/scb/cy_scb_uart.h **** *
 972:Generated_Source\PSoC6\pdl\drivers/peripheral/scb/cy_scb_uart.h **** * \param base
 973:Generated_Source\PSoC6\pdl\drivers/peripheral/scb/cy_scb_uart.h **** * The pointer to the UART SCB instance.
 974:Generated_Source\PSoC6\pdl\drivers/peripheral/scb/cy_scb_uart.h **** *
 975:Generated_Source\PSoC6\pdl\drivers/peripheral/scb/cy_scb_uart.h **** *******************************************************************************/
 976:Generated_Source\PSoC6\pdl\drivers/peripheral/scb/cy_scb_uart.h **** __STATIC_INLINE void Cy_SCB_UART_Enable(CySCB_Type *base)
 977:Generated_Source\PSoC6\pdl\drivers/peripheral/scb/cy_scb_uart.h **** {
 978:Generated_Source\PSoC6\pdl\drivers/peripheral/scb/cy_scb_uart.h ****     base->CTRL |= SCB_CTRL_ENABLED_Msk;
 571              		.loc 3 978 0
 572 000e 2368     		ldr	r3, [r4]
 573 0010 8022     		movs	r2, #128
 574 0012 1206     		lsls	r2, r2, #24
 575 0014 1343     		orrs	r3, r2
 576 0016 2360     		str	r3, [r4]
 577              	.LVL38:
 578              	.LBE33:
 579              	.LBE32:
 580              	.LBE31:
 581              	.LBE30:
  36:KinOS.c       ****     DEBUG_WAIT_UART_TX_COMPLETE();
 582              		.loc 1 36 0
 583 0018 3048     		ldr	r0, .L42+12
 584 001a FFF7FEFF 		bl	puts
 585              	.LVL39:
 586              	.L37:
 587              	.LBB34:
 588              	.LBB35:
 589              		.file 4 "Generated_Source\\PSoC6\\pdl\\drivers/peripheral/scb/cy_scb_common.h"
   1:Generated_Source\PSoC6\pdl\drivers/peripheral/scb/cy_scb_common.h **** /***************************************************************************//**
   2:Generated_Source\PSoC6\pdl\drivers/peripheral/scb/cy_scb_common.h **** * \file cy_scb_common.h
   3:Generated_Source\PSoC6\pdl\drivers/peripheral/scb/cy_scb_common.h **** * \version 2.10
   4:Generated_Source\PSoC6\pdl\drivers/peripheral/scb/cy_scb_common.h **** *
   5:Generated_Source\PSoC6\pdl\drivers/peripheral/scb/cy_scb_common.h **** * Provides common API declarations of the SCB driver.
   6:Generated_Source\PSoC6\pdl\drivers/peripheral/scb/cy_scb_common.h **** *
   7:Generated_Source\PSoC6\pdl\drivers/peripheral/scb/cy_scb_common.h **** ********************************************************************************
   8:Generated_Source\PSoC6\pdl\drivers/peripheral/scb/cy_scb_common.h **** * \copyright
   9:Generated_Source\PSoC6\pdl\drivers/peripheral/scb/cy_scb_common.h **** * Copyright 2016-2018, Cypress Semiconductor Corporation.  All rights reserved.
  10:Generated_Source\PSoC6\pdl\drivers/peripheral/scb/cy_scb_common.h **** * You may use this file only in accordance with the license, terms, conditions,
  11:Generated_Source\PSoC6\pdl\drivers/peripheral/scb/cy_scb_common.h **** * disclaimers, and limitations in the end user license agreement accompanying
  12:Generated_Source\PSoC6\pdl\drivers/peripheral/scb/cy_scb_common.h **** * the software package with which this file was provided.
  13:Generated_Source\PSoC6\pdl\drivers/peripheral/scb/cy_scb_common.h **** *******************************************************************************/
  14:Generated_Source\PSoC6\pdl\drivers/peripheral/scb/cy_scb_common.h **** 
ARM GAS  C:\Users\salaz\AppData\Local\Temp\ccmUlyJK.s 			page 33


  15:Generated_Source\PSoC6\pdl\drivers/peripheral/scb/cy_scb_common.h **** /**
  16:Generated_Source\PSoC6\pdl\drivers/peripheral/scb/cy_scb_common.h **** * \defgroup group_scb Serial Communication Block (SCB)
  17:Generated_Source\PSoC6\pdl\drivers/peripheral/scb/cy_scb_common.h **** * \{
  18:Generated_Source\PSoC6\pdl\drivers/peripheral/scb/cy_scb_common.h **** * \defgroup group_scb_common Common
  19:Generated_Source\PSoC6\pdl\drivers/peripheral/scb/cy_scb_common.h **** * \defgroup group_scb_ezi2c  EZI2C (SCB)
  20:Generated_Source\PSoC6\pdl\drivers/peripheral/scb/cy_scb_common.h **** * \defgroup group_scb_i2c    I2C (SCB)
  21:Generated_Source\PSoC6\pdl\drivers/peripheral/scb/cy_scb_common.h **** * \defgroup group_scb_spi    SPI (SCB)
  22:Generated_Source\PSoC6\pdl\drivers/peripheral/scb/cy_scb_common.h **** * \defgroup group_scb_uart   UART (SCB)
  23:Generated_Source\PSoC6\pdl\drivers/peripheral/scb/cy_scb_common.h **** * \} */
  24:Generated_Source\PSoC6\pdl\drivers/peripheral/scb/cy_scb_common.h **** 
  25:Generated_Source\PSoC6\pdl\drivers/peripheral/scb/cy_scb_common.h **** /**
  26:Generated_Source\PSoC6\pdl\drivers/peripheral/scb/cy_scb_common.h **** * \addtogroup group_scb_common
  27:Generated_Source\PSoC6\pdl\drivers/peripheral/scb/cy_scb_common.h **** * \{
  28:Generated_Source\PSoC6\pdl\drivers/peripheral/scb/cy_scb_common.h **** *
  29:Generated_Source\PSoC6\pdl\drivers/peripheral/scb/cy_scb_common.h **** * Common API for the Serial Communication Block.
  30:Generated_Source\PSoC6\pdl\drivers/peripheral/scb/cy_scb_common.h **** *
  31:Generated_Source\PSoC6\pdl\drivers/peripheral/scb/cy_scb_common.h **** * This is the common API that provides an interface to the SCB hardware.
  32:Generated_Source\PSoC6\pdl\drivers/peripheral/scb/cy_scb_common.h **** * The I2C, SPI, and UART drivers use this common API.
  33:Generated_Source\PSoC6\pdl\drivers/peripheral/scb/cy_scb_common.h **** * Most users will use individual drivers and do not need to use the common
  34:Generated_Source\PSoC6\pdl\drivers/peripheral/scb/cy_scb_common.h **** * API for the SCB. However, you can use the common SCB API to implement
  35:Generated_Source\PSoC6\pdl\drivers/peripheral/scb/cy_scb_common.h **** * a custom driver based on the SCB hardware.
  36:Generated_Source\PSoC6\pdl\drivers/peripheral/scb/cy_scb_common.h **** *
  37:Generated_Source\PSoC6\pdl\drivers/peripheral/scb/cy_scb_common.h **** * \section group_scb_common_configuration Configuration Considerations
  38:Generated_Source\PSoC6\pdl\drivers/peripheral/scb/cy_scb_common.h **** *
  39:Generated_Source\PSoC6\pdl\drivers/peripheral/scb/cy_scb_common.h **** * This is not a driver and it does not require configuration.
  40:Generated_Source\PSoC6\pdl\drivers/peripheral/scb/cy_scb_common.h **** *
  41:Generated_Source\PSoC6\pdl\drivers/peripheral/scb/cy_scb_common.h **** * \section group_scb_common_more_information More Information
  42:Generated_Source\PSoC6\pdl\drivers/peripheral/scb/cy_scb_common.h **** *
  43:Generated_Source\PSoC6\pdl\drivers/peripheral/scb/cy_scb_common.h **** * Refer to the SCB chapter of the technical reference manual (TRM).
  44:Generated_Source\PSoC6\pdl\drivers/peripheral/scb/cy_scb_common.h **** *
  45:Generated_Source\PSoC6\pdl\drivers/peripheral/scb/cy_scb_common.h **** * \section group_scb_common_MISRA MISRA-C Compliance
  46:Generated_Source\PSoC6\pdl\drivers/peripheral/scb/cy_scb_common.h **** * <table class="doxtable">
  47:Generated_Source\PSoC6\pdl\drivers/peripheral/scb/cy_scb_common.h **** *   <tr>
  48:Generated_Source\PSoC6\pdl\drivers/peripheral/scb/cy_scb_common.h **** *     <th>MISRA rule</th>
  49:Generated_Source\PSoC6\pdl\drivers/peripheral/scb/cy_scb_common.h **** *     <th>Rule Class (Required/Advisory)</th>
  50:Generated_Source\PSoC6\pdl\drivers/peripheral/scb/cy_scb_common.h **** *     <th>Rule Description</th>
  51:Generated_Source\PSoC6\pdl\drivers/peripheral/scb/cy_scb_common.h **** *     <th>Description of Deviation(s)</th>
  52:Generated_Source\PSoC6\pdl\drivers/peripheral/scb/cy_scb_common.h **** *   </tr>
  53:Generated_Source\PSoC6\pdl\drivers/peripheral/scb/cy_scb_common.h **** *   <tr>
  54:Generated_Source\PSoC6\pdl\drivers/peripheral/scb/cy_scb_common.h **** *     <td>11.4</td>
  55:Generated_Source\PSoC6\pdl\drivers/peripheral/scb/cy_scb_common.h **** *     <td>A</td>
  56:Generated_Source\PSoC6\pdl\drivers/peripheral/scb/cy_scb_common.h **** *     <td>A cast should not be performed between a pointer to object type and
  57:Generated_Source\PSoC6\pdl\drivers/peripheral/scb/cy_scb_common.h **** *         a different pointer to object type.</td>
  58:Generated_Source\PSoC6\pdl\drivers/peripheral/scb/cy_scb_common.h **** *     <td>The pointer to the buffer memory is void to allow handling of
  59:Generated_Source\PSoC6\pdl\drivers/peripheral/scb/cy_scb_common.h **** *         different data types: uint8_t (4-8 bits) or uint16_t (9-16 bits).
  60:Generated_Source\PSoC6\pdl\drivers/peripheral/scb/cy_scb_common.h **** *         The cast operation is safe because the configuration is verified
  61:Generated_Source\PSoC6\pdl\drivers/peripheral/scb/cy_scb_common.h **** *         before operation is performed.
  62:Generated_Source\PSoC6\pdl\drivers/peripheral/scb/cy_scb_common.h **** *         </td>
  63:Generated_Source\PSoC6\pdl\drivers/peripheral/scb/cy_scb_common.h **** *   </tr>
  64:Generated_Source\PSoC6\pdl\drivers/peripheral/scb/cy_scb_common.h **** * </table>
  65:Generated_Source\PSoC6\pdl\drivers/peripheral/scb/cy_scb_common.h **** *
  66:Generated_Source\PSoC6\pdl\drivers/peripheral/scb/cy_scb_common.h **** * \section group_scb_common_changelog Changelog
  67:Generated_Source\PSoC6\pdl\drivers/peripheral/scb/cy_scb_common.h **** * <table class="doxtable">
  68:Generated_Source\PSoC6\pdl\drivers/peripheral/scb/cy_scb_common.h **** *   <tr><th>Version</th><th>Changes</th><th>Reason for Change</th></tr>
  69:Generated_Source\PSoC6\pdl\drivers/peripheral/scb/cy_scb_common.h **** *   <tr>
  70:Generated_Source\PSoC6\pdl\drivers/peripheral/scb/cy_scb_common.h **** *     <td>2.10</td>
  71:Generated_Source\PSoC6\pdl\drivers/peripheral/scb/cy_scb_common.h **** *     <td>None.</td>
ARM GAS  C:\Users\salaz\AppData\Local\Temp\ccmUlyJK.s 			page 34


  72:Generated_Source\PSoC6\pdl\drivers/peripheral/scb/cy_scb_common.h **** *     <td>SCB I2C driver updated.</td>
  73:Generated_Source\PSoC6\pdl\drivers/peripheral/scb/cy_scb_common.h **** *   </tr>
  74:Generated_Source\PSoC6\pdl\drivers/peripheral/scb/cy_scb_common.h **** *   <tr>
  75:Generated_Source\PSoC6\pdl\drivers/peripheral/scb/cy_scb_common.h **** *     <td rowspan="2"> 2.0</td>
  76:Generated_Source\PSoC6\pdl\drivers/peripheral/scb/cy_scb_common.h **** *     <td>Added parameters validation for public API.
  77:Generated_Source\PSoC6\pdl\drivers/peripheral/scb/cy_scb_common.h **** *     <td></td>
  78:Generated_Source\PSoC6\pdl\drivers/peripheral/scb/cy_scb_common.h **** *   </tr>
  79:Generated_Source\PSoC6\pdl\drivers/peripheral/scb/cy_scb_common.h **** *   <tr>
  80:Generated_Source\PSoC6\pdl\drivers/peripheral/scb/cy_scb_common.h **** *     <td>Fixed functions which return interrupt status to return only defined
  81:Generated_Source\PSoC6\pdl\drivers/peripheral/scb/cy_scb_common.h **** *         set of interrupt statuses.</td>
  82:Generated_Source\PSoC6\pdl\drivers/peripheral/scb/cy_scb_common.h **** *     <td></td>
  83:Generated_Source\PSoC6\pdl\drivers/peripheral/scb/cy_scb_common.h **** *   </tr>
  84:Generated_Source\PSoC6\pdl\drivers/peripheral/scb/cy_scb_common.h **** *   <tr>
  85:Generated_Source\PSoC6\pdl\drivers/peripheral/scb/cy_scb_common.h **** *     <td>1.0</td>
  86:Generated_Source\PSoC6\pdl\drivers/peripheral/scb/cy_scb_common.h **** *     <td>Initial version.</td>
  87:Generated_Source\PSoC6\pdl\drivers/peripheral/scb/cy_scb_common.h **** *     <td></td>
  88:Generated_Source\PSoC6\pdl\drivers/peripheral/scb/cy_scb_common.h **** *   </tr>
  89:Generated_Source\PSoC6\pdl\drivers/peripheral/scb/cy_scb_common.h **** * </table>
  90:Generated_Source\PSoC6\pdl\drivers/peripheral/scb/cy_scb_common.h **** *
  91:Generated_Source\PSoC6\pdl\drivers/peripheral/scb/cy_scb_common.h **** * \defgroup group_scb_common_macros Macros
  92:Generated_Source\PSoC6\pdl\drivers/peripheral/scb/cy_scb_common.h **** * \defgroup group_scb_common_functions Functions
  93:Generated_Source\PSoC6\pdl\drivers/peripheral/scb/cy_scb_common.h **** * \defgroup group_scb_common_data_structures Data Structures
  94:Generated_Source\PSoC6\pdl\drivers/peripheral/scb/cy_scb_common.h **** *
  95:Generated_Source\PSoC6\pdl\drivers/peripheral/scb/cy_scb_common.h **** */
  96:Generated_Source\PSoC6\pdl\drivers/peripheral/scb/cy_scb_common.h **** 
  97:Generated_Source\PSoC6\pdl\drivers/peripheral/scb/cy_scb_common.h **** #if !defined(CY_SCB_COMMON_H)
  98:Generated_Source\PSoC6\pdl\drivers/peripheral/scb/cy_scb_common.h **** #define CY_SCB_COMMON_H
  99:Generated_Source\PSoC6\pdl\drivers/peripheral/scb/cy_scb_common.h **** 
 100:Generated_Source\PSoC6\pdl\drivers/peripheral/scb/cy_scb_common.h **** #include <stdint.h>
 101:Generated_Source\PSoC6\pdl\drivers/peripheral/scb/cy_scb_common.h **** #include <stddef.h>
 102:Generated_Source\PSoC6\pdl\drivers/peripheral/scb/cy_scb_common.h **** #include <stdbool.h>
 103:Generated_Source\PSoC6\pdl\drivers/peripheral/scb/cy_scb_common.h **** #include "cy_device_headers.h"
 104:Generated_Source\PSoC6\pdl\drivers/peripheral/scb/cy_scb_common.h **** #include "syslib/cy_syslib.h"
 105:Generated_Source\PSoC6\pdl\drivers/peripheral/scb/cy_scb_common.h **** #include "syspm/cy_syspm.h"
 106:Generated_Source\PSoC6\pdl\drivers/peripheral/scb/cy_scb_common.h **** 
 107:Generated_Source\PSoC6\pdl\drivers/peripheral/scb/cy_scb_common.h **** #ifndef CY_IP_MXSCB
 108:Generated_Source\PSoC6\pdl\drivers/peripheral/scb/cy_scb_common.h ****     #error "The SCB driver is not supported on this device"
 109:Generated_Source\PSoC6\pdl\drivers/peripheral/scb/cy_scb_common.h **** #endif
 110:Generated_Source\PSoC6\pdl\drivers/peripheral/scb/cy_scb_common.h **** 
 111:Generated_Source\PSoC6\pdl\drivers/peripheral/scb/cy_scb_common.h **** #if defined(__cplusplus)
 112:Generated_Source\PSoC6\pdl\drivers/peripheral/scb/cy_scb_common.h **** extern "C" {
 113:Generated_Source\PSoC6\pdl\drivers/peripheral/scb/cy_scb_common.h **** #endif
 114:Generated_Source\PSoC6\pdl\drivers/peripheral/scb/cy_scb_common.h **** 
 115:Generated_Source\PSoC6\pdl\drivers/peripheral/scb/cy_scb_common.h **** 
 116:Generated_Source\PSoC6\pdl\drivers/peripheral/scb/cy_scb_common.h **** /***************************************
 117:Generated_Source\PSoC6\pdl\drivers/peripheral/scb/cy_scb_common.h **** *        Function Prototypes
 118:Generated_Source\PSoC6\pdl\drivers/peripheral/scb/cy_scb_common.h **** ***************************************/
 119:Generated_Source\PSoC6\pdl\drivers/peripheral/scb/cy_scb_common.h **** 
 120:Generated_Source\PSoC6\pdl\drivers/peripheral/scb/cy_scb_common.h **** /**
 121:Generated_Source\PSoC6\pdl\drivers/peripheral/scb/cy_scb_common.h **** * \addtogroup group_scb_common_functions
 122:Generated_Source\PSoC6\pdl\drivers/peripheral/scb/cy_scb_common.h **** * \{
 123:Generated_Source\PSoC6\pdl\drivers/peripheral/scb/cy_scb_common.h **** */
 124:Generated_Source\PSoC6\pdl\drivers/peripheral/scb/cy_scb_common.h **** __STATIC_INLINE uint32_t Cy_SCB_ReadRxFifo    (CySCB_Type const *base);
 125:Generated_Source\PSoC6\pdl\drivers/peripheral/scb/cy_scb_common.h **** __STATIC_INLINE void     Cy_SCB_SetRxFifoLevel(CySCB_Type *base, uint32_t level);
 126:Generated_Source\PSoC6\pdl\drivers/peripheral/scb/cy_scb_common.h **** __STATIC_INLINE uint32_t Cy_SCB_GetNumInRxFifo(CySCB_Type const *base);
 127:Generated_Source\PSoC6\pdl\drivers/peripheral/scb/cy_scb_common.h **** __STATIC_INLINE uint32_t Cy_SCB_GetRxSrValid  (CySCB_Type const *base);
 128:Generated_Source\PSoC6\pdl\drivers/peripheral/scb/cy_scb_common.h **** __STATIC_INLINE void     Cy_SCB_ClearRxFifo   (CySCB_Type *base);
ARM GAS  C:\Users\salaz\AppData\Local\Temp\ccmUlyJK.s 			page 35


 129:Generated_Source\PSoC6\pdl\drivers/peripheral/scb/cy_scb_common.h **** 
 130:Generated_Source\PSoC6\pdl\drivers/peripheral/scb/cy_scb_common.h **** __STATIC_INLINE void     Cy_SCB_WriteTxFifo   (CySCB_Type *base, uint32_t data);
 131:Generated_Source\PSoC6\pdl\drivers/peripheral/scb/cy_scb_common.h **** __STATIC_INLINE void     Cy_SCB_SetTxFifoLevel(CySCB_Type *base, uint32_t level);
 132:Generated_Source\PSoC6\pdl\drivers/peripheral/scb/cy_scb_common.h **** __STATIC_INLINE uint32_t Cy_SCB_GetNumInTxFifo(CySCB_Type const *base);
 133:Generated_Source\PSoC6\pdl\drivers/peripheral/scb/cy_scb_common.h **** __STATIC_INLINE uint32_t Cy_SCB_GetTxSrValid  (CySCB_Type const *base);
 134:Generated_Source\PSoC6\pdl\drivers/peripheral/scb/cy_scb_common.h **** __STATIC_INLINE bool     Cy_SCB_IsTxComplete  (CySCB_Type const *base);
 135:Generated_Source\PSoC6\pdl\drivers/peripheral/scb/cy_scb_common.h **** __STATIC_INLINE void     Cy_SCB_ClearTxFifo   (CySCB_Type *base);
 136:Generated_Source\PSoC6\pdl\drivers/peripheral/scb/cy_scb_common.h **** 
 137:Generated_Source\PSoC6\pdl\drivers/peripheral/scb/cy_scb_common.h **** __STATIC_INLINE void     Cy_SCB_SetByteMode(CySCB_Type *base, bool byteMode);
 138:Generated_Source\PSoC6\pdl\drivers/peripheral/scb/cy_scb_common.h **** 
 139:Generated_Source\PSoC6\pdl\drivers/peripheral/scb/cy_scb_common.h **** __STATIC_INLINE uint32_t Cy_SCB_GetInterruptCause(CySCB_Type const *base);
 140:Generated_Source\PSoC6\pdl\drivers/peripheral/scb/cy_scb_common.h **** 
 141:Generated_Source\PSoC6\pdl\drivers/peripheral/scb/cy_scb_common.h **** __STATIC_INLINE uint32_t Cy_SCB_GetRxInterruptStatus(CySCB_Type const *base);
 142:Generated_Source\PSoC6\pdl\drivers/peripheral/scb/cy_scb_common.h **** __STATIC_INLINE void     Cy_SCB_SetRxInterruptMask  (CySCB_Type *base, uint32_t interruptMask);
 143:Generated_Source\PSoC6\pdl\drivers/peripheral/scb/cy_scb_common.h **** __STATIC_INLINE uint32_t Cy_SCB_GetRxInterruptMask  (CySCB_Type const *base);
 144:Generated_Source\PSoC6\pdl\drivers/peripheral/scb/cy_scb_common.h **** __STATIC_INLINE uint32_t Cy_SCB_GetRxInterruptStatusMasked(CySCB_Type const *base);
 145:Generated_Source\PSoC6\pdl\drivers/peripheral/scb/cy_scb_common.h **** __STATIC_INLINE void     Cy_SCB_ClearRxInterrupt    (CySCB_Type *base, uint32_t interruptMask);
 146:Generated_Source\PSoC6\pdl\drivers/peripheral/scb/cy_scb_common.h **** __STATIC_INLINE void     Cy_SCB_SetRxInterrupt      (CySCB_Type *base, uint32_t interruptMask);
 147:Generated_Source\PSoC6\pdl\drivers/peripheral/scb/cy_scb_common.h **** 
 148:Generated_Source\PSoC6\pdl\drivers/peripheral/scb/cy_scb_common.h **** __STATIC_INLINE uint32_t Cy_SCB_GetTxInterruptStatus(CySCB_Type const *base);
 149:Generated_Source\PSoC6\pdl\drivers/peripheral/scb/cy_scb_common.h **** __STATIC_INLINE void     Cy_SCB_SetTxInterruptMask  (CySCB_Type *base, uint32_t interruptMask);
 150:Generated_Source\PSoC6\pdl\drivers/peripheral/scb/cy_scb_common.h **** __STATIC_INLINE uint32_t Cy_SCB_GetTxInterruptMask  (CySCB_Type const *base);
 151:Generated_Source\PSoC6\pdl\drivers/peripheral/scb/cy_scb_common.h **** __STATIC_INLINE uint32_t Cy_SCB_GetTxInterruptStatusMasked(CySCB_Type const *base);
 152:Generated_Source\PSoC6\pdl\drivers/peripheral/scb/cy_scb_common.h **** __STATIC_INLINE void     Cy_SCB_ClearTxInterrupt    (CySCB_Type *base, uint32_t interruptMask);
 153:Generated_Source\PSoC6\pdl\drivers/peripheral/scb/cy_scb_common.h **** __STATIC_INLINE void     Cy_SCB_SetTxInterrupt      (CySCB_Type *base, uint32_t interruptMask);
 154:Generated_Source\PSoC6\pdl\drivers/peripheral/scb/cy_scb_common.h **** 
 155:Generated_Source\PSoC6\pdl\drivers/peripheral/scb/cy_scb_common.h **** __STATIC_INLINE uint32_t Cy_SCB_GetMasterInterruptStatus(CySCB_Type const *base);
 156:Generated_Source\PSoC6\pdl\drivers/peripheral/scb/cy_scb_common.h **** __STATIC_INLINE void     Cy_SCB_SetMasterInterruptMask  (CySCB_Type *base, uint32_t interruptMask);
 157:Generated_Source\PSoC6\pdl\drivers/peripheral/scb/cy_scb_common.h **** __STATIC_INLINE uint32_t Cy_SCB_GetMasterInterruptMask  (CySCB_Type const *base);
 158:Generated_Source\PSoC6\pdl\drivers/peripheral/scb/cy_scb_common.h **** __STATIC_INLINE uint32_t Cy_SCB_GetMasterInterruptStatusMasked(CySCB_Type const *base);
 159:Generated_Source\PSoC6\pdl\drivers/peripheral/scb/cy_scb_common.h **** __STATIC_INLINE void     Cy_SCB_ClearMasterInterrupt    (CySCB_Type *base, uint32_t interruptMask);
 160:Generated_Source\PSoC6\pdl\drivers/peripheral/scb/cy_scb_common.h **** __STATIC_INLINE void     Cy_SCB_SetMasterInterrupt      (CySCB_Type *base, uint32_t interruptMask);
 161:Generated_Source\PSoC6\pdl\drivers/peripheral/scb/cy_scb_common.h **** 
 162:Generated_Source\PSoC6\pdl\drivers/peripheral/scb/cy_scb_common.h **** __STATIC_INLINE uint32_t Cy_SCB_GetSlaveInterruptStatus(CySCB_Type const *base);
 163:Generated_Source\PSoC6\pdl\drivers/peripheral/scb/cy_scb_common.h **** __STATIC_INLINE void     Cy_SCB_SetSlaveInterruptMask  (CySCB_Type *base, uint32_t interruptMask);
 164:Generated_Source\PSoC6\pdl\drivers/peripheral/scb/cy_scb_common.h **** __STATIC_INLINE uint32_t Cy_SCB_GetSlaveInterruptMask  (CySCB_Type const *base);
 165:Generated_Source\PSoC6\pdl\drivers/peripheral/scb/cy_scb_common.h **** __STATIC_INLINE uint32_t Cy_SCB_GetSlaveInterruptStatusMasked(CySCB_Type const *base);
 166:Generated_Source\PSoC6\pdl\drivers/peripheral/scb/cy_scb_common.h **** __STATIC_INLINE void     Cy_SCB_ClearSlaveInterrupt    (CySCB_Type *base, uint32_t interruptMask);
 167:Generated_Source\PSoC6\pdl\drivers/peripheral/scb/cy_scb_common.h **** __STATIC_INLINE void     Cy_SCB_SetSlaveInterrupt      (CySCB_Type *base, uint32_t interruptMask);
 168:Generated_Source\PSoC6\pdl\drivers/peripheral/scb/cy_scb_common.h **** 
 169:Generated_Source\PSoC6\pdl\drivers/peripheral/scb/cy_scb_common.h **** __STATIC_INLINE uint32_t Cy_SCB_GetI2CInterruptStatus(CySCB_Type const *base);
 170:Generated_Source\PSoC6\pdl\drivers/peripheral/scb/cy_scb_common.h **** __STATIC_INLINE void     Cy_SCB_SetI2CInterruptMask  (CySCB_Type *base, uint32_t interruptMask);
 171:Generated_Source\PSoC6\pdl\drivers/peripheral/scb/cy_scb_common.h **** __STATIC_INLINE uint32_t Cy_SCB_GetI2CInterruptMask  (CySCB_Type const *base);
 172:Generated_Source\PSoC6\pdl\drivers/peripheral/scb/cy_scb_common.h **** __STATIC_INLINE uint32_t Cy_SCB_GetI2CInterruptStatusMasked(CySCB_Type const *base);
 173:Generated_Source\PSoC6\pdl\drivers/peripheral/scb/cy_scb_common.h **** __STATIC_INLINE void     Cy_SCB_ClearI2CInterrupt    (CySCB_Type *base, uint32_t interruptMask);
 174:Generated_Source\PSoC6\pdl\drivers/peripheral/scb/cy_scb_common.h **** 
 175:Generated_Source\PSoC6\pdl\drivers/peripheral/scb/cy_scb_common.h **** __STATIC_INLINE uint32_t Cy_SCB_GetSpiInterruptStatus(CySCB_Type const *base);
 176:Generated_Source\PSoC6\pdl\drivers/peripheral/scb/cy_scb_common.h **** __STATIC_INLINE void     Cy_SCB_SetSpiInterruptMask  (CySCB_Type *base, uint32_t interruptMask);
 177:Generated_Source\PSoC6\pdl\drivers/peripheral/scb/cy_scb_common.h **** __STATIC_INLINE uint32_t Cy_SCB_GetSpiInterruptMask  (CySCB_Type const *base);
 178:Generated_Source\PSoC6\pdl\drivers/peripheral/scb/cy_scb_common.h **** __STATIC_INLINE uint32_t Cy_SCB_GetSpiInterruptStatusMasked(CySCB_Type const *base);
 179:Generated_Source\PSoC6\pdl\drivers/peripheral/scb/cy_scb_common.h **** __STATIC_INLINE void     Cy_SCB_ClearSpiInterrupt    (CySCB_Type *base, uint32_t interruptMask);
 180:Generated_Source\PSoC6\pdl\drivers/peripheral/scb/cy_scb_common.h **** 
 181:Generated_Source\PSoC6\pdl\drivers/peripheral/scb/cy_scb_common.h **** 
 182:Generated_Source\PSoC6\pdl\drivers/peripheral/scb/cy_scb_common.h **** /***************************************
 183:Generated_Source\PSoC6\pdl\drivers/peripheral/scb/cy_scb_common.h **** *     Internal Function Prototypes
 184:Generated_Source\PSoC6\pdl\drivers/peripheral/scb/cy_scb_common.h **** ***************************************/
 185:Generated_Source\PSoC6\pdl\drivers/peripheral/scb/cy_scb_common.h **** 
ARM GAS  C:\Users\salaz\AppData\Local\Temp\ccmUlyJK.s 			page 36


 186:Generated_Source\PSoC6\pdl\drivers/peripheral/scb/cy_scb_common.h **** /** \cond INTERNAL */
 187:Generated_Source\PSoC6\pdl\drivers/peripheral/scb/cy_scb_common.h **** void     Cy_SCB_ReadArrayNoCheck  (CySCB_Type const *base, void *buffer, uint32_t size);
 188:Generated_Source\PSoC6\pdl\drivers/peripheral/scb/cy_scb_common.h **** uint32_t Cy_SCB_ReadArray         (CySCB_Type const *base, void *buffer, uint32_t size);
 189:Generated_Source\PSoC6\pdl\drivers/peripheral/scb/cy_scb_common.h **** void     Cy_SCB_ReadArrayBlocking (CySCB_Type const *base, void *buffer, uint32_t size);
 190:Generated_Source\PSoC6\pdl\drivers/peripheral/scb/cy_scb_common.h **** uint32_t Cy_SCB_Write             (CySCB_Type *base, uint32_t data);
 191:Generated_Source\PSoC6\pdl\drivers/peripheral/scb/cy_scb_common.h **** void     Cy_SCB_WriteArrayNoCheck (CySCB_Type *base, void *buffer, uint32_t size);
 192:Generated_Source\PSoC6\pdl\drivers/peripheral/scb/cy_scb_common.h **** uint32_t Cy_SCB_WriteArray        (CySCB_Type *base, void *buffer, uint32_t size);
 193:Generated_Source\PSoC6\pdl\drivers/peripheral/scb/cy_scb_common.h **** void     Cy_SCB_WriteArrayBlocking(CySCB_Type *base, void *buffer, uint32_t size);
 194:Generated_Source\PSoC6\pdl\drivers/peripheral/scb/cy_scb_common.h **** void     Cy_SCB_WriteString       (CySCB_Type *base, char_t const string[]);
 195:Generated_Source\PSoC6\pdl\drivers/peripheral/scb/cy_scb_common.h **** void     Cy_SCB_WriteDefaultArrayNoCheck(CySCB_Type *base, uint32_t txData, uint32_t size);
 196:Generated_Source\PSoC6\pdl\drivers/peripheral/scb/cy_scb_common.h **** uint32_t Cy_SCB_WriteDefaultArray (CySCB_Type *base, uint32_t txData, uint32_t size);
 197:Generated_Source\PSoC6\pdl\drivers/peripheral/scb/cy_scb_common.h **** 
 198:Generated_Source\PSoC6\pdl\drivers/peripheral/scb/cy_scb_common.h **** __STATIC_INLINE uint32_t Cy_SCB_GetFifoSize (CySCB_Type const *base);
 199:Generated_Source\PSoC6\pdl\drivers/peripheral/scb/cy_scb_common.h **** __STATIC_INLINE void     Cy_SCB_FwBlockReset(CySCB_Type *base);
 200:Generated_Source\PSoC6\pdl\drivers/peripheral/scb/cy_scb_common.h **** __STATIC_INLINE bool     Cy_SCB_IsRxDataWidthByte(CySCB_Type const *base);
 201:Generated_Source\PSoC6\pdl\drivers/peripheral/scb/cy_scb_common.h **** __STATIC_INLINE bool     Cy_SCB_IsTxDataWidthByte(CySCB_Type const *base);
 202:Generated_Source\PSoC6\pdl\drivers/peripheral/scb/cy_scb_common.h **** __STATIC_INLINE uint32_t Cy_SCB_GetRxFifoLevel   (CySCB_Type const *base);
 203:Generated_Source\PSoC6\pdl\drivers/peripheral/scb/cy_scb_common.h **** /** \endcond */
 204:Generated_Source\PSoC6\pdl\drivers/peripheral/scb/cy_scb_common.h **** 
 205:Generated_Source\PSoC6\pdl\drivers/peripheral/scb/cy_scb_common.h **** /** \} group_scb_common_functions */
 206:Generated_Source\PSoC6\pdl\drivers/peripheral/scb/cy_scb_common.h **** 
 207:Generated_Source\PSoC6\pdl\drivers/peripheral/scb/cy_scb_common.h **** /***************************************
 208:Generated_Source\PSoC6\pdl\drivers/peripheral/scb/cy_scb_common.h **** *            API Constants
 209:Generated_Source\PSoC6\pdl\drivers/peripheral/scb/cy_scb_common.h **** ***************************************/
 210:Generated_Source\PSoC6\pdl\drivers/peripheral/scb/cy_scb_common.h **** 
 211:Generated_Source\PSoC6\pdl\drivers/peripheral/scb/cy_scb_common.h **** /**
 212:Generated_Source\PSoC6\pdl\drivers/peripheral/scb/cy_scb_common.h **** * \addtogroup group_scb_common_macros
 213:Generated_Source\PSoC6\pdl\drivers/peripheral/scb/cy_scb_common.h **** * \{
 214:Generated_Source\PSoC6\pdl\drivers/peripheral/scb/cy_scb_common.h **** */
 215:Generated_Source\PSoC6\pdl\drivers/peripheral/scb/cy_scb_common.h **** 
 216:Generated_Source\PSoC6\pdl\drivers/peripheral/scb/cy_scb_common.h **** /** Driver major version */
 217:Generated_Source\PSoC6\pdl\drivers/peripheral/scb/cy_scb_common.h **** #define CY_SCB_DRV_VERSION_MAJOR    (2)
 218:Generated_Source\PSoC6\pdl\drivers/peripheral/scb/cy_scb_common.h **** 
 219:Generated_Source\PSoC6\pdl\drivers/peripheral/scb/cy_scb_common.h **** /** Driver minor version */
 220:Generated_Source\PSoC6\pdl\drivers/peripheral/scb/cy_scb_common.h **** #define CY_SCB_DRV_VERSION_MINOR    (10)
 221:Generated_Source\PSoC6\pdl\drivers/peripheral/scb/cy_scb_common.h **** 
 222:Generated_Source\PSoC6\pdl\drivers/peripheral/scb/cy_scb_common.h **** /** SCB driver identifier */
 223:Generated_Source\PSoC6\pdl\drivers/peripheral/scb/cy_scb_common.h **** #define CY_SCB_ID           CY_PDL_DRV_ID(0x2AU)
 224:Generated_Source\PSoC6\pdl\drivers/peripheral/scb/cy_scb_common.h **** 
 225:Generated_Source\PSoC6\pdl\drivers/peripheral/scb/cy_scb_common.h **** /** Position for SCB driver sub mode */
 226:Generated_Source\PSoC6\pdl\drivers/peripheral/scb/cy_scb_common.h **** #define CY_SCB_SUB_MODE_Pos (13UL)
 227:Generated_Source\PSoC6\pdl\drivers/peripheral/scb/cy_scb_common.h **** 
 228:Generated_Source\PSoC6\pdl\drivers/peripheral/scb/cy_scb_common.h **** /** EZI2C mode identifier */
 229:Generated_Source\PSoC6\pdl\drivers/peripheral/scb/cy_scb_common.h **** #define CY_SCB_EZI2C_ID     (0x0UL << CY_SCB_SUB_MODE_Pos)
 230:Generated_Source\PSoC6\pdl\drivers/peripheral/scb/cy_scb_common.h **** 
 231:Generated_Source\PSoC6\pdl\drivers/peripheral/scb/cy_scb_common.h **** /** EZI2C mode identifier */
 232:Generated_Source\PSoC6\pdl\drivers/peripheral/scb/cy_scb_common.h **** #define CY_SCB_I2C_ID       (0x1UL << CY_SCB_SUB_MODE_Pos)
 233:Generated_Source\PSoC6\pdl\drivers/peripheral/scb/cy_scb_common.h **** 
 234:Generated_Source\PSoC6\pdl\drivers/peripheral/scb/cy_scb_common.h **** /** EZI2C mode identifier */
 235:Generated_Source\PSoC6\pdl\drivers/peripheral/scb/cy_scb_common.h **** #define CY_SCB_SPI_ID       (0x2UL << CY_SCB_SUB_MODE_Pos)
 236:Generated_Source\PSoC6\pdl\drivers/peripheral/scb/cy_scb_common.h **** 
 237:Generated_Source\PSoC6\pdl\drivers/peripheral/scb/cy_scb_common.h **** /** EZI2C mode identifier */
 238:Generated_Source\PSoC6\pdl\drivers/peripheral/scb/cy_scb_common.h **** #define CY_SCB_UART_ID      (0x3UL << CY_SCB_SUB_MODE_Pos)
 239:Generated_Source\PSoC6\pdl\drivers/peripheral/scb/cy_scb_common.h **** 
 240:Generated_Source\PSoC6\pdl\drivers/peripheral/scb/cy_scb_common.h **** /**
 241:Generated_Source\PSoC6\pdl\drivers/peripheral/scb/cy_scb_common.h **** * \defgroup group_scb_common_macros_intr_cause SCB Interrupt Causes
 242:Generated_Source\PSoC6\pdl\drivers/peripheral/scb/cy_scb_common.h **** * \{
ARM GAS  C:\Users\salaz\AppData\Local\Temp\ccmUlyJK.s 			page 37


 243:Generated_Source\PSoC6\pdl\drivers/peripheral/scb/cy_scb_common.h **** */
 244:Generated_Source\PSoC6\pdl\drivers/peripheral/scb/cy_scb_common.h **** /** Interrupt from Master interrupt sources */
 245:Generated_Source\PSoC6\pdl\drivers/peripheral/scb/cy_scb_common.h **** #define CY_SCB_MASTER_INTR SCB_INTR_CAUSE_M_Msk
 246:Generated_Source\PSoC6\pdl\drivers/peripheral/scb/cy_scb_common.h **** 
 247:Generated_Source\PSoC6\pdl\drivers/peripheral/scb/cy_scb_common.h **** /** Interrupt from Slave interrupt sources  */
 248:Generated_Source\PSoC6\pdl\drivers/peripheral/scb/cy_scb_common.h **** #define CY_SCB_SLAVE_INTR  SCB_INTR_CAUSE_S_Msk
 249:Generated_Source\PSoC6\pdl\drivers/peripheral/scb/cy_scb_common.h **** 
 250:Generated_Source\PSoC6\pdl\drivers/peripheral/scb/cy_scb_common.h **** /** Interrupt from TX interrupt sources */
 251:Generated_Source\PSoC6\pdl\drivers/peripheral/scb/cy_scb_common.h **** #define CY_SCB_TX_INTR     SCB_INTR_CAUSE_TX_Msk
 252:Generated_Source\PSoC6\pdl\drivers/peripheral/scb/cy_scb_common.h **** 
 253:Generated_Source\PSoC6\pdl\drivers/peripheral/scb/cy_scb_common.h **** /** Interrupt from RX interrupt sources */
 254:Generated_Source\PSoC6\pdl\drivers/peripheral/scb/cy_scb_common.h **** #define CY_SCB_RX_INTR     SCB_INTR_CAUSE_RX_Msk
 255:Generated_Source\PSoC6\pdl\drivers/peripheral/scb/cy_scb_common.h **** 
 256:Generated_Source\PSoC6\pdl\drivers/peripheral/scb/cy_scb_common.h **** /** Interrupt from I2C externally clocked interrupt sources */
 257:Generated_Source\PSoC6\pdl\drivers/peripheral/scb/cy_scb_common.h **** #define CY_SCB_I2C_INTR    SCB_INTR_CAUSE_I2C_EC_Msk
 258:Generated_Source\PSoC6\pdl\drivers/peripheral/scb/cy_scb_common.h **** 
 259:Generated_Source\PSoC6\pdl\drivers/peripheral/scb/cy_scb_common.h **** /** Interrupt from SPI externally clocked interrupt sources */
 260:Generated_Source\PSoC6\pdl\drivers/peripheral/scb/cy_scb_common.h **** #define CY_SCB_SPI_INTR    SCB_INTR_CAUSE_SPI_EC_Msk
 261:Generated_Source\PSoC6\pdl\drivers/peripheral/scb/cy_scb_common.h **** /** \} group_scb_common_macros_intr_cause */
 262:Generated_Source\PSoC6\pdl\drivers/peripheral/scb/cy_scb_common.h **** 
 263:Generated_Source\PSoC6\pdl\drivers/peripheral/scb/cy_scb_common.h **** /**
 264:Generated_Source\PSoC6\pdl\drivers/peripheral/scb/cy_scb_common.h **** * \defgroup group_scb_common_macros_tx_intr TX Interrupt Statuses
 265:Generated_Source\PSoC6\pdl\drivers/peripheral/scb/cy_scb_common.h **** * \{
 266:Generated_Source\PSoC6\pdl\drivers/peripheral/scb/cy_scb_common.h **** */
 267:Generated_Source\PSoC6\pdl\drivers/peripheral/scb/cy_scb_common.h **** /**
 268:Generated_Source\PSoC6\pdl\drivers/peripheral/scb/cy_scb_common.h **** * The number of data elements in the TX FIFO is less than the value
 269:Generated_Source\PSoC6\pdl\drivers/peripheral/scb/cy_scb_common.h **** * of the TX FIFO level
 270:Generated_Source\PSoC6\pdl\drivers/peripheral/scb/cy_scb_common.h **** */
 271:Generated_Source\PSoC6\pdl\drivers/peripheral/scb/cy_scb_common.h **** #define CY_SCB_TX_INTR_LEVEL           SCB_INTR_TX_TRIGGER_Msk
 272:Generated_Source\PSoC6\pdl\drivers/peripheral/scb/cy_scb_common.h **** 
 273:Generated_Source\PSoC6\pdl\drivers/peripheral/scb/cy_scb_common.h **** /** The TX FIFO is not full */
 274:Generated_Source\PSoC6\pdl\drivers/peripheral/scb/cy_scb_common.h **** #define CY_SCB_TX_INTR_NOT_FULL        SCB_INTR_TX_NOT_FULL_Msk
 275:Generated_Source\PSoC6\pdl\drivers/peripheral/scb/cy_scb_common.h **** 
 276:Generated_Source\PSoC6\pdl\drivers/peripheral/scb/cy_scb_common.h **** /** The TX FIFO is empty */
 277:Generated_Source\PSoC6\pdl\drivers/peripheral/scb/cy_scb_common.h **** #define CY_SCB_TX_INTR_EMPTY           SCB_INTR_TX_EMPTY_Msk
 278:Generated_Source\PSoC6\pdl\drivers/peripheral/scb/cy_scb_common.h **** 
 279:Generated_Source\PSoC6\pdl\drivers/peripheral/scb/cy_scb_common.h **** /** An attempt to write to a full TX FIFO */
 280:Generated_Source\PSoC6\pdl\drivers/peripheral/scb/cy_scb_common.h **** #define CY_SCB_TX_INTR_OVERFLOW        SCB_INTR_TX_OVERFLOW_Msk
 281:Generated_Source\PSoC6\pdl\drivers/peripheral/scb/cy_scb_common.h **** 
 282:Generated_Source\PSoC6\pdl\drivers/peripheral/scb/cy_scb_common.h **** /** An attempt to read from an empty TX FIFO */
 283:Generated_Source\PSoC6\pdl\drivers/peripheral/scb/cy_scb_common.h **** #define CY_SCB_TX_INTR_UNDERFLOW       SCB_INTR_TX_UNDERFLOW_Msk
 284:Generated_Source\PSoC6\pdl\drivers/peripheral/scb/cy_scb_common.h **** 
 285:Generated_Source\PSoC6\pdl\drivers/peripheral/scb/cy_scb_common.h **** /** The UART transfer is complete: all data elements from the TX FIFO are sent
 286:Generated_Source\PSoC6\pdl\drivers/peripheral/scb/cy_scb_common.h **** */
 287:Generated_Source\PSoC6\pdl\drivers/peripheral/scb/cy_scb_common.h **** #define CY_SCB_TX_INTR_UART_DONE       SCB_INTR_TX_UART_DONE_Msk
 288:Generated_Source\PSoC6\pdl\drivers/peripheral/scb/cy_scb_common.h **** 
 289:Generated_Source\PSoC6\pdl\drivers/peripheral/scb/cy_scb_common.h **** /** SmartCard only: UART received a NACK */
 290:Generated_Source\PSoC6\pdl\drivers/peripheral/scb/cy_scb_common.h **** #define CY_SCB_TX_INTR_UART_NACK       SCB_INTR_TX_UART_NACK_Msk
 291:Generated_Source\PSoC6\pdl\drivers/peripheral/scb/cy_scb_common.h **** 
 292:Generated_Source\PSoC6\pdl\drivers/peripheral/scb/cy_scb_common.h **** /**
 293:Generated_Source\PSoC6\pdl\drivers/peripheral/scb/cy_scb_common.h **** * SmartCard only: the value on the TX line of the UART does not match the
 294:Generated_Source\PSoC6\pdl\drivers/peripheral/scb/cy_scb_common.h **** * value on the RX line
 295:Generated_Source\PSoC6\pdl\drivers/peripheral/scb/cy_scb_common.h **** */
 296:Generated_Source\PSoC6\pdl\drivers/peripheral/scb/cy_scb_common.h **** #define CY_SCB_TX_INTR_UART_ARB_LOST   SCB_INTR_TX_UART_ARB_LOST_Msk
 297:Generated_Source\PSoC6\pdl\drivers/peripheral/scb/cy_scb_common.h **** /** \} group_scb_common_macros_tx_intr */
 298:Generated_Source\PSoC6\pdl\drivers/peripheral/scb/cy_scb_common.h **** 
 299:Generated_Source\PSoC6\pdl\drivers/peripheral/scb/cy_scb_common.h **** /**
ARM GAS  C:\Users\salaz\AppData\Local\Temp\ccmUlyJK.s 			page 38


 300:Generated_Source\PSoC6\pdl\drivers/peripheral/scb/cy_scb_common.h **** * \defgroup group_scb_common_macros_rx_intr RX Interrupt Statuses
 301:Generated_Source\PSoC6\pdl\drivers/peripheral/scb/cy_scb_common.h **** * \{
 302:Generated_Source\PSoC6\pdl\drivers/peripheral/scb/cy_scb_common.h **** */
 303:Generated_Source\PSoC6\pdl\drivers/peripheral/scb/cy_scb_common.h **** /**
 304:Generated_Source\PSoC6\pdl\drivers/peripheral/scb/cy_scb_common.h **** * The number of data elements in the RX FIFO is greater than the value of the
 305:Generated_Source\PSoC6\pdl\drivers/peripheral/scb/cy_scb_common.h **** * RX FIFO level
 306:Generated_Source\PSoC6\pdl\drivers/peripheral/scb/cy_scb_common.h **** */
 307:Generated_Source\PSoC6\pdl\drivers/peripheral/scb/cy_scb_common.h **** #define CY_SCB_RX_INTR_LEVEL             SCB_INTR_RX_TRIGGER_Msk
 308:Generated_Source\PSoC6\pdl\drivers/peripheral/scb/cy_scb_common.h **** 
 309:Generated_Source\PSoC6\pdl\drivers/peripheral/scb/cy_scb_common.h **** /** The RX FIFO is not empty */
 310:Generated_Source\PSoC6\pdl\drivers/peripheral/scb/cy_scb_common.h **** #define CY_SCB_RX_INTR_NOT_EMPTY         SCB_INTR_RX_NOT_EMPTY_Msk
 311:Generated_Source\PSoC6\pdl\drivers/peripheral/scb/cy_scb_common.h **** 
 312:Generated_Source\PSoC6\pdl\drivers/peripheral/scb/cy_scb_common.h **** /** The RX FIFO is full */
 313:Generated_Source\PSoC6\pdl\drivers/peripheral/scb/cy_scb_common.h **** #define CY_SCB_RX_INTR_FULL              SCB_INTR_RX_FULL_Msk
 314:Generated_Source\PSoC6\pdl\drivers/peripheral/scb/cy_scb_common.h **** 
 315:Generated_Source\PSoC6\pdl\drivers/peripheral/scb/cy_scb_common.h **** /** An attempt to write to a full RX FIFO */
 316:Generated_Source\PSoC6\pdl\drivers/peripheral/scb/cy_scb_common.h **** #define CY_SCB_RX_INTR_OVERFLOW          SCB_INTR_RX_OVERFLOW_Msk
 317:Generated_Source\PSoC6\pdl\drivers/peripheral/scb/cy_scb_common.h **** 
 318:Generated_Source\PSoC6\pdl\drivers/peripheral/scb/cy_scb_common.h **** /** An attempt to read from an empty RX FIFO */
 319:Generated_Source\PSoC6\pdl\drivers/peripheral/scb/cy_scb_common.h **** #define CY_SCB_RX_INTR_UNDERFLOW         SCB_INTR_RX_UNDERFLOW_Msk
 320:Generated_Source\PSoC6\pdl\drivers/peripheral/scb/cy_scb_common.h **** 
 321:Generated_Source\PSoC6\pdl\drivers/peripheral/scb/cy_scb_common.h **** /** A UART framing error detected */
 322:Generated_Source\PSoC6\pdl\drivers/peripheral/scb/cy_scb_common.h **** #define CY_SCB_RX_INTR_UART_FRAME_ERROR  SCB_INTR_RX_FRAME_ERROR_Msk
 323:Generated_Source\PSoC6\pdl\drivers/peripheral/scb/cy_scb_common.h **** 
 324:Generated_Source\PSoC6\pdl\drivers/peripheral/scb/cy_scb_common.h **** /** A UART parity error detected  */
 325:Generated_Source\PSoC6\pdl\drivers/peripheral/scb/cy_scb_common.h **** #define CY_SCB_RX_INTR_UART_PARITY_ERROR SCB_INTR_RX_PARITY_ERROR_Msk
 326:Generated_Source\PSoC6\pdl\drivers/peripheral/scb/cy_scb_common.h **** 
 327:Generated_Source\PSoC6\pdl\drivers/peripheral/scb/cy_scb_common.h **** /** A UART break detected */
 328:Generated_Source\PSoC6\pdl\drivers/peripheral/scb/cy_scb_common.h **** #define CY_SCB_RX_INTR_UART_BREAK_DETECT SCB_INTR_RX_BREAK_DETECT_Msk
 329:Generated_Source\PSoC6\pdl\drivers/peripheral/scb/cy_scb_common.h **** /** \} group_scb_common_macros_rx_intr */
 330:Generated_Source\PSoC6\pdl\drivers/peripheral/scb/cy_scb_common.h **** 
 331:Generated_Source\PSoC6\pdl\drivers/peripheral/scb/cy_scb_common.h **** /**
 332:Generated_Source\PSoC6\pdl\drivers/peripheral/scb/cy_scb_common.h **** * \defgroup group_scb_common_macros_slave_intr Slave Interrupt Statuses
 333:Generated_Source\PSoC6\pdl\drivers/peripheral/scb/cy_scb_common.h **** * \{
 334:Generated_Source\PSoC6\pdl\drivers/peripheral/scb/cy_scb_common.h **** */
 335:Generated_Source\PSoC6\pdl\drivers/peripheral/scb/cy_scb_common.h **** /**
 336:Generated_Source\PSoC6\pdl\drivers/peripheral/scb/cy_scb_common.h **** * I2C slave lost arbitration: the value driven on the SDA line is not the same
 337:Generated_Source\PSoC6\pdl\drivers/peripheral/scb/cy_scb_common.h **** * as the value observed on the SDA line
 338:Generated_Source\PSoC6\pdl\drivers/peripheral/scb/cy_scb_common.h **** */
 339:Generated_Source\PSoC6\pdl\drivers/peripheral/scb/cy_scb_common.h **** #define CY_SCB_SLAVE_INTR_I2C_ARB_LOST      SCB_INTR_S_I2C_ARB_LOST_Msk
 340:Generated_Source\PSoC6\pdl\drivers/peripheral/scb/cy_scb_common.h **** 
 341:Generated_Source\PSoC6\pdl\drivers/peripheral/scb/cy_scb_common.h **** /** The I2C slave received a NAK */
 342:Generated_Source\PSoC6\pdl\drivers/peripheral/scb/cy_scb_common.h **** #define CY_SCB_SLAVE_INTR_I2C_NACK          SCB_INTR_S_I2C_NACK_Msk
 343:Generated_Source\PSoC6\pdl\drivers/peripheral/scb/cy_scb_common.h **** 
 344:Generated_Source\PSoC6\pdl\drivers/peripheral/scb/cy_scb_common.h **** /** The I2C slave received  an ACK */
 345:Generated_Source\PSoC6\pdl\drivers/peripheral/scb/cy_scb_common.h **** #define CY_SCB_SLAVE_INTR_I2C_ACK           SCB_INTR_S_I2C_ACK_Msk
 346:Generated_Source\PSoC6\pdl\drivers/peripheral/scb/cy_scb_common.h **** 
 347:Generated_Source\PSoC6\pdl\drivers/peripheral/scb/cy_scb_common.h **** /**
 348:Generated_Source\PSoC6\pdl\drivers/peripheral/scb/cy_scb_common.h **** * A Stop or Repeated Start event for a write transfer intended for this slave
 349:Generated_Source\PSoC6\pdl\drivers/peripheral/scb/cy_scb_common.h **** * was detected.
 350:Generated_Source\PSoC6\pdl\drivers/peripheral/scb/cy_scb_common.h **** */
 351:Generated_Source\PSoC6\pdl\drivers/peripheral/scb/cy_scb_common.h **** #define CY_SCB_SLAVE_INTR_I2C_WRITE_STOP    SCB_INTR_S_I2C_WRITE_STOP_Msk
 352:Generated_Source\PSoC6\pdl\drivers/peripheral/scb/cy_scb_common.h **** 
 353:Generated_Source\PSoC6\pdl\drivers/peripheral/scb/cy_scb_common.h **** /** A Stop or Repeated Start event intended for this slave was detected */
 354:Generated_Source\PSoC6\pdl\drivers/peripheral/scb/cy_scb_common.h **** #define CY_SCB_SLAVE_INTR_I2C_STOP          SCB_INTR_S_I2C_STOP_Msk
 355:Generated_Source\PSoC6\pdl\drivers/peripheral/scb/cy_scb_common.h **** 
 356:Generated_Source\PSoC6\pdl\drivers/peripheral/scb/cy_scb_common.h **** /** The I2C slave received a Start condition */
ARM GAS  C:\Users\salaz\AppData\Local\Temp\ccmUlyJK.s 			page 39


 357:Generated_Source\PSoC6\pdl\drivers/peripheral/scb/cy_scb_common.h **** #define CY_SCB_SLAVE_INTR_I2C_START         SCB_INTR_S_I2C_START_Msk
 358:Generated_Source\PSoC6\pdl\drivers/peripheral/scb/cy_scb_common.h **** 
 359:Generated_Source\PSoC6\pdl\drivers/peripheral/scb/cy_scb_common.h **** /** The I2C slave received the matching address */
 360:Generated_Source\PSoC6\pdl\drivers/peripheral/scb/cy_scb_common.h **** #define CY_SCB_SLAVE_INTR_I2C_ADDR_MATCH    SCB_INTR_S_I2C_ADDR_MATCH_Msk
 361:Generated_Source\PSoC6\pdl\drivers/peripheral/scb/cy_scb_common.h **** 
 362:Generated_Source\PSoC6\pdl\drivers/peripheral/scb/cy_scb_common.h **** /** The I2C Slave received the general call address */
 363:Generated_Source\PSoC6\pdl\drivers/peripheral/scb/cy_scb_common.h **** #define CY_SCB_SLAVE_INTR_I2C_GENERAL_ADDR  SCB_INTR_S_I2C_GENERAL_Msk
 364:Generated_Source\PSoC6\pdl\drivers/peripheral/scb/cy_scb_common.h **** 
 365:Generated_Source\PSoC6\pdl\drivers/peripheral/scb/cy_scb_common.h **** /** The I2C slave bus error (detection of unexpected Start or Stop condition) */
 366:Generated_Source\PSoC6\pdl\drivers/peripheral/scb/cy_scb_common.h **** #define CY_SCB_SLAVE_INTR_I2C_BUS_ERROR     SCB_INTR_S_I2C_BUS_ERROR_Msk
 367:Generated_Source\PSoC6\pdl\drivers/peripheral/scb/cy_scb_common.h **** 
 368:Generated_Source\PSoC6\pdl\drivers/peripheral/scb/cy_scb_common.h **** /**
 369:Generated_Source\PSoC6\pdl\drivers/peripheral/scb/cy_scb_common.h **** * The SPI slave select line is deselected at an expected time during an
 370:Generated_Source\PSoC6\pdl\drivers/peripheral/scb/cy_scb_common.h **** * SPI transfer.
 371:Generated_Source\PSoC6\pdl\drivers/peripheral/scb/cy_scb_common.h **** */
 372:Generated_Source\PSoC6\pdl\drivers/peripheral/scb/cy_scb_common.h **** #define CY_SCB_SLAVE_INTR_SPI_BUS_ERROR     SCB_INTR_S_SPI_BUS_ERROR_Msk
 373:Generated_Source\PSoC6\pdl\drivers/peripheral/scb/cy_scb_common.h **** /** \} group_scb_common_macros_slave_intr */
 374:Generated_Source\PSoC6\pdl\drivers/peripheral/scb/cy_scb_common.h **** 
 375:Generated_Source\PSoC6\pdl\drivers/peripheral/scb/cy_scb_common.h **** /**
 376:Generated_Source\PSoC6\pdl\drivers/peripheral/scb/cy_scb_common.h **** * \defgroup group_scb_common_macros_master_intr Master Interrupt Statuses
 377:Generated_Source\PSoC6\pdl\drivers/peripheral/scb/cy_scb_common.h **** * \{
 378:Generated_Source\PSoC6\pdl\drivers/peripheral/scb/cy_scb_common.h **** */
 379:Generated_Source\PSoC6\pdl\drivers/peripheral/scb/cy_scb_common.h **** /** The I2C master lost arbitration */
 380:Generated_Source\PSoC6\pdl\drivers/peripheral/scb/cy_scb_common.h **** #define CY_SCB_MASTER_INTR_I2C_ARB_LOST    SCB_INTR_M_I2C_ARB_LOST_Msk
 381:Generated_Source\PSoC6\pdl\drivers/peripheral/scb/cy_scb_common.h **** 
 382:Generated_Source\PSoC6\pdl\drivers/peripheral/scb/cy_scb_common.h **** /** The I2C master received a NACK */
 383:Generated_Source\PSoC6\pdl\drivers/peripheral/scb/cy_scb_common.h **** #define CY_SCB_MASTER_INTR_I2C_NACK        SCB_INTR_M_I2C_NACK_Msk
 384:Generated_Source\PSoC6\pdl\drivers/peripheral/scb/cy_scb_common.h **** 
 385:Generated_Source\PSoC6\pdl\drivers/peripheral/scb/cy_scb_common.h **** /** The I2C master received an ACK */
 386:Generated_Source\PSoC6\pdl\drivers/peripheral/scb/cy_scb_common.h **** #define CY_SCB_MASTER_INTR_I2C_ACK         SCB_INTR_M_I2C_ACK_Msk
 387:Generated_Source\PSoC6\pdl\drivers/peripheral/scb/cy_scb_common.h **** 
 388:Generated_Source\PSoC6\pdl\drivers/peripheral/scb/cy_scb_common.h **** /** The I2C master generated a Stop */
 389:Generated_Source\PSoC6\pdl\drivers/peripheral/scb/cy_scb_common.h **** #define CY_SCB_MASTER_INTR_I2C_STOP        SCB_INTR_M_I2C_STOP_Msk
 390:Generated_Source\PSoC6\pdl\drivers/peripheral/scb/cy_scb_common.h **** 
 391:Generated_Source\PSoC6\pdl\drivers/peripheral/scb/cy_scb_common.h **** /** The I2C master bus error (detection of unexpected START or STOP condition)
 392:Generated_Source\PSoC6\pdl\drivers/peripheral/scb/cy_scb_common.h **** */
 393:Generated_Source\PSoC6\pdl\drivers/peripheral/scb/cy_scb_common.h **** #define CY_SCB_MASTER_INTR_I2C_BUS_ERROR   SCB_INTR_M_I2C_BUS_ERROR_Msk
 394:Generated_Source\PSoC6\pdl\drivers/peripheral/scb/cy_scb_common.h **** 
 395:Generated_Source\PSoC6\pdl\drivers/peripheral/scb/cy_scb_common.h **** /**
 396:Generated_Source\PSoC6\pdl\drivers/peripheral/scb/cy_scb_common.h **** * The SPI master transfer is complete: all data elements transferred from the
 397:Generated_Source\PSoC6\pdl\drivers/peripheral/scb/cy_scb_common.h **** * TX FIFO and TX shift register.
 398:Generated_Source\PSoC6\pdl\drivers/peripheral/scb/cy_scb_common.h **** */
 399:Generated_Source\PSoC6\pdl\drivers/peripheral/scb/cy_scb_common.h **** #define CY_SCB_MASTER_INTR_SPI_DONE        SCB_INTR_M_SPI_DONE_Msk
 400:Generated_Source\PSoC6\pdl\drivers/peripheral/scb/cy_scb_common.h **** /** \} group_scb_common_macros_master_intr */
 401:Generated_Source\PSoC6\pdl\drivers/peripheral/scb/cy_scb_common.h **** 
 402:Generated_Source\PSoC6\pdl\drivers/peripheral/scb/cy_scb_common.h **** /**
 403:Generated_Source\PSoC6\pdl\drivers/peripheral/scb/cy_scb_common.h **** * \defgroup group_scb_common_macros_i2c_intr I2C Interrupt Statuses
 404:Generated_Source\PSoC6\pdl\drivers/peripheral/scb/cy_scb_common.h **** * \{
 405:Generated_Source\PSoC6\pdl\drivers/peripheral/scb/cy_scb_common.h **** */
 406:Generated_Source\PSoC6\pdl\drivers/peripheral/scb/cy_scb_common.h **** /**
 407:Generated_Source\PSoC6\pdl\drivers/peripheral/scb/cy_scb_common.h **** * Wake up request: the I2C slave received the matching address.
 408:Generated_Source\PSoC6\pdl\drivers/peripheral/scb/cy_scb_common.h **** * Note that this interrupt source triggers in active mode.
 409:Generated_Source\PSoC6\pdl\drivers/peripheral/scb/cy_scb_common.h **** */
 410:Generated_Source\PSoC6\pdl\drivers/peripheral/scb/cy_scb_common.h **** #define CY_SCB_I2C_INTR_WAKEUP     SCB_INTR_I2C_EC_WAKE_UP_Msk
 411:Generated_Source\PSoC6\pdl\drivers/peripheral/scb/cy_scb_common.h **** /** \} group_scb_common_macros_i2c_intr */
 412:Generated_Source\PSoC6\pdl\drivers/peripheral/scb/cy_scb_common.h **** 
 413:Generated_Source\PSoC6\pdl\drivers/peripheral/scb/cy_scb_common.h **** /**
ARM GAS  C:\Users\salaz\AppData\Local\Temp\ccmUlyJK.s 			page 40


 414:Generated_Source\PSoC6\pdl\drivers/peripheral/scb/cy_scb_common.h **** * \defgroup group_scb_common_macros_SpiIntrStatuses SPI Interrupt Statuses
 415:Generated_Source\PSoC6\pdl\drivers/peripheral/scb/cy_scb_common.h **** * \{
 416:Generated_Source\PSoC6\pdl\drivers/peripheral/scb/cy_scb_common.h **** */
 417:Generated_Source\PSoC6\pdl\drivers/peripheral/scb/cy_scb_common.h **** /**
 418:Generated_Source\PSoC6\pdl\drivers/peripheral/scb/cy_scb_common.h **** * Wake up request: the SPI slave detects an active edge of the slave select
 419:Generated_Source\PSoC6\pdl\drivers/peripheral/scb/cy_scb_common.h **** * signal. Note that this interrupt source triggers in active mode.
 420:Generated_Source\PSoC6\pdl\drivers/peripheral/scb/cy_scb_common.h **** */
 421:Generated_Source\PSoC6\pdl\drivers/peripheral/scb/cy_scb_common.h **** #define CY_SCB_SPI_INTR_WAKEUP     SCB_INTR_SPI_EC_WAKE_UP_Msk
 422:Generated_Source\PSoC6\pdl\drivers/peripheral/scb/cy_scb_common.h **** /** \} group_scb_common_macros_SpiIntrStatuses */
 423:Generated_Source\PSoC6\pdl\drivers/peripheral/scb/cy_scb_common.h **** 
 424:Generated_Source\PSoC6\pdl\drivers/peripheral/scb/cy_scb_common.h **** 
 425:Generated_Source\PSoC6\pdl\drivers/peripheral/scb/cy_scb_common.h **** /***************************************
 426:Generated_Source\PSoC6\pdl\drivers/peripheral/scb/cy_scb_common.h **** *         Internal Constants
 427:Generated_Source\PSoC6\pdl\drivers/peripheral/scb/cy_scb_common.h **** ***************************************/
 428:Generated_Source\PSoC6\pdl\drivers/peripheral/scb/cy_scb_common.h **** 
 429:Generated_Source\PSoC6\pdl\drivers/peripheral/scb/cy_scb_common.h **** /** \cond INTERNAL */
 430:Generated_Source\PSoC6\pdl\drivers/peripheral/scb/cy_scb_common.h **** 
 431:Generated_Source\PSoC6\pdl\drivers/peripheral/scb/cy_scb_common.h **** /* Default registers values */
 432:Generated_Source\PSoC6\pdl\drivers/peripheral/scb/cy_scb_common.h **** #define CY_SCB_CTRL_DEF_VAL         (_VAL2FLD(SCB_CTRL_OVS, 15UL) | \
 433:Generated_Source\PSoC6\pdl\drivers/peripheral/scb/cy_scb_common.h ****                                      _VAL2FLD(SCB_CTRL_MODE, 3UL))
 434:Generated_Source\PSoC6\pdl\drivers/peripheral/scb/cy_scb_common.h **** 
 435:Generated_Source\PSoC6\pdl\drivers/peripheral/scb/cy_scb_common.h **** #define CY_SCB_I2C_CTRL_DEF_VAL     (_VAL2FLD(SCB_I2C_CTRL_HIGH_PHASE_OVS, 8UL)        | \
 436:Generated_Source\PSoC6\pdl\drivers/peripheral/scb/cy_scb_common.h ****                                      _VAL2FLD(SCB_I2C_CTRL_HIGH_PHASE_OVS, 8UL)        | \
 437:Generated_Source\PSoC6\pdl\drivers/peripheral/scb/cy_scb_common.h ****                                      _VAL2FLD(SCB_I2C_CTRL_M_READY_DATA_ACK, 1UL)      | \
 438:Generated_Source\PSoC6\pdl\drivers/peripheral/scb/cy_scb_common.h ****                                      _VAL2FLD(SCB_I2C_CTRL_M_NOT_READY_DATA_NACK, 1UL) | \
 439:Generated_Source\PSoC6\pdl\drivers/peripheral/scb/cy_scb_common.h ****                                      _VAL2FLD(SCB_I2C_CTRL_S_GENERAL_IGNORE, 1UL)      | \
 440:Generated_Source\PSoC6\pdl\drivers/peripheral/scb/cy_scb_common.h ****                                      _VAL2FLD(SCB_I2C_CTRL_S_READY_ADDR_ACK, 1UL)      | \
 441:Generated_Source\PSoC6\pdl\drivers/peripheral/scb/cy_scb_common.h ****                                      _VAL2FLD(SCB_I2C_CTRL_S_READY_DATA_ACK, 1UL)      | \
 442:Generated_Source\PSoC6\pdl\drivers/peripheral/scb/cy_scb_common.h ****                                      _VAL2FLD(SCB_I2C_CTRL_S_NOT_READY_ADDR_NACK, 1UL) | \
 443:Generated_Source\PSoC6\pdl\drivers/peripheral/scb/cy_scb_common.h ****                                      _VAL2FLD(SCB_I2C_CTRL_S_NOT_READY_DATA_NACK, 1UL))
 444:Generated_Source\PSoC6\pdl\drivers/peripheral/scb/cy_scb_common.h **** 
 445:Generated_Source\PSoC6\pdl\drivers/peripheral/scb/cy_scb_common.h **** #define CY_SCB_I2C_CFG_DEF_VAL      (_VAL2FLD(SCB_I2C_CFG_SDA_IN_FILT_TRIM, 3UL)   | \
 446:Generated_Source\PSoC6\pdl\drivers/peripheral/scb/cy_scb_common.h ****                                      _VAL2FLD(SCB_I2C_CFG_SDA_IN_FILT_SEL, 1UL)    | \
 447:Generated_Source\PSoC6\pdl\drivers/peripheral/scb/cy_scb_common.h ****                                      _VAL2FLD(SCB_I2C_CFG_SCL_IN_FILT_SEL, 1UL)    | \
 448:Generated_Source\PSoC6\pdl\drivers/peripheral/scb/cy_scb_common.h ****                                      _VAL2FLD(SCB_I2C_CFG_SDA_OUT_FILT0_TRIM, 2UL) | \
 449:Generated_Source\PSoC6\pdl\drivers/peripheral/scb/cy_scb_common.h ****                                      _VAL2FLD(SCB_I2C_CFG_SDA_OUT_FILT1_TRIM, 2UL) | \
 450:Generated_Source\PSoC6\pdl\drivers/peripheral/scb/cy_scb_common.h ****                                      _VAL2FLD(SCB_I2C_CFG_SDA_OUT_FILT2_TRIM, 2UL))
 451:Generated_Source\PSoC6\pdl\drivers/peripheral/scb/cy_scb_common.h **** 
 452:Generated_Source\PSoC6\pdl\drivers/peripheral/scb/cy_scb_common.h **** #define CY_SCB_SPI_CTRL_DEF_VAL     _VAL2FLD(SCB_SPI_CTRL_MODE, 3UL)
 453:Generated_Source\PSoC6\pdl\drivers/peripheral/scb/cy_scb_common.h **** #define CY_SCB_UART_CTRL_DEF_VAL    _VAL2FLD(SCB_UART_CTRL_MODE, 3UL)
 454:Generated_Source\PSoC6\pdl\drivers/peripheral/scb/cy_scb_common.h **** 
 455:Generated_Source\PSoC6\pdl\drivers/peripheral/scb/cy_scb_common.h **** #define CY_SCB_UART_RX_CTRL_DEF_VAL (_VAL2FLD(SCB_UART_RX_CTRL_STOP_BITS, 2UL) | \
 456:Generated_Source\PSoC6\pdl\drivers/peripheral/scb/cy_scb_common.h ****                                      _VAL2FLD(SCB_UART_RX_CTRL_BREAK_WIDTH, 10UL))
 457:Generated_Source\PSoC6\pdl\drivers/peripheral/scb/cy_scb_common.h **** 
 458:Generated_Source\PSoC6\pdl\drivers/peripheral/scb/cy_scb_common.h **** #define CY_SCB_UART_TX_CTRL_DEF_VAL _VAL2FLD(SCB_UART_TX_CTRL_STOP_BITS, 2UL)
 459:Generated_Source\PSoC6\pdl\drivers/peripheral/scb/cy_scb_common.h **** 
 460:Generated_Source\PSoC6\pdl\drivers/peripheral/scb/cy_scb_common.h **** #define CY_SCB_RX_CTRL_DEF_VAL      (_VAL2FLD(SCB_RX_CTRL_DATA_WIDTH, 7UL) | \
 461:Generated_Source\PSoC6\pdl\drivers/peripheral/scb/cy_scb_common.h ****                                      _VAL2FLD(SCB_RX_CTRL_MSB_FIRST,  1UL))
 462:Generated_Source\PSoC6\pdl\drivers/peripheral/scb/cy_scb_common.h **** 
 463:Generated_Source\PSoC6\pdl\drivers/peripheral/scb/cy_scb_common.h **** #define CY_SCB_TX_CTRL_DEF_VAL      (_VAL2FLD(SCB_TX_CTRL_DATA_WIDTH, 7UL) | \
 464:Generated_Source\PSoC6\pdl\drivers/peripheral/scb/cy_scb_common.h ****                                      _VAL2FLD(SCB_TX_CTRL_MSB_FIRST,  1UL))
 465:Generated_Source\PSoC6\pdl\drivers/peripheral/scb/cy_scb_common.h **** 
 466:Generated_Source\PSoC6\pdl\drivers/peripheral/scb/cy_scb_common.h **** /* SCB CTRL modes */
 467:Generated_Source\PSoC6\pdl\drivers/peripheral/scb/cy_scb_common.h **** #define CY_SCB_CTRL_MODE_I2C   (0UL)
 468:Generated_Source\PSoC6\pdl\drivers/peripheral/scb/cy_scb_common.h **** #define CY_SCB_CTRL_MODE_SPI   (1UL)
 469:Generated_Source\PSoC6\pdl\drivers/peripheral/scb/cy_scb_common.h **** #define CY_SCB_CTRL_MODE_UART  (2UL)
 470:Generated_Source\PSoC6\pdl\drivers/peripheral/scb/cy_scb_common.h **** 
ARM GAS  C:\Users\salaz\AppData\Local\Temp\ccmUlyJK.s 			page 41


 471:Generated_Source\PSoC6\pdl\drivers/peripheral/scb/cy_scb_common.h **** /* The position and mask to set the I2C mode */
 472:Generated_Source\PSoC6\pdl\drivers/peripheral/scb/cy_scb_common.h **** #define CY_SCB_I2C_CTRL_MODE_Pos    SCB_I2C_CTRL_SLAVE_MODE_Pos
 473:Generated_Source\PSoC6\pdl\drivers/peripheral/scb/cy_scb_common.h **** #define CY_SCB_I2C_CTRL_MODE_Msk    (SCB_I2C_CTRL_SLAVE_MODE_Msk | \
 474:Generated_Source\PSoC6\pdl\drivers/peripheral/scb/cy_scb_common.h ****                                      SCB_I2C_CTRL_MASTER_MODE_Msk)
 475:Generated_Source\PSoC6\pdl\drivers/peripheral/scb/cy_scb_common.h **** 
 476:Generated_Source\PSoC6\pdl\drivers/peripheral/scb/cy_scb_common.h **** /* Cypress ID #282226:
 477:Generated_Source\PSoC6\pdl\drivers/peripheral/scb/cy_scb_common.h **** * SCB_I2C_CFG_SDA_IN_FILT_TRIM[1]: SCB clock enable (1), clock disable (0).
 478:Generated_Source\PSoC6\pdl\drivers/peripheral/scb/cy_scb_common.h **** */
 479:Generated_Source\PSoC6\pdl\drivers/peripheral/scb/cy_scb_common.h **** #define CY_SCB_I2C_CFG_CLK_ENABLE_Msk  (_VAL2FLD(SCB_I2C_CFG_SDA_IN_FILT_TRIM, 2UL))
 480:Generated_Source\PSoC6\pdl\drivers/peripheral/scb/cy_scb_common.h **** 
 481:Generated_Source\PSoC6\pdl\drivers/peripheral/scb/cy_scb_common.h **** /* I2C has fixed data width */
 482:Generated_Source\PSoC6\pdl\drivers/peripheral/scb/cy_scb_common.h **** #define CY_SCB_I2C_DATA_WIDTH   (7UL)
 483:Generated_Source\PSoC6\pdl\drivers/peripheral/scb/cy_scb_common.h **** 
 484:Generated_Source\PSoC6\pdl\drivers/peripheral/scb/cy_scb_common.h **** /* RX and TX control register values */
 485:Generated_Source\PSoC6\pdl\drivers/peripheral/scb/cy_scb_common.h **** #define CY_SCB_I2C_RX_CTRL      (_VAL2FLD(SCB_RX_CTRL_DATA_WIDTH, CY_SCB_I2C_DATA_WIDTH) | \
 486:Generated_Source\PSoC6\pdl\drivers/peripheral/scb/cy_scb_common.h ****                                  SCB_RX_CTRL_MSB_FIRST_Msk)
 487:Generated_Source\PSoC6\pdl\drivers/peripheral/scb/cy_scb_common.h **** #define CY_SCB_I2C_TX_CTRL      (_VAL2FLD(SCB_TX_CTRL_DATA_WIDTH, CY_SCB_I2C_DATA_WIDTH) | \
 488:Generated_Source\PSoC6\pdl\drivers/peripheral/scb/cy_scb_common.h ****                                  SCB_TX_CTRL_MSB_FIRST_Msk | SCB_TX_CTRL_OPEN_DRAIN_Msk)
 489:Generated_Source\PSoC6\pdl\drivers/peripheral/scb/cy_scb_common.h **** 
 490:Generated_Source\PSoC6\pdl\drivers/peripheral/scb/cy_scb_common.h **** /* The position and mask to make an address byte */
 491:Generated_Source\PSoC6\pdl\drivers/peripheral/scb/cy_scb_common.h **** #define CY_SCB_I2C_ADDRESS_Pos  (1UL)
 492:Generated_Source\PSoC6\pdl\drivers/peripheral/scb/cy_scb_common.h **** #define CY_SCB_I2C_ADDRESS_Msk  (0xFEUL)
 493:Generated_Source\PSoC6\pdl\drivers/peripheral/scb/cy_scb_common.h **** 
 494:Generated_Source\PSoC6\pdl\drivers/peripheral/scb/cy_scb_common.h **** /* SPI slave select polarity */
 495:Generated_Source\PSoC6\pdl\drivers/peripheral/scb/cy_scb_common.h **** #define CY_SCB_SPI_CTRL_SSEL_POLARITY_Pos   SCB_SPI_CTRL_SSEL_POLARITY0_Pos
 496:Generated_Source\PSoC6\pdl\drivers/peripheral/scb/cy_scb_common.h **** #define CY_SCB_SPI_CTRL_SSEL_POLARITY_Msk   (SCB_SPI_CTRL_SSEL_POLARITY0_Msk | \
 497:Generated_Source\PSoC6\pdl\drivers/peripheral/scb/cy_scb_common.h ****                                              SCB_SPI_CTRL_SSEL_POLARITY1_Msk | \
 498:Generated_Source\PSoC6\pdl\drivers/peripheral/scb/cy_scb_common.h ****                                              SCB_SPI_CTRL_SSEL_POLARITY2_Msk | \
 499:Generated_Source\PSoC6\pdl\drivers/peripheral/scb/cy_scb_common.h ****                                              SCB_SPI_CTRL_SSEL_POLARITY3_Msk)
 500:Generated_Source\PSoC6\pdl\drivers/peripheral/scb/cy_scb_common.h **** 
 501:Generated_Source\PSoC6\pdl\drivers/peripheral/scb/cy_scb_common.h **** /* SPI clock modes: CPHA and CPOL */
 502:Generated_Source\PSoC6\pdl\drivers/peripheral/scb/cy_scb_common.h **** #define CY_SCB_SPI_CTRL_CLK_MODE_Pos    SCB_SPI_CTRL_CPHA_Pos
 503:Generated_Source\PSoC6\pdl\drivers/peripheral/scb/cy_scb_common.h **** #define CY_SCB_SPI_CTRL_CLK_MODE_Msk    (SCB_SPI_CTRL_CPHA_Msk | SCB_SPI_CTRL_CPOL_Msk)
 504:Generated_Source\PSoC6\pdl\drivers/peripheral/scb/cy_scb_common.h **** 
 505:Generated_Source\PSoC6\pdl\drivers/peripheral/scb/cy_scb_common.h **** /* UART parity and parity enable combination */
 506:Generated_Source\PSoC6\pdl\drivers/peripheral/scb/cy_scb_common.h **** #define CY_SCB_UART_RX_CTRL_SET_PARITY_Msk      (SCB_UART_RX_CTRL_PARITY_ENABLED_Msk | \
 507:Generated_Source\PSoC6\pdl\drivers/peripheral/scb/cy_scb_common.h ****                                                  SCB_UART_RX_CTRL_PARITY_Msk)
 508:Generated_Source\PSoC6\pdl\drivers/peripheral/scb/cy_scb_common.h **** #define CY_SCB_UART_RX_CTRL_SET_PARITY_Pos      SCB_UART_RX_CTRL_PARITY_Pos
 509:Generated_Source\PSoC6\pdl\drivers/peripheral/scb/cy_scb_common.h **** 
 510:Generated_Source\PSoC6\pdl\drivers/peripheral/scb/cy_scb_common.h **** #define CY_SCB_UART_TX_CTRL_SET_PARITY_Msk      (SCB_UART_TX_CTRL_PARITY_ENABLED_Msk | \
 511:Generated_Source\PSoC6\pdl\drivers/peripheral/scb/cy_scb_common.h ****                                                  SCB_UART_TX_CTRL_PARITY_Msk)
 512:Generated_Source\PSoC6\pdl\drivers/peripheral/scb/cy_scb_common.h **** #define CY_SCB_UART_TX_CTRL_SET_PARITY_Pos      SCB_UART_TX_CTRL_PARITY_Pos
 513:Generated_Source\PSoC6\pdl\drivers/peripheral/scb/cy_scb_common.h **** 
 514:Generated_Source\PSoC6\pdl\drivers/peripheral/scb/cy_scb_common.h **** /* Max number of bits for byte mode */
 515:Generated_Source\PSoC6\pdl\drivers/peripheral/scb/cy_scb_common.h **** #define CY_SCB_BYTE_WIDTH   (8UL)
 516:Generated_Source\PSoC6\pdl\drivers/peripheral/scb/cy_scb_common.h **** 
 517:Generated_Source\PSoC6\pdl\drivers/peripheral/scb/cy_scb_common.h **** /* Single unit to wait */
 518:Generated_Source\PSoC6\pdl\drivers/peripheral/scb/cy_scb_common.h **** #define CY_SCB_WAIT_1_UNIT  (1U)
 519:Generated_Source\PSoC6\pdl\drivers/peripheral/scb/cy_scb_common.h **** 
 520:Generated_Source\PSoC6\pdl\drivers/peripheral/scb/cy_scb_common.h **** /* Clear interrupt sources */
 521:Generated_Source\PSoC6\pdl\drivers/peripheral/scb/cy_scb_common.h **** #define CY_SCB_CLEAR_ALL_INTR_SRC   (0UL)
 522:Generated_Source\PSoC6\pdl\drivers/peripheral/scb/cy_scb_common.h **** 
 523:Generated_Source\PSoC6\pdl\drivers/peripheral/scb/cy_scb_common.h **** /* Hardware FIFO size */
 524:Generated_Source\PSoC6\pdl\drivers/peripheral/scb/cy_scb_common.h **** #define CY_SCB_FIFO_SIZE(base)    (SCB_GET_EZ_DATA_NR(base) / 2UL)
 525:Generated_Source\PSoC6\pdl\drivers/peripheral/scb/cy_scb_common.h **** 
 526:Generated_Source\PSoC6\pdl\drivers/peripheral/scb/cy_scb_common.h **** /* Provides a list of allowed sources */
 527:Generated_Source\PSoC6\pdl\drivers/peripheral/scb/cy_scb_common.h **** #define CY_SCB_TX_INTR_MASK     (CY_SCB_TX_INTR_LEVEL     | CY_SCB_TX_INTR_NOT_FULL  | CY_SCB_TX_IN
ARM GAS  C:\Users\salaz\AppData\Local\Temp\ccmUlyJK.s 			page 42


 528:Generated_Source\PSoC6\pdl\drivers/peripheral/scb/cy_scb_common.h ****                                  CY_SCB_TX_INTR_OVERFLOW  | CY_SCB_TX_INTR_UNDERFLOW | CY_SCB_TX_IN
 529:Generated_Source\PSoC6\pdl\drivers/peripheral/scb/cy_scb_common.h ****                                  CY_SCB_TX_INTR_UART_NACK | CY_SCB_TX_INTR_UART_ARB_LOST)
 530:Generated_Source\PSoC6\pdl\drivers/peripheral/scb/cy_scb_common.h **** 
 531:Generated_Source\PSoC6\pdl\drivers/peripheral/scb/cy_scb_common.h **** #define CY_SCB_RX_INTR_MASK     (CY_SCB_RX_INTR_LEVEL             | CY_SCB_RX_INTR_NOT_EMPTY | CY_S
 532:Generated_Source\PSoC6\pdl\drivers/peripheral/scb/cy_scb_common.h ****                                  CY_SCB_RX_INTR_OVERFLOW          | CY_SCB_RX_INTR_UNDERFLOW       
 533:Generated_Source\PSoC6\pdl\drivers/peripheral/scb/cy_scb_common.h ****                                  CY_SCB_RX_INTR_UART_FRAME_ERROR  | CY_SCB_RX_INTR_UART_PARITY_ERRO
 534:Generated_Source\PSoC6\pdl\drivers/peripheral/scb/cy_scb_common.h ****                                  CY_SCB_RX_INTR_UART_BREAK_DETECT)
 535:Generated_Source\PSoC6\pdl\drivers/peripheral/scb/cy_scb_common.h **** 
 536:Generated_Source\PSoC6\pdl\drivers/peripheral/scb/cy_scb_common.h **** 
 537:Generated_Source\PSoC6\pdl\drivers/peripheral/scb/cy_scb_common.h **** #define CY_SCB_SLAVE_INTR_MASK  (CY_SCB_SLAVE_INTR_I2C_ARB_LOST   | CY_SCB_SLAVE_INTR_I2C_NACK | CY
 538:Generated_Source\PSoC6\pdl\drivers/peripheral/scb/cy_scb_common.h ****                                  CY_SCB_SLAVE_INTR_I2C_WRITE_STOP | CY_SCB_SLAVE_INTR_I2C_STOP | CY
 539:Generated_Source\PSoC6\pdl\drivers/peripheral/scb/cy_scb_common.h ****                                  CY_SCB_SLAVE_INTR_I2C_ADDR_MATCH | CY_SCB_SLAVE_INTR_I2C_GENERAL_A
 540:Generated_Source\PSoC6\pdl\drivers/peripheral/scb/cy_scb_common.h ****                                  CY_SCB_SLAVE_INTR_I2C_BUS_ERROR  | CY_SCB_SLAVE_INTR_SPI_BUS_ERROR
 541:Generated_Source\PSoC6\pdl\drivers/peripheral/scb/cy_scb_common.h **** 
 542:Generated_Source\PSoC6\pdl\drivers/peripheral/scb/cy_scb_common.h **** #define CY_SCB_MASTER_INTR_MASK (CY_SCB_MASTER_INTR_I2C_ARB_LOST  | CY_SCB_MASTER_INTR_I2C_NACK | \
 543:Generated_Source\PSoC6\pdl\drivers/peripheral/scb/cy_scb_common.h ****                                  CY_SCB_MASTER_INTR_I2C_ACK       | CY_SCB_MASTER_INTR_I2C_STOP | \
 544:Generated_Source\PSoC6\pdl\drivers/peripheral/scb/cy_scb_common.h ****                                  CY_SCB_MASTER_INTR_I2C_BUS_ERROR | CY_SCB_MASTER_INTR_SPI_DONE)
 545:Generated_Source\PSoC6\pdl\drivers/peripheral/scb/cy_scb_common.h **** 
 546:Generated_Source\PSoC6\pdl\drivers/peripheral/scb/cy_scb_common.h **** #define CY_SCB_I2C_INTR_MASK    CY_SCB_I2C_INTR_WAKEUP
 547:Generated_Source\PSoC6\pdl\drivers/peripheral/scb/cy_scb_common.h **** 
 548:Generated_Source\PSoC6\pdl\drivers/peripheral/scb/cy_scb_common.h **** #define CY_SCB_SPI_INTR_MASK    CY_SCB_SPI_INTR_WAKEUP
 549:Generated_Source\PSoC6\pdl\drivers/peripheral/scb/cy_scb_common.h **** 
 550:Generated_Source\PSoC6\pdl\drivers/peripheral/scb/cy_scb_common.h **** #define CY_SCB_IS_INTR_VALID(intr, mask)            ( 0UL == ((intr) & ((uint32_t) ~(mask))) )
 551:Generated_Source\PSoC6\pdl\drivers/peripheral/scb/cy_scb_common.h **** #define CY_SCB_IS_TRIGGER_LEVEL_VALID(base, level)  ((level) < Cy_SCB_GetFifoSize(base))
 552:Generated_Source\PSoC6\pdl\drivers/peripheral/scb/cy_scb_common.h **** 
 553:Generated_Source\PSoC6\pdl\drivers/peripheral/scb/cy_scb_common.h **** #define CY_SCB_IS_I2C_ADDR_VALID(addr)              ( (0U == ((addr) & 0x80U)) )
 554:Generated_Source\PSoC6\pdl\drivers/peripheral/scb/cy_scb_common.h **** #define CY_SCB_IS_BUFFER_VALID(buffer, size)        ( (NULL != (buffer)) && ((size) > 0UL) )
 555:Generated_Source\PSoC6\pdl\drivers/peripheral/scb/cy_scb_common.h **** #define CY_SCB_IS_I2C_BUFFER_VALID(buffer, size)    ( (0UL == (size)) ? true : (NULL != (buffer)) )
 556:Generated_Source\PSoC6\pdl\drivers/peripheral/scb/cy_scb_common.h **** /** \endcond */
 557:Generated_Source\PSoC6\pdl\drivers/peripheral/scb/cy_scb_common.h **** 
 558:Generated_Source\PSoC6\pdl\drivers/peripheral/scb/cy_scb_common.h **** /** \} group_scb_common_macros */
 559:Generated_Source\PSoC6\pdl\drivers/peripheral/scb/cy_scb_common.h **** 
 560:Generated_Source\PSoC6\pdl\drivers/peripheral/scb/cy_scb_common.h **** 
 561:Generated_Source\PSoC6\pdl\drivers/peripheral/scb/cy_scb_common.h **** /***************************************
 562:Generated_Source\PSoC6\pdl\drivers/peripheral/scb/cy_scb_common.h **** * Inline Function Implementation
 563:Generated_Source\PSoC6\pdl\drivers/peripheral/scb/cy_scb_common.h **** ***************************************/
 564:Generated_Source\PSoC6\pdl\drivers/peripheral/scb/cy_scb_common.h **** 
 565:Generated_Source\PSoC6\pdl\drivers/peripheral/scb/cy_scb_common.h **** /**
 566:Generated_Source\PSoC6\pdl\drivers/peripheral/scb/cy_scb_common.h **** * \addtogroup group_scb_common_functions
 567:Generated_Source\PSoC6\pdl\drivers/peripheral/scb/cy_scb_common.h **** * \{
 568:Generated_Source\PSoC6\pdl\drivers/peripheral/scb/cy_scb_common.h **** */
 569:Generated_Source\PSoC6\pdl\drivers/peripheral/scb/cy_scb_common.h **** 
 570:Generated_Source\PSoC6\pdl\drivers/peripheral/scb/cy_scb_common.h **** /*******************************************************************************
 571:Generated_Source\PSoC6\pdl\drivers/peripheral/scb/cy_scb_common.h **** * Function Name: Cy_SCB_ReadRxFifo
 572:Generated_Source\PSoC6\pdl\drivers/peripheral/scb/cy_scb_common.h **** ****************************************************************************//**
 573:Generated_Source\PSoC6\pdl\drivers/peripheral/scb/cy_scb_common.h **** *
 574:Generated_Source\PSoC6\pdl\drivers/peripheral/scb/cy_scb_common.h **** * Reads a data element directly out of the RX FIFO.
 575:Generated_Source\PSoC6\pdl\drivers/peripheral/scb/cy_scb_common.h **** * This function does not check whether the RX FIFO has data before reading it.
 576:Generated_Source\PSoC6\pdl\drivers/peripheral/scb/cy_scb_common.h **** *
 577:Generated_Source\PSoC6\pdl\drivers/peripheral/scb/cy_scb_common.h **** * \param base
 578:Generated_Source\PSoC6\pdl\drivers/peripheral/scb/cy_scb_common.h **** * The pointer to the SCB instance.
 579:Generated_Source\PSoC6\pdl\drivers/peripheral/scb/cy_scb_common.h **** *
 580:Generated_Source\PSoC6\pdl\drivers/peripheral/scb/cy_scb_common.h **** * \return
 581:Generated_Source\PSoC6\pdl\drivers/peripheral/scb/cy_scb_common.h **** * Data from RX FIFO.
 582:Generated_Source\PSoC6\pdl\drivers/peripheral/scb/cy_scb_common.h **** *
 583:Generated_Source\PSoC6\pdl\drivers/peripheral/scb/cy_scb_common.h **** *******************************************************************************/
 584:Generated_Source\PSoC6\pdl\drivers/peripheral/scb/cy_scb_common.h **** __STATIC_INLINE uint32_t Cy_SCB_ReadRxFifo(CySCB_Type const *base)
ARM GAS  C:\Users\salaz\AppData\Local\Temp\ccmUlyJK.s 			page 43


 585:Generated_Source\PSoC6\pdl\drivers/peripheral/scb/cy_scb_common.h **** {
 586:Generated_Source\PSoC6\pdl\drivers/peripheral/scb/cy_scb_common.h ****     return (base->RX_FIFO_RD);
 587:Generated_Source\PSoC6\pdl\drivers/peripheral/scb/cy_scb_common.h **** }
 588:Generated_Source\PSoC6\pdl\drivers/peripheral/scb/cy_scb_common.h **** 
 589:Generated_Source\PSoC6\pdl\drivers/peripheral/scb/cy_scb_common.h **** /*******************************************************************************
 590:Generated_Source\PSoC6\pdl\drivers/peripheral/scb/cy_scb_common.h **** * Function Name: Cy_SCB_SetRxFifoLevel
 591:Generated_Source\PSoC6\pdl\drivers/peripheral/scb/cy_scb_common.h **** ****************************************************************************//**
 592:Generated_Source\PSoC6\pdl\drivers/peripheral/scb/cy_scb_common.h **** *
 593:Generated_Source\PSoC6\pdl\drivers/peripheral/scb/cy_scb_common.h **** * Sets the RX FIFO level. When there are more data elements in the RX FIFO than
 594:Generated_Source\PSoC6\pdl\drivers/peripheral/scb/cy_scb_common.h **** * this level, the RX FIFO level interrupt is triggered.
 595:Generated_Source\PSoC6\pdl\drivers/peripheral/scb/cy_scb_common.h **** *
 596:Generated_Source\PSoC6\pdl\drivers/peripheral/scb/cy_scb_common.h **** * \param base
 597:Generated_Source\PSoC6\pdl\drivers/peripheral/scb/cy_scb_common.h **** * The pointer to the SCB instance.
 598:Generated_Source\PSoC6\pdl\drivers/peripheral/scb/cy_scb_common.h **** *
 599:Generated_Source\PSoC6\pdl\drivers/peripheral/scb/cy_scb_common.h **** * \param level
 600:Generated_Source\PSoC6\pdl\drivers/peripheral/scb/cy_scb_common.h **** * When there are more data elements in the FIFO than this level, the RX level
 601:Generated_Source\PSoC6\pdl\drivers/peripheral/scb/cy_scb_common.h **** * interrupt is triggered.
 602:Generated_Source\PSoC6\pdl\drivers/peripheral/scb/cy_scb_common.h **** *
 603:Generated_Source\PSoC6\pdl\drivers/peripheral/scb/cy_scb_common.h **** *******************************************************************************/
 604:Generated_Source\PSoC6\pdl\drivers/peripheral/scb/cy_scb_common.h **** __STATIC_INLINE void Cy_SCB_SetRxFifoLevel(CySCB_Type *base, uint32_t level)
 605:Generated_Source\PSoC6\pdl\drivers/peripheral/scb/cy_scb_common.h **** {
 606:Generated_Source\PSoC6\pdl\drivers/peripheral/scb/cy_scb_common.h ****     CY_ASSERT_L2(CY_SCB_IS_TRIGGER_LEVEL_VALID(base, level));
 607:Generated_Source\PSoC6\pdl\drivers/peripheral/scb/cy_scb_common.h **** 
 608:Generated_Source\PSoC6\pdl\drivers/peripheral/scb/cy_scb_common.h ****     base->RX_FIFO_CTRL = _CLR_SET_FLD32U(base->RX_FIFO_CTRL, SCB_RX_FIFO_CTRL_TRIGGER_LEVEL, level)
 609:Generated_Source\PSoC6\pdl\drivers/peripheral/scb/cy_scb_common.h **** }
 610:Generated_Source\PSoC6\pdl\drivers/peripheral/scb/cy_scb_common.h **** 
 611:Generated_Source\PSoC6\pdl\drivers/peripheral/scb/cy_scb_common.h **** 
 612:Generated_Source\PSoC6\pdl\drivers/peripheral/scb/cy_scb_common.h **** /*******************************************************************************
 613:Generated_Source\PSoC6\pdl\drivers/peripheral/scb/cy_scb_common.h **** * Function Name: Cy_SCB_GetNumInRxFifo
 614:Generated_Source\PSoC6\pdl\drivers/peripheral/scb/cy_scb_common.h **** ****************************************************************************//**
 615:Generated_Source\PSoC6\pdl\drivers/peripheral/scb/cy_scb_common.h **** *
 616:Generated_Source\PSoC6\pdl\drivers/peripheral/scb/cy_scb_common.h **** * Returns the number of data elements currently in the RX FIFO.
 617:Generated_Source\PSoC6\pdl\drivers/peripheral/scb/cy_scb_common.h **** *
 618:Generated_Source\PSoC6\pdl\drivers/peripheral/scb/cy_scb_common.h **** * \param base
 619:Generated_Source\PSoC6\pdl\drivers/peripheral/scb/cy_scb_common.h **** * The pointer to the SCB instance.
 620:Generated_Source\PSoC6\pdl\drivers/peripheral/scb/cy_scb_common.h **** *
 621:Generated_Source\PSoC6\pdl\drivers/peripheral/scb/cy_scb_common.h **** * \return
 622:Generated_Source\PSoC6\pdl\drivers/peripheral/scb/cy_scb_common.h **** * The number or data elements in RX FIFO.
 623:Generated_Source\PSoC6\pdl\drivers/peripheral/scb/cy_scb_common.h **** *
 624:Generated_Source\PSoC6\pdl\drivers/peripheral/scb/cy_scb_common.h **** *******************************************************************************/
 625:Generated_Source\PSoC6\pdl\drivers/peripheral/scb/cy_scb_common.h **** __STATIC_INLINE uint32_t Cy_SCB_GetNumInRxFifo(CySCB_Type const *base)
 626:Generated_Source\PSoC6\pdl\drivers/peripheral/scb/cy_scb_common.h **** {
 627:Generated_Source\PSoC6\pdl\drivers/peripheral/scb/cy_scb_common.h ****     return _FLD2VAL(SCB_RX_FIFO_STATUS_USED, base->RX_FIFO_STATUS);
 628:Generated_Source\PSoC6\pdl\drivers/peripheral/scb/cy_scb_common.h **** }
 629:Generated_Source\PSoC6\pdl\drivers/peripheral/scb/cy_scb_common.h **** 
 630:Generated_Source\PSoC6\pdl\drivers/peripheral/scb/cy_scb_common.h **** 
 631:Generated_Source\PSoC6\pdl\drivers/peripheral/scb/cy_scb_common.h **** /*******************************************************************************
 632:Generated_Source\PSoC6\pdl\drivers/peripheral/scb/cy_scb_common.h **** * Function Name: Cy_SCB_GetRxSrValid
 633:Generated_Source\PSoC6\pdl\drivers/peripheral/scb/cy_scb_common.h **** ****************************************************************************//**
 634:Generated_Source\PSoC6\pdl\drivers/peripheral/scb/cy_scb_common.h **** *
 635:Generated_Source\PSoC6\pdl\drivers/peripheral/scb/cy_scb_common.h **** * Returns the status of the RX FIFO Shift Register valid bit.
 636:Generated_Source\PSoC6\pdl\drivers/peripheral/scb/cy_scb_common.h **** *
 637:Generated_Source\PSoC6\pdl\drivers/peripheral/scb/cy_scb_common.h **** * \param base
 638:Generated_Source\PSoC6\pdl\drivers/peripheral/scb/cy_scb_common.h **** * The pointer to the SCB instance.
 639:Generated_Source\PSoC6\pdl\drivers/peripheral/scb/cy_scb_common.h **** *
 640:Generated_Source\PSoC6\pdl\drivers/peripheral/scb/cy_scb_common.h **** * \return
 641:Generated_Source\PSoC6\pdl\drivers/peripheral/scb/cy_scb_common.h **** * 1 - RX shift register valid; 0 - RX shift register not valid.
ARM GAS  C:\Users\salaz\AppData\Local\Temp\ccmUlyJK.s 			page 44


 642:Generated_Source\PSoC6\pdl\drivers/peripheral/scb/cy_scb_common.h **** *
 643:Generated_Source\PSoC6\pdl\drivers/peripheral/scb/cy_scb_common.h **** *******************************************************************************/
 644:Generated_Source\PSoC6\pdl\drivers/peripheral/scb/cy_scb_common.h **** __STATIC_INLINE uint32_t Cy_SCB_GetRxSrValid(CySCB_Type const *base)
 645:Generated_Source\PSoC6\pdl\drivers/peripheral/scb/cy_scb_common.h **** {
 646:Generated_Source\PSoC6\pdl\drivers/peripheral/scb/cy_scb_common.h ****     return _FLD2VAL(SCB_RX_FIFO_STATUS_SR_VALID, base->RX_FIFO_STATUS);
 647:Generated_Source\PSoC6\pdl\drivers/peripheral/scb/cy_scb_common.h **** }
 648:Generated_Source\PSoC6\pdl\drivers/peripheral/scb/cy_scb_common.h **** 
 649:Generated_Source\PSoC6\pdl\drivers/peripheral/scb/cy_scb_common.h **** 
 650:Generated_Source\PSoC6\pdl\drivers/peripheral/scb/cy_scb_common.h **** /*******************************************************************************
 651:Generated_Source\PSoC6\pdl\drivers/peripheral/scb/cy_scb_common.h **** * Function Name: Cy_SCB_ClearRxFifo
 652:Generated_Source\PSoC6\pdl\drivers/peripheral/scb/cy_scb_common.h **** ****************************************************************************//**
 653:Generated_Source\PSoC6\pdl\drivers/peripheral/scb/cy_scb_common.h **** *
 654:Generated_Source\PSoC6\pdl\drivers/peripheral/scb/cy_scb_common.h **** * Clears the RX FIFO and shifter.
 655:Generated_Source\PSoC6\pdl\drivers/peripheral/scb/cy_scb_common.h **** *
 656:Generated_Source\PSoC6\pdl\drivers/peripheral/scb/cy_scb_common.h **** * \param base
 657:Generated_Source\PSoC6\pdl\drivers/peripheral/scb/cy_scb_common.h **** * The pointer to the SCB instance.
 658:Generated_Source\PSoC6\pdl\drivers/peripheral/scb/cy_scb_common.h **** *
 659:Generated_Source\PSoC6\pdl\drivers/peripheral/scb/cy_scb_common.h **** * \note
 660:Generated_Source\PSoC6\pdl\drivers/peripheral/scb/cy_scb_common.h **** * If there is partial data in the shifter, it is cleared and lost.
 661:Generated_Source\PSoC6\pdl\drivers/peripheral/scb/cy_scb_common.h **** *
 662:Generated_Source\PSoC6\pdl\drivers/peripheral/scb/cy_scb_common.h **** *******************************************************************************/
 663:Generated_Source\PSoC6\pdl\drivers/peripheral/scb/cy_scb_common.h **** __STATIC_INLINE void Cy_SCB_ClearRxFifo(CySCB_Type* base)
 664:Generated_Source\PSoC6\pdl\drivers/peripheral/scb/cy_scb_common.h **** {
 665:Generated_Source\PSoC6\pdl\drivers/peripheral/scb/cy_scb_common.h ****     base->RX_FIFO_CTRL |= (uint32_t)  SCB_RX_FIFO_CTRL_CLEAR_Msk;
 666:Generated_Source\PSoC6\pdl\drivers/peripheral/scb/cy_scb_common.h ****     base->RX_FIFO_CTRL &= (uint32_t) ~SCB_RX_FIFO_CTRL_CLEAR_Msk;
 667:Generated_Source\PSoC6\pdl\drivers/peripheral/scb/cy_scb_common.h **** 
 668:Generated_Source\PSoC6\pdl\drivers/peripheral/scb/cy_scb_common.h ****     (void) base->RX_FIFO_CTRL;
 669:Generated_Source\PSoC6\pdl\drivers/peripheral/scb/cy_scb_common.h **** }
 670:Generated_Source\PSoC6\pdl\drivers/peripheral/scb/cy_scb_common.h **** 
 671:Generated_Source\PSoC6\pdl\drivers/peripheral/scb/cy_scb_common.h **** 
 672:Generated_Source\PSoC6\pdl\drivers/peripheral/scb/cy_scb_common.h **** /*******************************************************************************
 673:Generated_Source\PSoC6\pdl\drivers/peripheral/scb/cy_scb_common.h **** * Function Name: Cy_SCB_WriteTxFifo
 674:Generated_Source\PSoC6\pdl\drivers/peripheral/scb/cy_scb_common.h **** ****************************************************************************//**
 675:Generated_Source\PSoC6\pdl\drivers/peripheral/scb/cy_scb_common.h **** *
 676:Generated_Source\PSoC6\pdl\drivers/peripheral/scb/cy_scb_common.h **** * Writes data directly into the TX FIFO.
 677:Generated_Source\PSoC6\pdl\drivers/peripheral/scb/cy_scb_common.h **** * This function does not check whether the TX FIFO is not full before writing
 678:Generated_Source\PSoC6\pdl\drivers/peripheral/scb/cy_scb_common.h **** * into it.
 679:Generated_Source\PSoC6\pdl\drivers/peripheral/scb/cy_scb_common.h **** *
 680:Generated_Source\PSoC6\pdl\drivers/peripheral/scb/cy_scb_common.h **** * \param base
 681:Generated_Source\PSoC6\pdl\drivers/peripheral/scb/cy_scb_common.h **** * The pointer to the SCB instance.
 682:Generated_Source\PSoC6\pdl\drivers/peripheral/scb/cy_scb_common.h **** *
 683:Generated_Source\PSoC6\pdl\drivers/peripheral/scb/cy_scb_common.h **** * \param data
 684:Generated_Source\PSoC6\pdl\drivers/peripheral/scb/cy_scb_common.h **** * Data to write to the TX FIFO.
 685:Generated_Source\PSoC6\pdl\drivers/peripheral/scb/cy_scb_common.h **** *
 686:Generated_Source\PSoC6\pdl\drivers/peripheral/scb/cy_scb_common.h **** *******************************************************************************/
 687:Generated_Source\PSoC6\pdl\drivers/peripheral/scb/cy_scb_common.h **** __STATIC_INLINE void Cy_SCB_WriteTxFifo(CySCB_Type* base, uint32_t data)
 688:Generated_Source\PSoC6\pdl\drivers/peripheral/scb/cy_scb_common.h **** {
 689:Generated_Source\PSoC6\pdl\drivers/peripheral/scb/cy_scb_common.h ****     base->TX_FIFO_WR = data;
 690:Generated_Source\PSoC6\pdl\drivers/peripheral/scb/cy_scb_common.h **** }
 691:Generated_Source\PSoC6\pdl\drivers/peripheral/scb/cy_scb_common.h **** 
 692:Generated_Source\PSoC6\pdl\drivers/peripheral/scb/cy_scb_common.h **** 
 693:Generated_Source\PSoC6\pdl\drivers/peripheral/scb/cy_scb_common.h **** /*******************************************************************************
 694:Generated_Source\PSoC6\pdl\drivers/peripheral/scb/cy_scb_common.h **** * Function Name: Cy_SCB_SetTxFifoLevel
 695:Generated_Source\PSoC6\pdl\drivers/peripheral/scb/cy_scb_common.h **** ****************************************************************************//**
 696:Generated_Source\PSoC6\pdl\drivers/peripheral/scb/cy_scb_common.h **** *
 697:Generated_Source\PSoC6\pdl\drivers/peripheral/scb/cy_scb_common.h **** * Sets the TX FIFO level. When there are fewer data elements in the TX FIFO than
 698:Generated_Source\PSoC6\pdl\drivers/peripheral/scb/cy_scb_common.h **** * this level, the TX FIFO level interrupt is triggered.
ARM GAS  C:\Users\salaz\AppData\Local\Temp\ccmUlyJK.s 			page 45


 699:Generated_Source\PSoC6\pdl\drivers/peripheral/scb/cy_scb_common.h **** *
 700:Generated_Source\PSoC6\pdl\drivers/peripheral/scb/cy_scb_common.h **** * \param base
 701:Generated_Source\PSoC6\pdl\drivers/peripheral/scb/cy_scb_common.h **** * The pointer to the SCB instance.
 702:Generated_Source\PSoC6\pdl\drivers/peripheral/scb/cy_scb_common.h **** *
 703:Generated_Source\PSoC6\pdl\drivers/peripheral/scb/cy_scb_common.h **** * \param level
 704:Generated_Source\PSoC6\pdl\drivers/peripheral/scb/cy_scb_common.h **** * When there are fewer data elements in the FIFO than this level, the TX level
 705:Generated_Source\PSoC6\pdl\drivers/peripheral/scb/cy_scb_common.h **** * interrupt is triggered.
 706:Generated_Source\PSoC6\pdl\drivers/peripheral/scb/cy_scb_common.h **** *
 707:Generated_Source\PSoC6\pdl\drivers/peripheral/scb/cy_scb_common.h **** *******************************************************************************/
 708:Generated_Source\PSoC6\pdl\drivers/peripheral/scb/cy_scb_common.h **** __STATIC_INLINE void Cy_SCB_SetTxFifoLevel(CySCB_Type *base, uint32_t level)
 709:Generated_Source\PSoC6\pdl\drivers/peripheral/scb/cy_scb_common.h **** {
 710:Generated_Source\PSoC6\pdl\drivers/peripheral/scb/cy_scb_common.h ****     CY_ASSERT_L2(CY_SCB_IS_TRIGGER_LEVEL_VALID(base, level));
 711:Generated_Source\PSoC6\pdl\drivers/peripheral/scb/cy_scb_common.h **** 
 712:Generated_Source\PSoC6\pdl\drivers/peripheral/scb/cy_scb_common.h ****     base->TX_FIFO_CTRL = _CLR_SET_FLD32U(base->TX_FIFO_CTRL, SCB_TX_FIFO_CTRL_TRIGGER_LEVEL, level)
 713:Generated_Source\PSoC6\pdl\drivers/peripheral/scb/cy_scb_common.h **** }
 714:Generated_Source\PSoC6\pdl\drivers/peripheral/scb/cy_scb_common.h **** 
 715:Generated_Source\PSoC6\pdl\drivers/peripheral/scb/cy_scb_common.h **** 
 716:Generated_Source\PSoC6\pdl\drivers/peripheral/scb/cy_scb_common.h **** /*******************************************************************************
 717:Generated_Source\PSoC6\pdl\drivers/peripheral/scb/cy_scb_common.h **** * Function Name: Cy_SCB_GetNumInTxFifo
 718:Generated_Source\PSoC6\pdl\drivers/peripheral/scb/cy_scb_common.h **** ****************************************************************************//**
 719:Generated_Source\PSoC6\pdl\drivers/peripheral/scb/cy_scb_common.h **** *
 720:Generated_Source\PSoC6\pdl\drivers/peripheral/scb/cy_scb_common.h **** * Returns the number of data elements currently in the TX FIFO.
 721:Generated_Source\PSoC6\pdl\drivers/peripheral/scb/cy_scb_common.h **** *
 722:Generated_Source\PSoC6\pdl\drivers/peripheral/scb/cy_scb_common.h **** * \param base
 723:Generated_Source\PSoC6\pdl\drivers/peripheral/scb/cy_scb_common.h **** * The pointer to the SCB instance.
 724:Generated_Source\PSoC6\pdl\drivers/peripheral/scb/cy_scb_common.h **** *
 725:Generated_Source\PSoC6\pdl\drivers/peripheral/scb/cy_scb_common.h **** * \return
 726:Generated_Source\PSoC6\pdl\drivers/peripheral/scb/cy_scb_common.h **** * The number or data elements in the TX FIFO.
 727:Generated_Source\PSoC6\pdl\drivers/peripheral/scb/cy_scb_common.h **** *
 728:Generated_Source\PSoC6\pdl\drivers/peripheral/scb/cy_scb_common.h **** *******************************************************************************/
 729:Generated_Source\PSoC6\pdl\drivers/peripheral/scb/cy_scb_common.h **** __STATIC_INLINE uint32_t Cy_SCB_GetNumInTxFifo(CySCB_Type const *base)
 730:Generated_Source\PSoC6\pdl\drivers/peripheral/scb/cy_scb_common.h **** {
 731:Generated_Source\PSoC6\pdl\drivers/peripheral/scb/cy_scb_common.h ****     return _FLD2VAL(SCB_TX_FIFO_STATUS_USED, base->TX_FIFO_STATUS);
 590              		.loc 4 731 0 discriminator 1
 591 001e 2C48     		ldr	r0, .L42
 592 0020 8221     		movs	r1, #130
 593 0022 8900     		lsls	r1, r1, #2
 594 0024 4358     		ldr	r3, [r0, r1]
 595 0026 DB05     		lsls	r3, r3, #23
 596 0028 DA0D     		lsrs	r2, r3, #23
 597              	.LVL40:
 598              	.LBE35:
 599              	.LBE34:
 600              	.LBB36:
 601              	.LBB37:
 732:Generated_Source\PSoC6\pdl\drivers/peripheral/scb/cy_scb_common.h **** }
 733:Generated_Source\PSoC6\pdl\drivers/peripheral/scb/cy_scb_common.h **** 
 734:Generated_Source\PSoC6\pdl\drivers/peripheral/scb/cy_scb_common.h **** 
 735:Generated_Source\PSoC6\pdl\drivers/peripheral/scb/cy_scb_common.h **** /*******************************************************************************
 736:Generated_Source\PSoC6\pdl\drivers/peripheral/scb/cy_scb_common.h **** * Function Name: Cy_SCB_GetTxSrValid
 737:Generated_Source\PSoC6\pdl\drivers/peripheral/scb/cy_scb_common.h **** ****************************************************************************//**
 738:Generated_Source\PSoC6\pdl\drivers/peripheral/scb/cy_scb_common.h **** *
 739:Generated_Source\PSoC6\pdl\drivers/peripheral/scb/cy_scb_common.h **** * Returns the status of the TX FIFO Shift Register valid bit.
 740:Generated_Source\PSoC6\pdl\drivers/peripheral/scb/cy_scb_common.h **** *
 741:Generated_Source\PSoC6\pdl\drivers/peripheral/scb/cy_scb_common.h **** * \param base
 742:Generated_Source\PSoC6\pdl\drivers/peripheral/scb/cy_scb_common.h **** * The pointer to the SCB instance.
 743:Generated_Source\PSoC6\pdl\drivers/peripheral/scb/cy_scb_common.h **** *
ARM GAS  C:\Users\salaz\AppData\Local\Temp\ccmUlyJK.s 			page 46


 744:Generated_Source\PSoC6\pdl\drivers/peripheral/scb/cy_scb_common.h **** * \return
 745:Generated_Source\PSoC6\pdl\drivers/peripheral/scb/cy_scb_common.h **** * 1 - TX shift register valid; 0 - TX shift register not valid.
 746:Generated_Source\PSoC6\pdl\drivers/peripheral/scb/cy_scb_common.h **** *
 747:Generated_Source\PSoC6\pdl\drivers/peripheral/scb/cy_scb_common.h **** *******************************************************************************/
 748:Generated_Source\PSoC6\pdl\drivers/peripheral/scb/cy_scb_common.h **** __STATIC_INLINE uint32_t Cy_SCB_GetTxSrValid(CySCB_Type const *base)
 749:Generated_Source\PSoC6\pdl\drivers/peripheral/scb/cy_scb_common.h **** {
 750:Generated_Source\PSoC6\pdl\drivers/peripheral/scb/cy_scb_common.h ****     return _FLD2VAL(SCB_TX_FIFO_STATUS_SR_VALID, base->TX_FIFO_STATUS);
 602              		.loc 4 750 0 discriminator 1
 603 002a 4358     		ldr	r3, [r0, r1]
 604 002c DB0B     		lsrs	r3, r3, #15
 605 002e 0121     		movs	r1, #1
 606 0030 0B40     		ands	r3, r1
 607              	.LVL41:
 608              	.LBE37:
 609              	.LBE36:
  37:KinOS.c       ****     DEBUG_PRINTF("KinOS_Boot 1 \r\n");
 610              		.loc 1 37 0 discriminator 1
 611 0032 9B18     		adds	r3, r3, r2
 612 0034 002B     		cmp	r3, #0
 613 0036 F2D1     		bne	.L37
  38:KinOS.c       ****     DEBUG_WAIT_UART_TX_COMPLETE();
 614              		.loc 1 38 0
 615 0038 2948     		ldr	r0, .L42+16
 616 003a FFF7FEFF 		bl	puts
 617              	.LVL42:
 618              	.L38:
 619              	.LBB38:
 620              	.LBB39:
 731:Generated_Source\PSoC6\pdl\drivers/peripheral/scb/cy_scb_common.h **** }
 621              		.loc 4 731 0 discriminator 1
 622 003e 2448     		ldr	r0, .L42
 623 0040 8221     		movs	r1, #130
 624 0042 8900     		lsls	r1, r1, #2
 625 0044 4358     		ldr	r3, [r0, r1]
 626 0046 DB05     		lsls	r3, r3, #23
 627 0048 DA0D     		lsrs	r2, r3, #23
 628              	.LVL43:
 629              	.LBE39:
 630              	.LBE38:
 631              	.LBB40:
 632              	.LBB41:
 633              		.loc 4 750 0 discriminator 1
 634 004a 4358     		ldr	r3, [r0, r1]
 635 004c DB0B     		lsrs	r3, r3, #15
 636 004e 0121     		movs	r1, #1
 637 0050 0B40     		ands	r3, r1
 638              	.LVL44:
 639              	.LBE41:
 640              	.LBE40:
  39:KinOS.c       ****     
 641              		.loc 1 39 0 discriminator 1
 642 0052 9B18     		adds	r3, r3, r2
 643 0054 002B     		cmp	r3, #0
 644 0056 F2D1     		bne	.L38
 645              	.LBB42:
 646              	.LBB43:
 647              		.file 5 "Generated_Source\\PSoC6\\pdl\\cmsis/include/cmsis_gcc.h"
ARM GAS  C:\Users\salaz\AppData\Local\Temp\ccmUlyJK.s 			page 47


   1:Generated_Source\PSoC6\pdl\cmsis/include/cmsis_gcc.h **** /**************************************************************************//**
   2:Generated_Source\PSoC6\pdl\cmsis/include/cmsis_gcc.h ****  * @file     cmsis_gcc.h
   3:Generated_Source\PSoC6\pdl\cmsis/include/cmsis_gcc.h ****  * @brief    CMSIS compiler GCC header file
   4:Generated_Source\PSoC6\pdl\cmsis/include/cmsis_gcc.h ****  * @version  V5.0.1
   5:Generated_Source\PSoC6\pdl\cmsis/include/cmsis_gcc.h ****  * @date     02. February 2017
   6:Generated_Source\PSoC6\pdl\cmsis/include/cmsis_gcc.h ****  ******************************************************************************/
   7:Generated_Source\PSoC6\pdl\cmsis/include/cmsis_gcc.h **** /*
   8:Generated_Source\PSoC6\pdl\cmsis/include/cmsis_gcc.h ****  * Copyright (c) 2009-2017 ARM Limited. All rights reserved.
   9:Generated_Source\PSoC6\pdl\cmsis/include/cmsis_gcc.h ****  *
  10:Generated_Source\PSoC6\pdl\cmsis/include/cmsis_gcc.h ****  * SPDX-License-Identifier: Apache-2.0
  11:Generated_Source\PSoC6\pdl\cmsis/include/cmsis_gcc.h ****  *
  12:Generated_Source\PSoC6\pdl\cmsis/include/cmsis_gcc.h ****  * Licensed under the Apache License, Version 2.0 (the License); you may
  13:Generated_Source\PSoC6\pdl\cmsis/include/cmsis_gcc.h ****  * not use this file except in compliance with the License.
  14:Generated_Source\PSoC6\pdl\cmsis/include/cmsis_gcc.h ****  * You may obtain a copy of the License at
  15:Generated_Source\PSoC6\pdl\cmsis/include/cmsis_gcc.h ****  *
  16:Generated_Source\PSoC6\pdl\cmsis/include/cmsis_gcc.h ****  * www.apache.org/licenses/LICENSE-2.0
  17:Generated_Source\PSoC6\pdl\cmsis/include/cmsis_gcc.h ****  *
  18:Generated_Source\PSoC6\pdl\cmsis/include/cmsis_gcc.h ****  * Unless required by applicable law or agreed to in writing, software
  19:Generated_Source\PSoC6\pdl\cmsis/include/cmsis_gcc.h ****  * distributed under the License is distributed on an AS IS BASIS, WITHOUT
  20:Generated_Source\PSoC6\pdl\cmsis/include/cmsis_gcc.h ****  * WARRANTIES OR CONDITIONS OF ANY KIND, either express or implied.
  21:Generated_Source\PSoC6\pdl\cmsis/include/cmsis_gcc.h ****  * See the License for the specific language governing permissions and
  22:Generated_Source\PSoC6\pdl\cmsis/include/cmsis_gcc.h ****  * limitations under the License.
  23:Generated_Source\PSoC6\pdl\cmsis/include/cmsis_gcc.h ****  */
  24:Generated_Source\PSoC6\pdl\cmsis/include/cmsis_gcc.h **** 
  25:Generated_Source\PSoC6\pdl\cmsis/include/cmsis_gcc.h **** #ifndef __CMSIS_GCC_H
  26:Generated_Source\PSoC6\pdl\cmsis/include/cmsis_gcc.h **** #define __CMSIS_GCC_H
  27:Generated_Source\PSoC6\pdl\cmsis/include/cmsis_gcc.h **** 
  28:Generated_Source\PSoC6\pdl\cmsis/include/cmsis_gcc.h **** /* ignore some GCC warnings */
  29:Generated_Source\PSoC6\pdl\cmsis/include/cmsis_gcc.h **** #pragma GCC diagnostic push
  30:Generated_Source\PSoC6\pdl\cmsis/include/cmsis_gcc.h **** #pragma GCC diagnostic ignored "-Wsign-conversion"
  31:Generated_Source\PSoC6\pdl\cmsis/include/cmsis_gcc.h **** #pragma GCC diagnostic ignored "-Wconversion"
  32:Generated_Source\PSoC6\pdl\cmsis/include/cmsis_gcc.h **** #pragma GCC diagnostic ignored "-Wunused-parameter"
  33:Generated_Source\PSoC6\pdl\cmsis/include/cmsis_gcc.h **** 
  34:Generated_Source\PSoC6\pdl\cmsis/include/cmsis_gcc.h **** /* CMSIS compiler specific defines */
  35:Generated_Source\PSoC6\pdl\cmsis/include/cmsis_gcc.h **** #ifndef   __ASM
  36:Generated_Source\PSoC6\pdl\cmsis/include/cmsis_gcc.h ****   #define __ASM                     __asm
  37:Generated_Source\PSoC6\pdl\cmsis/include/cmsis_gcc.h **** #endif
  38:Generated_Source\PSoC6\pdl\cmsis/include/cmsis_gcc.h **** #ifndef   __INLINE
  39:Generated_Source\PSoC6\pdl\cmsis/include/cmsis_gcc.h ****   #define __INLINE                  inline
  40:Generated_Source\PSoC6\pdl\cmsis/include/cmsis_gcc.h **** #endif
  41:Generated_Source\PSoC6\pdl\cmsis/include/cmsis_gcc.h **** #ifndef   __STATIC_INLINE
  42:Generated_Source\PSoC6\pdl\cmsis/include/cmsis_gcc.h ****   #define __STATIC_INLINE           static inline
  43:Generated_Source\PSoC6\pdl\cmsis/include/cmsis_gcc.h **** #endif
  44:Generated_Source\PSoC6\pdl\cmsis/include/cmsis_gcc.h **** #ifndef   __NO_RETURN
  45:Generated_Source\PSoC6\pdl\cmsis/include/cmsis_gcc.h ****   #define __NO_RETURN               __attribute__((noreturn))
  46:Generated_Source\PSoC6\pdl\cmsis/include/cmsis_gcc.h **** #endif
  47:Generated_Source\PSoC6\pdl\cmsis/include/cmsis_gcc.h **** #ifndef   __USED
  48:Generated_Source\PSoC6\pdl\cmsis/include/cmsis_gcc.h ****   #define __USED                    __attribute__((used))
  49:Generated_Source\PSoC6\pdl\cmsis/include/cmsis_gcc.h **** #endif
  50:Generated_Source\PSoC6\pdl\cmsis/include/cmsis_gcc.h **** #ifndef   __WEAK
  51:Generated_Source\PSoC6\pdl\cmsis/include/cmsis_gcc.h ****   #define __WEAK                    __attribute__((weak))
  52:Generated_Source\PSoC6\pdl\cmsis/include/cmsis_gcc.h **** #endif
  53:Generated_Source\PSoC6\pdl\cmsis/include/cmsis_gcc.h **** #ifndef   __UNALIGNED_UINT32
  54:Generated_Source\PSoC6\pdl\cmsis/include/cmsis_gcc.h **** #pragma GCC diagnostic push
  55:Generated_Source\PSoC6\pdl\cmsis/include/cmsis_gcc.h **** #pragma GCC diagnostic ignored "-Wpacked"
  56:Generated_Source\PSoC6\pdl\cmsis/include/cmsis_gcc.h **** #pragma GCC diagnostic ignored "-Wattributes"
  57:Generated_Source\PSoC6\pdl\cmsis/include/cmsis_gcc.h ****   struct __attribute__((packed)) T_UINT32 { uint32_t v; };
ARM GAS  C:\Users\salaz\AppData\Local\Temp\ccmUlyJK.s 			page 48


  58:Generated_Source\PSoC6\pdl\cmsis/include/cmsis_gcc.h **** #pragma GCC diagnostic pop
  59:Generated_Source\PSoC6\pdl\cmsis/include/cmsis_gcc.h ****   #define __UNALIGNED_UINT32(x)     (((struct T_UINT32 *)(x))->v)
  60:Generated_Source\PSoC6\pdl\cmsis/include/cmsis_gcc.h **** #endif
  61:Generated_Source\PSoC6\pdl\cmsis/include/cmsis_gcc.h **** #ifndef   __ALIGNED
