ARM GAS  C:\Users\salaz\AppData\Local\Temp\ccvE4Xni.s 			page 1


   1              		.syntax unified
   2              		.cpu cortex-m0plus
   3              		.fpu softvfp
   4              		.eabi_attribute 20, 1
   5              		.eabi_attribute 21, 1
   6              		.eabi_attribute 23, 3
   7              		.eabi_attribute 24, 1
   8              		.eabi_attribute 25, 1
   9              		.eabi_attribute 26, 1
  10              		.eabi_attribute 30, 1
  11              		.eabi_attribute 34, 0
  12              		.eabi_attribute 18, 4
  13              		.thumb
  14              		.syntax unified
  15              		.file	"TimingMaster.c"
  16              		.text
  17              	.Ltext0:
  18              		.cfi_sections	.debug_frame
  19              		.global	__aeabi_uidiv
  20              		.section	.text.TimingMaster_Update,"ax",%progbits
  21              		.align	2
  22              		.code	16
  23              		.thumb_func
  24              		.type	TimingMaster_Update, %function
  25              	TimingMaster_Update:
  26              	.LFB792:
  27              		.file 1 "TimingMaster.c"
   1:TimingMaster.c **** 
   2:TimingMaster.c **** #include <TimingMaster.h>
   3:TimingMaster.c **** #include <SystemCore.h>
   4:TimingMaster.c **** 
   5:TimingMaster.c **** #include "debug.h"
   6:TimingMaster.c **** 
   7:TimingMaster.c **** //-------------------------------------------------------------//
   8:TimingMaster.c **** 
   9:TimingMaster.c **** typedef struct
  10:TimingMaster.c **** {
  11:TimingMaster.c ****     uint8  id;    // Unique Timer ID
  12:TimingMaster.c ****     uint32 period;  // In LFCLK cycles
  13:TimingMaster.c ****     uint32 remaining; // In LFCLK cycles
  14:TimingMaster.c **** }
  15:TimingMaster.c **** Timer;
  16:TimingMaster.c **** 
  17:TimingMaster.c **** #define EXPIRATION_PREEMPTION 10 // 305 us
  18:TimingMaster.c **** 
  19:TimingMaster.c **** uint8  num_timers = 0;
  20:TimingMaster.c **** Timer  timers[MAX_TIMERS];
  21:TimingMaster.c **** 
  22:TimingMaster.c **** //-------------------------------------------------------------//
  23:TimingMaster.c **** //-----------------------TIMER-MAINTENANCE---------------------//
  24:TimingMaster.c **** //-------------------------------------------------------------//
  25:TimingMaster.c **** 
  26:TimingMaster.c **** static void TimingMaster_Update(uint32 elapsed_count)
  27:TimingMaster.c **** {
  28              		.loc 1 27 0
  29              		.cfi_startproc
  30              		@ args = 0, pretend = 0, frame = 80
ARM GAS  C:\Users\salaz\AppData\Local\Temp\ccvE4Xni.s 			page 2


  31              		@ frame_needed = 0, uses_anonymous_args = 0
  32              	.LVL0:
  33 0000 F0B5     		push	{r4, r5, r6, r7, lr}
  34              		.cfi_def_cfa_offset 20
  35              		.cfi_offset 4, -20
  36              		.cfi_offset 5, -16
  37              		.cfi_offset 6, -12
  38              		.cfi_offset 7, -8
  39              		.cfi_offset 14, -4
  40 0002 95B0     		sub	sp, sp, #84
  41              		.cfi_def_cfa_offset 104
  42              	.LVL1:
  43              	.LBB54:
  28:TimingMaster.c ****     uint8 num_expired = 0;
  29:TimingMaster.c ****     Timer* expired[MAX_TIMERS];
  30:TimingMaster.c ****     uint8 shortest_expiration_id = 0;
  31:TimingMaster.c ****     
  32:TimingMaster.c ****     for(uint8 i = 0; i < num_timers; i++)
  44              		.loc 1 32 0
  45 0004 0023     		movs	r3, #0
  46              	.LBE54:
  30:TimingMaster.c ****     
  47              		.loc 1 30 0
  48 0006 0024     		movs	r4, #0
  28:TimingMaster.c ****     uint8 num_expired = 0;
  49              		.loc 1 28 0
  50 0008 0025     		movs	r5, #0
  51              	.LBB55:
  52              		.loc 1 32 0
  53 000a 2EE0     		b	.L2
  54              	.LVL2:
  55              	.L6:
  33:TimingMaster.c ****     {
  34:TimingMaster.c ****         // Determine which timers are considered expired
  35:TimingMaster.c ****         if(elapsed_count + EXPIRATION_PREEMPTION >= timers[i].remaining)
  56              		.loc 1 35 0
  57 000c 1A00     		movs	r2, r3
  58 000e 5E00     		lsls	r6, r3, #1
  59 0010 F618     		adds	r6, r6, r3
  60 0012 B100     		lsls	r1, r6, #2
  61 0014 5C4E     		ldr	r6, .L18
  62 0016 7118     		adds	r1, r6, r1
  63 0018 8E68     		ldr	r6, [r1, #8]
  64 001a 0100     		movs	r1, r0
  65 001c 0A31     		adds	r1, r1, #10
  66 001e B142     		cmp	r1, r6
  67 0020 0CD3     		bcc	.L3
  36:TimingMaster.c ****         {
  37:TimingMaster.c ****             timers[i].remaining = timers[i].period;
  68              		.loc 1 37 0
  69 0022 5E00     		lsls	r6, r3, #1
  70 0024 F618     		adds	r6, r6, r3
  71 0026 B100     		lsls	r1, r6, #2
  72 0028 574E     		ldr	r6, .L18
  73 002a 7118     		adds	r1, r6, r1
  74 002c 4E68     		ldr	r6, [r1, #4]
  75 002e 8E60     		str	r6, [r1, #8]
ARM GAS  C:\Users\salaz\AppData\Local\Temp\ccvE4Xni.s 			page 3


  38:TimingMaster.c ****             expired[num_expired++] = &timers[i];
  76              		.loc 1 38 0
  77 0030 6E1C     		adds	r6, r5, #1
  78              	.LVL3:
  79 0032 AD00     		lsls	r5, r5, #2
  80 0034 6F46     		mov	r7, sp
  81 0036 E951     		str	r1, [r5, r7]
  82 0038 F5B2     		uxtb	r5, r6
  83 003a 06E0     		b	.L4
  84              	.LVL4:
  85              	.L3:
  39:TimingMaster.c ****         }
  40:TimingMaster.c ****         // If not expired update remaining count
  41:TimingMaster.c ****         else
  42:TimingMaster.c ****         {
  43:TimingMaster.c ****             timers[i].remaining = timers[i].remaining - elapsed_count;
  86              		.loc 1 43 0
  87 003c 361A     		subs	r6, r6, r0
  88 003e 5F00     		lsls	r7, r3, #1
  89 0040 FF18     		adds	r7, r7, r3
  90 0042 B900     		lsls	r1, r7, #2
  91 0044 504F     		ldr	r7, .L18
  92 0046 7918     		adds	r1, r7, r1
  93 0048 8E60     		str	r6, [r1, #8]
  94              	.LVL5:
  95              	.L4:
  44:TimingMaster.c ****         }
  45:TimingMaster.c ****         // Find active timer with shortest expiration
  46:TimingMaster.c ****         if(timers[i].remaining < timers[shortest_expiration_id].remaining)
  96              		.loc 1 46 0
  97 004a 4F4E     		ldr	r6, .L18
  98 004c 5100     		lsls	r1, r2, #1
  99 004e 8A18     		adds	r2, r1, r2
 100 0050 9100     		lsls	r1, r2, #2
 101 0052 7118     		adds	r1, r6, r1
 102 0054 8F68     		ldr	r7, [r1, #8]
 103 0056 6100     		lsls	r1, r4, #1
 104 0058 0919     		adds	r1, r1, r4
 105 005a 8A00     		lsls	r2, r1, #2
 106 005c B218     		adds	r2, r6, r2
 107 005e 9268     		ldr	r2, [r2, #8]
 108 0060 9742     		cmp	r7, r2
 109 0062 00D2     		bcs	.L5
  47:TimingMaster.c ****         {
  48:TimingMaster.c ****             shortest_expiration_id = i;
 110              		.loc 1 48 0
 111 0064 1C00     		movs	r4, r3
 112              	.LVL6:
 113              	.L5:
  32:TimingMaster.c ****     {
 114              		.loc 1 32 0 discriminator 2
 115 0066 0133     		adds	r3, r3, #1
 116              	.LVL7:
 117 0068 DBB2     		uxtb	r3, r3
 118              	.LVL8:
 119              	.L2:
  32:TimingMaster.c ****     {
ARM GAS  C:\Users\salaz\AppData\Local\Temp\ccvE4Xni.s 			page 4


 120              		.loc 1 32 0 is_stmt 0 discriminator 1
 121 006a 484A     		ldr	r2, .L18+4
 122 006c 1278     		ldrb	r2, [r2]
 123 006e 9342     		cmp	r3, r2
 124 0070 CCD3     		bcc	.L6
 125              	.LBE55:
  49:TimingMaster.c ****         }
  50:TimingMaster.c ****     }
  51:TimingMaster.c ****     
  52:TimingMaster.c ****     // Setup WDT0 and WDT1 for shortest expiration
  53:TimingMaster.c ****     if(timers[shortest_expiration_id].remaining < 65535)
 126              		.loc 1 53 0 is_stmt 1
 127 0072 6200     		lsls	r2, r4, #1
 128 0074 1219     		adds	r2, r2, r4
 129 0076 9300     		lsls	r3, r2, #2
 130              	.LVL9:
 131 0078 434A     		ldr	r2, .L18
 132 007a D318     		adds	r3, r2, r3
 133 007c 9E68     		ldr	r6, [r3, #8]
 134 007e 444B     		ldr	r3, .L18+8
 135 0080 9E42     		cmp	r6, r3
 136 0082 2CD8     		bhi	.L7
 137              	.LVL10:
 138              	.LBB56:
 139              	.LBB57:
 140              		.file 2 "Generated_Source\\PSoC6\\pdl\\drivers/peripheral/mcwdt/cy_mcwdt.h"
   1:Generated_Source\PSoC6\pdl\drivers/peripheral/mcwdt/cy_mcwdt.h **** /***************************************************************************//**
   2:Generated_Source\PSoC6\pdl\drivers/peripheral/mcwdt/cy_mcwdt.h **** * \file cy_mcwdt.h
   3:Generated_Source\PSoC6\pdl\drivers/peripheral/mcwdt/cy_mcwdt.h **** * \version 1.10.1
   4:Generated_Source\PSoC6\pdl\drivers/peripheral/mcwdt/cy_mcwdt.h **** *
   5:Generated_Source\PSoC6\pdl\drivers/peripheral/mcwdt/cy_mcwdt.h **** * Provides an API declaration of the Cypress PDL 3.0 MCWDT driver
   6:Generated_Source\PSoC6\pdl\drivers/peripheral/mcwdt/cy_mcwdt.h **** *
   7:Generated_Source\PSoC6\pdl\drivers/peripheral/mcwdt/cy_mcwdt.h **** ********************************************************************************
   8:Generated_Source\PSoC6\pdl\drivers/peripheral/mcwdt/cy_mcwdt.h **** * \copyright
   9:Generated_Source\PSoC6\pdl\drivers/peripheral/mcwdt/cy_mcwdt.h **** * Copyright 2016-2018, Cypress Semiconductor Corporation.  All rights reserved.
  10:Generated_Source\PSoC6\pdl\drivers/peripheral/mcwdt/cy_mcwdt.h **** * You may use this file only in accordance with the license, terms, conditions,
  11:Generated_Source\PSoC6\pdl\drivers/peripheral/mcwdt/cy_mcwdt.h **** * disclaimers, and limitations in the end user license agreement accompanying
  12:Generated_Source\PSoC6\pdl\drivers/peripheral/mcwdt/cy_mcwdt.h **** * the software package with which this file was provided.
  13:Generated_Source\PSoC6\pdl\drivers/peripheral/mcwdt/cy_mcwdt.h **** *******************************************************************************/
  14:Generated_Source\PSoC6\pdl\drivers/peripheral/mcwdt/cy_mcwdt.h **** 
  15:Generated_Source\PSoC6\pdl\drivers/peripheral/mcwdt/cy_mcwdt.h **** /**
  16:Generated_Source\PSoC6\pdl\drivers/peripheral/mcwdt/cy_mcwdt.h **** * \defgroup group_mcwdt Multi-Counter Watchdog (MCWDT)
  17:Generated_Source\PSoC6\pdl\drivers/peripheral/mcwdt/cy_mcwdt.h **** * \{
  18:Generated_Source\PSoC6\pdl\drivers/peripheral/mcwdt/cy_mcwdt.h **** * A MCWDT has two 16-bit counters and one 32-bit counter. 
  19:Generated_Source\PSoC6\pdl\drivers/peripheral/mcwdt/cy_mcwdt.h **** * You can use this driver to create a free-running
  20:Generated_Source\PSoC6\pdl\drivers/peripheral/mcwdt/cy_mcwdt.h **** * timer or generate periodic interrupts. The driver also
  21:Generated_Source\PSoC6\pdl\drivers/peripheral/mcwdt/cy_mcwdt.h **** * includes support for the watchdog function to recover from CPU or
  22:Generated_Source\PSoC6\pdl\drivers/peripheral/mcwdt/cy_mcwdt.h **** * firmware failures.
  23:Generated_Source\PSoC6\pdl\drivers/peripheral/mcwdt/cy_mcwdt.h **** *
  24:Generated_Source\PSoC6\pdl\drivers/peripheral/mcwdt/cy_mcwdt.h **** * There are two primary use cases for MCWDT: generating periodic CPU interrupts;
  25:Generated_Source\PSoC6\pdl\drivers/peripheral/mcwdt/cy_mcwdt.h **** * and implementing a free-running timer. Both have many applications in
  26:Generated_Source\PSoC6\pdl\drivers/peripheral/mcwdt/cy_mcwdt.h **** * embedded systems:
  27:Generated_Source\PSoC6\pdl\drivers/peripheral/mcwdt/cy_mcwdt.h **** * * Measuring time between events
  28:Generated_Source\PSoC6\pdl\drivers/peripheral/mcwdt/cy_mcwdt.h **** * * Generating periodic events
  29:Generated_Source\PSoC6\pdl\drivers/peripheral/mcwdt/cy_mcwdt.h **** * * Synchronizing actions
  30:Generated_Source\PSoC6\pdl\drivers/peripheral/mcwdt/cy_mcwdt.h **** * * Real-time clocking
  31:Generated_Source\PSoC6\pdl\drivers/peripheral/mcwdt/cy_mcwdt.h **** * * Polling
ARM GAS  C:\Users\salaz\AppData\Local\Temp\ccvE4Xni.s 			page 5


  32:Generated_Source\PSoC6\pdl\drivers/peripheral/mcwdt/cy_mcwdt.h **** *
  33:Generated_Source\PSoC6\pdl\drivers/peripheral/mcwdt/cy_mcwdt.h **** * An additional use case is to implement a watchdog used for recovering from a CPU or
  34:Generated_Source\PSoC6\pdl\drivers/peripheral/mcwdt/cy_mcwdt.h **** * firmware failure.
  35:Generated_Source\PSoC6\pdl\drivers/peripheral/mcwdt/cy_mcwdt.h **** * 
  36:Generated_Source\PSoC6\pdl\drivers/peripheral/mcwdt/cy_mcwdt.h **** * \section group_mcwdt_configuration Configuration Considerations
  37:Generated_Source\PSoC6\pdl\drivers/peripheral/mcwdt/cy_mcwdt.h **** *
  38:Generated_Source\PSoC6\pdl\drivers/peripheral/mcwdt/cy_mcwdt.h **** * Each MCWDT may be configured for a particular product. 
  39:Generated_Source\PSoC6\pdl\drivers/peripheral/mcwdt/cy_mcwdt.h **** * One MCWDT block can be associated with only one CPU during runtime. 
  40:Generated_Source\PSoC6\pdl\drivers/peripheral/mcwdt/cy_mcwdt.h **** * A single MCWDT is not intended to be used by multiple CPUs simultaneously. 
  41:Generated_Source\PSoC6\pdl\drivers/peripheral/mcwdt/cy_mcwdt.h **** * Each block contains three sub-counters, each of which can be configured for 
  42:Generated_Source\PSoC6\pdl\drivers/peripheral/mcwdt/cy_mcwdt.h **** * various system utility functions - free running counter, periodic interrupts, 
  43:Generated_Source\PSoC6\pdl\drivers/peripheral/mcwdt/cy_mcwdt.h **** * watchdog reset, or three interrupts followed by a watchdog reset.
  44:Generated_Source\PSoC6\pdl\drivers/peripheral/mcwdt/cy_mcwdt.h **** * All counters are clocked by either LFCLK (nominal 32 kHz) or by a cascaded 
  45:Generated_Source\PSoC6\pdl\drivers/peripheral/mcwdt/cy_mcwdt.h **** * counter.
  46:Generated_Source\PSoC6\pdl\drivers/peripheral/mcwdt/cy_mcwdt.h **** * A simplified diagram of the MCWDT hardware is shown below:
  47:Generated_Source\PSoC6\pdl\drivers/peripheral/mcwdt/cy_mcwdt.h **** * \image html mcwdt.png
  48:Generated_Source\PSoC6\pdl\drivers/peripheral/mcwdt/cy_mcwdt.h **** * The frequency of the periodic interrupts can be configured using the Match 
  49:Generated_Source\PSoC6\pdl\drivers/peripheral/mcwdt/cy_mcwdt.h **** * value with combining Clear on match option, which can be set individually 
  50:Generated_Source\PSoC6\pdl\drivers/peripheral/mcwdt/cy_mcwdt.h **** * for each counter using Cy_MCWDT_SetClearOnMatch(). When the Clear on match option 
  51:Generated_Source\PSoC6\pdl\drivers/peripheral/mcwdt/cy_mcwdt.h **** * is not set, the periodic interrupts of the C0 and C1 16-bit sub-counters occur 
  52:Generated_Source\PSoC6\pdl\drivers/peripheral/mcwdt/cy_mcwdt.h **** * after 65535 counts and the match value defines the shift between interrupts 
  53:Generated_Source\PSoC6\pdl\drivers/peripheral/mcwdt/cy_mcwdt.h **** * (see the figure below). The enabled Clear on match option 
  54:Generated_Source\PSoC6\pdl\drivers/peripheral/mcwdt/cy_mcwdt.h **** * resets the counter when the interrupt occurs.
  55:Generated_Source\PSoC6\pdl\drivers/peripheral/mcwdt/cy_mcwdt.h **** * \image html mcwdt_counters.png
  56:Generated_Source\PSoC6\pdl\drivers/peripheral/mcwdt/cy_mcwdt.h **** * 32-bit sub-counter C2 does not have Clear on match option. 
  57:Generated_Source\PSoC6\pdl\drivers/peripheral/mcwdt/cy_mcwdt.h **** * The interrupt of counter C2 occurs when the counts equal 
  58:Generated_Source\PSoC6\pdl\drivers/peripheral/mcwdt/cy_mcwdt.h **** * 2<sup>Toggle bit</sup> value.
  59:Generated_Source\PSoC6\pdl\drivers/peripheral/mcwdt/cy_mcwdt.h **** * \image html mcwdt_subcounters.png
  60:Generated_Source\PSoC6\pdl\drivers/peripheral/mcwdt/cy_mcwdt.h **** * To set up an MCWDT, provide the configuration parameters in the 
  61:Generated_Source\PSoC6\pdl\drivers/peripheral/mcwdt/cy_mcwdt.h **** * cy_stc_mcwdt_config_t structure. Then call  
  62:Generated_Source\PSoC6\pdl\drivers/peripheral/mcwdt/cy_mcwdt.h **** * Cy_MCWDT_Init() to initialize the driver. 
  63:Generated_Source\PSoC6\pdl\drivers/peripheral/mcwdt/cy_mcwdt.h **** * Call Cy_MCWDT_Enable() to enable all specified counters.
  64:Generated_Source\PSoC6\pdl\drivers/peripheral/mcwdt/cy_mcwdt.h **** *
  65:Generated_Source\PSoC6\pdl\drivers/peripheral/mcwdt/cy_mcwdt.h **** * You can also set the mode of operation for any counter. If you choose
  66:Generated_Source\PSoC6\pdl\drivers/peripheral/mcwdt/cy_mcwdt.h **** * interrupt mode, use Cy_MCWDT_SetInterruptMask() with the 
  67:Generated_Source\PSoC6\pdl\drivers/peripheral/mcwdt/cy_mcwdt.h **** * parameter for the masks described in Macro Section. All counter interrupts 
  68:Generated_Source\PSoC6\pdl\drivers/peripheral/mcwdt/cy_mcwdt.h **** * are OR'd together to from a single combined MCWDT interrupt.
  69:Generated_Source\PSoC6\pdl\drivers/peripheral/mcwdt/cy_mcwdt.h **** * Additionally, enable the Global interrupts and initialize the referenced 
  70:Generated_Source\PSoC6\pdl\drivers/peripheral/mcwdt/cy_mcwdt.h **** * interrupt by setting the priority and the interrupt vector using  
  71:Generated_Source\PSoC6\pdl\drivers/peripheral/mcwdt/cy_mcwdt.h **** * \ref Cy_SysInt_Init() of the sysint driver.
  72:Generated_Source\PSoC6\pdl\drivers/peripheral/mcwdt/cy_mcwdt.h **** * 
  73:Generated_Source\PSoC6\pdl\drivers/peripheral/mcwdt/cy_mcwdt.h **** * The values of the MCWDT counters can be monitored using 
  74:Generated_Source\PSoC6\pdl\drivers/peripheral/mcwdt/cy_mcwdt.h **** * Cy_MCWDT_GetCount().
  75:Generated_Source\PSoC6\pdl\drivers/peripheral/mcwdt/cy_mcwdt.h **** *
  76:Generated_Source\PSoC6\pdl\drivers/peripheral/mcwdt/cy_mcwdt.h **** * \note In addition to the MCWDTs, each device has a separate watchdog timer
  77:Generated_Source\PSoC6\pdl\drivers/peripheral/mcwdt/cy_mcwdt.h **** * (WDT) that can also be used to generate a watchdog reset or periodic
  78:Generated_Source\PSoC6\pdl\drivers/peripheral/mcwdt/cy_mcwdt.h **** * interrupts. For more information on the WDT, see the appropriate section
  79:Generated_Source\PSoC6\pdl\drivers/peripheral/mcwdt/cy_mcwdt.h **** * of the PDL.
  80:Generated_Source\PSoC6\pdl\drivers/peripheral/mcwdt/cy_mcwdt.h **** *
  81:Generated_Source\PSoC6\pdl\drivers/peripheral/mcwdt/cy_mcwdt.h **** * \section group_mcwdt_more_information More Information
  82:Generated_Source\PSoC6\pdl\drivers/peripheral/mcwdt/cy_mcwdt.h **** *
  83:Generated_Source\PSoC6\pdl\drivers/peripheral/mcwdt/cy_mcwdt.h **** * For more information on the MCWDT peripheral, refer to 
  84:Generated_Source\PSoC6\pdl\drivers/peripheral/mcwdt/cy_mcwdt.h **** * the technical reference manual (TRM).
  85:Generated_Source\PSoC6\pdl\drivers/peripheral/mcwdt/cy_mcwdt.h **** *
  86:Generated_Source\PSoC6\pdl\drivers/peripheral/mcwdt/cy_mcwdt.h **** * \section group_mcwdt_MISRA MISRA-C Compliance]
  87:Generated_Source\PSoC6\pdl\drivers/peripheral/mcwdt/cy_mcwdt.h **** * The mcwdt driver does not have any specific deviations.
  88:Generated_Source\PSoC6\pdl\drivers/peripheral/mcwdt/cy_mcwdt.h **** *
ARM GAS  C:\Users\salaz\AppData\Local\Temp\ccvE4Xni.s 			page 6


  89:Generated_Source\PSoC6\pdl\drivers/peripheral/mcwdt/cy_mcwdt.h **** * \section group_mcwdt_changelog Changelog
  90:Generated_Source\PSoC6\pdl\drivers/peripheral/mcwdt/cy_mcwdt.h **** * <table class="doxtable">
  91:Generated_Source\PSoC6\pdl\drivers/peripheral/mcwdt/cy_mcwdt.h **** *   <tr><th>Version</th><th>Changes</th><th>Reason for Change</th></tr>
  92:Generated_Source\PSoC6\pdl\drivers/peripheral/mcwdt/cy_mcwdt.h **** *   <tr>
  93:Generated_Source\PSoC6\pdl\drivers/peripheral/mcwdt/cy_mcwdt.h **** *     <td>1.10.1</td>
  94:Generated_Source\PSoC6\pdl\drivers/peripheral/mcwdt/cy_mcwdt.h **** *     <td>Updated description of the \ref cy_stc_mcwdt_config_t structure type</td>
  95:Generated_Source\PSoC6\pdl\drivers/peripheral/mcwdt/cy_mcwdt.h **** *     <td>Documentation update and clarification</td>
  96:Generated_Source\PSoC6\pdl\drivers/peripheral/mcwdt/cy_mcwdt.h **** *   </tr>
  97:Generated_Source\PSoC6\pdl\drivers/peripheral/mcwdt/cy_mcwdt.h **** *   <tr>
  98:Generated_Source\PSoC6\pdl\drivers/peripheral/mcwdt/cy_mcwdt.h **** *     <td>1.10</td>
  99:Generated_Source\PSoC6\pdl\drivers/peripheral/mcwdt/cy_mcwdt.h **** *     <td>Added input parameter validation to the API functions.<br>
 100:Generated_Source\PSoC6\pdl\drivers/peripheral/mcwdt/cy_mcwdt.h **** *     Added API function GetCountCascaded()</td>
 101:Generated_Source\PSoC6\pdl\drivers/peripheral/mcwdt/cy_mcwdt.h **** *     <td></td>
 102:Generated_Source\PSoC6\pdl\drivers/peripheral/mcwdt/cy_mcwdt.h **** *   </tr>
 103:Generated_Source\PSoC6\pdl\drivers/peripheral/mcwdt/cy_mcwdt.h **** *   <tr>
 104:Generated_Source\PSoC6\pdl\drivers/peripheral/mcwdt/cy_mcwdt.h **** *     <td>1.0</td>
 105:Generated_Source\PSoC6\pdl\drivers/peripheral/mcwdt/cy_mcwdt.h **** *     <td>Initial version</td>
 106:Generated_Source\PSoC6\pdl\drivers/peripheral/mcwdt/cy_mcwdt.h **** *     <td></td>
 107:Generated_Source\PSoC6\pdl\drivers/peripheral/mcwdt/cy_mcwdt.h **** *   </tr>
 108:Generated_Source\PSoC6\pdl\drivers/peripheral/mcwdt/cy_mcwdt.h **** * </table>
 109:Generated_Source\PSoC6\pdl\drivers/peripheral/mcwdt/cy_mcwdt.h **** *
 110:Generated_Source\PSoC6\pdl\drivers/peripheral/mcwdt/cy_mcwdt.h **** * \defgroup group_mcwdt_macros Macros
 111:Generated_Source\PSoC6\pdl\drivers/peripheral/mcwdt/cy_mcwdt.h **** * \defgroup group_mcwdt_functions Functions
 112:Generated_Source\PSoC6\pdl\drivers/peripheral/mcwdt/cy_mcwdt.h **** * \defgroup group_mcwdt_data_structures Data Structures
 113:Generated_Source\PSoC6\pdl\drivers/peripheral/mcwdt/cy_mcwdt.h **** * \defgroup group_mcwdt_enums Enumerated Types
 114:Generated_Source\PSoC6\pdl\drivers/peripheral/mcwdt/cy_mcwdt.h **** */
 115:Generated_Source\PSoC6\pdl\drivers/peripheral/mcwdt/cy_mcwdt.h **** 
 116:Generated_Source\PSoC6\pdl\drivers/peripheral/mcwdt/cy_mcwdt.h **** #ifndef CY_MCWDT_H
 117:Generated_Source\PSoC6\pdl\drivers/peripheral/mcwdt/cy_mcwdt.h **** #define CY_MCWDT_H
 118:Generated_Source\PSoC6\pdl\drivers/peripheral/mcwdt/cy_mcwdt.h **** 
 119:Generated_Source\PSoC6\pdl\drivers/peripheral/mcwdt/cy_mcwdt.h **** #if defined(__cplusplus)
 120:Generated_Source\PSoC6\pdl\drivers/peripheral/mcwdt/cy_mcwdt.h **** extern "C" {
 121:Generated_Source\PSoC6\pdl\drivers/peripheral/mcwdt/cy_mcwdt.h **** #endif
 122:Generated_Source\PSoC6\pdl\drivers/peripheral/mcwdt/cy_mcwdt.h **** 
 123:Generated_Source\PSoC6\pdl\drivers/peripheral/mcwdt/cy_mcwdt.h **** #include <stdbool.h>
 124:Generated_Source\PSoC6\pdl\drivers/peripheral/mcwdt/cy_mcwdt.h **** #include <stddef.h>
 125:Generated_Source\PSoC6\pdl\drivers/peripheral/mcwdt/cy_mcwdt.h **** #include "cy_device_headers.h"
 126:Generated_Source\PSoC6\pdl\drivers/peripheral/mcwdt/cy_mcwdt.h **** #include "syslib/cy_syslib.h"
 127:Generated_Source\PSoC6\pdl\drivers/peripheral/mcwdt/cy_mcwdt.h **** 
 128:Generated_Source\PSoC6\pdl\drivers/peripheral/mcwdt/cy_mcwdt.h **** #ifndef CY_IP_MXS40SRSS_MCWDT
 129:Generated_Source\PSoC6\pdl\drivers/peripheral/mcwdt/cy_mcwdt.h ****     #error "The MCWDT driver is not supported on this device"
 130:Generated_Source\PSoC6\pdl\drivers/peripheral/mcwdt/cy_mcwdt.h **** #endif
 131:Generated_Source\PSoC6\pdl\drivers/peripheral/mcwdt/cy_mcwdt.h **** 
 132:Generated_Source\PSoC6\pdl\drivers/peripheral/mcwdt/cy_mcwdt.h **** /**
 133:Generated_Source\PSoC6\pdl\drivers/peripheral/mcwdt/cy_mcwdt.h **** * \addtogroup group_mcwdt_data_structures
 134:Generated_Source\PSoC6\pdl\drivers/peripheral/mcwdt/cy_mcwdt.h **** * \{
 135:Generated_Source\PSoC6\pdl\drivers/peripheral/mcwdt/cy_mcwdt.h **** */
 136:Generated_Source\PSoC6\pdl\drivers/peripheral/mcwdt/cy_mcwdt.h **** 
 137:Generated_Source\PSoC6\pdl\drivers/peripheral/mcwdt/cy_mcwdt.h **** /** The MCWDT component configuration structure. */
 138:Generated_Source\PSoC6\pdl\drivers/peripheral/mcwdt/cy_mcwdt.h **** typedef struct
 139:Generated_Source\PSoC6\pdl\drivers/peripheral/mcwdt/cy_mcwdt.h **** {
 140:Generated_Source\PSoC6\pdl\drivers/peripheral/mcwdt/cy_mcwdt.h ****     uint16_t c0Match;        /**< The sub-counter#0 match comparison value, for interrupt or watchd
 141:Generated_Source\PSoC6\pdl\drivers/peripheral/mcwdt/cy_mcwdt.h ****                                   Range: 0 - 65535 for c0ClearOnMatch = 0 and 1 - 65535 for 
 142:Generated_Source\PSoC6\pdl\drivers/peripheral/mcwdt/cy_mcwdt.h ****                                   c0ClearOnMatch = 1. */
 143:Generated_Source\PSoC6\pdl\drivers/peripheral/mcwdt/cy_mcwdt.h ****     uint16_t c1Match;        /**< The sub-counter#1 match comparison value, for interrupt or watchd
 144:Generated_Source\PSoC6\pdl\drivers/peripheral/mcwdt/cy_mcwdt.h ****                                   Range: 0 - 65535 for c1ClearOnMatch = 0 and 1 - 65535 for 
 145:Generated_Source\PSoC6\pdl\drivers/peripheral/mcwdt/cy_mcwdt.h ****                                   c1ClearOnMatch = 1. */
ARM GAS  C:\Users\salaz\AppData\Local\Temp\ccvE4Xni.s 			page 7


 146:Generated_Source\PSoC6\pdl\drivers/peripheral/mcwdt/cy_mcwdt.h ****     uint8_t  c0Mode;         /**< The sub-counter#0 mode. It can have the following values: \ref CY
 147:Generated_Source\PSoC6\pdl\drivers/peripheral/mcwdt/cy_mcwdt.h ****                                   \ref CY_MCWDT_MODE_INT, \ref CY_MCWDT_MODE_RESET and \ref CY_MCWD
 148:Generated_Source\PSoC6\pdl\drivers/peripheral/mcwdt/cy_mcwdt.h ****     uint8_t  c1Mode;         /**< The sub-counter#1 mode.  It can have the following values: \ref C
 149:Generated_Source\PSoC6\pdl\drivers/peripheral/mcwdt/cy_mcwdt.h ****                                   \ref CY_MCWDT_MODE_INT, \ref CY_MCWDT_MODE_RESET and \ref CY_MCWD
 150:Generated_Source\PSoC6\pdl\drivers/peripheral/mcwdt/cy_mcwdt.h ****     uint8_t  c2ToggleBit;    /**< The sub-counter#2 Period / Toggle Bit value. 
 151:Generated_Source\PSoC6\pdl\drivers/peripheral/mcwdt/cy_mcwdt.h ****                                   Range: 0 - 31. */
 152:Generated_Source\PSoC6\pdl\drivers/peripheral/mcwdt/cy_mcwdt.h ****     uint8_t  c2Mode;         /**< The sub-counter#2 mode. It can have the following values: \ref CY
 153:Generated_Source\PSoC6\pdl\drivers/peripheral/mcwdt/cy_mcwdt.h ****                                   and \ref CY_MCWDT_MODE_INT. */
 154:Generated_Source\PSoC6\pdl\drivers/peripheral/mcwdt/cy_mcwdt.h ****     bool     c0ClearOnMatch; /**< The sub-counter#0 Clear On Match parameter enabled/disabled. */
 155:Generated_Source\PSoC6\pdl\drivers/peripheral/mcwdt/cy_mcwdt.h ****     bool     c1ClearOnMatch; /**< The sub-counter#1 Clear On Match parameter enabled/disabled. */
 156:Generated_Source\PSoC6\pdl\drivers/peripheral/mcwdt/cy_mcwdt.h ****     bool     c0c1Cascade;    /**< The sub-counter#1 is clocked by LFCLK or from sub-counter#0 casca
 157:Generated_Source\PSoC6\pdl\drivers/peripheral/mcwdt/cy_mcwdt.h ****     bool     c1c2Cascade;    /**< The sub-counter#2 is clocked by LFCLK or from sub-counter#1 casca
 158:Generated_Source\PSoC6\pdl\drivers/peripheral/mcwdt/cy_mcwdt.h **** } cy_stc_mcwdt_config_t;
 159:Generated_Source\PSoC6\pdl\drivers/peripheral/mcwdt/cy_mcwdt.h **** 
 160:Generated_Source\PSoC6\pdl\drivers/peripheral/mcwdt/cy_mcwdt.h **** /** \} group_mcwdt_data_structures */
 161:Generated_Source\PSoC6\pdl\drivers/peripheral/mcwdt/cy_mcwdt.h **** 
 162:Generated_Source\PSoC6\pdl\drivers/peripheral/mcwdt/cy_mcwdt.h **** /**
 163:Generated_Source\PSoC6\pdl\drivers/peripheral/mcwdt/cy_mcwdt.h **** * \addtogroup group_mcwdt_macros
 164:Generated_Source\PSoC6\pdl\drivers/peripheral/mcwdt/cy_mcwdt.h **** * \{
 165:Generated_Source\PSoC6\pdl\drivers/peripheral/mcwdt/cy_mcwdt.h **** */
 166:Generated_Source\PSoC6\pdl\drivers/peripheral/mcwdt/cy_mcwdt.h **** 
 167:Generated_Source\PSoC6\pdl\drivers/peripheral/mcwdt/cy_mcwdt.h **** /** Driver major version */
 168:Generated_Source\PSoC6\pdl\drivers/peripheral/mcwdt/cy_mcwdt.h **** #define CY_MCWDT_DRV_VERSION_MAJOR       1
 169:Generated_Source\PSoC6\pdl\drivers/peripheral/mcwdt/cy_mcwdt.h **** 
 170:Generated_Source\PSoC6\pdl\drivers/peripheral/mcwdt/cy_mcwdt.h **** /** Driver minor version */
 171:Generated_Source\PSoC6\pdl\drivers/peripheral/mcwdt/cy_mcwdt.h **** #define CY_MCWDT_DRV_VERSION_MINOR       10
 172:Generated_Source\PSoC6\pdl\drivers/peripheral/mcwdt/cy_mcwdt.h **** 
 173:Generated_Source\PSoC6\pdl\drivers/peripheral/mcwdt/cy_mcwdt.h **** /** \cond INTERNAL_MACROS */
 174:Generated_Source\PSoC6\pdl\drivers/peripheral/mcwdt/cy_mcwdt.h **** 
 175:Generated_Source\PSoC6\pdl\drivers/peripheral/mcwdt/cy_mcwdt.h **** /***************************************
 176:Generated_Source\PSoC6\pdl\drivers/peripheral/mcwdt/cy_mcwdt.h **** *        Registers Constants
 177:Generated_Source\PSoC6\pdl\drivers/peripheral/mcwdt/cy_mcwdt.h **** ***************************************/
 178:Generated_Source\PSoC6\pdl\drivers/peripheral/mcwdt/cy_mcwdt.h **** 
 179:Generated_Source\PSoC6\pdl\drivers/peripheral/mcwdt/cy_mcwdt.h **** #define CY_MCWDT_LOCK_CLR0      (1u)
 180:Generated_Source\PSoC6\pdl\drivers/peripheral/mcwdt/cy_mcwdt.h **** #define CY_MCWDT_LOCK_CLR1      (2u)
 181:Generated_Source\PSoC6\pdl\drivers/peripheral/mcwdt/cy_mcwdt.h **** #define CY_MCWDT_LOCK_SET01     (3u)
 182:Generated_Source\PSoC6\pdl\drivers/peripheral/mcwdt/cy_mcwdt.h **** 
 183:Generated_Source\PSoC6\pdl\drivers/peripheral/mcwdt/cy_mcwdt.h **** #define CY_MCWDT_BYTE_SHIFT     (8u)
 184:Generated_Source\PSoC6\pdl\drivers/peripheral/mcwdt/cy_mcwdt.h **** #define CY_MCWDT_C0C1_MODE_MASK (3u)
 185:Generated_Source\PSoC6\pdl\drivers/peripheral/mcwdt/cy_mcwdt.h **** #define CY_MCWDT_C2_MODE_MASK   (1u)
 186:Generated_Source\PSoC6\pdl\drivers/peripheral/mcwdt/cy_mcwdt.h **** 
 187:Generated_Source\PSoC6\pdl\drivers/peripheral/mcwdt/cy_mcwdt.h **** 
 188:Generated_Source\PSoC6\pdl\drivers/peripheral/mcwdt/cy_mcwdt.h **** /***************************************
 189:Generated_Source\PSoC6\pdl\drivers/peripheral/mcwdt/cy_mcwdt.h **** *            API Constants
 190:Generated_Source\PSoC6\pdl\drivers/peripheral/mcwdt/cy_mcwdt.h **** ***************************************/
 191:Generated_Source\PSoC6\pdl\drivers/peripheral/mcwdt/cy_mcwdt.h **** 
 192:Generated_Source\PSoC6\pdl\drivers/peripheral/mcwdt/cy_mcwdt.h **** #define CY_MCWDT_ALL_WDT_ENABLE_Msk (MCWDT_STRUCT_MCWDT_CTL_WDT_ENABLE0_Msk | MCWDT_STRUCT_MCWDT_CT
 193:Generated_Source\PSoC6\pdl\drivers/peripheral/mcwdt/cy_mcwdt.h ****                                   MCWDT_STRUCT_MCWDT_CTL_WDT_ENABLE2_Msk)
 194:Generated_Source\PSoC6\pdl\drivers/peripheral/mcwdt/cy_mcwdt.h ****                                   
 195:Generated_Source\PSoC6\pdl\drivers/peripheral/mcwdt/cy_mcwdt.h **** #define CY_MCWDT_CTR0_Pos (0u)
 196:Generated_Source\PSoC6\pdl\drivers/peripheral/mcwdt/cy_mcwdt.h **** #define CY_MCWDT_CTR1_Pos (1u)
 197:Generated_Source\PSoC6\pdl\drivers/peripheral/mcwdt/cy_mcwdt.h **** #define CY_MCWDT_CTR2_Pos (2u)
 198:Generated_Source\PSoC6\pdl\drivers/peripheral/mcwdt/cy_mcwdt.h **** #define CY_MCWDT_CTR_Pos  (0UL)
 199:Generated_Source\PSoC6\pdl\drivers/peripheral/mcwdt/cy_mcwdt.h **** 
 200:Generated_Source\PSoC6\pdl\drivers/peripheral/mcwdt/cy_mcwdt.h **** #define CY_MCWDT_C2_MODE_MASK   (1u) 
 201:Generated_Source\PSoC6\pdl\drivers/peripheral/mcwdt/cy_mcwdt.h ****                                   
 202:Generated_Source\PSoC6\pdl\drivers/peripheral/mcwdt/cy_mcwdt.h **** /** \endcond */
ARM GAS  C:\Users\salaz\AppData\Local\Temp\ccvE4Xni.s 			page 8


 203:Generated_Source\PSoC6\pdl\drivers/peripheral/mcwdt/cy_mcwdt.h **** 
 204:Generated_Source\PSoC6\pdl\drivers/peripheral/mcwdt/cy_mcwdt.h **** #define CY_MCWDT_ID       CY_PDL_DRV_ID(0x35u)                      /**< MCWDT PDL ID */
 205:Generated_Source\PSoC6\pdl\drivers/peripheral/mcwdt/cy_mcwdt.h **** 
 206:Generated_Source\PSoC6\pdl\drivers/peripheral/mcwdt/cy_mcwdt.h **** #define CY_MCWDT_CTR0     (1UL << CY_MCWDT_CTR0_Pos)                /**< The sub-counter#0 mask. Th
 207:Generated_Source\PSoC6\pdl\drivers/peripheral/mcwdt/cy_mcwdt.h ****                                                                    that handle multiple counters, i
 208:Generated_Source\PSoC6\pdl\drivers/peripheral/mcwdt/cy_mcwdt.h ****                                                                    Cy_MCWDT_Disable(), Cy_MCWDT_Cle
 209:Generated_Source\PSoC6\pdl\drivers/peripheral/mcwdt/cy_mcwdt.h **** #define CY_MCWDT_CTR1     (1UL << CY_MCWDT_CTR1_Pos)                /**< The sub-counter#1 mask. Th
 210:Generated_Source\PSoC6\pdl\drivers/peripheral/mcwdt/cy_mcwdt.h ****                                                                    that handle multiple counters, i
 211:Generated_Source\PSoC6\pdl\drivers/peripheral/mcwdt/cy_mcwdt.h ****                                                                    Cy_MCWDT_Disable(), Cy_MCWDT_Cle
 212:Generated_Source\PSoC6\pdl\drivers/peripheral/mcwdt/cy_mcwdt.h **** #define CY_MCWDT_CTR2     (1UL << CY_MCWDT_CTR2_Pos)                /**< The sub-counter#2 mask. Th
 213:Generated_Source\PSoC6\pdl\drivers/peripheral/mcwdt/cy_mcwdt.h ****                                                                    that handle multiple counters, i
 214:Generated_Source\PSoC6\pdl\drivers/peripheral/mcwdt/cy_mcwdt.h ****                                                                    Cy_MCWDT_Disable(), Cy_MCWDT_Cle
 215:Generated_Source\PSoC6\pdl\drivers/peripheral/mcwdt/cy_mcwdt.h **** #define CY_MCWDT_CTR_Msk  (CY_MCWDT_CTR0 | CY_MCWDT_CTR1 | CY_MCWDT_CTR2) /**< The mask for all sub
 216:Generated_Source\PSoC6\pdl\drivers/peripheral/mcwdt/cy_mcwdt.h ****                                                                    that handle multiple counters, i
 217:Generated_Source\PSoC6\pdl\drivers/peripheral/mcwdt/cy_mcwdt.h ****                                                                    Cy_MCWDT_Disable(), Cy_MCWDT_Cle
 218:Generated_Source\PSoC6\pdl\drivers/peripheral/mcwdt/cy_mcwdt.h **** 
 219:Generated_Source\PSoC6\pdl\drivers/peripheral/mcwdt/cy_mcwdt.h **** /** \} group_mcwdt_macros */
 220:Generated_Source\PSoC6\pdl\drivers/peripheral/mcwdt/cy_mcwdt.h **** 
 221:Generated_Source\PSoC6\pdl\drivers/peripheral/mcwdt/cy_mcwdt.h **** 
 222:Generated_Source\PSoC6\pdl\drivers/peripheral/mcwdt/cy_mcwdt.h **** /**
 223:Generated_Source\PSoC6\pdl\drivers/peripheral/mcwdt/cy_mcwdt.h **** * \addtogroup group_mcwdt_enums
 224:Generated_Source\PSoC6\pdl\drivers/peripheral/mcwdt/cy_mcwdt.h **** * \{
 225:Generated_Source\PSoC6\pdl\drivers/peripheral/mcwdt/cy_mcwdt.h **** */
 226:Generated_Source\PSoC6\pdl\drivers/peripheral/mcwdt/cy_mcwdt.h **** 
 227:Generated_Source\PSoC6\pdl\drivers/peripheral/mcwdt/cy_mcwdt.h **** /** The mcwdt sub-counter identifiers. */
 228:Generated_Source\PSoC6\pdl\drivers/peripheral/mcwdt/cy_mcwdt.h **** typedef enum
 229:Generated_Source\PSoC6\pdl\drivers/peripheral/mcwdt/cy_mcwdt.h **** {
 230:Generated_Source\PSoC6\pdl\drivers/peripheral/mcwdt/cy_mcwdt.h ****     CY_MCWDT_COUNTER0,  /**< Sub-counter#0 identifier. */
 231:Generated_Source\PSoC6\pdl\drivers/peripheral/mcwdt/cy_mcwdt.h ****     CY_MCWDT_COUNTER1,  /**< Sub-counter#1 identifier. */
 232:Generated_Source\PSoC6\pdl\drivers/peripheral/mcwdt/cy_mcwdt.h ****     CY_MCWDT_COUNTER2   /**< Sub-counter#2 identifier. */
 233:Generated_Source\PSoC6\pdl\drivers/peripheral/mcwdt/cy_mcwdt.h **** } cy_en_mcwdtctr_t;
 234:Generated_Source\PSoC6\pdl\drivers/peripheral/mcwdt/cy_mcwdt.h **** 
 235:Generated_Source\PSoC6\pdl\drivers/peripheral/mcwdt/cy_mcwdt.h **** /** The mcwdt modes. */
 236:Generated_Source\PSoC6\pdl\drivers/peripheral/mcwdt/cy_mcwdt.h **** typedef enum
 237:Generated_Source\PSoC6\pdl\drivers/peripheral/mcwdt/cy_mcwdt.h **** {
 238:Generated_Source\PSoC6\pdl\drivers/peripheral/mcwdt/cy_mcwdt.h ****     CY_MCWDT_MODE_NONE,      /**< The No action mode. It is used for Set/GetMode functions. */
 239:Generated_Source\PSoC6\pdl\drivers/peripheral/mcwdt/cy_mcwdt.h ****     CY_MCWDT_MODE_INT,       /**< The Interrupt mode. It is used for Set/GetMode functions. */
 240:Generated_Source\PSoC6\pdl\drivers/peripheral/mcwdt/cy_mcwdt.h ****     CY_MCWDT_MODE_RESET,     /**< The Reset mode. It is used for Set/GetMode functions. */
 241:Generated_Source\PSoC6\pdl\drivers/peripheral/mcwdt/cy_mcwdt.h ****     CY_MCWDT_MODE_INT_RESET  /**< The Three interrupts then watchdog reset mode. It is used for 
 242:Generated_Source\PSoC6\pdl\drivers/peripheral/mcwdt/cy_mcwdt.h ****                                Set/GetMode functions. */
 243:Generated_Source\PSoC6\pdl\drivers/peripheral/mcwdt/cy_mcwdt.h **** } cy_en_mcwdtmode_t;
 244:Generated_Source\PSoC6\pdl\drivers/peripheral/mcwdt/cy_mcwdt.h **** 
 245:Generated_Source\PSoC6\pdl\drivers/peripheral/mcwdt/cy_mcwdt.h **** /** The mcwdt cascading. */
 246:Generated_Source\PSoC6\pdl\drivers/peripheral/mcwdt/cy_mcwdt.h **** typedef enum
 247:Generated_Source\PSoC6\pdl\drivers/peripheral/mcwdt/cy_mcwdt.h **** {
 248:Generated_Source\PSoC6\pdl\drivers/peripheral/mcwdt/cy_mcwdt.h ****     CY_MCWDT_CASCADE_NONE,  /**< The cascading is disabled. It is used for Set/GetCascade functions
 249:Generated_Source\PSoC6\pdl\drivers/peripheral/mcwdt/cy_mcwdt.h ****     CY_MCWDT_CASCADE_C0C1,  /**< The sub-counter#1 is clocked by LFCLK or from sub-counter#0 cascad
 250:Generated_Source\PSoC6\pdl\drivers/peripheral/mcwdt/cy_mcwdt.h ****                               It is used for Set/GetCascade functions. */
 251:Generated_Source\PSoC6\pdl\drivers/peripheral/mcwdt/cy_mcwdt.h ****     CY_MCWDT_CASCADE_C1C2,  /**< The sub-counter#2 is clocked by LFCLK or from sub-counter#1 cascad
 252:Generated_Source\PSoC6\pdl\drivers/peripheral/mcwdt/cy_mcwdt.h ****                               It is used for Set/GetCascade functions. */
 253:Generated_Source\PSoC6\pdl\drivers/peripheral/mcwdt/cy_mcwdt.h ****     CY_MCWDT_CASCADE_BOTH   /**< The sub-counter#1 is clocked by LFCLK or from sub-counter#0 cascad
 254:Generated_Source\PSoC6\pdl\drivers/peripheral/mcwdt/cy_mcwdt.h ****                               and the sub-counter#2 is clocked by LFCLK or from sub-counter#1 casca
 255:Generated_Source\PSoC6\pdl\drivers/peripheral/mcwdt/cy_mcwdt.h ****                               It is used for Set/GetCascade functions. */
 256:Generated_Source\PSoC6\pdl\drivers/peripheral/mcwdt/cy_mcwdt.h **** } cy_en_mcwdtcascade_t;
 257:Generated_Source\PSoC6\pdl\drivers/peripheral/mcwdt/cy_mcwdt.h **** 
 258:Generated_Source\PSoC6\pdl\drivers/peripheral/mcwdt/cy_mcwdt.h **** /** The MCWDT error codes. */
 259:Generated_Source\PSoC6\pdl\drivers/peripheral/mcwdt/cy_mcwdt.h **** typedef enum 
ARM GAS  C:\Users\salaz\AppData\Local\Temp\ccvE4Xni.s 			page 9


 260:Generated_Source\PSoC6\pdl\drivers/peripheral/mcwdt/cy_mcwdt.h **** {
 261:Generated_Source\PSoC6\pdl\drivers/peripheral/mcwdt/cy_mcwdt.h ****     CY_MCWDT_SUCCESS = 0x00u,                                            /**< Successful */
 262:Generated_Source\PSoC6\pdl\drivers/peripheral/mcwdt/cy_mcwdt.h ****     CY_MCWDT_BAD_PARAM = CY_MCWDT_ID | CY_PDL_STATUS_ERROR | 0x01u,     /**< One or more invalid pa
 263:Generated_Source\PSoC6\pdl\drivers/peripheral/mcwdt/cy_mcwdt.h **** } cy_en_mcwdt_status_t;
 264:Generated_Source\PSoC6\pdl\drivers/peripheral/mcwdt/cy_mcwdt.h **** 
 265:Generated_Source\PSoC6\pdl\drivers/peripheral/mcwdt/cy_mcwdt.h **** /** \} group_mcwdt_enums */
 266:Generated_Source\PSoC6\pdl\drivers/peripheral/mcwdt/cy_mcwdt.h **** 
 267:Generated_Source\PSoC6\pdl\drivers/peripheral/mcwdt/cy_mcwdt.h **** 
 268:Generated_Source\PSoC6\pdl\drivers/peripheral/mcwdt/cy_mcwdt.h **** /** \cond PARAM_CHECK_MACROS */
 269:Generated_Source\PSoC6\pdl\drivers/peripheral/mcwdt/cy_mcwdt.h **** 
 270:Generated_Source\PSoC6\pdl\drivers/peripheral/mcwdt/cy_mcwdt.h **** /** Parameter check macros */ 
 271:Generated_Source\PSoC6\pdl\drivers/peripheral/mcwdt/cy_mcwdt.h **** #define CY_MCWDT_IS_CNTS_MASK_VALID(counters)  (0U == ((counters) & (uint32_t)~CY_MCWDT_CTR_Msk)) 
 272:Generated_Source\PSoC6\pdl\drivers/peripheral/mcwdt/cy_mcwdt.h ****                                                
 273:Generated_Source\PSoC6\pdl\drivers/peripheral/mcwdt/cy_mcwdt.h **** #define CY_MCWDT_IS_CNT_NUM_VALID(counter)    ((CY_MCWDT_COUNTER0 == (counter)) || \
 274:Generated_Source\PSoC6\pdl\drivers/peripheral/mcwdt/cy_mcwdt.h ****                                                (CY_MCWDT_COUNTER1 == (counter)) || \
 275:Generated_Source\PSoC6\pdl\drivers/peripheral/mcwdt/cy_mcwdt.h ****                                                (CY_MCWDT_COUNTER2 == (counter)))
 276:Generated_Source\PSoC6\pdl\drivers/peripheral/mcwdt/cy_mcwdt.h **** 
 277:Generated_Source\PSoC6\pdl\drivers/peripheral/mcwdt/cy_mcwdt.h **** #define CY_MCWDT_IS_MODE_VALID(mode)          ((CY_MCWDT_MODE_NONE == (mode)) || \
 278:Generated_Source\PSoC6\pdl\drivers/peripheral/mcwdt/cy_mcwdt.h ****                                                (CY_MCWDT_MODE_INT == (mode)) || \
 279:Generated_Source\PSoC6\pdl\drivers/peripheral/mcwdt/cy_mcwdt.h ****                                                (CY_MCWDT_MODE_RESET == (mode)) || \
 280:Generated_Source\PSoC6\pdl\drivers/peripheral/mcwdt/cy_mcwdt.h ****                                                (CY_MCWDT_MODE_INT_RESET == (mode)))
 281:Generated_Source\PSoC6\pdl\drivers/peripheral/mcwdt/cy_mcwdt.h **** 
 282:Generated_Source\PSoC6\pdl\drivers/peripheral/mcwdt/cy_mcwdt.h **** #define CY_MCWDT_IS_ENABLE_VALID(enable)      (1UL >= (enable))
 283:Generated_Source\PSoC6\pdl\drivers/peripheral/mcwdt/cy_mcwdt.h **** 
 284:Generated_Source\PSoC6\pdl\drivers/peripheral/mcwdt/cy_mcwdt.h **** 
 285:Generated_Source\PSoC6\pdl\drivers/peripheral/mcwdt/cy_mcwdt.h **** #define CY_MCWDT_IS_CASCADE_VALID(cascade)    ((CY_MCWDT_CASCADE_NONE == (cascade)) || \
 286:Generated_Source\PSoC6\pdl\drivers/peripheral/mcwdt/cy_mcwdt.h ****                                                (CY_MCWDT_CASCADE_C0C1 == (cascade)) || \
 287:Generated_Source\PSoC6\pdl\drivers/peripheral/mcwdt/cy_mcwdt.h ****                                                (CY_MCWDT_CASCADE_C1C2 == (cascade)) || \
 288:Generated_Source\PSoC6\pdl\drivers/peripheral/mcwdt/cy_mcwdt.h ****                                                (CY_MCWDT_CASCADE_BOTH == (cascade)))
 289:Generated_Source\PSoC6\pdl\drivers/peripheral/mcwdt/cy_mcwdt.h ****                                                
 290:Generated_Source\PSoC6\pdl\drivers/peripheral/mcwdt/cy_mcwdt.h **** #define CY_MCWDT_IS_MATCH_VALID(clearOnMatch, match)  ((clearOnMatch) ? (1UL <= (match)) : true)
 291:Generated_Source\PSoC6\pdl\drivers/peripheral/mcwdt/cy_mcwdt.h **** 
 292:Generated_Source\PSoC6\pdl\drivers/peripheral/mcwdt/cy_mcwdt.h **** #define CY_MCWDT_IS_BIT_VALID(bit)            (31UL >= (bit))                                      
 293:Generated_Source\PSoC6\pdl\drivers/peripheral/mcwdt/cy_mcwdt.h **** 
 294:Generated_Source\PSoC6\pdl\drivers/peripheral/mcwdt/cy_mcwdt.h ****                                           
 295:Generated_Source\PSoC6\pdl\drivers/peripheral/mcwdt/cy_mcwdt.h **** /** \endcond */
 296:Generated_Source\PSoC6\pdl\drivers/peripheral/mcwdt/cy_mcwdt.h **** 
 297:Generated_Source\PSoC6\pdl\drivers/peripheral/mcwdt/cy_mcwdt.h **** 
 298:Generated_Source\PSoC6\pdl\drivers/peripheral/mcwdt/cy_mcwdt.h **** /*******************************************************************************
 299:Generated_Source\PSoC6\pdl\drivers/peripheral/mcwdt/cy_mcwdt.h **** *        Function Prototypes
 300:Generated_Source\PSoC6\pdl\drivers/peripheral/mcwdt/cy_mcwdt.h **** *******************************************************************************/
 301:Generated_Source\PSoC6\pdl\drivers/peripheral/mcwdt/cy_mcwdt.h **** 
 302:Generated_Source\PSoC6\pdl\drivers/peripheral/mcwdt/cy_mcwdt.h **** /**
 303:Generated_Source\PSoC6\pdl\drivers/peripheral/mcwdt/cy_mcwdt.h **** * \addtogroup group_mcwdt_functions
 304:Generated_Source\PSoC6\pdl\drivers/peripheral/mcwdt/cy_mcwdt.h **** * \{
 305:Generated_Source\PSoC6\pdl\drivers/peripheral/mcwdt/cy_mcwdt.h **** */
 306:Generated_Source\PSoC6\pdl\drivers/peripheral/mcwdt/cy_mcwdt.h **** cy_en_mcwdt_status_t     Cy_MCWDT_Init(MCWDT_STRUCT_Type *base, cy_stc_mcwdt_config_t const *config
 307:Generated_Source\PSoC6\pdl\drivers/peripheral/mcwdt/cy_mcwdt.h ****                 void     Cy_MCWDT_DeInit(MCWDT_STRUCT_Type *base);
 308:Generated_Source\PSoC6\pdl\drivers/peripheral/mcwdt/cy_mcwdt.h **** __STATIC_INLINE void     Cy_MCWDT_Enable(MCWDT_STRUCT_Type *base, uint32_t counters, uint16_t waitU
 309:Generated_Source\PSoC6\pdl\drivers/peripheral/mcwdt/cy_mcwdt.h **** __STATIC_INLINE void     Cy_MCWDT_Disable(MCWDT_STRUCT_Type *base, uint32_t counters, uint16_t wait
 310:Generated_Source\PSoC6\pdl\drivers/peripheral/mcwdt/cy_mcwdt.h **** __STATIC_INLINE uint32_t Cy_MCWDT_GetEnabledStatus(MCWDT_STRUCT_Type const *base, cy_en_mcwdtctr_t 
 311:Generated_Source\PSoC6\pdl\drivers/peripheral/mcwdt/cy_mcwdt.h **** __STATIC_INLINE void     Cy_MCWDT_Lock(MCWDT_STRUCT_Type *base);
 312:Generated_Source\PSoC6\pdl\drivers/peripheral/mcwdt/cy_mcwdt.h **** __STATIC_INLINE void     Cy_MCWDT_Unlock(MCWDT_STRUCT_Type *base);
 313:Generated_Source\PSoC6\pdl\drivers/peripheral/mcwdt/cy_mcwdt.h **** __STATIC_INLINE uint32_t Cy_MCWDT_GetLockedStatus(MCWDT_STRUCT_Type const *base);
 314:Generated_Source\PSoC6\pdl\drivers/peripheral/mcwdt/cy_mcwdt.h **** __STATIC_INLINE void     Cy_MCWDT_SetMode(MCWDT_STRUCT_Type *base, cy_en_mcwdtctr_t counter, cy_en_
 315:Generated_Source\PSoC6\pdl\drivers/peripheral/mcwdt/cy_mcwdt.h **** __STATIC_INLINE cy_en_mcwdtmode_t Cy_MCWDT_GetMode(MCWDT_STRUCT_Type const *base, cy_en_mcwdtctr_t 
 316:Generated_Source\PSoC6\pdl\drivers/peripheral/mcwdt/cy_mcwdt.h **** __STATIC_INLINE void     Cy_MCWDT_SetClearOnMatch(MCWDT_STRUCT_Type *base, cy_en_mcwdtctr_t counter
ARM GAS  C:\Users\salaz\AppData\Local\Temp\ccvE4Xni.s 			page 10


 317:Generated_Source\PSoC6\pdl\drivers/peripheral/mcwdt/cy_mcwdt.h **** __STATIC_INLINE uint32_t Cy_MCWDT_GetClearOnMatch(MCWDT_STRUCT_Type const *base, cy_en_mcwdtctr_t c
 318:Generated_Source\PSoC6\pdl\drivers/peripheral/mcwdt/cy_mcwdt.h **** __STATIC_INLINE void     Cy_MCWDT_SetCascade(MCWDT_STRUCT_Type *base, cy_en_mcwdtcascade_t cascade)
 319:Generated_Source\PSoC6\pdl\drivers/peripheral/mcwdt/cy_mcwdt.h **** __STATIC_INLINE cy_en_mcwdtcascade_t Cy_MCWDT_GetCascade(MCWDT_STRUCT_Type const *base);
 320:Generated_Source\PSoC6\pdl\drivers/peripheral/mcwdt/cy_mcwdt.h **** __STATIC_INLINE void     Cy_MCWDT_SetMatch(MCWDT_STRUCT_Type *base, cy_en_mcwdtctr_t counter, uint3
 321:Generated_Source\PSoC6\pdl\drivers/peripheral/mcwdt/cy_mcwdt.h **** __STATIC_INLINE uint32_t Cy_MCWDT_GetMatch(MCWDT_STRUCT_Type const *base, cy_en_mcwdtctr_t counter)
 322:Generated_Source\PSoC6\pdl\drivers/peripheral/mcwdt/cy_mcwdt.h **** __STATIC_INLINE void     Cy_MCWDT_SetToggleBit(MCWDT_STRUCT_Type *base, uint32_t bit);
 323:Generated_Source\PSoC6\pdl\drivers/peripheral/mcwdt/cy_mcwdt.h **** __STATIC_INLINE uint32_t Cy_MCWDT_GetToggleBit(MCWDT_STRUCT_Type const *base);
 324:Generated_Source\PSoC6\pdl\drivers/peripheral/mcwdt/cy_mcwdt.h **** __STATIC_INLINE uint32_t Cy_MCWDT_GetCount(MCWDT_STRUCT_Type const *base, cy_en_mcwdtctr_t counter)
 325:Generated_Source\PSoC6\pdl\drivers/peripheral/mcwdt/cy_mcwdt.h **** __STATIC_INLINE void     Cy_MCWDT_ResetCounters(MCWDT_STRUCT_Type *base, uint32_t counters, uint16_
 326:Generated_Source\PSoC6\pdl\drivers/peripheral/mcwdt/cy_mcwdt.h **** __STATIC_INLINE uint32_t Cy_MCWDT_GetInterruptStatus(MCWDT_STRUCT_Type const *base);
 327:Generated_Source\PSoC6\pdl\drivers/peripheral/mcwdt/cy_mcwdt.h **** __STATIC_INLINE void     Cy_MCWDT_ClearInterrupt(MCWDT_STRUCT_Type *base, uint32_t counters);
 328:Generated_Source\PSoC6\pdl\drivers/peripheral/mcwdt/cy_mcwdt.h **** __STATIC_INLINE void     Cy_MCWDT_SetInterrupt(MCWDT_STRUCT_Type *base, uint32_t counters);
 329:Generated_Source\PSoC6\pdl\drivers/peripheral/mcwdt/cy_mcwdt.h **** __STATIC_INLINE uint32_t Cy_MCWDT_GetInterruptMask(MCWDT_STRUCT_Type const *base);
 330:Generated_Source\PSoC6\pdl\drivers/peripheral/mcwdt/cy_mcwdt.h **** __STATIC_INLINE void     Cy_MCWDT_SetInterruptMask(MCWDT_STRUCT_Type *base, uint32_t counters);
 331:Generated_Source\PSoC6\pdl\drivers/peripheral/mcwdt/cy_mcwdt.h **** __STATIC_INLINE uint32_t Cy_MCWDT_GetInterruptStatusMasked(MCWDT_STRUCT_Type const *base);
 332:Generated_Source\PSoC6\pdl\drivers/peripheral/mcwdt/cy_mcwdt.h **** uint32_t Cy_MCWDT_GetCountCascaded(MCWDT_STRUCT_Type const *base);
 333:Generated_Source\PSoC6\pdl\drivers/peripheral/mcwdt/cy_mcwdt.h **** 
 334:Generated_Source\PSoC6\pdl\drivers/peripheral/mcwdt/cy_mcwdt.h **** 
 335:Generated_Source\PSoC6\pdl\drivers/peripheral/mcwdt/cy_mcwdt.h **** /*******************************************************************************
 336:Generated_Source\PSoC6\pdl\drivers/peripheral/mcwdt/cy_mcwdt.h **** * Function Name: Cy_MCWDT_Enable
 337:Generated_Source\PSoC6\pdl\drivers/peripheral/mcwdt/cy_mcwdt.h **** ****************************************************************************//**
 338:Generated_Source\PSoC6\pdl\drivers/peripheral/mcwdt/cy_mcwdt.h **** *
 339:Generated_Source\PSoC6\pdl\drivers/peripheral/mcwdt/cy_mcwdt.h **** *  Enables all specified counters.
 340:Generated_Source\PSoC6\pdl\drivers/peripheral/mcwdt/cy_mcwdt.h **** *
 341:Generated_Source\PSoC6\pdl\drivers/peripheral/mcwdt/cy_mcwdt.h **** *  \param base
 342:Generated_Source\PSoC6\pdl\drivers/peripheral/mcwdt/cy_mcwdt.h **** *  The base pointer to a structure that describes registers.
 343:Generated_Source\PSoC6\pdl\drivers/peripheral/mcwdt/cy_mcwdt.h **** *
 344:Generated_Source\PSoC6\pdl\drivers/peripheral/mcwdt/cy_mcwdt.h **** *  \param counters
 345:Generated_Source\PSoC6\pdl\drivers/peripheral/mcwdt/cy_mcwdt.h **** *  OR of all counters to enable. See the \ref CY_MCWDT_CTR0, CY_MCWDT_CTR1, and
 346:Generated_Source\PSoC6\pdl\drivers/peripheral/mcwdt/cy_mcwdt.h **** *  CY_MCWDT_CTR2  macros.
 347:Generated_Source\PSoC6\pdl\drivers/peripheral/mcwdt/cy_mcwdt.h **** *
 348:Generated_Source\PSoC6\pdl\drivers/peripheral/mcwdt/cy_mcwdt.h **** *  \param waitUs
 349:Generated_Source\PSoC6\pdl\drivers/peripheral/mcwdt/cy_mcwdt.h **** *  The function waits for some delay in microseconds before returning, 
 350:Generated_Source\PSoC6\pdl\drivers/peripheral/mcwdt/cy_mcwdt.h **** *  because the counter begins counting after two lf_clk cycles pass. 
 351:Generated_Source\PSoC6\pdl\drivers/peripheral/mcwdt/cy_mcwdt.h **** *  The recommended value is 93 us.
 352:Generated_Source\PSoC6\pdl\drivers/peripheral/mcwdt/cy_mcwdt.h **** *  \note
 353:Generated_Source\PSoC6\pdl\drivers/peripheral/mcwdt/cy_mcwdt.h **** *  Setting this parameter to a zero means No wait. In this case, it is
 354:Generated_Source\PSoC6\pdl\drivers/peripheral/mcwdt/cy_mcwdt.h **** *  the user's responsibility to check whether the selected counters were enabled 
 355:Generated_Source\PSoC6\pdl\drivers/peripheral/mcwdt/cy_mcwdt.h **** *  immediately after the function call. This can be done by the 
 356:Generated_Source\PSoC6\pdl\drivers/peripheral/mcwdt/cy_mcwdt.h **** *  Cy_MCWDT_GetEnabledStatus() API.
 357:Generated_Source\PSoC6\pdl\drivers/peripheral/mcwdt/cy_mcwdt.h **** *
 358:Generated_Source\PSoC6\pdl\drivers/peripheral/mcwdt/cy_mcwdt.h **** *******************************************************************************/
 359:Generated_Source\PSoC6\pdl\drivers/peripheral/mcwdt/cy_mcwdt.h **** __STATIC_INLINE void Cy_MCWDT_Enable(MCWDT_STRUCT_Type *base, uint32_t counters, uint16_t waitUs)
 360:Generated_Source\PSoC6\pdl\drivers/peripheral/mcwdt/cy_mcwdt.h **** {
 361:Generated_Source\PSoC6\pdl\drivers/peripheral/mcwdt/cy_mcwdt.h ****     uint32_t enableCounters;
 362:Generated_Source\PSoC6\pdl\drivers/peripheral/mcwdt/cy_mcwdt.h **** 
 363:Generated_Source\PSoC6\pdl\drivers/peripheral/mcwdt/cy_mcwdt.h ****     CY_ASSERT_L2(CY_MCWDT_IS_CNTS_MASK_VALID(counters));
 364:Generated_Source\PSoC6\pdl\drivers/peripheral/mcwdt/cy_mcwdt.h ****     
 365:Generated_Source\PSoC6\pdl\drivers/peripheral/mcwdt/cy_mcwdt.h ****     /* Extract particular counters for enable */
 366:Generated_Source\PSoC6\pdl\drivers/peripheral/mcwdt/cy_mcwdt.h ****     enableCounters = ((0UL != (counters & CY_MCWDT_CTR0)) ? MCWDT_STRUCT_MCWDT_CTL_WDT_ENABLE0_Msk 
 367:Generated_Source\PSoC6\pdl\drivers/peripheral/mcwdt/cy_mcwdt.h ****                      ((0UL != (counters & CY_MCWDT_CTR1)) ? MCWDT_STRUCT_MCWDT_CTL_WDT_ENABLE1_Msk 
 368:Generated_Source\PSoC6\pdl\drivers/peripheral/mcwdt/cy_mcwdt.h ****                      ((0UL != (counters & CY_MCWDT_CTR2)) ? MCWDT_STRUCT_MCWDT_CTL_WDT_ENABLE2_Msk 
 369:Generated_Source\PSoC6\pdl\drivers/peripheral/mcwdt/cy_mcwdt.h **** 
 370:Generated_Source\PSoC6\pdl\drivers/peripheral/mcwdt/cy_mcwdt.h ****     base->MCWDT_CTL |= enableCounters;
 371:Generated_Source\PSoC6\pdl\drivers/peripheral/mcwdt/cy_mcwdt.h **** 
 372:Generated_Source\PSoC6\pdl\drivers/peripheral/mcwdt/cy_mcwdt.h ****     Cy_SysLib_DelayUs(waitUs);
 373:Generated_Source\PSoC6\pdl\drivers/peripheral/mcwdt/cy_mcwdt.h **** }
ARM GAS  C:\Users\salaz\AppData\Local\Temp\ccvE4Xni.s 			page 11


 374:Generated_Source\PSoC6\pdl\drivers/peripheral/mcwdt/cy_mcwdt.h **** 
 375:Generated_Source\PSoC6\pdl\drivers/peripheral/mcwdt/cy_mcwdt.h **** 
 376:Generated_Source\PSoC6\pdl\drivers/peripheral/mcwdt/cy_mcwdt.h **** /*******************************************************************************
 377:Generated_Source\PSoC6\pdl\drivers/peripheral/mcwdt/cy_mcwdt.h **** * Function Name: Cy_MCWDT_Disable
 378:Generated_Source\PSoC6\pdl\drivers/peripheral/mcwdt/cy_mcwdt.h **** ****************************************************************************//**
 379:Generated_Source\PSoC6\pdl\drivers/peripheral/mcwdt/cy_mcwdt.h **** *
 380:Generated_Source\PSoC6\pdl\drivers/peripheral/mcwdt/cy_mcwdt.h **** *  Disables all specified counters.
 381:Generated_Source\PSoC6\pdl\drivers/peripheral/mcwdt/cy_mcwdt.h **** *
 382:Generated_Source\PSoC6\pdl\drivers/peripheral/mcwdt/cy_mcwdt.h **** *  \param base
 383:Generated_Source\PSoC6\pdl\drivers/peripheral/mcwdt/cy_mcwdt.h **** *  The base pointer to a structure describing registers.
 384:Generated_Source\PSoC6\pdl\drivers/peripheral/mcwdt/cy_mcwdt.h **** *
 385:Generated_Source\PSoC6\pdl\drivers/peripheral/mcwdt/cy_mcwdt.h **** *  \param counters
 386:Generated_Source\PSoC6\pdl\drivers/peripheral/mcwdt/cy_mcwdt.h **** *  OR of all counters to disable. See the \ref CY_MCWDT_CTR0, CY_MCWDT_CTR1, and
 387:Generated_Source\PSoC6\pdl\drivers/peripheral/mcwdt/cy_mcwdt.h **** *  CY_MCWDT_CTR2 macros.
 388:Generated_Source\PSoC6\pdl\drivers/peripheral/mcwdt/cy_mcwdt.h **** *
 389:Generated_Source\PSoC6\pdl\drivers/peripheral/mcwdt/cy_mcwdt.h **** *  \param waitUs
 390:Generated_Source\PSoC6\pdl\drivers/peripheral/mcwdt/cy_mcwdt.h **** *  The function waits for some delay in microseconds before returning, 
 391:Generated_Source\PSoC6\pdl\drivers/peripheral/mcwdt/cy_mcwdt.h **** *  because the counter stops counting after two lf_clk cycles pass. 
 392:Generated_Source\PSoC6\pdl\drivers/peripheral/mcwdt/cy_mcwdt.h **** *  The recommended value is 93 us.
 393:Generated_Source\PSoC6\pdl\drivers/peripheral/mcwdt/cy_mcwdt.h **** *  \note
 394:Generated_Source\PSoC6\pdl\drivers/peripheral/mcwdt/cy_mcwdt.h **** *  Setting this parameter to a zero means No wait. In this case, it is 
 395:Generated_Source\PSoC6\pdl\drivers/peripheral/mcwdt/cy_mcwdt.h **** *  the user's responsibility to check whether the selected counters were disabled 
 396:Generated_Source\PSoC6\pdl\drivers/peripheral/mcwdt/cy_mcwdt.h **** *  immediately after the function call. This can be done by the 
 397:Generated_Source\PSoC6\pdl\drivers/peripheral/mcwdt/cy_mcwdt.h **** *  Cy_MCWDT_GetEnabledStatus() API.
 398:Generated_Source\PSoC6\pdl\drivers/peripheral/mcwdt/cy_mcwdt.h **** *
 399:Generated_Source\PSoC6\pdl\drivers/peripheral/mcwdt/cy_mcwdt.h **** *******************************************************************************/
 400:Generated_Source\PSoC6\pdl\drivers/peripheral/mcwdt/cy_mcwdt.h **** __STATIC_INLINE void Cy_MCWDT_Disable(MCWDT_STRUCT_Type *base, uint32_t counters, uint16_t waitUs)
 401:Generated_Source\PSoC6\pdl\drivers/peripheral/mcwdt/cy_mcwdt.h **** {
 402:Generated_Source\PSoC6\pdl\drivers/peripheral/mcwdt/cy_mcwdt.h ****     uint32_t disableCounters;
 403:Generated_Source\PSoC6\pdl\drivers/peripheral/mcwdt/cy_mcwdt.h **** 
 404:Generated_Source\PSoC6\pdl\drivers/peripheral/mcwdt/cy_mcwdt.h ****     CY_ASSERT_L2(CY_MCWDT_IS_CNTS_MASK_VALID(counters));
 405:Generated_Source\PSoC6\pdl\drivers/peripheral/mcwdt/cy_mcwdt.h ****     
 406:Generated_Source\PSoC6\pdl\drivers/peripheral/mcwdt/cy_mcwdt.h ****     /* Extract particular counters for disable */
 407:Generated_Source\PSoC6\pdl\drivers/peripheral/mcwdt/cy_mcwdt.h ****     disableCounters = ((0UL != (counters & CY_MCWDT_CTR0)) ? MCWDT_STRUCT_MCWDT_CTL_WDT_ENABLE0_Msk
 408:Generated_Source\PSoC6\pdl\drivers/peripheral/mcwdt/cy_mcwdt.h ****                       ((0UL != (counters & CY_MCWDT_CTR1)) ? MCWDT_STRUCT_MCWDT_CTL_WDT_ENABLE1_Msk
 409:Generated_Source\PSoC6\pdl\drivers/peripheral/mcwdt/cy_mcwdt.h ****                       ((0UL != (counters & CY_MCWDT_CTR2)) ? MCWDT_STRUCT_MCWDT_CTL_WDT_ENABLE2_Msk
 410:Generated_Source\PSoC6\pdl\drivers/peripheral/mcwdt/cy_mcwdt.h **** 
 411:Generated_Source\PSoC6\pdl\drivers/peripheral/mcwdt/cy_mcwdt.h ****     base->MCWDT_CTL &= ~disableCounters;
 412:Generated_Source\PSoC6\pdl\drivers/peripheral/mcwdt/cy_mcwdt.h **** 
 413:Generated_Source\PSoC6\pdl\drivers/peripheral/mcwdt/cy_mcwdt.h ****     Cy_SysLib_DelayUs(waitUs);
 414:Generated_Source\PSoC6\pdl\drivers/peripheral/mcwdt/cy_mcwdt.h **** }
 415:Generated_Source\PSoC6\pdl\drivers/peripheral/mcwdt/cy_mcwdt.h **** 
 416:Generated_Source\PSoC6\pdl\drivers/peripheral/mcwdt/cy_mcwdt.h **** 
 417:Generated_Source\PSoC6\pdl\drivers/peripheral/mcwdt/cy_mcwdt.h **** /*******************************************************************************
 418:Generated_Source\PSoC6\pdl\drivers/peripheral/mcwdt/cy_mcwdt.h **** * Function Name: Cy_MCWDT_GetEnabledStatus
 419:Generated_Source\PSoC6\pdl\drivers/peripheral/mcwdt/cy_mcwdt.h **** ****************************************************************************//**
 420:Generated_Source\PSoC6\pdl\drivers/peripheral/mcwdt/cy_mcwdt.h **** *
 421:Generated_Source\PSoC6\pdl\drivers/peripheral/mcwdt/cy_mcwdt.h **** *  Reports the enabled status of the specified counter.
 422:Generated_Source\PSoC6\pdl\drivers/peripheral/mcwdt/cy_mcwdt.h **** *
 423:Generated_Source\PSoC6\pdl\drivers/peripheral/mcwdt/cy_mcwdt.h **** *  \param base
 424:Generated_Source\PSoC6\pdl\drivers/peripheral/mcwdt/cy_mcwdt.h **** *  The base pointer to a structure that describes registers.
 425:Generated_Source\PSoC6\pdl\drivers/peripheral/mcwdt/cy_mcwdt.h **** *
 426:Generated_Source\PSoC6\pdl\drivers/peripheral/mcwdt/cy_mcwdt.h **** *  \param counter
 427:Generated_Source\PSoC6\pdl\drivers/peripheral/mcwdt/cy_mcwdt.h **** *  The number of the MCWDT counter. The valid range is [0-2].
 428:Generated_Source\PSoC6\pdl\drivers/peripheral/mcwdt/cy_mcwdt.h **** *
 429:Generated_Source\PSoC6\pdl\drivers/peripheral/mcwdt/cy_mcwdt.h **** *  \return
 430:Generated_Source\PSoC6\pdl\drivers/peripheral/mcwdt/cy_mcwdt.h **** *  The status of the MCWDT counter: 0 = disabled, 1 = enabled.
ARM GAS  C:\Users\salaz\AppData\Local\Temp\ccvE4Xni.s 			page 12


 431:Generated_Source\PSoC6\pdl\drivers/peripheral/mcwdt/cy_mcwdt.h **** *
 432:Generated_Source\PSoC6\pdl\drivers/peripheral/mcwdt/cy_mcwdt.h **** *******************************************************************************/
 433:Generated_Source\PSoC6\pdl\drivers/peripheral/mcwdt/cy_mcwdt.h **** __STATIC_INLINE uint32_t Cy_MCWDT_GetEnabledStatus(MCWDT_STRUCT_Type const *base, cy_en_mcwdtctr_t 
 434:Generated_Source\PSoC6\pdl\drivers/peripheral/mcwdt/cy_mcwdt.h **** {
 435:Generated_Source\PSoC6\pdl\drivers/peripheral/mcwdt/cy_mcwdt.h ****     uint32_t status = 0u;
 436:Generated_Source\PSoC6\pdl\drivers/peripheral/mcwdt/cy_mcwdt.h **** 
 437:Generated_Source\PSoC6\pdl\drivers/peripheral/mcwdt/cy_mcwdt.h ****     CY_ASSERT_L3(CY_MCWDT_IS_CNT_NUM_VALID(counter));
 438:Generated_Source\PSoC6\pdl\drivers/peripheral/mcwdt/cy_mcwdt.h ****     
 439:Generated_Source\PSoC6\pdl\drivers/peripheral/mcwdt/cy_mcwdt.h ****     switch (counter)
 440:Generated_Source\PSoC6\pdl\drivers/peripheral/mcwdt/cy_mcwdt.h ****     {
 441:Generated_Source\PSoC6\pdl\drivers/peripheral/mcwdt/cy_mcwdt.h ****         case CY_MCWDT_COUNTER0:
 442:Generated_Source\PSoC6\pdl\drivers/peripheral/mcwdt/cy_mcwdt.h ****             status = _FLD2VAL(MCWDT_STRUCT_MCWDT_CTL_WDT_ENABLED0, base->MCWDT_CTL);
 443:Generated_Source\PSoC6\pdl\drivers/peripheral/mcwdt/cy_mcwdt.h ****             break;
 444:Generated_Source\PSoC6\pdl\drivers/peripheral/mcwdt/cy_mcwdt.h ****         case CY_MCWDT_COUNTER1:
 445:Generated_Source\PSoC6\pdl\drivers/peripheral/mcwdt/cy_mcwdt.h ****             status = _FLD2VAL(MCWDT_STRUCT_MCWDT_CTL_WDT_ENABLED1, base->MCWDT_CTL);
 446:Generated_Source\PSoC6\pdl\drivers/peripheral/mcwdt/cy_mcwdt.h ****             break;
 447:Generated_Source\PSoC6\pdl\drivers/peripheral/mcwdt/cy_mcwdt.h ****         case CY_MCWDT_COUNTER2:
 448:Generated_Source\PSoC6\pdl\drivers/peripheral/mcwdt/cy_mcwdt.h ****             status = _FLD2VAL(MCWDT_STRUCT_MCWDT_CTL_WDT_ENABLED2, base->MCWDT_CTL);
 449:Generated_Source\PSoC6\pdl\drivers/peripheral/mcwdt/cy_mcwdt.h ****             break;
 450:Generated_Source\PSoC6\pdl\drivers/peripheral/mcwdt/cy_mcwdt.h **** 
 451:Generated_Source\PSoC6\pdl\drivers/peripheral/mcwdt/cy_mcwdt.h ****         default:
 452:Generated_Source\PSoC6\pdl\drivers/peripheral/mcwdt/cy_mcwdt.h ****             CY_ASSERT(0u != 0u);
 453:Generated_Source\PSoC6\pdl\drivers/peripheral/mcwdt/cy_mcwdt.h ****         break;
 454:Generated_Source\PSoC6\pdl\drivers/peripheral/mcwdt/cy_mcwdt.h ****     }
 455:Generated_Source\PSoC6\pdl\drivers/peripheral/mcwdt/cy_mcwdt.h **** 
 456:Generated_Source\PSoC6\pdl\drivers/peripheral/mcwdt/cy_mcwdt.h ****     return (status);
 457:Generated_Source\PSoC6\pdl\drivers/peripheral/mcwdt/cy_mcwdt.h **** }
 458:Generated_Source\PSoC6\pdl\drivers/peripheral/mcwdt/cy_mcwdt.h **** 
 459:Generated_Source\PSoC6\pdl\drivers/peripheral/mcwdt/cy_mcwdt.h **** 
 460:Generated_Source\PSoC6\pdl\drivers/peripheral/mcwdt/cy_mcwdt.h **** /*******************************************************************************
 461:Generated_Source\PSoC6\pdl\drivers/peripheral/mcwdt/cy_mcwdt.h **** * Function Name: Cy_MCWDT_Lock
 462:Generated_Source\PSoC6\pdl\drivers/peripheral/mcwdt/cy_mcwdt.h **** ****************************************************************************//**
 463:Generated_Source\PSoC6\pdl\drivers/peripheral/mcwdt/cy_mcwdt.h **** *
 464:Generated_Source\PSoC6\pdl\drivers/peripheral/mcwdt/cy_mcwdt.h **** *  Locks out configuration changes to all MCWDT registers.
 465:Generated_Source\PSoC6\pdl\drivers/peripheral/mcwdt/cy_mcwdt.h **** *
 466:Generated_Source\PSoC6\pdl\drivers/peripheral/mcwdt/cy_mcwdt.h **** *  \param base
 467:Generated_Source\PSoC6\pdl\drivers/peripheral/mcwdt/cy_mcwdt.h **** *  The base pointer to a structure that describes registers.
 468:Generated_Source\PSoC6\pdl\drivers/peripheral/mcwdt/cy_mcwdt.h **** *
 469:Generated_Source\PSoC6\pdl\drivers/peripheral/mcwdt/cy_mcwdt.h **** *******************************************************************************/
 470:Generated_Source\PSoC6\pdl\drivers/peripheral/mcwdt/cy_mcwdt.h **** __STATIC_INLINE void Cy_MCWDT_Lock(MCWDT_STRUCT_Type *base)
 471:Generated_Source\PSoC6\pdl\drivers/peripheral/mcwdt/cy_mcwdt.h **** {
 472:Generated_Source\PSoC6\pdl\drivers/peripheral/mcwdt/cy_mcwdt.h ****     uint32_t interruptState;
 473:Generated_Source\PSoC6\pdl\drivers/peripheral/mcwdt/cy_mcwdt.h **** 
 474:Generated_Source\PSoC6\pdl\drivers/peripheral/mcwdt/cy_mcwdt.h ****     interruptState = Cy_SysLib_EnterCriticalSection();
 475:Generated_Source\PSoC6\pdl\drivers/peripheral/mcwdt/cy_mcwdt.h **** 
 476:Generated_Source\PSoC6\pdl\drivers/peripheral/mcwdt/cy_mcwdt.h ****     base->MCWDT_LOCK = _CLR_SET_FLD32U(base->MCWDT_LOCK, MCWDT_STRUCT_MCWDT_LOCK_MCWDT_LOCK, (uint3
 477:Generated_Source\PSoC6\pdl\drivers/peripheral/mcwdt/cy_mcwdt.h **** 
 478:Generated_Source\PSoC6\pdl\drivers/peripheral/mcwdt/cy_mcwdt.h ****     Cy_SysLib_ExitCriticalSection(interruptState);
 479:Generated_Source\PSoC6\pdl\drivers/peripheral/mcwdt/cy_mcwdt.h **** }
 480:Generated_Source\PSoC6\pdl\drivers/peripheral/mcwdt/cy_mcwdt.h **** 
 481:Generated_Source\PSoC6\pdl\drivers/peripheral/mcwdt/cy_mcwdt.h **** 
 482:Generated_Source\PSoC6\pdl\drivers/peripheral/mcwdt/cy_mcwdt.h **** /*******************************************************************************
 483:Generated_Source\PSoC6\pdl\drivers/peripheral/mcwdt/cy_mcwdt.h **** * Function Name: Cy_MCWDT_Unlock
 484:Generated_Source\PSoC6\pdl\drivers/peripheral/mcwdt/cy_mcwdt.h **** ****************************************************************************//**
 485:Generated_Source\PSoC6\pdl\drivers/peripheral/mcwdt/cy_mcwdt.h **** *
 486:Generated_Source\PSoC6\pdl\drivers/peripheral/mcwdt/cy_mcwdt.h **** *  Unlocks the MCWDT configuration registers.
 487:Generated_Source\PSoC6\pdl\drivers/peripheral/mcwdt/cy_mcwdt.h **** *
ARM GAS  C:\Users\salaz\AppData\Local\Temp\ccvE4Xni.s 			page 13


 488:Generated_Source\PSoC6\pdl\drivers/peripheral/mcwdt/cy_mcwdt.h **** *  \param base
 489:Generated_Source\PSoC6\pdl\drivers/peripheral/mcwdt/cy_mcwdt.h **** *  The base pointer to a structure that describes registers.
 490:Generated_Source\PSoC6\pdl\drivers/peripheral/mcwdt/cy_mcwdt.h **** *
 491:Generated_Source\PSoC6\pdl\drivers/peripheral/mcwdt/cy_mcwdt.h **** *******************************************************************************/
 492:Generated_Source\PSoC6\pdl\drivers/peripheral/mcwdt/cy_mcwdt.h **** __STATIC_INLINE void Cy_MCWDT_Unlock(MCWDT_STRUCT_Type *base)
 493:Generated_Source\PSoC6\pdl\drivers/peripheral/mcwdt/cy_mcwdt.h **** {
 494:Generated_Source\PSoC6\pdl\drivers/peripheral/mcwdt/cy_mcwdt.h ****     uint32_t interruptState;
 495:Generated_Source\PSoC6\pdl\drivers/peripheral/mcwdt/cy_mcwdt.h **** 
 496:Generated_Source\PSoC6\pdl\drivers/peripheral/mcwdt/cy_mcwdt.h ****     interruptState = Cy_SysLib_EnterCriticalSection();
 497:Generated_Source\PSoC6\pdl\drivers/peripheral/mcwdt/cy_mcwdt.h **** 
 498:Generated_Source\PSoC6\pdl\drivers/peripheral/mcwdt/cy_mcwdt.h ****     base->MCWDT_LOCK = _CLR_SET_FLD32U(base->MCWDT_LOCK, MCWDT_STRUCT_MCWDT_LOCK_MCWDT_LOCK, (uint3
 499:Generated_Source\PSoC6\pdl\drivers/peripheral/mcwdt/cy_mcwdt.h ****     base->MCWDT_LOCK = _CLR_SET_FLD32U(base->MCWDT_LOCK, MCWDT_STRUCT_MCWDT_LOCK_MCWDT_LOCK, (uint3
 500:Generated_Source\PSoC6\pdl\drivers/peripheral/mcwdt/cy_mcwdt.h **** 
 501:Generated_Source\PSoC6\pdl\drivers/peripheral/mcwdt/cy_mcwdt.h ****     Cy_SysLib_ExitCriticalSection(interruptState);
 502:Generated_Source\PSoC6\pdl\drivers/peripheral/mcwdt/cy_mcwdt.h **** }
 503:Generated_Source\PSoC6\pdl\drivers/peripheral/mcwdt/cy_mcwdt.h **** 
 504:Generated_Source\PSoC6\pdl\drivers/peripheral/mcwdt/cy_mcwdt.h **** 
 505:Generated_Source\PSoC6\pdl\drivers/peripheral/mcwdt/cy_mcwdt.h **** /*******************************************************************************
 506:Generated_Source\PSoC6\pdl\drivers/peripheral/mcwdt/cy_mcwdt.h **** * Function Name: Cy_MCWDT_GetLockStatus
 507:Generated_Source\PSoC6\pdl\drivers/peripheral/mcwdt/cy_mcwdt.h **** ****************************************************************************//**
 508:Generated_Source\PSoC6\pdl\drivers/peripheral/mcwdt/cy_mcwdt.h **** *
 509:Generated_Source\PSoC6\pdl\drivers/peripheral/mcwdt/cy_mcwdt.h **** *  Reports the locked/unlocked state of the MCWDT.
 510:Generated_Source\PSoC6\pdl\drivers/peripheral/mcwdt/cy_mcwdt.h **** *
 511:Generated_Source\PSoC6\pdl\drivers/peripheral/mcwdt/cy_mcwdt.h **** *  \param base
 512:Generated_Source\PSoC6\pdl\drivers/peripheral/mcwdt/cy_mcwdt.h **** *  The base pointer to a structure that describes registers.
 513:Generated_Source\PSoC6\pdl\drivers/peripheral/mcwdt/cy_mcwdt.h **** *
 514:Generated_Source\PSoC6\pdl\drivers/peripheral/mcwdt/cy_mcwdt.h **** *  \return
 515:Generated_Source\PSoC6\pdl\drivers/peripheral/mcwdt/cy_mcwdt.h **** *  The state of the MCWDT counter: 0 = unlocked, 1 = locked.
 516:Generated_Source\PSoC6\pdl\drivers/peripheral/mcwdt/cy_mcwdt.h **** *
 517:Generated_Source\PSoC6\pdl\drivers/peripheral/mcwdt/cy_mcwdt.h **** *******************************************************************************/
 518:Generated_Source\PSoC6\pdl\drivers/peripheral/mcwdt/cy_mcwdt.h **** __STATIC_INLINE uint32_t Cy_MCWDT_GetLockedStatus(MCWDT_STRUCT_Type const *base)
 519:Generated_Source\PSoC6\pdl\drivers/peripheral/mcwdt/cy_mcwdt.h **** {
 520:Generated_Source\PSoC6\pdl\drivers/peripheral/mcwdt/cy_mcwdt.h ****     return ((0UL != (base->MCWDT_LOCK & MCWDT_STRUCT_MCWDT_LOCK_MCWDT_LOCK_Msk)) ? 1UL : 0UL);
 521:Generated_Source\PSoC6\pdl\drivers/peripheral/mcwdt/cy_mcwdt.h **** }
 522:Generated_Source\PSoC6\pdl\drivers/peripheral/mcwdt/cy_mcwdt.h **** 
 523:Generated_Source\PSoC6\pdl\drivers/peripheral/mcwdt/cy_mcwdt.h **** 
 524:Generated_Source\PSoC6\pdl\drivers/peripheral/mcwdt/cy_mcwdt.h **** /*******************************************************************************
 525:Generated_Source\PSoC6\pdl\drivers/peripheral/mcwdt/cy_mcwdt.h **** * Function Name: Cy_MCWDT_SetMode
 526:Generated_Source\PSoC6\pdl\drivers/peripheral/mcwdt/cy_mcwdt.h **** ****************************************************************************//**
 527:Generated_Source\PSoC6\pdl\drivers/peripheral/mcwdt/cy_mcwdt.h **** *
 528:Generated_Source\PSoC6\pdl\drivers/peripheral/mcwdt/cy_mcwdt.h **** *  Sets the mode of the specified counter.
 529:Generated_Source\PSoC6\pdl\drivers/peripheral/mcwdt/cy_mcwdt.h **** *
 530:Generated_Source\PSoC6\pdl\drivers/peripheral/mcwdt/cy_mcwdt.h **** *  \param base
 531:Generated_Source\PSoC6\pdl\drivers/peripheral/mcwdt/cy_mcwdt.h **** *  The base pointer to a structure that describes registers.
 532:Generated_Source\PSoC6\pdl\drivers/peripheral/mcwdt/cy_mcwdt.h **** *
 533:Generated_Source\PSoC6\pdl\drivers/peripheral/mcwdt/cy_mcwdt.h **** *  \param counter
 534:Generated_Source\PSoC6\pdl\drivers/peripheral/mcwdt/cy_mcwdt.h **** *  The number of the WDT counter. The valid range is [0-2].
 535:Generated_Source\PSoC6\pdl\drivers/peripheral/mcwdt/cy_mcwdt.h **** *
 536:Generated_Source\PSoC6\pdl\drivers/peripheral/mcwdt/cy_mcwdt.h **** *  \param mode
 537:Generated_Source\PSoC6\pdl\drivers/peripheral/mcwdt/cy_mcwdt.h **** *  The mode of operation for the counter. See enum typedef cy_en_mcwdtmode_t.
 538:Generated_Source\PSoC6\pdl\drivers/peripheral/mcwdt/cy_mcwdt.h **** *
 539:Generated_Source\PSoC6\pdl\drivers/peripheral/mcwdt/cy_mcwdt.h **** *  \note
 540:Generated_Source\PSoC6\pdl\drivers/peripheral/mcwdt/cy_mcwdt.h **** *  The mode for Counter 2 can be set only to CY_MCWDT_MODE_NONE or CY_MCWDT_MODE_INT.
 541:Generated_Source\PSoC6\pdl\drivers/peripheral/mcwdt/cy_mcwdt.h **** *
 542:Generated_Source\PSoC6\pdl\drivers/peripheral/mcwdt/cy_mcwdt.h **** *  \note
 543:Generated_Source\PSoC6\pdl\drivers/peripheral/mcwdt/cy_mcwdt.h **** *  This API must not be called while the counters are running. 
 544:Generated_Source\PSoC6\pdl\drivers/peripheral/mcwdt/cy_mcwdt.h **** *  Prior to calling this API, the counter must be disabled.
ARM GAS  C:\Users\salaz\AppData\Local\Temp\ccvE4Xni.s 			page 14


 545:Generated_Source\PSoC6\pdl\drivers/peripheral/mcwdt/cy_mcwdt.h **** *
 546:Generated_Source\PSoC6\pdl\drivers/peripheral/mcwdt/cy_mcwdt.h **** *******************************************************************************/
 547:Generated_Source\PSoC6\pdl\drivers/peripheral/mcwdt/cy_mcwdt.h **** __STATIC_INLINE void Cy_MCWDT_SetMode(MCWDT_STRUCT_Type *base, cy_en_mcwdtctr_t counter, cy_en_mcwd
 548:Generated_Source\PSoC6\pdl\drivers/peripheral/mcwdt/cy_mcwdt.h **** {
 549:Generated_Source\PSoC6\pdl\drivers/peripheral/mcwdt/cy_mcwdt.h ****     uint32_t mask, shift;
 550:Generated_Source\PSoC6\pdl\drivers/peripheral/mcwdt/cy_mcwdt.h **** 
 551:Generated_Source\PSoC6\pdl\drivers/peripheral/mcwdt/cy_mcwdt.h ****     CY_ASSERT_L3(CY_MCWDT_IS_CNT_NUM_VALID(counter));
 552:Generated_Source\PSoC6\pdl\drivers/peripheral/mcwdt/cy_mcwdt.h ****     CY_ASSERT_L3(CY_MCWDT_IS_MODE_VALID(mode));
 553:Generated_Source\PSoC6\pdl\drivers/peripheral/mcwdt/cy_mcwdt.h **** 
 554:Generated_Source\PSoC6\pdl\drivers/peripheral/mcwdt/cy_mcwdt.h ****     shift = CY_MCWDT_BYTE_SHIFT * counter;
 555:Generated_Source\PSoC6\pdl\drivers/peripheral/mcwdt/cy_mcwdt.h ****     mask = (counter == CY_MCWDT_COUNTER2) ? CY_MCWDT_C2_MODE_MASK : CY_MCWDT_C0C1_MODE_MASK;
 556:Generated_Source\PSoC6\pdl\drivers/peripheral/mcwdt/cy_mcwdt.h ****     mask = mask << shift;
 557:Generated_Source\PSoC6\pdl\drivers/peripheral/mcwdt/cy_mcwdt.h **** 
 558:Generated_Source\PSoC6\pdl\drivers/peripheral/mcwdt/cy_mcwdt.h ****     base->MCWDT_CONFIG = (base->MCWDT_CONFIG & ~mask) | ((uint32_t) mode << shift);
 559:Generated_Source\PSoC6\pdl\drivers/peripheral/mcwdt/cy_mcwdt.h **** }
 560:Generated_Source\PSoC6\pdl\drivers/peripheral/mcwdt/cy_mcwdt.h **** 
 561:Generated_Source\PSoC6\pdl\drivers/peripheral/mcwdt/cy_mcwdt.h **** 
 562:Generated_Source\PSoC6\pdl\drivers/peripheral/mcwdt/cy_mcwdt.h **** /*******************************************************************************
 563:Generated_Source\PSoC6\pdl\drivers/peripheral/mcwdt/cy_mcwdt.h **** * Function Name: Cy_MCWDT_GetMode
 564:Generated_Source\PSoC6\pdl\drivers/peripheral/mcwdt/cy_mcwdt.h **** ****************************************************************************//**
 565:Generated_Source\PSoC6\pdl\drivers/peripheral/mcwdt/cy_mcwdt.h **** *
 566:Generated_Source\PSoC6\pdl\drivers/peripheral/mcwdt/cy_mcwdt.h **** *  Reports the mode of the  specified counter.
 567:Generated_Source\PSoC6\pdl\drivers/peripheral/mcwdt/cy_mcwdt.h **** *
 568:Generated_Source\PSoC6\pdl\drivers/peripheral/mcwdt/cy_mcwdt.h **** *  \param base
 569:Generated_Source\PSoC6\pdl\drivers/peripheral/mcwdt/cy_mcwdt.h **** *  The base pointer to a structure that describes registers.
 570:Generated_Source\PSoC6\pdl\drivers/peripheral/mcwdt/cy_mcwdt.h **** *
 571:Generated_Source\PSoC6\pdl\drivers/peripheral/mcwdt/cy_mcwdt.h **** *  \param counter
 572:Generated_Source\PSoC6\pdl\drivers/peripheral/mcwdt/cy_mcwdt.h **** *  The number of the WDT counter. The valid range is [0-2].
 573:Generated_Source\PSoC6\pdl\drivers/peripheral/mcwdt/cy_mcwdt.h **** *
 574:Generated_Source\PSoC6\pdl\drivers/peripheral/mcwdt/cy_mcwdt.h **** *  \return
 575:Generated_Source\PSoC6\pdl\drivers/peripheral/mcwdt/cy_mcwdt.h **** *  The current mode of the counter. See enum typedef cy_en_mcwdtmode_t.
 576:Generated_Source\PSoC6\pdl\drivers/peripheral/mcwdt/cy_mcwdt.h **** *
 577:Generated_Source\PSoC6\pdl\drivers/peripheral/mcwdt/cy_mcwdt.h **** *******************************************************************************/
 578:Generated_Source\PSoC6\pdl\drivers/peripheral/mcwdt/cy_mcwdt.h **** __STATIC_INLINE cy_en_mcwdtmode_t Cy_MCWDT_GetMode(MCWDT_STRUCT_Type const *base, cy_en_mcwdtctr_t 
 579:Generated_Source\PSoC6\pdl\drivers/peripheral/mcwdt/cy_mcwdt.h **** {
 580:Generated_Source\PSoC6\pdl\drivers/peripheral/mcwdt/cy_mcwdt.h ****     uint32_t mode, mask;
 581:Generated_Source\PSoC6\pdl\drivers/peripheral/mcwdt/cy_mcwdt.h **** 
 582:Generated_Source\PSoC6\pdl\drivers/peripheral/mcwdt/cy_mcwdt.h ****     CY_ASSERT_L3(CY_MCWDT_IS_CNT_NUM_VALID(counter));
 583:Generated_Source\PSoC6\pdl\drivers/peripheral/mcwdt/cy_mcwdt.h **** 
 584:Generated_Source\PSoC6\pdl\drivers/peripheral/mcwdt/cy_mcwdt.h ****     mask = (counter == CY_MCWDT_COUNTER2) ? CY_MCWDT_C2_MODE_MASK : CY_MCWDT_C0C1_MODE_MASK;
 585:Generated_Source\PSoC6\pdl\drivers/peripheral/mcwdt/cy_mcwdt.h ****     mode = (base->MCWDT_CONFIG >> (CY_MCWDT_BYTE_SHIFT * counter)) & mask;
 586:Generated_Source\PSoC6\pdl\drivers/peripheral/mcwdt/cy_mcwdt.h **** 
 587:Generated_Source\PSoC6\pdl\drivers/peripheral/mcwdt/cy_mcwdt.h ****     return ((cy_en_mcwdtmode_t) mode);
 588:Generated_Source\PSoC6\pdl\drivers/peripheral/mcwdt/cy_mcwdt.h **** }
 589:Generated_Source\PSoC6\pdl\drivers/peripheral/mcwdt/cy_mcwdt.h **** 
 590:Generated_Source\PSoC6\pdl\drivers/peripheral/mcwdt/cy_mcwdt.h **** 
 591:Generated_Source\PSoC6\pdl\drivers/peripheral/mcwdt/cy_mcwdt.h **** /*******************************************************************************
 592:Generated_Source\PSoC6\pdl\drivers/peripheral/mcwdt/cy_mcwdt.h **** * Function Name: Cy_MCWDT_SetClearOnMatch
 593:Generated_Source\PSoC6\pdl\drivers/peripheral/mcwdt/cy_mcwdt.h **** ****************************************************************************//**
 594:Generated_Source\PSoC6\pdl\drivers/peripheral/mcwdt/cy_mcwdt.h **** *
 595:Generated_Source\PSoC6\pdl\drivers/peripheral/mcwdt/cy_mcwdt.h **** *  Sets the Clear on match option for the specified counter.
 596:Generated_Source\PSoC6\pdl\drivers/peripheral/mcwdt/cy_mcwdt.h **** *
 597:Generated_Source\PSoC6\pdl\drivers/peripheral/mcwdt/cy_mcwdt.h **** *  \param base
 598:Generated_Source\PSoC6\pdl\drivers/peripheral/mcwdt/cy_mcwdt.h **** *  The base pointer to a structure that describes registers.
 599:Generated_Source\PSoC6\pdl\drivers/peripheral/mcwdt/cy_mcwdt.h **** *
 600:Generated_Source\PSoC6\pdl\drivers/peripheral/mcwdt/cy_mcwdt.h **** *  \param counter
 601:Generated_Source\PSoC6\pdl\drivers/peripheral/mcwdt/cy_mcwdt.h **** *   The number of the WDT counter. The valid range is [0-1].
ARM GAS  C:\Users\salaz\AppData\Local\Temp\ccvE4Xni.s 			page 15


 602:Generated_Source\PSoC6\pdl\drivers/peripheral/mcwdt/cy_mcwdt.h **** *
 603:Generated_Source\PSoC6\pdl\drivers/peripheral/mcwdt/cy_mcwdt.h **** *  \note
 604:Generated_Source\PSoC6\pdl\drivers/peripheral/mcwdt/cy_mcwdt.h **** *  The match values are not supported by Counter 2.
 605:Generated_Source\PSoC6\pdl\drivers/peripheral/mcwdt/cy_mcwdt.h **** *
 606:Generated_Source\PSoC6\pdl\drivers/peripheral/mcwdt/cy_mcwdt.h **** *  \param enable
 607:Generated_Source\PSoC6\pdl\drivers/peripheral/mcwdt/cy_mcwdt.h **** *  Set 0 to disable; 1 to enable.
 608:Generated_Source\PSoC6\pdl\drivers/peripheral/mcwdt/cy_mcwdt.h **** *
 609:Generated_Source\PSoC6\pdl\drivers/peripheral/mcwdt/cy_mcwdt.h **** *  \note
 610:Generated_Source\PSoC6\pdl\drivers/peripheral/mcwdt/cy_mcwdt.h **** *  This API must not be called while the counters are running. 
 611:Generated_Source\PSoC6\pdl\drivers/peripheral/mcwdt/cy_mcwdt.h **** *  Prior to calling this API, the counter must be disabled.
 612:Generated_Source\PSoC6\pdl\drivers/peripheral/mcwdt/cy_mcwdt.h **** *
 613:Generated_Source\PSoC6\pdl\drivers/peripheral/mcwdt/cy_mcwdt.h **** *******************************************************************************/
 614:Generated_Source\PSoC6\pdl\drivers/peripheral/mcwdt/cy_mcwdt.h **** __STATIC_INLINE void Cy_MCWDT_SetClearOnMatch(MCWDT_STRUCT_Type *base, cy_en_mcwdtctr_t counter, ui
 615:Generated_Source\PSoC6\pdl\drivers/peripheral/mcwdt/cy_mcwdt.h **** {
 616:Generated_Source\PSoC6\pdl\drivers/peripheral/mcwdt/cy_mcwdt.h ****     CY_ASSERT_L3(CY_MCWDT_IS_CNT_NUM_VALID(counter));
 617:Generated_Source\PSoC6\pdl\drivers/peripheral/mcwdt/cy_mcwdt.h ****     CY_ASSERT_L2(CY_MCWDT_IS_ENABLE_VALID(enable));
 618:Generated_Source\PSoC6\pdl\drivers/peripheral/mcwdt/cy_mcwdt.h **** 
 619:Generated_Source\PSoC6\pdl\drivers/peripheral/mcwdt/cy_mcwdt.h ****     if (CY_MCWDT_COUNTER0 == counter)
 620:Generated_Source\PSoC6\pdl\drivers/peripheral/mcwdt/cy_mcwdt.h ****     {
 621:Generated_Source\PSoC6\pdl\drivers/peripheral/mcwdt/cy_mcwdt.h ****         base->MCWDT_CONFIG = _CLR_SET_FLD32U(base->MCWDT_CONFIG, MCWDT_STRUCT_MCWDT_CONFIG_WDT_CLEA
 622:Generated_Source\PSoC6\pdl\drivers/peripheral/mcwdt/cy_mcwdt.h ****     }
 623:Generated_Source\PSoC6\pdl\drivers/peripheral/mcwdt/cy_mcwdt.h ****     else
 624:Generated_Source\PSoC6\pdl\drivers/peripheral/mcwdt/cy_mcwdt.h ****     {
 625:Generated_Source\PSoC6\pdl\drivers/peripheral/mcwdt/cy_mcwdt.h ****         base->MCWDT_CONFIG = _CLR_SET_FLD32U(base->MCWDT_CONFIG, MCWDT_STRUCT_MCWDT_CONFIG_WDT_CLEA
 626:Generated_Source\PSoC6\pdl\drivers/peripheral/mcwdt/cy_mcwdt.h ****     }
 627:Generated_Source\PSoC6\pdl\drivers/peripheral/mcwdt/cy_mcwdt.h **** }
 628:Generated_Source\PSoC6\pdl\drivers/peripheral/mcwdt/cy_mcwdt.h **** 
 629:Generated_Source\PSoC6\pdl\drivers/peripheral/mcwdt/cy_mcwdt.h **** 
 630:Generated_Source\PSoC6\pdl\drivers/peripheral/mcwdt/cy_mcwdt.h **** /*******************************************************************************
 631:Generated_Source\PSoC6\pdl\drivers/peripheral/mcwdt/cy_mcwdt.h **** * Function Name: Cy_MCWDT_GetClearOnMatch
 632:Generated_Source\PSoC6\pdl\drivers/peripheral/mcwdt/cy_mcwdt.h **** ****************************************************************************//**
 633:Generated_Source\PSoC6\pdl\drivers/peripheral/mcwdt/cy_mcwdt.h **** *
 634:Generated_Source\PSoC6\pdl\drivers/peripheral/mcwdt/cy_mcwdt.h **** *  Reports the Clear on match setting for the specified counter.
 635:Generated_Source\PSoC6\pdl\drivers/peripheral/mcwdt/cy_mcwdt.h **** *
 636:Generated_Source\PSoC6\pdl\drivers/peripheral/mcwdt/cy_mcwdt.h **** *  \param base
 637:Generated_Source\PSoC6\pdl\drivers/peripheral/mcwdt/cy_mcwdt.h **** *  The base pointer to a structure that describes registers.
 638:Generated_Source\PSoC6\pdl\drivers/peripheral/mcwdt/cy_mcwdt.h **** *
 639:Generated_Source\PSoC6\pdl\drivers/peripheral/mcwdt/cy_mcwdt.h **** *  \param counter
 640:Generated_Source\PSoC6\pdl\drivers/peripheral/mcwdt/cy_mcwdt.h **** *  The number of the WDT counter. The valid range is [0-1].
 641:Generated_Source\PSoC6\pdl\drivers/peripheral/mcwdt/cy_mcwdt.h **** *
 642:Generated_Source\PSoC6\pdl\drivers/peripheral/mcwdt/cy_mcwdt.h **** *  \return
 643:Generated_Source\PSoC6\pdl\drivers/peripheral/mcwdt/cy_mcwdt.h **** *  The Clear on match status: 1 = enabled, 0 = disabled.
 644:Generated_Source\PSoC6\pdl\drivers/peripheral/mcwdt/cy_mcwdt.h **** *
 645:Generated_Source\PSoC6\pdl\drivers/peripheral/mcwdt/cy_mcwdt.h **** *  \note
 646:Generated_Source\PSoC6\pdl\drivers/peripheral/mcwdt/cy_mcwdt.h **** *  The match value is not supported by Counter 2.
 647:Generated_Source\PSoC6\pdl\drivers/peripheral/mcwdt/cy_mcwdt.h **** *
 648:Generated_Source\PSoC6\pdl\drivers/peripheral/mcwdt/cy_mcwdt.h **** *******************************************************************************/
 649:Generated_Source\PSoC6\pdl\drivers/peripheral/mcwdt/cy_mcwdt.h **** __STATIC_INLINE uint32_t Cy_MCWDT_GetClearOnMatch(MCWDT_STRUCT_Type const *base, cy_en_mcwdtctr_t c
 650:Generated_Source\PSoC6\pdl\drivers/peripheral/mcwdt/cy_mcwdt.h **** {
 651:Generated_Source\PSoC6\pdl\drivers/peripheral/mcwdt/cy_mcwdt.h ****     uint32_t getClear;
 652:Generated_Source\PSoC6\pdl\drivers/peripheral/mcwdt/cy_mcwdt.h **** 
 653:Generated_Source\PSoC6\pdl\drivers/peripheral/mcwdt/cy_mcwdt.h ****     CY_ASSERT_L3(CY_MCWDT_IS_CNT_NUM_VALID(counter));
 654:Generated_Source\PSoC6\pdl\drivers/peripheral/mcwdt/cy_mcwdt.h **** 
 655:Generated_Source\PSoC6\pdl\drivers/peripheral/mcwdt/cy_mcwdt.h ****     if (CY_MCWDT_COUNTER0 == counter)
 656:Generated_Source\PSoC6\pdl\drivers/peripheral/mcwdt/cy_mcwdt.h ****     {
 657:Generated_Source\PSoC6\pdl\drivers/peripheral/mcwdt/cy_mcwdt.h ****         getClear = _FLD2VAL(MCWDT_STRUCT_MCWDT_CONFIG_WDT_CLEAR0, base->MCWDT_CONFIG);
 658:Generated_Source\PSoC6\pdl\drivers/peripheral/mcwdt/cy_mcwdt.h ****     }
ARM GAS  C:\Users\salaz\AppData\Local\Temp\ccvE4Xni.s 			page 16


 659:Generated_Source\PSoC6\pdl\drivers/peripheral/mcwdt/cy_mcwdt.h ****     else
 660:Generated_Source\PSoC6\pdl\drivers/peripheral/mcwdt/cy_mcwdt.h ****     {
 661:Generated_Source\PSoC6\pdl\drivers/peripheral/mcwdt/cy_mcwdt.h ****         getClear = _FLD2VAL(MCWDT_STRUCT_MCWDT_CONFIG_WDT_CLEAR1, base->MCWDT_CONFIG);
 662:Generated_Source\PSoC6\pdl\drivers/peripheral/mcwdt/cy_mcwdt.h ****     }
 663:Generated_Source\PSoC6\pdl\drivers/peripheral/mcwdt/cy_mcwdt.h **** 
 664:Generated_Source\PSoC6\pdl\drivers/peripheral/mcwdt/cy_mcwdt.h ****     return (getClear);
 665:Generated_Source\PSoC6\pdl\drivers/peripheral/mcwdt/cy_mcwdt.h **** }
 666:Generated_Source\PSoC6\pdl\drivers/peripheral/mcwdt/cy_mcwdt.h **** 
 667:Generated_Source\PSoC6\pdl\drivers/peripheral/mcwdt/cy_mcwdt.h **** 
 668:Generated_Source\PSoC6\pdl\drivers/peripheral/mcwdt/cy_mcwdt.h **** /*******************************************************************************
 669:Generated_Source\PSoC6\pdl\drivers/peripheral/mcwdt/cy_mcwdt.h **** * Function Name: Cy_MCWDT_SetCascade
 670:Generated_Source\PSoC6\pdl\drivers/peripheral/mcwdt/cy_mcwdt.h **** ****************************************************************************//**
 671:Generated_Source\PSoC6\pdl\drivers/peripheral/mcwdt/cy_mcwdt.h **** *
 672:Generated_Source\PSoC6\pdl\drivers/peripheral/mcwdt/cy_mcwdt.h **** *  Sets all the counter cascade options.
 673:Generated_Source\PSoC6\pdl\drivers/peripheral/mcwdt/cy_mcwdt.h **** *
 674:Generated_Source\PSoC6\pdl\drivers/peripheral/mcwdt/cy_mcwdt.h **** *  \param base
 675:Generated_Source\PSoC6\pdl\drivers/peripheral/mcwdt/cy_mcwdt.h **** *  The base pointer to a structure that describes registers.
 676:Generated_Source\PSoC6\pdl\drivers/peripheral/mcwdt/cy_mcwdt.h **** *
 677:Generated_Source\PSoC6\pdl\drivers/peripheral/mcwdt/cy_mcwdt.h **** *  \param cascade
 678:Generated_Source\PSoC6\pdl\drivers/peripheral/mcwdt/cy_mcwdt.h **** *  Sets or clears each of the cascade options.
 679:Generated_Source\PSoC6\pdl\drivers/peripheral/mcwdt/cy_mcwdt.h **** *
 680:Generated_Source\PSoC6\pdl\drivers/peripheral/mcwdt/cy_mcwdt.h **** *  \note
 681:Generated_Source\PSoC6\pdl\drivers/peripheral/mcwdt/cy_mcwdt.h **** *  This API must not be called when the counters are running. 
 682:Generated_Source\PSoC6\pdl\drivers/peripheral/mcwdt/cy_mcwdt.h **** *  Prior to calling this API, the counter must be disabled.
 683:Generated_Source\PSoC6\pdl\drivers/peripheral/mcwdt/cy_mcwdt.h **** *
 684:Generated_Source\PSoC6\pdl\drivers/peripheral/mcwdt/cy_mcwdt.h **** *******************************************************************************/
 685:Generated_Source\PSoC6\pdl\drivers/peripheral/mcwdt/cy_mcwdt.h **** __STATIC_INLINE void Cy_MCWDT_SetCascade(MCWDT_STRUCT_Type *base, cy_en_mcwdtcascade_t cascade)
 686:Generated_Source\PSoC6\pdl\drivers/peripheral/mcwdt/cy_mcwdt.h **** {
 687:Generated_Source\PSoC6\pdl\drivers/peripheral/mcwdt/cy_mcwdt.h ****     CY_ASSERT_L3(CY_MCWDT_IS_CASCADE_VALID(cascade));
 688:Generated_Source\PSoC6\pdl\drivers/peripheral/mcwdt/cy_mcwdt.h ****     
 689:Generated_Source\PSoC6\pdl\drivers/peripheral/mcwdt/cy_mcwdt.h ****     base->MCWDT_CONFIG = _CLR_SET_FLD32U(base->MCWDT_CONFIG, MCWDT_STRUCT_MCWDT_CONFIG_WDT_CASCADE0
 690:Generated_Source\PSoC6\pdl\drivers/peripheral/mcwdt/cy_mcwdt.h ****                                              (uint32_t) cascade);
 691:Generated_Source\PSoC6\pdl\drivers/peripheral/mcwdt/cy_mcwdt.h ****     base->MCWDT_CONFIG = _CLR_SET_FLD32U(base->MCWDT_CONFIG, MCWDT_STRUCT_MCWDT_CONFIG_WDT_CASCADE1
 692:Generated_Source\PSoC6\pdl\drivers/peripheral/mcwdt/cy_mcwdt.h ****                                              ((uint32_t) cascade >> 1u));
 693:Generated_Source\PSoC6\pdl\drivers/peripheral/mcwdt/cy_mcwdt.h **** }
 694:Generated_Source\PSoC6\pdl\drivers/peripheral/mcwdt/cy_mcwdt.h **** 
 695:Generated_Source\PSoC6\pdl\drivers/peripheral/mcwdt/cy_mcwdt.h **** 
 696:Generated_Source\PSoC6\pdl\drivers/peripheral/mcwdt/cy_mcwdt.h **** /*******************************************************************************
 697:Generated_Source\PSoC6\pdl\drivers/peripheral/mcwdt/cy_mcwdt.h **** * Function Name: Cy_MCWDT_GetCascade
 698:Generated_Source\PSoC6\pdl\drivers/peripheral/mcwdt/cy_mcwdt.h **** ****************************************************************************//**
 699:Generated_Source\PSoC6\pdl\drivers/peripheral/mcwdt/cy_mcwdt.h **** *
 700:Generated_Source\PSoC6\pdl\drivers/peripheral/mcwdt/cy_mcwdt.h **** *  Reports all the counter cascade option settings.
 701:Generated_Source\PSoC6\pdl\drivers/peripheral/mcwdt/cy_mcwdt.h **** *
 702:Generated_Source\PSoC6\pdl\drivers/peripheral/mcwdt/cy_mcwdt.h **** *  \param base
 703:Generated_Source\PSoC6\pdl\drivers/peripheral/mcwdt/cy_mcwdt.h **** *  The base pointer to a structure that describes registers.
 704:Generated_Source\PSoC6\pdl\drivers/peripheral/mcwdt/cy_mcwdt.h **** *
 705:Generated_Source\PSoC6\pdl\drivers/peripheral/mcwdt/cy_mcwdt.h **** *  \return
 706:Generated_Source\PSoC6\pdl\drivers/peripheral/mcwdt/cy_mcwdt.h **** *  The current cascade option values.
 707:Generated_Source\PSoC6\pdl\drivers/peripheral/mcwdt/cy_mcwdt.h **** *
 708:Generated_Source\PSoC6\pdl\drivers/peripheral/mcwdt/cy_mcwdt.h **** *******************************************************************************/
 709:Generated_Source\PSoC6\pdl\drivers/peripheral/mcwdt/cy_mcwdt.h **** __STATIC_INLINE cy_en_mcwdtcascade_t Cy_MCWDT_GetCascade(MCWDT_STRUCT_Type const *base)
 710:Generated_Source\PSoC6\pdl\drivers/peripheral/mcwdt/cy_mcwdt.h **** {
 711:Generated_Source\PSoC6\pdl\drivers/peripheral/mcwdt/cy_mcwdt.h ****     uint32_t cascade;
 712:Generated_Source\PSoC6\pdl\drivers/peripheral/mcwdt/cy_mcwdt.h **** 
 713:Generated_Source\PSoC6\pdl\drivers/peripheral/mcwdt/cy_mcwdt.h ****     cascade = (_FLD2VAL(MCWDT_STRUCT_MCWDT_CONFIG_WDT_CASCADE1_2, base->MCWDT_CONFIG) << 1u) |
 714:Generated_Source\PSoC6\pdl\drivers/peripheral/mcwdt/cy_mcwdt.h ****                _FLD2VAL(MCWDT_STRUCT_MCWDT_CONFIG_WDT_CASCADE0_1, base->MCWDT_CONFIG);
 715:Generated_Source\PSoC6\pdl\drivers/peripheral/mcwdt/cy_mcwdt.h **** 
ARM GAS  C:\Users\salaz\AppData\Local\Temp\ccvE4Xni.s 			page 17


 716:Generated_Source\PSoC6\pdl\drivers/peripheral/mcwdt/cy_mcwdt.h ****     return ((cy_en_mcwdtcascade_t) cascade);
 717:Generated_Source\PSoC6\pdl\drivers/peripheral/mcwdt/cy_mcwdt.h **** }
 718:Generated_Source\PSoC6\pdl\drivers/peripheral/mcwdt/cy_mcwdt.h **** 
 719:Generated_Source\PSoC6\pdl\drivers/peripheral/mcwdt/cy_mcwdt.h **** 
 720:Generated_Source\PSoC6\pdl\drivers/peripheral/mcwdt/cy_mcwdt.h **** /*******************************************************************************
 721:Generated_Source\PSoC6\pdl\drivers/peripheral/mcwdt/cy_mcwdt.h **** * Function Name: Cy_MCWDT_SetMatch
 722:Generated_Source\PSoC6\pdl\drivers/peripheral/mcwdt/cy_mcwdt.h **** ****************************************************************************//**
 723:Generated_Source\PSoC6\pdl\drivers/peripheral/mcwdt/cy_mcwdt.h **** *
 724:Generated_Source\PSoC6\pdl\drivers/peripheral/mcwdt/cy_mcwdt.h **** *  Sets the match comparison value for the specified counter (0 or 1).
 725:Generated_Source\PSoC6\pdl\drivers/peripheral/mcwdt/cy_mcwdt.h **** *
 726:Generated_Source\PSoC6\pdl\drivers/peripheral/mcwdt/cy_mcwdt.h **** *  \param base
 727:Generated_Source\PSoC6\pdl\drivers/peripheral/mcwdt/cy_mcwdt.h **** *  The base pointer to a structure that describes registers.
 728:Generated_Source\PSoC6\pdl\drivers/peripheral/mcwdt/cy_mcwdt.h **** *
 729:Generated_Source\PSoC6\pdl\drivers/peripheral/mcwdt/cy_mcwdt.h **** *  \param counter
 730:Generated_Source\PSoC6\pdl\drivers/peripheral/mcwdt/cy_mcwdt.h **** *   The number of the WDT counter. The valid range is [0-1].
 731:Generated_Source\PSoC6\pdl\drivers/peripheral/mcwdt/cy_mcwdt.h **** *
 732:Generated_Source\PSoC6\pdl\drivers/peripheral/mcwdt/cy_mcwdt.h **** *  \param match
 733:Generated_Source\PSoC6\pdl\drivers/peripheral/mcwdt/cy_mcwdt.h **** *  The value to match against the counter. 
 734:Generated_Source\PSoC6\pdl\drivers/peripheral/mcwdt/cy_mcwdt.h **** *  The valid range is [0-65535] for c0ClearOnMatch (or c1ClearOnMatch) = 0 
 735:Generated_Source\PSoC6\pdl\drivers/peripheral/mcwdt/cy_mcwdt.h **** *  and [1-65535] for c0ClearOnMatch (or c1ClearOnMatch) = 1.
 736:Generated_Source\PSoC6\pdl\drivers/peripheral/mcwdt/cy_mcwdt.h **** *
 737:Generated_Source\PSoC6\pdl\drivers/peripheral/mcwdt/cy_mcwdt.h **** *  \note
 738:Generated_Source\PSoC6\pdl\drivers/peripheral/mcwdt/cy_mcwdt.h **** *  The match value is not supported by Counter 2.
 739:Generated_Source\PSoC6\pdl\drivers/peripheral/mcwdt/cy_mcwdt.h **** *
 740:Generated_Source\PSoC6\pdl\drivers/peripheral/mcwdt/cy_mcwdt.h **** *  \note
 741:Generated_Source\PSoC6\pdl\drivers/peripheral/mcwdt/cy_mcwdt.h **** *  Action on match is taken on the next increment after the counter value 
 742:Generated_Source\PSoC6\pdl\drivers/peripheral/mcwdt/cy_mcwdt.h **** *  equal to match value.
 743:Generated_Source\PSoC6\pdl\drivers/peripheral/mcwdt/cy_mcwdt.h **** *
 744:Generated_Source\PSoC6\pdl\drivers/peripheral/mcwdt/cy_mcwdt.h **** *  \param waitUs
 745:Generated_Source\PSoC6\pdl\drivers/peripheral/mcwdt/cy_mcwdt.h **** *  The function waits for some delay in microseconds before returning, 
 746:Generated_Source\PSoC6\pdl\drivers/peripheral/mcwdt/cy_mcwdt.h **** *  because the match affects after two lf_clk cycles pass. The recommended 
 747:Generated_Source\PSoC6\pdl\drivers/peripheral/mcwdt/cy_mcwdt.h **** *  value is 93 us.
 748:Generated_Source\PSoC6\pdl\drivers/peripheral/mcwdt/cy_mcwdt.h **** *  \note
 749:Generated_Source\PSoC6\pdl\drivers/peripheral/mcwdt/cy_mcwdt.h **** *  Setting this parameter to a zero means No wait. This must be taken
 750:Generated_Source\PSoC6\pdl\drivers/peripheral/mcwdt/cy_mcwdt.h **** *  into account when changing the match values on the running counters.
 751:Generated_Source\PSoC6\pdl\drivers/peripheral/mcwdt/cy_mcwdt.h **** *
 752:Generated_Source\PSoC6\pdl\drivers/peripheral/mcwdt/cy_mcwdt.h **** *******************************************************************************/
 753:Generated_Source\PSoC6\pdl\drivers/peripheral/mcwdt/cy_mcwdt.h **** __STATIC_INLINE void Cy_MCWDT_SetMatch(MCWDT_STRUCT_Type *base, cy_en_mcwdtctr_t counter, uint32_t 
 754:Generated_Source\PSoC6\pdl\drivers/peripheral/mcwdt/cy_mcwdt.h **** {
 755:Generated_Source\PSoC6\pdl\drivers/peripheral/mcwdt/cy_mcwdt.h ****     CY_ASSERT_L3(CY_MCWDT_IS_CNT_NUM_VALID(counter));
 756:Generated_Source\PSoC6\pdl\drivers/peripheral/mcwdt/cy_mcwdt.h ****     CY_ASSERT_L2(CY_MCWDT_IS_MATCH_VALID((CY_MCWDT_COUNTER0 == counter) ?  
 141              		.loc 2 756 0
 142 0084 434B     		ldr	r3, .L18+12
 143 0086 1B69     		ldr	r3, [r3, #16]
 144 0088 0422     		movs	r2, #4
 145 008a 1340     		ands	r3, r2
 146 008c 5A1E     		subs	r2, r3, #1
 147 008e 9341     		sbcs	r3, r3, r2
 148 0090 DBB2     		uxtb	r3, r3
 149 0092 002B     		cmp	r3, #0
 150 0094 02D0     		beq	.L8
 151 0096 7342     		rsbs	r3, r6, #0
 152 0098 7341     		adcs	r3, r3, r6
 153 009a DBB2     		uxtb	r3, r3
 154              	.L8:
 155 009c 002B     		cmp	r3, #0
 156 009e 03D0     		beq	.L9
ARM GAS  C:\Users\salaz\AppData\Local\Temp\ccvE4Xni.s 			page 18


 157 00a0 3D49     		ldr	r1, .L18+16
 158 00a2 3E48     		ldr	r0, .L18+20
 159              	.LVL11:
 160 00a4 FFF7FEFF 		bl	Cy_SysLib_AssertFailed
 161              	.LVL12:
 162              	.L9:
 757:Generated_Source\PSoC6\pdl\drivers/peripheral/mcwdt/cy_mcwdt.h ****                                          ((base->MCWDT_CONFIG & MCWDT_STRUCT_MCWDT_CONFIG_WDT_CLEAR
 758:Generated_Source\PSoC6\pdl\drivers/peripheral/mcwdt/cy_mcwdt.h ****                                          ((base->MCWDT_CONFIG & MCWDT_STRUCT_MCWDT_CONFIG_WDT_CLEAR
 759:Generated_Source\PSoC6\pdl\drivers/peripheral/mcwdt/cy_mcwdt.h ****                                           match));
 760:Generated_Source\PSoC6\pdl\drivers/peripheral/mcwdt/cy_mcwdt.h **** 
 761:Generated_Source\PSoC6\pdl\drivers/peripheral/mcwdt/cy_mcwdt.h ****     base->MCWDT_MATCH = (counter == CY_MCWDT_COUNTER0) ?
 762:Generated_Source\PSoC6\pdl\drivers/peripheral/mcwdt/cy_mcwdt.h ****         _CLR_SET_FLD32U(base->MCWDT_MATCH, MCWDT_STRUCT_MCWDT_MATCH_WDT_MATCH0,
 163              		.loc 2 762 0
 164 00a8 3A4C     		ldr	r4, .L18+12
 165              	.LVL13:
 166 00aa E368     		ldr	r3, [r4, #12]
 167 00ac 1B0C     		lsrs	r3, r3, #16
 168 00ae 1B04     		lsls	r3, r3, #16
 169 00b0 3604     		lsls	r6, r6, #16
 170              	.LVL14:
 171 00b2 360C     		lsrs	r6, r6, #16
 763:Generated_Source\PSoC6\pdl\drivers/peripheral/mcwdt/cy_mcwdt.h ****                         (match & MCWDT_STRUCT_MCWDT_MATCH_WDT_MATCH0_Msk)) :
 172              		.loc 2 763 0
 173 00b4 1E43     		orrs	r6, r3
 761:Generated_Source\PSoC6\pdl\drivers/peripheral/mcwdt/cy_mcwdt.h ****         _CLR_SET_FLD32U(base->MCWDT_MATCH, MCWDT_STRUCT_MCWDT_MATCH_WDT_MATCH0,
 174              		.loc 2 761 0
 175 00b6 E660     		str	r6, [r4, #12]
 764:Generated_Source\PSoC6\pdl\drivers/peripheral/mcwdt/cy_mcwdt.h ****         _CLR_SET_FLD32U(base->MCWDT_MATCH, MCWDT_STRUCT_MCWDT_MATCH_WDT_MATCH1,
 765:Generated_Source\PSoC6\pdl\drivers/peripheral/mcwdt/cy_mcwdt.h ****                         (match & MCWDT_STRUCT_MCWDT_MATCH_WDT_MATCH0_Msk));
 766:Generated_Source\PSoC6\pdl\drivers/peripheral/mcwdt/cy_mcwdt.h **** 
 767:Generated_Source\PSoC6\pdl\drivers/peripheral/mcwdt/cy_mcwdt.h ****     Cy_SysLib_DelayUs(waitUs);
 176              		.loc 2 767 0
 177 00b8 3E20     		movs	r0, #62
 178 00ba FFF7FEFF 		bl	Cy_SysLib_DelayUs
 179              	.LVL15:
 180              	.LBE57:
 181              	.LBE56:
 182              	.LBB58:
 183              	.LBB59:
 756:Generated_Source\PSoC6\pdl\drivers/peripheral/mcwdt/cy_mcwdt.h ****                                          ((base->MCWDT_CONFIG & MCWDT_STRUCT_MCWDT_CONFIG_WDT_CLEAR
 184              		.loc 2 756 0
 185 00be 2369     		ldr	r3, [r4, #16]
 186 00c0 5B05     		lsls	r3, r3, #21
 187 00c2 03D5     		bpl	.L10
 188 00c4 3449     		ldr	r1, .L18+16
 189 00c6 3548     		ldr	r0, .L18+20
 190 00c8 FFF7FEFF 		bl	Cy_SysLib_AssertFailed
 191              	.LVL16:
 192              	.L10:
 764:Generated_Source\PSoC6\pdl\drivers/peripheral/mcwdt/cy_mcwdt.h ****         _CLR_SET_FLD32U(base->MCWDT_MATCH, MCWDT_STRUCT_MCWDT_MATCH_WDT_MATCH1,
 193              		.loc 2 764 0
 194 00cc 314A     		ldr	r2, .L18+12
 195 00ce D368     		ldr	r3, [r2, #12]
 196 00d0 1B04     		lsls	r3, r3, #16
 197 00d2 1B0C     		lsrs	r3, r3, #16
 761:Generated_Source\PSoC6\pdl\drivers/peripheral/mcwdt/cy_mcwdt.h ****         _CLR_SET_FLD32U(base->MCWDT_MATCH, MCWDT_STRUCT_MCWDT_MATCH_WDT_MATCH0,
 198              		.loc 2 761 0
ARM GAS  C:\Users\salaz\AppData\Local\Temp\ccvE4Xni.s 			page 19


 199 00d4 D360     		str	r3, [r2, #12]
 200              		.loc 2 767 0
 201 00d6 3E20     		movs	r0, #62
 202 00d8 FFF7FEFF 		bl	Cy_SysLib_DelayUs
 203              	.LVL17:
 204 00dc 30E0     		b	.L11
 205              	.LVL18:
 206              	.L7:
 207              	.LBE59:
 208              	.LBE58:
 209              	.LBB60:
 210              	.LBB61:
 756:Generated_Source\PSoC6\pdl\drivers/peripheral/mcwdt/cy_mcwdt.h ****                                          ((base->MCWDT_CONFIG & MCWDT_STRUCT_MCWDT_CONFIG_WDT_CLEAR
 211              		.loc 2 756 0
 212 00de 2D4E     		ldr	r6, .L18+12
 213 00e0 3369     		ldr	r3, [r6, #16]
 762:Generated_Source\PSoC6\pdl\drivers/peripheral/mcwdt/cy_mcwdt.h ****                         (match & MCWDT_STRUCT_MCWDT_MATCH_WDT_MATCH0_Msk)) :
 214              		.loc 2 762 0
 215 00e2 F368     		ldr	r3, [r6, #12]
 216 00e4 1B0C     		lsrs	r3, r3, #16
 217 00e6 1B04     		lsls	r3, r3, #16
 763:Generated_Source\PSoC6\pdl\drivers/peripheral/mcwdt/cy_mcwdt.h ****         _CLR_SET_FLD32U(base->MCWDT_MATCH, MCWDT_STRUCT_MCWDT_MATCH_WDT_MATCH1,
 218              		.loc 2 763 0
 219 00e8 2D4F     		ldr	r7, .L18+24
 220 00ea 3B43     		orrs	r3, r7
 761:Generated_Source\PSoC6\pdl\drivers/peripheral/mcwdt/cy_mcwdt.h ****         _CLR_SET_FLD32U(base->MCWDT_MATCH, MCWDT_STRUCT_MCWDT_MATCH_WDT_MATCH0,
 221              		.loc 2 761 0
 222 00ec F360     		str	r3, [r6, #12]
 223              		.loc 2 767 0
 224 00ee 3E20     		movs	r0, #62
 225              	.LVL19:
 226 00f0 FFF7FEFF 		bl	Cy_SysLib_DelayUs
 227              	.LVL20:
 228              	.LBE61:
 229              	.LBE60:
  54:TimingMaster.c ****     {
  55:TimingMaster.c ****         Cy_MCWDT_SetMatch(MCWDT_HW, CY_MCWDT_COUNTER0, timers[shortest_expiration_id].remaining, MC
  56:TimingMaster.c ****         Cy_MCWDT_SetMatch(MCWDT_HW, CY_MCWDT_COUNTER1, 0, MCWDT_TWO_LF_CLK_CYCLES_DELAY);
  57:TimingMaster.c ****     }
  58:TimingMaster.c ****     else
  59:TimingMaster.c ****     {
  60:TimingMaster.c ****         Cy_MCWDT_SetMatch(MCWDT_HW, CY_MCWDT_COUNTER0, 65535, MCWDT_TWO_LF_CLK_CYCLES_DELAY);
  61:TimingMaster.c ****         Cy_MCWDT_SetMatch(MCWDT_HW, CY_MCWDT_COUNTER1, (timers[shortest_expiration_id].remaining / 
 230              		.loc 1 61 0
 231 00f4 6300     		lsls	r3, r4, #1
 232 00f6 1C19     		adds	r4, r3, r4
 233              	.LVL21:
 234 00f8 A300     		lsls	r3, r4, #2
 235 00fa 234A     		ldr	r2, .L18
 236 00fc D318     		adds	r3, r2, r3
 237 00fe 9868     		ldr	r0, [r3, #8]
 238 0100 3900     		movs	r1, r7
 239 0102 FFF7FEFF 		bl	__aeabi_uidiv
 240              	.LVL22:
 241 0106 441E     		subs	r4, r0, #1
 242              	.LVL23:
 243              	.LBB62:
ARM GAS  C:\Users\salaz\AppData\Local\Temp\ccvE4Xni.s 			page 20


 244              	.LBB63:
 756:Generated_Source\PSoC6\pdl\drivers/peripheral/mcwdt/cy_mcwdt.h ****                                          ((base->MCWDT_CONFIG & MCWDT_STRUCT_MCWDT_CONFIG_WDT_CLEAR
 245              		.loc 2 756 0
 246 0108 3269     		ldr	r2, [r6, #16]
 247 010a 8023     		movs	r3, #128
 248 010c DB00     		lsls	r3, r3, #3
 249 010e 1340     		ands	r3, r2
 250 0110 5A1E     		subs	r2, r3, #1
 251 0112 9341     		sbcs	r3, r3, r2
 252 0114 DBB2     		uxtb	r3, r3
 253 0116 002B     		cmp	r3, #0
 254 0118 02D0     		beq	.L12
 255 011a 6342     		rsbs	r3, r4, #0
 256 011c 6341     		adcs	r3, r3, r4
 257 011e DBB2     		uxtb	r3, r3
 258              	.L12:
 259 0120 002B     		cmp	r3, #0
 260 0122 03D0     		beq	.L13
 261 0124 1C49     		ldr	r1, .L18+16
 262 0126 1D48     		ldr	r0, .L18+20
 263 0128 FFF7FEFF 		bl	Cy_SysLib_AssertFailed
 264              	.LVL24:
 265              	.L13:
 764:Generated_Source\PSoC6\pdl\drivers/peripheral/mcwdt/cy_mcwdt.h ****                         (match & MCWDT_STRUCT_MCWDT_MATCH_WDT_MATCH0_Msk));
 266              		.loc 2 764 0
 267 012c 194B     		ldr	r3, .L18+12
 268 012e D868     		ldr	r0, [r3, #12]
 269 0130 0004     		lsls	r0, r0, #16
 270 0132 000C     		lsrs	r0, r0, #16
 271 0134 2404     		lsls	r4, r4, #16
 272              	.LVL25:
 763:Generated_Source\PSoC6\pdl\drivers/peripheral/mcwdt/cy_mcwdt.h ****         _CLR_SET_FLD32U(base->MCWDT_MATCH, MCWDT_STRUCT_MCWDT_MATCH_WDT_MATCH1,
 273              		.loc 2 763 0
 274 0136 0443     		orrs	r4, r0
 761:Generated_Source\PSoC6\pdl\drivers/peripheral/mcwdt/cy_mcwdt.h ****         _CLR_SET_FLD32U(base->MCWDT_MATCH, MCWDT_STRUCT_MCWDT_MATCH_WDT_MATCH0,
 275              		.loc 2 761 0
 276 0138 DC60     		str	r4, [r3, #12]
 277              		.loc 2 767 0
 278 013a 3E20     		movs	r0, #62
 279 013c FFF7FEFF 		bl	Cy_SysLib_DelayUs
 280              	.LVL26:
 281              	.L11:
 282              	.LBE63:
 283              	.LBE62:
 284              	.LBB64:
 285              	.LBB65:
 768:Generated_Source\PSoC6\pdl\drivers/peripheral/mcwdt/cy_mcwdt.h **** }
 769:Generated_Source\PSoC6\pdl\drivers/peripheral/mcwdt/cy_mcwdt.h **** 
 770:Generated_Source\PSoC6\pdl\drivers/peripheral/mcwdt/cy_mcwdt.h **** 
 771:Generated_Source\PSoC6\pdl\drivers/peripheral/mcwdt/cy_mcwdt.h **** /*******************************************************************************
 772:Generated_Source\PSoC6\pdl\drivers/peripheral/mcwdt/cy_mcwdt.h **** * Function Name: Cy_MCWDT_GetMatch
 773:Generated_Source\PSoC6\pdl\drivers/peripheral/mcwdt/cy_mcwdt.h **** ****************************************************************************//**
 774:Generated_Source\PSoC6\pdl\drivers/peripheral/mcwdt/cy_mcwdt.h **** *
 775:Generated_Source\PSoC6\pdl\drivers/peripheral/mcwdt/cy_mcwdt.h **** *  Reports the match comparison value for the specified counter (0 or 1).
 776:Generated_Source\PSoC6\pdl\drivers/peripheral/mcwdt/cy_mcwdt.h **** *
 777:Generated_Source\PSoC6\pdl\drivers/peripheral/mcwdt/cy_mcwdt.h **** *  \param base
 778:Generated_Source\PSoC6\pdl\drivers/peripheral/mcwdt/cy_mcwdt.h **** *  The base pointer to a structure that describes registers.
ARM GAS  C:\Users\salaz\AppData\Local\Temp\ccvE4Xni.s 			page 21


 779:Generated_Source\PSoC6\pdl\drivers/peripheral/mcwdt/cy_mcwdt.h **** *
 780:Generated_Source\PSoC6\pdl\drivers/peripheral/mcwdt/cy_mcwdt.h **** *  \param counter
 781:Generated_Source\PSoC6\pdl\drivers/peripheral/mcwdt/cy_mcwdt.h **** *  The number of the WDT counter. The valid range is [0-1].
 782:Generated_Source\PSoC6\pdl\drivers/peripheral/mcwdt/cy_mcwdt.h **** *
 783:Generated_Source\PSoC6\pdl\drivers/peripheral/mcwdt/cy_mcwdt.h **** *  \note
 784:Generated_Source\PSoC6\pdl\drivers/peripheral/mcwdt/cy_mcwdt.h **** *  The match values are not supported by Counter 2.
 785:Generated_Source\PSoC6\pdl\drivers/peripheral/mcwdt/cy_mcwdt.h **** *
 786:Generated_Source\PSoC6\pdl\drivers/peripheral/mcwdt/cy_mcwdt.h **** *  \return
 787:Generated_Source\PSoC6\pdl\drivers/peripheral/mcwdt/cy_mcwdt.h **** *  A 16-bit match value.
 788:Generated_Source\PSoC6\pdl\drivers/peripheral/mcwdt/cy_mcwdt.h **** *
 789:Generated_Source\PSoC6\pdl\drivers/peripheral/mcwdt/cy_mcwdt.h **** *******************************************************************************/
 790:Generated_Source\PSoC6\pdl\drivers/peripheral/mcwdt/cy_mcwdt.h **** __STATIC_INLINE uint32_t Cy_MCWDT_GetMatch(MCWDT_STRUCT_Type const *base, cy_en_mcwdtctr_t counter)
 791:Generated_Source\PSoC6\pdl\drivers/peripheral/mcwdt/cy_mcwdt.h **** {
 792:Generated_Source\PSoC6\pdl\drivers/peripheral/mcwdt/cy_mcwdt.h ****     uint32_t match;
 793:Generated_Source\PSoC6\pdl\drivers/peripheral/mcwdt/cy_mcwdt.h **** 
 794:Generated_Source\PSoC6\pdl\drivers/peripheral/mcwdt/cy_mcwdt.h ****     CY_ASSERT_L3(CY_MCWDT_IS_CNT_NUM_VALID(counter));
 795:Generated_Source\PSoC6\pdl\drivers/peripheral/mcwdt/cy_mcwdt.h **** 
 796:Generated_Source\PSoC6\pdl\drivers/peripheral/mcwdt/cy_mcwdt.h ****     match = (counter == CY_MCWDT_COUNTER0) ? _FLD2VAL(MCWDT_STRUCT_MCWDT_MATCH_WDT_MATCH0, base->MC
 797:Generated_Source\PSoC6\pdl\drivers/peripheral/mcwdt/cy_mcwdt.h ****                                           _FLD2VAL(MCWDT_STRUCT_MCWDT_MATCH_WDT_MATCH1, base->MCWDT
 798:Generated_Source\PSoC6\pdl\drivers/peripheral/mcwdt/cy_mcwdt.h **** 
 799:Generated_Source\PSoC6\pdl\drivers/peripheral/mcwdt/cy_mcwdt.h ****     return (match);
 800:Generated_Source\PSoC6\pdl\drivers/peripheral/mcwdt/cy_mcwdt.h **** }
 801:Generated_Source\PSoC6\pdl\drivers/peripheral/mcwdt/cy_mcwdt.h **** 
 802:Generated_Source\PSoC6\pdl\drivers/peripheral/mcwdt/cy_mcwdt.h **** 
 803:Generated_Source\PSoC6\pdl\drivers/peripheral/mcwdt/cy_mcwdt.h **** /*******************************************************************************
 804:Generated_Source\PSoC6\pdl\drivers/peripheral/mcwdt/cy_mcwdt.h **** * Function Name: Cy_MCWDT_SetToggleBit
 805:Generated_Source\PSoC6\pdl\drivers/peripheral/mcwdt/cy_mcwdt.h **** ****************************************************************************//**
 806:Generated_Source\PSoC6\pdl\drivers/peripheral/mcwdt/cy_mcwdt.h **** *
 807:Generated_Source\PSoC6\pdl\drivers/peripheral/mcwdt/cy_mcwdt.h **** *  Sets a bit in Counter 2 to monitor for a toggle.
 808:Generated_Source\PSoC6\pdl\drivers/peripheral/mcwdt/cy_mcwdt.h **** *
 809:Generated_Source\PSoC6\pdl\drivers/peripheral/mcwdt/cy_mcwdt.h **** *  \param base
 810:Generated_Source\PSoC6\pdl\drivers/peripheral/mcwdt/cy_mcwdt.h **** *  The base pointer to a structure that describes registers.
 811:Generated_Source\PSoC6\pdl\drivers/peripheral/mcwdt/cy_mcwdt.h **** *
 812:Generated_Source\PSoC6\pdl\drivers/peripheral/mcwdt/cy_mcwdt.h **** *  \param bit
 813:Generated_Source\PSoC6\pdl\drivers/peripheral/mcwdt/cy_mcwdt.h **** *  The Counter 2 bit is set to monitor for a toggle. The valid range [0-31].
 814:Generated_Source\PSoC6\pdl\drivers/peripheral/mcwdt/cy_mcwdt.h **** *
 815:Generated_Source\PSoC6\pdl\drivers/peripheral/mcwdt/cy_mcwdt.h **** *  \note
 816:Generated_Source\PSoC6\pdl\drivers/peripheral/mcwdt/cy_mcwdt.h **** *  This API must not be called when counters are running.
 817:Generated_Source\PSoC6\pdl\drivers/peripheral/mcwdt/cy_mcwdt.h **** *  Prior to calling this API, the counter must be disabled.
 818:Generated_Source\PSoC6\pdl\drivers/peripheral/mcwdt/cy_mcwdt.h **** *
 819:Generated_Source\PSoC6\pdl\drivers/peripheral/mcwdt/cy_mcwdt.h **** *******************************************************************************/
 820:Generated_Source\PSoC6\pdl\drivers/peripheral/mcwdt/cy_mcwdt.h **** __STATIC_INLINE void Cy_MCWDT_SetToggleBit(MCWDT_STRUCT_Type *base, uint32_t bit)
 821:Generated_Source\PSoC6\pdl\drivers/peripheral/mcwdt/cy_mcwdt.h **** {
 822:Generated_Source\PSoC6\pdl\drivers/peripheral/mcwdt/cy_mcwdt.h ****     CY_ASSERT_L2(CY_MCWDT_IS_BIT_VALID(bit));
 823:Generated_Source\PSoC6\pdl\drivers/peripheral/mcwdt/cy_mcwdt.h ****     
 824:Generated_Source\PSoC6\pdl\drivers/peripheral/mcwdt/cy_mcwdt.h ****     base->MCWDT_CONFIG = _CLR_SET_FLD32U(base->MCWDT_CONFIG, MCWDT_STRUCT_MCWDT_CONFIG_WDT_BITS2, b
 825:Generated_Source\PSoC6\pdl\drivers/peripheral/mcwdt/cy_mcwdt.h **** }
 826:Generated_Source\PSoC6\pdl\drivers/peripheral/mcwdt/cy_mcwdt.h **** 
 827:Generated_Source\PSoC6\pdl\drivers/peripheral/mcwdt/cy_mcwdt.h **** 
 828:Generated_Source\PSoC6\pdl\drivers/peripheral/mcwdt/cy_mcwdt.h **** /*******************************************************************************
 829:Generated_Source\PSoC6\pdl\drivers/peripheral/mcwdt/cy_mcwdt.h **** * Function Name: Cy_MCWDT_GetToggleBit
 830:Generated_Source\PSoC6\pdl\drivers/peripheral/mcwdt/cy_mcwdt.h **** ****************************************************************************//**
 831:Generated_Source\PSoC6\pdl\drivers/peripheral/mcwdt/cy_mcwdt.h **** *
 832:Generated_Source\PSoC6\pdl\drivers/peripheral/mcwdt/cy_mcwdt.h **** *  Reports which bit in Counter 2 is monitored for a toggle.
 833:Generated_Source\PSoC6\pdl\drivers/peripheral/mcwdt/cy_mcwdt.h **** *
 834:Generated_Source\PSoC6\pdl\drivers/peripheral/mcwdt/cy_mcwdt.h **** *  \param base
 835:Generated_Source\PSoC6\pdl\drivers/peripheral/mcwdt/cy_mcwdt.h **** *  The base pointer to a structure that describes registers.
ARM GAS  C:\Users\salaz\AppData\Local\Temp\ccvE4Xni.s 			page 22


 836:Generated_Source\PSoC6\pdl\drivers/peripheral/mcwdt/cy_mcwdt.h **** *
 837:Generated_Source\PSoC6\pdl\drivers/peripheral/mcwdt/cy_mcwdt.h **** *  \return
 838:Generated_Source\PSoC6\pdl\drivers/peripheral/mcwdt/cy_mcwdt.h **** *  The bit that is monitored (range 0 to 31).
 839:Generated_Source\PSoC6\pdl\drivers/peripheral/mcwdt/cy_mcwdt.h **** *
 840:Generated_Source\PSoC6\pdl\drivers/peripheral/mcwdt/cy_mcwdt.h **** *******************************************************************************/
 841:Generated_Source\PSoC6\pdl\drivers/peripheral/mcwdt/cy_mcwdt.h **** __STATIC_INLINE uint32_t Cy_MCWDT_GetToggleBit(MCWDT_STRUCT_Type const *base)
 842:Generated_Source\PSoC6\pdl\drivers/peripheral/mcwdt/cy_mcwdt.h **** {
 843:Generated_Source\PSoC6\pdl\drivers/peripheral/mcwdt/cy_mcwdt.h ****     return (_FLD2VAL(MCWDT_STRUCT_MCWDT_CONFIG_WDT_BITS2, base->MCWDT_CONFIG));
 844:Generated_Source\PSoC6\pdl\drivers/peripheral/mcwdt/cy_mcwdt.h **** }
 845:Generated_Source\PSoC6\pdl\drivers/peripheral/mcwdt/cy_mcwdt.h **** 
 846:Generated_Source\PSoC6\pdl\drivers/peripheral/mcwdt/cy_mcwdt.h **** 
 847:Generated_Source\PSoC6\pdl\drivers/peripheral/mcwdt/cy_mcwdt.h **** /*******************************************************************************
 848:Generated_Source\PSoC6\pdl\drivers/peripheral/mcwdt/cy_mcwdt.h **** * Function Name: Cy_MCWDT_GetCount
 849:Generated_Source\PSoC6\pdl\drivers/peripheral/mcwdt/cy_mcwdt.h **** ****************************************************************************//**
 850:Generated_Source\PSoC6\pdl\drivers/peripheral/mcwdt/cy_mcwdt.h **** *
 851:Generated_Source\PSoC6\pdl\drivers/peripheral/mcwdt/cy_mcwdt.h **** *  Reports the current counter value of the specified counter.
 852:Generated_Source\PSoC6\pdl\drivers/peripheral/mcwdt/cy_mcwdt.h **** *
 853:Generated_Source\PSoC6\pdl\drivers/peripheral/mcwdt/cy_mcwdt.h **** *  \param base
 854:Generated_Source\PSoC6\pdl\drivers/peripheral/mcwdt/cy_mcwdt.h **** *  The base pointer to a structure that describes registers.
 855:Generated_Source\PSoC6\pdl\drivers/peripheral/mcwdt/cy_mcwdt.h **** *
 856:Generated_Source\PSoC6\pdl\drivers/peripheral/mcwdt/cy_mcwdt.h **** *  \param counter
 857:Generated_Source\PSoC6\pdl\drivers/peripheral/mcwdt/cy_mcwdt.h **** *  The number of the WDT counter. The valid range is [0-2].
 858:Generated_Source\PSoC6\pdl\drivers/peripheral/mcwdt/cy_mcwdt.h **** *
 859:Generated_Source\PSoC6\pdl\drivers/peripheral/mcwdt/cy_mcwdt.h **** *  \return
 860:Generated_Source\PSoC6\pdl\drivers/peripheral/mcwdt/cy_mcwdt.h **** *  A live counter value. Counters 0 and 1 are 16-bit counters and Counter 2 is
 861:Generated_Source\PSoC6\pdl\drivers/peripheral/mcwdt/cy_mcwdt.h **** *  a 32-bit counter.
 862:Generated_Source\PSoC6\pdl\drivers/peripheral/mcwdt/cy_mcwdt.h **** *
 863:Generated_Source\PSoC6\pdl\drivers/peripheral/mcwdt/cy_mcwdt.h **** *******************************************************************************/
 864:Generated_Source\PSoC6\pdl\drivers/peripheral/mcwdt/cy_mcwdt.h **** __STATIC_INLINE uint32_t Cy_MCWDT_GetCount(MCWDT_STRUCT_Type const *base, cy_en_mcwdtctr_t counter)
 865:Generated_Source\PSoC6\pdl\drivers/peripheral/mcwdt/cy_mcwdt.h **** {
 866:Generated_Source\PSoC6\pdl\drivers/peripheral/mcwdt/cy_mcwdt.h ****     uint32_t countVal = 0u;
 867:Generated_Source\PSoC6\pdl\drivers/peripheral/mcwdt/cy_mcwdt.h **** 
 868:Generated_Source\PSoC6\pdl\drivers/peripheral/mcwdt/cy_mcwdt.h ****     CY_ASSERT_L3(CY_MCWDT_IS_CNT_NUM_VALID(counter));
 869:Generated_Source\PSoC6\pdl\drivers/peripheral/mcwdt/cy_mcwdt.h ****     
 870:Generated_Source\PSoC6\pdl\drivers/peripheral/mcwdt/cy_mcwdt.h ****     switch (counter)
 871:Generated_Source\PSoC6\pdl\drivers/peripheral/mcwdt/cy_mcwdt.h ****     {
 872:Generated_Source\PSoC6\pdl\drivers/peripheral/mcwdt/cy_mcwdt.h ****         case CY_MCWDT_COUNTER0:
 873:Generated_Source\PSoC6\pdl\drivers/peripheral/mcwdt/cy_mcwdt.h ****             countVal = _FLD2VAL(MCWDT_STRUCT_MCWDT_CNTLOW_WDT_CTR0, base->MCWDT_CNTLOW);
 874:Generated_Source\PSoC6\pdl\drivers/peripheral/mcwdt/cy_mcwdt.h ****             break;
 875:Generated_Source\PSoC6\pdl\drivers/peripheral/mcwdt/cy_mcwdt.h ****         case CY_MCWDT_COUNTER1:
 876:Generated_Source\PSoC6\pdl\drivers/peripheral/mcwdt/cy_mcwdt.h ****             countVal = _FLD2VAL(MCWDT_STRUCT_MCWDT_CNTLOW_WDT_CTR1, base->MCWDT_CNTLOW);
 286              		.loc 2 876 0
 287 0140 144A     		ldr	r2, .L18+12
 288 0142 5368     		ldr	r3, [r2, #4]
 289              	.LVL27:
 290              	.LBE65:
 291              	.LBE64:
 292              	.LBB66:
 293              	.LBB67:
 797:Generated_Source\PSoC6\pdl\drivers/peripheral/mcwdt/cy_mcwdt.h **** 
 294              		.loc 2 797 0
 295 0144 D268     		ldr	r2, [r2, #12]
 296              	.LVL28:
 297              	.LBE67:
 298              	.LBE66:
  62:TimingMaster.c ****     }
  63:TimingMaster.c ****     // Not a critical failure. Sanity check just incase.
ARM GAS  C:\Users\salaz\AppData\Local\Temp\ccvE4Xni.s 			page 23


  64:TimingMaster.c ****     if(Cy_MCWDT_GetCount(MCWDT_HW, CY_MCWDT_COUNTER1) >= Cy_MCWDT_GetMatch(MCWDT_HW, CY_MCWDT_COUNT
 299              		.loc 1 64 0
 300 0146 120C     		lsrs	r2, r2, #16
 301 0148 1B0C     		lsrs	r3, r3, #16
 302 014a 9A42     		cmp	r2, r3
 303 014c 0DD8     		bhi	.L14
 304              	.LVL29:
 305              	.LBB68:
 306              	.LBB69:
 877:Generated_Source\PSoC6\pdl\drivers/peripheral/mcwdt/cy_mcwdt.h ****             break;
 878:Generated_Source\PSoC6\pdl\drivers/peripheral/mcwdt/cy_mcwdt.h ****         case CY_MCWDT_COUNTER2:
 879:Generated_Source\PSoC6\pdl\drivers/peripheral/mcwdt/cy_mcwdt.h ****             countVal = _FLD2VAL(MCWDT_STRUCT_MCWDT_CNTHIGH_WDT_CTR2, base->MCWDT_CNTHIGH);
 880:Generated_Source\PSoC6\pdl\drivers/peripheral/mcwdt/cy_mcwdt.h ****             break;
 881:Generated_Source\PSoC6\pdl\drivers/peripheral/mcwdt/cy_mcwdt.h **** 
 882:Generated_Source\PSoC6\pdl\drivers/peripheral/mcwdt/cy_mcwdt.h ****         default:
 883:Generated_Source\PSoC6\pdl\drivers/peripheral/mcwdt/cy_mcwdt.h ****             CY_ASSERT(0u != 0u);
 884:Generated_Source\PSoC6\pdl\drivers/peripheral/mcwdt/cy_mcwdt.h ****         break;
 885:Generated_Source\PSoC6\pdl\drivers/peripheral/mcwdt/cy_mcwdt.h ****     }
 886:Generated_Source\PSoC6\pdl\drivers/peripheral/mcwdt/cy_mcwdt.h **** 
 887:Generated_Source\PSoC6\pdl\drivers/peripheral/mcwdt/cy_mcwdt.h ****     return (countVal);
 888:Generated_Source\PSoC6\pdl\drivers/peripheral/mcwdt/cy_mcwdt.h **** }
 889:Generated_Source\PSoC6\pdl\drivers/peripheral/mcwdt/cy_mcwdt.h **** 
 890:Generated_Source\PSoC6\pdl\drivers/peripheral/mcwdt/cy_mcwdt.h **** 
 891:Generated_Source\PSoC6\pdl\drivers/peripheral/mcwdt/cy_mcwdt.h **** /*******************************************************************************
 892:Generated_Source\PSoC6\pdl\drivers/peripheral/mcwdt/cy_mcwdt.h **** * Function Name: Cy_MCWDT_ResetCounters
 893:Generated_Source\PSoC6\pdl\drivers/peripheral/mcwdt/cy_mcwdt.h **** ****************************************************************************//**
 894:Generated_Source\PSoC6\pdl\drivers/peripheral/mcwdt/cy_mcwdt.h **** *
 895:Generated_Source\PSoC6\pdl\drivers/peripheral/mcwdt/cy_mcwdt.h **** *  Resets all specified counters.
 896:Generated_Source\PSoC6\pdl\drivers/peripheral/mcwdt/cy_mcwdt.h **** *
 897:Generated_Source\PSoC6\pdl\drivers/peripheral/mcwdt/cy_mcwdt.h **** *  \param base
 898:Generated_Source\PSoC6\pdl\drivers/peripheral/mcwdt/cy_mcwdt.h **** *  The base pointer to a structure that describes registers.
 899:Generated_Source\PSoC6\pdl\drivers/peripheral/mcwdt/cy_mcwdt.h **** *
 900:Generated_Source\PSoC6\pdl\drivers/peripheral/mcwdt/cy_mcwdt.h **** *  \param counters
 901:Generated_Source\PSoC6\pdl\drivers/peripheral/mcwdt/cy_mcwdt.h **** *  OR of all counters to reset. See the \ref CY_MCWDT_CTR0, CY_MCWDT_CTR1, and
 902:Generated_Source\PSoC6\pdl\drivers/peripheral/mcwdt/cy_mcwdt.h **** *  CY_MCWDT_CTR2  macros.
 903:Generated_Source\PSoC6\pdl\drivers/peripheral/mcwdt/cy_mcwdt.h **** *
 904:Generated_Source\PSoC6\pdl\drivers/peripheral/mcwdt/cy_mcwdt.h **** *  \param waitUs
 905:Generated_Source\PSoC6\pdl\drivers/peripheral/mcwdt/cy_mcwdt.h **** *  The function waits for some delay in microseconds before returning, because 
 906:Generated_Source\PSoC6\pdl\drivers/peripheral/mcwdt/cy_mcwdt.h **** *  a reset occurs after one lf_clk cycle passes. The recommended value is 62 us.
 907:Generated_Source\PSoC6\pdl\drivers/peripheral/mcwdt/cy_mcwdt.h **** *  \note This function resets the counters two times to prevent the case when 
 908:Generated_Source\PSoC6\pdl\drivers/peripheral/mcwdt/cy_mcwdt.h **** *  the Counter 1 is not reset when the counters are cascaded. The delay waitUs
 909:Generated_Source\PSoC6\pdl\drivers/peripheral/mcwdt/cy_mcwdt.h **** *  must be greater than 100 us when the counters are cascaded. 
 910:Generated_Source\PSoC6\pdl\drivers/peripheral/mcwdt/cy_mcwdt.h **** *  The total delay is greater than 2*waitUs because the function has 
 911:Generated_Source\PSoC6\pdl\drivers/peripheral/mcwdt/cy_mcwdt.h **** *  the delay after the first reset.
 912:Generated_Source\PSoC6\pdl\drivers/peripheral/mcwdt/cy_mcwdt.h **** *  \note
 913:Generated_Source\PSoC6\pdl\drivers/peripheral/mcwdt/cy_mcwdt.h **** *  Setting this parameter to a zero means No wait. In this case, it is the 
 914:Generated_Source\PSoC6\pdl\drivers/peripheral/mcwdt/cy_mcwdt.h **** *  user's responsibility to check whether the selected counters were reset 
 915:Generated_Source\PSoC6\pdl\drivers/peripheral/mcwdt/cy_mcwdt.h **** *  immediately after the function call. This can be done by the 
 916:Generated_Source\PSoC6\pdl\drivers/peripheral/mcwdt/cy_mcwdt.h **** *  Cy_MCWDT_GetCount() API.
 917:Generated_Source\PSoC6\pdl\drivers/peripheral/mcwdt/cy_mcwdt.h **** *
 918:Generated_Source\PSoC6\pdl\drivers/peripheral/mcwdt/cy_mcwdt.h **** *******************************************************************************/
 919:Generated_Source\PSoC6\pdl\drivers/peripheral/mcwdt/cy_mcwdt.h **** __STATIC_INLINE void Cy_MCWDT_ResetCounters(MCWDT_STRUCT_Type *base, uint32_t counters, uint16_t wa
 920:Generated_Source\PSoC6\pdl\drivers/peripheral/mcwdt/cy_mcwdt.h **** {
 921:Generated_Source\PSoC6\pdl\drivers/peripheral/mcwdt/cy_mcwdt.h ****     uint32_t resetCounters;
 922:Generated_Source\PSoC6\pdl\drivers/peripheral/mcwdt/cy_mcwdt.h **** 
 923:Generated_Source\PSoC6\pdl\drivers/peripheral/mcwdt/cy_mcwdt.h ****     CY_ASSERT_L2(CY_MCWDT_IS_CNTS_MASK_VALID(counters));
 924:Generated_Source\PSoC6\pdl\drivers/peripheral/mcwdt/cy_mcwdt.h ****     
ARM GAS  C:\Users\salaz\AppData\Local\Temp\ccvE4Xni.s 			page 24


 925:Generated_Source\PSoC6\pdl\drivers/peripheral/mcwdt/cy_mcwdt.h ****     /* Extract particular counters for reset */
 926:Generated_Source\PSoC6\pdl\drivers/peripheral/mcwdt/cy_mcwdt.h ****     resetCounters = ((0UL != (counters & CY_MCWDT_CTR0)) ? MCWDT_STRUCT_MCWDT_CTL_WDT_RESET0_Msk : 
 927:Generated_Source\PSoC6\pdl\drivers/peripheral/mcwdt/cy_mcwdt.h ****                     ((0UL != (counters & CY_MCWDT_CTR1)) ? MCWDT_STRUCT_MCWDT_CTL_WDT_RESET1_Msk : 
 928:Generated_Source\PSoC6\pdl\drivers/peripheral/mcwdt/cy_mcwdt.h ****                     ((0UL != (counters & CY_MCWDT_CTR2)) ? MCWDT_STRUCT_MCWDT_CTL_WDT_RESET2_Msk : 
 929:Generated_Source\PSoC6\pdl\drivers/peripheral/mcwdt/cy_mcwdt.h **** 
 930:Generated_Source\PSoC6\pdl\drivers/peripheral/mcwdt/cy_mcwdt.h ****     base->MCWDT_CTL |= resetCounters;
 307              		.loc 2 930 0
 308 014e 114C     		ldr	r4, .L18+12
 309 0150 6369     		ldr	r3, [r4, #20]
 310 0152 144E     		ldr	r6, .L18+28
 311 0154 3343     		orrs	r3, r6
 312 0156 6361     		str	r3, [r4, #20]
 931:Generated_Source\PSoC6\pdl\drivers/peripheral/mcwdt/cy_mcwdt.h ****     
 932:Generated_Source\PSoC6\pdl\drivers/peripheral/mcwdt/cy_mcwdt.h ****     Cy_SysLib_DelayUs(waitUs);
 313              		.loc 2 932 0
 314 0158 3E20     		movs	r0, #62
 315 015a FFF7FEFF 		bl	Cy_SysLib_DelayUs
 316              	.LVL30:
 933:Generated_Source\PSoC6\pdl\drivers/peripheral/mcwdt/cy_mcwdt.h ****     
 934:Generated_Source\PSoC6\pdl\drivers/peripheral/mcwdt/cy_mcwdt.h ****     base->MCWDT_CTL |= resetCounters;
 317              		.loc 2 934 0
 318 015e 6369     		ldr	r3, [r4, #20]
 319 0160 3343     		orrs	r3, r6
 320 0162 6361     		str	r3, [r4, #20]
 935:Generated_Source\PSoC6\pdl\drivers/peripheral/mcwdt/cy_mcwdt.h ****     
 936:Generated_Source\PSoC6\pdl\drivers/peripheral/mcwdt/cy_mcwdt.h ****     Cy_SysLib_DelayUs(waitUs);
 321              		.loc 2 936 0
 322 0164 3E20     		movs	r0, #62
 323 0166 FFF7FEFF 		bl	Cy_SysLib_DelayUs
 324              	.LVL31:
 325              	.L14:
 326              	.LBE69:
 327              	.LBE68:
  28:TimingMaster.c ****     Timer* expired[MAX_TIMERS];
 328              		.loc 1 28 0 discriminator 1
 329 016a 0024     		movs	r4, #0
 330 016c 07E0     		b	.L15
 331              	.LVL32:
 332              	.L16:
 333              	.LBB70:
  65:TimingMaster.c ****     {
  66:TimingMaster.c ****         // ** Throw warning
  67:TimingMaster.c ****         Cy_MCWDT_ResetCounters(MCWDT_HW, CY_MCWDT_CTR0|CY_MCWDT_CTR1, MCWDT_TWO_LF_CLK_CYCLES_DELAY
  68:TimingMaster.c ****     }
  69:TimingMaster.c ****     // Service all expired timers
  70:TimingMaster.c ****     for(uint8 i = 0; i < num_expired; i++)
  71:TimingMaster.c ****     {
  72:TimingMaster.c ****         SystemCore_TimerHandler(expired[i]->id);
 334              		.loc 1 72 0 discriminator 3
 335 016e A300     		lsls	r3, r4, #2
 336 0170 6A46     		mov	r2, sp
 337 0172 9B58     		ldr	r3, [r3, r2]
 338 0174 1878     		ldrb	r0, [r3]
 339 0176 FFF7FEFF 		bl	SystemCore_TimerHandler
 340              	.LVL33:
  70:TimingMaster.c ****     {
 341              		.loc 1 70 0 discriminator 3
ARM GAS  C:\Users\salaz\AppData\Local\Temp\ccvE4Xni.s 			page 25


 342 017a 0134     		adds	r4, r4, #1
 343              	.LVL34:
 344 017c E4B2     		uxtb	r4, r4
 345              	.LVL35:
 346              	.L15:
  70:TimingMaster.c ****     {
 347              		.loc 1 70 0 is_stmt 0 discriminator 1
 348 017e A542     		cmp	r5, r4
 349 0180 F5D8     		bhi	.L16
 350              	.LBE70:
  73:TimingMaster.c ****     }
  74:TimingMaster.c **** }
 351              		.loc 1 74 0 is_stmt 1
 352 0182 15B0     		add	sp, sp, #84
 353              		@ sp needed
 354              	.LVL36:
 355              	.LVL37:
 356 0184 F0BD     		pop	{r4, r5, r6, r7, pc}
 357              	.L19:
 358 0186 C046     		.align	2
 359              	.L18:
 360 0188 00000000 		.word	timers
 361 018c 00000000 		.word	.LANCHOR0
 362 0190 FEFF0000 		.word	65534
 363 0194 00022640 		.word	1076232704
 364 0198 F7020000 		.word	759
 365 019c 00000000 		.word	.LC2
 366 01a0 FFFF0000 		.word	65535
 367 01a4 08080000 		.word	2056
 368              		.cfi_endproc
 369              	.LFE792:
 370              		.size	TimingMaster_Update, .-TimingMaster_Update
 371              		.section	.text.WatchDogHandler,"ax",%progbits
 372              		.align	2
 373              		.global	WatchDogHandler
 374              		.code	16
 375              		.thumb_func
 376              		.type	WatchDogHandler, %function
 377              	WatchDogHandler:
 378              	.LFB793:
  75:TimingMaster.c **** void WatchDogHandler()
  76:TimingMaster.c **** {
 379              		.loc 1 76 0
 380              		.cfi_startproc
 381              		@ args = 0, pretend = 0, frame = 0
 382              		@ frame_needed = 0, uses_anonymous_args = 0
 383 0000 70B5     		push	{r4, r5, r6, lr}
 384              		.cfi_def_cfa_offset 16
 385              		.cfi_offset 4, -16
 386              		.cfi_offset 5, -12
 387              		.cfi_offset 6, -8
 388              		.cfi_offset 14, -4
 389              	.LVL38:
 390              	.LBB84:
 391              	.LBB85:
 937:Generated_Source\PSoC6\pdl\drivers/peripheral/mcwdt/cy_mcwdt.h **** }
 938:Generated_Source\PSoC6\pdl\drivers/peripheral/mcwdt/cy_mcwdt.h **** 
ARM GAS  C:\Users\salaz\AppData\Local\Temp\ccvE4Xni.s 			page 26


 939:Generated_Source\PSoC6\pdl\drivers/peripheral/mcwdt/cy_mcwdt.h **** 
 940:Generated_Source\PSoC6\pdl\drivers/peripheral/mcwdt/cy_mcwdt.h **** /*******************************************************************************
 941:Generated_Source\PSoC6\pdl\drivers/peripheral/mcwdt/cy_mcwdt.h **** * Function Name: Cy_MCWDT_GetInterruptStatus
 942:Generated_Source\PSoC6\pdl\drivers/peripheral/mcwdt/cy_mcwdt.h **** ****************************************************************************//**
 943:Generated_Source\PSoC6\pdl\drivers/peripheral/mcwdt/cy_mcwdt.h **** *
 944:Generated_Source\PSoC6\pdl\drivers/peripheral/mcwdt/cy_mcwdt.h **** *  Reports the state of all MCWDT interrupts.
 945:Generated_Source\PSoC6\pdl\drivers/peripheral/mcwdt/cy_mcwdt.h **** *
 946:Generated_Source\PSoC6\pdl\drivers/peripheral/mcwdt/cy_mcwdt.h **** *  \param base
 947:Generated_Source\PSoC6\pdl\drivers/peripheral/mcwdt/cy_mcwdt.h **** *  The base pointer to a structure that describes registers.
 948:Generated_Source\PSoC6\pdl\drivers/peripheral/mcwdt/cy_mcwdt.h **** *
 949:Generated_Source\PSoC6\pdl\drivers/peripheral/mcwdt/cy_mcwdt.h **** *  \return
 950:Generated_Source\PSoC6\pdl\drivers/peripheral/mcwdt/cy_mcwdt.h **** *  The OR'd state of the interrupts. See the \ref CY_MCWDT_CTR0, CY_MCWDT_CTR1, and
 951:Generated_Source\PSoC6\pdl\drivers/peripheral/mcwdt/cy_mcwdt.h **** *  CY_MCWDT_CTR2 macros.
 952:Generated_Source\PSoC6\pdl\drivers/peripheral/mcwdt/cy_mcwdt.h **** *
 953:Generated_Source\PSoC6\pdl\drivers/peripheral/mcwdt/cy_mcwdt.h **** *******************************************************************************/
 954:Generated_Source\PSoC6\pdl\drivers/peripheral/mcwdt/cy_mcwdt.h **** __STATIC_INLINE uint32_t Cy_MCWDT_GetInterruptStatus(MCWDT_STRUCT_Type const *base)
 955:Generated_Source\PSoC6\pdl\drivers/peripheral/mcwdt/cy_mcwdt.h **** {
 956:Generated_Source\PSoC6\pdl\drivers/peripheral/mcwdt/cy_mcwdt.h ****     return (base->MCWDT_INTR);
 392              		.loc 2 956 0
 393 0002 174B     		ldr	r3, .L23
 394 0004 9B69     		ldr	r3, [r3, #24]
 395              	.LVL39:
 396              	.LBE85:
 397              	.LBE84:
  77:TimingMaster.c ****     uint32 src = Cy_MCWDT_GetInterruptStatus(MCWDT_HW);
  78:TimingMaster.c ****     
  79:TimingMaster.c ****     if(0u != (src & CY_MCWDT_CTR1))
 398              		.loc 1 79 0
 399 0006 9B07     		lsls	r3, r3, #30
 400 0008 1BD5     		bpl	.L21
 401              	.LVL40:
 402              	.LBB86:
 403              	.LBB87:
 404              	.LBB88:
 957:Generated_Source\PSoC6\pdl\drivers/peripheral/mcwdt/cy_mcwdt.h **** }
 958:Generated_Source\PSoC6\pdl\drivers/peripheral/mcwdt/cy_mcwdt.h **** 
 959:Generated_Source\PSoC6\pdl\drivers/peripheral/mcwdt/cy_mcwdt.h **** 
 960:Generated_Source\PSoC6\pdl\drivers/peripheral/mcwdt/cy_mcwdt.h **** /*******************************************************************************
 961:Generated_Source\PSoC6\pdl\drivers/peripheral/mcwdt/cy_mcwdt.h **** * Function Name: Cy_MCWDT_ClearInterrupt
 962:Generated_Source\PSoC6\pdl\drivers/peripheral/mcwdt/cy_mcwdt.h **** ****************************************************************************//**
 963:Generated_Source\PSoC6\pdl\drivers/peripheral/mcwdt/cy_mcwdt.h **** *
 964:Generated_Source\PSoC6\pdl\drivers/peripheral/mcwdt/cy_mcwdt.h **** *  Clears all specified MCWDT interrupts.
 965:Generated_Source\PSoC6\pdl\drivers/peripheral/mcwdt/cy_mcwdt.h **** *
 966:Generated_Source\PSoC6\pdl\drivers/peripheral/mcwdt/cy_mcwdt.h **** *  All the WDT interrupts must be cleared by the firmware; otherwise
 967:Generated_Source\PSoC6\pdl\drivers/peripheral/mcwdt/cy_mcwdt.h **** *  interrupts are generated continuously.
 968:Generated_Source\PSoC6\pdl\drivers/peripheral/mcwdt/cy_mcwdt.h **** *
 969:Generated_Source\PSoC6\pdl\drivers/peripheral/mcwdt/cy_mcwdt.h **** *  \param base
 970:Generated_Source\PSoC6\pdl\drivers/peripheral/mcwdt/cy_mcwdt.h **** *  The base pointer to a structure describes registers.
 971:Generated_Source\PSoC6\pdl\drivers/peripheral/mcwdt/cy_mcwdt.h **** *
 972:Generated_Source\PSoC6\pdl\drivers/peripheral/mcwdt/cy_mcwdt.h **** *  \param counters
 973:Generated_Source\PSoC6\pdl\drivers/peripheral/mcwdt/cy_mcwdt.h **** *  OR of all interrupt sources to clear. See the \ref CY_MCWDT_CTR0, CY_MCWDT_CTR1, and
 974:Generated_Source\PSoC6\pdl\drivers/peripheral/mcwdt/cy_mcwdt.h **** *  CY_MCWDT_CTR2  macros.
 975:Generated_Source\PSoC6\pdl\drivers/peripheral/mcwdt/cy_mcwdt.h **** *
 976:Generated_Source\PSoC6\pdl\drivers/peripheral/mcwdt/cy_mcwdt.h **** *******************************************************************************/
 977:Generated_Source\PSoC6\pdl\drivers/peripheral/mcwdt/cy_mcwdt.h **** __STATIC_INLINE void Cy_MCWDT_ClearInterrupt(MCWDT_STRUCT_Type *base, uint32_t counters)
 978:Generated_Source\PSoC6\pdl\drivers/peripheral/mcwdt/cy_mcwdt.h **** {
 979:Generated_Source\PSoC6\pdl\drivers/peripheral/mcwdt/cy_mcwdt.h ****     CY_ASSERT_L2(CY_MCWDT_IS_CNTS_MASK_VALID(counters));
ARM GAS  C:\Users\salaz\AppData\Local\Temp\ccvE4Xni.s 			page 27


 980:Generated_Source\PSoC6\pdl\drivers/peripheral/mcwdt/cy_mcwdt.h ****     
 981:Generated_Source\PSoC6\pdl\drivers/peripheral/mcwdt/cy_mcwdt.h ****     base->MCWDT_INTR = counters;
 405              		.loc 2 981 0
 406 000a 154D     		ldr	r5, .L23
 407 000c 0223     		movs	r3, #2
 408 000e AB61     		str	r3, [r5, #24]
 982:Generated_Source\PSoC6\pdl\drivers/peripheral/mcwdt/cy_mcwdt.h ****     (void) base->MCWDT_INTR;
 409              		.loc 2 982 0
 410 0010 AB69     		ldr	r3, [r5, #24]
 411              	.LVL41:
 412              	.LBE88:
 413              	.LBE87:
 414              	.LBB89:
 415              	.LBB90:
 797:Generated_Source\PSoC6\pdl\drivers/peripheral/mcwdt/cy_mcwdt.h **** 
 416              		.loc 2 797 0
 417 0012 E868     		ldr	r0, [r5, #12]
 418              	.LVL42:
 419              	.LBE90:
 420              	.LBE89:
 421              	.LBB91:
 422              	.LBB92:
 796:Generated_Source\PSoC6\pdl\drivers/peripheral/mcwdt/cy_mcwdt.h ****                                           _FLD2VAL(MCWDT_STRUCT_MCWDT_MATCH_WDT_MATCH1, base->MCWDT
 423              		.loc 2 796 0
 424 0014 EC68     		ldr	r4, [r5, #12]
 425 0016 2404     		lsls	r4, r4, #16
 426 0018 230C     		lsrs	r3, r4, #16
 427              	.LVL43:
 428              	.LBE92:
 429              	.LBE91:
  80:TimingMaster.c ****     {        
  81:TimingMaster.c ****         Cy_MCWDT_ClearInterrupt(MCWDT_HW, CY_MCWDT_CTR1);
  82:TimingMaster.c ****         
  83:TimingMaster.c ****         uint32 match1 = Cy_MCWDT_GetMatch(MCWDT_HW, CY_MCWDT_COUNTER1);
  84:TimingMaster.c ****         uint32 match0 = Cy_MCWDT_GetMatch(MCWDT_HW, CY_MCWDT_COUNTER0);
  85:TimingMaster.c ****         uint32 elapsed_count = (match1+1)*match0; // Counter1 is zero-indexed, so +1 to get real ma
 430              		.loc 1 85 0
 431 001a 040C     		lsrs	r4, r0, #16
 432 001c 0134     		adds	r4, r4, #1
 433 001e 5C43     		muls	r4, r3
 434              	.LVL44:
 435              	.LBB93:
 436              	.LBB94:
 930:Generated_Source\PSoC6\pdl\drivers/peripheral/mcwdt/cy_mcwdt.h ****     
 437              		.loc 2 930 0
 438 0020 6B69     		ldr	r3, [r5, #20]
 439 0022 8026     		movs	r6, #128
 440 0024 3601     		lsls	r6, r6, #4
 441 0026 3343     		orrs	r3, r6
 442 0028 6B61     		str	r3, [r5, #20]
 932:Generated_Source\PSoC6\pdl\drivers/peripheral/mcwdt/cy_mcwdt.h ****     
 443              		.loc 2 932 0
 444 002a 3E20     		movs	r0, #62
 445 002c FFF7FEFF 		bl	Cy_SysLib_DelayUs
 446              	.LVL45:
 934:Generated_Source\PSoC6\pdl\drivers/peripheral/mcwdt/cy_mcwdt.h ****     
 447              		.loc 2 934 0
ARM GAS  C:\Users\salaz\AppData\Local\Temp\ccvE4Xni.s 			page 28


 448 0030 6B69     		ldr	r3, [r5, #20]
 449 0032 3343     		orrs	r3, r6
 450 0034 6B61     		str	r3, [r5, #20]
 936:Generated_Source\PSoC6\pdl\drivers/peripheral/mcwdt/cy_mcwdt.h **** }
 451              		.loc 2 936 0
 452 0036 3E20     		movs	r0, #62
 453 0038 FFF7FEFF 		bl	Cy_SysLib_DelayUs
 454              	.LVL46:
 455              	.LBE94:
 456              	.LBE93:
  86:TimingMaster.c ****         
  87:TimingMaster.c ****         // In cascade mode, counter0 clears on match value, counter1 free running which requires so
  88:TimingMaster.c ****         // May change in the future (counter1 to clear on match) as Cypress updates the WDT periphe
  89:TimingMaster.c ****         Cy_MCWDT_ResetCounters(MCWDT_HW, CY_MCWDT_CTR1, MCWDT_TWO_LF_CLK_CYCLES_DELAY);
  90:TimingMaster.c ****         
  91:TimingMaster.c ****         TimingMaster_Update(elapsed_count+1); // Handler adds 1 count       
 457              		.loc 1 91 0
 458 003c 601C     		adds	r0, r4, #1
 459 003e FFF7FEFF 		bl	TimingMaster_Update
 460              	.LVL47:
 461              	.L21:
 462              	.LBE86:
  92:TimingMaster.c ****     }
  93:TimingMaster.c ****     
  94:TimingMaster.c ****     NVIC_ClearPendingIRQ(WatchDog_IRQ_cfg.intrSrc);
 463              		.loc 1 94 0
 464 0042 084B     		ldr	r3, .L23+4
 465 0044 0022     		movs	r2, #0
 466 0046 9A5E     		ldrsh	r2, [r3, r2]
 467              	.LVL48:
 468              	.LBB95:
 469              	.LBB96:
 470              		.file 3 "Generated_Source\\PSoC6\\pdl\\cmsis/include/core_cm0plus.h"
   1:Generated_Source\PSoC6\pdl\cmsis/include/core_cm0plus.h **** /**************************************************************************//**
   2:Generated_Source\PSoC6\pdl\cmsis/include/core_cm0plus.h ****  * @file     core_cm0plus.h
   3:Generated_Source\PSoC6\pdl\cmsis/include/core_cm0plus.h ****  * @brief    CMSIS Cortex-M0+ Core Peripheral Access Layer Header File
   4:Generated_Source\PSoC6\pdl\cmsis/include/core_cm0plus.h ****  * @version  V5.0.1
   5:Generated_Source\PSoC6\pdl\cmsis/include/core_cm0plus.h ****  * @date     25. November 2016
   6:Generated_Source\PSoC6\pdl\cmsis/include/core_cm0plus.h ****  ******************************************************************************/
   7:Generated_Source\PSoC6\pdl\cmsis/include/core_cm0plus.h **** /*
   8:Generated_Source\PSoC6\pdl\cmsis/include/core_cm0plus.h ****  * Copyright (c) 2009-2016 ARM Limited. All rights reserved.
   9:Generated_Source\PSoC6\pdl\cmsis/include/core_cm0plus.h ****  *
  10:Generated_Source\PSoC6\pdl\cmsis/include/core_cm0plus.h ****  * SPDX-License-Identifier: Apache-2.0
  11:Generated_Source\PSoC6\pdl\cmsis/include/core_cm0plus.h ****  *
  12:Generated_Source\PSoC6\pdl\cmsis/include/core_cm0plus.h ****  * Licensed under the Apache License, Version 2.0 (the License); you may
  13:Generated_Source\PSoC6\pdl\cmsis/include/core_cm0plus.h ****  * not use this file except in compliance with the License.
  14:Generated_Source\PSoC6\pdl\cmsis/include/core_cm0plus.h ****  * You may obtain a copy of the License at
  15:Generated_Source\PSoC6\pdl\cmsis/include/core_cm0plus.h ****  *
  16:Generated_Source\PSoC6\pdl\cmsis/include/core_cm0plus.h ****  * www.apache.org/licenses/LICENSE-2.0
  17:Generated_Source\PSoC6\pdl\cmsis/include/core_cm0plus.h ****  *
  18:Generated_Source\PSoC6\pdl\cmsis/include/core_cm0plus.h ****  * Unless required by applicable law or agreed to in writing, software
  19:Generated_Source\PSoC6\pdl\cmsis/include/core_cm0plus.h ****  * distributed under the License is distributed on an AS IS BASIS, WITHOUT
  20:Generated_Source\PSoC6\pdl\cmsis/include/core_cm0plus.h ****  * WARRANTIES OR CONDITIONS OF ANY KIND, either express or implied.
  21:Generated_Source\PSoC6\pdl\cmsis/include/core_cm0plus.h ****  * See the License for the specific language governing permissions and
  22:Generated_Source\PSoC6\pdl\cmsis/include/core_cm0plus.h ****  * limitations under the License.
  23:Generated_Source\PSoC6\pdl\cmsis/include/core_cm0plus.h ****  */
  24:Generated_Source\PSoC6\pdl\cmsis/include/core_cm0plus.h **** 
ARM GAS  C:\Users\salaz\AppData\Local\Temp\ccvE4Xni.s 			page 29


  25:Generated_Source\PSoC6\pdl\cmsis/include/core_cm0plus.h **** #if   defined ( __ICCARM__ )
  26:Generated_Source\PSoC6\pdl\cmsis/include/core_cm0plus.h ****  #pragma system_include         /* treat file as system include file for MISRA check */
  27:Generated_Source\PSoC6\pdl\cmsis/include/core_cm0plus.h **** #elif defined (__ARMCC_VERSION) && (__ARMCC_VERSION >= 6010050)
  28:Generated_Source\PSoC6\pdl\cmsis/include/core_cm0plus.h ****   #pragma clang system_header   /* treat file as system include file */
  29:Generated_Source\PSoC6\pdl\cmsis/include/core_cm0plus.h **** #endif
  30:Generated_Source\PSoC6\pdl\cmsis/include/core_cm0plus.h **** 
  31:Generated_Source\PSoC6\pdl\cmsis/include/core_cm0plus.h **** #ifndef __CORE_CM0PLUS_H_GENERIC
  32:Generated_Source\PSoC6\pdl\cmsis/include/core_cm0plus.h **** #define __CORE_CM0PLUS_H_GENERIC
  33:Generated_Source\PSoC6\pdl\cmsis/include/core_cm0plus.h **** 
  34:Generated_Source\PSoC6\pdl\cmsis/include/core_cm0plus.h **** #include <stdint.h>
  35:Generated_Source\PSoC6\pdl\cmsis/include/core_cm0plus.h **** 
  36:Generated_Source\PSoC6\pdl\cmsis/include/core_cm0plus.h **** #ifdef __cplusplus
  37:Generated_Source\PSoC6\pdl\cmsis/include/core_cm0plus.h ****  extern "C" {
  38:Generated_Source\PSoC6\pdl\cmsis/include/core_cm0plus.h **** #endif
  39:Generated_Source\PSoC6\pdl\cmsis/include/core_cm0plus.h **** 
  40:Generated_Source\PSoC6\pdl\cmsis/include/core_cm0plus.h **** /**
  41:Generated_Source\PSoC6\pdl\cmsis/include/core_cm0plus.h ****   \page CMSIS_MISRA_Exceptions  MISRA-C:2004 Compliance Exceptions
  42:Generated_Source\PSoC6\pdl\cmsis/include/core_cm0plus.h ****   CMSIS violates the following MISRA-C:2004 rules:
  43:Generated_Source\PSoC6\pdl\cmsis/include/core_cm0plus.h **** 
  44:Generated_Source\PSoC6\pdl\cmsis/include/core_cm0plus.h ****    \li Required Rule 8.5, object/function definition in header file.<br>
  45:Generated_Source\PSoC6\pdl\cmsis/include/core_cm0plus.h ****      Function definitions in header files are used to allow 'inlining'.
  46:Generated_Source\PSoC6\pdl\cmsis/include/core_cm0plus.h **** 
  47:Generated_Source\PSoC6\pdl\cmsis/include/core_cm0plus.h ****    \li Required Rule 18.4, declaration of union type or object of union type: '{...}'.<br>
  48:Generated_Source\PSoC6\pdl\cmsis/include/core_cm0plus.h ****      Unions are used for effective representation of core registers.
  49:Generated_Source\PSoC6\pdl\cmsis/include/core_cm0plus.h **** 
  50:Generated_Source\PSoC6\pdl\cmsis/include/core_cm0plus.h ****    \li Advisory Rule 19.7, Function-like macro defined.<br>
  51:Generated_Source\PSoC6\pdl\cmsis/include/core_cm0plus.h ****      Function-like macros are used to allow more efficient code.
  52:Generated_Source\PSoC6\pdl\cmsis/include/core_cm0plus.h ****  */
  53:Generated_Source\PSoC6\pdl\cmsis/include/core_cm0plus.h **** 
  54:Generated_Source\PSoC6\pdl\cmsis/include/core_cm0plus.h **** 
  55:Generated_Source\PSoC6\pdl\cmsis/include/core_cm0plus.h **** /*******************************************************************************
  56:Generated_Source\PSoC6\pdl\cmsis/include/core_cm0plus.h ****  *                 CMSIS definitions
  57:Generated_Source\PSoC6\pdl\cmsis/include/core_cm0plus.h ****  ******************************************************************************/
  58:Generated_Source\PSoC6\pdl\cmsis/include/core_cm0plus.h **** /**
  59:Generated_Source\PSoC6\pdl\cmsis/include/core_cm0plus.h ****   \ingroup Cortex-M0+
  60:Generated_Source\PSoC6\pdl\cmsis/include/core_cm0plus.h ****   @{
  61:Generated_Source\PSoC6\pdl\cmsis/include/core_cm0plus.h ****  */
  62:Generated_Source\PSoC6\pdl\cmsis/include/core_cm0plus.h **** 
  63:Generated_Source\PSoC6\pdl\cmsis/include/core_cm0plus.h **** /*  CMSIS CM0+ definitions */
  64:Generated_Source\PSoC6\pdl\cmsis/include/core_cm0plus.h **** #define __CM0PLUS_CMSIS_VERSION_MAIN ( 5U)                                      /*!< [31:16] CMSIS 
  65:Generated_Source\PSoC6\pdl\cmsis/include/core_cm0plus.h **** #define __CM0PLUS_CMSIS_VERSION_SUB  ( 0U)                                      /*!< [15:0]  CMSIS 
  66:Generated_Source\PSoC6\pdl\cmsis/include/core_cm0plus.h **** #define __CM0PLUS_CMSIS_VERSION      ((__CM0PLUS_CMSIS_VERSION_MAIN << 16U) | \
  67:Generated_Source\PSoC6\pdl\cmsis/include/core_cm0plus.h ****                                        __CM0PLUS_CMSIS_VERSION_SUB           )  /*!< CMSIS HAL vers
  68:Generated_Source\PSoC6\pdl\cmsis/include/core_cm0plus.h **** 
  69:Generated_Source\PSoC6\pdl\cmsis/include/core_cm0plus.h **** #define __CORTEX_M                   (0U)                                       /*!< Cortex-M Core 
  70:Generated_Source\PSoC6\pdl\cmsis/include/core_cm0plus.h **** 
  71:Generated_Source\PSoC6\pdl\cmsis/include/core_cm0plus.h **** /** __FPU_USED indicates whether an FPU is used or not.
  72:Generated_Source\PSoC6\pdl\cmsis/include/core_cm0plus.h ****     This core does not support an FPU at all
  73:Generated_Source\PSoC6\pdl\cmsis/include/core_cm0plus.h **** */
  74:Generated_Source\PSoC6\pdl\cmsis/include/core_cm0plus.h **** #define __FPU_USED       0U
  75:Generated_Source\PSoC6\pdl\cmsis/include/core_cm0plus.h **** 
  76:Generated_Source\PSoC6\pdl\cmsis/include/core_cm0plus.h **** #if defined ( __CC_ARM )
  77:Generated_Source\PSoC6\pdl\cmsis/include/core_cm0plus.h ****   #if defined __TARGET_FPU_VFP
  78:Generated_Source\PSoC6\pdl\cmsis/include/core_cm0plus.h ****     #error "Compiler generates FPU instructions for a device without an FPU (check __FPU_PRESENT)"
  79:Generated_Source\PSoC6\pdl\cmsis/include/core_cm0plus.h ****   #endif
  80:Generated_Source\PSoC6\pdl\cmsis/include/core_cm0plus.h **** 
  81:Generated_Source\PSoC6\pdl\cmsis/include/core_cm0plus.h **** #elif defined (__ARMCC_VERSION) && (__ARMCC_VERSION >= 6010050)
ARM GAS  C:\Users\salaz\AppData\Local\Temp\ccvE4Xni.s 			page 30


  82:Generated_Source\PSoC6\pdl\cmsis/include/core_cm0plus.h ****   #if defined __ARM_PCS_VFP
  83:Generated_Source\PSoC6\pdl\cmsis/include/core_cm0plus.h ****     #error "Compiler generates FPU instructions for a device without an FPU (check __FPU_PRESENT)"
  84:Generated_Source\PSoC6\pdl\cmsis/include/core_cm0plus.h ****   #endif
  85:Generated_Source\PSoC6\pdl\cmsis/include/core_cm0plus.h **** 
  86:Generated_Source\PSoC6\pdl\cmsis/include/core_cm0plus.h **** #elif defined ( __GNUC__ )
  87:Generated_Source\PSoC6\pdl\cmsis/include/core_cm0plus.h ****   #if defined (__VFP_FP__) && !defined(__SOFTFP__)
  88:Generated_Source\PSoC6\pdl\cmsis/include/core_cm0plus.h ****     #error "Compiler generates FPU instructions for a device without an FPU (check __FPU_PRESENT)"
  89:Generated_Source\PSoC6\pdl\cmsis/include/core_cm0plus.h ****   #endif
  90:Generated_Source\PSoC6\pdl\cmsis/include/core_cm0plus.h **** 
  91:Generated_Source\PSoC6\pdl\cmsis/include/core_cm0plus.h **** #elif defined ( __ICCARM__ )
  92:Generated_Source\PSoC6\pdl\cmsis/include/core_cm0plus.h ****   #if defined __ARMVFP__
  93:Generated_Source\PSoC6\pdl\cmsis/include/core_cm0plus.h ****     #error "Compiler generates FPU instructions for a device without an FPU (check __FPU_PRESENT)"
  94:Generated_Source\PSoC6\pdl\cmsis/include/core_cm0plus.h ****   #endif
  95:Generated_Source\PSoC6\pdl\cmsis/include/core_cm0plus.h **** 
  96:Generated_Source\PSoC6\pdl\cmsis/include/core_cm0plus.h **** #elif defined ( __TI_ARM__ )
  97:Generated_Source\PSoC6\pdl\cmsis/include/core_cm0plus.h ****   #if defined __TI_VFP_SUPPORT__
  98:Generated_Source\PSoC6\pdl\cmsis/include/core_cm0plus.h ****     #error "Compiler generates FPU instructions for a device without an FPU (check __FPU_PRESENT)"
  99:Generated_Source\PSoC6\pdl\cmsis/include/core_cm0plus.h ****   #endif
 100:Generated_Source\PSoC6\pdl\cmsis/include/core_cm0plus.h **** 
 101:Generated_Source\PSoC6\pdl\cmsis/include/core_cm0plus.h **** #elif defined ( __TASKING__ )
 102:Generated_Source\PSoC6\pdl\cmsis/include/core_cm0plus.h ****   #if defined __FPU_VFP__
 103:Generated_Source\PSoC6\pdl\cmsis/include/core_cm0plus.h ****     #error "Compiler generates FPU instructions for a device without an FPU (check __FPU_PRESENT)"
 104:Generated_Source\PSoC6\pdl\cmsis/include/core_cm0plus.h ****   #endif
 105:Generated_Source\PSoC6\pdl\cmsis/include/core_cm0plus.h **** 
 106:Generated_Source\PSoC6\pdl\cmsis/include/core_cm0plus.h **** #elif defined ( __CSMC__ )
 107:Generated_Source\PSoC6\pdl\cmsis/include/core_cm0plus.h ****   #if ( __CSMC__ & 0x400U)
 108:Generated_Source\PSoC6\pdl\cmsis/include/core_cm0plus.h ****     #error "Compiler generates FPU instructions for a device without an FPU (check __FPU_PRESENT)"
 109:Generated_Source\PSoC6\pdl\cmsis/include/core_cm0plus.h ****   #endif
 110:Generated_Source\PSoC6\pdl\cmsis/include/core_cm0plus.h **** 
 111:Generated_Source\PSoC6\pdl\cmsis/include/core_cm0plus.h **** #endif
 112:Generated_Source\PSoC6\pdl\cmsis/include/core_cm0plus.h **** 
 113:Generated_Source\PSoC6\pdl\cmsis/include/core_cm0plus.h **** #include "cmsis_compiler.h"               /* CMSIS compiler specific defines */
 114:Generated_Source\PSoC6\pdl\cmsis/include/core_cm0plus.h **** 
 115:Generated_Source\PSoC6\pdl\cmsis/include/core_cm0plus.h **** 
 116:Generated_Source\PSoC6\pdl\cmsis/include/core_cm0plus.h **** #ifdef __cplusplus
 117:Generated_Source\PSoC6\pdl\cmsis/include/core_cm0plus.h **** }
 118:Generated_Source\PSoC6\pdl\cmsis/include/core_cm0plus.h **** #endif
 119:Generated_Source\PSoC6\pdl\cmsis/include/core_cm0plus.h **** 
 120:Generated_Source\PSoC6\pdl\cmsis/include/core_cm0plus.h **** #endif /* __CORE_CM0PLUS_H_GENERIC */
 121:Generated_Source\PSoC6\pdl\cmsis/include/core_cm0plus.h **** 
 122:Generated_Source\PSoC6\pdl\cmsis/include/core_cm0plus.h **** #ifndef __CMSIS_GENERIC
 123:Generated_Source\PSoC6\pdl\cmsis/include/core_cm0plus.h **** 
 124:Generated_Source\PSoC6\pdl\cmsis/include/core_cm0plus.h **** #ifndef __CORE_CM0PLUS_H_DEPENDANT
 125:Generated_Source\PSoC6\pdl\cmsis/include/core_cm0plus.h **** #define __CORE_CM0PLUS_H_DEPENDANT
 126:Generated_Source\PSoC6\pdl\cmsis/include/core_cm0plus.h **** 
 127:Generated_Source\PSoC6\pdl\cmsis/include/core_cm0plus.h **** #ifdef __cplusplus
 128:Generated_Source\PSoC6\pdl\cmsis/include/core_cm0plus.h ****  extern "C" {
 129:Generated_Source\PSoC6\pdl\cmsis/include/core_cm0plus.h **** #endif
 130:Generated_Source\PSoC6\pdl\cmsis/include/core_cm0plus.h **** 
 131:Generated_Source\PSoC6\pdl\cmsis/include/core_cm0plus.h **** /* check device defines and use defaults */
 132:Generated_Source\PSoC6\pdl\cmsis/include/core_cm0plus.h **** #if defined __CHECK_DEVICE_DEFINES
 133:Generated_Source\PSoC6\pdl\cmsis/include/core_cm0plus.h ****   #ifndef __CM0PLUS_REV
 134:Generated_Source\PSoC6\pdl\cmsis/include/core_cm0plus.h ****     #define __CM0PLUS_REV             0x0000U
 135:Generated_Source\PSoC6\pdl\cmsis/include/core_cm0plus.h ****     #warning "__CM0PLUS_REV not defined in device header file; using default!"
 136:Generated_Source\PSoC6\pdl\cmsis/include/core_cm0plus.h ****   #endif
 137:Generated_Source\PSoC6\pdl\cmsis/include/core_cm0plus.h **** 
 138:Generated_Source\PSoC6\pdl\cmsis/include/core_cm0plus.h ****   #ifndef __MPU_PRESENT
ARM GAS  C:\Users\salaz\AppData\Local\Temp\ccvE4Xni.s 			page 31


 139:Generated_Source\PSoC6\pdl\cmsis/include/core_cm0plus.h ****     #define __MPU_PRESENT             0U
 140:Generated_Source\PSoC6\pdl\cmsis/include/core_cm0plus.h ****     #warning "__MPU_PRESENT not defined in device header file; using default!"
 141:Generated_Source\PSoC6\pdl\cmsis/include/core_cm0plus.h ****   #endif
 142:Generated_Source\PSoC6\pdl\cmsis/include/core_cm0plus.h **** 
 143:Generated_Source\PSoC6\pdl\cmsis/include/core_cm0plus.h ****   #ifndef __VTOR_PRESENT
 144:Generated_Source\PSoC6\pdl\cmsis/include/core_cm0plus.h ****     #define __VTOR_PRESENT            0U
 145:Generated_Source\PSoC6\pdl\cmsis/include/core_cm0plus.h ****     #warning "__VTOR_PRESENT not defined in device header file; using default!"
 146:Generated_Source\PSoC6\pdl\cmsis/include/core_cm0plus.h ****   #endif
 147:Generated_Source\PSoC6\pdl\cmsis/include/core_cm0plus.h **** 
 148:Generated_Source\PSoC6\pdl\cmsis/include/core_cm0plus.h ****   #ifndef __NVIC_PRIO_BITS
 149:Generated_Source\PSoC6\pdl\cmsis/include/core_cm0plus.h ****     #define __NVIC_PRIO_BITS          2U
 150:Generated_Source\PSoC6\pdl\cmsis/include/core_cm0plus.h ****     #warning "__NVIC_PRIO_BITS not defined in device header file; using default!"
 151:Generated_Source\PSoC6\pdl\cmsis/include/core_cm0plus.h ****   #endif
 152:Generated_Source\PSoC6\pdl\cmsis/include/core_cm0plus.h **** 
 153:Generated_Source\PSoC6\pdl\cmsis/include/core_cm0plus.h ****   #ifndef __Vendor_SysTickConfig
 154:Generated_Source\PSoC6\pdl\cmsis/include/core_cm0plus.h ****     #define __Vendor_SysTickConfig    0U
 155:Generated_Source\PSoC6\pdl\cmsis/include/core_cm0plus.h ****     #warning "__Vendor_SysTickConfig not defined in device header file; using default!"
 156:Generated_Source\PSoC6\pdl\cmsis/include/core_cm0plus.h ****   #endif
 157:Generated_Source\PSoC6\pdl\cmsis/include/core_cm0plus.h **** #endif
 158:Generated_Source\PSoC6\pdl\cmsis/include/core_cm0plus.h **** 
 159:Generated_Source\PSoC6\pdl\cmsis/include/core_cm0plus.h **** /* IO definitions (access restrictions to peripheral registers) */
 160:Generated_Source\PSoC6\pdl\cmsis/include/core_cm0plus.h **** /**
 161:Generated_Source\PSoC6\pdl\cmsis/include/core_cm0plus.h ****     \defgroup CMSIS_glob_defs CMSIS Global Defines
 162:Generated_Source\PSoC6\pdl\cmsis/include/core_cm0plus.h **** 
 163:Generated_Source\PSoC6\pdl\cmsis/include/core_cm0plus.h ****     <strong>IO Type Qualifiers</strong> are used
 164:Generated_Source\PSoC6\pdl\cmsis/include/core_cm0plus.h ****     \li to specify the access to peripheral variables.
 165:Generated_Source\PSoC6\pdl\cmsis/include/core_cm0plus.h ****     \li for automatic generation of peripheral register debug information.
 166:Generated_Source\PSoC6\pdl\cmsis/include/core_cm0plus.h **** */
 167:Generated_Source\PSoC6\pdl\cmsis/include/core_cm0plus.h **** #ifdef __cplusplus
 168:Generated_Source\PSoC6\pdl\cmsis/include/core_cm0plus.h ****   #define   __I     volatile             /*!< Defines 'read only' permissions */
 169:Generated_Source\PSoC6\pdl\cmsis/include/core_cm0plus.h **** #else
 170:Generated_Source\PSoC6\pdl\cmsis/include/core_cm0plus.h ****   #define   __I     volatile const       /*!< Defines 'read only' permissions */
 171:Generated_Source\PSoC6\pdl\cmsis/include/core_cm0plus.h **** #endif
 172:Generated_Source\PSoC6\pdl\cmsis/include/core_cm0plus.h **** #define     __O     volatile             /*!< Defines 'write only' permissions */
 173:Generated_Source\PSoC6\pdl\cmsis/include/core_cm0plus.h **** #define     __IO    volatile             /*!< Defines 'read / write' permissions */
 174:Generated_Source\PSoC6\pdl\cmsis/include/core_cm0plus.h **** 
 175:Generated_Source\PSoC6\pdl\cmsis/include/core_cm0plus.h **** /* following defines should be used for structure members */
 176:Generated_Source\PSoC6\pdl\cmsis/include/core_cm0plus.h **** #define     __IM     volatile const      /*! Defines 'read only' structure member permissions */
 177:Generated_Source\PSoC6\pdl\cmsis/include/core_cm0plus.h **** #define     __OM     volatile            /*! Defines 'write only' structure member permissions */
 178:Generated_Source\PSoC6\pdl\cmsis/include/core_cm0plus.h **** #define     __IOM    volatile            /*! Defines 'read / write' structure member permissions */
 179:Generated_Source\PSoC6\pdl\cmsis/include/core_cm0plus.h **** 
 180:Generated_Source\PSoC6\pdl\cmsis/include/core_cm0plus.h **** /*@} end of group Cortex-M0+ */
 181:Generated_Source\PSoC6\pdl\cmsis/include/core_cm0plus.h **** 
 182:Generated_Source\PSoC6\pdl\cmsis/include/core_cm0plus.h **** 
 183:Generated_Source\PSoC6\pdl\cmsis/include/core_cm0plus.h **** 
 184:Generated_Source\PSoC6\pdl\cmsis/include/core_cm0plus.h **** /*******************************************************************************
 185:Generated_Source\PSoC6\pdl\cmsis/include/core_cm0plus.h ****  *                 Register Abstraction
 186:Generated_Source\PSoC6\pdl\cmsis/include/core_cm0plus.h ****   Core Register contain:
 187:Generated_Source\PSoC6\pdl\cmsis/include/core_cm0plus.h ****   - Core Register
 188:Generated_Source\PSoC6\pdl\cmsis/include/core_cm0plus.h ****   - Core NVIC Register
 189:Generated_Source\PSoC6\pdl\cmsis/include/core_cm0plus.h ****   - Core SCB Register
 190:Generated_Source\PSoC6\pdl\cmsis/include/core_cm0plus.h ****   - Core SysTick Register
 191:Generated_Source\PSoC6\pdl\cmsis/include/core_cm0plus.h ****   - Core MPU Register
 192:Generated_Source\PSoC6\pdl\cmsis/include/core_cm0plus.h ****  ******************************************************************************/
 193:Generated_Source\PSoC6\pdl\cmsis/include/core_cm0plus.h **** /**
 194:Generated_Source\PSoC6\pdl\cmsis/include/core_cm0plus.h ****   \defgroup CMSIS_core_register Defines and Type Definitions
 195:Generated_Source\PSoC6\pdl\cmsis/include/core_cm0plus.h ****   \brief Type definitions and defines for Cortex-M processor based devices.
ARM GAS  C:\Users\salaz\AppData\Local\Temp\ccvE4Xni.s 			page 32


 196:Generated_Source\PSoC6\pdl\cmsis/include/core_cm0plus.h **** */
 197:Generated_Source\PSoC6\pdl\cmsis/include/core_cm0plus.h **** 
 198:Generated_Source\PSoC6\pdl\cmsis/include/core_cm0plus.h **** /**
 199:Generated_Source\PSoC6\pdl\cmsis/include/core_cm0plus.h ****   \ingroup    CMSIS_core_register
 200:Generated_Source\PSoC6\pdl\cmsis/include/core_cm0plus.h ****   \defgroup   CMSIS_CORE  Status and Control Registers
 201:Generated_Source\PSoC6\pdl\cmsis/include/core_cm0plus.h ****   \brief      Core Register type definitions.
 202:Generated_Source\PSoC6\pdl\cmsis/include/core_cm0plus.h ****   @{
 203:Generated_Source\PSoC6\pdl\cmsis/include/core_cm0plus.h ****  */
 204:Generated_Source\PSoC6\pdl\cmsis/include/core_cm0plus.h **** 
 205:Generated_Source\PSoC6\pdl\cmsis/include/core_cm0plus.h **** /**
 206:Generated_Source\PSoC6\pdl\cmsis/include/core_cm0plus.h ****   \brief  Union type to access the Application Program Status Register (APSR).
 207:Generated_Source\PSoC6\pdl\cmsis/include/core_cm0plus.h ****  */
 208:Generated_Source\PSoC6\pdl\cmsis/include/core_cm0plus.h **** typedef union
 209:Generated_Source\PSoC6\pdl\cmsis/include/core_cm0plus.h **** {
 210:Generated_Source\PSoC6\pdl\cmsis/include/core_cm0plus.h ****   struct
 211:Generated_Source\PSoC6\pdl\cmsis/include/core_cm0plus.h ****   {
 212:Generated_Source\PSoC6\pdl\cmsis/include/core_cm0plus.h ****     uint32_t _reserved0:28;              /*!< bit:  0..27  Reserved */
 213:Generated_Source\PSoC6\pdl\cmsis/include/core_cm0plus.h ****     uint32_t V:1;                        /*!< bit:     28  Overflow condition code flag */
 214:Generated_Source\PSoC6\pdl\cmsis/include/core_cm0plus.h ****     uint32_t C:1;                        /*!< bit:     29  Carry condition code flag */
 215:Generated_Source\PSoC6\pdl\cmsis/include/core_cm0plus.h ****     uint32_t Z:1;                        /*!< bit:     30  Zero condition code flag */
 216:Generated_Source\PSoC6\pdl\cmsis/include/core_cm0plus.h ****     uint32_t N:1;                        /*!< bit:     31  Negative condition code flag */
 217:Generated_Source\PSoC6\pdl\cmsis/include/core_cm0plus.h ****   } b;                                   /*!< Structure used for bit  access */
 218:Generated_Source\PSoC6\pdl\cmsis/include/core_cm0plus.h ****   uint32_t w;                            /*!< Type      used for word access */
 219:Generated_Source\PSoC6\pdl\cmsis/include/core_cm0plus.h **** } APSR_Type;
 220:Generated_Source\PSoC6\pdl\cmsis/include/core_cm0plus.h **** 
 221:Generated_Source\PSoC6\pdl\cmsis/include/core_cm0plus.h **** /* APSR Register Definitions */
 222:Generated_Source\PSoC6\pdl\cmsis/include/core_cm0plus.h **** #define APSR_N_Pos                         31U                                            /*!< APSR
 223:Generated_Source\PSoC6\pdl\cmsis/include/core_cm0plus.h **** #define APSR_N_Msk                         (1UL << APSR_N_Pos)                            /*!< APSR
 224:Generated_Source\PSoC6\pdl\cmsis/include/core_cm0plus.h **** 
 225:Generated_Source\PSoC6\pdl\cmsis/include/core_cm0plus.h **** #define APSR_Z_Pos                         30U                                            /*!< APSR
 226:Generated_Source\PSoC6\pdl\cmsis/include/core_cm0plus.h **** #define APSR_Z_Msk                         (1UL << APSR_Z_Pos)                            /*!< APSR
 227:Generated_Source\PSoC6\pdl\cmsis/include/core_cm0plus.h **** 
 228:Generated_Source\PSoC6\pdl\cmsis/include/core_cm0plus.h **** #define APSR_C_Pos                         29U                                            /*!< APSR
 229:Generated_Source\PSoC6\pdl\cmsis/include/core_cm0plus.h **** #define APSR_C_Msk                         (1UL << APSR_C_Pos)                            /*!< APSR
 230:Generated_Source\PSoC6\pdl\cmsis/include/core_cm0plus.h **** 
 231:Generated_Source\PSoC6\pdl\cmsis/include/core_cm0plus.h **** #define APSR_V_Pos                         28U                                            /*!< APSR
 232:Generated_Source\PSoC6\pdl\cmsis/include/core_cm0plus.h **** #define APSR_V_Msk                         (1UL << APSR_V_Pos)                            /*!< APSR
 233:Generated_Source\PSoC6\pdl\cmsis/include/core_cm0plus.h **** 
 234:Generated_Source\PSoC6\pdl\cmsis/include/core_cm0plus.h **** 
 235:Generated_Source\PSoC6\pdl\cmsis/include/core_cm0plus.h **** /**
 236:Generated_Source\PSoC6\pdl\cmsis/include/core_cm0plus.h ****   \brief  Union type to access the Interrupt Program Status Register (IPSR).
 237:Generated_Source\PSoC6\pdl\cmsis/include/core_cm0plus.h ****  */
 238:Generated_Source\PSoC6\pdl\cmsis/include/core_cm0plus.h **** typedef union
 239:Generated_Source\PSoC6\pdl\cmsis/include/core_cm0plus.h **** {
 240:Generated_Source\PSoC6\pdl\cmsis/include/core_cm0plus.h ****   struct
 241:Generated_Source\PSoC6\pdl\cmsis/include/core_cm0plus.h ****   {
 242:Generated_Source\PSoC6\pdl\cmsis/include/core_cm0plus.h ****     uint32_t ISR:9;                      /*!< bit:  0.. 8  Exception number */
 243:Generated_Source\PSoC6\pdl\cmsis/include/core_cm0plus.h ****     uint32_t _reserved0:23;              /*!< bit:  9..31  Reserved */
 244:Generated_Source\PSoC6\pdl\cmsis/include/core_cm0plus.h ****   } b;                                   /*!< Structure used for bit  access */
 245:Generated_Source\PSoC6\pdl\cmsis/include/core_cm0plus.h ****   uint32_t w;                            /*!< Type      used for word access */
 246:Generated_Source\PSoC6\pdl\cmsis/include/core_cm0plus.h **** } IPSR_Type;
 247:Generated_Source\PSoC6\pdl\cmsis/include/core_cm0plus.h **** 
 248:Generated_Source\PSoC6\pdl\cmsis/include/core_cm0plus.h **** /* IPSR Register Definitions */
 249:Generated_Source\PSoC6\pdl\cmsis/include/core_cm0plus.h **** #define IPSR_ISR_Pos                        0U                                            /*!< IPSR
 250:Generated_Source\PSoC6\pdl\cmsis/include/core_cm0plus.h **** #define IPSR_ISR_Msk                       (0x1FFUL /*<< IPSR_ISR_Pos*/)                  /*!< IPSR
 251:Generated_Source\PSoC6\pdl\cmsis/include/core_cm0plus.h **** 
 252:Generated_Source\PSoC6\pdl\cmsis/include/core_cm0plus.h **** 
ARM GAS  C:\Users\salaz\AppData\Local\Temp\ccvE4Xni.s 			page 33


 253:Generated_Source\PSoC6\pdl\cmsis/include/core_cm0plus.h **** /**
 254:Generated_Source\PSoC6\pdl\cmsis/include/core_cm0plus.h ****   \brief  Union type to access the Special-Purpose Program Status Registers (xPSR).
 255:Generated_Source\PSoC6\pdl\cmsis/include/core_cm0plus.h ****  */
 256:Generated_Source\PSoC6\pdl\cmsis/include/core_cm0plus.h **** typedef union
 257:Generated_Source\PSoC6\pdl\cmsis/include/core_cm0plus.h **** {
 258:Generated_Source\PSoC6\pdl\cmsis/include/core_cm0plus.h ****   struct
 259:Generated_Source\PSoC6\pdl\cmsis/include/core_cm0plus.h ****   {
 260:Generated_Source\PSoC6\pdl\cmsis/include/core_cm0plus.h ****     uint32_t ISR:9;                      /*!< bit:  0.. 8  Exception number */
 261:Generated_Source\PSoC6\pdl\cmsis/include/core_cm0plus.h ****     uint32_t _reserved0:15;              /*!< bit:  9..23  Reserved */
 262:Generated_Source\PSoC6\pdl\cmsis/include/core_cm0plus.h ****     uint32_t T:1;                        /*!< bit:     24  Thumb bit        (read 0) */
 263:Generated_Source\PSoC6\pdl\cmsis/include/core_cm0plus.h ****     uint32_t _reserved1:3;               /*!< bit: 25..27  Reserved */
 264:Generated_Source\PSoC6\pdl\cmsis/include/core_cm0plus.h ****     uint32_t V:1;                        /*!< bit:     28  Overflow condition code flag */
 265:Generated_Source\PSoC6\pdl\cmsis/include/core_cm0plus.h ****     uint32_t C:1;                        /*!< bit:     29  Carry condition code flag */
 266:Generated_Source\PSoC6\pdl\cmsis/include/core_cm0plus.h ****     uint32_t Z:1;                        /*!< bit:     30  Zero condition code flag */
 267:Generated_Source\PSoC6\pdl\cmsis/include/core_cm0plus.h ****     uint32_t N:1;                        /*!< bit:     31  Negative condition code flag */
 268:Generated_Source\PSoC6\pdl\cmsis/include/core_cm0plus.h ****   } b;                                   /*!< Structure used for bit  access */
 269:Generated_Source\PSoC6\pdl\cmsis/include/core_cm0plus.h ****   uint32_t w;                            /*!< Type      used for word access */
 270:Generated_Source\PSoC6\pdl\cmsis/include/core_cm0plus.h **** } xPSR_Type;
 271:Generated_Source\PSoC6\pdl\cmsis/include/core_cm0plus.h **** 
 272:Generated_Source\PSoC6\pdl\cmsis/include/core_cm0plus.h **** /* xPSR Register Definitions */
 273:Generated_Source\PSoC6\pdl\cmsis/include/core_cm0plus.h **** #define xPSR_N_Pos                         31U                                            /*!< xPSR
 274:Generated_Source\PSoC6\pdl\cmsis/include/core_cm0plus.h **** #define xPSR_N_Msk                         (1UL << xPSR_N_Pos)                            /*!< xPSR
 275:Generated_Source\PSoC6\pdl\cmsis/include/core_cm0plus.h **** 
 276:Generated_Source\PSoC6\pdl\cmsis/include/core_cm0plus.h **** #define xPSR_Z_Pos                         30U                                            /*!< xPSR
 277:Generated_Source\PSoC6\pdl\cmsis/include/core_cm0plus.h **** #define xPSR_Z_Msk                         (1UL << xPSR_Z_Pos)                            /*!< xPSR
 278:Generated_Source\PSoC6\pdl\cmsis/include/core_cm0plus.h **** 
 279:Generated_Source\PSoC6\pdl\cmsis/include/core_cm0plus.h **** #define xPSR_C_Pos                         29U                                            /*!< xPSR
 280:Generated_Source\PSoC6\pdl\cmsis/include/core_cm0plus.h **** #define xPSR_C_Msk                         (1UL << xPSR_C_Pos)                            /*!< xPSR
 281:Generated_Source\PSoC6\pdl\cmsis/include/core_cm0plus.h **** 
 282:Generated_Source\PSoC6\pdl\cmsis/include/core_cm0plus.h **** #define xPSR_V_Pos                         28U                                            /*!< xPSR
 283:Generated_Source\PSoC6\pdl\cmsis/include/core_cm0plus.h **** #define xPSR_V_Msk                         (1UL << xPSR_V_Pos)                            /*!< xPSR
 284:Generated_Source\PSoC6\pdl\cmsis/include/core_cm0plus.h **** 
 285:Generated_Source\PSoC6\pdl\cmsis/include/core_cm0plus.h **** #define xPSR_T_Pos                         24U                                            /*!< xPSR
 286:Generated_Source\PSoC6\pdl\cmsis/include/core_cm0plus.h **** #define xPSR_T_Msk                         (1UL << xPSR_T_Pos)                            /*!< xPSR
 287:Generated_Source\PSoC6\pdl\cmsis/include/core_cm0plus.h **** 
 288:Generated_Source\PSoC6\pdl\cmsis/include/core_cm0plus.h **** #define xPSR_ISR_Pos                        0U                                            /*!< xPSR
 289:Generated_Source\PSoC6\pdl\cmsis/include/core_cm0plus.h **** #define xPSR_ISR_Msk                       (0x1FFUL /*<< xPSR_ISR_Pos*/)                  /*!< xPSR
 290:Generated_Source\PSoC6\pdl\cmsis/include/core_cm0plus.h **** 
 291:Generated_Source\PSoC6\pdl\cmsis/include/core_cm0plus.h **** 
 292:Generated_Source\PSoC6\pdl\cmsis/include/core_cm0plus.h **** /**
 293:Generated_Source\PSoC6\pdl\cmsis/include/core_cm0plus.h ****   \brief  Union type to access the Control Registers (CONTROL).
 294:Generated_Source\PSoC6\pdl\cmsis/include/core_cm0plus.h ****  */
 295:Generated_Source\PSoC6\pdl\cmsis/include/core_cm0plus.h **** typedef union
 296:Generated_Source\PSoC6\pdl\cmsis/include/core_cm0plus.h **** {
 297:Generated_Source\PSoC6\pdl\cmsis/include/core_cm0plus.h ****   struct
 298:Generated_Source\PSoC6\pdl\cmsis/include/core_cm0plus.h ****   {
 299:Generated_Source\PSoC6\pdl\cmsis/include/core_cm0plus.h ****     uint32_t nPRIV:1;                    /*!< bit:      0  Execution privilege in Thread mode */
 300:Generated_Source\PSoC6\pdl\cmsis/include/core_cm0plus.h ****     uint32_t SPSEL:1;                    /*!< bit:      1  Stack to be used */
 301:Generated_Source\PSoC6\pdl\cmsis/include/core_cm0plus.h ****     uint32_t _reserved1:30;              /*!< bit:  2..31  Reserved */
 302:Generated_Source\PSoC6\pdl\cmsis/include/core_cm0plus.h ****   } b;                                   /*!< Structure used for bit  access */
 303:Generated_Source\PSoC6\pdl\cmsis/include/core_cm0plus.h ****   uint32_t w;                            /*!< Type      used for word access */
 304:Generated_Source\PSoC6\pdl\cmsis/include/core_cm0plus.h **** } CONTROL_Type;
 305:Generated_Source\PSoC6\pdl\cmsis/include/core_cm0plus.h **** 
 306:Generated_Source\PSoC6\pdl\cmsis/include/core_cm0plus.h **** /* CONTROL Register Definitions */
 307:Generated_Source\PSoC6\pdl\cmsis/include/core_cm0plus.h **** #define CONTROL_SPSEL_Pos                   1U                                            /*!< CONT
 308:Generated_Source\PSoC6\pdl\cmsis/include/core_cm0plus.h **** #define CONTROL_SPSEL_Msk                  (1UL << CONTROL_SPSEL_Pos)                     /*!< CONT
 309:Generated_Source\PSoC6\pdl\cmsis/include/core_cm0plus.h **** 
ARM GAS  C:\Users\salaz\AppData\Local\Temp\ccvE4Xni.s 			page 34


 310:Generated_Source\PSoC6\pdl\cmsis/include/core_cm0plus.h **** #define CONTROL_nPRIV_Pos                   0U                                            /*!< CONT
 311:Generated_Source\PSoC6\pdl\cmsis/include/core_cm0plus.h **** #define CONTROL_nPRIV_Msk                  (1UL /*<< CONTROL_nPRIV_Pos*/)                 /*!< CONT
 312:Generated_Source\PSoC6\pdl\cmsis/include/core_cm0plus.h **** 
 313:Generated_Source\PSoC6\pdl\cmsis/include/core_cm0plus.h **** /*@} end of group CMSIS_CORE */
 314:Generated_Source\PSoC6\pdl\cmsis/include/core_cm0plus.h **** 
 315:Generated_Source\PSoC6\pdl\cmsis/include/core_cm0plus.h **** 
 316:Generated_Source\PSoC6\pdl\cmsis/include/core_cm0plus.h **** /**
 317:Generated_Source\PSoC6\pdl\cmsis/include/core_cm0plus.h ****   \ingroup    CMSIS_core_register
 318:Generated_Source\PSoC6\pdl\cmsis/include/core_cm0plus.h ****   \defgroup   CMSIS_NVIC  Nested Vectored Interrupt Controller (NVIC)
 319:Generated_Source\PSoC6\pdl\cmsis/include/core_cm0plus.h ****   \brief      Type definitions for the NVIC Registers
 320:Generated_Source\PSoC6\pdl\cmsis/include/core_cm0plus.h ****   @{
 321:Generated_Source\PSoC6\pdl\cmsis/include/core_cm0plus.h ****  */
 322:Generated_Source\PSoC6\pdl\cmsis/include/core_cm0plus.h **** 
 323:Generated_Source\PSoC6\pdl\cmsis/include/core_cm0plus.h **** /**
 324:Generated_Source\PSoC6\pdl\cmsis/include/core_cm0plus.h ****   \brief  Structure type to access the Nested Vectored Interrupt Controller (NVIC).
 325:Generated_Source\PSoC6\pdl\cmsis/include/core_cm0plus.h ****  */
 326:Generated_Source\PSoC6\pdl\cmsis/include/core_cm0plus.h **** typedef struct
 327:Generated_Source\PSoC6\pdl\cmsis/include/core_cm0plus.h **** {
 328:Generated_Source\PSoC6\pdl\cmsis/include/core_cm0plus.h ****   __IOM uint32_t ISER[1U];               /*!< Offset: 0x000 (R/W)  Interrupt Set Enable Register */
 329:Generated_Source\PSoC6\pdl\cmsis/include/core_cm0plus.h ****         uint32_t RESERVED0[31U];
 330:Generated_Source\PSoC6\pdl\cmsis/include/core_cm0plus.h ****   __IOM uint32_t ICER[1U];               /*!< Offset: 0x080 (R/W)  Interrupt Clear Enable Register 
 331:Generated_Source\PSoC6\pdl\cmsis/include/core_cm0plus.h ****         uint32_t RSERVED1[31U];
 332:Generated_Source\PSoC6\pdl\cmsis/include/core_cm0plus.h ****   __IOM uint32_t ISPR[1U];               /*!< Offset: 0x100 (R/W)  Interrupt Set Pending Register *
 333:Generated_Source\PSoC6\pdl\cmsis/include/core_cm0plus.h ****         uint32_t RESERVED2[31U];
 334:Generated_Source\PSoC6\pdl\cmsis/include/core_cm0plus.h ****   __IOM uint32_t ICPR[1U];               /*!< Offset: 0x180 (R/W)  Interrupt Clear Pending Register
 335:Generated_Source\PSoC6\pdl\cmsis/include/core_cm0plus.h ****         uint32_t RESERVED3[31U];
 336:Generated_Source\PSoC6\pdl\cmsis/include/core_cm0plus.h ****         uint32_t RESERVED4[64U];
 337:Generated_Source\PSoC6\pdl\cmsis/include/core_cm0plus.h ****   __IOM uint32_t IP[8U];                 /*!< Offset: 0x300 (R/W)  Interrupt Priority Register */
 338:Generated_Source\PSoC6\pdl\cmsis/include/core_cm0plus.h **** }  NVIC_Type;
 339:Generated_Source\PSoC6\pdl\cmsis/include/core_cm0plus.h **** 
 340:Generated_Source\PSoC6\pdl\cmsis/include/core_cm0plus.h **** /*@} end of group CMSIS_NVIC */
 341:Generated_Source\PSoC6\pdl\cmsis/include/core_cm0plus.h **** 
 342:Generated_Source\PSoC6\pdl\cmsis/include/core_cm0plus.h **** 
 343:Generated_Source\PSoC6\pdl\cmsis/include/core_cm0plus.h **** /**
 344:Generated_Source\PSoC6\pdl\cmsis/include/core_cm0plus.h ****   \ingroup  CMSIS_core_register
 345:Generated_Source\PSoC6\pdl\cmsis/include/core_cm0plus.h ****   \defgroup CMSIS_SCB     System Control Block (SCB)
 346:Generated_Source\PSoC6\pdl\cmsis/include/core_cm0plus.h ****   \brief    Type definitions for the System Control Block Registers
 347:Generated_Source\PSoC6\pdl\cmsis/include/core_cm0plus.h ****   @{
 348:Generated_Source\PSoC6\pdl\cmsis/include/core_cm0plus.h ****  */
 349:Generated_Source\PSoC6\pdl\cmsis/include/core_cm0plus.h **** 
 350:Generated_Source\PSoC6\pdl\cmsis/include/core_cm0plus.h **** /**
 351:Generated_Source\PSoC6\pdl\cmsis/include/core_cm0plus.h ****   \brief  Structure type to access the System Control Block (SCB).
 352:Generated_Source\PSoC6\pdl\cmsis/include/core_cm0plus.h ****  */
 353:Generated_Source\PSoC6\pdl\cmsis/include/core_cm0plus.h **** typedef struct
 354:Generated_Source\PSoC6\pdl\cmsis/include/core_cm0plus.h **** {
 355:Generated_Source\PSoC6\pdl\cmsis/include/core_cm0plus.h ****   __IM  uint32_t CPUID;                  /*!< Offset: 0x000 (R/ )  CPUID Base Register */
 356:Generated_Source\PSoC6\pdl\cmsis/include/core_cm0plus.h ****   __IOM uint32_t ICSR;                   /*!< Offset: 0x004 (R/W)  Interrupt Control and State Regi
 357:Generated_Source\PSoC6\pdl\cmsis/include/core_cm0plus.h **** #if defined (__VTOR_PRESENT) && (__VTOR_PRESENT == 1U)
 358:Generated_Source\PSoC6\pdl\cmsis/include/core_cm0plus.h ****   __IOM uint32_t VTOR;                   /*!< Offset: 0x008 (R/W)  Vector Table Offset Register */
 359:Generated_Source\PSoC6\pdl\cmsis/include/core_cm0plus.h **** #else
 360:Generated_Source\PSoC6\pdl\cmsis/include/core_cm0plus.h ****         uint32_t RESERVED0;
 361:Generated_Source\PSoC6\pdl\cmsis/include/core_cm0plus.h **** #endif
 362:Generated_Source\PSoC6\pdl\cmsis/include/core_cm0plus.h ****   __IOM uint32_t AIRCR;                  /*!< Offset: 0x00C (R/W)  Application Interrupt and Reset 
 363:Generated_Source\PSoC6\pdl\cmsis/include/core_cm0plus.h ****   __IOM uint32_t SCR;                    /*!< Offset: 0x010 (R/W)  System Control Register */
 364:Generated_Source\PSoC6\pdl\cmsis/include/core_cm0plus.h ****   __IOM uint32_t CCR;                    /*!< Offset: 0x014 (R/W)  Configuration Control Register *
 365:Generated_Source\PSoC6\pdl\cmsis/include/core_cm0plus.h ****         uint32_t RESERVED1;
 366:Generated_Source\PSoC6\pdl\cmsis/include/core_cm0plus.h ****   __IOM uint32_t SHP[2U];                /*!< Offset: 0x01C (R/W)  System Handlers Priority Registe
ARM GAS  C:\Users\salaz\AppData\Local\Temp\ccvE4Xni.s 			page 35


 367:Generated_Source\PSoC6\pdl\cmsis/include/core_cm0plus.h ****   __IOM uint32_t SHCSR;                  /*!< Offset: 0x024 (R/W)  System Handler Control and State
 368:Generated_Source\PSoC6\pdl\cmsis/include/core_cm0plus.h **** } SCB_Type;
 369:Generated_Source\PSoC6\pdl\cmsis/include/core_cm0plus.h **** 
 370:Generated_Source\PSoC6\pdl\cmsis/include/core_cm0plus.h **** /* SCB CPUID Register Definitions */
 371:Generated_Source\PSoC6\pdl\cmsis/include/core_cm0plus.h **** #define SCB_CPUID_IMPLEMENTER_Pos          24U                                            /*!< SCB 
 372:Generated_Source\PSoC6\pdl\cmsis/include/core_cm0plus.h **** #define SCB_CPUID_IMPLEMENTER_Msk          (0xFFUL << SCB_CPUID_IMPLEMENTER_Pos)          /*!< SCB 
 373:Generated_Source\PSoC6\pdl\cmsis/include/core_cm0plus.h **** 
 374:Generated_Source\PSoC6\pdl\cmsis/include/core_cm0plus.h **** #define SCB_CPUID_VARIANT_Pos              20U                                            /*!< SCB 
 375:Generated_Source\PSoC6\pdl\cmsis/include/core_cm0plus.h **** #define SCB_CPUID_VARIANT_Msk              (0xFUL << SCB_CPUID_VARIANT_Pos)               /*!< SCB 
 376:Generated_Source\PSoC6\pdl\cmsis/include/core_cm0plus.h **** 
 377:Generated_Source\PSoC6\pdl\cmsis/include/core_cm0plus.h **** #define SCB_CPUID_ARCHITECTURE_Pos         16U                                            /*!< SCB 
 378:Generated_Source\PSoC6\pdl\cmsis/include/core_cm0plus.h **** #define SCB_CPUID_ARCHITECTURE_Msk         (0xFUL << SCB_CPUID_ARCHITECTURE_Pos)          /*!< SCB 
 379:Generated_Source\PSoC6\pdl\cmsis/include/core_cm0plus.h **** 
 380:Generated_Source\PSoC6\pdl\cmsis/include/core_cm0plus.h **** #define SCB_CPUID_PARTNO_Pos                4U                                            /*!< SCB 
 381:Generated_Source\PSoC6\pdl\cmsis/include/core_cm0plus.h **** #define SCB_CPUID_PARTNO_Msk               (0xFFFUL << SCB_CPUID_PARTNO_Pos)              /*!< SCB 
 382:Generated_Source\PSoC6\pdl\cmsis/include/core_cm0plus.h **** 
 383:Generated_Source\PSoC6\pdl\cmsis/include/core_cm0plus.h **** #define SCB_CPUID_REVISION_Pos              0U                                            /*!< SCB 
 384:Generated_Source\PSoC6\pdl\cmsis/include/core_cm0plus.h **** #define SCB_CPUID_REVISION_Msk             (0xFUL /*<< SCB_CPUID_REVISION_Pos*/)          /*!< SCB 
 385:Generated_Source\PSoC6\pdl\cmsis/include/core_cm0plus.h **** 
 386:Generated_Source\PSoC6\pdl\cmsis/include/core_cm0plus.h **** /* SCB Interrupt Control State Register Definitions */
 387:Generated_Source\PSoC6\pdl\cmsis/include/core_cm0plus.h **** #define SCB_ICSR_NMIPENDSET_Pos            31U                                            /*!< SCB 
 388:Generated_Source\PSoC6\pdl\cmsis/include/core_cm0plus.h **** #define SCB_ICSR_NMIPENDSET_Msk            (1UL << SCB_ICSR_NMIPENDSET_Pos)               /*!< SCB 
 389:Generated_Source\PSoC6\pdl\cmsis/include/core_cm0plus.h **** 
 390:Generated_Source\PSoC6\pdl\cmsis/include/core_cm0plus.h **** #define SCB_ICSR_PENDSVSET_Pos             28U                                            /*!< SCB 
 391:Generated_Source\PSoC6\pdl\cmsis/include/core_cm0plus.h **** #define SCB_ICSR_PENDSVSET_Msk             (1UL << SCB_ICSR_PENDSVSET_Pos)                /*!< SCB 
 392:Generated_Source\PSoC6\pdl\cmsis/include/core_cm0plus.h **** 
 393:Generated_Source\PSoC6\pdl\cmsis/include/core_cm0plus.h **** #define SCB_ICSR_PENDSVCLR_Pos             27U                                            /*!< SCB 
 394:Generated_Source\PSoC6\pdl\cmsis/include/core_cm0plus.h **** #define SCB_ICSR_PENDSVCLR_Msk             (1UL << SCB_ICSR_PENDSVCLR_Pos)                /*!< SCB 
 395:Generated_Source\PSoC6\pdl\cmsis/include/core_cm0plus.h **** 
 396:Generated_Source\PSoC6\pdl\cmsis/include/core_cm0plus.h **** #define SCB_ICSR_PENDSTSET_Pos             26U                                            /*!< SCB 
 397:Generated_Source\PSoC6\pdl\cmsis/include/core_cm0plus.h **** #define SCB_ICSR_PENDSTSET_Msk             (1UL << SCB_ICSR_PENDSTSET_Pos)                /*!< SCB 
 398:Generated_Source\PSoC6\pdl\cmsis/include/core_cm0plus.h **** 
 399:Generated_Source\PSoC6\pdl\cmsis/include/core_cm0plus.h **** #define SCB_ICSR_PENDSTCLR_Pos             25U                                            /*!< SCB 
 400:Generated_Source\PSoC6\pdl\cmsis/include/core_cm0plus.h **** #define SCB_ICSR_PENDSTCLR_Msk             (1UL << SCB_ICSR_PENDSTCLR_Pos)                /*!< SCB 
 401:Generated_Source\PSoC6\pdl\cmsis/include/core_cm0plus.h **** 
 402:Generated_Source\PSoC6\pdl\cmsis/include/core_cm0plus.h **** #define SCB_ICSR_ISRPREEMPT_Pos            23U                                            /*!< SCB 
 403:Generated_Source\PSoC6\pdl\cmsis/include/core_cm0plus.h **** #define SCB_ICSR_ISRPREEMPT_Msk            (1UL << SCB_ICSR_ISRPREEMPT_Pos)               /*!< SCB 
 404:Generated_Source\PSoC6\pdl\cmsis/include/core_cm0plus.h **** 
 405:Generated_Source\PSoC6\pdl\cmsis/include/core_cm0plus.h **** #define SCB_ICSR_ISRPENDING_Pos            22U                                            /*!< SCB 
 406:Generated_Source\PSoC6\pdl\cmsis/include/core_cm0plus.h **** #define SCB_ICSR_ISRPENDING_Msk            (1UL << SCB_ICSR_ISRPENDING_Pos)               /*!< SCB 
 407:Generated_Source\PSoC6\pdl\cmsis/include/core_cm0plus.h **** 
 408:Generated_Source\PSoC6\pdl\cmsis/include/core_cm0plus.h **** #define SCB_ICSR_VECTPENDING_Pos           12U                                            /*!< SCB 
 409:Generated_Source\PSoC6\pdl\cmsis/include/core_cm0plus.h **** #define SCB_ICSR_VECTPENDING_Msk           (0x1FFUL << SCB_ICSR_VECTPENDING_Pos)          /*!< SCB 
 410:Generated_Source\PSoC6\pdl\cmsis/include/core_cm0plus.h **** 
 411:Generated_Source\PSoC6\pdl\cmsis/include/core_cm0plus.h **** #define SCB_ICSR_VECTACTIVE_Pos             0U                                            /*!< SCB 
 412:Generated_Source\PSoC6\pdl\cmsis/include/core_cm0plus.h **** #define SCB_ICSR_VECTACTIVE_Msk            (0x1FFUL /*<< SCB_ICSR_VECTACTIVE_Pos*/)       /*!< SCB 
 413:Generated_Source\PSoC6\pdl\cmsis/include/core_cm0plus.h **** 
 414:Generated_Source\PSoC6\pdl\cmsis/include/core_cm0plus.h **** #if defined (__VTOR_PRESENT) && (__VTOR_PRESENT == 1U)
 415:Generated_Source\PSoC6\pdl\cmsis/include/core_cm0plus.h **** /* SCB Interrupt Control State Register Definitions */
 416:Generated_Source\PSoC6\pdl\cmsis/include/core_cm0plus.h **** #define SCB_VTOR_TBLOFF_Pos                 8U                                            /*!< SCB 
 417:Generated_Source\PSoC6\pdl\cmsis/include/core_cm0plus.h **** #define SCB_VTOR_TBLOFF_Msk                (0xFFFFFFUL << SCB_VTOR_TBLOFF_Pos)            /*!< SCB 
 418:Generated_Source\PSoC6\pdl\cmsis/include/core_cm0plus.h **** #endif
 419:Generated_Source\PSoC6\pdl\cmsis/include/core_cm0plus.h **** 
 420:Generated_Source\PSoC6\pdl\cmsis/include/core_cm0plus.h **** /* SCB Application Interrupt and Reset Control Register Definitions */
 421:Generated_Source\PSoC6\pdl\cmsis/include/core_cm0plus.h **** #define SCB_AIRCR_VECTKEY_Pos              16U                                            /*!< SCB 
 422:Generated_Source\PSoC6\pdl\cmsis/include/core_cm0plus.h **** #define SCB_AIRCR_VECTKEY_Msk              (0xFFFFUL << SCB_AIRCR_VECTKEY_Pos)            /*!< SCB 
 423:Generated_Source\PSoC6\pdl\cmsis/include/core_cm0plus.h **** 
ARM GAS  C:\Users\salaz\AppData\Local\Temp\ccvE4Xni.s 			page 36


 424:Generated_Source\PSoC6\pdl\cmsis/include/core_cm0plus.h **** #define SCB_AIRCR_VECTKEYSTAT_Pos          16U                                            /*!< SCB 
 425:Generated_Source\PSoC6\pdl\cmsis/include/core_cm0plus.h **** #define SCB_AIRCR_VECTKEYSTAT_Msk          (0xFFFFUL << SCB_AIRCR_VECTKEYSTAT_Pos)        /*!< SCB 
 426:Generated_Source\PSoC6\pdl\cmsis/include/core_cm0plus.h **** 
 427:Generated_Source\PSoC6\pdl\cmsis/include/core_cm0plus.h **** #define SCB_AIRCR_ENDIANESS_Pos            15U                                            /*!< SCB 
 428:Generated_Source\PSoC6\pdl\cmsis/include/core_cm0plus.h **** #define SCB_AIRCR_ENDIANESS_Msk            (1UL << SCB_AIRCR_ENDIANESS_Pos)               /*!< SCB 
 429:Generated_Source\PSoC6\pdl\cmsis/include/core_cm0plus.h **** 
 430:Generated_Source\PSoC6\pdl\cmsis/include/core_cm0plus.h **** #define SCB_AIRCR_SYSRESETREQ_Pos           2U                                            /*!< SCB 
 431:Generated_Source\PSoC6\pdl\cmsis/include/core_cm0plus.h **** #define SCB_AIRCR_SYSRESETREQ_Msk          (1UL << SCB_AIRCR_SYSRESETREQ_Pos)             /*!< SCB 
 432:Generated_Source\PSoC6\pdl\cmsis/include/core_cm0plus.h **** 
 433:Generated_Source\PSoC6\pdl\cmsis/include/core_cm0plus.h **** #define SCB_AIRCR_VECTCLRACTIVE_Pos         1U                                            /*!< SCB 
 434:Generated_Source\PSoC6\pdl\cmsis/include/core_cm0plus.h **** #define SCB_AIRCR_VECTCLRACTIVE_Msk        (1UL << SCB_AIRCR_VECTCLRACTIVE_Pos)           /*!< SCB 
 435:Generated_Source\PSoC6\pdl\cmsis/include/core_cm0plus.h **** 
 436:Generated_Source\PSoC6\pdl\cmsis/include/core_cm0plus.h **** /* SCB System Control Register Definitions */
 437:Generated_Source\PSoC6\pdl\cmsis/include/core_cm0plus.h **** #define SCB_SCR_SEVONPEND_Pos               4U                                            /*!< SCB 
 438:Generated_Source\PSoC6\pdl\cmsis/include/core_cm0plus.h **** #define SCB_SCR_SEVONPEND_Msk              (1UL << SCB_SCR_SEVONPEND_Pos)                 /*!< SCB 
 439:Generated_Source\PSoC6\pdl\cmsis/include/core_cm0plus.h **** 
 440:Generated_Source\PSoC6\pdl\cmsis/include/core_cm0plus.h **** #define SCB_SCR_SLEEPDEEP_Pos               2U                                            /*!< SCB 
 441:Generated_Source\PSoC6\pdl\cmsis/include/core_cm0plus.h **** #define SCB_SCR_SLEEPDEEP_Msk              (1UL << SCB_SCR_SLEEPDEEP_Pos)                 /*!< SCB 
 442:Generated_Source\PSoC6\pdl\cmsis/include/core_cm0plus.h **** 
 443:Generated_Source\PSoC6\pdl\cmsis/include/core_cm0plus.h **** #define SCB_SCR_SLEEPONEXIT_Pos             1U                                            /*!< SCB 
 444:Generated_Source\PSoC6\pdl\cmsis/include/core_cm0plus.h **** #define SCB_SCR_SLEEPONEXIT_Msk            (1UL << SCB_SCR_SLEEPONEXIT_Pos)               /*!< SCB 
 445:Generated_Source\PSoC6\pdl\cmsis/include/core_cm0plus.h **** 
 446:Generated_Source\PSoC6\pdl\cmsis/include/core_cm0plus.h **** /* SCB Configuration Control Register Definitions */
 447:Generated_Source\PSoC6\pdl\cmsis/include/core_cm0plus.h **** #define SCB_CCR_STKALIGN_Pos                9U                                            /*!< SCB 
 448:Generated_Source\PSoC6\pdl\cmsis/include/core_cm0plus.h **** #define SCB_CCR_STKALIGN_Msk               (1UL << SCB_CCR_STKALIGN_Pos)                  /*!< SCB 
 449:Generated_Source\PSoC6\pdl\cmsis/include/core_cm0plus.h **** 
 450:Generated_Source\PSoC6\pdl\cmsis/include/core_cm0plus.h **** #define SCB_CCR_UNALIGN_TRP_Pos             3U                                            /*!< SCB 
 451:Generated_Source\PSoC6\pdl\cmsis/include/core_cm0plus.h **** #define SCB_CCR_UNALIGN_TRP_Msk            (1UL << SCB_CCR_UNALIGN_TRP_Pos)               /*!< SCB 
 452:Generated_Source\PSoC6\pdl\cmsis/include/core_cm0plus.h **** 
 453:Generated_Source\PSoC6\pdl\cmsis/include/core_cm0plus.h **** /* SCB System Handler Control and State Register Definitions */
 454:Generated_Source\PSoC6\pdl\cmsis/include/core_cm0plus.h **** #define SCB_SHCSR_SVCALLPENDED_Pos         15U                                            /*!< SCB 
 455:Generated_Source\PSoC6\pdl\cmsis/include/core_cm0plus.h **** #define SCB_SHCSR_SVCALLPENDED_Msk         (1UL << SCB_SHCSR_SVCALLPENDED_Pos)            /*!< SCB 
 456:Generated_Source\PSoC6\pdl\cmsis/include/core_cm0plus.h **** 
 457:Generated_Source\PSoC6\pdl\cmsis/include/core_cm0plus.h **** /*@} end of group CMSIS_SCB */
 458:Generated_Source\PSoC6\pdl\cmsis/include/core_cm0plus.h **** 
 459:Generated_Source\PSoC6\pdl\cmsis/include/core_cm0plus.h **** 
 460:Generated_Source\PSoC6\pdl\cmsis/include/core_cm0plus.h **** /**
 461:Generated_Source\PSoC6\pdl\cmsis/include/core_cm0plus.h ****   \ingroup  CMSIS_core_register
 462:Generated_Source\PSoC6\pdl\cmsis/include/core_cm0plus.h ****   \defgroup CMSIS_SysTick     System Tick Timer (SysTick)
 463:Generated_Source\PSoC6\pdl\cmsis/include/core_cm0plus.h ****   \brief    Type definitions for the System Timer Registers.
 464:Generated_Source\PSoC6\pdl\cmsis/include/core_cm0plus.h ****   @{
 465:Generated_Source\PSoC6\pdl\cmsis/include/core_cm0plus.h ****  */
 466:Generated_Source\PSoC6\pdl\cmsis/include/core_cm0plus.h **** 
 467:Generated_Source\PSoC6\pdl\cmsis/include/core_cm0plus.h **** /**
 468:Generated_Source\PSoC6\pdl\cmsis/include/core_cm0plus.h ****   \brief  Structure type to access the System Timer (SysTick).
 469:Generated_Source\PSoC6\pdl\cmsis/include/core_cm0plus.h ****  */
 470:Generated_Source\PSoC6\pdl\cmsis/include/core_cm0plus.h **** typedef struct
 471:Generated_Source\PSoC6\pdl\cmsis/include/core_cm0plus.h **** {
 472:Generated_Source\PSoC6\pdl\cmsis/include/core_cm0plus.h ****   __IOM uint32_t CTRL;                   /*!< Offset: 0x000 (R/W)  SysTick Control and Status Regis
 473:Generated_Source\PSoC6\pdl\cmsis/include/core_cm0plus.h ****   __IOM uint32_t LOAD;                   /*!< Offset: 0x004 (R/W)  SysTick Reload Value Register */
 474:Generated_Source\PSoC6\pdl\cmsis/include/core_cm0plus.h ****   __IOM uint32_t VAL;                    /*!< Offset: 0x008 (R/W)  SysTick Current Value Register *
 475:Generated_Source\PSoC6\pdl\cmsis/include/core_cm0plus.h ****   __IM  uint32_t CALIB;                  /*!< Offset: 0x00C (R/ )  SysTick Calibration Register */
 476:Generated_Source\PSoC6\pdl\cmsis/include/core_cm0plus.h **** } SysTick_Type;
 477:Generated_Source\PSoC6\pdl\cmsis/include/core_cm0plus.h **** 
 478:Generated_Source\PSoC6\pdl\cmsis/include/core_cm0plus.h **** /* SysTick Control / Status Register Definitions */
 479:Generated_Source\PSoC6\pdl\cmsis/include/core_cm0plus.h **** #define SysTick_CTRL_COUNTFLAG_Pos         16U                                            /*!< SysT
 480:Generated_Source\PSoC6\pdl\cmsis/include/core_cm0plus.h **** #define SysTick_CTRL_COUNTFLAG_Msk         (1UL << SysTick_CTRL_COUNTFLAG_Pos)            /*!< SysT
ARM GAS  C:\Users\salaz\AppData\Local\Temp\ccvE4Xni.s 			page 37


 481:Generated_Source\PSoC6\pdl\cmsis/include/core_cm0plus.h **** 
 482:Generated_Source\PSoC6\pdl\cmsis/include/core_cm0plus.h **** #define SysTick_CTRL_CLKSOURCE_Pos          2U                                            /*!< SysT
 483:Generated_Source\PSoC6\pdl\cmsis/include/core_cm0plus.h **** #define SysTick_CTRL_CLKSOURCE_Msk         (1UL << SysTick_CTRL_CLKSOURCE_Pos)            /*!< SysT
 484:Generated_Source\PSoC6\pdl\cmsis/include/core_cm0plus.h **** 
 485:Generated_Source\PSoC6\pdl\cmsis/include/core_cm0plus.h **** #define SysTick_CTRL_TICKINT_Pos            1U                                            /*!< SysT
 486:Generated_Source\PSoC6\pdl\cmsis/include/core_cm0plus.h **** #define SysTick_CTRL_TICKINT_Msk           (1UL << SysTick_CTRL_TICKINT_Pos)              /*!< SysT
 487:Generated_Source\PSoC6\pdl\cmsis/include/core_cm0plus.h **** 
 488:Generated_Source\PSoC6\pdl\cmsis/include/core_cm0plus.h **** #define SysTick_CTRL_ENABLE_Pos             0U                                            /*!< SysT
 489:Generated_Source\PSoC6\pdl\cmsis/include/core_cm0plus.h **** #define SysTick_CTRL_ENABLE_Msk            (1UL /*<< SysTick_CTRL_ENABLE_Pos*/)           /*!< SysT
 490:Generated_Source\PSoC6\pdl\cmsis/include/core_cm0plus.h **** 
 491:Generated_Source\PSoC6\pdl\cmsis/include/core_cm0plus.h **** /* SysTick Reload Register Definitions */
 492:Generated_Source\PSoC6\pdl\cmsis/include/core_cm0plus.h **** #define SysTick_LOAD_RELOAD_Pos             0U                                            /*!< SysT
 493:Generated_Source\PSoC6\pdl\cmsis/include/core_cm0plus.h **** #define SysTick_LOAD_RELOAD_Msk            (0xFFFFFFUL /*<< SysTick_LOAD_RELOAD_Pos*/)    /*!< SysT
 494:Generated_Source\PSoC6\pdl\cmsis/include/core_cm0plus.h **** 
 495:Generated_Source\PSoC6\pdl\cmsis/include/core_cm0plus.h **** /* SysTick Current Register Definitions */
 496:Generated_Source\PSoC6\pdl\cmsis/include/core_cm0plus.h **** #define SysTick_VAL_CURRENT_Pos             0U                                            /*!< SysT
 497:Generated_Source\PSoC6\pdl\cmsis/include/core_cm0plus.h **** #define SysTick_VAL_CURRENT_Msk            (0xFFFFFFUL /*<< SysTick_VAL_CURRENT_Pos*/)    /*!< SysT
 498:Generated_Source\PSoC6\pdl\cmsis/include/core_cm0plus.h **** 
 499:Generated_Source\PSoC6\pdl\cmsis/include/core_cm0plus.h **** /* SysTick Calibration Register Definitions */
 500:Generated_Source\PSoC6\pdl\cmsis/include/core_cm0plus.h **** #define SysTick_CALIB_NOREF_Pos            31U                                            /*!< SysT
 501:Generated_Source\PSoC6\pdl\cmsis/include/core_cm0plus.h **** #define SysTick_CALIB_NOREF_Msk            (1UL << SysTick_CALIB_NOREF_Pos)               /*!< SysT
 502:Generated_Source\PSoC6\pdl\cmsis/include/core_cm0plus.h **** 
 503:Generated_Source\PSoC6\pdl\cmsis/include/core_cm0plus.h **** #define SysTick_CALIB_SKEW_Pos             30U                                            /*!< SysT
 504:Generated_Source\PSoC6\pdl\cmsis/include/core_cm0plus.h **** #define SysTick_CALIB_SKEW_Msk             (1UL << SysTick_CALIB_SKEW_Pos)                /*!< SysT
 505:Generated_Source\PSoC6\pdl\cmsis/include/core_cm0plus.h **** 
 506:Generated_Source\PSoC6\pdl\cmsis/include/core_cm0plus.h **** #define SysTick_CALIB_TENMS_Pos             0U                                            /*!< SysT
 507:Generated_Source\PSoC6\pdl\cmsis/include/core_cm0plus.h **** #define SysTick_CALIB_TENMS_Msk            (0xFFFFFFUL /*<< SysTick_CALIB_TENMS_Pos*/)    /*!< SysT
 508:Generated_Source\PSoC6\pdl\cmsis/include/core_cm0plus.h **** 
 509:Generated_Source\PSoC6\pdl\cmsis/include/core_cm0plus.h **** /*@} end of group CMSIS_SysTick */
 510:Generated_Source\PSoC6\pdl\cmsis/include/core_cm0plus.h **** 
 511:Generated_Source\PSoC6\pdl\cmsis/include/core_cm0plus.h **** #if defined (__MPU_PRESENT) && (__MPU_PRESENT == 1U)
 512:Generated_Source\PSoC6\pdl\cmsis/include/core_cm0plus.h **** /**
 513:Generated_Source\PSoC6\pdl\cmsis/include/core_cm0plus.h ****   \ingroup  CMSIS_core_register
 514:Generated_Source\PSoC6\pdl\cmsis/include/core_cm0plus.h ****   \defgroup CMSIS_MPU     Memory Protection Unit (MPU)
 515:Generated_Source\PSoC6\pdl\cmsis/include/core_cm0plus.h ****   \brief    Type definitions for the Memory Protection Unit (MPU)
 516:Generated_Source\PSoC6\pdl\cmsis/include/core_cm0plus.h ****   @{
 517:Generated_Source\PSoC6\pdl\cmsis/include/core_cm0plus.h ****  */
 518:Generated_Source\PSoC6\pdl\cmsis/include/core_cm0plus.h **** 
 519:Generated_Source\PSoC6\pdl\cmsis/include/core_cm0plus.h **** /**
 520:Generated_Source\PSoC6\pdl\cmsis/include/core_cm0plus.h ****   \brief  Structure type to access the Memory Protection Unit (MPU).
 521:Generated_Source\PSoC6\pdl\cmsis/include/core_cm0plus.h ****  */
 522:Generated_Source\PSoC6\pdl\cmsis/include/core_cm0plus.h **** typedef struct
 523:Generated_Source\PSoC6\pdl\cmsis/include/core_cm0plus.h **** {
 524:Generated_Source\PSoC6\pdl\cmsis/include/core_cm0plus.h ****   __IM  uint32_t TYPE;                   /*!< Offset: 0x000 (R/ )  MPU Type Register */
 525:Generated_Source\PSoC6\pdl\cmsis/include/core_cm0plus.h ****   __IOM uint32_t CTRL;                   /*!< Offset: 0x004 (R/W)  MPU Control Register */
 526:Generated_Source\PSoC6\pdl\cmsis/include/core_cm0plus.h ****   __IOM uint32_t RNR;                    /*!< Offset: 0x008 (R/W)  MPU Region RNRber Register */
 527:Generated_Source\PSoC6\pdl\cmsis/include/core_cm0plus.h ****   __IOM uint32_t RBAR;                   /*!< Offset: 0x00C (R/W)  MPU Region Base Address Register
 528:Generated_Source\PSoC6\pdl\cmsis/include/core_cm0plus.h ****   __IOM uint32_t RASR;                   /*!< Offset: 0x010 (R/W)  MPU Region Attribute and Size Re
 529:Generated_Source\PSoC6\pdl\cmsis/include/core_cm0plus.h **** } MPU_Type;
 530:Generated_Source\PSoC6\pdl\cmsis/include/core_cm0plus.h **** 
 531:Generated_Source\PSoC6\pdl\cmsis/include/core_cm0plus.h **** /* MPU Type Register Definitions */
 532:Generated_Source\PSoC6\pdl\cmsis/include/core_cm0plus.h **** #define MPU_TYPE_IREGION_Pos               16U                                            /*!< MPU 
 533:Generated_Source\PSoC6\pdl\cmsis/include/core_cm0plus.h **** #define MPU_TYPE_IREGION_Msk               (0xFFUL << MPU_TYPE_IREGION_Pos)               /*!< MPU 
 534:Generated_Source\PSoC6\pdl\cmsis/include/core_cm0plus.h **** 
 535:Generated_Source\PSoC6\pdl\cmsis/include/core_cm0plus.h **** #define MPU_TYPE_DREGION_Pos                8U                                            /*!< MPU 
 536:Generated_Source\PSoC6\pdl\cmsis/include/core_cm0plus.h **** #define MPU_TYPE_DREGION_Msk               (0xFFUL << MPU_TYPE_DREGION_Pos)               /*!< MPU 
 537:Generated_Source\PSoC6\pdl\cmsis/include/core_cm0plus.h **** 
ARM GAS  C:\Users\salaz\AppData\Local\Temp\ccvE4Xni.s 			page 38


 538:Generated_Source\PSoC6\pdl\cmsis/include/core_cm0plus.h **** #define MPU_TYPE_SEPARATE_Pos               0U                                            /*!< MPU 
 539:Generated_Source\PSoC6\pdl\cmsis/include/core_cm0plus.h **** #define MPU_TYPE_SEPARATE_Msk              (1UL /*<< MPU_TYPE_SEPARATE_Pos*/)             /*!< MPU 
 540:Generated_Source\PSoC6\pdl\cmsis/include/core_cm0plus.h **** 
 541:Generated_Source\PSoC6\pdl\cmsis/include/core_cm0plus.h **** /* MPU Control Register Definitions */
 542:Generated_Source\PSoC6\pdl\cmsis/include/core_cm0plus.h **** #define MPU_CTRL_PRIVDEFENA_Pos             2U                                            /*!< MPU 
 543:Generated_Source\PSoC6\pdl\cmsis/include/core_cm0plus.h **** #define MPU_CTRL_PRIVDEFENA_Msk            (1UL << MPU_CTRL_PRIVDEFENA_Pos)               /*!< MPU 
 544:Generated_Source\PSoC6\pdl\cmsis/include/core_cm0plus.h **** 
 545:Generated_Source\PSoC6\pdl\cmsis/include/core_cm0plus.h **** #define MPU_CTRL_HFNMIENA_Pos               1U                                            /*!< MPU 
 546:Generated_Source\PSoC6\pdl\cmsis/include/core_cm0plus.h **** #define MPU_CTRL_HFNMIENA_Msk              (1UL << MPU_CTRL_HFNMIENA_Pos)                 /*!< MPU 
 547:Generated_Source\PSoC6\pdl\cmsis/include/core_cm0plus.h **** 
 548:Generated_Source\PSoC6\pdl\cmsis/include/core_cm0plus.h **** #define MPU_CTRL_ENABLE_Pos                 0U                                            /*!< MPU 
 549:Generated_Source\PSoC6\pdl\cmsis/include/core_cm0plus.h **** #define MPU_CTRL_ENABLE_Msk                (1UL /*<< MPU_CTRL_ENABLE_Pos*/)               /*!< MPU 
 550:Generated_Source\PSoC6\pdl\cmsis/include/core_cm0plus.h **** 
 551:Generated_Source\PSoC6\pdl\cmsis/include/core_cm0plus.h **** /* MPU Region Number Register Definitions */
 552:Generated_Source\PSoC6\pdl\cmsis/include/core_cm0plus.h **** #define MPU_RNR_REGION_Pos                  0U                                            /*!< MPU 
 553:Generated_Source\PSoC6\pdl\cmsis/include/core_cm0plus.h **** #define MPU_RNR_REGION_Msk                 (0xFFUL /*<< MPU_RNR_REGION_Pos*/)             /*!< MPU 
 554:Generated_Source\PSoC6\pdl\cmsis/include/core_cm0plus.h **** 
 555:Generated_Source\PSoC6\pdl\cmsis/include/core_cm0plus.h **** /* MPU Region Base Address Register Definitions */
 556:Generated_Source\PSoC6\pdl\cmsis/include/core_cm0plus.h **** #define MPU_RBAR_ADDR_Pos                   8U                                            /*!< MPU 
 557:Generated_Source\PSoC6\pdl\cmsis/include/core_cm0plus.h **** #define MPU_RBAR_ADDR_Msk                  (0xFFFFFFUL << MPU_RBAR_ADDR_Pos)              /*!< MPU 
 558:Generated_Source\PSoC6\pdl\cmsis/include/core_cm0plus.h **** 
 559:Generated_Source\PSoC6\pdl\cmsis/include/core_cm0plus.h **** #define MPU_RBAR_VALID_Pos                  4U                                            /*!< MPU 
 560:Generated_Source\PSoC6\pdl\cmsis/include/core_cm0plus.h **** #define MPU_RBAR_VALID_Msk                 (1UL << MPU_RBAR_VALID_Pos)                    /*!< MPU 
 561:Generated_Source\PSoC6\pdl\cmsis/include/core_cm0plus.h **** 
 562:Generated_Source\PSoC6\pdl\cmsis/include/core_cm0plus.h **** #define MPU_RBAR_REGION_Pos                 0U                                            /*!< MPU 
 563:Generated_Source\PSoC6\pdl\cmsis/include/core_cm0plus.h **** #define MPU_RBAR_REGION_Msk                (0xFUL /*<< MPU_RBAR_REGION_Pos*/)             /*!< MPU 
 564:Generated_Source\PSoC6\pdl\cmsis/include/core_cm0plus.h **** 
 565:Generated_Source\PSoC6\pdl\cmsis/include/core_cm0plus.h **** /* MPU Region Attribute and Size Register Definitions */
 566:Generated_Source\PSoC6\pdl\cmsis/include/core_cm0plus.h **** #define MPU_RASR_ATTRS_Pos                 16U                                            /*!< MPU 
 567:Generated_Source\PSoC6\pdl\cmsis/include/core_cm0plus.h **** #define MPU_RASR_ATTRS_Msk                 (0xFFFFUL << MPU_RASR_ATTRS_Pos)               /*!< MPU 
 568:Generated_Source\PSoC6\pdl\cmsis/include/core_cm0plus.h **** 
 569:Generated_Source\PSoC6\pdl\cmsis/include/core_cm0plus.h **** #define MPU_RASR_XN_Pos                    28U                                            /*!< MPU 
 570:Generated_Source\PSoC6\pdl\cmsis/include/core_cm0plus.h **** #define MPU_RASR_XN_Msk                    (1UL << MPU_RASR_XN_Pos)                       /*!< MPU 
 571:Generated_Source\PSoC6\pdl\cmsis/include/core_cm0plus.h **** 
 572:Generated_Source\PSoC6\pdl\cmsis/include/core_cm0plus.h **** #define MPU_RASR_AP_Pos                    24U                                            /*!< MPU 
 573:Generated_Source\PSoC6\pdl\cmsis/include/core_cm0plus.h **** #define MPU_RASR_AP_Msk                    (0x7UL << MPU_RASR_AP_Pos)                     /*!< MPU 
 574:Generated_Source\PSoC6\pdl\cmsis/include/core_cm0plus.h **** 
 575:Generated_Source\PSoC6\pdl\cmsis/include/core_cm0plus.h **** #define MPU_RASR_TEX_Pos                   19U                                            /*!< MPU 
 576:Generated_Source\PSoC6\pdl\cmsis/include/core_cm0plus.h **** #define MPU_RASR_TEX_Msk                   (0x7UL << MPU_RASR_TEX_Pos)                    /*!< MPU 
 577:Generated_Source\PSoC6\pdl\cmsis/include/core_cm0plus.h **** 
 578:Generated_Source\PSoC6\pdl\cmsis/include/core_cm0plus.h **** #define MPU_RASR_S_Pos                     18U                                            /*!< MPU 
 579:Generated_Source\PSoC6\pdl\cmsis/include/core_cm0plus.h **** #define MPU_RASR_S_Msk                     (1UL << MPU_RASR_S_Pos)                        /*!< MPU 
 580:Generated_Source\PSoC6\pdl\cmsis/include/core_cm0plus.h **** 
 581:Generated_Source\PSoC6\pdl\cmsis/include/core_cm0plus.h **** #define MPU_RASR_C_Pos                     17U                                            /*!< MPU 
 582:Generated_Source\PSoC6\pdl\cmsis/include/core_cm0plus.h **** #define MPU_RASR_C_Msk                     (1UL << MPU_RASR_C_Pos)                        /*!< MPU 
 583:Generated_Source\PSoC6\pdl\cmsis/include/core_cm0plus.h **** 
 584:Generated_Source\PSoC6\pdl\cmsis/include/core_cm0plus.h **** #define MPU_RASR_B_Pos                     16U                                            /*!< MPU 
 585:Generated_Source\PSoC6\pdl\cmsis/include/core_cm0plus.h **** #define MPU_RASR_B_Msk                     (1UL << MPU_RASR_B_Pos)                        /*!< MPU 
 586:Generated_Source\PSoC6\pdl\cmsis/include/core_cm0plus.h **** 
 587:Generated_Source\PSoC6\pdl\cmsis/include/core_cm0plus.h **** #define MPU_RASR_SRD_Pos                    8U                                            /*!< MPU 
 588:Generated_Source\PSoC6\pdl\cmsis/include/core_cm0plus.h **** #define MPU_RASR_SRD_Msk                   (0xFFUL << MPU_RASR_SRD_Pos)                   /*!< MPU 
 589:Generated_Source\PSoC6\pdl\cmsis/include/core_cm0plus.h **** 
 590:Generated_Source\PSoC6\pdl\cmsis/include/core_cm0plus.h **** #define MPU_RASR_SIZE_Pos                   1U                                            /*!< MPU 
 591:Generated_Source\PSoC6\pdl\cmsis/include/core_cm0plus.h **** #define MPU_RASR_SIZE_Msk                  (0x1FUL << MPU_RASR_SIZE_Pos)                  /*!< MPU 
 592:Generated_Source\PSoC6\pdl\cmsis/include/core_cm0plus.h **** 
 593:Generated_Source\PSoC6\pdl\cmsis/include/core_cm0plus.h **** #define MPU_RASR_ENABLE_Pos                 0U                                            /*!< MPU 
 594:Generated_Source\PSoC6\pdl\cmsis/include/core_cm0plus.h **** #define MPU_RASR_ENABLE_Msk                (1UL /*<< MPU_RASR_ENABLE_Pos*/)               /*!< MPU 
ARM GAS  C:\Users\salaz\AppData\Local\Temp\ccvE4Xni.s 			page 39


 595:Generated_Source\PSoC6\pdl\cmsis/include/core_cm0plus.h **** 
 596:Generated_Source\PSoC6\pdl\cmsis/include/core_cm0plus.h **** /*@} end of group CMSIS_MPU */
 597:Generated_Source\PSoC6\pdl\cmsis/include/core_cm0plus.h **** #endif
 598:Generated_Source\PSoC6\pdl\cmsis/include/core_cm0plus.h **** 
 599:Generated_Source\PSoC6\pdl\cmsis/include/core_cm0plus.h **** 
 600:Generated_Source\PSoC6\pdl\cmsis/include/core_cm0plus.h **** /**
 601:Generated_Source\PSoC6\pdl\cmsis/include/core_cm0plus.h ****   \ingroup  CMSIS_core_register
 602:Generated_Source\PSoC6\pdl\cmsis/include/core_cm0plus.h ****   \defgroup CMSIS_CoreDebug       Core Debug Registers (CoreDebug)
 603:Generated_Source\PSoC6\pdl\cmsis/include/core_cm0plus.h ****   \brief    Cortex-M0+ Core Debug Registers (DCB registers, SHCSR, and DFSR) are only accessible ov
 604:Generated_Source\PSoC6\pdl\cmsis/include/core_cm0plus.h ****             Therefore they are not covered by the Cortex-M0+ header file.
 605:Generated_Source\PSoC6\pdl\cmsis/include/core_cm0plus.h ****   @{
 606:Generated_Source\PSoC6\pdl\cmsis/include/core_cm0plus.h ****  */
 607:Generated_Source\PSoC6\pdl\cmsis/include/core_cm0plus.h **** /*@} end of group CMSIS_CoreDebug */
 608:Generated_Source\PSoC6\pdl\cmsis/include/core_cm0plus.h **** 
 609:Generated_Source\PSoC6\pdl\cmsis/include/core_cm0plus.h **** 
 610:Generated_Source\PSoC6\pdl\cmsis/include/core_cm0plus.h **** /**
 611:Generated_Source\PSoC6\pdl\cmsis/include/core_cm0plus.h ****   \ingroup    CMSIS_core_register
 612:Generated_Source\PSoC6\pdl\cmsis/include/core_cm0plus.h ****   \defgroup   CMSIS_core_bitfield     Core register bit field macros
 613:Generated_Source\PSoC6\pdl\cmsis/include/core_cm0plus.h ****   \brief      Macros for use with bit field definitions (xxx_Pos, xxx_Msk).
 614:Generated_Source\PSoC6\pdl\cmsis/include/core_cm0plus.h ****   @{
 615:Generated_Source\PSoC6\pdl\cmsis/include/core_cm0plus.h ****  */
 616:Generated_Source\PSoC6\pdl\cmsis/include/core_cm0plus.h **** 
 617:Generated_Source\PSoC6\pdl\cmsis/include/core_cm0plus.h **** /**
 618:Generated_Source\PSoC6\pdl\cmsis/include/core_cm0plus.h ****   \brief   Mask and shift a bit field value for use in a register bit range.
 619:Generated_Source\PSoC6\pdl\cmsis/include/core_cm0plus.h ****   \param[in] field  Name of the register bit field.
 620:Generated_Source\PSoC6\pdl\cmsis/include/core_cm0plus.h ****   \param[in] value  Value of the bit field. This parameter is interpreted as an uint32_t type.
 621:Generated_Source\PSoC6\pdl\cmsis/include/core_cm0plus.h ****   \return           Masked and shifted value.
 622:Generated_Source\PSoC6\pdl\cmsis/include/core_cm0plus.h **** */
 623:Generated_Source\PSoC6\pdl\cmsis/include/core_cm0plus.h **** #define _VAL2FLD(field, value)    (((uint32_t)(value) << field ## _Pos) & field ## _Msk)
 624:Generated_Source\PSoC6\pdl\cmsis/include/core_cm0plus.h **** 
 625:Generated_Source\PSoC6\pdl\cmsis/include/core_cm0plus.h **** /**
 626:Generated_Source\PSoC6\pdl\cmsis/include/core_cm0plus.h ****   \brief     Mask and shift a register value to extract a bit filed value.
 627:Generated_Source\PSoC6\pdl\cmsis/include/core_cm0plus.h ****   \param[in] field  Name of the register bit field.
 628:Generated_Source\PSoC6\pdl\cmsis/include/core_cm0plus.h ****   \param[in] value  Value of register. This parameter is interpreted as an uint32_t type.
 629:Generated_Source\PSoC6\pdl\cmsis/include/core_cm0plus.h ****   \return           Masked and shifted bit field value.
 630:Generated_Source\PSoC6\pdl\cmsis/include/core_cm0plus.h **** */
 631:Generated_Source\PSoC6\pdl\cmsis/include/core_cm0plus.h **** #define _FLD2VAL(field, value)    (((uint32_t)(value) & field ## _Msk) >> field ## _Pos)
 632:Generated_Source\PSoC6\pdl\cmsis/include/core_cm0plus.h **** 
 633:Generated_Source\PSoC6\pdl\cmsis/include/core_cm0plus.h **** /*@} end of group CMSIS_core_bitfield */
 634:Generated_Source\PSoC6\pdl\cmsis/include/core_cm0plus.h **** 
 635:Generated_Source\PSoC6\pdl\cmsis/include/core_cm0plus.h **** 
 636:Generated_Source\PSoC6\pdl\cmsis/include/core_cm0plus.h **** /**
 637:Generated_Source\PSoC6\pdl\cmsis/include/core_cm0plus.h ****   \ingroup    CMSIS_core_register
 638:Generated_Source\PSoC6\pdl\cmsis/include/core_cm0plus.h ****   \defgroup   CMSIS_core_base     Core Definitions
 639:Generated_Source\PSoC6\pdl\cmsis/include/core_cm0plus.h ****   \brief      Definitions for base addresses, unions, and structures.
 640:Generated_Source\PSoC6\pdl\cmsis/include/core_cm0plus.h ****   @{
 641:Generated_Source\PSoC6\pdl\cmsis/include/core_cm0plus.h ****  */
 642:Generated_Source\PSoC6\pdl\cmsis/include/core_cm0plus.h **** 
 643:Generated_Source\PSoC6\pdl\cmsis/include/core_cm0plus.h **** /* Memory mapping of Core Hardware */
 644:Generated_Source\PSoC6\pdl\cmsis/include/core_cm0plus.h **** #define SCS_BASE            (0xE000E000UL)                            /*!< System Control Space Bas
 645:Generated_Source\PSoC6\pdl\cmsis/include/core_cm0plus.h **** #define SysTick_BASE        (SCS_BASE +  0x0010UL)                    /*!< SysTick Base Address */
 646:Generated_Source\PSoC6\pdl\cmsis/include/core_cm0plus.h **** #define NVIC_BASE           (SCS_BASE +  0x0100UL)                    /*!< NVIC Base Address */
 647:Generated_Source\PSoC6\pdl\cmsis/include/core_cm0plus.h **** #define SCB_BASE            (SCS_BASE +  0x0D00UL)                    /*!< System Control Block Bas
 648:Generated_Source\PSoC6\pdl\cmsis/include/core_cm0plus.h **** 
 649:Generated_Source\PSoC6\pdl\cmsis/include/core_cm0plus.h **** #define SCB                 ((SCB_Type       *)     SCB_BASE      )   /*!< SCB configuration struct
 650:Generated_Source\PSoC6\pdl\cmsis/include/core_cm0plus.h **** #define SysTick             ((SysTick_Type   *)     SysTick_BASE  )   /*!< SysTick configuration st
 651:Generated_Source\PSoC6\pdl\cmsis/include/core_cm0plus.h **** #define NVIC                ((NVIC_Type      *)     NVIC_BASE     )   /*!< NVIC configuration struc
ARM GAS  C:\Users\salaz\AppData\Local\Temp\ccvE4Xni.s 			page 40


 652:Generated_Source\PSoC6\pdl\cmsis/include/core_cm0plus.h **** 
 653:Generated_Source\PSoC6\pdl\cmsis/include/core_cm0plus.h **** #if defined (__MPU_PRESENT) && (__MPU_PRESENT == 1U)
 654:Generated_Source\PSoC6\pdl\cmsis/include/core_cm0plus.h ****   #define MPU_BASE          (SCS_BASE +  0x0D90UL)                    /*!< Memory Protection Unit *
 655:Generated_Source\PSoC6\pdl\cmsis/include/core_cm0plus.h ****   #define MPU               ((MPU_Type       *)     MPU_BASE      )   /*!< Memory Protection Unit *
 656:Generated_Source\PSoC6\pdl\cmsis/include/core_cm0plus.h **** #endif
 657:Generated_Source\PSoC6\pdl\cmsis/include/core_cm0plus.h **** 
 658:Generated_Source\PSoC6\pdl\cmsis/include/core_cm0plus.h **** /*@} */
 659:Generated_Source\PSoC6\pdl\cmsis/include/core_cm0plus.h **** 
 660:Generated_Source\PSoC6\pdl\cmsis/include/core_cm0plus.h **** 
 661:Generated_Source\PSoC6\pdl\cmsis/include/core_cm0plus.h **** 
 662:Generated_Source\PSoC6\pdl\cmsis/include/core_cm0plus.h **** /*******************************************************************************
 663:Generated_Source\PSoC6\pdl\cmsis/include/core_cm0plus.h ****  *                Hardware Abstraction Layer
 664:Generated_Source\PSoC6\pdl\cmsis/include/core_cm0plus.h ****   Core Function Interface contains:
 665:Generated_Source\PSoC6\pdl\cmsis/include/core_cm0plus.h ****   - Core NVIC Functions
 666:Generated_Source\PSoC6\pdl\cmsis/include/core_cm0plus.h ****   - Core SysTick Functions
 667:Generated_Source\PSoC6\pdl\cmsis/include/core_cm0plus.h ****   - Core Register Access Functions
 668:Generated_Source\PSoC6\pdl\cmsis/include/core_cm0plus.h ****  ******************************************************************************/
 669:Generated_Source\PSoC6\pdl\cmsis/include/core_cm0plus.h **** /**
 670:Generated_Source\PSoC6\pdl\cmsis/include/core_cm0plus.h ****   \defgroup CMSIS_Core_FunctionInterface Functions and Instructions Reference
 671:Generated_Source\PSoC6\pdl\cmsis/include/core_cm0plus.h **** */
 672:Generated_Source\PSoC6\pdl\cmsis/include/core_cm0plus.h **** 
 673:Generated_Source\PSoC6\pdl\cmsis/include/core_cm0plus.h **** 
 674:Generated_Source\PSoC6\pdl\cmsis/include/core_cm0plus.h **** 
 675:Generated_Source\PSoC6\pdl\cmsis/include/core_cm0plus.h **** /* ##########################   NVIC functions  #################################### */
 676:Generated_Source\PSoC6\pdl\cmsis/include/core_cm0plus.h **** /**
 677:Generated_Source\PSoC6\pdl\cmsis/include/core_cm0plus.h ****   \ingroup  CMSIS_Core_FunctionInterface
 678:Generated_Source\PSoC6\pdl\cmsis/include/core_cm0plus.h ****   \defgroup CMSIS_Core_NVICFunctions NVIC Functions
 679:Generated_Source\PSoC6\pdl\cmsis/include/core_cm0plus.h ****   \brief    Functions that manage interrupts and exceptions via the NVIC.
 680:Generated_Source\PSoC6\pdl\cmsis/include/core_cm0plus.h ****   @{
 681:Generated_Source\PSoC6\pdl\cmsis/include/core_cm0plus.h ****  */
 682:Generated_Source\PSoC6\pdl\cmsis/include/core_cm0plus.h **** 
 683:Generated_Source\PSoC6\pdl\cmsis/include/core_cm0plus.h **** #ifndef CMSIS_NVIC_VIRTUAL
 684:Generated_Source\PSoC6\pdl\cmsis/include/core_cm0plus.h **** /*#define NVIC_SetPriorityGrouping    __NVIC_SetPriorityGrouping   not available for Cortex-M0+ */
 685:Generated_Source\PSoC6\pdl\cmsis/include/core_cm0plus.h **** /*#define NVIC_GetPriorityGrouping    __NVIC_GetPriorityGrouping   not available for Cortex-M0+ */
 686:Generated_Source\PSoC6\pdl\cmsis/include/core_cm0plus.h ****   #define NVIC_EnableIRQ              __NVIC_EnableIRQ
 687:Generated_Source\PSoC6\pdl\cmsis/include/core_cm0plus.h ****   #define NVIC_GetEnableIRQ           __NVIC_GetEnableIRQ
 688:Generated_Source\PSoC6\pdl\cmsis/include/core_cm0plus.h ****   #define NVIC_DisableIRQ             __NVIC_DisableIRQ
 689:Generated_Source\PSoC6\pdl\cmsis/include/core_cm0plus.h ****   #define NVIC_GetPendingIRQ          __NVIC_GetPendingIRQ
 690:Generated_Source\PSoC6\pdl\cmsis/include/core_cm0plus.h ****   #define NVIC_SetPendingIRQ          __NVIC_SetPendingIRQ
 691:Generated_Source\PSoC6\pdl\cmsis/include/core_cm0plus.h ****   #define NVIC_ClearPendingIRQ        __NVIC_ClearPendingIRQ
 692:Generated_Source\PSoC6\pdl\cmsis/include/core_cm0plus.h **** /*#define NVIC_GetActive              __NVIC_GetActive             not available for Cortex-M0+ */
 693:Generated_Source\PSoC6\pdl\cmsis/include/core_cm0plus.h ****   #define NVIC_SetPriority            __NVIC_SetPriority
 694:Generated_Source\PSoC6\pdl\cmsis/include/core_cm0plus.h ****   #define NVIC_GetPriority            __NVIC_GetPriority
 695:Generated_Source\PSoC6\pdl\cmsis/include/core_cm0plus.h **** #endif /* CMSIS_NVIC_VIRTUAL */
 696:Generated_Source\PSoC6\pdl\cmsis/include/core_cm0plus.h **** 
 697:Generated_Source\PSoC6\pdl\cmsis/include/core_cm0plus.h **** #ifndef CMSIS_VECTAB_VIRTUAL
 698:Generated_Source\PSoC6\pdl\cmsis/include/core_cm0plus.h ****   #define NVIC_SetVector              __NVIC_SetVector
 699:Generated_Source\PSoC6\pdl\cmsis/include/core_cm0plus.h ****   #define NVIC_GetVector              __NVIC_GetVector
 700:Generated_Source\PSoC6\pdl\cmsis/include/core_cm0plus.h **** #endif  /* (CMSIS_VECTAB_VIRTUAL) */
 701:Generated_Source\PSoC6\pdl\cmsis/include/core_cm0plus.h **** 
 702:Generated_Source\PSoC6\pdl\cmsis/include/core_cm0plus.h **** #define NVIC_USER_IRQ_OFFSET          16
 703:Generated_Source\PSoC6\pdl\cmsis/include/core_cm0plus.h **** 
 704:Generated_Source\PSoC6\pdl\cmsis/include/core_cm0plus.h **** 
 705:Generated_Source\PSoC6\pdl\cmsis/include/core_cm0plus.h **** /* Interrupt Priorities are WORD accessible only under ARMv6M                   */
 706:Generated_Source\PSoC6\pdl\cmsis/include/core_cm0plus.h **** /* The following MACROS handle generation of the register offset and byte masks */
 707:Generated_Source\PSoC6\pdl\cmsis/include/core_cm0plus.h **** #define _BIT_SHIFT(IRQn)         (  ((((uint32_t)(int32_t)(IRQn))         )      &  0x03UL) * 8UL)
 708:Generated_Source\PSoC6\pdl\cmsis/include/core_cm0plus.h **** #define _SHP_IDX(IRQn)           ( (((((uint32_t)(int32_t)(IRQn)) & 0x0FUL)-8UL) >>    2UL)      )
ARM GAS  C:\Users\salaz\AppData\Local\Temp\ccvE4Xni.s 			page 41


 709:Generated_Source\PSoC6\pdl\cmsis/include/core_cm0plus.h **** #define _IP_IDX(IRQn)            (   (((uint32_t)(int32_t)(IRQn))                >>    2UL)      )
 710:Generated_Source\PSoC6\pdl\cmsis/include/core_cm0plus.h **** 
 711:Generated_Source\PSoC6\pdl\cmsis/include/core_cm0plus.h **** 
 712:Generated_Source\PSoC6\pdl\cmsis/include/core_cm0plus.h **** /**
 713:Generated_Source\PSoC6\pdl\cmsis/include/core_cm0plus.h ****   \brief   Enable Interrupt
 714:Generated_Source\PSoC6\pdl\cmsis/include/core_cm0plus.h ****   \details Enables a device specific interrupt in the NVIC interrupt controller.
 715:Generated_Source\PSoC6\pdl\cmsis/include/core_cm0plus.h ****   \param [in]      IRQn  Device specific interrupt number.
 716:Generated_Source\PSoC6\pdl\cmsis/include/core_cm0plus.h ****   \note    IRQn must not be negative.
 717:Generated_Source\PSoC6\pdl\cmsis/include/core_cm0plus.h ****  */
 718:Generated_Source\PSoC6\pdl\cmsis/include/core_cm0plus.h **** __STATIC_INLINE void __NVIC_EnableIRQ(IRQn_Type IRQn)
 719:Generated_Source\PSoC6\pdl\cmsis/include/core_cm0plus.h **** {
 720:Generated_Source\PSoC6\pdl\cmsis/include/core_cm0plus.h ****   if ((int32_t)(IRQn) >= 0)
 721:Generated_Source\PSoC6\pdl\cmsis/include/core_cm0plus.h ****   {
 722:Generated_Source\PSoC6\pdl\cmsis/include/core_cm0plus.h ****     NVIC->ISER[0U] = (uint32_t)(1UL << (((uint32_t)(int32_t)IRQn) & 0x1FUL));
 723:Generated_Source\PSoC6\pdl\cmsis/include/core_cm0plus.h ****   }
 724:Generated_Source\PSoC6\pdl\cmsis/include/core_cm0plus.h **** }
 725:Generated_Source\PSoC6\pdl\cmsis/include/core_cm0plus.h **** 
 726:Generated_Source\PSoC6\pdl\cmsis/include/core_cm0plus.h **** 
 727:Generated_Source\PSoC6\pdl\cmsis/include/core_cm0plus.h **** /**
 728:Generated_Source\PSoC6\pdl\cmsis/include/core_cm0plus.h ****   \brief   Get Interrupt Enable status
 729:Generated_Source\PSoC6\pdl\cmsis/include/core_cm0plus.h ****   \details Returns a device specific interrupt enable status from the NVIC interrupt controller.
 730:Generated_Source\PSoC6\pdl\cmsis/include/core_cm0plus.h ****   \param [in]      IRQn  Device specific interrupt number.
 731:Generated_Source\PSoC6\pdl\cmsis/include/core_cm0plus.h ****   \return             0  Interrupt is not enabled.
 732:Generated_Source\PSoC6\pdl\cmsis/include/core_cm0plus.h ****   \return             1  Interrupt is enabled.
 733:Generated_Source\PSoC6\pdl\cmsis/include/core_cm0plus.h ****   \note    IRQn must not be negative.
 734:Generated_Source\PSoC6\pdl\cmsis/include/core_cm0plus.h ****  */
 735:Generated_Source\PSoC6\pdl\cmsis/include/core_cm0plus.h **** __STATIC_INLINE uint32_t __NVIC_GetEnableIRQ(IRQn_Type IRQn)
 736:Generated_Source\PSoC6\pdl\cmsis/include/core_cm0plus.h **** {
 737:Generated_Source\PSoC6\pdl\cmsis/include/core_cm0plus.h ****   if ((int32_t)(IRQn) >= 0)
 738:Generated_Source\PSoC6\pdl\cmsis/include/core_cm0plus.h ****   {
 739:Generated_Source\PSoC6\pdl\cmsis/include/core_cm0plus.h ****     return((uint32_t)(((NVIC->ISER[0U] & (1UL << (((uint32_t)(int32_t)IRQn) & 0x1FUL))) != 0UL) ? 1
 740:Generated_Source\PSoC6\pdl\cmsis/include/core_cm0plus.h ****   }
 741:Generated_Source\PSoC6\pdl\cmsis/include/core_cm0plus.h ****   else
 742:Generated_Source\PSoC6\pdl\cmsis/include/core_cm0plus.h ****   {
 743:Generated_Source\PSoC6\pdl\cmsis/include/core_cm0plus.h ****     return(0U);
 744:Generated_Source\PSoC6\pdl\cmsis/include/core_cm0plus.h ****   }
 745:Generated_Source\PSoC6\pdl\cmsis/include/core_cm0plus.h **** }
 746:Generated_Source\PSoC6\pdl\cmsis/include/core_cm0plus.h **** 
 747:Generated_Source\PSoC6\pdl\cmsis/include/core_cm0plus.h **** 
 748:Generated_Source\PSoC6\pdl\cmsis/include/core_cm0plus.h **** /**
 749:Generated_Source\PSoC6\pdl\cmsis/include/core_cm0plus.h ****   \brief   Disable Interrupt
 750:Generated_Source\PSoC6\pdl\cmsis/include/core_cm0plus.h ****   \details Disables a device specific interrupt in the NVIC interrupt controller.
 751:Generated_Source\PSoC6\pdl\cmsis/include/core_cm0plus.h ****   \param [in]      IRQn  Device specific interrupt number.
 752:Generated_Source\PSoC6\pdl\cmsis/include/core_cm0plus.h ****   \note    IRQn must not be negative.
 753:Generated_Source\PSoC6\pdl\cmsis/include/core_cm0plus.h ****  */
 754:Generated_Source\PSoC6\pdl\cmsis/include/core_cm0plus.h **** __STATIC_INLINE void __NVIC_DisableIRQ(IRQn_Type IRQn)
 755:Generated_Source\PSoC6\pdl\cmsis/include/core_cm0plus.h **** {
 756:Generated_Source\PSoC6\pdl\cmsis/include/core_cm0plus.h ****   if ((int32_t)(IRQn) >= 0)
 757:Generated_Source\PSoC6\pdl\cmsis/include/core_cm0plus.h ****   {
 758:Generated_Source\PSoC6\pdl\cmsis/include/core_cm0plus.h ****     NVIC->ICER[0U] = (uint32_t)(1UL << (((uint32_t)(int32_t)IRQn) & 0x1FUL));
 759:Generated_Source\PSoC6\pdl\cmsis/include/core_cm0plus.h ****     __DSB();
 760:Generated_Source\PSoC6\pdl\cmsis/include/core_cm0plus.h ****     __ISB();
 761:Generated_Source\PSoC6\pdl\cmsis/include/core_cm0plus.h ****   }
 762:Generated_Source\PSoC6\pdl\cmsis/include/core_cm0plus.h **** }
 763:Generated_Source\PSoC6\pdl\cmsis/include/core_cm0plus.h **** 
 764:Generated_Source\PSoC6\pdl\cmsis/include/core_cm0plus.h **** 
 765:Generated_Source\PSoC6\pdl\cmsis/include/core_cm0plus.h **** /**
ARM GAS  C:\Users\salaz\AppData\Local\Temp\ccvE4Xni.s 			page 42


 766:Generated_Source\PSoC6\pdl\cmsis/include/core_cm0plus.h ****   \brief   Get Pending Interrupt
 767:Generated_Source\PSoC6\pdl\cmsis/include/core_cm0plus.h ****   \details Reads the NVIC pending register and returns the pending bit for the specified device spe
 768:Generated_Source\PSoC6\pdl\cmsis/include/core_cm0plus.h ****   \param [in]      IRQn  Device specific interrupt number.
 769:Generated_Source\PSoC6\pdl\cmsis/include/core_cm0plus.h ****   \return             0  Interrupt status is not pending.
 770:Generated_Source\PSoC6\pdl\cmsis/include/core_cm0plus.h ****   \return             1  Interrupt status is pending.
 771:Generated_Source\PSoC6\pdl\cmsis/include/core_cm0plus.h ****   \note    IRQn must not be negative.
 772:Generated_Source\PSoC6\pdl\cmsis/include/core_cm0plus.h ****  */
 773:Generated_Source\PSoC6\pdl\cmsis/include/core_cm0plus.h **** __STATIC_INLINE uint32_t __NVIC_GetPendingIRQ(IRQn_Type IRQn)
 774:Generated_Source\PSoC6\pdl\cmsis/include/core_cm0plus.h **** {
 775:Generated_Source\PSoC6\pdl\cmsis/include/core_cm0plus.h ****   if ((int32_t)(IRQn) >= 0)
 776:Generated_Source\PSoC6\pdl\cmsis/include/core_cm0plus.h ****   {
 777:Generated_Source\PSoC6\pdl\cmsis/include/core_cm0plus.h ****     return((uint32_t)(((NVIC->ISPR[0U] & (1UL << (((uint32_t)(int32_t)IRQn) & 0x1FUL))) != 0UL) ? 1
 778:Generated_Source\PSoC6\pdl\cmsis/include/core_cm0plus.h ****   }
 779:Generated_Source\PSoC6\pdl\cmsis/include/core_cm0plus.h ****   else
 780:Generated_Source\PSoC6\pdl\cmsis/include/core_cm0plus.h ****   {
 781:Generated_Source\PSoC6\pdl\cmsis/include/core_cm0plus.h ****     return(0U);
 782:Generated_Source\PSoC6\pdl\cmsis/include/core_cm0plus.h ****   }
 783:Generated_Source\PSoC6\pdl\cmsis/include/core_cm0plus.h **** }
 784:Generated_Source\PSoC6\pdl\cmsis/include/core_cm0plus.h **** 
 785:Generated_Source\PSoC6\pdl\cmsis/include/core_cm0plus.h **** 
 786:Generated_Source\PSoC6\pdl\cmsis/include/core_cm0plus.h **** /**
 787:Generated_Source\PSoC6\pdl\cmsis/include/core_cm0plus.h ****   \brief   Set Pending Interrupt
 788:Generated_Source\PSoC6\pdl\cmsis/include/core_cm0plus.h ****   \details Sets the pending bit of a device specific interrupt in the NVIC pending register.
 789:Generated_Source\PSoC6\pdl\cmsis/include/core_cm0plus.h ****   \param [in]      IRQn  Device specific interrupt number.
 790:Generated_Source\PSoC6\pdl\cmsis/include/core_cm0plus.h ****   \note    IRQn must not be negative.
 791:Generated_Source\PSoC6\pdl\cmsis/include/core_cm0plus.h ****  */
 792:Generated_Source\PSoC6\pdl\cmsis/include/core_cm0plus.h **** __STATIC_INLINE void __NVIC_SetPendingIRQ(IRQn_Type IRQn)
 793:Generated_Source\PSoC6\pdl\cmsis/include/core_cm0plus.h **** {
 794:Generated_Source\PSoC6\pdl\cmsis/include/core_cm0plus.h ****   if ((int32_t)(IRQn) >= 0)
 795:Generated_Source\PSoC6\pdl\cmsis/include/core_cm0plus.h ****   {
 796:Generated_Source\PSoC6\pdl\cmsis/include/core_cm0plus.h ****     NVIC->ISPR[0U] = (uint32_t)(1UL << (((uint32_t)(int32_t)IRQn) & 0x1FUL));
 797:Generated_Source\PSoC6\pdl\cmsis/include/core_cm0plus.h ****   }
 798:Generated_Source\PSoC6\pdl\cmsis/include/core_cm0plus.h **** }
 799:Generated_Source\PSoC6\pdl\cmsis/include/core_cm0plus.h **** 
 800:Generated_Source\PSoC6\pdl\cmsis/include/core_cm0plus.h **** 
 801:Generated_Source\PSoC6\pdl\cmsis/include/core_cm0plus.h **** /**
 802:Generated_Source\PSoC6\pdl\cmsis/include/core_cm0plus.h ****   \brief   Clear Pending Interrupt
 803:Generated_Source\PSoC6\pdl\cmsis/include/core_cm0plus.h ****   \details Clears the pending bit of a device specific interrupt in the NVIC pending register.
 804:Generated_Source\PSoC6\pdl\cmsis/include/core_cm0plus.h ****   \param [in]      IRQn  Device specific interrupt number.
 805:Generated_Source\PSoC6\pdl\cmsis/include/core_cm0plus.h ****   \note    IRQn must not be negative.
 806:Generated_Source\PSoC6\pdl\cmsis/include/core_cm0plus.h ****  */
 807:Generated_Source\PSoC6\pdl\cmsis/include/core_cm0plus.h **** __STATIC_INLINE void __NVIC_ClearPendingIRQ(IRQn_Type IRQn)
 808:Generated_Source\PSoC6\pdl\cmsis/include/core_cm0plus.h **** {
 809:Generated_Source\PSoC6\pdl\cmsis/include/core_cm0plus.h ****   if ((int32_t)(IRQn) >= 0)
 471              		.loc 3 809 0
 472 0048 002A     		cmp	r2, #0
 473 004a 07DB     		blt	.L20
 810:Generated_Source\PSoC6\pdl\cmsis/include/core_cm0plus.h ****   {
 811:Generated_Source\PSoC6\pdl\cmsis/include/core_cm0plus.h ****     NVIC->ICPR[0U] = (uint32_t)(1UL << (((uint32_t)(int32_t)IRQn) & 0x1FUL));
 474              		.loc 3 811 0
 475 004c 1F23     		movs	r3, #31
 476 004e 1A40     		ands	r2, r3
 477              	.LVL49:
 478 0050 1E3B     		subs	r3, r3, #30
 479 0052 9340     		lsls	r3, r3, r2
 480 0054 C022     		movs	r2, #192
 481 0056 5200     		lsls	r2, r2, #1
ARM GAS  C:\Users\salaz\AppData\Local\Temp\ccvE4Xni.s 			page 43


 482 0058 0349     		ldr	r1, .L23+8
 483 005a 8B50     		str	r3, [r1, r2]
 484              	.LVL50:
 485              	.L20:
 486              	.LBE96:
 487              	.LBE95:
  95:TimingMaster.c **** }
 488              		.loc 1 95 0
 489              		@ sp needed
 490 005c 70BD     		pop	{r4, r5, r6, pc}
 491              	.L24:
 492 005e C046     		.align	2
 493              	.L23:
 494 0060 00022640 		.word	1076232704
 495 0064 00000000 		.word	WatchDog_IRQ_cfg
 496 0068 00E100E0 		.word	-536813312
 497              		.cfi_endproc
 498              	.LFE793:
 499              		.size	WatchDogHandler, .-WatchDogHandler
 500              		.global	__aeabi_uldivmod
 501              		.section	.text.TimingMaster_ConfigureTimer,"ax",%progbits
 502              		.align	2
 503              		.global	TimingMaster_ConfigureTimer
 504              		.code	16
 505              		.thumb_func
 506              		.type	TimingMaster_ConfigureTimer, %function
 507              	TimingMaster_ConfigureTimer:
 508              	.LFB794:
  96:TimingMaster.c **** //-------------------------------------------------------------//
  97:TimingMaster.c **** //-----------------------TIMER-MANAGEMENT----------------------//
  98:TimingMaster.c **** //-------------------------------------------------------------//
  99:TimingMaster.c **** 
 100:TimingMaster.c **** bool TimingMaster_ConfigureTimer(uint8 id, uint64 period_ms)
 101:TimingMaster.c **** {
 509              		.loc 1 101 0
 510              		.cfi_startproc
 511              		@ args = 0, pretend = 0, frame = 0
 512              		@ frame_needed = 0, uses_anonymous_args = 0
 513              	.LVL51:
 514 0000 F0B5     		push	{r4, r5, r6, r7, lr}
 515              		.cfi_def_cfa_offset 20
 516              		.cfi_offset 4, -20
 517              		.cfi_offset 5, -16
 518              		.cfi_offset 6, -12
 519              		.cfi_offset 7, -8
 520              		.cfi_offset 14, -4
 521 0002 4746     		mov	r7, r8
 522 0004 80B4     		push	{r7}
 523              		.cfi_def_cfa_offset 24
 524              		.cfi_offset 8, -24
 525 0006 0600     		movs	r6, r0
 526 0008 1400     		movs	r4, r2
 527 000a 1D00     		movs	r5, r3
 102:TimingMaster.c ****     uint32 period_count = (uint32)(period_ms * 65535 / 2 / 1000);
 528              		.loc 1 102 0
 529 000c 130C     		lsrs	r3, r2, #16
 530 000e 2904     		lsls	r1, r5, #16
ARM GAS  C:\Users\salaz\AppData\Local\Temp\ccvE4Xni.s 			page 44


 531 0010 1943     		orrs	r1, r3
 532 0012 1004     		lsls	r0, r2, #16
 533              	.LVL52:
 534 0014 001B     		subs	r0, r0, r4
 535 0016 A941     		sbcs	r1, r1, r5
 536 0018 FA22     		movs	r2, #250
 537              	.LVL53:
 538 001a D200     		lsls	r2, r2, #3
 539 001c 0023     		movs	r3, #0
 540 001e FFF7FEFF 		bl	__aeabi_uldivmod
 541              	.LVL54:
 542              	.LBB111:
 103:TimingMaster.c ****     int8 timer_match_index = -1;
 104:TimingMaster.c ****     
 105:TimingMaster.c ****     // Scan for id index in timer list
 106:TimingMaster.c ****     for(uint8 i = 0; i < num_timers; i++)
 543              		.loc 1 106 0
 544 0022 0023     		movs	r3, #0
 545              	.LBE111:
 103:TimingMaster.c ****     int8 timer_match_index = -1;
 546              		.loc 1 103 0
 547 0024 0121     		movs	r1, #1
 548 0026 4942     		rsbs	r1, r1, #0
 549              	.LBB112:
 550              		.loc 1 106 0
 551 0028 09E0     		b	.L26
 552              	.LVL55:
 553              	.L28:
 107:TimingMaster.c ****     {
 108:TimingMaster.c ****         if(timers[i].id == id) timer_match_index = i;
 554              		.loc 1 108 0
 555 002a 5A00     		lsls	r2, r3, #1
 556 002c D218     		adds	r2, r2, r3
 557 002e 9200     		lsls	r2, r2, #2
 558 0030 414F     		ldr	r7, .L40
 559 0032 D25D     		ldrb	r2, [r2, r7]
 560 0034 B242     		cmp	r2, r6
 561 0036 00D1     		bne	.L27
 562              		.loc 1 108 0 is_stmt 0 discriminator 1
 563 0038 59B2     		sxtb	r1, r3
 564              	.LVL56:
 565              	.L27:
 106:TimingMaster.c ****     {
 566              		.loc 1 106 0 is_stmt 1 discriminator 2
 567 003a 0133     		adds	r3, r3, #1
 568              	.LVL57:
 569 003c DBB2     		uxtb	r3, r3
 570              	.LVL58:
 571              	.L26:
 106:TimingMaster.c ****     {
 572              		.loc 1 106 0 is_stmt 0 discriminator 1
 573 003e 3F4A     		ldr	r2, .L40+4
 574 0040 1778     		ldrb	r7, [r2]
 575 0042 BB42     		cmp	r3, r7
 576 0044 F1D3     		bcc	.L28
 577              	.LBE112:
 109:TimingMaster.c ****     }
ARM GAS  C:\Users\salaz\AppData\Local\Temp\ccvE4Xni.s 			page 45


 110:TimingMaster.c ****     // If existing timer then modify
 111:TimingMaster.c ****     if( (period_ms != 0) && (timer_match_index != -1) )
 578              		.loc 1 111 0 is_stmt 1
 579 0046 2300     		movs	r3, r4
 580              	.LVL59:
 581 0048 2B43     		orrs	r3, r5
 582 004a 09D0     		beq	.L29
 583 004c 4B1C     		adds	r3, r1, #1
 584 004e 07D0     		beq	.L29
 112:TimingMaster.c ****     {
 113:TimingMaster.c ****         timers[timer_match_index].period = period_count;
 585              		.loc 1 113 0
 586 0050 394C     		ldr	r4, .L40
 587 0052 4B00     		lsls	r3, r1, #1
 588 0054 5A18     		adds	r2, r3, r1
 589 0056 9200     		lsls	r2, r2, #2
 590 0058 A218     		adds	r2, r4, r2
 591 005a 5060     		str	r0, [r2, #4]
 114:TimingMaster.c ****         timers[timer_match_index].remaining = period_count;
 592              		.loc 1 114 0
 593 005c 9060     		str	r0, [r2, #8]
 594 005e 41E0     		b	.L31
 595              	.L29:
 115:TimingMaster.c ****     }
 116:TimingMaster.c ****     // If new timer then create
 117:TimingMaster.c ****     else if( (period_ms != 0) && (timer_match_index == -1) )
 596              		.loc 1 117 0
 597 0060 2300     		movs	r3, r4
 598 0062 2B43     		orrs	r3, r5
 599 0064 1AD0     		beq	.L32
 600 0066 4B1C     		adds	r3, r1, #1
 601 0068 18D1     		bne	.L32
 118:TimingMaster.c ****     {
 119:TimingMaster.c ****         timers[num_timers].id = id;
 602              		.loc 1 119 0
 603 006a 3349     		ldr	r1, .L40
 604              	.LVL60:
 605 006c 7B00     		lsls	r3, r7, #1
 606 006e DA19     		adds	r2, r3, r7
 607 0070 9200     		lsls	r2, r2, #2
 608 0072 5654     		strb	r6, [r2, r1]
 120:TimingMaster.c ****         timers[num_timers].period = period_count;
 609              		.loc 1 120 0
 610 0074 DA19     		adds	r2, r3, r7
 611 0076 9200     		lsls	r2, r2, #2
 612 0078 8A18     		adds	r2, r1, r2
 613 007a 5060     		str	r0, [r2, #4]
 121:TimingMaster.c ****         timers[num_timers].remaining = period_count;
 614              		.loc 1 121 0
 615 007c 9060     		str	r0, [r2, #8]
 122:TimingMaster.c ****         
 123:TimingMaster.c ****         if(num_timers++ == 0)
 616              		.loc 1 123 0
 617 007e 7A1C     		adds	r2, r7, #1
 618 0080 2E4B     		ldr	r3, .L40+4
 619 0082 1A70     		strb	r2, [r3]
 620 0084 002F     		cmp	r7, #0
ARM GAS  C:\Users\salaz\AppData\Local\Temp\ccvE4Xni.s 			page 46


 621 0086 2DD1     		bne	.L31
 622              	.LVL61:
 623              	.LBB113:
 624              	.LBB114:
 370:Generated_Source\PSoC6\pdl\drivers/peripheral/mcwdt/cy_mcwdt.h **** 
 625              		.loc 2 370 0
 626 0088 2D4A     		ldr	r2, .L40+8
 627 008a 5369     		ldr	r3, [r2, #20]
 628 008c 0221     		movs	r1, #2
 629 008e FF31     		adds	r1, r1, #255
 630 0090 0B43     		orrs	r3, r1
 631 0092 5361     		str	r3, [r2, #20]
 372:Generated_Source\PSoC6\pdl\drivers/peripheral/mcwdt/cy_mcwdt.h **** }
 632              		.loc 2 372 0
 633 0094 3E20     		movs	r0, #62
 634              	.LVL62:
 635 0096 FFF7FEFF 		bl	Cy_SysLib_DelayUs
 636              	.LVL63:
 637 009a 23E0     		b	.L31
 638              	.LVL64:
 639              	.L32:
 640              	.LBE114:
 641              	.LBE113:
 124:TimingMaster.c ****         {
 125:TimingMaster.c ****             Cy_MCWDT_Enable(MCWDT_HW, CY_MCWDT_CTR0|CY_MCWDT_CTR1, MCWDT_TWO_LF_CLK_CYCLES_DELAY);
 126:TimingMaster.c ****         }
 127:TimingMaster.c ****     }
 128:TimingMaster.c ****     // If existing and period = 0 then remove
 129:TimingMaster.c ****     else if( (period_ms == 0) && (timer_match_index != -1) )
 642              		.loc 1 129 0
 643 009c 2C43     		orrs	r4, r5
 644 009e 43D1     		bne	.L37
 645              		.loc 1 129 0 is_stmt 0 discriminator 1
 646 00a0 4B1C     		adds	r3, r1, #1
 647 00a2 43D0     		beq	.L38
 648              	.LBB115:
 130:TimingMaster.c ****     {
 131:TimingMaster.c ****         for(uint8 i = timer_match_index; i < num_timers - 1; i++)
 649              		.loc 1 131 0 is_stmt 1
 650 00a4 C8B2     		uxtb	r0, r1
 651              	.LVL65:
 652 00a6 0DE0     		b	.L35
 653              	.LVL66:
 654              	.L36:
 132:TimingMaster.c ****         {
 133:TimingMaster.c ****             timers[i] = timers[i+1];
 655              		.loc 1 133 0 discriminator 3
 656 00a8 421C     		adds	r2, r0, #1
 657 00aa 234B     		ldr	r3, .L40
 658 00ac 4100     		lsls	r1, r0, #1
 659 00ae 0918     		adds	r1, r1, r0
 660 00b0 8900     		lsls	r1, r1, #2
 661 00b2 5400     		lsls	r4, r2, #1
 662 00b4 A218     		adds	r2, r4, r2
 663 00b6 9200     		lsls	r2, r2, #2
 664 00b8 5918     		adds	r1, r3, r1
 665 00ba 9B18     		adds	r3, r3, r2
ARM GAS  C:\Users\salaz\AppData\Local\Temp\ccvE4Xni.s 			page 47


 666 00bc 34CB     		ldmia	r3!, {r2, r4, r5}
 667 00be 34C1     		stmia	r1!, {r2, r4, r5}
 131:TimingMaster.c ****         {
 668              		.loc 1 131 0 discriminator 3
 669 00c0 0130     		adds	r0, r0, #1
 670              	.LVL67:
 671 00c2 C0B2     		uxtb	r0, r0
 672              	.LVL68:
 673              	.L35:
 131:TimingMaster.c ****         {
 674              		.loc 1 131 0 is_stmt 0 discriminator 1
 675 00c4 7B1E     		subs	r3, r7, #1
 676 00c6 9842     		cmp	r0, r3
 677 00c8 EEDB     		blt	.L36
 678              	.LBE115:
 134:TimingMaster.c ****         }
 135:TimingMaster.c ****         if(--num_timers == 0)
 679              		.loc 1 135 0 is_stmt 1
 680 00ca DFB2     		uxtb	r7, r3
 681 00cc 1B4B     		ldr	r3, .L40+4
 682 00ce 1F70     		strb	r7, [r3]
 683 00d0 002F     		cmp	r7, #0
 684 00d2 07D1     		bne	.L31
 685              	.LVL69:
 686              	.LBB116:
 687              	.LBB117:
 411:Generated_Source\PSoC6\pdl\drivers/peripheral/mcwdt/cy_mcwdt.h **** 
 688              		.loc 2 411 0
 689 00d4 1A4A     		ldr	r2, .L40+8
 690 00d6 5169     		ldr	r1, [r2, #20]
 691 00d8 1A4B     		ldr	r3, .L40+12
 692 00da 0B40     		ands	r3, r1
 693 00dc 5361     		str	r3, [r2, #20]
 413:Generated_Source\PSoC6\pdl\drivers/peripheral/mcwdt/cy_mcwdt.h **** }
 694              		.loc 2 413 0
 695 00de 3E20     		movs	r0, #62
 696              	.LVL70:
 697 00e0 FFF7FEFF 		bl	Cy_SysLib_DelayUs
 698              	.LVL71:
 699              	.L31:
 700              	.LBE117:
 701              	.LBE116:
 702              	.LBB118:
 703              	.LBB119:
 876:Generated_Source\PSoC6\pdl\drivers/peripheral/mcwdt/cy_mcwdt.h ****             break;
 704              		.loc 2 876 0
 705 00e4 164D     		ldr	r5, .L40+8
 706 00e6 6F68     		ldr	r7, [r5, #4]
 707              	.LVL72:
 708              	.LBE119:
 709              	.LBE118:
 710              	.LBB120:
 711              	.LBB121:
 873:Generated_Source\PSoC6\pdl\drivers/peripheral/mcwdt/cy_mcwdt.h ****             break;
 712              		.loc 2 873 0
 713 00e8 6E68     		ldr	r6, [r5, #4]
 714 00ea 3604     		lsls	r6, r6, #16
ARM GAS  C:\Users\salaz\AppData\Local\Temp\ccvE4Xni.s 			page 48


 715 00ec 360C     		lsrs	r6, r6, #16
 716              	.LVL73:
 717              	.LBE121:
 718              	.LBE120:
 719              	.LBB122:
 720              	.LBB123:
 796:Generated_Source\PSoC6\pdl\drivers/peripheral/mcwdt/cy_mcwdt.h ****                                           _FLD2VAL(MCWDT_STRUCT_MCWDT_MATCH_WDT_MATCH1, base->MCWDT
 721              		.loc 2 796 0
 722 00ee EC68     		ldr	r4, [r5, #12]
 723 00f0 2404     		lsls	r4, r4, #16
 724 00f2 240C     		lsrs	r4, r4, #16
 725              	.LVL74:
 726              	.LBE123:
 727              	.LBE122:
 728              	.LBB124:
 729              	.LBB125:
 930:Generated_Source\PSoC6\pdl\drivers/peripheral/mcwdt/cy_mcwdt.h ****     
 730              		.loc 2 930 0
 731 00f4 6B69     		ldr	r3, [r5, #20]
 732 00f6 144A     		ldr	r2, .L40+16
 733 00f8 9046     		mov	r8, r2
 734 00fa 1343     		orrs	r3, r2
 735 00fc 6B61     		str	r3, [r5, #20]
 932:Generated_Source\PSoC6\pdl\drivers/peripheral/mcwdt/cy_mcwdt.h ****     
 736              		.loc 2 932 0
 737 00fe 3E20     		movs	r0, #62
 738 0100 FFF7FEFF 		bl	Cy_SysLib_DelayUs
 739              	.LVL75:
 934:Generated_Source\PSoC6\pdl\drivers/peripheral/mcwdt/cy_mcwdt.h ****     
 740              		.loc 2 934 0
 741 0104 6B69     		ldr	r3, [r5, #20]
 742 0106 4246     		mov	r2, r8
 743 0108 1343     		orrs	r3, r2
 744 010a 6B61     		str	r3, [r5, #20]
 936:Generated_Source\PSoC6\pdl\drivers/peripheral/mcwdt/cy_mcwdt.h **** }
 745              		.loc 2 936 0
 746 010c 3E20     		movs	r0, #62
 747 010e FFF7FEFF 		bl	Cy_SysLib_DelayUs
 748              	.LVL76:
 749              	.LBE125:
 750              	.LBE124:
 136:TimingMaster.c ****         {
 137:TimingMaster.c ****             Cy_MCWDT_Disable(MCWDT_HW, CY_MCWDT_CTR0|CY_MCWDT_CTR1, MCWDT_TWO_LF_CLK_CYCLES_DELAY);
 138:TimingMaster.c ****         }
 139:TimingMaster.c ****     }
 140:TimingMaster.c ****     // Invalid ID, do nothing and exit
 141:TimingMaster.c ****     else
 142:TimingMaster.c ****     {
 143:TimingMaster.c ****         // ** Throw error
 144:TimingMaster.c ****         return false;
 145:TimingMaster.c ****     }
 146:TimingMaster.c ****     // Update virtual WDT internal state
 147:TimingMaster.c ****     uint32 counter1 = Cy_MCWDT_GetCount(MCWDT_HW, CY_MCWDT_COUNTER1);
 148:TimingMaster.c ****     uint32 counter0 = Cy_MCWDT_GetCount(MCWDT_HW, CY_MCWDT_COUNTER0);
 149:TimingMaster.c ****     uint32 match0 = Cy_MCWDT_GetMatch(MCWDT_HW, CY_MCWDT_COUNTER0);
 150:TimingMaster.c ****     
 151:TimingMaster.c ****     Cy_MCWDT_ResetCounters(MCWDT_HW, CY_MCWDT_CTR0|CY_MCWDT_CTR1, MCWDT_TWO_LF_CLK_CYCLES_DELAY);
ARM GAS  C:\Users\salaz\AppData\Local\Temp\ccvE4Xni.s 			page 49


 152:TimingMaster.c ****     
 153:TimingMaster.c ****     uint32 elapsed_count = counter0 + (match0 * counter1);
 751              		.loc 1 153 0
 752 0112 3F0C     		lsrs	r7, r7, #16
 753 0114 7C43     		muls	r4, r7
 754 0116 A019     		adds	r0, r4, r6
 755              	.LVL77:
 154:TimingMaster.c ****     if(num_timers > 0) TimingMaster_Update(elapsed_count);
 756              		.loc 1 154 0
 757 0118 084B     		ldr	r3, .L40+4
 758 011a 1B78     		ldrb	r3, [r3]
 759 011c 002B     		cmp	r3, #0
 760 011e 07D0     		beq	.L39
 761              		.loc 1 154 0 is_stmt 0 discriminator 1
 762 0120 FFF7FEFF 		bl	TimingMaster_Update
 763              	.LVL78:
 155:TimingMaster.c ****     return true;
 764              		.loc 1 155 0 is_stmt 1 discriminator 1
 765 0124 0120     		movs	r0, #1
 766 0126 04E0     		b	.L34
 767              	.LVL79:
 768              	.L37:
 144:TimingMaster.c ****     }
 769              		.loc 1 144 0
 770 0128 0020     		movs	r0, #0
 771              	.LVL80:
 772 012a 02E0     		b	.L34
 773              	.LVL81:
 774              	.L38:
 775 012c 0020     		movs	r0, #0
 776              	.LVL82:
 777 012e 00E0     		b	.L34
 778              	.LVL83:
 779              	.L39:
 780              		.loc 1 155 0
 781 0130 0120     		movs	r0, #1
 782              	.LVL84:
 783              	.L34:
 156:TimingMaster.c **** }
 784              		.loc 1 156 0
 785              		@ sp needed
 786 0132 04BC     		pop	{r2}
 787 0134 9046     		mov	r8, r2
 788 0136 F0BD     		pop	{r4, r5, r6, r7, pc}
 789              	.L41:
 790              		.align	2
 791              	.L40:
 792 0138 00000000 		.word	timers
 793 013c 00000000 		.word	.LANCHOR0
 794 0140 00022640 		.word	1076232704
 795 0144 FEFEFFFF 		.word	-258
 796 0148 08080000 		.word	2056
 797              		.cfi_endproc
 798              	.LFE794:
 799              		.size	TimingMaster_ConfigureTimer, .-TimingMaster_ConfigureTimer
 800              		.section	.text.TimingMaster_Init,"ax",%progbits
 801              		.align	2
ARM GAS  C:\Users\salaz\AppData\Local\Temp\ccvE4Xni.s 			page 50


 802              		.global	TimingMaster_Init
 803              		.code	16
 804              		.thumb_func
 805              		.type	TimingMaster_Init, %function
 806              	TimingMaster_Init:
 807              	.LFB795:
 157:TimingMaster.c **** //-------------------------------------------------------------//
 158:TimingMaster.c **** //------------------------INITIALIZATION-----------------------//
 159:TimingMaster.c **** //-------------------------------------------------------------//
 160:TimingMaster.c **** 
 161:TimingMaster.c **** void TimingMaster_Init()
 162:TimingMaster.c **** {
 808              		.loc 1 162 0
 809              		.cfi_startproc
 810              		@ args = 0, pretend = 0, frame = 0
 811              		@ frame_needed = 0, uses_anonymous_args = 0
 812 0000 10B5     		push	{r4, lr}
 813              		.cfi_def_cfa_offset 8
 814              		.cfi_offset 4, -8
 815              		.cfi_offset 14, -4
 163:TimingMaster.c ****     cy_en_sysint_status_t intrReturnValue = Cy_SysInt_Init(&WatchDog_IRQ_cfg, WatchDogHandler);
 816              		.loc 1 163 0
 817 0002 1149     		ldr	r1, .L46
 818 0004 1148     		ldr	r0, .L46+4
 819 0006 FFF7FEFF 		bl	Cy_SysInt_Init
 820              	.LVL85:
 164:TimingMaster.c ****     if(intrReturnValue == CY_SYSINT_SUCCESS)
 821              		.loc 1 164 0
 822 000a 0028     		cmp	r0, #0
 823 000c 1BD1     		bne	.L42
 824              	.LBB126:
 165:TimingMaster.c ****     {
 166:TimingMaster.c ****         NVIC_ClearPendingIRQ(WatchDog_IRQ_cfg.intrSrc);
 825              		.loc 1 166 0
 826 000e 0F4B     		ldr	r3, .L46+4
 827 0010 0022     		movs	r2, #0
 828 0012 9B5E     		ldrsh	r3, [r3, r2]
 829              	.LVL86:
 830              	.LBB127:
 831              	.LBB128:
 809:Generated_Source\PSoC6\pdl\cmsis/include/core_cm0plus.h ****   {
 832              		.loc 3 809 0
 833 0014 002B     		cmp	r3, #0
 834 0016 07DB     		blt	.L44
 835              		.loc 3 811 0
 836 0018 1F21     		movs	r1, #31
 837 001a 1940     		ands	r1, r3
 838 001c 0122     		movs	r2, #1
 839 001e 8A40     		lsls	r2, r2, r1
 840 0020 C021     		movs	r1, #192
 841 0022 4900     		lsls	r1, r1, #1
 842 0024 0A48     		ldr	r0, .L46+8
 843              	.LVL87:
 844 0026 4250     		str	r2, [r0, r1]
 845              	.L44:
 846              	.LVL88:
 847              	.LBE128:
ARM GAS  C:\Users\salaz\AppData\Local\Temp\ccvE4Xni.s 			page 51


 848              	.LBE127:
 849              	.LBB129:
 850              	.LBB130:
 720:Generated_Source\PSoC6\pdl\cmsis/include/core_cm0plus.h ****   {
 851              		.loc 3 720 0
 852 0028 002B     		cmp	r3, #0
 853 002a 06DB     		blt	.L45
 722:Generated_Source\PSoC6\pdl\cmsis/include/core_cm0plus.h ****   }
 854              		.loc 3 722 0
 855 002c 1F22     		movs	r2, #31
 856 002e 1340     		ands	r3, r2
 857              	.LVL89:
 858 0030 1E3A     		subs	r2, r2, #30
 859 0032 9A40     		lsls	r2, r2, r3
 860 0034 1300     		movs	r3, r2
 861 0036 064A     		ldr	r2, .L46+8
 862 0038 1360     		str	r3, [r2]
 863              	.L45:
 864              	.LVL90:
 865              	.LBE130:
 866              	.LBE129:
 867              	.LBB131:
 868              	.LBB132:
 983:Generated_Source\PSoC6\pdl\drivers/peripheral/mcwdt/cy_mcwdt.h **** }
 984:Generated_Source\PSoC6\pdl\drivers/peripheral/mcwdt/cy_mcwdt.h **** 
 985:Generated_Source\PSoC6\pdl\drivers/peripheral/mcwdt/cy_mcwdt.h **** 
 986:Generated_Source\PSoC6\pdl\drivers/peripheral/mcwdt/cy_mcwdt.h **** /*******************************************************************************
 987:Generated_Source\PSoC6\pdl\drivers/peripheral/mcwdt/cy_mcwdt.h **** * Function Name: Cy_MCWDT_SetInterrupt
 988:Generated_Source\PSoC6\pdl\drivers/peripheral/mcwdt/cy_mcwdt.h **** ****************************************************************************//**
 989:Generated_Source\PSoC6\pdl\drivers/peripheral/mcwdt/cy_mcwdt.h **** *
 990:Generated_Source\PSoC6\pdl\drivers/peripheral/mcwdt/cy_mcwdt.h **** *  Sets MCWDT interrupt sources in the interrupt request register.
 991:Generated_Source\PSoC6\pdl\drivers/peripheral/mcwdt/cy_mcwdt.h **** *
 992:Generated_Source\PSoC6\pdl\drivers/peripheral/mcwdt/cy_mcwdt.h **** *  \param base
 993:Generated_Source\PSoC6\pdl\drivers/peripheral/mcwdt/cy_mcwdt.h **** *  The base pointer to a structure that describes registers.
 994:Generated_Source\PSoC6\pdl\drivers/peripheral/mcwdt/cy_mcwdt.h **** *
 995:Generated_Source\PSoC6\pdl\drivers/peripheral/mcwdt/cy_mcwdt.h **** *  \param counters
 996:Generated_Source\PSoC6\pdl\drivers/peripheral/mcwdt/cy_mcwdt.h **** *  OR of all interrupt sources to set. See the \ref CY_MCWDT_CTR0, CY_MCWDT_CTR1, and
 997:Generated_Source\PSoC6\pdl\drivers/peripheral/mcwdt/cy_mcwdt.h **** *  CY_MCWDT_CTR2  macros.
 998:Generated_Source\PSoC6\pdl\drivers/peripheral/mcwdt/cy_mcwdt.h **** *
 999:Generated_Source\PSoC6\pdl\drivers/peripheral/mcwdt/cy_mcwdt.h **** *******************************************************************************/
1000:Generated_Source\PSoC6\pdl\drivers/peripheral/mcwdt/cy_mcwdt.h **** __STATIC_INLINE void Cy_MCWDT_SetInterrupt(MCWDT_STRUCT_Type *base, uint32_t counters)
1001:Generated_Source\PSoC6\pdl\drivers/peripheral/mcwdt/cy_mcwdt.h **** {
1002:Generated_Source\PSoC6\pdl\drivers/peripheral/mcwdt/cy_mcwdt.h ****     CY_ASSERT_L2(CY_MCWDT_IS_CNTS_MASK_VALID(counters));
1003:Generated_Source\PSoC6\pdl\drivers/peripheral/mcwdt/cy_mcwdt.h **** 
1004:Generated_Source\PSoC6\pdl\drivers/peripheral/mcwdt/cy_mcwdt.h ****     base->MCWDT_INTR_SET = counters;
1005:Generated_Source\PSoC6\pdl\drivers/peripheral/mcwdt/cy_mcwdt.h **** }
1006:Generated_Source\PSoC6\pdl\drivers/peripheral/mcwdt/cy_mcwdt.h **** 
1007:Generated_Source\PSoC6\pdl\drivers/peripheral/mcwdt/cy_mcwdt.h **** 
1008:Generated_Source\PSoC6\pdl\drivers/peripheral/mcwdt/cy_mcwdt.h **** /*******************************************************************************
1009:Generated_Source\PSoC6\pdl\drivers/peripheral/mcwdt/cy_mcwdt.h **** * Function Name: Cy_MCWDT_GetInterruptMask
1010:Generated_Source\PSoC6\pdl\drivers/peripheral/mcwdt/cy_mcwdt.h **** ****************************************************************************//**
1011:Generated_Source\PSoC6\pdl\drivers/peripheral/mcwdt/cy_mcwdt.h **** *
1012:Generated_Source\PSoC6\pdl\drivers/peripheral/mcwdt/cy_mcwdt.h **** * Returns the CWDT interrupt mask register. This register specifies which bits
1013:Generated_Source\PSoC6\pdl\drivers/peripheral/mcwdt/cy_mcwdt.h **** * from the MCWDT interrupt request register will trigger an interrupt event.
1014:Generated_Source\PSoC6\pdl\drivers/peripheral/mcwdt/cy_mcwdt.h **** *
1015:Generated_Source\PSoC6\pdl\drivers/peripheral/mcwdt/cy_mcwdt.h **** *  \param base
1016:Generated_Source\PSoC6\pdl\drivers/peripheral/mcwdt/cy_mcwdt.h **** *  The base pointer to a structure that describes registers.
ARM GAS  C:\Users\salaz\AppData\Local\Temp\ccvE4Xni.s 			page 52


1017:Generated_Source\PSoC6\pdl\drivers/peripheral/mcwdt/cy_mcwdt.h **** *
1018:Generated_Source\PSoC6\pdl\drivers/peripheral/mcwdt/cy_mcwdt.h **** *  \return
1019:Generated_Source\PSoC6\pdl\drivers/peripheral/mcwdt/cy_mcwdt.h **** *  The OR'd state of the interrupt masks. See the \ref CY_MCWDT_CTR0, CY_MCWDT_CTR1, and
1020:Generated_Source\PSoC6\pdl\drivers/peripheral/mcwdt/cy_mcwdt.h **** *  CY_MCWDT_CTR2  macros.
1021:Generated_Source\PSoC6\pdl\drivers/peripheral/mcwdt/cy_mcwdt.h **** *
1022:Generated_Source\PSoC6\pdl\drivers/peripheral/mcwdt/cy_mcwdt.h **** *******************************************************************************/
1023:Generated_Source\PSoC6\pdl\drivers/peripheral/mcwdt/cy_mcwdt.h **** __STATIC_INLINE uint32_t Cy_MCWDT_GetInterruptMask(MCWDT_STRUCT_Type const *base)
1024:Generated_Source\PSoC6\pdl\drivers/peripheral/mcwdt/cy_mcwdt.h **** {
1025:Generated_Source\PSoC6\pdl\drivers/peripheral/mcwdt/cy_mcwdt.h ****     return (base->MCWDT_INTR_MASK);
1026:Generated_Source\PSoC6\pdl\drivers/peripheral/mcwdt/cy_mcwdt.h **** }
1027:Generated_Source\PSoC6\pdl\drivers/peripheral/mcwdt/cy_mcwdt.h **** 
1028:Generated_Source\PSoC6\pdl\drivers/peripheral/mcwdt/cy_mcwdt.h **** 
1029:Generated_Source\PSoC6\pdl\drivers/peripheral/mcwdt/cy_mcwdt.h **** /*******************************************************************************
1030:Generated_Source\PSoC6\pdl\drivers/peripheral/mcwdt/cy_mcwdt.h **** * Function Name: Cy_MCWDT_SetInterruptMask
1031:Generated_Source\PSoC6\pdl\drivers/peripheral/mcwdt/cy_mcwdt.h **** ****************************************************************************//**
1032:Generated_Source\PSoC6\pdl\drivers/peripheral/mcwdt/cy_mcwdt.h **** *
1033:Generated_Source\PSoC6\pdl\drivers/peripheral/mcwdt/cy_mcwdt.h **** * Writes MCWDT interrupt mask register. This register configures which bits
1034:Generated_Source\PSoC6\pdl\drivers/peripheral/mcwdt/cy_mcwdt.h **** * from MCWDT interrupt request register will trigger an interrupt event.
1035:Generated_Source\PSoC6\pdl\drivers/peripheral/mcwdt/cy_mcwdt.h **** *
1036:Generated_Source\PSoC6\pdl\drivers/peripheral/mcwdt/cy_mcwdt.h **** *  \param base
1037:Generated_Source\PSoC6\pdl\drivers/peripheral/mcwdt/cy_mcwdt.h **** *  The base pointer to a structure that describes registers.
1038:Generated_Source\PSoC6\pdl\drivers/peripheral/mcwdt/cy_mcwdt.h **** *
1039:Generated_Source\PSoC6\pdl\drivers/peripheral/mcwdt/cy_mcwdt.h **** *  \param counters
1040:Generated_Source\PSoC6\pdl\drivers/peripheral/mcwdt/cy_mcwdt.h **** *  OR of all interrupt masks to set. See \ref CY_MCWDT_CTR0, CY_MCWDT_CTR1, and
1041:Generated_Source\PSoC6\pdl\drivers/peripheral/mcwdt/cy_mcwdt.h **** *  CY_MCWDT_CTR2  macros.
1042:Generated_Source\PSoC6\pdl\drivers/peripheral/mcwdt/cy_mcwdt.h **** *
1043:Generated_Source\PSoC6\pdl\drivers/peripheral/mcwdt/cy_mcwdt.h **** *******************************************************************************/
1044:Generated_Source\PSoC6\pdl\drivers/peripheral/mcwdt/cy_mcwdt.h **** __STATIC_INLINE void Cy_MCWDT_SetInterruptMask(MCWDT_STRUCT_Type *base, uint32_t counters)
1045:Generated_Source\PSoC6\pdl\drivers/peripheral/mcwdt/cy_mcwdt.h **** {
1046:Generated_Source\PSoC6\pdl\drivers/peripheral/mcwdt/cy_mcwdt.h ****     CY_ASSERT_L2(CY_MCWDT_IS_CNTS_MASK_VALID(counters));
1047:Generated_Source\PSoC6\pdl\drivers/peripheral/mcwdt/cy_mcwdt.h ****     
1048:Generated_Source\PSoC6\pdl\drivers/peripheral/mcwdt/cy_mcwdt.h ****     base->MCWDT_INTR_MASK = counters;
 869              		.loc 2 1048 0
 870 003a 0648     		ldr	r0, .L46+12
 871 003c 0223     		movs	r3, #2
 872 003e 0362     		str	r3, [r0, #32]
 873              	.LVL91:
 874              	.LBE132:
 875              	.LBE131:
 167:TimingMaster.c ****         NVIC_EnableIRQ(WatchDog_IRQ_cfg.intrSrc);
 168:TimingMaster.c ****     	Cy_MCWDT_SetInterruptMask(MCWDT_HW, CY_MCWDT_CTR1);
 169:TimingMaster.c ****         
 170:TimingMaster.c ****         cy_en_mcwdt_status_t wdtReturnValue = Cy_MCWDT_Init(MCWDT_HW, &MCWDT_config);
 876              		.loc 1 170 0
 877 0040 0549     		ldr	r1, .L46+16
 878 0042 FFF7FEFF 		bl	Cy_MCWDT_Init
 879              	.LVL92:
 880              	.L42:
 881              	.LBE126:
 171:TimingMaster.c ****         if(wdtReturnValue != CY_MCWDT_SUCCESS)
 172:TimingMaster.c ****         {
 173:TimingMaster.c ****             // ** Throw error
 174:TimingMaster.c ****         }
 175:TimingMaster.c ****     }
 176:TimingMaster.c ****     else
 177:TimingMaster.c ****     {
 178:TimingMaster.c ****         // ** Throw error
ARM GAS  C:\Users\salaz\AppData\Local\Temp\ccvE4Xni.s 			page 53


 179:TimingMaster.c ****     }
 180:TimingMaster.c **** }
 882              		.loc 1 180 0
 883              		@ sp needed
 884 0046 10BD     		pop	{r4, pc}
 885              	.L47:
 886              		.align	2
 887              	.L46:
 888 0048 00000000 		.word	WatchDogHandler
 889 004c 00000000 		.word	WatchDog_IRQ_cfg
 890 0050 00E100E0 		.word	-536813312
 891 0054 00022640 		.word	1076232704
 892 0058 00000000 		.word	MCWDT_config
 893              		.cfi_endproc
 894              	.LFE795:
 895              		.size	TimingMaster_Init, .-TimingMaster_Init
 896              		.comm	timers,240,4
 897              		.global	num_timers
 898              		.section	.rodata.str1.4,"aMS",%progbits,1
 899              		.align	2
 900              	.LC2:
 901 0000 47656E65 		.ascii	"Generated_Source\\PSoC6\\pdl\\drivers/peripheral/mc"
 901      72617465 
 901      645F536F 
 901      75726365 
 901      5C50536F 
 902 0030 7764742F 		.ascii	"wdt/cy_mcwdt.h\000"
 902      63795F6D 
 902      63776474 
 902      2E6800
 903              		.bss
 904              		.set	.LANCHOR0,. + 0
 905              		.type	num_timers, %object
 906              		.size	num_timers, 1
 907              	num_timers:
 908 0000 00       		.space	1
 909              		.text
 910              	.Letext0:
 911              		.file 4 "Generated_Source\\PSoC6\\pdl\\devices/psoc6/psoc63/include/cyble_416045_02.h"
 912              		.file 5 "c:\\program files (x86)\\cypress\\psoc creator\\4.2\\psoc creator\\import\\gnu\\arm\\5.4.
 913              		.file 6 "c:\\program files (x86)\\cypress\\psoc creator\\4.2\\psoc creator\\import\\gnu\\arm\\5.4.
 914              		.file 7 "Generated_Source\\PSoC6\\pdl\\devices/psoc6/ip/cyip_srss.h"
 915              		.file 8 "Generated_Source\\PSoC6\\pdl\\drivers/peripheral/syslib/cy_syslib.h"
 916              		.file 9 "Generated_Source\\PSoC6\\pdl\\drivers/peripheral/sysint/cy_sysint.h"
 917              		.file 10 "Generated_Source\\PSoC6\\pdl\\drivers/peripheral/tcpwm/cy_tcpwm_counter.h"
 918              		.file 11 "Generated_Source\\PSoC6\\pdl\\drivers/peripheral/tcpwm/cy_tcpwm_pwm.h"
 919              		.file 12 "Generated_Source\\PSoC6\\pdl\\drivers/peripheral/scb/cy_scb_i2c.h"
 920              		.file 13 "Generated_Source\\PSoC6\\pdl\\drivers/peripheral/scb/cy_scb_uart.h"
 921              		.file 14 "Generated_Source\\PSoC6\\pdl\\middleware/ble/cy_ble_stack.h"
 922              		.file 15 "Generated_Source\\PSoC6\\pdl\\middleware/ble/cy_ble_stack_host_main.h"
 923              		.file 16 "Generated_Source\\PSoC6\\pdl\\middleware/ble/cy_ble_gap.h"
 924              		.file 17 "Generated_Source\\PSoC6\\pdl\\drivers/peripheral/rtc/cy_rtc.h"
 925              		.file 18 "Generated_Source\\PSoC6/cyfitter_sysint_cfg.h"
 926              		.file 19 "Generated_Source\\PSoC6/UART_DEBUG.h"
 927              		.file 20 "Generated_Source\\PSoC6/MCWDT_PDL.h"
 928              		.file 21 "Generated_Source\\PSoC6/SensorBus.h"
 929              		.file 22 "Generated_Source\\PSoC6/LightOutputC.h"
ARM GAS  C:\Users\salaz\AppData\Local\Temp\ccvE4Xni.s 			page 54


 930              		.file 23 "Generated_Source\\PSoC6/LightOutputA.h"
 931              		.file 24 "Generated_Source\\PSoC6/LightTimer.h"
 932              		.file 25 "Generated_Source\\PSoC6/LightOutputB.h"
 933              		.file 26 "Generated_Source\\PSoC6/MotorOutput.h"
 934              		.file 27 "Generated_Source\\PSoC6/MotorTimer.h"
 935              		.file 28 "Generated_Source\\PSoC6/ChimeOutput.h"
 936              		.file 29 "Generated_Source\\PSoC6/ChimeTimer.h"
 937              		.file 30 "./SystemCore.h"
 938              		.section	.debug_info,"",%progbits
 939              	.Ldebug_info0:
 940 0000 4A240000 		.4byte	0x244a
 941 0004 0400     		.2byte	0x4
 942 0006 00000000 		.4byte	.Ldebug_abbrev0
 943 000a 04       		.byte	0x4
 944 000b 01       		.uleb128 0x1
 945 000c BC0D0000 		.4byte	.LASF655
 946 0010 0C       		.byte	0xc
 947 0011 B6020000 		.4byte	.LASF656
 948 0015 37110000 		.4byte	.LASF657
 949 0019 30000000 		.4byte	.Ldebug_ranges0+0x30
 950 001d 00000000 		.4byte	0
 951 0021 00000000 		.4byte	.Ldebug_line0
 952 0025 02       		.uleb128 0x2
 953 0026 08       		.byte	0x8
 954 0027 07       		.byte	0x7
 955 0028 7A250000 		.4byte	.LASF39
 956 002c 03       		.uleb128 0x3
 957 002d 02       		.byte	0x2
 958 002e 23010000 		.4byte	0x123
 959 0032 04       		.byte	0x4
 960 0033 24       		.byte	0x24
 961 0034 23010000 		.4byte	0x123
 962 0038 04       		.uleb128 0x4
 963 0039 AF260000 		.4byte	.LASF0
 964 003d 71       		.sleb128 -15
 965 003e 04       		.uleb128 0x4
 966 003f F5150000 		.4byte	.LASF1
 967 0043 72       		.sleb128 -14
 968 0044 04       		.uleb128 0x4
 969 0045 45350000 		.4byte	.LASF2
 970 0049 73       		.sleb128 -13
 971 004a 04       		.uleb128 0x4
 972 004b F91B0000 		.4byte	.LASF3
 973 004f 7B       		.sleb128 -5
 974 0050 04       		.uleb128 0x4
 975 0051 7A1B0000 		.4byte	.LASF4
 976 0055 7E       		.sleb128 -2
 977 0056 04       		.uleb128 0x4
 978 0057 E01E0000 		.4byte	.LASF5
 979 005b 7F       		.sleb128 -1
 980 005c 05       		.uleb128 0x5
 981 005d A8030000 		.4byte	.LASF6
 982 0061 00       		.byte	0
 983 0062 05       		.uleb128 0x5
 984 0063 D8000000 		.4byte	.LASF7
 985 0067 01       		.byte	0x1
 986 0068 05       		.uleb128 0x5
ARM GAS  C:\Users\salaz\AppData\Local\Temp\ccvE4Xni.s 			page 55


 987 0069 C21C0000 		.4byte	.LASF8
 988 006d 02       		.byte	0x2
 989 006e 05       		.uleb128 0x5
 990 006f E72F0000 		.4byte	.LASF9
 991 0073 03       		.byte	0x3
 992 0074 05       		.uleb128 0x5
 993 0075 AE2E0000 		.4byte	.LASF10
 994 0079 04       		.byte	0x4
 995 007a 05       		.uleb128 0x5
 996 007b BC2B0000 		.4byte	.LASF11
 997 007f 05       		.byte	0x5
 998 0080 05       		.uleb128 0x5
 999 0081 9B160000 		.4byte	.LASF12
 1000 0085 06       		.byte	0x6
 1001 0086 05       		.uleb128 0x5
 1002 0087 D8010000 		.4byte	.LASF13
 1003 008b 07       		.byte	0x7
 1004 008c 05       		.uleb128 0x5
 1005 008d D1350000 		.4byte	.LASF14
 1006 0091 08       		.byte	0x8
 1007 0092 05       		.uleb128 0x5
 1008 0093 D01F0000 		.4byte	.LASF15
 1009 0097 09       		.byte	0x9
 1010 0098 05       		.uleb128 0x5
 1011 0099 6C210000 		.4byte	.LASF16
 1012 009d 0A       		.byte	0xa
 1013 009e 05       		.uleb128 0x5
 1014 009f 111E0000 		.4byte	.LASF17
 1015 00a3 0B       		.byte	0xb
 1016 00a4 05       		.uleb128 0x5
 1017 00a5 D42C0000 		.4byte	.LASF18
 1018 00a9 0C       		.byte	0xc
 1019 00aa 05       		.uleb128 0x5
 1020 00ab 6D060000 		.4byte	.LASF19
 1021 00af 0D       		.byte	0xd
 1022 00b0 05       		.uleb128 0x5
 1023 00b1 25280000 		.4byte	.LASF20
 1024 00b5 0E       		.byte	0xe
 1025 00b6 05       		.uleb128 0x5
 1026 00b7 06240000 		.4byte	.LASF21
 1027 00bb 0F       		.byte	0xf
 1028 00bc 05       		.uleb128 0x5
 1029 00bd 0A100000 		.4byte	.LASF22
 1030 00c1 10       		.byte	0x10
 1031 00c2 05       		.uleb128 0x5
 1032 00c3 E4300000 		.4byte	.LASF23
 1033 00c7 11       		.byte	0x11
 1034 00c8 05       		.uleb128 0x5
 1035 00c9 1B2D0000 		.4byte	.LASF24
 1036 00cd 12       		.byte	0x12
 1037 00ce 05       		.uleb128 0x5
 1038 00cf 60180000 		.4byte	.LASF25
 1039 00d3 13       		.byte	0x13
 1040 00d4 05       		.uleb128 0x5
 1041 00d5 81360000 		.4byte	.LASF26
 1042 00d9 14       		.byte	0x14
 1043 00da 05       		.uleb128 0x5
ARM GAS  C:\Users\salaz\AppData\Local\Temp\ccvE4Xni.s 			page 56


 1044 00db 780C0000 		.4byte	.LASF27
 1045 00df 15       		.byte	0x15
 1046 00e0 05       		.uleb128 0x5
 1047 00e1 801D0000 		.4byte	.LASF28
 1048 00e5 16       		.byte	0x16
 1049 00e6 05       		.uleb128 0x5
 1050 00e7 75080000 		.4byte	.LASF29
 1051 00eb 17       		.byte	0x17
 1052 00ec 05       		.uleb128 0x5
 1053 00ed 902A0000 		.4byte	.LASF30
 1054 00f1 18       		.byte	0x18
 1055 00f2 05       		.uleb128 0x5
 1056 00f3 39270000 		.4byte	.LASF31
 1057 00f7 19       		.byte	0x19
 1058 00f8 05       		.uleb128 0x5
 1059 00f9 FD120000 		.4byte	.LASF32
 1060 00fd 1A       		.byte	0x1a
 1061 00fe 05       		.uleb128 0x5
 1062 00ff B2330000 		.4byte	.LASF33
 1063 0103 1B       		.byte	0x1b
 1064 0104 05       		.uleb128 0x5
 1065 0105 BA2F0000 		.4byte	.LASF34
 1066 0109 1C       		.byte	0x1c
 1067 010a 05       		.uleb128 0x5
 1068 010b 571B0000 		.4byte	.LASF35
 1069 010f 1D       		.byte	0x1d
 1070 0110 05       		.uleb128 0x5
 1071 0111 E6010000 		.4byte	.LASF36
 1072 0115 1E       		.byte	0x1e
 1073 0116 05       		.uleb128 0x5
 1074 0117 EB350000 		.4byte	.LASF37
 1075 011b 1F       		.byte	0x1f
 1076 011c 05       		.uleb128 0x5
 1077 011d 7A0D0000 		.4byte	.LASF38
 1078 0121 F0       		.byte	0xf0
 1079 0122 00       		.byte	0
 1080 0123 02       		.uleb128 0x2
 1081 0124 02       		.byte	0x2
 1082 0125 05       		.byte	0x5
 1083 0126 242C0000 		.4byte	.LASF40
 1084 012a 06       		.uleb128 0x6
 1085 012b F0160000 		.4byte	.LASF190
 1086 012f 04       		.byte	0x4
 1087 0130 F4       		.byte	0xf4
 1088 0131 2C000000 		.4byte	0x2c
 1089 0135 03       		.uleb128 0x3
 1090 0136 01       		.byte	0x1
 1091 0137 BA040000 		.4byte	0x4ba
 1092 013b 04       		.byte	0x4
 1093 013c FD       		.byte	0xfd
 1094 013d BA040000 		.4byte	0x4ba
 1095 0141 05       		.uleb128 0x5
 1096 0142 1A0B0000 		.4byte	.LASF41
 1097 0146 00       		.byte	0
 1098 0147 05       		.uleb128 0x5
 1099 0148 BE210000 		.4byte	.LASF42
 1100 014c 01       		.byte	0x1
ARM GAS  C:\Users\salaz\AppData\Local\Temp\ccvE4Xni.s 			page 57


 1101 014d 05       		.uleb128 0x5
 1102 014e D2190000 		.4byte	.LASF43
 1103 0152 02       		.byte	0x2
 1104 0153 05       		.uleb128 0x5
 1105 0154 921A0000 		.4byte	.LASF44
 1106 0158 03       		.byte	0x3
 1107 0159 05       		.uleb128 0x5
 1108 015a 07060000 		.4byte	.LASF45
 1109 015e 04       		.byte	0x4
 1110 015f 05       		.uleb128 0x5
 1111 0160 80020000 		.4byte	.LASF46
 1112 0164 05       		.byte	0x5
 1113 0165 05       		.uleb128 0x5
 1114 0166 EA230000 		.4byte	.LASF47
 1115 016a 06       		.byte	0x6
 1116 016b 05       		.uleb128 0x5
 1117 016c EE0F0000 		.4byte	.LASF48
 1118 0170 07       		.byte	0x7
 1119 0171 05       		.uleb128 0x5
 1120 0172 A90B0000 		.4byte	.LASF49
 1121 0176 08       		.byte	0x8
 1122 0177 05       		.uleb128 0x5
 1123 0178 FF2C0000 		.4byte	.LASF50
 1124 017c 09       		.byte	0x9
 1125 017d 05       		.uleb128 0x5
 1126 017e E42D0000 		.4byte	.LASF51
 1127 0182 0A       		.byte	0xa
 1128 0183 05       		.uleb128 0x5
 1129 0184 5B190000 		.4byte	.LASF52
 1130 0188 0B       		.byte	0xb
 1131 0189 05       		.uleb128 0x5
 1132 018a E4030000 		.4byte	.LASF53
 1133 018e 0C       		.byte	0xc
 1134 018f 05       		.uleb128 0x5
 1135 0190 FE000000 		.4byte	.LASF54
 1136 0194 0D       		.byte	0xd
 1137 0195 05       		.uleb128 0x5
 1138 0196 4C220000 		.4byte	.LASF55
 1139 019a 0E       		.byte	0xe
 1140 019b 05       		.uleb128 0x5
 1141 019c 50200000 		.4byte	.LASF56
 1142 01a0 0F       		.byte	0xf
 1143 01a1 05       		.uleb128 0x5
 1144 01a2 28300000 		.4byte	.LASF57
 1145 01a6 10       		.byte	0x10
 1146 01a7 05       		.uleb128 0x5
 1147 01a8 702C0000 		.4byte	.LASF58
 1148 01ac 11       		.byte	0x11
 1149 01ad 05       		.uleb128 0x5
 1150 01ae B02C0000 		.4byte	.LASF59
 1151 01b2 12       		.byte	0x12
 1152 01b3 05       		.uleb128 0x5
 1153 01b4 1B010000 		.4byte	.LASF60
 1154 01b8 13       		.byte	0x13
 1155 01b9 05       		.uleb128 0x5
 1156 01ba AA220000 		.4byte	.LASF61
 1157 01be 14       		.byte	0x14
ARM GAS  C:\Users\salaz\AppData\Local\Temp\ccvE4Xni.s 			page 58


 1158 01bf 05       		.uleb128 0x5
 1159 01c0 1F350000 		.4byte	.LASF62
 1160 01c4 15       		.byte	0x15
 1161 01c5 05       		.uleb128 0x5
 1162 01c6 ED020000 		.4byte	.LASF63
 1163 01ca 16       		.byte	0x16
 1164 01cb 05       		.uleb128 0x5
 1165 01cc 862C0000 		.4byte	.LASF64
 1166 01d0 17       		.byte	0x17
 1167 01d1 05       		.uleb128 0x5
 1168 01d2 7E240000 		.4byte	.LASF65
 1169 01d6 18       		.byte	0x18
 1170 01d7 05       		.uleb128 0x5
 1171 01d8 FC300000 		.4byte	.LASF66
 1172 01dc 19       		.byte	0x19
 1173 01dd 05       		.uleb128 0x5
 1174 01de D92E0000 		.4byte	.LASF67
 1175 01e2 1A       		.byte	0x1a
 1176 01e3 05       		.uleb128 0x5
 1177 01e4 5C1A0000 		.4byte	.LASF68
 1178 01e8 1B       		.byte	0x1b
 1179 01e9 05       		.uleb128 0x5
 1180 01ea BB050000 		.4byte	.LASF69
 1181 01ee 1C       		.byte	0x1c
 1182 01ef 05       		.uleb128 0x5
 1183 01f0 4A020000 		.4byte	.LASF70
 1184 01f4 1D       		.byte	0x1d
 1185 01f5 05       		.uleb128 0x5
 1186 01f6 BE230000 		.4byte	.LASF71
 1187 01fa 1E       		.byte	0x1e
 1188 01fb 05       		.uleb128 0x5
 1189 01fc C30F0000 		.4byte	.LASF72
 1190 0200 1F       		.byte	0x1f
 1191 0201 05       		.uleb128 0x5
 1192 0202 360B0000 		.4byte	.LASF73
 1193 0206 20       		.byte	0x20
 1194 0207 05       		.uleb128 0x5
 1195 0208 E32C0000 		.4byte	.LASF74
 1196 020c 21       		.byte	0x21
 1197 020d 05       		.uleb128 0x5
 1198 020e 44180000 		.4byte	.LASF75
 1199 0212 22       		.byte	0x22
 1200 0213 05       		.uleb128 0x5
 1201 0214 201E0000 		.4byte	.LASF76
 1202 0218 23       		.byte	0x23
 1203 0219 05       		.uleb128 0x5
 1204 021a F6080000 		.4byte	.LASF77
 1205 021e 24       		.byte	0x24
 1206 021f 05       		.uleb128 0x5
 1207 0220 272B0000 		.4byte	.LASF78
 1208 0224 25       		.byte	0x25
 1209 0225 05       		.uleb128 0x5
 1210 0226 59280000 		.4byte	.LASF79
 1211 022a 26       		.byte	0x26
 1212 022b 05       		.uleb128 0x5
 1213 022c CC130000 		.4byte	.LASF80
 1214 0230 27       		.byte	0x27
ARM GAS  C:\Users\salaz\AppData\Local\Temp\ccvE4Xni.s 			page 59


 1215 0231 05       		.uleb128 0x5
 1216 0232 DC340000 		.4byte	.LASF81
 1217 0236 28       		.byte	0x28
 1218 0237 05       		.uleb128 0x5
 1219 0238 E9100000 		.4byte	.LASF82
 1220 023c 29       		.byte	0x29
 1221 023d 05       		.uleb128 0x5
 1222 023e 3F2A0000 		.4byte	.LASF83
 1223 0242 2A       		.byte	0x2a
 1224 0243 05       		.uleb128 0x5
 1225 0244 72040000 		.4byte	.LASF84
 1226 0248 2B       		.byte	0x2b
 1227 0249 05       		.uleb128 0x5
 1228 024a A52F0000 		.4byte	.LASF85
 1229 024e 2C       		.byte	0x2c
 1230 024f 05       		.uleb128 0x5
 1231 0250 EA210000 		.4byte	.LASF86
 1232 0254 2D       		.byte	0x2d
 1233 0255 05       		.uleb128 0x5
 1234 0256 CA2B0000 		.4byte	.LASF87
 1235 025a 2E       		.byte	0x2e
 1236 025b 05       		.uleb128 0x5
 1237 025c 682B0000 		.4byte	.LASF88
 1238 0260 2F       		.byte	0x2f
 1239 0261 05       		.uleb128 0x5
 1240 0262 C50B0000 		.4byte	.LASF89
 1241 0266 30       		.byte	0x30
 1242 0267 05       		.uleb128 0x5
 1243 0268 620A0000 		.4byte	.LASF90
 1244 026c 31       		.byte	0x31
 1245 026d 05       		.uleb128 0x5
 1246 026e 18120000 		.4byte	.LASF91
 1247 0272 32       		.byte	0x32
 1248 0273 05       		.uleb128 0x5
 1249 0274 80320000 		.4byte	.LASF92
 1250 0278 33       		.byte	0x33
 1251 0279 05       		.uleb128 0x5
 1252 027a B51D0000 		.4byte	.LASF93
 1253 027e 34       		.byte	0x34
 1254 027f 05       		.uleb128 0x5
 1255 0280 191A0000 		.4byte	.LASF94
 1256 0284 35       		.byte	0x35
 1257 0285 05       		.uleb128 0x5
 1258 0286 45050000 		.4byte	.LASF95
 1259 028a 36       		.byte	0x36
 1260 028b 05       		.uleb128 0x5
 1261 028c 6F270000 		.4byte	.LASF96
 1262 0290 37       		.byte	0x37
 1263 0291 05       		.uleb128 0x5
 1264 0292 43230000 		.4byte	.LASF97
 1265 0296 38       		.byte	0x38
 1266 0297 05       		.uleb128 0x5
 1267 0298 290F0000 		.4byte	.LASF98
 1268 029c 39       		.byte	0x39
 1269 029d 05       		.uleb128 0x5
 1270 029e F52F0000 		.4byte	.LASF99
 1271 02a2 3A       		.byte	0x3a
ARM GAS  C:\Users\salaz\AppData\Local\Temp\ccvE4Xni.s 			page 60


 1272 02a3 05       		.uleb128 0x5
 1273 02a4 861B0000 		.4byte	.LASF100
 1274 02a8 3B       		.byte	0x3b
 1275 02a9 05       		.uleb128 0x5
 1276 02aa 92190000 		.4byte	.LASF101
 1277 02ae 3C       		.byte	0x3c
 1278 02af 05       		.uleb128 0x5
 1279 02b0 01040000 		.4byte	.LASF102
 1280 02b4 3D       		.byte	0x3d
 1281 02b5 05       		.uleb128 0x5
 1282 02b6 65260000 		.4byte	.LASF103
 1283 02ba 3E       		.byte	0x3e
 1284 02bb 05       		.uleb128 0x5
 1285 02bc 81220000 		.4byte	.LASF104
 1286 02c0 3F       		.byte	0x3f
 1287 02c1 05       		.uleb128 0x5
 1288 02c2 4E0E0000 		.4byte	.LASF105
 1289 02c6 40       		.byte	0x40
 1290 02c7 05       		.uleb128 0x5
 1291 02c8 BC2E0000 		.4byte	.LASF106
 1292 02cc 41       		.byte	0x41
 1293 02cd 05       		.uleb128 0x5
 1294 02ce 24340000 		.4byte	.LASF107
 1295 02d2 42       		.byte	0x42
 1296 02d3 05       		.uleb128 0x5
 1297 02d4 B21E0000 		.4byte	.LASF108
 1298 02d8 43       		.byte	0x43
 1299 02d9 05       		.uleb128 0x5
 1300 02da DE090000 		.4byte	.LASF109
 1301 02de 44       		.byte	0x44
 1302 02df 05       		.uleb128 0x5
 1303 02e0 DA060000 		.4byte	.LASF110
 1304 02e4 45       		.byte	0x45
 1305 02e5 05       		.uleb128 0x5
 1306 02e6 8B200000 		.4byte	.LASF111
 1307 02ea 46       		.byte	0x46
 1308 02eb 05       		.uleb128 0x5
 1309 02ec 50140000 		.4byte	.LASF112
 1310 02f0 47       		.byte	0x47
 1311 02f1 05       		.uleb128 0x5
 1312 02f2 15150000 		.4byte	.LASF113
 1313 02f6 48       		.byte	0x48
 1314 02f7 05       		.uleb128 0x5
 1315 02f8 85310000 		.4byte	.LASF114
 1316 02fc 49       		.byte	0x49
 1317 02fd 05       		.uleb128 0x5
 1318 02fe 731C0000 		.4byte	.LASF115
 1319 0302 4A       		.byte	0x4a
 1320 0303 05       		.uleb128 0x5
 1321 0304 F2180000 		.4byte	.LASF116
 1322 0308 4B       		.byte	0x4b
 1323 0309 05       		.uleb128 0x5
 1324 030a 91250000 		.4byte	.LASF117
 1325 030e 4C       		.byte	0x4c
 1326 030f 05       		.uleb128 0x5
 1327 0310 BE110000 		.4byte	.LASF118
 1328 0314 4D       		.byte	0x4d
ARM GAS  C:\Users\salaz\AppData\Local\Temp\ccvE4Xni.s 			page 61


 1329 0315 05       		.uleb128 0x5
 1330 0316 35320000 		.4byte	.LASF119
 1331 031a 4E       		.byte	0x4e
 1332 031b 05       		.uleb128 0x5
 1333 031c 552E0000 		.4byte	.LASF120
 1334 0320 4F       		.byte	0x4f
 1335 0321 05       		.uleb128 0x5
 1336 0322 EE190000 		.4byte	.LASF121
 1337 0326 50       		.byte	0x50
 1338 0327 05       		.uleb128 0x5
 1339 0328 B1040000 		.4byte	.LASF122
 1340 032c 51       		.byte	0x51
 1341 032d 05       		.uleb128 0x5
 1342 032e C7280000 		.4byte	.LASF123
 1343 0332 52       		.byte	0x52
 1344 0333 05       		.uleb128 0x5
 1345 0334 6C140000 		.4byte	.LASF124
 1346 0338 53       		.byte	0x53
 1347 0339 05       		.uleb128 0x5
 1348 033a 36290000 		.4byte	.LASF125
 1349 033e 54       		.byte	0x54
 1350 033f 05       		.uleb128 0x5
 1351 0340 60030000 		.4byte	.LASF126
 1352 0344 55       		.byte	0x55
 1353 0345 05       		.uleb128 0x5
 1354 0346 84230000 		.4byte	.LASF127
 1355 034a 56       		.byte	0x56
 1356 034b 05       		.uleb128 0x5
 1357 034c 07170000 		.4byte	.LASF128
 1358 0350 57       		.byte	0x57
 1359 0351 05       		.uleb128 0x5
 1360 0352 F3330000 		.4byte	.LASF129
 1361 0356 58       		.byte	0x58
 1362 0357 05       		.uleb128 0x5
 1363 0358 2A2D0000 		.4byte	.LASF130
 1364 035c 59       		.byte	0x59
 1365 035d 05       		.uleb128 0x5
 1366 035e E7290000 		.4byte	.LASF131
 1367 0362 5A       		.byte	0x5a
 1368 0363 05       		.uleb128 0x5
 1369 0364 BE010000 		.4byte	.LASF132
 1370 0368 5B       		.byte	0x5b
 1371 0369 05       		.uleb128 0x5
 1372 036a 95150000 		.4byte	.LASF133
 1373 036e 5C       		.byte	0x5c
 1374 036f 05       		.uleb128 0x5
 1375 0370 16330000 		.4byte	.LASF134
 1376 0374 5D       		.byte	0x5d
 1377 0375 05       		.uleb128 0x5
 1378 0376 F52E0000 		.4byte	.LASF135
 1379 037a 5E       		.byte	0x5e
 1380 037b 05       		.uleb128 0x5
 1381 037c 781A0000 		.4byte	.LASF136
 1382 0380 5F       		.byte	0x5f
 1383 0381 05       		.uleb128 0x5
 1384 0382 D7050000 		.4byte	.LASF137
 1385 0386 60       		.byte	0x60
ARM GAS  C:\Users\salaz\AppData\Local\Temp\ccvE4Xni.s 			page 62


 1386 0387 05       		.uleb128 0x5
 1387 0388 66020000 		.4byte	.LASF138
 1388 038c 61       		.byte	0x61
 1389 038d 05       		.uleb128 0x5
 1390 038e B5270000 		.4byte	.LASF139
 1391 0392 62       		.byte	0x62
 1392 0393 05       		.uleb128 0x5
 1393 0394 A4230000 		.4byte	.LASF140
 1394 0398 63       		.byte	0x63
 1395 0399 05       		.uleb128 0x5
 1396 039a A90F0000 		.4byte	.LASF141
 1397 039e 64       		.byte	0x64
 1398 039f 05       		.uleb128 0x5
 1399 03a0 4F300000 		.4byte	.LASF142
 1400 03a4 65       		.byte	0x65
 1401 03a5 05       		.uleb128 0x5
 1402 03a6 B91B0000 		.4byte	.LASF143
 1403 03aa 66       		.byte	0x66
 1404 03ab 05       		.uleb128 0x5
 1405 03ac 2A180000 		.4byte	.LASF144
 1406 03b0 67       		.byte	0x67
 1407 03b1 05       		.uleb128 0x5
 1408 03b2 30030000 		.4byte	.LASF145
 1409 03b6 68       		.byte	0x68
 1410 03b7 05       		.uleb128 0x5
 1411 03b8 DC240000 		.4byte	.LASF146
 1412 03bc 69       		.byte	0x69
 1413 03bd 05       		.uleb128 0x5
 1414 03be 42210000 		.4byte	.LASF147
 1415 03c2 6A       		.byte	0x6a
 1416 03c3 05       		.uleb128 0x5
 1417 03c4 172A0000 		.4byte	.LASF148
 1418 03c8 6B       		.byte	0x6b
 1419 03c9 05       		.uleb128 0x5
 1420 03ca EF1C0000 		.4byte	.LASF149
 1421 03ce 6C       		.byte	0x6c
 1422 03cf 05       		.uleb128 0x5
 1423 03d0 01320000 		.4byte	.LASF150
 1424 03d4 6D       		.byte	0x6d
 1425 03d5 05       		.uleb128 0x5
 1426 03d6 2E1D0000 		.4byte	.LASF151
 1427 03da 6E       		.byte	0x6e
 1428 03db 05       		.uleb128 0x5
 1429 03dc 3F080000 		.4byte	.LASF152
 1430 03e0 6F       		.byte	0x6f
 1431 03e1 05       		.uleb128 0x5
 1432 03e2 57040000 		.4byte	.LASF153
 1433 03e6 70       		.byte	0x70
 1434 03e7 05       		.uleb128 0x5
 1435 03e8 65120000 		.4byte	.LASF154
 1436 03ec 71       		.byte	0x71
 1437 03ed 05       		.uleb128 0x5
 1438 03ee 80120000 		.4byte	.LASF155
 1439 03f2 72       		.byte	0x72
 1440 03f3 05       		.uleb128 0x5
 1441 03f4 780E0000 		.4byte	.LASF156
 1442 03f8 73       		.byte	0x73
ARM GAS  C:\Users\salaz\AppData\Local\Temp\ccvE4Xni.s 			page 63


 1443 03f9 05       		.uleb128 0x5
 1444 03fa 1F2F0000 		.4byte	.LASF157
 1445 03fe 74       		.byte	0x74
 1446 03ff 05       		.uleb128 0x5
 1447 0400 AE1A0000 		.4byte	.LASF158
 1448 0404 75       		.byte	0x75
 1449 0405 05       		.uleb128 0x5
 1450 0406 13140000 		.4byte	.LASF159
 1451 040a 76       		.byte	0x76
 1452 040b 05       		.uleb128 0x5
 1453 040c 7D350000 		.4byte	.LASF160
 1454 0410 77       		.byte	0x77
 1455 0411 05       		.uleb128 0x5
 1456 0412 BD000000 		.4byte	.LASF161
 1457 0416 78       		.byte	0x78
 1458 0417 05       		.uleb128 0x5
 1459 0418 581C0000 		.4byte	.LASF162
 1460 041c 79       		.byte	0x79
 1461 041d 05       		.uleb128 0x5
 1462 041e 29080000 		.4byte	.LASF163
 1463 0422 7A       		.byte	0x7a
 1464 0423 05       		.uleb128 0x5
 1465 0424 012A0000 		.4byte	.LASF164
 1466 0428 7B       		.byte	0x7b
 1467 0429 05       		.uleb128 0x5
 1468 042a 31150000 		.4byte	.LASF165
 1469 042e 7C       		.byte	0x7c
 1470 042f 05       		.uleb128 0x5
 1471 0430 7E030000 		.4byte	.LASF166
 1472 0434 7D       		.byte	0x7d
 1473 0435 05       		.uleb128 0x5
 1474 0436 30330000 		.4byte	.LASF167
 1475 043a 7E       		.byte	0x7e
 1476 043b 05       		.uleb128 0x5
 1477 043c EE1D0000 		.4byte	.LASF168
 1478 0440 7F       		.byte	0x7f
 1479 0441 05       		.uleb128 0x5
 1480 0442 B0080000 		.4byte	.LASF169
 1481 0446 80       		.byte	0x80
 1482 0447 05       		.uleb128 0x5
 1483 0448 F1050000 		.4byte	.LASF170
 1484 044c 81       		.byte	0x81
 1485 044d 05       		.uleb128 0x5
 1486 044e F8270000 		.4byte	.LASF171
 1487 0452 82       		.byte	0x82
 1488 0453 05       		.uleb128 0x5
 1489 0454 9E130000 		.4byte	.LASF172
 1490 0458 83       		.byte	0x83
 1491 0459 05       		.uleb128 0x5
 1492 045a 11300000 		.4byte	.LASF173
 1493 045e 84       		.byte	0x84
 1494 045f 05       		.uleb128 0x5
 1495 0460 A21B0000 		.4byte	.LASF174
 1496 0464 85       		.byte	0x85
 1497 0465 05       		.uleb128 0x5
 1498 0466 EB170000 		.4byte	.LASF175
 1499 046a 86       		.byte	0x86
ARM GAS  C:\Users\salaz\AppData\Local\Temp\ccvE4Xni.s 			page 64


 1500 046b 05       		.uleb128 0x5
 1501 046c 19030000 		.4byte	.LASF176
 1502 0470 87       		.byte	0x87
 1503 0471 05       		.uleb128 0x5
 1504 0472 76280000 		.4byte	.LASF177
 1505 0476 88       		.byte	0x88
 1506 0477 05       		.uleb128 0x5
 1507 0478 EE200000 		.4byte	.LASF178
 1508 047c 89       		.byte	0x89
 1509 047d 05       		.uleb128 0x5
 1510 047e 13200000 		.4byte	.LASF179
 1511 0482 8A       		.byte	0x8a
 1512 0483 05       		.uleb128 0x5
 1513 0484 CC290000 		.4byte	.LASF180
 1514 0488 8B       		.byte	0x8b
 1515 0489 05       		.uleb128 0x5
 1516 048a 15240000 		.4byte	.LASF181
 1517 048e 8C       		.byte	0x8c
 1518 048f 05       		.uleb128 0x5
 1519 0490 CD030000 		.4byte	.LASF182
 1520 0494 8D       		.byte	0x8d
 1521 0495 05       		.uleb128 0x5
 1522 0496 43040000 		.4byte	.LASF183
 1523 049a 8E       		.byte	0x8e
 1524 049b 05       		.uleb128 0x5
 1525 049c B3310000 		.4byte	.LASF184
 1526 04a0 8F       		.byte	0x8f
 1527 04a1 05       		.uleb128 0x5
 1528 04a2 D10E0000 		.4byte	.LASF185
 1529 04a6 90       		.byte	0x90
 1530 04a7 05       		.uleb128 0x5
 1531 04a8 4A030000 		.4byte	.LASF186
 1532 04ac 91       		.byte	0x91
 1533 04ad 05       		.uleb128 0x5
 1534 04ae 2E140000 		.4byte	.LASF187
 1535 04b2 92       		.byte	0x92
 1536 04b3 05       		.uleb128 0x5
 1537 04b4 31040000 		.4byte	.LASF188
 1538 04b8 F0       		.byte	0xf0
 1539 04b9 00       		.byte	0
 1540 04ba 02       		.uleb128 0x2
 1541 04bb 01       		.byte	0x1
 1542 04bc 08       		.byte	0x8
 1543 04bd FC0B0000 		.4byte	.LASF189
 1544 04c1 07       		.uleb128 0x7
 1545 04c2 772F0000 		.4byte	.LASF191
 1546 04c6 04       		.byte	0x4
 1547 04c7 9201     		.2byte	0x192
 1548 04c9 35010000 		.4byte	0x135
 1549 04cd 06       		.uleb128 0x6
 1550 04ce CC240000 		.4byte	.LASF192
 1551 04d2 05       		.byte	0x5
 1552 04d3 1B       		.byte	0x1b
 1553 04d4 D8040000 		.4byte	0x4d8
 1554 04d8 02       		.uleb128 0x2
 1555 04d9 01       		.byte	0x1
 1556 04da 06       		.byte	0x6
ARM GAS  C:\Users\salaz\AppData\Local\Temp\ccvE4Xni.s 			page 65


 1557 04db 8F0A0000 		.4byte	.LASF193
 1558 04df 06       		.uleb128 0x6
 1559 04e0 B5060000 		.4byte	.LASF194
 1560 04e4 05       		.byte	0x5
 1561 04e5 1D       		.byte	0x1d
 1562 04e6 BA040000 		.4byte	0x4ba
 1563 04ea 06       		.uleb128 0x6
 1564 04eb EB080000 		.4byte	.LASF195
 1565 04ef 05       		.byte	0x5
 1566 04f0 2B       		.byte	0x2b
 1567 04f1 F5040000 		.4byte	0x4f5
 1568 04f5 02       		.uleb128 0x2
 1569 04f6 02       		.byte	0x2
 1570 04f7 07       		.byte	0x7
 1571 04f8 5C320000 		.4byte	.LASF196
 1572 04fc 06       		.uleb128 0x6
 1573 04fd C1330000 		.4byte	.LASF197
 1574 0501 05       		.byte	0x5
 1575 0502 3F       		.byte	0x3f
 1576 0503 07050000 		.4byte	0x507
 1577 0507 02       		.uleb128 0x2
 1578 0508 04       		.byte	0x4
 1579 0509 05       		.byte	0x5
 1580 050a 98070000 		.4byte	.LASF198
 1581 050e 06       		.uleb128 0x6
 1582 050f 351A0000 		.4byte	.LASF199
 1583 0513 05       		.byte	0x5
 1584 0514 41       		.byte	0x41
 1585 0515 19050000 		.4byte	0x519
 1586 0519 02       		.uleb128 0x2
 1587 051a 04       		.byte	0x4
 1588 051b 07       		.byte	0x7
 1589 051c 59160000 		.4byte	.LASF200
 1590 0520 02       		.uleb128 0x2
 1591 0521 08       		.byte	0x8
 1592 0522 05       		.byte	0x5
 1593 0523 6C110000 		.4byte	.LASF201
 1594 0527 06       		.uleb128 0x6
 1595 0528 09160000 		.4byte	.LASF202
 1596 052c 05       		.byte	0x5
 1597 052d 5B       		.byte	0x5b
 1598 052e 25000000 		.4byte	0x25
 1599 0532 08       		.uleb128 0x8
 1600 0533 04       		.byte	0x4
 1601 0534 05       		.byte	0x5
 1602 0535 696E7400 		.ascii	"int\000"
 1603 0539 02       		.uleb128 0x2
 1604 053a 04       		.byte	0x4
 1605 053b 07       		.byte	0x7
 1606 053c 041E0000 		.4byte	.LASF203
 1607 0540 06       		.uleb128 0x6
 1608 0541 4A000000 		.4byte	.LASF204
 1609 0545 06       		.byte	0x6
 1610 0546 14       		.byte	0x14
 1611 0547 CD040000 		.4byte	0x4cd
 1612 054b 06       		.uleb128 0x6
 1613 054c BD0A0000 		.4byte	.LASF205
ARM GAS  C:\Users\salaz\AppData\Local\Temp\ccvE4Xni.s 			page 66


 1614 0550 06       		.byte	0x6
 1615 0551 18       		.byte	0x18
 1616 0552 DF040000 		.4byte	0x4df
 1617 0556 06       		.uleb128 0x6
 1618 0557 F7250000 		.4byte	.LASF206
 1619 055b 06       		.byte	0x6
 1620 055c 24       		.byte	0x24
 1621 055d EA040000 		.4byte	0x4ea
 1622 0561 06       		.uleb128 0x6
 1623 0562 6D010000 		.4byte	.LASF207
 1624 0566 06       		.byte	0x6
 1625 0567 2C       		.byte	0x2c
 1626 0568 FC040000 		.4byte	0x4fc
 1627 056c 06       		.uleb128 0x6
 1628 056d F3300000 		.4byte	.LASF208
 1629 0571 06       		.byte	0x6
 1630 0572 30       		.byte	0x30
 1631 0573 0E050000 		.4byte	0x50e
 1632 0577 06       		.uleb128 0x6
 1633 0578 F10A0000 		.4byte	.LASF209
 1634 057c 06       		.byte	0x6
 1635 057d 3C       		.byte	0x3c
 1636 057e 27050000 		.4byte	0x527
 1637 0582 09       		.uleb128 0x9
 1638 0583 2003     		.2byte	0x320
 1639 0585 03       		.byte	0x3
 1640 0586 4601     		.2byte	0x146
 1641 0588 14060000 		.4byte	0x614
 1642 058c 0A       		.uleb128 0xa
 1643 058d D7340000 		.4byte	.LASF210
 1644 0591 03       		.byte	0x3
 1645 0592 4801     		.2byte	0x148
 1646 0594 30060000 		.4byte	0x630
 1647 0598 00       		.byte	0
 1648 0599 0A       		.uleb128 0xa
 1649 059a E80B0000 		.4byte	.LASF211
 1650 059e 03       		.byte	0x3
 1651 059f 4901     		.2byte	0x149
 1652 05a1 35060000 		.4byte	0x635
 1653 05a5 04       		.byte	0x4
 1654 05a6 0A       		.uleb128 0xa
 1655 05a7 AC280000 		.4byte	.LASF212
 1656 05ab 03       		.byte	0x3
 1657 05ac 4A01     		.2byte	0x14a
 1658 05ae 45060000 		.4byte	0x645
 1659 05b2 80       		.byte	0x80
 1660 05b3 0A       		.uleb128 0xa
 1661 05b4 00000000 		.4byte	.LASF213
 1662 05b8 03       		.byte	0x3
 1663 05b9 4B01     		.2byte	0x14b
 1664 05bb 35060000 		.4byte	0x635
 1665 05bf 84       		.byte	0x84
 1666 05c0 0B       		.uleb128 0xb
 1667 05c1 60120000 		.4byte	.LASF214
 1668 05c5 03       		.byte	0x3
 1669 05c6 4C01     		.2byte	0x14c
 1670 05c8 4A060000 		.4byte	0x64a
ARM GAS  C:\Users\salaz\AppData\Local\Temp\ccvE4Xni.s 			page 67


 1671 05cc 0001     		.2byte	0x100
 1672 05ce 0B       		.uleb128 0xb
 1673 05cf 72100000 		.4byte	.LASF215
 1674 05d3 03       		.byte	0x3
 1675 05d4 4D01     		.2byte	0x14d
 1676 05d6 35060000 		.4byte	0x635
 1677 05da 0401     		.2byte	0x104
 1678 05dc 0B       		.uleb128 0xb
 1679 05dd E9040000 		.4byte	.LASF216
 1680 05e1 03       		.byte	0x3
 1681 05e2 4E01     		.2byte	0x14e
 1682 05e4 4F060000 		.4byte	0x64f
 1683 05e8 8001     		.2byte	0x180
 1684 05ea 0B       		.uleb128 0xb
 1685 05eb 0A0C0000 		.4byte	.LASF217
 1686 05ef 03       		.byte	0x3
 1687 05f0 4F01     		.2byte	0x14f
 1688 05f2 35060000 		.4byte	0x635
 1689 05f6 8401     		.2byte	0x184
 1690 05f8 0B       		.uleb128 0xb
 1691 05f9 140C0000 		.4byte	.LASF218
 1692 05fd 03       		.byte	0x3
 1693 05fe 5001     		.2byte	0x150
 1694 0600 54060000 		.4byte	0x654
 1695 0604 0002     		.2byte	0x200
 1696 0606 0C       		.uleb128 0xc
 1697 0607 495000   		.ascii	"IP\000"
 1698 060a 03       		.byte	0x3
 1699 060b 5101     		.2byte	0x151
 1700 060d 74060000 		.4byte	0x674
 1701 0611 0003     		.2byte	0x300
 1702 0613 00       		.byte	0
 1703 0614 0D       		.uleb128 0xd
 1704 0615 2B060000 		.4byte	0x62b
 1705 0619 24060000 		.4byte	0x624
 1706 061d 0E       		.uleb128 0xe
 1707 061e 24060000 		.4byte	0x624
 1708 0622 00       		.byte	0
 1709 0623 00       		.byte	0
 1710 0624 02       		.uleb128 0x2
 1711 0625 04       		.byte	0x4
 1712 0626 07       		.byte	0x7
 1713 0627 7A000000 		.4byte	.LASF219
 1714 062b 0F       		.uleb128 0xf
 1715 062c 6C050000 		.4byte	0x56c
 1716 0630 0F       		.uleb128 0xf
 1717 0631 14060000 		.4byte	0x614
 1718 0635 0D       		.uleb128 0xd
 1719 0636 6C050000 		.4byte	0x56c
 1720 063a 45060000 		.4byte	0x645
 1721 063e 0E       		.uleb128 0xe
 1722 063f 24060000 		.4byte	0x624
 1723 0643 1E       		.byte	0x1e
 1724 0644 00       		.byte	0
 1725 0645 0F       		.uleb128 0xf
 1726 0646 14060000 		.4byte	0x614
 1727 064a 0F       		.uleb128 0xf
ARM GAS  C:\Users\salaz\AppData\Local\Temp\ccvE4Xni.s 			page 68


 1728 064b 14060000 		.4byte	0x614
 1729 064f 0F       		.uleb128 0xf
 1730 0650 14060000 		.4byte	0x614
 1731 0654 0D       		.uleb128 0xd
 1732 0655 6C050000 		.4byte	0x56c
 1733 0659 64060000 		.4byte	0x664
 1734 065d 0E       		.uleb128 0xe
 1735 065e 24060000 		.4byte	0x624
 1736 0662 3F       		.byte	0x3f
 1737 0663 00       		.byte	0
 1738 0664 0D       		.uleb128 0xd
 1739 0665 2B060000 		.4byte	0x62b
 1740 0669 74060000 		.4byte	0x674
 1741 066d 0E       		.uleb128 0xe
 1742 066e 24060000 		.4byte	0x624
 1743 0672 07       		.byte	0x7
 1744 0673 00       		.byte	0
 1745 0674 0F       		.uleb128 0xf
 1746 0675 64060000 		.4byte	0x664
 1747 0679 07       		.uleb128 0x7
 1748 067a B8240000 		.4byte	.LASF220
 1749 067e 03       		.byte	0x3
 1750 067f 5201     		.2byte	0x152
 1751 0681 82050000 		.4byte	0x582
 1752 0685 10       		.uleb128 0x10
 1753 0686 2B060000 		.4byte	0x62b
 1754 068a 0D       		.uleb128 0xd
 1755 068b 85060000 		.4byte	0x685
 1756 068f 9A060000 		.4byte	0x69a
 1757 0693 0E       		.uleb128 0xe
 1758 0694 24060000 		.4byte	0x624
 1759 0698 01       		.byte	0x1
 1760 0699 00       		.byte	0
 1761 069a 0D       		.uleb128 0xd
 1762 069b 85060000 		.4byte	0x685
 1763 069f AA060000 		.4byte	0x6aa
 1764 06a3 0E       		.uleb128 0xe
 1765 06a4 24060000 		.4byte	0x624
 1766 06a8 07       		.byte	0x7
 1767 06a9 00       		.byte	0
 1768 06aa 0D       		.uleb128 0xd
 1769 06ab 2B060000 		.4byte	0x62b
 1770 06af BA060000 		.4byte	0x6ba
 1771 06b3 0E       		.uleb128 0xe
 1772 06b4 24060000 		.4byte	0x624
 1773 06b8 0F       		.byte	0xf
 1774 06b9 00       		.byte	0
 1775 06ba 0D       		.uleb128 0xd
 1776 06bb 85060000 		.4byte	0x685
 1777 06bf CA060000 		.4byte	0x6ca
 1778 06c3 0E       		.uleb128 0xe
 1779 06c4 24060000 		.4byte	0x624
 1780 06c8 2F       		.byte	0x2f
 1781 06c9 00       		.byte	0
 1782 06ca 0D       		.uleb128 0xd
 1783 06cb 85060000 		.4byte	0x685
 1784 06cf DA060000 		.4byte	0x6da
ARM GAS  C:\Users\salaz\AppData\Local\Temp\ccvE4Xni.s 			page 69


 1785 06d3 0E       		.uleb128 0xe
 1786 06d4 24060000 		.4byte	0x624
 1787 06d8 0F       		.byte	0xf
 1788 06d9 00       		.byte	0
 1789 06da 0D       		.uleb128 0xd
 1790 06db 85060000 		.4byte	0x685
 1791 06df EA060000 		.4byte	0x6ea
 1792 06e3 0E       		.uleb128 0xe
 1793 06e4 24060000 		.4byte	0x624
 1794 06e8 04       		.byte	0x4
 1795 06e9 00       		.byte	0
 1796 06ea 0D       		.uleb128 0xd
 1797 06eb 85060000 		.4byte	0x685
 1798 06ef FA060000 		.4byte	0x6fa
 1799 06f3 0E       		.uleb128 0xe
 1800 06f4 24060000 		.4byte	0x624
 1801 06f8 1A       		.byte	0x1a
 1802 06f9 00       		.byte	0
 1803 06fa 0D       		.uleb128 0xd
 1804 06fb 85060000 		.4byte	0x685
 1805 06ff 0A070000 		.4byte	0x70a
 1806 0703 0E       		.uleb128 0xe
 1807 0704 24060000 		.4byte	0x624
 1808 0708 1C       		.byte	0x1c
 1809 0709 00       		.byte	0
 1810 070a 11       		.uleb128 0x11
 1811 070b 40       		.byte	0x40
 1812 070c 07       		.byte	0x7
 1813 070d 22       		.byte	0x22
 1814 070e A3070000 		.4byte	0x7a3
 1815 0712 12       		.uleb128 0x12
 1816 0713 47140000 		.4byte	.LASF221
 1817 0717 07       		.byte	0x7
 1818 0718 23       		.byte	0x23
 1819 0719 85060000 		.4byte	0x685
 1820 071d 00       		.byte	0
 1821 071e 12       		.uleb128 0x12
 1822 071f 342E0000 		.4byte	.LASF222
 1823 0723 07       		.byte	0x7
 1824 0724 24       		.byte	0x24
 1825 0725 2B060000 		.4byte	0x62b
 1826 0729 04       		.byte	0x4
 1827 072a 12       		.uleb128 0x12
 1828 072b A8140000 		.4byte	.LASF223
 1829 072f 07       		.byte	0x7
 1830 0730 25       		.byte	0x25
 1831 0731 2B060000 		.4byte	0x62b
 1832 0735 08       		.byte	0x8
 1833 0736 12       		.uleb128 0x12
 1834 0737 E80E0000 		.4byte	.LASF224
 1835 073b 07       		.byte	0x7
 1836 073c 26       		.byte	0x26
 1837 073d 2B060000 		.4byte	0x62b
 1838 0741 0C       		.byte	0xc
 1839 0742 12       		.uleb128 0x12
 1840 0743 6B0E0000 		.4byte	.LASF225
 1841 0747 07       		.byte	0x7
ARM GAS  C:\Users\salaz\AppData\Local\Temp\ccvE4Xni.s 			page 70


 1842 0748 27       		.byte	0x27
 1843 0749 2B060000 		.4byte	0x62b
 1844 074d 10       		.byte	0x10
 1845 074e 12       		.uleb128 0x12
 1846 074f 962B0000 		.4byte	.LASF226
 1847 0753 07       		.byte	0x7
 1848 0754 28       		.byte	0x28
 1849 0755 2B060000 		.4byte	0x62b
 1850 0759 14       		.byte	0x14
 1851 075a 12       		.uleb128 0x12
 1852 075b 75320000 		.4byte	.LASF227
 1853 075f 07       		.byte	0x7
 1854 0760 29       		.byte	0x29
 1855 0761 2B060000 		.4byte	0x62b
 1856 0765 18       		.byte	0x18
 1857 0766 12       		.uleb128 0x12
 1858 0767 DF0F0000 		.4byte	.LASF228
 1859 076b 07       		.byte	0x7
 1860 076c 2A       		.byte	0x2a
 1861 076d 2B060000 		.4byte	0x62b
 1862 0771 1C       		.byte	0x1c
 1863 0772 12       		.uleb128 0x12
 1864 0773 DE1F0000 		.4byte	.LASF229
 1865 0777 07       		.byte	0x7
 1866 0778 2B       		.byte	0x2b
 1867 0779 2B060000 		.4byte	0x62b
 1868 077d 20       		.byte	0x20
 1869 077e 12       		.uleb128 0x12
 1870 077f DB110000 		.4byte	.LASF230
 1871 0783 07       		.byte	0x7
 1872 0784 2C       		.byte	0x2c
 1873 0785 85060000 		.4byte	0x685
 1874 0789 24       		.byte	0x24
 1875 078a 12       		.uleb128 0x12
 1876 078b 451B0000 		.4byte	.LASF231
 1877 078f 07       		.byte	0x7
 1878 0790 2D       		.byte	0x2d
 1879 0791 2B060000 		.4byte	0x62b
 1880 0795 28       		.byte	0x28
 1881 0796 12       		.uleb128 0x12
 1882 0797 F20B0000 		.4byte	.LASF232
 1883 079b 07       		.byte	0x7
 1884 079c 2E       		.byte	0x2e
 1885 079d A8070000 		.4byte	0x7a8
 1886 07a1 2C       		.byte	0x2c
 1887 07a2 00       		.byte	0
 1888 07a3 0F       		.uleb128 0xf
 1889 07a4 DA060000 		.4byte	0x6da
 1890 07a8 10       		.uleb128 0x10
 1891 07a9 A3070000 		.4byte	0x7a3
 1892 07ad 06       		.uleb128 0x6
 1893 07ae AA0D0000 		.4byte	.LASF233
 1894 07b2 07       		.byte	0x7
 1895 07b3 2F       		.byte	0x2f
 1896 07b4 0A070000 		.4byte	0x70a
 1897 07b8 13       		.uleb128 0x13
 1898 07b9 30FF     		.2byte	0xff30
ARM GAS  C:\Users\salaz\AppData\Local\Temp\ccvE4Xni.s 			page 71


 1899 07bb 07       		.byte	0x7
 1900 07bc 34       		.byte	0x34
 1901 07bd 2C0B0000 		.4byte	0xb2c
 1902 07c1 12       		.uleb128 0x12
 1903 07c2 A20D0000 		.4byte	.LASF234
 1904 07c6 07       		.byte	0x7
 1905 07c7 35       		.byte	0x35
 1906 07c8 2B060000 		.4byte	0x62b
 1907 07cc 00       		.byte	0
 1908 07cd 12       		.uleb128 0x12
 1909 07ce 87150000 		.4byte	.LASF235
 1910 07d2 07       		.byte	0x7
 1911 07d3 36       		.byte	0x36
 1912 07d4 2B060000 		.4byte	0x62b
 1913 07d8 04       		.byte	0x4
 1914 07d9 12       		.uleb128 0x12
 1915 07da DD040000 		.4byte	.LASF236
 1916 07de 07       		.byte	0x7
 1917 07df 37       		.byte	0x37
 1918 07e0 2B060000 		.4byte	0x62b
 1919 07e4 08       		.byte	0x8
 1920 07e5 12       		.uleb128 0x12
 1921 07e6 47140000 		.4byte	.LASF221
 1922 07ea 07       		.byte	0x7
 1923 07eb 38       		.byte	0x38
 1924 07ec 310B0000 		.4byte	0xb31
 1925 07f0 0C       		.byte	0xc
 1926 07f1 12       		.uleb128 0x12
 1927 07f2 51000000 		.4byte	.LASF237
 1928 07f6 07       		.byte	0x7
 1929 07f7 39       		.byte	0x39
 1930 07f8 2B060000 		.4byte	0x62b
 1931 07fc 14       		.byte	0x14
 1932 07fd 12       		.uleb128 0x12
 1933 07fe A7270000 		.4byte	.LASF238
 1934 0802 07       		.byte	0x7
 1935 0803 3A       		.byte	0x3a
 1936 0804 2B060000 		.4byte	0x62b
 1937 0808 18       		.byte	0x18
 1938 0809 12       		.uleb128 0x12
 1939 080a DE020000 		.4byte	.LASF239
 1940 080e 07       		.byte	0x7
 1941 080f 3B       		.byte	0x3b
 1942 0810 85060000 		.4byte	0x685
 1943 0814 1C       		.byte	0x1c
 1944 0815 12       		.uleb128 0x12
 1945 0816 F20B0000 		.4byte	.LASF232
 1946 081a 07       		.byte	0x7
 1947 081b 3C       		.byte	0x3c
 1948 081c 4B0B0000 		.4byte	0xb4b
 1949 0820 20       		.byte	0x20
 1950 0821 12       		.uleb128 0x12
 1951 0822 E5180000 		.4byte	.LASF240
 1952 0826 07       		.byte	0x7
 1953 0827 3D       		.byte	0x3d
 1954 0828 500B0000 		.4byte	0xb50
 1955 082c 80       		.byte	0x80
ARM GAS  C:\Users\salaz\AppData\Local\Temp\ccvE4Xni.s 			page 72


 1956 082d 12       		.uleb128 0x12
 1957 082e 72100000 		.4byte	.LASF215
 1958 0832 07       		.byte	0x7
 1959 0833 3E       		.byte	0x3e
 1960 0834 5A0B0000 		.4byte	0xb5a
 1961 0838 C0       		.byte	0xc0
 1962 0839 14       		.uleb128 0x14
 1963 083a B2350000 		.4byte	.LASF241
 1964 083e 07       		.byte	0x7
 1965 083f 3F       		.byte	0x3f
 1966 0840 2B060000 		.4byte	0x62b
 1967 0844 8001     		.2byte	0x180
 1968 0846 14       		.uleb128 0x14
 1969 0847 B12A0000 		.4byte	.LASF242
 1970 084b 07       		.byte	0x7
 1971 084c 40       		.byte	0x40
 1972 084d 2B060000 		.4byte	0x62b
 1973 0851 8401     		.2byte	0x184
 1974 0853 14       		.uleb128 0x14
 1975 0854 73350000 		.4byte	.LASF243
 1976 0858 07       		.byte	0x7
 1977 0859 41       		.byte	0x41
 1978 085a 2B060000 		.4byte	0x62b
 1979 085e 8801     		.2byte	0x188
 1980 0860 14       		.uleb128 0x14
 1981 0861 0A0C0000 		.4byte	.LASF217
 1982 0865 07       		.byte	0x7
 1983 0866 42       		.byte	0x42
 1984 0867 640B0000 		.4byte	0xb64
 1985 086b 8C01     		.2byte	0x18c
 1986 086d 14       		.uleb128 0x14
 1987 086e DF2B0000 		.4byte	.LASF244
 1988 0872 07       		.byte	0x7
 1989 0873 43       		.byte	0x43
 1990 0874 690B0000 		.4byte	0xb69
 1991 0878 0002     		.2byte	0x200
 1992 087a 14       		.uleb128 0x14
 1993 087b C52C0000 		.4byte	.LASF245
 1994 087f 07       		.byte	0x7
 1995 0880 44       		.byte	0x44
 1996 0881 790B0000 		.4byte	0xb79
 1997 0885 0003     		.2byte	0x300
 1998 0887 14       		.uleb128 0x14
 1999 0888 1D130000 		.4byte	.LASF246
 2000 088c 07       		.byte	0x7
 2001 088d 45       		.byte	0x45
 2002 088e 7E0B0000 		.4byte	0xb7e
 2003 0892 4003     		.2byte	0x340
 2004 0894 14       		.uleb128 0x14
 2005 0895 86110000 		.4byte	.LASF247
 2006 0899 07       		.byte	0x7
 2007 089a 46       		.byte	0x46
 2008 089b 830B0000 		.4byte	0xb83
 2009 089f 8003     		.2byte	0x380
 2010 08a1 14       		.uleb128 0x14
 2011 08a2 140C0000 		.4byte	.LASF218
 2012 08a6 07       		.byte	0x7
ARM GAS  C:\Users\salaz\AppData\Local\Temp\ccvE4Xni.s 			page 73


 2013 08a7 47       		.byte	0x47
 2014 08a8 9D0B0000 		.4byte	0xb9d
 2015 08ac C003     		.2byte	0x3c0
 2016 08ae 14       		.uleb128 0x14
 2017 08af 14160000 		.4byte	.LASF248
 2018 08b3 07       		.byte	0x7
 2019 08b4 48       		.byte	0x48
 2020 08b5 2B060000 		.4byte	0x62b
 2021 08b9 0005     		.2byte	0x500
 2022 08bb 14       		.uleb128 0x14
 2023 08bc 19270000 		.4byte	.LASF249
 2024 08c0 07       		.byte	0x7
 2025 08c1 49       		.byte	0x49
 2026 08c2 2B060000 		.4byte	0x62b
 2027 08c6 0405     		.2byte	0x504
 2028 08c8 14       		.uleb128 0x14
 2029 08c9 1E0C0000 		.4byte	.LASF250
 2030 08cd 07       		.byte	0x7
 2031 08ce 4A       		.byte	0x4a
 2032 08cf 85060000 		.4byte	0x685
 2033 08d3 0805     		.2byte	0x508
 2034 08d5 14       		.uleb128 0x14
 2035 08d6 401F0000 		.4byte	.LASF251
 2036 08da 07       		.byte	0x7
 2037 08db 4B       		.byte	0x4b
 2038 08dc 2B060000 		.4byte	0x62b
 2039 08e0 0C05     		.2byte	0x50c
 2040 08e2 14       		.uleb128 0x14
 2041 08e3 AD2B0000 		.4byte	.LASF252
 2042 08e7 07       		.byte	0x7
 2043 08e8 4C       		.byte	0x4c
 2044 08e9 2B060000 		.4byte	0x62b
 2045 08ed 1005     		.2byte	0x510
 2046 08ef 14       		.uleb128 0x14
 2047 08f0 A2350000 		.4byte	.LASF253
 2048 08f4 07       		.byte	0x7
 2049 08f5 4D       		.byte	0x4d
 2050 08f6 2B060000 		.4byte	0x62b
 2051 08fa 1405     		.2byte	0x514
 2052 08fc 14       		.uleb128 0x14
 2053 08fd DA210000 		.4byte	.LASF254
 2054 0901 07       		.byte	0x7
 2055 0902 4E       		.byte	0x4e
 2056 0903 2B060000 		.4byte	0x62b
 2057 0907 1805     		.2byte	0x518
 2058 0909 14       		.uleb128 0x14
 2059 090a 84130000 		.4byte	.LASF255
 2060 090e 07       		.byte	0x7
 2061 090f 4F       		.byte	0x4f
 2062 0910 2B060000 		.4byte	0x62b
 2063 0914 1C05     		.2byte	0x51c
 2064 0916 14       		.uleb128 0x14
 2065 0917 91130000 		.4byte	.LASF256
 2066 091b 07       		.byte	0x7
 2067 091c 50       		.byte	0x50
 2068 091d 85060000 		.4byte	0x685
 2069 0921 2005     		.2byte	0x520
ARM GAS  C:\Users\salaz\AppData\Local\Temp\ccvE4Xni.s 			page 74


 2070 0923 14       		.uleb128 0x14
 2071 0924 280C0000 		.4byte	.LASF257
 2072 0928 07       		.byte	0x7
 2073 0929 51       		.byte	0x51
 2074 092a A70B0000 		.4byte	0xba7
 2075 092e 2405     		.2byte	0x524
 2076 0930 14       		.uleb128 0x14
 2077 0931 0F220000 		.4byte	.LASF258
 2078 0935 07       		.byte	0x7
 2079 0936 52       		.byte	0x52
 2080 0937 2B060000 		.4byte	0x62b
 2081 093b 2C05     		.2byte	0x52c
 2082 093d 14       		.uleb128 0x14
 2083 093e 53360000 		.4byte	.LASF259
 2084 0942 07       		.byte	0x7
 2085 0943 53       		.byte	0x53
 2086 0944 85060000 		.4byte	0x685
 2087 0948 3005     		.2byte	0x530
 2088 094a 14       		.uleb128 0x14
 2089 094b 320C0000 		.4byte	.LASF260
 2090 094f 07       		.byte	0x7
 2091 0950 54       		.byte	0x54
 2092 0951 B10B0000 		.4byte	0xbb1
 2093 0955 3405     		.2byte	0x534
 2094 0957 14       		.uleb128 0x14
 2095 0958 B10C0000 		.4byte	.LASF261
 2096 095c 07       		.byte	0x7
 2097 095d 55       		.byte	0x55
 2098 095e 2B060000 		.4byte	0x62b
 2099 0962 3C05     		.2byte	0x53c
 2100 0964 14       		.uleb128 0x14
 2101 0965 3C0C0000 		.4byte	.LASF262
 2102 0969 07       		.byte	0x7
 2103 096a 56       		.byte	0x56
 2104 096b BB0B0000 		.4byte	0xbbb
 2105 096f 4005     		.2byte	0x540
 2106 0971 14       		.uleb128 0x14
 2107 0972 FA0A0000 		.4byte	.LASF263
 2108 0976 07       		.byte	0x7
 2109 0977 57       		.byte	0x57
 2110 0978 2B060000 		.4byte	0x62b
 2111 097c 8005     		.2byte	0x580
 2112 097e 14       		.uleb128 0x14
 2113 097f A3170000 		.4byte	.LASF264
 2114 0983 07       		.byte	0x7
 2115 0984 58       		.byte	0x58
 2116 0985 2B060000 		.4byte	0x62b
 2117 0989 8405     		.2byte	0x584
 2118 098b 14       		.uleb128 0x14
 2119 098c FF210000 		.4byte	.LASF265
 2120 0990 07       		.byte	0x7
 2121 0991 59       		.byte	0x59
 2122 0992 2B060000 		.4byte	0x62b
 2123 0996 8805     		.2byte	0x588
 2124 0998 14       		.uleb128 0x14
 2125 0999 C7170000 		.4byte	.LASF266
 2126 099d 07       		.byte	0x7
ARM GAS  C:\Users\salaz\AppData\Local\Temp\ccvE4Xni.s 			page 75


 2127 099e 5A       		.byte	0x5a
 2128 099f 2B060000 		.4byte	0x62b
 2129 09a3 8C05     		.2byte	0x58c
 2130 09a5 14       		.uleb128 0x14
 2131 09a6 6E1E0000 		.4byte	.LASF267
 2132 09aa 07       		.byte	0x7
 2133 09ab 5B       		.byte	0x5b
 2134 09ac 2B060000 		.4byte	0x62b
 2135 09b0 9005     		.2byte	0x590
 2136 09b2 14       		.uleb128 0x14
 2137 09b3 460C0000 		.4byte	.LASF268
 2138 09b7 07       		.byte	0x7
 2139 09b8 5C       		.byte	0x5c
 2140 09b9 C50B0000 		.4byte	0xbc5
 2141 09bd 9405     		.2byte	0x594
 2142 09bf 14       		.uleb128 0x14
 2143 09c0 051C0000 		.4byte	.LASF269
 2144 09c4 07       		.byte	0x7
 2145 09c5 5D       		.byte	0x5d
 2146 09c6 DA0B0000 		.4byte	0xbda
 2147 09ca 0006     		.2byte	0x600
 2148 09cc 14       		.uleb128 0x14
 2149 09cd E9320000 		.4byte	.LASF270
 2150 09d1 07       		.byte	0x7
 2151 09d2 5E       		.byte	0x5e
 2152 09d3 85060000 		.4byte	0x685
 2153 09d7 3C06     		.2byte	0x63c
 2154 09d9 14       		.uleb128 0x14
 2155 09da 8D290000 		.4byte	.LASF271
 2156 09de 07       		.byte	0x7
 2157 09df 5F       		.byte	0x5f
 2158 09e0 DF0B0000 		.4byte	0xbdf
 2159 09e4 4006     		.2byte	0x640
 2160 09e6 14       		.uleb128 0x14
 2161 09e7 F4320000 		.4byte	.LASF272
 2162 09eb 07       		.byte	0x7
 2163 09ec 60       		.byte	0x60
 2164 09ed F90B0000 		.4byte	0xbf9
 2165 09f1 7C06     		.2byte	0x67c
 2166 09f3 14       		.uleb128 0x14
 2167 09f4 C5020000 		.4byte	.LASF273
 2168 09f8 07       		.byte	0x7
 2169 09f9 61       		.byte	0x61
 2170 09fa 2B060000 		.4byte	0x62b
 2171 09fe 0007     		.2byte	0x700
 2172 0a00 14       		.uleb128 0x14
 2173 0a01 120A0000 		.4byte	.LASF274
 2174 0a05 07       		.byte	0x7
 2175 0a06 62       		.byte	0x62
 2176 0a07 2B060000 		.4byte	0x62b
 2177 0a0b 0407     		.2byte	0x704
 2178 0a0d 14       		.uleb128 0x14
 2179 0a0e 2B200000 		.4byte	.LASF275
 2180 0a12 07       		.byte	0x7
 2181 0a13 63       		.byte	0x63
 2182 0a14 2B060000 		.4byte	0x62b
 2183 0a18 0807     		.2byte	0x708
ARM GAS  C:\Users\salaz\AppData\Local\Temp\ccvE4Xni.s 			page 76


 2184 0a1a 14       		.uleb128 0x14
 2185 0a1b 69200000 		.4byte	.LASF276
 2186 0a1f 07       		.byte	0x7
 2187 0a20 64       		.byte	0x64
 2188 0a21 85060000 		.4byte	0x685
 2189 0a25 0C07     		.2byte	0x70c
 2190 0a27 14       		.uleb128 0x14
 2191 0a28 B1360000 		.4byte	.LASF277
 2192 0a2c 07       		.byte	0x7
 2193 0a2d 65       		.byte	0x65
 2194 0a2e 2B060000 		.4byte	0x62b
 2195 0a32 1007     		.2byte	0x710
 2196 0a34 14       		.uleb128 0x14
 2197 0a35 BA260000 		.4byte	.LASF278
 2198 0a39 07       		.byte	0x7
 2199 0a3a 66       		.byte	0x66
 2200 0a3b 130C0000 		.4byte	0xc13
 2201 0a3f 1407     		.2byte	0x714
 2202 0a41 14       		.uleb128 0x14
 2203 0a42 5A1F0000 		.4byte	.LASF279
 2204 0a46 07       		.byte	0x7
 2205 0a47 67       		.byte	0x67
 2206 0a48 2B060000 		.4byte	0x62b
 2207 0a4c 0008     		.2byte	0x800
 2208 0a4e 14       		.uleb128 0x14
 2209 0a4f DD150000 		.4byte	.LASF280
 2210 0a53 07       		.byte	0x7
 2211 0a54 68       		.byte	0x68
 2212 0a55 2B060000 		.4byte	0x62b
 2213 0a59 0408     		.2byte	0x804
 2214 0a5b 14       		.uleb128 0x14
 2215 0a5c C5260000 		.4byte	.LASF281
 2216 0a60 07       		.byte	0x7
 2217 0a61 69       		.byte	0x69
 2218 0a62 2E0C0000 		.4byte	0xc2e
 2219 0a66 0808     		.2byte	0x808
 2220 0a68 14       		.uleb128 0x14
 2221 0a69 8D280000 		.4byte	.LASF282
 2222 0a6d 07       		.byte	0x7
 2223 0a6e 6A       		.byte	0x6a
 2224 0a6f 2B060000 		.4byte	0x62b
 2225 0a73 007F     		.2byte	0x7f00
 2226 0a75 14       		.uleb128 0x14
 2227 0a76 B3170000 		.4byte	.LASF283
 2228 0a7a 07       		.byte	0x7
 2229 0a7b 6B       		.byte	0x6b
 2230 0a7c 2B060000 		.4byte	0x62b
 2231 0a80 047F     		.2byte	0x7f04
 2232 0a82 14       		.uleb128 0x14
 2233 0a83 18080000 		.4byte	.LASF284
 2234 0a87 07       		.byte	0x7
 2235 0a88 6C       		.byte	0x6c
 2236 0a89 2B060000 		.4byte	0x62b
 2237 0a8d 087F     		.2byte	0x7f08
 2238 0a8f 14       		.uleb128 0x14
 2239 0a90 7E2A0000 		.4byte	.LASF285
 2240 0a94 07       		.byte	0x7
ARM GAS  C:\Users\salaz\AppData\Local\Temp\ccvE4Xni.s 			page 77


 2241 0a95 6D       		.byte	0x6d
 2242 0a96 2B060000 		.4byte	0x62b
 2243 0a9a 0C7F     		.2byte	0x7f0c
 2244 0a9c 14       		.uleb128 0x14
 2245 0a9d D0260000 		.4byte	.LASF286
 2246 0aa1 07       		.byte	0x7
 2247 0aa2 6E       		.byte	0x6e
 2248 0aa3 380C0000 		.4byte	0xc38
 2249 0aa7 107F     		.2byte	0x7f10
 2250 0aa9 14       		.uleb128 0x14
 2251 0aaa A1310000 		.4byte	.LASF287
 2252 0aae 07       		.byte	0x7
 2253 0aaf 6F       		.byte	0x6f
 2254 0ab0 2B060000 		.4byte	0x62b
 2255 0ab4 307F     		.2byte	0x7f30
 2256 0ab6 14       		.uleb128 0x14
 2257 0ab7 DB260000 		.4byte	.LASF288
 2258 0abb 07       		.byte	0x7
 2259 0abc 70       		.byte	0x70
 2260 0abd 530C0000 		.4byte	0xc53
 2261 0ac1 347F     		.2byte	0x7f34
 2262 0ac3 14       		.uleb128 0x14
 2263 0ac4 9F2C0000 		.4byte	.LASF289
 2264 0ac8 07       		.byte	0x7
 2265 0ac9 71       		.byte	0x71
 2266 0aca 2B060000 		.4byte	0x62b
 2267 0ace 10FF     		.2byte	0xff10
 2268 0ad0 14       		.uleb128 0x14
 2269 0ad1 86330000 		.4byte	.LASF290
 2270 0ad5 07       		.byte	0x7
 2271 0ad6 72       		.byte	0x72
 2272 0ad7 85060000 		.4byte	0x685
 2273 0adb 14FF     		.2byte	0xff14
 2274 0add 14       		.uleb128 0x14
 2275 0ade EC2B0000 		.4byte	.LASF291
 2276 0ae2 07       		.byte	0x7
 2277 0ae3 73       		.byte	0x73
 2278 0ae4 2B060000 		.4byte	0x62b
 2279 0ae8 18FF     		.2byte	0xff18
 2280 0aea 14       		.uleb128 0x14
 2281 0aeb 661B0000 		.4byte	.LASF292
 2282 0aef 07       		.byte	0x7
 2283 0af0 74       		.byte	0x74
 2284 0af1 2B060000 		.4byte	0x62b
 2285 0af5 1CFF     		.2byte	0xff1c
 2286 0af7 14       		.uleb128 0x14
 2287 0af8 8B0D0000 		.4byte	.LASF293
 2288 0afc 07       		.byte	0x7
 2289 0afd 75       		.byte	0x75
 2290 0afe 2B060000 		.4byte	0x62b
 2291 0b02 20FF     		.2byte	0xff20
 2292 0b04 14       		.uleb128 0x14
 2293 0b05 FE100000 		.4byte	.LASF294
 2294 0b09 07       		.byte	0x7
 2295 0b0a 76       		.byte	0x76
 2296 0b0b 2B060000 		.4byte	0x62b
 2297 0b0f 24FF     		.2byte	0xff24
ARM GAS  C:\Users\salaz\AppData\Local\Temp\ccvE4Xni.s 			page 78


 2298 0b11 14       		.uleb128 0x14
 2299 0b12 75010000 		.4byte	.LASF295
 2300 0b16 07       		.byte	0x7
 2301 0b17 77       		.byte	0x77
 2302 0b18 2B060000 		.4byte	0x62b
 2303 0b1c 28FF     		.2byte	0xff28
 2304 0b1e 14       		.uleb128 0x14
 2305 0b1f 88010000 		.4byte	.LASF296
 2306 0b23 07       		.byte	0x7
 2307 0b24 78       		.byte	0x78
 2308 0b25 2B060000 		.4byte	0x62b
 2309 0b29 2CFF     		.2byte	0xff2c
 2310 0b2b 00       		.byte	0
 2311 0b2c 0F       		.uleb128 0xf
 2312 0b2d 8A060000 		.4byte	0x68a
 2313 0b31 10       		.uleb128 0x10
 2314 0b32 2C0B0000 		.4byte	0xb2c
 2315 0b36 0D       		.uleb128 0xd
 2316 0b37 85060000 		.4byte	0x685
 2317 0b3b 460B0000 		.4byte	0xb46
 2318 0b3f 0E       		.uleb128 0xe
 2319 0b40 24060000 		.4byte	0x624
 2320 0b44 17       		.byte	0x17
 2321 0b45 00       		.byte	0
 2322 0b46 0F       		.uleb128 0xf
 2323 0b47 360B0000 		.4byte	0xb36
 2324 0b4b 10       		.uleb128 0x10
 2325 0b4c 460B0000 		.4byte	0xb46
 2326 0b50 0F       		.uleb128 0xf
 2327 0b51 AA060000 		.4byte	0x6aa
 2328 0b55 0F       		.uleb128 0xf
 2329 0b56 BA060000 		.4byte	0x6ba
 2330 0b5a 10       		.uleb128 0x10
 2331 0b5b 550B0000 		.4byte	0xb55
 2332 0b5f 0F       		.uleb128 0xf
 2333 0b60 FA060000 		.4byte	0x6fa
 2334 0b64 10       		.uleb128 0x10
 2335 0b65 5F0B0000 		.4byte	0xb5f
 2336 0b69 0D       		.uleb128 0xd
 2337 0b6a AD070000 		.4byte	0x7ad
 2338 0b6e 790B0000 		.4byte	0xb79
 2339 0b72 0E       		.uleb128 0xe
 2340 0b73 24060000 		.4byte	0x624
 2341 0b77 03       		.byte	0x3
 2342 0b78 00       		.byte	0
 2343 0b79 0F       		.uleb128 0xf
 2344 0b7a AA060000 		.4byte	0x6aa
 2345 0b7e 0F       		.uleb128 0xf
 2346 0b7f AA060000 		.4byte	0x6aa
 2347 0b83 0F       		.uleb128 0xf
 2348 0b84 AA060000 		.4byte	0x6aa
 2349 0b88 0D       		.uleb128 0xd
 2350 0b89 85060000 		.4byte	0x685
 2351 0b8d 980B0000 		.4byte	0xb98
 2352 0b91 0E       		.uleb128 0xe
 2353 0b92 24060000 		.4byte	0x624
 2354 0b96 4F       		.byte	0x4f
ARM GAS  C:\Users\salaz\AppData\Local\Temp\ccvE4Xni.s 			page 79


 2355 0b97 00       		.byte	0
 2356 0b98 0F       		.uleb128 0xf
 2357 0b99 880B0000 		.4byte	0xb88
 2358 0b9d 10       		.uleb128 0x10
 2359 0b9e 980B0000 		.4byte	0xb98
 2360 0ba2 0F       		.uleb128 0xf
 2361 0ba3 8A060000 		.4byte	0x68a
 2362 0ba7 10       		.uleb128 0x10
 2363 0ba8 A20B0000 		.4byte	0xba2
 2364 0bac 0F       		.uleb128 0xf
 2365 0bad 8A060000 		.4byte	0x68a
 2366 0bb1 10       		.uleb128 0x10
 2367 0bb2 AC0B0000 		.4byte	0xbac
 2368 0bb6 0F       		.uleb128 0xf
 2369 0bb7 CA060000 		.4byte	0x6ca
 2370 0bbb 10       		.uleb128 0x10
 2371 0bbc B60B0000 		.4byte	0xbb6
 2372 0bc0 0F       		.uleb128 0xf
 2373 0bc1 EA060000 		.4byte	0x6ea
 2374 0bc5 10       		.uleb128 0x10
 2375 0bc6 C00B0000 		.4byte	0xbc0
 2376 0bca 0D       		.uleb128 0xd
 2377 0bcb 2B060000 		.4byte	0x62b
 2378 0bcf DA0B0000 		.4byte	0xbda
 2379 0bd3 0E       		.uleb128 0xe
 2380 0bd4 24060000 		.4byte	0x624
 2381 0bd8 0E       		.byte	0xe
 2382 0bd9 00       		.byte	0
 2383 0bda 0F       		.uleb128 0xf
 2384 0bdb CA0B0000 		.4byte	0xbca
 2385 0bdf 0F       		.uleb128 0xf
 2386 0be0 CA0B0000 		.4byte	0xbca
 2387 0be4 0D       		.uleb128 0xd
 2388 0be5 85060000 		.4byte	0x685
 2389 0be9 F40B0000 		.4byte	0xbf4
 2390 0bed 0E       		.uleb128 0xe
 2391 0bee 24060000 		.4byte	0x624
 2392 0bf2 20       		.byte	0x20
 2393 0bf3 00       		.byte	0
 2394 0bf4 0F       		.uleb128 0xf
 2395 0bf5 E40B0000 		.4byte	0xbe4
 2396 0bf9 10       		.uleb128 0x10
 2397 0bfa F40B0000 		.4byte	0xbf4
 2398 0bfe 0D       		.uleb128 0xd
 2399 0bff 85060000 		.4byte	0x685
 2400 0c03 0E0C0000 		.4byte	0xc0e
 2401 0c07 0E       		.uleb128 0xe
 2402 0c08 24060000 		.4byte	0x624
 2403 0c0c 3A       		.byte	0x3a
 2404 0c0d 00       		.byte	0
 2405 0c0e 0F       		.uleb128 0xf
 2406 0c0f FE0B0000 		.4byte	0xbfe
 2407 0c13 10       		.uleb128 0x10
 2408 0c14 0E0C0000 		.4byte	0xc0e
 2409 0c18 0D       		.uleb128 0xd
 2410 0c19 85060000 		.4byte	0x685
 2411 0c1d 290C0000 		.4byte	0xc29
ARM GAS  C:\Users\salaz\AppData\Local\Temp\ccvE4Xni.s 			page 80


 2412 0c21 15       		.uleb128 0x15
 2413 0c22 24060000 		.4byte	0x624
 2414 0c26 BD1D     		.2byte	0x1dbd
 2415 0c28 00       		.byte	0
 2416 0c29 0F       		.uleb128 0xf
 2417 0c2a 180C0000 		.4byte	0xc18
 2418 0c2e 10       		.uleb128 0x10
 2419 0c2f 290C0000 		.4byte	0xc29
 2420 0c33 0F       		.uleb128 0xf
 2421 0c34 9A060000 		.4byte	0x69a
 2422 0c38 10       		.uleb128 0x10
 2423 0c39 330C0000 		.4byte	0xc33
 2424 0c3d 0D       		.uleb128 0xd
 2425 0c3e 85060000 		.4byte	0x685
 2426 0c42 4E0C0000 		.4byte	0xc4e
 2427 0c46 15       		.uleb128 0x15
 2428 0c47 24060000 		.4byte	0x624
 2429 0c4b F61F     		.2byte	0x1ff6
 2430 0c4d 00       		.byte	0
 2431 0c4e 0F       		.uleb128 0xf
 2432 0c4f 3D0C0000 		.4byte	0xc3d
 2433 0c53 10       		.uleb128 0x10
 2434 0c54 4E0C0000 		.4byte	0xc4e
 2435 0c58 06       		.uleb128 0x6
 2436 0c59 CD0A0000 		.4byte	.LASF297
 2437 0c5d 07       		.byte	0x7
 2438 0c5e 79       		.byte	0x79
 2439 0c5f B8070000 		.4byte	0x7b8
 2440 0c63 02       		.uleb128 0x2
 2441 0c64 08       		.byte	0x8
 2442 0c65 04       		.byte	0x4
 2443 0c66 9E220000 		.4byte	.LASF298
 2444 0c6a 07       		.uleb128 0x7
 2445 0c6b 2A250000 		.4byte	.LASF299
 2446 0c6f 08       		.byte	0x8
 2447 0c70 C401     		.2byte	0x1c4
 2448 0c72 760C0000 		.4byte	0xc76
 2449 0c76 02       		.uleb128 0x2
 2450 0c77 01       		.byte	0x1
 2451 0c78 08       		.byte	0x8
 2452 0c79 930E0000 		.4byte	.LASF300
 2453 0c7d 02       		.uleb128 0x2
 2454 0c7e 04       		.byte	0x4
 2455 0c7f 04       		.byte	0x4
 2456 0c80 491D0000 		.4byte	.LASF301
 2457 0c84 02       		.uleb128 0x2
 2458 0c85 08       		.byte	0x8
 2459 0c86 04       		.byte	0x4
 2460 0c87 F21B0000 		.4byte	.LASF302
 2461 0c8b 07       		.uleb128 0x7
 2462 0c8c A72B0000 		.4byte	.LASF303
 2463 0c90 08       		.byte	0x8
 2464 0c91 8503     		.2byte	0x385
 2465 0c93 4B050000 		.4byte	0x54b
 2466 0c97 07       		.uleb128 0x7
 2467 0c98 43020000 		.4byte	.LASF304
 2468 0c9c 08       		.byte	0x8
ARM GAS  C:\Users\salaz\AppData\Local\Temp\ccvE4Xni.s 			page 81


 2469 0c9d 8703     		.2byte	0x387
 2470 0c9f 6C050000 		.4byte	0x56c
 2471 0ca3 07       		.uleb128 0x7
 2472 0ca4 EE040000 		.4byte	.LASF305
 2473 0ca8 08       		.byte	0x8
 2474 0ca9 8803     		.2byte	0x388
 2475 0cab 40050000 		.4byte	0x540
 2476 0caf 07       		.uleb128 0x7
 2477 0cb0 91070000 		.4byte	.LASF306
 2478 0cb4 08       		.byte	0x8
 2479 0cb5 8E03     		.2byte	0x38e
 2480 0cb7 77050000 		.4byte	0x577
 2481 0cbb 03       		.uleb128 0x3
 2482 0cbc 04       		.byte	0x4
 2483 0cbd 39050000 		.4byte	0x539
 2484 0cc1 09       		.byte	0x9
 2485 0cc2 D7       		.byte	0xd7
 2486 0cc3 D70C0000 		.4byte	0xcd7
 2487 0cc7 05       		.uleb128 0x5
 2488 0cc8 B4120000 		.4byte	.LASF307
 2489 0ccc 00       		.byte	0
 2490 0ccd 16       		.uleb128 0x16
 2491 0cce DA1D0000 		.4byte	.LASF308
 2492 0cd2 01005600 		.4byte	0x560001
 2493 0cd6 00       		.byte	0
 2494 0cd7 06       		.uleb128 0x6
 2495 0cd8 341C0000 		.4byte	.LASF309
 2496 0cdc 09       		.byte	0x9
 2497 0cdd DA       		.byte	0xda
 2498 0cde BB0C0000 		.4byte	0xcbb
 2499 0ce2 11       		.uleb128 0x11
 2500 0ce3 08       		.byte	0x8
 2501 0ce4 09       		.byte	0x9
 2502 0ce5 EB       		.byte	0xeb
 2503 0ce6 0F0D0000 		.4byte	0xd0f
 2504 0cea 12       		.uleb128 0x12
 2505 0ceb F6060000 		.4byte	.LASF310
 2506 0cef 09       		.byte	0x9
 2507 0cf0 EC       		.byte	0xec
 2508 0cf1 2A010000 		.4byte	0x12a
 2509 0cf5 00       		.byte	0
 2510 0cf6 12       		.uleb128 0x12
 2511 0cf7 73160000 		.4byte	.LASF311
 2512 0cfb 09       		.byte	0x9
 2513 0cfc EE       		.byte	0xee
 2514 0cfd C1040000 		.4byte	0x4c1
 2515 0d01 02       		.byte	0x2
 2516 0d02 12       		.uleb128 0x12
 2517 0d03 68240000 		.4byte	.LASF312
 2518 0d07 09       		.byte	0x9
 2519 0d08 F0       		.byte	0xf0
 2520 0d09 6C050000 		.4byte	0x56c
 2521 0d0d 04       		.byte	0x4
 2522 0d0e 00       		.byte	0
 2523 0d0f 06       		.uleb128 0x6
 2524 0d10 E0160000 		.4byte	.LASF313
 2525 0d14 09       		.byte	0x9
ARM GAS  C:\Users\salaz\AppData\Local\Temp\ccvE4Xni.s 			page 82


 2526 0d15 F1       		.byte	0xf1
 2527 0d16 E20C0000 		.4byte	0xce2
 2528 0d1a 17       		.uleb128 0x17
 2529 0d1b 04       		.byte	0x4
 2530 0d1c 02       		.uleb128 0x2
 2531 0d1d 01       		.byte	0x1
 2532 0d1e 02       		.byte	0x2
 2533 0d1f 9C0D0000 		.4byte	.LASF314
 2534 0d23 11       		.uleb128 0x11
 2535 0d24 0C       		.byte	0xc
 2536 0d25 02       		.byte	0x2
 2537 0d26 8A       		.byte	0x8a
 2538 0d27 A40D0000 		.4byte	0xda4
 2539 0d2b 12       		.uleb128 0x12
 2540 0d2c 602B0000 		.4byte	.LASF315
 2541 0d30 02       		.byte	0x2
 2542 0d31 8C       		.byte	0x8c
 2543 0d32 56050000 		.4byte	0x556
 2544 0d36 00       		.byte	0
 2545 0d37 12       		.uleb128 0x12
 2546 0d38 6B160000 		.4byte	.LASF316
 2547 0d3c 02       		.byte	0x2
 2548 0d3d 8F       		.byte	0x8f
 2549 0d3e 56050000 		.4byte	0x556
 2550 0d42 02       		.byte	0x2
 2551 0d43 12       		.uleb128 0x12
 2552 0d44 401A0000 		.4byte	.LASF317
 2553 0d48 02       		.byte	0x2
 2554 0d49 92       		.byte	0x92
 2555 0d4a 4B050000 		.4byte	0x54b
 2556 0d4e 04       		.byte	0x4
 2557 0d4f 12       		.uleb128 0x12
 2558 0d50 3C230000 		.4byte	.LASF318
 2559 0d54 02       		.byte	0x2
 2560 0d55 94       		.byte	0x94
 2561 0d56 4B050000 		.4byte	0x54b
 2562 0d5a 05       		.byte	0x5
 2563 0d5b 12       		.uleb128 0x12
 2564 0d5c 7A110000 		.4byte	.LASF319
 2565 0d60 02       		.byte	0x2
 2566 0d61 96       		.byte	0x96
 2567 0d62 4B050000 		.4byte	0x54b
 2568 0d66 06       		.byte	0x6
 2569 0d67 12       		.uleb128 0x12
 2570 0d68 501B0000 		.4byte	.LASF320
 2571 0d6c 02       		.byte	0x2
 2572 0d6d 98       		.byte	0x98
 2573 0d6e 4B050000 		.4byte	0x54b
 2574 0d72 07       		.byte	0x7
 2575 0d73 12       		.uleb128 0x12
 2576 0d74 0D290000 		.4byte	.LASF321
 2577 0d78 02       		.byte	0x2
 2578 0d79 9A       		.byte	0x9a
 2579 0d7a 1C0D0000 		.4byte	0xd1c
 2580 0d7e 08       		.byte	0x8
 2581 0d7f 12       		.uleb128 0x12
 2582 0d80 A1080000 		.4byte	.LASF322
ARM GAS  C:\Users\salaz\AppData\Local\Temp\ccvE4Xni.s 			page 83


 2583 0d84 02       		.byte	0x2
 2584 0d85 9B       		.byte	0x9b
 2585 0d86 1C0D0000 		.4byte	0xd1c
 2586 0d8a 09       		.byte	0x9
 2587 0d8b 12       		.uleb128 0x12
 2588 0d8c 85070000 		.4byte	.LASF323
 2589 0d90 02       		.byte	0x2
 2590 0d91 9C       		.byte	0x9c
 2591 0d92 1C0D0000 		.4byte	0xd1c
 2592 0d96 0A       		.byte	0xa
 2593 0d97 12       		.uleb128 0x12
 2594 0d98 EE1F0000 		.4byte	.LASF324
 2595 0d9c 02       		.byte	0x2
 2596 0d9d 9D       		.byte	0x9d
 2597 0d9e 1C0D0000 		.4byte	0xd1c
 2598 0da2 0B       		.byte	0xb
 2599 0da3 00       		.byte	0
 2600 0da4 06       		.uleb128 0x6
 2601 0da5 BB0E0000 		.4byte	.LASF325
 2602 0da9 02       		.byte	0x2
 2603 0daa 9E       		.byte	0x9e
 2604 0dab 230D0000 		.4byte	0xd23
 2605 0daf 03       		.uleb128 0x3
 2606 0db0 01       		.byte	0x1
 2607 0db1 BA040000 		.4byte	0x4ba
 2608 0db5 02       		.byte	0x2
 2609 0db6 E5       		.byte	0xe5
 2610 0db7 CE0D0000 		.4byte	0xdce
 2611 0dbb 05       		.uleb128 0x5
 2612 0dbc 7C100000 		.4byte	.LASF326
 2613 0dc0 00       		.byte	0
 2614 0dc1 05       		.uleb128 0x5
 2615 0dc2 8E100000 		.4byte	.LASF327
 2616 0dc6 01       		.byte	0x1
 2617 0dc7 05       		.uleb128 0x5
 2618 0dc8 A0100000 		.4byte	.LASF328
 2619 0dcc 02       		.byte	0x2
 2620 0dcd 00       		.byte	0
 2621 0dce 06       		.uleb128 0x6
 2622 0dcf A4060000 		.4byte	.LASF329
 2623 0dd3 02       		.byte	0x2
 2624 0dd4 E9       		.byte	0xe9
 2625 0dd5 AF0D0000 		.4byte	0xdaf
 2626 0dd9 18       		.uleb128 0x18
 2627 0dda 04       		.byte	0x4
 2628 0ddb 39050000 		.4byte	0x539
 2629 0ddf 02       		.byte	0x2
 2630 0de0 0401     		.2byte	0x104
 2631 0de2 F60D0000 		.4byte	0xdf6
 2632 0de6 05       		.uleb128 0x5
 2633 0de7 BB290000 		.4byte	.LASF330
 2634 0deb 00       		.byte	0
 2635 0dec 16       		.uleb128 0x16
 2636 0ded 8E1F0000 		.4byte	.LASF331
 2637 0df1 0100D600 		.4byte	0xd60001
 2638 0df5 00       		.byte	0
 2639 0df6 07       		.uleb128 0x7
ARM GAS  C:\Users\salaz\AppData\Local\Temp\ccvE4Xni.s 			page 84


 2640 0df7 471A0000 		.4byte	.LASF332
 2641 0dfb 02       		.byte	0x2
 2642 0dfc 0701     		.2byte	0x107
 2643 0dfe D90D0000 		.4byte	0xdd9
 2644 0e02 19       		.uleb128 0x19
 2645 0e03 6F180000 		.4byte	.LASF353
 2646 0e07 4C       		.byte	0x4c
 2647 0e08 0A       		.byte	0xa
 2648 0e09 2B       		.byte	0x2b
 2649 0e0a F30E0000 		.4byte	0xef3
 2650 0e0e 12       		.uleb128 0x12
 2651 0e0f B1280000 		.4byte	.LASF333
 2652 0e13 0A       		.byte	0xa
 2653 0e14 2D       		.byte	0x2d
 2654 0e15 6C050000 		.4byte	0x56c
 2655 0e19 00       		.byte	0
 2656 0e1a 12       		.uleb128 0x12
 2657 0e1b 3E100000 		.4byte	.LASF334
 2658 0e1f 0A       		.byte	0xa
 2659 0e20 2F       		.byte	0x2f
 2660 0e21 6C050000 		.4byte	0x56c
 2661 0e25 04       		.byte	0x4
 2662 0e26 12       		.uleb128 0x12
 2663 0e27 A10F0000 		.4byte	.LASF335
 2664 0e2b 0A       		.byte	0xa
 2665 0e2c 30       		.byte	0x30
 2666 0e2d 6C050000 		.4byte	0x56c
 2667 0e31 08       		.byte	0x8
 2668 0e32 12       		.uleb128 0x12
 2669 0e33 8A140000 		.4byte	.LASF336
 2670 0e37 0A       		.byte	0xa
 2671 0e38 31       		.byte	0x31
 2672 0e39 6C050000 		.4byte	0x56c
 2673 0e3d 0C       		.byte	0xc
 2674 0e3e 12       		.uleb128 0x12
 2675 0e3f 69300000 		.4byte	.LASF337
 2676 0e43 0A       		.byte	0xa
 2677 0e44 33       		.byte	0x33
 2678 0e45 6C050000 		.4byte	0x56c
 2679 0e49 10       		.byte	0x10
 2680 0e4a 12       		.uleb128 0x12
 2681 0e4b B6030000 		.4byte	.LASF338
 2682 0e4f 0A       		.byte	0xa
 2683 0e50 34       		.byte	0x34
 2684 0e51 6C050000 		.4byte	0x56c
 2685 0e55 14       		.byte	0x14
 2686 0e56 12       		.uleb128 0x12
 2687 0e57 BF030000 		.4byte	.LASF339
 2688 0e5b 0A       		.byte	0xa
 2689 0e5c 35       		.byte	0x35
 2690 0e5d 6C050000 		.4byte	0x56c
 2691 0e61 18       		.byte	0x18
 2692 0e62 12       		.uleb128 0x12
 2693 0e63 CE1E0000 		.4byte	.LASF340
 2694 0e67 0A       		.byte	0xa
 2695 0e68 36       		.byte	0x36
 2696 0e69 1C0D0000 		.4byte	0xd1c
ARM GAS  C:\Users\salaz\AppData\Local\Temp\ccvE4Xni.s 			page 85


 2697 0e6d 1C       		.byte	0x1c
 2698 0e6e 12       		.uleb128 0x12
 2699 0e6f AF190000 		.4byte	.LASF341
 2700 0e73 0A       		.byte	0xa
 2701 0e74 38       		.byte	0x38
 2702 0e75 6C050000 		.4byte	0x56c
 2703 0e79 20       		.byte	0x20
 2704 0e7a 12       		.uleb128 0x12
 2705 0e7b 37010000 		.4byte	.LASF342
 2706 0e7f 0A       		.byte	0xa
 2707 0e80 39       		.byte	0x39
 2708 0e81 6C050000 		.4byte	0x56c
 2709 0e85 24       		.byte	0x24
 2710 0e86 12       		.uleb128 0x12
 2711 0e87 9C340000 		.4byte	.LASF343
 2712 0e8b 0A       		.byte	0xa
 2713 0e8c 3B       		.byte	0x3b
 2714 0e8d 6C050000 		.4byte	0x56c
 2715 0e91 28       		.byte	0x28
 2716 0e92 12       		.uleb128 0x12
 2717 0e93 84080000 		.4byte	.LASF344
 2718 0e97 0A       		.byte	0xa
 2719 0e98 3C       		.byte	0x3c
 2720 0e99 6C050000 		.4byte	0x56c
 2721 0e9d 2C       		.byte	0x2c
 2722 0e9e 12       		.uleb128 0x12
 2723 0e9f 90340000 		.4byte	.LASF345
 2724 0ea3 0A       		.byte	0xa
 2725 0ea4 3E       		.byte	0x3e
 2726 0ea5 6C050000 		.4byte	0x56c
 2727 0ea9 30       		.byte	0x30
 2728 0eaa 12       		.uleb128 0x12
 2729 0eab FB2A0000 		.4byte	.LASF346
 2730 0eaf 0A       		.byte	0xa
 2731 0eb0 3F       		.byte	0x3f
 2732 0eb1 6C050000 		.4byte	0x56c
 2733 0eb5 34       		.byte	0x34
 2734 0eb6 12       		.uleb128 0x12
 2735 0eb7 76360000 		.4byte	.LASF347
 2736 0ebb 0A       		.byte	0xa
 2737 0ebc 41       		.byte	0x41
 2738 0ebd 6C050000 		.4byte	0x56c
 2739 0ec1 38       		.byte	0x38
 2740 0ec2 12       		.uleb128 0x12
 2741 0ec3 4A1C0000 		.4byte	.LASF348
 2742 0ec7 0A       		.byte	0xa
 2743 0ec8 42       		.byte	0x42
 2744 0ec9 6C050000 		.4byte	0x56c
 2745 0ecd 3C       		.byte	0x3c
 2746 0ece 12       		.uleb128 0x12
 2747 0ecf 52320000 		.4byte	.LASF349
 2748 0ed3 0A       		.byte	0xa
 2749 0ed4 44       		.byte	0x44
 2750 0ed5 6C050000 		.4byte	0x56c
 2751 0ed9 40       		.byte	0x40
 2752 0eda 12       		.uleb128 0x12
 2753 0edb CE040000 		.4byte	.LASF350
ARM GAS  C:\Users\salaz\AppData\Local\Temp\ccvE4Xni.s 			page 86


 2754 0edf 0A       		.byte	0xa
 2755 0ee0 45       		.byte	0x45
 2756 0ee1 6C050000 		.4byte	0x56c
 2757 0ee5 44       		.byte	0x44
 2758 0ee6 12       		.uleb128 0x12
 2759 0ee7 4F1F0000 		.4byte	.LASF351
 2760 0eeb 0A       		.byte	0xa
 2761 0eec 47       		.byte	0x47
 2762 0eed 6C050000 		.4byte	0x56c
 2763 0ef1 48       		.byte	0x48
 2764 0ef2 00       		.byte	0
 2765 0ef3 06       		.uleb128 0x6
 2766 0ef4 722E0000 		.4byte	.LASF352
 2767 0ef8 0A       		.byte	0xa
 2768 0ef9 48       		.byte	0x48
 2769 0efa 020E0000 		.4byte	0xe02
 2770 0efe 19       		.uleb128 0x19
 2771 0eff B4130000 		.4byte	.LASF354
 2772 0f03 64       		.byte	0x64
 2773 0f04 0B       		.byte	0xb
 2774 0f05 2B       		.byte	0x2b
 2775 0f06 37100000 		.4byte	0x1037
 2776 0f0a 12       		.uleb128 0x12
 2777 0f0b 7D1E0000 		.4byte	.LASF355
 2778 0f0f 0B       		.byte	0xb
 2779 0f10 2D       		.byte	0x2d
 2780 0f11 6C050000 		.4byte	0x56c
 2781 0f15 00       		.byte	0
 2782 0f16 12       		.uleb128 0x12
 2783 0f17 3E100000 		.4byte	.LASF334
 2784 0f1b 0B       		.byte	0xb
 2785 0f1c 2F       		.byte	0x2f
 2786 0f1d 6C050000 		.4byte	0x56c
 2787 0f21 04       		.byte	0x4
 2788 0f22 12       		.uleb128 0x12
 2789 0f23 6C310000 		.4byte	.LASF356
 2790 0f27 0B       		.byte	0xb
 2791 0f28 30       		.byte	0x30
 2792 0f29 6C050000 		.4byte	0x56c
 2793 0f2d 08       		.byte	0x8
 2794 0f2e 12       		.uleb128 0x12
 2795 0f2f 252E0000 		.4byte	.LASF357
 2796 0f33 0B       		.byte	0xb
 2797 0f34 31       		.byte	0x31
 2798 0f35 6C050000 		.4byte	0x56c
 2799 0f39 0C       		.byte	0xc
 2800 0f3a 12       		.uleb128 0x12
 2801 0f3b A10F0000 		.4byte	.LASF335
 2802 0f3f 0B       		.byte	0xb
 2803 0f40 32       		.byte	0x32
 2804 0f41 6C050000 		.4byte	0x56c
 2805 0f45 10       		.byte	0x10
 2806 0f46 12       		.uleb128 0x12
 2807 0f47 C50A0000 		.4byte	.LASF358
 2808 0f4b 0B       		.byte	0xb
 2809 0f4c 33       		.byte	0x33
 2810 0f4d 6C050000 		.4byte	0x56c
ARM GAS  C:\Users\salaz\AppData\Local\Temp\ccvE4Xni.s 			page 87


 2811 0f51 14       		.byte	0x14
 2812 0f52 12       		.uleb128 0x12
 2813 0f53 C9200000 		.4byte	.LASF359
 2814 0f57 0B       		.byte	0xb
 2815 0f58 34       		.byte	0x34
 2816 0f59 6C050000 		.4byte	0x56c
 2817 0f5d 18       		.byte	0x18
 2818 0f5e 12       		.uleb128 0x12
 2819 0f5f 13340000 		.4byte	.LASF360
 2820 0f63 0B       		.byte	0xb
 2821 0f64 35       		.byte	0x35
 2822 0f65 1C0D0000 		.4byte	0xd1c
 2823 0f69 1C       		.byte	0x1c
 2824 0f6a 12       		.uleb128 0x12
 2825 0f6b B6030000 		.4byte	.LASF338
 2826 0f6f 0B       		.byte	0xb
 2827 0f70 36       		.byte	0x36
 2828 0f71 6C050000 		.4byte	0x56c
 2829 0f75 20       		.byte	0x20
 2830 0f76 12       		.uleb128 0x12
 2831 0f77 BF030000 		.4byte	.LASF339
 2832 0f7b 0B       		.byte	0xb
 2833 0f7c 37       		.byte	0x37
 2834 0f7d 6C050000 		.4byte	0x56c
 2835 0f81 24       		.byte	0x24
 2836 0f82 12       		.uleb128 0x12
 2837 0f83 CE1E0000 		.4byte	.LASF340
 2838 0f87 0B       		.byte	0xb
 2839 0f88 38       		.byte	0x38
 2840 0f89 1C0D0000 		.4byte	0xd1c
 2841 0f8d 28       		.byte	0x28
 2842 0f8e 12       		.uleb128 0x12
 2843 0f8f AF190000 		.4byte	.LASF341
 2844 0f93 0B       		.byte	0xb
 2845 0f94 3A       		.byte	0x3a
 2846 0f95 6C050000 		.4byte	0x56c
 2847 0f99 2C       		.byte	0x2c
 2848 0f9a 12       		.uleb128 0x12
 2849 0f9b E8150000 		.4byte	.LASF361
 2850 0f9f 0B       		.byte	0xb
 2851 0fa0 3B       		.byte	0x3b
 2852 0fa1 6C050000 		.4byte	0x56c
 2853 0fa5 30       		.byte	0x30
 2854 0fa6 12       		.uleb128 0x12
 2855 0fa7 CB330000 		.4byte	.LASF362
 2856 0fab 0B       		.byte	0xb
 2857 0fac 3C       		.byte	0x3c
 2858 0fad 6C050000 		.4byte	0x56c
 2859 0fb1 34       		.byte	0x34
 2860 0fb2 12       		.uleb128 0x12
 2861 0fb3 47150000 		.4byte	.LASF363
 2862 0fb7 0B       		.byte	0xb
 2863 0fb8 3D       		.byte	0x3d
 2864 0fb9 6C050000 		.4byte	0x56c
 2865 0fbd 38       		.byte	0x38
 2866 0fbe 12       		.uleb128 0x12
 2867 0fbf 0B1A0000 		.4byte	.LASF364
ARM GAS  C:\Users\salaz\AppData\Local\Temp\ccvE4Xni.s 			page 88


 2868 0fc3 0B       		.byte	0xb
 2869 0fc4 3E       		.byte	0x3e
 2870 0fc5 6C050000 		.4byte	0x56c
 2871 0fc9 3C       		.byte	0x3c
 2872 0fca 12       		.uleb128 0x12
 2873 0fcb 3B070000 		.4byte	.LASF365
 2874 0fcf 0B       		.byte	0xb
 2875 0fd0 40       		.byte	0x40
 2876 0fd1 6C050000 		.4byte	0x56c
 2877 0fd5 40       		.byte	0x40
 2878 0fd6 12       		.uleb128 0x12
 2879 0fd7 84080000 		.4byte	.LASF344
 2880 0fdb 0B       		.byte	0xb
 2881 0fdc 41       		.byte	0x41
 2882 0fdd 6C050000 		.4byte	0x56c
 2883 0fe1 44       		.byte	0x44
 2884 0fe2 12       		.uleb128 0x12
 2885 0fe3 90340000 		.4byte	.LASF345
 2886 0fe7 0B       		.byte	0xb
 2887 0fe8 43       		.byte	0x43
 2888 0fe9 6C050000 		.4byte	0x56c
 2889 0fed 48       		.byte	0x48
 2890 0fee 12       		.uleb128 0x12
 2891 0fef FB2A0000 		.4byte	.LASF346
 2892 0ff3 0B       		.byte	0xb
 2893 0ff4 44       		.byte	0x44
 2894 0ff5 6C050000 		.4byte	0x56c
 2895 0ff9 4C       		.byte	0x4c
 2896 0ffa 12       		.uleb128 0x12
 2897 0ffb 76360000 		.4byte	.LASF347
 2898 0fff 0B       		.byte	0xb
 2899 1000 46       		.byte	0x46
 2900 1001 6C050000 		.4byte	0x56c
 2901 1005 50       		.byte	0x50
 2902 1006 12       		.uleb128 0x12
 2903 1007 692F0000 		.4byte	.LASF366
 2904 100b 0B       		.byte	0xb
 2905 100c 47       		.byte	0x47
 2906 100d 6C050000 		.4byte	0x56c
 2907 1011 54       		.byte	0x54
 2908 1012 12       		.uleb128 0x12
 2909 1013 ED1E0000 		.4byte	.LASF367
 2910 1017 0B       		.byte	0xb
 2911 1018 49       		.byte	0x49
 2912 1019 6C050000 		.4byte	0x56c
 2913 101d 58       		.byte	0x58
 2914 101e 12       		.uleb128 0x12
 2915 101f CE040000 		.4byte	.LASF350
 2916 1023 0B       		.byte	0xb
 2917 1024 4A       		.byte	0x4a
 2918 1025 6C050000 		.4byte	0x56c
 2919 1029 5C       		.byte	0x5c
 2920 102a 12       		.uleb128 0x12
 2921 102b 4F1F0000 		.4byte	.LASF351
 2922 102f 0B       		.byte	0xb
 2923 1030 4C       		.byte	0x4c
 2924 1031 6C050000 		.4byte	0x56c
ARM GAS  C:\Users\salaz\AppData\Local\Temp\ccvE4Xni.s 			page 89


 2925 1035 60       		.byte	0x60
 2926 1036 00       		.byte	0
 2927 1037 06       		.uleb128 0x6
 2928 1038 13050000 		.4byte	.LASF368
 2929 103c 0B       		.byte	0xb
 2930 103d 4D       		.byte	0x4d
 2931 103e FE0E0000 		.4byte	0xefe
 2932 1042 18       		.uleb128 0x18
 2933 1043 01       		.byte	0x1
 2934 1044 BA040000 		.4byte	0x4ba
 2935 1048 0C       		.byte	0xc
 2936 1049 DE01     		.2byte	0x1de
 2937 104b 5C100000 		.4byte	0x105c
 2938 104f 05       		.uleb128 0x5
 2939 1050 99140000 		.4byte	.LASF369
 2940 1054 00       		.byte	0
 2941 1055 05       		.uleb128 0x5
 2942 1056 F2310000 		.4byte	.LASF370
 2943 105a 01       		.byte	0x1
 2944 105b 00       		.byte	0
 2945 105c 07       		.uleb128 0x7
 2946 105d A9160000 		.4byte	.LASF371
 2947 1061 0C       		.byte	0xc
 2948 1062 E101     		.2byte	0x1e1
 2949 1064 42100000 		.4byte	0x1042
 2950 1068 07       		.uleb128 0x7
 2951 1069 05210000 		.4byte	.LASF372
 2952 106d 0C       		.byte	0xc
 2953 106e F301     		.2byte	0x1f3
 2954 1070 74100000 		.4byte	0x1074
 2955 1074 1A       		.uleb128 0x1a
 2956 1075 04       		.byte	0x4
 2957 1076 7A100000 		.4byte	0x107a
 2958 107a 1B       		.uleb128 0x1b
 2959 107b 85100000 		.4byte	0x1085
 2960 107f 1C       		.uleb128 0x1c
 2961 1080 6C050000 		.4byte	0x56c
 2962 1084 00       		.byte	0
 2963 1085 07       		.uleb128 0x7
 2964 1086 D1360000 		.4byte	.LASF373
 2965 108a 0C       		.byte	0xc
 2966 108b FE01     		.2byte	0x1fe
 2967 108d 91100000 		.4byte	0x1091
 2968 1091 1A       		.uleb128 0x1a
 2969 1092 04       		.byte	0x4
 2970 1093 97100000 		.4byte	0x1097
 2971 1097 1D       		.uleb128 0x1d
 2972 1098 5C100000 		.4byte	0x105c
 2973 109c A6100000 		.4byte	0x10a6
 2974 10a0 1C       		.uleb128 0x1c
 2975 10a1 6C050000 		.4byte	0x56c
 2976 10a5 00       		.byte	0
 2977 10a6 1E       		.uleb128 0x1e
 2978 10a7 BA350000 		.4byte	.LASF374
 2979 10ab 4C       		.byte	0x4c
 2980 10ac 0C       		.byte	0xc
 2981 10ad 6502     		.2byte	0x265
ARM GAS  C:\Users\salaz\AppData\Local\Temp\ccvE4Xni.s 			page 90


 2982 10af C5110000 		.4byte	0x11c5
 2983 10b3 0A       		.uleb128 0xa
 2984 10b4 FE060000 		.4byte	.LASF375
 2985 10b8 0C       		.byte	0xc
 2986 10b9 6802     		.2byte	0x268
 2987 10bb 1C0D0000 		.4byte	0xd1c
 2988 10bf 00       		.byte	0
 2989 10c0 0A       		.uleb128 0xa
 2990 10c1 20250000 		.4byte	.LASF376
 2991 10c5 0C       		.byte	0xc
 2992 10c6 6902     		.2byte	0x269
 2993 10c8 1C0D0000 		.4byte	0xd1c
 2994 10cc 01       		.byte	0x1
 2995 10cd 0A       		.uleb128 0xa
 2996 10ce 78030000 		.4byte	.LASF377
 2997 10d2 0C       		.byte	0xc
 2998 10d3 6B02     		.2byte	0x26b
 2999 10d5 2B060000 		.4byte	0x62b
 3000 10d9 04       		.byte	0x4
 3001 10da 0A       		.uleb128 0xa
 3002 10db 012E0000 		.4byte	.LASF378
 3003 10df 0C       		.byte	0xc
 3004 10e0 6D02     		.2byte	0x26d
 3005 10e2 2B060000 		.4byte	0x62b
 3006 10e6 08       		.byte	0x8
 3007 10e7 0A       		.uleb128 0xa
 3008 10e8 79310000 		.4byte	.LASF379
 3009 10ec 0C       		.byte	0xc
 3010 10ed 6E02     		.2byte	0x26e
 3011 10ef 1C0D0000 		.4byte	0xd1c
 3012 10f3 0C       		.byte	0xc
 3013 10f4 0A       		.uleb128 0xa
 3014 10f5 C9310000 		.4byte	.LASF380
 3015 10f9 0C       		.byte	0xc
 3016 10fa 6F02     		.2byte	0x26f
 3017 10fc 1C0D0000 		.4byte	0xd1c
 3018 1100 0D       		.byte	0xd
 3019 1101 0A       		.uleb128 0xa
 3020 1102 132B0000 		.4byte	.LASF381
 3021 1106 0C       		.byte	0xc
 3022 1107 7102     		.2byte	0x271
 3023 1109 C5110000 		.4byte	0x11c5
 3024 110d 10       		.byte	0x10
 3025 110e 0A       		.uleb128 0xa
 3026 110f CC150000 		.4byte	.LASF382
 3027 1113 0C       		.byte	0xc
 3028 1114 7202     		.2byte	0x272
 3029 1116 6C050000 		.4byte	0x56c
 3030 111a 14       		.byte	0x14
 3031 111b 0A       		.uleb128 0xa
 3032 111c AE2D0000 		.4byte	.LASF383
 3033 1120 0C       		.byte	0xc
 3034 1121 7302     		.2byte	0x273
 3035 1123 2B060000 		.4byte	0x62b
 3036 1127 18       		.byte	0x18
 3037 1128 0A       		.uleb128 0xa
 3038 1129 030A0000 		.4byte	.LASF384
ARM GAS  C:\Users\salaz\AppData\Local\Temp\ccvE4Xni.s 			page 91


 3039 112d 0C       		.byte	0xc
 3040 112e 7402     		.2byte	0x274
 3041 1130 2B060000 		.4byte	0x62b
 3042 1134 1C       		.byte	0x1c
 3043 1135 0A       		.uleb128 0xa
 3044 1136 4E170000 		.4byte	.LASF385
 3045 113a 0C       		.byte	0xc
 3046 113b 7602     		.2byte	0x276
 3047 113d 2B060000 		.4byte	0x62b
 3048 1141 20       		.byte	0x20
 3049 1142 0A       		.uleb128 0xa
 3050 1143 ED110000 		.4byte	.LASF386
 3051 1147 0C       		.byte	0xc
 3052 1148 7702     		.2byte	0x277
 3053 114a CB110000 		.4byte	0x11cb
 3054 114e 24       		.byte	0x24
 3055 114f 0A       		.uleb128 0xa
 3056 1150 9E300000 		.4byte	.LASF387
 3057 1154 0C       		.byte	0xc
 3058 1155 7902     		.2byte	0x279
 3059 1157 C5110000 		.4byte	0x11c5
 3060 115b 28       		.byte	0x28
 3061 115c 0A       		.uleb128 0xa
 3062 115d C0190000 		.4byte	.LASF388
 3063 1161 0C       		.byte	0xc
 3064 1162 7A02     		.2byte	0x27a
 3065 1164 6C050000 		.4byte	0x56c
 3066 1168 2C       		.byte	0x2c
 3067 1169 0A       		.uleb128 0xa
 3068 116a 520B0000 		.4byte	.LASF389
 3069 116e 0C       		.byte	0xc
 3070 116f 7B02     		.2byte	0x27b
 3071 1171 2B060000 		.4byte	0x62b
 3072 1175 30       		.byte	0x30
 3073 1176 0A       		.uleb128 0xa
 3074 1177 0C130000 		.4byte	.LASF390
 3075 117b 0C       		.byte	0xc
 3076 117c 7C02     		.2byte	0x27c
 3077 117e 2B060000 		.4byte	0x62b
 3078 1182 34       		.byte	0x34
 3079 1183 0A       		.uleb128 0xa
 3080 1184 DA0B0000 		.4byte	.LASF391
 3081 1188 0C       		.byte	0xc
 3082 1189 7E02     		.2byte	0x27e
 3083 118b C5110000 		.4byte	0x11c5
 3084 118f 38       		.byte	0x38
 3085 1190 0A       		.uleb128 0xa
 3086 1191 A7200000 		.4byte	.LASF392
 3087 1195 0C       		.byte	0xc
 3088 1196 7F02     		.2byte	0x27f
 3089 1198 6C050000 		.4byte	0x56c
 3090 119c 3C       		.byte	0x3c
 3091 119d 0A       		.uleb128 0xa
 3092 119e 3B220000 		.4byte	.LASF393
 3093 11a2 0C       		.byte	0xc
 3094 11a3 8002     		.2byte	0x280
 3095 11a5 2B060000 		.4byte	0x62b
ARM GAS  C:\Users\salaz\AppData\Local\Temp\ccvE4Xni.s 			page 92


 3096 11a9 40       		.byte	0x40
 3097 11aa 0A       		.uleb128 0xa
 3098 11ab 75240000 		.4byte	.LASF394
 3099 11af 0C       		.byte	0xc
 3100 11b0 8602     		.2byte	0x286
 3101 11b2 68100000 		.4byte	0x1068
 3102 11b6 44       		.byte	0x44
 3103 11b7 0A       		.uleb128 0xa
 3104 11b8 202B0000 		.4byte	.LASF395
 3105 11bc 0C       		.byte	0xc
 3106 11bd 8D02     		.2byte	0x28d
 3107 11bf 85100000 		.4byte	0x1085
 3108 11c3 48       		.byte	0x48
 3109 11c4 00       		.byte	0
 3110 11c5 1A       		.uleb128 0x1a
 3111 11c6 04       		.byte	0x4
 3112 11c7 4B050000 		.4byte	0x54b
 3113 11cb 0F       		.uleb128 0xf
 3114 11cc 1C0D0000 		.4byte	0xd1c
 3115 11d0 07       		.uleb128 0x7
 3116 11d1 7D2B0000 		.4byte	.LASF396
 3117 11d5 0C       		.byte	0xc
 3118 11d6 9002     		.2byte	0x290
 3119 11d8 A6100000 		.4byte	0x10a6
 3120 11dc 18       		.uleb128 0x18
 3121 11dd 01       		.byte	0x1
 3122 11de BA040000 		.4byte	0x4ba
 3123 11e2 0D       		.byte	0xd
 3124 11e3 7A01     		.2byte	0x17a
 3125 11e5 FC110000 		.4byte	0x11fc
 3126 11e9 05       		.uleb128 0x5
 3127 11ea CF2D0000 		.4byte	.LASF397
 3128 11ee 00       		.byte	0
 3129 11ef 05       		.uleb128 0x5
 3130 11f0 83000000 		.4byte	.LASF398
 3131 11f4 01       		.byte	0x1
 3132 11f5 05       		.uleb128 0x5
 3133 11f6 34120000 		.4byte	.LASF399
 3134 11fa 02       		.byte	0x2
 3135 11fb 00       		.byte	0
 3136 11fc 07       		.uleb128 0x7
 3137 11fd 532F0000 		.4byte	.LASF400
 3138 1201 0D       		.byte	0xd
 3139 1202 7E01     		.2byte	0x17e
 3140 1204 DC110000 		.4byte	0x11dc
 3141 1208 18       		.uleb128 0x18
 3142 1209 01       		.byte	0x1
 3143 120a BA040000 		.4byte	0x4ba
 3144 120e 0D       		.byte	0xd
 3145 120f 8201     		.2byte	0x182
 3146 1211 40120000 		.4byte	0x1240
 3147 1215 05       		.uleb128 0x5
 3148 1216 CD180000 		.4byte	.LASF401
 3149 121a 02       		.byte	0x2
 3150 121b 05       		.uleb128 0x5
 3151 121c 1C290000 		.4byte	.LASF402
 3152 1220 03       		.byte	0x3
ARM GAS  C:\Users\salaz\AppData\Local\Temp\ccvE4Xni.s 			page 93


 3153 1221 05       		.uleb128 0x5
 3154 1222 A1320000 		.4byte	.LASF403
 3155 1226 04       		.byte	0x4
 3156 1227 05       		.uleb128 0x5
 3157 1228 24260000 		.4byte	.LASF404
 3158 122c 05       		.byte	0x5
 3159 122d 05       		.uleb128 0x5
 3160 122e B9320000 		.4byte	.LASF405
 3161 1232 06       		.byte	0x6
 3162 1233 05       		.uleb128 0x5
 3163 1234 18310000 		.4byte	.LASF406
 3164 1238 07       		.byte	0x7
 3165 1239 05       		.uleb128 0x5
 3166 123a D1320000 		.4byte	.LASF407
 3167 123e 08       		.byte	0x8
 3168 123f 00       		.byte	0
 3169 1240 07       		.uleb128 0x7
 3170 1241 FD110000 		.4byte	.LASF408
 3171 1245 0D       		.byte	0xd
 3172 1246 8A01     		.2byte	0x18a
 3173 1248 08120000 		.4byte	0x1208
 3174 124c 18       		.uleb128 0x18
 3175 124d 01       		.byte	0x1
 3176 124e BA040000 		.4byte	0x4ba
 3177 1252 0D       		.byte	0xd
 3178 1253 8E01     		.2byte	0x18e
 3179 1255 6C120000 		.4byte	0x126c
 3180 1259 05       		.uleb128 0x5
 3181 125a 6F150000 		.4byte	.LASF409
 3182 125e 00       		.byte	0
 3183 125f 05       		.uleb128 0x5
 3184 1260 F9340000 		.4byte	.LASF410
 3185 1264 02       		.byte	0x2
 3186 1265 05       		.uleb128 0x5
 3187 1266 C0250000 		.4byte	.LASF411
 3188 126a 03       		.byte	0x3
 3189 126b 00       		.byte	0
 3190 126c 07       		.uleb128 0x7
 3191 126d AC300000 		.4byte	.LASF412
 3192 1271 0D       		.byte	0xd
 3193 1272 9201     		.2byte	0x192
 3194 1274 4C120000 		.4byte	0x124c
 3195 1278 18       		.uleb128 0x18
 3196 1279 01       		.byte	0x1
 3197 127a BA040000 		.4byte	0x4ba
 3198 127e 0D       		.byte	0xd
 3199 127f 9601     		.2byte	0x196
 3200 1281 92120000 		.4byte	0x1292
 3201 1285 05       		.uleb128 0x5
 3202 1286 0E2E0000 		.4byte	.LASF413
 3203 128a 00       		.byte	0
 3204 128b 05       		.uleb128 0x5
 3205 128c D01C0000 		.4byte	.LASF414
 3206 1290 01       		.byte	0x1
 3207 1291 00       		.byte	0
 3208 1292 07       		.uleb128 0x7
 3209 1293 46330000 		.4byte	.LASF415
ARM GAS  C:\Users\salaz\AppData\Local\Temp\ccvE4Xni.s 			page 94


 3210 1297 0D       		.byte	0xd
 3211 1298 9901     		.2byte	0x199
 3212 129a 78120000 		.4byte	0x1278
 3213 129e 07       		.uleb128 0x7
 3214 129f D9220000 		.4byte	.LASF416
 3215 12a3 0D       		.byte	0xd
 3216 12a4 AB01     		.2byte	0x1ab
 3217 12a6 74100000 		.4byte	0x1074
 3218 12aa 1E       		.uleb128 0x1e
 3219 12ab D7170000 		.4byte	.LASF417
 3220 12af 40       		.byte	0x40
 3221 12b0 0D       		.byte	0xd
 3222 12b1 AE01     		.2byte	0x1ae
 3223 12b3 FD130000 		.4byte	0x13fd
 3224 12b7 0A       		.uleb128 0xa
 3225 12b8 D11D0000 		.4byte	.LASF418
 3226 12bc 0D       		.byte	0xd
 3227 12bd B101     		.2byte	0x1b1
 3228 12bf FC110000 		.4byte	0x11fc
 3229 12c3 00       		.byte	0
 3230 12c4 0A       		.uleb128 0xa
 3231 12c5 AA1D0000 		.4byte	.LASF419
 3232 12c9 0D       		.byte	0xd
 3233 12ca BB01     		.2byte	0x1bb
 3234 12cc 6C050000 		.4byte	0x56c
 3235 12d0 04       		.byte	0x4
 3236 12d1 0A       		.uleb128 0xa
 3237 12d2 44170000 		.4byte	.LASF420
 3238 12d6 0D       		.byte	0xd
 3239 12d7 BE01     		.2byte	0x1be
 3240 12d9 6C050000 		.4byte	0x56c
 3241 12dd 08       		.byte	0x8
 3242 12de 0A       		.uleb128 0xa
 3243 12df CF020000 		.4byte	.LASF421
 3244 12e3 0D       		.byte	0xd
 3245 12e4 C401     		.2byte	0x1c4
 3246 12e6 1C0D0000 		.4byte	0xd1c
 3247 12ea 0C       		.byte	0xc
 3248 12eb 0A       		.uleb128 0xa
 3249 12ec FA090000 		.4byte	.LASF422
 3250 12f0 0D       		.byte	0xd
 3251 12f1 CA01     		.2byte	0x1ca
 3252 12f3 40120000 		.4byte	0x1240
 3253 12f7 0D       		.byte	0xd
 3254 12f8 0A       		.uleb128 0xa
 3255 12f9 E81C0000 		.4byte	.LASF423
 3256 12fd 0D       		.byte	0xd
 3257 12fe CD01     		.2byte	0x1cd
 3258 1300 6C120000 		.4byte	0x126c
 3259 1304 0E       		.byte	0xe
 3260 1305 0A       		.uleb128 0xa
 3261 1306 B2100000 		.4byte	.LASF424
 3262 130a 0D       		.byte	0xd
 3263 130b D501     		.2byte	0x1d5
 3264 130d 1C0D0000 		.4byte	0xd1c
 3265 1311 0F       		.byte	0xf
 3266 1312 0A       		.uleb128 0xa
ARM GAS  C:\Users\salaz\AppData\Local\Temp\ccvE4Xni.s 			page 95


 3267 1313 87170000 		.4byte	.LASF425
 3268 1317 0D       		.byte	0xd
 3269 1318 DB01     		.2byte	0x1db
 3270 131a 1C0D0000 		.4byte	0xd1c
 3271 131e 10       		.byte	0x10
 3272 131f 0A       		.uleb128 0xa
 3273 1320 08070000 		.4byte	.LASF426
 3274 1324 0D       		.byte	0xd
 3275 1325 E101     		.2byte	0x1e1
 3276 1327 1C0D0000 		.4byte	0xd1c
 3277 132b 11       		.byte	0x11
 3278 132c 0A       		.uleb128 0xa
 3279 132d 3A2F0000 		.4byte	.LASF427
 3280 1331 0D       		.byte	0xd
 3281 1332 E701     		.2byte	0x1e7
 3282 1334 1C0D0000 		.4byte	0xd1c
 3283 1338 12       		.byte	0x12
 3284 1339 0A       		.uleb128 0xa
 3285 133a DA230000 		.4byte	.LASF428
 3286 133e 0D       		.byte	0xd
 3287 133f EE01     		.2byte	0x1ee
 3288 1341 6C050000 		.4byte	0x56c
 3289 1345 14       		.byte	0x14
 3290 1346 0A       		.uleb128 0xa
 3291 1347 52290000 		.4byte	.LASF429
 3292 134b 0D       		.byte	0xd
 3293 134c F601     		.2byte	0x1f6
 3294 134e 6C050000 		.4byte	0x56c
 3295 1352 18       		.byte	0x18
 3296 1353 0A       		.uleb128 0xa
 3297 1354 090B0000 		.4byte	.LASF430
 3298 1358 0D       		.byte	0xd
 3299 1359 FC01     		.2byte	0x1fc
 3300 135b 1C0D0000 		.4byte	0xd1c
 3301 135f 1C       		.byte	0x1c
 3302 1360 0A       		.uleb128 0xa
 3303 1361 FA160000 		.4byte	.LASF431
 3304 1365 0D       		.byte	0xd
 3305 1366 FF01     		.2byte	0x1ff
 3306 1368 1C0D0000 		.4byte	0xd1c
 3307 136c 1D       		.byte	0x1d
 3308 136d 0A       		.uleb128 0xa
 3309 136e 8F1D0000 		.4byte	.LASF432
 3310 1372 0D       		.byte	0xd
 3311 1373 0502     		.2byte	0x205
 3312 1375 1C0D0000 		.4byte	0xd1c
 3313 1379 1E       		.byte	0x1e
 3314 137a 0A       		.uleb128 0xa
 3315 137b 30240000 		.4byte	.LASF433
 3316 137f 0D       		.byte	0xd
 3317 1380 0C02     		.2byte	0x20c
 3318 1382 1C0D0000 		.4byte	0xd1c
 3319 1386 1F       		.byte	0x1f
 3320 1387 0A       		.uleb128 0xa
 3321 1388 C2240000 		.4byte	.LASF434
 3322 138c 0D       		.byte	0xd
 3323 138d 1202     		.2byte	0x212
ARM GAS  C:\Users\salaz\AppData\Local\Temp\ccvE4Xni.s 			page 96


 3324 138f 1C0D0000 		.4byte	0xd1c
 3325 1393 20       		.byte	0x20
 3326 1394 0A       		.uleb128 0xa
 3327 1395 29320000 		.4byte	.LASF435
 3328 1399 0D       		.byte	0xd
 3329 139a 1502     		.2byte	0x215
 3330 139c 92120000 		.4byte	0x1292
 3331 13a0 21       		.byte	0x21
 3332 13a1 0A       		.uleb128 0xa
 3333 13a2 40340000 		.4byte	.LASF436
 3334 13a6 0D       		.byte	0xd
 3335 13a7 1B02     		.2byte	0x21b
 3336 13a9 6C050000 		.4byte	0x56c
 3337 13ad 24       		.byte	0x24
 3338 13ae 0A       		.uleb128 0xa
 3339 13af 6C0C0000 		.4byte	.LASF437
 3340 13b3 0D       		.byte	0xd
 3341 13b4 1E02     		.2byte	0x21e
 3342 13b6 92120000 		.4byte	0x1292
 3343 13ba 28       		.byte	0x28
 3344 13bb 0A       		.uleb128 0xa
 3345 13bc 3A350000 		.4byte	.LASF438
 3346 13c0 0D       		.byte	0xd
 3347 13c1 2102     		.2byte	0x221
 3348 13c3 6C050000 		.4byte	0x56c
 3349 13c7 2C       		.byte	0x2c
 3350 13c8 0A       		.uleb128 0xa
 3351 13c9 1E040000 		.4byte	.LASF439
 3352 13cd 0D       		.byte	0xd
 3353 13ce 2902     		.2byte	0x229
 3354 13d0 6C050000 		.4byte	0x56c
 3355 13d4 30       		.byte	0x30
 3356 13d5 0A       		.uleb128 0xa
 3357 13d6 94030000 		.4byte	.LASF440
 3358 13da 0D       		.byte	0xd
 3359 13db 2F02     		.2byte	0x22f
 3360 13dd 6C050000 		.4byte	0x56c
 3361 13e1 34       		.byte	0x34
 3362 13e2 0A       		.uleb128 0xa
 3363 13e3 7B210000 		.4byte	.LASF441
 3364 13e7 0D       		.byte	0xd
 3365 13e8 3702     		.2byte	0x237
 3366 13ea 6C050000 		.4byte	0x56c
 3367 13ee 38       		.byte	0x38
 3368 13ef 0A       		.uleb128 0xa
 3369 13f0 412E0000 		.4byte	.LASF442
 3370 13f4 0D       		.byte	0xd
 3371 13f5 3D02     		.2byte	0x23d
 3372 13f7 6C050000 		.4byte	0x56c
 3373 13fb 3C       		.byte	0x3c
 3374 13fc 00       		.byte	0
 3375 13fd 07       		.uleb128 0x7
 3376 13fe 9B120000 		.4byte	.LASF443
 3377 1402 0D       		.byte	0xd
 3378 1403 3E02     		.2byte	0x23e
 3379 1405 AA120000 		.4byte	0x12aa
 3380 1409 1E       		.uleb128 0x1e
ARM GAS  C:\Users\salaz\AppData\Local\Temp\ccvE4Xni.s 			page 97


 3381 140a E6000000 		.4byte	.LASF444
 3382 140e 38       		.byte	0x38
 3383 140f 0D       		.byte	0xd
 3384 1410 4702     		.2byte	0x247
 3385 1412 CD140000 		.4byte	0x14cd
 3386 1416 0A       		.uleb128 0xa
 3387 1417 01030000 		.4byte	.LASF445
 3388 141b 0D       		.byte	0xd
 3389 141c 4A02     		.2byte	0x24a
 3390 141e 2B060000 		.4byte	0x62b
 3391 1422 00       		.byte	0
 3392 1423 0A       		.uleb128 0xa
 3393 1424 0A2B0000 		.4byte	.LASF446
 3394 1428 0D       		.byte	0xd
 3395 1429 4B02     		.2byte	0x24b
 3396 142b 2B060000 		.4byte	0x62b
 3397 142f 04       		.byte	0x4
 3398 1430 0A       		.uleb128 0xa
 3399 1431 98350000 		.4byte	.LASF447
 3400 1435 0D       		.byte	0xd
 3401 1436 4D02     		.2byte	0x24d
 3402 1438 1A0D0000 		.4byte	0xd1a
 3403 143c 08       		.byte	0x8
 3404 143d 0A       		.uleb128 0xa
 3405 143e B0210000 		.4byte	.LASF448
 3406 1442 0D       		.byte	0xd
 3407 1443 4E02     		.2byte	0x24e
 3408 1445 6C050000 		.4byte	0x56c
 3409 1449 0C       		.byte	0xc
 3410 144a 0A       		.uleb128 0xa
 3411 144b 79170000 		.4byte	.LASF449
 3412 144f 0D       		.byte	0xd
 3413 1450 4F02     		.2byte	0x24f
 3414 1452 2B060000 		.4byte	0x62b
 3415 1456 10       		.byte	0x10
 3416 1457 0A       		.uleb128 0xa
 3417 1458 11350000 		.4byte	.LASF450
 3418 145c 0D       		.byte	0xd
 3419 145d 5002     		.2byte	0x250
 3420 145f 2B060000 		.4byte	0x62b
 3421 1463 14       		.byte	0x14
 3422 1464 0A       		.uleb128 0xa
 3423 1465 48010000 		.4byte	.LASF451
 3424 1469 0D       		.byte	0xd
 3425 146a 5202     		.2byte	0x252
 3426 146c 1A0D0000 		.4byte	0xd1a
 3427 1470 18       		.byte	0x18
 3428 1471 0A       		.uleb128 0xa
 3429 1472 902E0000 		.4byte	.LASF452
 3430 1476 0D       		.byte	0xd
 3431 1477 5302     		.2byte	0x253
 3432 1479 6C050000 		.4byte	0x56c
 3433 147d 1C       		.byte	0x1c
 3434 147e 0A       		.uleb128 0xa
 3435 147f 8F1C0000 		.4byte	.LASF453
 3436 1483 0D       		.byte	0xd
 3437 1484 5402     		.2byte	0x254
ARM GAS  C:\Users\salaz\AppData\Local\Temp\ccvE4Xni.s 			page 98


 3438 1486 2B060000 		.4byte	0x62b
 3439 148a 20       		.byte	0x20
 3440 148b 0A       		.uleb128 0xa
 3441 148c 8B270000 		.4byte	.LASF454
 3442 1490 0D       		.byte	0xd
 3443 1491 5602     		.2byte	0x256
 3444 1493 1A0D0000 		.4byte	0xd1a
 3445 1497 24       		.byte	0x24
 3446 1498 0A       		.uleb128 0xa
 3447 1499 55070000 		.4byte	.LASF455
 3448 149d 0D       		.byte	0xd
 3449 149e 5702     		.2byte	0x257
 3450 14a0 6C050000 		.4byte	0x56c
 3451 14a4 28       		.byte	0x28
 3452 14a5 0A       		.uleb128 0xa
 3453 14a6 73230000 		.4byte	.LASF456
 3454 14aa 0D       		.byte	0xd
 3455 14ab 5802     		.2byte	0x258
 3456 14ad 2B060000 		.4byte	0x62b
 3457 14b1 2C       		.byte	0x2c
 3458 14b2 0A       		.uleb128 0xa
 3459 14b3 75240000 		.4byte	.LASF394
 3460 14b7 0D       		.byte	0xd
 3461 14b8 5D02     		.2byte	0x25d
 3462 14ba 9E120000 		.4byte	0x129e
 3463 14be 30       		.byte	0x30
 3464 14bf 0A       		.uleb128 0xa
 3465 14c0 FD2B0000 		.4byte	.LASF457
 3466 14c4 0D       		.byte	0xd
 3467 14c5 6002     		.2byte	0x260
 3468 14c7 6C050000 		.4byte	0x56c
 3469 14cb 34       		.byte	0x34
 3470 14cc 00       		.byte	0
 3471 14cd 07       		.uleb128 0x7
 3472 14ce 750A0000 		.4byte	.LASF458
 3473 14d2 0D       		.byte	0xd
 3474 14d3 6302     		.2byte	0x263
 3475 14d5 09140000 		.4byte	0x1409
 3476 14d9 18       		.uleb128 0x18
 3477 14da 02       		.byte	0x2
 3478 14db F5040000 		.4byte	0x4f5
 3479 14df 0E       		.byte	0xe
 3480 14e0 4201     		.2byte	0x142
 3481 14e2 12180000 		.4byte	0x1812
 3482 14e6 05       		.uleb128 0x5
 3483 14e7 A11F0000 		.4byte	.LASF459
 3484 14eb 00       		.byte	0
 3485 14ec 1F       		.uleb128 0x1f
 3486 14ed 9A2E0000 		.4byte	.LASF460
 3487 14f1 0010     		.2byte	0x1000
 3488 14f3 1F       		.uleb128 0x1f
 3489 14f4 CB090000 		.4byte	.LASF461
 3490 14f8 0110     		.2byte	0x1001
 3491 14fa 1F       		.uleb128 0x1f
 3492 14fb 68070000 		.4byte	.LASF462
 3493 14ff 0210     		.2byte	0x1002
 3494 1501 1F       		.uleb128 0x1f
ARM GAS  C:\Users\salaz\AppData\Local\Temp\ccvE4Xni.s 			page 99


 3495 1502 D70A0000 		.4byte	.LASF463
 3496 1506 0310     		.2byte	0x1003
 3497 1508 1F       		.uleb128 0x1f
 3498 1509 09000000 		.4byte	.LASF464
 3499 150d 0410     		.2byte	0x1004
 3500 150f 1F       		.uleb128 0x1f
 3501 1510 91330000 		.4byte	.LASF465
 3502 1514 0510     		.2byte	0x1005
 3503 1516 1F       		.uleb128 0x1f
 3504 1517 9C020000 		.4byte	.LASF466
 3505 151b 0020     		.2byte	0x2000
 3506 151d 1F       		.uleb128 0x1f
 3507 151e 2B0D0000 		.4byte	.LASF467
 3508 1522 0120     		.2byte	0x2001
 3509 1524 1F       		.uleb128 0x1f
 3510 1525 C6120000 		.4byte	.LASF468
 3511 1529 0220     		.2byte	0x2002
 3512 152b 1F       		.uleb128 0x1f
 3513 152c 1C1F0000 		.4byte	.LASF469
 3514 1530 0320     		.2byte	0x2003
 3515 1532 1F       		.uleb128 0x1f
 3516 1533 050D0000 		.4byte	.LASF470
 3517 1537 0420     		.2byte	0x2004
 3518 1539 1F       		.uleb128 0x1f
 3519 153a D7250000 		.4byte	.LASF471
 3520 153e 0520     		.2byte	0x2005
 3521 1540 1F       		.uleb128 0x1f
 3522 1541 F8220000 		.4byte	.LASF472
 3523 1545 0620     		.2byte	0x2006
 3524 1547 1F       		.uleb128 0x1f
 3525 1548 25360000 		.4byte	.LASF473
 3526 154c 0720     		.2byte	0x2007
 3527 154e 1F       		.uleb128 0x1f
 3528 154f 0A1D0000 		.4byte	.LASF474
 3529 1553 0820     		.2byte	0x2008
 3530 1555 1F       		.uleb128 0x1f
 3531 1556 C92F0000 		.4byte	.LASF475
 3532 155a 0920     		.2byte	0x2009
 3533 155c 1F       		.uleb128 0x1f
 3534 155d E6260000 		.4byte	.LASF476
 3535 1561 0A20     		.2byte	0x200a
 3536 1563 1F       		.uleb128 0x1f
 3537 1564 6E340000 		.4byte	.LASF477
 3538 1568 0B20     		.2byte	0x200b
 3539 156a 1F       		.uleb128 0x1f
 3540 156b C1160000 		.4byte	.LASF478
 3541 156f 0C20     		.2byte	0x200c
 3542 1571 1F       		.uleb128 0x1f
 3543 1572 45240000 		.4byte	.LASF479
 3544 1576 0D20     		.2byte	0x200d
 3545 1578 1F       		.uleb128 0x1f
 3546 1579 5C090000 		.4byte	.LASF480
 3547 157d 0E20     		.2byte	0x200e
 3548 157f 1F       		.uleb128 0x1f
 3549 1580 FA350000 		.4byte	.LASF481
 3550 1584 0F20     		.2byte	0x200f
 3551 1586 1F       		.uleb128 0x1f
ARM GAS  C:\Users\salaz\AppData\Local\Temp\ccvE4Xni.s 			page 100


 3552 1587 320A0000 		.4byte	.LASF482
 3553 158b 1020     		.2byte	0x2010
 3554 158d 1F       		.uleb128 0x1f
 3555 158e 851E0000 		.4byte	.LASF483
 3556 1592 1120     		.2byte	0x2011
 3557 1594 1F       		.uleb128 0x1f
 3558 1595 C91A0000 		.4byte	.LASF484
 3559 1599 1220     		.2byte	0x2012
 3560 159b 1F       		.uleb128 0x1f
 3561 159c 450F0000 		.4byte	.LASF485
 3562 15a0 1320     		.2byte	0x2013
 3563 15a2 1F       		.uleb128 0x1f
 3564 15a3 E9130000 		.4byte	.LASF486
 3565 15a7 1420     		.2byte	0x2014
 3566 15a9 1F       		.uleb128 0x1f
 3567 15aa 610F0000 		.4byte	.LASF487
 3568 15ae 1520     		.2byte	0x2015
 3569 15b0 1F       		.uleb128 0x1f
 3570 15b1 D31B0000 		.4byte	.LASF488
 3571 15b5 1620     		.2byte	0x2016
 3572 15b7 1F       		.uleb128 0x1f
 3573 15b8 C6080000 		.4byte	.LASF489
 3574 15bc 1720     		.2byte	0x2017
 3575 15be 1F       		.uleb128 0x1f
 3576 15bf 87040000 		.4byte	.LASF490
 3577 15c3 0030     		.2byte	0x3000
 3578 15c5 1F       		.uleb128 0x1f
 3579 15c6 4E010000 		.4byte	.LASF491
 3580 15ca 0130     		.2byte	0x3001
 3581 15cc 1F       		.uleb128 0x1f
 3582 15cd 99000000 		.4byte	.LASF492
 3583 15d1 0230     		.2byte	0x3002
 3584 15d3 1F       		.uleb128 0x1f
 3585 15d4 7A300000 		.4byte	.LASF493
 3586 15d8 0330     		.2byte	0x3003
 3587 15da 1F       		.uleb128 0x1f
 3588 15db AF150000 		.4byte	.LASF494
 3589 15df 0430     		.2byte	0x3004
 3590 15e1 1F       		.uleb128 0x1f
 3591 15e2 512C0000 		.4byte	.LASF495
 3592 15e6 0530     		.2byte	0x3005
 3593 15e8 1F       		.uleb128 0x1f
 3594 15e9 54350000 		.4byte	.LASF496
 3595 15ed 0630     		.2byte	0x3006
 3596 15ef 1F       		.uleb128 0x1f
 3597 15f0 F5010000 		.4byte	.LASF497
 3598 15f4 0730     		.2byte	0x3007
 3599 15f6 1F       		.uleb128 0x1f
 3600 15f7 9B010000 		.4byte	.LASF498
 3601 15fb 0830     		.2byte	0x3008
 3602 15fd 1F       		.uleb128 0x1f
 3603 15fe 38190000 		.4byte	.LASF499
 3604 1602 0930     		.2byte	0x3009
 3605 1604 1F       		.uleb128 0x1f
 3606 1605 C4300000 		.4byte	.LASF500
 3607 1609 0A30     		.2byte	0x300a
 3608 160b 1F       		.uleb128 0x1f
ARM GAS  C:\Users\salaz\AppData\Local\Temp\ccvE4Xni.s 			page 101


 3609 160c 00260000 		.4byte	.LASF501
 3610 1610 0B30     		.2byte	0x300b
 3611 1612 1F       		.uleb128 0x1f
 3612 1613 7D0F0000 		.4byte	.LASF502
 3613 1617 0C30     		.2byte	0x300c
 3614 1619 1F       		.uleb128 0x1f
 3615 161a A2180000 		.4byte	.LASF503
 3616 161e 1130     		.2byte	0x3011
 3617 1620 1F       		.uleb128 0x1f
 3618 1621 2E2C0000 		.4byte	.LASF504
 3619 1625 1230     		.2byte	0x3012
 3620 1627 1F       		.uleb128 0x1f
 3621 1628 D1200000 		.4byte	.LASF505
 3622 162c 1330     		.2byte	0x3013
 3623 162e 1F       		.uleb128 0x1f
 3624 162f 8F2D0000 		.4byte	.LASF506
 3625 1633 1430     		.2byte	0x3014
 3626 1635 1F       		.uleb128 0x1f
 3627 1636 842F0000 		.4byte	.LASF507
 3628 163a 1530     		.2byte	0x3015
 3629 163c 1F       		.uleb128 0x1f
 3630 163d C0070000 		.4byte	.LASF508
 3631 1641 1630     		.2byte	0x3016
 3632 1643 1F       		.uleb128 0x1f
 3633 1644 8E210000 		.4byte	.LASF509
 3634 1648 1730     		.2byte	0x3017
 3635 164a 1F       		.uleb128 0x1f
 3636 164b 23060000 		.4byte	.LASF510
 3637 164f 1830     		.2byte	0x3018
 3638 1651 1F       		.uleb128 0x1f
 3639 1652 4D100000 		.4byte	.LASF511
 3640 1656 0040     		.2byte	0x4000
 3641 1658 1F       		.uleb128 0x1f
 3642 1659 681D0000 		.4byte	.LASF512
 3643 165d 0140     		.2byte	0x4001
 3644 165f 1F       		.uleb128 0x1f
 3645 1660 E00C0000 		.4byte	.LASF513
 3646 1664 0240     		.2byte	0x4002
 3647 1666 1F       		.uleb128 0x1f
 3648 1667 53250000 		.4byte	.LASF514
 3649 166b 0340     		.2byte	0x4003
 3650 166d 1F       		.uleb128 0x1f
 3651 166e 1E220000 		.4byte	.LASF515
 3652 1672 0440     		.2byte	0x4004
 3653 1674 1F       		.uleb128 0x1f
 3654 1675 BF060000 		.4byte	.LASF516
 3655 1679 0540     		.2byte	0x4005
 3656 167b 1F       		.uleb128 0x1f
 3657 167c D22A0000 		.4byte	.LASF517
 3658 1680 0640     		.2byte	0x4006
 3659 1682 1F       		.uleb128 0x1f
 3660 1683 6F2D0000 		.4byte	.LASF518
 3661 1687 0740     		.2byte	0x4007
 3662 1689 1F       		.uleb128 0x1f
 3663 168a 060F0000 		.4byte	.LASF519
 3664 168e 0840     		.2byte	0x4008
 3665 1690 1F       		.uleb128 0x1f
ARM GAS  C:\Users\salaz\AppData\Local\Temp\ccvE4Xni.s 			page 102


 3666 1691 13090000 		.4byte	.LASF520
 3667 1695 0940     		.2byte	0x4009
 3668 1697 1F       		.uleb128 0x1f
 3669 1698 F6240000 		.4byte	.LASF521
 3670 169c 0A40     		.2byte	0x400a
 3671 169e 1F       		.uleb128 0x1f
 3672 169f 7B160000 		.4byte	.LASF522
 3673 16a3 0B40     		.2byte	0x400b
 3674 16a5 1F       		.uleb128 0x1f
 3675 16a6 93240000 		.4byte	.LASF523
 3676 16aa 0C40     		.2byte	0x400c
 3677 16ac 1F       		.uleb128 0x1f
 3678 16ad 981C0000 		.4byte	.LASF524
 3679 16b1 0D40     		.2byte	0x400d
 3680 16b3 1F       		.uleb128 0x1f
 3681 16b4 F71E0000 		.4byte	.LASF525
 3682 16b8 0E40     		.2byte	0x400e
 3683 16ba 1F       		.uleb128 0x1f
 3684 16bb 5A130000 		.4byte	.LASF526
 3685 16bf 0F40     		.2byte	0x400f
 3686 16c1 1F       		.uleb128 0x1f
 3687 16c2 C4100000 		.4byte	.LASF527
 3688 16c6 1040     		.2byte	0x4010
 3689 16c8 1F       		.uleb128 0x1f
 3690 16c9 9B0A0000 		.4byte	.LASF528
 3691 16cd 1140     		.2byte	0x4011
 3692 16cf 1F       		.uleb128 0x1f
 3693 16d0 E5280000 		.4byte	.LASF529
 3694 16d4 1240     		.2byte	0x4012
 3695 16d6 1F       		.uleb128 0x1f
 3696 16d7 96110000 		.4byte	.LASF530
 3697 16db 1340     		.2byte	0x4013
 3698 16dd 1F       		.uleb128 0x1f
 3699 16de 90360000 		.4byte	.LASF531
 3700 16e2 1440     		.2byte	0x4014
 3701 16e4 1F       		.uleb128 0x1f
 3702 16e5 3E260000 		.4byte	.LASF532
 3703 16e9 1540     		.2byte	0x4015
 3704 16eb 1F       		.uleb128 0x1f
 3705 16ec 8B050000 		.4byte	.LASF533
 3706 16f0 1640     		.2byte	0x4016
 3707 16f2 1F       		.uleb128 0x1f
 3708 16f3 31090000 		.4byte	.LASF534
 3709 16f7 1740     		.2byte	0x4017
 3710 16f9 1F       		.uleb128 0x1f
 3711 16fa 4F1D0000 		.4byte	.LASF535
 3712 16fe 1840     		.2byte	0x4018
 3713 1700 1F       		.uleb128 0x1f
 3714 1701 A9340000 		.4byte	.LASF536
 3715 1705 1940     		.2byte	0x4019
 3716 1707 1F       		.uleb128 0x1f
 3717 1708 91270000 		.4byte	.LASF537
 3718 170c 1A40     		.2byte	0x401a
 3719 170e 1F       		.uleb128 0x1f
 3720 170f B6140000 		.4byte	.LASF538
 3721 1713 0050     		.2byte	0x5000
 3722 1715 1F       		.uleb128 0x1f
ARM GAS  C:\Users\salaz\AppData\Local\Temp\ccvE4Xni.s 			page 103


 3723 1716 B41F0000 		.4byte	.LASF539
 3724 171a 0150     		.2byte	0x5001
 3725 171c 1F       		.uleb128 0x1f
 3726 171d 5A170000 		.4byte	.LASF540
 3727 1721 0250     		.2byte	0x5002
 3728 1723 1F       		.uleb128 0x1f
 3729 1724 A1070000 		.4byte	.LASF541
 3730 1728 0350     		.2byte	0x5003
 3731 172a 1F       		.uleb128 0x1f
 3732 172b 82260000 		.4byte	.LASF542
 3733 172f 0450     		.2byte	0x5004
 3734 1731 1F       		.uleb128 0x1f
 3735 1732 31160000 		.4byte	.LASF543
 3736 1736 0550     		.2byte	0x5005
 3737 1738 1F       		.uleb128 0x1f
 3738 1739 28000000 		.4byte	.LASF544
 3739 173d 0650     		.2byte	0x5006
 3740 173f 1F       		.uleb128 0x1f
 3741 1740 C10C0000 		.4byte	.LASF545
 3742 1744 0750     		.2byte	0x5007
 3743 1746 1F       		.uleb128 0x1f
 3744 1747 02180000 		.4byte	.LASF546
 3745 174b 0850     		.2byte	0x5008
 3746 174d 1F       		.uleb128 0x1f
 3747 174e 78190000 		.4byte	.LASF547
 3748 1752 0950     		.2byte	0x5009
 3749 1754 1F       		.uleb128 0x1f
 3750 1755 9C290000 		.4byte	.LASF548
 3751 1759 0A50     		.2byte	0x500a
 3752 175b 1F       		.uleb128 0x1f
 3753 175c FB1A0000 		.4byte	.LASF549
 3754 1760 0B50     		.2byte	0x500b
 3755 1762 1F       		.uleb128 0x1f
 3756 1763 5A080000 		.4byte	.LASF550
 3757 1767 0C50     		.2byte	0x500c
 3758 1769 1F       		.uleb128 0x1f
 3759 176a 45120000 		.4byte	.LASF551
 3760 176e 0D50     		.2byte	0x500d
 3761 1770 1F       		.uleb128 0x1f
 3762 1771 23210000 		.4byte	.LASF552
 3763 1775 0E50     		.2byte	0x500e
 3764 1777 1F       		.uleb128 0x1f
 3765 1778 D1140000 		.4byte	.LASF553
 3766 177c 0F50     		.2byte	0x500f
 3767 177e 1F       		.uleb128 0x1f
 3768 177f 1C230000 		.4byte	.LASF554
 3769 1783 1050     		.2byte	0x5010
 3770 1785 1F       		.uleb128 0x1f
 3771 1786 F3040000 		.4byte	.LASF555
 3772 178a 1150     		.2byte	0x5011
 3773 178c 1F       		.uleb128 0x1f
 3774 178d 38130000 		.4byte	.LASF556
 3775 1791 1250     		.2byte	0x5012
 3776 1793 1F       		.uleb128 0x1f
 3777 1794 19070000 		.4byte	.LASF557
 3778 1798 1350     		.2byte	0x5013
 3779 179a 1F       		.uleb128 0x1f
ARM GAS  C:\Users\salaz\AppData\Local\Temp\ccvE4Xni.s 			page 104


 3780 179b 870B0000 		.4byte	.LASF558
 3781 179f 1450     		.2byte	0x5014
 3782 17a1 1F       		.uleb128 0x1f
 3783 17a2 4A2D0000 		.4byte	.LASF559
 3784 17a6 1550     		.2byte	0x5015
 3785 17a8 1F       		.uleb128 0x1f
 3786 17a9 980E0000 		.4byte	.LASF560
 3787 17ad 1650     		.2byte	0x5016
 3788 17af 1F       		.uleb128 0x1f
 3789 17b0 542A0000 		.4byte	.LASF561
 3790 17b4 1750     		.2byte	0x5017
 3791 17b6 1F       		.uleb128 0x1f
 3792 17b7 49060000 		.4byte	.LASF562
 3793 17bb 1850     		.2byte	0x5018
 3794 17bd 1F       		.uleb128 0x1f
 3795 17be 10110000 		.4byte	.LASF563
 3796 17c2 0060     		.2byte	0x6000
 3797 17c4 1F       		.uleb128 0x1f
 3798 17c5 66290000 		.4byte	.LASF564
 3799 17c9 0160     		.2byte	0x6001
 3800 17cb 1F       		.uleb128 0x1f
 3801 17cc 27170000 		.4byte	.LASF565
 3802 17d0 0260     		.2byte	0x6002
 3803 17d2 1F       		.uleb128 0x1f
 3804 17d3 50150000 		.4byte	.LASF566
 3805 17d7 0360     		.2byte	0x6003
 3806 17d9 1F       		.uleb128 0x1f
 3807 17da 7C060000 		.4byte	.LASF567
 3808 17de 0460     		.2byte	0x6004
 3809 17e0 1F       		.uleb128 0x1f
 3810 17e1 31250000 		.4byte	.LASF568
 3811 17e5 0560     		.2byte	0x6005
 3812 17e7 1F       		.uleb128 0x1f
 3813 17e8 231B0000 		.4byte	.LASF569
 3814 17ec 0660     		.2byte	0x6006
 3815 17ee 1F       		.uleb128 0x1f
 3816 17ef 141C0000 		.4byte	.LASF570
 3817 17f3 0760     		.2byte	0x6007
 3818 17f5 1F       		.uleb128 0x1f
 3819 17f6 630B0000 		.4byte	.LASF571
 3820 17fa 0860     		.2byte	0x6008
 3821 17fc 1F       		.uleb128 0x1f
 3822 17fd F1140000 		.4byte	.LASF572
 3823 1801 0960     		.2byte	0x6009
 3824 1803 1F       		.uleb128 0x1f
 3825 1804 34280000 		.4byte	.LASF573
 3826 1808 0A60     		.2byte	0x600a
 3827 180a 1F       		.uleb128 0x1f
 3828 180b 0A030000 		.4byte	.LASF574
 3829 180f FFFF     		.2byte	0xffff
 3830 1811 00       		.byte	0
 3831 1812 10       		.uleb128 0x10
 3832 1813 4B050000 		.4byte	0x54b
 3833 1817 20       		.uleb128 0x20
 3834 1818 02       		.byte	0x2
 3835 1819 0F       		.byte	0xf
 3836 181a 5B01     		.2byte	0x15b
ARM GAS  C:\Users\salaz\AppData\Local\Temp\ccvE4Xni.s 			page 105


 3837 181c 3B180000 		.4byte	0x183b
 3838 1820 0A       		.uleb128 0xa
 3839 1821 9B060000 		.4byte	.LASF575
 3840 1825 0F       		.byte	0xf
 3841 1826 6501     		.2byte	0x165
 3842 1828 4B050000 		.4byte	0x54b
 3843 182c 00       		.byte	0
 3844 182d 0A       		.uleb128 0xa
 3845 182e 68340000 		.4byte	.LASF576
 3846 1832 0F       		.byte	0xf
 3847 1833 6901     		.2byte	0x169
 3848 1835 4B050000 		.4byte	0x54b
 3849 1839 01       		.byte	0x1
 3850 183a 00       		.byte	0
 3851 183b 07       		.uleb128 0x7
 3852 183c B92A0000 		.4byte	.LASF577
 3853 1840 0F       		.byte	0xf
 3854 1841 6B01     		.2byte	0x16b
 3855 1843 17180000 		.4byte	0x1817
 3856 1847 03       		.uleb128 0x3
 3857 1848 01       		.byte	0x1
 3858 1849 BA040000 		.4byte	0x4ba
 3859 184d 10       		.byte	0x10
 3860 184e 7E       		.byte	0x7e
 3861 184f 6C180000 		.4byte	0x186c
 3862 1853 05       		.uleb128 0x5
 3863 1854 FA1F0000 		.4byte	.LASF578
 3864 1858 00       		.byte	0
 3865 1859 05       		.uleb128 0x5
 3866 185a AC090000 		.4byte	.LASF579
 3867 185e 01       		.byte	0x1
 3868 185f 05       		.uleb128 0x5
 3869 1860 D5310000 		.4byte	.LASF580
 3870 1864 02       		.byte	0x2
 3871 1865 05       		.uleb128 0x5
 3872 1866 CF270000 		.4byte	.LASF581
 3873 186a 03       		.byte	0x3
 3874 186b 00       		.byte	0
 3875 186c 06       		.uleb128 0x6
 3876 186d 3A200000 		.4byte	.LASF582
 3877 1871 10       		.byte	0x10
 3878 1872 83       		.byte	0x83
 3879 1873 47180000 		.4byte	0x1847
 3880 1877 03       		.uleb128 0x3
 3881 1878 01       		.byte	0x1
 3882 1879 BA040000 		.4byte	0x4ba
 3883 187d 10       		.byte	0x10
 3884 187e 87       		.byte	0x87
 3885 187f B4180000 		.4byte	0x18b4
 3886 1883 05       		.uleb128 0x5
 3887 1884 052C0000 		.4byte	.LASF583
 3888 1888 00       		.byte	0
 3889 1889 05       		.uleb128 0x5
 3890 188a 3D1E0000 		.4byte	.LASF584
 3891 188e 01       		.byte	0x1
 3892 188f 05       		.uleb128 0x5
 3893 1890 442B0000 		.4byte	.LASF585
ARM GAS  C:\Users\salaz\AppData\Local\Temp\ccvE4Xni.s 			page 106


 3894 1894 02       		.byte	0x2
 3895 1895 05       		.uleb128 0x5
 3896 1896 0E190000 		.4byte	.LASF586
 3897 189a 03       		.byte	0x3
 3898 189b 05       		.uleb128 0x5
 3899 189c 641F0000 		.4byte	.LASF587
 3900 18a0 04       		.byte	0x4
 3901 18a1 05       		.uleb128 0x5
 3902 18a2 870C0000 		.4byte	.LASF588
 3903 18a6 05       		.byte	0x5
 3904 18a7 05       		.uleb128 0x5
 3905 18a8 18020000 		.4byte	.LASF589
 3906 18ac 06       		.byte	0x6
 3907 18ad 05       		.uleb128 0x5
 3908 18ae E3070000 		.4byte	.LASF590
 3909 18b2 07       		.byte	0x7
 3910 18b3 00       		.byte	0
 3911 18b4 06       		.uleb128 0x6
 3912 18b5 58270000 		.4byte	.LASF591
 3913 18b9 10       		.byte	0x10
 3914 18ba 90       		.byte	0x90
 3915 18bb 77180000 		.4byte	0x1877
 3916 18bf 10       		.uleb128 0x10
 3917 18c0 0F0D0000 		.4byte	0xd0f
 3918 18c4 11       		.uleb128 0x11
 3919 18c5 0C       		.byte	0xc
 3920 18c6 01       		.byte	0x1
 3921 18c7 09       		.byte	0x9
 3922 18c8 F0180000 		.4byte	0x18f0
 3923 18cc 21       		.uleb128 0x21
 3924 18cd 696400   		.ascii	"id\000"
 3925 18d0 01       		.byte	0x1
 3926 18d1 0B       		.byte	0xb
 3927 18d2 8B0C0000 		.4byte	0xc8b
 3928 18d6 00       		.byte	0
 3929 18d7 12       		.uleb128 0x12
 3930 18d8 B1280000 		.4byte	.LASF333
 3931 18dc 01       		.byte	0x1
 3932 18dd 0C       		.byte	0xc
 3933 18de 970C0000 		.4byte	0xc97
 3934 18e2 04       		.byte	0x4
 3935 18e3 12       		.uleb128 0x12
 3936 18e4 99170000 		.4byte	.LASF592
 3937 18e8 01       		.byte	0x1
 3938 18e9 0D       		.byte	0xd
 3939 18ea 970C0000 		.4byte	0xc97
 3940 18ee 08       		.byte	0x8
 3941 18ef 00       		.byte	0
 3942 18f0 06       		.uleb128 0x6
 3943 18f1 6F320000 		.4byte	.LASF593
 3944 18f5 01       		.byte	0x1
 3945 18f6 0F       		.byte	0xf
 3946 18f7 C4180000 		.4byte	0x18c4
 3947 18fb 22       		.uleb128 0x22
 3948 18fc 27270000 		.4byte	.LASF596
 3949 1900 02       		.byte	0x2
 3950 1901 1603     		.2byte	0x316
ARM GAS  C:\Users\salaz\AppData\Local\Temp\ccvE4Xni.s 			page 107


 3951 1903 6C050000 		.4byte	0x56c
 3952 1907 03       		.byte	0x3
 3953 1908 31190000 		.4byte	0x1931
 3954 190c 23       		.uleb128 0x23
 3955 190d 9C320000 		.4byte	.LASF594
 3956 1911 02       		.byte	0x2
 3957 1912 1603     		.2byte	0x316
 3958 1914 31190000 		.4byte	0x1931
 3959 1918 23       		.uleb128 0x23
 3960 1919 1B1B0000 		.4byte	.LASF595
 3961 191d 02       		.byte	0x2
 3962 191e 1603     		.2byte	0x316
 3963 1920 CE0D0000 		.4byte	0xdce
 3964 1924 24       		.uleb128 0x24
 3965 1925 0D140000 		.4byte	.LASF598
 3966 1929 02       		.byte	0x2
 3967 192a 1803     		.2byte	0x318
 3968 192c 6C050000 		.4byte	0x56c
 3969 1930 00       		.byte	0
 3970 1931 1A       		.uleb128 0x1a
 3971 1932 04       		.byte	0x4
 3972 1933 37190000 		.4byte	0x1937
 3973 1937 10       		.uleb128 0x10
 3974 1938 AD070000 		.4byte	0x7ad
 3975 193c 22       		.uleb128 0x22
 3976 193d 32310000 		.4byte	.LASF597
 3977 1941 02       		.byte	0x2
 3978 1942 6003     		.2byte	0x360
 3979 1944 6C050000 		.4byte	0x56c
 3980 1948 03       		.byte	0x3
 3981 1949 72190000 		.4byte	0x1972
 3982 194d 23       		.uleb128 0x23
 3983 194e 9C320000 		.4byte	.LASF594
 3984 1952 02       		.byte	0x2
 3985 1953 6003     		.2byte	0x360
 3986 1955 31190000 		.4byte	0x1931
 3987 1959 23       		.uleb128 0x23
 3988 195a 1B1B0000 		.4byte	.LASF595
 3989 195e 02       		.byte	0x2
 3990 195f 6003     		.2byte	0x360
 3991 1961 CE0D0000 		.4byte	0xdce
 3992 1965 24       		.uleb128 0x24
 3993 1966 5F070000 		.4byte	.LASF599
 3994 196a 02       		.byte	0x2
 3995 196b 6203     		.2byte	0x362
 3996 196d 6C050000 		.4byte	0x56c
 3997 1971 00       		.byte	0
 3998 1972 22       		.uleb128 0x22
 3999 1973 500C0000 		.4byte	.LASF600
 4000 1977 02       		.byte	0x2
 4001 1978 BA03     		.2byte	0x3ba
 4002 197a 6C050000 		.4byte	0x56c
 4003 197e 03       		.byte	0x3
 4004 197f 90190000 		.4byte	0x1990
 4005 1983 23       		.uleb128 0x23
 4006 1984 9C320000 		.4byte	.LASF594
 4007 1988 02       		.byte	0x2
ARM GAS  C:\Users\salaz\AppData\Local\Temp\ccvE4Xni.s 			page 108


 4008 1989 BA03     		.2byte	0x3ba
 4009 198b 31190000 		.4byte	0x1931
 4010 198f 00       		.byte	0
 4011 1990 25       		.uleb128 0x25
 4012 1991 2D050000 		.4byte	.LASF602
 4013 1995 02       		.byte	0x2
 4014 1996 D103     		.2byte	0x3d1
 4015 1998 03       		.byte	0x3
 4016 1999 B6190000 		.4byte	0x19b6
 4017 199d 23       		.uleb128 0x23
 4018 199e 9C320000 		.4byte	.LASF594
 4019 19a2 02       		.byte	0x2
 4020 19a3 D103     		.2byte	0x3d1
 4021 19a5 B6190000 		.4byte	0x19b6
 4022 19a9 23       		.uleb128 0x23
 4023 19aa EF270000 		.4byte	.LASF601
 4024 19ae 02       		.byte	0x2
 4025 19af D103     		.2byte	0x3d1
 4026 19b1 6C050000 		.4byte	0x56c
 4027 19b5 00       		.byte	0
 4028 19b6 1A       		.uleb128 0x1a
 4029 19b7 04       		.byte	0x4
 4030 19b8 AD070000 		.4byte	0x7ad
 4031 19bc 25       		.uleb128 0x25
 4032 19bd 61050000 		.4byte	.LASF603
 4033 19c1 03       		.byte	0x3
 4034 19c2 2703     		.2byte	0x327
 4035 19c4 03       		.byte	0x3
 4036 19c5 D6190000 		.4byte	0x19d6
 4037 19c9 23       		.uleb128 0x23
 4038 19ca C8030000 		.4byte	.LASF604
 4039 19ce 03       		.byte	0x3
 4040 19cf 2703     		.2byte	0x327
 4041 19d1 2A010000 		.4byte	0x12a
 4042 19d5 00       		.byte	0
 4043 19d6 25       		.uleb128 0x25
 4044 19d7 5C210000 		.4byte	.LASF605
 4045 19db 02       		.byte	0x2
 4046 19dc 6701     		.2byte	0x167
 4047 19de 03       		.byte	0x3
 4048 19df 141A0000 		.4byte	0x1a14
 4049 19e3 23       		.uleb128 0x23
 4050 19e4 9C320000 		.4byte	.LASF594
 4051 19e8 02       		.byte	0x2
 4052 19e9 6701     		.2byte	0x167
 4053 19eb B6190000 		.4byte	0x19b6
 4054 19ef 23       		.uleb128 0x23
 4055 19f0 EF270000 		.4byte	.LASF601
 4056 19f4 02       		.byte	0x2
 4057 19f5 6701     		.2byte	0x167
 4058 19f7 6C050000 		.4byte	0x56c
 4059 19fb 23       		.uleb128 0x23
 4060 19fc A02B0000 		.4byte	.LASF606
 4061 1a00 02       		.byte	0x2
 4062 1a01 6701     		.2byte	0x167
 4063 1a03 56050000 		.4byte	0x556
 4064 1a07 24       		.uleb128 0x24
ARM GAS  C:\Users\salaz\AppData\Local\Temp\ccvE4Xni.s 			page 109


 4065 1a08 40300000 		.4byte	.LASF607
 4066 1a0c 02       		.byte	0x2
 4067 1a0d 6901     		.2byte	0x169
 4068 1a0f 6C050000 		.4byte	0x56c
 4069 1a13 00       		.byte	0
 4070 1a14 25       		.uleb128 0x25
 4071 1a15 7A200000 		.4byte	.LASF608
 4072 1a19 02       		.byte	0x2
 4073 1a1a 9001     		.2byte	0x190
 4074 1a1c 03       		.byte	0x3
 4075 1a1d 521A0000 		.4byte	0x1a52
 4076 1a21 23       		.uleb128 0x23
 4077 1a22 9C320000 		.4byte	.LASF594
 4078 1a26 02       		.byte	0x2
 4079 1a27 9001     		.2byte	0x190
 4080 1a29 B6190000 		.4byte	0x19b6
 4081 1a2d 23       		.uleb128 0x23
 4082 1a2e EF270000 		.4byte	.LASF601
 4083 1a32 02       		.byte	0x2
 4084 1a33 9001     		.2byte	0x190
 4085 1a35 6C050000 		.4byte	0x56c
 4086 1a39 23       		.uleb128 0x23
 4087 1a3a A02B0000 		.4byte	.LASF606
 4088 1a3e 02       		.byte	0x2
 4089 1a3f 9001     		.2byte	0x190
 4090 1a41 56050000 		.4byte	0x556
 4091 1a45 24       		.uleb128 0x24
 4092 1a46 B9200000 		.4byte	.LASF609
 4093 1a4a 02       		.byte	0x2
 4094 1a4b 9201     		.2byte	0x192
 4095 1a4d 6C050000 		.4byte	0x56c
 4096 1a51 00       		.byte	0
 4097 1a52 25       		.uleb128 0x25
 4098 1a53 D9330000 		.4byte	.LASF610
 4099 1a57 02       		.byte	0x2
 4100 1a58 1404     		.2byte	0x414
 4101 1a5a 03       		.byte	0x3
 4102 1a5b 781A0000 		.4byte	0x1a78
 4103 1a5f 23       		.uleb128 0x23
 4104 1a60 9C320000 		.4byte	.LASF594
 4105 1a64 02       		.byte	0x2
 4106 1a65 1404     		.2byte	0x414
 4107 1a67 B6190000 		.4byte	0x19b6
 4108 1a6b 23       		.uleb128 0x23
 4109 1a6c EF270000 		.4byte	.LASF601
 4110 1a70 02       		.byte	0x2
 4111 1a71 1404     		.2byte	0x414
 4112 1a73 6C050000 		.4byte	0x56c
 4113 1a77 00       		.byte	0
 4114 1a78 25       		.uleb128 0x25
 4115 1a79 07080000 		.4byte	.LASF611
 4116 1a7d 03       		.byte	0x3
 4117 1a7e CE02     		.2byte	0x2ce
 4118 1a80 03       		.byte	0x3
 4119 1a81 921A0000 		.4byte	0x1a92
 4120 1a85 23       		.uleb128 0x23
 4121 1a86 C8030000 		.4byte	.LASF604
ARM GAS  C:\Users\salaz\AppData\Local\Temp\ccvE4Xni.s 			page 110


 4122 1a8a 03       		.byte	0x3
 4123 1a8b CE02     		.2byte	0x2ce
 4124 1a8d 2A010000 		.4byte	0x12a
 4125 1a91 00       		.byte	0
 4126 1a92 25       		.uleb128 0x25
 4127 1a93 BF360000 		.4byte	.LASF612
 4128 1a97 02       		.byte	0x2
 4129 1a98 F102     		.2byte	0x2f1
 4130 1a9a 03       		.byte	0x3
 4131 1a9b D01A0000 		.4byte	0x1ad0
 4132 1a9f 23       		.uleb128 0x23
 4133 1aa0 9C320000 		.4byte	.LASF594
 4134 1aa4 02       		.byte	0x2
 4135 1aa5 F102     		.2byte	0x2f1
 4136 1aa7 B6190000 		.4byte	0x19b6
 4137 1aab 23       		.uleb128 0x23
 4138 1aac 1B1B0000 		.4byte	.LASF595
 4139 1ab0 02       		.byte	0x2
 4140 1ab1 F102     		.2byte	0x2f1
 4141 1ab3 CE0D0000 		.4byte	0xdce
 4142 1ab7 23       		.uleb128 0x23
 4143 1ab8 0D140000 		.4byte	.LASF598
 4144 1abc 02       		.byte	0x2
 4145 1abd F102     		.2byte	0x2f1
 4146 1abf 6C050000 		.4byte	0x56c
 4147 1ac3 23       		.uleb128 0x23
 4148 1ac4 A02B0000 		.4byte	.LASF606
 4149 1ac8 02       		.byte	0x2
 4150 1ac9 F102     		.2byte	0x2f1
 4151 1acb 56050000 		.4byte	0x556
 4152 1acf 00       		.byte	0
 4153 1ad0 25       		.uleb128 0x25
 4154 1ad1 8B180000 		.4byte	.LASF613
 4155 1ad5 02       		.byte	0x2
 4156 1ad6 9703     		.2byte	0x397
 4157 1ad8 03       		.byte	0x3
 4158 1ad9 0E1B0000 		.4byte	0x1b0e
 4159 1add 23       		.uleb128 0x23
 4160 1ade 9C320000 		.4byte	.LASF594
 4161 1ae2 02       		.byte	0x2
 4162 1ae3 9703     		.2byte	0x397
 4163 1ae5 B6190000 		.4byte	0x19b6
 4164 1ae9 23       		.uleb128 0x23
 4165 1aea EF270000 		.4byte	.LASF601
 4166 1aee 02       		.byte	0x2
 4167 1aef 9703     		.2byte	0x397
 4168 1af1 6C050000 		.4byte	0x56c
 4169 1af5 23       		.uleb128 0x23
 4170 1af6 A02B0000 		.4byte	.LASF606
 4171 1afa 02       		.byte	0x2
 4172 1afb 9703     		.2byte	0x397
 4173 1afd 56050000 		.4byte	0x556
 4174 1b01 24       		.uleb128 0x24
 4175 1b02 A1260000 		.4byte	.LASF614
 4176 1b06 02       		.byte	0x2
 4177 1b07 9903     		.2byte	0x399
 4178 1b09 6C050000 		.4byte	0x56c
ARM GAS  C:\Users\salaz\AppData\Local\Temp\ccvE4Xni.s 			page 111


 4179 1b0d 00       		.byte	0
 4180 1b0e 26       		.uleb128 0x26
 4181 1b0f 60330000 		.4byte	.LASF658
 4182 1b13 01       		.byte	0x1
 4183 1b14 1A       		.byte	0x1a
 4184 1b15 00000000 		.4byte	.LFB792
 4185 1b19 A8010000 		.4byte	.LFE792-.LFB792
 4186 1b1d 01       		.uleb128 0x1
 4187 1b1e 9C       		.byte	0x9c
 4188 1b1f E51D0000 		.4byte	0x1de5
 4189 1b23 27       		.uleb128 0x27
 4190 1b24 312A0000 		.4byte	.LASF620
 4191 1b28 01       		.byte	0x1
 4192 1b29 1A       		.byte	0x1a
 4193 1b2a 970C0000 		.4byte	0xc97
 4194 1b2e 00000000 		.4byte	.LLST0
 4195 1b32 28       		.uleb128 0x28
 4196 1b33 DF350000 		.4byte	.LASF615
 4197 1b37 01       		.byte	0x1
 4198 1b38 1C       		.byte	0x1c
 4199 1b39 8B0C0000 		.4byte	0xc8b
 4200 1b3d 3A000000 		.4byte	.LLST1
 4201 1b41 29       		.uleb128 0x29
 4202 1b42 AA330000 		.4byte	.LASF616
 4203 1b46 01       		.byte	0x1
 4204 1b47 1D       		.byte	0x1d
 4205 1b48 E51D0000 		.4byte	0x1de5
 4206 1b4c 03       		.uleb128 0x3
 4207 1b4d 91       		.byte	0x91
 4208 1b4e 987F     		.sleb128 -104
 4209 1b50 28       		.uleb128 0x28
 4210 1b51 0E280000 		.4byte	.LASF617
 4211 1b55 01       		.byte	0x1
 4212 1b56 1E       		.byte	0x1e
 4213 1b57 8B0C0000 		.4byte	0xc8b
 4214 1b5b 6F000000 		.4byte	.LLST2
 4215 1b5f 2A       		.uleb128 0x2a
 4216 1b60 00000000 		.4byte	.Ldebug_ranges0+0
 4217 1b64 761B0000 		.4byte	0x1b76
 4218 1b68 2B       		.uleb128 0x2b
 4219 1b69 6900     		.ascii	"i\000"
 4220 1b6b 01       		.byte	0x1
 4221 1b6c 20       		.byte	0x20
 4222 1b6d 8B0C0000 		.4byte	0xc8b
 4223 1b71 99000000 		.4byte	.LLST3
 4224 1b75 00       		.byte	0
 4225 1b76 2C       		.uleb128 0x2c
 4226 1b77 921A0000 		.4byte	0x1a92
 4227 1b7b 84000000 		.4byte	.LBB56
 4228 1b7f 3A000000 		.4byte	.LBE56-.LBB56
 4229 1b83 01       		.byte	0x1
 4230 1b84 37       		.byte	0x37
 4231 1b85 DC1B0000 		.4byte	0x1bdc
 4232 1b89 2D       		.uleb128 0x2d
 4233 1b8a C31A0000 		.4byte	0x1ac3
 4234 1b8e C3000000 		.4byte	.LLST4
 4235 1b92 2D       		.uleb128 0x2d
ARM GAS  C:\Users\salaz\AppData\Local\Temp\ccvE4Xni.s 			page 112


 4236 1b93 B71A0000 		.4byte	0x1ab7
 4237 1b97 D8000000 		.4byte	.LLST5
 4238 1b9b 2D       		.uleb128 0x2d
 4239 1b9c AB1A0000 		.4byte	0x1aab
 4240 1ba0 EB000000 		.4byte	.LLST6
 4241 1ba4 2D       		.uleb128 0x2d
 4242 1ba5 9F1A0000 		.4byte	0x1a9f
 4243 1ba9 FF000000 		.4byte	.LLST7
 4244 1bad 2E       		.uleb128 0x2e
 4245 1bae A8000000 		.4byte	.LVL12
 4246 1bb2 12240000 		.4byte	0x2412
 4247 1bb6 CB1B0000 		.4byte	0x1bcb
 4248 1bba 2F       		.uleb128 0x2f
 4249 1bbb 01       		.uleb128 0x1
 4250 1bbc 50       		.byte	0x50
 4251 1bbd 05       		.uleb128 0x5
 4252 1bbe 03       		.byte	0x3
 4253 1bbf 00000000 		.4byte	.LC2
 4254 1bc3 2F       		.uleb128 0x2f
 4255 1bc4 01       		.uleb128 0x1
 4256 1bc5 51       		.byte	0x51
 4257 1bc6 03       		.uleb128 0x3
 4258 1bc7 0A       		.byte	0xa
 4259 1bc8 F702     		.2byte	0x2f7
 4260 1bca 00       		.byte	0
 4261 1bcb 30       		.uleb128 0x30
 4262 1bcc BE000000 		.4byte	.LVL15
 4263 1bd0 1E240000 		.4byte	0x241e
 4264 1bd4 2F       		.uleb128 0x2f
 4265 1bd5 01       		.uleb128 0x1
 4266 1bd6 50       		.byte	0x50
 4267 1bd7 02       		.uleb128 0x2
 4268 1bd8 08       		.byte	0x8
 4269 1bd9 3E       		.byte	0x3e
 4270 1bda 00       		.byte	0
 4271 1bdb 00       		.byte	0
 4272 1bdc 2C       		.uleb128 0x2c
 4273 1bdd 921A0000 		.4byte	0x1a92
 4274 1be1 BE000000 		.4byte	.LBB58
 4275 1be5 20000000 		.4byte	.LBE58-.LBB58
 4276 1be9 01       		.byte	0x1
 4277 1bea 38       		.byte	0x38
 4278 1beb 421C0000 		.4byte	0x1c42
 4279 1bef 2D       		.uleb128 0x2d
 4280 1bf0 C31A0000 		.4byte	0x1ac3
 4281 1bf4 17010000 		.4byte	.LLST8
 4282 1bf8 2D       		.uleb128 0x2d
 4283 1bf9 B71A0000 		.4byte	0x1ab7
 4284 1bfd 2C010000 		.4byte	.LLST9
 4285 1c01 2D       		.uleb128 0x2d
 4286 1c02 AB1A0000 		.4byte	0x1aab
 4287 1c06 40010000 		.4byte	.LLST10
 4288 1c0a 2D       		.uleb128 0x2d
 4289 1c0b 9F1A0000 		.4byte	0x1a9f
 4290 1c0f 54010000 		.4byte	.LLST11
 4291 1c13 2E       		.uleb128 0x2e
 4292 1c14 CC000000 		.4byte	.LVL16
ARM GAS  C:\Users\salaz\AppData\Local\Temp\ccvE4Xni.s 			page 113


 4293 1c18 12240000 		.4byte	0x2412
 4294 1c1c 311C0000 		.4byte	0x1c31
 4295 1c20 2F       		.uleb128 0x2f
 4296 1c21 01       		.uleb128 0x1
 4297 1c22 50       		.byte	0x50
 4298 1c23 05       		.uleb128 0x5
 4299 1c24 03       		.byte	0x3
 4300 1c25 00000000 		.4byte	.LC2
 4301 1c29 2F       		.uleb128 0x2f
 4302 1c2a 01       		.uleb128 0x1
 4303 1c2b 51       		.byte	0x51
 4304 1c2c 03       		.uleb128 0x3
 4305 1c2d 0A       		.byte	0xa
 4306 1c2e F702     		.2byte	0x2f7
 4307 1c30 00       		.byte	0
 4308 1c31 30       		.uleb128 0x30
 4309 1c32 DC000000 		.4byte	.LVL17
 4310 1c36 1E240000 		.4byte	0x241e
 4311 1c3a 2F       		.uleb128 0x2f
 4312 1c3b 01       		.uleb128 0x1
 4313 1c3c 50       		.byte	0x50
 4314 1c3d 02       		.uleb128 0x2
 4315 1c3e 08       		.byte	0x8
 4316 1c3f 3E       		.byte	0x3e
 4317 1c40 00       		.byte	0
 4318 1c41 00       		.byte	0
 4319 1c42 2C       		.uleb128 0x2c
 4320 1c43 921A0000 		.4byte	0x1a92
 4321 1c47 DE000000 		.4byte	.LBB60
 4322 1c4b 16000000 		.4byte	.LBE60-.LBB60
 4323 1c4f 01       		.byte	0x1
 4324 1c50 3C       		.byte	0x3c
 4325 1c51 8A1C0000 		.4byte	0x1c8a
 4326 1c55 2D       		.uleb128 0x2d
 4327 1c56 C31A0000 		.4byte	0x1ac3
 4328 1c5a 6C010000 		.4byte	.LLST12
 4329 1c5e 2D       		.uleb128 0x2d
 4330 1c5f B71A0000 		.4byte	0x1ab7
 4331 1c63 81010000 		.4byte	.LLST13
 4332 1c67 2D       		.uleb128 0x2d
 4333 1c68 AB1A0000 		.4byte	0x1aab
 4334 1c6c 97010000 		.4byte	.LLST14
 4335 1c70 2D       		.uleb128 0x2d
 4336 1c71 9F1A0000 		.4byte	0x1a9f
 4337 1c75 AB010000 		.4byte	.LLST15
 4338 1c79 30       		.uleb128 0x30
 4339 1c7a F4000000 		.4byte	.LVL20
 4340 1c7e 1E240000 		.4byte	0x241e
 4341 1c82 2F       		.uleb128 0x2f
 4342 1c83 01       		.uleb128 0x1
 4343 1c84 50       		.byte	0x50
 4344 1c85 02       		.uleb128 0x2
 4345 1c86 08       		.byte	0x8
 4346 1c87 3E       		.byte	0x3e
 4347 1c88 00       		.byte	0
 4348 1c89 00       		.byte	0
 4349 1c8a 2C       		.uleb128 0x2c
ARM GAS  C:\Users\salaz\AppData\Local\Temp\ccvE4Xni.s 			page 114


 4350 1c8b 921A0000 		.4byte	0x1a92
 4351 1c8f 08010000 		.4byte	.LBB62
 4352 1c93 38000000 		.4byte	.LBE62-.LBB62
 4353 1c97 01       		.byte	0x1
 4354 1c98 3D       		.byte	0x3d
 4355 1c99 F01C0000 		.4byte	0x1cf0
 4356 1c9d 2D       		.uleb128 0x2d
 4357 1c9e C31A0000 		.4byte	0x1ac3
 4358 1ca2 C3010000 		.4byte	.LLST16
 4359 1ca6 2D       		.uleb128 0x2d
 4360 1ca7 B71A0000 		.4byte	0x1ab7
 4361 1cab D8010000 		.4byte	.LLST17
 4362 1caf 2D       		.uleb128 0x2d
 4363 1cb0 AB1A0000 		.4byte	0x1aab
 4364 1cb4 EB010000 		.4byte	.LLST18
 4365 1cb8 2D       		.uleb128 0x2d
 4366 1cb9 9F1A0000 		.4byte	0x1a9f
 4367 1cbd FF010000 		.4byte	.LLST19
 4368 1cc1 2E       		.uleb128 0x2e
 4369 1cc2 2C010000 		.4byte	.LVL24
 4370 1cc6 12240000 		.4byte	0x2412
 4371 1cca DF1C0000 		.4byte	0x1cdf
 4372 1cce 2F       		.uleb128 0x2f
 4373 1ccf 01       		.uleb128 0x1
 4374 1cd0 50       		.byte	0x50
 4375 1cd1 05       		.uleb128 0x5
 4376 1cd2 03       		.byte	0x3
 4377 1cd3 00000000 		.4byte	.LC2
 4378 1cd7 2F       		.uleb128 0x2f
 4379 1cd8 01       		.uleb128 0x1
 4380 1cd9 51       		.byte	0x51
 4381 1cda 03       		.uleb128 0x3
 4382 1cdb 0A       		.byte	0xa
 4383 1cdc F702     		.2byte	0x2f7
 4384 1cde 00       		.byte	0
 4385 1cdf 30       		.uleb128 0x30
 4386 1ce0 40010000 		.4byte	.LVL26
 4387 1ce4 1E240000 		.4byte	0x241e
 4388 1ce8 2F       		.uleb128 0x2f
 4389 1ce9 01       		.uleb128 0x1
 4390 1cea 50       		.byte	0x50
 4391 1ceb 02       		.uleb128 0x2
 4392 1cec 08       		.byte	0x8
 4393 1ced 3E       		.byte	0x3e
 4394 1cee 00       		.byte	0
 4395 1cef 00       		.byte	0
 4396 1cf0 2C       		.uleb128 0x2c
 4397 1cf1 3C190000 		.4byte	0x193c
 4398 1cf5 40010000 		.4byte	.LBB64
 4399 1cf9 04000000 		.4byte	.LBE64-.LBB64
 4400 1cfd 01       		.byte	0x1
 4401 1cfe 40       		.byte	0x40
 4402 1cff 291D0000 		.4byte	0x1d29
 4403 1d03 2D       		.uleb128 0x2d
 4404 1d04 59190000 		.4byte	0x1959
 4405 1d08 17020000 		.4byte	.LLST20
 4406 1d0c 2D       		.uleb128 0x2d
ARM GAS  C:\Users\salaz\AppData\Local\Temp\ccvE4Xni.s 			page 115


 4407 1d0d 4D190000 		.4byte	0x194d
 4408 1d11 2B020000 		.4byte	.LLST21
 4409 1d15 31       		.uleb128 0x31
 4410 1d16 40010000 		.4byte	.LBB65
 4411 1d1a 04000000 		.4byte	.LBE65-.LBB65
 4412 1d1e 32       		.uleb128 0x32
 4413 1d1f 65190000 		.4byte	0x1965
 4414 1d23 43020000 		.4byte	.LLST22
 4415 1d27 00       		.byte	0
 4416 1d28 00       		.byte	0
 4417 1d29 2C       		.uleb128 0x2c
 4418 1d2a FB180000 		.4byte	0x18fb
 4419 1d2e 44010000 		.4byte	.LBB66
 4420 1d32 02000000 		.4byte	.LBE66-.LBB66
 4421 1d36 01       		.byte	0x1
 4422 1d37 40       		.byte	0x40
 4423 1d38 5E1D0000 		.4byte	0x1d5e
 4424 1d3c 2D       		.uleb128 0x2d
 4425 1d3d 18190000 		.4byte	0x1918
 4426 1d41 57020000 		.4byte	.LLST23
 4427 1d45 2D       		.uleb128 0x2d
 4428 1d46 0C190000 		.4byte	0x190c
 4429 1d4a 6B020000 		.4byte	.LLST24
 4430 1d4e 31       		.uleb128 0x31
 4431 1d4f 44010000 		.4byte	.LBB67
 4432 1d53 02000000 		.4byte	.LBE67-.LBB67
 4433 1d57 33       		.uleb128 0x33
 4434 1d58 24190000 		.4byte	0x1924
 4435 1d5c 00       		.byte	0
 4436 1d5d 00       		.byte	0
 4437 1d5e 2C       		.uleb128 0x2c
 4438 1d5f D01A0000 		.4byte	0x1ad0
 4439 1d63 4E010000 		.4byte	.LBB68
 4440 1d67 1C000000 		.4byte	.LBE68-.LBB68
 4441 1d6b 01       		.byte	0x1
 4442 1d6c 43       		.byte	0x43
 4443 1d6d C41D0000 		.4byte	0x1dc4
 4444 1d71 2D       		.uleb128 0x2d
 4445 1d72 F51A0000 		.4byte	0x1af5
 4446 1d76 83020000 		.4byte	.LLST25
 4447 1d7a 2D       		.uleb128 0x2d
 4448 1d7b E91A0000 		.4byte	0x1ae9
 4449 1d7f 98020000 		.4byte	.LLST26
 4450 1d83 2D       		.uleb128 0x2d
 4451 1d84 DD1A0000 		.4byte	0x1add
 4452 1d88 AC020000 		.4byte	.LLST27
 4453 1d8c 31       		.uleb128 0x31
 4454 1d8d 4E010000 		.4byte	.LBB69
 4455 1d91 1C000000 		.4byte	.LBE69-.LBB69
 4456 1d95 32       		.uleb128 0x32
 4457 1d96 011B0000 		.4byte	0x1b01
 4458 1d9a C4020000 		.4byte	.LLST28
 4459 1d9e 2E       		.uleb128 0x2e
 4460 1d9f 5E010000 		.4byte	.LVL30
 4461 1da3 1E240000 		.4byte	0x241e
 4462 1da7 B21D0000 		.4byte	0x1db2
 4463 1dab 2F       		.uleb128 0x2f
ARM GAS  C:\Users\salaz\AppData\Local\Temp\ccvE4Xni.s 			page 116


 4464 1dac 01       		.uleb128 0x1
 4465 1dad 50       		.byte	0x50
 4466 1dae 02       		.uleb128 0x2
 4467 1daf 08       		.byte	0x8
 4468 1db0 3E       		.byte	0x3e
 4469 1db1 00       		.byte	0
 4470 1db2 30       		.uleb128 0x30
 4471 1db3 6A010000 		.4byte	.LVL31
 4472 1db7 1E240000 		.4byte	0x241e
 4473 1dbb 2F       		.uleb128 0x2f
 4474 1dbc 01       		.uleb128 0x1
 4475 1dbd 50       		.byte	0x50
 4476 1dbe 02       		.uleb128 0x2
 4477 1dbf 08       		.byte	0x8
 4478 1dc0 3E       		.byte	0x3e
 4479 1dc1 00       		.byte	0
 4480 1dc2 00       		.byte	0
 4481 1dc3 00       		.byte	0
 4482 1dc4 31       		.uleb128 0x31
 4483 1dc5 6E010000 		.4byte	.LBB70
 4484 1dc9 14000000 		.4byte	.LBE70-.LBB70
 4485 1dcd 2B       		.uleb128 0x2b
 4486 1dce 6900     		.ascii	"i\000"
 4487 1dd0 01       		.byte	0x1
 4488 1dd1 46       		.byte	0x46
 4489 1dd2 8B0C0000 		.4byte	0xc8b
 4490 1dd6 DA020000 		.4byte	.LLST29
 4491 1dda 34       		.uleb128 0x34
 4492 1ddb 7A010000 		.4byte	.LVL33
 4493 1ddf 2A240000 		.4byte	0x242a
 4494 1de3 00       		.byte	0
 4495 1de4 00       		.byte	0
 4496 1de5 0D       		.uleb128 0xd
 4497 1de6 F51D0000 		.4byte	0x1df5
 4498 1dea F51D0000 		.4byte	0x1df5
 4499 1dee 0E       		.uleb128 0xe
 4500 1def 24060000 		.4byte	0x624
 4501 1df3 13       		.byte	0x13
 4502 1df4 00       		.byte	0
 4503 1df5 1A       		.uleb128 0x1a
 4504 1df6 04       		.byte	0x4
 4505 1df7 F0180000 		.4byte	0x18f0
 4506 1dfb 35       		.uleb128 0x35
 4507 1dfc 45070000 		.4byte	.LASF626
 4508 1e00 01       		.byte	0x1
 4509 1e01 4B       		.byte	0x4b
 4510 1e02 00000000 		.4byte	.LFB793
 4511 1e06 6C000000 		.4byte	.LFE793-.LFB793
 4512 1e0a 01       		.uleb128 0x1
 4513 1e0b 9C       		.byte	0x9c
 4514 1e0c 8B1F0000 		.4byte	0x1f8b
 4515 1e10 36       		.uleb128 0x36
 4516 1e11 73726300 		.ascii	"src\000"
 4517 1e15 01       		.byte	0x1
 4518 1e16 4D       		.byte	0x4d
 4519 1e17 970C0000 		.4byte	0xc97
 4520 1e1b 2C       		.uleb128 0x2c
ARM GAS  C:\Users\salaz\AppData\Local\Temp\ccvE4Xni.s 			page 117


 4521 1e1c 72190000 		.4byte	0x1972
 4522 1e20 02000000 		.4byte	.LBB84
 4523 1e24 04000000 		.4byte	.LBE84-.LBB84
 4524 1e28 01       		.byte	0x1
 4525 1e29 4D       		.byte	0x4d
 4526 1e2a 381E0000 		.4byte	0x1e38
 4527 1e2e 2D       		.uleb128 0x2d
 4528 1e2f 83190000 		.4byte	0x1983
 4529 1e33 F8020000 		.4byte	.LLST30
 4530 1e37 00       		.byte	0
 4531 1e38 37       		.uleb128 0x37
 4532 1e39 0A000000 		.4byte	.LBB86
 4533 1e3d 38000000 		.4byte	.LBE86-.LBB86
 4534 1e41 711F0000 		.4byte	0x1f71
 4535 1e45 38       		.uleb128 0x38
 4536 1e46 A5280000 		.4byte	.LASF618
 4537 1e4a 01       		.byte	0x1
 4538 1e4b 53       		.byte	0x53
 4539 1e4c 970C0000 		.4byte	0xc97
 4540 1e50 38       		.uleb128 0x38
 4541 1e51 9E280000 		.4byte	.LASF619
 4542 1e55 01       		.byte	0x1
 4543 1e56 54       		.byte	0x54
 4544 1e57 970C0000 		.4byte	0xc97
 4545 1e5b 28       		.uleb128 0x28
 4546 1e5c 312A0000 		.4byte	.LASF620
 4547 1e60 01       		.byte	0x1
 4548 1e61 55       		.byte	0x55
 4549 1e62 970C0000 		.4byte	0xc97
 4550 1e66 10030000 		.4byte	.LLST31
 4551 1e6a 2C       		.uleb128 0x2c
 4552 1e6b 90190000 		.4byte	0x1990
 4553 1e6f 0A000000 		.4byte	.LBB87
 4554 1e73 08000000 		.4byte	.LBE87-.LBB87
 4555 1e77 01       		.byte	0x1
 4556 1e78 51       		.byte	0x51
 4557 1e79 901E0000 		.4byte	0x1e90
 4558 1e7d 2D       		.uleb128 0x2d
 4559 1e7e A9190000 		.4byte	0x19a9
 4560 1e82 23030000 		.4byte	.LLST32
 4561 1e86 2D       		.uleb128 0x2d
 4562 1e87 9D190000 		.4byte	0x199d
 4563 1e8b 37030000 		.4byte	.LLST33
 4564 1e8f 00       		.byte	0
 4565 1e90 2C       		.uleb128 0x2c
 4566 1e91 FB180000 		.4byte	0x18fb
 4567 1e95 12000000 		.4byte	.LBB89
 4568 1e99 02000000 		.4byte	.LBE89-.LBB89
 4569 1e9d 01       		.byte	0x1
 4570 1e9e 53       		.byte	0x53
 4571 1e9f C51E0000 		.4byte	0x1ec5
 4572 1ea3 2D       		.uleb128 0x2d
 4573 1ea4 18190000 		.4byte	0x1918
 4574 1ea8 4F030000 		.4byte	.LLST34
 4575 1eac 2D       		.uleb128 0x2d
 4576 1ead 0C190000 		.4byte	0x190c
 4577 1eb1 63030000 		.4byte	.LLST35
ARM GAS  C:\Users\salaz\AppData\Local\Temp\ccvE4Xni.s 			page 118


 4578 1eb5 31       		.uleb128 0x31
 4579 1eb6 12000000 		.4byte	.LBB90
 4580 1eba 02000000 		.4byte	.LBE90-.LBB90
 4581 1ebe 33       		.uleb128 0x33
 4582 1ebf 24190000 		.4byte	0x1924
 4583 1ec3 00       		.byte	0
 4584 1ec4 00       		.byte	0
 4585 1ec5 2C       		.uleb128 0x2c
 4586 1ec6 FB180000 		.4byte	0x18fb
 4587 1eca 14000000 		.4byte	.LBB91
 4588 1ece 06000000 		.4byte	.LBE91-.LBB91
 4589 1ed2 01       		.byte	0x1
 4590 1ed3 54       		.byte	0x54
 4591 1ed4 FA1E0000 		.4byte	0x1efa
 4592 1ed8 2D       		.uleb128 0x2d
 4593 1ed9 18190000 		.4byte	0x1918
 4594 1edd 7B030000 		.4byte	.LLST36
 4595 1ee1 2D       		.uleb128 0x2d
 4596 1ee2 0C190000 		.4byte	0x190c
 4597 1ee6 8F030000 		.4byte	.LLST37
 4598 1eea 31       		.uleb128 0x31
 4599 1eeb 14000000 		.4byte	.LBB92
 4600 1eef 06000000 		.4byte	.LBE92-.LBB92
 4601 1ef3 33       		.uleb128 0x33
 4602 1ef4 24190000 		.4byte	0x1924
 4603 1ef8 00       		.byte	0
 4604 1ef9 00       		.byte	0
 4605 1efa 2C       		.uleb128 0x2c
 4606 1efb D01A0000 		.4byte	0x1ad0
 4607 1eff 20000000 		.4byte	.LBB93
 4608 1f03 1C000000 		.4byte	.LBE93-.LBB93
 4609 1f07 01       		.byte	0x1
 4610 1f08 59       		.byte	0x59
 4611 1f09 601F0000 		.4byte	0x1f60
 4612 1f0d 2D       		.uleb128 0x2d
 4613 1f0e F51A0000 		.4byte	0x1af5
 4614 1f12 A7030000 		.4byte	.LLST38
 4615 1f16 2D       		.uleb128 0x2d
 4616 1f17 E91A0000 		.4byte	0x1ae9
 4617 1f1b BC030000 		.4byte	.LLST39
 4618 1f1f 2D       		.uleb128 0x2d
 4619 1f20 DD1A0000 		.4byte	0x1add
 4620 1f24 D0030000 		.4byte	.LLST40
 4621 1f28 31       		.uleb128 0x31
 4622 1f29 20000000 		.4byte	.LBB94
 4623 1f2d 1C000000 		.4byte	.LBE94-.LBB94
 4624 1f31 32       		.uleb128 0x32
 4625 1f32 011B0000 		.4byte	0x1b01
 4626 1f36 E8030000 		.4byte	.LLST41
 4627 1f3a 2E       		.uleb128 0x2e
 4628 1f3b 30000000 		.4byte	.LVL45
 4629 1f3f 1E240000 		.4byte	0x241e
 4630 1f43 4E1F0000 		.4byte	0x1f4e
 4631 1f47 2F       		.uleb128 0x2f
 4632 1f48 01       		.uleb128 0x1
 4633 1f49 50       		.byte	0x50
 4634 1f4a 02       		.uleb128 0x2
ARM GAS  C:\Users\salaz\AppData\Local\Temp\ccvE4Xni.s 			page 119


 4635 1f4b 08       		.byte	0x8
 4636 1f4c 3E       		.byte	0x3e
 4637 1f4d 00       		.byte	0
 4638 1f4e 30       		.uleb128 0x30
 4639 1f4f 3C000000 		.4byte	.LVL46
 4640 1f53 1E240000 		.4byte	0x241e
 4641 1f57 2F       		.uleb128 0x2f
 4642 1f58 01       		.uleb128 0x1
 4643 1f59 50       		.byte	0x50
 4644 1f5a 02       		.uleb128 0x2
 4645 1f5b 08       		.byte	0x8
 4646 1f5c 3E       		.byte	0x3e
 4647 1f5d 00       		.byte	0
 4648 1f5e 00       		.byte	0
 4649 1f5f 00       		.byte	0
 4650 1f60 30       		.uleb128 0x30
 4651 1f61 42000000 		.4byte	.LVL47
 4652 1f65 0E1B0000 		.4byte	0x1b0e
 4653 1f69 2F       		.uleb128 0x2f
 4654 1f6a 01       		.uleb128 0x1
 4655 1f6b 50       		.byte	0x50
 4656 1f6c 02       		.uleb128 0x2
 4657 1f6d 74       		.byte	0x74
 4658 1f6e 01       		.sleb128 1
 4659 1f6f 00       		.byte	0
 4660 1f70 00       		.byte	0
 4661 1f71 39       		.uleb128 0x39
 4662 1f72 BC190000 		.4byte	0x19bc
 4663 1f76 48000000 		.4byte	.LBB95
 4664 1f7a 14000000 		.4byte	.LBE95-.LBB95
 4665 1f7e 01       		.byte	0x1
 4666 1f7f 5E       		.byte	0x5e
 4667 1f80 2D       		.uleb128 0x2d
 4668 1f81 C9190000 		.4byte	0x19c9
 4669 1f85 FE030000 		.4byte	.LLST42
 4670 1f89 00       		.byte	0
 4671 1f8a 00       		.byte	0
 4672 1f8b 3A       		.uleb128 0x3a
 4673 1f8c 5E000000 		.4byte	.LASF659
 4674 1f90 01       		.byte	0x1
 4675 1f91 64       		.byte	0x64
 4676 1f92 1C0D0000 		.4byte	0xd1c
 4677 1f96 00000000 		.4byte	.LFB794
 4678 1f9a 4C010000 		.4byte	.LFE794-.LFB794
 4679 1f9e 01       		.uleb128 0x1
 4680 1f9f 9C       		.byte	0x9c
 4681 1fa0 08220000 		.4byte	0x2208
 4682 1fa4 3B       		.uleb128 0x3b
 4683 1fa5 696400   		.ascii	"id\000"
 4684 1fa8 01       		.byte	0x1
 4685 1fa9 64       		.byte	0x64
 4686 1faa 8B0C0000 		.4byte	0xc8b
 4687 1fae 11040000 		.4byte	.LLST43
 4688 1fb2 27       		.uleb128 0x27
 4689 1fb3 5E340000 		.4byte	.LASF621
 4690 1fb7 01       		.byte	0x1
 4691 1fb8 64       		.byte	0x64
ARM GAS  C:\Users\salaz\AppData\Local\Temp\ccvE4Xni.s 			page 120


 4692 1fb9 AF0C0000 		.4byte	0xcaf
 4693 1fbd 32040000 		.4byte	.LLST44
 4694 1fc1 28       		.uleb128 0x28
 4695 1fc2 94080000 		.4byte	.LASF622
 4696 1fc6 01       		.byte	0x1
 4697 1fc7 66       		.byte	0x66
 4698 1fc8 970C0000 		.4byte	0xc97
 4699 1fcc 5A040000 		.4byte	.LLST45
 4700 1fd0 28       		.uleb128 0x28
 4701 1fd1 1F160000 		.4byte	.LASF623
 4702 1fd5 01       		.byte	0x1
 4703 1fd6 67       		.byte	0x67
 4704 1fd7 A30C0000 		.4byte	0xca3
 4705 1fdb 8E040000 		.4byte	.LLST46
 4706 1fdf 38       		.uleb128 0x38
 4707 1fe0 B7250000 		.4byte	.LASF624
 4708 1fe4 01       		.byte	0x1
 4709 1fe5 93       		.byte	0x93
 4710 1fe6 970C0000 		.4byte	0xc97
 4711 1fea 29       		.uleb128 0x29
 4712 1feb AE250000 		.4byte	.LASF625
 4713 1fef 01       		.byte	0x1
 4714 1ff0 94       		.byte	0x94
 4715 1ff1 970C0000 		.4byte	0xc97
 4716 1ff5 01       		.uleb128 0x1
 4717 1ff6 56       		.byte	0x56
 4718 1ff7 38       		.uleb128 0x38
 4719 1ff8 9E280000 		.4byte	.LASF619
 4720 1ffc 01       		.byte	0x1
 4721 1ffd 95       		.byte	0x95
 4722 1ffe 970C0000 		.4byte	0xc97
 4723 2002 28       		.uleb128 0x28
 4724 2003 312A0000 		.4byte	.LASF620
 4725 2007 01       		.byte	0x1
 4726 2008 99       		.byte	0x99
 4727 2009 970C0000 		.4byte	0xc97
 4728 200d C4040000 		.4byte	.LLST47
 4729 2011 2A       		.uleb128 0x2a
 4730 2012 18000000 		.4byte	.Ldebug_ranges0+0x18
 4731 2016 28200000 		.4byte	0x2028
 4732 201a 2B       		.uleb128 0x2b
 4733 201b 6900     		.ascii	"i\000"
 4734 201d 01       		.byte	0x1
 4735 201e 6A       		.byte	0x6a
 4736 201f 8B0C0000 		.4byte	0xc8b
 4737 2023 F2040000 		.4byte	.LLST48
 4738 2027 00       		.byte	0
 4739 2028 2C       		.uleb128 0x2c
 4740 2029 D6190000 		.4byte	0x19d6
 4741 202d 88000000 		.4byte	.LBB113
 4742 2031 14000000 		.4byte	.LBE113-.LBB113
 4743 2035 01       		.byte	0x1
 4744 2036 7D       		.byte	0x7d
 4745 2037 7A200000 		.4byte	0x207a
 4746 203b 2D       		.uleb128 0x2d
 4747 203c FB190000 		.4byte	0x19fb
 4748 2040 1C050000 		.4byte	.LLST49
ARM GAS  C:\Users\salaz\AppData\Local\Temp\ccvE4Xni.s 			page 121


 4749 2044 2D       		.uleb128 0x2d
 4750 2045 EF190000 		.4byte	0x19ef
 4751 2049 31050000 		.4byte	.LLST50
 4752 204d 2D       		.uleb128 0x2d
 4753 204e E3190000 		.4byte	0x19e3
 4754 2052 45050000 		.4byte	.LLST51
 4755 2056 31       		.uleb128 0x31
 4756 2057 88000000 		.4byte	.LBB114
 4757 205b 14000000 		.4byte	.LBE114-.LBB114
 4758 205f 32       		.uleb128 0x32
 4759 2060 071A0000 		.4byte	0x1a07
 4760 2064 5D050000 		.4byte	.LLST52
 4761 2068 30       		.uleb128 0x30
 4762 2069 9A000000 		.4byte	.LVL63
 4763 206d 1E240000 		.4byte	0x241e
 4764 2071 2F       		.uleb128 0x2f
 4765 2072 01       		.uleb128 0x1
 4766 2073 50       		.byte	0x50
 4767 2074 02       		.uleb128 0x2
 4768 2075 08       		.byte	0x8
 4769 2076 3E       		.byte	0x3e
 4770 2077 00       		.byte	0
 4771 2078 00       		.byte	0
 4772 2079 00       		.byte	0
 4773 207a 37       		.uleb128 0x37
 4774 207b A4000000 		.4byte	.LBB115
 4775 207f 26000000 		.4byte	.LBE115-.LBB115
 4776 2083 95200000 		.4byte	0x2095
 4777 2087 2B       		.uleb128 0x2b
 4778 2088 6900     		.ascii	"i\000"
 4779 208a 01       		.byte	0x1
 4780 208b 83       		.byte	0x83
 4781 208c 8B0C0000 		.4byte	0xc8b
 4782 2090 73050000 		.4byte	.LLST53
 4783 2094 00       		.byte	0
 4784 2095 2C       		.uleb128 0x2c
 4785 2096 141A0000 		.4byte	0x1a14
 4786 209a D4000000 		.4byte	.LBB116
 4787 209e 10000000 		.4byte	.LBE116-.LBB116
 4788 20a2 01       		.byte	0x1
 4789 20a3 89       		.byte	0x89
 4790 20a4 E7200000 		.4byte	0x20e7
 4791 20a8 2D       		.uleb128 0x2d
 4792 20a9 391A0000 		.4byte	0x1a39
 4793 20ad 91050000 		.4byte	.LLST54
 4794 20b1 2D       		.uleb128 0x2d
 4795 20b2 2D1A0000 		.4byte	0x1a2d
 4796 20b6 A6050000 		.4byte	.LLST55
 4797 20ba 2D       		.uleb128 0x2d
 4798 20bb 211A0000 		.4byte	0x1a21
 4799 20bf BA050000 		.4byte	.LLST56
 4800 20c3 31       		.uleb128 0x31
 4801 20c4 D4000000 		.4byte	.LBB117
 4802 20c8 10000000 		.4byte	.LBE117-.LBB117
 4803 20cc 32       		.uleb128 0x32
 4804 20cd 451A0000 		.4byte	0x1a45
 4805 20d1 D2050000 		.4byte	.LLST57
ARM GAS  C:\Users\salaz\AppData\Local\Temp\ccvE4Xni.s 			page 122


 4806 20d5 30       		.uleb128 0x30
 4807 20d6 E4000000 		.4byte	.LVL71
 4808 20da 1E240000 		.4byte	0x241e
 4809 20de 2F       		.uleb128 0x2f
 4810 20df 01       		.uleb128 0x1
 4811 20e0 50       		.byte	0x50
 4812 20e1 02       		.uleb128 0x2
 4813 20e2 08       		.byte	0x8
 4814 20e3 3E       		.byte	0x3e
 4815 20e4 00       		.byte	0
 4816 20e5 00       		.byte	0
 4817 20e6 00       		.byte	0
 4818 20e7 2C       		.uleb128 0x2c
 4819 20e8 3C190000 		.4byte	0x193c
 4820 20ec E4000000 		.4byte	.LBB118
 4821 20f0 04000000 		.4byte	.LBE118-.LBB118
 4822 20f4 01       		.byte	0x1
 4823 20f5 93       		.byte	0x93
 4824 20f6 20210000 		.4byte	0x2120
 4825 20fa 2D       		.uleb128 0x2d
 4826 20fb 59190000 		.4byte	0x1959
 4827 20ff E8050000 		.4byte	.LLST58
 4828 2103 2D       		.uleb128 0x2d
 4829 2104 4D190000 		.4byte	0x194d
 4830 2108 FC050000 		.4byte	.LLST59
 4831 210c 31       		.uleb128 0x31
 4832 210d E4000000 		.4byte	.LBB119
 4833 2111 04000000 		.4byte	.LBE119-.LBB119
 4834 2115 32       		.uleb128 0x32
 4835 2116 65190000 		.4byte	0x1965
 4836 211a 14060000 		.4byte	.LLST60
 4837 211e 00       		.byte	0
 4838 211f 00       		.byte	0
 4839 2120 2C       		.uleb128 0x2c
 4840 2121 3C190000 		.4byte	0x193c
 4841 2125 E8000000 		.4byte	.LBB120
 4842 2129 06000000 		.4byte	.LBE120-.LBB120
 4843 212d 01       		.byte	0x1
 4844 212e 94       		.byte	0x94
 4845 212f 59210000 		.4byte	0x2159
 4846 2133 2D       		.uleb128 0x2d
 4847 2134 59190000 		.4byte	0x1959
 4848 2138 28060000 		.4byte	.LLST61
 4849 213c 2D       		.uleb128 0x2d
 4850 213d 4D190000 		.4byte	0x194d
 4851 2141 3C060000 		.4byte	.LLST62
 4852 2145 31       		.uleb128 0x31
 4853 2146 E8000000 		.4byte	.LBB121
 4854 214a 06000000 		.4byte	.LBE121-.LBB121
 4855 214e 32       		.uleb128 0x32
 4856 214f 65190000 		.4byte	0x1965
 4857 2153 28060000 		.4byte	.LLST61
 4858 2157 00       		.byte	0
 4859 2158 00       		.byte	0
 4860 2159 2C       		.uleb128 0x2c
 4861 215a FB180000 		.4byte	0x18fb
 4862 215e EE000000 		.4byte	.LBB122
ARM GAS  C:\Users\salaz\AppData\Local\Temp\ccvE4Xni.s 			page 123


 4863 2162 06000000 		.4byte	.LBE122-.LBB122
 4864 2166 01       		.byte	0x1
 4865 2167 95       		.byte	0x95
 4866 2168 8E210000 		.4byte	0x218e
 4867 216c 2D       		.uleb128 0x2d
 4868 216d 18190000 		.4byte	0x1918
 4869 2171 54060000 		.4byte	.LLST64
 4870 2175 2D       		.uleb128 0x2d
 4871 2176 0C190000 		.4byte	0x190c
 4872 217a 68060000 		.4byte	.LLST65
 4873 217e 31       		.uleb128 0x31
 4874 217f EE000000 		.4byte	.LBB123
 4875 2183 06000000 		.4byte	.LBE123-.LBB123
 4876 2187 33       		.uleb128 0x33
 4877 2188 24190000 		.4byte	0x1924
 4878 218c 00       		.byte	0
 4879 218d 00       		.byte	0
 4880 218e 2C       		.uleb128 0x2c
 4881 218f D01A0000 		.4byte	0x1ad0
 4882 2193 F4000000 		.4byte	.LBB124
 4883 2197 1E000000 		.4byte	.LBE124-.LBB124
 4884 219b 01       		.byte	0x1
 4885 219c 97       		.byte	0x97
 4886 219d F4210000 		.4byte	0x21f4
 4887 21a1 2D       		.uleb128 0x2d
 4888 21a2 F51A0000 		.4byte	0x1af5
 4889 21a6 80060000 		.4byte	.LLST66
 4890 21aa 2D       		.uleb128 0x2d
 4891 21ab E91A0000 		.4byte	0x1ae9
 4892 21af 95060000 		.4byte	.LLST67
 4893 21b3 2D       		.uleb128 0x2d
 4894 21b4 DD1A0000 		.4byte	0x1add
 4895 21b8 A9060000 		.4byte	.LLST68
 4896 21bc 31       		.uleb128 0x31
 4897 21bd F4000000 		.4byte	.LBB125
 4898 21c1 1E000000 		.4byte	.LBE125-.LBB125
 4899 21c5 32       		.uleb128 0x32
 4900 21c6 011B0000 		.4byte	0x1b01
 4901 21ca C1060000 		.4byte	.LLST69
 4902 21ce 2E       		.uleb128 0x2e
 4903 21cf 04010000 		.4byte	.LVL75
 4904 21d3 1E240000 		.4byte	0x241e
 4905 21d7 E2210000 		.4byte	0x21e2
 4906 21db 2F       		.uleb128 0x2f
 4907 21dc 01       		.uleb128 0x1
 4908 21dd 50       		.byte	0x50
 4909 21de 02       		.uleb128 0x2
 4910 21df 08       		.byte	0x8
 4911 21e0 3E       		.byte	0x3e
 4912 21e1 00       		.byte	0
 4913 21e2 30       		.uleb128 0x30
 4914 21e3 12010000 		.4byte	.LVL76
 4915 21e7 1E240000 		.4byte	0x241e
 4916 21eb 2F       		.uleb128 0x2f
 4917 21ec 01       		.uleb128 0x1
 4918 21ed 50       		.byte	0x50
 4919 21ee 02       		.uleb128 0x2
ARM GAS  C:\Users\salaz\AppData\Local\Temp\ccvE4Xni.s 			page 124


 4920 21ef 08       		.byte	0x8
 4921 21f0 3E       		.byte	0x3e
 4922 21f1 00       		.byte	0
 4923 21f2 00       		.byte	0
 4924 21f3 00       		.byte	0
 4925 21f4 30       		.uleb128 0x30
 4926 21f5 24010000 		.4byte	.LVL78
 4927 21f9 0E1B0000 		.4byte	0x1b0e
 4928 21fd 2F       		.uleb128 0x2f
 4929 21fe 01       		.uleb128 0x1
 4930 21ff 50       		.byte	0x50
 4931 2200 05       		.uleb128 0x5
 4932 2201 74       		.byte	0x74
 4933 2202 00       		.sleb128 0
 4934 2203 76       		.byte	0x76
 4935 2204 00       		.sleb128 0
 4936 2205 22       		.byte	0x22
 4937 2206 00       		.byte	0
 4938 2207 00       		.byte	0
 4939 2208 35       		.uleb128 0x35
 4940 2209 74330000 		.4byte	.LASF627
 4941 220d 01       		.byte	0x1
 4942 220e A1       		.byte	0xa1
 4943 220f 00000000 		.4byte	.LFB795
 4944 2213 5C000000 		.4byte	.LFE795-.LFB795
 4945 2217 01       		.uleb128 0x1
 4946 2218 9C       		.byte	0x9c
 4947 2219 CC220000 		.4byte	0x22cc
 4948 221d 28       		.uleb128 0x28
 4949 221e 48270000 		.4byte	.LASF628
 4950 2222 01       		.byte	0x1
 4951 2223 A3       		.byte	0xa3
 4952 2224 D70C0000 		.4byte	0xcd7
 4953 2228 D7060000 		.4byte	.LLST70
 4954 222c 37       		.uleb128 0x37
 4955 222d 0E000000 		.4byte	.LBB126
 4956 2231 38000000 		.4byte	.LBE126-.LBB126
 4957 2235 B8220000 		.4byte	0x22b8
 4958 2239 38       		.uleb128 0x38
 4959 223a B8280000 		.4byte	.LASF629
 4960 223e 01       		.byte	0x1
 4961 223f AA       		.byte	0xaa
 4962 2240 F60D0000 		.4byte	0xdf6
 4963 2244 2C       		.uleb128 0x2c
 4964 2245 BC190000 		.4byte	0x19bc
 4965 2249 14000000 		.4byte	.LBB127
 4966 224d 14000000 		.4byte	.LBE127-.LBB127
 4967 2251 01       		.byte	0x1
 4968 2252 A6       		.byte	0xa6
 4969 2253 61220000 		.4byte	0x2261
 4970 2257 2D       		.uleb128 0x2d
 4971 2258 C9190000 		.4byte	0x19c9
 4972 225c EA060000 		.4byte	.LLST71
 4973 2260 00       		.byte	0
 4974 2261 2C       		.uleb128 0x2c
 4975 2262 781A0000 		.4byte	0x1a78
 4976 2266 28000000 		.4byte	.LBB129
ARM GAS  C:\Users\salaz\AppData\Local\Temp\ccvE4Xni.s 			page 125


 4977 226a 12000000 		.4byte	.LBE129-.LBB129
 4978 226e 01       		.byte	0x1
 4979 226f A7       		.byte	0xa7
 4980 2270 7E220000 		.4byte	0x227e
 4981 2274 2D       		.uleb128 0x2d
 4982 2275 851A0000 		.4byte	0x1a85
 4983 2279 FD060000 		.4byte	.LLST72
 4984 227d 00       		.byte	0
 4985 227e 2C       		.uleb128 0x2c
 4986 227f 521A0000 		.4byte	0x1a52
 4987 2283 3A000000 		.4byte	.LBB131
 4988 2287 06000000 		.4byte	.LBE131-.LBB131
 4989 228b 01       		.byte	0x1
 4990 228c A8       		.byte	0xa8
 4991 228d A4220000 		.4byte	0x22a4
 4992 2291 2D       		.uleb128 0x2d
 4993 2292 6B1A0000 		.4byte	0x1a6b
 4994 2296 10070000 		.4byte	.LLST73
 4995 229a 2D       		.uleb128 0x2d
 4996 229b 5F1A0000 		.4byte	0x1a5f
 4997 229f 24070000 		.4byte	.LLST74
 4998 22a3 00       		.byte	0
 4999 22a4 30       		.uleb128 0x30
 5000 22a5 46000000 		.4byte	.LVL92
 5001 22a9 35240000 		.4byte	0x2435
 5002 22ad 2F       		.uleb128 0x2f
 5003 22ae 01       		.uleb128 0x1
 5004 22af 50       		.byte	0x50
 5005 22b0 05       		.uleb128 0x5
 5006 22b1 0C       		.byte	0xc
 5007 22b2 00022640 		.4byte	0x40260200
 5008 22b6 00       		.byte	0
 5009 22b7 00       		.byte	0
 5010 22b8 30       		.uleb128 0x30
 5011 22b9 0A000000 		.4byte	.LVL85
 5012 22bd 41240000 		.4byte	0x2441
 5013 22c1 2F       		.uleb128 0x2f
 5014 22c2 01       		.uleb128 0x1
 5015 22c3 51       		.byte	0x51
 5016 22c4 05       		.uleb128 0x5
 5017 22c5 03       		.byte	0x3
 5018 22c6 00000000 		.4byte	WatchDogHandler
 5019 22ca 00       		.byte	0
 5020 22cb 00       		.byte	0
 5021 22cc 0D       		.uleb128 0xd
 5022 22cd 12180000 		.4byte	0x1812
 5023 22d1 DC220000 		.4byte	0x22dc
 5024 22d5 0E       		.uleb128 0xe
 5025 22d6 24060000 		.4byte	0x624
 5026 22da 0B       		.byte	0xb
 5027 22db 00       		.byte	0
 5028 22dc 3C       		.uleb128 0x3c
 5029 22dd 56310000 		.4byte	.LASF630
 5030 22e1 11       		.byte	0x11
 5031 22e2 FC02     		.2byte	0x2fc
 5032 22e4 E8220000 		.4byte	0x22e8
 5033 22e8 10       		.uleb128 0x10
ARM GAS  C:\Users\salaz\AppData\Local\Temp\ccvE4Xni.s 			page 126


 5034 22e9 CC220000 		.4byte	0x22cc
 5035 22ed 3C       		.uleb128 0x3c
 5036 22ee 0F2F0000 		.4byte	.LASF631
 5037 22f2 10       		.byte	0x10
 5038 22f3 2202     		.2byte	0x222
 5039 22f5 6C180000 		.4byte	0x186c
 5040 22f9 0D       		.uleb128 0xd
 5041 22fa 3B180000 		.4byte	0x183b
 5042 22fe 09230000 		.4byte	0x2309
 5043 2302 0E       		.uleb128 0xe
 5044 2303 24060000 		.4byte	0x624
 5045 2307 00       		.byte	0
 5046 2308 00       		.byte	0
 5047 2309 3C       		.uleb128 0x3c
 5048 230a 680D0000 		.4byte	.LASF632
 5049 230e 10       		.byte	0x10
 5050 230f 2C02     		.2byte	0x22c
 5051 2311 F9220000 		.4byte	0x22f9
 5052 2315 0D       		.uleb128 0xd
 5053 2316 B4180000 		.4byte	0x18b4
 5054 231a 25230000 		.4byte	0x2325
 5055 231e 0E       		.uleb128 0xe
 5056 231f 24060000 		.4byte	0x624
 5057 2323 00       		.byte	0
 5058 2324 00       		.byte	0
 5059 2325 3C       		.uleb128 0x3c
 5060 2326 BE2D0000 		.4byte	.LASF633
 5061 232a 10       		.byte	0x10
 5062 232b 2D02     		.2byte	0x22d
 5063 232d 15230000 		.4byte	0x2315
 5064 2331 3C       		.uleb128 0x3c
 5065 2332 93090000 		.4byte	.LASF634
 5066 2336 10       		.byte	0x10
 5067 2337 5202     		.2byte	0x252
 5068 2339 4B050000 		.4byte	0x54b
 5069 233d 3D       		.uleb128 0x3d
 5070 233e 19100000 		.4byte	.LASF635
 5071 2342 12       		.byte	0x12
 5072 2343 1C       		.byte	0x1c
 5073 2344 BF180000 		.4byte	0x18bf
 5074 2348 3D       		.uleb128 0x3d
 5075 2349 81090000 		.4byte	.LASF636
 5076 234d 13       		.byte	0x13
 5077 234e 86       		.byte	0x86
 5078 234f 53230000 		.4byte	0x2353
 5079 2353 10       		.uleb128 0x10
 5080 2354 FD130000 		.4byte	0x13fd
 5081 2358 3D       		.uleb128 0x3d
 5082 2359 C6220000 		.4byte	.LASF637
 5083 235d 13       		.byte	0x13
 5084 235e 87       		.byte	0x87
 5085 235f CD140000 		.4byte	0x14cd
 5086 2363 3D       		.uleb128 0x3d
 5087 2364 1C320000 		.4byte	.LASF638
 5088 2368 14       		.byte	0x14
 5089 2369 22       		.byte	0x22
 5090 236a 6E230000 		.4byte	0x236e
ARM GAS  C:\Users\salaz\AppData\Local\Temp\ccvE4Xni.s 			page 127


 5091 236e 10       		.uleb128 0x10
 5092 236f A40D0000 		.4byte	0xda4
 5093 2373 3D       		.uleb128 0x3d
 5094 2374 44310000 		.4byte	.LASF639
 5095 2378 15       		.byte	0x15
 5096 2379 7F       		.byte	0x7f
 5097 237a D0110000 		.4byte	0x11d0
 5098 237e 3D       		.uleb128 0x3d
 5099 237f 62360000 		.4byte	.LASF640
 5100 2383 16       		.byte	0x16
 5101 2384 1F       		.byte	0x1f
 5102 2385 89230000 		.4byte	0x2389
 5103 2389 10       		.uleb128 0x10
 5104 238a 37100000 		.4byte	0x1037
 5105 238e 3D       		.uleb128 0x3d
 5106 238f 2A100000 		.4byte	.LASF641
 5107 2393 17       		.byte	0x17
 5108 2394 1F       		.byte	0x1f
 5109 2395 89230000 		.4byte	0x2389
 5110 2399 3D       		.uleb128 0x3d
 5111 239a 200A0000 		.4byte	.LASF642
 5112 239e 18       		.byte	0x18
 5113 239f 1F       		.byte	0x1f
 5114 23a0 A4230000 		.4byte	0x23a4
 5115 23a4 10       		.uleb128 0x10
 5116 23a5 F30E0000 		.4byte	0xef3
 5117 23a9 3D       		.uleb128 0x3d
 5118 23aa 5F230000 		.4byte	.LASF643
 5119 23ae 19       		.byte	0x19
 5120 23af 1F       		.byte	0x1f
 5121 23b0 89230000 		.4byte	0x2389
 5122 23b4 3D       		.uleb128 0x3d
 5123 23b5 550D0000 		.4byte	.LASF644
 5124 23b9 1A       		.byte	0x1a
 5125 23ba 1F       		.byte	0x1f
 5126 23bb 89230000 		.4byte	0x2389
 5127 23bf 3D       		.uleb128 0x3d
 5128 23c0 07270000 		.4byte	.LASF645
 5129 23c4 1B       		.byte	0x1b
 5130 23c5 1F       		.byte	0x1f
 5131 23c6 A4230000 		.4byte	0x23a4
 5132 23ca 3D       		.uleb128 0x3d
 5133 23cb 78050000 		.4byte	.LASF646
 5134 23cf 1C       		.byte	0x1c
 5135 23d0 1F       		.byte	0x1f
 5136 23d1 89230000 		.4byte	0x2389
 5137 23d5 3D       		.uleb128 0x3d
 5138 23d6 F40E0000 		.4byte	.LASF647
 5139 23da 1D       		.byte	0x1d
 5140 23db 1F       		.byte	0x1f
 5141 23dc A4230000 		.4byte	0x23a4
 5142 23e0 3E       		.uleb128 0x3e
 5143 23e1 2D130000 		.4byte	.LASF648
 5144 23e5 01       		.byte	0x1
 5145 23e6 13       		.byte	0x13
 5146 23e7 8B0C0000 		.4byte	0xc8b
 5147 23eb 05       		.uleb128 0x5
ARM GAS  C:\Users\salaz\AppData\Local\Temp\ccvE4Xni.s 			page 128


 5148 23ec 03       		.byte	0x3
 5149 23ed 00000000 		.4byte	num_timers
 5150 23f1 0D       		.uleb128 0xd
 5151 23f2 F0180000 		.4byte	0x18f0
 5152 23f6 01240000 		.4byte	0x2401
 5153 23fa 0E       		.uleb128 0xe
 5154 23fb 24060000 		.4byte	0x624
 5155 23ff 13       		.byte	0x13
 5156 2400 00       		.byte	0
 5157 2401 3E       		.uleb128 0x3e
 5158 2402 D5240000 		.4byte	.LASF649
 5159 2406 01       		.byte	0x1
 5160 2407 14       		.byte	0x14
 5161 2408 F1230000 		.4byte	0x23f1
 5162 240c 05       		.uleb128 0x5
 5163 240d 03       		.byte	0x3
 5164 240e 00000000 		.4byte	timers
 5165 2412 3F       		.uleb128 0x3f
 5166 2413 FF320000 		.4byte	.LASF650
 5167 2417 FF320000 		.4byte	.LASF650
 5168 241b 08       		.byte	0x8
 5169 241c 2A03     		.2byte	0x32a
 5170 241e 3F       		.uleb128 0x3f
 5171 241f 9F2A0000 		.4byte	.LASF651
 5172 2423 9F2A0000 		.4byte	.LASF651
 5173 2427 08       		.byte	0x8
 5174 2428 2203     		.2byte	0x322
 5175 242a 40       		.uleb128 0x40
 5176 242b 69220000 		.4byte	.LASF652
 5177 242f 69220000 		.4byte	.LASF652
 5178 2433 1E       		.byte	0x1e
 5179 2434 0D       		.byte	0xd
 5180 2435 3F       		.uleb128 0x3f
 5181 2436 EF120000 		.4byte	.LASF653
 5182 243a EF120000 		.4byte	.LASF653
 5183 243e 02       		.byte	0x2
 5184 243f 3201     		.2byte	0x132
 5185 2441 3F       		.uleb128 0x3f
 5186 2442 4F340000 		.4byte	.LASF654
 5187 2446 4F340000 		.4byte	.LASF654
 5188 244a 09       		.byte	0x9
 5189 244b 1B01     		.2byte	0x11b
 5190 244d 00       		.byte	0
 5191              		.section	.debug_abbrev,"",%progbits
 5192              	.Ldebug_abbrev0:
 5193 0000 01       		.uleb128 0x1
 5194 0001 11       		.uleb128 0x11
 5195 0002 01       		.byte	0x1
 5196 0003 25       		.uleb128 0x25
 5197 0004 0E       		.uleb128 0xe
 5198 0005 13       		.uleb128 0x13
 5199 0006 0B       		.uleb128 0xb
 5200 0007 03       		.uleb128 0x3
 5201 0008 0E       		.uleb128 0xe
 5202 0009 1B       		.uleb128 0x1b
 5203 000a 0E       		.uleb128 0xe
 5204 000b 55       		.uleb128 0x55
ARM GAS  C:\Users\salaz\AppData\Local\Temp\ccvE4Xni.s 			page 129


 5205 000c 17       		.uleb128 0x17
 5206 000d 11       		.uleb128 0x11
 5207 000e 01       		.uleb128 0x1
 5208 000f 10       		.uleb128 0x10
 5209 0010 17       		.uleb128 0x17
 5210 0011 00       		.byte	0
 5211 0012 00       		.byte	0
 5212 0013 02       		.uleb128 0x2
 5213 0014 24       		.uleb128 0x24
 5214 0015 00       		.byte	0
 5215 0016 0B       		.uleb128 0xb
 5216 0017 0B       		.uleb128 0xb
 5217 0018 3E       		.uleb128 0x3e
 5218 0019 0B       		.uleb128 0xb
 5219 001a 03       		.uleb128 0x3
 5220 001b 0E       		.uleb128 0xe
 5221 001c 00       		.byte	0
 5222 001d 00       		.byte	0
 5223 001e 03       		.uleb128 0x3
 5224 001f 04       		.uleb128 0x4
 5225 0020 01       		.byte	0x1
 5226 0021 0B       		.uleb128 0xb
 5227 0022 0B       		.uleb128 0xb
 5228 0023 49       		.uleb128 0x49
 5229 0024 13       		.uleb128 0x13
 5230 0025 3A       		.uleb128 0x3a
 5231 0026 0B       		.uleb128 0xb
 5232 0027 3B       		.uleb128 0x3b
 5233 0028 0B       		.uleb128 0xb
 5234 0029 01       		.uleb128 0x1
 5235 002a 13       		.uleb128 0x13
 5236 002b 00       		.byte	0
 5237 002c 00       		.byte	0
 5238 002d 04       		.uleb128 0x4
 5239 002e 28       		.uleb128 0x28
 5240 002f 00       		.byte	0
 5241 0030 03       		.uleb128 0x3
 5242 0031 0E       		.uleb128 0xe
 5243 0032 1C       		.uleb128 0x1c
 5244 0033 0D       		.uleb128 0xd
 5245 0034 00       		.byte	0
 5246 0035 00       		.byte	0
 5247 0036 05       		.uleb128 0x5
 5248 0037 28       		.uleb128 0x28
 5249 0038 00       		.byte	0
 5250 0039 03       		.uleb128 0x3
 5251 003a 0E       		.uleb128 0xe
 5252 003b 1C       		.uleb128 0x1c
 5253 003c 0B       		.uleb128 0xb
 5254 003d 00       		.byte	0
 5255 003e 00       		.byte	0
 5256 003f 06       		.uleb128 0x6
 5257 0040 16       		.uleb128 0x16
 5258 0041 00       		.byte	0
 5259 0042 03       		.uleb128 0x3
 5260 0043 0E       		.uleb128 0xe
 5261 0044 3A       		.uleb128 0x3a
ARM GAS  C:\Users\salaz\AppData\Local\Temp\ccvE4Xni.s 			page 130


 5262 0045 0B       		.uleb128 0xb
 5263 0046 3B       		.uleb128 0x3b
 5264 0047 0B       		.uleb128 0xb
 5265 0048 49       		.uleb128 0x49
 5266 0049 13       		.uleb128 0x13
 5267 004a 00       		.byte	0
 5268 004b 00       		.byte	0
 5269 004c 07       		.uleb128 0x7
 5270 004d 16       		.uleb128 0x16
 5271 004e 00       		.byte	0
 5272 004f 03       		.uleb128 0x3
 5273 0050 0E       		.uleb128 0xe
 5274 0051 3A       		.uleb128 0x3a
 5275 0052 0B       		.uleb128 0xb
 5276 0053 3B       		.uleb128 0x3b
 5277 0054 05       		.uleb128 0x5
 5278 0055 49       		.uleb128 0x49
 5279 0056 13       		.uleb128 0x13
 5280 0057 00       		.byte	0
 5281 0058 00       		.byte	0
 5282 0059 08       		.uleb128 0x8
 5283 005a 24       		.uleb128 0x24
 5284 005b 00       		.byte	0
 5285 005c 0B       		.uleb128 0xb
 5286 005d 0B       		.uleb128 0xb
 5287 005e 3E       		.uleb128 0x3e
 5288 005f 0B       		.uleb128 0xb
 5289 0060 03       		.uleb128 0x3
 5290 0061 08       		.uleb128 0x8
 5291 0062 00       		.byte	0
 5292 0063 00       		.byte	0
 5293 0064 09       		.uleb128 0x9
 5294 0065 13       		.uleb128 0x13
 5295 0066 01       		.byte	0x1
 5296 0067 0B       		.uleb128 0xb
 5297 0068 05       		.uleb128 0x5
 5298 0069 3A       		.uleb128 0x3a
 5299 006a 0B       		.uleb128 0xb
 5300 006b 3B       		.uleb128 0x3b
 5301 006c 05       		.uleb128 0x5
 5302 006d 01       		.uleb128 0x1
 5303 006e 13       		.uleb128 0x13
 5304 006f 00       		.byte	0
 5305 0070 00       		.byte	0
 5306 0071 0A       		.uleb128 0xa
 5307 0072 0D       		.uleb128 0xd
 5308 0073 00       		.byte	0
 5309 0074 03       		.uleb128 0x3
 5310 0075 0E       		.uleb128 0xe
 5311 0076 3A       		.uleb128 0x3a
 5312 0077 0B       		.uleb128 0xb
 5313 0078 3B       		.uleb128 0x3b
 5314 0079 05       		.uleb128 0x5
 5315 007a 49       		.uleb128 0x49
 5316 007b 13       		.uleb128 0x13
 5317 007c 38       		.uleb128 0x38
 5318 007d 0B       		.uleb128 0xb
ARM GAS  C:\Users\salaz\AppData\Local\Temp\ccvE4Xni.s 			page 131


 5319 007e 00       		.byte	0
 5320 007f 00       		.byte	0
 5321 0080 0B       		.uleb128 0xb
 5322 0081 0D       		.uleb128 0xd
 5323 0082 00       		.byte	0
 5324 0083 03       		.uleb128 0x3
 5325 0084 0E       		.uleb128 0xe
 5326 0085 3A       		.uleb128 0x3a
 5327 0086 0B       		.uleb128 0xb
 5328 0087 3B       		.uleb128 0x3b
 5329 0088 05       		.uleb128 0x5
 5330 0089 49       		.uleb128 0x49
 5331 008a 13       		.uleb128 0x13
 5332 008b 38       		.uleb128 0x38
 5333 008c 05       		.uleb128 0x5
 5334 008d 00       		.byte	0
 5335 008e 00       		.byte	0
 5336 008f 0C       		.uleb128 0xc
 5337 0090 0D       		.uleb128 0xd
 5338 0091 00       		.byte	0
 5339 0092 03       		.uleb128 0x3
 5340 0093 08       		.uleb128 0x8
 5341 0094 3A       		.uleb128 0x3a
 5342 0095 0B       		.uleb128 0xb
 5343 0096 3B       		.uleb128 0x3b
 5344 0097 05       		.uleb128 0x5
 5345 0098 49       		.uleb128 0x49
 5346 0099 13       		.uleb128 0x13
 5347 009a 38       		.uleb128 0x38
 5348 009b 05       		.uleb128 0x5
 5349 009c 00       		.byte	0
 5350 009d 00       		.byte	0
 5351 009e 0D       		.uleb128 0xd
 5352 009f 01       		.uleb128 0x1
 5353 00a0 01       		.byte	0x1
 5354 00a1 49       		.uleb128 0x49
 5355 00a2 13       		.uleb128 0x13
 5356 00a3 01       		.uleb128 0x1
 5357 00a4 13       		.uleb128 0x13
 5358 00a5 00       		.byte	0
 5359 00a6 00       		.byte	0
 5360 00a7 0E       		.uleb128 0xe
 5361 00a8 21       		.uleb128 0x21
 5362 00a9 00       		.byte	0
 5363 00aa 49       		.uleb128 0x49
 5364 00ab 13       		.uleb128 0x13
 5365 00ac 2F       		.uleb128 0x2f
 5366 00ad 0B       		.uleb128 0xb
 5367 00ae 00       		.byte	0
 5368 00af 00       		.byte	0
 5369 00b0 0F       		.uleb128 0xf
 5370 00b1 35       		.uleb128 0x35
 5371 00b2 00       		.byte	0
 5372 00b3 49       		.uleb128 0x49
 5373 00b4 13       		.uleb128 0x13
 5374 00b5 00       		.byte	0
 5375 00b6 00       		.byte	0
ARM GAS  C:\Users\salaz\AppData\Local\Temp\ccvE4Xni.s 			page 132


 5376 00b7 10       		.uleb128 0x10
 5377 00b8 26       		.uleb128 0x26
 5378 00b9 00       		.byte	0
 5379 00ba 49       		.uleb128 0x49
 5380 00bb 13       		.uleb128 0x13
 5381 00bc 00       		.byte	0
 5382 00bd 00       		.byte	0
 5383 00be 11       		.uleb128 0x11
 5384 00bf 13       		.uleb128 0x13
 5385 00c0 01       		.byte	0x1
 5386 00c1 0B       		.uleb128 0xb
 5387 00c2 0B       		.uleb128 0xb
 5388 00c3 3A       		.uleb128 0x3a
 5389 00c4 0B       		.uleb128 0xb
 5390 00c5 3B       		.uleb128 0x3b
 5391 00c6 0B       		.uleb128 0xb
 5392 00c7 01       		.uleb128 0x1
 5393 00c8 13       		.uleb128 0x13
 5394 00c9 00       		.byte	0
 5395 00ca 00       		.byte	0
 5396 00cb 12       		.uleb128 0x12
 5397 00cc 0D       		.uleb128 0xd
 5398 00cd 00       		.byte	0
 5399 00ce 03       		.uleb128 0x3
 5400 00cf 0E       		.uleb128 0xe
 5401 00d0 3A       		.uleb128 0x3a
 5402 00d1 0B       		.uleb128 0xb
 5403 00d2 3B       		.uleb128 0x3b
 5404 00d3 0B       		.uleb128 0xb
 5405 00d4 49       		.uleb128 0x49
 5406 00d5 13       		.uleb128 0x13
 5407 00d6 38       		.uleb128 0x38
 5408 00d7 0B       		.uleb128 0xb
 5409 00d8 00       		.byte	0
 5410 00d9 00       		.byte	0
 5411 00da 13       		.uleb128 0x13
 5412 00db 13       		.uleb128 0x13
 5413 00dc 01       		.byte	0x1
 5414 00dd 0B       		.uleb128 0xb
 5415 00de 05       		.uleb128 0x5
 5416 00df 3A       		.uleb128 0x3a
 5417 00e0 0B       		.uleb128 0xb
 5418 00e1 3B       		.uleb128 0x3b
 5419 00e2 0B       		.uleb128 0xb
 5420 00e3 01       		.uleb128 0x1
 5421 00e4 13       		.uleb128 0x13
 5422 00e5 00       		.byte	0
 5423 00e6 00       		.byte	0
 5424 00e7 14       		.uleb128 0x14
 5425 00e8 0D       		.uleb128 0xd
 5426 00e9 00       		.byte	0
 5427 00ea 03       		.uleb128 0x3
 5428 00eb 0E       		.uleb128 0xe
 5429 00ec 3A       		.uleb128 0x3a
 5430 00ed 0B       		.uleb128 0xb
 5431 00ee 3B       		.uleb128 0x3b
 5432 00ef 0B       		.uleb128 0xb
ARM GAS  C:\Users\salaz\AppData\Local\Temp\ccvE4Xni.s 			page 133


 5433 00f0 49       		.uleb128 0x49
 5434 00f1 13       		.uleb128 0x13
 5435 00f2 38       		.uleb128 0x38
 5436 00f3 05       		.uleb128 0x5
 5437 00f4 00       		.byte	0
 5438 00f5 00       		.byte	0
 5439 00f6 15       		.uleb128 0x15
 5440 00f7 21       		.uleb128 0x21
 5441 00f8 00       		.byte	0
 5442 00f9 49       		.uleb128 0x49
 5443 00fa 13       		.uleb128 0x13
 5444 00fb 2F       		.uleb128 0x2f
 5445 00fc 05       		.uleb128 0x5
 5446 00fd 00       		.byte	0
 5447 00fe 00       		.byte	0
 5448 00ff 16       		.uleb128 0x16
 5449 0100 28       		.uleb128 0x28
 5450 0101 00       		.byte	0
 5451 0102 03       		.uleb128 0x3
 5452 0103 0E       		.uleb128 0xe
 5453 0104 1C       		.uleb128 0x1c
 5454 0105 06       		.uleb128 0x6
 5455 0106 00       		.byte	0
 5456 0107 00       		.byte	0
 5457 0108 17       		.uleb128 0x17
 5458 0109 0F       		.uleb128 0xf
 5459 010a 00       		.byte	0
 5460 010b 0B       		.uleb128 0xb
 5461 010c 0B       		.uleb128 0xb
 5462 010d 00       		.byte	0
 5463 010e 00       		.byte	0
 5464 010f 18       		.uleb128 0x18
 5465 0110 04       		.uleb128 0x4
 5466 0111 01       		.byte	0x1
 5467 0112 0B       		.uleb128 0xb
 5468 0113 0B       		.uleb128 0xb
 5469 0114 49       		.uleb128 0x49
 5470 0115 13       		.uleb128 0x13
 5471 0116 3A       		.uleb128 0x3a
 5472 0117 0B       		.uleb128 0xb
 5473 0118 3B       		.uleb128 0x3b
 5474 0119 05       		.uleb128 0x5
 5475 011a 01       		.uleb128 0x1
 5476 011b 13       		.uleb128 0x13
 5477 011c 00       		.byte	0
 5478 011d 00       		.byte	0
 5479 011e 19       		.uleb128 0x19
 5480 011f 13       		.uleb128 0x13
 5481 0120 01       		.byte	0x1
 5482 0121 03       		.uleb128 0x3
 5483 0122 0E       		.uleb128 0xe
 5484 0123 0B       		.uleb128 0xb
 5485 0124 0B       		.uleb128 0xb
 5486 0125 3A       		.uleb128 0x3a
 5487 0126 0B       		.uleb128 0xb
 5488 0127 3B       		.uleb128 0x3b
 5489 0128 0B       		.uleb128 0xb
ARM GAS  C:\Users\salaz\AppData\Local\Temp\ccvE4Xni.s 			page 134


 5490 0129 01       		.uleb128 0x1
 5491 012a 13       		.uleb128 0x13
 5492 012b 00       		.byte	0
 5493 012c 00       		.byte	0
 5494 012d 1A       		.uleb128 0x1a
 5495 012e 0F       		.uleb128 0xf
 5496 012f 00       		.byte	0
 5497 0130 0B       		.uleb128 0xb
 5498 0131 0B       		.uleb128 0xb
 5499 0132 49       		.uleb128 0x49
 5500 0133 13       		.uleb128 0x13
 5501 0134 00       		.byte	0
 5502 0135 00       		.byte	0
 5503 0136 1B       		.uleb128 0x1b
 5504 0137 15       		.uleb128 0x15
 5505 0138 01       		.byte	0x1
 5506 0139 27       		.uleb128 0x27
 5507 013a 19       		.uleb128 0x19
 5508 013b 01       		.uleb128 0x1
 5509 013c 13       		.uleb128 0x13
 5510 013d 00       		.byte	0
 5511 013e 00       		.byte	0
 5512 013f 1C       		.uleb128 0x1c
 5513 0140 05       		.uleb128 0x5
 5514 0141 00       		.byte	0
 5515 0142 49       		.uleb128 0x49
 5516 0143 13       		.uleb128 0x13
 5517 0144 00       		.byte	0
 5518 0145 00       		.byte	0
 5519 0146 1D       		.uleb128 0x1d
 5520 0147 15       		.uleb128 0x15
 5521 0148 01       		.byte	0x1
 5522 0149 27       		.uleb128 0x27
 5523 014a 19       		.uleb128 0x19
 5524 014b 49       		.uleb128 0x49
 5525 014c 13       		.uleb128 0x13
 5526 014d 01       		.uleb128 0x1
 5527 014e 13       		.uleb128 0x13
 5528 014f 00       		.byte	0
 5529 0150 00       		.byte	0
 5530 0151 1E       		.uleb128 0x1e
 5531 0152 13       		.uleb128 0x13
 5532 0153 01       		.byte	0x1
 5533 0154 03       		.uleb128 0x3
 5534 0155 0E       		.uleb128 0xe
 5535 0156 0B       		.uleb128 0xb
 5536 0157 0B       		.uleb128 0xb
 5537 0158 3A       		.uleb128 0x3a
 5538 0159 0B       		.uleb128 0xb
 5539 015a 3B       		.uleb128 0x3b
 5540 015b 05       		.uleb128 0x5
 5541 015c 01       		.uleb128 0x1
 5542 015d 13       		.uleb128 0x13
 5543 015e 00       		.byte	0
 5544 015f 00       		.byte	0
 5545 0160 1F       		.uleb128 0x1f
 5546 0161 28       		.uleb128 0x28
ARM GAS  C:\Users\salaz\AppData\Local\Temp\ccvE4Xni.s 			page 135


 5547 0162 00       		.byte	0
 5548 0163 03       		.uleb128 0x3
 5549 0164 0E       		.uleb128 0xe
 5550 0165 1C       		.uleb128 0x1c
 5551 0166 05       		.uleb128 0x5
 5552 0167 00       		.byte	0
 5553 0168 00       		.byte	0
 5554 0169 20       		.uleb128 0x20
 5555 016a 13       		.uleb128 0x13
 5556 016b 01       		.byte	0x1
 5557 016c 0B       		.uleb128 0xb
 5558 016d 0B       		.uleb128 0xb
 5559 016e 3A       		.uleb128 0x3a
 5560 016f 0B       		.uleb128 0xb
 5561 0170 3B       		.uleb128 0x3b
 5562 0171 05       		.uleb128 0x5
 5563 0172 01       		.uleb128 0x1
 5564 0173 13       		.uleb128 0x13
 5565 0174 00       		.byte	0
 5566 0175 00       		.byte	0
 5567 0176 21       		.uleb128 0x21
 5568 0177 0D       		.uleb128 0xd
 5569 0178 00       		.byte	0
 5570 0179 03       		.uleb128 0x3
 5571 017a 08       		.uleb128 0x8
 5572 017b 3A       		.uleb128 0x3a
 5573 017c 0B       		.uleb128 0xb
 5574 017d 3B       		.uleb128 0x3b
 5575 017e 0B       		.uleb128 0xb
 5576 017f 49       		.uleb128 0x49
 5577 0180 13       		.uleb128 0x13
 5578 0181 38       		.uleb128 0x38
 5579 0182 0B       		.uleb128 0xb
 5580 0183 00       		.byte	0
 5581 0184 00       		.byte	0
 5582 0185 22       		.uleb128 0x22
 5583 0186 2E       		.uleb128 0x2e
 5584 0187 01       		.byte	0x1
 5585 0188 03       		.uleb128 0x3
 5586 0189 0E       		.uleb128 0xe
 5587 018a 3A       		.uleb128 0x3a
 5588 018b 0B       		.uleb128 0xb
 5589 018c 3B       		.uleb128 0x3b
 5590 018d 05       		.uleb128 0x5
 5591 018e 27       		.uleb128 0x27
 5592 018f 19       		.uleb128 0x19
 5593 0190 49       		.uleb128 0x49
 5594 0191 13       		.uleb128 0x13
 5595 0192 20       		.uleb128 0x20
 5596 0193 0B       		.uleb128 0xb
 5597 0194 01       		.uleb128 0x1
 5598 0195 13       		.uleb128 0x13
 5599 0196 00       		.byte	0
 5600 0197 00       		.byte	0
 5601 0198 23       		.uleb128 0x23
 5602 0199 05       		.uleb128 0x5
 5603 019a 00       		.byte	0
ARM GAS  C:\Users\salaz\AppData\Local\Temp\ccvE4Xni.s 			page 136


 5604 019b 03       		.uleb128 0x3
 5605 019c 0E       		.uleb128 0xe
 5606 019d 3A       		.uleb128 0x3a
 5607 019e 0B       		.uleb128 0xb
 5608 019f 3B       		.uleb128 0x3b
 5609 01a0 05       		.uleb128 0x5
 5610 01a1 49       		.uleb128 0x49
 5611 01a2 13       		.uleb128 0x13
 5612 01a3 00       		.byte	0
 5613 01a4 00       		.byte	0
 5614 01a5 24       		.uleb128 0x24
 5615 01a6 34       		.uleb128 0x34
 5616 01a7 00       		.byte	0
 5617 01a8 03       		.uleb128 0x3
 5618 01a9 0E       		.uleb128 0xe
 5619 01aa 3A       		.uleb128 0x3a
 5620 01ab 0B       		.uleb128 0xb
 5621 01ac 3B       		.uleb128 0x3b
 5622 01ad 05       		.uleb128 0x5
 5623 01ae 49       		.uleb128 0x49
 5624 01af 13       		.uleb128 0x13
 5625 01b0 00       		.byte	0
 5626 01b1 00       		.byte	0
 5627 01b2 25       		.uleb128 0x25
 5628 01b3 2E       		.uleb128 0x2e
 5629 01b4 01       		.byte	0x1
 5630 01b5 03       		.uleb128 0x3
 5631 01b6 0E       		.uleb128 0xe
 5632 01b7 3A       		.uleb128 0x3a
 5633 01b8 0B       		.uleb128 0xb
 5634 01b9 3B       		.uleb128 0x3b
 5635 01ba 05       		.uleb128 0x5
 5636 01bb 27       		.uleb128 0x27
 5637 01bc 19       		.uleb128 0x19
 5638 01bd 20       		.uleb128 0x20
 5639 01be 0B       		.uleb128 0xb
 5640 01bf 01       		.uleb128 0x1
 5641 01c0 13       		.uleb128 0x13
 5642 01c1 00       		.byte	0
 5643 01c2 00       		.byte	0
 5644 01c3 26       		.uleb128 0x26
 5645 01c4 2E       		.uleb128 0x2e
 5646 01c5 01       		.byte	0x1
 5647 01c6 03       		.uleb128 0x3
 5648 01c7 0E       		.uleb128 0xe
 5649 01c8 3A       		.uleb128 0x3a
 5650 01c9 0B       		.uleb128 0xb
 5651 01ca 3B       		.uleb128 0x3b
 5652 01cb 0B       		.uleb128 0xb
 5653 01cc 27       		.uleb128 0x27
 5654 01cd 19       		.uleb128 0x19
 5655 01ce 11       		.uleb128 0x11
 5656 01cf 01       		.uleb128 0x1
 5657 01d0 12       		.uleb128 0x12
 5658 01d1 06       		.uleb128 0x6
 5659 01d2 40       		.uleb128 0x40
 5660 01d3 18       		.uleb128 0x18
ARM GAS  C:\Users\salaz\AppData\Local\Temp\ccvE4Xni.s 			page 137


 5661 01d4 9642     		.uleb128 0x2116
 5662 01d6 19       		.uleb128 0x19
 5663 01d7 01       		.uleb128 0x1
 5664 01d8 13       		.uleb128 0x13
 5665 01d9 00       		.byte	0
 5666 01da 00       		.byte	0
 5667 01db 27       		.uleb128 0x27
 5668 01dc 05       		.uleb128 0x5
 5669 01dd 00       		.byte	0
 5670 01de 03       		.uleb128 0x3
 5671 01df 0E       		.uleb128 0xe
 5672 01e0 3A       		.uleb128 0x3a
 5673 01e1 0B       		.uleb128 0xb
 5674 01e2 3B       		.uleb128 0x3b
 5675 01e3 0B       		.uleb128 0xb
 5676 01e4 49       		.uleb128 0x49
 5677 01e5 13       		.uleb128 0x13
 5678 01e6 02       		.uleb128 0x2
 5679 01e7 17       		.uleb128 0x17
 5680 01e8 00       		.byte	0
 5681 01e9 00       		.byte	0
 5682 01ea 28       		.uleb128 0x28
 5683 01eb 34       		.uleb128 0x34
 5684 01ec 00       		.byte	0
 5685 01ed 03       		.uleb128 0x3
 5686 01ee 0E       		.uleb128 0xe
 5687 01ef 3A       		.uleb128 0x3a
 5688 01f0 0B       		.uleb128 0xb
 5689 01f1 3B       		.uleb128 0x3b
 5690 01f2 0B       		.uleb128 0xb
 5691 01f3 49       		.uleb128 0x49
 5692 01f4 13       		.uleb128 0x13
 5693 01f5 02       		.uleb128 0x2
 5694 01f6 17       		.uleb128 0x17
 5695 01f7 00       		.byte	0
 5696 01f8 00       		.byte	0
 5697 01f9 29       		.uleb128 0x29
 5698 01fa 34       		.uleb128 0x34
 5699 01fb 00       		.byte	0
 5700 01fc 03       		.uleb128 0x3
 5701 01fd 0E       		.uleb128 0xe
 5702 01fe 3A       		.uleb128 0x3a
 5703 01ff 0B       		.uleb128 0xb
 5704 0200 3B       		.uleb128 0x3b
 5705 0201 0B       		.uleb128 0xb
 5706 0202 49       		.uleb128 0x49
 5707 0203 13       		.uleb128 0x13
 5708 0204 02       		.uleb128 0x2
 5709 0205 18       		.uleb128 0x18
 5710 0206 00       		.byte	0
 5711 0207 00       		.byte	0
 5712 0208 2A       		.uleb128 0x2a
 5713 0209 0B       		.uleb128 0xb
 5714 020a 01       		.byte	0x1
 5715 020b 55       		.uleb128 0x55
 5716 020c 17       		.uleb128 0x17
 5717 020d 01       		.uleb128 0x1
ARM GAS  C:\Users\salaz\AppData\Local\Temp\ccvE4Xni.s 			page 138


 5718 020e 13       		.uleb128 0x13
 5719 020f 00       		.byte	0
 5720 0210 00       		.byte	0
 5721 0211 2B       		.uleb128 0x2b
 5722 0212 34       		.uleb128 0x34
 5723 0213 00       		.byte	0
 5724 0214 03       		.uleb128 0x3
 5725 0215 08       		.uleb128 0x8
 5726 0216 3A       		.uleb128 0x3a
 5727 0217 0B       		.uleb128 0xb
 5728 0218 3B       		.uleb128 0x3b
 5729 0219 0B       		.uleb128 0xb
 5730 021a 49       		.uleb128 0x49
 5731 021b 13       		.uleb128 0x13
 5732 021c 02       		.uleb128 0x2
 5733 021d 17       		.uleb128 0x17
 5734 021e 00       		.byte	0
 5735 021f 00       		.byte	0
 5736 0220 2C       		.uleb128 0x2c
 5737 0221 1D       		.uleb128 0x1d
 5738 0222 01       		.byte	0x1
 5739 0223 31       		.uleb128 0x31
 5740 0224 13       		.uleb128 0x13
 5741 0225 11       		.uleb128 0x11
 5742 0226 01       		.uleb128 0x1
 5743 0227 12       		.uleb128 0x12
 5744 0228 06       		.uleb128 0x6
 5745 0229 58       		.uleb128 0x58
 5746 022a 0B       		.uleb128 0xb
 5747 022b 59       		.uleb128 0x59
 5748 022c 0B       		.uleb128 0xb
 5749 022d 01       		.uleb128 0x1
 5750 022e 13       		.uleb128 0x13
 5751 022f 00       		.byte	0
 5752 0230 00       		.byte	0
 5753 0231 2D       		.uleb128 0x2d
 5754 0232 05       		.uleb128 0x5
 5755 0233 00       		.byte	0
 5756 0234 31       		.uleb128 0x31
 5757 0235 13       		.uleb128 0x13
 5758 0236 02       		.uleb128 0x2
 5759 0237 17       		.uleb128 0x17
 5760 0238 00       		.byte	0
 5761 0239 00       		.byte	0
 5762 023a 2E       		.uleb128 0x2e
 5763 023b 898201   		.uleb128 0x4109
 5764 023e 01       		.byte	0x1
 5765 023f 11       		.uleb128 0x11
 5766 0240 01       		.uleb128 0x1
 5767 0241 31       		.uleb128 0x31
 5768 0242 13       		.uleb128 0x13
 5769 0243 01       		.uleb128 0x1
 5770 0244 13       		.uleb128 0x13
 5771 0245 00       		.byte	0
 5772 0246 00       		.byte	0
 5773 0247 2F       		.uleb128 0x2f
 5774 0248 8A8201   		.uleb128 0x410a
ARM GAS  C:\Users\salaz\AppData\Local\Temp\ccvE4Xni.s 			page 139


 5775 024b 00       		.byte	0
 5776 024c 02       		.uleb128 0x2
 5777 024d 18       		.uleb128 0x18
 5778 024e 9142     		.uleb128 0x2111
 5779 0250 18       		.uleb128 0x18
 5780 0251 00       		.byte	0
 5781 0252 00       		.byte	0
 5782 0253 30       		.uleb128 0x30
 5783 0254 898201   		.uleb128 0x4109
 5784 0257 01       		.byte	0x1
 5785 0258 11       		.uleb128 0x11
 5786 0259 01       		.uleb128 0x1
 5787 025a 31       		.uleb128 0x31
 5788 025b 13       		.uleb128 0x13
 5789 025c 00       		.byte	0
 5790 025d 00       		.byte	0
 5791 025e 31       		.uleb128 0x31
 5792 025f 0B       		.uleb128 0xb
 5793 0260 01       		.byte	0x1
 5794 0261 11       		.uleb128 0x11
 5795 0262 01       		.uleb128 0x1
 5796 0263 12       		.uleb128 0x12
 5797 0264 06       		.uleb128 0x6
 5798 0265 00       		.byte	0
 5799 0266 00       		.byte	0
 5800 0267 32       		.uleb128 0x32
 5801 0268 34       		.uleb128 0x34
 5802 0269 00       		.byte	0
 5803 026a 31       		.uleb128 0x31
 5804 026b 13       		.uleb128 0x13
 5805 026c 02       		.uleb128 0x2
 5806 026d 17       		.uleb128 0x17
 5807 026e 00       		.byte	0
 5808 026f 00       		.byte	0
 5809 0270 33       		.uleb128 0x33
 5810 0271 34       		.uleb128 0x34
 5811 0272 00       		.byte	0
 5812 0273 31       		.uleb128 0x31
 5813 0274 13       		.uleb128 0x13
 5814 0275 00       		.byte	0
 5815 0276 00       		.byte	0
 5816 0277 34       		.uleb128 0x34
 5817 0278 898201   		.uleb128 0x4109
 5818 027b 00       		.byte	0
 5819 027c 11       		.uleb128 0x11
 5820 027d 01       		.uleb128 0x1
 5821 027e 31       		.uleb128 0x31
 5822 027f 13       		.uleb128 0x13
 5823 0280 00       		.byte	0
 5824 0281 00       		.byte	0
 5825 0282 35       		.uleb128 0x35
 5826 0283 2E       		.uleb128 0x2e
 5827 0284 01       		.byte	0x1
 5828 0285 3F       		.uleb128 0x3f
 5829 0286 19       		.uleb128 0x19
 5830 0287 03       		.uleb128 0x3
 5831 0288 0E       		.uleb128 0xe
ARM GAS  C:\Users\salaz\AppData\Local\Temp\ccvE4Xni.s 			page 140


 5832 0289 3A       		.uleb128 0x3a
 5833 028a 0B       		.uleb128 0xb
 5834 028b 3B       		.uleb128 0x3b
 5835 028c 0B       		.uleb128 0xb
 5836 028d 11       		.uleb128 0x11
 5837 028e 01       		.uleb128 0x1
 5838 028f 12       		.uleb128 0x12
 5839 0290 06       		.uleb128 0x6
 5840 0291 40       		.uleb128 0x40
 5841 0292 18       		.uleb128 0x18
 5842 0293 9742     		.uleb128 0x2117
 5843 0295 19       		.uleb128 0x19
 5844 0296 01       		.uleb128 0x1
 5845 0297 13       		.uleb128 0x13
 5846 0298 00       		.byte	0
 5847 0299 00       		.byte	0
 5848 029a 36       		.uleb128 0x36
 5849 029b 34       		.uleb128 0x34
 5850 029c 00       		.byte	0
 5851 029d 03       		.uleb128 0x3
 5852 029e 08       		.uleb128 0x8
 5853 029f 3A       		.uleb128 0x3a
 5854 02a0 0B       		.uleb128 0xb
 5855 02a1 3B       		.uleb128 0x3b
 5856 02a2 0B       		.uleb128 0xb
 5857 02a3 49       		.uleb128 0x49
 5858 02a4 13       		.uleb128 0x13
 5859 02a5 00       		.byte	0
 5860 02a6 00       		.byte	0
 5861 02a7 37       		.uleb128 0x37
 5862 02a8 0B       		.uleb128 0xb
 5863 02a9 01       		.byte	0x1
 5864 02aa 11       		.uleb128 0x11
 5865 02ab 01       		.uleb128 0x1
 5866 02ac 12       		.uleb128 0x12
 5867 02ad 06       		.uleb128 0x6
 5868 02ae 01       		.uleb128 0x1
 5869 02af 13       		.uleb128 0x13
 5870 02b0 00       		.byte	0
 5871 02b1 00       		.byte	0
 5872 02b2 38       		.uleb128 0x38
 5873 02b3 34       		.uleb128 0x34
 5874 02b4 00       		.byte	0
 5875 02b5 03       		.uleb128 0x3
 5876 02b6 0E       		.uleb128 0xe
 5877 02b7 3A       		.uleb128 0x3a
 5878 02b8 0B       		.uleb128 0xb
 5879 02b9 3B       		.uleb128 0x3b
 5880 02ba 0B       		.uleb128 0xb
 5881 02bb 49       		.uleb128 0x49
 5882 02bc 13       		.uleb128 0x13
 5883 02bd 00       		.byte	0
 5884 02be 00       		.byte	0
 5885 02bf 39       		.uleb128 0x39
 5886 02c0 1D       		.uleb128 0x1d
 5887 02c1 01       		.byte	0x1
 5888 02c2 31       		.uleb128 0x31
ARM GAS  C:\Users\salaz\AppData\Local\Temp\ccvE4Xni.s 			page 141


 5889 02c3 13       		.uleb128 0x13
 5890 02c4 11       		.uleb128 0x11
 5891 02c5 01       		.uleb128 0x1
 5892 02c6 12       		.uleb128 0x12
 5893 02c7 06       		.uleb128 0x6
 5894 02c8 58       		.uleb128 0x58
 5895 02c9 0B       		.uleb128 0xb
 5896 02ca 59       		.uleb128 0x59
 5897 02cb 0B       		.uleb128 0xb
 5898 02cc 00       		.byte	0
 5899 02cd 00       		.byte	0
 5900 02ce 3A       		.uleb128 0x3a
 5901 02cf 2E       		.uleb128 0x2e
 5902 02d0 01       		.byte	0x1
 5903 02d1 3F       		.uleb128 0x3f
 5904 02d2 19       		.uleb128 0x19
 5905 02d3 03       		.uleb128 0x3
 5906 02d4 0E       		.uleb128 0xe
 5907 02d5 3A       		.uleb128 0x3a
 5908 02d6 0B       		.uleb128 0xb
 5909 02d7 3B       		.uleb128 0x3b
 5910 02d8 0B       		.uleb128 0xb
 5911 02d9 27       		.uleb128 0x27
 5912 02da 19       		.uleb128 0x19
 5913 02db 49       		.uleb128 0x49
 5914 02dc 13       		.uleb128 0x13
 5915 02dd 11       		.uleb128 0x11
 5916 02de 01       		.uleb128 0x1
 5917 02df 12       		.uleb128 0x12
 5918 02e0 06       		.uleb128 0x6
 5919 02e1 40       		.uleb128 0x40
 5920 02e2 18       		.uleb128 0x18
 5921 02e3 9642     		.uleb128 0x2116
 5922 02e5 19       		.uleb128 0x19
 5923 02e6 01       		.uleb128 0x1
 5924 02e7 13       		.uleb128 0x13
 5925 02e8 00       		.byte	0
 5926 02e9 00       		.byte	0
 5927 02ea 3B       		.uleb128 0x3b
 5928 02eb 05       		.uleb128 0x5
 5929 02ec 00       		.byte	0
 5930 02ed 03       		.uleb128 0x3
 5931 02ee 08       		.uleb128 0x8
 5932 02ef 3A       		.uleb128 0x3a
 5933 02f0 0B       		.uleb128 0xb
 5934 02f1 3B       		.uleb128 0x3b
 5935 02f2 0B       		.uleb128 0xb
 5936 02f3 49       		.uleb128 0x49
 5937 02f4 13       		.uleb128 0x13
 5938 02f5 02       		.uleb128 0x2
 5939 02f6 17       		.uleb128 0x17
 5940 02f7 00       		.byte	0
 5941 02f8 00       		.byte	0
 5942 02f9 3C       		.uleb128 0x3c
 5943 02fa 34       		.uleb128 0x34
 5944 02fb 00       		.byte	0
 5945 02fc 03       		.uleb128 0x3
ARM GAS  C:\Users\salaz\AppData\Local\Temp\ccvE4Xni.s 			page 142


 5946 02fd 0E       		.uleb128 0xe
 5947 02fe 3A       		.uleb128 0x3a
 5948 02ff 0B       		.uleb128 0xb
 5949 0300 3B       		.uleb128 0x3b
 5950 0301 05       		.uleb128 0x5
 5951 0302 49       		.uleb128 0x49
 5952 0303 13       		.uleb128 0x13
 5953 0304 3F       		.uleb128 0x3f
 5954 0305 19       		.uleb128 0x19
 5955 0306 3C       		.uleb128 0x3c
 5956 0307 19       		.uleb128 0x19
 5957 0308 00       		.byte	0
 5958 0309 00       		.byte	0
 5959 030a 3D       		.uleb128 0x3d
 5960 030b 34       		.uleb128 0x34
 5961 030c 00       		.byte	0
 5962 030d 03       		.uleb128 0x3
 5963 030e 0E       		.uleb128 0xe
 5964 030f 3A       		.uleb128 0x3a
 5965 0310 0B       		.uleb128 0xb
 5966 0311 3B       		.uleb128 0x3b
 5967 0312 0B       		.uleb128 0xb
 5968 0313 49       		.uleb128 0x49
 5969 0314 13       		.uleb128 0x13
 5970 0315 3F       		.uleb128 0x3f
 5971 0316 19       		.uleb128 0x19
 5972 0317 3C       		.uleb128 0x3c
 5973 0318 19       		.uleb128 0x19
 5974 0319 00       		.byte	0
 5975 031a 00       		.byte	0
 5976 031b 3E       		.uleb128 0x3e
 5977 031c 34       		.uleb128 0x34
 5978 031d 00       		.byte	0
 5979 031e 03       		.uleb128 0x3
 5980 031f 0E       		.uleb128 0xe
 5981 0320 3A       		.uleb128 0x3a
 5982 0321 0B       		.uleb128 0xb
 5983 0322 3B       		.uleb128 0x3b
 5984 0323 0B       		.uleb128 0xb
 5985 0324 49       		.uleb128 0x49
 5986 0325 13       		.uleb128 0x13
 5987 0326 3F       		.uleb128 0x3f
 5988 0327 19       		.uleb128 0x19
 5989 0328 02       		.uleb128 0x2
 5990 0329 18       		.uleb128 0x18
 5991 032a 00       		.byte	0
 5992 032b 00       		.byte	0
 5993 032c 3F       		.uleb128 0x3f
 5994 032d 2E       		.uleb128 0x2e
 5995 032e 00       		.byte	0
 5996 032f 3F       		.uleb128 0x3f
 5997 0330 19       		.uleb128 0x19
 5998 0331 3C       		.uleb128 0x3c
 5999 0332 19       		.uleb128 0x19
 6000 0333 6E       		.uleb128 0x6e
 6001 0334 0E       		.uleb128 0xe
 6002 0335 03       		.uleb128 0x3
ARM GAS  C:\Users\salaz\AppData\Local\Temp\ccvE4Xni.s 			page 143


 6003 0336 0E       		.uleb128 0xe
 6004 0337 3A       		.uleb128 0x3a
 6005 0338 0B       		.uleb128 0xb
 6006 0339 3B       		.uleb128 0x3b
 6007 033a 05       		.uleb128 0x5
 6008 033b 00       		.byte	0
 6009 033c 00       		.byte	0
 6010 033d 40       		.uleb128 0x40
 6011 033e 2E       		.uleb128 0x2e
 6012 033f 00       		.byte	0
 6013 0340 3F       		.uleb128 0x3f
 6014 0341 19       		.uleb128 0x19
 6015 0342 3C       		.uleb128 0x3c
 6016 0343 19       		.uleb128 0x19
 6017 0344 6E       		.uleb128 0x6e
 6018 0345 0E       		.uleb128 0xe
 6019 0346 03       		.uleb128 0x3
 6020 0347 0E       		.uleb128 0xe
 6021 0348 3A       		.uleb128 0x3a
 6022 0349 0B       		.uleb128 0xb
 6023 034a 3B       		.uleb128 0x3b
 6024 034b 0B       		.uleb128 0xb
 6025 034c 00       		.byte	0
 6026 034d 00       		.byte	0
 6027 034e 00       		.byte	0
 6028              		.section	.debug_loc,"",%progbits
 6029              	.Ldebug_loc0:
 6030              	.LLST0:
 6031 0000 00000000 		.4byte	.LVL0
 6032 0004 A4000000 		.4byte	.LVL11
 6033 0008 0100     		.2byte	0x1
 6034 000a 50       		.byte	0x50
 6035 000b A4000000 		.4byte	.LVL11
 6036 000f DE000000 		.4byte	.LVL18
 6037 0013 0400     		.2byte	0x4
 6038 0015 F3       		.byte	0xf3
 6039 0016 01       		.uleb128 0x1
 6040 0017 50       		.byte	0x50
 6041 0018 9F       		.byte	0x9f
 6042 0019 DE000000 		.4byte	.LVL18
 6043 001d F0000000 		.4byte	.LVL19
 6044 0021 0100     		.2byte	0x1
 6045 0023 50       		.byte	0x50
 6046 0024 F0000000 		.4byte	.LVL19
 6047 0028 A8010000 		.4byte	.LFE792
 6048 002c 0400     		.2byte	0x4
 6049 002e F3       		.byte	0xf3
 6050 002f 01       		.uleb128 0x1
 6051 0030 50       		.byte	0x50
 6052 0031 9F       		.byte	0x9f
 6053 0032 00000000 		.4byte	0
 6054 0036 00000000 		.4byte	0
 6055              	.LLST1:
 6056 003a 04000000 		.4byte	.LVL1
 6057 003e 0C000000 		.4byte	.LVL2
 6058 0042 0200     		.2byte	0x2
 6059 0044 30       		.byte	0x30
ARM GAS  C:\Users\salaz\AppData\Local\Temp\ccvE4Xni.s 			page 144


 6060 0045 9F       		.byte	0x9f
 6061 0046 0C000000 		.4byte	.LVL2
 6062 004a 32000000 		.4byte	.LVL3
 6063 004e 0100     		.2byte	0x1
 6064 0050 55       		.byte	0x55
 6065 0051 32000000 		.4byte	.LVL3
 6066 0055 3C000000 		.4byte	.LVL4
 6067 0059 0100     		.2byte	0x1
 6068 005b 56       		.byte	0x56
 6069 005c 3C000000 		.4byte	.LVL4
 6070 0060 84010000 		.4byte	.LVL37
 6071 0064 0100     		.2byte	0x1
 6072 0066 55       		.byte	0x55
 6073 0067 00000000 		.4byte	0
 6074 006b 00000000 		.4byte	0
 6075              	.LLST2:
 6076 006f 04000000 		.4byte	.LVL1
 6077 0073 0C000000 		.4byte	.LVL2
 6078 0077 0200     		.2byte	0x2
 6079 0079 30       		.byte	0x30
 6080 007a 9F       		.byte	0x9f
 6081 007b 0C000000 		.4byte	.LVL2
 6082 007f AA000000 		.4byte	.LVL13
 6083 0083 0100     		.2byte	0x1
 6084 0085 54       		.byte	0x54
 6085 0086 DE000000 		.4byte	.LVL18
 6086 008a F8000000 		.4byte	.LVL21
 6087 008e 0100     		.2byte	0x1
 6088 0090 54       		.byte	0x54
 6089 0091 00000000 		.4byte	0
 6090 0095 00000000 		.4byte	0
 6091              	.LLST3:
 6092 0099 04000000 		.4byte	.LVL1
 6093 009d 0C000000 		.4byte	.LVL2
 6094 00a1 0200     		.2byte	0x2
 6095 00a3 30       		.byte	0x30
 6096 00a4 9F       		.byte	0x9f
 6097 00a5 0C000000 		.4byte	.LVL2
 6098 00a9 68000000 		.4byte	.LVL7
 6099 00ad 0100     		.2byte	0x1
 6100 00af 53       		.byte	0x53
 6101 00b0 6A000000 		.4byte	.LVL8
 6102 00b4 78000000 		.4byte	.LVL9
 6103 00b8 0100     		.2byte	0x1
 6104 00ba 53       		.byte	0x53
 6105 00bb 00000000 		.4byte	0
 6106 00bf 00000000 		.4byte	0
 6107              	.LLST4:
 6108 00c3 84000000 		.4byte	.LVL10
 6109 00c7 BE000000 		.4byte	.LVL15
 6110 00cb 0300     		.2byte	0x3
 6111 00cd 08       		.byte	0x8
 6112 00ce 3E       		.byte	0x3e
 6113 00cf 9F       		.byte	0x9f
 6114 00d0 00000000 		.4byte	0
 6115 00d4 00000000 		.4byte	0
 6116              	.LLST5:
ARM GAS  C:\Users\salaz\AppData\Local\Temp\ccvE4Xni.s 			page 145


 6117 00d8 84000000 		.4byte	.LVL10
 6118 00dc B2000000 		.4byte	.LVL14
 6119 00e0 0100     		.2byte	0x1
 6120 00e2 56       		.byte	0x56
 6121 00e3 00000000 		.4byte	0
 6122 00e7 00000000 		.4byte	0
 6123              	.LLST6:
 6124 00eb 84000000 		.4byte	.LVL10
 6125 00ef BE000000 		.4byte	.LVL15
 6126 00f3 0200     		.2byte	0x2
 6127 00f5 30       		.byte	0x30
 6128 00f6 9F       		.byte	0x9f
 6129 00f7 00000000 		.4byte	0
 6130 00fb 00000000 		.4byte	0
 6131              	.LLST7:
 6132 00ff 84000000 		.4byte	.LVL10
 6133 0103 BE000000 		.4byte	.LVL15
 6134 0107 0600     		.2byte	0x6
 6135 0109 0C       		.byte	0xc
 6136 010a 00022640 		.4byte	0x40260200
 6137 010e 9F       		.byte	0x9f
 6138 010f 00000000 		.4byte	0
 6139 0113 00000000 		.4byte	0
 6140              	.LLST8:
 6141 0117 BE000000 		.4byte	.LVL15
 6142 011b DE000000 		.4byte	.LVL18
 6143 011f 0300     		.2byte	0x3
 6144 0121 08       		.byte	0x8
 6145 0122 3E       		.byte	0x3e
 6146 0123 9F       		.byte	0x9f
 6147 0124 00000000 		.4byte	0
 6148 0128 00000000 		.4byte	0
 6149              	.LLST9:
 6150 012c BE000000 		.4byte	.LVL15
 6151 0130 DE000000 		.4byte	.LVL18
 6152 0134 0200     		.2byte	0x2
 6153 0136 30       		.byte	0x30
 6154 0137 9F       		.byte	0x9f
 6155 0138 00000000 		.4byte	0
 6156 013c 00000000 		.4byte	0
 6157              	.LLST10:
 6158 0140 BE000000 		.4byte	.LVL15
 6159 0144 DE000000 		.4byte	.LVL18
 6160 0148 0200     		.2byte	0x2
 6161 014a 31       		.byte	0x31
 6162 014b 9F       		.byte	0x9f
 6163 014c 00000000 		.4byte	0
 6164 0150 00000000 		.4byte	0
 6165              	.LLST11:
 6166 0154 BE000000 		.4byte	.LVL15
 6167 0158 DE000000 		.4byte	.LVL18
 6168 015c 0600     		.2byte	0x6
 6169 015e 0C       		.byte	0xc
 6170 015f 00022640 		.4byte	0x40260200
 6171 0163 9F       		.byte	0x9f
 6172 0164 00000000 		.4byte	0
 6173 0168 00000000 		.4byte	0
ARM GAS  C:\Users\salaz\AppData\Local\Temp\ccvE4Xni.s 			page 146


 6174              	.LLST12:
 6175 016c DE000000 		.4byte	.LVL18
 6176 0170 F4000000 		.4byte	.LVL20
 6177 0174 0300     		.2byte	0x3
 6178 0176 08       		.byte	0x8
 6179 0177 3E       		.byte	0x3e
 6180 0178 9F       		.byte	0x9f
 6181 0179 00000000 		.4byte	0
 6182 017d 00000000 		.4byte	0
 6183              	.LLST13:
 6184 0181 DE000000 		.4byte	.LVL18
 6185 0185 F4000000 		.4byte	.LVL20
 6186 0189 0400     		.2byte	0x4
 6187 018b 0A       		.byte	0xa
 6188 018c FFFF     		.2byte	0xffff
 6189 018e 9F       		.byte	0x9f
 6190 018f 00000000 		.4byte	0
 6191 0193 00000000 		.4byte	0
 6192              	.LLST14:
 6193 0197 DE000000 		.4byte	.LVL18
 6194 019b F4000000 		.4byte	.LVL20
 6195 019f 0200     		.2byte	0x2
 6196 01a1 30       		.byte	0x30
 6197 01a2 9F       		.byte	0x9f
 6198 01a3 00000000 		.4byte	0
 6199 01a7 00000000 		.4byte	0
 6200              	.LLST15:
 6201 01ab DE000000 		.4byte	.LVL18
 6202 01af F4000000 		.4byte	.LVL20
 6203 01b3 0600     		.2byte	0x6
 6204 01b5 0C       		.byte	0xc
 6205 01b6 00022640 		.4byte	0x40260200
 6206 01ba 9F       		.byte	0x9f
 6207 01bb 00000000 		.4byte	0
 6208 01bf 00000000 		.4byte	0
 6209              	.LLST16:
 6210 01c3 08010000 		.4byte	.LVL23
 6211 01c7 40010000 		.4byte	.LVL26
 6212 01cb 0300     		.2byte	0x3
 6213 01cd 08       		.byte	0x8
 6214 01ce 3E       		.byte	0x3e
 6215 01cf 9F       		.byte	0x9f
 6216 01d0 00000000 		.4byte	0
 6217 01d4 00000000 		.4byte	0
 6218              	.LLST17:
 6219 01d8 08010000 		.4byte	.LVL23
 6220 01dc 36010000 		.4byte	.LVL25
 6221 01e0 0100     		.2byte	0x1
 6222 01e2 54       		.byte	0x54
 6223 01e3 00000000 		.4byte	0
 6224 01e7 00000000 		.4byte	0
 6225              	.LLST18:
 6226 01eb 08010000 		.4byte	.LVL23
 6227 01ef 40010000 		.4byte	.LVL26
 6228 01f3 0200     		.2byte	0x2
 6229 01f5 31       		.byte	0x31
 6230 01f6 9F       		.byte	0x9f
ARM GAS  C:\Users\salaz\AppData\Local\Temp\ccvE4Xni.s 			page 147


 6231 01f7 00000000 		.4byte	0
 6232 01fb 00000000 		.4byte	0
 6233              	.LLST19:
 6234 01ff 08010000 		.4byte	.LVL23
 6235 0203 40010000 		.4byte	.LVL26
 6236 0207 0600     		.2byte	0x6
 6237 0209 0C       		.byte	0xc
 6238 020a 00022640 		.4byte	0x40260200
 6239 020e 9F       		.byte	0x9f
 6240 020f 00000000 		.4byte	0
 6241 0213 00000000 		.4byte	0
 6242              	.LLST20:
 6243 0217 40010000 		.4byte	.LVL26
 6244 021b 44010000 		.4byte	.LVL27
 6245 021f 0200     		.2byte	0x2
 6246 0221 31       		.byte	0x31
 6247 0222 9F       		.byte	0x9f
 6248 0223 00000000 		.4byte	0
 6249 0227 00000000 		.4byte	0
 6250              	.LLST21:
 6251 022b 40010000 		.4byte	.LVL26
 6252 022f 44010000 		.4byte	.LVL27
 6253 0233 0600     		.2byte	0x6
 6254 0235 0C       		.byte	0xc
 6255 0236 00022640 		.4byte	0x40260200
 6256 023a 9F       		.byte	0x9f
 6257 023b 00000000 		.4byte	0
 6258 023f 00000000 		.4byte	0
 6259              	.LLST22:
 6260 0243 40010000 		.4byte	.LVL26
 6261 0247 44010000 		.4byte	.LVL27
 6262 024b 0200     		.2byte	0x2
 6263 024d 30       		.byte	0x30
 6264 024e 9F       		.byte	0x9f
 6265 024f 00000000 		.4byte	0
 6266 0253 00000000 		.4byte	0
 6267              	.LLST23:
 6268 0257 44010000 		.4byte	.LVL27
 6269 025b 46010000 		.4byte	.LVL28
 6270 025f 0200     		.2byte	0x2
 6271 0261 31       		.byte	0x31
 6272 0262 9F       		.byte	0x9f
 6273 0263 00000000 		.4byte	0
 6274 0267 00000000 		.4byte	0
 6275              	.LLST24:
 6276 026b 44010000 		.4byte	.LVL27
 6277 026f 46010000 		.4byte	.LVL28
 6278 0273 0600     		.2byte	0x6
 6279 0275 0C       		.byte	0xc
 6280 0276 00022640 		.4byte	0x40260200
 6281 027a 9F       		.byte	0x9f
 6282 027b 00000000 		.4byte	0
 6283 027f 00000000 		.4byte	0
 6284              	.LLST25:
 6285 0283 4E010000 		.4byte	.LVL29
 6286 0287 6A010000 		.4byte	.LVL31
 6287 028b 0300     		.2byte	0x3
ARM GAS  C:\Users\salaz\AppData\Local\Temp\ccvE4Xni.s 			page 148


 6288 028d 08       		.byte	0x8
 6289 028e 3E       		.byte	0x3e
 6290 028f 9F       		.byte	0x9f
 6291 0290 00000000 		.4byte	0
 6292 0294 00000000 		.4byte	0
 6293              	.LLST26:
 6294 0298 4E010000 		.4byte	.LVL29
 6295 029c 6A010000 		.4byte	.LVL31
 6296 02a0 0200     		.2byte	0x2
 6297 02a2 33       		.byte	0x33
 6298 02a3 9F       		.byte	0x9f
 6299 02a4 00000000 		.4byte	0
 6300 02a8 00000000 		.4byte	0
 6301              	.LLST27:
 6302 02ac 4E010000 		.4byte	.LVL29
 6303 02b0 6A010000 		.4byte	.LVL31
 6304 02b4 0600     		.2byte	0x6
 6305 02b6 0C       		.byte	0xc
 6306 02b7 00022640 		.4byte	0x40260200
 6307 02bb 9F       		.byte	0x9f
 6308 02bc 00000000 		.4byte	0
 6309 02c0 00000000 		.4byte	0
 6310              	.LLST28:
 6311 02c4 4E010000 		.4byte	.LVL29
 6312 02c8 6A010000 		.4byte	.LVL31
 6313 02cc 0400     		.2byte	0x4
 6314 02ce 0A       		.byte	0xa
 6315 02cf 0808     		.2byte	0x808
 6316 02d1 9F       		.byte	0x9f
 6317 02d2 00000000 		.4byte	0
 6318 02d6 00000000 		.4byte	0
 6319              	.LLST29:
 6320 02da 6E010000 		.4byte	.LVL32
 6321 02de 7C010000 		.4byte	.LVL34
 6322 02e2 0100     		.2byte	0x1
 6323 02e4 54       		.byte	0x54
 6324 02e5 7E010000 		.4byte	.LVL35
 6325 02e9 84010000 		.4byte	.LVL36
 6326 02ed 0100     		.2byte	0x1
 6327 02ef 54       		.byte	0x54
 6328 02f0 00000000 		.4byte	0
 6329 02f4 00000000 		.4byte	0
 6330              	.LLST30:
 6331 02f8 02000000 		.4byte	.LVL38
 6332 02fc 06000000 		.4byte	.LVL39
 6333 0300 0600     		.2byte	0x6
 6334 0302 0C       		.byte	0xc
 6335 0303 00022640 		.4byte	0x40260200
 6336 0307 9F       		.byte	0x9f
 6337 0308 00000000 		.4byte	0
 6338 030c 00000000 		.4byte	0
 6339              	.LLST31:
 6340 0310 20000000 		.4byte	.LVL44
 6341 0314 42000000 		.4byte	.LVL47
 6342 0318 0100     		.2byte	0x1
 6343 031a 54       		.byte	0x54
 6344 031b 00000000 		.4byte	0
ARM GAS  C:\Users\salaz\AppData\Local\Temp\ccvE4Xni.s 			page 149


 6345 031f 00000000 		.4byte	0
 6346              	.LLST32:
 6347 0323 0A000000 		.4byte	.LVL40
 6348 0327 12000000 		.4byte	.LVL41
 6349 032b 0200     		.2byte	0x2
 6350 032d 32       		.byte	0x32
 6351 032e 9F       		.byte	0x9f
 6352 032f 00000000 		.4byte	0
 6353 0333 00000000 		.4byte	0
 6354              	.LLST33:
 6355 0337 0A000000 		.4byte	.LVL40
 6356 033b 12000000 		.4byte	.LVL41
 6357 033f 0600     		.2byte	0x6
 6358 0341 0C       		.byte	0xc
 6359 0342 00022640 		.4byte	0x40260200
 6360 0346 9F       		.byte	0x9f
 6361 0347 00000000 		.4byte	0
 6362 034b 00000000 		.4byte	0
 6363              	.LLST34:
 6364 034f 12000000 		.4byte	.LVL41
 6365 0353 14000000 		.4byte	.LVL42
 6366 0357 0200     		.2byte	0x2
 6367 0359 31       		.byte	0x31
 6368 035a 9F       		.byte	0x9f
 6369 035b 00000000 		.4byte	0
 6370 035f 00000000 		.4byte	0
 6371              	.LLST35:
 6372 0363 12000000 		.4byte	.LVL41
 6373 0367 14000000 		.4byte	.LVL42
 6374 036b 0600     		.2byte	0x6
 6375 036d 0C       		.byte	0xc
 6376 036e 00022640 		.4byte	0x40260200
 6377 0372 9F       		.byte	0x9f
 6378 0373 00000000 		.4byte	0
 6379 0377 00000000 		.4byte	0
 6380              	.LLST36:
 6381 037b 14000000 		.4byte	.LVL42
 6382 037f 1A000000 		.4byte	.LVL43
 6383 0383 0200     		.2byte	0x2
 6384 0385 30       		.byte	0x30
 6385 0386 9F       		.byte	0x9f
 6386 0387 00000000 		.4byte	0
 6387 038b 00000000 		.4byte	0
 6388              	.LLST37:
 6389 038f 14000000 		.4byte	.LVL42
 6390 0393 1A000000 		.4byte	.LVL43
 6391 0397 0600     		.2byte	0x6
 6392 0399 0C       		.byte	0xc
 6393 039a 00022640 		.4byte	0x40260200
 6394 039e 9F       		.byte	0x9f
 6395 039f 00000000 		.4byte	0
 6396 03a3 00000000 		.4byte	0
 6397              	.LLST38:
 6398 03a7 20000000 		.4byte	.LVL44
 6399 03ab 3C000000 		.4byte	.LVL46
 6400 03af 0300     		.2byte	0x3
 6401 03b1 08       		.byte	0x8
ARM GAS  C:\Users\salaz\AppData\Local\Temp\ccvE4Xni.s 			page 150


 6402 03b2 3E       		.byte	0x3e
 6403 03b3 9F       		.byte	0x9f
 6404 03b4 00000000 		.4byte	0
 6405 03b8 00000000 		.4byte	0
 6406              	.LLST39:
 6407 03bc 20000000 		.4byte	.LVL44
 6408 03c0 3C000000 		.4byte	.LVL46
 6409 03c4 0200     		.2byte	0x2
 6410 03c6 32       		.byte	0x32
 6411 03c7 9F       		.byte	0x9f
 6412 03c8 00000000 		.4byte	0
 6413 03cc 00000000 		.4byte	0
 6414              	.LLST40:
 6415 03d0 20000000 		.4byte	.LVL44
 6416 03d4 3C000000 		.4byte	.LVL46
 6417 03d8 0600     		.2byte	0x6
 6418 03da 0C       		.byte	0xc
 6419 03db 00022640 		.4byte	0x40260200
 6420 03df 9F       		.byte	0x9f
 6421 03e0 00000000 		.4byte	0
 6422 03e4 00000000 		.4byte	0
 6423              	.LLST41:
 6424 03e8 20000000 		.4byte	.LVL44
 6425 03ec 3C000000 		.4byte	.LVL46
 6426 03f0 0400     		.2byte	0x4
 6427 03f2 0A       		.byte	0xa
 6428 03f3 0008     		.2byte	0x800
 6429 03f5 9F       		.byte	0x9f
 6430 03f6 00000000 		.4byte	0
 6431 03fa 00000000 		.4byte	0
 6432              	.LLST42:
 6433 03fe 48000000 		.4byte	.LVL48
 6434 0402 50000000 		.4byte	.LVL49
 6435 0406 0100     		.2byte	0x1
 6436 0408 52       		.byte	0x52
 6437 0409 00000000 		.4byte	0
 6438 040d 00000000 		.4byte	0
 6439              	.LLST43:
 6440 0411 00000000 		.4byte	.LVL51
 6441 0415 14000000 		.4byte	.LVL52
 6442 0419 0100     		.2byte	0x1
 6443 041b 50       		.byte	0x50
 6444 041c 14000000 		.4byte	.LVL52
 6445 0420 4C010000 		.4byte	.LFE794
 6446 0424 0400     		.2byte	0x4
 6447 0426 F3       		.byte	0xf3
 6448 0427 01       		.uleb128 0x1
 6449 0428 50       		.byte	0x50
 6450 0429 9F       		.byte	0x9f
 6451 042a 00000000 		.4byte	0
 6452 042e 00000000 		.4byte	0
 6453              	.LLST44:
 6454 0432 00000000 		.4byte	.LVL51
 6455 0436 1A000000 		.4byte	.LVL53
 6456 043a 0600     		.2byte	0x6
 6457 043c 52       		.byte	0x52
 6458 043d 93       		.byte	0x93
ARM GAS  C:\Users\salaz\AppData\Local\Temp\ccvE4Xni.s 			page 151


 6459 043e 04       		.uleb128 0x4
 6460 043f 53       		.byte	0x53
 6461 0440 93       		.byte	0x93
 6462 0441 04       		.uleb128 0x4
 6463 0442 1A000000 		.4byte	.LVL53
 6464 0446 4C010000 		.4byte	.LFE794
 6465 044a 0600     		.2byte	0x6
 6466 044c F3       		.byte	0xf3
 6467 044d 03       		.uleb128 0x3
 6468 044e F5       		.byte	0xf5
 6469 044f 02       		.uleb128 0x2
 6470 0450 25       		.uleb128 0x25
 6471 0451 9F       		.byte	0x9f
 6472 0452 00000000 		.4byte	0
 6473 0456 00000000 		.4byte	0
 6474              	.LLST45:
 6475 045a 22000000 		.4byte	.LVL54
 6476 045e 96000000 		.4byte	.LVL62
 6477 0462 0100     		.2byte	0x1
 6478 0464 50       		.byte	0x50
 6479 0465 9C000000 		.4byte	.LVL64
 6480 0469 A6000000 		.4byte	.LVL65
 6481 046d 0100     		.2byte	0x1
 6482 046f 50       		.byte	0x50
 6483 0470 28010000 		.4byte	.LVL79
 6484 0474 2A010000 		.4byte	.LVL80
 6485 0478 0100     		.2byte	0x1
 6486 047a 50       		.byte	0x50
 6487 047b 2C010000 		.4byte	.LVL81
 6488 047f 2E010000 		.4byte	.LVL82
 6489 0483 0100     		.2byte	0x1
 6490 0485 50       		.byte	0x50
 6491 0486 00000000 		.4byte	0
 6492 048a 00000000 		.4byte	0
 6493              	.LLST46:
 6494 048e 22000000 		.4byte	.LVL54
 6495 0492 2A000000 		.4byte	.LVL55
 6496 0496 0300     		.2byte	0x3
 6497 0498 09       		.byte	0x9
 6498 0499 FF       		.byte	0xff
 6499 049a 9F       		.byte	0x9f
 6500 049b 2A000000 		.4byte	.LVL55
 6501 049f 6C000000 		.4byte	.LVL60
 6502 04a3 0100     		.2byte	0x1
 6503 04a5 51       		.byte	0x51
 6504 04a6 9C000000 		.4byte	.LVL64
 6505 04aa A8000000 		.4byte	.LVL66
 6506 04ae 0100     		.2byte	0x1
 6507 04b0 51       		.byte	0x51
 6508 04b1 28010000 		.4byte	.LVL79
 6509 04b5 30010000 		.4byte	.LVL83
 6510 04b9 0100     		.2byte	0x1
 6511 04bb 51       		.byte	0x51
 6512 04bc 00000000 		.4byte	0
 6513 04c0 00000000 		.4byte	0
 6514              	.LLST47:
 6515 04c4 18010000 		.4byte	.LVL77
ARM GAS  C:\Users\salaz\AppData\Local\Temp\ccvE4Xni.s 			page 152


 6516 04c8 23010000 		.4byte	.LVL78-1
 6517 04cc 0100     		.2byte	0x1
 6518 04ce 50       		.byte	0x50
 6519 04cf 23010000 		.4byte	.LVL78-1
 6520 04d3 28010000 		.4byte	.LVL79
 6521 04d7 0600     		.2byte	0x6
 6522 04d9 74       		.byte	0x74
 6523 04da 00       		.sleb128 0
 6524 04db 76       		.byte	0x76
 6525 04dc 00       		.sleb128 0
 6526 04dd 22       		.byte	0x22
 6527 04de 9F       		.byte	0x9f
 6528 04df 30010000 		.4byte	.LVL83
 6529 04e3 32010000 		.4byte	.LVL84
 6530 04e7 0100     		.2byte	0x1
 6531 04e9 50       		.byte	0x50
 6532 04ea 00000000 		.4byte	0
 6533 04ee 00000000 		.4byte	0
 6534              	.LLST48:
 6535 04f2 22000000 		.4byte	.LVL54
 6536 04f6 2A000000 		.4byte	.LVL55
 6537 04fa 0200     		.2byte	0x2
 6538 04fc 30       		.byte	0x30
 6539 04fd 9F       		.byte	0x9f
 6540 04fe 2A000000 		.4byte	.LVL55
 6541 0502 3C000000 		.4byte	.LVL57
 6542 0506 0100     		.2byte	0x1
 6543 0508 53       		.byte	0x53
 6544 0509 3E000000 		.4byte	.LVL58
 6545 050d 48000000 		.4byte	.LVL59
 6546 0511 0100     		.2byte	0x1
 6547 0513 53       		.byte	0x53
 6548 0514 00000000 		.4byte	0
 6549 0518 00000000 		.4byte	0
 6550              	.LLST49:
 6551 051c 88000000 		.4byte	.LVL61
 6552 0520 9C000000 		.4byte	.LVL64
 6553 0524 0300     		.2byte	0x3
 6554 0526 08       		.byte	0x8
 6555 0527 3E       		.byte	0x3e
 6556 0528 9F       		.byte	0x9f
 6557 0529 00000000 		.4byte	0
 6558 052d 00000000 		.4byte	0
 6559              	.LLST50:
 6560 0531 88000000 		.4byte	.LVL61
 6561 0535 9C000000 		.4byte	.LVL64
 6562 0539 0200     		.2byte	0x2
 6563 053b 33       		.byte	0x33
 6564 053c 9F       		.byte	0x9f
 6565 053d 00000000 		.4byte	0
 6566 0541 00000000 		.4byte	0
 6567              	.LLST51:
 6568 0545 88000000 		.4byte	.LVL61
 6569 0549 9C000000 		.4byte	.LVL64
 6570 054d 0600     		.2byte	0x6
 6571 054f 0C       		.byte	0xc
 6572 0550 00022640 		.4byte	0x40260200
ARM GAS  C:\Users\salaz\AppData\Local\Temp\ccvE4Xni.s 			page 153


 6573 0554 9F       		.byte	0x9f
 6574 0555 00000000 		.4byte	0
 6575 0559 00000000 		.4byte	0
 6576              	.LLST52:
 6577 055d 88000000 		.4byte	.LVL61
 6578 0561 9C000000 		.4byte	.LVL64
 6579 0565 0400     		.2byte	0x4
 6580 0567 0A       		.byte	0xa
 6581 0568 0101     		.2byte	0x101
 6582 056a 9F       		.byte	0x9f
 6583 056b 00000000 		.4byte	0
 6584 056f 00000000 		.4byte	0
 6585              	.LLST53:
 6586 0573 A6000000 		.4byte	.LVL65
 6587 0577 C2000000 		.4byte	.LVL67
 6588 057b 0100     		.2byte	0x1
 6589 057d 50       		.byte	0x50
 6590 057e C4000000 		.4byte	.LVL68
 6591 0582 E0000000 		.4byte	.LVL70
 6592 0586 0100     		.2byte	0x1
 6593 0588 50       		.byte	0x50
 6594 0589 00000000 		.4byte	0
 6595 058d 00000000 		.4byte	0
 6596              	.LLST54:
 6597 0591 D4000000 		.4byte	.LVL69
 6598 0595 E4000000 		.4byte	.LVL71
 6599 0599 0300     		.2byte	0x3
 6600 059b 08       		.byte	0x8
 6601 059c 3E       		.byte	0x3e
 6602 059d 9F       		.byte	0x9f
 6603 059e 00000000 		.4byte	0
 6604 05a2 00000000 		.4byte	0
 6605              	.LLST55:
 6606 05a6 D4000000 		.4byte	.LVL69
 6607 05aa E4000000 		.4byte	.LVL71
 6608 05ae 0200     		.2byte	0x2
 6609 05b0 33       		.byte	0x33
 6610 05b1 9F       		.byte	0x9f
 6611 05b2 00000000 		.4byte	0
 6612 05b6 00000000 		.4byte	0
 6613              	.LLST56:
 6614 05ba D4000000 		.4byte	.LVL69
 6615 05be E4000000 		.4byte	.LVL71
 6616 05c2 0600     		.2byte	0x6
 6617 05c4 0C       		.byte	0xc
 6618 05c5 00022640 		.4byte	0x40260200
 6619 05c9 9F       		.byte	0x9f
 6620 05ca 00000000 		.4byte	0
 6621 05ce 00000000 		.4byte	0
 6622              	.LLST57:
 6623 05d2 D4000000 		.4byte	.LVL69
 6624 05d6 E4000000 		.4byte	.LVL71
 6625 05da 0400     		.2byte	0x4
 6626 05dc 0A       		.byte	0xa
 6627 05dd 0101     		.2byte	0x101
 6628 05df 9F       		.byte	0x9f
 6629 05e0 00000000 		.4byte	0
ARM GAS  C:\Users\salaz\AppData\Local\Temp\ccvE4Xni.s 			page 154


 6630 05e4 00000000 		.4byte	0
 6631              	.LLST58:
 6632 05e8 E4000000 		.4byte	.LVL71
 6633 05ec E8000000 		.4byte	.LVL72
 6634 05f0 0200     		.2byte	0x2
 6635 05f2 31       		.byte	0x31
 6636 05f3 9F       		.byte	0x9f
 6637 05f4 00000000 		.4byte	0
 6638 05f8 00000000 		.4byte	0
 6639              	.LLST59:
 6640 05fc E4000000 		.4byte	.LVL71
 6641 0600 E8000000 		.4byte	.LVL72
 6642 0604 0600     		.2byte	0x6
 6643 0606 0C       		.byte	0xc
 6644 0607 00022640 		.4byte	0x40260200
 6645 060b 9F       		.byte	0x9f
 6646 060c 00000000 		.4byte	0
 6647 0610 00000000 		.4byte	0
 6648              	.LLST60:
 6649 0614 E4000000 		.4byte	.LVL71
 6650 0618 E8000000 		.4byte	.LVL72
 6651 061c 0200     		.2byte	0x2
 6652 061e 30       		.byte	0x30
 6653 061f 9F       		.byte	0x9f
 6654 0620 00000000 		.4byte	0
 6655 0624 00000000 		.4byte	0
 6656              	.LLST61:
 6657 0628 E8000000 		.4byte	.LVL72
 6658 062c EE000000 		.4byte	.LVL73
 6659 0630 0200     		.2byte	0x2
 6660 0632 30       		.byte	0x30
 6661 0633 9F       		.byte	0x9f
 6662 0634 00000000 		.4byte	0
 6663 0638 00000000 		.4byte	0
 6664              	.LLST62:
 6665 063c E8000000 		.4byte	.LVL72
 6666 0640 EE000000 		.4byte	.LVL73
 6667 0644 0600     		.2byte	0x6
 6668 0646 0C       		.byte	0xc
 6669 0647 00022640 		.4byte	0x40260200
 6670 064b 9F       		.byte	0x9f
 6671 064c 00000000 		.4byte	0
 6672 0650 00000000 		.4byte	0
 6673              	.LLST64:
 6674 0654 EE000000 		.4byte	.LVL73
 6675 0658 F4000000 		.4byte	.LVL74
 6676 065c 0200     		.2byte	0x2
 6677 065e 30       		.byte	0x30
 6678 065f 9F       		.byte	0x9f
 6679 0660 00000000 		.4byte	0
 6680 0664 00000000 		.4byte	0
 6681              	.LLST65:
 6682 0668 EE000000 		.4byte	.LVL73
 6683 066c F4000000 		.4byte	.LVL74
 6684 0670 0600     		.2byte	0x6
 6685 0672 0C       		.byte	0xc
 6686 0673 00022640 		.4byte	0x40260200
ARM GAS  C:\Users\salaz\AppData\Local\Temp\ccvE4Xni.s 			page 155


 6687 0677 9F       		.byte	0x9f
 6688 0678 00000000 		.4byte	0
 6689 067c 00000000 		.4byte	0
 6690              	.LLST66:
 6691 0680 F4000000 		.4byte	.LVL74
 6692 0684 12010000 		.4byte	.LVL76
 6693 0688 0300     		.2byte	0x3
 6694 068a 08       		.byte	0x8
 6695 068b 3E       		.byte	0x3e
 6696 068c 9F       		.byte	0x9f
 6697 068d 00000000 		.4byte	0
 6698 0691 00000000 		.4byte	0
 6699              	.LLST67:
 6700 0695 F4000000 		.4byte	.LVL74
 6701 0699 12010000 		.4byte	.LVL76
 6702 069d 0200     		.2byte	0x2
 6703 069f 33       		.byte	0x33
 6704 06a0 9F       		.byte	0x9f
 6705 06a1 00000000 		.4byte	0
 6706 06a5 00000000 		.4byte	0
 6707              	.LLST68:
 6708 06a9 F4000000 		.4byte	.LVL74
 6709 06ad 12010000 		.4byte	.LVL76
 6710 06b1 0600     		.2byte	0x6
 6711 06b3 0C       		.byte	0xc
 6712 06b4 00022640 		.4byte	0x40260200
 6713 06b8 9F       		.byte	0x9f
 6714 06b9 00000000 		.4byte	0
 6715 06bd 00000000 		.4byte	0
 6716              	.LLST69:
 6717 06c1 F4000000 		.4byte	.LVL74
 6718 06c5 12010000 		.4byte	.LVL76
 6719 06c9 0400     		.2byte	0x4
 6720 06cb 0A       		.byte	0xa
 6721 06cc 0808     		.2byte	0x808
 6722 06ce 9F       		.byte	0x9f
 6723 06cf 00000000 		.4byte	0
 6724 06d3 00000000 		.4byte	0
 6725              	.LLST70:
 6726 06d7 0A000000 		.4byte	.LVL85
 6727 06db 26000000 		.4byte	.LVL87
 6728 06df 0100     		.2byte	0x1
 6729 06e1 50       		.byte	0x50
 6730 06e2 00000000 		.4byte	0
 6731 06e6 00000000 		.4byte	0
 6732              	.LLST71:
 6733 06ea 14000000 		.4byte	.LVL86
 6734 06ee 28000000 		.4byte	.LVL88
 6735 06f2 0100     		.2byte	0x1
 6736 06f4 53       		.byte	0x53
 6737 06f5 00000000 		.4byte	0
 6738 06f9 00000000 		.4byte	0
 6739              	.LLST72:
 6740 06fd 28000000 		.4byte	.LVL88
 6741 0701 30000000 		.4byte	.LVL89
 6742 0705 0100     		.2byte	0x1
 6743 0707 53       		.byte	0x53
ARM GAS  C:\Users\salaz\AppData\Local\Temp\ccvE4Xni.s 			page 156


 6744 0708 00000000 		.4byte	0
 6745 070c 00000000 		.4byte	0
 6746              	.LLST73:
 6747 0710 3A000000 		.4byte	.LVL90
 6748 0714 40000000 		.4byte	.LVL91
 6749 0718 0200     		.2byte	0x2
 6750 071a 32       		.byte	0x32
 6751 071b 9F       		.byte	0x9f
 6752 071c 00000000 		.4byte	0
 6753 0720 00000000 		.4byte	0
 6754              	.LLST74:
 6755 0724 3A000000 		.4byte	.LVL90
 6756 0728 40000000 		.4byte	.LVL91
 6757 072c 0600     		.2byte	0x6
 6758 072e 0C       		.byte	0xc
 6759 072f 00022640 		.4byte	0x40260200
 6760 0733 9F       		.byte	0x9f
 6761 0734 00000000 		.4byte	0
 6762 0738 00000000 		.4byte	0
 6763              		.section	.debug_aranges,"",%progbits
 6764 0000 34000000 		.4byte	0x34
 6765 0004 0200     		.2byte	0x2
 6766 0006 00000000 		.4byte	.Ldebug_info0
 6767 000a 04       		.byte	0x4
 6768 000b 00       		.byte	0
 6769 000c 0000     		.2byte	0
 6770 000e 0000     		.2byte	0
 6771 0010 00000000 		.4byte	.LFB792
 6772 0014 A8010000 		.4byte	.LFE792-.LFB792
 6773 0018 00000000 		.4byte	.LFB793
 6774 001c 6C000000 		.4byte	.LFE793-.LFB793
 6775 0020 00000000 		.4byte	.LFB794
 6776 0024 4C010000 		.4byte	.LFE794-.LFB794
 6777 0028 00000000 		.4byte	.LFB795
 6778 002c 5C000000 		.4byte	.LFE795-.LFB795
 6779 0030 00000000 		.4byte	0
 6780 0034 00000000 		.4byte	0
 6781              		.section	.debug_ranges,"",%progbits
 6782              	.Ldebug_ranges0:
 6783 0000 04000000 		.4byte	.LBB54
 6784 0004 06000000 		.4byte	.LBE54
 6785 0008 0A000000 		.4byte	.LBB55
 6786 000c 72000000 		.4byte	.LBE55
 6787 0010 00000000 		.4byte	0
 6788 0014 00000000 		.4byte	0
 6789 0018 22000000 		.4byte	.LBB111
 6790 001c 24000000 		.4byte	.LBE111
 6791 0020 28000000 		.4byte	.LBB112
 6792 0024 46000000 		.4byte	.LBE112
 6793 0028 00000000 		.4byte	0
 6794 002c 00000000 		.4byte	0
 6795 0030 00000000 		.4byte	.LFB792
 6796 0034 A8010000 		.4byte	.LFE792
 6797 0038 00000000 		.4byte	.LFB793
 6798 003c 6C000000 		.4byte	.LFE793
 6799 0040 00000000 		.4byte	.LFB794
 6800 0044 4C010000 		.4byte	.LFE794
ARM GAS  C:\Users\salaz\AppData\Local\Temp\ccvE4Xni.s 			page 157


 6801 0048 00000000 		.4byte	.LFB795
 6802 004c 5C000000 		.4byte	.LFE795
 6803 0050 00000000 		.4byte	0
 6804 0054 00000000 		.4byte	0
 6805              		.section	.debug_line,"",%progbits
 6806              	.Ldebug_line0:
 6807 0000 8B060000 		.section	.debug_str,"MS",%progbits,1
 6807      0200FC04 
 6807      00000201 
 6807      FB0E0D00 
 6807      01010101 
 6808              	.LASF213:
 6809 0000 52534552 		.ascii	"RSERVED1\000"
 6809      56454431 
 6809      00
 6810              	.LASF464:
 6811 0009 43595F42 		.ascii	"CY_BLE_EVT_PENDING_FLASH_WRITE\000"
 6811      4C455F45 
 6811      56545F50 
 6811      454E4449 
 6811      4E475F46 
 6812              	.LASF544:
 6813 0028 43595F42 		.ascii	"CY_BLE_EVT_GATTC_READ_BY_TYPE_RSP\000"
 6813      4C455F45 
 6813      56545F47 
 6813      41545443 
 6813      5F524541 
 6814              	.LASF204:
 6815 004a 696E7438 		.ascii	"int8_t\000"
 6815      5F7400
 6816              	.LASF237:
 6817 0051 5057525F 		.ascii	"PWR_BUCK_CTL\000"
 6817      4255434B 
 6817      5F43544C 
 6817      00
 6818              	.LASF659:
 6819 005e 54696D69 		.ascii	"TimingMaster_ConfigureTimer\000"
 6819      6E674D61 
 6819      73746572 
 6819      5F436F6E 
 6819      66696775 
 6820              	.LASF219:
 6821 007a 73697A65 		.ascii	"sizetype\000"
 6821      74797065 
 6821      00
 6822              	.LASF398:
 6823 0083 43595F53 		.ascii	"CY_SCB_UART_SMARTCARD\000"
 6823      43425F55 
 6823      4152545F 
 6823      534D4152 
 6823      54434152 
 6824              	.LASF492:
 6825 0099 43595F42 		.ascii	"CY_BLE_EVT_SET_DEVICE_ADDR_COMPLETE\000"
 6825      4C455F45 
 6825      56545F53 
 6825      45545F44 
 6825      45564943 
ARM GAS  C:\Users\salaz\AppData\Local\Temp\ccvE4Xni.s 			page 158


 6826              	.LASF161:
 6827 00bd 74637077 		.ascii	"tcpwm_1_interrupts_22_IRQn\000"
 6827      6D5F315F 
 6827      696E7465 
 6827      72727570 
 6827      74735F32 
 6828              	.LASF7:
 6829 00d8 4E766963 		.ascii	"NvicMux1_IRQn\000"
 6829      4D757831 
 6829      5F495251 
 6829      6E00
 6830              	.LASF444:
 6831 00e6 63795F73 		.ascii	"cy_stc_scb_uart_context\000"
 6831      74635F73 
 6831      63625F75 
 6831      6172745F 
 6831      636F6E74 
 6832              	.LASF54:
 6833 00fe 696F7373 		.ascii	"ioss_interrupts_gpio_13_IRQn\000"
 6833      5F696E74 
 6833      65727275 
 6833      7074735F 
 6833      6770696F 
 6834              	.LASF60:
 6835 011b 73727373 		.ascii	"srss_interrupt_mcwdt_0_IRQn\000"
 6835      5F696E74 
 6835      65727275 
 6835      70745F6D 
 6835      63776474 
 6836              	.LASF342:
 6837 0137 63617074 		.ascii	"captureInputMode\000"
 6837      75726549 
 6837      6E707574 
 6837      4D6F6465 
 6837      00
 6838              	.LASF451:
 6839 0148 72784275 		.ascii	"rxBuf\000"
 6839      6600
 6840              	.LASF491:
 6841 014e 43595F42 		.ascii	"CY_BLE_EVT_SOFT_RESET_COMPLETE\000"
 6841      4C455F45 
 6841      56545F53 
 6841      4F46545F 
 6841      52455345 
 6842              	.LASF207:
 6843 016d 696E7433 		.ascii	"int32_t\000"
 6843      325F7400 
 6844              	.LASF295:
 6845 0175 434C4B5F 		.ascii	"CLK_TRIM_PILO_CTL2\000"
 6845      5452494D 
 6845      5F50494C 
 6845      4F5F4354 
 6845      4C3200
 6846              	.LASF296:
 6847 0188 434C4B5F 		.ascii	"CLK_TRIM_PILO_CTL3\000"
 6847      5452494D 
 6847      5F50494C 
ARM GAS  C:\Users\salaz\AppData\Local\Temp\ccvE4Xni.s 			page 159


 6847      4F5F4354 
 6847      4C3300
 6848              	.LASF498:
 6849 019b 43595F42 		.ascii	"CY_BLE_EVT_SET_CLK_CONFIG_COMPLETE\000"
 6849      4C455F45 
 6849      56545F53 
 6849      45545F43 
 6849      4C4B5F43 
 6850              	.LASF132:
 6851 01be 74637077 		.ascii	"tcpwm_0_interrupts_1_IRQn\000"
 6851      6D5F305F 
 6851      696E7465 
 6851      72727570 
 6851      74735F31 
 6852              	.LASF13:
 6853 01d8 4E766963 		.ascii	"NvicMux7_IRQn\000"
 6853      4D757837 
 6853      5F495251 
 6853      6E00
 6854              	.LASF36:
 6855 01e6 4E766963 		.ascii	"NvicMux30_IRQn\000"
 6855      4D757833 
 6855      305F4952 
 6855      516E00
 6856              	.LASF497:
 6857 01f5 43595F42 		.ascii	"CY_BLE_EVT_GET_CLK_CONFIG_COMPLETE\000"
 6857      4C455F45 
 6857      56545F47 
 6857      45545F43 
 6857      4C4B5F43 
 6858              	.LASF589:
 6859 0218 43595F42 		.ascii	"CY_BLE_CONN_STATE_CLIENT_DESCR_DISCOVERING\000"
 6859      4C455F43 
 6859      4F4E4E5F 
 6859      53544154 
 6859      455F434C 
 6860              	.LASF304:
 6861 0243 75696E74 		.ascii	"uint32\000"
 6861      333200
 6862              	.LASF70:
 6863 024a 63707573 		.ascii	"cpuss_interrupts_ipc_4_IRQn\000"
 6863      735F696E 
 6863      74657272 
 6863      75707473 
 6863      5F697063 
 6864              	.LASF138:
 6865 0266 74637077 		.ascii	"tcpwm_0_interrupts_7_IRQn\000"
 6865      6D5F305F 
 6865      696E7465 
 6865      72727570 
 6865      74735F37 
 6866              	.LASF46:
 6867 0280 696F7373 		.ascii	"ioss_interrupts_gpio_5_IRQn\000"
 6867      5F696E74 
 6867      65727275 
 6867      7074735F 
 6867      6770696F 
ARM GAS  C:\Users\salaz\AppData\Local\Temp\ccvE4Xni.s 			page 160


 6868              	.LASF466:
 6869 029c 43595F42 		.ascii	"CY_BLE_EVT_HARDWARE_ERROR\000"
 6869      4C455F45 
 6869      56545F48 
 6869      41524457 
 6869      4152455F 
 6870              	.LASF656:
 6871 02b6 54696D69 		.ascii	"TimingMaster.c\000"
 6871      6E674D61 
 6871      73746572 
 6871      2E6300
 6872              	.LASF273:
 6873 02c5 53525353 		.ascii	"SRSS_INTR\000"
 6873      5F494E54 
 6873      5200
 6874              	.LASF421:
 6875 02cf 656E6162 		.ascii	"enableMsbFirst\000"
 6875      6C654D73 
 6875      62466972 
 6875      737400
 6876              	.LASF239:
 6877 02de 5057525F 		.ascii	"PWR_LVD_STATUS\000"
 6877      4C56445F 
 6877      53544154 
 6877      555300
 6878              	.LASF63:
 6879 02ed 73727373 		.ascii	"srss_interrupt_IRQn\000"
 6879      5F696E74 
 6879      65727275 
 6879      70745F49 
 6879      52516E00 
 6880              	.LASF445:
 6881 0301 74785374 		.ascii	"txStatus\000"
 6881      61747573 
 6881      00
 6882              	.LASF574:
 6883 030a 43595F42 		.ascii	"CY_BLE_EVT_MAX\000"
 6883      4C455F45 
 6883      56545F4D 
 6883      415800
 6884              	.LASF176:
 6885 0319 7564625F 		.ascii	"udb_interrupts_13_IRQn\000"
 6885      696E7465 
 6885      72727570 
 6885      74735F31 
 6885      335F4952 
 6886              	.LASF145:
 6887 0330 74637077 		.ascii	"tcpwm_1_interrupts_6_IRQn\000"
 6887      6D5F315F 
 6887      696E7465 
 6887      72727570 
 6887      74735F36 
 6888              	.LASF186:
 6889 034a 7573625F 		.ascii	"usb_interrupt_lo_IRQn\000"
 6889      696E7465 
 6889      72727570 
 6889      745F6C6F 
ARM GAS  C:\Users\salaz\AppData\Local\Temp\ccvE4Xni.s 			page 161


 6889      5F495251 
 6890              	.LASF126:
 6891 0360 63707573 		.ascii	"cpuss_interrupt_fm_IRQn\000"
 6891      735F696E 
 6891      74657272 
 6891      7570745F 
 6891      666D5F49 
 6892              	.LASF377:
 6893 0378 73746174 		.ascii	"state\000"
 6893      6500
 6894              	.LASF166:
 6895 037e 7564625F 		.ascii	"udb_interrupts_3_IRQn\000"
 6895      696E7465 
 6895      72727570 
 6895      74735F33 
 6895      5F495251 
 6896              	.LASF440:
 6897 0394 72784669 		.ascii	"rxFifoIntEnableMask\000"
 6897      666F496E 
 6897      74456E61 
 6897      626C654D 
 6897      61736B00 
 6898              	.LASF6:
 6899 03a8 4E766963 		.ascii	"NvicMux0_IRQn\000"
 6899      4D757830 
 6899      5F495251 
 6899      6E00
 6900              	.LASF338:
 6901 03b6 636F6D70 		.ascii	"compare0\000"
 6901      61726530 
 6901      00
 6902              	.LASF339:
 6903 03bf 636F6D70 		.ascii	"compare1\000"
 6903      61726531 
 6903      00
 6904              	.LASF604:
 6905 03c8 4952516E 		.ascii	"IRQn\000"
 6905      00
 6906              	.LASF182:
 6907 03cd 70726F66 		.ascii	"profile_interrupt_IRQn\000"
 6907      696C655F 
 6907      696E7465 
 6907      72727570 
 6907      745F4952 
 6908              	.LASF53:
 6909 03e4 696F7373 		.ascii	"ioss_interrupts_gpio_12_IRQn\000"
 6909      5F696E74 
 6909      65727275 
 6909      7074735F 
 6909      6770696F 
 6910              	.LASF102:
 6911 0401 63707573 		.ascii	"cpuss_interrupts_dw0_11_IRQn\000"
 6911      735F696E 
 6911      74657272 
 6911      75707473 
 6911      5F647730 
 6912              	.LASF439:
ARM GAS  C:\Users\salaz\AppData\Local\Temp\ccvE4Xni.s 			page 162


 6913 041e 72784669 		.ascii	"rxFifoTriggerLevel\000"
 6913      666F5472 
 6913      69676765 
 6913      724C6576 
 6913      656C00
 6914              	.LASF188:
 6915 0431 64697363 		.ascii	"disconnected_IRQn\000"
 6915      6F6E6E65 
 6915      63746564 
 6915      5F495251 
 6915      6E00
 6916              	.LASF183:
 6917 0443 736D6966 		.ascii	"smif_interrupt_IRQn\000"
 6917      5F696E74 
 6917      65727275 
 6917      70745F49 
 6917      52516E00 
 6918              	.LASF153:
 6919 0457 74637077 		.ascii	"tcpwm_1_interrupts_14_IRQn\000"
 6919      6D5F315F 
 6919      696E7465 
 6919      72727570 
 6919      74735F31 
 6920              	.LASF84:
 6921 0472 7363625F 		.ascii	"scb_2_interrupt_IRQn\000"
 6921      325F696E 
 6921      74657272 
 6921      7570745F 
 6921      4952516E 
 6922              	.LASF490:
 6923 0487 43595F42 		.ascii	"CY_BLE_EVT_LL_CNTRL_PROC_PENDING_COMPLETE\000"
 6923      4C455F45 
 6923      56545F4C 
 6923      4C5F434E 
 6923      54524C5F 
 6924              	.LASF122:
 6925 04b1 63707573 		.ascii	"cpuss_interrupts_dw1_15_IRQn\000"
 6925      735F696E 
 6925      74657272 
 6925      75707473 
 6925      5F647731 
 6926              	.LASF350:
 6927 04ce 636F756E 		.ascii	"countInputMode\000"
 6927      74496E70 
 6927      75744D6F 
 6927      646500
 6928              	.LASF236:
 6929 04dd 5057525F 		.ascii	"PWR_LVD_CTL\000"
 6929      4C56445F 
 6929      43544C00 
 6930              	.LASF216:
 6931 04e9 49435052 		.ascii	"ICPR\000"
 6931      00
 6932              	.LASF305:
 6933 04ee 696E7438 		.ascii	"int8\000"
 6933      00
 6934              	.LASF555:
ARM GAS  C:\Users\salaz\AppData\Local\Temp\ccvE4Xni.s 			page 163


 6935 04f3 43595F42 		.ascii	"CY_BLE_EVT_GATTC_EXEC_WRITE_RSP\000"
 6935      4C455F45 
 6935      56545F47 
 6935      41545443 
 6935      5F455845 
 6936              	.LASF368:
 6937 0513 63795F73 		.ascii	"cy_stc_tcpwm_pwm_config_t\000"
 6937      74635F74 
 6937      6370776D 
 6937      5F70776D 
 6937      5F636F6E 
 6938              	.LASF602:
 6939 052d 43795F4D 		.ascii	"Cy_MCWDT_ClearInterrupt\000"
 6939      43574454 
 6939      5F436C65 
 6939      6172496E 
 6939      74657272 
 6940              	.LASF95:
 6941 0545 63707573 		.ascii	"cpuss_interrupts_dw0_4_IRQn\000"
 6941      735F696E 
 6941      74657272 
 6941      75707473 
 6941      5F647730 
 6942              	.LASF603:
 6943 0561 5F5F4E56 		.ascii	"__NVIC_ClearPendingIRQ\000"
 6943      49435F43 
 6943      6C656172 
 6943      50656E64 
 6943      696E6749 
 6944              	.LASF646:
 6945 0578 4368696D 		.ascii	"ChimeOutput_config\000"
 6945      654F7574 
 6945      7075745F 
 6945      636F6E66 
 6945      696700
 6946              	.LASF533:
 6947 058b 43595F42 		.ascii	"CY_BLE_EVT_GAP_GEN_SET_LOCAL_P256_KEYS_COMPLETE\000"
 6947      4C455F45 
 6947      56545F47 
 6947      41505F47 
 6947      454E5F53 
 6948              	.LASF69:
 6949 05bb 63707573 		.ascii	"cpuss_interrupts_ipc_3_IRQn\000"
 6949      735F696E 
 6949      74657272 
 6949      75707473 
 6949      5F697063 
 6950              	.LASF137:
 6951 05d7 74637077 		.ascii	"tcpwm_0_interrupts_6_IRQn\000"
 6951      6D5F305F 
 6951      696E7465 
 6951      72727570 
 6951      74735F36 
 6952              	.LASF170:
 6953 05f1 7564625F 		.ascii	"udb_interrupts_7_IRQn\000"
 6953      696E7465 
 6953      72727570 
ARM GAS  C:\Users\salaz\AppData\Local\Temp\ccvE4Xni.s 			page 164


 6953      74735F37 
 6953      5F495251 
 6954              	.LASF45:
 6955 0607 696F7373 		.ascii	"ioss_interrupts_gpio_4_IRQn\000"
 6955      5F696E74 
 6955      65727275 
 6955      7074735F 
 6955      6770696F 
 6956              	.LASF510:
 6957 0623 43595F42 		.ascii	"CY_BLE_EVT_SET_CONN_PRIORITY_COMPLETE\000"
 6957      4C455F45 
 6957      56545F53 
 6957      45545F43 
 6957      4F4E4E5F 
 6958              	.LASF562:
 6959 0649 43595F42 		.ascii	"CY_BLE_EVT_GATTC_LONG_PROCEDURE_END\000"
 6959      4C455F45 
 6959      56545F47 
 6959      41545443 
 6959      5F4C4F4E 
 6960              	.LASF19:
 6961 066d 4E766963 		.ascii	"NvicMux13_IRQn\000"
 6961      4D757831 
 6961      335F4952 
 6961      516E00
 6962              	.LASF567:
 6963 067c 43595F42 		.ascii	"CY_BLE_EVT_L2CAP_CBFC_CONN_CNF\000"
 6963      4C455F45 
 6963      56545F4C 
 6963      32434150 
 6963      5F434246 
 6964              	.LASF575:
 6965 069b 62644861 		.ascii	"bdHandle\000"
 6965      6E646C65 
 6965      00
 6966              	.LASF329:
 6967 06a4 63795F65 		.ascii	"cy_en_mcwdtctr_t\000"
 6967      6E5F6D63 
 6967      77647463 
 6967      74725F74 
 6967      00
 6968              	.LASF194:
 6969 06b5 5F5F7569 		.ascii	"__uint8_t\000"
 6969      6E74385F 
 6969      7400
 6970              	.LASF516:
 6971 06bf 43595F42 		.ascii	"CY_BLE_EVT_GAP_AUTH_FAILED\000"
 6971      4C455F45 
 6971      56545F47 
 6971      41505F41 
 6971      5554485F 
 6972              	.LASF110:
 6973 06da 63707573 		.ascii	"cpuss_interrupts_dw1_3_IRQn\000"
 6973      735F696E 
 6973      74657272 
 6973      75707473 
 6973      5F647731 
ARM GAS  C:\Users\salaz\AppData\Local\Temp\ccvE4Xni.s 			page 165


 6974              	.LASF310:
 6975 06f6 696E7472 		.ascii	"intrSrc\000"
 6975      53726300 
 6976              	.LASF375:
 6977 06fe 75736552 		.ascii	"useRxFifo\000"
 6977      78466966 
 6977      6F00
 6978              	.LASF426:
 6979 0708 64726F70 		.ascii	"dropOnFrameError\000"
 6979      4F6E4672 
 6979      616D6545 
 6979      72726F72 
 6979      00
 6980              	.LASF557:
 6981 0719 43595F42 		.ascii	"CY_BLE_EVT_GATTC_HANDLE_VALUE_IND\000"
 6981      4C455F45 
 6981      56545F47 
 6981      41545443 
 6981      5F48414E 
 6982              	.LASF365:
 6983 073b 73776170 		.ascii	"swapInput\000"
 6983      496E7075 
 6983      7400
 6984              	.LASF626:
 6985 0745 57617463 		.ascii	"WatchDogHandler\000"
 6985      68446F67 
 6985      48616E64 
 6985      6C657200 
 6986              	.LASF455:
 6987 0755 74784275 		.ascii	"txBufSize\000"
 6987      6653697A 
 6987      6500
 6988              	.LASF599:
 6989 075f 636F756E 		.ascii	"countVal\000"
 6989      7456616C 
 6989      00
 6990              	.LASF462:
 6991 0768 43595F42 		.ascii	"CY_BLE_EVT_STACK_BUSY_STATUS\000"
 6991      4C455F45 
 6991      56545F53 
 6991      5441434B 
 6991      5F425553 
 6992              	.LASF323:
 6993 0785 63306331 		.ascii	"c0c1Cascade\000"
 6993      43617363 
 6993      61646500 
 6994              	.LASF306:
 6995 0791 75696E74 		.ascii	"uint64\000"
 6995      363400
 6996              	.LASF198:
 6997 0798 6C6F6E67 		.ascii	"long int\000"
 6997      20696E74 
 6997      00
 6998              	.LASF541:
 6999 07a1 43595F42 		.ascii	"CY_BLE_EVT_GATTS_XCNHG_MTU_REQ\000"
 6999      4C455F45 
 6999      56545F47 
ARM GAS  C:\Users\salaz\AppData\Local\Temp\ccvE4Xni.s 			page 166


 6999      41545453 
 6999      5F58434E 
 7000              	.LASF508:
 7001 07c0 43595F42 		.ascii	"CY_BLE_EVT_SET_EVENT_MASK_COMPLETE\000"
 7001      4C455F45 
 7001      56545F53 
 7001      45545F45 
 7001      56454E54 
 7002              	.LASF590:
 7003 07e3 43595F42 		.ascii	"CY_BLE_CONN_STATE_CLIENT_DISCOVERED\000"
 7003      4C455F43 
 7003      4F4E4E5F 
 7003      53544154 
 7003      455F434C 
 7004              	.LASF611:
 7005 0807 5F5F4E56 		.ascii	"__NVIC_EnableIRQ\000"
 7005      49435F45 
 7005      6E61626C 
 7005      65495251 
 7005      00
 7006              	.LASF284:
 7007 0818 434C4B5F 		.ascii	"CLK_TRIM_CCO_CTL\000"
 7007      5452494D 
 7007      5F43434F 
 7007      5F43544C 
 7007      00
 7008              	.LASF163:
 7009 0829 7564625F 		.ascii	"udb_interrupts_0_IRQn\000"
 7009      696E7465 
 7009      72727570 
 7009      74735F30 
 7009      5F495251 
 7010              	.LASF152:
 7011 083f 74637077 		.ascii	"tcpwm_1_interrupts_13_IRQn\000"
 7011      6D5F315F 
 7011      696E7465 
 7011      72727570 
 7011      74735F31 
 7012              	.LASF550:
 7013 085a 43595F42 		.ascii	"CY_BLE_EVT_GATTS_WRITE_REQ\000"
 7013      4C455F45 
 7013      56545F47 
 7013      41545453 
 7013      5F575249 
 7014              	.LASF29:
 7015 0875 4E766963 		.ascii	"NvicMux23_IRQn\000"
 7015      4D757832 
 7015      335F4952 
 7015      516E00
 7016              	.LASF344:
 7017 0884 72656C6F 		.ascii	"reloadInputMode\000"
 7017      6164496E 
 7017      7075744D 
 7017      6F646500 
 7018              	.LASF622:
 7019 0894 70657269 		.ascii	"period_count\000"
 7019      6F645F63 
ARM GAS  C:\Users\salaz\AppData\Local\Temp\ccvE4Xni.s 			page 167


 7019      6F756E74 
 7019      00
 7020              	.LASF322:
 7021 08a1 6331436C 		.ascii	"c1ClearOnMatch\000"
 7021      6561724F 
 7021      6E4D6174 
 7021      636800
 7022              	.LASF169:
 7023 08b0 7564625F 		.ascii	"udb_interrupts_6_IRQn\000"
 7023      696E7465 
 7023      72727570 
 7023      74735F36 
 7023      5F495251 
 7024              	.LASF489:
 7025 08c6 43595F42 		.ascii	"CY_BLE_EVT_SET_PRIVACY_MODE_COMPLETE\000"
 7025      4C455F45 
 7025      56545F53 
 7025      45545F50 
 7025      52495641 
 7026              	.LASF195:
 7027 08eb 5F5F7569 		.ascii	"__uint16_t\000"
 7027      6E743136 
 7027      5F7400
 7028              	.LASF77:
 7029 08f6 63707573 		.ascii	"cpuss_interrupts_ipc_11_IRQn\000"
 7029      735F696E 
 7029      74657272 
 7029      75707473 
 7029      5F697063 
 7030              	.LASF520:
 7031 0913 43595F42 		.ascii	"CY_BLE_EVT_GAP_ENCRYPT_CHANGE\000"
 7031      4C455F45 
 7031      56545F47 
 7031      41505F45 
 7031      4E435259 
 7032              	.LASF534:
 7033 0931 43595F42 		.ascii	"CY_BLE_EVT_GAP_CREATE_CONN_CANCEL_COMPLETE\000"
 7033      4C455F45 
 7033      56545F47 
 7033      41505F43 
 7033      52454154 
 7034              	.LASF480:
 7035 095c 43595F42 		.ascii	"CY_BLE_EVT_SET_HOST_CHANNEL_COMPLETE\000"
 7035      4C455F45 
 7035      56545F53 
 7035      45545F48 
 7035      4F53545F 
 7036              	.LASF636:
 7037 0981 55415254 		.ascii	"UART_DEBUG_config\000"
 7037      5F444542 
 7037      55475F63 
 7037      6F6E6669 
 7037      6700
 7038              	.LASF634:
 7039 0993 63795F62 		.ascii	"cy_ble_pendingFlashWrite\000"
 7039      6C655F70 
 7039      656E6469 
ARM GAS  C:\Users\salaz\AppData\Local\Temp\ccvE4Xni.s 			page 168


 7039      6E67466C 
 7039      61736857 
 7040              	.LASF579:
 7041 09ac 43595F42 		.ascii	"CY_BLE_ADV_STATE_ADV_INITIATED\000"
 7041      4C455F41 
 7041      44565F53 
 7041      54415445 
 7041      5F414456 
 7042              	.LASF461:
 7043 09cb 43595F42 		.ascii	"CY_BLE_EVT_TIMEOUT\000"
 7043      4C455F45 
 7043      56545F54 
 7043      494D454F 
 7043      555400
 7044              	.LASF109:
 7045 09de 63707573 		.ascii	"cpuss_interrupts_dw1_2_IRQn\000"
 7045      735F696E 
 7045      74657272 
 7045      75707473 
 7045      5F647731 
 7046              	.LASF422:
 7047 09fa 73746F70 		.ascii	"stopBits\000"
 7047      42697473 
 7047      00
 7048              	.LASF384:
 7049 0a03 6D617374 		.ascii	"masterNumBytes\000"
 7049      65724E75 
 7049      6D427974 
 7049      657300
 7050              	.LASF274:
 7051 0a12 53525353 		.ascii	"SRSS_INTR_SET\000"
 7051      5F494E54 
 7051      525F5345 
 7051      5400
 7052              	.LASF642:
 7053 0a20 4C696768 		.ascii	"LightTimer_config\000"
 7053      7454696D 
 7053      65725F63 
 7053      6F6E6669 
 7053      6700
 7054              	.LASF482:
 7055 0a32 43595F42 		.ascii	"CY_BLE_EVT_REMOVE_DEVICE_FROM_RPA_LIST_COMPLETE\000"
 7055      4C455F45 
 7055      56545F52 
 7055      454D4F56 
 7055      455F4445 
 7056              	.LASF90:
 7057 0a62 6373645F 		.ascii	"csd_interrupt_IRQn\000"
 7057      696E7465 
 7057      72727570 
 7057      745F4952 
 7057      516E00
 7058              	.LASF458:
 7059 0a75 63795F73 		.ascii	"cy_stc_scb_uart_context_t\000"
 7059      74635F73 
 7059      63625F75 
 7059      6172745F 
ARM GAS  C:\Users\salaz\AppData\Local\Temp\ccvE4Xni.s 			page 169


 7059      636F6E74 
 7060              	.LASF193:
 7061 0a8f 7369676E 		.ascii	"signed char\000"
 7061      65642063 
 7061      68617200 
 7062              	.LASF528:
 7063 0a9b 43595F42 		.ascii	"CY_BLE_EVT_GAPC_DIRECT_ADV_REPORT\000"
 7063      4C455F45 
 7063      56545F47 
 7063      4150435F 
 7063      44495245 
 7064              	.LASF205:
 7065 0abd 75696E74 		.ascii	"uint8_t\000"
 7065      385F7400 
 7066              	.LASF358:
 7067 0ac5 70657269 		.ascii	"period0\000"
 7067      6F643000 
 7068              	.LASF297:
 7069 0acd 53525353 		.ascii	"SRSS_Type\000"
 7069      5F547970 
 7069      6500
 7070              	.LASF463:
 7071 0ad7 43595F42 		.ascii	"CY_BLE_EVT_MEMORY_REQUEST\000"
 7071      4C455F45 
 7071      56545F4D 
 7071      454D4F52 
 7071      595F5245 
 7072              	.LASF209:
 7073 0af1 75696E74 		.ascii	"uint64_t\000"
 7073      36345F74 
 7073      00
 7074              	.LASF263:
 7075 0afa 434C4B5F 		.ascii	"CLK_FLL_CONFIG\000"
 7075      464C4C5F 
 7075      434F4E46 
 7075      494700
 7076              	.LASF430:
 7077 0b09 61636365 		.ascii	"acceptAddrInFifo\000"
 7077      70744164 
 7077      6472496E 
 7077      4669666F 
 7077      00
 7078              	.LASF41:
 7079 0b1a 696F7373 		.ascii	"ioss_interrupts_gpio_0_IRQn\000"
 7079      5F696E74 
 7079      65727275 
 7079      7074735F 
 7079      6770696F 
 7080              	.LASF73:
 7081 0b36 63707573 		.ascii	"cpuss_interrupts_ipc_7_IRQn\000"
 7081      735F696E 
 7081      74657272 
 7081      75707473 
 7081      5F697063 
 7082              	.LASF389:
 7083 0b52 736C6176 		.ascii	"slaveTxBufferIdx\000"
 7083      65547842 
ARM GAS  C:\Users\salaz\AppData\Local\Temp\ccvE4Xni.s 			page 170


 7083      75666665 
 7083      72496478 
 7083      00
 7084              	.LASF571:
 7085 0b63 43595F42 		.ascii	"CY_BLE_EVT_L2CAP_CBFC_RX_CREDIT_IND\000"
 7085      4C455F45 
 7085      56545F4C 
 7085      32434150 
 7085      5F434246 
 7086              	.LASF558:
 7087 0b87 43595F42 		.ascii	"CY_BLE_EVT_GATTS_HANDLE_VALUE_CNF\000"
 7087      4C455F45 
 7087      56545F47 
 7087      41545453 
 7087      5F48414E 
 7088              	.LASF49:
 7089 0ba9 696F7373 		.ascii	"ioss_interrupts_gpio_8_IRQn\000"
 7089      5F696E74 
 7089      65727275 
 7089      7074735F 
 7089      6770696F 
 7090              	.LASF89:
 7091 0bc5 7363625F 		.ascii	"scb_7_interrupt_IRQn\000"
 7091      375F696E 
 7091      74657272 
 7091      7570745F 
 7091      4952516E 
 7092              	.LASF391:
 7093 0bda 736C6176 		.ascii	"slaveRxBuffer\000"
 7093      65527842 
 7093      75666665 
 7093      7200
 7094              	.LASF211:
 7095 0be8 52455345 		.ascii	"RESERVED0\000"
 7095      52564544 
 7095      3000
 7096              	.LASF232:
 7097 0bf2 52455345 		.ascii	"RESERVED1\000"
 7097      52564544 
 7097      3100
 7098              	.LASF189:
 7099 0bfc 756E7369 		.ascii	"unsigned char\000"
 7099      676E6564 
 7099      20636861 
 7099      7200
 7100              	.LASF217:
 7101 0c0a 52455345 		.ascii	"RESERVED3\000"
 7101      52564544 
 7101      3300
 7102              	.LASF218:
 7103 0c14 52455345 		.ascii	"RESERVED4\000"
 7103      52564544 
 7103      3400
 7104              	.LASF250:
 7105 0c1e 52455345 		.ascii	"RESERVED5\000"
 7105      52564544 
 7105      3500
ARM GAS  C:\Users\salaz\AppData\Local\Temp\ccvE4Xni.s 			page 171


 7106              	.LASF257:
 7107 0c28 52455345 		.ascii	"RESERVED6\000"
 7107      52564544 
 7107      3600
 7108              	.LASF260:
 7109 0c32 52455345 		.ascii	"RESERVED7\000"
 7109      52564544 
 7109      3700
 7110              	.LASF262:
 7111 0c3c 52455345 		.ascii	"RESERVED8\000"
 7111      52564544 
 7111      3800
 7112              	.LASF268:
 7113 0c46 52455345 		.ascii	"RESERVED9\000"
 7113      52564544 
 7113      3900
 7114              	.LASF600:
 7115 0c50 43795F4D 		.ascii	"Cy_MCWDT_GetInterruptStatus\000"
 7115      43574454 
 7115      5F476574 
 7115      496E7465 
 7115      72727570 
 7116              	.LASF437:
 7117 0c6c 72747350 		.ascii	"rtsPolarity\000"
 7117      6F6C6172 
 7117      69747900 
 7118              	.LASF27:
 7119 0c78 4E766963 		.ascii	"NvicMux21_IRQn\000"
 7119      4D757832 
 7119      315F4952 
 7119      516E00
 7120              	.LASF588:
 7121 0c87 43595F42 		.ascii	"CY_BLE_CONN_STATE_CLIENT_CHAR_DISCOVERING\000"
 7121      4C455F43 
 7121      4F4E4E5F 
 7121      53544154 
 7121      455F434C 
 7122              	.LASF261:
 7123 0cb1 434C4B5F 		.ascii	"CLK_PILO_CONFIG\000"
 7123      50494C4F 
 7123      5F434F4E 
 7123      46494700 
 7124              	.LASF545:
 7125 0cc1 43595F42 		.ascii	"CY_BLE_EVT_GATTC_FIND_INFO_RSP\000"
 7125      4C455F45 
 7125      56545F47 
 7125      41545443 
 7125      5F46494E 
 7126              	.LASF513:
 7127 0ce0 43595F42 		.ascii	"CY_BLE_EVT_GAP_PASSKEY_ENTRY_REQUEST\000"
 7127      4C455F45 
 7127      56545F47 
 7127      41505F50 
 7127      4153534B 
 7128              	.LASF470:
 7129 0d05 43595F42 		.ascii	"CY_BLE_EVT_LE_SET_EVENT_MASK_COMPLETE\000"
 7129      4C455F45 
ARM GAS  C:\Users\salaz\AppData\Local\Temp\ccvE4Xni.s 			page 172


 7129      56545F4C 
 7129      455F5345 
 7129      545F4556 
 7130              	.LASF467:
 7131 0d2b 43595F42 		.ascii	"CY_BLE_EVT_WRITE_AUTH_PAYLOAD_TO_COMPLETE\000"
 7131      4C455F45 
 7131      56545F57 
 7131      52495445 
 7131      5F415554 
 7132              	.LASF644:
 7133 0d55 4D6F746F 		.ascii	"MotorOutput_config\000"
 7133      724F7574 
 7133      7075745F 
 7133      636F6E66 
 7133      696700
 7134              	.LASF632:
 7135 0d68 63795F62 		.ascii	"cy_ble_connHandle\000"
 7135      6C655F63 
 7135      6F6E6E48 
 7135      616E646C 
 7135      6500
 7136              	.LASF38:
 7137 0d7a 756E636F 		.ascii	"unconnected_IRQn\000"
 7137      6E6E6563 
 7137      7465645F 
 7137      4952516E 
 7137      00
 7138              	.LASF293:
 7139 0d8b 434C4B5F 		.ascii	"CLK_TRIM_ECO_CTL\000"
 7139      5452494D 
 7139      5F45434F 
 7139      5F43544C 
 7139      00
 7140              	.LASF314:
 7141 0d9c 5F426F6F 		.ascii	"_Bool\000"
 7141      6C00
 7142              	.LASF234:
 7143 0da2 5057525F 		.ascii	"PWR_CTL\000"
 7143      43544C00 
 7144              	.LASF233:
 7145 0daa 4D435744 		.ascii	"MCWDT_STRUCT_Type\000"
 7145      545F5354 
 7145      52554354 
 7145      5F547970 
 7145      6500
 7146              	.LASF655:
 7147 0dbc 474E5520 		.ascii	"GNU C11 5.4.1 20160609 (release) [ARM/embedded-5-br"
 7147      43313120 
 7147      352E342E 
 7147      31203230 
 7147      31363036 
 7148 0def 616E6368 		.ascii	"anch revision 237715] -mcpu=cortex-m0plus -mthumb -"
 7148      20726576 
 7148      6973696F 
 7148      6E203233 
 7148      37373135 
 7149 0e22 67202D4F 		.ascii	"g -Og -ffunction-sections -ffat-lto-objects\000"
ARM GAS  C:\Users\salaz\AppData\Local\Temp\ccvE4Xni.s 			page 173


 7149      67202D66 
 7149      66756E63 
 7149      74696F6E 
 7149      2D736563 
 7150              	.LASF105:
 7151 0e4e 63707573 		.ascii	"cpuss_interrupts_dw0_14_IRQn\000"
 7151      735F696E 
 7151      74657272 
 7151      75707473 
 7151      5F647730 
 7152              	.LASF225:
 7153 0e6b 4D435744 		.ascii	"MCWDT_CONFIG\000"
 7153      545F434F 
 7153      4E464947 
 7153      00
 7154              	.LASF156:
 7155 0e78 74637077 		.ascii	"tcpwm_1_interrupts_17_IRQn\000"
 7155      6D5F315F 
 7155      696E7465 
 7155      72727570 
 7155      74735F31 
 7156              	.LASF300:
 7157 0e93 63686172 		.ascii	"char\000"
 7157      00
 7158              	.LASF560:
 7159 0e98 43595F42 		.ascii	"CY_BLE_EVT_GATTC_STOP_CMD_COMPLETE\000"
 7159      4C455F45 
 7159      56545F47 
 7159      41545443 
 7159      5F53544F 
 7160              	.LASF325:
 7161 0ebb 63795F73 		.ascii	"cy_stc_mcwdt_config_t\000"
 7161      74635F6D 
 7161      63776474 
 7161      5F636F6E 
 7161      6669675F 
 7162              	.LASF185:
 7163 0ed1 7573625F 		.ascii	"usb_interrupt_med_IRQn\000"
 7163      696E7465 
 7163      72727570 
 7163      745F6D65 
 7163      645F4952 
 7164              	.LASF224:
 7165 0ee8 4D435744 		.ascii	"MCWDT_MATCH\000"
 7165      545F4D41 
 7165      54434800 
 7166              	.LASF647:
 7167 0ef4 4368696D 		.ascii	"ChimeTimer_config\000"
 7167      6554696D 
 7167      65725F63 
 7167      6F6E6669 
 7167      6700
 7168              	.LASF519:
 7169 0f06 43595F42 		.ascii	"CY_BLE_EVT_GAP_DEVICE_DISCONNECTED\000"
 7169      4C455F45 
 7169      56545F47 
 7169      41505F44 
ARM GAS  C:\Users\salaz\AppData\Local\Temp\ccvE4Xni.s 			page 174


 7169      45564943 
 7170              	.LASF98:
 7171 0f29 63707573 		.ascii	"cpuss_interrupts_dw0_7_IRQn\000"
 7171      735F696E 
 7171      74657272 
 7171      75707473 
 7171      5F647730 
 7172              	.LASF485:
 7173 0f45 43595F42 		.ascii	"CY_BLE_EVT_GET_PHY_COMPLETE\000"
 7173      4C455F45 
 7173      56545F47 
 7173      45545F50 
 7173      48595F43 
 7174              	.LASF487:
 7175 0f61 43595F42 		.ascii	"CY_BLE_EVT_SET_PHY_COMPLETE\000"
 7175      4C455F45 
 7175      56545F53 
 7175      45545F50 
 7175      48595F43 
 7176              	.LASF502:
 7177 0f7d 43595F42 		.ascii	"CY_BLE_EVT_AES_CCM_DECRYPT_COMPLETE\000"
 7177      4C455F45 
 7177      56545F41 
 7177      45535F43 
 7177      434D5F44 
 7178              	.LASF335:
 7179 0fa1 72756E4D 		.ascii	"runMode\000"
 7179      6F646500 
 7180              	.LASF141:
 7181 0fa9 74637077 		.ascii	"tcpwm_1_interrupts_2_IRQn\000"
 7181      6D5F315F 
 7181      696E7465 
 7181      72727570 
 7181      74735F32 
 7182              	.LASF72:
 7183 0fc3 63707573 		.ascii	"cpuss_interrupts_ipc_6_IRQn\000"
 7183      735F696E 
 7183      74657272 
 7183      75707473 
 7183      5F697063 
 7184              	.LASF228:
 7185 0fdf 4D435744 		.ascii	"MCWDT_INTR_SET\000"
 7185      545F494E 
 7185      54525F53 
 7185      455400
 7186              	.LASF48:
 7187 0fee 696F7373 		.ascii	"ioss_interrupts_gpio_7_IRQn\000"
 7187      5F696E74 
 7187      65727275 
 7187      7074735F 
 7187      6770696F 
 7188              	.LASF22:
 7189 100a 4E766963 		.ascii	"NvicMux16_IRQn\000"
 7189      4D757831 
 7189      365F4952 
 7189      516E00
 7190              	.LASF635:
ARM GAS  C:\Users\salaz\AppData\Local\Temp\ccvE4Xni.s 			page 175


 7191 1019 57617463 		.ascii	"WatchDog_IRQ_cfg\000"
 7191      68446F67 
 7191      5F495251 
 7191      5F636667 
 7191      00
 7192              	.LASF641:
 7193 102a 4C696768 		.ascii	"LightOutputA_config\000"
 7193      744F7574 
 7193      70757441 
 7193      5F636F6E 
 7193      66696700 
 7194              	.LASF334:
 7195 103e 636C6F63 		.ascii	"clockPrescaler\000"
 7195      6B507265 
 7195      7363616C 
 7195      657200
 7196              	.LASF511:
 7197 104d 43595F42 		.ascii	"CY_BLE_EVT_GAPC_SCAN_PROGRESS_RESULT\000"
 7197      4C455F45 
 7197      56545F47 
 7197      4150435F 
 7197      5343414E 
 7198              	.LASF215:
 7199 1072 52455345 		.ascii	"RESERVED2\000"
 7199      52564544 
 7199      3200
 7200              	.LASF326:
 7201 107c 43595F4D 		.ascii	"CY_MCWDT_COUNTER0\000"
 7201      43574454 
 7201      5F434F55 
 7201      4E544552 
 7201      3000
 7202              	.LASF327:
 7203 108e 43595F4D 		.ascii	"CY_MCWDT_COUNTER1\000"
 7203      43574454 
 7203      5F434F55 
 7203      4E544552 
 7203      3100
 7204              	.LASF328:
 7205 10a0 43595F4D 		.ascii	"CY_MCWDT_COUNTER2\000"
 7205      43574454 
 7205      5F434F55 
 7205      4E544552 
 7205      3200
 7206              	.LASF424:
 7207 10b2 656E6162 		.ascii	"enableInputFilter\000"
 7207      6C65496E 
 7207      70757446 
 7207      696C7465 
 7207      7200
 7208              	.LASF527:
 7209 10c4 43595F42 		.ascii	"CY_BLE_EVT_GAP_ENHANCE_CONN_COMPLETE\000"
 7209      4C455F45 
 7209      56545F47 
 7209      41505F45 
 7209      4E48414E 
 7210              	.LASF82:
ARM GAS  C:\Users\salaz\AppData\Local\Temp\ccvE4Xni.s 			page 176


 7211 10e9 7363625F 		.ascii	"scb_0_interrupt_IRQn\000"
 7211      305F696E 
 7211      74657272 
 7211      7570745F 
 7211      4952516E 
 7212              	.LASF294:
 7213 10fe 434C4B5F 		.ascii	"CLK_TRIM_PILO_CTL\000"
 7213      5452494D 
 7213      5F50494C 
 7213      4F5F4354 
 7213      4C00
 7214              	.LASF563:
 7215 1110 43595F42 		.ascii	"CY_BLE_EVT_L2CAP_CONN_PARAM_UPDATE_REQ\000"
 7215      4C455F45 
 7215      56545F4C 
 7215      32434150 
 7215      5F434F4E 
 7216              	.LASF657:
 7217 1137 433A5C55 		.ascii	"C:\\Users\\salaz\\Desktop\\SmartHandle\\SmartHandle"
 7217      73657273 
 7217      5C73616C 
 7217      617A5C44 
 7217      65736B74 
 7218 1165 2E637964 		.ascii	".cydsn\000"
 7218      736E00
 7219              	.LASF201:
 7220 116c 6C6F6E67 		.ascii	"long long int\000"
 7220      206C6F6E 
 7220      6720696E 
 7220      7400
 7221              	.LASF319:
 7222 117a 6332546F 		.ascii	"c2ToggleBit\000"
 7222      67676C65 
 7222      42697400 
 7223              	.LASF247:
 7224 1186 434C4B5F 		.ascii	"CLK_ROOT_SELECT\000"
 7224      524F4F54 
 7224      5F53454C 
 7224      45435400 
 7225              	.LASF530:
 7226 1196 43595F42 		.ascii	"CY_BLE_EVT_GAP_DEVICE_ADDR_GEN_COMPLETE\000"
 7226      4C455F45 
 7226      56545F47 
 7226      41505F44 
 7226      45564943 
 7227              	.LASF118:
 7228 11be 63707573 		.ascii	"cpuss_interrupts_dw1_11_IRQn\000"
 7228      735F696E 
 7228      74657272 
 7228      75707473 
 7228      5F647731 
 7229              	.LASF230:
 7230 11db 4D435744 		.ascii	"MCWDT_INTR_MASKED\000"
 7230      545F494E 
 7230      54525F4D 
 7230      41534B45 
 7230      4400
ARM GAS  C:\Users\salaz\AppData\Local\Temp\ccvE4Xni.s 			page 177


 7231              	.LASF386:
 7232 11ed 736C6176 		.ascii	"slaveRdBufEmpty\000"
 7232      65526442 
 7232      7566456D 
 7232      70747900 
 7233              	.LASF408:
 7234 11fd 63795F65 		.ascii	"cy_en_scb_uart_stop_bits_t\000"
 7234      6E5F7363 
 7234      625F7561 
 7234      72745F73 
 7234      746F705F 
 7235              	.LASF91:
 7236 1218 63707573 		.ascii	"cpuss_interrupts_dw0_0_IRQn\000"
 7236      735F696E 
 7236      74657272 
 7236      75707473 
 7236      5F647730 
 7237              	.LASF399:
 7238 1234 43595F53 		.ascii	"CY_SCB_UART_IRDA\000"
 7238      43425F55 
 7238      4152545F 
 7238      49524441 
 7238      00
 7239              	.LASF551:
 7240 1245 43595F42 		.ascii	"CY_BLE_EVT_GATTC_WRITE_RSP\000"
 7240      4C455F45 
 7240      56545F47 
 7240      41545443 
 7240      5F575249 
 7241              	.LASF214:
 7242 1260 49535052 		.ascii	"ISPR\000"
 7242      00
 7243              	.LASF154:
 7244 1265 74637077 		.ascii	"tcpwm_1_interrupts_15_IRQn\000"
 7244      6D5F315F 
 7244      696E7465 
 7244      72727570 
 7244      74735F31 
 7245              	.LASF155:
 7246 1280 74637077 		.ascii	"tcpwm_1_interrupts_16_IRQn\000"
 7246      6D5F315F 
 7246      696E7465 
 7246      72727570 
 7246      74735F31 
 7247              	.LASF443:
 7248 129b 63795F73 		.ascii	"cy_stc_scb_uart_config_t\000"
 7248      74635F73 
 7248      63625F75 
 7248      6172745F 
 7248      636F6E66 
 7249              	.LASF307:
 7250 12b4 43595F53 		.ascii	"CY_SYSINT_SUCCESS\000"
 7250      5953494E 
 7250      545F5355 
 7250      43434553 
 7250      5300
 7251              	.LASF468:
ARM GAS  C:\Users\salaz\AppData\Local\Temp\ccvE4Xni.s 			page 178


 7252 12c6 43595F42 		.ascii	"CY_BLE_EVT_READ_AUTH_PAYLOAD_TO_COMPLETE\000"
 7252      4C455F45 
 7252      56545F52 
 7252      4541445F 
 7252      41555448 
 7253              	.LASF653:
 7254 12ef 43795F4D 		.ascii	"Cy_MCWDT_Init\000"
 7254      43574454 
 7254      5F496E69 
 7254      7400
 7255              	.LASF32:
 7256 12fd 4E766963 		.ascii	"NvicMux26_IRQn\000"
 7256      4D757832 
 7256      365F4952 
 7256      516E00
 7257              	.LASF390:
 7258 130c 736C6176 		.ascii	"slaveTxBufferCnt\000"
 7258      65547842 
 7258      75666665 
 7258      72436E74 
 7258      00
 7259              	.LASF246:
 7260 131d 434C4B5F 		.ascii	"CLK_PATH_SELECT\000"
 7260      50415448 
 7260      5F53454C 
 7260      45435400 
 7261              	.LASF648:
 7262 132d 6E756D5F 		.ascii	"num_timers\000"
 7262      74696D65 
 7262      727300
 7263              	.LASF556:
 7264 1338 43595F42 		.ascii	"CY_BLE_EVT_GATTC_HANDLE_VALUE_NTF\000"
 7264      4C455F45 
 7264      56545F47 
 7264      41545443 
 7264      5F48414E 
 7265              	.LASF526:
 7266 135a 43595F42 		.ascii	"CY_BLE_EVT_GAP_OOB_GENERATED_NOTIFICATION\000"
 7266      4C455F45 
 7266      56545F47 
 7266      41505F4F 
 7266      4F425F47 
 7267              	.LASF255:
 7268 1384 434C4B5F 		.ascii	"CLK_CAL_CNT1\000"
 7268      43414C5F 
 7268      434E5431 
 7268      00
 7269              	.LASF256:
 7270 1391 434C4B5F 		.ascii	"CLK_CAL_CNT2\000"
 7270      43414C5F 
 7270      434E5432 
 7270      00
 7271              	.LASF172:
 7272 139e 7564625F 		.ascii	"udb_interrupts_9_IRQn\000"
 7272      696E7465 
 7272      72727570 
 7272      74735F39 
ARM GAS  C:\Users\salaz\AppData\Local\Temp\ccvE4Xni.s 			page 179


 7272      5F495251 
 7273              	.LASF354:
 7274 13b4 63795F73 		.ascii	"cy_stc_tcpwm_pwm_config\000"
 7274      74635F74 
 7274      6370776D 
 7274      5F70776D 
 7274      5F636F6E 
 7275              	.LASF80:
 7276 13cc 63707573 		.ascii	"cpuss_interrupts_ipc_14_IRQn\000"
 7276      735F696E 
 7276      74657272 
 7276      75707473 
 7276      5F697063 
 7277              	.LASF486:
 7278 13e9 43595F42 		.ascii	"CY_BLE_EVT_SET_DEFAULT_PHY_COMPLETE\000"
 7278      4C455F45 
 7278      56545F53 
 7278      45545F44 
 7278      45464155 
 7279              	.LASF598:
 7280 140d 6D617463 		.ascii	"match\000"
 7280      6800
 7281              	.LASF159:
 7282 1413 74637077 		.ascii	"tcpwm_1_interrupts_20_IRQn\000"
 7282      6D5F315F 
 7282      696E7465 
 7282      72727570 
 7282      74735F32 
 7283              	.LASF187:
 7284 142e 70617373 		.ascii	"pass_interrupt_dacs_IRQn\000"
 7284      5F696E74 
 7284      65727275 
 7284      70745F64 
 7284      6163735F 
 7285              	.LASF221:
 7286 1447 52455345 		.ascii	"RESERVED\000"
 7286      52564544 
 7286      00
 7287              	.LASF112:
 7288 1450 63707573 		.ascii	"cpuss_interrupts_dw1_5_IRQn\000"
 7288      735F696E 
 7288      74657272 
 7288      75707473 
 7288      5F647731 
 7289              	.LASF124:
 7290 146c 63707573 		.ascii	"cpuss_interrupts_fault_1_IRQn\000"
 7290      735F696E 
 7290      74657272 
 7290      75707473 
 7290      5F666175 
 7291              	.LASF336:
 7292 148a 636F756E 		.ascii	"countDirection\000"
 7292      74446972 
 7292      65637469 
 7292      6F6E00
 7293              	.LASF369:
 7294 1499 43595F53 		.ascii	"CY_SCB_I2C_ACK\000"
ARM GAS  C:\Users\salaz\AppData\Local\Temp\ccvE4Xni.s 			page 180


 7294      43425F49 
 7294      32435F41 
 7294      434B00
 7295              	.LASF223:
 7296 14a8 4D435744 		.ascii	"MCWDT_CNTHIGH\000"
 7296      545F434E 
 7296      54484947 
 7296      4800
 7297              	.LASF538:
 7298 14b6 43595F42 		.ascii	"CY_BLE_EVT_GATTC_ERROR_RSP\000"
 7298      4C455F45 
 7298      56545F47 
 7298      41545443 
 7298      5F455252 
 7299              	.LASF553:
 7300 14d1 43595F42 		.ascii	"CY_BLE_EVT_GATTS_PREP_WRITE_REQ\000"
 7300      4C455F45 
 7300      56545F47 
 7300      41545453 
 7300      5F505245 
 7301              	.LASF572:
 7302 14f1 43595F42 		.ascii	"CY_BLE_EVT_L2CAP_CBFC_TX_CREDIT_IND\000"
 7302      4C455F45 
 7302      56545F4C 
 7302      32434150 
 7302      5F434246 
 7303              	.LASF113:
 7304 1515 63707573 		.ascii	"cpuss_interrupts_dw1_6_IRQn\000"
 7304      735F696E 
 7304      74657272 
 7304      75707473 
 7304      5F647731 
 7305              	.LASF165:
 7306 1531 7564625F 		.ascii	"udb_interrupts_2_IRQn\000"
 7306      696E7465 
 7306      72727570 
 7306      74735F32 
 7306      5F495251 
 7307              	.LASF363:
 7308 1547 6B696C6C 		.ascii	"killMode\000"
 7308      4D6F6465 
 7308      00
 7309              	.LASF566:
 7310 1550 43595F42 		.ascii	"CY_BLE_EVT_L2CAP_CBFC_CONN_IND\000"
 7310      4C455F45 
 7310      56545F4C 
 7310      32434150 
 7310      5F434246 
 7311              	.LASF409:
 7312 156f 43595F53 		.ascii	"CY_SCB_UART_PARITY_NONE\000"
 7312      43425F55 
 7312      4152545F 
 7312      50415249 
 7312      54595F4E 
 7313              	.LASF235:
 7314 1587 5057525F 		.ascii	"PWR_HIBERNATE\000"
 7314      48494245 
ARM GAS  C:\Users\salaz\AppData\Local\Temp\ccvE4Xni.s 			page 181


 7314      524E4154 
 7314      4500
 7315              	.LASF133:
 7316 1595 74637077 		.ascii	"tcpwm_0_interrupts_2_IRQn\000"
 7316      6D5F305F 
 7316      696E7465 
 7316      72727570 
 7316      74735F32 
 7317              	.LASF494:
 7318 15af 43595F42 		.ascii	"CY_BLE_EVT_GET_RSSI_COMPLETE\000"
 7318      4C455F45 
 7318      56545F47 
 7318      45545F52 
 7318      5353495F 
 7319              	.LASF382:
 7320 15cc 6D617374 		.ascii	"masterBufferSize\000"
 7320      65724275 
 7320      66666572 
 7320      53697A65 
 7320      00
 7321              	.LASF280:
 7322 15dd 5245535F 		.ascii	"RES_CAUSE2\000"
 7322      43415553 
 7322      453200
 7323              	.LASF361:
 7324 15e8 696E7665 		.ascii	"invertPWMOut\000"
 7324      72745057 
 7324      4D4F7574 
 7324      00
 7325              	.LASF1:
 7326 15f5 4E6F6E4D 		.ascii	"NonMaskableInt_IRQn\000"
 7326      61736B61 
 7326      626C6549 
 7326      6E745F49 
 7326      52516E00 
 7327              	.LASF202:
 7328 1609 5F5F7569 		.ascii	"__uint64_t\000"
 7328      6E743634 
 7328      5F7400
 7329              	.LASF248:
 7330 1614 434C4B5F 		.ascii	"CLK_SELECT\000"
 7330      53454C45 
 7330      435400
 7331              	.LASF623:
 7332 161f 74696D65 		.ascii	"timer_match_index\000"
 7332      725F6D61 
 7332      7463685F 
 7332      696E6465 
 7332      7800
 7333              	.LASF543:
 7334 1631 43595F42 		.ascii	"CY_BLE_EVT_GATTC_READ_BY_GROUP_TYPE_RSP\000"
 7334      4C455F45 
 7334      56545F47 
 7334      41545443 
 7334      5F524541 
 7335              	.LASF200:
 7336 1659 6C6F6E67 		.ascii	"long unsigned int\000"
ARM GAS  C:\Users\salaz\AppData\Local\Temp\ccvE4Xni.s 			page 182


 7336      20756E73 
 7336      69676E65 
 7336      6420696E 
 7336      7400
 7337              	.LASF316:
 7338 166b 63314D61 		.ascii	"c1Match\000"
 7338      74636800 
 7339              	.LASF311:
 7340 1673 636D3070 		.ascii	"cm0pSrc\000"
 7340      53726300 
 7341              	.LASF522:
 7342 167b 43595F42 		.ascii	"CY_BLE_EVT_GAPC_SCAN_START_STOP\000"
 7342      4C455F45 
 7342      56545F47 
 7342      4150435F 
 7342      5343414E 
 7343              	.LASF12:
 7344 169b 4E766963 		.ascii	"NvicMux6_IRQn\000"
 7344      4D757836 
 7344      5F495251 
 7344      6E00
 7345              	.LASF371:
 7346 16a9 63795F65 		.ascii	"cy_en_scb_i2c_command_t\000"
 7346      6E5F7363 
 7346      625F6932 
 7346      635F636F 
 7346      6D6D616E 
 7347              	.LASF478:
 7348 16c1 43595F42 		.ascii	"CY_BLE_EVT_SET_RPA_TO_COMPLETE\000"
 7348      4C455F45 
 7348      56545F53 
 7348      45545F52 
 7348      50415F54 
 7349              	.LASF313:
 7350 16e0 63795F73 		.ascii	"cy_stc_sysint_t\000"
 7350      74635F73 
 7350      7973696E 
 7350      745F7400 
 7351              	.LASF190:
 7352 16f0 4952516E 		.ascii	"IRQn_Type\000"
 7352      5F547970 
 7352      6500
 7353              	.LASF431:
 7354 16fa 69726461 		.ascii	"irdaInvertRx\000"
 7354      496E7665 
 7354      72745278 
 7354      00
 7355              	.LASF128:
 7356 1707 63707573 		.ascii	"cpuss_interrupts_cm0_cti_1_IRQn\000"
 7356      735F696E 
 7356      74657272 
 7356      75707473 
 7356      5F636D30 
 7357              	.LASF565:
 7358 1727 43595F42 		.ascii	"CY_BLE_EVT_L2CAP_COMMAND_REJ\000"
 7358      4C455F45 
 7358      56545F4C 
ARM GAS  C:\Users\salaz\AppData\Local\Temp\ccvE4Xni.s 			page 183


 7358      32434150 
 7358      5F434F4D 
 7359              	.LASF420:
 7360 1744 64617461 		.ascii	"dataWidth\000"
 7360      57696474 
 7360      6800
 7361              	.LASF385:
 7362 174e 736C6176 		.ascii	"slaveStatus\000"
 7362      65537461 
 7362      74757300 
 7363              	.LASF540:
 7364 175a 43595F42 		.ascii	"CY_BLE_EVT_GATT_DISCONNECT_IND\000"
 7364      4C455F45 
 7364      56545F47 
 7364      4154545F 
 7364      44495343 
 7365              	.LASF449:
 7366 1779 72785269 		.ascii	"rxRingBufHead\000"
 7366      6E674275 
 7366      66486561 
 7366      6400
 7367              	.LASF425:
 7368 1787 64726F70 		.ascii	"dropOnParityError\000"
 7368      4F6E5061 
 7368      72697479 
 7368      4572726F 
 7368      7200
 7369              	.LASF592:
 7370 1799 72656D61 		.ascii	"remaining\000"
 7370      696E696E 
 7370      6700
 7371              	.LASF264:
 7372 17a3 434C4B5F 		.ascii	"CLK_FLL_CONFIG2\000"
 7372      464C4C5F 
 7372      434F4E46 
 7372      49473200 
 7373              	.LASF283:
 7374 17b3 5057525F 		.ascii	"PWR_TRIM_BODOVP_CTL\000"
 7374      5452494D 
 7374      5F424F44 
 7374      4F56505F 
 7374      43544C00 
 7375              	.LASF266:
 7376 17c7 434C4B5F 		.ascii	"CLK_FLL_CONFIG4\000"
 7376      464C4C5F 
 7376      434F4E46 
 7376      49473400 
 7377              	.LASF417:
 7378 17d7 7374635F 		.ascii	"stc_scb_uart_config\000"
 7378      7363625F 
 7378      75617274 
 7378      5F636F6E 
 7378      66696700 
 7379              	.LASF175:
 7380 17eb 7564625F 		.ascii	"udb_interrupts_12_IRQn\000"
 7380      696E7465 
 7380      72727570 
ARM GAS  C:\Users\salaz\AppData\Local\Temp\ccvE4Xni.s 			page 184


 7380      74735F31 
 7380      325F4952 
 7381              	.LASF546:
 7382 1802 43595F42 		.ascii	"CY_BLE_EVT_GATTC_FIND_BY_TYPE_VALUE_RSP\000"
 7382      4C455F45 
 7382      56545F47 
 7382      41545443 
 7382      5F46494E 
 7383              	.LASF144:
 7384 182a 74637077 		.ascii	"tcpwm_1_interrupts_5_IRQn\000"
 7384      6D5F315F 
 7384      696E7465 
 7384      72727570 
 7384      74735F35 
 7385              	.LASF75:
 7386 1844 63707573 		.ascii	"cpuss_interrupts_ipc_9_IRQn\000"
 7386      735F696E 
 7386      74657272 
 7386      75707473 
 7386      5F697063 
 7387              	.LASF25:
 7388 1860 4E766963 		.ascii	"NvicMux19_IRQn\000"
 7388      4D757831 
 7388      395F4952 
 7388      516E00
 7389              	.LASF353:
 7390 186f 63795F73 		.ascii	"cy_stc_tcpwm_counter_config\000"
 7390      74635F74 
 7390      6370776D 
 7390      5F636F75 
 7390      6E746572 
 7391              	.LASF613:
 7392 188b 43795F4D 		.ascii	"Cy_MCWDT_ResetCounters\000"
 7392      43574454 
 7392      5F526573 
 7392      6574436F 
 7392      756E7465 
 7393              	.LASF503:
 7394 18a2 43595F42 		.ascii	"CY_BLE_EVT_SET_SLAVE_LATENCY_MODE_COMPLETE\000"
 7394      4C455F45 
 7394      56545F53 
 7394      45545F53 
 7394      4C415645 
 7395              	.LASF401:
 7396 18cd 43595F53 		.ascii	"CY_SCB_UART_STOP_BITS_1\000"
 7396      43425F55 
 7396      4152545F 
 7396      53544F50 
 7396      5F424954 
 7397              	.LASF240:
 7398 18e5 5057525F 		.ascii	"PWR_HIB_DATA\000"
 7398      4849425F 
 7398      44415441 
 7398      00
 7399              	.LASF116:
 7400 18f2 63707573 		.ascii	"cpuss_interrupts_dw1_9_IRQn\000"
 7400      735F696E 
ARM GAS  C:\Users\salaz\AppData\Local\Temp\ccvE4Xni.s 			page 185


 7400      74657272 
 7400      75707473 
 7400      5F647731 
 7401              	.LASF586:
 7402 190e 43595F42 		.ascii	"CY_BLE_CONN_STATE_CLIENT_SRVC_DISCOVERING\000"
 7402      4C455F43 
 7402      4F4E4E5F 
 7402      53544154 
 7402      455F434C 
 7403              	.LASF499:
 7404 1938 43595F42 		.ascii	"CY_BLE_EVT_RANDOM_NUM_GEN_COMPLETE\000"
 7404      4C455F45 
 7404      56545F52 
 7404      414E444F 
 7404      4D5F4E55 
 7405              	.LASF52:
 7406 195b 696F7373 		.ascii	"ioss_interrupts_gpio_11_IRQn\000"
 7406      5F696E74 
 7406      65727275 
 7406      7074735F 
 7406      6770696F 
 7407              	.LASF547:
 7408 1978 43595F42 		.ascii	"CY_BLE_EVT_GATTC_READ_RSP\000"
 7408      4C455F45 
 7408      56545F47 
 7408      41545443 
 7408      5F524541 
 7409              	.LASF101:
 7410 1992 63707573 		.ascii	"cpuss_interrupts_dw0_10_IRQn\000"
 7410      735F696E 
 7410      74657272 
 7410      75707473 
 7410      5F647730 
 7411              	.LASF341:
 7412 19af 696E7465 		.ascii	"interruptSources\000"
 7412      72727570 
 7412      74536F75 
 7412      72636573 
 7412      00
 7413              	.LASF388:
 7414 19c0 736C6176 		.ascii	"slaveTxBufferSize\000"
 7414      65547842 
 7414      75666665 
 7414      7253697A 
 7414      6500
 7415              	.LASF43:
 7416 19d2 696F7373 		.ascii	"ioss_interrupts_gpio_2_IRQn\000"
 7416      5F696E74 
 7416      65727275 
 7416      7074735F 
 7416      6770696F 
 7417              	.LASF121:
 7418 19ee 63707573 		.ascii	"cpuss_interrupts_dw1_14_IRQn\000"
 7418      735F696E 
 7418      74657272 
 7418      75707473 
 7418      5F647731 
ARM GAS  C:\Users\salaz\AppData\Local\Temp\ccvE4Xni.s 			page 186


 7419              	.LASF364:
 7420 1a0b 73776170 		.ascii	"swapInputMode\000"
 7420      496E7075 
 7420      744D6F64 
 7420      6500
 7421              	.LASF94:
 7422 1a19 63707573 		.ascii	"cpuss_interrupts_dw0_3_IRQn\000"
 7422      735F696E 
 7422      74657272 
 7422      75707473 
 7422      5F647730 
 7423              	.LASF199:
 7424 1a35 5F5F7569 		.ascii	"__uint32_t\000"
 7424      6E743332 
 7424      5F7400
 7425              	.LASF317:
 7426 1a40 63304D6F 		.ascii	"c0Mode\000"
 7426      646500
 7427              	.LASF332:
 7428 1a47 63795F65 		.ascii	"cy_en_mcwdt_status_t\000"
 7428      6E5F6D63 
 7428      7764745F 
 7428      73746174 
 7428      75735F74 
 7429              	.LASF68:
 7430 1a5c 63707573 		.ascii	"cpuss_interrupts_ipc_2_IRQn\000"
 7430      735F696E 
 7430      74657272 
 7430      75707473 
 7430      5F697063 
 7431              	.LASF136:
 7432 1a78 74637077 		.ascii	"tcpwm_0_interrupts_5_IRQn\000"
 7432      6D5F305F 
 7432      696E7465 
 7432      72727570 
 7432      74735F35 
 7433              	.LASF44:
 7434 1a92 696F7373 		.ascii	"ioss_interrupts_gpio_3_IRQn\000"
 7434      5F696E74 
 7434      65727275 
 7434      7074735F 
 7434      6770696F 
 7435              	.LASF158:
 7436 1aae 74637077 		.ascii	"tcpwm_1_interrupts_19_IRQn\000"
 7436      6D5F315F 
 7436      696E7465 
 7436      72727570 
 7436      74735F31 
 7437              	.LASF484:
 7438 1ac9 43595F42 		.ascii	"CY_BLE_EVT_REMOVE_DEVICE_FROM_WHITE_LIST_COMPLETE\000"
 7438      4C455F45 
 7438      56545F52 
 7438      454D4F56 
 7438      455F4445 
 7439              	.LASF549:
 7440 1afb 43595F42 		.ascii	"CY_BLE_EVT_GATTC_READ_MULTI_RSP\000"
 7440      4C455F45 
ARM GAS  C:\Users\salaz\AppData\Local\Temp\ccvE4Xni.s 			page 187


 7440      56545F47 
 7440      41545443 
 7440      5F524541 
 7441              	.LASF595:
 7442 1b1b 636F756E 		.ascii	"counter\000"
 7442      74657200 
 7443              	.LASF569:
 7444 1b23 43595F42 		.ascii	"CY_BLE_EVT_L2CAP_CBFC_DISCONN_CNF\000"
 7444      4C455F45 
 7444      56545F4C 
 7444      32434150 
 7444      5F434246 
 7445              	.LASF231:
 7446 1b45 4D435744 		.ascii	"MCWDT_LOCK\000"
 7446      545F4C4F 
 7446      434B00
 7447              	.LASF320:
 7448 1b50 63324D6F 		.ascii	"c2Mode\000"
 7448      646500
 7449              	.LASF35:
 7450 1b57 4E766963 		.ascii	"NvicMux29_IRQn\000"
 7450      4D757832 
 7450      395F4952 
 7450      516E00
 7451              	.LASF292:
 7452 1b66 5057525F 		.ascii	"PWR_TRIM_PWRSYS_CTL\000"
 7452      5452494D 
 7452      5F505752 
 7452      5359535F 
 7452      43544C00 
 7453              	.LASF4:
 7454 1b7a 50656E64 		.ascii	"PendSV_IRQn\000"
 7454      53565F49 
 7454      52516E00 
 7455              	.LASF100:
 7456 1b86 63707573 		.ascii	"cpuss_interrupts_dw0_9_IRQn\000"
 7456      735F696E 
 7456      74657272 
 7456      75707473 
 7456      5F647730 
 7457              	.LASF174:
 7458 1ba2 7564625F 		.ascii	"udb_interrupts_11_IRQn\000"
 7458      696E7465 
 7458      72727570 
 7458      74735F31 
 7458      315F4952 
 7459              	.LASF143:
 7460 1bb9 74637077 		.ascii	"tcpwm_1_interrupts_4_IRQn\000"
 7460      6D5F315F 
 7460      696E7465 
 7460      72727570 
 7460      74735F34 
 7461              	.LASF488:
 7462 1bd3 43595F42 		.ascii	"CY_BLE_EVT_PHY_UPDATE_COMPLETE\000"
 7462      4C455F45 
 7462      56545F50 
 7462      48595F55 
ARM GAS  C:\Users\salaz\AppData\Local\Temp\ccvE4Xni.s 			page 188


 7462      50444154 
 7463              	.LASF302:
 7464 1bf2 646F7562 		.ascii	"double\000"
 7464      6C6500
 7465              	.LASF3:
 7466 1bf9 53564361 		.ascii	"SVCall_IRQn\000"
 7466      6C6C5F49 
 7466      52516E00 
 7467              	.LASF269:
 7468 1c05 434C4B5F 		.ascii	"CLK_PLL_CONFIG\000"
 7468      504C4C5F 
 7468      434F4E46 
 7468      494700
 7469              	.LASF570:
 7470 1c14 43595F42 		.ascii	"CY_BLE_EVT_L2CAP_CBFC_DATA_READ\000"
 7470      4C455F45 
 7470      56545F4C 
 7470      32434150 
 7470      5F434246 
 7471              	.LASF309:
 7472 1c34 63795F65 		.ascii	"cy_en_sysint_status_t\000"
 7472      6E5F7379 
 7472      73696E74 
 7472      5F737461 
 7472      7475735F 
 7473              	.LASF348:
 7474 1c4a 73746F70 		.ascii	"stopInputMode\000"
 7474      496E7075 
 7474      744D6F64 
 7474      6500
 7475              	.LASF162:
 7476 1c58 74637077 		.ascii	"tcpwm_1_interrupts_23_IRQn\000"
 7476      6D5F315F 
 7476      696E7465 
 7476      72727570 
 7476      74735F32 
 7477              	.LASF115:
 7478 1c73 63707573 		.ascii	"cpuss_interrupts_dw1_8_IRQn\000"
 7478      735F696E 
 7478      74657272 
 7478      75707473 
 7478      5F647731 
 7479              	.LASF453:
 7480 1c8f 72784275 		.ascii	"rxBufIdx\000"
 7480      66496478 
 7480      00
 7481              	.LASF524:
 7482 1c98 43595F42 		.ascii	"CY_BLE_EVT_GAP_NUMERIC_COMPARISON_REQUEST\000"
 7482      4C455F45 
 7482      56545F47 
 7482      41505F4E 
 7482      554D4552 
 7483              	.LASF8:
 7484 1cc2 4E766963 		.ascii	"NvicMux2_IRQn\000"
 7484      4D757832 
 7484      5F495251 
 7484      6E00
ARM GAS  C:\Users\salaz\AppData\Local\Temp\ccvE4Xni.s 			page 189


 7485              	.LASF414:
 7486 1cd0 43595F53 		.ascii	"CY_SCB_UART_ACTIVE_HIGH\000"
 7486      43425F55 
 7486      4152545F 
 7486      41435449 
 7486      56455F48 
 7487              	.LASF423:
 7488 1ce8 70617269 		.ascii	"parity\000"
 7488      747900
 7489              	.LASF149:
 7490 1cef 74637077 		.ascii	"tcpwm_1_interrupts_10_IRQn\000"
 7490      6D5F315F 
 7490      696E7465 
 7490      72727570 
 7490      74735F31 
 7491              	.LASF474:
 7492 1d0a 43595F42 		.ascii	"CY_BLE_EVT_GET_DATA_LENGTH_COMPLETE\000"
 7492      4C455F45 
 7492      56545F47 
 7492      45545F44 
 7492      4154415F 
 7493              	.LASF151:
 7494 1d2e 74637077 		.ascii	"tcpwm_1_interrupts_12_IRQn\000"
 7494      6D5F315F 
 7494      696E7465 
 7494      72727570 
 7494      74735F31 
 7495              	.LASF301:
 7496 1d49 666C6F61 		.ascii	"float\000"
 7496      7400
 7497              	.LASF535:
 7498 1d4f 43595F42 		.ascii	"CY_BLE_EVT_GAP_CONN_ESTB\000"
 7498      4C455F45 
 7498      56545F47 
 7498      41505F43 
 7498      4F4E4E5F 
 7499              	.LASF512:
 7500 1d68 43595F42 		.ascii	"CY_BLE_EVT_GAP_AUTH_REQ\000"
 7500      4C455F45 
 7500      56545F47 
 7500      41505F41 
 7500      5554485F 
 7501              	.LASF28:
 7502 1d80 4E766963 		.ascii	"NvicMux22_IRQn\000"
 7502      4D757832 
 7502      325F4952 
 7502      516E00
 7503              	.LASF432:
 7504 1d8f 69726461 		.ascii	"irdaEnableLowPowerReceiver\000"
 7504      456E6162 
 7504      6C654C6F 
 7504      77506F77 
 7504      65725265 
 7505              	.LASF419:
 7506 1daa 6F766572 		.ascii	"oversample\000"
 7506      73616D70 
 7506      6C6500
ARM GAS  C:\Users\salaz\AppData\Local\Temp\ccvE4Xni.s 			page 190


 7507              	.LASF93:
 7508 1db5 63707573 		.ascii	"cpuss_interrupts_dw0_2_IRQn\000"
 7508      735F696E 
 7508      74657272 
 7508      75707473 
 7508      5F647730 
 7509              	.LASF418:
 7510 1dd1 75617274 		.ascii	"uartMode\000"
 7510      4D6F6465 
 7510      00
 7511              	.LASF308:
 7512 1dda 43595F53 		.ascii	"CY_SYSINT_BAD_PARAM\000"
 7512      5953494E 
 7512      545F4241 
 7512      445F5041 
 7512      52414D00 
 7513              	.LASF168:
 7514 1dee 7564625F 		.ascii	"udb_interrupts_5_IRQn\000"
 7514      696E7465 
 7514      72727570 
 7514      74735F35 
 7514      5F495251 
 7515              	.LASF203:
 7516 1e04 756E7369 		.ascii	"unsigned int\000"
 7516      676E6564 
 7516      20696E74 
 7516      00
 7517              	.LASF17:
 7518 1e11 4E766963 		.ascii	"NvicMux11_IRQn\000"
 7518      4D757831 
 7518      315F4952 
 7518      516E00
 7519              	.LASF76:
 7520 1e20 63707573 		.ascii	"cpuss_interrupts_ipc_10_IRQn\000"
 7520      735F696E 
 7520      74657272 
 7520      75707473 
 7520      5F697063 
 7521              	.LASF584:
 7522 1e3d 43595F42 		.ascii	"CY_BLE_CONN_STATE_CLIENT_DISCONNECTED_DISCOVERED\000"
 7522      4C455F43 
 7522      4F4E4E5F 
 7522      53544154 
 7522      455F434C 
 7523              	.LASF267:
 7524 1e6e 434C4B5F 		.ascii	"CLK_FLL_STATUS\000"
 7524      464C4C5F 
 7524      53544154 
 7524      555300
 7525              	.LASF355:
 7526 1e7d 70776D4D 		.ascii	"pwmMode\000"
 7526      6F646500 
 7527              	.LASF483:
 7528 1e85 43595F42 		.ascii	"CY_BLE_EVT_ADD_DEVICE_TO_WHITE_LIST_COMPLETE\000"
 7528      4C455F45 
 7528      56545F41 
 7528      44445F44 
ARM GAS  C:\Users\salaz\AppData\Local\Temp\ccvE4Xni.s 			page 191


 7528      45564943 
 7529              	.LASF108:
 7530 1eb2 63707573 		.ascii	"cpuss_interrupts_dw1_1_IRQn\000"
 7530      735F696E 
 7530      74657272 
 7530      75707473 
 7530      5F647731 
 7531              	.LASF340:
 7532 1ece 656E6162 		.ascii	"enableCompareSwap\000"
 7532      6C65436F 
 7532      6D706172 
 7532      65537761 
 7532      7000
 7533              	.LASF5:
 7534 1ee0 53797354 		.ascii	"SysTick_IRQn\000"
 7534      69636B5F 
 7534      4952516E 
 7534      00
 7535              	.LASF367:
 7536 1eed 6B696C6C 		.ascii	"killInput\000"
 7536      496E7075 
 7536      7400
 7537              	.LASF525:
 7538 1ef7 43595F42 		.ascii	"CY_BLE_EVT_GAP_KEYPRESS_NOTIFICATION\000"
 7538      4C455F45 
 7538      56545F47 
 7538      41505F4B 
 7538      45595052 
 7539              	.LASF469:
 7540 1f1c 43595F42 		.ascii	"CY_BLE_EVT_GET_CHANNEL_MAP_COMPLETE\000"
 7540      4C455F45 
 7540      56545F47 
 7540      45545F43 
 7540      48414E4E 
 7541              	.LASF251:
 7542 1f40 434C4B5F 		.ascii	"CLK_ILO_CONFIG\000"
 7542      494C4F5F 
 7542      434F4E46 
 7542      494700
 7543              	.LASF351:
 7544 1f4f 636F756E 		.ascii	"countInput\000"
 7544      74496E70 
 7544      757400
 7545              	.LASF279:
 7546 1f5a 5245535F 		.ascii	"RES_CAUSE\000"
 7546      43415553 
 7546      4500
 7547              	.LASF587:
 7548 1f64 43595F42 		.ascii	"CY_BLE_CONN_STATE_CLIENT_INCL_DISCOVERING\000"
 7548      4C455F43 
 7548      4F4E4E5F 
 7548      53544154 
 7548      455F434C 
 7549              	.LASF331:
 7550 1f8e 43595F4D 		.ascii	"CY_MCWDT_BAD_PARAM\000"
 7550      43574454 
 7550      5F424144 
ARM GAS  C:\Users\salaz\AppData\Local\Temp\ccvE4Xni.s 			page 192


 7550      5F504152 
 7550      414D00
 7551              	.LASF459:
 7552 1fa1 43595F42 		.ascii	"CY_BLE_EVT_INVALID\000"
 7552      4C455F45 
 7552      56545F49 
 7552      4E56414C 
 7552      494400
 7553              	.LASF539:
 7554 1fb4 43595F42 		.ascii	"CY_BLE_EVT_GATT_CONNECT_IND\000"
 7554      4C455F45 
 7554      56545F47 
 7554      4154545F 
 7554      434F4E4E 
 7555              	.LASF15:
 7556 1fd0 4E766963 		.ascii	"NvicMux9_IRQn\000"
 7556      4D757839 
 7556      5F495251 
 7556      6E00
 7557              	.LASF229:
 7558 1fde 4D435744 		.ascii	"MCWDT_INTR_MASK\000"
 7558      545F494E 
 7558      54525F4D 
 7558      41534B00 
 7559              	.LASF324:
 7560 1fee 63316332 		.ascii	"c1c2Cascade\000"
 7560      43617363 
 7560      61646500 
 7561              	.LASF578:
 7562 1ffa 43595F42 		.ascii	"CY_BLE_ADV_STATE_STOPPED\000"
 7562      4C455F41 
 7562      44565F53 
 7562      54415445 
 7562      5F53544F 
 7563              	.LASF179:
 7564 2013 70617373 		.ascii	"pass_interrupt_sar_IRQn\000"
 7564      5F696E74 
 7564      65727275 
 7564      70745F73 
 7564      61725F49 
 7565              	.LASF275:
 7566 202b 53525353 		.ascii	"SRSS_INTR_MASK\000"
 7566      5F494E54 
 7566      525F4D41 
 7566      534B00
 7567              	.LASF582:
 7568 203a 63795F65 		.ascii	"cy_en_ble_adv_state_t\000"
 7568      6E5F626C 
 7568      655F6164 
 7568      765F7374 
 7568      6174655F 
 7569              	.LASF56:
 7570 2050 696F7373 		.ascii	"ioss_interrupt_gpio_IRQn\000"
 7570      5F696E74 
 7570      65727275 
 7570      70745F67 
 7570      70696F5F 
ARM GAS  C:\Users\salaz\AppData\Local\Temp\ccvE4Xni.s 			page 193


 7571              	.LASF276:
 7572 2069 53525353 		.ascii	"SRSS_INTR_MASKED\000"
 7572      5F494E54 
 7572      525F4D41 
 7572      534B4544 
 7572      00
 7573              	.LASF608:
 7574 207a 43795F4D 		.ascii	"Cy_MCWDT_Disable\000"
 7574      43574454 
 7574      5F446973 
 7574      61626C65 
 7574      00
 7575              	.LASF111:
 7576 208b 63707573 		.ascii	"cpuss_interrupts_dw1_4_IRQn\000"
 7576      735F696E 
 7576      74657272 
 7576      75707473 
 7576      5F647731 
 7577              	.LASF392:
 7578 20a7 736C6176 		.ascii	"slaveRxBufferSize\000"
 7578      65527842 
 7578      75666665 
 7578      7253697A 
 7578      6500
 7579              	.LASF609:
 7580 20b9 64697361 		.ascii	"disableCounters\000"
 7580      626C6543 
 7580      6F756E74 
 7580      65727300 
 7581              	.LASF359:
 7582 20c9 70657269 		.ascii	"period1\000"
 7582      6F643100 
 7583              	.LASF505:
 7584 20d1 43595F42 		.ascii	"CY_BLE_EVT_RADIO_TEMPERATURE\000"
 7584      4C455F45 
 7584      56545F52 
 7584      4144494F 
 7584      5F54454D 
 7585              	.LASF178:
 7586 20ee 7564625F 		.ascii	"udb_interrupts_15_IRQn\000"
 7586      696E7465 
 7586      72727570 
 7586      74735F31 
 7586      355F4952 
 7587              	.LASF372:
 7588 2105 63795F63 		.ascii	"cy_cb_scb_i2c_handle_events_t\000"
 7588      625F7363 
 7588      625F6932 
 7588      635F6861 
 7588      6E646C65 
 7589              	.LASF552:
 7590 2123 43595F42 		.ascii	"CY_BLE_EVT_GATTS_WRITE_CMD_REQ\000"
 7590      4C455F45 
 7590      56545F47 
 7590      41545453 
 7590      5F575249 
 7591              	.LASF147:
ARM GAS  C:\Users\salaz\AppData\Local\Temp\ccvE4Xni.s 			page 194


 7592 2142 74637077 		.ascii	"tcpwm_1_interrupts_8_IRQn\000"
 7592      6D5F315F 
 7592      696E7465 
 7592      72727570 
 7592      74735F38 
 7593              	.LASF605:
 7594 215c 43795F4D 		.ascii	"Cy_MCWDT_Enable\000"
 7594      43574454 
 7594      5F456E61 
 7594      626C6500 
 7595              	.LASF16:
 7596 216c 4E766963 		.ascii	"NvicMux10_IRQn\000"
 7596      4D757831 
 7596      305F4952 
 7596      516E00
 7597              	.LASF441:
 7598 217b 74784669 		.ascii	"txFifoTriggerLevel\000"
 7598      666F5472 
 7598      69676765 
 7598      724C6576 
 7598      656C00
 7599              	.LASF509:
 7600 218e 43595F42 		.ascii	"CY_BLE_EVT_SET_CE_LENGTH_COMPLETE\000"
 7600      4C455F45 
 7600      56545F53 
 7600      45545F43 
 7600      455F4C45 
 7601              	.LASF448:
 7602 21b0 72785269 		.ascii	"rxRingBufSize\000"
 7602      6E674275 
 7602      6653697A 
 7602      6500
 7603              	.LASF42:
 7604 21be 696F7373 		.ascii	"ioss_interrupts_gpio_1_IRQn\000"
 7604      5F696E74 
 7604      65727275 
 7604      7074735F 
 7604      6770696F 
 7605              	.LASF254:
 7606 21da 434C4B5F 		.ascii	"CLK_OUTPUT_SLOW\000"
 7606      4F555450 
 7606      55545F53 
 7606      4C4F5700 
 7607              	.LASF86:
 7608 21ea 7363625F 		.ascii	"scb_4_interrupt_IRQn\000"
 7608      345F696E 
 7608      74657272 
 7608      7570745F 
 7608      4952516E 
 7609              	.LASF265:
 7610 21ff 434C4B5F 		.ascii	"CLK_FLL_CONFIG3\000"
 7610      464C4C5F 
 7610      434F4E46 
 7610      49473300 
 7611              	.LASF258:
 7612 220f 434C4B5F 		.ascii	"CLK_ECO_CONFIG\000"
 7612      45434F5F 
ARM GAS  C:\Users\salaz\AppData\Local\Temp\ccvE4Xni.s 			page 195


 7612      434F4E46 
 7612      494700
 7613              	.LASF515:
 7614 221e 43595F42 		.ascii	"CY_BLE_EVT_GAP_AUTH_COMPLETE\000"
 7614      4C455F45 
 7614      56545F47 
 7614      41505F41 
 7614      5554485F 
 7615              	.LASF393:
 7616 223b 736C6176 		.ascii	"slaveRxBufferIdx\000"
 7616      65527842 
 7616      75666665 
 7616      72496478 
 7616      00
 7617              	.LASF55:
 7618 224c 696F7373 		.ascii	"ioss_interrupts_gpio_14_IRQn\000"
 7618      5F696E74 
 7618      65727275 
 7618      7074735F 
 7618      6770696F 
 7619              	.LASF652:
 7620 2269 53797374 		.ascii	"SystemCore_TimerHandler\000"
 7620      656D436F 
 7620      72655F54 
 7620      696D6572 
 7620      48616E64 
 7621              	.LASF104:
 7622 2281 63707573 		.ascii	"cpuss_interrupts_dw0_13_IRQn\000"
 7622      735F696E 
 7622      74657272 
 7622      75707473 
 7622      5F647730 
 7623              	.LASF298:
 7624 229e 6C6F6E67 		.ascii	"long double\000"
 7624      20646F75 
 7624      626C6500 
 7625              	.LASF61:
 7626 22aa 73727373 		.ascii	"srss_interrupt_mcwdt_1_IRQn\000"
 7626      5F696E74 
 7626      65727275 
 7626      70745F6D 
 7626      63776474 
 7627              	.LASF637:
 7628 22c6 55415254 		.ascii	"UART_DEBUG_context\000"
 7628      5F444542 
 7628      55475F63 
 7628      6F6E7465 
 7628      787400
 7629              	.LASF416:
 7630 22d9 63795F63 		.ascii	"cy_cb_scb_uart_handle_events_t\000"
 7630      625F7363 
 7630      625F7561 
 7630      72745F68 
 7630      616E646C 
 7631              	.LASF472:
 7632 22f8 43595F42 		.ascii	"CY_BLE_EVT_SET_DATA_LENGTH_COMPLETE\000"
 7632      4C455F45 
ARM GAS  C:\Users\salaz\AppData\Local\Temp\ccvE4Xni.s 			page 196


 7632      56545F53 
 7632      45545F44 
 7632      4154415F 
 7633              	.LASF554:
 7634 231c 43595F42 		.ascii	"CY_BLE_EVT_GATTS_EXEC_WRITE_REQ\000"
 7634      4C455F45 
 7634      56545F47 
 7634      41545453 
 7634      5F455845 
 7635              	.LASF318:
 7636 233c 63314D6F 		.ascii	"c1Mode\000"
 7636      646500
 7637              	.LASF97:
 7638 2343 63707573 		.ascii	"cpuss_interrupts_dw0_6_IRQn\000"
 7638      735F696E 
 7638      74657272 
 7638      75707473 
 7638      5F647730 
 7639              	.LASF643:
 7640 235f 4C696768 		.ascii	"LightOutputB_config\000"
 7640      744F7574 
 7640      70757442 
 7640      5F636F6E 
 7640      66696700 
 7641              	.LASF456:
 7642 2373 74784C65 		.ascii	"txLeftToTransmit\000"
 7642      6674546F 
 7642      5472616E 
 7642      736D6974 
 7642      00
 7643              	.LASF127:
 7644 2384 63707573 		.ascii	"cpuss_interrupts_cm0_cti_0_IRQn\000"
 7644      735F696E 
 7644      74657272 
 7644      75707473 
 7644      5F636D30 
 7645              	.LASF140:
 7646 23a4 74637077 		.ascii	"tcpwm_1_interrupts_1_IRQn\000"
 7646      6D5F315F 
 7646      696E7465 
 7646      72727570 
 7646      74735F31 
 7647              	.LASF71:
 7648 23be 63707573 		.ascii	"cpuss_interrupts_ipc_5_IRQn\000"
 7648      735F696E 
 7648      74657272 
 7648      75707473 
 7648      5F697063 
 7649              	.LASF428:
 7650 23da 72656365 		.ascii	"receiverAddress\000"
 7650      69766572 
 7650      41646472 
 7650      65737300 
 7651              	.LASF47:
 7652 23ea 696F7373 		.ascii	"ioss_interrupts_gpio_6_IRQn\000"
 7652      5F696E74 
 7652      65727275 
ARM GAS  C:\Users\salaz\AppData\Local\Temp\ccvE4Xni.s 			page 197


 7652      7074735F 
 7652      6770696F 
 7653              	.LASF21:
 7654 2406 4E766963 		.ascii	"NvicMux15_IRQn\000"
 7654      4D757831 
 7654      355F4952 
 7654      516E00
 7655              	.LASF181:
 7656 2415 61756469 		.ascii	"audioss_interrupt_pdm_IRQn\000"
 7656      6F73735F 
 7656      696E7465 
 7656      72727570 
 7656      745F7064 
 7657              	.LASF433:
 7658 2430 736D6172 		.ascii	"smartCardRetryOnNack\000"
 7658      74436172 
 7658      64526574 
 7658      72794F6E 
 7658      4E61636B 
 7659              	.LASF479:
 7660 2445 43595F42 		.ascii	"CY_BLE_EVT_SET_RPA_ENABLE_COMPLETE\000"
 7660      4C455F45 
 7660      56545F53 
 7660      45545F52 
 7660      50415F45 
 7661              	.LASF312:
 7662 2468 696E7472 		.ascii	"intrPriority\000"
 7662      5072696F 
 7662      72697479 
 7662      00
 7663              	.LASF394:
 7664 2475 63624576 		.ascii	"cbEvents\000"
 7664      656E7473 
 7664      00
 7665              	.LASF65:
 7666 247e 626C6573 		.ascii	"bless_interrupt_IRQn\000"
 7666      735F696E 
 7666      74657272 
 7666      7570745F 
 7666      4952516E 
 7667              	.LASF523:
 7668 2493 43595F42 		.ascii	"CY_BLE_EVT_GAP_KEYINFO_EXCHNGE_CMPLT\000"
 7668      4C455F45 
 7668      56545F47 
 7668      41505F4B 
 7668      4559494E 
 7669              	.LASF220:
 7670 24b8 4E564943 		.ascii	"NVIC_Type\000"
 7670      5F547970 
 7670      6500
 7671              	.LASF434:
 7672 24c2 656E6162 		.ascii	"enableCts\000"
 7672      6C654374 
 7672      7300
 7673              	.LASF192:
 7674 24cc 5F5F696E 		.ascii	"__int8_t\000"
 7674      74385F74 
ARM GAS  C:\Users\salaz\AppData\Local\Temp\ccvE4Xni.s 			page 198


 7674      00
 7675              	.LASF649:
 7676 24d5 74696D65 		.ascii	"timers\000"
 7676      727300
 7677              	.LASF146:
 7678 24dc 74637077 		.ascii	"tcpwm_1_interrupts_7_IRQn\000"
 7678      6D5F315F 
 7678      696E7465 
 7678      72727570 
 7678      74735F37 
 7679              	.LASF521:
 7680 24f6 43595F42 		.ascii	"CY_BLE_EVT_GAP_CONNECTION_UPDATE_COMPLETE\000"
 7680      4C455F45 
 7680      56545F47 
 7680      41505F43 
 7680      4F4E4E45 
 7681              	.LASF376:
 7682 2520 75736554 		.ascii	"useTxFifo\000"
 7682      78466966 
 7682      6F00
 7683              	.LASF299:
 7684 252a 63686172 		.ascii	"char_t\000"
 7684      5F7400
 7685              	.LASF568:
 7686 2531 43595F42 		.ascii	"CY_BLE_EVT_L2CAP_CBFC_DISCONN_IND\000"
 7686      4C455F45 
 7686      56545F4C 
 7686      32434150 
 7686      5F434246 
 7687              	.LASF514:
 7688 2553 43595F42 		.ascii	"CY_BLE_EVT_GAP_PASSKEY_DISPLAY_REQUEST\000"
 7688      4C455F45 
 7688      56545F47 
 7688      41505F50 
 7688      4153534B 
 7689              	.LASF39:
 7690 257a 6C6F6E67 		.ascii	"long long unsigned int\000"
 7690      206C6F6E 
 7690      6720756E 
 7690      7369676E 
 7690      65642069 
 7691              	.LASF117:
 7692 2591 63707573 		.ascii	"cpuss_interrupts_dw1_10_IRQn\000"
 7692      735F696E 
 7692      74657272 
 7692      75707473 
 7692      5F647731 
 7693              	.LASF625:
 7694 25ae 636F756E 		.ascii	"counter0\000"
 7694      74657230 
 7694      00
 7695              	.LASF624:
 7696 25b7 636F756E 		.ascii	"counter1\000"
 7696      74657231 
 7696      00
 7697              	.LASF411:
 7698 25c0 43595F53 		.ascii	"CY_SCB_UART_PARITY_ODD\000"
ARM GAS  C:\Users\salaz\AppData\Local\Temp\ccvE4Xni.s 			page 199


 7698      43425F55 
 7698      4152545F 
 7698      50415249 
 7698      54595F4F 
 7699              	.LASF471:
 7700 25d7 43595F42 		.ascii	"CY_BLE_EVT_LE_PING_AUTH_TIMEOUT\000"
 7700      4C455F45 
 7700      56545F4C 
 7700      455F5049 
 7700      4E475F41 
 7701              	.LASF206:
 7702 25f7 75696E74 		.ascii	"uint16_t\000"
 7702      31365F74 
 7702      00
 7703              	.LASF501:
 7704 2600 43595F42 		.ascii	"CY_BLE_EVT_AES_CCM_ENCRYPT_COMPLETE\000"
 7704      4C455F45 
 7704      56545F41 
 7704      45535F43 
 7704      434D5F45 
 7705              	.LASF404:
 7706 2624 43595F53 		.ascii	"CY_SCB_UART_STOP_BITS_2_5\000"
 7706      43425F55 
 7706      4152545F 
 7706      53544F50 
 7706      5F424954 
 7707              	.LASF532:
 7708 263e 43595F42 		.ascii	"CY_BLE_EVT_GAP_RESOLVE_DEVICE_COMPLETE\000"
 7708      4C455F45 
 7708      56545F47 
 7708      41505F52 
 7708      45534F4C 
 7709              	.LASF103:
 7710 2665 63707573 		.ascii	"cpuss_interrupts_dw0_12_IRQn\000"
 7710      735F696E 
 7710      74657272 
 7710      75707473 
 7710      5F647730 
 7711              	.LASF542:
 7712 2682 43595F42 		.ascii	"CY_BLE_EVT_GATTC_XCHNG_MTU_RSP\000"
 7712      4C455F45 
 7712      56545F47 
 7712      41545443 
 7712      5F584348 
 7713              	.LASF614:
 7714 26a1 72657365 		.ascii	"resetCounters\000"
 7714      74436F75 
 7714      6E746572 
 7714      7300
 7715              	.LASF0:
 7716 26af 52657365 		.ascii	"Reset_IRQn\000"
 7716      745F4952 
 7716      516E00
 7717              	.LASF278:
 7718 26ba 52455345 		.ascii	"RESERVED12\000"
 7718      52564544 
 7718      313200
ARM GAS  C:\Users\salaz\AppData\Local\Temp\ccvE4Xni.s 			page 200


 7719              	.LASF281:
 7720 26c5 52455345 		.ascii	"RESERVED13\000"
 7720      52564544 
 7720      313300
 7721              	.LASF286:
 7722 26d0 52455345 		.ascii	"RESERVED14\000"
 7722      52564544 
 7722      313400
 7723              	.LASF288:
 7724 26db 52455345 		.ascii	"RESERVED15\000"
 7724      52564544 
 7724      313500
 7725              	.LASF476:
 7726 26e6 43595F42 		.ascii	"CY_BLE_EVT_GET_PEER_RPA_COMPLETE\000"
 7726      4C455F45 
 7726      56545F47 
 7726      45545F50 
 7726      4545525F 
 7727              	.LASF645:
 7728 2707 4D6F746F 		.ascii	"MotorTimer_config\000"
 7728      7254696D 
 7728      65725F63 
 7728      6F6E6669 
 7728      6700
 7729              	.LASF249:
 7730 2719 434C4B5F 		.ascii	"CLK_TIMER_CTL\000"
 7730      54494D45 
 7730      525F4354 
 7730      4C00
 7731              	.LASF596:
 7732 2727 43795F4D 		.ascii	"Cy_MCWDT_GetMatch\000"
 7732      43574454 
 7732      5F476574 
 7732      4D617463 
 7732      6800
 7733              	.LASF31:
 7734 2739 4E766963 		.ascii	"NvicMux25_IRQn\000"
 7734      4D757832 
 7734      355F4952 
 7734      516E00
 7735              	.LASF628:
 7736 2748 696E7472 		.ascii	"intrReturnValue\000"
 7736      52657475 
 7736      726E5661 
 7736      6C756500 
 7737              	.LASF591:
 7738 2758 63795F65 		.ascii	"cy_en_ble_conn_state_t\000"
 7738      6E5F626C 
 7738      655F636F 
 7738      6E6E5F73 
 7738      74617465 
 7739              	.LASF96:
 7740 276f 63707573 		.ascii	"cpuss_interrupts_dw0_5_IRQn\000"
 7740      735F696E 
 7740      74657272 
 7740      75707473 
 7740      5F647730 
ARM GAS  C:\Users\salaz\AppData\Local\Temp\ccvE4Xni.s 			page 201


 7741              	.LASF454:
 7742 278b 74784275 		.ascii	"txBuf\000"
 7742      6600
 7743              	.LASF537:
 7744 2791 43595F42 		.ascii	"CY_BLE_EVT_GAP_ADV_TX\000"
 7744      4C455F45 
 7744      56545F47 
 7744      41505F41 
 7744      44565F54 
 7745              	.LASF238:
 7746 27a7 5057525F 		.ascii	"PWR_BUCK_CTL2\000"
 7746      4255434B 
 7746      5F43544C 
 7746      3200
 7747              	.LASF139:
 7748 27b5 74637077 		.ascii	"tcpwm_1_interrupts_0_IRQn\000"
 7748      6D5F315F 
 7748      696E7465 
 7748      72727570 
 7748      74735F30 
 7749              	.LASF581:
 7750 27cf 43595F42 		.ascii	"CY_BLE_ADV_STATE_STOP_INITIATED\000"
 7750      4C455F41 
 7750      44565F53 
 7750      54415445 
 7750      5F53544F 
 7751              	.LASF601:
 7752 27ef 636F756E 		.ascii	"counters\000"
 7752      74657273 
 7752      00
 7753              	.LASF171:
 7754 27f8 7564625F 		.ascii	"udb_interrupts_8_IRQn\000"
 7754      696E7465 
 7754      72727570 
 7754      74735F38 
 7754      5F495251 
 7755              	.LASF617:
 7756 280e 73686F72 		.ascii	"shortest_expiration_id\000"
 7756      74657374 
 7756      5F657870 
 7756      69726174 
 7756      696F6E5F 
 7757              	.LASF20:
 7758 2825 4E766963 		.ascii	"NvicMux14_IRQn\000"
 7758      4D757831 
 7758      345F4952 
 7758      516E00
 7759              	.LASF573:
 7760 2834 43595F42 		.ascii	"CY_BLE_EVT_L2CAP_CBFC_DATA_WRITE_IND\000"
 7760      4C455F45 
 7760      56545F4C 
 7760      32434150 
 7760      5F434246 
 7761              	.LASF79:
 7762 2859 63707573 		.ascii	"cpuss_interrupts_ipc_13_IRQn\000"
 7762      735F696E 
 7762      74657272 
ARM GAS  C:\Users\salaz\AppData\Local\Temp\ccvE4Xni.s 			page 202


 7762      75707473 
 7762      5F697063 
 7763              	.LASF177:
 7764 2876 7564625F 		.ascii	"udb_interrupts_14_IRQn\000"
 7764      696E7465 
 7764      72727570 
 7764      74735F31 
 7764      345F4952 
 7765              	.LASF282:
 7766 288d 5057525F 		.ascii	"PWR_TRIM_REF_CTL\000"
 7766      5452494D 
 7766      5F524546 
 7766      5F43544C 
 7766      00
 7767              	.LASF619:
 7768 289e 6D617463 		.ascii	"match0\000"
 7768      683000
 7769              	.LASF618:
 7770 28a5 6D617463 		.ascii	"match1\000"
 7770      683100
 7771              	.LASF212:
 7772 28ac 49434552 		.ascii	"ICER\000"
 7772      00
 7773              	.LASF333:
 7774 28b1 70657269 		.ascii	"period\000"
 7774      6F6400
 7775              	.LASF629:
 7776 28b8 77647452 		.ascii	"wdtReturnValue\000"
 7776      65747572 
 7776      6E56616C 
 7776      756500
 7777              	.LASF123:
 7778 28c7 63707573 		.ascii	"cpuss_interrupts_fault_0_IRQn\000"
 7778      735F696E 
 7778      74657272 
 7778      75707473 
 7778      5F666175 
 7779              	.LASF529:
 7780 28e5 43595F42 		.ascii	"CY_BLE_EVT_GAP_SMP_NEGOTIATED_AUTH_INFO\000"
 7780      4C455F45 
 7780      56545F47 
 7780      41505F53 
 7780      4D505F4E 
 7781              	.LASF321:
 7782 290d 6330436C 		.ascii	"c0ClearOnMatch\000"
 7782      6561724F 
 7782      6E4D6174 
 7782      636800
 7783              	.LASF402:
 7784 291c 43595F53 		.ascii	"CY_SCB_UART_STOP_BITS_1_5\000"
 7784      43425F55 
 7784      4152545F 
 7784      53544F50 
 7784      5F424954 
 7785              	.LASF125:
 7786 2936 63707573 		.ascii	"cpuss_interrupt_crypto_IRQn\000"
 7786      735F696E 
ARM GAS  C:\Users\salaz\AppData\Local\Temp\ccvE4Xni.s 			page 203


 7786      74657272 
 7786      7570745F 
 7786      63727970 
 7787              	.LASF429:
 7788 2952 72656365 		.ascii	"receiverAddressMask\000"
 7788      69766572 
 7788      41646472 
 7788      6573734D 
 7788      61736B00 
 7789              	.LASF564:
 7790 2966 43595F42 		.ascii	"CY_BLE_EVT_L2CAP_CONN_PARAM_UPDATE_RSP\000"
 7790      4C455F45 
 7790      56545F4C 
 7790      32434150 
 7790      5F434F4E 
 7791              	.LASF271:
 7792 298d 434C4B5F 		.ascii	"CLK_PLL_STATUS\000"
 7792      504C4C5F 
 7792      53544154 
 7792      555300
 7793              	.LASF548:
 7794 299c 43595F42 		.ascii	"CY_BLE_EVT_GATTC_READ_BLOB_RSP\000"
 7794      4C455F45 
 7794      56545F47 
 7794      41545443 
 7794      5F524541 
 7795              	.LASF330:
 7796 29bb 43595F4D 		.ascii	"CY_MCWDT_SUCCESS\000"
 7796      43574454 
 7796      5F535543 
 7796      43455353 
 7796      00
 7797              	.LASF180:
 7798 29cc 61756469 		.ascii	"audioss_interrupt_i2s_IRQn\000"
 7798      6F73735F 
 7798      696E7465 
 7798      72727570 
 7798      745F6932 
 7799              	.LASF131:
 7800 29e7 74637077 		.ascii	"tcpwm_0_interrupts_0_IRQn\000"
 7800      6D5F305F 
 7800      696E7465 
 7800      72727570 
 7800      74735F30 
 7801              	.LASF164:
 7802 2a01 7564625F 		.ascii	"udb_interrupts_1_IRQn\000"
 7802      696E7465 
 7802      72727570 
 7802      74735F31 
 7802      5F495251 
 7803              	.LASF148:
 7804 2a17 74637077 		.ascii	"tcpwm_1_interrupts_9_IRQn\000"
 7804      6D5F315F 
 7804      696E7465 
 7804      72727570 
 7804      74735F39 
 7805              	.LASF620:
ARM GAS  C:\Users\salaz\AppData\Local\Temp\ccvE4Xni.s 			page 204


 7806 2a31 656C6170 		.ascii	"elapsed_count\000"
 7806      7365645F 
 7806      636F756E 
 7806      7400
 7807              	.LASF83:
 7808 2a3f 7363625F 		.ascii	"scb_1_interrupt_IRQn\000"
 7808      315F696E 
 7808      74657272 
 7808      7570745F 
 7808      4952516E 
 7809              	.LASF561:
 7810 2a54 43595F42 		.ascii	"CY_BLE_EVT_GATTS_READ_CHAR_VAL_ACCESS_REQ\000"
 7810      4C455F45 
 7810      56545F47 
 7810      41545453 
 7810      5F524541 
 7811              	.LASF285:
 7812 2a7e 434C4B5F 		.ascii	"CLK_TRIM_CCO_CTL2\000"
 7812      5452494D 
 7812      5F43434F 
 7812      5F43544C 
 7812      3200
 7813              	.LASF30:
 7814 2a90 4E766963 		.ascii	"NvicMux24_IRQn\000"
 7814      4D757832 
 7814      345F4952 
 7814      516E00
 7815              	.LASF651:
 7816 2a9f 43795F53 		.ascii	"Cy_SysLib_DelayUs\000"
 7816      79734C69 
 7816      625F4465 
 7816      6C617955 
 7816      7300
 7817              	.LASF242:
 7818 2ab1 5744545F 		.ascii	"WDT_CNT\000"
 7818      434E5400 
 7819              	.LASF577:
 7820 2ab9 63795F73 		.ascii	"cy_stc_ble_conn_handle_t\000"
 7820      74635F62 
 7820      6C655F63 
 7820      6F6E6E5F 
 7820      68616E64 
 7821              	.LASF517:
 7822 2ad2 43595F42 		.ascii	"CY_BLE_EVT_GAPP_ADVERTISEMENT_START_STOP\000"
 7822      4C455F45 
 7822      56545F47 
 7822      4150505F 
 7822      41445645 
 7823              	.LASF346:
 7824 2afb 73746172 		.ascii	"startInputMode\000"
 7824      74496E70 
 7824      75744D6F 
 7824      646500
 7825              	.LASF446:
 7826 2b0a 72785374 		.ascii	"rxStatus\000"
 7826      61747573 
 7826      00
ARM GAS  C:\Users\salaz\AppData\Local\Temp\ccvE4Xni.s 			page 205


 7827              	.LASF381:
 7828 2b13 6D617374 		.ascii	"masterBuffer\000"
 7828      65724275 
 7828      66666572 
 7828      00
 7829              	.LASF395:
 7830 2b20 63624164 		.ascii	"cbAddr\000"
 7830      647200
 7831              	.LASF78:
 7832 2b27 63707573 		.ascii	"cpuss_interrupts_ipc_12_IRQn\000"
 7832      735F696E 
 7832      74657272 
 7832      75707473 
 7832      5F697063 
 7833              	.LASF585:
 7834 2b44 43595F42 		.ascii	"CY_BLE_CONN_STATE_CONNECTED\000"
 7834      4C455F43 
 7834      4F4E4E5F 
 7834      53544154 
 7834      455F434F 
 7835              	.LASF315:
 7836 2b60 63304D61 		.ascii	"c0Match\000"
 7836      74636800 
 7837              	.LASF88:
 7838 2b68 7363625F 		.ascii	"scb_6_interrupt_IRQn\000"
 7838      365F696E 
 7838      74657272 
 7838      7570745F 
 7838      4952516E 
 7839              	.LASF396:
 7840 2b7d 63795F73 		.ascii	"cy_stc_scb_i2c_context_t\000"
 7840      74635F73 
 7840      63625F69 
 7840      32635F63 
 7840      6F6E7465 
 7841              	.LASF226:
 7842 2b96 4D435744 		.ascii	"MCWDT_CTL\000"
 7842      545F4354 
 7842      4C00
 7843              	.LASF606:
 7844 2ba0 77616974 		.ascii	"waitUs\000"
 7844      557300
 7845              	.LASF303:
 7846 2ba7 75696E74 		.ascii	"uint8\000"
 7846      3800
 7847              	.LASF252:
 7848 2bad 434C4B5F 		.ascii	"CLK_IMO_CONFIG\000"
 7848      494D4F5F 
 7848      434F4E46 
 7848      494700
 7849              	.LASF11:
 7850 2bbc 4E766963 		.ascii	"NvicMux5_IRQn\000"
 7850      4D757835 
 7850      5F495251 
 7850      6E00
 7851              	.LASF87:
 7852 2bca 7363625F 		.ascii	"scb_5_interrupt_IRQn\000"
ARM GAS  C:\Users\salaz\AppData\Local\Temp\ccvE4Xni.s 			page 206


 7852      355F696E 
 7852      74657272 
 7852      7570745F 
 7852      4952516E 
 7853              	.LASF244:
 7854 2bdf 4D435744 		.ascii	"MCWDT_STRUCT\000"
 7854      545F5354 
 7854      52554354 
 7854      00
 7855              	.LASF291:
 7856 2bec 434C4B5F 		.ascii	"CLK_TRIM_ILO_CTL\000"
 7856      5452494D 
 7856      5F494C4F 
 7856      5F43544C 
 7856      00
 7857              	.LASF457:
 7858 2bfd 696E6974 		.ascii	"initKey\000"
 7858      4B657900 
 7859              	.LASF583:
 7860 2c05 43595F42 		.ascii	"CY_BLE_CONN_STATE_DISCONNECTED\000"
 7860      4C455F43 
 7860      4F4E4E5F 
 7860      53544154 
 7860      455F4449 
 7861              	.LASF40:
 7862 2c24 73686F72 		.ascii	"short int\000"
 7862      7420696E 
 7862      7400
 7863              	.LASF504:
 7864 2c2e 43595F42 		.ascii	"CY_BLE_EVT_STACK_SHUTDOWN_COMPLETE\000"
 7864      4C455F45 
 7864      56545F53 
 7864      5441434B 
 7864      5F534855 
 7865              	.LASF495:
 7866 2c51 43595F42 		.ascii	"CY_BLE_EVT_GET_TX_PWR_COMPLETE\000"
 7866      4C455F45 
 7866      56545F47 
 7866      45545F54 
 7866      585F5057 
 7867              	.LASF58:
 7868 2c70 6C70636F 		.ascii	"lpcomp_interrupt_IRQn\000"
 7868      6D705F69 
 7868      6E746572 
 7868      72757074 
 7868      5F495251 
 7869              	.LASF64:
 7870 2c86 70617373 		.ascii	"pass_interrupt_ctbs_IRQn\000"
 7870      5F696E74 
 7870      65727275 
 7870      70745F63 
 7870      7462735F 
 7871              	.LASF289:
 7872 2c9f 5057525F 		.ascii	"PWR_TRIM_LVD_CTL\000"
 7872      5452494D 
 7872      5F4C5644 
 7872      5F43544C 
ARM GAS  C:\Users\salaz\AppData\Local\Temp\ccvE4Xni.s 			page 207


 7872      00
 7873              	.LASF59:
 7874 2cb0 7363625F 		.ascii	"scb_8_interrupt_IRQn\000"
 7874      385F696E 
 7874      74657272 
 7874      7570745F 
 7874      4952516E 
 7875              	.LASF245:
 7876 2cc5 434C4B5F 		.ascii	"CLK_DSI_SELECT\000"
 7876      4453495F 
 7876      53454C45 
 7876      435400
 7877              	.LASF18:
 7878 2cd4 4E766963 		.ascii	"NvicMux12_IRQn\000"
 7878      4D757831 
 7878      325F4952 
 7878      516E00
 7879              	.LASF74:
 7880 2ce3 63707573 		.ascii	"cpuss_interrupts_ipc_8_IRQn\000"
 7880      735F696E 
 7880      74657272 
 7880      75707473 
 7880      5F697063 
 7881              	.LASF50:
 7882 2cff 696F7373 		.ascii	"ioss_interrupts_gpio_9_IRQn\000"
 7882      5F696E74 
 7882      65727275 
 7882      7074735F 
 7882      6770696F 
 7883              	.LASF24:
 7884 2d1b 4E766963 		.ascii	"NvicMux18_IRQn\000"
 7884      4D757831 
 7884      385F4952 
 7884      516E00
 7885              	.LASF130:
 7886 2d2a 63707573 		.ascii	"cpuss_interrupts_cm4_cti_1_IRQn\000"
 7886      735F696E 
 7886      74657272 
 7886      75707473 
 7886      5F636D34 
 7887              	.LASF559:
 7888 2d4a 43595F42 		.ascii	"CY_BLE_EVT_GATTS_DATA_SIGNED_CMD_REQ\000"
 7888      4C455F45 
 7888      56545F47 
 7888      41545453 
 7888      5F444154 
 7889              	.LASF518:
 7890 2d6f 43595F42 		.ascii	"CY_BLE_EVT_GAP_DEVICE_CONNECTED\000"
 7890      4C455F45 
 7890      56545F47 
 7890      41505F44 
 7890      45564943 
 7891              	.LASF506:
 7892 2d8f 43595F42 		.ascii	"CY_BLE_EVT_RADIO_VOLTAGE_LEVEL\000"
 7892      4C455F45 
 7892      56545F52 
 7892      4144494F 
ARM GAS  C:\Users\salaz\AppData\Local\Temp\ccvE4Xni.s 			page 208


 7892      5F564F4C 
 7893              	.LASF383:
 7894 2dae 6D617374 		.ascii	"masterBufferIdx\000"
 7894      65724275 
 7894      66666572 
 7894      49647800 
 7895              	.LASF633:
 7896 2dbe 63795F62 		.ascii	"cy_ble_connState\000"
 7896      6C655F63 
 7896      6F6E6E53 
 7896      74617465 
 7896      00
 7897              	.LASF397:
 7898 2dcf 43595F53 		.ascii	"CY_SCB_UART_STANDARD\000"
 7898      43425F55 
 7898      4152545F 
 7898      5354414E 
 7898      44415244 
 7899              	.LASF51:
 7900 2de4 696F7373 		.ascii	"ioss_interrupts_gpio_10_IRQn\000"
 7900      5F696E74 
 7900      65727275 
 7900      7074735F 
 7900      6770696F 
 7901              	.LASF378:
 7902 2e01 6D617374 		.ascii	"masterStatus\000"
 7902      65725374 
 7902      61747573 
 7902      00
 7903              	.LASF413:
 7904 2e0e 43595F53 		.ascii	"CY_SCB_UART_ACTIVE_LOW\000"
 7904      43425F55 
 7904      4152545F 
 7904      41435449 
 7904      56455F4C 
 7905              	.LASF357:
 7906 2e25 64656164 		.ascii	"deadTimeClocks\000"
 7906      54696D65 
 7906      436C6F63 
 7906      6B7300
 7907              	.LASF222:
 7908 2e34 4D435744 		.ascii	"MCWDT_CNTLOW\000"
 7908      545F434E 
 7908      544C4F57 
 7908      00
 7909              	.LASF442:
 7910 2e41 74784669 		.ascii	"txFifoIntEnableMask\000"
 7910      666F496E 
 7910      74456E61 
 7910      626C654D 
 7910      61736B00 
 7911              	.LASF120:
 7912 2e55 63707573 		.ascii	"cpuss_interrupts_dw1_13_IRQn\000"
 7912      735F696E 
 7912      74657272 
 7912      75707473 
 7912      5F647731 
ARM GAS  C:\Users\salaz\AppData\Local\Temp\ccvE4Xni.s 			page 209


 7913              	.LASF352:
 7914 2e72 63795F73 		.ascii	"cy_stc_tcpwm_counter_config_t\000"
 7914      74635F74 
 7914      6370776D 
 7914      5F636F75 
 7914      6E746572 
 7915              	.LASF452:
 7916 2e90 72784275 		.ascii	"rxBufSize\000"
 7916      6653697A 
 7916      6500
 7917              	.LASF460:
 7918 2e9a 43595F42 		.ascii	"CY_BLE_EVT_STACK_ON\000"
 7918      4C455F45 
 7918      56545F53 
 7918      5441434B 
 7918      5F4F4E00 
 7919              	.LASF10:
 7920 2eae 4E766963 		.ascii	"NvicMux4_IRQn\000"
 7920      4D757834 
 7920      5F495251 
 7920      6E00
 7921              	.LASF106:
 7922 2ebc 63707573 		.ascii	"cpuss_interrupts_dw0_15_IRQn\000"
 7922      735F696E 
 7922      74657272 
 7922      75707473 
 7922      5F647730 
 7923              	.LASF67:
 7924 2ed9 63707573 		.ascii	"cpuss_interrupts_ipc_1_IRQn\000"
 7924      735F696E 
 7924      74657272 
 7924      75707473 
 7924      5F697063 
 7925              	.LASF135:
 7926 2ef5 74637077 		.ascii	"tcpwm_0_interrupts_4_IRQn\000"
 7926      6D5F305F 
 7926      696E7465 
 7926      72727570 
 7926      74735F34 
 7927              	.LASF631:
 7928 2f0f 63795F62 		.ascii	"cy_ble_advState\000"
 7928      6C655F61 
 7928      64765374 
 7928      61746500 
 7929              	.LASF157:
 7930 2f1f 74637077 		.ascii	"tcpwm_1_interrupts_18_IRQn\000"
 7930      6D5F315F 
 7930      696E7465 
 7930      72727570 
 7930      74735F31 
 7931              	.LASF427:
 7932 2f3a 656E6162 		.ascii	"enableMutliProcessorMode\000"
 7932      6C654D75 
 7932      746C6950 
 7932      726F6365 
 7932      73736F72 
 7933              	.LASF400:
ARM GAS  C:\Users\salaz\AppData\Local\Temp\ccvE4Xni.s 			page 210


 7934 2f53 63795F65 		.ascii	"cy_en_scb_uart_mode_t\000"
 7934      6E5F7363 
 7934      625F7561 
 7934      72745F6D 
 7934      6F64655F 
 7935              	.LASF366:
 7936 2f69 6B696C6C 		.ascii	"killInputMode\000"
 7936      496E7075 
 7936      744D6F64 
 7936      6500
 7937              	.LASF191:
 7938 2f77 63795F65 		.ascii	"cy_en_intr_t\000"
 7938      6E5F696E 
 7938      74725F74 
 7938      00
 7939              	.LASF507:
 7940 2f84 43595F42 		.ascii	"CY_BLE_EVT_AES_CMAC_GEN_COMPLETE\000"
 7940      4C455F45 
 7940      56545F41 
 7940      45535F43 
 7940      4D41435F 
 7941              	.LASF85:
 7942 2fa5 7363625F 		.ascii	"scb_3_interrupt_IRQn\000"
 7942      335F696E 
 7942      74657272 
 7942      7570745F 
 7942      4952516E 
 7943              	.LASF34:
 7944 2fba 4E766963 		.ascii	"NvicMux28_IRQn\000"
 7944      4D757832 
 7944      385F4952 
 7944      516E00
 7945              	.LASF475:
 7946 2fc9 43595F42 		.ascii	"CY_BLE_EVT_DATA_LENGTH_CHANGE\000"
 7946      4C455F45 
 7946      56545F44 
 7946      4154415F 
 7946      4C454E47 
 7947              	.LASF9:
 7948 2fe7 4E766963 		.ascii	"NvicMux3_IRQn\000"
 7948      4D757833 
 7948      5F495251 
 7948      6E00
 7949              	.LASF99:
 7950 2ff5 63707573 		.ascii	"cpuss_interrupts_dw0_8_IRQn\000"
 7950      735F696E 
 7950      74657272 
 7950      75707473 
 7950      5F647730 
 7951              	.LASF173:
 7952 3011 7564625F 		.ascii	"udb_interrupts_10_IRQn\000"
 7952      696E7465 
 7952      72727570 
 7952      74735F31 
 7952      305F4952 
 7953              	.LASF57:
 7954 3028 696F7373 		.ascii	"ioss_interrupt_vdd_IRQn\000"
ARM GAS  C:\Users\salaz\AppData\Local\Temp\ccvE4Xni.s 			page 211


 7954      5F696E74 
 7954      65727275 
 7954      70745F76 
 7954      64645F49 
 7955              	.LASF607:
 7956 3040 656E6162 		.ascii	"enableCounters\000"
 7956      6C65436F 
 7956      756E7465 
 7956      727300
 7957              	.LASF142:
 7958 304f 74637077 		.ascii	"tcpwm_1_interrupts_3_IRQn\000"
 7958      6D5F315F 
 7958      696E7465 
 7958      72727570 
 7958      74735F33 
 7959              	.LASF337:
 7960 3069 636F6D70 		.ascii	"compareOrCapture\000"
 7960      6172654F 
 7960      72436170 
 7960      74757265 
 7960      00
 7961              	.LASF493:
 7962 307a 43595F42 		.ascii	"CY_BLE_EVT_GET_DEVICE_ADDR_COMPLETE\000"
 7962      4C455F45 
 7962      56545F47 
 7962      45545F44 
 7962      45564943 
 7963              	.LASF387:
 7964 309e 736C6176 		.ascii	"slaveTxBuffer\000"
 7964      65547842 
 7964      75666665 
 7964      7200
 7965              	.LASF412:
 7966 30ac 63795F65 		.ascii	"cy_en_scb_uart_parity_t\000"
 7966      6E5F7363 
 7966      625F7561 
 7966      72745F70 
 7966      61726974 
 7967              	.LASF500:
 7968 30c4 43595F42 		.ascii	"CY_BLE_EVT_AES_ENCRYPT_COMPLETE\000"
 7968      4C455F45 
 7968      56545F41 
 7968      45535F45 
 7968      4E435259 
 7969              	.LASF23:
 7970 30e4 4E766963 		.ascii	"NvicMux17_IRQn\000"
 7970      4D757831 
 7970      375F4952 
 7970      516E00
 7971              	.LASF208:
 7972 30f3 75696E74 		.ascii	"uint32_t\000"
 7972      33325F74 
 7972      00
 7973              	.LASF66:
 7974 30fc 63707573 		.ascii	"cpuss_interrupts_ipc_0_IRQn\000"
 7974      735F696E 
 7974      74657272 
ARM GAS  C:\Users\salaz\AppData\Local\Temp\ccvE4Xni.s 			page 212


 7974      75707473 
 7974      5F697063 
 7975              	.LASF406:
 7976 3118 43595F53 		.ascii	"CY_SCB_UART_STOP_BITS_3_5\000"
 7976      43425F55 
 7976      4152545F 
 7976      53544F50 
 7976      5F424954 
 7977              	.LASF597:
 7978 3132 43795F4D 		.ascii	"Cy_MCWDT_GetCount\000"
 7978      43574454 
 7978      5F476574 
 7978      436F756E 
 7978      7400
 7979              	.LASF639:
 7980 3144 53656E73 		.ascii	"SensorBus_context\000"
 7980      6F724275 
 7980      735F636F 
 7980      6E746578 
 7980      7400
 7981              	.LASF630:
 7982 3156 63795F52 		.ascii	"cy_RTC_daysInMonthTbl\000"
 7982      54435F64 
 7982      61797349 
 7982      6E4D6F6E 
 7982      74685462 
 7983              	.LASF356:
 7984 316c 70776D41 		.ascii	"pwmAlignment\000"
 7984      6C69676E 
 7984      6D656E74 
 7984      00
 7985              	.LASF379:
 7986 3179 6D617374 		.ascii	"masterPause\000"
 7986      65725061 
 7986      75736500 
 7987              	.LASF114:
 7988 3185 63707573 		.ascii	"cpuss_interrupts_dw1_7_IRQn\000"
 7988      735F696E 
 7988      74657272 
 7988      75707473 
 7988      5F647731 
 7989              	.LASF287:
 7990 31a1 5057525F 		.ascii	"PWR_TRIM_WAKE_CTL\000"
 7990      5452494D 
 7990      5F57414B 
 7990      455F4354 
 7990      4C00
 7991              	.LASF184:
 7992 31b3 7573625F 		.ascii	"usb_interrupt_hi_IRQn\000"
 7992      696E7465 
 7992      72727570 
 7992      745F6869 
 7992      5F495251 
 7993              	.LASF380:
 7994 31c9 6D617374 		.ascii	"masterRdDir\000"
 7994      65725264 
 7994      44697200 
ARM GAS  C:\Users\salaz\AppData\Local\Temp\ccvE4Xni.s 			page 213


 7995              	.LASF580:
 7996 31d5 43595F42 		.ascii	"CY_BLE_ADV_STATE_ADVERTISING\000"
 7996      4C455F41 
 7996      44565F53 
 7996      54415445 
 7996      5F414456 
 7997              	.LASF370:
 7998 31f2 43595F53 		.ascii	"CY_SCB_I2C_NAK\000"
 7998      43425F49 
 7998      32435F4E 
 7998      414B00
 7999              	.LASF150:
 8000 3201 74637077 		.ascii	"tcpwm_1_interrupts_11_IRQn\000"
 8000      6D5F315F 
 8000      696E7465 
 8000      72727570 
 8000      74735F31 
 8001              	.LASF638:
 8002 321c 4D435744 		.ascii	"MCWDT_config\000"
 8002      545F636F 
 8002      6E666967 
 8002      00
 8003              	.LASF435:
 8004 3229 63747350 		.ascii	"ctsPolarity\000"
 8004      6F6C6172 
 8004      69747900 
 8005              	.LASF119:
 8006 3235 63707573 		.ascii	"cpuss_interrupts_dw1_12_IRQn\000"
 8006      735F696E 
 8006      74657272 
 8006      75707473 
 8006      5F647731 
 8007              	.LASF349:
 8008 3252 73746F70 		.ascii	"stopInput\000"
 8008      496E7075 
 8008      7400
 8009              	.LASF196:
 8010 325c 73686F72 		.ascii	"short unsigned int\000"
 8010      7420756E 
 8010      7369676E 
 8010      65642069 
 8010      6E7400
 8011              	.LASF593:
 8012 326f 54696D65 		.ascii	"Timer\000"
 8012      7200
 8013              	.LASF227:
 8014 3275 4D435744 		.ascii	"MCWDT_INTR\000"
 8014      545F494E 
 8014      545200
 8015              	.LASF92:
 8016 3280 63707573 		.ascii	"cpuss_interrupts_dw0_1_IRQn\000"
 8016      735F696E 
 8016      74657272 
 8016      75707473 
 8016      5F647730 
 8017              	.LASF594:
 8018 329c 62617365 		.ascii	"base\000"
ARM GAS  C:\Users\salaz\AppData\Local\Temp\ccvE4Xni.s 			page 214


 8018      00
 8019              	.LASF403:
 8020 32a1 43595F53 		.ascii	"CY_SCB_UART_STOP_BITS_2\000"
 8020      43425F55 
 8020      4152545F 
 8020      53544F50 
 8020      5F424954 
 8021              	.LASF405:
 8022 32b9 43595F53 		.ascii	"CY_SCB_UART_STOP_BITS_3\000"
 8022      43425F55 
 8022      4152545F 
 8022      53544F50 
 8022      5F424954 
 8023              	.LASF407:
 8024 32d1 43595F53 		.ascii	"CY_SCB_UART_STOP_BITS_4\000"
 8024      43425F55 
 8024      4152545F 
 8024      53544F50 
 8024      5F424954 
 8025              	.LASF270:
 8026 32e9 52455345 		.ascii	"RESERVED10\000"
 8026      52564544 
 8026      313000
 8027              	.LASF272:
 8028 32f4 52455345 		.ascii	"RESERVED11\000"
 8028      52564544 
 8028      313100
 8029              	.LASF650:
 8030 32ff 43795F53 		.ascii	"Cy_SysLib_AssertFailed\000"
 8030      79734C69 
 8030      625F4173 
 8030      73657274 
 8030      4661696C 
 8031              	.LASF134:
 8032 3316 74637077 		.ascii	"tcpwm_0_interrupts_3_IRQn\000"
 8032      6D5F305F 
 8032      696E7465 
 8032      72727570 
 8032      74735F33 
 8033              	.LASF167:
 8034 3330 7564625F 		.ascii	"udb_interrupts_4_IRQn\000"
 8034      696E7465 
 8034      72727570 
 8034      74735F34 
 8034      5F495251 
 8035              	.LASF415:
 8036 3346 63795F65 		.ascii	"cy_en_scb_uart_polarity_t\000"
 8036      6E5F7363 
 8036      625F7561 
 8036      72745F70 
 8036      6F6C6172 
 8037              	.LASF658:
 8038 3360 54696D69 		.ascii	"TimingMaster_Update\000"
 8038      6E674D61 
 8038      73746572 
 8038      5F557064 
 8038      61746500 
ARM GAS  C:\Users\salaz\AppData\Local\Temp\ccvE4Xni.s 			page 215


 8039              	.LASF627:
 8040 3374 54696D69 		.ascii	"TimingMaster_Init\000"
 8040      6E674D61 
 8040      73746572 
 8040      5F496E69 
 8040      7400
 8041              	.LASF290:
 8042 3386 52455345 		.ascii	"RESERVED16\000"
 8042      52564544 
 8042      313600
 8043              	.LASF465:
 8044 3391 43595F42 		.ascii	"CY_BLE_EVT_FLASH_CORRUPT\000"
 8044      4C455F45 
 8044      56545F46 
 8044      4C415348 
 8044      5F434F52 
 8045              	.LASF616:
 8046 33aa 65787069 		.ascii	"expired\000"
 8046      72656400 
 8047              	.LASF33:
 8048 33b2 4E766963 		.ascii	"NvicMux27_IRQn\000"
 8048      4D757832 
 8048      375F4952 
 8048      516E00
 8049              	.LASF197:
 8050 33c1 5F5F696E 		.ascii	"__int32_t\000"
 8050      7433325F 
 8050      7400
 8051              	.LASF362:
 8052 33cb 696E7665 		.ascii	"invertPWMOutN\000"
 8052      72745057 
 8052      4D4F7574 
 8052      4E00
 8053              	.LASF610:
 8054 33d9 43795F4D 		.ascii	"Cy_MCWDT_SetInterruptMask\000"
 8054      43574454 
 8054      5F536574 
 8054      496E7465 
 8054      72727570 
 8055              	.LASF129:
 8056 33f3 63707573 		.ascii	"cpuss_interrupts_cm4_cti_0_IRQn\000"
 8056      735F696E 
 8056      74657272 
 8056      75707473 
 8056      5F636D34 
 8057              	.LASF360:
 8058 3413 656E6162 		.ascii	"enablePeriodSwap\000"
 8058      6C655065 
 8058      72696F64 
 8058      53776170 
 8058      00
 8059              	.LASF107:
 8060 3424 63707573 		.ascii	"cpuss_interrupts_dw1_0_IRQn\000"
 8060      735F696E 
 8060      74657272 
 8060      75707473 
 8060      5F647731 
ARM GAS  C:\Users\salaz\AppData\Local\Temp\ccvE4Xni.s 			page 216


 8061              	.LASF436:
 8062 3440 72747352 		.ascii	"rtsRxFifoLevel\000"
 8062      78466966 
 8062      6F4C6576 
 8062      656C00
 8063              	.LASF654:
 8064 344f 43795F53 		.ascii	"Cy_SysInt_Init\000"
 8064      7973496E 
 8064      745F496E 
 8064      697400
 8065              	.LASF621:
 8066 345e 70657269 		.ascii	"period_ms\000"
 8066      6F645F6D 
 8066      7300
 8067              	.LASF576:
 8068 3468 61747449 		.ascii	"attId\000"
 8068      6400
 8069              	.LASF477:
 8070 346e 43595F42 		.ascii	"CY_BLE_EVT_GET_LOCAL_RPA_COMPLETE\000"
 8070      4C455F45 
 8070      56545F47 
 8070      45545F4C 
 8070      4F43414C 
 8071              	.LASF345:
 8072 3490 72656C6F 		.ascii	"reloadInput\000"
 8072      6164496E 
 8072      70757400 
 8073              	.LASF343:
 8074 349c 63617074 		.ascii	"captureInput\000"
 8074      75726549 
 8074      6E707574 
 8074      00
 8075              	.LASF536:
 8076 34a9 43595F42 		.ascii	"CY_BLE_EVT_GAPP_UPDATE_ADV_SCAN_DATA_COMPLETE\000"
 8076      4C455F45 
 8076      56545F47 
 8076      4150505F 
 8076      55504441 
 8077              	.LASF210:
 8078 34d7 49534552 		.ascii	"ISER\000"
 8078      00
 8079              	.LASF81:
 8080 34dc 63707573 		.ascii	"cpuss_interrupts_ipc_15_IRQn\000"
 8080      735F696E 
 8080      74657272 
 8080      75707473 
 8080      5F697063 
 8081              	.LASF410:
 8082 34f9 43595F53 		.ascii	"CY_SCB_UART_PARITY_EVEN\000"
 8082      43425F55 
 8082      4152545F 
 8082      50415249 
 8082      54595F45 
 8083              	.LASF450:
 8084 3511 72785269 		.ascii	"rxRingBufTail\000"
 8084      6E674275 
 8084      66546169 
ARM GAS  C:\Users\salaz\AppData\Local\Temp\ccvE4Xni.s 			page 217


 8084      6C00
 8085              	.LASF62:
 8086 351f 73727373 		.ascii	"srss_interrupt_backup_IRQn\000"
 8086      5F696E74 
 8086      65727275 
 8086      70745F62 
 8086      61636B75 
 8087              	.LASF438:
 8088 353a 62726561 		.ascii	"breakWidth\000"
 8088      6B576964 
 8088      746800
 8089              	.LASF2:
 8090 3545 48617264 		.ascii	"HardFault_IRQn\000"
 8090      4661756C 
 8090      745F4952 
 8090      516E00
 8091              	.LASF496:
 8092 3554 43595F42 		.ascii	"CY_BLE_EVT_SET_TX_PWR_COMPLETE\000"
 8092      4C455F45 
 8092      56545F53 
 8092      45545F54 
 8092      585F5057 
 8093              	.LASF243:
 8094 3573 5744545F 		.ascii	"WDT_MATCH\000"
 8094      4D415443 
 8094      4800
 8095              	.LASF160:
 8096 357d 74637077 		.ascii	"tcpwm_1_interrupts_21_IRQn\000"
 8096      6D5F315F 
 8096      696E7465 
 8096      72727570 
 8096      74735F32 
 8097              	.LASF447:
 8098 3598 72785269 		.ascii	"rxRingBuf\000"
 8098      6E674275 
 8098      6600
 8099              	.LASF253:
 8100 35a2 434C4B5F 		.ascii	"CLK_OUTPUT_FAST\000"
 8100      4F555450 
 8100      55545F46 
 8100      41535400 
 8101              	.LASF241:
 8102 35b2 5744545F 		.ascii	"WDT_CTL\000"
 8102      43544C00 
 8103              	.LASF374:
 8104 35ba 63795F73 		.ascii	"cy_stc_scb_i2c_context\000"
 8104      74635F73 
 8104      63625F69 
 8104      32635F63 
 8104      6F6E7465 
 8105              	.LASF14:
 8106 35d1 4E766963 		.ascii	"NvicMux8_IRQn\000"
 8106      4D757838 
 8106      5F495251 
 8106      6E00
 8107              	.LASF615:
 8108 35df 6E756D5F 		.ascii	"num_expired\000"
ARM GAS  C:\Users\salaz\AppData\Local\Temp\ccvE4Xni.s 			page 218


 8108      65787069 
 8108      72656400 
 8109              	.LASF37:
 8110 35eb 4E766963 		.ascii	"NvicMux31_IRQn\000"
 8110      4D757833 
 8110      315F4952 
 8110      516E00
 8111              	.LASF481:
 8112 35fa 43595F42 		.ascii	"CY_BLE_EVT_ADD_DEVICE_TO_RPA_LIST_COMPLETE\000"
 8112      4C455F45 
 8112      56545F41 
 8112      44445F44 
 8112      45564943 
 8113              	.LASF473:
 8114 3625 43595F42 		.ascii	"CY_BLE_EVT_SET_SUGGESTED_DATA_LENGTH_COMPLETE\000"
 8114      4C455F45 
 8114      56545F53 
 8114      45545F53 
 8114      55474745 
 8115              	.LASF259:
 8116 3653 434C4B5F 		.ascii	"CLK_ECO_STATUS\000"
 8116      45434F5F 
 8116      53544154 
 8116      555300
 8117              	.LASF640:
 8118 3662 4C696768 		.ascii	"LightOutputC_config\000"
 8118      744F7574 
 8118      70757443 
 8118      5F636F6E 
 8118      66696700 
 8119              	.LASF347:
 8120 3676 73746172 		.ascii	"startInput\000"
 8120      74496E70 
 8120      757400
 8121              	.LASF26:
 8122 3681 4E766963 		.ascii	"NvicMux20_IRQn\000"
 8122      4D757832 
 8122      305F4952 
 8122      516E00
 8123              	.LASF531:
 8124 3690 43595F42 		.ascii	"CY_BLE_EVT_GAP_KEYS_GEN_COMPLETE\000"
 8124      4C455F45 
 8124      56545F47 
 8124      41505F4B 
 8124      4559535F 
 8125              	.LASF277:
 8126 36b1 53525353 		.ascii	"SRSS_INTR_CFG\000"
 8126      5F494E54 
 8126      525F4346 
 8126      4700
 8127              	.LASF612:
 8128 36bf 43795F4D 		.ascii	"Cy_MCWDT_SetMatch\000"
 8128      43574454 
 8128      5F536574 
 8128      4D617463 
 8128      6800
 8129              	.LASF373:
ARM GAS  C:\Users\salaz\AppData\Local\Temp\ccvE4Xni.s 			page 219


 8130 36d1 63795F63 		.ascii	"cy_cb_scb_i2c_handle_addr_t\000"
 8130      625F7363 
 8130      625F6932 
 8130      635F6861 
 8130      6E646C65 
 8131              		.ident	"GCC: (GNU Tools for ARM Embedded Processors) 5.4.1 20160609 (release) [ARM/embedded-5-bran
