ARM GAS  C:\Users\salaz\AppData\Local\Temp\ccvE4Xni.s 			page 1


   1              		.syntax unified
   2              		.cpu cortex-m0plus
   3              		.fpu softvfp
   4              		.eabi_attribute 20, 1
   5              		.eabi_attribute 21, 1
   6              		.eabi_attribute 23, 3
   7              		.eabi_attribute 24, 1
   8              		.eabi_attribute 25, 1
   9              		.eabi_attribute 26, 1
  10              		.eabi_attribute 30, 1
  11              		.eabi_attribute 34, 0
  12              		.eabi_attribute 18, 4
  13              		.thumb
  14              		.syntax unified
  15              		.file	"TimingMaster.c"
  16              		.text
  17              	.Ltext0:
  18              		.cfi_sections	.debug_frame
  19              		.global	__aeabi_uidiv
  20              		.section	.text.TimingMaster_Update,"ax",%progbits
  21              		.align	2
  22              		.code	16
  23              		.thumb_func
  24              		.type	TimingMaster_Update, %function
  25              	TimingMaster_Update:
  26              	.LFB792:
  27              		.file 1 "TimingMaster.c"
   1:TimingMaster.c **** 
   2:TimingMaster.c **** #include <TimingMaster.h>
   3:TimingMaster.c **** #include <SystemCore.h>
   4:TimingMaster.c **** 
   5:TimingMaster.c **** #include "debug.h"
   6:TimingMaster.c **** 
   7:TimingMaster.c **** //-------------------------------------------------------------//
   8:TimingMaster.c **** 
   9:TimingMaster.c **** typedef struct
  10:TimingMaster.c **** {
  11:TimingMaster.c ****     uint8  id;    // Unique Timer ID
  12:TimingMaster.c ****     uint32 period;  // In LFCLK cycles
  13:TimingMaster.c ****     uint32 remaining; // In LFCLK cycles
  14:TimingMaster.c **** }
  15:TimingMaster.c **** Timer;
  16:TimingMaster.c **** 
  17:TimingMaster.c **** #define EXPIRATION_PREEMPTION 10 // 305 us
  18:TimingMaster.c **** 
  19:TimingMaster.c **** uint8  num_timers = 0;
  20:TimingMaster.c **** Timer  timers[MAX_TIMERS];
  21:TimingMaster.c **** 
  22:TimingMaster.c **** //-------------------------------------------------------------//
  23:TimingMaster.c **** //-----------------------TIMER-MAINTENANCE---------------------//
  24:TimingMaster.c **** //-------------------------------------------------------------//
  25:TimingMaster.c **** 
  26:TimingMaster.c **** static void TimingMaster_Update(uint32 elapsed_count)
  27:TimingMaster.c **** {
  28              		.loc 1 27 0
  29              		.cfi_startproc
  30              		@ args = 0, pretend = 0, frame = 80
ARM GAS  C:\Users\salaz\AppData\Local\Temp\ccvE4Xni.s 			page 2


  31              		@ frame_needed = 0, uses_anonymous_args = 0
  32              	.LVL0:
  33 0000 F0B5     		push	{r4, r5, r6, r7, lr}
  34              		.cfi_def_cfa_offset 20
  35              		.cfi_offset 4, -20
  36              		.cfi_offset 5, -16
  37              		.cfi_offset 6, -12
  38              		.cfi_offset 7, -8
  39              		.cfi_offset 14, -4
  40 0002 95B0     		sub	sp, sp, #84
  41              		.cfi_def_cfa_offset 104
  42              	.LVL1:
  43              	.LBB54:
  28:TimingMaster.c ****     uint8 num_expired = 0;
  29:TimingMaster.c ****     Timer* expired[MAX_TIMERS];
  30:TimingMaster.c ****     uint8 shortest_expiration_id = 0;
  31:TimingMaster.c ****     
  32:TimingMaster.c ****     for(uint8 i = 0; i < num_timers; i++)
  44              		.loc 1 32 0
  45 0004 0023     		movs	r3, #0
  46              	.LBE54:
  30:TimingMaster.c ****     
  47              		.loc 1 30 0
  48 0006 0024     		movs	r4, #0
  28:TimingMaster.c ****     uint8 num_expired = 0;
  49              		.loc 1 28 0
  50 0008 0025     		movs	r5, #0
  51              	.LBB55:
  52              		.loc 1 32 0
  53 000a 2EE0     		b	.L2
  54              	.LVL2:
  55              	.L6:
  33:TimingMaster.c ****     {
  34:TimingMaster.c ****         // Determine which timers are considered expired
  35:TimingMaster.c ****         if(elapsed_count + EXPIRATION_PREEMPTION >= timers[i].remaining)
  56              		.loc 1 35 0
  57 000c 1A00     		movs	r2, r3
  58 000e 5E00     		lsls	r6, r3, #1
  59 0010 F618     		adds	r6, r6, r3
  60 0012 B100     		lsls	r1, r6, #2
  61 0014 5C4E     		ldr	r6, .L18
  62 0016 7118     		adds	r1, r6, r1
  63 0018 8E68     		ldr	r6, [r1, #8]
  64 001a 0100     		movs	r1, r0
  65 001c 0A31     		adds	r1, r1, #10
  66 001e B142     		cmp	r1, r6
  67 0020 0CD3     		bcc	.L3
  36:TimingMaster.c ****         {
  37:TimingMaster.c ****             timers[i].remaining = timers[i].period;
  68              		.loc 1 37 0
  69 0022 5E00     		lsls	r6, r3, #1
  70 0024 F618     		adds	r6, r6, r3
  71 0026 B100     		lsls	r1, r6, #2
  72 0028 574E     		ldr	r6, .L18
  73 002a 7118     		adds	r1, r6, r1
  74 002c 4E68     		ldr	r6, [r1, #4]
  75 002e 8E60     		str	r6, [r1, #8]
ARM GAS  C:\Users\salaz\AppData\Local\Temp\ccvE4Xni.s 			page 3


  38:TimingMaster.c ****             expired[num_expired++] = &timers[i];
  76              		.loc 1 38 0
  77 0030 6E1C     		adds	r6, r5, #1
  78              	.LVL3:
  79 0032 AD00     		lsls	r5, r5, #2
  80 0034 6F46     		mov	r7, sp
  81 0036 E951     		str	r1, [r5, r7]
  82 0038 F5B2     		uxtb	r5, r6
  83 003a 06E0     		b	.L4
  84              	.LVL4:
  85              	.L3:
  39:TimingMaster.c ****         }
  40:TimingMaster.c ****         // If not expired update remaining count
  41:TimingMaster.c ****         else
  42:TimingMaster.c ****         {
  43:TimingMaster.c ****             timers[i].remaining = timers[i].remaining - elapsed_count;
  86              		.loc 1 43 0
  87 003c 361A     		subs	r6, r6, r0
  88 003e 5F00     		lsls	r7, r3, #1
  89 0040 FF18     		adds	r7, r7, r3
  90 0042 B900     		lsls	r1, r7, #2
  91 0044 504F     		ldr	r7, .L18
  92 0046 7918     		adds	r1, r7, r1
  93 0048 8E60     		str	r6, [r1, #8]
  94              	.LVL5:
  95              	.L4:
  44:TimingMaster.c ****         }
  45:TimingMaster.c ****         // Find active timer with shortest expiration
  46:TimingMaster.c ****         if(timers[i].remaining < timers[shortest_expiration_id].remaining)
  96              		.loc 1 46 0
  97 004a 4F4E     		ldr	r6, .L18
  98 004c 5100     		lsls	r1, r2, #1
  99 004e 8A18     		adds	r2, r1, r2
 100 0050 9100     		lsls	r1, r2, #2
 101 0052 7118     		adds	r1, r6, r1
 102 0054 8F68     		ldr	r7, [r1, #8]
 103 0056 6100     		lsls	r1, r4, #1
 104 0058 0919     		adds	r1, r1, r4
 105 005a 8A00     		lsls	r2, r1, #2
 106 005c B218     		adds	r2, r6, r2
 107 005e 9268     		ldr	r2, [r2, #8]
 108 0060 9742     		cmp	r7, r2
 109 0062 00D2     		bcs	.L5
  47:TimingMaster.c ****         {
  48:TimingMaster.c ****             shortest_expiration_id = i;
 110              		.loc 1 48 0
 111 0064 1C00     		movs	r4, r3
 112              	.LVL6:
 113              	.L5:
  32:TimingMaster.c ****     {
 114              		.loc 1 32 0 discriminator 2
 115 0066 0133     		adds	r3, r3, #1
 116              	.LVL7:
 117 0068 DBB2     		uxtb	r3, r3
 118              	.LVL8:
 119              	.L2:
  32:TimingMaster.c ****     {
ARM GAS  C:\Users\salaz\AppData\Local\Temp\ccvE4Xni.s 			page 4


 120              		.loc 1 32 0 is_stmt 0 discriminator 1
 121 006a 484A     		ldr	r2, .L18+4
 122 006c 1278     		ldrb	r2, [r2]
 123 006e 9342     		cmp	r3, r2
 124 0070 CCD3     		bcc	.L6
 125              	.LBE55:
  49:TimingMaster.c ****         }
  50:TimingMaster.c ****     }
  51:TimingMaster.c ****     
  52:TimingMaster.c ****     // Setup WDT0 and WDT1 for shortest expiration
  53:TimingMaster.c ****     if(timers[shortest_expiration_id].remaining < 65535)
 126              		.loc 1 53 0 is_stmt 1
 127 0072 6200     		lsls	r2, r4, #1
 128 0074 1219     		adds	r2, r2, r4
 129 0076 9300     		lsls	r3, r2, #2
 130              	.LVL9:
 131 0078 434A     		ldr	r2, .L18
 132 007a D318     		adds	r3, r2, r3
 133 007c 9E68     		ldr	r6, [r3, #8]
 134 007e 444B     		ldr	r3, .L18+8
 135 0080 9E42     		cmp	r6, r3
 136 0082 2CD8     		bhi	.L7
 137              	.LVL10:
 138              	.LBB56:
 139              	.LBB57:
 140              		.file 2 "Generated_Source\\PSoC6\\pdl\\drivers/peripheral/mcwdt/cy_mcwdt.h"
   1:Generated_Source\PSoC6\pdl\drivers/peripheral/mcwdt/cy_mcwdt.h **** /***************************************************************************//**
   2:Generated_Source\PSoC6\pdl\drivers/peripheral/mcwdt/cy_mcwdt.h **** * \file cy_mcwdt.h
   3:Generated_Source\PSoC6\pdl\drivers/peripheral/mcwdt/cy_mcwdt.h **** * \version 1.10.1
   4:Generated_Source\PSoC6\pdl\drivers/peripheral/mcwdt/cy_mcwdt.h **** *
   5:Generated_Source\PSoC6\pdl\drivers/peripheral/mcwdt/cy_mcwdt.h **** * Provides an API declaration of the Cypress PDL 3.0 MCWDT driver
   6:Generated_Source\PSoC6\pdl\drivers/peripheral/mcwdt/cy_mcwdt.h **** *
   7:Generated_Source\PSoC6\pdl\drivers/peripheral/mcwdt/cy_mcwdt.h **** ********************************************************************************
   8:Generated_Source\PSoC6\pdl\drivers/peripheral/mcwdt/cy_mcwdt.h **** * \copyright
   9:Generated_Source\PSoC6\pdl\drivers/peripheral/mcwdt/cy_mcwdt.h **** * Copyright 2016-2018, Cypress Semiconductor Corporation.  All rights reserved.
  10:Generated_Source\PSoC6\pdl\drivers/peripheral/mcwdt/cy_mcwdt.h **** * You may use this file only in accordance with the license, terms, conditions,
  11:Generated_Source\PSoC6\pdl\drivers/peripheral/mcwdt/cy_mcwdt.h **** * disclaimers, and limitations in the end user license agreement accompanying
  12:Generated_Source\PSoC6\pdl\drivers/peripheral/mcwdt/cy_mcwdt.h **** * the software package with which this file was provided.
  13:Generated_Source\PSoC6\pdl\drivers/peripheral/mcwdt/cy_mcwdt.h **** *******************************************************************************/
  14:Generated_Source\PSoC6\pdl\drivers/peripheral/mcwdt/cy_mcwdt.h **** 
  15:Generated_Source\PSoC6\pdl\drivers/peripheral/mcwdt/cy_mcwdt.h **** /**
  16:Generated_Source\PSoC6\pdl\drivers/peripheral/mcwdt/cy_mcwdt.h **** * \defgroup group_mcwdt Multi-Counter Watchdog (MCWDT)
  17:Generated_Source\PSoC6\pdl\drivers/peripheral/mcwdt/cy_mcwdt.h **** * \{
  18:Generated_Source\PSoC6\pdl\drivers/peripheral/mcwdt/cy_mcwdt.h **** * A MCWDT has two 16-bit counters and one 32-bit counter. 
  19:Generated_Source\PSoC6\pdl\drivers/peripheral/mcwdt/cy_mcwdt.h **** * You can use this driver to create a free-running
  20:Generated_Source\PSoC6\pdl\drivers/peripheral/mcwdt/cy_mcwdt.h **** * timer or generate periodic interrupts. The driver also
  21:Generated_Source\PSoC6\pdl\drivers/peripheral/mcwdt/cy_mcwdt.h **** * includes support for the watchdog function to recover from CPU or
  22:Generated_Source\PSoC6\pdl\drivers/peripheral/mcwdt/cy_mcwdt.h **** * firmware failures.
  23:Generated_Source\PSoC6\pdl\drivers/peripheral/mcwdt/cy_mcwdt.h **** *
  24:Generated_Source\PSoC6\pdl\drivers/peripheral/mcwdt/cy_mcwdt.h **** * There are two primary use cases for MCWDT: generating periodic CPU interrupts;
  25:Generated_Source\PSoC6\pdl\drivers/peripheral/mcwdt/cy_mcwdt.h **** * and implementing a free-running timer. Both have many applications in
  26:Generated_Source\PSoC6\pdl\drivers/peripheral/mcwdt/cy_mcwdt.h **** * embedded systems:
  27:Generated_Source\PSoC6\pdl\drivers/peripheral/mcwdt/cy_mcwdt.h **** * * Measuring time between events
  28:Generated_Source\PSoC6\pdl\drivers/peripheral/mcwdt/cy_mcwdt.h **** * * Generating periodic events
  29:Generated_Source\PSoC6\pdl\drivers/peripheral/mcwdt/cy_mcwdt.h **** * * Synchronizing actions
  30:Generated_Source\PSoC6\pdl\drivers/peripheral/mcwdt/cy_mcwdt.h **** * * Real-time clocking
  31:Generated_Source\PSoC6\pdl\drivers/peripheral/mcwdt/cy_mcwdt.h **** * * Polling
ARM GAS  C:\Users\salaz\AppData\Local\Temp\ccvE4Xni.s 			page 5


  32:Generated_Source\PSoC6\pdl\drivers/peripheral/mcwdt/cy_mcwdt.h **** *
  33:Generated_Source\PSoC6\pdl\drivers/peripheral/mcwdt/cy_mcwdt.h **** * An additional use case is to implement a watchdog used for recovering from a CPU or
  34:Generated_Source\PSoC6\pdl\drivers/peripheral/mcwdt/cy_mcwdt.h **** * firmware failure.
  35:Generated_Source\PSoC6\pdl\drivers/peripheral/mcwdt/cy_mcwdt.h **** * 
  36:Generated_Source\PSoC6\pdl\drivers/peripheral/mcwdt/cy_mcwdt.h **** * \section group_mcwdt_configuration Configuration Considerations
  37:Generated_Source\PSoC6\pdl\drivers/peripheral/mcwdt/cy_mcwdt.h **** *
  38:Generated_Source\PSoC6\pdl\drivers/peripheral/mcwdt/cy_mcwdt.h **** * Each MCWDT may be configured for a particular product. 
  39:Generated_Source\PSoC6\pdl\drivers/peripheral/mcwdt/cy_mcwdt.h **** * One MCWDT block can be associated with only one CPU during runtime. 
  40:Generated_Source\PSoC6\pdl\drivers/peripheral/mcwdt/cy_mcwdt.h **** * A single MCWDT is not intended to be used by multiple CPUs simultaneously. 
  41:Generated_Source\PSoC6\pdl\drivers/peripheral/mcwdt/cy_mcwdt.h **** * Each block contains three sub-counters, each of which can be configured for 
  42:Generated_Source\PSoC6\pdl\drivers/peripheral/mcwdt/cy_mcwdt.h **** * various system utility functions - free running counter, periodic interrupts, 
  43:Generated_Source\PSoC6\pdl\drivers/peripheral/mcwdt/cy_mcwdt.h **** * watchdog reset, or three interrupts followed by a watchdog reset.
  44:Generated_Source\PSoC6\pdl\drivers/peripheral/mcwdt/cy_mcwdt.h **** * All counters are clocked by either LFCLK (nominal 32 kHz) or by a cascaded 
  45:Generated_Source\PSoC6\pdl\drivers/peripheral/mcwdt/cy_mcwdt.h **** * counter.
  46:Generated_Source\PSoC6\pdl\drivers/peripheral/mcwdt/cy_mcwdt.h **** * A simplified diagram of the MCWDT hardware is shown below:
  47:Generated_Source\PSoC6\pdl\drivers/peripheral/mcwdt/cy_mcwdt.h **** * \image html mcwdt.png
  48:Generated_Source\PSoC6\pdl\drivers/peripheral/mcwdt/cy_mcwdt.h **** * The frequency of the periodic interrupts can be configured using the Match 
  49:Generated_Source\PSoC6\pdl\drivers/peripheral/mcwdt/cy_mcwdt.h **** * value with combining Clear on match option, which can be set individually 
  50:Generated_Source\PSoC6\pdl\drivers/peripheral/mcwdt/cy_mcwdt.h **** * for each counter using Cy_MCWDT_SetClearOnMatch(). When the Clear on match option 
  51:Generated_Source\PSoC6\pdl\drivers/peripheral/mcwdt/cy_mcwdt.h **** * is not set, the periodic interrupts of the C0 and C1 16-bit sub-counters occur 
  52:Generated_Source\PSoC6\pdl\drivers/peripheral/mcwdt/cy_mcwdt.h **** * after 65535 counts and the match value defines the shift between interrupts 
  53:Generated_Source\PSoC6\pdl\drivers/peripheral/mcwdt/cy_mcwdt.h **** * (see the figure below). The enabled Clear on match option 
  54:Generated_Source\PSoC6\pdl\drivers/peripheral/mcwdt/cy_mcwdt.h **** * resets the counter when the interrupt occurs.
  55:Generated_Source\PSoC6\pdl\drivers/peripheral/mcwdt/cy_mcwdt.h **** * \image html mcwdt_counters.png
  56:Generated_Source\PSoC6\pdl\drivers/peripheral/mcwdt/cy_mcwdt.h **** * 32-bit sub-counter C2 does not have Clear on match option. 
  57:Generated_Source\PSoC6\pdl\drivers/peripheral/mcwdt/cy_mcwdt.h **** * The interrupt of counter C2 occurs when the counts equal 
  58:Generated_Source\PSoC6\pdl\drivers/peripheral/mcwdt/cy_mcwdt.h **** * 2<sup>Toggle bit</sup> value.
  59:Generated_Source\PSoC6\pdl\drivers/peripheral/mcwdt/cy_mcwdt.h **** * \image html mcwdt_subcounters.png
  60:Generated_Source\PSoC6\pdl\drivers/peripheral/mcwdt/cy_mcwdt.h **** * To set up an MCWDT, provide the configuration parameters in the 
  61:Generated_Source\PSoC6\pdl\drivers/peripheral/mcwdt/cy_mcwdt.h **** * cy_stc_mcwdt_config_t structure. Then call  
  62:Generated_Source\PSoC6\pdl\drivers/peripheral/mcwdt/cy_mcwdt.h **** * Cy_MCWDT_Init() to initialize the driver. 
  63:Generated_Source\PSoC6\pdl\drivers/peripheral/mcwdt/cy_mcwdt.h **** * Call Cy_MCWDT_Enable() to enable all specified counters.
  64:Generated_Source\PSoC6\pdl\drivers/peripheral/mcwdt/cy_mcwdt.h **** *
  65:Generated_Source\PSoC6\pdl\drivers/peripheral/mcwdt/cy_mcwdt.h **** * You can also set the mode of operation for any counter. If you choose
  66:Generated_Source\PSoC6\pdl\drivers/peripheral/mcwdt/cy_mcwdt.h **** * interrupt mode, use Cy_MCWDT_SetInterruptMask() with the 
  67:Generated_Source\PSoC6\pdl\drivers/peripheral/mcwdt/cy_mcwdt.h **** * parameter for the masks described in Macro Section. All counter interrupts 
  68:Generated_Source\PSoC6\pdl\drivers/peripheral/mcwdt/cy_mcwdt.h **** * are OR'd together to from a single combined MCWDT interrupt.
  69:Generated_Source\PSoC6\pdl\drivers/peripheral/mcwdt/cy_mcwdt.h **** * Additionally, enable the Global interrupts and initialize the referenced 
  70:Generated_Source\PSoC6\pdl\drivers/peripheral/mcwdt/cy_mcwdt.h **** * interrupt by setting the priority and the interrupt vector using  
  71:Generated_Source\PSoC6\pdl\drivers/peripheral/mcwdt/cy_mcwdt.h **** * \ref Cy_SysInt_Init() of the sysint driver.
  72:Generated_Source\PSoC6\pdl\drivers/peripheral/mcwdt/cy_mcwdt.h **** * 
  73:Generated_Source\PSoC6\pdl\drivers/peripheral/mcwdt/cy_mcwdt.h **** * The values of the MCWDT counters can be monitored using 
  74:Generated_Source\PSoC6\pdl\drivers/peripheral/mcwdt/cy_mcwdt.h **** * Cy_MCWDT_GetCount().
  75:Generated_Source\PSoC6\pdl\drivers/peripheral/mcwdt/cy_mcwdt.h **** *
  76:Generated_Source\PSoC6\pdl\drivers/peripheral/mcwdt/cy_mcwdt.h **** * \note In addition to the MCWDTs, each device has a separate watchdog timer
  77:Generated_Source\PSoC6\pdl\drivers/peripheral/mcwdt/cy_mcwdt.h **** * (WDT) that can also be used to generate a watchdog reset or periodic
  78:Generated_Source\PSoC6\pdl\drivers/peripheral/mcwdt/cy_mcwdt.h **** * interrupts. For more information on the WDT, see the appropriate section
  79:Generated_Source\PSoC6\pdl\drivers/peripheral/mcwdt/cy_mcwdt.h **** * of the PDL.
  80:Generated_Source\PSoC6\pdl\drivers/peripheral/mcwdt/cy_mcwdt.h **** *
  81:Generated_Source\PSoC6\pdl\drivers/peripheral/mcwdt/cy_mcwdt.h **** * \section group_mcwdt_more_information More Information
  82:Generated_Source\PSoC6\pdl\drivers/peripheral/mcwdt/cy_mcwdt.h **** *
  83:Generated_Source\PSoC6\pdl\drivers/peripheral/mcwdt/cy_mcwdt.h **** * For more information on the MCWDT peripheral, refer to 
  84:Generated_Source\PSoC6\pdl\drivers/peripheral/mcwdt/cy_mcwdt.h **** * the technical reference manual (TRM).
  85:Generated_Source\PSoC6\pdl\drivers/peripheral/mcwdt/cy_mcwdt.h **** *
  86:Generated_Source\PSoC6\pdl\drivers/peripheral/mcwdt/cy_mcwdt.h **** * \section group_mcwdt_MISRA MISRA-C Compliance]
  87:Generated_Source\PSoC6\pdl\drivers/peripheral/mcwdt/cy_mcwdt.h **** * The mcwdt driver does not have any specific deviations.
  88:Generated_Source\PSoC6\pdl\drivers/peripheral/mcwdt/cy_mcwdt.h **** *
ARM GAS  C:\Users\salaz\AppData\Local\Temp\ccvE4Xni.s 			page 6


  89:Generated_Source\PSoC6\pdl\drivers/peripheral/mcwdt/cy_mcwdt.h **** * \section group_mcwdt_changelog Changelog
  90:Generated_Source\PSoC6\pdl\drivers/peripheral/mcwdt/cy_mcwdt.h **** * <table class="doxtable">
  91:Generated_Source\PSoC6\pdl\drivers/peripheral/mcwdt/cy_mcwdt.h **** *   <tr><th>Version</th><th>Changes</th><th>Reason for Change</th></tr>
  92:Generated_Source\PSoC6\pdl\drivers/peripheral/mcwdt/cy_mcwdt.h **** *   <tr>
  93:Generated_Source\PSoC6\pdl\drivers/peripheral/mcwdt/cy_mcwdt.h **** *     <td>1.10.1</td>
  94:Generated_Source\PSoC6\pdl\drivers/peripheral/mcwdt/cy_mcwdt.h **** *     <td>Updated description of the \ref cy_stc_mcwdt_config_t structure type</td>
  95:Generated_Source\PSoC6\pdl\drivers/peripheral/mcwdt/cy_mcwdt.h **** *     <td>Documentation update and clarification</td>
  96:Generated_Source\PSoC6\pdl\drivers/peripheral/mcwdt/cy_mcwdt.h **** *   </tr>
  97:Generated_Source\PSoC6\pdl\drivers/peripheral/mcwdt/cy_mcwdt.h **** *   <tr>
  98:Generated_Source\PSoC6\pdl\drivers/peripheral/mcwdt/cy_mcwdt.h **** *     <td>1.10</td>
  99:Generated_Source\PSoC6\pdl\drivers/peripheral/mcwdt/cy_mcwdt.h **** *     <td>Added input parameter validation to the API functions.<br>
 100:Generated_Source\PSoC6\pdl\drivers/peripheral/mcwdt/cy_mcwdt.h **** *     Added API function GetCountCascaded()</td>
 101:Generated_Source\PSoC6\pdl\drivers/peripheral/mcwdt/cy_mcwdt.h **** *     <td></td>
 102:Generated_Source\PSoC6\pdl\drivers/peripheral/mcwdt/cy_mcwdt.h **** *   </tr>
 103:Generated_Source\PSoC6\pdl\drivers/peripheral/mcwdt/cy_mcwdt.h **** *   <tr>
 104:Generated_Source\PSoC6\pdl\drivers/peripheral/mcwdt/cy_mcwdt.h **** *     <td>1.0</td>
 105:Generated_Source\PSoC6\pdl\drivers/peripheral/mcwdt/cy_mcwdt.h **** *     <td>Initial version</td>
 106:Generated_Source\PSoC6\pdl\drivers/peripheral/mcwdt/cy_mcwdt.h **** *     <td></td>
 107:Generated_Source\PSoC6\pdl\drivers/peripheral/mcwdt/cy_mcwdt.h **** *   </tr>
 108:Generated_Source\PSoC6\pdl\drivers/peripheral/mcwdt/cy_mcwdt.h **** * </table>
 109:Generated_Source\PSoC6\pdl\drivers/peripheral/mcwdt/cy_mcwdt.h **** *
 110:Generated_Source\PSoC6\pdl\drivers/peripheral/mcwdt/cy_mcwdt.h **** * \defgroup group_mcwdt_macros Macros
 111:Generated_Source\PSoC6\pdl\drivers/peripheral/mcwdt/cy_mcwdt.h **** * \defgroup group_mcwdt_functions Functions
 112:Generated_Source\PSoC6\pdl\drivers/peripheral/mcwdt/cy_mcwdt.h **** * \defgroup group_mcwdt_data_structures Data Structures
 113:Generated_Source\PSoC6\pdl\drivers/peripheral/mcwdt/cy_mcwdt.h **** * \defgroup group_mcwdt_enums Enumerated Types
 114:Generated_Source\PSoC6\pdl\drivers/peripheral/mcwdt/cy_mcwdt.h **** */
 115:Generated_Source\PSoC6\pdl\drivers/peripheral/mcwdt/cy_mcwdt.h **** 
 116:Generated_Source\PSoC6\pdl\drivers/peripheral/mcwdt/cy_mcwdt.h **** #ifndef CY_MCWDT_H
 117:Generated_Source\PSoC6\pdl\drivers/peripheral/mcwdt/cy_mcwdt.h **** #define CY_MCWDT_H
 118:Generated_Source\PSoC6\pdl\drivers/peripheral/mcwdt/cy_mcwdt.h **** 
 119:Generated_Source\PSoC6\pdl\drivers/peripheral/mcwdt/cy_mcwdt.h **** #if defined(__cplusplus)
 120:Generated_Source\PSoC6\pdl\drivers/peripheral/mcwdt/cy_mcwdt.h **** extern "C" {
 121:Generated_Source\PSoC6\pdl\drivers/peripheral/mcwdt/cy_mcwdt.h **** #endif
 122:Generated_Source\PSoC6\pdl\drivers/peripheral/mcwdt/cy_mcwdt.h **** 
 123:Generated_Source\PSoC6\pdl\drivers/peripheral/mcwdt/cy_mcwdt.h **** #include <stdbool.h>
 124:Generated_Source\PSoC6\pdl\drivers/peripheral/mcwdt/cy_mcwdt.h **** #include <stddef.h>
 125:Generated_Source\PSoC6\pdl\drivers/peripheral/mcwdt/cy_mcwdt.h **** #include "cy_device_headers.h"
 126:Generated_Source\PSoC6\pdl\drivers/peripheral/mcwdt/cy_mcwdt.h **** #include "syslib/cy_syslib.h"
 127:Generated_Source\PSoC6\pdl\drivers/peripheral/mcwdt/cy_mcwdt.h **** 
 128:Generated_Source\PSoC6\pdl\drivers/peripheral/mcwdt/cy_mcwdt.h **** #ifndef CY_IP_MXS40SRSS_MCWDT
 129:Generated_Source\PSoC6\pdl\drivers/peripheral/mcwdt/cy_mcwdt.h ****     #error "The MCWDT driver is not supported on this device"
 130:Generated_Source\PSoC6\pdl\drivers/peripheral/mcwdt/cy_mcwdt.h **** #endif
 131:Generated_Source\PSoC6\pdl\drivers/peripheral/mcwdt/cy_mcwdt.h **** 
 132:Generated_Source\PSoC6\pdl\drivers/peripheral/mcwdt/cy_mcwdt.h **** /**
 133:Generated_Source\PSoC6\pdl\drivers/peripheral/mcwdt/cy_mcwdt.h **** * \addtogroup group_mcwdt_data_structures
 134:Generated_Source\PSoC6\pdl\drivers/peripheral/mcwdt/cy_mcwdt.h **** * \{
 135:Generated_Source\PSoC6\pdl\drivers/peripheral/mcwdt/cy_mcwdt.h **** */
 136:Generated_Source\PSoC6\pdl\drivers/peripheral/mcwdt/cy_mcwdt.h **** 
 137:Generated_Source\PSoC6\pdl\drivers/peripheral/mcwdt/cy_mcwdt.h **** /** The MCWDT component configuration structure. */
 138:Generated_Source\PSoC6\pdl\drivers/peripheral/mcwdt/cy_mcwdt.h **** typedef struct
 139:Generated_Source\PSoC6\pdl\drivers/peripheral/mcwdt/cy_mcwdt.h **** {
 140:Generated_Source\PSoC6\pdl\drivers/peripheral/mcwdt/cy_mcwdt.h ****     uint16_t c0Match;        /**< The sub-counter#0 match comparison value, for interrupt or watchd
 141:Generated_Source\PSoC6\pdl\drivers/peripheral/mcwdt/cy_mcwdt.h ****                                   Range: 0 - 65535 for c0ClearOnMatch = 0 and 1 - 65535 for 
 142:Generated_Source\PSoC6\pdl\drivers/peripheral/mcwdt/cy_mcwdt.h ****                                   c0ClearOnMatch = 1. */
 143:Generated_Source\PSoC6\pdl\drivers/peripheral/mcwdt/cy_mcwdt.h ****     uint16_t c1Match;        /**< The sub-counter#1 match comparison value, for interrupt or watchd
 144:Generated_Source\PSoC6\pdl\drivers/peripheral/mcwdt/cy_mcwdt.h ****                                   Range: 0 - 65535 for c1ClearOnMatch = 0 and 1 - 65535 for 
 145:Generated_Source\PSoC6\pdl\drivers/peripheral/mcwdt/cy_mcwdt.h ****                                   c1ClearOnMatch = 1. */
ARM GAS  C:\Users\salaz\AppData\Local\Temp\ccvE4Xni.s 			page 7


 146:Generated_Source\PSoC6\pdl\drivers/peripheral/mcwdt/cy_mcwdt.h ****     uint8_t  c0Mode;         /**< The sub-counter#0 mode. It can have the following values: \ref CY
 147:Generated_Source\PSoC6\pdl\drivers/peripheral/mcwdt/cy_mcwdt.h ****                                   \ref CY_MCWDT_MODE_INT, \ref CY_MCWDT_MODE_RESET and \ref CY_MCWD
 148:Generated_Source\PSoC6\pdl\drivers/peripheral/mcwdt/cy_mcwdt.h ****     uint8_t  c1Mode;         /**< The sub-counter#1 mode.  It can have the following values: \ref C
 149:Generated_Source\PSoC6\pdl\drivers/peripheral/mcwdt/cy_mcwdt.h ****                                   \ref CY_MCWDT_MODE_INT, \ref CY_MCWDT_MODE_RESET and \ref CY_MCWD
 150:Generated_Source\PSoC6\pdl\drivers/peripheral/mcwdt/cy_mcwdt.h ****     uint8_t  c2ToggleBit;    /**< The sub-counter#2 Period / Toggle Bit value. 
 151:Generated_Source\PSoC6\pdl\drivers/peripheral/mcwdt/cy_mcwdt.h ****                                   Range: 0 - 31. */
 152:Generated_Source\PSoC6\pdl\drivers/peripheral/mcwdt/cy_mcwdt.h ****     uint8_t  c2Mode;         /**< The sub-counter#2 mode. It can have the following values: \ref CY
 153:Generated_Source\PSoC6\pdl\drivers/peripheral/mcwdt/cy_mcwdt.h ****                                   and \ref CY_MCWDT_MODE_INT. */
 154:Generated_Source\PSoC6\pdl\drivers/peripheral/mcwdt/cy_mcwdt.h ****     bool     c0ClearOnMatch; /**< The sub-counter#0 Clear On Match parameter enabled/disabled. */
 155:Generated_Source\PSoC6\pdl\drivers/peripheral/mcwdt/cy_mcwdt.h ****     bool     c1ClearOnMatch; /**< The sub-counter#1 Clear On Match parameter enabled/disabled. */
 156:Generated_Source\PSoC6\pdl\drivers/peripheral/mcwdt/cy_mcwdt.h ****     bool     c0c1Cascade;    /**< The sub-counter#1 is clocked by LFCLK or from sub-counter#0 casca
 157:Generated_Source\PSoC6\pdl\drivers/peripheral/mcwdt/cy_mcwdt.h ****     bool     c1c2Cascade;    /**< The sub-counter#2 is clocked by LFCLK or from sub-counter#1 casca
 158:Generated_Source\PSoC6\pdl\drivers/peripheral/mcwdt/cy_mcwdt.h **** } cy_stc_mcwdt_config_t;
 159:Generated_Source\PSoC6\pdl\drivers/peripheral/mcwdt/cy_mcwdt.h **** 
 160:Generated_Source\PSoC6\pdl\drivers/peripheral/mcwdt/cy_mcwdt.h **** /** \} group_mcwdt_data_structures */
 161:Generated_Source\PSoC6\pdl\drivers/peripheral/mcwdt/cy_mcwdt.h **** 
 162:Generated_Source\PSoC6\pdl\drivers/peripheral/mcwdt/cy_mcwdt.h **** /**
 163:Generated_Source\PSoC6\pdl\drivers/peripheral/mcwdt/cy_mcwdt.h **** * \addtogroup group_mcwdt_macros
 164:Generated_Source\PSoC6\pdl\drivers/peripheral/mcwdt/cy_mcwdt.h **** * \{
 165:Generated_Source\PSoC6\pdl\drivers/peripheral/mcwdt/cy_mcwdt.h **** */
 166:Generated_Source\PSoC6\pdl\drivers/peripheral/mcwdt/cy_mcwdt.h **** 
 167:Generated_Source\PSoC6\pdl\drivers/peripheral/mcwdt/cy_mcwdt.h **** /** Driver major version */
 168:Generated_Source\PSoC6\pdl\drivers/peripheral/mcwdt/cy_mcwdt.h **** #define CY_MCWDT_DRV_VERSION_MAJOR       1
 169:Generated_Source\PSoC6\pdl\drivers/peripheral/mcwdt/cy_mcwdt.h **** 
 170:Generated_Source\PSoC6\pdl\drivers/peripheral/mcwdt/cy_mcwdt.h **** /** Driver minor version */
 171:Generated_Source\PSoC6\pdl\drivers/peripheral/mcwdt/cy_mcwdt.h **** #define CY_MCWDT_DRV_VERSION_MINOR       10
 172:Generated_Source\PSoC6\pdl\drivers/peripheral/mcwdt/cy_mcwdt.h **** 
 173:Generated_Source\PSoC6\pdl\drivers/peripheral/mcwdt/cy_mcwdt.h **** /** \cond INTERNAL_MACROS */
 174:Generated_Source\PSoC6\pdl\drivers/peripheral/mcwdt/cy_mcwdt.h **** 
 175:Generated_Source\PSoC6\pdl\drivers/peripheral/mcwdt/cy_mcwdt.h **** /***************************************
 176:Generated_Source\PSoC6\pdl\drivers/peripheral/mcwdt/cy_mcwdt.h **** *        Registers Constants
 177:Generated_Source\PSoC6\pdl\drivers/peripheral/mcwdt/cy_mcwdt.h **** ***************************************/
 178:Generated_Source\PSoC6\pdl\drivers/peripheral/mcwdt/cy_mcwdt.h **** 
 179:Generated_Source\PSoC6\pdl\drivers/peripheral/mcwdt/cy_mcwdt.h **** #define CY_MCWDT_LOCK_CLR0      (1u)
 180:Generated_Source\PSoC6\pdl\drivers/peripheral/mcwdt/cy_mcwdt.h **** #define CY_MCWDT_LOCK_CLR1      (2u)
 181:Generated_Source\PSoC6\pdl\drivers/peripheral/mcwdt/cy_mcwdt.h **** #define CY_MCWDT_LOCK_SET01     (3u)
 182:Generated_Source\PSoC6\pdl\drivers/peripheral/mcwdt/cy_mcwdt.h **** 
 183:Generated_Source\PSoC6\pdl\drivers/peripheral/mcwdt/cy_mcwdt.h **** #define CY_MCWDT_BYTE_SHIFT     (8u)
 184:Generated_Source\PSoC6\pdl\drivers/peripheral/mcwdt/cy_mcwdt.h **** #define CY_MCWDT_C0C1_MODE_MASK (3u)
 185:Generated_Source\PSoC6\pdl\drivers/peripheral/mcwdt/cy_mcwdt.h **** #define CY_MCWDT_C2_MODE_MASK   (1u)
 186:Generated_Source\PSoC6\pdl\drivers/peripheral/mcwdt/cy_mcwdt.h **** 
 187:Generated_Source\PSoC6\pdl\drivers/peripheral/mcwdt/cy_mcwdt.h **** 
 188:Generated_Source\PSoC6\pdl\drivers/peripheral/mcwdt/cy_mcwdt.h **** /***************************************
 189:Generated_Source\PSoC6\pdl\drivers/peripheral/mcwdt/cy_mcwdt.h **** *            API Constants
 190:Generated_Source\PSoC6\pdl\drivers/peripheral/mcwdt/cy_mcwdt.h **** ***************************************/
 191:Generated_Source\PSoC6\pdl\drivers/peripheral/mcwdt/cy_mcwdt.h **** 
 192:Generated_Source\PSoC6\pdl\drivers/peripheral/mcwdt/cy_mcwdt.h **** #define CY_MCWDT_ALL_WDT_ENABLE_Msk (MCWDT_STRUCT_MCWDT_CTL_WDT_ENABLE0_Msk | MCWDT_STRUCT_MCWDT_CT
 193:Generated_Source\PSoC6\pdl\drivers/peripheral/mcwdt/cy_mcwdt.h ****                                   MCWDT_STRUCT_MCWDT_CTL_WDT_ENABLE2_Msk)
 194:Generated_Source\PSoC6\pdl\drivers/peripheral/mcwdt/cy_mcwdt.h ****                                   
 195:Generated_Source\PSoC6\pdl\drivers/peripheral/mcwdt/cy_mcwdt.h **** #define CY_MCWDT_CTR0_Pos (0u)
 196:Generated_Source\PSoC6\pdl\drivers/peripheral/mcwdt/cy_mcwdt.h **** #define CY_MCWDT_CTR1_Pos (1u)
 197:Generated_Source\PSoC6\pdl\drivers/peripheral/mcwdt/cy_mcwdt.h **** #define CY_MCWDT_CTR2_Pos (2u)
 198:Generated_Source\PSoC6\pdl\drivers/peripheral/mcwdt/cy_mcwdt.h **** #define CY_MCWDT_CTR_Pos  (0UL)
 199:Generated_Source\PSoC6\pdl\drivers/peripheral/mcwdt/cy_mcwdt.h **** 
 200:Generated_Source\PSoC6\pdl\drivers/peripheral/mcwdt/cy_mcwdt.h **** #define CY_MCWDT_C2_MODE_MASK   (1u) 
 201:Generated_Source\PSoC6\pdl\drivers/peripheral/mcwdt/cy_mcwdt.h ****                                   
 202:Generated_Source\PSoC6\pdl\drivers/peripheral/mcwdt/cy_mcwdt.h **** /** \endcond */
ARM GAS  C:\Users\salaz\AppData\Local\Temp\ccvE4Xni.s 			page 8


 203:Generated_Source\PSoC6\pdl\drivers/peripheral/mcwdt/cy_mcwdt.h **** 
 204:Generated_Source\PSoC6\pdl\drivers/peripheral/mcwdt/cy_mcwdt.h **** #define CY_MCWDT_ID       CY_PDL_DRV_ID(0x35u)                      /**< MCWDT PDL ID */
 205:Generated_Source\PSoC6\pdl\drivers/peripheral/mcwdt/cy_mcwdt.h **** 
 206:Generated_Source\PSoC6\pdl\drivers/peripheral/mcwdt/cy_mcwdt.h **** #define CY_MCWDT_CTR0     (1UL << CY_MCWDT_CTR0_Pos)                /**< The sub-counter#0 mask. Th
 207:Generated_Source\PSoC6\pdl\drivers/peripheral/mcwdt/cy_mcwdt.h ****                                                                    that handle multiple counters, i
 208:Generated_Source\PSoC6\pdl\drivers/peripheral/mcwdt/cy_mcwdt.h ****                                                                    Cy_MCWDT_Disable(), Cy_MCWDT_Cle
 209:Generated_Source\PSoC6\pdl\drivers/peripheral/mcwdt/cy_mcwdt.h **** #define CY_MCWDT_CTR1     (1UL << CY_MCWDT_CTR1_Pos)                /**< The sub-counter#1 mask. Th
 210:Generated_Source\PSoC6\pdl\drivers/peripheral/mcwdt/cy_mcwdt.h ****                                                                    that handle multiple counters, i
 211:Generated_Source\PSoC6\pdl\drivers/peripheral/mcwdt/cy_mcwdt.h ****                                                                    Cy_MCWDT_Disable(), Cy_MCWDT_Cle
 212:Generated_Source\PSoC6\pdl\drivers/peripheral/mcwdt/cy_mcwdt.h **** #define CY_MCWDT_CTR2     (1UL << CY_MCWDT_CTR2_Pos)                /**< The sub-counter#2 mask. Th
 213:Generated_Source\PSoC6\pdl\drivers/peripheral/mcwdt/cy_mcwdt.h ****                                                                    that handle multiple counters, i
 214:Generated_Source\PSoC6\pdl\drivers/peripheral/mcwdt/cy_mcwdt.h ****                                                                    Cy_MCWDT_Disable(), Cy_MCWDT_Cle
 215:Generated_Source\PSoC6\pdl\drivers/peripheral/mcwdt/cy_mcwdt.h **** #define CY_MCWDT_CTR_Msk  (CY_MCWDT_CTR0 | CY_MCWDT_CTR1 | CY_MCWDT_CTR2) /**< The mask for all sub
 216:Generated_Source\PSoC6\pdl\drivers/peripheral/mcwdt/cy_mcwdt.h ****                                                                    that handle multiple counters, i
 217:Generated_Source\PSoC6\pdl\drivers/peripheral/mcwdt/cy_mcwdt.h ****                                                                    Cy_MCWDT_Disable(), Cy_MCWDT_Cle
 218:Generated_Source\PSoC6\pdl\drivers/peripheral/mcwdt/cy_mcwdt.h **** 
 219:Generated_Source\PSoC6\pdl\drivers/peripheral/mcwdt/cy_mcwdt.h **** /** \} group_mcwdt_macros */
 220:Generated_Source\PSoC6\pdl\drivers/peripheral/mcwdt/cy_mcwdt.h **** 
 221:Generated_Source\PSoC6\pdl\drivers/peripheral/mcwdt/cy_mcwdt.h **** 
 222:Generated_Source\PSoC6\pdl\drivers/peripheral/mcwdt/cy_mcwdt.h **** /**
 223:Generated_Source\PSoC6\pdl\drivers/peripheral/mcwdt/cy_mcwdt.h **** * \addtogroup group_mcwdt_enums
 224:Generated_Source\PSoC6\pdl\drivers/peripheral/mcwdt/cy_mcwdt.h **** * \{
 225:Generated_Source\PSoC6\pdl\drivers/peripheral/mcwdt/cy_mcwdt.h **** */
 226:Generated_Source\PSoC6\pdl\drivers/peripheral/mcwdt/cy_mcwdt.h **** 
 227:Generated_Source\PSoC6\pdl\drivers/peripheral/mcwdt/cy_mcwdt.h **** /** The mcwdt sub-counter identifiers. */
 228:Generated_Source\PSoC6\pdl\drivers/peripheral/mcwdt/cy_mcwdt.h **** typedef enum
 229:Generated_Source\PSoC6\pdl\drivers/peripheral/mcwdt/cy_mcwdt.h **** {
 230:Generated_Source\PSoC6\pdl\drivers/peripheral/mcwdt/cy_mcwdt.h ****     CY_MCWDT_COUNTER0,  /**< Sub-counter#0 identifier. */
 231:Generated_Source\PSoC6\pdl\drivers/peripheral/mcwdt/cy_mcwdt.h ****     CY_MCWDT_COUNTER1,  /**< Sub-counter#1 identifier. */
 232:Generated_Source\PSoC6\pdl\drivers/peripheral/mcwdt/cy_mcwdt.h ****     CY_MCWDT_COUNTER2   /**< Sub-counter#2 identifier. */
 233:Generated_Source\PSoC6\pdl\drivers/peripheral/mcwdt/cy_mcwdt.h **** } cy_en_mcwdtctr_t;
 234:Generated_Source\PSoC6\pdl\drivers/peripheral/mcwdt/cy_mcwdt.h **** 
 235:Generated_Source\PSoC6\pdl\drivers/peripheral/mcwdt/cy_mcwdt.h **** /** The mcwdt modes. */
 236:Generated_Source\PSoC6\pdl\drivers/peripheral/mcwdt/cy_mcwdt.h **** typedef enum
 237:Generated_Source\PSoC6\pdl\drivers/peripheral/mcwdt/cy_mcwdt.h **** {
 238:Generated_Source\PSoC6\pdl\drivers/peripheral/mcwdt/cy_mcwdt.h ****     CY_MCWDT_MODE_NONE,      /**< The No action mode. It is used for Set/GetMode functions. */
 239:Generated_Source\PSoC6\pdl\drivers/peripheral/mcwdt/cy_mcwdt.h ****     CY_MCWDT_MODE_INT,       /**< The Interrupt mode. It is used for Set/GetMode functions. */
 240:Generated_Source\PSoC6\pdl\drivers/peripheral/mcwdt/cy_mcwdt.h ****     CY_MCWDT_MODE_RESET,     /**< The Reset mode. It is used for Set/GetMode functions. */
 241:Generated_Source\PSoC6\pdl\drivers/peripheral/mcwdt/cy_mcwdt.h ****     CY_MCWDT_MODE_INT_RESET  /**< The Three interrupts then watchdog reset mode. It is used for 
 242:Generated_Source\PSoC6\pdl\drivers/peripheral/mcwdt/cy_mcwdt.h ****                                Set/GetMode functions. */
 243:Generated_Source\PSoC6\pdl\drivers/peripheral/mcwdt/cy_mcwdt.h **** } cy_en_mcwdtmode_t;
 244:Generated_Source\PSoC6\pdl\drivers/peripheral/mcwdt/cy_mcwdt.h **** 
 245:Generated_Source\PSoC6\pdl\drivers/peripheral/mcwdt/cy_mcwdt.h **** /** The mcwdt cascading. */
 246:Generated_Source\PSoC6\pdl\drivers/peripheral/mcwdt/cy_mcwdt.h **** typedef enum
 247:Generated_Source\PSoC6\pdl\drivers/peripheral/mcwdt/cy_mcwdt.h **** {
 248:Generated_Source\PSoC6\pdl\drivers/peripheral/mcwdt/cy_mcwdt.h ****     CY_MCWDT_CASCADE_NONE,  /**< The cascading is disabled. It is used for Set/GetCascade functions
 249:Generated_Source\PSoC6\pdl\drivers/peripheral/mcwdt/cy_mcwdt.h ****     CY_MCWDT_CASCADE_C0C1,  /**< The sub-counter#1 is clocked by LFCLK or from sub-counter#0 cascad
 250:Generated_Source\PSoC6\pdl\drivers/peripheral/mcwdt/cy_mcwdt.h ****                               It is used for Set/GetCascade functions. */
 251:Generated_Source\PSoC6\pdl\drivers/peripheral/mcwdt/cy_mcwdt.h ****     CY_MCWDT_CASCADE_C1C2,  /**< The sub-counter#2 is clocked by LFCLK or from sub-counter#1 cascad
 252:Generated_Source\PSoC6\pdl\drivers/peripheral/mcwdt/cy_mcwdt.h ****                               It is used for Set/GetCascade functions. */
 253:Generated_Source\PSoC6\pdl\drivers/peripheral/mcwdt/cy_mcwdt.h ****     CY_MCWDT_CASCADE_BOTH   /**< The sub-counter#1 is clocked by LFCLK or from sub-counter#0 cascad
 254:Generated_Source\PSoC6\pdl\drivers/peripheral/mcwdt/cy_mcwdt.h ****                               and the sub-counter#2 is clocked by LFCLK or from sub-counter#1 casca
 255:Generated_Source\PSoC6\pdl\drivers/peripheral/mcwdt/cy_mcwdt.h ****                               It is used for Set/GetCascade functions. */
 256:Generated_Source\PSoC6\pdl\drivers/peripheral/mcwdt/cy_mcwdt.h **** } cy_en_mcwdtcascade_t;
 257:Generated_Source\PSoC6\pdl\drivers/peripheral/mcwdt/cy_mcwdt.h **** 
 258:Generated_Source\PSoC6\pdl\drivers/peripheral/mcwdt/cy_mcwdt.h **** /** The MCWDT error codes. */
 259:Generated_Source\PSoC6\pdl\drivers/peripheral/mcwdt/cy_mcwdt.h **** typedef enum 
ARM GAS  C:\Users\salaz\AppData\Local\Temp\ccvE4Xni.s 			page 9


 260:Generated_Source\PSoC6\pdl\drivers/peripheral/mcwdt/cy_mcwdt.h **** {
 261:Generated_Source\PSoC6\pdl\drivers/peripheral/mcwdt/cy_mcwdt.h ****     CY_MCWDT_SUCCESS = 0x00u,                                            /**< Successful */
 262:Generated_Source\PSoC6\pdl\drivers/peripheral/mcwdt/cy_mcwdt.h ****     CY_MCWDT_BAD_PARAM = CY_MCWDT_ID | CY_PDL_STATUS_ERROR | 0x01u,     /**< One or more invalid pa
 263:Generated_Source\PSoC6\pdl\drivers/peripheral/mcwdt/cy_mcwdt.h **** } cy_en_mcwdt_status_t;
 264:Generated_Source\PSoC6\pdl\drivers/peripheral/mcwdt/cy_mcwdt.h **** 
 265:Generated_Source\PSoC6\pdl\drivers/peripheral/mcwdt/cy_mcwdt.h **** /** \} group_mcwdt_enums */
 266:Generated_Source\PSoC6\pdl\drivers/peripheral/mcwdt/cy_mcwdt.h **** 
 267:Generated_Source\PSoC6\pdl\drivers/peripheral/mcwdt/cy_mcwdt.h **** 
 268:Generated_Source\PSoC6\pdl\drivers/peripheral/mcwdt/cy_mcwdt.h **** /** \cond PARAM_CHECK_MACROS */
 269:Generated_Source\PSoC6\pdl\drivers/peripheral/mcwdt/cy_mcwdt.h **** 
 270:Generated_Source\PSoC6\pdl\drivers/peripheral/mcwdt/cy_mcwdt.h **** /** Parameter check macros */ 
 271:Generated_Source\PSoC6\pdl\drivers/peripheral/mcwdt/cy_mcwdt.h **** #define CY_MCWDT_IS_CNTS_MASK_VALID(counters)  (0U == ((counters) & (uint32_t)~CY_MCWDT_CTR_Msk)) 
 272:Generated_Source\PSoC6\pdl\drivers/peripheral/mcwdt/cy_mcwdt.h ****                                                
 273:Generated_Source\PSoC6\pdl\drivers/peripheral/mcwdt/cy_mcwdt.h **** #define CY_MCWDT_IS_CNT_NUM_VALID(counter)    ((CY_MCWDT_COUNTER0 == (counter)) || \
 274:Generated_Source\PSoC6\pdl\drivers/peripheral/mcwdt/cy_mcwdt.h ****                                                (CY_MCWDT_COUNTER1 == (counter)) || \
 275:Generated_Source\PSoC6\pdl\drivers/peripheral/mcwdt/cy_mcwdt.h ****                                                (CY_MCWDT_COUNTER2 == (counter)))
 276:Generated_Source\PSoC6\pdl\drivers/peripheral/mcwdt/cy_mcwdt.h **** 
 277:Generated_Source\PSoC6\pdl\drivers/peripheral/mcwdt/cy_mcwdt.h **** #define CY_MCWDT_IS_MODE_VALID(mode)          ((CY_MCWDT_MODE_NONE == (mode)) || \
 278:Generated_Source\PSoC6\pdl\drivers/peripheral/mcwdt/cy_mcwdt.h ****                                                (CY_MCWDT_MODE_INT == (mode)) || \
 279:Generated_Source\PSoC6\pdl\drivers/peripheral/mcwdt/cy_mcwdt.h ****                                                (CY_MCWDT_MODE_RESET == (mode)) || \
 280:Generated_Source\PSoC6\pdl\drivers/peripheral/mcwdt/cy_mcwdt.h ****                                                (CY_MCWDT_MODE_INT_RESET == (mode)))
 281:Generated_Source\PSoC6\pdl\drivers/peripheral/mcwdt/cy_mcwdt.h **** 
 282:Generated_Source\PSoC6\pdl\drivers/peripheral/mcwdt/cy_mcwdt.h **** #define CY_MCWDT_IS_ENABLE_VALID(enable)      (1UL >= (enable))
 283:Generated_Source\PSoC6\pdl\drivers/peripheral/mcwdt/cy_mcwdt.h **** 
 284:Generated_Source\PSoC6\pdl\drivers/peripheral/mcwdt/cy_mcwdt.h **** 
 285:Generated_Source\PSoC6\pdl\drivers/peripheral/mcwdt/cy_mcwdt.h **** #define CY_MCWDT_IS_CASCADE_VALID(cascade)    ((CY_MCWDT_CASCADE_NONE == (cascade)) || \
 286:Generated_Source\PSoC6\pdl\drivers/peripheral/mcwdt/cy_mcwdt.h ****                                                (CY_MCWDT_CASCADE_C0C1 == (cascade)) || \
 287:Generated_Source\PSoC6\pdl\drivers/peripheral/mcwdt/cy_mcwdt.h ****                                                (CY_MCWDT_CASCADE_C1C2 == (cascade)) || \
 288:Generated_Source\PSoC6\pdl\drivers/peripheral/mcwdt/cy_mcwdt.h ****                                                (CY_MCWDT_CASCADE_BOTH == (cascade)))
 289:Generated_Source\PSoC6\pdl\drivers/peripheral/mcwdt/cy_mcwdt.h ****                                                
 290:Generated_Source\PSoC6\pdl\drivers/peripheral/mcwdt/cy_mcwdt.h **** #define CY_MCWDT_IS_MATCH_VALID(clearOnMatch, match)  ((clearOnMatch) ? (1UL <= (match)) : true)
 291:Generated_Source\PSoC6\pdl\drivers/peripheral/mcwdt/cy_mcwdt.h **** 
 292:Generated_Source\PSoC6\pdl\drivers/peripheral/mcwdt/cy_mcwdt.h **** #define CY_MCWDT_IS_BIT_VALID(bit)            (31UL >= (bit))                                      
 293:Generated_Source\PSoC6\pdl\drivers/peripheral/mcwdt/cy_mcwdt.h **** 
 294:Generated_Source\PSoC6\pdl\drivers/peripheral/mcwdt/cy_mcwdt.h ****                                           
 295:Generated_Source\PSoC6\pdl\drivers/peripheral/mcwdt/cy_mcwdt.h **** /** \endcond */
 296:Generated_Source\PSoC6\pdl\drivers/peripheral/mcwdt/cy_mcwdt.h **** 
 297:Generated_Source\PSoC6\pdl\drivers/peripheral/mcwdt/cy_mcwdt.h **** 
 298:Generated_Source\PSoC6\pdl\drivers/peripheral/mcwdt/cy_mcwdt.h **** /*******************************************************************************
 299:Generated_Source\PSoC6\pdl\drivers/peripheral/mcwdt/cy_mcwdt.h **** *        Function Prototypes
 300:Generated_Source\PSoC6\pdl\drivers/peripheral/mcwdt/cy_mcwdt.h **** *******************************************************************************/
 301:Generated_Source\PSoC6\pdl\drivers/peripheral/mcwdt/cy_mcwdt.h **** 
 302:Generated_Source\PSoC6\pdl\drivers/peripheral/mcwdt/cy_mcwdt.h **** /**
 303:Generated_Source\PSoC6\pdl\drivers/peripheral/mcwdt/cy_mcwdt.h **** * \addtogroup group_mcwdt_functions
 304:Generated_Source\PSoC6\pdl\drivers/peripheral/mcwdt/cy_mcwdt.h **** * \{
 305:Generated_Source\PSoC6\pdl\drivers/peripheral/mcwdt/cy_mcwdt.h **** */
 306:Generated_Source\PSoC6\pdl\drivers/peripheral/mcwdt/cy_mcwdt.h **** cy_en_mcwdt_status_t     Cy_MCWDT_Init(MCWDT_STRUCT_Type *base, cy_stc_mcwdt_config_t const *config
 307:Generated_Source\PSoC6\pdl\drivers/peripheral/mcwdt/cy_mcwdt.h ****                 void     Cy_MCWDT_DeInit(MCWDT_STRUCT_Type *base);
 308:Generated_Source\PSoC6\pdl\drivers/peripheral/mcwdt/cy_mcwdt.h **** __STATIC_INLINE void     Cy_MCWDT_Enable(MCWDT_STRUCT_Type *base, uint32_t counters, uint16_t waitU
 309:Generated_Source\PSoC6\pdl\drivers/peripheral/mcwdt/cy_mcwdt.h **** __STATIC_INLINE void     Cy_MCWDT_Disable(MCWDT_STRUCT_Type *base, uint32_t counters, uint16_t wait
 310:Generated_Source\PSoC6\pdl\drivers/peripheral/mcwdt/cy_mcwdt.h **** __STATIC_INLINE uint32_t Cy_MCWDT_GetEnabledStatus(MCWDT_STRUCT_Type const *base, cy_en_mcwdtctr_t 
 311:Generated_Source\PSoC6\pdl\drivers/peripheral/mcwdt/cy_mcwdt.h **** __STATIC_INLINE void     Cy_MCWDT_Lock(MCWDT_STRUCT_Type *base);
 312:Generated_Source\PSoC6\pdl\drivers/peripheral/mcwdt/cy_mcwdt.h **** __STATIC_INLINE void     Cy_MCWDT_Unlock(MCWDT_STRUCT_Type *base);
 313:Generated_Source\PSoC6\pdl\drivers/peripheral/mcwdt/cy_mcwdt.h **** __STATIC_INLINE uint32_t Cy_MCWDT_GetLockedStatus(MCWDT_STRUCT_Type const *base);
 314:Generated_Source\PSoC6\pdl\drivers/peripheral/mcwdt/cy_mcwdt.h **** __STATIC_INLINE void     Cy_MCWDT_SetMode(MCWDT_STRUCT_Type *base, cy_en_mcwdtctr_t counter, cy_en_
 315:Generated_Source\PSoC6\pdl\drivers/peripheral/mcwdt/cy_mcwdt.h **** __STATIC_INLINE cy_en_mcwdtmode_t Cy_MCWDT_GetMode(MCWDT_STRUCT_Type const *base, cy_en_mcwdtctr_t 
 316:Generated_Source\PSoC6\pdl\drivers/peripheral/mcwdt/cy_mcwdt.h **** __STATIC_INLINE void     Cy_MCWDT_SetClearOnMatch(MCWDT_STRUCT_Type *base, cy_en_mcwdtctr_t counter
ARM GAS  C:\Users\salaz\AppData\Local\Temp\ccvE4Xni.s 			page 10


 317:Generated_Source\PSoC6\pdl\drivers/peripheral/mcwdt/cy_mcwdt.h **** __STATIC_INLINE uint32_t Cy_MCWDT_GetClearOnMatch(MCWDT_STRUCT_Type const *base, cy_en_mcwdtctr_t c
 318:Generated_Source\PSoC6\pdl\drivers/peripheral/mcwdt/cy_mcwdt.h **** __STATIC_INLINE void     Cy_MCWDT_SetCascade(MCWDT_STRUCT_Type *base, cy_en_mcwdtcascade_t cascade)
 319:Generated_Source\PSoC6\pdl\drivers/peripheral/mcwdt/cy_mcwdt.h **** __STATIC_INLINE cy_en_mcwdtcascade_t Cy_MCWDT_GetCascade(MCWDT_STRUCT_Type const *base);
 320:Generated_Source\PSoC6\pdl\drivers/peripheral/mcwdt/cy_mcwdt.h **** __STATIC_INLINE void     Cy_MCWDT_SetMatch(MCWDT_STRUCT_Type *base, cy_en_mcwdtctr_t counter, uint3
 321:Generated_Source\PSoC6\pdl\drivers/peripheral/mcwdt/cy_mcwdt.h **** __STATIC_INLINE uint32_t Cy_MCWDT_GetMatch(MCWDT_STRUCT_Type const *base, cy_en_mcwdtctr_t counter)
 322:Generated_Source\PSoC6\pdl\drivers/peripheral/mcwdt/cy_mcwdt.h **** __STATIC_INLINE void     Cy_MCWDT_SetToggleBit(MCWDT_STRUCT_Type *base, uint32_t bit);
 323:Generated_Source\PSoC6\pdl\drivers/peripheral/mcwdt/cy_mcwdt.h **** __STATIC_INLINE uint32_t Cy_MCWDT_GetToggleBit(MCWDT_STRUCT_Type const *base);
 324:Generated_Source\PSoC6\pdl\drivers/peripheral/mcwdt/cy_mcwdt.h **** __STATIC_INLINE uint32_t Cy_MCWDT_GetCount(MCWDT_STRUCT_Type const *base, cy_en_mcwdtctr_t counter)
 325:Generated_Source\PSoC6\pdl\drivers/peripheral/mcwdt/cy_mcwdt.h **** __STATIC_INLINE void     Cy_MCWDT_ResetCounters(MCWDT_STRUCT_Type *base, uint32_t counters, uint16_
 326:Generated_Source\PSoC6\pdl\drivers/peripheral/mcwdt/cy_mcwdt.h **** __STATIC_INLINE uint32_t Cy_MCWDT_GetInterruptStatus(MCWDT_STRUCT_Type const *base);
 327:Generated_Source\PSoC6\pdl\drivers/peripheral/mcwdt/cy_mcwdt.h **** __STATIC_INLINE void     Cy_MCWDT_ClearInterrupt(MCWDT_STRUCT_Type *base, uint32_t counters);
 328:Generated_Source\PSoC6\pdl\drivers/peripheral/mcwdt/cy_mcwdt.h **** __STATIC_INLINE void     Cy_MCWDT_SetInterrupt(MCWDT_STRUCT_Type *base, uint32_t counters);
 329:Generated_Source\PSoC6\pdl\drivers/peripheral/mcwdt/cy_mcwdt.h **** __STATIC_INLINE uint32_t Cy_MCWDT_GetInterruptMask(MCWDT_STRUCT_Type const *base);
 330:Generated_Source\PSoC6\pdl\drivers/peripheral/mcwdt/cy_mcwdt.h **** __STATIC_INLINE void     Cy_MCWDT_SetInterruptMask(MCWDT_STRUCT_Type *base, uint32_t counters);
 331:Generated_Source\PSoC6\pdl\drivers/peripheral/mcwdt/cy_mcwdt.h **** __STATIC_INLINE uint32_t Cy_MCWDT_GetInterruptStatusMasked(MCWDT_STRUCT_Type const *base);
 332:Generated_Source\PSoC6\pdl\drivers/peripheral/mcwdt/cy_mcwdt.h **** uint32_t Cy_MCWDT_GetCountCascaded(MCWDT_STRUCT_Type const *base);
 333:Generated_Source\PSoC6\pdl\drivers/peripheral/mcwdt/cy_mcwdt.h **** 
 334:Generated_Source\PSoC6\pdl\drivers/peripheral/mcwdt/cy_mcwdt.h **** 
 335:Generated_Source\PSoC6\pdl\drivers/peripheral/mcwdt/cy_mcwdt.h **** /*******************************************************************************
 336:Generated_Source\PSoC6\pdl\drivers/peripheral/mcwdt/cy_mcwdt.h **** * Function Name: Cy_MCWDT_Enable
 337:Generated_Source\PSoC6\pdl\drivers/peripheral/mcwdt/cy_mcwdt.h **** ****************************************************************************//**
 338:Generated_Source\PSoC6\pdl\drivers/peripheral/mcwdt/cy_mcwdt.h **** *
 339:Generated_Source\PSoC6\pdl\drivers/peripheral/mcwdt/cy_mcwdt.h **** *  Enables all specified counters.
 340:Generated_Source\PSoC6\pdl\drivers/peripheral/mcwdt/cy_mcwdt.h **** *
 341:Generated_Source\PSoC6\pdl\drivers/peripheral/mcwdt/cy_mcwdt.h **** *  \param base
 342:Generated_Source\PSoC6\pdl\drivers/peripheral/mcwdt/cy_mcwdt.h **** *  The base pointer to a structure that describes registers.
 343:Generated_Source\PSoC6\pdl\drivers/peripheral/mcwdt/cy_mcwdt.h **** *
 344:Generated_Source\PSoC6\pdl\drivers/peripheral/mcwdt/cy_mcwdt.h **** *  \param counters
 345:Generated_Source\PSoC6\pdl\drivers/peripheral/mcwdt/cy_mcwdt.h **** *  OR of all counters to enable. See the \ref CY_MCWDT_CTR0, CY_MCWDT_CTR1, and
 346:Generated_Source\PSoC6\pdl\drivers/peripheral/mcwdt/cy_mcwdt.h **** *  CY_MCWDT_CTR2  macros.
 347:Generated_Source\PSoC6\pdl\drivers/peripheral/mcwdt/cy_mcwdt.h **** *
 348:Generated_Source\PSoC6\pdl\drivers/peripheral/mcwdt/cy_mcwdt.h **** *  \param waitUs
 349:Generated_Source\PSoC6\pdl\drivers/peripheral/mcwdt/cy_mcwdt.h **** *  The function waits for some delay in microseconds before returning, 
 350:Generated_Source\PSoC6\pdl\drivers/peripheral/mcwdt/cy_mcwdt.h **** *  because the counter begins counting after two lf_clk cycles pass. 
 351:Generated_Source\PSoC6\pdl\drivers/peripheral/mcwdt/cy_mcwdt.h **** *  The recommended value is 93 us.
 352:Generated_Source\PSoC6\pdl\drivers/peripheral/mcwdt/cy_mcwdt.h **** *  \note
 353:Generated_Source\PSoC6\pdl\drivers/peripheral/mcwdt/cy_mcwdt.h **** *  Setting this parameter to a zero means No wait. In this case, it is
 354:Generated_Source\PSoC6\pdl\drivers/peripheral/mcwdt/cy_mcwdt.h **** *  the user's responsibility to check whether the selected counters were enabled 
 355:Generated_Source\PSoC6\pdl\drivers/peripheral/mcwdt/cy_mcwdt.h **** *  immediately after the function call. This can be done by the 
 356:Generated_Source\PSoC6\pdl\drivers/peripheral/mcwdt/cy_mcwdt.h **** *  Cy_MCWDT_GetEnabledStatus() API.
 357:Generated_Source\PSoC6\pdl\drivers/peripheral/mcwdt/cy_mcwdt.h **** *
 358:Generated_Source\PSoC6\pdl\drivers/peripheral/mcwdt/cy_mcwdt.h **** *******************************************************************************/
 359:Generated_Source\PSoC6\pdl\drivers/peripheral/mcwdt/cy_mcwdt.h **** __STATIC_INLINE void Cy_MCWDT_Enable(MCWDT_STRUCT_Type *base, uint32_t counters, uint16_t waitUs)
 360:Generated_Source\PSoC6\pdl\drivers/peripheral/mcwdt/cy_mcwdt.h **** {
 361:Generated_Source\PSoC6\pdl\drivers/peripheral/mcwdt/cy_mcwdt.h ****     uint32_t enableCounters;
 362:Generated_Source\PSoC6\pdl\drivers/peripheral/mcwdt/cy_mcwdt.h **** 
 363:Generated_Source\PSoC6\pdl\drivers/peripheral/mcwdt/cy_mcwdt.h ****     CY_ASSERT_L2(CY_MCWDT_IS_CNTS_MASK_VALID(counters));
 364:Generated_Source\PSoC6\pdl\drivers/peripheral/mcwdt/cy_mcwdt.h ****     
 365:Generated_Source\PSoC6\pdl\drivers/peripheral/mcwdt/cy_mcwdt.h ****     /* Extract particular counters for enable */
 366:Generated_Source\PSoC6\pdl\drivers/peripheral/mcwdt/cy_mcwdt.h ****     enableCounters = ((0UL != (counters & CY_MCWDT_CTR0)) ? MCWDT_STRUCT_MCWDT_CTL_WDT_ENABLE0_Msk 
 367:Generated_Source\PSoC6\pdl\drivers/peripheral/mcwdt/cy_mcwdt.h ****                      ((0UL != (counters & CY_MCWDT_CTR1)) ? MCWDT_STRUCT_MCWDT_CTL_WDT_ENABLE1_Msk 
 368:Generated_Source\PSoC6\pdl\drivers/peripheral/mcwdt/cy_mcwdt.h ****                      ((0UL != (counters & CY_MCWDT_CTR2)) ? MCWDT_STRUCT_MCWDT_CTL_WDT_ENABLE2_Msk 
 369:Generated_Source\PSoC6\pdl\drivers/peripheral/mcwdt/cy_mcwdt.h **** 
 370:Generated_Source\PSoC6\pdl\drivers/peripheral/mcwdt/cy_mcwdt.h ****     base->MCWDT_CTL |= enableCounters;
 371:Generated_Source\PSoC6\pdl\drivers/peripheral/mcwdt/cy_mcwdt.h **** 
 372:Generated_Source\PSoC6\pdl\drivers/peripheral/mcwdt/cy_mcwdt.h ****     Cy_SysLib_DelayUs(waitUs);
 373:Generated_Source\PSoC6\pdl\drivers/peripheral/mcwdt/cy_mcwdt.h **** }
ARM GAS  C:\Users\salaz\AppData\Local\Temp\ccvE4Xni.s 			page 11


 374:Generated_Source\PSoC6\pdl\drivers/peripheral/mcwdt/cy_mcwdt.h **** 
 375:Generated_Source\PSoC6\pdl\drivers/peripheral/mcwdt/cy_mcwdt.h **** 
 376:Generated_Source\PSoC6\pdl\drivers/peripheral/mcwdt/cy_mcwdt.h **** /*******************************************************************************
 377:Generated_Source\PSoC6\pdl\drivers/peripheral/mcwdt/cy_mcwdt.h **** * Function Name: Cy_MCWDT_Disable
 378:Generated_Source\PSoC6\pdl\drivers/peripheral/mcwdt/cy_mcwdt.h **** ****************************************************************************//**
 379:Generated_Source\PSoC6\pdl\drivers/peripheral/mcwdt/cy_mcwdt.h **** *
 380:Generated_Source\PSoC6\pdl\drivers/peripheral/mcwdt/cy_mcwdt.h **** *  Disables all specified counters.
 381:Generated_Source\PSoC6\pdl\drivers/peripheral/mcwdt/cy_mcwdt.h **** *
 382:Generated_Source\PSoC6\pdl\drivers/peripheral/mcwdt/cy_mcwdt.h **** *  \param base
 383:Generated_Source\PSoC6\pdl\drivers/peripheral/mcwdt/cy_mcwdt.h **** *  The base pointer to a structure describing registers.
 384:Generated_Source\PSoC6\pdl\drivers/peripheral/mcwdt/cy_mcwdt.h **** *
 385:Generated_Source\PSoC6\pdl\drivers/peripheral/mcwdt/cy_mcwdt.h **** *  \param counters
 386:Generated_Source\PSoC6\pdl\drivers/peripheral/mcwdt/cy_mcwdt.h **** *  OR of all counters to disable. See the \ref CY_MCWDT_CTR0, CY_MCWDT_CTR1, and
 387:Generated_Source\PSoC6\pdl\drivers/peripheral/mcwdt/cy_mcwdt.h **** *  CY_MCWDT_CTR2 macros.
 388:Generated_Source\PSoC6\pdl\drivers/peripheral/mcwdt/cy_mcwdt.h **** *
 389:Generated_Source\PSoC6\pdl\drivers/peripheral/mcwdt/cy_mcwdt.h **** *  \param waitUs
 390:Generated_Source\PSoC6\pdl\drivers/peripheral/mcwdt/cy_mcwdt.h **** *  The function waits for some delay in microseconds before returning, 
 391:Generated_Source\PSoC6\pdl\drivers/peripheral/mcwdt/cy_mcwdt.h **** *  because the counter stops counting after two lf_clk cycles pass. 
 392:Generated_Source\PSoC6\pdl\drivers/peripheral/mcwdt/cy_mcwdt.h **** *  The recommended value is 93 us.
 393:Generated_Source\PSoC6\pdl\drivers/peripheral/mcwdt/cy_mcwdt.h **** *  \note
 394:Generated_Source\PSoC6\pdl\drivers/peripheral/mcwdt/cy_mcwdt.h **** *  Setting this parameter to a zero means No wait. In this case, it is 
 395:Generated_Source\PSoC6\pdl\drivers/peripheral/mcwdt/cy_mcwdt.h **** *  the user's responsibility to check whether the selected counters were disabled 
 396:Generated_Source\PSoC6\pdl\drivers/peripheral/mcwdt/cy_mcwdt.h **** *  immediately after the function call. This can be done by the 
 397:Generated_Source\PSoC6\pdl\drivers/peripheral/mcwdt/cy_mcwdt.h **** *  Cy_MCWDT_GetEnabledStatus() API.
 398:Generated_Source\PSoC6\pdl\drivers/peripheral/mcwdt/cy_mcwdt.h **** *
 399:Generated_Source\PSoC6\pdl\drivers/peripheral/mcwdt/cy_mcwdt.h **** *******************************************************************************/
 400:Generated_Source\PSoC6\pdl\drivers/peripheral/mcwdt/cy_mcwdt.h **** __STATIC_INLINE void Cy_MCWDT_Disable(MCWDT_STRUCT_Type *base, uint32_t counters, uint16_t waitUs)
 401:Generated_Source\PSoC6\pdl\drivers/peripheral/mcwdt/cy_mcwdt.h **** {
 402:Generated_Source\PSoC6\pdl\drivers/peripheral/mcwdt/cy_mcwdt.h ****     uint32_t disableCounters;
 403:Generated_Source\PSoC6\pdl\drivers/peripheral/mcwdt/cy_mcwdt.h **** 
 404:Generated_Source\PSoC6\pdl\drivers/peripheral/mcwdt/cy_mcwdt.h ****     CY_ASSERT_L2(CY_MCWDT_IS_CNTS_MASK_VALID(counters));
 405:Generated_Source\PSoC6\pdl\drivers/peripheral/mcwdt/cy_mcwdt.h ****     
 406:Generated_Source\PSoC6\pdl\drivers/peripheral/mcwdt/cy_mcwdt.h ****     /* Extract particular counters for disable */
 407:Generated_Source\PSoC6\pdl\drivers/peripheral/mcwdt/cy_mcwdt.h ****     disableCounters = ((0UL != (counters & CY_MCWDT_CTR0)) ? MCWDT_STRUCT_MCWDT_CTL_WDT_ENABLE0_Msk
 408:Generated_Source\PSoC6\pdl\drivers/peripheral/mcwdt/cy_mcwdt.h ****                       ((0UL != (counters & CY_MCWDT_CTR1)) ? MCWDT_STRUCT_MCWDT_CTL_WDT_ENABLE1_Msk
 409:Generated_Source\PSoC6\pdl\drivers/peripheral/mcwdt/cy_mcwdt.h ****                       ((0UL != (counters & CY_MCWDT_CTR2)) ? MCWDT_STRUCT_MCWDT_CTL_WDT_ENABLE2_Msk
 410:Generated_Source\PSoC6\pdl\drivers/peripheral/mcwdt/cy_mcwdt.h **** 
 411:Generated_Source\PSoC6\pdl\drivers/peripheral/mcwdt/cy_mcwdt.h ****     base->MCWDT_CTL &= ~disableCounters;
 412:Generated_Source\PSoC6\pdl\drivers/peripheral/mcwdt/cy_mcwdt.h **** 
 413:Generated_Source\PSoC6\pdl\drivers/peripheral/mcwdt/cy_mcwdt.h ****     Cy_SysLib_DelayUs(waitUs);
 414:Generated_Source\PSoC6\pdl\drivers/peripheral/mcwdt/cy_mcwdt.h **** }
 415:Generated_Source\PSoC6\pdl\drivers/peripheral/mcwdt/cy_mcwdt.h **** 
 416:Generated_Source\PSoC6\pdl\drivers/peripheral/mcwdt/cy_mcwdt.h **** 
 417:Generated_Source\PSoC6\pdl\drivers/peripheral/mcwdt/cy_mcwdt.h **** /*******************************************************************************
 418:Generated_Source\PSoC6\pdl\drivers/peripheral/mcwdt/cy_mcwdt.h **** * Function Name: Cy_MCWDT_GetEnabledStatus
 419:Generated_Source\PSoC6\pdl\drivers/peripheral/mcwdt/cy_mcwdt.h **** ****************************************************************************//**
 420:Generated_Source\PSoC6\pdl\drivers/peripheral/mcwdt/cy_mcwdt.h **** *
 421:Generated_Source\PSoC6\pdl\drivers/peripheral/mcwdt/cy_mcwdt.h **** *  Reports the enabled status of the specified counter.
 422:Generated_Source\PSoC6\pdl\drivers/peripheral/mcwdt/cy_mcwdt.h **** *
 423:Generated_Source\PSoC6\pdl\drivers/peripheral/mcwdt/cy_mcwdt.h **** *  \param base
 424:Generated_Source\PSoC6\pdl\drivers/peripheral/mcwdt/cy_mcwdt.h **** *  The base pointer to a structure that describes registers.
 425:Generated_Source\PSoC6\pdl\drivers/peripheral/mcwdt/cy_mcwdt.h **** *
 426:Generated_Source\PSoC6\pdl\drivers/peripheral/mcwdt/cy_mcwdt.h **** *  \param counter
 427:Generated_Source\PSoC6\pdl\drivers/peripheral/mcwdt/cy_mcwdt.h **** *  The number of the MCWDT counter. The valid range is [0-2].
 428:Generated_Source\PSoC6\pdl\drivers/peripheral/mcwdt/cy_mcwdt.h **** *
 429:Generated_Source\PSoC6\pdl\drivers/peripheral/mcwdt/cy_mcwdt.h **** *  \return
 430:Generated_Source\PSoC6\pdl\drivers/peripheral/mcwdt/cy_mcwdt.h **** *  The status of the MCWDT counter: 0 = disabled, 1 = enabled.
ARM GAS  C:\Users\salaz\AppData\Local\Temp\ccvE4Xni.s 			page 12


 431:Generated_Source\PSoC6\pdl\drivers/peripheral/mcwdt/cy_mcwdt.h **** *
 432:Generated_Source\PSoC6\pdl\drivers/peripheral/mcwdt/cy_mcwdt.h **** *******************************************************************************/
 433:Generated_Source\PSoC6\pdl\drivers/peripheral/mcwdt/cy_mcwdt.h **** __STATIC_INLINE uint32_t Cy_MCWDT_GetEnabledStatus(MCWDT_STRUCT_Type const *base, cy_en_mcwdtctr_t 
 434:Generated_Source\PSoC6\pdl\drivers/peripheral/mcwdt/cy_mcwdt.h **** {
 435:Generated_Source\PSoC6\pdl\drivers/peripheral/mcwdt/cy_mcwdt.h ****     uint32_t status = 0u;
 436:Generated_Source\PSoC6\pdl\drivers/peripheral/mcwdt/cy_mcwdt.h **** 
 437:Generated_Source\PSoC6\pdl\drivers/peripheral/mcwdt/cy_mcwdt.h ****     CY_ASSERT_L3(CY_MCWDT_IS_CNT_NUM_VALID(counter));
 438:Generated_Source\PSoC6\pdl\drivers/peripheral/mcwdt/cy_mcwdt.h ****     
 439:Generated_Source\PSoC6\pdl\drivers/peripheral/mcwdt/cy_mcwdt.h ****     switch (counter)
 440:Generated_Source\PSoC6\pdl\drivers/peripheral/mcwdt/cy_mcwdt.h ****     {
 441:Generated_Source\PSoC6\pdl\drivers/peripheral/mcwdt/cy_mcwdt.h ****         case CY_MCWDT_COUNTER0:
 442:Generated_Source\PSoC6\pdl\drivers/peripheral/mcwdt/cy_mcwdt.h ****             status = _FLD2VAL(MCWDT_STRUCT_MCWDT_CTL_WDT_ENABLED0, base->MCWDT_CTL);
 443:Generated_Source\PSoC6\pdl\drivers/peripheral/mcwdt/cy_mcwdt.h ****             break;
 444:Generated_Source\PSoC6\pdl\drivers/peripheral/mcwdt/cy_mcwdt.h ****         case CY_MCWDT_COUNTER1:
 445:Generated_Source\PSoC6\pdl\drivers/peripheral/mcwdt/cy_mcwdt.h ****             status = _FLD2VAL(MCWDT_STRUCT_MCWDT_CTL_WDT_ENABLED1, base->MCWDT_CTL);
 446:Generated_Source\PSoC6\pdl\drivers/peripheral/mcwdt/cy_mcwdt.h ****             break;
 447:Generated_Source\PSoC6\pdl\drivers/peripheral/mcwdt/cy_mcwdt.h ****         case CY_MCWDT_COUNTER2:
 448:Generated_Source\PSoC6\pdl\drivers/peripheral/mcwdt/cy_mcwdt.h ****             status = _FLD2VAL(MCWDT_STRUCT_MCWDT_CTL_WDT_ENABLED2, base->MCWDT_CTL);
 449:Generated_Source\PSoC6\pdl\drivers/peripheral/mcwdt/cy_mcwdt.h ****             break;
 450:Generated_Source\PSoC6\pdl\drivers/peripheral/mcwdt/cy_mcwdt.h **** 
 451:Generated_Source\PSoC6\pdl\drivers/peripheral/mcwdt/cy_mcwdt.h ****         default:
 452:Generated_Source\PSoC6\pdl\drivers/peripheral/mcwdt/cy_mcwdt.h ****             CY_ASSERT(0u != 0u);
 453:Generated_Source\PSoC6\pdl\drivers/peripheral/mcwdt/cy_mcwdt.h ****         break;
 454:Generated_Source\PSoC6\pdl\drivers/peripheral/mcwdt/cy_mcwdt.h ****     }
 455:Generated_Source\PSoC6\pdl\drivers/peripheral/mcwdt/cy_mcwdt.h **** 
 456:Generated_Source\PSoC6\pdl\drivers/peripheral/mcwdt/cy_mcwdt.h ****     return (status);
 457:Generated_Source\PSoC6\pdl\drivers/peripheral/mcwdt/cy_mcwdt.h **** }
 458:Generated_Source\PSoC6\pdl\drivers/peripheral/mcwdt/cy_mcwdt.h **** 
 459:Generated_Source\PSoC6\pdl\drivers/peripheral/mcwdt/cy_mcwdt.h **** 
 460:Generated_Source\PSoC6\pdl\drivers/peripheral/mcwdt/cy_mcwdt.h **** /*******************************************************************************
 461:Generated_Source\PSoC6\pdl\drivers/peripheral/mcwdt/cy_mcwdt.h **** * Function Name: Cy_MCWDT_Lock
 462:Generated_Source\PSoC6\pdl\drivers/peripheral/mcwdt/cy_mcwdt.h **** ****************************************************************************//**
 463:Generated_Source\PSoC6\pdl\drivers/peripheral/mcwdt/cy_mcwdt.h **** *
 464:Generated_Source\PSoC6\pdl\drivers/peripheral/mcwdt/cy_mcwdt.h **** *  Locks out configuration changes to all MCWDT registers.
 465:Generated_Source\PSoC6\pdl\drivers/peripheral/mcwdt/cy_mcwdt.h **** *
 466:Generated_Source\PSoC6\pdl\drivers/peripheral/mcwdt/cy_mcwdt.h **** *  \param base
 467:Generated_Source\PSoC6\pdl\drivers/peripheral/mcwdt/cy_mcwdt.h **** *  The base pointer to a structure that describes registers.
 468:Generated_Source\PSoC6\pdl\drivers/peripheral/mcwdt/cy_mcwdt.h **** *
 469:Generated_Source\PSoC6\pdl\drivers/peripheral/mcwdt/cy_mcwdt.h **** *******************************************************************************/
 470:Generated_Source\PSoC6\pdl\drivers/peripheral/mcwdt/cy_mcwdt.h **** __STATIC_INLINE void Cy_MCWDT_Lock(MCWDT_STRUCT_Type *base)
 471:Generated_Source\PSoC6\pdl\drivers/peripheral/mcwdt/cy_mcwdt.h **** {
 472:Generated_Source\PSoC6\pdl\drivers/peripheral/mcwdt/cy_mcwdt.h ****     uint32_t interruptState;
 473:Generated_Source\PSoC6\pdl\drivers/peripheral/mcwdt/cy_mcwdt.h **** 
 474:Generated_Source\PSoC6\pdl\drivers/peripheral/mcwdt/cy_mcwdt.h ****     interruptState = Cy_SysLib_EnterCriticalSection();
 475:Generated_Source\PSoC6\pdl\drivers/peripheral/mcwdt/cy_mcwdt.h **** 
 476:Generated_Source\PSoC6\pdl\drivers/peripheral/mcwdt/cy_mcwdt.h ****     base->MCWDT_LOCK = _CLR_SET_FLD32U(base->MCWDT_LOCK, MCWDT_STRUCT_MCWDT_LOCK_MCWDT_LOCK, (uint3
 477:Generated_Source\PSoC6\pdl\drivers/peripheral/mcwdt/cy_mcwdt.h **** 
 478:Generated_Source\PSoC6\pdl\drivers/peripheral/mcwdt/cy_mcwdt.h ****     Cy_SysLib_ExitCriticalSection(interruptState);
 479:Generated_Source\PSoC6\pdl\drivers/peripheral/mcwdt/cy_mcwdt.h **** }
 480:Generated_Source\PSoC6\pdl\drivers/peripheral/mcwdt/cy_mcwdt.h **** 
 481:Generated_Source\PSoC6\pdl\drivers/peripheral/mcwdt/cy_mcwdt.h **** 
 482:Generated_Source\PSoC6\pdl\drivers/peripheral/mcwdt/cy_mcwdt.h **** /*******************************************************************************
 483:Generated_Source\PSoC6\pdl\drivers/peripheral/mcwdt/cy_mcwdt.h **** * Function Name: Cy_MCWDT_Unlock
 484:Generated_Source\PSoC6\pdl\drivers/peripheral/mcwdt/cy_mcwdt.h **** ****************************************************************************//**
 485:Generated_Source\PSoC6\pdl\drivers/peripheral/mcwdt/cy_mcwdt.h **** *
 486:Generated_Source\PSoC6\pdl\drivers/peripheral/mcwdt/cy_mcwdt.h **** *  Unlocks the MCWDT configuration registers.
 487:Generated_Source\PSoC6\pdl\drivers/peripheral/mcwdt/cy_mcwdt.h **** *
ARM GAS  C:\Users\salaz\AppData\Local\Temp\ccvE4Xni.s 			page 13


 488:Generated_Source\PSoC6\pdl\drivers/peripheral/mcwdt/cy_mcwdt.h **** *  \param base
 489:Generated_Source\PSoC6\pdl\drivers/peripheral/mcwdt/cy_mcwdt.h **** *  The base pointer to a structure that describes registers.
 490:Generated_Source\PSoC6\pdl\drivers/peripheral/mcwdt/cy_mcwdt.h **** *
 491:Generated_Source\PSoC6\pdl\drivers/peripheral/mcwdt/cy_mcwdt.h **** *******************************************************************************/
 492:Generated_Source\PSoC6\pdl\drivers/peripheral/mcwdt/cy_mcwdt.h **** __STATIC_INLINE void Cy_MCWDT_Unlock(MCWDT_STRUCT_Type *base)
 493:Generated_Source\PSoC6\pdl\drivers/peripheral/mcwdt/cy_mcwdt.h **** {
 494:Generated_Source\PSoC6\pdl\drivers/peripheral/mcwdt/cy_mcwdt.h ****     uint32_t interruptState;
 495:Generated_Source\PSoC6\pdl\drivers/peripheral/mcwdt/cy_mcwdt.h **** 
 496:Generated_Source\PSoC6\pdl\drivers/peripheral/mcwdt/cy_mcwdt.h ****     interruptState = Cy_SysLib_EnterCriticalSection();
 497:Generated_Source\PSoC6\pdl\drivers/peripheral/mcwdt/cy_mcwdt.h **** 
 498:Generated_Source\PSoC6\pdl\drivers/peripheral/mcwdt/cy_mcwdt.h ****     base->MCWDT_LOCK = _CLR_SET_FLD32U(base->MCWDT_LOCK, MCWDT_STRUCT_MCWDT_LOCK_MCWDT_LOCK, (uint3
 499:Generated_Source\PSoC6\pdl\drivers/peripheral/mcwdt/cy_mcwdt.h ****     base->MCWDT_LOCK = _CLR_SET_FLD32U(base->MCWDT_LOCK, MCWDT_STRUCT_MCWDT_LOCK_MCWDT_LOCK, (uint3
 500:Generated_Source\PSoC6\pdl\drivers/peripheral/mcwdt/cy_mcwdt.h **** 
 501:Generated_Source\PSoC6\pdl\drivers/peripheral/mcwdt/cy_mcwdt.h ****     Cy_SysLib_ExitCriticalSection(interruptState);
 502:Generated_Source\PSoC6\pdl\drivers/peripheral/mcwdt/cy_mcwdt.h **** }
 503:Generated_Source\PSoC6\pdl\drivers/peripheral/mcwdt/cy_mcwdt.h **** 
 504:Generated_Source\PSoC6\pdl\drivers/peripheral/mcwdt/cy_mcwdt.h **** 
 505:Generated_Source\PSoC6\pdl\drivers/peripheral/mcwdt/cy_mcwdt.h **** /*******************************************************************************
 506:Generated_Source\PSoC6\pdl\drivers/peripheral/mcwdt/cy_mcwdt.h **** * Function Name: Cy_MCWDT_GetLockStatus
 507:Generated_Source\PSoC6\pdl\drivers/peripheral/mcwdt/cy_mcwdt.h **** ****************************************************************************//**
 508:Generated_Source\PSoC6\pdl\drivers/peripheral/mcwdt/cy_mcwdt.h **** *
 509:Generated_Source\PSoC6\pdl\drivers/peripheral/mcwdt/cy_mcwdt.h **** *  Reports the locked/unlocked state of the MCWDT.
 510:Generated_Source\PSoC6\pdl\drivers/peripheral/mcwdt/cy_mcwdt.h **** *
 511:Generated_Source\PSoC6\pdl\drivers/peripheral/mcwdt/cy_mcwdt.h **** *  \param base
 512:Generated_Source\PSoC6\pdl\drivers/peripheral/mcwdt/cy_mcwdt.h **** *  The base pointer to a structure that describes registers.
 513:Generated_Source\PSoC6\pdl\drivers/peripheral/mcwdt/cy_mcwdt.h **** *
 514:Generated_Source\PSoC6\pdl\drivers/peripheral/mcwdt/cy_mcwdt.h **** *  \return
 515:Generated_Source\PSoC6\pdl\drivers/peripheral/mcwdt/cy_mcwdt.h **** *  The state of the MCWDT counter: 0 = unlocked, 1 = locked.
 516:Generated_Source\PSoC6\pdl\drivers/peripheral/mcwdt/cy_mcwdt.h **** *
 517:Generated_Source\PSoC6\pdl\drivers/peripheral/mcwdt/cy_mcwdt.h **** *******************************************************************************/
 518:Generated_Source\PSoC6\pdl\drivers/peripheral/mcwdt/cy_mcwdt.h **** __STATIC_INLINE uint32_t Cy_MCWDT_GetLockedStatus(MCWDT_STRUCT_Type const *base)
 519:Generated_Source\PSoC6\pdl\drivers/peripheral/mcwdt/cy_mcwdt.h **** {
 520:Generated_Source\PSoC6\pdl\drivers/peripheral/mcwdt/cy_mcwdt.h ****     return ((0UL != (base->MCWDT_LOCK & MCWDT_STRUCT_MCWDT_LOCK_MCWDT_LOCK_Msk)) ? 1UL : 0UL);
 521:Generated_Source\PSoC6\pdl\drivers/peripheral/mcwdt/cy_mcwdt.h **** }
 522:Generated_Source\PSoC6\pdl\drivers/peripheral/mcwdt/cy_mcwdt.h **** 
 523:Generated_Source\PSoC6\pdl\drivers/peripheral/mcwdt/cy_mcwdt.h **** 
 524:Generated_Source\PSoC6\pdl\drivers/peripheral/mcwdt/cy_mcwdt.h **** /*******************************************************************************
 525:Generated_Source\PSoC6\pdl\drivers/peripheral/mcwdt/cy_mcwdt.h **** * Function Name: Cy_MCWDT_SetMode
 526:Generated_Source\PSoC6\pdl\drivers/peripheral/mcwdt/cy_mcwdt.h **** ****************************************************************************//**
 527:Generated_Source\PSoC6\pdl\drivers/peripheral/mcwdt/cy_mcwdt.h **** *
 528:Generated_Source\PSoC6\pdl\drivers/peripheral/mcwdt/cy_mcwdt.h **** *  Sets the mode of the specified counter.
 529:Generated_Source\PSoC6\pdl\drivers/peripheral/mcwdt/cy_mcwdt.h **** *
 530:Generated_Source\PSoC6\pdl\drivers/peripheral/mcwdt/cy_mcwdt.h **** *  \param base
 531:Generated_Source\PSoC6\pdl\drivers/peripheral/mcwdt/cy_mcwdt.h **** *  The base pointer to a structure that describes registers.
 532:Generated_Source\PSoC6\pdl\drivers/peripheral/mcwdt/cy_mcwdt.h **** *
 533:Generated_Source\PSoC6\pdl\drivers/peripheral/mcwdt/cy_mcwdt.h **** *  \param counter
 534:Generated_Source\PSoC6\pdl\drivers/peripheral/mcwdt/cy_mcwdt.h **** *  The number of the WDT counter. The valid range is [0-2].
 535:Generated_Source\PSoC6\pdl\drivers/peripheral/mcwdt/cy_mcwdt.h **** *
 536:Generated_Source\PSoC6\pdl\drivers/peripheral/mcwdt/cy_mcwdt.h **** *  \param mode
 537:Generated_Source\PSoC6\pdl\drivers/peripheral/mcwdt/cy_mcwdt.h **** *  The mode of operation for the counter. See enum typedef cy_en_mcwdtmode_t.
 538:Generated_Source\PSoC6\pdl\drivers/peripheral/mcwdt/cy_mcwdt.h **** *
 539:Generated_Source\PSoC6\pdl\drivers/peripheral/mcwdt/cy_mcwdt.h **** *  \note
 540:Generated_Source\PSoC6\pdl\drivers/peripheral/mcwdt/cy_mcwdt.h **** *  The mode for Counter 2 can be set only to CY_MCWDT_MODE_NONE or CY_MCWDT_MODE_INT.
 541:Generated_Source\PSoC6\pdl\drivers/peripheral/mcwdt/cy_mcwdt.h **** *
 542:Generated_Source\PSoC6\pdl\drivers/peripheral/mcwdt/cy_mcwdt.h **** *  \note
 543:Generated_Source\PSoC6\pdl\drivers/peripheral/mcwdt/cy_mcwdt.h **** *  This API must not be called while the counters are running. 
 544:Generated_Source\PSoC6\pdl\drivers/peripheral/mcwdt/cy_mcwdt.h **** *  Prior to calling this API, the counter must be disabled.
ARM GAS  C:\Users\salaz\AppData\Local\Temp\ccvE4Xni.s 			page 14


 545:Generated_Source\PSoC6\pdl\drivers/peripheral/mcwdt/cy_mcwdt.h **** *
 546:Generated_Source\PSoC6\pdl\drivers/peripheral/mcwdt/cy_mcwdt.h **** *******************************************************************************/
 547:Generated_Source\PSoC6\pdl\drivers/peripheral/mcwdt/cy_mcwdt.h **** __STATIC_INLINE void Cy_MCWDT_SetMode(MCWDT_STRUCT_Type *base, cy_en_mcwdtctr_t counter, cy_en_mcwd
 548:Generated_Source\PSoC6\pdl\drivers/peripheral/mcwdt/cy_mcwdt.h **** {
 549:Generated_Source\PSoC6\pdl\drivers/peripheral/mcwdt/cy_mcwdt.h ****     uint32_t mask, shift;
 550:Generated_Source\PSoC6\pdl\drivers/peripheral/mcwdt/cy_mcwdt.h **** 
 551:Generated_Source\PSoC6\pdl\drivers/peripheral/mcwdt/cy_mcwdt.h ****     CY_ASSERT_L3(CY_MCWDT_IS_CNT_NUM_VALID(counter));
 552:Generated_Source\PSoC6\pdl\drivers/peripheral/mcwdt/cy_mcwdt.h ****     CY_ASSERT_L3(CY_MCWDT_IS_MODE_VALID(mode));
 553:Generated_Source\PSoC6\pdl\drivers/peripheral/mcwdt/cy_mcwdt.h **** 
 554:Generated_Source\PSoC6\pdl\drivers/peripheral/mcwdt/cy_mcwdt.h ****     shift = CY_MCWDT_BYTE_SHIFT * counter;
 555:Generated_Source\PSoC6\pdl\drivers/peripheral/mcwdt/cy_mcwdt.h ****     mask = (counter == CY_MCWDT_COUNTER2) ? CY_MCWDT_C2_MODE_MASK : CY_MCWDT_C0C1_MODE_MASK;
 556:Generated_Source\PSoC6\pdl\drivers/peripheral/mcwdt/cy_mcwdt.h ****     mask = mask << shift;
 557:Generated_Source\PSoC6\pdl\drivers/peripheral/mcwdt/cy_mcwdt.h **** 
 558:Generated_Source\PSoC6\pdl\drivers/peripheral/mcwdt/cy_mcwdt.h ****     base->MCWDT_CONFIG = (base->MCWDT_CONFIG & ~mask) | ((uint32_t) mode << shift);
 559:Generated_Source\PSoC6\pdl\drivers/peripheral/mcwdt/cy_mcwdt.h **** }
 560:Generated_Source\PSoC6\pdl\drivers/peripheral/mcwdt/cy_mcwdt.h **** 
 561:Generated_Source\PSoC6\pdl\drivers/peripheral/mcwdt/cy_mcwdt.h **** 
 562:Generated_Source\PSoC6\pdl\drivers/peripheral/mcwdt/cy_mcwdt.h **** /*******************************************************************************
 563:Generated_Source\PSoC6\pdl\drivers/peripheral/mcwdt/cy_mcwdt.h **** * Function Name: Cy_MCWDT_GetMode
 564:Generated_Source\PSoC6\pdl\drivers/peripheral/mcwdt/cy_mcwdt.h **** ****************************************************************************//**
 565:Generated_Source\PSoC6\pdl\drivers/peripheral/mcwdt/cy_mcwdt.h **** *
 566:Generated_Source\PSoC6\pdl\drivers/peripheral/mcwdt/cy_mcwdt.h **** *  Reports the mode of the  specified counter.
 567:Generated_Source\PSoC6\pdl\drivers/peripheral/mcwdt/cy_mcwdt.h **** *
 568:Generated_Source\PSoC6\pdl\drivers/peripheral/mcwdt/cy_mcwdt.h **** *  \param base
 569:Generated_Source\PSoC6\pdl\drivers/peripheral/mcwdt/cy_mcwdt.h **** *  The base pointer to a structure that describes registers.
 570:Generated_Source\PSoC6\pdl\drivers/peripheral/mcwdt/cy_mcwdt.h **** *
 571:Generated_Source\PSoC6\pdl\drivers/peripheral/mcwdt/cy_mcwdt.h **** *  \param counter
 572:Generated_Source\PSoC6\pdl\drivers/peripheral/mcwdt/cy_mcwdt.h **** *  The number of the WDT counter. The valid range is [0-2].
 573:Generated_Source\PSoC6\pdl\drivers/peripheral/mcwdt/cy_mcwdt.h **** *
 574:Generated_Source\PSoC6\pdl\drivers/peripheral/mcwdt/cy_mcwdt.h **** *  \return
 575:Generated_Source\PSoC6\pdl\drivers/peripheral/mcwdt/cy_mcwdt.h **** *  The current mode of the counter. See enum typedef cy_en_mcwdtmode_t.
 576:Generated_Source\PSoC6\pdl\drivers/peripheral/mcwdt/cy_mcwdt.h **** *
 577:Generated_Source\PSoC6\pdl\drivers/peripheral/mcwdt/cy_mcwdt.h **** *******************************************************************************/
 578:Generated_Source\PSoC6\pdl\drivers/peripheral/mcwdt/cy_mcwdt.h **** __STATIC_INLINE cy_en_mcwdtmode_t Cy_MCWDT_GetMode(MCWDT_STRUCT_Type const *base, cy_en_mcwdtctr_t 
 579:Generated_Source\PSoC6\pdl\drivers/peripheral/mcwdt/cy_mcwdt.h **** {
 580:Generated_Source\PSoC6\pdl\drivers/peripheral/mcwdt/cy_mcwdt.h ****     uint32_t mode, mask;
 581:Generated_Source\PSoC6\pdl\drivers/peripheral/mcwdt/cy_mcwdt.h **** 
 582:Generated_Source\PSoC6\pdl\drivers/peripheral/mcwdt/cy_mcwdt.h ****     CY_ASSERT_L3(CY_MCWDT_IS_CNT_NUM_VALID(counter));
 583:Generated_Source\PSoC6\pdl\drivers/peripheral/mcwdt/cy_mcwdt.h **** 
 584:Generated_Source\PSoC6\pdl\drivers/peripheral/mcwdt/cy_mcwdt.h ****     mask = (counter == CY_MCWDT_COUNTER2) ? CY_MCWDT_C2_MODE_MASK : CY_MCWDT_C0C1_MODE_MASK;
 585:Generated_Source\PSoC6\pdl\drivers/peripheral/mcwdt/cy_mcwdt.h ****     mode = (base->MCWDT_CONFIG >> (CY_MCWDT_BYTE_SHIFT * counter)) & mask;
 586:Generated_Source\PSoC6\pdl\drivers/peripheral/mcwdt/cy_mcwdt.h **** 
 587:Generated_Source\PSoC6\pdl\drivers/peripheral/mcwdt/cy_mcwdt.h ****     return ((cy_en_mcwdtmode_t) mode);
 588:Generated_Source\PSoC6\pdl\drivers/peripheral/mcwdt/cy_mcwdt.h **** }
 589:Generated_Source\PSoC6\pdl\drivers/peripheral/mcwdt/cy_mcwdt.h **** 
 590:Generated_Source\PSoC6\pdl\drivers/peripheral/mcwdt/cy_mcwdt.h **** 
 591:Generated_Source\PSoC6\pdl\drivers/peripheral/mcwdt/cy_mcwdt.h **** /*******************************************************************************
 592:Generated_Source\PSoC6\pdl\drivers/peripheral/mcwdt/cy_mcwdt.h **** * Function Name: Cy_MCWDT_SetClearOnMatch
 593:Generated_Source\PSoC6\pdl\drivers/peripheral/mcwdt/cy_mcwdt.h **** ****************************************************************************//**
 594:Generated_Source\PSoC6\pdl\drivers/peripheral/mcwdt/cy_mcwdt.h **** *
 595:Generated_Source\PSoC6\pdl\drivers/peripheral/mcwdt/cy_mcwdt.h **** *  Sets the Clear on match option for the specified counter.
 596:Generated_Source\PSoC6\pdl\drivers/peripheral/mcwdt/cy_mcwdt.h **** *
 597:Generated_Source\PSoC6\pdl\drivers/peripheral/mcwdt/cy_mcwdt.h **** *  \param base
 598:Generated_Source\PSoC6\pdl\drivers/peripheral/mcwdt/cy_mcwdt.h **** *  The base pointer to a structure that describes registers.
 599:Generated_Source\PSoC6\pdl\drivers/peripheral/mcwdt/cy_mcwdt.h **** *
 600:Generated_Source\PSoC6\pdl\drivers/peripheral/mcwdt/cy_mcwdt.h **** *  \param counter
 601:Generated_Source\PSoC6\pdl\drivers/peripheral/mcwdt/cy_mcwdt.h **** *   The number of the WDT counter. The valid range is [0-1].
ARM GAS  C:\Users\salaz\AppData\Local\Temp\ccvE4Xni.s 			page 15


 602:Generated_Source\PSoC6\pdl\drivers/peripheral/mcwdt/cy_mcwdt.h **** *
 603:Generated_Source\PSoC6\pdl\drivers/peripheral/mcwdt/cy_mcwdt.h **** *  \note
 604:Generated_Source\PSoC6\pdl\drivers/peripheral/mcwdt/cy_mcwdt.h **** *  The match values are not supported by Counter 2.
 605:Generated_Source\PSoC6\pdl\drivers/peripheral/mcwdt/cy_mcwdt.h **** *
 606:Generated_Source\PSoC6\pdl\drivers/peripheral/mcwdt/cy_mcwdt.h **** *  \param enable
 607:Generated_Source\PSoC6\pdl\drivers/peripheral/mcwdt/cy_mcwdt.h **** *  Set 0 to disable; 1 to enable.
 608:Generated_Source\PSoC6\pdl\drivers/peripheral/mcwdt/cy_mcwdt.h **** *
 609:Generated_Source\PSoC6\pdl\drivers/peripheral/mcwdt/cy_mcwdt.h **** *  \note
 610:Generated_Source\PSoC6\pdl\drivers/peripheral/mcwdt/cy_mcwdt.h **** *  This API must not be called while the counters are running. 
 611:Generated_Source\PSoC6\pdl\drivers/peripheral/mcwdt/cy_mcwdt.h **** *  Prior to calling this API, the counter must be disabled.
 612:Generated_Source\PSoC6\pdl\drivers/peripheral/mcwdt/cy_mcwdt.h **** *
 613:Generated_Source\PSoC6\pdl\drivers/peripheral/mcwdt/cy_mcwdt.h **** *******************************************************************************/
 614:Generated_Source\PSoC6\pdl\drivers/peripheral/mcwdt/cy_mcwdt.h **** __STATIC_INLINE void Cy_MCWDT_SetClearOnMatch(MCWDT_STRUCT_Type *base, cy_en_mcwdtctr_t counter, ui
 615:Generated_Source\PSoC6\pdl\drivers/peripheral/mcwdt/cy_mcwdt.h **** {
 616:Generated_Source\PSoC6\pdl\drivers/peripheral/mcwdt/cy_mcwdt.h ****     CY_ASSERT_L3(CY_MCWDT_IS_CNT_NUM_VALID(counter));
 617:Generated_Source\PSoC6\pdl\drivers/peripheral/mcwdt/cy_mcwdt.h ****     CY_ASSERT_L2(CY_MCWDT_IS_ENABLE_VALID(enable));
 618:Generated_Source\PSoC6\pdl\drivers/peripheral/mcwdt/cy_mcwdt.h **** 
 619:Generated_Source\PSoC6\pdl\drivers/peripheral/mcwdt/cy_mcwdt.h ****     if (CY_MCWDT_COUNTER0 == counter)
 620:Generated_Source\PSoC6\pdl\drivers/peripheral/mcwdt/cy_mcwdt.h ****     {
 621:Generated_Source\PSoC6\pdl\drivers/peripheral/mcwdt/cy_mcwdt.h ****         base->MCWDT_CONFIG = _CLR_SET_FLD32U(base->MCWDT_CONFIG, MCWDT_STRUCT_MCWDT_CONFIG_WDT_CLEA
 622:Generated_Source\PSoC6\pdl\drivers/peripheral/mcwdt/cy_mcwdt.h ****     }
 623:Generated_Source\PSoC6\pdl\drivers/peripheral/mcwdt/cy_mcwdt.h ****     else
 624:Generated_Source\PSoC6\pdl\drivers/peripheral/mcwdt/cy_mcwdt.h ****     {
 625:Generated_Source\PSoC6\pdl\drivers/peripheral/mcwdt/cy_mcwdt.h ****         base->MCWDT_CONFIG = _CLR_SET_FLD32U(base->MCWDT_CONFIG, MCWDT_STRUCT_MCWDT_CONFIG_WDT_CLEA
 626:Generated_Source\PSoC6\pdl\drivers/peripheral/mcwdt/cy_mcwdt.h ****     }
 627:Generated_Source\PSoC6\pdl\drivers/peripheral/mcwdt/cy_mcwdt.h **** }
 628:Generated_Source\PSoC6\pdl\drivers/peripheral/mcwdt/cy_mcwdt.h **** 
 629:Generated_Source\PSoC6\pdl\drivers/peripheral/mcwdt/cy_mcwdt.h **** 
 630:Generated_Source\PSoC6\pdl\drivers/peripheral/mcwdt/cy_mcwdt.h **** /*******************************************************************************
 631:Generated_Source\PSoC6\pdl\drivers/peripheral/mcwdt/cy_mcwdt.h **** * Function Name: Cy_MCWDT_GetClearOnMatch
 632:Generated_Source\PSoC6\pdl\drivers/peripheral/mcwdt/cy_mcwdt.h **** ****************************************************************************//**
 633:Generated_Source\PSoC6\pdl\drivers/peripheral/mcwdt/cy_mcwdt.h **** *
 634:Generated_Source\PSoC6\pdl\drivers/peripheral/mcwdt/cy_mcwdt.h **** *  Reports the Clear on match setting for the specified counter.
 635:Generated_Source\PSoC6\pdl\drivers/peripheral/mcwdt/cy_mcwdt.h **** *
 636:Generated_Source\PSoC6\pdl\drivers/peripheral/mcwdt/cy_mcwdt.h **** *  \param base
 637:Generated_Source\PSoC6\pdl\drivers/peripheral/mcwdt/cy_mcwdt.h **** *  The base pointer to a structure that describes registers.
 638:Generated_Source\PSoC6\pdl\drivers/peripheral/mcwdt/cy_mcwdt.h **** *
 639:Generated_Source\PSoC6\pdl\drivers/peripheral/mcwdt/cy_mcwdt.h **** *  \param counter
 640:Generated_Source\PSoC6\pdl\drivers/peripheral/mcwdt/cy_mcwdt.h **** *  The number of the WDT counter. The valid range is [0-1].
 641:Generated_Source\PSoC6\pdl\drivers/peripheral/mcwdt/cy_mcwdt.h **** *
 642:Generated_Source\PSoC6\pdl\drivers/peripheral/mcwdt/cy_mcwdt.h **** *  \return
 643:Generated_Source\PSoC6\pdl\drivers/peripheral/mcwdt/cy_mcwdt.h **** *  The Clear on match status: 1 = enabled, 0 = disabled.
 644:Generated_Source\PSoC6\pdl\drivers/peripheral/mcwdt/cy_mcwdt.h **** *
 645:Generated_Source\PSoC6\pdl\drivers/peripheral/mcwdt/cy_mcwdt.h **** *  \note
 646:Generated_Source\PSoC6\pdl\drivers/peripheral/mcwdt/cy_mcwdt.h **** *  The match value is not supported by Counter 2.
 647:Generated_Source\PSoC6\pdl\drivers/peripheral/mcwdt/cy_mcwdt.h **** *
 648:Generated_Source\PSoC6\pdl\drivers/peripheral/mcwdt/cy_mcwdt.h **** *******************************************************************************/
 649:Generated_Source\PSoC6\pdl\drivers/peripheral/mcwdt/cy_mcwdt.h **** __STATIC_INLINE uint32_t Cy_MCWDT_GetClearOnMatch(MCWDT_STRUCT_Type const *base, cy_en_mcwdtctr_t c
 650:Generated_Source\PSoC6\pdl\drivers/peripheral/mcwdt/cy_mcwdt.h **** {
 651:Generated_Source\PSoC6\pdl\drivers/peripheral/mcwdt/cy_mcwdt.h ****     uint32_t getClear;
 652:Generated_Source\PSoC6\pdl\drivers/peripheral/mcwdt/cy_mcwdt.h **** 
 653:Generated_Source\PSoC6\pdl\drivers/peripheral/mcwdt/cy_mcwdt.h ****     CY_ASSERT_L3(CY_MCWDT_IS_CNT_NUM_VALID(counter));
 654:Generated_Source\PSoC6\pdl\drivers/peripheral/mcwdt/cy_mcwdt.h **** 
 655:Generated_Source\PSoC6\pdl\drivers/peripheral/mcwdt/cy_mcwdt.h ****     if (CY_MCWDT_COUNTER0 == counter)
 656:Generated_Source\PSoC6\pdl\drivers/peripheral/mcwdt/cy_mcwdt.h ****     {
 657:Generated_Source\PSoC6\pdl\drivers/peripheral/mcwdt/cy_mcwdt.h ****         getClear = _FLD2VAL(MCWDT_STRUCT_MCWDT_CONFIG_WDT_CLEAR0, base->MCWDT_CONFIG);
 658:Generated_Source\PSoC6\pdl\drivers/peripheral/mcwdt/cy_mcwdt.h ****     }
ARM GAS  C:\Users\salaz\AppData\Local\Temp\ccvE4Xni.s 			page 16


 659:Generated_Source\PSoC6\pdl\drivers/peripheral/mcwdt/cy_mcwdt.h ****     else
 660:Generated_Source\PSoC6\pdl\drivers/peripheral/mcwdt/cy_mcwdt.h ****     {
 661:Generated_Source\PSoC6\pdl\drivers/peripheral/mcwdt/cy_mcwdt.h ****         getClear = _FLD2VAL(MCWDT_STRUCT_MCWDT_CONFIG_WDT_CLEAR1, base->MCWDT_CONFIG);
 662:Generated_Source\PSoC6\pdl\drivers/peripheral/mcwdt/cy_mcwdt.h ****     }
 663:Generated_Source\PSoC6\pdl\drivers/peripheral/mcwdt/cy_mcwdt.h **** 
 664:Generated_Source\PSoC6\pdl\drivers/peripheral/mcwdt/cy_mcwdt.h ****     return (getClear);
 665:Generated_Source\PSoC6\pdl\drivers/peripheral/mcwdt/cy_mcwdt.h **** }
 666:Generated_Source\PSoC6\pdl\drivers/peripheral/mcwdt/cy_mcwdt.h **** 
 667:Generated_Source\PSoC6\pdl\drivers/peripheral/mcwdt/cy_mcwdt.h **** 
 668:Generated_Source\PSoC6\pdl\drivers/peripheral/mcwdt/cy_mcwdt.h **** /*******************************************************************************
 669:Generated_Source\PSoC6\pdl\drivers/peripheral/mcwdt/cy_mcwdt.h **** * Function Name: Cy_MCWDT_SetCascade
 670:Generated_Source\PSoC6\pdl\drivers/peripheral/mcwdt/cy_mcwdt.h **** ****************************************************************************//**
 671:Generated_Source\PSoC6\pdl\drivers/peripheral/mcwdt/cy_mcwdt.h **** *
 672:Generated_Source\PSoC6\pdl\drivers/peripheral/mcwdt/cy_mcwdt.h **** *  Sets all the counter cascade options.
 673:Generated_Source\PSoC6\pdl\drivers/peripheral/mcwdt/cy_mcwdt.h **** *
 674:Generated_Source\PSoC6\pdl\drivers/peripheral/mcwdt/cy_mcwdt.h **** *  \param base
 675:Generated_Source\PSoC6\pdl\drivers/peripheral/mcwdt/cy_mcwdt.h **** *  The base pointer to a structure that describes registers.
 676:Generated_Source\PSoC6\pdl\drivers/peripheral/mcwdt/cy_mcwdt.h **** *
 677:Generated_Source\PSoC6\pdl\drivers/peripheral/mcwdt/cy_mcwdt.h **** *  \param cascade
 678:Generated_Source\PSoC6\pdl\drivers/peripheral/mcwdt/cy_mcwdt.h **** *  Sets or clears each of the cascade options.
 679:Generated_Source\PSoC6\pdl\drivers/peripheral/mcwdt/cy_mcwdt.h **** *
 680:Generated_Source\PSoC6\pdl\drivers/peripheral/mcwdt/cy_mcwdt.h **** *  \note
 681:Generated_Source\PSoC6\pdl\drivers/peripheral/mcwdt/cy_mcwdt.h **** *  This API must not be called when the counters are running. 
 682:Generated_Source\PSoC6\pdl\drivers/peripheral/mcwdt/cy_mcwdt.h **** *  Prior to calling this API, the counter must be disabled.
 683:Generated_Source\PSoC6\pdl\drivers/peripheral/mcwdt/cy_mcwdt.h **** *
 684:Generated_Source\PSoC6\pdl\drivers/peripheral/mcwdt/cy_mcwdt.h **** *******************************************************************************/
 685:Generated_Source\PSoC6\pdl\drivers/peripheral/mcwdt/cy_mcwdt.h **** __STATIC_INLINE void Cy_MCWDT_SetCascade(MCWDT_STRUCT_Type *base, cy_en_mcwdtcascade_t cascade)
 686:Generated_Source\PSoC6\pdl\drivers/peripheral/mcwdt/cy_mcwdt.h **** {
 687:Generated_Source\PSoC6\pdl\drivers/peripheral/mcwdt/cy_mcwdt.h ****     CY_ASSERT_L3(CY_MCWDT_IS_CASCADE_VALID(cascade));
 688:Generated_Source\PSoC6\pdl\drivers/peripheral/mcwdt/cy_mcwdt.h ****     
 689:Generated_Source\PSoC6\pdl\drivers/peripheral/mcwdt/cy_mcwdt.h ****     base->MCWDT_CONFIG = _CLR_SET_FLD32U(base->MCWDT_CONFIG, MCWDT_STRUCT_MCWDT_CONFIG_WDT_CASCADE0
 690:Generated_Source\PSoC6\pdl\drivers/peripheral/mcwdt/cy_mcwdt.h ****                                              (uint32_t) cascade);
 691:Generated_Source\PSoC6\pdl\drivers/peripheral/mcwdt/cy_mcwdt.h ****     base->MCWDT_CONFIG = _CLR_SET_FLD32U(base->MCWDT_CONFIG, MCWDT_STRUCT_MCWDT_CONFIG_WDT_CASCADE1
 692:Generated_Source\PSoC6\pdl\drivers/peripheral/mcwdt/cy_mcwdt.h ****                                              ((uint32_t) cascade >> 1u));
 693:Generated_Source\PSoC6\pdl\drivers/peripheral/mcwdt/cy_mcwdt.h **** }
 694:Generated_Source\PSoC6\pdl\drivers/peripheral/mcwdt/cy_mcwdt.h **** 
 695:Generated_Source\PSoC6\pdl\drivers/peripheral/mcwdt/cy_mcwdt.h **** 
 696:Generated_Source\PSoC6\pdl\drivers/peripheral/mcwdt/cy_mcwdt.h **** /*******************************************************************************
 697:Generated_Source\PSoC6\pdl\drivers/peripheral/mcwdt/cy_mcwdt.h **** * Function Name: Cy_MCWDT_GetCascade
 698:Generated_Source\PSoC6\pdl\drivers/peripheral/mcwdt/cy_mcwdt.h **** ****************************************************************************//**
 699:Generated_Source\PSoC6\pdl\drivers/peripheral/mcwdt/cy_mcwdt.h **** *
 700:Generated_Source\PSoC6\pdl\drivers/peripheral/mcwdt/cy_mcwdt.h **** *  Reports all the counter cascade option settings.
 701:Generated_Source\PSoC6\pdl\drivers/peripheral/mcwdt/cy_mcwdt.h **** *
 702:Generated_Source\PSoC6\pdl\drivers/peripheral/mcwdt/cy_mcwdt.h **** *  \param base
 703:Generated_Source\PSoC6\pdl\drivers/peripheral/mcwdt/cy_mcwdt.h **** *  The base pointer to a structure that describes registers.
 704:Generated_Source\PSoC6\pdl\drivers/peripheral/mcwdt/cy_mcwdt.h **** *
 705:Generated_Source\PSoC6\pdl\drivers/peripheral/mcwdt/cy_mcwdt.h **** *  \return
 706:Generated_Source\PSoC6\pdl\drivers/peripheral/mcwdt/cy_mcwdt.h **** *  The current cascade option values.
 707:Generated_Source\PSoC6\pdl\drivers/peripheral/mcwdt/cy_mcwdt.h **** *
 708:Generated_Source\PSoC6\pdl\drivers/peripheral/mcwdt/cy_mcwdt.h **** *******************************************************************************/
 709:Generated_Source\PSoC6\pdl\drivers/peripheral/mcwdt/cy_mcwdt.h **** __STATIC_INLINE cy_en_mcwdtcascade_t Cy_MCWDT_GetCascade(MCWDT_STRUCT_Type const *base)
 710:Generated_Source\PSoC6\pdl\drivers/peripheral/mcwdt/cy_mcwdt.h **** {
 711:Generated_Source\PSoC6\pdl\drivers/peripheral/mcwdt/cy_mcwdt.h ****     uint32_t cascade;
 712:Generated_Source\PSoC6\pdl\drivers/peripheral/mcwdt/cy_mcwdt.h **** 
 713:Generated_Source\PSoC6\pdl\drivers/peripheral/mcwdt/cy_mcwdt.h ****     cascade = (_FLD2VAL(MCWDT_STRUCT_MCWDT_CONFIG_WDT_CASCADE1_2, base->MCWDT_CONFIG) << 1u) |
 714:Generated_Source\PSoC6\pdl\drivers/peripheral/mcwdt/cy_mcwdt.h ****                _FLD2VAL(MCWDT_STRUCT_MCWDT_CONFIG_WDT_CASCADE0_1, base->MCWDT_CONFIG);
 715:Generated_Source\PSoC6\pdl\drivers/peripheral/mcwdt/cy_mcwdt.h **** 
ARM GAS  C:\Users\salaz\AppData\Local\Temp\ccvE4Xni.s 			page 17


 716:Generated_Source\PSoC6\pdl\drivers/peripheral/mcwdt/cy_mcwdt.h ****     return ((cy_en_mcwdtcascade_t) cascade);
 717:Generated_Source\PSoC6\pdl\drivers/peripheral/mcwdt/cy_mcwdt.h **** }
 718:Generated_Source\PSoC6\pdl\drivers/peripheral/mcwdt/cy_mcwdt.h **** 
 719:Generated_Source\PSoC6\pdl\drivers/peripheral/mcwdt/cy_mcwdt.h **** 
 720:Generated_Source\PSoC6\pdl\drivers/peripheral/mcwdt/cy_mcwdt.h **** /*******************************************************************************
 721:Generated_Source\PSoC6\pdl\drivers/peripheral/mcwdt/cy_mcwdt.h **** * Function Name: Cy_MCWDT_SetMatch
 722:Generated_Source\PSoC6\pdl\drivers/peripheral/mcwdt/cy_mcwdt.h **** ****************************************************************************//**
 723:Generated_Source\PSoC6\pdl\drivers/peripheral/mcwdt/cy_mcwdt.h **** *
 724:Generated_Source\PSoC6\pdl\drivers/peripheral/mcwdt/cy_mcwdt.h **** *  Sets the match comparison value for the specified counter (0 or 1).
 725:Generated_Source\PSoC6\pdl\drivers/peripheral/mcwdt/cy_mcwdt.h **** *
 726:Generated_Source\PSoC6\pdl\drivers/peripheral/mcwdt/cy_mcwdt.h **** *  \param base
 727:Generated_Source\PSoC6\pdl\drivers/peripheral/mcwdt/cy_mcwdt.h **** *  The base pointer to a structure that describes registers.
 728:Generated_Source\PSoC6\pdl\drivers/peripheral/mcwdt/cy_mcwdt.h **** *
 729:Generated_Source\PSoC6\pdl\drivers/peripheral/mcwdt/cy_mcwdt.h **** *  \param counter
 730:Generated_Source\PSoC6\pdl\drivers/peripheral/mcwdt/cy_mcwdt.h **** *   The number of the WDT counter. The valid range is [0-1].
 731:Generated_Source\PSoC6\pdl\drivers/peripheral/mcwdt/cy_mcwdt.h **** *
 732:Generated_Source\PSoC6\pdl\drivers/peripheral/mcwdt/cy_mcwdt.h **** *  \param match
 733:Generated_Source\PSoC6\pdl\drivers/peripheral/mcwdt/cy_mcwdt.h **** *  The value to match against the counter. 
 734:Generated_Source\PSoC6\pdl\drivers/peripheral/mcwdt/cy_mcwdt.h **** *  The valid range is [0-65535] for c0ClearOnMatch (or c1ClearOnMatch) = 0 
 735:Generated_Source\PSoC6\pdl\drivers/peripheral/mcwdt/cy_mcwdt.h **** *  and [1-65535] for c0ClearOnMatch (or c1ClearOnMatch) = 1.
 736:Generated_Source\PSoC6\pdl\drivers/peripheral/mcwdt/cy_mcwdt.h **** *
 737:Generated_Source\PSoC6\pdl\drivers/peripheral/mcwdt/cy_mcwdt.h **** *  \note
 738:Generated_Source\PSoC6\pdl\drivers/peripheral/mcwdt/cy_mcwdt.h **** *  The match value is not supported by Counter 2.
 739:Generated_Source\PSoC6\pdl\drivers/peripheral/mcwdt/cy_mcwdt.h **** *
 740:Generated_Source\PSoC6\pdl\drivers/peripheral/mcwdt/cy_mcwdt.h **** *  \note
 741:Generated_Source\PSoC6\pdl\drivers/peripheral/mcwdt/cy_mcwdt.h **** *  Action on match is taken on the next increment after the counter value 
 742:Generated_Source\PSoC6\pdl\drivers/peripheral/mcwdt/cy_mcwdt.h **** *  equal to match value.
 743:Generated_Source\PSoC6\pdl\drivers/peripheral/mcwdt/cy_mcwdt.h **** *
 744:Generated_Source\PSoC6\pdl\drivers/peripheral/mcwdt/cy_mcwdt.h **** *  \param waitUs
 745:Generated_Source\PSoC6\pdl\drivers/peripheral/mcwdt/cy_mcwdt.h **** *  The function waits for some delay in microseconds before returning, 
 746:Generated_Source\PSoC6\pdl\drivers/peripheral/mcwdt/cy_mcwdt.h **** *  because the match affects after two lf_clk cycles pass. The recommended 
 747:Generated_Source\PSoC6\pdl\drivers/peripheral/mcwdt/cy_mcwdt.h **** *  value is 93 us.
 748:Generated_Source\PSoC6\pdl\drivers/peripheral/mcwdt/cy_mcwdt.h **** *  \note
 749:Generated_Source\PSoC6\pdl\drivers/peripheral/mcwdt/cy_mcwdt.h **** *  Setting this parameter to a zero means No wait. This must be taken
 750:Generated_Source\PSoC6\pdl\drivers/peripheral/mcwdt/cy_mcwdt.h **** *  into account when changing the match values on the running counters.
 751:Generated_Source\PSoC6\pdl\drivers/peripheral/mcwdt/cy_mcwdt.h **** *
 752:Generated_Source\PSoC6\pdl\drivers/peripheral/mcwdt/cy_mcwdt.h **** *******************************************************************************/
 753:Generated_Source\PSoC6\pdl\drivers/peripheral/mcwdt/cy_mcwdt.h **** __STATIC_INLINE void Cy_MCWDT_SetMatch(MCWDT_STRUCT_Type *base, cy_en_mcwdtctr_t counter, uint32_t 
 754:Generated_Source\PSoC6\pdl\drivers/peripheral/mcwdt/cy_mcwdt.h **** {
 755:Generated_Source\PSoC6\pdl\drivers/peripheral/mcwdt/cy_mcwdt.h ****     CY_ASSERT_L3(CY_MCWDT_IS_CNT_NUM_VALID(counter));
 756:Generated_Source\PSoC6\pdl\drivers/peripheral/mcwdt/cy_mcwdt.h ****     CY_ASSERT_L2(CY_MCWDT_IS_MATCH_VALID((CY_MCWDT_COUNTER0 == counter) ?  
 141              		.loc 2 756 0
 142 0084 434B     		ldr	r3, .L18+12
 143 0086 1B69     		ldr	r3, [r3, #16]
 144 0088 0422     		movs	r2, #4
 145 008a 1340     		ands	r3, r2
 146 008c 5A1E     		subs	r2, r3, #1
 147 008e 9341     		sbcs	r3, r3, r2
 148 0090 DBB2     		uxtb	r3, r3
 149 0092 002B     		cmp	r3, #0
 150 0094 02D0     		beq	.L8
 151 0096 7342     		rsbs	r3, r6, #0
 152 0098 7341     		adcs	r3, r3, r6
 153 009a DBB2     		uxtb	r3, r3
 154              	.L8:
 155 009c 002B     		cmp	r3, #0
 156 009e 03D0     		beq	.L9
ARM GAS  C:\Users\salaz\AppData\Local\Temp\ccvE4Xni.s 			page 18


 157 00a0 3D49     		ldr	r1, .L18+16
 158 00a2 3E48     		ldr	r0, .L18+20
 159              	.LVL11:
 160 00a4 FFF7FEFF 		bl	Cy_SysLib_AssertFailed
 161              	.LVL12:
 162              	.L9:
 757:Generated_Source\PSoC6\pdl\drivers/peripheral/mcwdt/cy_mcwdt.h ****                                          ((base->MCWDT_CONFIG & MCWDT_STRUCT_MCWDT_CONFIG_WDT_CLEAR
 758:Generated_Source\PSoC6\pdl\drivers/peripheral/mcwdt/cy_mcwdt.h ****                                          ((base->MCWDT_CONFIG & MCWDT_STRUCT_MCWDT_CONFIG_WDT_CLEAR
 759:Generated_Source\PSoC6\pdl\drivers/peripheral/mcwdt/cy_mcwdt.h ****                                           match));
 760:Generated_Source\PSoC6\pdl\drivers/peripheral/mcwdt/cy_mcwdt.h **** 
 761:Generated_Source\PSoC6\pdl\drivers/peripheral/mcwdt/cy_mcwdt.h ****     base->MCWDT_MATCH = (counter == CY_MCWDT_COUNTER0) ?
 762:Generated_Source\PSoC6\pdl\drivers/peripheral/mcwdt/cy_mcwdt.h ****         _CLR_SET_FLD32U(base->MCWDT_MATCH, MCWDT_STRUCT_MCWDT_MATCH_WDT_MATCH0,
 163              		.loc 2 762 0
 164 00a8 3A4C     		ldr	r4, .L18+12
 165              	.LVL13:
 166 00aa E368     		ldr	r3, [r4, #12]
 167 00ac 1B0C     		lsrs	r3, r3, #16
 168 00ae 1B04     		lsls	r3, r3, #16
 169 00b0 3604     		lsls	r6, r6, #16
 170              	.LVL14:
 171 00b2 360C     		lsrs	r6, r6, #16
 763:Generated_Source\PSoC6\pdl\drivers/peripheral/mcwdt/cy_mcwdt.h ****                         (match & MCWDT_STRUCT_MCWDT_MATCH_WDT_MATCH0_Msk)) :
 172              		.loc 2 763 0
 173 00b4 1E43     		orrs	r6, r3
 761:Generated_Source\PSoC6\pdl\drivers/peripheral/mcwdt/cy_mcwdt.h ****         _CLR_SET_FLD32U(base->MCWDT_MATCH, MCWDT_STRUCT_MCWDT_MATCH_WDT_MATCH0,
 174              		.loc 2 761 0
 175 00b6 E660     		str	r6, [r4, #12]
 764:Generated_Source\PSoC6\pdl\drivers/peripheral/mcwdt/cy_mcwdt.h ****         _CLR_SET_FLD32U(base->MCWDT_MATCH, MCWDT_STRUCT_MCWDT_MATCH_WDT_MATCH1,
 765:Generated_Source\PSoC6\pdl\drivers/peripheral/mcwdt/cy_mcwdt.h ****                         (match & MCWDT_STRUCT_MCWDT_MATCH_WDT_MATCH0_Msk));
 766:Generated_Source\PSoC6\pdl\drivers/peripheral/mcwdt/cy_mcwdt.h **** 
 767:Generated_Source\PSoC6\pdl\drivers/peripheral/mcwdt/cy_mcwdt.h ****     Cy_SysLib_DelayUs(waitUs);
 176              		.loc 2 767 0
 177 00b8 3E20     		movs	r0, #62
 178 00ba FFF7FEFF 		bl	Cy_SysLib_DelayUs
 179              	.LVL15:
 180              	.LBE57:
 181              	.LBE56:
 182              	.LBB58:
 183              	.LBB59:
 756:Generated_Source\PSoC6\pdl\drivers/peripheral/mcwdt/cy_mcwdt.h ****                                          ((base->MCWDT_CONFIG & MCWDT_STRUCT_MCWDT_CONFIG_WDT_CLEAR
 184              		.loc 2 756 0
 185 00be 2369     		ldr	r3, [r4, #16]
 186 00c0 5B05     		lsls	r3, r3, #21
 187 00c2 03D5     		bpl	.L10
 188 00c4 3449     		ldr	r1, .L18+16
 189 00c6 3548     		ldr	r0, .L18+20
 190 00c8 FFF7FEFF 		bl	Cy_SysLib_AssertFailed
 191              	.LVL16:
 192              	.L10:
 764:Generated_Source\PSoC6\pdl\drivers/peripheral/mcwdt/cy_mcwdt.h ****         _CLR_SET_FLD32U(base->MCWDT_MATCH, MCWDT_STRUCT_MCWDT_MATCH_WDT_MATCH1,
 193              		.loc 2 764 0
 194 00cc 314A     		ldr	r2, .L18+12
 195 00ce D368     		ldr	r3, [r2, #12]
 196 00d0 1B04     		lsls	r3, r3, #16
 197 00d2 1B0C     		lsrs	r3, r3, #16
 761:Generated_Source\PSoC6\pdl\drivers/peripheral/mcwdt/cy_mcwdt.h ****         _CLR_SET_FLD32U(base->MCWDT_MATCH, MCWDT_STRUCT_MCWDT_MATCH_WDT_MATCH0,
 198              		.loc 2 761 0
ARM GAS  C:\Users\salaz\AppData\Local\Temp\ccvE4Xni.s 			page 19


 199 00d4 D360     		str	r3, [r2, #12]
 200              		.loc 2 767 0
 201 00d6 3E20     		movs	r0, #62
 202 00d8 FFF7FEFF 		bl	Cy_SysLib_DelayUs
 203              	.LVL17:
 204 00dc 30E0     		b	.L11
 205              	.LVL18:
 206              	.L7:
 207              	.LBE59:
 208              	.LBE58:
 209              	.LBB60:
 210              	.LBB61:
 756:Generated_Source\PSoC6\pdl\drivers/peripheral/mcwdt/cy_mcwdt.h ****                                          ((base->MCWDT_CONFIG & MCWDT_STRUCT_MCWDT_CONFIG_WDT_CLEAR
 211              		.loc 2 756 0
 212 00de 2D4E     		ldr	r6, .L18+12
 213 00e0 3369     		ldr	r3, [r6, #16]
 762:Generated_Source\PSoC6\pdl\drivers/peripheral/mcwdt/cy_mcwdt.h ****                         (match & MCWDT_STRUCT_MCWDT_MATCH_WDT_MATCH0_Msk)) :
 214              		.loc 2 762 0
 215 00e2 F368     		ldr	r3, [r6, #12]
 216 00e4 1B0C     		lsrs	r3, r3, #16
 217 00e6 1B04     		lsls	r3, r3, #16
 763:Generated_Source\PSoC6\pdl\drivers/peripheral/mcwdt/cy_mcwdt.h ****         _CLR_SET_FLD32U(base->MCWDT_MATCH, MCWDT_STRUCT_MCWDT_MATCH_WDT_MATCH1,
 218              		.loc 2 763 0
 219 00e8 2D4F     		ldr	r7, .L18+24
 220 00ea 3B43     		orrs	r3, r7
 761:Generated_Source\PSoC6\pdl\drivers/peripheral/mcwdt/cy_mcwdt.h ****         _CLR_SET_FLD32U(base->MCWDT_MATCH, MCWDT_STRUCT_MCWDT_MATCH_WDT_MATCH0,
 221              		.loc 2 761 0
 222 00ec F360     		str	r3, [r6, #12]
 223              		.loc 2 767 0
 224 00ee 3E20     		movs	r0, #62
 225              	.LVL19:
 226 00f0 FFF7FEFF 		bl	Cy_SysLib_DelayUs
 227              	.LVL20:
 228              	.LBE61:
 229              	.LBE60:
  54:TimingMaster.c ****     {
  55:TimingMaster.c ****         Cy_MCWDT_SetMatch(MCWDT_HW, CY_MCWDT_COUNTER0, timers[shortest_expiration_id].remaining, MC
  56:TimingMaster.c ****         Cy_MCWDT_SetMatch(MCWDT_HW, CY_MCWDT_COUNTER1, 0, MCWDT_TWO_LF_CLK_CYCLES_DELAY);
  57:TimingMaster.c ****     }
  58:TimingMaster.c ****     else
  59:TimingMaster.c ****     {
  60:TimingMaster.c ****         Cy_MCWDT_SetMatch(MCWDT_HW, CY_MCWDT_COUNTER0, 65535, MCWDT_TWO_LF_CLK_CYCLES_DELAY);
  61:TimingMaster.c ****         Cy_MCWDT_SetMatch(MCWDT_HW, CY_MCWDT_COUNTER1, (timers[shortest_expiration_id].remaining / 
 230              		.loc 1 61 0
 231 00f4 6300     		lsls	r3, r4, #1
 232 00f6 1C19     		adds	r4, r3, r4
 233              	.LVL21:
 234 00f8 A300     		lsls	r3, r4, #2
 235 00fa 234A     		ldr	r2, .L18
 236 00fc D318     		adds	r3, r2, r3
 237 00fe 9868     		ldr	r0, [r3, #8]
 238 0100 3900     		movs	r1, r7
 239 0102 FFF7FEFF 		bl	__aeabi_uidiv
 240              	.LVL22:
 241 0106 441E     		subs	r4, r0, #1
 242              	.LVL23:
 243              	.LBB62:
ARM GAS  C:\Users\salaz\AppData\Local\Temp\ccvE4Xni.s 			page 20


 244              	.LBB63:
 756:Generated_Source\PSoC6\pdl\drivers/peripheral/mcwdt/cy_mcwdt.h ****                                          ((base->MCWDT_CONFIG & MCWDT_STRUCT_MCWDT_CONFIG_WDT_CLEAR
 245              		.loc 2 756 0
 246 0108 3269     		ldr	r2, [r6, #16]
 247 010a 8023     		movs	r3, #128
 248 010c DB00     		lsls	r3, r3, #3
 249 010e 1340     		ands	r3, r2
 250 0110 5A1E     		subs	r2, r3, #1
 251 0112 9341     		sbcs	r3, r3, r2
 252 0114 DBB2     		uxtb	r3, r3
 253 0116 002B     		cmp	r3, #0
 254 0118 02D0     		beq	.L12
 255 011a 6342     		rsbs	r3, r4, #0
 256 011c 6341     		adcs	r3, r3, r4
 257 011e DBB2     		uxtb	r3, r3
 258              	.L12:
 259 0120 002B     		cmp	r3, #0
 260 0122 03D0     		beq	.L13
 261 0124 1C49     		ldr	r1, .L18+16
 262 0126 1D48     		ldr	r0, .L18+20
 263 0128 FFF7FEFF 		bl	Cy_SysLib_AssertFailed
 264              	.LVL24:
 265              	.L13:
 764:Generated_Source\PSoC6\pdl\drivers/peripheral/mcwdt/cy_mcwdt.h ****                         (match & MCWDT_STRUCT_MCWDT_MATCH_WDT_MATCH0_Msk));
 266              		.loc 2 764 0
 267 012c 194B     		ldr	r3, .L18+12
 268 012e D868     		ldr	r0, [r3, #12]
 269 0130 0004     		lsls	r0, r0, #16
 270 0132 000C     		lsrs	r0, r0, #16
 271 0134 2404     		lsls	r4, r4, #16
 272              	.LVL25:
 763:Generated_Source\PSoC6\pdl\drivers/peripheral/mcwdt/cy_mcwdt.h ****         _CLR_SET_FLD32U(base->MCWDT_MATCH, MCWDT_STRUCT_MCWDT_MATCH_WDT_MATCH1,
 273              		.loc 2 763 0
 274 0136 0443     		orrs	r4, r0
 761:Generated_Source\PSoC6\pdl\drivers/peripheral/mcwdt/cy_mcwdt.h ****         _CLR_SET_FLD32U(base->MCWDT_MATCH, MCWDT_STRUCT_MCWDT_MATCH_WDT_MATCH0,
 275              		.loc 2 761 0
 276 0138 DC60     		str	r4, [r3, #12]
 277              		.loc 2 767 0
 278 013a 3E20     		movs	r0, #62
 279 013c FFF7FEFF 		bl	Cy_SysLib_DelayUs
 280              	.LVL26:
 281              	.L11:
 282              	.LBE63:
 283              	.LBE62:
 284              	.LBB64:
 285              	.LBB65:
 768:Generated_Source\PSoC6\pdl\drivers/peripheral/mcwdt/cy_mcwdt.h **** }
 769:Generated_Source\PSoC6\pdl\drivers/peripheral/mcwdt/cy_mcwdt.h **** 
 770:Generated_Source\PSoC6\pdl\drivers/peripheral/mcwdt/cy_mcwdt.h **** 
 771:Generated_Source\PSoC6\pdl\drivers/peripheral/mcwdt/cy_mcwdt.h **** /*******************************************************************************
 772:Generated_Source\PSoC6\pdl\drivers/peripheral/mcwdt/cy_mcwdt.h **** * Function Name: Cy_MCWDT_GetMatch
 773:Generated_Source\PSoC6\pdl\drivers/peripheral/mcwdt/cy_mcwdt.h **** ****************************************************************************//**
 774:Generated_Source\PSoC6\pdl\drivers/peripheral/mcwdt/cy_mcwdt.h **** *
 775:Generated_Source\PSoC6\pdl\drivers/peripheral/mcwdt/cy_mcwdt.h **** *  Reports the match comparison value for the specified counter (0 or 1).
 776:Generated_Source\PSoC6\pdl\drivers/peripheral/mcwdt/cy_mcwdt.h **** *
 777:Generated_Source\PSoC6\pdl\drivers/peripheral/mcwdt/cy_mcwdt.h **** *  \param base
 778:Generated_Source\PSoC6\pdl\drivers/peripheral/mcwdt/cy_mcwdt.h **** *  The base pointer to a structure that describes registers.
ARM GAS  C:\Users\salaz\AppData\Local\Temp\ccvE4Xni.s 			page 21


 779:Generated_Source\PSoC6\pdl\drivers/peripheral/mcwdt/cy_mcwdt.h **** *
 780:Generated_Source\PSoC6\pdl\drivers/peripheral/mcwdt/cy_mcwdt.h **** *  \param counter
 781:Generated_Source\PSoC6\pdl\drivers/peripheral/mcwdt/cy_mcwdt.h **** *  The number of the WDT counter. The valid range is [0-1].
 782:Generated_Source\PSoC6\pdl\drivers/peripheral/mcwdt/cy_mcwdt.h **** *
 783:Generated_Source\PSoC6\pdl\drivers/peripheral/mcwdt/cy_mcwdt.h **** *  \note
 784:Generated_Source\PSoC6\pdl\drivers/peripheral/mcwdt/cy_mcwdt.h **** *  The match values are not supported by Counter 2.
 785:Generated_Source\PSoC6\pdl\drivers/peripheral/mcwdt/cy_mcwdt.h **** *
 786:Generated_Source\PSoC6\pdl\drivers/peripheral/mcwdt/cy_mcwdt.h **** *  \return
 787:Generated_Source\PSoC6\pdl\drivers/peripheral/mcwdt/cy_mcwdt.h **** *  A 16-bit match value.
 788:Generated_Source\PSoC6\pdl\drivers/peripheral/mcwdt/cy_mcwdt.h **** *
 789:Generated_Source\PSoC6\pdl\drivers/peripheral/mcwdt/cy_mcwdt.h **** *******************************************************************************/
 790:Generated_Source\PSoC6\pdl\drivers/peripheral/mcwdt/cy_mcwdt.h **** __STATIC_INLINE uint32_t Cy_MCWDT_GetMatch(MCWDT_STRUCT_Type const *base, cy_en_mcwdtctr_t counter)
 791:Generated_Source\PSoC6\pdl\drivers/peripheral/mcwdt/cy_mcwdt.h **** {
 792:Generated_Source\PSoC6\pdl\drivers/peripheral/mcwdt/cy_mcwdt.h ****     uint32_t match;
 793:Generated_Source\PSoC6\pdl\drivers/peripheral/mcwdt/cy_mcwdt.h **** 
 794:Generated_Source\PSoC6\pdl\drivers/peripheral/mcwdt/cy_mcwdt.h ****     CY_ASSERT_L3(CY_MCWDT_IS_CNT_NUM_VALID(counter));
 795:Generated_Source\PSoC6\pdl\drivers/peripheral/mcwdt/cy_mcwdt.h **** 
 796:Generated_Source\PSoC6\pdl\drivers/peripheral/mcwdt/cy_mcwdt.h ****     match = (counter == CY_MCWDT_COUNTER0) ? _FLD2VAL(MCWDT_STRUCT_MCWDT_MATCH_WDT_MATCH0, base->MC
 797:Generated_Source\PSoC6\pdl\drivers/peripheral/mcwdt/cy_mcwdt.h ****                                           _FLD2VAL(MCWDT_STRUCT_MCWDT_MATCH_WDT_MATCH1, base->MCWDT
 798:Generated_Source\PSoC6\pdl\drivers/peripheral/mcwdt/cy_mcwdt.h **** 
 799:Generated_Source\PSoC6\pdl\drivers/peripheral/mcwdt/cy_mcwdt.h ****     return (match);
 800:Generated_Source\PSoC6\pdl\drivers/peripheral/mcwdt/cy_mcwdt.h **** }
 801:Generated_Source\PSoC6\pdl\drivers/peripheral/mcwdt/cy_mcwdt.h **** 
 802:Generated_Source\PSoC6\pdl\drivers/peripheral/mcwdt/cy_mcwdt.h **** 
 803:Generated_Source\PSoC6\pdl\drivers/peripheral/mcwdt/cy_mcwdt.h **** /*******************************************************************************
 804:Generated_Source\PSoC6\pdl\drivers/peripheral/mcwdt/cy_mcwdt.h **** * Function Name: Cy_MCWDT_SetToggleBit
 805:Generated_Source\PSoC6\pdl\drivers/peripheral/mcwdt/cy_mcwdt.h **** ****************************************************************************//**
 806:Generated_Source\PSoC6\pdl\drivers/peripheral/mcwdt/cy_mcwdt.h **** *
 807:Generated_Source\PSoC6\pdl\drivers/peripheral/mcwdt/cy_mcwdt.h **** *  Sets a bit in Counter 2 to monitor for a toggle.
 808:Generated_Source\PSoC6\pdl\drivers/peripheral/mcwdt/cy_mcwdt.h **** *
 809:Generated_Source\PSoC6\pdl\drivers/peripheral/mcwdt/cy_mcwdt.h **** *  \param base
 810:Generated_Source\PSoC6\pdl\drivers/peripheral/mcwdt/cy_mcwdt.h **** *  The base pointer to a structure that describes registers.
 811:Generated_Source\PSoC6\pdl\drivers/peripheral/mcwdt/cy_mcwdt.h **** *
 812:Generated_Source\PSoC6\pdl\drivers/peripheral/mcwdt/cy_mcwdt.h **** *  \param bit
 813:Generated_Source\PSoC6\pdl\drivers/peripheral/mcwdt/cy_mcwdt.h **** *  The Counter 2 bit is set to monitor for a toggle. The valid range [0-31].
 814:Generated_Source\PSoC6\pdl\drivers/peripheral/mcwdt/cy_mcwdt.h **** *
 815:Generated_Source\PSoC6\pdl\drivers/peripheral/mcwdt/cy_mcwdt.h **** *  \note
 816:Generated_Source\PSoC6\pdl\drivers/peripheral/mcwdt/cy_mcwdt.h **** *  This API must not be called when counters are running.
 817:Generated_Source\PSoC6\pdl\drivers/peripheral/mcwdt/cy_mcwdt.h **** *  Prior to calling this API, the counter must be disabled.
 818:Generated_Source\PSoC6\pdl\drivers/peripheral/mcwdt/cy_mcwdt.h **** *
 819:Generated_Source\PSoC6\pdl\drivers/peripheral/mcwdt/cy_mcwdt.h **** *******************************************************************************/
 820:Generated_Source\PSoC6\pdl\drivers/peripheral/mcwdt/cy_mcwdt.h **** __STATIC_INLINE void Cy_MCWDT_SetToggleBit(MCWDT_STRUCT_Type *base, uint32_t bit)
 821:Generated_Source\PSoC6\pdl\drivers/peripheral/mcwdt/cy_mcwdt.h **** {
 822:Generated_Source\PSoC6\pdl\drivers/peripheral/mcwdt/cy_mcwdt.h ****     CY_ASSERT_L2(CY_MCWDT_IS_BIT_VALID(bit));
 823:Generated_Source\PSoC6\pdl\drivers/peripheral/mcwdt/cy_mcwdt.h ****     
 824:Generated_Source\PSoC6\pdl\drivers/peripheral/mcwdt/cy_mcwdt.h ****     base->MCWDT_CONFIG = _CLR_SET_FLD32U(base->MCWDT_CONFIG, MCWDT_STRUCT_MCWDT_CONFIG_WDT_BITS2, b
 825:Generated_Source\PSoC6\pdl\drivers/peripheral/mcwdt/cy_mcwdt.h **** }
 826:Generated_Source\PSoC6\pdl\drivers/peripheral/mcwdt/cy_mcwdt.h **** 
 827:Generated_Source\PSoC6\pdl\drivers/peripheral/mcwdt/cy_mcwdt.h **** 
 828:Generated_Source\PSoC6\pdl\drivers/peripheral/mcwdt/cy_mcwdt.h **** /*******************************************************************************
 829:Generated_Source\PSoC6\pdl\drivers/peripheral/mcwdt/cy_mcwdt.h **** * Function Name: Cy_MCWDT_GetToggleBit
 830:Generated_Source\PSoC6\pdl\drivers/peripheral/mcwdt/cy_mcwdt.h **** ****************************************************************************//**
 831:Generated_Source\PSoC6\pdl\drivers/peripheral/mcwdt/cy_mcwdt.h **** *
 832:Generated_Source\PSoC6\pdl\drivers/peripheral/mcwdt/cy_mcwdt.h **** *  Reports which bit in Counter 2 is monitored for a toggle.
 833:Generated_Source\PSoC6\pdl\drivers/peripheral/mcwdt/cy_mcwdt.h **** *
 834:Generated_Source\PSoC6\pdl\drivers/peripheral/mcwdt/cy_mcwdt.h **** *  \param base
 835:Generated_Source\PSoC6\pdl\drivers/peripheral/mcwdt/cy_mcwdt.h **** *  The base pointer to a structure that describes registers.
ARM GAS  C:\Users\salaz\AppData\Local\Temp\ccvE4Xni.s 			page 22


 836:Generated_Source\PSoC6\pdl\drivers/peripheral/mcwdt/cy_mcwdt.h **** *
 837:Generated_Source\PSoC6\pdl\drivers/peripheral/mcwdt/cy_mcwdt.h **** *  \return
 838:Generated_Source\PSoC6\pdl\drivers/peripheral/mcwdt/cy_mcwdt.h **** *  The bit that is monitored (range 0 to 31).
 839:Generated_Source\PSoC6\pdl\drivers/peripheral/mcwdt/cy_mcwdt.h **** *
 840:Generated_Source\PSoC6\pdl\drivers/peripheral/mcwdt/cy_mcwdt.h **** *******************************************************************************/
 841:Generated_Source\PSoC6\pdl\drivers/peripheral/mcwdt/cy_mcwdt.h **** __STATIC_INLINE uint32_t Cy_MCWDT_GetToggleBit(MCWDT_STRUCT_Type const *base)
 842:Generated_Source\PSoC6\pdl\drivers/peripheral/mcwdt/cy_mcwdt.h **** {
 843:Generated_Source\PSoC6\pdl\drivers/peripheral/mcwdt/cy_mcwdt.h ****     return (_FLD2VAL(MCWDT_STRUCT_MCWDT_CONFIG_WDT_BITS2, base->MCWDT_CONFIG));
 844:Generated_Source\PSoC6\pdl\drivers/peripheral/mcwdt/cy_mcwdt.h **** }
 845:Generated_Source\PSoC6\pdl\drivers/peripheral/mcwdt/cy_mcwdt.h **** 
 846:Generated_Source\PSoC6\pdl\drivers/peripheral/mcwdt/cy_mcwdt.h **** 
 847:Generated_Source\PSoC6\pdl\drivers/peripheral/mcwdt/cy_mcwdt.h **** /*******************************************************************************
 848:Generated_Source\PSoC6\pdl\drivers/peripheral/mcwdt/cy_mcwdt.h **** * Function Name: Cy_MCWDT_GetCount
 849:Generated_Source\PSoC6\pdl\drivers/peripheral/mcwdt/cy_mcwdt.h **** ****************************************************************************//**
 850:Generated_Source\PSoC6\pdl\drivers/peripheral/mcwdt/cy_mcwdt.h **** *
 851:Generated_Source\PSoC6\pdl\drivers/peripheral/mcwdt/cy_mcwdt.h **** *  Reports the current counter value of the specified counter.
 852:Generated_Source\PSoC6\pdl\drivers/peripheral/mcwdt/cy_mcwdt.h **** *
 853:Generated_Source\PSoC6\pdl\drivers/peripheral/mcwdt/cy_mcwdt.h **** *  \param base
 854:Generated_Source\PSoC6\pdl\drivers/peripheral/mcwdt/cy_mcwdt.h **** *  The base pointer to a structure that describes registers.
 855:Generated_Source\PSoC6\pdl\drivers/peripheral/mcwdt/cy_mcwdt.h **** *
 856:Generated_Source\PSoC6\pdl\drivers/peripheral/mcwdt/cy_mcwdt.h **** *  \param counter
 857:Generated_Source\PSoC6\pdl\drivers/peripheral/mcwdt/cy_mcwdt.h **** *  The number of the WDT counter. The valid range is [0-2].
 858:Generated_Source\PSoC6\pdl\drivers/peripheral/mcwdt/cy_mcwdt.h **** *
 859:Generated_Source\PSoC6\pdl\drivers/peripheral/mcwdt/cy_mcwdt.h **** *  \return
 860:Generated_Source\PSoC6\pdl\drivers/peripheral/mcwdt/cy_mcwdt.h **** *  A live counter value. Counters 0 and 1 are 16-bit counters and Counter 2 is
 861:Generated_Source\PSoC6\pdl\drivers/peripheral/mcwdt/cy_mcwdt.h **** *  a 32-bit counter.
 862:Generated_Source\PSoC6\pdl\drivers/peripheral/mcwdt/cy_mcwdt.h **** *
 863:Generated_Source\PSoC6\pdl\drivers/peripheral/mcwdt/cy_mcwdt.h **** *******************************************************************************/
 864:Generated_Source\PSoC6\pdl\drivers/peripheral/mcwdt/cy_mcwdt.h **** __STATIC_INLINE uint32_t Cy_MCWDT_GetCount(MCWDT_STRUCT_Type const *base, cy_en_mcwdtctr_t counter)
 865:Generated_Source\PSoC6\pdl\drivers/peripheral/mcwdt/cy_mcwdt.h **** {
 866:Generated_Source\PSoC6\pdl\drivers/peripheral/mcwdt/cy_mcwdt.h ****     uint32_t countVal = 0u;
 867:Generated_Source\PSoC6\pdl\drivers/peripheral/mcwdt/cy_mcwdt.h **** 
 868:Generated_Source\PSoC6\pdl\drivers/peripheral/mcwdt/cy_mcwdt.h ****     CY_ASSERT_L3(CY_MCWDT_IS_CNT_NUM_VALID(counter));
 869:Generated_Source\PSoC6\pdl\drivers/peripheral/mcwdt/cy_mcwdt.h ****     
 870:Generated_Source\PSoC6\pdl\drivers/peripheral/mcwdt/cy_mcwdt.h ****     switch (counter)
 871:Generated_Source\PSoC6\pdl\drivers/peripheral/mcwdt/cy_mcwdt.h ****     {
 872:Generated_Source\PSoC6\pdl\drivers/peripheral/mcwdt/cy_mcwdt.h ****         case CY_MCWDT_COUNTER0:
 873:Generated_Source\PSoC6\pdl\drivers/peripheral/mcwdt/cy_mcwdt.h ****             countVal = _FLD2VAL(MCWDT_STRUCT_MCWDT_CNTLOW_WDT_CTR0, base->MCWDT_CNTLOW);
 874:Generated_Source\PSoC6\pdl\drivers/peripheral/mcwdt/cy_mcwdt.h ****             break;
 875:Generated_Source\PSoC6\pdl\drivers/peripheral/mcwdt/cy_mcwdt.h ****         case CY_MCWDT_COUNTER1:
 876:Generated_Source\PSoC6\pdl\drivers/peripheral/mcwdt/cy_mcwdt.h ****             countVal = _FLD2VAL(MCWDT_STRUCT_MCWDT_CNTLOW_WDT_CTR1, base->MCWDT_CNTLOW);
 286              		.loc 2 876 0
 287 0140 144A     		ldr	r2, .L18+12
 288 0142 5368     		ldr	r3, [r2, #4]
 289              	.LVL27:
 290              	.LBE65:
 291              	.LBE64:
 292              	.LBB66:
 293              	.LBB67:
 797:Generated_Source\PSoC6\pdl\drivers/peripheral/mcwdt/cy_mcwdt.h **** 
 294              		.loc 2 797 0
 295 0144 D268     		ldr	r2, [r2, #12]
 296              	.LVL28:
 297              	.LBE67:
 298              	.LBE66:
  62:TimingMaster.c ****     }
  63:TimingMaster.c ****     // Not a critical failure. Sanity check just incase.
ARM GAS  C:\Users\salaz\AppData\Local\Temp\ccvE4Xni.s 			page 23


  64:TimingMaster.c ****     if(Cy_MCWDT_GetCount(MCWDT_HW, CY_MCWDT_COUNTER1) >= Cy_MCWDT_GetMatch(MCWDT_HW, CY_MCWDT_COUNT
 299              		.loc 1 64 0
 300 0146 120C     		lsrs	r2, r2, #16
 301 0148 1B0C     		lsrs	r3, r3, #16
 302 014a 9A42     		cmp	r2, r3
 303 014c 0DD8     		bhi	.L14
 304              	.LVL29:
 305              	.LBB68:
 306              	.LBB69:
 877:Generated_Source\PSoC6\pdl\drivers/peripheral/mcwdt/cy_mcwdt.h ****             break;
 878:Generated_Source\PSoC6\pdl\drivers/peripheral/mcwdt/cy_mcwdt.h ****         case CY_MCWDT_COUNTER2:
 879:Generated_Source\PSoC6\pdl\drivers/peripheral/mcwdt/cy_mcwdt.h ****             countVal = _FLD2VAL(MCWDT_STRUCT_MCWDT_CNTHIGH_WDT_CTR2, base->MCWDT_CNTHIGH);
 880:Generated_Source\PSoC6\pdl\drivers/peripheral/mcwdt/cy_mcwdt.h ****             break;
 881:Generated_Source\PSoC6\pdl\drivers/peripheral/mcwdt/cy_mcwdt.h **** 
 882:Generated_Source\PSoC6\pdl\drivers/peripheral/mcwdt/cy_mcwdt.h ****         default:
 883:Generated_Source\PSoC6\pdl\drivers/peripheral/mcwdt/cy_mcwdt.h ****             CY_ASSERT(0u != 0u);
 884:Generated_Source\PSoC6\pdl\drivers/peripheral/mcwdt/cy_mcwdt.h ****         break;
 885:Generated_Source\PSoC6\pdl\drivers/peripheral/mcwdt/cy_mcwdt.h ****     }
 886:Generated_Source\PSoC6\pdl\drivers/peripheral/mcwdt/cy_mcwdt.h **** 
 887:Generated_Source\PSoC6\pdl\drivers/peripheral/mcwdt/cy_mcwdt.h ****     return (countVal);
 888:Generated_Source\PSoC6\pdl\drivers/peripheral/mcwdt/cy_mcwdt.h **** }
 889:Generated_Source\PSoC6\pdl\drivers/peripheral/mcwdt/cy_mcwdt.h **** 
 890:Generated_Source\PSoC6\pdl\drivers/peripheral/mcwdt/cy_mcwdt.h **** 
 891:Generated_Source\PSoC6\pdl\drivers/peripheral/mcwdt/cy_mcwdt.h **** /*******************************************************************************
 892:Generated_Source\PSoC6\pdl\drivers/peripheral/mcwdt/cy_mcwdt.h **** * Function Name: Cy_MCWDT_ResetCounters
 893:Generated_Source\PSoC6\pdl\drivers/peripheral/mcwdt/cy_mcwdt.h **** ****************************************************************************//**
 894:Generated_Source\PSoC6\pdl\drivers/peripheral/mcwdt/cy_mcwdt.h **** *
 895:Generated_Source\PSoC6\pdl\drivers/peripheral/mcwdt/cy_mcwdt.h **** *  Resets all specified counters.
 896:Generated_Source\PSoC6\pdl\drivers/peripheral/mcwdt/cy_mcwdt.h **** *
 897:Generated_Source\PSoC6\pdl\drivers/peripheral/mcwdt/cy_mcwdt.h **** *  \param base
 898:Generated_Source\PSoC6\pdl\drivers/peripheral/mcwdt/cy_mcwdt.h **** *  The base pointer to a structure that describes registers.
 899:Generated_Source\PSoC6\pdl\drivers/peripheral/mcwdt/cy_mcwdt.h **** *
 900:Generated_Source\PSoC6\pdl\drivers/peripheral/mcwdt/cy_mcwdt.h **** *  \param counters
 901:Generated_Source\PSoC6\pdl\drivers/peripheral/mcwdt/cy_mcwdt.h **** *  OR of all counters to reset. See the \ref CY_MCWDT_CTR0, CY_MCWDT_CTR1, and
 902:Generated_Source\PSoC6\pdl\drivers/peripheral/mcwdt/cy_mcwdt.h **** *  CY_MCWDT_CTR2  macros.
 903:Generated_Source\PSoC6\pdl\drivers/peripheral/mcwdt/cy_mcwdt.h **** *
 904:Generated_Source\PSoC6\pdl\drivers/peripheral/mcwdt/cy_mcwdt.h **** *  \param waitUs
 905:Generated_Source\PSoC6\pdl\drivers/peripheral/mcwdt/cy_mcwdt.h **** *  The function waits for some delay in microseconds before returning, because 
 906:Generated_Source\PSoC6\pdl\drivers/peripheral/mcwdt/cy_mcwdt.h **** *  a reset occurs after one lf_clk cycle passes. The recommended value is 62 us.
 907:Generated_Source\PSoC6\pdl\drivers/peripheral/mcwdt/cy_mcwdt.h **** *  \note This function resets the counters two times to prevent the case when 
 908:Generated_Source\PSoC6\pdl\drivers/peripheral/mcwdt/cy_mcwdt.h **** *  the Counter 1 is not reset when the counters are cascaded. The delay waitUs
 909:Generated_Source\PSoC6\pdl\drivers/peripheral/mcwdt/cy_mcwdt.h **** *  must be greater than 100 us when the counters are cascaded. 
 910:Generated_Source\PSoC6\pdl\drivers/peripheral/mcwdt/cy_mcwdt.h **** *  The total delay is greater than 2*waitUs because the function has 
 911:Generated_Source\PSoC6\pdl\drivers/peripheral/mcwdt/cy_mcwdt.h **** *  the delay after the first reset.
 912:Generated_Source\PSoC6\pdl\drivers/peripheral/mcwdt/cy_mcwdt.h **** *  \note
 913:Generated_Source\PSoC6\pdl\drivers/peripheral/mcwdt/cy_mcwdt.h **** *  Setting this parameter to a zero means No wait. In this case, it is the 
 914:Generated_Source\PSoC6\pdl\drivers/peripheral/mcwdt/cy_mcwdt.h **** *  user's responsibility to check whether the selected counters were reset 
 915:Generated_Source\PSoC6\pdl\drivers/peripheral/mcwdt/cy_mcwdt.h **** *  immediately after the function call. This can be done by the 
 916:Generated_Source\PSoC6\pdl\drivers/peripheral/mcwdt/cy_mcwdt.h **** *  Cy_MCWDT_GetCount() API.
 917:Generated_Source\PSoC6\pdl\drivers/peripheral/mcwdt/cy_mcwdt.h **** *
 918:Generated_Source\PSoC6\pdl\drivers/peripheral/mcwdt/cy_mcwdt.h **** *******************************************************************************/
 919:Generated_Source\PSoC6\pdl\drivers/peripheral/mcwdt/cy_mcwdt.h **** __STATIC_INLINE void Cy_MCWDT_ResetCounters(MCWDT_STRUCT_Type *base, uint32_t counters, uint16_t wa
 920:Generated_Source\PSoC6\pdl\drivers/peripheral/mcwdt/cy_mcwdt.h **** {
 921:Generated_Source\PSoC6\pdl\drivers/peripheral/mcwdt/cy_mcwdt.h ****     uint32_t resetCounters;
 922:Generated_Source\PSoC6\pdl\drivers/peripheral/mcwdt/cy_mcwdt.h **** 
 923:Generated_Source\PSoC6\pdl\drivers/peripheral/mcwdt/cy_mcwdt.h ****     CY_ASSERT_L2(CY_MCWDT_IS_CNTS_MASK_VALID(counters));
 924:Generated_Source\PSoC6\pdl\drivers/peripheral/mcwdt/cy_mcwdt.h ****     
ARM GAS  C:\Users\salaz\AppData\Local\Temp\ccvE4Xni.s 			page 24


 925:Generated_Source\PSoC6\pdl\drivers/peripheral/mcwdt/cy_mcwdt.h ****     /* Extract particular counters for reset */
 926:Generated_Source\PSoC6\pdl\drivers/peripheral/mcwdt/cy_mcwdt.h ****     resetCounters = ((0UL != (counters & CY_MCWDT_CTR0)) ? MCWDT_STRUCT_MCWDT_CTL_WDT_RESET0_Msk : 
 927:Generated_Source\PSoC6\pdl\drivers/peripheral/mcwdt/cy_mcwdt.h ****                     ((0UL != (counters & CY_MCWDT_CTR1)) ? MCWDT_STRUCT_MCWDT_CTL_WDT_RESET1_Msk : 
 928:Generated_Source\PSoC6\pdl\drivers/peripheral/mcwdt/cy_mcwdt.h ****                     ((0UL != (counters & CY_MCWDT_CTR2)) ? MCWDT_STRUCT_MCWDT_CTL_WDT_RESET2_Msk : 
 929:Generated_Source\PSoC6\pdl\drivers/peripheral/mcwdt/cy_mcwdt.h **** 
 930:Generated_Source\PSoC6\pdl\drivers/peripheral/mcwdt/cy_mcwdt.h ****     base->MCWDT_CTL |= resetCounters;
 307              		.loc 2 930 0
 308 014e 114C     		ldr	r4, .L18+12
 309 0150 6369     		ldr	r3, [r4, #20]
 310 0152 144E     		ldr	r6, .L18+28
 311 0154 3343     		orrs	r3, r6
 312 0156 6361     		str	r3, [r4, #20]
 931:Generated_Source\PSoC6\pdl\drivers/peripheral/mcwdt/cy_mcwdt.h ****     
 932:Generated_Source\PSoC6\pdl\drivers/peripheral/mcwdt/cy_mcwdt.h ****     Cy_SysLib_DelayUs(waitUs);
 313              		.loc 2 932 0
 314 0158 3E20     		movs	r0, #62
 315 015a FFF7FEFF 		bl	Cy_SysLib_DelayUs
 316              	.LVL30:
 933:Generated_Source\PSoC6\pdl\drivers/peripheral/mcwdt/cy_mcwdt.h ****     
 934:Generated_Source\PSoC6\pdl\drivers/peripheral/mcwdt/cy_mcwdt.h ****     base->MCWDT_CTL |= resetCounters;
 317              		.loc 2 934 0
 318 015e 6369     		ldr	r3, [r4, #20]
 319 0160 3343     		orrs	r3, r6
 320 0162 6361     		str	r3, [r4, #20]
 935:Generated_Source\PSoC6\pdl\drivers/peripheral/mcwdt/cy_mcwdt.h ****     
 936:Generated_Source\PSoC6\pdl\drivers/peripheral/mcwdt/cy_mcwdt.h ****     Cy_SysLib_DelayUs(waitUs);
 321              		.loc 2 936 0
 322 0164 3E20     		movs	r0, #62
 323 0166 FFF7FEFF 		bl	Cy_SysLib_DelayUs
 324              	.LVL31:
 325              	.L14:
 326              	.LBE69:
 327              	.LBE68:
  28:TimingMaster.c ****     Timer* expired[MAX_TIMERS];
 328              		.loc 1 28 0 discriminator 1
 329 016a 0024     		movs	r4, #0
 330 016c 07E0     		b	.L15
 331              	.LVL32:
 332              	.L16:
 333              	.LBB70:
  65:TimingMaster.c ****     {
  66:TimingMaster.c ****         // ** Throw warning
  67:TimingMaster.c ****         Cy_MCWDT_ResetCounters(MCWDT_HW, CY_MCWDT_CTR0|CY_MCWDT_CTR1, MCWDT_TWO_LF_CLK_CYCLES_DELAY
  68:TimingMaster.c ****     }
  69:TimingMaster.c ****     // Service all expired timers
  70:TimingMaster.c ****     for(uint8 i = 0; i < num_expired; i++)
  71:TimingMaster.c ****     {
  72:TimingMaster.c ****         SystemCore_TimerHandler(expired[i]->id);
 334              		.loc 1 72 0 discriminator 3
 335 016e A300     		lsls	r3, r4, #2
 336 0170 6A46     		mov	r2, sp
 337 0172 9B58     		ldr	r3, [r3, r2]
 338 0174 1878     		ldrb	r0, [r3]
 339 0176 FFF7FEFF 		bl	SystemCore_TimerHandler
 340              	.LVL33:
  70:TimingMaster.c ****     {
 341              		.loc 1 70 0 discriminator 3
ARM GAS  C:\Users\salaz\AppData\Local\Temp\ccvE4Xni.s 			page 25


 342 017a 0134     		adds	r4, r4, #1
 343              	.LVL34:
 344 017c E4B2     		uxtb	r4, r4
 345              	.LVL35:
 346              	.L15:
  70:TimingMaster.c ****     {
 347              		.loc 1 70 0 is_stmt 0 discriminator 1
 348 017e A542     		cmp	r5, r4
 349 0180 F5D8     		bhi	.L16
 350              	.LBE70:
  73:TimingMaster.c ****     }
  74:TimingMaster.c **** }
 351              		.loc 1 74 0 is_stmt 1
 352 0182 15B0     		add	sp, sp, #84
 353              		@ sp needed
 354              	.LVL36:
 355              	.LVL37:
 356 0184 F0BD     		pop	{r4, r5, r6, r7, pc}
 357              	.L19:
 358 0186 C046     		.align	2
 359              	.L18:
 360 0188 00000000 		.word	timers
 361 018c 00000000 		.word	.LANCHOR0
 362 0190 FEFF0000 		.word	65534
 363 0194 00022640 		.word	1076232704
 364 0198 F7020000 		.word	759
 365 019c 00000000 		.word	.LC2
 366 01a0 FFFF0000 		.word	65535
 367 01a4 08080000 		.word	2056
 368              		.cfi_endproc
 369              	.LFE792:
 370              		.size	TimingMaster_Update, .-TimingMaster_Update
 371              		.section	.text.WatchDogHandler,"ax",%progbits
 372              		.align	2
 373              		.global	WatchDogHandler
 374              		.code	16
 375              		.thumb_func
 376              		.type	WatchDogHandler, %function
 377              	WatchDogHandler:
 378              	.LFB793:
  75:TimingMaster.c **** void WatchDogHandler()
  76:TimingMaster.c **** {
 379              		.loc 1 76 0
 380              		.cfi_startproc
 381              		@ args = 0, pretend = 0, frame = 0
 382              		@ frame_needed = 0, uses_anonymous_args = 0
 383 0000 70B5     		push	{r4, r5, r6, lr}
 384              		.cfi_def_cfa_offset 16
 385              		.cfi_offset 4, -16
 386              		.cfi_offset 5, -12
 387              		.cfi_offset 6, -8
 388              		.cfi_offset 14, -4
 389              	.LVL38:
 390              	.LBB84:
 391              	.LBB85:
 937:Generated_Source\PSoC6\pdl\drivers/peripheral/mcwdt/cy_mcwdt.h **** }
 938:Generated_Source\PSoC6\pdl\drivers/peripheral/mcwdt/cy_mcwdt.h **** 
ARM GAS  C:\Users\salaz\AppData\Local\Temp\ccvE4Xni.s 			page 26


 939:Generated_Source\PSoC6\pdl\drivers/peripheral/mcwdt/cy_mcwdt.h **** 
 940:Generated_Source\PSoC6\pdl\drivers/peripheral/mcwdt/cy_mcwdt.h **** /*******************************************************************************
 941:Generated_Source\PSoC6\pdl\drivers/peripheral/mcwdt/cy_mcwdt.h **** * Function Name: Cy_MCWDT_GetInterruptStatus
 942:Generated_Source\PSoC6\pdl\drivers/peripheral/mcwdt/cy_mcwdt.h **** ****************************************************************************//**
 943:Generated_Source\PSoC6\pdl\drivers/peripheral/mcwdt/cy_mcwdt.h **** *
 944:Generated_Source\PSoC6\pdl\drivers/peripheral/mcwdt/cy_mcwdt.h **** *  Reports the state of all MCWDT interrupts.
 945:Generated_Source\PSoC6\pdl\drivers/peripheral/mcwdt/cy_mcwdt.h **** *
 946:Generated_Source\PSoC6\pdl\drivers/peripheral/mcwdt/cy_mcwdt.h **** *  \param base
 947:Generated_Source\PSoC6\pdl\drivers/peripheral/mcwdt/cy_mcwdt.h **** *  The base pointer to a structure that describes registers.
 948:Generated_Source\PSoC6\pdl\drivers/peripheral/mcwdt/cy_mcwdt.h **** *
 949:Generated_Source\PSoC6\pdl\drivers/peripheral/mcwdt/cy_mcwdt.h **** *  \return
 950:Generated_Source\PSoC6\pdl\drivers/peripheral/mcwdt/cy_mcwdt.h **** *  The OR'd state of the interrupts. See the \ref CY_MCWDT_CTR0, CY_MCWDT_CTR1, and
 951:Generated_Source\PSoC6\pdl\drivers/peripheral/mcwdt/cy_mcwdt.h **** *  CY_MCWDT_CTR2 macros.
 952:Generated_Source\PSoC6\pdl\drivers/peripheral/mcwdt/cy_mcwdt.h **** *
 953:Generated_Source\PSoC6\pdl\drivers/peripheral/mcwdt/cy_mcwdt.h **** *******************************************************************************/
 954:Generated_Source\PSoC6\pdl\drivers/peripheral/mcwdt/cy_mcwdt.h **** __STATIC_INLINE uint32_t Cy_MCWDT_GetInterruptStatus(MCWDT_STRUCT_Type const *base)
 955:Generated_Source\PSoC6\pdl\drivers/peripheral/mcwdt/cy_mcwdt.h **** {
 956:Generated_Source\PSoC6\pdl\drivers/peripheral/mcwdt/cy_mcwdt.h ****     return (base->MCWDT_INTR);
 392              		.loc 2 956 0
 393 0002 174B     		ldr	r3, .L23
 394 0004 9B69     		ldr	r3, [r3, #24]
 395              	.LVL39:
 396              	.LBE85:
 397              	.LBE84:
  77:TimingMaster.c ****     uint32 src = Cy_MCWDT_GetInterruptStatus(MCWDT_HW);
  78:TimingMaster.c ****     
  79:TimingMaster.c ****     if(0u != (src & CY_MCWDT_CTR1))
 398              		.loc 1 79 0
 399 0006 9B07     		lsls	r3, r3, #30
 400 0008 1BD5     		bpl	.L21
 401              	.LVL40:
 402              	.LBB86:
 403              	.LBB87:
 404              	.LBB88:
 957:Generated_Source\PSoC6\pdl\drivers/peripheral/mcwdt/cy_mcwdt.h **** }
 958:Generated_Source\PSoC6\pdl\drivers/peripheral/mcwdt/cy_mcwdt.h **** 
 959:Generated_Source\PSoC6\pdl\drivers/peripheral/mcwdt/cy_mcwdt.h **** 
 960:Generated_Source\PSoC6\pdl\drivers/peripheral/mcwdt/cy_mcwdt.h **** /*******************************************************************************
 961:Generated_Source\PSoC6\pdl\drivers/peripheral/mcwdt/cy_mcwdt.h **** * Function Name: Cy_MCWDT_ClearInterrupt
 962:Generated_Source\PSoC6\pdl\drivers/peripheral/mcwdt/cy_mcwdt.h **** ****************************************************************************//**
 963:Generated_Source\PSoC6\pdl\drivers/peripheral/mcwdt/cy_mcwdt.h **** *
 964:Generated_Source\PSoC6\pdl\drivers/peripheral/mcwdt/cy_mcwdt.h **** *  Clears all specified MCWDT interrupts.
 965:Generated_Source\PSoC6\pdl\drivers/peripheral/mcwdt/cy_mcwdt.h **** *
 966:Generated_Source\PSoC6\pdl\drivers/peripheral/mcwdt/cy_mcwdt.h **** *  All the WDT interrupts must be cleared by the firmware; otherwise
 967:Generated_Source\PSoC6\pdl\drivers/peripheral/mcwdt/cy_mcwdt.h **** *  interrupts are generated continuously.
 968:Generated_Source\PSoC6\pdl\drivers/peripheral/mcwdt/cy_mcwdt.h **** *
 969:Generated_Source\PSoC6\pdl\drivers/peripheral/mcwdt/cy_mcwdt.h **** *  \param base
 970:Generated_Source\PSoC6\pdl\drivers/peripheral/mcwdt/cy_mcwdt.h **** *  The base pointer to a structure describes registers.
 971:Generated_Source\PSoC6\pdl\drivers/peripheral/mcwdt/cy_mcwdt.h **** *
 972:Generated_Source\PSoC6\pdl\drivers/peripheral/mcwdt/cy_mcwdt.h **** *  \param counters
 973:Generated_Source\PSoC6\pdl\drivers/peripheral/mcwdt/cy_mcwdt.h **** *  OR of all interrupt sources to clear. See the \ref CY_MCWDT_CTR0, CY_MCWDT_CTR1, and
 974:Generated_Source\PSoC6\pdl\drivers/peripheral/mcwdt/cy_mcwdt.h **** *  CY_MCWDT_CTR2  macros.
 975:Generated_Source\PSoC6\pdl\drivers/peripheral/mcwdt/cy_mcwdt.h **** *
 976:Generated_Source\PSoC6\pdl\drivers/peripheral/mcwdt/cy_mcwdt.h **** *******************************************************************************/
 977:Generated_Source\PSoC6\pdl\drivers/peripheral/mcwdt/cy_mcwdt.h **** __STATIC_INLINE void Cy_MCWDT_ClearInterrupt(MCWDT_STRUCT_Type *base, uint32_t counters)
 978:Generated_Source\PSoC6\pdl\drivers/peripheral/mcwdt/cy_mcwdt.h **** {
 979:Generated_Source\PSoC6\pdl\drivers/peripheral/mcwdt/cy_mcwdt.h ****     CY_ASSERT_L2(CY_MCWDT_IS_CNTS_MASK_VALID(counters));
ARM GAS  C:\Users\salaz\AppData\Local\Temp\ccvE4Xni.s 			page 27


 980:Generated_Source\PSoC6\pdl\drivers/peripheral/mcwdt/cy_mcwdt.h ****     
 981:Generated_Source\PSoC6\pdl\drivers/peripheral/mcwdt/cy_mcwdt.h ****     base->MCWDT_INTR = counters;
 405              		.loc 2 981 0
 406 000a 154D     		ldr	r5, .L23
 407 000c 0223     		movs	r3, #2
 408 000e AB61     		str	r3, [r5, #24]
 982:Generated_Source\PSoC6\pdl\drivers/peripheral/mcwdt/cy_mcwdt.h ****     (void) base->MCWDT_INTR;
 409              		.loc 2 982 0
 410 0010 AB69     		ldr	r3, [r5, #24]
 411              	.LVL41:
 412              	.LBE88:
 413              	.LBE87:
 414              	.LBB89:
 415              	.LBB90:
 797:Generated_Source\PSoC6\pdl\drivers/peripheral/mcwdt/cy_mcwdt.h **** 
 416              		.loc 2 797 0
 417 0012 E868     		ldr	r0, [r5, #12]
 418              	.LVL42:
 419              	.LBE90:
 420              	.LBE89:
 421              	.LBB91:
 422              	.LBB92:
 796:Generated_Source\PSoC6\pdl\drivers/peripheral/mcwdt/cy_mcwdt.h ****                                           _FLD2VAL(MCWDT_STRUCT_MCWDT_MATCH_WDT_MATCH1, base->MCWDT
 423              		.loc 2 796 0
 424 0014 EC68     		ldr	r4, [r5, #12]
 425 0016 2404     		lsls	r4, r4, #16
 426 0018 230C     		lsrs	r3, r4, #16
 427              	.LVL43:
 428              	.LBE92:
 429              	.LBE91:
  80:TimingMaster.c ****     {        
  81:TimingMaster.c ****         Cy_MCWDT_ClearInterrupt(MCWDT_HW, CY_MCWDT_CTR1);
  82:TimingMaster.c ****         
  83:TimingMaster.c ****         uint32 match1 = Cy_MCWDT_GetMatch(MCWDT_HW, CY_MCWDT_COUNTER1);
  84:TimingMaster.c ****         uint32 match0 = Cy_MCWDT_GetMatch(MCWDT_HW, CY_MCWDT_COUNTER0);
  85:TimingMaster.c ****         uint32 elapsed_count = (match1+1)*match0; // Counter1 is zero-indexed, so +1 to get real ma
 430              		.loc 1 85 0
 431 001a 040C     		lsrs	r4, r0, #16
 432 001c 0134     		adds	r4, r4, #1
 433 001e 5C43     		muls	r4, r3
 434              	.LVL44:
 435              	.LBB93:
 436              	.LBB94:
 930:Generated_Source\PSoC6\pdl\drivers/peripheral/mcwdt/cy_mcwdt.h ****     
 437              		.loc 2 930 0
 438 0020 6B69     		ldr	r3, [r5, #20]
 439 0022 8026     		movs	r6, #128
 440 0024 3601     		lsls	r6, r6, #4
 441 0026 3343     		orrs	r3, r6
 442 0028 6B61     		str	r3, [r5, #20]
 932:Generated_Source\PSoC6\pdl\drivers/peripheral/mcwdt/cy_mcwdt.h ****     
 443              		.loc 2 932 0
 444 002a 3E20     		movs	r0, #62
 445 002c FFF7FEFF 		bl	Cy_SysLib_DelayUs
 446              	.LVL45:
 934:Generated_Source\PSoC6\pdl\drivers/peripheral/mcwdt/cy_mcwdt.h ****     
 447              		.loc 2 934 0
ARM GAS  C:\Users\salaz\AppData\Local\Temp\ccvE4Xni.s 			page 28


 448 0030 6B69     		ldr	r3, [r5, #20]
 449 0032 3343     		orrs	r3, r6
 450 0034 6B61     		str	r3, [r5, #20]
 936:Generated_Source\PSoC6\pdl\drivers/peripheral/mcwdt/cy_mcwdt.h **** }
 451              		.loc 2 936 0
 452 0036 3E20     		movs	r0, #62
 453 0038 FFF7FEFF 		bl	Cy_SysLib_DelayUs
 454              	.LVL46:
 455              	.LBE94:
 456              	.LBE93:
  86:TimingMaster.c ****         
  87:TimingMaster.c ****         // In cascade mode, counter0 clears on match value, counter1 free running which requires so
  88:TimingMaster.c ****         // May change in the future (counter1 to clear on match) as Cypress updates the WDT periphe
  89:TimingMaster.c ****         Cy_MCWDT_ResetCounters(MCWDT_HW, CY_MCWDT_CTR1, MCWDT_TWO_LF_CLK_CYCLES_DELAY);
  90:TimingMaster.c ****         
  91:TimingMaster.c ****         TimingMaster_Update(elapsed_count+1); // Handler adds 1 count       
 457              		.loc 1 91 0
 458 003c 601C     		adds	r0, r4, #1
 459 003e FFF7FEFF 		bl	TimingMaster_Update
 460              	.LVL47:
 461              	.L21:
 462              	.LBE86:
  92:TimingMaster.c ****     }
  93:TimingMaster.c ****     
  94:TimingMaster.c ****     NVIC_ClearPendingIRQ(WatchDog_IRQ_cfg.intrSrc);
 463              		.loc 1 94 0
 464 0042 084B     		ldr	r3, .L23+4
 465 0044 0022     		movs	r2, #0
 466 0046 9A5E     		ldrsh	r2, [r3, r2]
 467              	.LVL48:
 468              	.LBB95:
 469              	.LBB96:
 470              		.file 3 "Generated_Source\\PSoC6\\pdl\\cmsis/include/core_cm0plus.h"
   1:Generated_Source\PSoC6\pdl\cmsis/include/core_cm0plus.h **** /**************************************************************************//**
   2:Generated_Source\PSoC6\pdl\cmsis/include/core_cm0plus.h ****  * @file     core_cm0plus.h
   3:Generated_Source\PSoC6\pdl\cmsis/include/core_cm0plus.h ****  * @brief    CMSIS Cortex-M0+ Core Peripheral Access Layer Header File
   4:Generated_Source\PSoC6\pdl\cmsis/include/core_cm0plus.h ****  * @version  V5.0.1
   5:Generated_Source\PSoC6\pdl\cmsis/include/core_cm0plus.h ****  * @date     25. November 2016
   6:Generated_Source\PSoC6\pdl\cmsis/include/core_cm0plus.h ****  ******************************************************************************/
   7:Generated_Source\PSoC6\pdl\cmsis/include/core_cm0plus.h **** /*
   8:Generated_Source\PSoC6\pdl\cmsis/include/core_cm0plus.h ****  * Copyright (c) 2009-2016 ARM Limited. All rights reserved.
   9:Generated_Source\PSoC6\pdl\cmsis/include/core_cm0plus.h ****  *
  10:Generated_Source\PSoC6\pdl\cmsis/include/core_cm0plus.h ****  * SPDX-License-Identifier: Apache-2.0
  11:Generated_Source\PSoC6\pdl\cmsis/include/core_cm0plus.h ****  *
  12:Generated_Source\PSoC6\pdl\cmsis/include/core_cm0plus.h ****  * Licensed under the Apache License, Version 2.0 (the License); you may
  13:Generated_Source\PSoC6\pdl\cmsis/include/core_cm0plus.h ****  * not use this file except in compliance with the License.
  14:Generated_Source\PSoC6\pdl\cmsis/include/core_cm0plus.h ****  * You may obtain a copy of the License at
  15:Generated_Source\PSoC6\pdl\cmsis/include/core_cm0plus.h ****  *
  16:Generated_Source\PSoC6\pdl\cmsis/include/core_cm0plus.h ****  * www.apache.org/licenses/LICENSE-2.0
  17:Generated_Source\PSoC6\pdl\cmsis/include/core_cm0plus.h ****  *
  18:Generated_Source\PSoC6\pdl\cmsis/include/core_cm0plus.h ****  * Unless required by applicable law or agreed to in writing, software
  19:Generated_Source\PSoC6\pdl\cmsis/include/core_cm0plus.h ****  * distributed under the License is distributed on an AS IS BASIS, WITHOUT
  20:Generated_Source\PSoC6\pdl\cmsis/include/core_cm0plus.h ****  * WARRANTIES OR CONDITIONS OF ANY KIND, either express or implied.
  21:Generated_Source\PSoC6\pdl\cmsis/include/core_cm0plus.h ****  * See the License for the specific language governing permissions and
  22:Generated_Source\PSoC6\pdl\cmsis/include/core_cm0plus.h ****  * limitations under the License.
  23:Generated_Source\PSoC6\pdl\cmsis/include/core_cm0plus.h ****  */
  24:Generated_Source\PSoC6\pdl\cmsis/include/core_cm0plus.h **** 
ARM GAS  C:\Users\salaz\AppData\Local\Temp\ccvE4Xni.s 			page 29


  25:Generated_Source\PSoC6\pdl\cmsis/include/core_cm0plus.h **** #if   defined ( __ICCARM__ )
  26:Generated_Source\PSoC6\pdl\cmsis/include/core_cm0plus.h ****  #pragma system_include         /* treat file as system include file for MISRA check */
  27:Generated_Source\PSoC6\pdl\cmsis/include/core_cm0plus.h **** #elif defined (__ARMCC_VERSION) && (__ARMCC_VERSION >= 6010050)
  28:Generated_Source\PSoC6\pdl\cmsis/include/core_cm0plus.h ****   #pragma clang system_header   /* treat file as system include file */
  29:Generated_Source\PSoC6\pdl\cmsis/include/core_cm0plus.h **** #endif
  30:Generated_Source\PSoC6\pdl\cmsis/include/core_cm0plus.h **** 
  31:Generated_Source\PSoC6\pdl\cmsis/include/core_cm0plus.h **** #ifndef __CORE_CM0PLUS_H_GENERIC
  32:Generated_Source\PSoC6\pdl\cmsis/include/core_cm0plus.h **** #define __CORE_CM0PLUS_H_GENERIC
  33:Generated_Source\PSoC6\pdl\cmsis/include/core_cm0plus.h **** 
  34:Generated_Source\PSoC6\pdl\cmsis/include/core_cm0plus.h **** #include <stdint.h>
  35:Generated_Source\PSoC6\pdl\cmsis/include/core_cm0plus.h **** 
  36:Generated_Source\PSoC6\pdl\cmsis/include/core_cm0plus.h **** #ifdef __cplusplus
  37:Generated_Source\PSoC6\pdl\cmsis/include/core_cm0plus.h ****  extern "C" {
  38:Generated_Source\PSoC6\pdl\cmsis/include/core_cm0plus.h **** #endif
  39:Generated_Source\PSoC6\pdl\cmsis/include/core_cm0plus.h **** 
  40:Generated_Source\PSoC6\pdl\cmsis/include/core_cm0plus.h **** /**
  41:Generated_Source\PSoC6\pdl\cmsis/include/core_cm0plus.h ****   \page CMSIS_MISRA_Exceptions  MISRA-C:2004 Compliance Exceptions
  42:Generated_Source\PSoC6\pdl\cmsis/include/core_cm0plus.h ****   CMSIS violates the following MISRA-C:2004 rules:
  43:Generated_Source\PSoC6\pdl\cmsis/include/core_cm0plus.h **** 
  44:Generated_Source\PSoC6\pdl\cmsis/include/core_cm0plus.h ****    \li Required Rule 8.5, object/function definition in header file.<br>
  45:Generated_Source\PSoC6\pdl\cmsis/include/core_cm0plus.h ****      Function definitions in header files are used to allow 'inlining'.
  46:Generated_Source\PSoC6\pdl\cmsis/include/core_cm0plus.h **** 
  47:Generated_Source\PSoC6\pdl\cmsis/include/core_cm0plus.h ****    \li Required Rule 18.4, declaration of union type or object of union type: '{...}'.<br>
  48:Generated_Source\PSoC6\pdl\cmsis/include/core_cm0plus.h ****      Unions are used for effective representation of core registers.
  49:Generated_Source\PSoC6\pdl\cmsis/include/core_cm0plus.h **** 
  50:Generated_Source\PSoC6\pdl\cmsis/include/core_cm0plus.h ****    \li Advisory Rule 19.7, Function-like macro defined.<br>
  51:Generated_Source\PSoC6\pdl\cmsis/include/core_cm0plus.h ****      Function-like macros are used to allow more efficient code.
  52:Generated_Source\PSoC6\pdl\cmsis/include/core_cm0plus.h ****  */
  53:Generated_Source\PSoC6\pdl\cmsis/include/core_cm0plus.h **** 
  54:Generated_Source\PSoC6\pdl\cmsis/include/core_cm0plus.h **** 
  55:Generated_Source\PSoC6\pdl\cmsis/include/core_cm0plus.h **** /*******************************************************************************
  56:Generated_Source\PSoC6\pdl\cmsis/include/core_cm0plus.h ****  *                 CMSIS definitions
  57:Generated_Source\PSoC6\pdl\cmsis/include/core_cm0plus.h ****  ******************************************************************************/
  58:Generated_Source\PSoC6\pdl\cmsis/include/core_cm0plus.h **** /**
  59:Generated_Source\PSoC6\pdl\cmsis/include/core_cm0plus.h ****   \ingroup Cortex-M0+
  60:Generated_Source\PSoC6\pdl\cmsis/include/core_cm0plus.h ****   @{
  61:Generated_Source\PSoC6\pdl\cmsis/include/core_cm0plus.h ****  */
  62:Generated_Source\PSoC6\pdl\cmsis/include/core_cm0plus.h **** 
  63:Generated_Source\PSoC6\pdl\cmsis/include/core_cm0plus.h **** /*  CMSIS CM0+ definitions */
  64:Generated_Source\PSoC6\pdl\cmsis/include/core_cm0plus.h **** #define __CM0PLUS_CMSIS_VERSION_MAIN ( 5U)                                      /*!< [31:16] CMSIS 
  65:Generated_Source\PSoC6\pdl\cmsis/include/core_cm0plus.h **** #define __CM0PLUS_CMSIS_VERSION_SUB  ( 0U)                                      /*!< [15:0]  CMSIS 
  66:Generated_Source\PSoC6\pdl\cmsis/include/core_cm0plus.h **** #define __CM0PLUS_CMSIS_VERSION      ((__CM0PLUS_CMSIS_VERSION_MAIN << 16U) | \
  67:Generated_Source\PSoC6\pdl\cmsis/include/core_cm0plus.h ****                                        __CM0PLUS_CMSIS_VERSION_SUB           )  /*!< CMSIS HAL vers
  68:Generated_Source\PSoC6\pdl\cmsis/include/core_cm0plus.h **** 
  69:Generated_Source\PSoC6\pdl\cmsis/include/core_cm0plus.h **** #define __CORTEX_M                   (0U)                                       /*!< Cortex-M Core 
  70:Generated_Source\PSoC6\pdl\cmsis/include/core_cm0plus.h **** 
  71:Generated_Source\PSoC6\pdl\cmsis/include/core_cm0plus.h **** /** __FPU_USED indicates whether an FPU is used or not.
  72:Generated_Source\PSoC6\pdl\cmsis/include/core_cm0plus.h ****     This core does not support an FPU at all
  73:Generated_Source\PSoC6\pdl\cmsis/include/core_cm0plus.h **** */
  74:Generated_Source\PSoC6\pdl\cmsis/include/core_cm0plus.h **** #define __FPU_USED       0U
  75:Generated_Source\PSoC6\pdl\cmsis/include/core_cm0plus.h **** 
  76:Generated_Source\PSoC6\pdl\cmsis/include/core_cm0plus.h **** #if defined ( __CC_ARM )
  77:Generated_Source\PSoC6\pdl\cmsis/include/core_cm0plus.h ****   #if defined __TARGET_FPU_VFP
  78:Generated_Source\PSoC6\pdl\cmsis/include/core_cm0plus.h ****     #error "Compiler generates FPU instructions for a device without an FPU (check __FPU_PRESENT)"
  79:Generated_Source\PSoC6\pdl\cmsis/include/core_cm0plus.h ****   #endif
  80:Generated_Source\PSoC6\pdl\cmsis/include/core_cm0plus.h **** 
  81:Generated_Source\PSoC6\pdl\cmsis/include/core_cm0plus.h **** #elif defined (__ARMCC_VERSION) && (__ARMCC_VERSION >= 6010050)
ARM GAS  C:\Users\salaz\AppData\Local\Temp\ccvE4Xni.s 			page 30


  82:Generated_Source\PSoC6\pdl\cmsis/include/core_cm0plus.h ****   #if defined __ARM_PCS_VFP
  83:Generated_Source\PSoC6\pdl\cmsis/include/core_cm0plus.h ****     #error "Compiler generates FPU instructions for a device without an FPU (check __FPU_PRESENT)"
  84:Generated_Source\PSoC6\pdl\cmsis/include/core_cm0plus.h ****   #endif
  85:Generated_Source\PSoC6\pdl\cmsis/include/core_cm0plus.h **** 
  86:Generated_Source\PSoC6\pdl\cmsis/include/core_cm0plus.h **** #elif defined ( __GNUC__ )
  87:Generated_Source\PSoC6\pdl\cmsis/include/core_cm0plus.h ****   #if defined (__VFP_FP__) && !defined(__SOFTFP__)
  88:Generated_Source\PSoC6\pdl\cmsis/include/core_cm0plus.h ****     #error "Compiler generates FPU instructions for a device without an FPU (check __FPU_PRESENT)"
  89:Generated_Source\PSoC6\pdl\cmsis/include/core_cm0plus.h ****   #endif
  90:Generated_Source\PSoC6\pdl\cmsis/include/core_cm0plus.h **** 
  91:Generated_Source\PSoC6\pdl\cmsis/include/core_cm0plus.h **** #elif defined ( __ICCARM__ )
  92:Generated_Source\PSoC6\pdl\cmsis/include/core_cm0plus.h ****   #if defined __ARMVFP__
  93:Generated_Source\PSoC6\pdl\cmsis/include/core_cm0plus.h ****     #error "Compiler generates FPU instructions for a device without an FPU (check __FPU_PRESENT)"
  94:Generated_Source\PSoC6\pdl\cmsis/include/core_cm0plus.h ****   #endif
  95:Generated_Source\PSoC6\pdl\cmsis/include/core_cm0plus.h **** 
  96:Generated_Source\PSoC6\pdl\cmsis/include/core_cm0plus.h **** #elif defined ( __TI_ARM__ )
  97:Generated_Source\PSoC6\pdl\cmsis/include/core_cm0plus.h ****   #if defined __TI_VFP_SUPPORT__
  98:Generated_Source\PSoC6\pdl\cmsis/include/core_cm0plus.h ****     #error "Compiler generates FPU instructions for a device without an FPU (check __FPU_PRESENT)"
  99:Generated_Source\PSoC6\pdl\cmsis/include/core_cm0plus.h ****   #endif
 100:Generated_Source\PSoC6\pdl\cmsis/include/core_cm0plus.h **** 
 101:Generated_Source\PSoC6\pdl\cmsis/include/core_cm0plus.h **** #elif defined ( __TASKING__ )
 102:Generated_Source\PSoC6\pdl\cmsis/include/core_cm0plus.h ****   #if defined __FPU_VFP__
 103:Generated_Source\PSoC6\pdl\cmsis/include/core_cm0plus.h ****     #error "Compiler generates FPU instructions for a device without an FPU (check __FPU_PRESENT)"
 104:Generated_Source\PSoC6\pdl\cmsis/include/core_cm0plus.h ****   #endif
 105:Generated_Source\PSoC6\pdl\cmsis/include/core_cm0plus.h **** 
 106:Generated_Source\PSoC6\pdl\cmsis/include/core_cm0plus.h **** #elif defined ( __CSMC__ )
 107:Generated_Source\PSoC6\pdl\cmsis/include/core_cm0plus.h ****   #if ( __CSMC__ & 0x400U)
 108:Generated_Source\PSoC6\pdl\cmsis/include/core_cm0plus.h ****     #error "Compiler generates FPU instructions for a device without an FPU (check __FPU_PRESENT)"
 109:Generated_Source\PSoC6\pdl\cmsis/include/core_cm0plus.h ****   #endif
 110:Generated_Source\PSoC6\pdl\cmsis/include/core_cm0plus.h **** 
 111:Generated_Source\PSoC6\pdl\cmsis/include/core_cm0plus.h **** #endif
 112:Generated_Source\PSoC6\pdl\cmsis/include/core_cm0plus.h **** 
 113:Generated_Source\PSoC6\pdl\cmsis/include/core_cm0plus.h **** #include "cmsis_compiler.h"               /* CMSIS compiler specific defines */
 114:Generated_Source\PSoC6\pdl\cmsis/include/core_cm0plus.h **** 
 115:Generated_Source\PSoC6\pdl\cmsis/include/core_cm0plus.h **** 
 116:Generated_Source\PSoC6\pdl\cmsis/include/core_cm0plus.h **** #ifdef __cplusplus
 117:Generated_Source\PSoC6\pdl\cmsis/include/core_cm0plus.h **** }
 118:Generated_Source\PSoC6\pdl\cmsis/include/core_cm0plus.h **** #endif
 119:Generated_Source\PSoC6\pdl\cmsis/include/core_cm0plus.h **** 
 120:Generated_Source\PSoC6\pdl\cmsis/include/core_cm0plus.h **** #endif /* __CORE_CM0PLUS_H_GENERIC */
 121:Generated_Source\PSoC6\pdl\cmsis/include/core_cm0plus.h **** 
 122:Generated_Source\PSoC6\pdl\cmsis/include/core_cm0plus.h **** #ifndef __CMSIS_GENERIC
 123:Generated_Source\PSoC6\pdl\cmsis/include/core_cm0plus.h **** 
 124:Generated_Source\PSoC6\pdl\cmsis/include/core_cm0plus.h **** #ifndef __CORE_CM0PLUS_H_DEPENDANT
 125:Generated_Source\PSoC6\pdl\cmsis/include/core_cm0plus.h **** #define __CORE_CM0PLUS_H_DEPENDANT
 126:Generated_Source\PSoC6\pdl\cmsis/include/core_cm0plus.h **** 
 127:Generated_Source\PSoC6\pdl\cmsis/include/core_cm0plus.h **** #ifdef __cplusplus
 128:Generated_Source\PSoC6\pdl\cmsis/include/core_cm0plus.h ****  extern "C" {
 129:Generated_Source\PSoC6\pdl\cmsis/include/core_cm0plus.h **** #endif
 130:Generated_Source\PSoC6\pdl\cmsis/include/core_cm0plus.h **** 
 131:Generated_Source\PSoC6\pdl\cmsis/include/core_cm0plus.h **** /* check device defines and use defaults */
 132:Generated_Source\PSoC6\pdl\cmsis/include/core_cm0plus.h **** #if defined __CHECK_DEVICE_DEFINES
 133:Generated_Source\PSoC6\pdl\cmsis/include/core_cm0plus.h ****   #ifndef __CM0PLUS_REV
 134:Generated_Source\PSoC6\pdl\cmsis/include/core_cm0plus.h ****     #define __CM0PLUS_REV             0x0000U
 135:Generated_Source\PSoC6\pdl\cmsis/include/core_cm0plus.h ****     #warning "__CM0PLUS_REV not defined in device header file; using default!"
 136:Generated_Source\PSoC6\pdl\cmsis/include/core_cm0plus.h ****   #endif
 137:Generated_Source\PSoC6\pdl\cmsis/include/core_cm0plus.h **** 
 138:Generated_Source\PSoC6\pdl\cmsis/include/core_cm0plus.h ****   #ifndef __MPU_PRESENT
ARM GAS  C:\Users\salaz\AppData\Local\Temp\ccvE4Xni.s 			page 31


 139:Generated_Source\PSoC6\pdl\cmsis/include/core_cm0plus.h ****     #define __MPU_PRESENT             0U
 140:Generated_Source\PSoC6\pdl\cmsis/include/core_cm0plus.h ****     #warning "__MPU_PRESENT not defined in device header file; using default!"
 141:Generated_Source\PSoC6\pdl\cmsis/include/core_cm0plus.h ****   #endif
 142:Generated_Source\PSoC6\pdl\cmsis/include/core_cm0plus.h **** 
 143:Generated_Source\PSoC6\pdl\cmsis/include/core_cm0plus.h ****   #ifndef __VTOR_PRESENT
 144:Generated_Source\PSoC6\pdl\cmsis/include/core_cm0plus.h ****     #define __VTOR_PRESENT            0U
 145:Generated_Source\PSoC6\pdl\cmsis/include/core_cm0plus.h ****     #warning "__VTOR_PRESENT not defined in device header file; using default!"
 146:Generated_Source\PSoC6\pdl\cmsis/include/core_cm0plus.h ****   #endif
 147:Generated_Source\PSoC6\pdl\cmsis/include/core_cm0plus.h **** 
 148:Generated_Source\PSoC6\pdl\cmsis/include/core_cm0plus.h ****   #ifndef __NVIC_PRIO_BITS
 149:Generated_Source\PSoC6\pdl\cmsis/include/core_cm0plus.h ****     #define __NVIC_PRIO_BITS          2U
 150:Generated_Source\PSoC6\pdl\cmsis/include/core_cm0plus.h ****     #warning "__NVIC_PRIO_BITS not defined in device header file; using default!"
 151:Generated_Source\PSoC6\pdl\cmsis/include/core_cm0plus.h ****   #endif
 152:Generated_Source\PSoC6\pdl\cmsis/include/core_cm0plus.h **** 
 153:Generated_Source\PSoC6\pdl\cmsis/include/core_cm0plus.h ****   #ifndef __Vendor_SysTickConfig
 154:Generated_Source\PSoC6\pdl\cmsis/include/core_cm0plus.h ****     #define __Vendor_SysTickConfig    0U
 155:Generated_Source\PSoC6\pdl\cmsis/include/core_cm0plus.h ****     #warning "__Vendor_SysTickConfig not defined in device header file; using default!"
 156:Generated_Source\PSoC6\pdl\cmsis/include/core_cm0plus.h ****   #endif
 157:Generated_Source\PSoC6\pdl\cmsis/include/core_cm0plus.h **** #endif
 158:Generated_Source\PSoC6\pdl\cmsis/include/core_cm0plus.h **** 
 159:Generated_Source\PSoC6\pdl\cmsis/include/core_cm0plus.h **** /* IO definitions (access restrictions to peripheral registers) */
 160:Generated_Source\PSoC6\pdl\cmsis/include/core_cm0plus.h **** /**
 161:Generated_Source\PSoC6\pdl\cmsis/include/core_cm0plus.h ****     \defgroup CMSIS_glob_defs CMSIS Global Defines
 162:Generated_Source\PSoC6\pdl\cmsis/include/core_cm0plus.h **** 
 163:Generated_Source\PSoC6\pdl\cmsis/include/core_cm0plus.h ****     <strong>IO Type Qualifiers</strong> are used
 164:Generated_Source\PSoC6\pdl\cmsis/include/core_cm0plus.h ****     \li to specify the access to peripheral variables.
 165:Generated_Source\PSoC6\pdl\cmsis/include/core_cm0plus.h ****     \li for automatic generation of peripheral register debug information.
 166:Generated_Source\PSoC6\pdl\cmsis/include/core_cm0plus.h **** */
 167:Generated_Source\PSoC6\pdl\cmsis/include/core_cm0plus.h **** #ifdef __cplusplus
 168:Generated_Source\PSoC6\pdl\cmsis/include/core_cm0plus.h ****   #define   __I     volatile             /*!< Defines 'read only' permissions */
 169:Generated_Source\PSoC6\pdl\cmsis/include/core_cm0plus.h **** #else
 170:Generated_Source\PSoC6\pdl\cmsis/include/core_cm0plus.h ****   #define   __I     volatile const       /*!< Defines 'read only' permissions */
 171:Generated_Source\PSoC6\pdl\cmsis/include/core_cm0plus.h **** #endif
 172:Generated_Source\PSoC6\pdl\cmsis/include/core_cm0plus.h **** #define     __O     volatile             /*!< Defines 'write only' permissions */
 173:Generated_Source\PSoC6\pdl\cmsis/include/core_cm0plus.h **** #define     __IO    volatile             /*!< Defines 'read / write' permissions */
 174:Generated_Source\PSoC6\pdl\cmsis/include/core_cm0plus.h **** 
 175:Generated_Source\PSoC6\pdl\cmsis/include/core_cm0plus.h **** /* following defines should be used for structure members */
 176:Generated_Source\PSoC6\pdl\cmsis/include/core_cm0plus.h **** #define     __IM     volatile const      /*! Defines 'read only' structure member permissions */
 177:Generated_Source\PSoC6\pdl\cmsis/include/core_cm0plus.h **** #define     __OM     volatile            /*! Defines 'write only' structure member permissions */
 178:Generated_Source\PSoC6\pdl\cmsis/include/core_cm0plus.h **** #define     __IOM    volatile            /*! Defines 'read / write' structure member permissions */
 179:Generated_Source\PSoC6\pdl\cmsis/include/core_cm0plus.h **** 
 180:Generated_Source\PSoC6\pdl\cmsis/include/core_cm0plus.h **** /*@} end of group Cortex-M0+ */
 181:Generated_Source\PSoC6\pdl\cmsis/include/core_cm0plus.h **** 
 182:Generated_Source\PSoC6\pdl\cmsis/include/core_cm0plus.h **** 
 183:Generated_Source\PSoC6\pdl\cmsis/include/core_cm0plus.h **** 
 184:Generated_Source\PSoC6\pdl\cmsis/include/core_cm0plus.h **** /*******************************************************************************
 185:Generated_Source\PSoC6\pdl\cmsis/include/core_cm0plus.h ****  *                 Register Abstraction
 186:Generated_Source\PSoC6\pdl\cmsis/include/core_cm0plus.h ****   Core Register contain:
 187:Generated_Source\PSoC6\pdl\cmsis/include/core_cm0plus.h ****   - Core Register
 188:Generated_Source\PSoC6\pdl\cmsis/include/core_cm0plus.h ****   - Core NVIC Register
 189:Generated_Source\PSoC6\pdl\cmsis/include/core_cm0plus.h ****   - Core SCB Register
 190:Generated_Source\PSoC6\pdl\cmsis/include/core_cm0plus.h ****   - Core SysTick Register
 191:Generated_Source\PSoC6\pdl\cmsis/include/core_cm0plus.h ****   - Core MPU Register
 192:Generated_Source\PSoC6\pdl\cmsis/include/core_cm0plus.h ****  ******************************************************************************/
 193:Generated_Source\PSoC6\pdl\cmsis/include/core_cm0plus.h **** /**
 194:Generated_Source\PSoC6\pdl\cmsis/include/core_cm0plus.h ****   \defgroup CMSIS_core_register Defines and Type Definitions
 195:Generated_Source\PSoC6\pdl\cmsis/include/core_cm0plus.h ****   \brief Type definitions and defines for Cortex-M processor based devices.
ARM GAS  C:\Users\salaz\AppData\Local\Temp\ccvE4Xni.s 			page 32


 196:Generated_Source\PSoC6\pdl\cmsis/include/core_cm0plus.h **** */
 197:Generated_Source\PSoC6\pdl\cmsis/include/core_cm0plus.h **** 
 198:Generated_Source\PSoC6\pdl\cmsis/include/core_cm0plus.h **** /**
 199:Generated_Source\PSoC6\pdl\cmsis/include/core_cm0plus.h ****   \ingroup    CMSIS_core_register
 200:Generated_Source\PSoC6\pdl\cmsis/include/core_cm0plus.h ****   \defgroup   CMSIS_CORE  Status and Control Registers
 201:Generated_Source\PSoC6\pdl\cmsis/include/core_cm0plus.h ****   \brief      Core Register type definitions.
 202:Generated_Source\PSoC6\pdl\cmsis/include/core_cm0plus.h ****   @{
 203:Generated_Source\PSoC6\pdl\cmsis/include/core_cm0plus.h ****  */
 204:Generated_Source\PSoC6\pdl\cmsis/include/core_cm0plus.h **** 
 205:Generated_Source\PSoC6\pdl\cmsis/include/core_cm0plus.h **** /**
 206:Generated_Source\PSoC6\pdl\cmsis/include/core_cm0plus.h ****   \brief  Union type to access the Application Program Status Register (APSR).
 207:Generated_Source\PSoC6\pdl\cmsis/include/core_cm0plus.h ****  */
 208:Generated_Source\PSoC6\pdl\cmsis/include/core_cm0plus.h **** typedef union
 209:Generated_Source\PSoC6\pdl\cmsis/include/core_cm0plus.h **** {
 210:Generated_Source\PSoC6\pdl\cmsis/include/core_cm0plus.h ****   struct
 211:Generated_Source\PSoC6\pdl\cmsis/include/core_cm0plus.h ****   {
 212:Generated_Source\PSoC6\pdl\cmsis/include/core_cm0plus.h ****     uint32_t _reserved0:28;              /*!< bit:  0..27  Reserved */
 213:Generated_Source\PSoC6\pdl\cmsis/include/core_cm0plus.h ****     uint32_t V:1;                        /*!< bit:     28  Overflow condition code flag */
 214:Generated_Source\PSoC6\pdl\cmsis/include/core_cm0plus.h ****     uint32_t C:1;                        /*!< bit:     29  Carry condition code flag */
 215:Generated_Source\PSoC6\pdl\cmsis/include/core_cm0plus.h ****     uint32_t Z:1;                        /*!< bit:     30  Zero condition code flag */
 216:Generated_Source\PSoC6\pdl\cmsis/include/core_cm0plus.h ****     uint32_t N:1;                        /*!< bit:     31  Negative condition code flag */
 217:Generated_Source\PSoC6\pdl\cmsis/include/core_cm0plus.h ****   } b;                                   /*!< Structure used for bit  access */
 218:Generated_Source\PSoC6\pdl\cmsis/include/core_cm0plus.h ****   uint32_t w;                            /*!< Type      used for word access */
 219:Generated_Source\PSoC6\pdl\cmsis/include/core_cm0plus.h **** } APSR_Type;
 220:Generated_Source\PSoC6\pdl\cmsis/include/core_cm0plus.h **** 
 221:Generated_Source\PSoC6\pdl\cmsis/include/core_cm0plus.h **** /* APSR Register Definitions */
 222:Generated_Source\PSoC6\pdl\cmsis/include/core_cm0plus.h **** #define APSR_N_Pos                         31U                                            /*!< APSR
 223:Generated_Source\PSoC6\pdl\cmsis/include/core_cm0plus.h **** #define APSR_N_Msk                         (1UL << APSR_N_Pos)                            /*!< APSR
 224:Generated_Source\PSoC6\pdl\cmsis/include/core_cm0plus.h **** 
 225:Generated_Source\PSoC6\pdl\cmsis/include/core_cm0plus.h **** #define APSR_Z_Pos                         30U                                            /*!< APSR
 226:Generated_Source\PSoC6\pdl\cmsis/include/core_cm0plus.h **** #define APSR_Z_Msk                         (1UL << APSR_Z_Pos)                            /*!< APSR
 227:Generated_Source\PSoC6\pdl\cmsis/include/core_cm0plus.h **** 
 228:Generated_Source\PSoC6\pdl\cmsis/include/core_cm0plus.h **** #define APSR_C_Pos                         29U                                            /*!< APSR
 229:Generated_Source\PSoC6\pdl\cmsis/include/core_cm0plus.h **** #define APSR_C_Msk                         (1UL << APSR_C_Pos)                            /*!< APSR
 230:Generated_Source\PSoC6\pdl\cmsis/include/core_cm0plus.h **** 
 231:Generated_Source\PSoC6\pdl\cmsis/include/core_cm0plus.h **** #define APSR_V_Pos                         28U                                            /*!< APSR
 232:Generated_Source\PSoC6\pdl\cmsis/include/core_cm0plus.h **** #define APSR_V_Msk                         (1UL << APSR_V_Pos)                            /*!< APSR
 233:Generated_Source\PSoC6\pdl\cmsis/include/core_cm0plus.h **** 
 234:Generated_Source\PSoC6\pdl\cmsis/include/core_cm0plus.h **** 
 235:Generated_Source\PSoC6\pdl\cmsis/include/core_cm0plus.h **** /**
 236:Generated_Source\PSoC6\pdl\cmsis/include/core_cm0plus.h ****   \brief  Union type to access the Interrupt Program Status Register (IPSR).
 237:Generated_Source\PSoC6\pdl\cmsis/include/core_cm0plus.h ****  */
 238:Generated_Source\PSoC6\pdl\cmsis/include/core_cm0plus.h **** typedef union
 239:Generated_Source\PSoC6\pdl\cmsis/include/core_cm0plus.h **** {
 240:Generated_Source\PSoC6\pdl\cmsis/include/core_cm0plus.h ****   struct
 241:Generated_Source\PSoC6\pdl\cmsis/include/core_cm0plus.h ****   {
 242:Generated_Source\PSoC6\pdl\cmsis/include/core_cm0plus.h ****     uint32_t ISR:9;                      /*!< bit:  0.. 8  Exception number */
 243:Generated_Source\PSoC6\pdl\cmsis/include/core_cm0plus.h ****     uint32_t _reserved0:23;              /*!< bit:  9..31  Reserved */
 244:Generated_Source\PSoC6\pdl\cmsis/include/core_cm0plus.h ****   } b;                                   /*!< Structure used for bit  access */
 245:Generated_Source\PSoC6\pdl\cmsis/include/core_cm0plus.h ****   uint32_t w;                            /*!< Type      used for word access */
 246:Generated_Source\PSoC6\pdl\cmsis/include/core_cm0plus.h **** } IPSR_Type;
 247:Generated_Source\PSoC6\pdl\cmsis/include/core_cm0plus.h **** 
 248:Generated_Source\PSoC6\pdl\cmsis/include/core_cm0plus.h **** /* IPSR Register Definitions */
 249:Generated_Source\PSoC6\pdl\cmsis/include/core_cm0plus.h **** #define IPSR_ISR_Pos                        0U                                            /*!< IPSR
 250:Generated_Source\PSoC6\pdl\cmsis/include/core_cm0plus.h **** #define IPSR_ISR_Msk                       (0x1FFUL /*<< IPSR_ISR_Pos*/)                  /*!< IPSR
 251:Generated_Source\PSoC6\pdl\cmsis/include/core_cm0plus.h **** 
 252:Generated_Source\PSoC6\pdl\cmsis/include/core_cm0plus.h **** 
ARM GAS  C:\Users\salaz\AppData\Local\Temp\ccvE4Xni.s 			page 33


 253:Generated_Source\PSoC6\pdl\cmsis/include/core_cm0plus.h **** /**
 254:Generated_Source\PSoC6\pdl\cmsis/include/core_cm0plus.h ****   \brief  Union type to access the Special-Purpose Program Status Registers (xPSR).
 255:Generated_Source\PSoC6\pdl\cmsis/include/core_cm0plus.h ****  */
 256:Generated_Source\PSoC6\pdl\cmsis/include/core_cm0plus.h **** typedef union
 257:Generated_Source\PSoC6\pdl\cmsis/include/core_cm0plus.h **** {
 258:Generated_Source\PSoC6\pdl\cmsis/include/core_cm0plus.h ****   struct
 259:Generated_Source\PSoC6\pdl\cmsis/include/core_cm0plus.h ****   {
 260:Generated_Source\PSoC6\pdl\cmsis/include/core_cm0plus.h ****     uint32_t ISR:9;                      /*!< bit:  0.. 8  Exception number */
 261:Generated_Source\PSoC6\pdl\cmsis/include/core_cm0plus.h ****     uint32_t _reserved0:15;              /*!< bit:  9..23  Reserved */
 262:Generated_Source\PSoC6\pdl\cmsis/include/core_cm0plus.h ****     uint32_t T:1;                        /*!< bit:     24  Thumb bit        (read 0) */
 263:Generated_Source\PSoC6\pdl\cmsis/include/core_cm0plus.h ****     uint32_t _reserved1:3;               /*!< bit: 25..27  Reserved */
 264:Generated_Source\PSoC6\pdl\cmsis/include/core_cm0plus.h ****     uint32_t V:1;                        /*!< bit:     28  Overflow condition code flag */
 265:Generated_Source\PSoC6\pdl\cmsis/include/core_cm0plus.h ****     uint32_t C:1;                        /*!< bit:     29  Carry condition code flag */
 266:Generated_Source\PSoC6\pdl\cmsis/include/core_cm0plus.h ****     uint32_t Z:1;                        /*!< bit:     30  Zero condition code flag */
 267:Generated_Source\PSoC6\pdl\cmsis/include/core_cm0plus.h ****     uint32_t N:1;                        /*!< bit:     31  Negative condition code flag */
 268:Generated_Source\PSoC6\pdl\cmsis/include/core_cm0plus.h ****   } b;                                   /*!< Structure used for bit  access */
 269:Generated_Source\PSoC6\pdl\cmsis/include/core_cm0plus.h ****   uint32_t w;                            /*!< Type      used for word access */
 270:Generated_Source\PSoC6\pdl\cmsis/include/core_cm0plus.h **** } xPSR_Type;
 271:Generated_Source\PSoC6\pdl\cmsis/include/core_cm0plus.h **** 
 272:Generated_Source\PSoC6\pdl\cmsis/include/core_cm0plus.h **** /* xPSR Register Definitions */
 273:Generated_Source\PSoC6\pdl\cmsis/include/core_cm0plus.h **** #define xPSR_N_Pos                         31U                                            /*!< xPSR
 274:Generated_Source\PSoC6\pdl\cmsis/include/core_cm0plus.h **** #define xPSR_N_Msk                         (1UL << xPSR_N_Pos)                            /*!< xPSR
 275:Generated_Source\PSoC6\pdl\cmsis/include/core_cm0plus.h **** 
 276:Generated_Source\PSoC6\pdl\cmsis/include/core_cm0plus.h **** #define xPSR_Z_Pos                         30U                                            /*!< xPSR
 277:Generated_Source\PSoC6\pdl\cmsis/include/core_cm0plus.h **** #define xPSR_Z_Msk                         (1UL << xPSR_Z_Pos)                            /*!< xPSR
 278:Generated_Source\PSoC6\pdl\cmsis/include/core_cm0plus.h **** 
 279:Generated_Source\PSoC6\pdl\cmsis/include/core_cm0plus.h **** #define xPSR_C_Pos                         29U                                            /*!< xPSR
 280:Generated_Source\PSoC6\pdl\cmsis/include/core_cm0plus.h **** #define xPSR_C_Msk                         (1UL << xPSR_C_Pos)                            /*!< xPSR
 281:Generated_Source\PSoC6\pdl\cmsis/include/core_cm0plus.h **** 
 282:Generated_Source\PSoC6\pdl\cmsis/include/core_cm0plus.h **** #define xPSR_V_Pos                         28U                                            /*!< xPSR
 283:Generated_Source\PSoC6\pdl\cmsis/include/core_cm0plus.h **** #define xPSR_V_Msk                         (1UL << xPSR_V_Pos)                            /*!< xPSR
 284:Generated_Source\PSoC6\pdl\cmsis/include/core_cm0plus.h **** 
 285:Generated_Source\PSoC6\pdl\cmsis/include/core_cm0plus.h **** #define xPSR_T_Pos                         24U                                            /*!< xPSR
 286:Generated_Source\PSoC6\pdl\cmsis/include/core_cm0plus.h **** #define xPSR_T_Msk                         (1UL << xPSR_T_Pos)                            /*!< xPSR
 287:Generated_Source\PSoC6\pdl\cmsis/include/core_cm0plus.h **** 
 288:Generated_Source\PSoC6\pdl\cmsis/include/core_cm0plus.h **** #define xPSR_ISR_Pos                        0U                                            /*!< xPSR
 289:Generated_Source\PSoC6\pdl\cmsis/include/core_cm0plus.h **** #define xPSR_ISR_Msk                       (0x1FFUL /*<< xPSR_ISR_Pos*/)                  /*!< xPSR
 290:Generated_Source\PSoC6\pdl\cmsis/include/core_cm0plus.h **** 
 291:Generated_Source\PSoC6\pdl\cmsis/include/core_cm0plus.h **** 
 292:Generated_Source\PSoC6\pdl\cmsis/include/core_cm0plus.h **** /**
 293:Generated_Source\PSoC6\pdl\cmsis/include/core_cm0plus.h ****   \brief  Union type to access the Control Registers (CONTROL).
 294:Generated_Source\PSoC6\pdl\cmsis/include/core_cm0plus.h ****  */
 295:Generated_Source\PSoC6\pdl\cmsis/include/core_cm0plus.h **** typedef union
 296:Generated_Source\PSoC6\pdl\cmsis/include/core_cm0plus.h **** {
 297:Generated_Source\PSoC6\pdl\cmsis/include/core_cm0plus.h ****   struct
 298:Generated_Source\PSoC6\pdl\cmsis/include/core_cm0plus.h ****   {
 299:Generated_Source\PSoC6\pdl\cmsis/include/core_cm0plus.h ****     uint32_t nPRIV:1;                    /*!< bit:      0  Execution privilege in Thread mode */
 300:Generated_Source\PSoC6\pdl\cmsis/include/core_cm0plus.h ****     uint32_t SPSEL:1;                    /*!< bit:      1  Stack to be used */
 301:Generated_Source\PSoC6\pdl\cmsis/include/core_cm0plus.h ****     uint32_t _reserved1:30;              /*!< bit:  2..31  Reserved */
 302:Generated_Source\PSoC6\pdl\cmsis/include/core_cm0plus.h ****   } b;                                   /*!< Structure used for bit  access */
 303:Generated_Source\PSoC6\pdl\cmsis/include/core_cm0plus.h ****   uint32_t w;                            /*!< Type      used for word access */
 304:Generated_Source\PSoC6\pdl\cmsis/include/core_cm0plus.h **** } CONTROL_Type;
 305:Generated_Source\PSoC6\pdl\cmsis/include/core_cm0plus.h **** 
 306:Generated_Source\PSoC6\pdl\cmsis/include/core_cm0plus.h **** /* CONTROL Register Definitions */
 307:Generated_Source\PSoC6\pdl\cmsis/include/core_cm0plus.h **** #define CONTROL_SPSEL_Pos                   1U                                            /*!< CONT
 308:Generated_Source\PSoC6\pdl\cmsis/include/core_cm0plus.h **** #define CONTROL_SPSEL_Msk                  (1UL << CONTROL_SPSEL_Pos)                     /*!< CONT
 309:Generated_Source\PSoC6\pdl\cmsis/include/core_cm0plus.h **** 
ARM GAS  C:\Users\salaz\AppData\Local\Temp\ccvE4Xni.s 			page 34


 310:Generated_Source\PSoC6\pdl\cmsis/include/core_cm0plus.h **** #define CONTROL_nPRIV_Pos                   0U                                            /*!< CONT
 311:Generated_Source\PSoC6\pdl\cmsis/include/core_cm0plus.h **** #define CONTROL_nPRIV_Msk                  (1UL /*<< CONTROL_nPRIV_Pos*/)                 /*!< CONT
 312:Generated_Source\PSoC6\pdl\cmsis/include/core_cm0plus.h **** 
 313:Generated_Source\PSoC6\pdl\cmsis/include/core_cm0plus.h **** /*@} end of group CMSIS_CORE */
 314:Generated_Source\PSoC6\pdl\cmsis/include/core_cm0plus.h **** 
 315:Generated_Source\PSoC6\pdl\cmsis/include/core_cm0plus.h **** 
 316:Generated_Source\PSoC6\pdl\cmsis/include/core_cm0plus.h **** /**
 317:Generated_Source\PSoC6\pdl\cmsis/include/core_cm0plus.h ****   \ingroup    CMSIS_core_register
 318:Generated_Source\PSoC6\pdl\cmsis/include/core_cm0plus.h ****   \defgroup   CMSIS_NVIC  Nested Vectored Interrupt Controller (NVIC)
 319:Generated_Source\PSoC6\pdl\cmsis/include/core_cm0plus.h ****   \brief      Type definitions for the NVIC Registers
 320:Generated_Source\PSoC6\pdl\cmsis/include/core_cm0plus.h ****   @{
 321:Generated_Source\PSoC6\pdl\cmsis/include/core_cm0plus.h ****  */
 322:Generated_Source\PSoC6\pdl\cmsis/include/core_cm0plus.h **** 
 323:Generated_Source\PSoC6\pdl\cmsis/include/core_cm0plus.h **** /**
 324:Generated_Source\PSoC6\pdl\cmsis/include/core_cm0plus.h ****   \brief  Structure type to access the Nested Vectored Interrupt Controller (NVIC).
 325:Generated_Source\PSoC6\pdl\cmsis/include/core_cm0plus.h ****  */
 326:Generated_Source\PSoC6\pdl\cmsis/include/core_cm0plus.h **** typedef struct
 327:Generated_Source\PSoC6\pdl\cmsis/include/core_cm0plus.h **** {
 328:Generated_Source\PSoC6\pdl\cmsis/include/core_cm0plus.h ****   __IOM uint32_t ISER[1U];               /*!< Offset: 0x000 (R/W)  Interrupt Set Enable Register */
 329:Generated_Source\PSoC6\pdl\cmsis/include/core_cm0plus.h ****         uint32_t RESERVED0[31U];
 330:Generated_Source\PSoC6\pdl\cmsis/include/core_cm0plus.h ****   __IOM uint32_t ICER[1U];               /*!< Offset: 0x080 (R/W)  Interrupt Clear Enable Register 
 331:Generated_Source\PSoC6\pdl\cmsis/include/core_cm0plus.h ****         uint32_t RSERVED1[31U];
 332:Generated_Source\PSoC6\pdl\cmsis/include/core_cm0plus.h ****   __IOM uint32_t ISPR[1U];               /*!< Offset: 0x100 (R/W)  Interrupt Set Pending Register *
 333:Generated_Source\PSoC6\pdl\cmsis/include/core_cm0plus.h ****         uint32_t RESERVED2[31U];
 334:Generated_Source\PSoC6\pdl\cmsis/include/core_cm0plus.h ****   __IOM uint32_t ICPR[1U];               /*!< Offset: 0x180 (R/W)  Interrupt Clear Pending Register
 335:Generated_Source\PSoC6\pdl\cmsis/include/core_cm0plus.h ****         uint32_t RESERVED3[31U];
 336:Generated_Source\PSoC6\pdl\cmsis/include/core_cm0plus.h ****         uint32_t RESERVED4[64U];
 337:Generated_Source\PSoC6\pdl\cmsis/include/core_cm0plus.h ****   __IOM uint32_t IP[8U];                 /*!< Offset: 0x300 (R/W)  Interrupt Priority Register */
 338:Generated_Source\PSoC6\pdl\cmsis/include/core_cm0plus.h **** }  NVIC_Type;
 339:Generated_Source\PSoC6\pdl\cmsis/include/core_cm0plus.h **** 
 340:Generated_Source\PSoC6\pdl\cmsis/include/core_cm0plus.h **** /*@} end of group CMSIS_NVIC */
 341:Generated_Source\PSoC6\pdl\cmsis/include/core_cm0plus.h **** 
 342:Generated_Source\PSoC6\pdl\cmsis/include/core_cm0plus.h **** 
 343:Generated_Source\PSoC6\pdl\cmsis/include/core_cm0plus.h **** /**
 344:Generated_Source\PSoC6\pdl\cmsis/include/core_cm0plus.h ****   \ingroup  CMSIS_core_register
 345:Generated_Source\PSoC6\pdl\cmsis/include/core_cm0plus.h ****   \defgroup CMSIS_SCB     System Control Block (SCB)
 346:Generated_Source\PSoC6\pdl\cmsis/include/core_cm0plus.h ****   \brief    Type definitions for the System Control Block Registers
 347:Generated_Source\PSoC6\pdl\cmsis/include/core_cm0plus.h ****   @{
 348:Generated_Source\PSoC6\pdl\cmsis/include/core_cm0plus.h ****  */
 349:Generated_Source\PSoC6\pdl\cmsis/include/core_cm0plus.h **** 
 350:Generated_Source\PSoC6\pdl\cmsis/include/core_cm0plus.h **** /**
 351:Generated_Source\PSoC6\pdl\cmsis/include/core_cm0plus.h ****   \brief  Structure type to access the System Control Block (SCB).
 352:Generated_Source\PSoC6\pdl\cmsis/include/core_cm0plus.h ****  */
 353:Generated_Source\PSoC6\pdl\cmsis/include/core_cm0plus.h **** typedef struct
 354:Generated_Source\PSoC6\pdl\cmsis/include/core_cm0plus.h **** {
 355:Generated_Source\PSoC6\pdl\cmsis/include/core_cm0plus.h ****   __IM  uint32_t CPUID;                  /*!< Offset: 0x000 (R/ )  CPUID Base Register */
 356:Generated_Source\PSoC6\pdl\cmsis/include/core_cm0plus.h ****   __IOM uint32_t ICSR;                   /*!< Offset: 0x004 (R/W)  Interrupt Control and State Regi
 357:Generated_Source\PSoC6\pdl\cmsis/include/core_cm0plus.h **** #if defined (__VTOR_PRESENT) && (__VTOR_PRESENT == 1U)
 358:Generated_Source\PSoC6\pdl\cmsis/include/core_cm0plus.h ****   __IOM uint32_t VTOR;                   /*!< Offset: 0x008 (R/W)  Vector Table Offset Register */
 359:Generated_Source\PSoC6\pdl\cmsis/include/core_cm0plus.h **** #else
 360:Generated_Source\PSoC6\pdl\cmsis/include/core_cm0plus.h ****         uint32_t RESERVED0;
 361:Generated_Source\PSoC6\pdl\cmsis/include/core_cm0plus.h **** #endif
 362:Generated_Source\PSoC6\pdl\cmsis/include/core_cm0plus.h ****   __IOM uint32_t AIRCR;                  /*!< Offset: 0x00C (R/W)  Application Interrupt and Reset 
 363:Generated_Source\PSoC6\pdl\cmsis/include/core_cm0plus.h ****   __IOM uint32_t SCR;                    /*!< Offset: 0x010 (R/W)  System Control Register */
 364:Generated_Source\PSoC6\pdl\cmsis/include/core_cm0plus.h ****   __IOM uint32_t CCR;                    /*!< Offset: 0x014 (R/W)  Configuration Control Register *
 365:Generated_Source\PSoC6\pdl\cmsis/include/core_cm0plus.h ****         uint32_t RESERVED1;
 366:Generated_Source\PSoC6\pdl\cmsis/include/core_cm0plus.h ****   __IOM uint32_t SHP[2U];                /*!< Offset: 0x01C (R/W)  System Handlers Priority Registe
ARM GAS  C:\Users\salaz\AppData\Local\Temp\ccvE4Xni.s 			page 35


 367:Generated_Source\PSoC6\pdl\cmsis/include/core_cm0plus.h ****   __IOM uint32_t SHCSR;                  /*!< Offset: 0x024 (R/W)  System Handler Control and State
 368:Generated_Source\PSoC6\pdl\cmsis/include/core_cm0plus.h **** } SCB_Type;
 369:Generated_Source\PSoC6\pdl\cmsis/include/core_cm0plus.h **** 
 370:Generated_Source\PSoC6\pdl\cmsis/include/core_cm0plus.h **** /* SCB CPUID Register Definitions */
 371:Generated_Source\PSoC6\pdl\cmsis/include/core_cm0plus.h **** #define SCB_CPUID_IMPLEMENTER_Pos          24U                                            /*!< SCB 
 372:Generated_Source\PSoC6\pdl\cmsis/include/core_cm0plus.h **** #define SCB_CPUID_IMPLEMENTER_Msk          (0xFFUL << SCB_CPUID_IMPLEMENTER_Pos)          /*!< SCB 
 373:Generated_Source\PSoC6\pdl\cmsis/include/core_cm0plus.h **** 
 374:Generated_Source\PSoC6\pdl\cmsis/include/core_cm0plus.h **** #define SCB_CPUID_VARIANT_Pos              20U                                            /*!< SCB 
 375:Generated_Source\PSoC6\pdl\cmsis/include/core_cm0plus.h **** #define SCB_CPUID_VARIANT_Msk              (0xFUL << SCB_CPUID_VARIANT_Pos)               /*!< SCB 
 376:Generated_Source\PSoC6\pdl\cmsis/include/core_cm0plus.h **** 
 377:Generated_Source\PSoC6\pdl\cmsis/include/core_cm0plus.h **** #define SCB_CPUID_ARCHITECTURE_Pos         16U                                            /*!< SCB 
 378:Generated_Source\PSoC6\pdl\cmsis/include/core_cm0plus.h **** #define SCB_CPUID_ARCHITECTURE_Msk         (0xFUL << SCB_CPUID_ARCHITECTURE_Pos)          /*!< SCB 
 379:Generated_Source\PSoC6\pdl\cmsis/include/core_cm0plus.h **** 
 380:Generated_Source\PSoC6\pdl\cmsis/include/core_cm0plus.h **** #define SCB_CPUID_PARTNO_Pos                4U                                            /*!< SCB 
 381:Generated_Source\PSoC6\pdl\cmsis/include/core_cm0plus.h **** #define SCB_CPUID_PARTNO_Msk               (0xFFFUL << SCB_CPUID_PARTNO_Pos)              /*!< SCB 
 382:Generated_Source\PSoC6\pdl\cmsis/include/core_cm0plus.h **** 
 383:Generated_Source\PSoC6\pdl\cmsis/include/core_cm0plus.h **** #define SCB_CPUID_REVISION_Pos              0U                                            /*!< SCB 
 384:Generated_Source\PSoC6\pdl\cmsis/include/core_cm0plus.h **** #define SCB_CPUID_REVISION_Msk             (0xFUL /*<< SCB_CPUID_REVISION_Pos*/)          /*!< SCB 
 385:Generated_Source\PSoC6\pdl\cmsis/include/core_cm0plus.h **** 
 386:Generated_Source\PSoC6\pdl\cmsis/include/core_cm0plus.h **** /* SCB Interrupt Control State Register Definitions */
 387:Generated_Source\PSoC6\pdl\cmsis/include/core_cm0plus.h **** #define SCB_ICSR_NMIPENDSET_Pos            31U                                            /*!< SCB 
 388:Generated_Source\PSoC6\pdl\cmsis/include/core_cm0plus.h **** #define SCB_ICSR_NMIPENDSET_Msk            (1UL << SCB_ICSR_NMIPENDSET_Pos)               /*!< SCB 
 389:Generated_Source\PSoC6\pdl\cmsis/include/core_cm0plus.h **** 
 390:Generated_Source\PSoC6\pdl\cmsis/include/core_cm0plus.h **** #define SCB_ICSR_PENDSVSET_Pos             28U                                            /*!< SCB 
 391:Generated_Source\PSoC6\pdl\cmsis/include/core_cm0plus.h **** #define SCB_ICSR_PENDSVSET_Msk             (1UL << SCB_ICSR_PENDSVSET_Pos)                /*!< SCB 
 392:Generated_Source\PSoC6\pdl\cmsis/include/core_cm0plus.h **** 
 393:Generated_Source\PSoC6\pdl\cmsis/include/core_cm0plus.h **** #define SCB_ICSR_PENDSVCLR_Pos             27U                                            /*!< SCB 
 394:Generated_Source\PSoC6\pdl\cmsis/include/core_cm0plus.h **** #define SCB_ICSR_PENDSVCLR_Msk             (1UL << SCB_ICSR_PENDSVCLR_Pos)                /*!< SCB 
 395:Generated_Source\PSoC6\pdl\cmsis/include/core_cm0plus.h **** 
 396:Generated_Source\PSoC6\pdl\cmsis/include/core_cm0plus.h **** #define SCB_ICSR_PENDSTSET_Pos             26U                                            /*!< SCB 
 397:Generated_Source\PSoC6\pdl\cmsis/include/core_cm0plus.h **** #define SCB_ICSR_PENDSTSET_Msk             (1UL << SCB_ICSR_PENDSTSET_Pos)                /*!< SCB 
 398:Generated_Source\PSoC6\pdl\cmsis/include/core_cm0plus.h **** 
 399:Generated_Source\PSoC6\pdl\cmsis/include/core_cm0plus.h **** #define SCB_ICSR_PENDSTCLR_Pos             25U                                            /*!< SCB 
 400:Generated_Source\PSoC6\pdl\cmsis/include/core_cm0plus.h **** #define SCB_ICSR_PENDSTCLR_Msk             (1UL << SCB_ICSR_PENDSTCLR_Pos)                /*!< SCB 
 401:Generated_Source\PSoC6\pdl\cmsis/include/core_cm0plus.h **** 
 402:Generated_Source\PSoC6\pdl\cmsis/include/core_cm0plus.h **** #define SCB_ICSR_ISRPREEMPT_Pos            23U                                            /*!< SCB 
 403:Generated_Source\PSoC6\pdl\cmsis/include/core_cm0plus.h **** #define SCB_ICSR_ISRPREEMPT_Msk            (1UL << SCB_ICSR_ISRPREEMPT_Pos)               /*!< SCB 
 404:Generated_Source\PSoC6\pdl\cmsis/include/core_cm0plus.h **** 
 405:Generated_Source\PSoC6\pdl\cmsis/include/core_cm0plus.h **** #define SCB_ICSR_ISRPENDING_Pos            22U                                            /*!< SCB 
 406:Generated_Source\PSoC6\pdl\cmsis/include/core_cm0plus.h **** #define SCB_ICSR_ISRPENDING_Msk            (1UL << SCB_ICSR_ISRPENDING_Pos)               /*!< SCB 
 407:Generated_Source\PSoC6\pdl\cmsis/include/core_cm0plus.h **** 
 408:Generated_Source\PSoC6\pdl\cmsis/include/core_cm0plus.h **** #define SCB_ICSR_VECTPENDING_Pos           12U                                            /*!< SCB 
 409:Generated_Source\PSoC6\pdl\cmsis/include/core_cm0plus.h **** #define SCB_ICSR_VECTPENDING_Msk           (0x1FFUL << SCB_ICSR_VECTPENDING_Pos)          /*!< SCB 
 410:Generated_Source\PSoC6\pdl\cmsis/include/core_cm0plus.h **** 
 411:Generated_Source\PSoC6\pdl\cmsis/include/core_cm0plus.h **** #define SCB_ICSR_VECTACTIVE_Pos             0U                                            /*!< SCB 
 412:Generated_Source\PSoC6\pdl\cmsis/include/core_cm0plus.h **** #define SCB_ICSR_VECTACTIVE_Msk            (0x1FFUL /*<< SCB_ICSR_VECTACTIVE_Pos*/)       /*!< SCB 
 413:Generated_Source\PSoC6\pdl\cmsis/include/core_cm0plus.h **** 
 414:Generated_Source\PSoC6\pdl\cmsis/include/core_cm0plus.h **** #if defined (__VTOR_PRESENT) && (__VTOR_PRESENT == 1U)
 415:Generated_Source\PSoC6\pdl\cmsis/include/core_cm0plus.h **** /* SCB Interrupt Control State Register Definitions */
 416:Generated_Source\PSoC6\pdl\cmsis/include/core_cm0plus.h **** #define SCB_VTOR_TBLOFF_Pos                 8U                                            /*!< SCB 
 417:Generated_Source\PSoC6\pdl\cmsis/include/core_cm0plus.h **** #define SCB_VTOR_TBLOFF_Msk                (0xFFFFFFUL << SCB_VTOR_TBLOFF_Pos)            /*!< SCB 
 418:Generated_Source\PSoC6\pdl\cmsis/include/core_cm0plus.h **** #endif
 419:Generated_Source\PSoC6\pdl\cmsis/include/core_cm0plus.h **** 
 420:Generated_Source\PSoC6\pdl\cmsis/include/core_cm0plus.h **** /* SCB Application Interrupt and Reset Control Register Definitions */
 421:Generated_Source\PSoC6\pdl\cmsis/include/core_cm0plus.h **** #define SCB_AIRCR_VECTKEY_Pos              16U                                            /*!< SCB 
 422:Generated_Source\PSoC6\pdl\cmsis/include/core_cm0plus.h **** #define SCB_AIRCR_VECTKEY_Msk              (0xFFFFUL << SCB_AIRCR_VECTKEY_Pos)            /*!< SCB 
 423:Generated_Source\PSoC6\pdl\cmsis/include/core_cm0plus.h **** 
ARM GAS  C:\Users\salaz\AppData\Local\Temp\ccvE4Xni.s 			page 36


 424:Generated_Source\PSoC6\pdl\cmsis/include/core_cm0plus.h **** #define SCB_AIRCR_VECTKEYSTAT_Pos          16U                                            /*!< SCB 
 425:Generated_Source\PSoC6\pdl\cmsis/include/core_cm0plus.h **** #define SCB_AIRCR_VECTKEYSTAT_Msk          (0xFFFFUL << SCB_AIRCR_VECTKEYSTAT_Pos)        /*!< SCB 
 426:Generated_Source\PSoC6\pdl\cmsis/include/core_cm0plus.h **** 
 427:Generated_Source\PSoC6\pdl\cmsis/include/core_cm0plus.h **** #define SCB_AIRCR_ENDIANESS_Pos            15U                                            /*!< SCB 
 428:Generated_Source\PSoC6\pdl\cmsis/include/core_cm0plus.h **** #define SCB_AIRCR_ENDIANESS_Msk            (1UL << SCB_AIRCR_ENDIANESS_Pos)               /*!< SCB 
 429:Generated_Source\PSoC6\pdl\cmsis/include/core_cm0plus.h **** 
 430:Generated_Source\PSoC6\pdl\cmsis/include/core_cm0plus.h **** #define SCB_AIRCR_SYSRESETREQ_Pos           2U                                            /*!< SCB 
 431:Generated_Source\PSoC6\pdl\cmsis/include/core_cm0plus.h **** #define SCB_AIRCR_SYSRESETREQ_Msk          (1UL << SCB_AIRCR_SYSRESETREQ_Pos)             /*!< SCB 
 432:Generated_Source\PSoC6\pdl\cmsis/include/core_cm0plus.h **** 
 433:Generated_Source\PSoC6\pdl\cmsis/include/core_cm0plus.h **** #define SCB_AIRCR_VECTCLRACTIVE_Pos         1U                                            /*!< SCB 
 434:Generated_Source\PSoC6\pdl\cmsis/include/core_cm0plus.h **** #define SCB_AIRCR_VECTCLRACTIVE_Msk        (1UL << SCB_AIRCR_VECTCLRACTIVE_Pos)           /*!< SCB 
 435:Generated_Source\PSoC6\pdl\cmsis/include/core_cm0plus.h **** 
 436:Generated_Source\PSoC6\pdl\cmsis/include/core_cm0plus.h **** /* SCB System Control Register Definitions */
 437:Generated_Source\PSoC6\pdl\cmsis/include/core_cm0plus.h **** #define SCB_SCR_SEVONPEND_Pos               4U                                            /*!< SCB 
 438:Generated_Source\PSoC6\pdl\cmsis/include/core_cm0plus.h **** #define SCB_SCR_SEVONPEND_Msk              (1UL << SCB_SCR_SEVONPEND_Pos)                 /*!< SCB 
 439:Generated_Source\PSoC6\pdl\cmsis/include/core_cm0plus.h **** 
 440:Generated_Source\PSoC6\pdl\cmsis/include/core_cm0plus.h **** #define SCB_SCR_SLEEPDEEP_Pos               2U                                            /*!< SCB 
 441:Generated_Source\PSoC6\pdl\cmsis/include/core_cm0plus.h **** #define SCB_SCR_SLEEPDEEP_Msk              (1UL << SCB_SCR_SLEEPDEEP_Pos)                 /*!< SCB 
 442:Generated_Source\PSoC6\pdl\cmsis/include/core_cm0plus.h **** 
 443:Generated_Source\PSoC6\pdl\cmsis/include/core_cm0plus.h **** #define SCB_SCR_SLEEPONEXIT_Pos             1U                                            /*!< SCB 
 444:Generated_Source\PSoC6\pdl\cmsis/include/core_cm0plus.h **** #define SCB_SCR_SLEEPONEXIT_Msk            (1UL << SCB_SCR_SLEEPONEXIT_Pos)               /*!< SCB 
 445:Generated_Source\PSoC6\pdl\cmsis/include/core_cm0plus.h **** 
 446:Generated_Source\PSoC6\pdl\cmsis/include/core_cm0plus.h **** /* SCB Configuration Control Register Definitions */
 447:Generated_Source\PSoC6\pdl\cmsis/include/core_cm0plus.h **** #define SCB_CCR_STKALIGN_Pos                9U                                            /*!< SCB 
 448:Generated_Source\PSoC6\pdl\cmsis/include/core_cm0plus.h **** #define SCB_CCR_STKALIGN_Msk               (1UL << SCB_CCR_STKALIGN_Pos)                  /*!< SCB 
 449:Generated_Source\PSoC6\pdl\cmsis/include/core_cm0plus.h **** 
 450:Generated_Source\PSoC6\pdl\cmsis/include/core_cm0plus.h **** #define SCB_CCR_UNALIGN_TRP_Pos             3U                                            /*!< SCB 
 451:Generated_Source\PSoC6\pdl\cmsis/include/core_cm0plus.h **** #define SCB_CCR_UNALIGN_TRP_Msk            (1UL << SCB_CCR_UNALIGN_TRP_Pos)               /*!< SCB 
 452:Generated_Source\PSoC6\pdl\cmsis/include/core_cm0plus.h **** 
 453:Generated_Source\PSoC6\pdl\cmsis/include/core_cm0plus.h **** /* SCB System Handler Control and State Register Definitions */
 454:Generated_Source\PSoC6\pdl\cmsis/include/core_cm0plus.h **** #define SCB_SHCSR_SVCALLPENDED_Pos         15U                                            /*!< SCB 
 455:Generated_Source\PSoC6\pdl\cmsis/include/core_cm0plus.h **** #define SCB_SHCSR_SVCALLPENDED_Msk         (1UL << SCB_SHCSR_SVCALLPENDED_Pos)            /*!< SCB 
 456:Generated_Source\PSoC6\pdl\cmsis/include/core_cm0plus.h **** 
 457:Generated_Source\PSoC6\pdl\cmsis/include/core_cm0plus.h **** /*@} end of group CMSIS_SCB */
 458:Generated_Source\PSoC6\pdl\cmsis/include/core_cm0plus.h **** 
 459:Generated_Source\PSoC6\pdl\cmsis/include/core_cm0plus.h **** 
 460:Generated_Source\PSoC6\pdl\cmsis/include/core_cm0plus.h **** /**
 461:Generated_Source\PSoC6\pdl\cmsis/include/core_cm0plus.h ****   \ingroup  CMSIS_core_register
 462:Generated_Source\PSoC6\pdl\cmsis/include/core_cm0plus.h ****   \defgroup CMSIS_SysTick     System Tick Timer (SysTick)
 463:Generated_Source\PSoC6\pdl\cmsis/include/core_cm0plus.h ****   \brief    Type definitions for the System Timer Registers.
 464:Generated_Source\PSoC6\pdl\cmsis/include/core_cm0plus.h ****   @{
 465:Generated_Source\PSoC6\pdl\cmsis/include/core_cm0plus.h ****  */
 466:Generated_Source\PSoC6\pdl\cmsis/include/core_cm0plus.h **** 
 467:Generated_Source\PSoC6\pdl\cmsis/include/core_cm0plus.h **** /**
 468:Generated_Source\PSoC6\pdl\cmsis/include/core_cm0plus.h ****   \brief  Structure type to access the System Timer (SysTick).
 469:Generated_Source\PSoC6\pdl\cmsis/include/core_cm0plus.h ****  */
 470:Generated_Source\PSoC6\pdl\cmsis/include/core_cm0plus.h **** typedef struct
 471:Generated_Source\PSoC6\pdl\cmsis/include/core_cm0plus.h **** {
 472:Generated_Source\PSoC6\pdl\cmsis/include/core_cm0plus.h ****   __IOM uint32_t CTRL;                   /*!< Offset: 0x000 (R/W)  SysTick Control and Status Regis
 473:Generated_Source\PSoC6\pdl\cmsis/include/core_cm0plus.h ****   __IOM uint32_t LOAD;                   /*!< Offset: 0x004 (R/W)  SysTick Reload Value Register */
 474:Generated_Source\PSoC6\pdl\cmsis/include/core_cm0plus.h ****   __IOM uint32_t VAL;                    /*!< Offset: 0x008 (R/W)  SysTick Current Value Register *
 475:Generated_Source\PSoC6\pdl\cmsis/include/core_cm0plus.h ****   __IM  uint32_t CALIB;                  /*!< Offset: 0x00C (R/ )  SysTick Calibration Register */
 476:Generated_Source\PSoC6\pdl\cmsis/include/core_cm0plus.h **** } SysTick_Type;
 477:Generated_Source\PSoC6\pdl\cmsis/include/core_cm0plus.h **** 
 478:Generated_Source\PSoC6\pdl\cmsis/include/core_cm0plus.h **** /* SysTick Control / Status Register Definitions */
 479:Generated_Source\PSoC6\pdl\cmsis/include/core_cm0plus.h **** #define SysTick_CTRL_COUNTFLAG_Pos         16U                                            /*!< SysT
 480:Generated_Source\PSoC6\pdl\cmsis/include/core_cm0plus.h **** #define SysTick_CTRL_COUNTFLAG_Msk         (1UL << SysTick_CTRL_COUNTFLAG_Pos)            /*!< SysT
ARM GAS  C:\Users\salaz\AppData\Local\Temp\ccvE4Xni.s 			page 37


 481:Generated_Source\PSoC6\pdl\cmsis/include/core_cm0plus.h **** 
 482:Generated_Source\PSoC6\pdl\cmsis/include/core_cm0plus.h **** #define SysTick_CTRL_CLKSOURCE_Pos          2U                                            /*!< SysT
 483:Generated_Source\PSoC6\pdl\cmsis/include/core_cm0plus.h **** #define SysTick_CTRL_CLKSOURCE_Msk         (1UL << SysTick_CTRL_CLKSOURCE_Pos)            /*!< SysT
 484:Generated_Source\PSoC6\pdl\cmsis/include/core_cm0plus.h **** 
 485:Generated_Source\PSoC6\pdl\cmsis/include/core_cm0plus.h **** #define SysTick_CTRL_TICKINT_Pos            1U                                            /*!< SysT
 486:Generated_Source\PSoC6\pdl\cmsis/include/core_cm0plus.h **** #define SysTick_CTRL_TICKINT_Msk           (1UL << SysTick_CTRL_TICKINT_Pos)              /*!< SysT
 487:Generated_Source\PSoC6\pdl\cmsis/include/core_cm0plus.h **** 
 488:Generated_Source\PSoC6\pdl\cmsis/include/core_cm0plus.h **** #define SysTick_CTRL_ENABLE_Pos             0U                                            /*!< SysT
 489:Generated_Source\PSoC6\pdl\cmsis/include/core_cm0plus.h **** #define SysTick_CTRL_ENABLE_Msk            (1UL /*<< SysTick_CTRL_ENABLE_Pos*/)           /*!< SysT
 490:Generated_Source\PSoC6\pdl\cmsis/include/core_cm0plus.h **** 
 491:Generated_Source\PSoC6\pdl\cmsis/include/core_cm0plus.h **** /* SysTick Reload Register Definitions */
 492:Generated_Source\PSoC6\pdl\cmsis/include/core_cm0plus.h **** #define SysTick_LOAD_RELOAD_Pos             0U                                            /*!< SysT
 493:Generated_Source\PSoC6\pdl\cmsis/include/core_cm0plus.h **** #define SysTick_LOAD_RELOAD_Msk            (0xFFFFFFUL /*<< SysTick_LOAD_RELOAD_Pos*/)    /*!< SysT
 494:Generated_Source\PSoC6\pdl\cmsis/include/core_cm0plus.h **** 
 495:Generated_Source\PSoC6\pdl\cmsis/include/core_cm0plus.h **** /* SysTick Current Register Definitions */
 496:Generated_Source\PSoC6\pdl\cmsis/include/core_cm0plus.h **** #define SysTick_VAL_CURRENT_Pos             0U                                            /*!< SysT
 497:Generated_Source\PSoC6\pdl\cmsis/include/core_cm0plus.h **** #define SysTick_VAL_CURRENT_Msk            (0xFFFFFFUL /*<< SysTick_VAL_CURRENT_Pos*/)    /*!< SysT
 498:Generated_Source\PSoC6\pdl\cmsis/include/core_cm0plus.h **** 
 499:Generated_Source\PSoC6\pdl\cmsis/include/core_cm0plus.h **** /* SysTick Calibration Register Definitions */
 500:Generated_Source\PSoC6\pdl\cmsis/include/core_cm0plus.h **** #define SysTick_CALIB_NOREF_Pos            31U                                            /*!< SysT
 501:Generated_Source\PSoC6\pdl\cmsis/include/core_cm0plus.h **** #define SysTick_CALIB_NOREF_Msk            (1UL << SysTick_CALIB_NOREF_Pos)               /*!< SysT
 502:Generated_Source\PSoC6\pdl\cmsis/include/core_cm0plus.h **** 
 503:Generated_Source\PSoC6\pdl\cmsis/include/core_cm0plus.h **** #define SysTick_CALIB_SKEW_Pos             30U                                            /*!< SysT
 504:Generated_Source\PSoC6\pdl\cmsis/include/core_cm0plus.h **** #define SysTick_CALIB_SKEW_Msk             (1UL << SysTick_CALIB_SKEW_Pos)                /*!< SysT
 505:Generated_Source\PSoC6\pdl\cmsis/include/core_cm0plus.h **** 
 506:Generated_Source\PSoC6\pdl\cmsis/include/core_cm0plus.h **** #define SysTick_CALIB_TENMS_Pos             0U                                            /*!< SysT
 507:Generated_Source\PSoC6\pdl\cmsis/include/core_cm0plus.h **** #define SysTick_CALIB_TENMS_Msk            (0xFFFFFFUL /*<< SysTick_CALIB_TENMS_Pos*/)    /*!< SysT
 508:Generated_Source\PSoC6\pdl\cmsis/include/core_cm0plus.h **** 
 509:Generated_Source\PSoC6\pdl\cmsis/include/core_cm0plus.h **** /*@} end of group CMSIS_SysTick */
 510:Generated_Source\PSoC6\pdl\cmsis/include/core_cm0plus.h **** 
 511:Generated_Source\PSoC6\pdl\cmsis/include/core_cm0plus.h **** #if defined (__MPU_PRESENT) && (__MPU_PRESENT == 1U)
 512:Generated_Source\PSoC6\pdl\cmsis/include/core_cm0plus.h **** /**
 513:Generated_Source\PSoC6\pdl\cmsis/include/core_cm0plus.h ****   \ingroup  CMSIS_core_register
 514:Generated_Source\PSoC6\pdl\cmsis/include/core_cm0plus.h ****   \defgroup CMSIS_MPU     Memory Protection Unit (MPU)
 515:Generated_Source\PSoC6\pdl\cmsis/include/core_cm0plus.h ****   \brief    Type definitions for the Memory Protection Unit (MPU)
 516:Generated_Source\PSoC6\pdl\cmsis/include/core_cm0plus.h ****   @{
 517:Generated_Source\PSoC6\pdl\cmsis/include/core_cm0plus.h ****  */
 518:Generated_Source\PSoC6\pdl\cmsis/include/core_cm0plus.h **** 
 519:Generated_Source\PSoC6\pdl\cmsis/include/core_cm0plus.h **** /**
 520:Generated_Source\PSoC6\pdl\cmsis/include/core_cm0plus.h ****   \brief  Structure type to access the Memory Protection Unit (MPU).
 521:Generated_Source\PSoC6\pdl\cmsis/include/core_cm0plus.h ****  */
 522:Generated_Source\PSoC6\pdl\cmsis/include/core_cm0plus.h **** typedef struct
 523:Generated_Source\PSoC6\pdl\cmsis/include/core_cm0plus.h **** {
 524:Generated_Source\PSoC6\pdl\cmsis/include/core_cm0plus.h ****   __IM  uint32_t TYPE;                   /*!< Offset: 0x000 (R/ )  MPU Type Register */
 525:Generated_Source\PSoC6\pdl\cmsis/include/core_cm0plus.h ****   __IOM uint32_t CTRL;                   /*!< Offset: 0x004 (R/W)  MPU Control Register */
 526:Generated_Source\PSoC6\pdl\cmsis/include/core_cm0plus.h ****   __IOM uint32_t RNR;                    /*!< Offset: 0x008 (R/W)  MPU Region RNRber Register */
 527:Generated_Source\PSoC6\pdl\cmsis/include/core_cm0plus.h ****   __IOM uint32_t RBAR;                   /*!< Offset: 0x00C (R/W)  MPU Region Base Address Register
 528:Generated_Source\PSoC6\pdl\cmsis/include/core_cm0plus.h ****   __IOM uint32_t RASR;                   /*!< Offset: 0x010 (R/W)  MPU Region Attribute and Size Re
 529:Generated_Source\PSoC6\pdl\cmsis/include/core_cm0plus.h **** } MPU_Type;
 530:Generated_Source\PSoC6\pdl\cmsis/include/core_cm0plus.h **** 
 531:Generated_Source\PSoC6\pdl\cmsis/include/core_cm0plus.h **** /* MPU Type Register Definitions */
 532:Generated_Source\PSoC6\pdl\cmsis/include/core_cm0plus.h **** #define MPU_TYPE_IREGION_Pos               16U                                            /*!< MPU 
 533:Generated_Source\PSoC6\pdl\cmsis/include/core_cm0plus.h **** #define MPU_TYPE_IREGION_Msk               (0xFFUL << MPU_TYPE_IREGION_Pos)               /*!< MPU 
 534:Generated_Source\PSoC6\pdl\cmsis/include/core_cm0plus.h **** 
 535:Generated_Source\PSoC6\pdl\cmsis/include/core_cm0plus.h **** #define MPU_TYPE_DREGION_Pos                8U                                            /*!< MPU 
 536:Generated_Source\PSoC6\pdl\cmsis/include/core_cm0plus.h **** #define MPU_TYPE_DREGION_Msk               (0xFFUL << MPU_TYPE_DREGION_Pos)               /*!< MPU 
 537:Generated_Source\PSoC6\pdl\cmsis/include/core_cm0plus.h **** 
ARM GAS  C:\Users\salaz\AppData\Local\Temp\ccvE4Xni.s 			page 38


 538:Generated_Source\PSoC6\pdl\cmsis/include/core_cm0plus.h **** #define MPU_TYPE_SEPARATE_Pos               0U                                            /*!< MPU 
 539:Generated_Source\PSoC6\pdl\cmsis/include/core_cm0plus.h **** #define MPU_TYPE_SEPARATE_Msk              (1UL /*<< MPU_TYPE_SEPARATE_Pos*/)             /*!< MPU 
 540:Generated_Source\PSoC6\pdl\cmsis/include/core_cm0plus.h **** 
 541:Generated_Source\PSoC6\pdl\cmsis/include/core_cm0plus.h **** /* MPU Control Register Definitions */
 542:Generated_Source\PSoC6\pdl\cmsis/include/core_cm0plus.h **** #define MPU_CTRL_PRIVDEFENA_Pos             2U                                            /*!< MPU 
 543:Generated_Source\PSoC6\pdl\cmsis/include/core_cm0plus.h **** #define MPU_CTRL_PRIVDEFENA_Msk            (1UL << MPU_CTRL_PRIVDEFENA_Pos)               /*!< MPU 
 544:Generated_Source\PSoC6\pdl\cmsis/include/core_cm0plus.h **** 
 545:Generated_Source\PSoC6\pdl\cmsis/include/core_cm0plus.h **** #define MPU_CTRL_HFNMIENA_Pos               1U                                            /*!< MPU 
 546:Generated_Source\PSoC6\pdl\cmsis/include/core_cm0plus.h **** #define MPU_CTRL_HFNMIENA_Msk              (1UL << MPU_CTRL_HFNMIENA_Pos)                 /*!< MPU 
 547:Generated_Source\PSoC6\pdl\cmsis/include/core_cm0plus.h **** 
 548:Generated_Source\PSoC6\pdl\cmsis/include/core_cm0plus.h **** #define MPU_CTRL_ENABLE_Pos                 0U                                            /*!< MPU 
 549:Generated_Source\PSoC6\pdl\cmsis/include/core_cm0plus.h **** #define MPU_CTRL_ENABLE_Msk                (1UL /*<< MPU_CTRL_ENABLE_Pos*/)               /*!< MPU 
 550:Generated_Source\PSoC6\pdl\cmsis/include/core_cm0plus.h **** 
 551:Generated_Source\PSoC6\pdl\cmsis/include/core_cm0plus.h **** /* MPU Region Number Register Definitions */
 552:Generated_Source\PSoC6\pdl\cmsis/include/core_cm0plus.h **** #define MPU_RNR_REGION_Pos                  0U                                            /*!< MPU 
 553:Generated_Source\PSoC6\pdl\cmsis/include/core_cm0plus.h **** #define MPU_RNR_REGION_Msk                 (0xFFUL /*<< MPU_RNR_REGION_Pos*/)             /*!< MPU 
 554:Generated_Source\PSoC6\pdl\cmsis/include/core_cm0plus.h **** 
 555:Generated_Source\PSoC6\pdl\cmsis/include/core_cm0plus.h **** /* MPU Region Base Address Register Definitions */
 556:Generated_Source\PSoC6\pdl\cmsis/include/core_cm0plus.h **** #define MPU_RBAR_ADDR_Pos                   8U                                            /*!< MPU 
 557:Generated_Source\PSoC6\pdl\cmsis/include/core_cm0plus.h **** #define MPU_RBAR_ADDR_Msk                  (0xFFFFFFUL << MPU_RBAR_ADDR_Pos)              /*!< MPU 
 558:Generated_Source\PSoC6\pdl\cmsis/include/core_cm0plus.h **** 
 559:Generated_Source\PSoC6\pdl\cmsis/include/core_cm0plus.h **** #define MPU_RBAR_VALID_Pos                  4U                                            /*!< MPU 
 560:Generated_Source\PSoC6\pdl\cmsis/include/core_cm0plus.h **** #define MPU_RBAR_VALID_Msk                 (1UL << MPU_RBAR_VALID_Pos)                    /*!< MPU 
 561:Generated_Source\PSoC6\pdl\cmsis/include/core_cm0plus.h **** 
 562:Generated_Source\PSoC6\pdl\cmsis/include/core_cm0plus.h **** #define MPU_RBAR_REGION_Pos                 0U                                            /*!< MPU 
 563:Generated_Source\PSoC6\pdl\cmsis/include/core_cm0plus.h **** #define MPU_RBAR_REGION_Msk                (0xFUL /*<< MPU_RBAR_REGION_Pos*/)             /*!< MPU 
 564:Generated_Source\PSoC6\pdl\cmsis/include/core_cm0plus.h **** 
 565:Generated_Source\PSoC6\pdl\cmsis/include/core_cm0plus.h **** /* MPU Region Attribute and Size Register Definitions */
 566:Generated_Source\PSoC6\pdl\cmsis/include/core_cm0plus.h **** #define MPU_RASR_ATTRS_Pos                 16U                                            /*!< MPU 
 567:Generated_Source\PSoC6\pdl\cmsis/include/core_cm0plus.h **** #define MPU_RASR_ATTRS_Msk                 (0xFFFFUL << MPU_RASR_ATTRS_Pos)               /*!< MPU 
 568:Generated_Source\PSoC6\pdl\cmsis/include/core_cm0plus.h **** 
 569:Generated_Source\PSoC6\pdl\cmsis/include/core_cm0plus.h **** #define MPU_RASR_XN_Pos                    28U                                            /*!< MPU 
 570:Generated_Source\PSoC6\pdl\cmsis/include/core_cm0plus.h **** #define MPU_RASR_XN_Msk                    (1UL << MPU_RASR_XN_Pos)                       /*!< MPU 
 571:Generated_Source\PSoC6\pdl\cmsis/include/core_cm0plus.h **** 
 572:Generated_Source\PSoC6\pdl\cmsis/include/core_cm0plus.h **** #define MPU_RASR_AP_Pos                    24U                                            /*!< MPU 
 573:Generated_Source\PSoC6\pdl\cmsis/include/core_cm0plus.h **** #define MPU_RASR_AP_Msk                    (0x7UL << MPU_RASR_AP_Pos)                     /*!< MPU 
 574:Generated_Source\PSoC6\pdl\cmsis/include/core_cm0plus.h **** 
 575:Generated_Source\PSoC6\pdl\cmsis/include/core_cm0plus.h **** #define MPU_RASR_TEX_Pos                   19U                                            /*!< MPU 
 576:Generated_Source\PSoC6\pdl\cmsis/include/core_cm0plus.h **** #define MPU_RASR_TEX_Msk                   (0x7UL << MPU_RASR_TEX_Pos)                    /*!< MPU 
 577:Generated_Source\PSoC6\pdl\cmsis/include/core_cm0plus.h **** 
 578:Generated_Source\PSoC6\pdl\cmsis/include/core_cm0plus.h **** #define MPU_RASR_S_Pos                     18U                                            /*!< MPU 
 579:Generated_Source\PSoC6\pdl\cmsis/include/core_cm0plus.h **** #define MPU_RASR_S_Msk                     (1UL << MPU_RASR_S_Pos)                        /*!< MPU 
 580:Generated_Source\PSoC6\pdl\cmsis/include/core_cm0plus.h **** 
 581:Generated_Source\PSoC6\pdl\cmsis/include/core_cm0plus.h **** #define MPU_RASR_C_Pos                     17U                                            /*!< MPU 
 582:Generated_Source\PSoC6\pdl\cmsis/include/core_cm0plus.h **** #define MPU_RASR_C_Msk                     (1UL << MPU_RASR_C_Pos)                        /*!< MPU 
 583:Generated_Source\PSoC6\pdl\cmsis/include/core_cm0plus.h **** 
 584:Generated_Source\PSoC6\pdl\cmsis/include/core_cm0plus.h **** #define MPU_RASR_B_Pos                     16U                                            /*!< MPU 
 585:Generated_Source\PSoC6\pdl\cmsis/include/core_cm0plus.h **** #define MPU_RASR_B_Msk                     (1UL << MPU_RASR_B_Pos)                        /*!< MPU 
 586:Generated_Source\PSoC6\pdl\cmsis/include/core_cm0plus.h **** 
 587:Generated_Source\PSoC6\pdl\cmsis/include/core_cm0plus.h **** #define MPU_RASR_SRD_Pos                    8U                                            /*!< MPU 
 588:Generated_Source\PSoC6\pdl\cmsis/include/core_cm0plus.h **** #define MPU_RASR_SRD_Msk                   (0xFFUL << MPU_RASR_SRD_Pos)                   /*!< MPU 
 589:Generated_Source\PSoC6\pdl\cmsis/include/core_cm0plus.h **** 
 590:Generated_Source\PSoC6\pdl\cmsis/include/core_cm0plus.h **** #define MPU_RASR_SIZE_Pos                   1U                                            /*!< MPU 
 591:Generated_Source\PSoC6\pdl\cmsis/include/core_cm0plus.h **** #define MPU_RASR_SIZE_Msk                  (0x1FUL << MPU_RASR_SIZE_Pos)                  /*!< MPU 
 592:Generated_Source\PSoC6\pdl\cmsis/include/core_cm0plus.h **** 
 593:Generated_Source\PSoC6\pdl\cmsis/include/core_cm0plus.h **** #define MPU_RASR_ENABLE_Pos                 0U                                            /*!< MPU 
 594:Generated_Source\PSoC6\pdl\cmsis/include/core_cm0plus.h **** #define MPU_RASR_ENABLE_Msk                (1UL /*<< MPU_RASR_ENABLE_Pos*/)               /*!< MPU 
ARM GAS  C:\Users\salaz\AppData\Local\Temp\ccvE4Xni.s 			page 39


 595:Generated_Source\PSoC6\pdl\cmsis/include/core_cm0plus.h **** 
 596:Generated_Source\PSoC6\pdl\cmsis/include/core_cm0plus.h **** /*@} end of group CMSIS_MPU */
 597:Generated_Source\PSoC6\pdl\cmsis/include/core_cm0plus.h **** #endif
 598:Generated_Source\PSoC6\pdl\cmsis/include/core_cm0plus.h **** 
 599:Generated_Source\PSoC6\pdl\cmsis/include/core_cm0plus.h **** 
 600:Generated_Source\PSoC6\pdl\cmsis/include/core_cm0plus.h **** /**
 601:Generated_Source\PSoC6\pdl\cmsis/include/core_cm0plus.h ****   \ingroup  CMSIS_core_register
 602:Generated_Source\PSoC6\pdl\cmsis/include/core_cm0plus.h ****   \defgroup CMSIS_CoreDebug       Core Debug Registers (CoreDebug)
 603:Generated_Source\PSoC6\pdl\cmsis/include/core_cm0plus.h ****   \brief    Cortex-M0+ Core Debug Registers (DCB registers, SHCSR, and DFSR) are only accessible ov
 604:Generated_Source\PSoC6\pdl\cmsis/include/core_cm0plus.h ****             Therefore they are not covered by the Cortex-M0+ header file.
 605:Generated_Source\PSoC6\pdl\cmsis/include/core_cm0plus.h ****   @{
 606:Generated_Source\PSoC6\pdl\cmsis/include/core_cm0plus.h ****  */
 607:Generated_Source\PSoC6\pdl\cmsis/include/core_cm0plus.h **** /*@} end of group CMSIS_CoreDebug */
 608:Generated_Source\PSoC6\pdl\cmsis/include/core_cm0plus.h **** 
 609:Generated_Source\PSoC6\pdl\cmsis/include/core_cm0plus.h **** 
 610:Generated_Source\PSoC6\pdl\cmsis/include/core_cm0plus.h **** /**
 611:Generated_Source\PSoC6\pdl\cmsis/include/core_cm0plus.h ****   \ingroup    CMSIS_core_register
 612:Generated_Source\PSoC6\pdl\cmsis/include/core_cm0plus.h ****   \defgroup   CMSIS_core_bitfield     Core register bit field macros
 613:Generated_Source\PSoC6\pdl\cmsis/include/core_cm0plus.h ****   \brief      Macros for use with bit field definitions (xxx_Pos, xxx_Msk).
 614:Generated_Source\PSoC6\pdl\cmsis/include/core_cm0plus.h ****   @{
 615:Generated_Source\PSoC6\pdl\cmsis/include/core_cm0plus.h ****  */
 616:Generated_Source\PSoC6\pdl\cmsis/include/core_cm0plus.h **** 
 617:Generated_Source\PSoC6\pdl\cmsis/include/core_cm0plus.h **** /**
 618:Generated_Source\PSoC6\pdl\cmsis/include/core_cm0plus.h ****   \brief   Mask and shift a bit field value for use in a register bit range.
 619:Generated_Source\PSoC6\pdl\cmsis/include/core_cm0plus.h ****   \param[in] field  Name of the register bit field.
 620:Generated_Source\PSoC6\pdl\cmsis/include/core_cm0plus.h ****   \param[in] value  Value of the bit field. This parameter is interpreted as an uint32_t type.
 621:Generated_Source\PSoC6\pdl\cmsis/include/core_cm0plus.h ****   \return           Masked and shifted value.
 622:Generated_Source\PSoC6\pdl\cmsis/include/core_cm0plus.h **** */
 623:Generated_Source\PSoC6\pdl\cmsis/include/core_cm0plus.h **** #define _VAL2FLD(field, value)    (((uint32_t)(value) << field ## _Pos) & field ## _Msk)
 624:Generated_Source\PSoC6\pdl\cmsis/include/core_cm0plus.h **** 
 625:Generated_Source\PSoC6\pdl\cmsis/include/core_cm0plus.h **** /**
 626:Generated_Source\PSoC6\pdl\cmsis/include/core_cm0plus.h ****   \brief     Mask and shift a register value to extract a bit filed value.
 627:Generated_Source\PSoC6\pdl\cmsis/include/core_cm0plus.h ****   \param[in] field  Name of the register bit field.
 628:Generated_Source\PSoC6\pdl\cmsis/include/core_cm0plus.h ****   \param[in] value  Value of register. This parameter is interpreted as an uint32_t type.
 629:Generated_Source\PSoC6\pdl\cmsis/include/core_cm0plus.h ****   \return           Masked and shifted bit field value.
 630:Generated_Source\PSoC6\pdl\cmsis/include/core_cm0plus.h **** */
 631:Generated_Source\PSoC6\pdl\cmsis/include/core_cm0plus.h **** #define _FLD2VAL(field, value)    (((uint32_t)(value) & field ## _Msk) >> field ## _Pos)
 632:Generated_Source\PSoC6\pdl\cmsis/include/core_cm0plus.h **** 
 633:Generated_Source\PSoC6\pdl\cmsis/include/core_cm0plus.h **** /*@} end of group CMSIS_core_bitfield */
 634:Generated_Source\PSoC6\pdl\cmsis/include/core_cm0plus.h **** 
 635:Generated_Source\PSoC6\pdl\cmsis/include/core_cm0plus.h **** 
 636:Generated_Source\PSoC6\pdl\cmsis/include/core_cm0plus.h **** /**
 637:Generated_Source\PSoC6\pdl\cmsis/include/core_cm0plus.h ****   \ingroup    CMSIS_core_register
 638:Generated_Source\PSoC6\pdl\cmsis/include/core_cm0plus.h ****   \defgroup   CMSIS_core_base     Core Definitions
 639:Generated_Source\PSoC6\pdl\cmsis/include/core_cm0plus.h ****   \brief      Definitions for base addresses, unions, and structures.
 640:Generated_Source\PSoC6\pdl\cmsis/include/core_cm0plus.h ****   @{
 641:Generated_Source\PSoC6\pdl\cmsis/include/core_cm0plus.h ****  */
 642:Generated_Source\PSoC6\pdl\cmsis/include/core_cm0plus.h **** 
 643:Generated_Source\PSoC6\pdl\cmsis/include/core_cm0plus.h **** /* Memory mapping of Core Hardware */
 644:Generated_Source\PSoC6\pdl\cmsis/include/core_cm0plus.h **** #define SCS_BASE            (0xE000E000UL)                            /*!< System Control Space Bas
 645:Generated_Source\PSoC6\pdl\cmsis/include/core_cm0plus.h **** #define SysTick_BASE        (SCS_BASE +  0x0010UL)                    /*!< SysTick Base Address */
 646:Generated_Source\PSoC6\pdl\cmsis/include/core_cm0plus.h **** #define NVIC_BASE           (SCS_BASE +  0x0100UL)                    /*!< NVIC Base Address */
 647:Generated_Source\PSoC6\pdl\cmsis/include/core_cm0plus.h **** #define SCB_BASE            (SCS_BASE +  0x0D00UL)                    /*!< System Control Block Bas
 648:Generated_Source\PSoC6\pdl\cmsis/include/core_cm0plus.h **** 
 649:Generated_Source\PSoC6\pdl\cmsis/include/core_cm0plus.h **** #define SCB                 ((SCB_Type       *)     SCB_BASE      )   /*!< SCB configuration struct
 650:Generated_Source\PSoC6\pdl\cmsis/include/core_cm0plus.h **** #define SysTick             ((SysTick_Type   *)     SysTick_BASE  )   /*!< SysTick configuration st
 651:Generated_Source\PSoC6\pdl\cmsis/include/core_cm0plus.h **** #define NVIC                ((NVIC_Type      *)     NVIC_BASE     )   /*!< NVIC configuration struc
ARM GAS  C:\Users\salaz\AppData\Local\Temp\ccvE4Xni.s 			page 40


 652:Generated_Source\PSoC6\pdl\cmsis/include/core_cm0plus.h **** 
 653:Generated_Source\PSoC6\pdl\cmsis/include/core_cm0plus.h **** #if defined (__MPU_PRESENT) && (__MPU_PRESENT == 1U)
 654:Generated_Source\PSoC6\pdl\cmsis/include/core_cm0plus.h ****   #define MPU_BASE          (SCS_BASE +  0x0D90UL)                    /*!< Memory Protection Unit *
 655:Generated_Source\PSoC6\pdl\cmsis/include/core_cm0plus.h ****   #define MPU               ((MPU_Type       *)     MPU_BASE      )   /*!< Memory Protection Unit *
 656:Generated_Source\PSoC6\pdl\cmsis/include/core_cm0plus.h **** #endif
 657:Generated_Source\PSoC6\pdl\cmsis/include/core_cm0plus.h **** 
 658:Generated_Source\PSoC6\pdl\cmsis/include/core_cm0plus.h **** /*@} */
 659:Generated_Source\PSoC6\pdl\cmsis/include/core_cm0plus.h **** 
 660:Generated_Source\PSoC6\pdl\cmsis/include/core_cm0plus.h **** 
 661:Generated_Source\PSoC6\pdl\cmsis/include/core_cm0plus.h **** 
 662:Generated_Source\PSoC6\pdl\cmsis/include/core_cm0plus.h **** /*******************************************************************************
 663:Generated_Source\PSoC6\pdl\cmsis/include/core_cm0plus.h ****  *                Hardware Abstraction Layer
 664:Generated_Source\PSoC6\pdl\cmsis/include/core_cm0plus.h ****   Core Function Interface contains:
 665:Generated_Source\PSoC6\pdl\cmsis/include/core_cm0plus.h ****   - Core NVIC Functions
 666:Generated_Source\PSoC6\pdl\cmsis/include/core_cm0plus.h ****   - Core SysTick Functions
 667:Generated_Source\PSoC6\pdl\cmsis/include/core_cm0plus.h ****   - Core Register Access Functions
 668:Generated_Source\PSoC6\pdl\cmsis/include/core_cm0plus.h ****  ******************************************************************************/
 669:Generated_Source\PSoC6\pdl\cmsis/include/core_cm0plus.h **** /**
 670:Generated_Source\PSoC6\pdl\cmsis/include/core_cm0plus.h ****   \defgroup CMSIS_Core_FunctionInterface Functions and Instructions Reference
 671:Generated_Source\PSoC6\pdl\cmsis/include/core_cm0plus.h **** */
 672:Generated_Source\PSoC6\pdl\cmsis/include/core_cm0plus.h **** 
 673:Generated_Source\PSoC6\pdl\cmsis/include/core_cm0plus.h **** 
 674:Generated_Source\PSoC6\pdl\cmsis/include/core_cm0plus.h **** 
 675:Generated_Source\PSoC6\pdl\cmsis/include/core_cm0plus.h **** /* ##########################   NVIC functions  #################################### */
 676:Generated_Source\PSoC6\pdl\cmsis/include/core_cm0plus.h **** /**
 677:Generated_Source\PSoC6\pdl\cmsis/include/core_cm0plus.h ****   \ingroup  CMSIS_Core_FunctionInterface
 678:Generated_Source\PSoC6\pdl\cmsis/include/core_cm0plus.h ****   \defgroup CMSIS_Core_NVICFunctions NVIC Functions
 679:Generated_Source\PSoC6\pdl\cmsis/include/core_cm0plus.h ****   \brief    Functions that manage interrupts and exceptions via the NVIC.
 680:Generated_Source\PSoC6\pdl\cmsis/include/core_cm0plus.h ****   @{
 681:Generated_Source\PSoC6\pdl\cmsis/include/core_cm0plus.h ****  */
 682:Generated_Source\PSoC6\pdl\cmsis/include/core_cm0plus.h **** 
 683:Generated_Source\PSoC6\pdl\cmsis/include/core_cm0plus.h **** #ifndef CMSIS_NVIC_VIRTUAL
 684:Generated_Source\PSoC6\pdl\cmsis/include/core_cm0plus.h **** /*#define NVIC_SetPriorityGrouping    __NVIC_SetPriorityGrouping   not available for Cortex-M0+ */
 685:Generated_Source\PSoC6\pdl\cmsis/include/core_cm0plus.h **** /*#define NVIC_GetPriorityGrouping    __NVIC_GetPriorityGrouping   not available for Cortex-M0+ */
 686:Generated_Source\PSoC6\pdl\cmsis/include/core_cm0plus.h ****   #define NVIC_EnableIRQ              __NVIC_EnableIRQ
 687:Generated_Source\PSoC6\pdl\cmsis/include/core_cm0plus.h ****   #define NVIC_GetEnableIRQ           __NVIC_GetEnableIRQ
 688:Generated_Source\PSoC6\pdl\cmsis/include/core_cm0plus.h ****   #define NVIC_DisableIRQ             __NVIC_DisableIRQ
 689:Generated_Source\PSoC6\pdl\cmsis/include/core_cm0plus.h ****   #define NVIC_GetPendingIRQ          __NVIC_GetPendingIRQ
 690:Generated_Source\PSoC6\pdl\cmsis/include/core_cm0plus.h ****   #define NVIC_SetPendingIRQ          __NVIC_SetPendingIRQ
 691:Generated_Source\PSoC6\pdl\cmsis/include/core_cm0plus.h ****   #define NVIC_ClearPendingIRQ        __NVIC_ClearPendingIRQ
 692:Generated_Source\PSoC6\pdl\cmsis/include/core_cm0plus.h **** /*#define NVIC_GetActive              __NVIC_GetActive             not available for Cortex-M0+ */
 693:Generated_Source\PSoC6\pdl\cmsis/include/core_cm0plus.h ****   #define NVIC_SetPriority            __NVIC_SetPriority
 694:Generated_Source\PSoC6\pdl\cmsis/include/core_cm0plus.h ****   #define NVIC_GetPriority            __NVIC_GetPriority
 695:Generated_Source\PSoC6\pdl\cmsis/include/core_cm0plus.h **** #endif /* CMSIS_NVIC_VIRTUAL */
 696:Generated_Source\PSoC6\pdl\cmsis/include/core_cm0plus.h **** 
 697:Generated_Source\PSoC6\pdl\cmsis/include/core_cm0plus.h **** #ifndef CMSIS_VECTAB_VIRTUAL
 698:Generated_Source\PSoC6\pdl\cmsis/include/core_cm0plus.h ****   #define NVIC_SetVector              __NVIC_SetVector
 699:Generated_Source\PSoC6\pdl\cmsis/include/core_cm0plus.h ****   #define NVIC_GetVector              __NVIC_GetVector
 700:Generated_Source\PSoC6\pdl\cmsis/include/core_cm0plus.h **** #endif  /* (CMSIS_VECTAB_VIRTUAL) */
 701:Generated_Source\PSoC6\pdl\cmsis/include/core_cm0plus.h **** 
 702:Generated_Source\PSoC6\pdl\cmsis/include/core_cm0plus.h **** #define NVIC_USER_IRQ_OFFSET          16
 703:Generated_Source\PSoC6\pdl\cmsis/include/core_cm0plus.h **** 
 704:Generated_Source\PSoC6\pdl\cmsis/include/core_cm0plus.h **** 
 705:Generated_Source\PSoC6\pdl\cmsis/include/core_cm0plus.h **** /* Interrupt Priorities are WORD accessible only under ARMv6M                   */
 706:Generated_Source\PSoC6\pdl\cmsis/include/core_cm0plus.h **** /* The following MACROS handle generation of the register offset and byte masks */
 707:Generated_Source\PSoC6\pdl\cmsis/include/core_cm0plus.h **** #define _BIT_SHIFT(IRQn)         (  ((((uint32_t)(int32_t)(IRQn))         )      &  0x03UL) * 8UL)
 708:Generated_Source\PSoC6\pdl\cmsis/include/core_cm0plus.h **** #define _SHP_IDX(IRQn)           ( (((((uint32_t)(int32_t)(IRQn)) & 0x0FUL)-8UL) >>    2UL)      )
ARM GAS  C:\Users\salaz\AppData\Local\Temp\ccvE4Xni.s 			page 41


 709:Generated_Source\PSoC6\pdl\cmsis/include/core_cm0plus.h **** #define _IP_IDX(IRQn)            (   (((uint32_t)(int32_t)(IRQn))                >>    2UL)      )
 710:Generated_Source\PSoC6\pdl\cmsis/include/core_cm0plus.h **** 
 711:Generated_Source\PSoC6\pdl\cmsis/include/core_cm0plus.h **** 
 712:Generated_Source\PSoC6\pdl\cmsis/include/core_cm0plus.h **** /**
 713:Generated_Source\PSoC6\pdl\cmsis/include/core_cm0plus.h ****   \brief   Enable Interrupt
 714:Generated_Source\PSoC6\pdl\cmsis/include/core_cm0plus.h ****   \details Enables a device specific interrupt in the NVIC interrupt controller.
 715:Generated_Source\PSoC6\pdl\cmsis/include/core_cm0plus.h ****   \param [in]      IRQn  Device specific interrupt number.
 716:Generated_Source\PSoC6\pdl\cmsis/include/core_cm0plus.h ****   \note    IRQn must not be negative.
 717:Generated_Source\PSoC6\pdl\cmsis/include/core_cm0plus.h ****  */
 718:Generated_Source\PSoC6\pdl\cmsis/include/core_cm0plus.h **** __STATIC_INLINE void __NVIC_EnableIRQ(IRQn_Type IRQn)
 719:Generated_Source\PSoC6\pdl\cmsis/include/core_cm0plus.h **** {
 720:Generated_Source\PSoC6\pdl\cmsis/include/core_cm0plus.h ****   if ((int32_t)(IRQn) >= 0)
 721:Generated_Source\PSoC6\pdl\cmsis/include/core_cm0plus.h ****   {
 722:Generated_Source\PSoC6\pdl\cmsis/include/core_cm0plus.h ****     NVIC->ISER[0U] = (uint32_t)(1UL << (((uint32_t)(int32_t)IRQn) & 0x1FUL));
 723:Generated_Source\PSoC6\pdl\cmsis/include/core_cm0plus.h ****   }
 724:Generated_Source\PSoC6\pdl\cmsis/include/core_cm0plus.h **** }
 725:Generated_Source\PSoC6\pdl\cmsis/include/core_cm0plus.h **** 
 726:Generated_Source\PSoC6\pdl\cmsis/include/core_cm0plus.h **** 
 727:Generated_Source\PSoC6\pdl\cmsis/include/core_cm0plus.h **** /**
 728:Generated_Source\PSoC6\pdl\cmsis/include/core_cm0plus.h ****   \brief   Get Interrupt Enable status
 729:Generated_Source\PSoC6\pdl\cmsis/include/core_cm0plus.h ****   \details Returns a device specific interrupt enable status from the NVIC interrupt controller.
 730:Generated_Source\PSoC6\pdl\cmsis/include/core_cm0plus.h ****   \param [in]      IRQn  Device specific interrupt number.
 731:Generated_Source\PSoC6\pdl\cmsis/include/core_cm0plus.h ****   \return             0  Interrupt is not enabled.
 732:Generated_Source\PSoC6\pdl\cmsis/include/core_cm0plus.h ****   \return             1  Interrupt is enabled.
 733:Generated_Source\PSoC6\pdl\cmsis/include/core_cm0plus.h ****   \note    IRQn must not be negative.
 734:Generated_Source\PSoC6\pdl\cmsis/include/core_cm0plus.h ****  */
 735:Generated_Source\PSoC6\pdl\cmsis/include/core_cm0plus.h **** __STATIC_INLINE uint32_t __NVIC_GetEnableIRQ(IRQn_Type IRQn)
 736:Generated_Source\PSoC6\pdl\cmsis/include/core_cm0plus.h **** {
 737:Generated_Source\PSoC6\pdl\cmsis/include/core_cm0plus.h ****   if ((int32_t)(IRQn) >= 0)
 738:Generated_Source\PSoC6\pdl\cmsis/include/core_cm0plus.h ****   {
 739:Generated_Source\PSoC6\pdl\cmsis/include/core_cm0plus.h ****     return((uint32_t)(((NVIC->ISER[0U] & (1UL << (((uint32_t)(int32_t)IRQn) & 0x1FUL))) != 0UL) ? 1
 740:Generated_Source\PSoC6\pdl\cmsis/include/core_cm0plus.h ****   }
 741:Generated_Source\PSoC6\pdl\cmsis/include/core_cm0plus.h ****   else
 742:Generated_Source\PSoC6\pdl\cmsis/include/core_cm0plus.h ****   {
 743:Generated_Source\PSoC6\pdl\cmsis/include/core_cm0plus.h ****     return(0U);
 744:Generated_Source\PSoC6\pdl\cmsis/include/core_cm0plus.h ****   }
 745:Generated_Source\PSoC6\pdl\cmsis/include/core_cm0plus.h **** }
 746:Generated_Source\PSoC6\pdl\cmsis/include/core_cm0plus.h **** 
 747:Generated_Source\PSoC6\pdl\cmsis/include/core_cm0plus.h **** 
 748:Generated_Source\PSoC6\pdl\cmsis/include/core_cm0plus.h **** /**
 749:Generated_Source\PSoC6\pdl\cmsis/include/core_cm0plus.h ****   \brief   Disable Interrupt
 750:Generated_Source\PSoC6\pdl\cmsis/include/core_cm0plus.h ****   \details Disables a device specific interrupt in the NVIC interrupt controller.
 751:Generated_Source\PSoC6\pdl\cmsis/include/core_cm0plus.h ****   \param [in]      IRQn  Device specific interrupt number.
 752:Generated_Source\PSoC6\pdl\cmsis/include/core_cm0plus.h ****   \note    IRQn must not be negative.
 753:Generated_Source\PSoC6\pdl\cmsis/include/core_cm0plus.h ****  */
 754:Generated_Source\PSoC6\pdl\cmsis/include/core_cm0plus.h **** __STATIC_INLINE void __NVIC_DisableIRQ(IRQn_Type IRQn)
 755:Generated_Source\PSoC6\pdl\cmsis/include/core_cm0plus.h **** {
 756:Generated_Source\PSoC6\pdl\cmsis/include/core_cm0plus.h ****   if ((int32_t)(IRQn) >= 0)
 757:Generated_Source\PSoC6\pdl\cmsis/include/core_cm0plus.h ****   {
 758:Generated_Source\PSoC6\pdl\cmsis/include/core_cm0plus.h ****     NVIC->ICER[0U] = (uint32_t)(1UL << (((uint32_t)(int32_t)IRQn) & 0x1FUL));
 759:Generated_Source\PSoC6\pdl\cmsis/include/core_cm0plus.h ****     __DSB();
 760:Generated_Source\PSoC6\pdl\cmsis/include/core_cm0plus.h ****     __ISB();
 761:Generated_Source\PSoC6\pdl\cmsis/include/core_cm0plus.h ****   }
 762:Generated_Source\PSoC6\pdl\cmsis/include/core_cm0plus.h **** }
 763:Generated_Source\PSoC6\pdl\cmsis/include/core_cm0plus.h **** 
 764:Generated_Source\PSoC6\pdl\cmsis/include/core_cm0plus.h **** 
 765:Generated_Source\PSoC6\pdl\cmsis/include/core_cm0plus.h **** /**
ARM GAS  C:\Users\salaz\AppData\Local\Temp\ccvE4Xni.s 			page 42


 766:Generated_Source\PSoC6\pdl\cmsis/include/core_cm0plus.h ****   \brief   Get Pending Interrupt
 767:Generated_Source\PSoC6\pdl\cmsis/include/core_cm0plus.h ****   \details Reads the NVIC pending register and returns the pending bit for the specified device spe
 768:Generated_Source\PSoC6\pdl\cmsis/include/core_cm0plus.h ****   \param [in]      IRQn  Device specific interrupt number.
 769:Generated_Source\PSoC6\pdl\cmsis/include/core_cm0plus.h ****   \return             0  Interrupt status is not pending.
 770:Generated_Source\PSoC6\pdl\cmsis/include/core_cm0plus.h ****   \return             1  Interrupt status is pending.
 771:Generated_Source\PSoC6\pdl\cmsis/include/core_cm0plus.h ****   \note    IRQn must not be negative.
 772:Generated_Source\PSoC6\pdl\cmsis/include/core_cm0plus.h ****  */
 773:Generated_Source\PSoC6\pdl\cmsis/include/core_cm0plus.h **** __STATIC_INLINE uint32_t __NVIC_GetPendingIRQ(IRQn_Type IRQn)
 774:Generated_Source\PSoC6\pdl\cmsis/include/core_cm0plus.h **** {
 775:Generated_Source\PSoC6\pdl\cmsis/include/core_cm0plus.h ****   if ((int32_t)(IRQn) >= 0)
 776:Generated_Source\PSoC6\pdl\cmsis/include/core_cm0plus.h ****   {
 777:Generated_Source\PSoC6\pdl\cmsis/include/core_cm0plus.h ****     return((uint32_t)(((NVIC->ISPR[0U] & (1UL << (((uint32_t)(int32_t)IRQn) & 0x1FUL))) != 0UL) ? 1
 778:Generated_Source\PSoC6\pdl\cmsis/include/core_cm0plus.h ****   }
 779:Generated_Source\PSoC6\pdl\cmsis/include/core_cm0plus.h ****   else
 780:Generated_Source\PSoC6\pdl\cmsis/include/core_cm0plus.h ****   {
 781:Generated_Source\PSoC6\pdl\cmsis/include/core_cm0plus.h ****     return(0U);
 782:Generated_Source\PSoC6\pdl\cmsis/include/core_cm0plus.h ****   }
 783:Generated_Source\PSoC6\pdl\cmsis/include/core_cm0plus.h **** }
 784:Generated_Source\PSoC6\pdl\cmsis/include/core_cm0plus.h **** 
 785:Generated_Source\PSoC6\pdl\cmsis/include/core_cm0plus.h **** 
 786:Generated_Source\PSoC6\pdl\cmsis/include/core_cm0plus.h **** /**
 787:Generated_Source\PSoC6\pdl\cmsis/include/core_cm0plus.h ****   \brief   Set Pending Interrupt
 788:Generated_Source\PSoC6\pdl\cmsis/include/core_cm0plus.h ****   \details Sets the pending bit of a device specific interrupt in the NVIC pending register.
 789:Generated_Source\PSoC6\pdl\cmsis/include/core_cm0plus.h ****   \param [in]      IRQn  Device specific interrupt number.
 790:Generated_Source\PSoC6\pdl\cmsis/include/core_cm0plus.h ****   \note    IRQn must not be negative.
 791:Generated_Source\PSoC6\pdl\cmsis/include/core_cm0plus.h ****  */
 792:Generated_Source\PSoC6\pdl\cmsis/include/core_cm0plus.h **** __STATIC_INLINE void __NVIC_SetPendingIRQ(IRQn_Type IRQn)
 793:Generated_Source\PSoC6\pdl\cmsis/include/core_cm0plus.h **** {
 794:Generated_Source\PSoC6\pdl\cmsis/include/core_cm0plus.h ****   if ((int32_t)(IRQn) >= 0)
 795:Generated_Source\PSoC6\pdl\cmsis/include/core_cm0plus.h ****   {
 796:Generated_Source\PSoC6\pdl\cmsis/include/core_cm0plus.h ****     NVIC->ISPR[0U] = (uint32_t)(1UL << (((uint32_t)(int32_t)IRQn) & 0x1FUL));
 797:Generated_Source\PSoC6\pdl\cmsis/include/core_cm0plus.h ****   }
 798:Generated_Source\PSoC6\pdl\cmsis/include/core_cm0plus.h **** }
 799:Generated_Source\PSoC6\pdl\cmsis/include/core_cm0plus.h **** 
 800:Generated_Source\PSoC6\pdl\cmsis/include/core_cm0plus.h **** 
 801:Generated_Source\PSoC6\pdl\cmsis/include/core_cm0plus.h **** /**
 802:Generated_Source\PSoC6\pdl\cmsis/include/core_cm0plus.h ****   \brief   Clear Pending Interrupt
 803:Generated_Source\PSoC6\pdl\cmsis/include/core_cm0plus.h ****   \details Clears the pending bit of a device specific interrupt in the NVIC pending register.
 804:Generated_Source\PSoC6\pdl\cmsis/include/core_cm0plus.h ****   \param [in]      IRQn  Device specific interrupt number.
 805:Generated_Source\PSoC6\pdl\cmsis/include/core_cm0plus.h ****   \note    IRQn must not be negative.
 806:Generated_Source\PSoC6\pdl\cmsis/include/core_cm0plus.h ****  */
 807:Generated_Source\PSoC6\pdl\cmsis/include/core_cm0plus.h **** __STATIC_INLINE void __NVIC_ClearPendingIRQ(IRQn_Type IRQn)
 808:Generated_Source\PSoC6\pdl\cmsis/include/core_cm0plus.h **** {
 809:Generated_Source\PSoC6\pdl\cmsis/include/core_cm0plus.h ****   if ((int32_t)(IRQn) >= 0)
 471              		.loc 3 809 0
 472 0048 002A     		cmp	r2, #0
 473 004a 07DB     		blt	.L20
 810:Generated_Source\PSoC6\pdl\cmsis/include/core_cm0plus.h ****   {
 811:Generated_Source\PSoC6\pdl\cmsis/include/core_cm0plus.h ****     NVIC->ICPR[0U] = (uint32_t)(1UL << (((uint32_t)(int32_t)IRQn) & 0x1FUL));
 474              		.loc 3 811 0
 475 004c 1F23     		movs	r3, #31
 476 004e 1A40     		ands	r2, r3
 477              	.LVL49:
 478 0050 1E3B     		subs	r3, r3, #30
 479 0052 9340     		lsls	r3, r3, r2
 480 0054 C022     		movs	r2, #192
 481 0056 5200     		lsls	r2, r2, #1
ARM GAS  C:\Users\salaz\AppData\Local\Temp\ccvE4Xni.s 			page 43


 482 0058 0349     		ldr	r1, .L23+8
 483 005a 8B50     		str	r3, [r1, r2]
 484              	.LVL50:
 485              	.L20:
 486              	.LBE96:
 487              	.LBE95:
  95:TimingMaster.c **** }
 488              		.loc 1 95 0
 489              		@ sp needed
 490 005c 70BD     		pop	{r4, r5, r6, pc}
 491              	.L24:
 492 005e C046     		.align	2
 493              	.L23:
 494 0060 00022640 		.word	1076232704
 495 0064 00000000 		.word	WatchDog_IRQ_cfg
 496 0068 00E100E0 		.word	-536813312
 497              		.cfi_endproc
 498              	.LFE793:
 499              		.size	WatchDogHandler, .-WatchDogHandler
 500              		.global	__aeabi_uldivmod
 501              		.section	.text.TimingMaster_ConfigureTimer,"ax",%progbits
 502              		.align	2
 503              		.global	TimingMaster_ConfigureTimer
 504              		.code	16
 505              		.thumb_func
 506              		.type	TimingMaster_ConfigureTimer, %function
 507              	TimingMaster_ConfigureTimer:
 508              	.LFB794:
  96:TimingMaster.c **** //-------------------------------------------------------------//
  97:TimingMaster.c **** //-----------------------TIMER-MANAGEMENT----------------------//
  98:TimingMaster.c **** //-------------------------------------------------------------//
  99:TimingMaster.c **** 
 100:TimingMaster.c **** bool TimingMaster_ConfigureTimer(uint8 id, uint64 period_ms)
 101:TimingMaster.c **** {
 509              		.loc 1 101 0
 510              		.cfi_startproc
 511              		@ args = 0, pretend = 0, frame = 0
 512              		@ frame_needed = 0, uses_anonymous_args = 0
 513              	.LVL51:
 514 0000 F0B5     		push	{r4, r5, r6, r7, lr}
 515              		.cfi_def_cfa_offset 20
 516              		.cfi_offset 4, -20
 517              		.cfi_offset 5, -16
 518              		.cfi_offset 6, -12
 519              		.cfi_offset 7, -8
 520              		.cfi_offset 14, -4
 521 0002 4746     		mov	r7, r8
 522 0004 80B4     		push	{r7}
 523              		.cfi_def_cfa_offset 24
 524              		.cfi_offset 8, -24
 525 0006 0600     		movs	r6, r0
 526 0008 1400     		movs	r4, r2
 527 000a 1D00     		movs	r5, r3
 102:TimingMaster.c ****     uint32 period_count = (uint32)(period_ms * 65535 / 2 / 1000);
 528              		.loc 1 102 0
 529 000c 130C     		lsrs	r3, r2, #16
 530 000e 2904     		lsls	r1, r5, #16
ARM GAS  C:\Users\salaz\AppData\Local\Temp\ccvE4Xni.s 			page 44


 531 0010 1943     		orrs	r1, r3
 532 0012 1004     		lsls	r0, r2, #16
 533              	.LVL52:
 534 0014 001B     		subs	r0, r0, r4
 535 0016 A941     		sbcs	r1, r1, r5
 536 0018 FA22     		movs	r2, #250
 537              	.LVL53:
 538 001a D200     		lsls	r2, r2, #3
 539 001c 0023     		movs	r3, #0
 540 001e FFF7FEFF 		bl	__aeabi_uldivmod
 541              	.LVL54:
 542              	.LBB111:
 103:TimingMaster.c ****     int8 timer_match_index = -1;
 104:TimingMaster.c ****     
 105:TimingMaster.c ****     // Scan for id index in timer list
 106:TimingMaster.c ****     for(uint8 i = 0; i < num_timers; i++)
 543              		.loc 1 106 0
 544 0022 0023     		movs	r3, #0
 545              	.LBE111:
 103:TimingMaster.c ****     int8 timer_match_index = -1;
 546              		.loc 1 103 0
 547 0024 0121     		movs	r1, #1
 548 0026 4942     		rsbs	r1, r1, #0
 549              	.LBB112:
 550              		.loc 1 106 0
 551 0028 09E0     		b	.L26
 552              	.LVL55:
 553              	.L28:
 107:TimingMaster.c ****     {
 108:TimingMaster.c ****         if(timers[i].id == id) timer_match_index = i;
 554              		.loc 1 108 0
 555 002a 5A00     		lsls	r2, r3, #1
 556 002c D218     		adds	r2, r2, r3
 557 002e 9200     		lsls	r2, r2, #2
 558 0030 414F     		ldr	r7, .L40
 559 0032 D25D     		ldrb	r2, [r2, r7]
 560 0034 B242     		cmp	r2, r6
 561 0036 00D1     		bne	.L27
 562              		.loc 1 108 0 is_stmt 0 discriminator 1
 563 0038 59B2     		sxtb	r1, r3
 564              	.LVL56:
 565              	.L27:
 106:TimingMaster.c ****     {
 566              		.loc 1 106 0 is_stmt 1 discriminator 2
 567 003a 0133     		adds	r3, r3, #1
 568              	.LVL57:
 569 003c DBB2     		uxtb	r3, r3
 570              	.LVL58:
 571              	.L26:
 106:TimingMaster.c ****     {
 572              		.loc 1 106 0 is_stmt 0 discriminator 1
 573 003e 3F4A     		ldr	r2, .L40+4
 574 0040 1778     		ldrb	r7, [r2]
 575 0042 BB42     		cmp	r3, r7
 576 0044 F1D3     		bcc	.L28
 577              	.LBE112:
 109:TimingMaster.c ****     }
ARM GAS  C:\Users\salaz\AppData\Local\Temp\ccvE4Xni.s 			page 45


 110:TimingMaster.c ****     // If existing timer then modify
 111:TimingMaster.c ****     if( (period_ms != 0) && (timer_match_index != -1) )
 578              		.loc 1 111 0 is_stmt 1
 579 0046 2300     		movs	r3, r4
 580              	.LVL59:
 581 0048 2B43     		orrs	r3, r5
 582 004a 09D0     		beq	.L29
 583 004c 4B1C     		adds	r3, r1, #1
 584 004e 07D0     		beq	.L29
 112:TimingMaster.c ****     {
 113:TimingMaster.c ****         timers[timer_match_index].period = period_count;
 585              		.loc 1 113 0
 586 0050 394C     		ldr	r4, .L40
 587 0052 4B00     		lsls	r3, r1, #1
 588 0054 5A18     		adds	r2, r3, r1
 589 0056 9200     		lsls	r2, r2, #2
 590 0058 A218     		adds	r2, r4, r2
 591 005a 5060     		str	r0, [r2, #4]
 114:TimingMaster.c ****         timers[timer_match_index].remaining = period_count;
 592              		.loc 1 114 0
 593 005c 9060     		str	r0, [r2, #8]
 594 005e 41E0     		b	.L31
 595              	.L29:
 115:TimingMaster.c ****     }
 116:TimingMaster.c ****     // If new timer then create
 117:TimingMaster.c ****     else if( (period_ms != 0) && (timer_match_index == -1) )
 596              		.loc 1 117 0
 597 0060 2300     		movs	r3, r4
 598 0062 2B43     		orrs	r3, r5
 599 0064 1AD0     		beq	.L32
 600 0066 4B1C     		adds	r3, r1, #1
 601 0068 18D1     		bne	.L32
 118:TimingMaster.c ****     {
 119:TimingMaster.c ****         timers[num_timers].id = id;
 602              		.loc 1 119 0
 603 006a 3349     		ldr	r1, .L40
 604              	.LVL60:
 605 006c 7B00     		lsls	r3, r7, #1
 606 006e DA19     		adds	r2, r3, r7
 607 0070 9200     		lsls	r2, r2, #2
 608 0072 5654     		strb	r6, [r2, r1]
 120:TimingMaster.c ****         timers[num_timers].period = period_count;
 609              		.loc 1 120 0
 610 0074 DA19     		adds	r2, r3, r7
 611 0076 9200     		lsls	r2, r2, #2
 612 0078 8A18     		adds	r2, r1, r2
 613 007a 5060     		str	r0, [r2, #4]
 121:TimingMaster.c ****         timers[num_timers].remaining = period_count;
 614              		.loc 1 121 0
 615 007c 9060     		str	r0, [r2, #8]
 122:TimingMaster.c ****         
 123:TimingMaster.c ****         if(num_timers++ == 0)
 616              		.loc 1 123 0
 617 007e 7A1C     		adds	r2, r7, #1
 618 0080 2E4B     		ldr	r3, .L40+4
 619 0082 1A70     		strb	r2, [r3]
 620 0084 002F     		cmp	r7, #0
ARM GAS  C:\Users\salaz\AppData\Local\Temp\ccvE4Xni.s 			page 46


 621 0086 2DD1     		bne	.L31
 622              	.LVL61:
 623              	.LBB113:
 624              	.LBB114:
 370:Generated_Source\PSoC6\pdl\drivers/peripheral/mcwdt/cy_mcwdt.h **** 
 625              		.loc 2 370 0
 626 0088 2D4A     		ldr	r2, .L40+8
 627 008a 5369     		ldr	r3, [r2, #20]
 628 008c 0221     		movs	r1, #2
 629 008e FF31     		adds	r1, r1, #255
 630 0090 0B43     		orrs	r3, r1
 631 0092 5361     		str	r3, [r2, #20]
 372:Generated_Source\PSoC6\pdl\drivers/peripheral/mcwdt/cy_mcwdt.h **** }
 632              		.loc 2 372 0
 633 0094 3E20     		movs	r0, #62
 634              	.LVL62:
 635 0096 FFF7FEFF 		bl	Cy_SysLib_DelayUs
 636              	.LVL63:
 637 009a 23E0     		b	.L31
 638              	.LVL64:
 639              	.L32:
 640              	.LBE114:
 641              	.LBE113:
 124:TimingMaster.c ****         {
 125:TimingMaster.c ****             Cy_MCWDT_Enable(MCWDT_HW, CY_MCWDT_CTR0|CY_MCWDT_CTR1, MCWDT_TWO_LF_CLK_CYCLES_DELAY);
 126:TimingMaster.c ****         }
 127:TimingMaster.c ****     }
 128:TimingMaster.c ****     // If existing and period = 0 then remove
 129:TimingMaster.c ****     else if( (period_ms == 0) && (timer_match_index != -1) )
 642              		.loc 1 129 0
 643 009c 2C43     		orrs	r4, r5
 644 009e 43D1     		bne	.L37
 645              		.loc 1 129 0 is_stmt 0 discriminator 1
 646 00a0 4B1C     		adds	r3, r1, #1
 647 00a2 43D0     		beq	.L38
 648              	.LBB115:
 130:TimingMaster.c ****     {
 131:TimingMaster.c ****         for(uint8 i = timer_match_index; i < num_timers - 1; i++)
 649              		.loc 1 131 0 is_stmt 1
 650 00a4 C8B2     		uxtb	r0, r1
 651              	.LVL65:
 652 00a6 0DE0     		b	.L35
 653              	.LVL66:
 654              	.L36:
 132:TimingMaster.c ****         {
 133:TimingMaster.c ****             timers[i] = timers[i+1];
 655              		.loc 1 133 0 discriminator 3
 656 00a8 421C     		adds	r2, r0, #1
 657 00aa 234B     		ldr	r3, .L40
 658 00ac 4100     		lsls	r1, r0, #1
 659 00ae 0918     		adds	r1, r1, r0
 660 00b0 8900     		lsls	r1, r1, #2
 661 00b2 5400     		lsls	r4, r2, #1
 662 00b4 A218     		adds	r2, r4, r2
 663 00b6 9200     		lsls	r2, r2, #2
 664 00b8 5918     		adds	r1, r3, r1
 665 00ba 9B18     		adds	r3, r3, r2
ARM GAS  C:\Users\salaz\AppData\Local\Temp\ccvE4Xni.s 			page 47


 666 00bc 34CB     		ldmia	r3!, {r2, r4, r5}
 667 00be 34C1     		stmia	r1!, {r2, r4, r5}
 131:TimingMaster.c ****         {
 668              		.loc 1 131 0 discriminator 3
 669 00c0 0130     		adds	r0, r0, #1
 670              	.LVL67:
 671 00c2 C0B2     		uxtb	r0, r0
 672              	.LVL68:
 673              	.L35:
 131:TimingMaster.c ****         {
 674              		.loc 1 131 0 is_stmt 0 discriminator 1
 675 00c4 7B1E     		subs	r3, r7, #1
 676 00c6 9842     		cmp	r0, r3
 677 00c8 EEDB     		blt	.L36
 678              	.LBE115:
 134:TimingMaster.c ****         }
 135:TimingMaster.c ****         if(--num_timers == 0)
 679              		.loc 1 135 0 is_stmt 1
 680 00ca DFB2     		uxtb	r7, r3
 681 00cc 1B4B     		ldr	r3, .L40+4
 682 00ce 1F70     		strb	r7, [r3]
 683 00d0 002F     		cmp	r7, #0
 684 00d2 07D1     		bne	.L31
 685              	.LVL69:
 686              	.LBB116:
 687              	.LBB117:
 411:Generated_Source\PSoC6\pdl\drivers/peripheral/mcwdt/cy_mcwdt.h **** 
 688              		.loc 2 411 0
 689 00d4 1A4A     		ldr	r2, .L40+8
 690 00d6 5169     		ldr	r1, [r2, #20]
 691 00d8 1A4B     		ldr	r3, .L40+12
 692 00da 0B40     		ands	r3, r1
 693 00dc 5361     		str	r3, [r2, #20]
 413:Generated_Source\PSoC6\pdl\drivers/peripheral/mcwdt/cy_mcwdt.h **** }
 694              		.loc 2 413 0
 695 00de 3E20     		movs	r0, #62
 696              	.LVL70:
 697 00e0 FFF7FEFF 		bl	Cy_SysLib_DelayUs
 698              	.LVL71:
 699              	.L31:
 700              	.LBE117:
 701              	.LBE116:
 702              	.LBB118:
 703              	.LBB119:
 876:Generated_Source\PSoC6\pdl\drivers/peripheral/mcwdt/cy_mcwdt.h ****             break;
 704              		.loc 2 876 0
 705 00e4 164D     		ldr	r5, .L40+8
 706 00e6 6F68     		ldr	r7, [r5, #4]
 707              	.LVL72:
 708              	.LBE119:
 709              	.LBE118:
 710              	.LBB120:
 711              	.LBB121:
 873:Generated_Source\PSoC6\pdl\drivers/peripheral/mcwdt/cy_mcwdt.h ****             break;
 712              		.loc 2 873 0
 713 00e8 6E68     		ldr	r6, [r5, #4]
 714 00ea 3604     		lsls	r6, r6, #16
ARM GAS  C:\Users\salaz\AppData\Local\Temp\ccvE4Xni.s 			page 48


 715 00ec 360C     		lsrs	r6, r6, #16
 716              	.LVL73:
 717              	.LBE121:
 718              	.LBE120:
 719              	.LBB122:
 720              	.LBB123:
 796:Generated_Source\PSoC6\pdl\drivers/peripheral/mcwdt/cy_mcwdt.h ****                                           _FLD2VAL(MCWDT_STRUCT_MCWDT_MATCH_WDT_MATCH1, base->MCWDT
 721              		.loc 2 796 0
 722 00ee EC68     		ldr	r4, [r5, #12]
 723 00f0 2404     		lsls	r4, r4, #16
 724 00f2 240C     		lsrs	r4, r4, #16
 725              	.LVL74:
 726              	.LBE123:
 727              	.LBE122:
 728              	.LBB124:
 729              	.LBB125:
 930:Generated_Source\PSoC6\pdl\drivers/peripheral/mcwdt/cy_mcwdt.h ****     
 730              		.loc 2 930 0
 731 00f4 6B69     		ldr	r3, [r5, #20]
 732 00f6 144A     		ldr	r2, .L40+16
 733 00f8 9046     		mov	r8, r2
 734 00fa 1343     		orrs	r3, r2
 735 00fc 6B61     		str	r3, [r5, #20]
 932:Generated_Source\PSoC6\pdl\drivers/peripheral/mcwdt/cy_mcwdt.h ****     
 736              		.loc 2 932 0
 737 00fe 3E20     		movs	r0, #62
 738 0100 FFF7FEFF 		bl	Cy_SysLib_DelayUs
 739              	.LVL75:
 934:Generated_Source\PSoC6\pdl\drivers/peripheral/mcwdt/cy_mcwdt.h ****     
 740              		.loc 2 934 0
 741 0104 6B69     		ldr	r3, [r5, #20]
 742 0106 4246     		mov	r2, r8
 743 0108 1343     		orrs	r3, r2
 744 010a 6B61     		str	r3, [r5, #20]
 936:Generated_Source\PSoC6\pdl\drivers/peripheral/mcwdt/cy_mcwdt.h **** }
 745              		.loc 2 936 0
 746 010c 3E20     		movs	r0, #62
 747 010e FFF7FEFF 		bl	Cy_SysLib_DelayUs
 748              	.LVL76:
 749              	.LBE125:
 750              	.LBE124:
 136:TimingMaster.c ****         {
 137:TimingMaster.c ****             Cy_MCWDT_Disable(MCWDT_HW, CY_MCWDT_CTR0|CY_MCWDT_CTR1, MCWDT_TWO_LF_CLK_CYCLES_DELAY);
 138:TimingMaster.c ****         }
 139:TimingMaster.c ****     }
 140:TimingMaster.c ****     // Invalid ID, do nothing and exit
 141:TimingMaster.c ****     else
 142:TimingMaster.c ****     {
 143:TimingMaster.c ****         // ** Throw error
 144:TimingMaster.c ****         return false;
 145:TimingMaster.c ****     }
 146:TimingMaster.c ****     // Update virtual WDT internal state
 147:TimingMaster.c ****     uint32 counter1 = Cy_MCWDT_GetCount(MCWDT_HW, CY_MCWDT_COUNTER1);
 148:TimingMaster.c ****     uint32 counter0 = Cy_MCWDT_GetCount(MCWDT_HW, CY_MCWDT_COUNTER0);
 149:TimingMaster.c ****     uint32 match0 = Cy_MCWDT_GetMatch(MCWDT_HW, CY_MCWDT_COUNTER0);
 150:TimingMaster.c ****     
 151:TimingMaster.c ****     Cy_MCWDT_ResetCounters(MCWDT_HW, CY_MCWDT_CTR0|CY_MCWDT_CTR1, MCWDT_TWO_LF_CLK_CYCLES_DELAY);
ARM GAS  C:\Users\salaz\AppData\Local\Temp\ccvE4Xni.s 			page 49


 152:TimingMaster.c ****     
 153:TimingMaster.c ****     uint32 elapsed_count = counter0 + (match0 * counter1);
 751              		.loc 1 153 0
 752 0112 3F0C     		lsrs	r7, r7, #16
 753 0114 7C43     		muls	r4, r7
 754 0116 A019     		adds	r0, r4, r6
 755              	.LVL77:
 154:TimingMaster.c ****     if(num_timers > 0) TimingMaster_Update(elapsed_count);
 756              		.loc 1 154 0
 757 0118 084B     		ldr	r3, .L40+4
 758 011a 1B78     		ldrb	r3, [r3]
 759 011c 002B     		cmp	r3, #0
 760 011e 07D0     		beq	.L39
 761              		.loc 1 154 0 is_stmt 0 discriminator 1
 762 0120 FFF7FEFF 		bl	TimingMaster_Update
 763              	.LVL78:
 155:TimingMaster.c ****     return true;
 764              		.loc 1 155 0 is_stmt 1 discriminator 1
 765 0124 0120     		movs	r0, #1
 766 0126 04E0     		b	.L34
 767              	.LVL79:
 768              	.L37:
 144:TimingMaster.c ****     }
 769              		.loc 1 144 0
 770 0128 0020     		movs	r0, #0
 771              	.LVL80:
 772 012a 02E0     		b	.L34
 773              	.LVL81:
 774              	.L38:
 775 012c 0020     		movs	r0, #0
 776              	.LVL82:
 777 012e 00E0     		b	.L34
 778              	.LVL83:
 779              	.L39:
 780              		.loc 1 155 0
 781 0130 0120     		movs	r0, #1
 782              	.LVL84:
 783              	.L34:
 156:TimingMaster.c **** }
 784              		.loc 1 156 0
 785              		@ sp needed
 786 0132 04BC     		pop	{r2}
 787 0134 9046     		mov	r8, r2
 788 0136 F0BD     		pop	{r4, r5, r6, r7, pc}
 789              	.L41:
 790              		.align	2
 791              	.L40:
 792 0138 00000000 		.word	timers
 793 013c 00000000 		.word	.LANCHOR0
 794 0140 00022640 		.word	1076232704
 795 0144 FEFEFFFF 		.word	-258
 796 0148 08080000 		.word	2056
 797              		.cfi_endproc
 798              	.LFE794:
 799              		.size	TimingMaster_ConfigureTimer, .-TimingMaster_ConfigureTimer
 800              		.section	.text.TimingMaster_Init,"ax",%progbits
 801              		.align	2
ARM GAS  C:\Users\salaz\AppData\Local\Temp\ccvE4Xni.s 			page 50


 802              		.global	TimingMaster_Init
 803              		.code	16
 804              		.thumb_func
 805              		.type	TimingMaster_Init, %function
 806              	TimingMaster_Init:
 807              	.LFB795:
 157:TimingMaster.c **** //-------------------------------------------------------------//
 158:TimingMaster.c **** //------------------------INITIALIZATION-----------------------//
 159:TimingMaster.c **** //-------------------------------------------------------------//
 160:TimingMaster.c **** 
 161:TimingMaster.c **** void TimingMaster_Init()
 162:TimingMaster.c **** {
 808              		.loc 1 162 0
 809              		.cfi_startproc
 810              		@ args = 0, pretend = 0, frame = 0
 811              		@ frame_needed = 0, uses_anonymous_args = 0
 812 0000 10B5     		push	{r4, lr}
 813              		.cfi_def_cfa_offset 8
 814              		.cfi_offset 4, -8
 815              		.cfi_offset 14, -4
 163:TimingMaster.c ****     cy_en_sysint_status_t intrReturnValue = Cy_SysInt_Init(&WatchDog_IRQ_cfg, WatchDogHandler);
 816              		.loc 1 163 0
 817 0002 1149     		ldr	r1, .L46
 818 0004 1148     		ldr	r0, .L46+4
 819 0006 FFF7FEFF 		bl	Cy_SysInt_Init
 820              	.LVL85:
 164:TimingMaster.c ****     if(intrReturnValue == CY_SYSINT_SUCCESS)
 821              		.loc 1 164 0
 822 000a 0028     		cmp	r0, #0
 823 000c 1BD1     		bne	.L42
 824              	.LBB126:
 165:TimingMaster.c ****     {
 166:TimingMaster.c ****         NVIC_ClearPendingIRQ(WatchDog_IRQ_cfg.intrSrc);
 825              		.loc 1 166 0
 826 000e 0F4B     		ldr	r3, .L46+4
 827 0010 0022     		movs	r2, #0
 828 0012 9B5E     		ldrsh	r3, [r3, r2]
 829              	.LVL86:
 830              	.LBB127:
 831              	.LBB128:
 809:Generated_Source\PSoC6\pdl\cmsis/include/core_cm0plus.h ****   {
 832              		.loc 3 809 0
 833 0014 002B     		cmp	r3, #0
 834 0016 07DB     		blt	.L44
 835              		.loc 3 811 0
 836 0018 1F21     		movs	r1, #31
 837 001a 1940     		ands	r1, r3
 838 001c 0122     		movs	r2, #1
 839 001e 8A40     		lsls	r2, r2, r1
 840 0020 C021     		movs	r1, #192
 841 0022 4900     		lsls	r1, r1, #1
 842 0024 0A48     		ldr	r0, .L46+8
 843              	.LVL87:
 844 0026 4250     		str	r2, [r0, r1]
 845              	.L44:
 846              	.LVL88:
 847              	.LBE128:
ARM GAS  C:\Users\salaz\AppData\Local\Temp\ccvE4Xni.s 			page 51


 848              	.LBE127:
 849              	.LBB129:
 850              	.LBB130:
 720:Generated_Source\PSoC6\pdl\cmsis/include/core_cm0plus.h ****   {
 851              		.loc 3 720 0
 852 0028 002B     		cmp	r3, #0
 853 002a 06DB     		blt	.L45
 722:Generated_Source\PSoC6\pdl\cmsis/include/core_cm0plus.h ****   }
 854              		.loc 3 722 0
 855 002c 1F22     		movs	r2, #31
 856 002e 1340     		ands	r3, r2
 857              	.LVL89:
 858 0030 1E3A     		subs	r2, r2, #30
 859 0032 9A40     		lsls	r2, r2, r3
 860 0034 1300     		movs	r3, r2
 861 0036 064A     		ldr	r2, .L46+8
 862 0038 1360     		str	r3, [r2]
 863              	.L45:
 864              	.LVL90:
 865              	.LBE130:
 866              	.LBE129:
 867              	.LBB131:
 868              	.LBB132:
 983:Generated_Source\PSoC6\pdl\drivers/peripheral/mcwdt/cy_mcwdt.h **** }
 984:Generated_Source\PSoC6\pdl\drivers/peripheral/mcwdt/cy_mcwdt.h **** 
 985:Generated_Source\PSoC6\pdl\drivers/peripheral/mcwdt/cy_mcwdt.h **** 
 986:Generated_Source\PSoC6\pdl\drivers/peripheral/mcwdt/cy_mcwdt.h **** /*******************************************************************************
 987:Generated_Source\PSoC6\pdl\drivers/peripheral/mcwdt/cy_mcwdt.h **** * Function Name: Cy_MCWDT_SetInterrupt
 988:Generated_Source\PSoC6\pdl\drivers/peripheral/mcwdt/cy_mcwdt.h **** ****************************************************************************//**
 989:Generated_Source\PSoC6\pdl\drivers/peripheral/mcwdt/cy_mcwdt.h **** *
 990:Generated_Source\PSoC6\pdl\drivers/peripheral/mcwdt/cy_mcwdt.h **** *  Sets MCWDT interrupt sources in the interrupt request register.
