ARM GAS  C:\Users\salaz\AppData\Local\Temp\cc3G70Xt.s 			page 1


   1              		.syntax unified
   2              		.cpu cortex-m0plus
   3              		.fpu softvfp
   4              		.eabi_attribute 20, 1
   5              		.eabi_attribute 21, 1
   6              		.eabi_attribute 23, 3
   7              		.eabi_attribute 24, 1
   8              		.eabi_attribute 25, 1
   9              		.eabi_attribute 26, 1
  10              		.eabi_attribute 30, 1
  11              		.eabi_attribute 34, 0
  12              		.eabi_attribute 18, 4
  13              		.thumb
  14              		.syntax unified
  15              		.file	"Transmission.c"
  16              		.text
  17              	.Ltext0:
  18              		.cfi_sections	.debug_frame
  19              		.global	__aeabi_uldivmod
  20              		.global	__aeabi_idivmod
  21              		.section	.text.Transmission_EventHandler,"ax",%progbits
  22              		.align	2
  23              		.global	Transmission_EventHandler
  24              		.code	16
  25              		.thumb_func
  26              		.type	Transmission_EventHandler, %function
  27              	Transmission_EventHandler:
  28              	.LFB792:
  29              		.file 1 "Transmission.c"
   1:Transmission.c **** 
   2:Transmission.c **** #include <Transmission.h>
   3:Transmission.c **** #include <TxBuffer.h>
   4:Transmission.c **** #include <RxBuffer.h>
   5:Transmission.c **** #include <ErrorLogService.h>
   6:Transmission.c **** #include <UseProfileService.h>
   7:Transmission.c **** #include <SystemCore.h>
   8:Transmission.c **** 
   9:Transmission.c **** #include "project.h"
  10:Transmission.c **** 
  11:Transmission.c **** #include "debug.h"
  12:Transmission.c **** 
  13:Transmission.c **** //-------------------------------------------------------------//
  14:Transmission.c **** 
  15:Transmission.c **** bool is_advertising = false; // Global to KinOS.c
  16:Transmission.c **** bool is_connected = false;  // Global to KinOS.cBL
  17:Transmission.c **** 
  18:Transmission.c **** #define NUM_BYTES_PER_PACKET 1
  19:Transmission.c **** 
  20:Transmission.c **** //-------------------------------------------------------------//
  21:Transmission.c **** //-------------------BLUETOOTH-EVENT-HANDLING------------------//
  22:Transmission.c **** //-------------------------------------------------------------//
  23:Transmission.c **** 
  24:Transmission.c **** 
  25:Transmission.c **** void Transmission_EventHandler(uint32 eventCode, void *eventParam)
  26:Transmission.c **** {
  30              		.loc 1 26 0
  31              		.cfi_startproc
ARM GAS  C:\Users\salaz\AppData\Local\Temp\cc3G70Xt.s 			page 2


  32              		@ args = 0, pretend = 0, frame = 56
  33              		@ frame_needed = 1, uses_anonymous_args = 0
  34              	.LVL0:
  35 0000 F0B5     		push	{r4, r5, r6, r7, lr}
  36              		.cfi_def_cfa_offset 20
  37              		.cfi_offset 4, -20
  38              		.cfi_offset 5, -16
  39              		.cfi_offset 6, -12
  40              		.cfi_offset 7, -8
  41              		.cfi_offset 14, -4
  42 0002 5746     		mov	r7, r10
  43 0004 4E46     		mov	r6, r9
  44 0006 4546     		mov	r5, r8
  45 0008 E0B4     		push	{r5, r6, r7}
  46              		.cfi_def_cfa_offset 32
  47              		.cfi_offset 8, -32
  48              		.cfi_offset 9, -28
  49              		.cfi_offset 10, -24
  50 000a 8EB0     		sub	sp, sp, #56
  51              		.cfi_def_cfa_offset 88
  52 000c 00AF     		add	r7, sp, #0
  53              		.cfi_def_cfa_register 7
  27:Transmission.c ****     bool was_advertising = is_advertising;
  54              		.loc 1 27 0
  55 000e C04B     		ldr	r3, .L32
  56 0010 1C78     		ldrb	r4, [r3]
  57              	.LVL1:
  28:Transmission.c ****     bool was_connected = is_connected;
  58              		.loc 1 28 0
  59 0012 5D78     		ldrb	r5, [r3, #1]
  60              	.LVL2:
  29:Transmission.c ****     
  30:Transmission.c ****     static cy_stc_ble_gap_peer_addr_info_t bondedDeviceInfo[CY_BLE_MAX_BONDED_DEVICES];
  31:Transmission.c ****     static cy_stc_ble_gap_bonded_device_list_info_t bondedDeviceList =
  32:Transmission.c ****     {
  33:Transmission.c ****         .bdHandleAddrList = bondedDeviceInfo
  34:Transmission.c ****     };
  35:Transmission.c ****     
  36:Transmission.c ****     switch( eventCode )
  61              		.loc 1 36 0
  62 0014 BF4B     		ldr	r3, .L32+4
  63 0016 9842     		cmp	r0, r3
  64 0018 31D8     		bhi	.L3
  65 001a BF4B     		ldr	r3, .L32+8
  66 001c 9842     		cmp	r0, r3
  67 001e 00D3     		bcc	.LCB35
  68 0020 5AE1     		b	.L4	@long jump
  69              	.LCB35:
  70 0022 BE4B     		ldr	r3, .L32+12
  71 0024 9842     		cmp	r0, r3
  72 0026 00D1     		bne	.LCB38
  73 0028 56E1     		b	.L4	@long jump
  74              	.LCB38:
  75 002a 11D8     		bhi	.L5
  76 002c BC4B     		ldr	r3, .L32+16
  77 002e 9842     		cmp	r0, r3
  78 0030 00D1     		bne	.LCB43
ARM GAS  C:\Users\salaz\AppData\Local\Temp\cc3G70Xt.s 			page 3


  79 0032 51E1     		b	.L4	@long jump
  80              	.LCB43:
  81 0034 03D8     		bhi	.L6
  82 0036 013B     		subs	r3, r3, #1
  83 0038 9842     		cmp	r0, r3
  84 003a 44D0     		beq	.L7
  85 003c 3BE1     		b	.L2
  86              	.L6:
  87 003e B94B     		ldr	r3, .L32+20
  88 0040 9842     		cmp	r0, r3
  89 0042 00D1     		bne	.LCB55
  90 0044 48E1     		b	.L4	@long jump
  91              	.LCB55:
  92 0046 B84B     		ldr	r3, .L32+24
  93 0048 9842     		cmp	r0, r3
  94 004a 00D0     		beq	.LCB58
  95 004c 33E1     		b	.L2	@long jump
  96              	.LCB58:
  97 004e 43E1     		b	.L4
  98              	.L5:
  99 0050 B64B     		ldr	r3, .L32+28
 100 0052 9842     		cmp	r0, r3
 101 0054 00D1     		bne	.LCB65
 102 0056 3FE1     		b	.L4	@long jump
 103              	.LCB65:
 104 0058 08D8     		bhi	.L8
 105 005a B54B     		ldr	r3, .L32+32
 106 005c 9842     		cmp	r0, r3
 107 005e 00D1     		bne	.LCB70
 108 0060 3AE1     		b	.L4	@long jump
 109              	.LCB70:
 110 0062 B44B     		ldr	r3, .L32+36
 111 0064 9842     		cmp	r0, r3
 112 0066 00D1     		bne	.LCB73
 113 0068 13E1     		b	.L9	@long jump
 114              	.LCB73:
 115 006a 24E1     		b	.L2
 116              	.L8:
 117 006c B24B     		ldr	r3, .L32+40
 118 006e 9842     		cmp	r0, r3
 119 0070 00D1     		bne	.LCB80
 120 0072 8EE0     		b	.L10	@long jump
 121              	.LCB80:
 122 0074 B14B     		ldr	r3, .L32+44
 123 0076 9842     		cmp	r0, r3
 124 0078 00D1     		bne	.LCB83
 125 007a A9E0     		b	.L11	@long jump
 126              	.LCB83:
 127 007c 1BE1     		b	.L2
 128              	.L3:
 129 007e B04B     		ldr	r3, .L32+48
 130 0080 9842     		cmp	r0, r3
 131 0082 00D1     		bne	.LCB90
 132 0084 9EE0     		b	.L12	@long jump
 133              	.LCB90:
 134 0086 0FD8     		bhi	.L13
 135 0088 AE4B     		ldr	r3, .L32+52
ARM GAS  C:\Users\salaz\AppData\Local\Temp\cc3G70Xt.s 			page 4


 136 008a 9842     		cmp	r0, r3
 137 008c 00D1     		bne	.LCB95
 138 008e A3E0     		b	.L14	@long jump
 139              	.LCB95:
 140 0090 04D8     		bhi	.L15
 141 0092 AD4B     		ldr	r3, .L32+56
 142 0094 9842     		cmp	r0, r3
 143 0096 00D0     		beq	.LCB100
 144 0098 0DE1     		b	.L2	@long jump
 145              	.LCB100:
 146 009a 1DE1     		b	.L4
 147              	.L15:
 148 009c AB4B     		ldr	r3, .L32+60
 149 009e C318     		adds	r3, r0, r3
 150 00a0 012B     		cmp	r3, #1
 151 00a2 00D9     		bls	.LCB108
 152 00a4 07E1     		b	.L2	@long jump
 153              	.LCB108:
 154 00a6 17E1     		b	.L4
 155              	.L13:
 156 00a8 A94B     		ldr	r3, .L32+64
 157 00aa 9842     		cmp	r0, r3
 158 00ac 00D1     		bne	.LCB116
 159 00ae C1E0     		b	.L16	@long jump
 160              	.LCB116:
 161 00b0 04D8     		bhi	.L17
 162 00b2 A84B     		ldr	r3, .L32+68
 163 00b4 9842     		cmp	r0, r3
 164 00b6 00D9     		bls	.LCB121
 165 00b8 FDE0     		b	.L2	@long jump
 166              	.LCB121:
 167 00ba 0DE1     		b	.L4
 168              	.L17:
 169 00bc A64B     		ldr	r3, .L32+72
 170 00be 9842     		cmp	r0, r3
 171 00c0 00D0     		beq	.LCB128
 172 00c2 F8E0     		b	.L2	@long jump
 173              	.LCB128:
 174 00c4 08E1     		b	.L4
 175              	.L7:
 176              	.LBB29:
  37:Transmission.c ****     {
  38:Transmission.c ****         case CY_BLE_EVT_STACK_ON:
  39:Transmission.c ****         {
  40:Transmission.c ****             cy_stc_ble_gap_bd_addr_info_t addr; addr.addrType = 0x00;
 177              		.loc 1 40 0
 178 00c6 1823     		movs	r3, #24
 179 00c8 0822     		movs	r2, #8
 180 00ca BA18     		adds	r2, r7, r2
 181 00cc D018     		adds	r0, r2, r3
 182              	.LVL3:
 183 00ce 0023     		movs	r3, #0
 184 00d0 C375     		strb	r3, [r0, #23]
  41:Transmission.c ****             Cy_BLE_GAP_GenerateBdAddress(&addr);
 185              		.loc 1 41 0
 186 00d2 FFF7FEFF 		bl	Cy_BLE_GAP_GenerateBdAddress
 187              	.LVL4:
ARM GAS  C:\Users\salaz\AppData\Local\Temp\cc3G70Xt.s 			page 5


  42:Transmission.c ****             
  43:Transmission.c ****             cy_stc_ble_gap_bd_addr_t bdAddress = addr.gapBdAddr;
 188              		.loc 1 43 0
 189 00d6 2823     		movs	r3, #40
 190 00d8 0822     		movs	r2, #8
 191 00da BA18     		adds	r2, r7, r2
 192 00dc D018     		adds	r0, r2, r3
 193 00de 3B6B     		ldr	r3, [r7, #48]
 194 00e0 190A     		lsrs	r1, r3, #8
 195 00e2 1A0C     		lsrs	r2, r3, #16
 196 00e4 FB60     		str	r3, [r7, #12]
 197 00e6 8688     		ldrh	r6, [r0, #4]
 198 00e8 3E82     		strh	r6, [r7, #16]
 199 00ea 8079     		ldrb	r0, [r0, #6]
 200 00ec B874     		strb	r0, [r7, #18]
  44:Transmission.c ****             uint64 val0 = bdAddress.bdAddr[0];
 201              		.loc 1 44 0
 202 00ee D8B2     		uxtb	r0, r3
 203 00f0 8446     		mov	ip, r0
 204              	.LVL5:
  45:Transmission.c ****             uint64 val1 = bdAddress.bdAddr[1];
 205              		.loc 1 45 0
 206 00f2 C8B2     		uxtb	r0, r1
 207              	.LVL6:
  46:Transmission.c ****             uint64 val2 = bdAddress.bdAddr[2];
 208              		.loc 1 46 0
 209 00f4 D2B2     		uxtb	r2, r2
 210              	.LVL7:
  47:Transmission.c ****             uint64 val3 = bdAddress.bdAddr[3];
 211              		.loc 1 47 0
 212 00f6 1B0E     		lsrs	r3, r3, #24
 213 00f8 9846     		mov	r8, r3
 214              	.LVL8:
  48:Transmission.c ****             uint64 val4 = bdAddress.bdAddr[4];
  49:Transmission.c ****             uint64 val5 = bdAddress.bdAddr[5];
 215              		.loc 1 49 0
 216 00fa 310A     		lsrs	r1, r6, #8
 217              	.LVL9:
  50:Transmission.c ****             
  51:Transmission.c ****             uint64 code = ((uint64)bdAddress.bdAddr[0]<< 0)|((uint64)bdAddress.bdAddr[1]<<8 )|
 218              		.loc 1 51 0
 219 00fc 0002     		lsls	r0, r0, #8
 220              	.LVL10:
 221 00fe 6346     		mov	r3, ip
 222 0100 1843     		orrs	r0, r3
  52:Transmission.c ****                           ((uint64)bdAddress.bdAddr[2]<<16)|((uint64)bdAddress.bdAddr[3]<<24)|
 223              		.loc 1 52 0
 224 0102 1204     		lsls	r2, r2, #16
 225              	.LVL11:
  51:Transmission.c ****                           ((uint64)bdAddress.bdAddr[2]<<16)|((uint64)bdAddress.bdAddr[3]<<24)|
 226              		.loc 1 51 0
 227 0104 1043     		orrs	r0, r2
 228              		.loc 1 52 0
 229 0106 4346     		mov	r3, r8
 230 0108 1B06     		lsls	r3, r3, #24
 231 010a 1843     		orrs	r0, r3
 232 010c F6B2     		uxtb	r6, r6
ARM GAS  C:\Users\salaz\AppData\Local\Temp\cc3G70Xt.s 			page 6


  53:Transmission.c ****                           ((uint64)bdAddress.bdAddr[4]<<32)|((uint64)bdAddress.bdAddr[5]<<40);
 233              		.loc 1 53 0
 234 010e 0902     		lsls	r1, r1, #8
 235              	.LVL12:
  51:Transmission.c ****                           ((uint64)bdAddress.bdAddr[2]<<16)|((uint64)bdAddress.bdAddr[3]<<24)|
 236              		.loc 1 51 0
 237 0110 3143     		orrs	r1, r6
 238              	.LVL13:
  54:Transmission.c ****             
  55:Transmission.c ****             uint16 id = (uint16)(code % 9973);
 239              		.loc 1 55 0
 240 0112 924A     		ldr	r2, .L32+76
 241 0114 0023     		movs	r3, #0
 242 0116 FFF7FEFF 		bl	__aeabi_uldivmod
 243              	.LVL14:
 244 011a 96B2     		uxth	r6, r2
 245              	.LVL15:
  56:Transmission.c ****             
  57:Transmission.c ****             char8 N1 = (((id & 0xF000) >> 12)%9) + '0';
 246              		.loc 1 57 0
 247 011c 300B     		lsrs	r0, r6, #12
 248 011e 0921     		movs	r1, #9
 249 0120 FFF7FEFF 		bl	__aeabi_idivmod
 250              	.LVL16:
 251 0124 3031     		adds	r1, r1, #48
 252 0126 CBB2     		uxtb	r3, r1
 253 0128 9A46     		mov	r10, r3
 254              	.LVL17:
  58:Transmission.c ****             char8 N2 = (((id & 0x0F00) >> 8) %9) + '0';
 255              		.loc 1 58 0
 256 012a 3012     		asrs	r0, r6, #8
 257 012c 0F23     		movs	r3, #15
 258 012e 9846     		mov	r8, r3
 259              	.LVL18:
 260 0130 1840     		ands	r0, r3
 261 0132 0921     		movs	r1, #9
 262 0134 FFF7FEFF 		bl	__aeabi_idivmod
 263              	.LVL19:
 264 0138 3031     		adds	r1, r1, #48
 265 013a CBB2     		uxtb	r3, r1
 266 013c 9946     		mov	r9, r3
 267              	.LVL20:
  59:Transmission.c ****             char8 N3 = (((id & 0x00F0) >> 4) %9) + '0';
 268              		.loc 1 59 0
 269 013e 3011     		asrs	r0, r6, #4
 270 0140 4346     		mov	r3, r8
 271 0142 1840     		ands	r0, r3
 272 0144 0921     		movs	r1, #9
 273 0146 FFF7FEFF 		bl	__aeabi_idivmod
 274              	.LVL21:
 275 014a 3031     		adds	r1, r1, #48
 276 014c CBB2     		uxtb	r3, r1
 277 014e 9846     		mov	r8, r3
 278              	.LVL22:
  60:Transmission.c ****             char8 N4 = (((id & 0x000F) >> 0) %9) + '0';
 279              		.loc 1 60 0
 280 0150 0F20     		movs	r0, #15
ARM GAS  C:\Users\salaz\AppData\Local\Temp\cc3G70Xt.s 			page 7


 281 0152 3040     		ands	r0, r6
 282 0154 0921     		movs	r1, #9
 283 0156 FFF7FEFF 		bl	__aeabi_idivmod
 284              	.LVL23:
 285 015a 3031     		adds	r1, r1, #48
 286              	.LVL24:
  61:Transmission.c ****                         
  62:Transmission.c ****             char8 name[11] = {'K','i','n','o','X','i','-',N1,N2,N3,N4};
 287              		.loc 1 62 0
 288 015c 4B23     		movs	r3, #75
 289 015e 3B75     		strb	r3, [r7, #20]
 290 0160 1E33     		adds	r3, r3, #30
 291 0162 7B75     		strb	r3, [r7, #21]
 292 0164 6E22     		movs	r2, #110
 293 0166 BA75     		strb	r2, [r7, #22]
 294 0168 0132     		adds	r2, r2, #1
 295 016a FA75     		strb	r2, [r7, #23]
 296 016c 173A     		subs	r2, r2, #23
 297 016e 3A76     		strb	r2, [r7, #24]
 298 0170 7B76     		strb	r3, [r7, #25]
 299 0172 3C3B     		subs	r3, r3, #60
 300 0174 BB76     		strb	r3, [r7, #26]
 301 0176 5346     		mov	r3, r10
 302 0178 FB76     		strb	r3, [r7, #27]
 303 017a 4B46     		mov	r3, r9
 304 017c 3B77     		strb	r3, [r7, #28]
 305 017e 4346     		mov	r3, r8
 306 0180 7B77     		strb	r3, [r7, #29]
 307 0182 B977     		strb	r1, [r7, #30]
  63:Transmission.c ****             Cy_BLE_SetLocalName(name);
 308              		.loc 1 63 0
 309 0184 0C23     		movs	r3, #12
 310 0186 503A     		subs	r2, r2, #80
 311 0188 BA18     		adds	r2, r7, r2
 312 018a D018     		adds	r0, r2, r3
 313 018c FFF7FEFF 		bl	Cy_BLE_SetLocalName
 314              	.LVL25:
 315 0190 A2E0     		b	.L4
 316              	.LVL26:
 317              	.L10:
 318              	.LBE29:
 319              	.LBB30:
 320              	.LBB31:
 321              		.file 2 "Generated_Source\\PSoC6\\pdl\\middleware/ble/cy_ble_gap.h"
   1:Generated_Source\PSoC6\pdl\middleware/ble/cy_ble_gap.h **** /***************************************************************************//**
   2:Generated_Source\PSoC6\pdl\middleware/ble/cy_ble_gap.h **** * \file cy_ble_gap.h
   3:Generated_Source\PSoC6\pdl\middleware/ble/cy_ble_gap.h **** * \version 2.20
   4:Generated_Source\PSoC6\pdl\middleware/ble/cy_ble_gap.h **** *
   5:Generated_Source\PSoC6\pdl\middleware/ble/cy_ble_gap.h **** * \brief
   6:Generated_Source\PSoC6\pdl\middleware/ble/cy_ble_gap.h **** *  Contains the prototypes and constants used in the BLE GAP profile.
   7:Generated_Source\PSoC6\pdl\middleware/ble/cy_ble_gap.h **** *
   8:Generated_Source\PSoC6\pdl\middleware/ble/cy_ble_gap.h **** ********************************************************************************
   9:Generated_Source\PSoC6\pdl\middleware/ble/cy_ble_gap.h **** * \copyright
  10:Generated_Source\PSoC6\pdl\middleware/ble/cy_ble_gap.h **** * Copyright 2017-2018, Cypress Semiconductor Corporation.  All rights reserved.
  11:Generated_Source\PSoC6\pdl\middleware/ble/cy_ble_gap.h **** * You may use this file only in accordance with the license, terms, conditions,
  12:Generated_Source\PSoC6\pdl\middleware/ble/cy_ble_gap.h **** * disclaimers, and limitations in the end user license agreement accompanying
  13:Generated_Source\PSoC6\pdl\middleware/ble/cy_ble_gap.h **** * the software package with which this file was provided.
ARM GAS  C:\Users\salaz\AppData\Local\Temp\cc3G70Xt.s 			page 8


  14:Generated_Source\PSoC6\pdl\middleware/ble/cy_ble_gap.h **** *******************************************************************************/
  15:Generated_Source\PSoC6\pdl\middleware/ble/cy_ble_gap.h **** 
  16:Generated_Source\PSoC6\pdl\middleware/ble/cy_ble_gap.h **** 
  17:Generated_Source\PSoC6\pdl\middleware/ble/cy_ble_gap.h **** #ifndef CY_BLE_GAP_H
  18:Generated_Source\PSoC6\pdl\middleware/ble/cy_ble_gap.h **** #define CY_BLE_GAP_H
  19:Generated_Source\PSoC6\pdl\middleware/ble/cy_ble_gap.h ****     
  20:Generated_Source\PSoC6\pdl\middleware/ble/cy_ble_gap.h **** #include "cy_ble_config.h"
  21:Generated_Source\PSoC6\pdl\middleware/ble/cy_ble_gap.h **** 
  22:Generated_Source\PSoC6\pdl\middleware/ble/cy_ble_gap.h **** /***************************************
  23:Generated_Source\PSoC6\pdl\middleware/ble/cy_ble_gap.h **** * BLE Stack includes
  24:Generated_Source\PSoC6\pdl\middleware/ble/cy_ble_gap.h **** ***************************************/
  25:Generated_Source\PSoC6\pdl\middleware/ble/cy_ble_gap.h **** #include "cy_ble_stack_gatt.h"    
  26:Generated_Source\PSoC6\pdl\middleware/ble/cy_ble_gap.h **** #include "cy_ble_stack_gap.h"
  27:Generated_Source\PSoC6\pdl\middleware/ble/cy_ble_gap.h **** #include "cy_ble_stack_gap_central.h"
  28:Generated_Source\PSoC6\pdl\middleware/ble/cy_ble_gap.h **** #include "cy_ble_stack_gap_peripheral.h"
  29:Generated_Source\PSoC6\pdl\middleware/ble/cy_ble_gap.h **** 
  30:Generated_Source\PSoC6\pdl\middleware/ble/cy_ble_gap.h **** /* C binding of definitions if building with C++ compiler */
  31:Generated_Source\PSoC6\pdl\middleware/ble/cy_ble_gap.h **** #ifdef __cplusplus
  32:Generated_Source\PSoC6\pdl\middleware/ble/cy_ble_gap.h **** extern "C" {
  33:Generated_Source\PSoC6\pdl\middleware/ble/cy_ble_gap.h **** #endif /* __cplusplus */
  34:Generated_Source\PSoC6\pdl\middleware/ble/cy_ble_gap.h **** 
  35:Generated_Source\PSoC6\pdl\middleware/ble/cy_ble_gap.h **** /***************************************
  36:Generated_Source\PSoC6\pdl\middleware/ble/cy_ble_gap.h **** * Conditional Compilation Parameters
  37:Generated_Source\PSoC6\pdl\middleware/ble/cy_ble_gap.h **** ***************************************/
  38:Generated_Source\PSoC6\pdl\middleware/ble/cy_ble_gap.h **** /**
  39:Generated_Source\PSoC6\pdl\middleware/ble/cy_ble_gap.h ****  * The BLE operation mode.
  40:Generated_Source\PSoC6\pdl\middleware/ble/cy_ble_gap.h ****  */
  41:Generated_Source\PSoC6\pdl\middleware/ble/cy_ble_gap.h **** #define CY_BLE_MODE                          (CY_BLE_CONFIG_MODE)
  42:Generated_Source\PSoC6\pdl\middleware/ble/cy_ble_gap.h **** 
  43:Generated_Source\PSoC6\pdl\middleware/ble/cy_ble_gap.h **** /** 
  44:Generated_Source\PSoC6\pdl\middleware/ble/cy_ble_gap.h ****  * Maximum number of BLE connections
  45:Generated_Source\PSoC6\pdl\middleware/ble/cy_ble_gap.h ****  * This parameter displays how many BLE connections (both Central and 
  46:Generated_Source\PSoC6\pdl\middleware/ble/cy_ble_gap.h ****  * Peripheral) are allowed. Valid range is from 1 to 4.
  47:Generated_Source\PSoC6\pdl\middleware/ble/cy_ble_gap.h ****  */
  48:Generated_Source\PSoC6\pdl\middleware/ble/cy_ble_gap.h **** #define CY_BLE_CONN_COUNT                    (CY_BLE_CONFIG_CONN_COUNT)
  49:Generated_Source\PSoC6\pdl\middleware/ble/cy_ble_gap.h ****  
  50:Generated_Source\PSoC6\pdl\middleware/ble/cy_ble_gap.h **** /**
  51:Generated_Source\PSoC6\pdl\middleware/ble/cy_ble_gap.h ****  * The GAP Role 
  52:Generated_Source\PSoC6\pdl\middleware/ble/cy_ble_gap.h ****  * The following defined mask can be used:
  53:Generated_Source\PSoC6\pdl\middleware/ble/cy_ble_gap.h ****  * CY_BLE_GAP_PERIPHERAL  (0x01u) - device operates as peripheral.
  54:Generated_Source\PSoC6\pdl\middleware/ble/cy_ble_gap.h ****  * CY_BLE_GAP_CENTRAL     (0x02u) - device operates as central. 
  55:Generated_Source\PSoC6\pdl\middleware/ble/cy_ble_gap.h ****  * CY_BLE_GAP_BROADCASTER (0x04u) - device operates as broadcaster.
  56:Generated_Source\PSoC6\pdl\middleware/ble/cy_ble_gap.h ****  * CY_BLE_GAP_OBSERVER    (0x08u) - device operates as observer.
  57:Generated_Source\PSoC6\pdl\middleware/ble/cy_ble_gap.h ****  * CY_BLE_GAP_HCI         (0x00u) - used when BLE operates in HCI mode.
  58:Generated_Source\PSoC6\pdl\middleware/ble/cy_ble_gap.h ****  */ 
  59:Generated_Source\PSoC6\pdl\middleware/ble/cy_ble_gap.h **** #define CY_BLE_GAP_ROLE                       (CY_BLE_CONFIG_GAP_ROLE)
  60:Generated_Source\PSoC6\pdl\middleware/ble/cy_ble_gap.h **** 
  61:Generated_Source\PSoC6\pdl\middleware/ble/cy_ble_gap.h **** /** The number of GAP Peripheral configurations structures */
  62:Generated_Source\PSoC6\pdl\middleware/ble/cy_ble_gap.h **** #define CY_BLE_GAP_PERIPHERAL_COUNT           (CY_BLE_CONFIG_GAP_PERIPHERAL_COUNT)
  63:Generated_Source\PSoC6\pdl\middleware/ble/cy_ble_gap.h **** 
  64:Generated_Source\PSoC6\pdl\middleware/ble/cy_ble_gap.h **** /** The number of GAP Broadcaster configurations structures */
  65:Generated_Source\PSoC6\pdl\middleware/ble/cy_ble_gap.h **** #define CY_BLE_GAP_BROADCASTER_COUNT          (CY_BLE_CONFIG_GAP_BROADCASTER_COUNT)
  66:Generated_Source\PSoC6\pdl\middleware/ble/cy_ble_gap.h **** 
  67:Generated_Source\PSoC6\pdl\middleware/ble/cy_ble_gap.h **** /** The number of GAP Central configurations structures */
  68:Generated_Source\PSoC6\pdl\middleware/ble/cy_ble_gap.h **** #define CY_BLE_GAP_CENTRAL_COUNT              (CY_BLE_CONFIG_GAP_CENTRAL_COUNT)
  69:Generated_Source\PSoC6\pdl\middleware/ble/cy_ble_gap.h **** 
  70:Generated_Source\PSoC6\pdl\middleware/ble/cy_ble_gap.h **** /** The number of GAP Observer configurations structures */
ARM GAS  C:\Users\salaz\AppData\Local\Temp\cc3G70Xt.s 			page 9


  71:Generated_Source\PSoC6\pdl\middleware/ble/cy_ble_gap.h **** #define CY_BLE_GAP_OBSERVER_COUNT             (CY_BLE_CONFIG_GAP_OBSERVER_COUNT)
  72:Generated_Source\PSoC6\pdl\middleware/ble/cy_ble_gap.h **** 
  73:Generated_Source\PSoC6\pdl\middleware/ble/cy_ble_gap.h **** /** The number of Security configurations structures */
  74:Generated_Source\PSoC6\pdl\middleware/ble/cy_ble_gap.h **** #define CY_BLE_AUTH_INFO_COUNT                (CY_BLE_CONFIG_AUTH_INFO_COUNT)
  75:Generated_Source\PSoC6\pdl\middleware/ble/cy_ble_gap.h **** 
  76:Generated_Source\PSoC6\pdl\middleware/ble/cy_ble_gap.h **** /** The Bonding Requirement structures */
  77:Generated_Source\PSoC6\pdl\middleware/ble/cy_ble_gap.h **** #define CY_BLE_BONDING_REQUIREMENT            (CY_BLE_CONFIG_BONDING_REQUIREMENT)
  78:Generated_Source\PSoC6\pdl\middleware/ble/cy_ble_gap.h **** 
  79:Generated_Source\PSoC6\pdl\middleware/ble/cy_ble_gap.h **** /** The GAP Role defines */
  80:Generated_Source\PSoC6\pdl\middleware/ble/cy_ble_gap.h **** #define CY_BLE_GAP_ROLE_PERIPHERAL            (0u != (CY_BLE_GAP_ROLE & CY_BLE_GAP_PERIPHERAL))
  81:Generated_Source\PSoC6\pdl\middleware/ble/cy_ble_gap.h **** #define CY_BLE_GAP_ROLE_CENTRAL               (0u != (CY_BLE_GAP_ROLE & CY_BLE_GAP_CENTRAL))
  82:Generated_Source\PSoC6\pdl\middleware/ble/cy_ble_gap.h **** #define CY_BLE_GAP_ROLE_OBSERVER              (0u != (CY_BLE_GAP_ROLE & CY_BLE_GAP_OBSERVER))
  83:Generated_Source\PSoC6\pdl\middleware/ble/cy_ble_gap.h **** #define CY_BLE_GAP_ROLE_BROADCASTER           (0u != (CY_BLE_GAP_ROLE & CY_BLE_GAP_BROADCASTER))
  84:Generated_Source\PSoC6\pdl\middleware/ble/cy_ble_gap.h **** 
  85:Generated_Source\PSoC6\pdl\middleware/ble/cy_ble_gap.h **** #define CY_BLE_GAPP_CONF_COUNT                (CY_BLE_GAP_PERIPHERAL_COUNT + CY_BLE_GAP_BROADCASTER
  86:Generated_Source\PSoC6\pdl\middleware/ble/cy_ble_gap.h **** #define CY_BLE_GAPC_CONF_COUNT                (CY_BLE_GAP_CENTRAL_COUNT + CY_BLE_GAP_OBSERVER_COUNT
  87:Generated_Source\PSoC6\pdl\middleware/ble/cy_ble_gap.h **** 
  88:Generated_Source\PSoC6\pdl\middleware/ble/cy_ble_gap.h **** /***************************************
  89:Generated_Source\PSoC6\pdl\middleware/ble/cy_ble_gap.h **** * Type Definitions
  90:Generated_Source\PSoC6\pdl\middleware/ble/cy_ble_gap.h **** ***************************************/
  91:Generated_Source\PSoC6\pdl\middleware/ble/cy_ble_gap.h **** 
  92:Generated_Source\PSoC6\pdl\middleware/ble/cy_ble_gap.h **** #if (CY_BLE_MODE_PROFILE)
  93:Generated_Source\PSoC6\pdl\middleware/ble/cy_ble_gap.h **** 
  94:Generated_Source\PSoC6\pdl\middleware/ble/cy_ble_gap.h **** /***************************************
  95:Generated_Source\PSoC6\pdl\middleware/ble/cy_ble_gap.h **** * Enumerated Types and Structures
  96:Generated_Source\PSoC6\pdl\middleware/ble/cy_ble_gap.h **** ***************************************/
  97:Generated_Source\PSoC6\pdl\middleware/ble/cy_ble_gap.h **** 
  98:Generated_Source\PSoC6\pdl\middleware/ble/cy_ble_gap.h **** /**
  99:Generated_Source\PSoC6\pdl\middleware/ble/cy_ble_gap.h ****  * \addtogroup group_ble_common_api_gap_definitions
 100:Generated_Source\PSoC6\pdl\middleware/ble/cy_ble_gap.h ****  * @{
 101:Generated_Source\PSoC6\pdl\middleware/ble/cy_ble_gap.h ****  */
 102:Generated_Source\PSoC6\pdl\middleware/ble/cy_ble_gap.h **** 
 103:Generated_Source\PSoC6\pdl\middleware/ble/cy_ble_gap.h **** /** BLE state machine type */
 104:Generated_Source\PSoC6\pdl\middleware/ble/cy_ble_gap.h **** typedef enum
 105:Generated_Source\PSoC6\pdl\middleware/ble/cy_ble_gap.h **** {
 106:Generated_Source\PSoC6\pdl\middleware/ble/cy_ble_gap.h ****     CY_BLE_STATE_STOPPED,                             /**< BLE is turned off */
 107:Generated_Source\PSoC6\pdl\middleware/ble/cy_ble_gap.h ****     CY_BLE_STATE_INITIALIZING,                        /**< Initializing state */
 108:Generated_Source\PSoC6\pdl\middleware/ble/cy_ble_gap.h ****     CY_BLE_STATE_ON,                                  /**< BLE is turned on */
 109:Generated_Source\PSoC6\pdl\middleware/ble/cy_ble_gap.h **** #if (CY_BLE_GAP_ROLE_CENTRAL)
 110:Generated_Source\PSoC6\pdl\middleware/ble/cy_ble_gap.h ****     CY_BLE_STATE_CONNECTING,                          /**< Connecting */
 111:Generated_Source\PSoC6\pdl\middleware/ble/cy_ble_gap.h **** #endif /* CY_BLE_GAP_ROLE_CENTRAL */
 112:Generated_Source\PSoC6\pdl\middleware/ble/cy_ble_gap.h **** } cy_en_ble_state_t;
 113:Generated_Source\PSoC6\pdl\middleware/ble/cy_ble_gap.h **** 
 114:Generated_Source\PSoC6\pdl\middleware/ble/cy_ble_gap.h **** 
 115:Generated_Source\PSoC6\pdl\middleware/ble/cy_ble_gap.h **** /** Scanning state machine type */
 116:Generated_Source\PSoC6\pdl\middleware/ble/cy_ble_gap.h **** typedef enum
 117:Generated_Source\PSoC6\pdl\middleware/ble/cy_ble_gap.h **** {
 118:Generated_Source\PSoC6\pdl\middleware/ble/cy_ble_gap.h ****     CY_BLE_SCAN_STATE_STOPPED,                        /**< Scanning is stopped */
 119:Generated_Source\PSoC6\pdl\middleware/ble/cy_ble_gap.h ****     CY_BLE_SCAN_STATE_SCAN_INITIATED,                 /**< Scanning is initiated */
 120:Generated_Source\PSoC6\pdl\middleware/ble/cy_ble_gap.h ****     CY_BLE_SCAN_STATE_SCANNING,                       /**< Scanning process */
 121:Generated_Source\PSoC6\pdl\middleware/ble/cy_ble_gap.h ****     CY_BLE_SCAN_STATE_STOP_INITIATED                  /**< Stop scanning is initiated */
 122:Generated_Source\PSoC6\pdl\middleware/ble/cy_ble_gap.h **** } cy_en_ble_scan_state_t;
 123:Generated_Source\PSoC6\pdl\middleware/ble/cy_ble_gap.h **** 
 124:Generated_Source\PSoC6\pdl\middleware/ble/cy_ble_gap.h **** /** Advertising state machine type */
 125:Generated_Source\PSoC6\pdl\middleware/ble/cy_ble_gap.h **** typedef enum
 126:Generated_Source\PSoC6\pdl\middleware/ble/cy_ble_gap.h **** {
 127:Generated_Source\PSoC6\pdl\middleware/ble/cy_ble_gap.h ****     CY_BLE_ADV_STATE_STOPPED,                         /**< Advertising is stopped */
ARM GAS  C:\Users\salaz\AppData\Local\Temp\cc3G70Xt.s 			page 10


 128:Generated_Source\PSoC6\pdl\middleware/ble/cy_ble_gap.h ****     CY_BLE_ADV_STATE_ADV_INITIATED,                   /**< Advertising is initiated */
 129:Generated_Source\PSoC6\pdl\middleware/ble/cy_ble_gap.h ****     CY_BLE_ADV_STATE_ADVERTISING,                     /**< Advertising process */
 130:Generated_Source\PSoC6\pdl\middleware/ble/cy_ble_gap.h ****     CY_BLE_ADV_STATE_STOP_INITIATED                   /**< Stop advertising is initiated */
 131:Generated_Source\PSoC6\pdl\middleware/ble/cy_ble_gap.h **** } cy_en_ble_adv_state_t;
 132:Generated_Source\PSoC6\pdl\middleware/ble/cy_ble_gap.h **** 
 133:Generated_Source\PSoC6\pdl\middleware/ble/cy_ble_gap.h **** /** Connection state machine type */
 134:Generated_Source\PSoC6\pdl\middleware/ble/cy_ble_gap.h **** typedef enum
 135:Generated_Source\PSoC6\pdl\middleware/ble/cy_ble_gap.h **** {
 136:Generated_Source\PSoC6\pdl\middleware/ble/cy_ble_gap.h ****     CY_BLE_CONN_STATE_DISCONNECTED,                   /**< Essentially idle state */
 137:Generated_Source\PSoC6\pdl\middleware/ble/cy_ble_gap.h ****     CY_BLE_CONN_STATE_CLIENT_DISCONNECTED_DISCOVERED, /**< Server is disconnected but discovered */
 138:Generated_Source\PSoC6\pdl\middleware/ble/cy_ble_gap.h ****     CY_BLE_CONN_STATE_CONNECTED,                      /**< Peer device is connected for this and fo
 139:Generated_Source\PSoC6\pdl\middleware/ble/cy_ble_gap.h ****     CY_BLE_CONN_STATE_CLIENT_SRVC_DISCOVERING,        /**< Server services are being discovered */
 140:Generated_Source\PSoC6\pdl\middleware/ble/cy_ble_gap.h ****     CY_BLE_CONN_STATE_CLIENT_INCL_DISCOVERING,        /**< Server included services are being disco
 141:Generated_Source\PSoC6\pdl\middleware/ble/cy_ble_gap.h ****     CY_BLE_CONN_STATE_CLIENT_CHAR_DISCOVERING,        /**< Server characteristics are being discove
 142:Generated_Source\PSoC6\pdl\middleware/ble/cy_ble_gap.h ****     CY_BLE_CONN_STATE_CLIENT_DESCR_DISCOVERING,       /**< Server char. descriptors are being disco
 143:Generated_Source\PSoC6\pdl\middleware/ble/cy_ble_gap.h ****     CY_BLE_CONN_STATE_CLIENT_DISCOVERED               /**< Server is discovered */
 144:Generated_Source\PSoC6\pdl\middleware/ble/cy_ble_gap.h **** } cy_en_ble_conn_state_t;
 145:Generated_Source\PSoC6\pdl\middleware/ble/cy_ble_gap.h **** 
 146:Generated_Source\PSoC6\pdl\middleware/ble/cy_ble_gap.h **** /** Structure with Generic Access Profile Service (GAPS) attribute handles */
 147:Generated_Source\PSoC6\pdl\middleware/ble/cy_ble_gap.h **** typedef struct
 148:Generated_Source\PSoC6\pdl\middleware/ble/cy_ble_gap.h **** {
 149:Generated_Source\PSoC6\pdl\middleware/ble/cy_ble_gap.h ****     /** Service handle*/
 150:Generated_Source\PSoC6\pdl\middleware/ble/cy_ble_gap.h ****     cy_ble_gatt_db_attr_handle_t serviceHandle;
 151:Generated_Source\PSoC6\pdl\middleware/ble/cy_ble_gap.h **** 
 152:Generated_Source\PSoC6\pdl\middleware/ble/cy_ble_gap.h ****     /** Handle of the GAPS Device Name Characteristic */
 153:Generated_Source\PSoC6\pdl\middleware/ble/cy_ble_gap.h ****     cy_ble_gatt_db_attr_handle_t deviceNameCharHandle;
 154:Generated_Source\PSoC6\pdl\middleware/ble/cy_ble_gap.h **** 
 155:Generated_Source\PSoC6\pdl\middleware/ble/cy_ble_gap.h ****     /** Handle of the GAPS Appearance Characteristic */
 156:Generated_Source\PSoC6\pdl\middleware/ble/cy_ble_gap.h ****     cy_ble_gatt_db_attr_handle_t appearanceCharHandle;
 157:Generated_Source\PSoC6\pdl\middleware/ble/cy_ble_gap.h **** 
 158:Generated_Source\PSoC6\pdl\middleware/ble/cy_ble_gap.h ****     /** Handle of the GAPS Peripheral Preferred Connection Parameters Characteristic */
 159:Generated_Source\PSoC6\pdl\middleware/ble/cy_ble_gap.h ****     cy_ble_gatt_db_attr_handle_t prefConnParamCharHandle;
 160:Generated_Source\PSoC6\pdl\middleware/ble/cy_ble_gap.h **** 
 161:Generated_Source\PSoC6\pdl\middleware/ble/cy_ble_gap.h ****     /** Handle of the GAPS Central Address Resolution characteristic */
 162:Generated_Source\PSoC6\pdl\middleware/ble/cy_ble_gap.h ****     cy_ble_gatt_db_attr_handle_t centralAddrResolutionCharHandle;
 163:Generated_Source\PSoC6\pdl\middleware/ble/cy_ble_gap.h **** 
 164:Generated_Source\PSoC6\pdl\middleware/ble/cy_ble_gap.h ****     /** Handle of the GAPS Resolvable Private Address Only characteristic */
 165:Generated_Source\PSoC6\pdl\middleware/ble/cy_ble_gap.h ****     cy_ble_gatt_db_attr_handle_t resolvablePrivateAddressOnly;
 166:Generated_Source\PSoC6\pdl\middleware/ble/cy_ble_gap.h **** } cy_stc_ble_gaps_t;
 167:Generated_Source\PSoC6\pdl\middleware/ble/cy_ble_gap.h **** 
 168:Generated_Source\PSoC6\pdl\middleware/ble/cy_ble_gap.h **** /** GAP Service characteristics server's GATT DB handles structure type */
 169:Generated_Source\PSoC6\pdl\middleware/ble/cy_ble_gap.h **** typedef struct
 170:Generated_Source\PSoC6\pdl\middleware/ble/cy_ble_gap.h **** {
 171:Generated_Source\PSoC6\pdl\middleware/ble/cy_ble_gap.h ****     /** Handle of the GAPS Device Name Characteristic */
 172:Generated_Source\PSoC6\pdl\middleware/ble/cy_ble_gap.h ****     cy_ble_gatt_db_attr_handle_t deviceNameCharHandle;
 173:Generated_Source\PSoC6\pdl\middleware/ble/cy_ble_gap.h **** 
 174:Generated_Source\PSoC6\pdl\middleware/ble/cy_ble_gap.h ****     /** Handle of the GAPS Appearance Characteristic */
 175:Generated_Source\PSoC6\pdl\middleware/ble/cy_ble_gap.h ****     cy_ble_gatt_db_attr_handle_t appearanceCharHandle;
 176:Generated_Source\PSoC6\pdl\middleware/ble/cy_ble_gap.h **** 
 177:Generated_Source\PSoC6\pdl\middleware/ble/cy_ble_gap.h ****     /** Handle of the GAPS Peripheral Privacy Flag Parameters Characteristic */
 178:Generated_Source\PSoC6\pdl\middleware/ble/cy_ble_gap.h ****     cy_ble_gatt_db_attr_handle_t periphPrivacyCharHandle;
 179:Generated_Source\PSoC6\pdl\middleware/ble/cy_ble_gap.h **** 
 180:Generated_Source\PSoC6\pdl\middleware/ble/cy_ble_gap.h ****     /** Handle of the GAPS Reconnection Address Characteristic */
 181:Generated_Source\PSoC6\pdl\middleware/ble/cy_ble_gap.h ****     cy_ble_gatt_db_attr_handle_t reconnAddrCharHandle;
 182:Generated_Source\PSoC6\pdl\middleware/ble/cy_ble_gap.h **** 
 183:Generated_Source\PSoC6\pdl\middleware/ble/cy_ble_gap.h ****     /** Handle of the GAPS Peripheral Preferred Connection Parameters Characteristic */
 184:Generated_Source\PSoC6\pdl\middleware/ble/cy_ble_gap.h ****     cy_ble_gatt_db_attr_handle_t prefConnParamCharHandle;
ARM GAS  C:\Users\salaz\AppData\Local\Temp\cc3G70Xt.s 			page 11


 185:Generated_Source\PSoC6\pdl\middleware/ble/cy_ble_gap.h **** 
 186:Generated_Source\PSoC6\pdl\middleware/ble/cy_ble_gap.h ****     /** Handle of the GAPS Central Address Resolution characteristic */
 187:Generated_Source\PSoC6\pdl\middleware/ble/cy_ble_gap.h ****     cy_ble_gatt_db_attr_handle_t centralAddrResolutionCharHandle;
 188:Generated_Source\PSoC6\pdl\middleware/ble/cy_ble_gap.h **** 
 189:Generated_Source\PSoC6\pdl\middleware/ble/cy_ble_gap.h ****     /** Handle of the GAPS Resolvable Private Address Only characteristic */
 190:Generated_Source\PSoC6\pdl\middleware/ble/cy_ble_gap.h ****     cy_ble_gatt_db_attr_handle_t resolvablePrivateAddressOnly;
 191:Generated_Source\PSoC6\pdl\middleware/ble/cy_ble_gap.h **** }cy_stc_ble_gapc_t;
 192:Generated_Source\PSoC6\pdl\middleware/ble/cy_ble_gap.h **** 
 193:Generated_Source\PSoC6\pdl\middleware/ble/cy_ble_gap.h **** /* Stack mode defines */
 194:Generated_Source\PSoC6\pdl\middleware/ble/cy_ble_gap.h **** 
 195:Generated_Source\PSoC6\pdl\middleware/ble/cy_ble_gap.h **** /** Advertisement SIG assigned numbers */
 196:Generated_Source\PSoC6\pdl\middleware/ble/cy_ble_gap.h **** typedef enum
 197:Generated_Source\PSoC6\pdl\middleware/ble/cy_ble_gap.h **** {
 198:Generated_Source\PSoC6\pdl\middleware/ble/cy_ble_gap.h ****     /** Flags */
 199:Generated_Source\PSoC6\pdl\middleware/ble/cy_ble_gap.h ****     CY_BLE_GAP_ADV_FLAGS = 0x01u,
 200:Generated_Source\PSoC6\pdl\middleware/ble/cy_ble_gap.h **** 
 201:Generated_Source\PSoC6\pdl\middleware/ble/cy_ble_gap.h ****     /** Incomplete List of 16-bit Service Class UUIDs */
 202:Generated_Source\PSoC6\pdl\middleware/ble/cy_ble_gap.h ****     CY_BLE_GAP_ADV_INCOMPL_16UUID,
 203:Generated_Source\PSoC6\pdl\middleware/ble/cy_ble_gap.h **** 
 204:Generated_Source\PSoC6\pdl\middleware/ble/cy_ble_gap.h ****     /** Complete List of 16-bit Service Class UUIDs */
 205:Generated_Source\PSoC6\pdl\middleware/ble/cy_ble_gap.h ****     CY_BLE_GAP_ADV_COMPL_16UUID,
 206:Generated_Source\PSoC6\pdl\middleware/ble/cy_ble_gap.h **** 
 207:Generated_Source\PSoC6\pdl\middleware/ble/cy_ble_gap.h ****     /** Incomplete List of 32-bit Service Class UUIDs */
 208:Generated_Source\PSoC6\pdl\middleware/ble/cy_ble_gap.h ****     CY_BLE_GAP_ADV_INCOMPL_32_UUID,
 209:Generated_Source\PSoC6\pdl\middleware/ble/cy_ble_gap.h **** 
 210:Generated_Source\PSoC6\pdl\middleware/ble/cy_ble_gap.h ****     /** Complete List of 32-bit Service Class UUIDs */
 211:Generated_Source\PSoC6\pdl\middleware/ble/cy_ble_gap.h ****     CY_BLE_GAP_ADV_COMPL_32_UUID,
 212:Generated_Source\PSoC6\pdl\middleware/ble/cy_ble_gap.h **** 
 213:Generated_Source\PSoC6\pdl\middleware/ble/cy_ble_gap.h ****     /** Incomplete List of 128-bit Service Class UUIDs */
 214:Generated_Source\PSoC6\pdl\middleware/ble/cy_ble_gap.h ****     CY_BLE_GAP_ADV_INCOMPL_128_UUID,
 215:Generated_Source\PSoC6\pdl\middleware/ble/cy_ble_gap.h **** 
 216:Generated_Source\PSoC6\pdl\middleware/ble/cy_ble_gap.h ****     /** Complete List of 128-bit Service Class UUIDs */
 217:Generated_Source\PSoC6\pdl\middleware/ble/cy_ble_gap.h ****     CY_BLE_GAP_ADV_COMPL_128_UUID,
 218:Generated_Source\PSoC6\pdl\middleware/ble/cy_ble_gap.h **** 
 219:Generated_Source\PSoC6\pdl\middleware/ble/cy_ble_gap.h ****     /** Shortened Local Name */
 220:Generated_Source\PSoC6\pdl\middleware/ble/cy_ble_gap.h ****     CY_BLE_GAP_ADV_SHORT_NAME,
 221:Generated_Source\PSoC6\pdl\middleware/ble/cy_ble_gap.h **** 
 222:Generated_Source\PSoC6\pdl\middleware/ble/cy_ble_gap.h ****     /** Complete Local Name */
 223:Generated_Source\PSoC6\pdl\middleware/ble/cy_ble_gap.h ****     CY_BLE_GAP_ADV_COMPL_NAME,
 224:Generated_Source\PSoC6\pdl\middleware/ble/cy_ble_gap.h **** 
 225:Generated_Source\PSoC6\pdl\middleware/ble/cy_ble_gap.h ****     /** Tx Power Level */
 226:Generated_Source\PSoC6\pdl\middleware/ble/cy_ble_gap.h ****     CY_BLE_GAP_ADV_TX_PWR_LVL,
 227:Generated_Source\PSoC6\pdl\middleware/ble/cy_ble_gap.h **** 
 228:Generated_Source\PSoC6\pdl\middleware/ble/cy_ble_gap.h ****     /** Class of Device */
 229:Generated_Source\PSoC6\pdl\middleware/ble/cy_ble_gap.h ****     CY_BLE_GAP_ADV_CLASS_OF_DEVICE = 0x0Du,
 230:Generated_Source\PSoC6\pdl\middleware/ble/cy_ble_gap.h **** 
 231:Generated_Source\PSoC6\pdl\middleware/ble/cy_ble_gap.h ****     /** Simple Pairing Hash C */
 232:Generated_Source\PSoC6\pdl\middleware/ble/cy_ble_gap.h ****     CY_BLE_GAP_ADV_SMPL_PAIR_HASH_C,
 233:Generated_Source\PSoC6\pdl\middleware/ble/cy_ble_gap.h **** 
 234:Generated_Source\PSoC6\pdl\middleware/ble/cy_ble_gap.h ****     /** Simple Pairing Randomizer R */
 235:Generated_Source\PSoC6\pdl\middleware/ble/cy_ble_gap.h ****     CY_BLE_GAP_ADV_SMPL_PAIR_RANDOM_R,
 236:Generated_Source\PSoC6\pdl\middleware/ble/cy_ble_gap.h **** 
 237:Generated_Source\PSoC6\pdl\middleware/ble/cy_ble_gap.h ****     /** Device ID*/
 238:Generated_Source\PSoC6\pdl\middleware/ble/cy_ble_gap.h ****     CY_BLE_GAP_ADV_DEVICE_ID,
 239:Generated_Source\PSoC6\pdl\middleware/ble/cy_ble_gap.h **** 
 240:Generated_Source\PSoC6\pdl\middleware/ble/cy_ble_gap.h ****     /** Security Manager TK Value */
 241:Generated_Source\PSoC6\pdl\middleware/ble/cy_ble_gap.h ****     CY_BLE_GAP_ADV_SCRT_MNGR_TK_VAL = 0x10u,
ARM GAS  C:\Users\salaz\AppData\Local\Temp\cc3G70Xt.s 			page 12


 242:Generated_Source\PSoC6\pdl\middleware/ble/cy_ble_gap.h **** 
 243:Generated_Source\PSoC6\pdl\middleware/ble/cy_ble_gap.h ****     /** Security Manager Out of Band Flags */
 244:Generated_Source\PSoC6\pdl\middleware/ble/cy_ble_gap.h ****     CY_BLE_GAP_ADV_SCRT_MNGR_OOB_FLAGS,
 245:Generated_Source\PSoC6\pdl\middleware/ble/cy_ble_gap.h **** 
 246:Generated_Source\PSoC6\pdl\middleware/ble/cy_ble_gap.h ****     /** Slave Connection Interval Range */
 247:Generated_Source\PSoC6\pdl\middleware/ble/cy_ble_gap.h ****     CY_BLE_GAP_ADV_SLAVE_CONN_INTRV_RANGE,
 248:Generated_Source\PSoC6\pdl\middleware/ble/cy_ble_gap.h **** 
 249:Generated_Source\PSoC6\pdl\middleware/ble/cy_ble_gap.h ****     /** List of 16-bit Service Solicitation UUIDs */
 250:Generated_Source\PSoC6\pdl\middleware/ble/cy_ble_gap.h ****     CY_BLE_GAP_ADV_SOLICIT_16UUID = 0x14u,
 251:Generated_Source\PSoC6\pdl\middleware/ble/cy_ble_gap.h **** 
 252:Generated_Source\PSoC6\pdl\middleware/ble/cy_ble_gap.h ****     /** List of 128-bit Service Solicitation UUIDs */
 253:Generated_Source\PSoC6\pdl\middleware/ble/cy_ble_gap.h ****     CY_BLE_GAP_ADV_SOLICIT_128UUID,
 254:Generated_Source\PSoC6\pdl\middleware/ble/cy_ble_gap.h **** 
 255:Generated_Source\PSoC6\pdl\middleware/ble/cy_ble_gap.h ****     /** Service Data - 16-bit UUID */
 256:Generated_Source\PSoC6\pdl\middleware/ble/cy_ble_gap.h ****     CY_BLE_GAP_ADV_SRVC_DATA_16UUID,
 257:Generated_Source\PSoC6\pdl\middleware/ble/cy_ble_gap.h **** 
 258:Generated_Source\PSoC6\pdl\middleware/ble/cy_ble_gap.h ****     /** Public Target Address */
 259:Generated_Source\PSoC6\pdl\middleware/ble/cy_ble_gap.h ****     CY_BLE_GAP_ADV_PUBLIC_TARGET_ADDR,
 260:Generated_Source\PSoC6\pdl\middleware/ble/cy_ble_gap.h **** 
 261:Generated_Source\PSoC6\pdl\middleware/ble/cy_ble_gap.h ****     /** Random Target Address */
 262:Generated_Source\PSoC6\pdl\middleware/ble/cy_ble_gap.h ****     CY_BLE_GAP_ADV_RANDOM_TARGET_ADDR,
 263:Generated_Source\PSoC6\pdl\middleware/ble/cy_ble_gap.h **** 
 264:Generated_Source\PSoC6\pdl\middleware/ble/cy_ble_gap.h ****     /** Appearance */
 265:Generated_Source\PSoC6\pdl\middleware/ble/cy_ble_gap.h ****     CY_BLE_GAP_ADV_APPEARANCE,
 266:Generated_Source\PSoC6\pdl\middleware/ble/cy_ble_gap.h **** 
 267:Generated_Source\PSoC6\pdl\middleware/ble/cy_ble_gap.h ****     /** Advertising Interval */
 268:Generated_Source\PSoC6\pdl\middleware/ble/cy_ble_gap.h ****     CY_BLE_GAP_ADV_ADVERT_INTERVAL,
 269:Generated_Source\PSoC6\pdl\middleware/ble/cy_ble_gap.h **** 
 270:Generated_Source\PSoC6\pdl\middleware/ble/cy_ble_gap.h ****     /** LE Bluetooth Device Address */
 271:Generated_Source\PSoC6\pdl\middleware/ble/cy_ble_gap.h ****     CY_BLE_GAP_ADV_LE_BT_DEVICE_ADDR,
 272:Generated_Source\PSoC6\pdl\middleware/ble/cy_ble_gap.h **** 
 273:Generated_Source\PSoC6\pdl\middleware/ble/cy_ble_gap.h ****     /** LE Role */
 274:Generated_Source\PSoC6\pdl\middleware/ble/cy_ble_gap.h ****     CY_BLE_GAP_ADV_LE_ROLE,
 275:Generated_Source\PSoC6\pdl\middleware/ble/cy_ble_gap.h **** 
 276:Generated_Source\PSoC6\pdl\middleware/ble/cy_ble_gap.h ****     /** Simple Pairing Hash C-256 */
 277:Generated_Source\PSoC6\pdl\middleware/ble/cy_ble_gap.h ****     CY_BLE_GAP_ADV_SMPL_PAIR_HASH_C256,
 278:Generated_Source\PSoC6\pdl\middleware/ble/cy_ble_gap.h **** 
 279:Generated_Source\PSoC6\pdl\middleware/ble/cy_ble_gap.h ****     /** Simple Pairing Randomizer R-256 */
 280:Generated_Source\PSoC6\pdl\middleware/ble/cy_ble_gap.h ****     CY_BLE_GAP_ADV_SMPL_PAIR_RANDOM_R256,
 281:Generated_Source\PSoC6\pdl\middleware/ble/cy_ble_gap.h **** 
 282:Generated_Source\PSoC6\pdl\middleware/ble/cy_ble_gap.h ****     /** List of 32-bit Service Solicitation UUIDs */
 283:Generated_Source\PSoC6\pdl\middleware/ble/cy_ble_gap.h ****     CY_BLE_GAP_ADV_SOLICIT_32UUID,
 284:Generated_Source\PSoC6\pdl\middleware/ble/cy_ble_gap.h **** 
 285:Generated_Source\PSoC6\pdl\middleware/ble/cy_ble_gap.h ****     /** Service Data - 32-bit UUID */
 286:Generated_Source\PSoC6\pdl\middleware/ble/cy_ble_gap.h ****     CY_BLE_GAP_ADV_SRVC_DATA_32UUID,
 287:Generated_Source\PSoC6\pdl\middleware/ble/cy_ble_gap.h **** 
 288:Generated_Source\PSoC6\pdl\middleware/ble/cy_ble_gap.h ****     /** Service Data - 128-bit UUID */
 289:Generated_Source\PSoC6\pdl\middleware/ble/cy_ble_gap.h ****     CY_BLE_GAP_ADV_SRVC_DATA_128UUID,
 290:Generated_Source\PSoC6\pdl\middleware/ble/cy_ble_gap.h **** 
 291:Generated_Source\PSoC6\pdl\middleware/ble/cy_ble_gap.h ****     /** 3D Information Data */
 292:Generated_Source\PSoC6\pdl\middleware/ble/cy_ble_gap.h ****     CY_BLE_GAP_ADV_3D_INFO_DATA = 0x3D,
 293:Generated_Source\PSoC6\pdl\middleware/ble/cy_ble_gap.h **** 
 294:Generated_Source\PSoC6\pdl\middleware/ble/cy_ble_gap.h ****     /** Manufacturer Specific Data */
 295:Generated_Source\PSoC6\pdl\middleware/ble/cy_ble_gap.h ****     CY_BLE_GAP_ADV_MANUFACTURER_SPECIFIC_DATA = 0xFF
 296:Generated_Source\PSoC6\pdl\middleware/ble/cy_ble_gap.h **** }cy_en_ble_gap_adv_assign_numbers_t;
 297:Generated_Source\PSoC6\pdl\middleware/ble/cy_ble_gap.h **** 
 298:Generated_Source\PSoC6\pdl\middleware/ble/cy_ble_gap.h **** /** GAPP advertising configuration parameters structure */
ARM GAS  C:\Users\salaz\AppData\Local\Temp\cc3G70Xt.s 			page 13


 299:Generated_Source\PSoC6\pdl\middleware/ble/cy_ble_gap.h **** typedef struct
 300:Generated_Source\PSoC6\pdl\middleware/ble/cy_ble_gap.h **** {
 301:Generated_Source\PSoC6\pdl\middleware/ble/cy_ble_gap.h ****     /** The minimum interval for fast advertising the data and establishing the LE Connection */
 302:Generated_Source\PSoC6\pdl\middleware/ble/cy_ble_gap.h ****     uint16_t fastAdvIntervalMin;
 303:Generated_Source\PSoC6\pdl\middleware/ble/cy_ble_gap.h **** 
 304:Generated_Source\PSoC6\pdl\middleware/ble/cy_ble_gap.h ****     /** The maximum interval for fast advertising the data and establishing the LE Connection */
 305:Generated_Source\PSoC6\pdl\middleware/ble/cy_ble_gap.h ****     uint16_t fastAdvIntervalMax;
 306:Generated_Source\PSoC6\pdl\middleware/ble/cy_ble_gap.h **** 
 307:Generated_Source\PSoC6\pdl\middleware/ble/cy_ble_gap.h ****     /** The timeout value of  fast advertising with fast advertising interval parameters */
 308:Generated_Source\PSoC6\pdl\middleware/ble/cy_ble_gap.h ****     uint16_t fastAdvTimeOut;
 309:Generated_Source\PSoC6\pdl\middleware/ble/cy_ble_gap.h **** 
 310:Generated_Source\PSoC6\pdl\middleware/ble/cy_ble_gap.h ****     /** Slow advertising enable */
 311:Generated_Source\PSoC6\pdl\middleware/ble/cy_ble_gap.h ****     uint8_t  slowAdvEnable;
 312:Generated_Source\PSoC6\pdl\middleware/ble/cy_ble_gap.h **** 
 313:Generated_Source\PSoC6\pdl\middleware/ble/cy_ble_gap.h ****     /** The minimum interval for slow advertising the data and establishing the LE Connection */
 314:Generated_Source\PSoC6\pdl\middleware/ble/cy_ble_gap.h ****     uint16_t slowAdvIntervalMin;
 315:Generated_Source\PSoC6\pdl\middleware/ble/cy_ble_gap.h **** 
 316:Generated_Source\PSoC6\pdl\middleware/ble/cy_ble_gap.h ****     /** The maximum interval for slow  advertising the data and establishing the LE Connection */
 317:Generated_Source\PSoC6\pdl\middleware/ble/cy_ble_gap.h ****     uint16_t slowAdvIntervalMax;
 318:Generated_Source\PSoC6\pdl\middleware/ble/cy_ble_gap.h **** 
 319:Generated_Source\PSoC6\pdl\middleware/ble/cy_ble_gap.h ****     /** The timeout value of slow advertising with slow advertising interval parameters */
 320:Generated_Source\PSoC6\pdl\middleware/ble/cy_ble_gap.h ****     uint16_t slowAdvTimeOut;
 321:Generated_Source\PSoC6\pdl\middleware/ble/cy_ble_gap.h **** }cy_stc_ble_gapp_adv_params_t;
 322:Generated_Source\PSoC6\pdl\middleware/ble/cy_ble_gap.h **** 
 323:Generated_Source\PSoC6\pdl\middleware/ble/cy_ble_gap.h **** /** GAPC advertising configuration parameters structure */
 324:Generated_Source\PSoC6\pdl\middleware/ble/cy_ble_gap.h **** typedef struct
 325:Generated_Source\PSoC6\pdl\middleware/ble/cy_ble_gap.h **** {
 326:Generated_Source\PSoC6\pdl\middleware/ble/cy_ble_gap.h ****     /** The scan interval when operating in Fast connection */
 327:Generated_Source\PSoC6\pdl\middleware/ble/cy_ble_gap.h ****     uint16_t fastScanInterval;
 328:Generated_Source\PSoC6\pdl\middleware/ble/cy_ble_gap.h **** 
 329:Generated_Source\PSoC6\pdl\middleware/ble/cy_ble_gap.h ****     /** Defines the scan window when operating in Fast connection */
 330:Generated_Source\PSoC6\pdl\middleware/ble/cy_ble_gap.h ****     uint16_t fastScanWindow;
 331:Generated_Source\PSoC6\pdl\middleware/ble/cy_ble_gap.h **** 
 332:Generated_Source\PSoC6\pdl\middleware/ble/cy_ble_gap.h ****     /** The timeout value of scanning with fast scan parameters */
 333:Generated_Source\PSoC6\pdl\middleware/ble/cy_ble_gap.h ****     uint16_t fastScanTimeOut;
 334:Generated_Source\PSoC6\pdl\middleware/ble/cy_ble_gap.h **** 
 335:Generated_Source\PSoC6\pdl\middleware/ble/cy_ble_gap.h ****     /** Slow scan enable/disable */
 336:Generated_Source\PSoC6\pdl\middleware/ble/cy_ble_gap.h ****     uint8_t  slowScanEnabled;
 337:Generated_Source\PSoC6\pdl\middleware/ble/cy_ble_gap.h **** 
 338:Generated_Source\PSoC6\pdl\middleware/ble/cy_ble_gap.h ****     /** The scan interval when operating in Slow connection */
 339:Generated_Source\PSoC6\pdl\middleware/ble/cy_ble_gap.h ****     uint16_t slowScanInterval;
 340:Generated_Source\PSoC6\pdl\middleware/ble/cy_ble_gap.h **** 
 341:Generated_Source\PSoC6\pdl\middleware/ble/cy_ble_gap.h ****     /** Defines the scan window when operating in Slow connection */
 342:Generated_Source\PSoC6\pdl\middleware/ble/cy_ble_gap.h ****     uint16_t slowScanWindow;
 343:Generated_Source\PSoC6\pdl\middleware/ble/cy_ble_gap.h **** 
 344:Generated_Source\PSoC6\pdl\middleware/ble/cy_ble_gap.h ****     /** The timeout value of scanning with Slow scan parameters */
 345:Generated_Source\PSoC6\pdl\middleware/ble/cy_ble_gap.h ****     uint16_t slowScanTimeOut;
 346:Generated_Source\PSoC6\pdl\middleware/ble/cy_ble_gap.h **** 
 347:Generated_Source\PSoC6\pdl\middleware/ble/cy_ble_gap.h ****     /** The minimum permissible connection time value to be used during a connection event */
 348:Generated_Source\PSoC6\pdl\middleware/ble/cy_ble_gap.h ****     uint16_t gapcConnectionIntervalMin;
 349:Generated_Source\PSoC6\pdl\middleware/ble/cy_ble_gap.h **** 
 350:Generated_Source\PSoC6\pdl\middleware/ble/cy_ble_gap.h ****     /** The maximum permissible connection time value to be used during a connection event */
 351:Generated_Source\PSoC6\pdl\middleware/ble/cy_ble_gap.h ****     uint16_t gapcConnectionIntervalMax;
 352:Generated_Source\PSoC6\pdl\middleware/ble/cy_ble_gap.h **** 
 353:Generated_Source\PSoC6\pdl\middleware/ble/cy_ble_gap.h ****     /** Defines the maximum time between two received Data Packet PDUs before
 354:Generated_Source\PSoC6\pdl\middleware/ble/cy_ble_gap.h ****      *  the connection is considered lost */
 355:Generated_Source\PSoC6\pdl\middleware/ble/cy_ble_gap.h ****     uint16_t gapcConnectionSlaveLatency;
ARM GAS  C:\Users\salaz\AppData\Local\Temp\cc3G70Xt.s 			page 14


 356:Generated_Source\PSoC6\pdl\middleware/ble/cy_ble_gap.h **** 
 357:Generated_Source\PSoC6\pdl\middleware/ble/cy_ble_gap.h ****     /** Defines the LE link supervision timeout interval */
 358:Generated_Source\PSoC6\pdl\middleware/ble/cy_ble_gap.h ****     uint16_t gapcConnectionTimeOut;
 359:Generated_Source\PSoC6\pdl\middleware/ble/cy_ble_gap.h **** }cy_stc_ble_gapc_scan_params_t;
 360:Generated_Source\PSoC6\pdl\middleware/ble/cy_ble_gap.h **** 
 361:Generated_Source\PSoC6\pdl\middleware/ble/cy_ble_gap.h **** /** Store BLE Application Data parameter into flash */
 362:Generated_Source\PSoC6\pdl\middleware/ble/cy_ble_gap.h **** typedef struct
 363:Generated_Source\PSoC6\pdl\middleware/ble/cy_ble_gap.h **** {
 364:Generated_Source\PSoC6\pdl\middleware/ble/cy_ble_gap.h ****     /** Source buffer */
 365:Generated_Source\PSoC6\pdl\middleware/ble/cy_ble_gap.h ****     const uint8_t *srcBuff;
 366:Generated_Source\PSoC6\pdl\middleware/ble/cy_ble_gap.h **** 
 367:Generated_Source\PSoC6\pdl\middleware/ble/cy_ble_gap.h ****     /** Destination buffer */
 368:Generated_Source\PSoC6\pdl\middleware/ble/cy_ble_gap.h ****     const uint8_t *destAddr;
 369:Generated_Source\PSoC6\pdl\middleware/ble/cy_ble_gap.h **** 
 370:Generated_Source\PSoC6\pdl\middleware/ble/cy_ble_gap.h ****     /** Source buffer length */
 371:Generated_Source\PSoC6\pdl\middleware/ble/cy_ble_gap.h ****     uint32_t      buffLen;
 372:Generated_Source\PSoC6\pdl\middleware/ble/cy_ble_gap.h ****     
 373:Generated_Source\PSoC6\pdl\middleware/ble/cy_ble_gap.h ****     /** Write mode: blocking (default) / non-blocking */
 374:Generated_Source\PSoC6\pdl\middleware/ble/cy_ble_gap.h ****     uint32_t      writeMode;
 375:Generated_Source\PSoC6\pdl\middleware/ble/cy_ble_gap.h ****     
 376:Generated_Source\PSoC6\pdl\middleware/ble/cy_ble_gap.h **** } cy_stc_ble_app_flash_param_t;
 377:Generated_Source\PSoC6\pdl\middleware/ble/cy_ble_gap.h **** 
 378:Generated_Source\PSoC6\pdl\middleware/ble/cy_ble_gap.h **** /** @} group_ble_common_api_gap_definitions */
 379:Generated_Source\PSoC6\pdl\middleware/ble/cy_ble_gap.h ****  
 380:Generated_Source\PSoC6\pdl\middleware/ble/cy_ble_gap.h **** /***************************************
 381:Generated_Source\PSoC6\pdl\middleware/ble/cy_ble_gap.h **** * API Constants
 382:Generated_Source\PSoC6\pdl\middleware/ble/cy_ble_gap.h **** ***************************************/
 383:Generated_Source\PSoC6\pdl\middleware/ble/cy_ble_gap.h **** #define CY_BLE_AD_TYPE_MORE16UUID                  (0x02u)
 384:Generated_Source\PSoC6\pdl\middleware/ble/cy_ble_gap.h **** #define CY_BLE_AD_TYPE_CMPL16UUID                  (0x03u)
 385:Generated_Source\PSoC6\pdl\middleware/ble/cy_ble_gap.h **** #define CY_BLE_AD_TYPE_MORE32UUID                  (0x04u)
 386:Generated_Source\PSoC6\pdl\middleware/ble/cy_ble_gap.h **** #define CY_BLE_AD_TYPE_CMPL32UUID                  (0x05u)
 387:Generated_Source\PSoC6\pdl\middleware/ble/cy_ble_gap.h **** #define CY_BLE_AD_TYPE_MORE128UUID                 (0x06u)
 388:Generated_Source\PSoC6\pdl\middleware/ble/cy_ble_gap.h **** #define CY_BLE_AD_TYPE_CMPL128UUID                 (0x07u)
 389:Generated_Source\PSoC6\pdl\middleware/ble/cy_ble_gap.h **** 
 390:Generated_Source\PSoC6\pdl\middleware/ble/cy_ble_gap.h **** #define CY_BLE_AD_TYPE_SERVICE_DATA                (0x16u)
 391:Generated_Source\PSoC6\pdl\middleware/ble/cy_ble_gap.h **** #define CY_BLE_AD_SERVICE_DATA_OVERHEAD            (0x03u)
 392:Generated_Source\PSoC6\pdl\middleware/ble/cy_ble_gap.h **** 
 393:Generated_Source\PSoC6\pdl\middleware/ble/cy_ble_gap.h **** #define CY_BLE_DISCOVERY_IDLE                      (0x00u)
 394:Generated_Source\PSoC6\pdl\middleware/ble/cy_ble_gap.h **** #define CY_BLE_DISCOVERY_SERVICE                   (0x01u)
 395:Generated_Source\PSoC6\pdl\middleware/ble/cy_ble_gap.h **** #define CY_BLE_DISCOVERY_CHAR                      (0x02u)
 396:Generated_Source\PSoC6\pdl\middleware/ble/cy_ble_gap.h **** #define CY_BLE_DISCOVERY_DESCR                     (0x03u)
 397:Generated_Source\PSoC6\pdl\middleware/ble/cy_ble_gap.h **** #define CY_BLE_DISCOVERY_DONE                      (0x04u)
 398:Generated_Source\PSoC6\pdl\middleware/ble/cy_ble_gap.h **** 
 399:Generated_Source\PSoC6\pdl\middleware/ble/cy_ble_gap.h **** /* Cy_BLE_NextCharDscrDiscovery parameters */
 400:Generated_Source\PSoC6\pdl\middleware/ble/cy_ble_gap.h **** #define CY_BLE_DISCOVERY_INIT                      (0x00u)
 401:Generated_Source\PSoC6\pdl\middleware/ble/cy_ble_gap.h **** #define CY_BLE_DISCOVERY_CONTINUE                  (0x01u)
 402:Generated_Source\PSoC6\pdl\middleware/ble/cy_ble_gap.h **** 
 403:Generated_Source\PSoC6\pdl\middleware/ble/cy_ble_gap.h **** #define CY_BLE_SFLASH_DIE_X_MASK                   (0x3Fu)
 404:Generated_Source\PSoC6\pdl\middleware/ble/cy_ble_gap.h **** #define CY_BLE_SFLASH_DIE_X_BITS                   (6u)
 405:Generated_Source\PSoC6\pdl\middleware/ble/cy_ble_gap.h **** #define CY_BLE_SFLASH_DIE_Y_MASK                   (0x3Fu)
 406:Generated_Source\PSoC6\pdl\middleware/ble/cy_ble_gap.h **** #define CY_BLE_SFLASH_DIE_Y_BITS                   (6u)
 407:Generated_Source\PSoC6\pdl\middleware/ble/cy_ble_gap.h **** #define CY_BLE_SFLASH_DIE_XY_BITS                  (CY_BLE_SFLASH_DIE_X_BITS + CY_BLE_SFLASH_DIE_Y_
 408:Generated_Source\PSoC6\pdl\middleware/ble/cy_ble_gap.h **** #define CY_BLE_SFLASH_DIE_WAFER_MASK               (0x1Fu)
 409:Generated_Source\PSoC6\pdl\middleware/ble/cy_ble_gap.h **** #define CY_BLE_SFLASH_DIE_WAFER_BITS               (5u)
 410:Generated_Source\PSoC6\pdl\middleware/ble/cy_ble_gap.h **** #define CY_BLE_SFLASH_DIE_XYWAFER_BITS             (CY_BLE_SFLASH_DIE_XY_BITS + CY_BLE_SFLASH_DIE_W
 411:Generated_Source\PSoC6\pdl\middleware/ble/cy_ble_gap.h **** #define CY_BLE_SFLASH_DIE_LOT_MASK                 (0x7Fu)
 412:Generated_Source\PSoC6\pdl\middleware/ble/cy_ble_gap.h **** #define CY_BLE_SFLASH_DIE_LOT_BITS                 (7u)
ARM GAS  C:\Users\salaz\AppData\Local\Temp\cc3G70Xt.s 			page 15


 413:Generated_Source\PSoC6\pdl\middleware/ble/cy_ble_gap.h **** 
 414:Generated_Source\PSoC6\pdl\middleware/ble/cy_ble_gap.h **** /* Device address stored by user in ROW4 of the SFLASH */
 415:Generated_Source\PSoC6\pdl\middleware/ble/cy_ble_gap.h **** #define CY_BLE_SFLASH_DEVICE_ADDRESS_PTR           ((cy_stc_ble_gap_bd_addr_t*)(SFLASH->BLE_DEVICE_
 416:Generated_Source\PSoC6\pdl\middleware/ble/cy_ble_gap.h **** #define CY_BLE_AD_STRUCTURE_MAX_LENGTH             (31u)
 417:Generated_Source\PSoC6\pdl\middleware/ble/cy_ble_gap.h **** 
 418:Generated_Source\PSoC6\pdl\middleware/ble/cy_ble_gap.h **** /* AD types for complete, shortened local name and device address */
 419:Generated_Source\PSoC6\pdl\middleware/ble/cy_ble_gap.h **** #define CY_BLE_SHORT_LOCAL_NAME                    (0x08u)  /**< Shortened Local Name */
 420:Generated_Source\PSoC6\pdl\middleware/ble/cy_ble_gap.h **** #define CY_BLE_COMPLETE_LOCAL_NAME                 (0x09u)  /**< Complete Local Name */
 421:Generated_Source\PSoC6\pdl\middleware/ble/cy_ble_gap.h **** #define CY_BLE_ADV_DEVICE_ADDR                     (0x1Bu)  /**< LE Bluetooth Device Address */
 422:Generated_Source\PSoC6\pdl\middleware/ble/cy_ble_gap.h **** 
 423:Generated_Source\PSoC6\pdl\middleware/ble/cy_ble_gap.h **** #define CY_BLE_ADVERTISING_FAST                    (0x00u)
 424:Generated_Source\PSoC6\pdl\middleware/ble/cy_ble_gap.h **** #define CY_BLE_ADVERTISING_SLOW                    (0x01u)
 425:Generated_Source\PSoC6\pdl\middleware/ble/cy_ble_gap.h **** #define CY_BLE_ADVERTISING_CUSTOM                  (0x02u)
 426:Generated_Source\PSoC6\pdl\middleware/ble/cy_ble_gap.h **** 
 427:Generated_Source\PSoC6\pdl\middleware/ble/cy_ble_gap.h **** #define CY_BLE_SCANNING_FAST                       (0x00u)
 428:Generated_Source\PSoC6\pdl\middleware/ble/cy_ble_gap.h **** #define CY_BLE_SCANNING_SLOW                       (0x01u)
 429:Generated_Source\PSoC6\pdl\middleware/ble/cy_ble_gap.h **** #define CY_BLE_SCANNING_CUSTOM                     (0x02u)
 430:Generated_Source\PSoC6\pdl\middleware/ble/cy_ble_gap.h **** 
 431:Generated_Source\PSoC6\pdl\middleware/ble/cy_ble_gap.h **** #define CY_BLE_PENDING_STACK_FLASH_WRITE_BIT       (0x01u)
 432:Generated_Source\PSoC6\pdl\middleware/ble/cy_ble_gap.h **** #define CY_BLE_PENDING_CCCD_FLASH_WRITE_BIT        (0x02u)
 433:Generated_Source\PSoC6\pdl\middleware/ble/cy_ble_gap.h **** #define CY_BLE_PENDING_CCCD_FLASH_CLEAR_BIT        (0x04u)
 434:Generated_Source\PSoC6\pdl\middleware/ble/cy_ble_gap.h **** #define CY_BLE_PENDING_CCCD_FLASH_CLEAR_ALL_BIT    (0x08u)
 435:Generated_Source\PSoC6\pdl\middleware/ble/cy_ble_gap.h **** #define CY_BLE_PENDING_CCCD_FLASH_CLEAR_MASK \
 436:Generated_Source\PSoC6\pdl\middleware/ble/cy_ble_gap.h ****     (CY_BLE_PENDING_CCCD_FLASH_CLEAR_BIT | CY_BLE_PENDING_CCCD_FLASH_CLEAR_ALL_BIT)
 437:Generated_Source\PSoC6\pdl\middleware/ble/cy_ble_gap.h ****   
 438:Generated_Source\PSoC6\pdl\middleware/ble/cy_ble_gap.h **** /**
 439:Generated_Source\PSoC6\pdl\middleware/ble/cy_ble_gap.h ****  * \addtogroup group_ble_common_api_macros
 440:Generated_Source\PSoC6\pdl\middleware/ble/cy_ble_gap.h ****  * @{
 441:Generated_Source\PSoC6\pdl\middleware/ble/cy_ble_gap.h ****  */
 442:Generated_Source\PSoC6\pdl\middleware/ble/cy_ble_gap.h ****  
 443:Generated_Source\PSoC6\pdl\middleware/ble/cy_ble_gap.h **** /* GAP Advertisement Flags */
 444:Generated_Source\PSoC6\pdl\middleware/ble/cy_ble_gap.h **** #define CY_BLE_GAP_ADV_FLAG_LE_LIMITED_DISC_MODE        (0x01u)     /**< LE Limited Discoverable Mo
 445:Generated_Source\PSoC6\pdl\middleware/ble/cy_ble_gap.h **** #define CY_BLE_GAP_ADV_FLAG_LE_GENERAL_DISC_MODE        (0x02u)     /**< LE General Discoverable Mo
 446:Generated_Source\PSoC6\pdl\middleware/ble/cy_ble_gap.h **** #define CY_BLE_GAP_ADV_FLAG_BR_EDR_NOT_SUPPORTED        (0x04u)     /**< BR/EDR not supported. */
 447:Generated_Source\PSoC6\pdl\middleware/ble/cy_ble_gap.h **** #define CY_BLE_GAP_ADV_FLAG_LE_BR_EDR_CONTROLLER        (0x08u)     /**< Simultaneous LE and BR/EDR
 448:Generated_Source\PSoC6\pdl\middleware/ble/cy_ble_gap.h **** #define CY_BLE_GAP_ADV_FLAG_LE_BR_EDR_HOST              (0x10u)     /**< Simultaneous LE and BR/EDR
 449:Generated_Source\PSoC6\pdl\middleware/ble/cy_ble_gap.h **** #define CY_BLE_GAP_ADV_FLAGS_PACKET_LENGTH              (0x02u)     /**< Length of flags in an adve
 450:Generated_Source\PSoC6\pdl\middleware/ble/cy_ble_gap.h **** 
 451:Generated_Source\PSoC6\pdl\middleware/ble/cy_ble_gap.h **** /* GAP Advertising interval min and max */
 452:Generated_Source\PSoC6\pdl\middleware/ble/cy_ble_gap.h **** #define CY_BLE_GAP_ADV_ADVERT_INTERVAL_MIN              (0x0020u)   /**< Minimum Advertising interv
 453:Generated_Source\PSoC6\pdl\middleware/ble/cy_ble_gap.h ****                                                                      *   i.e. 20 ms. */
 454:Generated_Source\PSoC6\pdl\middleware/ble/cy_ble_gap.h **** #define CY_BLE_GAP_ADV_ADVERT_INTERVAL_NONCON_MIN       (0x00A0u)   /**< Minimum Advertising interv
 455:Generated_Source\PSoC6\pdl\middleware/ble/cy_ble_gap.h ****                                                                      *   for non connectable mode, 
 456:Generated_Source\PSoC6\pdl\middleware/ble/cy_ble_gap.h **** #define CY_BLE_GAP_ADV_ADVERT_INTERVAL_MAX              (0x4000u)   /**< Maximum Advertising interv
 457:Generated_Source\PSoC6\pdl\middleware/ble/cy_ble_gap.h ****                                                                      *   i.e. 10.24 s. */
 458:Generated_Source\PSoC6\pdl\middleware/ble/cy_ble_gap.h **** #define CY_BLE_GAP_ADV_ADVERT_INTERVAL_PACKET_LENGTH    (0x03u)     /**< Length of the Advertising 
 459:Generated_Source\PSoC6\pdl\middleware/ble/cy_ble_gap.h ****                                                                      *   an advertisement packet */
 460:Generated_Source\PSoC6\pdl\middleware/ble/cy_ble_gap.h **** #define CY_BLE_GAPC_CONNECTING_TIMEOUT                  (30u)       /**< Seconds */
 461:Generated_Source\PSoC6\pdl\middleware/ble/cy_ble_gap.h **** #define CY_BLE_INVALID_CONN_HANDLE_VALUE                (0xFFu)     /**< Invalid Connection Handle 
 462:Generated_Source\PSoC6\pdl\middleware/ble/cy_ble_gap.h **** 
 463:Generated_Source\PSoC6\pdl\middleware/ble/cy_ble_gap.h **** /* Write mode for Cy_BLE_StoreAppData */
 464:Generated_Source\PSoC6\pdl\middleware/ble/cy_ble_gap.h **** #define CY_BLE_STORE_DATA_MODE_BLOCKING                 (0x0u)      /**< Blocking write */
 465:Generated_Source\PSoC6\pdl\middleware/ble/cy_ble_gap.h **** #define CY_BLE_STORE_DATA_MODE_NON_BLOCKING             (0x1u)      /**< Non-blocking write */
 466:Generated_Source\PSoC6\pdl\middleware/ble/cy_ble_gap.h **** 
 467:Generated_Source\PSoC6\pdl\middleware/ble/cy_ble_gap.h **** /** @} group_ble_common_api_macros */
 468:Generated_Source\PSoC6\pdl\middleware/ble/cy_ble_gap.h **** 
 469:Generated_Source\PSoC6\pdl\middleware/ble/cy_ble_gap.h **** /***************************************
ARM GAS  C:\Users\salaz\AppData\Local\Temp\cc3G70Xt.s 			page 16


 470:Generated_Source\PSoC6\pdl\middleware/ble/cy_ble_gap.h **** * Private Function Prototypes
 471:Generated_Source\PSoC6\pdl\middleware/ble/cy_ble_gap.h **** ***************************************/
 472:Generated_Source\PSoC6\pdl\middleware/ble/cy_ble_gap.h **** void Cy_BLE_ServiceInit(void);
 473:Generated_Source\PSoC6\pdl\middleware/ble/cy_ble_gap.h **** uint32_t Cy_BLE_GetDiscoveryIdx(cy_stc_ble_conn_handle_t connHandle);
 474:Generated_Source\PSoC6\pdl\middleware/ble/cy_ble_gap.h **** 
 475:Generated_Source\PSoC6\pdl\middleware/ble/cy_ble_gap.h **** /***************************************
 476:Generated_Source\PSoC6\pdl\middleware/ble/cy_ble_gap.h **** * Function Prototypes
 477:Generated_Source\PSoC6\pdl\middleware/ble/cy_ble_gap.h **** ***************************************/
 478:Generated_Source\PSoC6\pdl\middleware/ble/cy_ble_gap.h **** /**
 479:Generated_Source\PSoC6\pdl\middleware/ble/cy_ble_gap.h ****  * \addtogroup group_ble_common_api_functions
 480:Generated_Source\PSoC6\pdl\middleware/ble/cy_ble_gap.h ****  * @{
 481:Generated_Source\PSoC6\pdl\middleware/ble/cy_ble_gap.h ****  */
 482:Generated_Source\PSoC6\pdl\middleware/ble/cy_ble_gap.h **** 
 483:Generated_Source\PSoC6\pdl\middleware/ble/cy_ble_gap.h **** cy_en_ble_api_result_t Cy_BLE_StoreAppData(const cy_stc_ble_app_flash_param_t *param);
 484:Generated_Source\PSoC6\pdl\middleware/ble/cy_ble_gap.h **** 
 485:Generated_Source\PSoC6\pdl\middleware/ble/cy_ble_gap.h **** #if ((CY_BLE_GAP_ROLE_PERIPHERAL || CY_BLE_GAP_ROLE_CENTRAL) && (CY_BLE_BONDING_REQUIREMENT == CY_B
 486:Generated_Source\PSoC6\pdl\middleware/ble/cy_ble_gap.h **** cy_en_ble_api_result_t Cy_BLE_StoreBondingData(void);
 487:Generated_Source\PSoC6\pdl\middleware/ble/cy_ble_gap.h **** cy_en_ble_api_result_t Cy_BLE_GAP_RemoveBondedDevice(cy_stc_ble_gap_bd_addr_t* bdAddr);
 488:Generated_Source\PSoC6\pdl\middleware/ble/cy_ble_gap.h **** #endif /* (CY_BLE_GAP_ROLE_PERIPHERAL || CY_BLE_GAP_ROLE_CENTRAL) && (CY_BLE_BONDING_REQUIREMENT ==
 489:Generated_Source\PSoC6\pdl\middleware/ble/cy_ble_gap.h **** 
 490:Generated_Source\PSoC6\pdl\middleware/ble/cy_ble_gap.h **** #if (CY_BLE_GAP_ROLE_PERIPHERAL || CY_BLE_GAP_ROLE_CENTRAL)
 491:Generated_Source\PSoC6\pdl\middleware/ble/cy_ble_gap.h **** bool Cy_BLE_IsPeerConnected(uint8_t *bdAddr);
 492:Generated_Source\PSoC6\pdl\middleware/ble/cy_ble_gap.h **** bool Cy_BLE_IsDevicePaired(cy_stc_ble_conn_handle_t *connHandle);
 493:Generated_Source\PSoC6\pdl\middleware/ble/cy_ble_gap.h **** uint8_t Cy_BLE_GetDeviceRole(cy_stc_ble_conn_handle_t *connHandle);
 494:Generated_Source\PSoC6\pdl\middleware/ble/cy_ble_gap.h **** 
 495:Generated_Source\PSoC6\pdl\middleware/ble/cy_ble_gap.h **** cy_en_ble_api_result_t Cy_BLE_GetRssiPeer(uint8_t  bdHandle);
 496:Generated_Source\PSoC6\pdl\middleware/ble/cy_ble_gap.h **** #endif /* (CY_BLE_GAP_ROLE_PERIPHERAL || CY_BLE_GAP_ROLE_CENTRAL) */
 497:Generated_Source\PSoC6\pdl\middleware/ble/cy_ble_gap.h **** /** @} group_ble_common_api_functions */
 498:Generated_Source\PSoC6\pdl\middleware/ble/cy_ble_gap.h **** 
 499:Generated_Source\PSoC6\pdl\middleware/ble/cy_ble_gap.h **** /**
 500:Generated_Source\PSoC6\pdl\middleware/ble/cy_ble_gap.h ****  * \addtogroup group_ble_common_api_gap_peripheral_functions
 501:Generated_Source\PSoC6\pdl\middleware/ble/cy_ble_gap.h ****  * @{
 502:Generated_Source\PSoC6\pdl\middleware/ble/cy_ble_gap.h ****  */
 503:Generated_Source\PSoC6\pdl\middleware/ble/cy_ble_gap.h ****  
 504:Generated_Source\PSoC6\pdl\middleware/ble/cy_ble_gap.h **** #if (CY_BLE_GAP_ROLE_PERIPHERAL || CY_BLE_GAP_ROLE_BROADCASTER)
 505:Generated_Source\PSoC6\pdl\middleware/ble/cy_ble_gap.h **** cy_en_ble_api_result_t Cy_BLE_GAPP_StartAdvertisement(uint8_t advertisingIntervalType, uint8_t adve
 506:Generated_Source\PSoC6\pdl\middleware/ble/cy_ble_gap.h **** cy_en_ble_api_result_t Cy_BLE_GAPP_StopAdvertisement(void);
 507:Generated_Source\PSoC6\pdl\middleware/ble/cy_ble_gap.h **** 
 508:Generated_Source\PSoC6\pdl\middleware/ble/cy_ble_gap.h **** /** \cond IGNORE */
 509:Generated_Source\PSoC6\pdl\middleware/ble/cy_ble_gap.h **** void Cy_BLE_ChangeAdDeviceAddress(const cy_stc_ble_gap_bd_addr_t* bdAddr, uint8_t dest);
 510:Generated_Source\PSoC6\pdl\middleware/ble/cy_ble_gap.h **** /** \endcond */
 511:Generated_Source\PSoC6\pdl\middleware/ble/cy_ble_gap.h **** 
 512:Generated_Source\PSoC6\pdl\middleware/ble/cy_ble_gap.h **** #endif /* CY_BLE_GAP_ROLE_PERIPHERAL */
 513:Generated_Source\PSoC6\pdl\middleware/ble/cy_ble_gap.h **** 
 514:Generated_Source\PSoC6\pdl\middleware/ble/cy_ble_gap.h **** /** @} group_ble_common_api_gap_peripheral_functions */
 515:Generated_Source\PSoC6\pdl\middleware/ble/cy_ble_gap.h **** 
 516:Generated_Source\PSoC6\pdl\middleware/ble/cy_ble_gap.h **** /**
 517:Generated_Source\PSoC6\pdl\middleware/ble/cy_ble_gap.h ****  * \addtogroup group_ble_common_api_gap_central_functions
 518:Generated_Source\PSoC6\pdl\middleware/ble/cy_ble_gap.h ****  * @{
 519:Generated_Source\PSoC6\pdl\middleware/ble/cy_ble_gap.h ****  */
 520:Generated_Source\PSoC6\pdl\middleware/ble/cy_ble_gap.h ****  
 521:Generated_Source\PSoC6\pdl\middleware/ble/cy_ble_gap.h **** #if (CY_BLE_GAP_ROLE_CENTRAL || CY_BLE_GAP_ROLE_OBSERVER)
 522:Generated_Source\PSoC6\pdl\middleware/ble/cy_ble_gap.h **** cy_en_ble_api_result_t Cy_BLE_GAPC_StartScan(uint8_t scanningIntervalType, uint8_t scanParamIndex);
 523:Generated_Source\PSoC6\pdl\middleware/ble/cy_ble_gap.h **** cy_en_ble_api_result_t Cy_BLE_GAPC_StopScan(void);
 524:Generated_Source\PSoC6\pdl\middleware/ble/cy_ble_gap.h **** #endif /* CY_BLE_GAP_ROLE_CENTRAL || CY_BLE_GAP_ROLE_OBSERVER */
 525:Generated_Source\PSoC6\pdl\middleware/ble/cy_ble_gap.h **** 
 526:Generated_Source\PSoC6\pdl\middleware/ble/cy_ble_gap.h **** #if (CY_BLE_GAP_ROLE_CENTRAL)
ARM GAS  C:\Users\salaz\AppData\Local\Temp\cc3G70Xt.s 			page 17


 527:Generated_Source\PSoC6\pdl\middleware/ble/cy_ble_gap.h **** cy_en_ble_api_result_t Cy_BLE_GAPC_ConnectDevice(const cy_stc_ble_gap_bd_addr_t * address, uint8_t 
 528:Generated_Source\PSoC6\pdl\middleware/ble/cy_ble_gap.h **** cy_en_ble_api_result_t Cy_BLE_GAPC_CancelDeviceConnection(void);
 529:Generated_Source\PSoC6\pdl\middleware/ble/cy_ble_gap.h **** #endif /* CY_BLE_GAP_ROLE_CENTRAL */
 530:Generated_Source\PSoC6\pdl\middleware/ble/cy_ble_gap.h **** 
 531:Generated_Source\PSoC6\pdl\middleware/ble/cy_ble_gap.h **** /** @} group_ble_common_api_gap_central_functions */
 532:Generated_Source\PSoC6\pdl\middleware/ble/cy_ble_gap.h **** 
 533:Generated_Source\PSoC6\pdl\middleware/ble/cy_ble_gap.h **** /***************************************
 534:Generated_Source\PSoC6\pdl\middleware/ble/cy_ble_gap.h **** * External data references
 535:Generated_Source\PSoC6\pdl\middleware/ble/cy_ble_gap.h **** ***************************************/
 536:Generated_Source\PSoC6\pdl\middleware/ble/cy_ble_gap.h **** extern volatile uint8_t cy_ble_eventHandlerFlag;
 537:Generated_Source\PSoC6\pdl\middleware/ble/cy_ble_gap.h **** extern cy_stc_ble_gap_bd_addr_t *cy_ble_sflashDeviceAddress;
 538:Generated_Source\PSoC6\pdl\middleware/ble/cy_ble_gap.h **** extern cy_stc_ble_gap_bd_addr_t cy_ble_deviceAddress;
 539:Generated_Source\PSoC6\pdl\middleware/ble/cy_ble_gap.h **** extern cy_en_ble_state_t cy_ble_state;
 540:Generated_Source\PSoC6\pdl\middleware/ble/cy_ble_gap.h **** 
 541:Generated_Source\PSoC6\pdl\middleware/ble/cy_ble_gap.h **** #if ((CY_BLE_GAP_ROLE_PERIPHERAL || CY_BLE_GAP_ROLE_CENTRAL))
 542:Generated_Source\PSoC6\pdl\middleware/ble/cy_ble_gap.h **** extern cy_stc_ble_gap_auth_info_t cy_ble_authInfo[CY_BLE_AUTH_INFO_COUNT];
 543:Generated_Source\PSoC6\pdl\middleware/ble/cy_ble_gap.h **** #endif /* ((CY_BLE_GAP_ROLE_PERIPHERAL || CY_BLE_GAP_ROLE_CENTRAL)) */
 544:Generated_Source\PSoC6\pdl\middleware/ble/cy_ble_gap.h **** 
 545:Generated_Source\PSoC6\pdl\middleware/ble/cy_ble_gap.h **** #if (CY_BLE_GAP_ROLE_PERIPHERAL || CY_BLE_GAP_ROLE_BROADCASTER)
 546:Generated_Source\PSoC6\pdl\middleware/ble/cy_ble_gap.h **** extern cy_en_ble_adv_state_t cy_ble_advState;
 547:Generated_Source\PSoC6\pdl\middleware/ble/cy_ble_gap.h **** extern uint8_t cy_ble_advIndex;
 548:Generated_Source\PSoC6\pdl\middleware/ble/cy_ble_gap.h **** #endif  /* (CY_BLE_GAP_ROLE_PERIPHERAL || CY_BLE_GAP_ROLE_BROADCASTER) */
 549:Generated_Source\PSoC6\pdl\middleware/ble/cy_ble_gap.h **** 
 550:Generated_Source\PSoC6\pdl\middleware/ble/cy_ble_gap.h **** #if (CY_BLE_GAP_ROLE_CENTRAL || CY_BLE_GAP_ROLE_OBSERVER)
 551:Generated_Source\PSoC6\pdl\middleware/ble/cy_ble_gap.h **** extern cy_en_ble_scan_state_t cy_ble_scanState;
 552:Generated_Source\PSoC6\pdl\middleware/ble/cy_ble_gap.h **** extern uint8_t cy_ble_scanIndex;
 553:Generated_Source\PSoC6\pdl\middleware/ble/cy_ble_gap.h **** #endif /* (CY_BLE_GAP_ROLE_CENTRAL || CY_BLE_GAP_ROLE_OBSERVER) */
 554:Generated_Source\PSoC6\pdl\middleware/ble/cy_ble_gap.h **** 
 555:Generated_Source\PSoC6\pdl\middleware/ble/cy_ble_gap.h **** #if ((CY_BLE_GAP_ROLE_PERIPHERAL || CY_BLE_GAP_ROLE_CENTRAL))
 556:Generated_Source\PSoC6\pdl\middleware/ble/cy_ble_gap.h **** extern cy_stc_ble_conn_handle_t cy_ble_connHandle[CY_BLE_CONN_COUNT];
 557:Generated_Source\PSoC6\pdl\middleware/ble/cy_ble_gap.h **** extern cy_en_ble_conn_state_t cy_ble_connState[CY_BLE_CONN_COUNT];
 558:Generated_Source\PSoC6\pdl\middleware/ble/cy_ble_gap.h **** 
 559:Generated_Source\PSoC6\pdl\middleware/ble/cy_ble_gap.h **** extern volatile uint8_t cy_ble_devConnRole[CY_BLE_CONN_COUNT];                                     
 560:Generated_Source\PSoC6\pdl\middleware/ble/cy_ble_gap.h **** extern volatile bool cy_ble_pairStatus[CY_BLE_CONN_COUNT];
 561:Generated_Source\PSoC6\pdl\middleware/ble/cy_ble_gap.h **** 
 562:Generated_Source\PSoC6\pdl\middleware/ble/cy_ble_gap.h **** #endif /* ((CY_BLE_GAP_ROLE_PERIPHERAL || CY_BLE_GAP_ROLE_CENTRAL)) */
 563:Generated_Source\PSoC6\pdl\middleware/ble/cy_ble_gap.h **** 
 564:Generated_Source\PSoC6\pdl\middleware/ble/cy_ble_gap.h **** #if (CY_BLE_GAP_ROLE_CENTRAL || CY_BLE_GAP_ROLE_OBSERVER)
 565:Generated_Source\PSoC6\pdl\middleware/ble/cy_ble_gap.h **** extern cy_stc_ble_gapc_disc_info_t cy_ble_discoveryInfo[CY_BLE_GAPC_CONF_COUNT];
 566:Generated_Source\PSoC6\pdl\middleware/ble/cy_ble_gap.h **** #endif /* CY_BLE_GAP_ROLE_CENTRAL || CY_BLE_GAP_ROLE_OBSERVER */
 567:Generated_Source\PSoC6\pdl\middleware/ble/cy_ble_gap.h **** 
 568:Generated_Source\PSoC6\pdl\middleware/ble/cy_ble_gap.h **** #if (CY_BLE_GAP_ROLE_CENTRAL)
 569:Generated_Source\PSoC6\pdl\middleware/ble/cy_ble_gap.h **** extern cy_stc_ble_gapc_conn_info_t cy_ble_connectionParameters;
 570:Generated_Source\PSoC6\pdl\middleware/ble/cy_ble_gap.h **** extern cy_stc_ble_timer_info_t cy_ble_connectingTimeout;
 571:Generated_Source\PSoC6\pdl\middleware/ble/cy_ble_gap.h **** #endif /* CY_BLE_GAP_ROLE_CENTRAL */
 572:Generated_Source\PSoC6\pdl\middleware/ble/cy_ble_gap.h **** 
 573:Generated_Source\PSoC6\pdl\middleware/ble/cy_ble_gap.h **** #if (CY_BLE_GAP_ROLE_PERIPHERAL || CY_BLE_GAP_ROLE_BROADCASTER)
 574:Generated_Source\PSoC6\pdl\middleware/ble/cy_ble_gap.h **** extern cy_stc_ble_gapp_disc_mode_info_t cy_ble_discoveryModeInfo[CY_BLE_GAPP_CONF_COUNT];
 575:Generated_Source\PSoC6\pdl\middleware/ble/cy_ble_gap.h **** extern cy_stc_ble_gapp_disc_param_t cy_ble_discoveryParam[CY_BLE_GAPP_CONF_COUNT];
 576:Generated_Source\PSoC6\pdl\middleware/ble/cy_ble_gap.h **** extern cy_stc_ble_gapp_disc_data_t cy_ble_discoveryData[CY_BLE_GAPP_CONF_COUNT];
 577:Generated_Source\PSoC6\pdl\middleware/ble/cy_ble_gap.h **** extern cy_stc_ble_gapp_scan_rsp_data_t cy_ble_scanRspData[CY_BLE_GAPP_CONF_COUNT];
 578:Generated_Source\PSoC6\pdl\middleware/ble/cy_ble_gap.h **** #endif /* CY_BLE_GAP_ROLE_PERIPHERAL || CY_BLE_GAP_ROLE_BROADCASTER */
 579:Generated_Source\PSoC6\pdl\middleware/ble/cy_ble_gap.h **** 
 580:Generated_Source\PSoC6\pdl\middleware/ble/cy_ble_gap.h **** #if ((CY_BLE_GAP_ROLE_PERIPHERAL || CY_BLE_GAP_ROLE_CENTRAL) && (CY_BLE_BONDING_REQUIREMENT == CY_B
 581:Generated_Source\PSoC6\pdl\middleware/ble/cy_ble_gap.h **** 
 582:Generated_Source\PSoC6\pdl\middleware/ble/cy_ble_gap.h **** /**
 583:Generated_Source\PSoC6\pdl\middleware/ble/cy_ble_gap.h ****  * \addtogroup group_ble_common_api_global_variables
ARM GAS  C:\Users\salaz\AppData\Local\Temp\cc3G70Xt.s 			page 18


 584:Generated_Source\PSoC6\pdl\middleware/ble/cy_ble_gap.h ****  * @{
 585:Generated_Source\PSoC6\pdl\middleware/ble/cy_ble_gap.h ****  */  
 586:Generated_Source\PSoC6\pdl\middleware/ble/cy_ble_gap.h **** /** This is a two-bit variable that contains status of pending write to flash operation.
 587:Generated_Source\PSoC6\pdl\middleware/ble/cy_ble_gap.h ****  * This variable is initialized to zero in Cy_BLE_Init().
 588:Generated_Source\PSoC6\pdl\middleware/ble/cy_ble_gap.h ****  * CY_BLE_PENDING_CCCD_FLASH_WRITE_BIT flag is set after write to CCCD event when a
 589:Generated_Source\PSoC6\pdl\middleware/ble/cy_ble_gap.h ****  * peer device supports bonding (cy_ble_peerBonding[eventParam->connHandle.attId] == CY_BLE_GAP_BON
 590:Generated_Source\PSoC6\pdl\middleware/ble/cy_ble_gap.h ****  * CY_BLE_PENDING_STACK_FLASH_WRITE_BIT flag is set after CY_BLE_EVT_PENDING_FLASH_WRITE event.
 591:Generated_Source\PSoC6\pdl\middleware/ble/cy_ble_gap.h ****  * Cy_BLE_StoreBondingData() should be called to store pending bonding data.
 592:Generated_Source\PSoC6\pdl\middleware/ble/cy_ble_gap.h ****  * This function automatically clears pending bits after write operation is complete.
 593:Generated_Source\PSoC6\pdl\middleware/ble/cy_ble_gap.h ****  */
 594:Generated_Source\PSoC6\pdl\middleware/ble/cy_ble_gap.h **** extern uint8_t cy_ble_pendingFlashWrite;
 595:Generated_Source\PSoC6\pdl\middleware/ble/cy_ble_gap.h **** /** @} group_ble_common_api_global_variables */
 596:Generated_Source\PSoC6\pdl\middleware/ble/cy_ble_gap.h ****     
 597:Generated_Source\PSoC6\pdl\middleware/ble/cy_ble_gap.h **** /** Bonding type setting of peer device, CY_BLE_GAP_BONDING_NONE or CY_BLE_GAP_BONDING.
 598:Generated_Source\PSoC6\pdl\middleware/ble/cy_ble_gap.h ****  * It is initialized after pairing with peer device and used for cy_ble_pendingFlashWrite variable
 599:Generated_Source\PSoC6\pdl\middleware/ble/cy_ble_gap.h ****  * setting.
 600:Generated_Source\PSoC6\pdl\middleware/ble/cy_ble_gap.h ****  */
 601:Generated_Source\PSoC6\pdl\middleware/ble/cy_ble_gap.h **** extern uint8_t cy_ble_peerBonding[CY_BLE_CONN_COUNT];
 602:Generated_Source\PSoC6\pdl\middleware/ble/cy_ble_gap.h **** 
 603:Generated_Source\PSoC6\pdl\middleware/ble/cy_ble_gap.h **** #endif  /* (CY_BLE_BONDING_REQUIREMENT == CY_BLE_BONDING_YES) */
 604:Generated_Source\PSoC6\pdl\middleware/ble/cy_ble_gap.h **** 
 605:Generated_Source\PSoC6\pdl\middleware/ble/cy_ble_gap.h **** 
 606:Generated_Source\PSoC6\pdl\middleware/ble/cy_ble_gap.h **** /***************************************
 607:Generated_Source\PSoC6\pdl\middleware/ble/cy_ble_gap.h **** * Exported Functions (MACROS)
 608:Generated_Source\PSoC6\pdl\middleware/ble/cy_ble_gap.h **** ***************************************/
 609:Generated_Source\PSoC6\pdl\middleware/ble/cy_ble_gap.h **** #if ((CY_BLE_GAP_ROLE_PERIPHERAL || CY_BLE_GAP_ROLE_CENTRAL))
 610:Generated_Source\PSoC6\pdl\middleware/ble/cy_ble_gap.h ****    
 611:Generated_Source\PSoC6\pdl\middleware/ble/cy_ble_gap.h **** /******************************************************************************
 612:Generated_Source\PSoC6\pdl\middleware/ble/cy_ble_gap.h **** * Function Name: Cy_BLE_GetConnHandleIdx
 613:Generated_Source\PSoC6\pdl\middleware/ble/cy_ble_gap.h **** ***************************************************************************//**
 614:Generated_Source\PSoC6\pdl\middleware/ble/cy_ble_gap.h **** *
 615:Generated_Source\PSoC6\pdl\middleware/ble/cy_ble_gap.h **** *  This function searches the array of connection handles (cy_ble_connHandle[])
 616:Generated_Source\PSoC6\pdl\middleware/ble/cy_ble_gap.h **** *  for the location (index) of a handle that corresponds to the input parameter
 617:Generated_Source\PSoC6\pdl\middleware/ble/cy_ble_gap.h **** *  connHandle. bdHandle.
 618:Generated_Source\PSoC6\pdl\middleware/ble/cy_ble_gap.h **** *
 619:Generated_Source\PSoC6\pdl\middleware/ble/cy_ble_gap.h **** *  This function is designated for internal usage. 
 620:Generated_Source\PSoC6\pdl\middleware/ble/cy_ble_gap.h **** *    
 621:Generated_Source\PSoC6\pdl\middleware/ble/cy_ble_gap.h **** *  \param connHandle: The connection handle.
 622:Generated_Source\PSoC6\pdl\middleware/ble/cy_ble_gap.h **** *
 623:Generated_Source\PSoC6\pdl\middleware/ble/cy_ble_gap.h **** *  \return
 624:Generated_Source\PSoC6\pdl\middleware/ble/cy_ble_gap.h **** *  retValue: the index of connHandle  
 625:Generated_Source\PSoC6\pdl\middleware/ble/cy_ble_gap.h **** *    
 626:Generated_Source\PSoC6\pdl\middleware/ble/cy_ble_gap.h **** ******************************************************************************/
 627:Generated_Source\PSoC6\pdl\middleware/ble/cy_ble_gap.h **** __STATIC_INLINE uint8_t Cy_BLE_GetConnHandleIdx(cy_stc_ble_conn_handle_t connHandle)
 628:Generated_Source\PSoC6\pdl\middleware/ble/cy_ble_gap.h **** {
 629:Generated_Source\PSoC6\pdl\middleware/ble/cy_ble_gap.h ****     uint8_t idx;
 630:Generated_Source\PSoC6\pdl\middleware/ble/cy_ble_gap.h ****     uint8_t retValue = CY_BLE_CONN_COUNT;
 631:Generated_Source\PSoC6\pdl\middleware/ble/cy_ble_gap.h **** 
 632:Generated_Source\PSoC6\pdl\middleware/ble/cy_ble_gap.h ****     for(idx = 0u; idx < CY_BLE_CONN_COUNT; idx++)
 633:Generated_Source\PSoC6\pdl\middleware/ble/cy_ble_gap.h ****     {
 634:Generated_Source\PSoC6\pdl\middleware/ble/cy_ble_gap.h ****         if(cy_ble_connHandle[idx].bdHandle == connHandle.bdHandle)
 635:Generated_Source\PSoC6\pdl\middleware/ble/cy_ble_gap.h ****         {
 636:Generated_Source\PSoC6\pdl\middleware/ble/cy_ble_gap.h ****             retValue = idx;
 637:Generated_Source\PSoC6\pdl\middleware/ble/cy_ble_gap.h ****             break;
 638:Generated_Source\PSoC6\pdl\middleware/ble/cy_ble_gap.h ****         }
 639:Generated_Source\PSoC6\pdl\middleware/ble/cy_ble_gap.h ****     }
 640:Generated_Source\PSoC6\pdl\middleware/ble/cy_ble_gap.h ****     if(retValue == CY_BLE_CONN_COUNT)
ARM GAS  C:\Users\salaz\AppData\Local\Temp\cc3G70Xt.s 			page 19


 641:Generated_Source\PSoC6\pdl\middleware/ble/cy_ble_gap.h ****     {
 642:Generated_Source\PSoC6\pdl\middleware/ble/cy_ble_gap.h ****         /* HALT in debug mode */
 643:Generated_Source\PSoC6\pdl\middleware/ble/cy_ble_gap.h ****         CY_ASSERT(retValue != CY_BLE_CONN_COUNT);
 644:Generated_Source\PSoC6\pdl\middleware/ble/cy_ble_gap.h ****         retValue = 0u;
 645:Generated_Source\PSoC6\pdl\middleware/ble/cy_ble_gap.h ****     }
 646:Generated_Source\PSoC6\pdl\middleware/ble/cy_ble_gap.h **** 
 647:Generated_Source\PSoC6\pdl\middleware/ble/cy_ble_gap.h ****     return(retValue);
 648:Generated_Source\PSoC6\pdl\middleware/ble/cy_ble_gap.h **** }
 649:Generated_Source\PSoC6\pdl\middleware/ble/cy_ble_gap.h **** #endif  /* ((CY_BLE_GAP_ROLE_PERIPHERAL || CY_BLE_GAP_ROLE_CENTRAL)) */
 650:Generated_Source\PSoC6\pdl\middleware/ble/cy_ble_gap.h **** 
 651:Generated_Source\PSoC6\pdl\middleware/ble/cy_ble_gap.h **** /**
 652:Generated_Source\PSoC6\pdl\middleware/ble/cy_ble_gap.h ****  * \addtogroup group_ble_common_api_functions
 653:Generated_Source\PSoC6\pdl\middleware/ble/cy_ble_gap.h ****  * @{
 654:Generated_Source\PSoC6\pdl\middleware/ble/cy_ble_gap.h **** */
 655:Generated_Source\PSoC6\pdl\middleware/ble/cy_ble_gap.h **** /******************************************************************************
 656:Generated_Source\PSoC6\pdl\middleware/ble/cy_ble_gap.h **** * Function Name: Cy_BLE_GetState
 657:Generated_Source\PSoC6\pdl\middleware/ble/cy_ble_gap.h **** ***************************************************************************//**
 658:Generated_Source\PSoC6\pdl\middleware/ble/cy_ble_gap.h **** *
 659:Generated_Source\PSoC6\pdl\middleware/ble/cy_ble_gap.h **** *  This function is used to determine the current state of the BLE Middleware
 660:Generated_Source\PSoC6\pdl\middleware/ble/cy_ble_gap.h **** *  state machine :
 661:Generated_Source\PSoC6\pdl\middleware/ble/cy_ble_gap.h **** *
 662:Generated_Source\PSoC6\pdl\middleware/ble/cy_ble_gap.h **** *  \image html ble_middleware_state_machine.png
 663:Generated_Source\PSoC6\pdl\middleware/ble/cy_ble_gap.h **** *
 664:Generated_Source\PSoC6\pdl\middleware/ble/cy_ble_gap.h **** *  The BLE Middleware is in the state #CY_BLE_STATE_INITIALIZING after the 
 665:Generated_Source\PSoC6\pdl\middleware/ble/cy_ble_gap.h **** *  Cy_BLE_Enable() is called and until the #CY_BLE_EVT_STACK_ON event is not 
 666:Generated_Source\PSoC6\pdl\middleware/ble/cy_ble_gap.h **** *  received. After successful initialization the state is changed to 
 667:Generated_Source\PSoC6\pdl\middleware/ble/cy_ble_gap.h **** *  #CY_BLE_STATE_ON.
 668:Generated_Source\PSoC6\pdl\middleware/ble/cy_ble_gap.h **** *
 669:Generated_Source\PSoC6\pdl\middleware/ble/cy_ble_gap.h **** *  The BLE Middleware is in the state #CY_BLE_STATE_STOPPED 
 670:Generated_Source\PSoC6\pdl\middleware/ble/cy_ble_gap.h **** *  when the #CY_BLE_EVT_STACK_SHUTDOWN_COMPLETE event is received (after the 
 671:Generated_Source\PSoC6\pdl\middleware/ble/cy_ble_gap.h **** *  Cy_BLE_Disable() is called).
 672:Generated_Source\PSoC6\pdl\middleware/ble/cy_ble_gap.h **** *  
 673:Generated_Source\PSoC6\pdl\middleware/ble/cy_ble_gap.h **** *  For GAP Central role when the Cy_BLE_GAPC_ConnectDevice() is called, the state
 674:Generated_Source\PSoC6\pdl\middleware/ble/cy_ble_gap.h **** *  is changed to #CY_BLE_STATE_CONNECTING. After successful connection indicated
 675:Generated_Source\PSoC6\pdl\middleware/ble/cy_ble_gap.h **** *  by #CY_BLE_EVT_GAP_DEVICE_CONNECTED or #CY_BLE_EVT_GAP_ENHANCE_CONN_COMPLETE
 676:Generated_Source\PSoC6\pdl\middleware/ble/cy_ble_gap.h **** *  event or the timeout indicated by #CY_BLE_EVT_TIMEOUT event, the state is
 677:Generated_Source\PSoC6\pdl\middleware/ble/cy_ble_gap.h **** *  changed to #CY_BLE_STATE_ON.
 678:Generated_Source\PSoC6\pdl\middleware/ble/cy_ble_gap.h **** *
 679:Generated_Source\PSoC6\pdl\middleware/ble/cy_ble_gap.h **** * \return
 680:Generated_Source\PSoC6\pdl\middleware/ble/cy_ble_gap.h **** * \ref cy_en_ble_state_t : The current BLE Middleware state. The following are 
 681:Generated_Source\PSoC6\pdl\middleware/ble/cy_ble_gap.h **** *                         possible states:
 682:Generated_Source\PSoC6\pdl\middleware/ble/cy_ble_gap.h **** *
 683:Generated_Source\PSoC6\pdl\middleware/ble/cy_ble_gap.h **** *   State                      | Description
 684:Generated_Source\PSoC6\pdl\middleware/ble/cy_ble_gap.h **** *   -------------------------- | -----------
 685:Generated_Source\PSoC6\pdl\middleware/ble/cy_ble_gap.h **** *   CY_BLE_STATE_STOPPED       | BLE is turned off.
 686:Generated_Source\PSoC6\pdl\middleware/ble/cy_ble_gap.h **** *   CY_BLE_STATE_INITIALIZING  | BLE is initializing (waiting for #CY_BLE_EVT_STACK_ON event).
 687:Generated_Source\PSoC6\pdl\middleware/ble/cy_ble_gap.h **** *   CY_BLE_STATE_ON            | BLE is turned on.
 688:Generated_Source\PSoC6\pdl\middleware/ble/cy_ble_gap.h **** *   CY_BLE_STATE_CONNECTING    | BLE is connecting.
 689:Generated_Source\PSoC6\pdl\middleware/ble/cy_ble_gap.h **** 
 690:Generated_Source\PSoC6\pdl\middleware/ble/cy_ble_gap.h **** ******************************************************************************/
 691:Generated_Source\PSoC6\pdl\middleware/ble/cy_ble_gap.h **** #define Cy_BLE_GetState()    (cy_ble_state)
 692:Generated_Source\PSoC6\pdl\middleware/ble/cy_ble_gap.h **** 
 693:Generated_Source\PSoC6\pdl\middleware/ble/cy_ble_gap.h **** /** \cond IGNORE */
 694:Generated_Source\PSoC6\pdl\middleware/ble/cy_ble_gap.h **** /******************************************************************************
 695:Generated_Source\PSoC6\pdl\middleware/ble/cy_ble_gap.h **** * Function Name: Cy_BLE_SetState
 696:Generated_Source\PSoC6\pdl\middleware/ble/cy_ble_gap.h **** ***************************************************************************//**
 697:Generated_Source\PSoC6\pdl\middleware/ble/cy_ble_gap.h **** *
ARM GAS  C:\Users\salaz\AppData\Local\Temp\cc3G70Xt.s 			page 20


 698:Generated_Source\PSoC6\pdl\middleware/ble/cy_ble_gap.h **** *  Used to set the BLE Middleware state machine's state.
 699:Generated_Source\PSoC6\pdl\middleware/ble/cy_ble_gap.h **** *
 700:Generated_Source\PSoC6\pdl\middleware/ble/cy_ble_gap.h **** *  \param state: The desired state to which the event handler's
 701:Generated_Source\PSoC6\pdl\middleware/ble/cy_ble_gap.h **** *   state machine should be set. The parameter state is a variable
 702:Generated_Source\PSoC6\pdl\middleware/ble/cy_ble_gap.h **** *   of type cy_en_ble_state_t.
 703:Generated_Source\PSoC6\pdl\middleware/ble/cy_ble_gap.h **** *
 704:Generated_Source\PSoC6\pdl\middleware/ble/cy_ble_gap.h **** * \return
 705:Generated_Source\PSoC6\pdl\middleware/ble/cy_ble_gap.h **** *  None
 706:Generated_Source\PSoC6\pdl\middleware/ble/cy_ble_gap.h **** *
 707:Generated_Source\PSoC6\pdl\middleware/ble/cy_ble_gap.h **** ******************************************************************************/
 708:Generated_Source\PSoC6\pdl\middleware/ble/cy_ble_gap.h **** #define Cy_BLE_SetState(state)    (cy_ble_state = (state))
 709:Generated_Source\PSoC6\pdl\middleware/ble/cy_ble_gap.h **** /** \endcond */
 710:Generated_Source\PSoC6\pdl\middleware/ble/cy_ble_gap.h **** 
 711:Generated_Source\PSoC6\pdl\middleware/ble/cy_ble_gap.h **** #if (CY_BLE_GAP_ROLE_PERIPHERAL || CY_BLE_GAP_ROLE_BROADCASTER)
 712:Generated_Source\PSoC6\pdl\middleware/ble/cy_ble_gap.h **** 
 713:Generated_Source\PSoC6\pdl\middleware/ble/cy_ble_gap.h **** 
 714:Generated_Source\PSoC6\pdl\middleware/ble/cy_ble_gap.h **** /******************************************************************************
 715:Generated_Source\PSoC6\pdl\middleware/ble/cy_ble_gap.h **** * Function Name: Cy_BLE_GetAdvertisementState
 716:Generated_Source\PSoC6\pdl\middleware/ble/cy_ble_gap.h **** ***************************************************************************//**
 717:Generated_Source\PSoC6\pdl\middleware/ble/cy_ble_gap.h **** *    
 718:Generated_Source\PSoC6\pdl\middleware/ble/cy_ble_gap.h **** *  This function returns the state of the link layer hardware advertisement
 719:Generated_Source\PSoC6\pdl\middleware/ble/cy_ble_gap.h **** *  engine.
 720:Generated_Source\PSoC6\pdl\middleware/ble/cy_ble_gap.h **** *
 721:Generated_Source\PSoC6\pdl\middleware/ble/cy_ble_gap.h **** *  \image html ble_advertisement_state_machine.png
 722:Generated_Source\PSoC6\pdl\middleware/ble/cy_ble_gap.h **** *
 723:Generated_Source\PSoC6\pdl\middleware/ble/cy_ble_gap.h **** *  When Cy_BLE_GAPP_StartAdvertisement() is called, the state is set to
 724:Generated_Source\PSoC6\pdl\middleware/ble/cy_ble_gap.h **** *  #CY_BLE_ADV_STATE_ADV_INITIATED. It automatically changes to
 725:Generated_Source\PSoC6\pdl\middleware/ble/cy_ble_gap.h **** *  #CY_BLE_ADV_STATE_ADVERTISING when #CY_BLE_EVT_GAPP_ADVERTISEMENT_START_STOP
 726:Generated_Source\PSoC6\pdl\middleware/ble/cy_ble_gap.h **** *  event is received. When Cy_BLE_GAPP_StopAdvertisement() is called, the
 727:Generated_Source\PSoC6\pdl\middleware/ble/cy_ble_gap.h **** *  state is set to #CY_BLE_ADV_STATE_STOP_INITIATED. It automatically changes
 728:Generated_Source\PSoC6\pdl\middleware/ble/cy_ble_gap.h **** *  to #CY_BLE_ADV_STATE_STOPPED when the #CY_BLE_EVT_GAPP_ADVERTISEMENT_START_STOP
 729:Generated_Source\PSoC6\pdl\middleware/ble/cy_ble_gap.h **** *  event is received.
 730:Generated_Source\PSoC6\pdl\middleware/ble/cy_ble_gap.h **** *
 731:Generated_Source\PSoC6\pdl\middleware/ble/cy_ble_gap.h **** * \return
 732:Generated_Source\PSoC6\pdl\middleware/ble/cy_ble_gap.h **** * \ref cy_en_ble_adv_state_t :The current advertising state. The following are 
 733:Generated_Source\PSoC6\pdl\middleware/ble/cy_ble_gap.h **** *                              possible states.
 734:Generated_Source\PSoC6\pdl\middleware/ble/cy_ble_gap.h **** *
 735:Generated_Source\PSoC6\pdl\middleware/ble/cy_ble_gap.h **** *               State                |         Description
 736:Generated_Source\PSoC6\pdl\middleware/ble/cy_ble_gap.h **** *   -------------------------------- | -----------------------------
 737:Generated_Source\PSoC6\pdl\middleware/ble/cy_ble_gap.h **** *   CY_BLE_ADV_STATE_STOPPED         | Advertising is stopped.
 738:Generated_Source\PSoC6\pdl\middleware/ble/cy_ble_gap.h **** *   CY_BLE_ADV_STATE_ADV_INITIATED   | Advertising is initiated.
 739:Generated_Source\PSoC6\pdl\middleware/ble/cy_ble_gap.h **** *   CY_BLE_ADV_STATE_ADVERTISING     | Advertising is initiated.
 740:Generated_Source\PSoC6\pdl\middleware/ble/cy_ble_gap.h **** *   CY_BLE_ADV_STATE_STOP_INITIATED  | Stop advertising is initiated.
 741:Generated_Source\PSoC6\pdl\middleware/ble/cy_ble_gap.h **** *
 742:Generated_Source\PSoC6\pdl\middleware/ble/cy_ble_gap.h **** ******************************************************************************/
 743:Generated_Source\PSoC6\pdl\middleware/ble/cy_ble_gap.h **** __STATIC_INLINE cy_en_ble_adv_state_t Cy_BLE_GetAdvertisementState(void)
 744:Generated_Source\PSoC6\pdl\middleware/ble/cy_ble_gap.h **** {
 745:Generated_Source\PSoC6\pdl\middleware/ble/cy_ble_gap.h ****     return(cy_ble_advState);
 322              		.loc 2 745 0
 323 0192 734B     		ldr	r3, .L32+80
 324 0194 1978     		ldrb	r1, [r3]
 325              	.LVL27:
 326              	.LBE31:
 327              	.LBE30:
  64:Transmission.c ****             break;
  65:Transmission.c ****         }
  66:Transmission.c ****         case CY_BLE_EVT_GAPP_ADVERTISEMENT_START_STOP:
ARM GAS  C:\Users\salaz\AppData\Local\Temp\cc3G70Xt.s 			page 21


  67:Transmission.c ****         {
  68:Transmission.c ****             is_advertising = (Cy_BLE_GetAdvertisementState() == CY_BLE_ADV_STATE_ADVERTISING);
 328              		.loc 1 68 0
 329 0196 0239     		subs	r1, r1, #2
 330 0198 4A42     		rsbs	r2, r1, #0
 331 019a 4A41     		adcs	r2, r2, r1
 332 019c D1B2     		uxtb	r1, r2
 333 019e 5C4B     		ldr	r3, .L32
 334 01a0 1970     		strb	r1, [r3]
  69:Transmission.c ****             DEBUG_PRINTF("CY_BLE_EVT_GAPP_ADVERTISEMENT_START_STOP %u \r\n", (uint8)is_advertising)
 335              		.loc 1 69 0
 336 01a2 7048     		ldr	r0, .L32+84
 337              	.LVL28:
 338 01a4 FFF7FEFF 		bl	printf
 339              	.LVL29:
 340              	.L18:
 341              	.LBB32:
 342              	.LBB33:
 343              		.file 3 "Generated_Source\\PSoC6\\pdl\\drivers/peripheral/scb/cy_scb_common.h"
   1:Generated_Source\PSoC6\pdl\drivers/peripheral/scb/cy_scb_common.h **** /***************************************************************************//**
   2:Generated_Source\PSoC6\pdl\drivers/peripheral/scb/cy_scb_common.h **** * \file cy_scb_common.h
   3:Generated_Source\PSoC6\pdl\drivers/peripheral/scb/cy_scb_common.h **** * \version 2.10
   4:Generated_Source\PSoC6\pdl\drivers/peripheral/scb/cy_scb_common.h **** *
   5:Generated_Source\PSoC6\pdl\drivers/peripheral/scb/cy_scb_common.h **** * Provides common API declarations of the SCB driver.
   6:Generated_Source\PSoC6\pdl\drivers/peripheral/scb/cy_scb_common.h **** *
   7:Generated_Source\PSoC6\pdl\drivers/peripheral/scb/cy_scb_common.h **** ********************************************************************************
   8:Generated_Source\PSoC6\pdl\drivers/peripheral/scb/cy_scb_common.h **** * \copyright
   9:Generated_Source\PSoC6\pdl\drivers/peripheral/scb/cy_scb_common.h **** * Copyright 2016-2018, Cypress Semiconductor Corporation.  All rights reserved.
  10:Generated_Source\PSoC6\pdl\drivers/peripheral/scb/cy_scb_common.h **** * You may use this file only in accordance with the license, terms, conditions,
  11:Generated_Source\PSoC6\pdl\drivers/peripheral/scb/cy_scb_common.h **** * disclaimers, and limitations in the end user license agreement accompanying
  12:Generated_Source\PSoC6\pdl\drivers/peripheral/scb/cy_scb_common.h **** * the software package with which this file was provided.
  13:Generated_Source\PSoC6\pdl\drivers/peripheral/scb/cy_scb_common.h **** *******************************************************************************/
  14:Generated_Source\PSoC6\pdl\drivers/peripheral/scb/cy_scb_common.h **** 
  15:Generated_Source\PSoC6\pdl\drivers/peripheral/scb/cy_scb_common.h **** /**
  16:Generated_Source\PSoC6\pdl\drivers/peripheral/scb/cy_scb_common.h **** * \defgroup group_scb Serial Communication Block (SCB)
  17:Generated_Source\PSoC6\pdl\drivers/peripheral/scb/cy_scb_common.h **** * \{
  18:Generated_Source\PSoC6\pdl\drivers/peripheral/scb/cy_scb_common.h **** * \defgroup group_scb_common Common
  19:Generated_Source\PSoC6\pdl\drivers/peripheral/scb/cy_scb_common.h **** * \defgroup group_scb_ezi2c  EZI2C (SCB)
  20:Generated_Source\PSoC6\pdl\drivers/peripheral/scb/cy_scb_common.h **** * \defgroup group_scb_i2c    I2C (SCB)
  21:Generated_Source\PSoC6\pdl\drivers/peripheral/scb/cy_scb_common.h **** * \defgroup group_scb_spi    SPI (SCB)
  22:Generated_Source\PSoC6\pdl\drivers/peripheral/scb/cy_scb_common.h **** * \defgroup group_scb_uart   UART (SCB)
  23:Generated_Source\PSoC6\pdl\drivers/peripheral/scb/cy_scb_common.h **** * \} */
  24:Generated_Source\PSoC6\pdl\drivers/peripheral/scb/cy_scb_common.h **** 
  25:Generated_Source\PSoC6\pdl\drivers/peripheral/scb/cy_scb_common.h **** /**
  26:Generated_Source\PSoC6\pdl\drivers/peripheral/scb/cy_scb_common.h **** * \addtogroup group_scb_common
  27:Generated_Source\PSoC6\pdl\drivers/peripheral/scb/cy_scb_common.h **** * \{
  28:Generated_Source\PSoC6\pdl\drivers/peripheral/scb/cy_scb_common.h **** *
  29:Generated_Source\PSoC6\pdl\drivers/peripheral/scb/cy_scb_common.h **** * Common API for the Serial Communication Block.
  30:Generated_Source\PSoC6\pdl\drivers/peripheral/scb/cy_scb_common.h **** *
  31:Generated_Source\PSoC6\pdl\drivers/peripheral/scb/cy_scb_common.h **** * This is the common API that provides an interface to the SCB hardware.
  32:Generated_Source\PSoC6\pdl\drivers/peripheral/scb/cy_scb_common.h **** * The I2C, SPI, and UART drivers use this common API.
  33:Generated_Source\PSoC6\pdl\drivers/peripheral/scb/cy_scb_common.h **** * Most users will use individual drivers and do not need to use the common
  34:Generated_Source\PSoC6\pdl\drivers/peripheral/scb/cy_scb_common.h **** * API for the SCB. However, you can use the common SCB API to implement
  35:Generated_Source\PSoC6\pdl\drivers/peripheral/scb/cy_scb_common.h **** * a custom driver based on the SCB hardware.
  36:Generated_Source\PSoC6\pdl\drivers/peripheral/scb/cy_scb_common.h **** *
  37:Generated_Source\PSoC6\pdl\drivers/peripheral/scb/cy_scb_common.h **** * \section group_scb_common_configuration Configuration Considerations
  38:Generated_Source\PSoC6\pdl\drivers/peripheral/scb/cy_scb_common.h **** *
ARM GAS  C:\Users\salaz\AppData\Local\Temp\cc3G70Xt.s 			page 22


  39:Generated_Source\PSoC6\pdl\drivers/peripheral/scb/cy_scb_common.h **** * This is not a driver and it does not require configuration.
  40:Generated_Source\PSoC6\pdl\drivers/peripheral/scb/cy_scb_common.h **** *
  41:Generated_Source\PSoC6\pdl\drivers/peripheral/scb/cy_scb_common.h **** * \section group_scb_common_more_information More Information
  42:Generated_Source\PSoC6\pdl\drivers/peripheral/scb/cy_scb_common.h **** *
  43:Generated_Source\PSoC6\pdl\drivers/peripheral/scb/cy_scb_common.h **** * Refer to the SCB chapter of the technical reference manual (TRM).
  44:Generated_Source\PSoC6\pdl\drivers/peripheral/scb/cy_scb_common.h **** *
  45:Generated_Source\PSoC6\pdl\drivers/peripheral/scb/cy_scb_common.h **** * \section group_scb_common_MISRA MISRA-C Compliance
  46:Generated_Source\PSoC6\pdl\drivers/peripheral/scb/cy_scb_common.h **** * <table class="doxtable">
  47:Generated_Source\PSoC6\pdl\drivers/peripheral/scb/cy_scb_common.h **** *   <tr>
  48:Generated_Source\PSoC6\pdl\drivers/peripheral/scb/cy_scb_common.h **** *     <th>MISRA rule</th>
  49:Generated_Source\PSoC6\pdl\drivers/peripheral/scb/cy_scb_common.h **** *     <th>Rule Class (Required/Advisory)</th>
  50:Generated_Source\PSoC6\pdl\drivers/peripheral/scb/cy_scb_common.h **** *     <th>Rule Description</th>
  51:Generated_Source\PSoC6\pdl\drivers/peripheral/scb/cy_scb_common.h **** *     <th>Description of Deviation(s)</th>
  52:Generated_Source\PSoC6\pdl\drivers/peripheral/scb/cy_scb_common.h **** *   </tr>
  53:Generated_Source\PSoC6\pdl\drivers/peripheral/scb/cy_scb_common.h **** *   <tr>
  54:Generated_Source\PSoC6\pdl\drivers/peripheral/scb/cy_scb_common.h **** *     <td>11.4</td>
  55:Generated_Source\PSoC6\pdl\drivers/peripheral/scb/cy_scb_common.h **** *     <td>A</td>
  56:Generated_Source\PSoC6\pdl\drivers/peripheral/scb/cy_scb_common.h **** *     <td>A cast should not be performed between a pointer to object type and
  57:Generated_Source\PSoC6\pdl\drivers/peripheral/scb/cy_scb_common.h **** *         a different pointer to object type.</td>
  58:Generated_Source\PSoC6\pdl\drivers/peripheral/scb/cy_scb_common.h **** *     <td>The pointer to the buffer memory is void to allow handling of
  59:Generated_Source\PSoC6\pdl\drivers/peripheral/scb/cy_scb_common.h **** *         different data types: uint8_t (4-8 bits) or uint16_t (9-16 bits).
  60:Generated_Source\PSoC6\pdl\drivers/peripheral/scb/cy_scb_common.h **** *         The cast operation is safe because the configuration is verified
  61:Generated_Source\PSoC6\pdl\drivers/peripheral/scb/cy_scb_common.h **** *         before operation is performed.
  62:Generated_Source\PSoC6\pdl\drivers/peripheral/scb/cy_scb_common.h **** *         </td>
  63:Generated_Source\PSoC6\pdl\drivers/peripheral/scb/cy_scb_common.h **** *   </tr>
  64:Generated_Source\PSoC6\pdl\drivers/peripheral/scb/cy_scb_common.h **** * </table>
  65:Generated_Source\PSoC6\pdl\drivers/peripheral/scb/cy_scb_common.h **** *
  66:Generated_Source\PSoC6\pdl\drivers/peripheral/scb/cy_scb_common.h **** * \section group_scb_common_changelog Changelog
  67:Generated_Source\PSoC6\pdl\drivers/peripheral/scb/cy_scb_common.h **** * <table class="doxtable">
  68:Generated_Source\PSoC6\pdl\drivers/peripheral/scb/cy_scb_common.h **** *   <tr><th>Version</th><th>Changes</th><th>Reason for Change</th></tr>
  69:Generated_Source\PSoC6\pdl\drivers/peripheral/scb/cy_scb_common.h **** *   <tr>
  70:Generated_Source\PSoC6\pdl\drivers/peripheral/scb/cy_scb_common.h **** *     <td>2.10</td>
  71:Generated_Source\PSoC6\pdl\drivers/peripheral/scb/cy_scb_common.h **** *     <td>None.</td>
  72:Generated_Source\PSoC6\pdl\drivers/peripheral/scb/cy_scb_common.h **** *     <td>SCB I2C driver updated.</td>
  73:Generated_Source\PSoC6\pdl\drivers/peripheral/scb/cy_scb_common.h **** *   </tr>
  74:Generated_Source\PSoC6\pdl\drivers/peripheral/scb/cy_scb_common.h **** *   <tr>
  75:Generated_Source\PSoC6\pdl\drivers/peripheral/scb/cy_scb_common.h **** *     <td rowspan="2"> 2.0</td>
  76:Generated_Source\PSoC6\pdl\drivers/peripheral/scb/cy_scb_common.h **** *     <td>Added parameters validation for public API.
  77:Generated_Source\PSoC6\pdl\drivers/peripheral/scb/cy_scb_common.h **** *     <td></td>
  78:Generated_Source\PSoC6\pdl\drivers/peripheral/scb/cy_scb_common.h **** *   </tr>
  79:Generated_Source\PSoC6\pdl\drivers/peripheral/scb/cy_scb_common.h **** *   <tr>
  80:Generated_Source\PSoC6\pdl\drivers/peripheral/scb/cy_scb_common.h **** *     <td>Fixed functions which return interrupt status to return only defined
  81:Generated_Source\PSoC6\pdl\drivers/peripheral/scb/cy_scb_common.h **** *         set of interrupt statuses.</td>
  82:Generated_Source\PSoC6\pdl\drivers/peripheral/scb/cy_scb_common.h **** *     <td></td>
  83:Generated_Source\PSoC6\pdl\drivers/peripheral/scb/cy_scb_common.h **** *   </tr>
  84:Generated_Source\PSoC6\pdl\drivers/peripheral/scb/cy_scb_common.h **** *   <tr>
  85:Generated_Source\PSoC6\pdl\drivers/peripheral/scb/cy_scb_common.h **** *     <td>1.0</td>
  86:Generated_Source\PSoC6\pdl\drivers/peripheral/scb/cy_scb_common.h **** *     <td>Initial version.</td>
  87:Generated_Source\PSoC6\pdl\drivers/peripheral/scb/cy_scb_common.h **** *     <td></td>
  88:Generated_Source\PSoC6\pdl\drivers/peripheral/scb/cy_scb_common.h **** *   </tr>
  89:Generated_Source\PSoC6\pdl\drivers/peripheral/scb/cy_scb_common.h **** * </table>
  90:Generated_Source\PSoC6\pdl\drivers/peripheral/scb/cy_scb_common.h **** *
  91:Generated_Source\PSoC6\pdl\drivers/peripheral/scb/cy_scb_common.h **** * \defgroup group_scb_common_macros Macros
  92:Generated_Source\PSoC6\pdl\drivers/peripheral/scb/cy_scb_common.h **** * \defgroup group_scb_common_functions Functions
  93:Generated_Source\PSoC6\pdl\drivers/peripheral/scb/cy_scb_common.h **** * \defgroup group_scb_common_data_structures Data Structures
  94:Generated_Source\PSoC6\pdl\drivers/peripheral/scb/cy_scb_common.h **** *
  95:Generated_Source\PSoC6\pdl\drivers/peripheral/scb/cy_scb_common.h **** */
ARM GAS  C:\Users\salaz\AppData\Local\Temp\cc3G70Xt.s 			page 23


  96:Generated_Source\PSoC6\pdl\drivers/peripheral/scb/cy_scb_common.h **** 
  97:Generated_Source\PSoC6\pdl\drivers/peripheral/scb/cy_scb_common.h **** #if !defined(CY_SCB_COMMON_H)
  98:Generated_Source\PSoC6\pdl\drivers/peripheral/scb/cy_scb_common.h **** #define CY_SCB_COMMON_H
  99:Generated_Source\PSoC6\pdl\drivers/peripheral/scb/cy_scb_common.h **** 
 100:Generated_Source\PSoC6\pdl\drivers/peripheral/scb/cy_scb_common.h **** #include <stdint.h>
 101:Generated_Source\PSoC6\pdl\drivers/peripheral/scb/cy_scb_common.h **** #include <stddef.h>
 102:Generated_Source\PSoC6\pdl\drivers/peripheral/scb/cy_scb_common.h **** #include <stdbool.h>
 103:Generated_Source\PSoC6\pdl\drivers/peripheral/scb/cy_scb_common.h **** #include "cy_device_headers.h"
 104:Generated_Source\PSoC6\pdl\drivers/peripheral/scb/cy_scb_common.h **** #include "syslib/cy_syslib.h"
 105:Generated_Source\PSoC6\pdl\drivers/peripheral/scb/cy_scb_common.h **** #include "syspm/cy_syspm.h"
 106:Generated_Source\PSoC6\pdl\drivers/peripheral/scb/cy_scb_common.h **** 
 107:Generated_Source\PSoC6\pdl\drivers/peripheral/scb/cy_scb_common.h **** #ifndef CY_IP_MXSCB
 108:Generated_Source\PSoC6\pdl\drivers/peripheral/scb/cy_scb_common.h ****     #error "The SCB driver is not supported on this device"
 109:Generated_Source\PSoC6\pdl\drivers/peripheral/scb/cy_scb_common.h **** #endif
 110:Generated_Source\PSoC6\pdl\drivers/peripheral/scb/cy_scb_common.h **** 
 111:Generated_Source\PSoC6\pdl\drivers/peripheral/scb/cy_scb_common.h **** #if defined(__cplusplus)
 112:Generated_Source\PSoC6\pdl\drivers/peripheral/scb/cy_scb_common.h **** extern "C" {
 113:Generated_Source\PSoC6\pdl\drivers/peripheral/scb/cy_scb_common.h **** #endif
 114:Generated_Source\PSoC6\pdl\drivers/peripheral/scb/cy_scb_common.h **** 
 115:Generated_Source\PSoC6\pdl\drivers/peripheral/scb/cy_scb_common.h **** 
 116:Generated_Source\PSoC6\pdl\drivers/peripheral/scb/cy_scb_common.h **** /***************************************
 117:Generated_Source\PSoC6\pdl\drivers/peripheral/scb/cy_scb_common.h **** *        Function Prototypes
 118:Generated_Source\PSoC6\pdl\drivers/peripheral/scb/cy_scb_common.h **** ***************************************/
 119:Generated_Source\PSoC6\pdl\drivers/peripheral/scb/cy_scb_common.h **** 
 120:Generated_Source\PSoC6\pdl\drivers/peripheral/scb/cy_scb_common.h **** /**
 121:Generated_Source\PSoC6\pdl\drivers/peripheral/scb/cy_scb_common.h **** * \addtogroup group_scb_common_functions
 122:Generated_Source\PSoC6\pdl\drivers/peripheral/scb/cy_scb_common.h **** * \{
 123:Generated_Source\PSoC6\pdl\drivers/peripheral/scb/cy_scb_common.h **** */
 124:Generated_Source\PSoC6\pdl\drivers/peripheral/scb/cy_scb_common.h **** __STATIC_INLINE uint32_t Cy_SCB_ReadRxFifo    (CySCB_Type const *base);
 125:Generated_Source\PSoC6\pdl\drivers/peripheral/scb/cy_scb_common.h **** __STATIC_INLINE void     Cy_SCB_SetRxFifoLevel(CySCB_Type *base, uint32_t level);
 126:Generated_Source\PSoC6\pdl\drivers/peripheral/scb/cy_scb_common.h **** __STATIC_INLINE uint32_t Cy_SCB_GetNumInRxFifo(CySCB_Type const *base);
 127:Generated_Source\PSoC6\pdl\drivers/peripheral/scb/cy_scb_common.h **** __STATIC_INLINE uint32_t Cy_SCB_GetRxSrValid  (CySCB_Type const *base);
 128:Generated_Source\PSoC6\pdl\drivers/peripheral/scb/cy_scb_common.h **** __STATIC_INLINE void     Cy_SCB_ClearRxFifo   (CySCB_Type *base);
 129:Generated_Source\PSoC6\pdl\drivers/peripheral/scb/cy_scb_common.h **** 
 130:Generated_Source\PSoC6\pdl\drivers/peripheral/scb/cy_scb_common.h **** __STATIC_INLINE void     Cy_SCB_WriteTxFifo   (CySCB_Type *base, uint32_t data);
 131:Generated_Source\PSoC6\pdl\drivers/peripheral/scb/cy_scb_common.h **** __STATIC_INLINE void     Cy_SCB_SetTxFifoLevel(CySCB_Type *base, uint32_t level);
 132:Generated_Source\PSoC6\pdl\drivers/peripheral/scb/cy_scb_common.h **** __STATIC_INLINE uint32_t Cy_SCB_GetNumInTxFifo(CySCB_Type const *base);
 133:Generated_Source\PSoC6\pdl\drivers/peripheral/scb/cy_scb_common.h **** __STATIC_INLINE uint32_t Cy_SCB_GetTxSrValid  (CySCB_Type const *base);
 134:Generated_Source\PSoC6\pdl\drivers/peripheral/scb/cy_scb_common.h **** __STATIC_INLINE bool     Cy_SCB_IsTxComplete  (CySCB_Type const *base);
 135:Generated_Source\PSoC6\pdl\drivers/peripheral/scb/cy_scb_common.h **** __STATIC_INLINE void     Cy_SCB_ClearTxFifo   (CySCB_Type *base);
 136:Generated_Source\PSoC6\pdl\drivers/peripheral/scb/cy_scb_common.h **** 
 137:Generated_Source\PSoC6\pdl\drivers/peripheral/scb/cy_scb_common.h **** __STATIC_INLINE void     Cy_SCB_SetByteMode(CySCB_Type *base, bool byteMode);
 138:Generated_Source\PSoC6\pdl\drivers/peripheral/scb/cy_scb_common.h **** 
 139:Generated_Source\PSoC6\pdl\drivers/peripheral/scb/cy_scb_common.h **** __STATIC_INLINE uint32_t Cy_SCB_GetInterruptCause(CySCB_Type const *base);
 140:Generated_Source\PSoC6\pdl\drivers/peripheral/scb/cy_scb_common.h **** 
 141:Generated_Source\PSoC6\pdl\drivers/peripheral/scb/cy_scb_common.h **** __STATIC_INLINE uint32_t Cy_SCB_GetRxInterruptStatus(CySCB_Type const *base);
 142:Generated_Source\PSoC6\pdl\drivers/peripheral/scb/cy_scb_common.h **** __STATIC_INLINE void     Cy_SCB_SetRxInterruptMask  (CySCB_Type *base, uint32_t interruptMask);
 143:Generated_Source\PSoC6\pdl\drivers/peripheral/scb/cy_scb_common.h **** __STATIC_INLINE uint32_t Cy_SCB_GetRxInterruptMask  (CySCB_Type const *base);
 144:Generated_Source\PSoC6\pdl\drivers/peripheral/scb/cy_scb_common.h **** __STATIC_INLINE uint32_t Cy_SCB_GetRxInterruptStatusMasked(CySCB_Type const *base);
 145:Generated_Source\PSoC6\pdl\drivers/peripheral/scb/cy_scb_common.h **** __STATIC_INLINE void     Cy_SCB_ClearRxInterrupt    (CySCB_Type *base, uint32_t interruptMask);
 146:Generated_Source\PSoC6\pdl\drivers/peripheral/scb/cy_scb_common.h **** __STATIC_INLINE void     Cy_SCB_SetRxInterrupt      (CySCB_Type *base, uint32_t interruptMask);
 147:Generated_Source\PSoC6\pdl\drivers/peripheral/scb/cy_scb_common.h **** 
 148:Generated_Source\PSoC6\pdl\drivers/peripheral/scb/cy_scb_common.h **** __STATIC_INLINE uint32_t Cy_SCB_GetTxInterruptStatus(CySCB_Type const *base);
 149:Generated_Source\PSoC6\pdl\drivers/peripheral/scb/cy_scb_common.h **** __STATIC_INLINE void     Cy_SCB_SetTxInterruptMask  (CySCB_Type *base, uint32_t interruptMask);
 150:Generated_Source\PSoC6\pdl\drivers/peripheral/scb/cy_scb_common.h **** __STATIC_INLINE uint32_t Cy_SCB_GetTxInterruptMask  (CySCB_Type const *base);
 151:Generated_Source\PSoC6\pdl\drivers/peripheral/scb/cy_scb_common.h **** __STATIC_INLINE uint32_t Cy_SCB_GetTxInterruptStatusMasked(CySCB_Type const *base);
 152:Generated_Source\PSoC6\pdl\drivers/peripheral/scb/cy_scb_common.h **** __STATIC_INLINE void     Cy_SCB_ClearTxInterrupt    (CySCB_Type *base, uint32_t interruptMask);
ARM GAS  C:\Users\salaz\AppData\Local\Temp\cc3G70Xt.s 			page 24


 153:Generated_Source\PSoC6\pdl\drivers/peripheral/scb/cy_scb_common.h **** __STATIC_INLINE void     Cy_SCB_SetTxInterrupt      (CySCB_Type *base, uint32_t interruptMask);
 154:Generated_Source\PSoC6\pdl\drivers/peripheral/scb/cy_scb_common.h **** 
 155:Generated_Source\PSoC6\pdl\drivers/peripheral/scb/cy_scb_common.h **** __STATIC_INLINE uint32_t Cy_SCB_GetMasterInterruptStatus(CySCB_Type const *base);
 156:Generated_Source\PSoC6\pdl\drivers/peripheral/scb/cy_scb_common.h **** __STATIC_INLINE void     Cy_SCB_SetMasterInterruptMask  (CySCB_Type *base, uint32_t interruptMask);
 157:Generated_Source\PSoC6\pdl\drivers/peripheral/scb/cy_scb_common.h **** __STATIC_INLINE uint32_t Cy_SCB_GetMasterInterruptMask  (CySCB_Type const *base);
 158:Generated_Source\PSoC6\pdl\drivers/peripheral/scb/cy_scb_common.h **** __STATIC_INLINE uint32_t Cy_SCB_GetMasterInterruptStatusMasked(CySCB_Type const *base);
 159:Generated_Source\PSoC6\pdl\drivers/peripheral/scb/cy_scb_common.h **** __STATIC_INLINE void     Cy_SCB_ClearMasterInterrupt    (CySCB_Type *base, uint32_t interruptMask);
 160:Generated_Source\PSoC6\pdl\drivers/peripheral/scb/cy_scb_common.h **** __STATIC_INLINE void     Cy_SCB_SetMasterInterrupt      (CySCB_Type *base, uint32_t interruptMask);
 161:Generated_Source\PSoC6\pdl\drivers/peripheral/scb/cy_scb_common.h **** 
 162:Generated_Source\PSoC6\pdl\drivers/peripheral/scb/cy_scb_common.h **** __STATIC_INLINE uint32_t Cy_SCB_GetSlaveInterruptStatus(CySCB_Type const *base);
 163:Generated_Source\PSoC6\pdl\drivers/peripheral/scb/cy_scb_common.h **** __STATIC_INLINE void     Cy_SCB_SetSlaveInterruptMask  (CySCB_Type *base, uint32_t interruptMask);
 164:Generated_Source\PSoC6\pdl\drivers/peripheral/scb/cy_scb_common.h **** __STATIC_INLINE uint32_t Cy_SCB_GetSlaveInterruptMask  (CySCB_Type const *base);
 165:Generated_Source\PSoC6\pdl\drivers/peripheral/scb/cy_scb_common.h **** __STATIC_INLINE uint32_t Cy_SCB_GetSlaveInterruptStatusMasked(CySCB_Type const *base);
 166:Generated_Source\PSoC6\pdl\drivers/peripheral/scb/cy_scb_common.h **** __STATIC_INLINE void     Cy_SCB_ClearSlaveInterrupt    (CySCB_Type *base, uint32_t interruptMask);
 167:Generated_Source\PSoC6\pdl\drivers/peripheral/scb/cy_scb_common.h **** __STATIC_INLINE void     Cy_SCB_SetSlaveInterrupt      (CySCB_Type *base, uint32_t interruptMask);
 168:Generated_Source\PSoC6\pdl\drivers/peripheral/scb/cy_scb_common.h **** 
 169:Generated_Source\PSoC6\pdl\drivers/peripheral/scb/cy_scb_common.h **** __STATIC_INLINE uint32_t Cy_SCB_GetI2CInterruptStatus(CySCB_Type const *base);
 170:Generated_Source\PSoC6\pdl\drivers/peripheral/scb/cy_scb_common.h **** __STATIC_INLINE void     Cy_SCB_SetI2CInterruptMask  (CySCB_Type *base, uint32_t interruptMask);
 171:Generated_Source\PSoC6\pdl\drivers/peripheral/scb/cy_scb_common.h **** __STATIC_INLINE uint32_t Cy_SCB_GetI2CInterruptMask  (CySCB_Type const *base);
 172:Generated_Source\PSoC6\pdl\drivers/peripheral/scb/cy_scb_common.h **** __STATIC_INLINE uint32_t Cy_SCB_GetI2CInterruptStatusMasked(CySCB_Type const *base);
 173:Generated_Source\PSoC6\pdl\drivers/peripheral/scb/cy_scb_common.h **** __STATIC_INLINE void     Cy_SCB_ClearI2CInterrupt    (CySCB_Type *base, uint32_t interruptMask);
 174:Generated_Source\PSoC6\pdl\drivers/peripheral/scb/cy_scb_common.h **** 
 175:Generated_Source\PSoC6\pdl\drivers/peripheral/scb/cy_scb_common.h **** __STATIC_INLINE uint32_t Cy_SCB_GetSpiInterruptStatus(CySCB_Type const *base);
 176:Generated_Source\PSoC6\pdl\drivers/peripheral/scb/cy_scb_common.h **** __STATIC_INLINE void     Cy_SCB_SetSpiInterruptMask  (CySCB_Type *base, uint32_t interruptMask);
 177:Generated_Source\PSoC6\pdl\drivers/peripheral/scb/cy_scb_common.h **** __STATIC_INLINE uint32_t Cy_SCB_GetSpiInterruptMask  (CySCB_Type const *base);
 178:Generated_Source\PSoC6\pdl\drivers/peripheral/scb/cy_scb_common.h **** __STATIC_INLINE uint32_t Cy_SCB_GetSpiInterruptStatusMasked(CySCB_Type const *base);
 179:Generated_Source\PSoC6\pdl\drivers/peripheral/scb/cy_scb_common.h **** __STATIC_INLINE void     Cy_SCB_ClearSpiInterrupt    (CySCB_Type *base, uint32_t interruptMask);
 180:Generated_Source\PSoC6\pdl\drivers/peripheral/scb/cy_scb_common.h **** 
 181:Generated_Source\PSoC6\pdl\drivers/peripheral/scb/cy_scb_common.h **** 
 182:Generated_Source\PSoC6\pdl\drivers/peripheral/scb/cy_scb_common.h **** /***************************************
 183:Generated_Source\PSoC6\pdl\drivers/peripheral/scb/cy_scb_common.h **** *     Internal Function Prototypes
 184:Generated_Source\PSoC6\pdl\drivers/peripheral/scb/cy_scb_common.h **** ***************************************/
 185:Generated_Source\PSoC6\pdl\drivers/peripheral/scb/cy_scb_common.h **** 
 186:Generated_Source\PSoC6\pdl\drivers/peripheral/scb/cy_scb_common.h **** /** \cond INTERNAL */
 187:Generated_Source\PSoC6\pdl\drivers/peripheral/scb/cy_scb_common.h **** void     Cy_SCB_ReadArrayNoCheck  (CySCB_Type const *base, void *buffer, uint32_t size);
 188:Generated_Source\PSoC6\pdl\drivers/peripheral/scb/cy_scb_common.h **** uint32_t Cy_SCB_ReadArray         (CySCB_Type const *base, void *buffer, uint32_t size);
 189:Generated_Source\PSoC6\pdl\drivers/peripheral/scb/cy_scb_common.h **** void     Cy_SCB_ReadArrayBlocking (CySCB_Type const *base, void *buffer, uint32_t size);
 190:Generated_Source\PSoC6\pdl\drivers/peripheral/scb/cy_scb_common.h **** uint32_t Cy_SCB_Write             (CySCB_Type *base, uint32_t data);
 191:Generated_Source\PSoC6\pdl\drivers/peripheral/scb/cy_scb_common.h **** void     Cy_SCB_WriteArrayNoCheck (CySCB_Type *base, void *buffer, uint32_t size);
 192:Generated_Source\PSoC6\pdl\drivers/peripheral/scb/cy_scb_common.h **** uint32_t Cy_SCB_WriteArray        (CySCB_Type *base, void *buffer, uint32_t size);
 193:Generated_Source\PSoC6\pdl\drivers/peripheral/scb/cy_scb_common.h **** void     Cy_SCB_WriteArrayBlocking(CySCB_Type *base, void *buffer, uint32_t size);
 194:Generated_Source\PSoC6\pdl\drivers/peripheral/scb/cy_scb_common.h **** void     Cy_SCB_WriteString       (CySCB_Type *base, char_t const string[]);
 195:Generated_Source\PSoC6\pdl\drivers/peripheral/scb/cy_scb_common.h **** void     Cy_SCB_WriteDefaultArrayNoCheck(CySCB_Type *base, uint32_t txData, uint32_t size);
 196:Generated_Source\PSoC6\pdl\drivers/peripheral/scb/cy_scb_common.h **** uint32_t Cy_SCB_WriteDefaultArray (CySCB_Type *base, uint32_t txData, uint32_t size);
 197:Generated_Source\PSoC6\pdl\drivers/peripheral/scb/cy_scb_common.h **** 
 198:Generated_Source\PSoC6\pdl\drivers/peripheral/scb/cy_scb_common.h **** __STATIC_INLINE uint32_t Cy_SCB_GetFifoSize (CySCB_Type const *base);
 199:Generated_Source\PSoC6\pdl\drivers/peripheral/scb/cy_scb_common.h **** __STATIC_INLINE void     Cy_SCB_FwBlockReset(CySCB_Type *base);
 200:Generated_Source\PSoC6\pdl\drivers/peripheral/scb/cy_scb_common.h **** __STATIC_INLINE bool     Cy_SCB_IsRxDataWidthByte(CySCB_Type const *base);
 201:Generated_Source\PSoC6\pdl\drivers/peripheral/scb/cy_scb_common.h **** __STATIC_INLINE bool     Cy_SCB_IsTxDataWidthByte(CySCB_Type const *base);
 202:Generated_Source\PSoC6\pdl\drivers/peripheral/scb/cy_scb_common.h **** __STATIC_INLINE uint32_t Cy_SCB_GetRxFifoLevel   (CySCB_Type const *base);
 203:Generated_Source\PSoC6\pdl\drivers/peripheral/scb/cy_scb_common.h **** /** \endcond */
 204:Generated_Source\PSoC6\pdl\drivers/peripheral/scb/cy_scb_common.h **** 
 205:Generated_Source\PSoC6\pdl\drivers/peripheral/scb/cy_scb_common.h **** /** \} group_scb_common_functions */
 206:Generated_Source\PSoC6\pdl\drivers/peripheral/scb/cy_scb_common.h **** 
 207:Generated_Source\PSoC6\pdl\drivers/peripheral/scb/cy_scb_common.h **** /***************************************
 208:Generated_Source\PSoC6\pdl\drivers/peripheral/scb/cy_scb_common.h **** *            API Constants
 209:Generated_Source\PSoC6\pdl\drivers/peripheral/scb/cy_scb_common.h **** ***************************************/
ARM GAS  C:\Users\salaz\AppData\Local\Temp\cc3G70Xt.s 			page 25


 210:Generated_Source\PSoC6\pdl\drivers/peripheral/scb/cy_scb_common.h **** 
 211:Generated_Source\PSoC6\pdl\drivers/peripheral/scb/cy_scb_common.h **** /**
 212:Generated_Source\PSoC6\pdl\drivers/peripheral/scb/cy_scb_common.h **** * \addtogroup group_scb_common_macros
 213:Generated_Source\PSoC6\pdl\drivers/peripheral/scb/cy_scb_common.h **** * \{
 214:Generated_Source\PSoC6\pdl\drivers/peripheral/scb/cy_scb_common.h **** */
 215:Generated_Source\PSoC6\pdl\drivers/peripheral/scb/cy_scb_common.h **** 
 216:Generated_Source\PSoC6\pdl\drivers/peripheral/scb/cy_scb_common.h **** /** Driver major version */
 217:Generated_Source\PSoC6\pdl\drivers/peripheral/scb/cy_scb_common.h **** #define CY_SCB_DRV_VERSION_MAJOR    (2)
 218:Generated_Source\PSoC6\pdl\drivers/peripheral/scb/cy_scb_common.h **** 
 219:Generated_Source\PSoC6\pdl\drivers/peripheral/scb/cy_scb_common.h **** /** Driver minor version */
 220:Generated_Source\PSoC6\pdl\drivers/peripheral/scb/cy_scb_common.h **** #define CY_SCB_DRV_VERSION_MINOR    (10)
 221:Generated_Source\PSoC6\pdl\drivers/peripheral/scb/cy_scb_common.h **** 
 222:Generated_Source\PSoC6\pdl\drivers/peripheral/scb/cy_scb_common.h **** /** SCB driver identifier */
 223:Generated_Source\PSoC6\pdl\drivers/peripheral/scb/cy_scb_common.h **** #define CY_SCB_ID           CY_PDL_DRV_ID(0x2AU)
 224:Generated_Source\PSoC6\pdl\drivers/peripheral/scb/cy_scb_common.h **** 
 225:Generated_Source\PSoC6\pdl\drivers/peripheral/scb/cy_scb_common.h **** /** Position for SCB driver sub mode */
 226:Generated_Source\PSoC6\pdl\drivers/peripheral/scb/cy_scb_common.h **** #define CY_SCB_SUB_MODE_Pos (13UL)
 227:Generated_Source\PSoC6\pdl\drivers/peripheral/scb/cy_scb_common.h **** 
 228:Generated_Source\PSoC6\pdl\drivers/peripheral/scb/cy_scb_common.h **** /** EZI2C mode identifier */
 229:Generated_Source\PSoC6\pdl\drivers/peripheral/scb/cy_scb_common.h **** #define CY_SCB_EZI2C_ID     (0x0UL << CY_SCB_SUB_MODE_Pos)
 230:Generated_Source\PSoC6\pdl\drivers/peripheral/scb/cy_scb_common.h **** 
 231:Generated_Source\PSoC6\pdl\drivers/peripheral/scb/cy_scb_common.h **** /** EZI2C mode identifier */
 232:Generated_Source\PSoC6\pdl\drivers/peripheral/scb/cy_scb_common.h **** #define CY_SCB_I2C_ID       (0x1UL << CY_SCB_SUB_MODE_Pos)
 233:Generated_Source\PSoC6\pdl\drivers/peripheral/scb/cy_scb_common.h **** 
 234:Generated_Source\PSoC6\pdl\drivers/peripheral/scb/cy_scb_common.h **** /** EZI2C mode identifier */
 235:Generated_Source\PSoC6\pdl\drivers/peripheral/scb/cy_scb_common.h **** #define CY_SCB_SPI_ID       (0x2UL << CY_SCB_SUB_MODE_Pos)
 236:Generated_Source\PSoC6\pdl\drivers/peripheral/scb/cy_scb_common.h **** 
 237:Generated_Source\PSoC6\pdl\drivers/peripheral/scb/cy_scb_common.h **** /** EZI2C mode identifier */
 238:Generated_Source\PSoC6\pdl\drivers/peripheral/scb/cy_scb_common.h **** #define CY_SCB_UART_ID      (0x3UL << CY_SCB_SUB_MODE_Pos)
 239:Generated_Source\PSoC6\pdl\drivers/peripheral/scb/cy_scb_common.h **** 
 240:Generated_Source\PSoC6\pdl\drivers/peripheral/scb/cy_scb_common.h **** /**
 241:Generated_Source\PSoC6\pdl\drivers/peripheral/scb/cy_scb_common.h **** * \defgroup group_scb_common_macros_intr_cause SCB Interrupt Causes
 242:Generated_Source\PSoC6\pdl\drivers/peripheral/scb/cy_scb_common.h **** * \{
 243:Generated_Source\PSoC6\pdl\drivers/peripheral/scb/cy_scb_common.h **** */
 244:Generated_Source\PSoC6\pdl\drivers/peripheral/scb/cy_scb_common.h **** /** Interrupt from Master interrupt sources */
 245:Generated_Source\PSoC6\pdl\drivers/peripheral/scb/cy_scb_common.h **** #define CY_SCB_MASTER_INTR SCB_INTR_CAUSE_M_Msk
 246:Generated_Source\PSoC6\pdl\drivers/peripheral/scb/cy_scb_common.h **** 
 247:Generated_Source\PSoC6\pdl\drivers/peripheral/scb/cy_scb_common.h **** /** Interrupt from Slave interrupt sources  */
 248:Generated_Source\PSoC6\pdl\drivers/peripheral/scb/cy_scb_common.h **** #define CY_SCB_SLAVE_INTR  SCB_INTR_CAUSE_S_Msk
 249:Generated_Source\PSoC6\pdl\drivers/peripheral/scb/cy_scb_common.h **** 
 250:Generated_Source\PSoC6\pdl\drivers/peripheral/scb/cy_scb_common.h **** /** Interrupt from TX interrupt sources */
 251:Generated_Source\PSoC6\pdl\drivers/peripheral/scb/cy_scb_common.h **** #define CY_SCB_TX_INTR     SCB_INTR_CAUSE_TX_Msk
 252:Generated_Source\PSoC6\pdl\drivers/peripheral/scb/cy_scb_common.h **** 
 253:Generated_Source\PSoC6\pdl\drivers/peripheral/scb/cy_scb_common.h **** /** Interrupt from RX interrupt sources */
 254:Generated_Source\PSoC6\pdl\drivers/peripheral/scb/cy_scb_common.h **** #define CY_SCB_RX_INTR     SCB_INTR_CAUSE_RX_Msk
 255:Generated_Source\PSoC6\pdl\drivers/peripheral/scb/cy_scb_common.h **** 
 256:Generated_Source\PSoC6\pdl\drivers/peripheral/scb/cy_scb_common.h **** /** Interrupt from I2C externally clocked interrupt sources */
 257:Generated_Source\PSoC6\pdl\drivers/peripheral/scb/cy_scb_common.h **** #define CY_SCB_I2C_INTR    SCB_INTR_CAUSE_I2C_EC_Msk
 258:Generated_Source\PSoC6\pdl\drivers/peripheral/scb/cy_scb_common.h **** 
 259:Generated_Source\PSoC6\pdl\drivers/peripheral/scb/cy_scb_common.h **** /** Interrupt from SPI externally clocked interrupt sources */
 260:Generated_Source\PSoC6\pdl\drivers/peripheral/scb/cy_scb_common.h **** #define CY_SCB_SPI_INTR    SCB_INTR_CAUSE_SPI_EC_Msk
 261:Generated_Source\PSoC6\pdl\drivers/peripheral/scb/cy_scb_common.h **** /** \} group_scb_common_macros_intr_cause */
 262:Generated_Source\PSoC6\pdl\drivers/peripheral/scb/cy_scb_common.h **** 
 263:Generated_Source\PSoC6\pdl\drivers/peripheral/scb/cy_scb_common.h **** /**
 264:Generated_Source\PSoC6\pdl\drivers/peripheral/scb/cy_scb_common.h **** * \defgroup group_scb_common_macros_tx_intr TX Interrupt Statuses
 265:Generated_Source\PSoC6\pdl\drivers/peripheral/scb/cy_scb_common.h **** * \{
 266:Generated_Source\PSoC6\pdl\drivers/peripheral/scb/cy_scb_common.h **** */
ARM GAS  C:\Users\salaz\AppData\Local\Temp\cc3G70Xt.s 			page 26


 267:Generated_Source\PSoC6\pdl\drivers/peripheral/scb/cy_scb_common.h **** /**
 268:Generated_Source\PSoC6\pdl\drivers/peripheral/scb/cy_scb_common.h **** * The number of data elements in the TX FIFO is less than the value
 269:Generated_Source\PSoC6\pdl\drivers/peripheral/scb/cy_scb_common.h **** * of the TX FIFO level
 270:Generated_Source\PSoC6\pdl\drivers/peripheral/scb/cy_scb_common.h **** */
 271:Generated_Source\PSoC6\pdl\drivers/peripheral/scb/cy_scb_common.h **** #define CY_SCB_TX_INTR_LEVEL           SCB_INTR_TX_TRIGGER_Msk
 272:Generated_Source\PSoC6\pdl\drivers/peripheral/scb/cy_scb_common.h **** 
 273:Generated_Source\PSoC6\pdl\drivers/peripheral/scb/cy_scb_common.h **** /** The TX FIFO is not full */
 274:Generated_Source\PSoC6\pdl\drivers/peripheral/scb/cy_scb_common.h **** #define CY_SCB_TX_INTR_NOT_FULL        SCB_INTR_TX_NOT_FULL_Msk
 275:Generated_Source\PSoC6\pdl\drivers/peripheral/scb/cy_scb_common.h **** 
 276:Generated_Source\PSoC6\pdl\drivers/peripheral/scb/cy_scb_common.h **** /** The TX FIFO is empty */
 277:Generated_Source\PSoC6\pdl\drivers/peripheral/scb/cy_scb_common.h **** #define CY_SCB_TX_INTR_EMPTY           SCB_INTR_TX_EMPTY_Msk
 278:Generated_Source\PSoC6\pdl\drivers/peripheral/scb/cy_scb_common.h **** 
 279:Generated_Source\PSoC6\pdl\drivers/peripheral/scb/cy_scb_common.h **** /** An attempt to write to a full TX FIFO */
 280:Generated_Source\PSoC6\pdl\drivers/peripheral/scb/cy_scb_common.h **** #define CY_SCB_TX_INTR_OVERFLOW        SCB_INTR_TX_OVERFLOW_Msk
 281:Generated_Source\PSoC6\pdl\drivers/peripheral/scb/cy_scb_common.h **** 
 282:Generated_Source\PSoC6\pdl\drivers/peripheral/scb/cy_scb_common.h **** /** An attempt to read from an empty TX FIFO */
 283:Generated_Source\PSoC6\pdl\drivers/peripheral/scb/cy_scb_common.h **** #define CY_SCB_TX_INTR_UNDERFLOW       SCB_INTR_TX_UNDERFLOW_Msk
 284:Generated_Source\PSoC6\pdl\drivers/peripheral/scb/cy_scb_common.h **** 
 285:Generated_Source\PSoC6\pdl\drivers/peripheral/scb/cy_scb_common.h **** /** The UART transfer is complete: all data elements from the TX FIFO are sent
 286:Generated_Source\PSoC6\pdl\drivers/peripheral/scb/cy_scb_common.h **** */
 287:Generated_Source\PSoC6\pdl\drivers/peripheral/scb/cy_scb_common.h **** #define CY_SCB_TX_INTR_UART_DONE       SCB_INTR_TX_UART_DONE_Msk
 288:Generated_Source\PSoC6\pdl\drivers/peripheral/scb/cy_scb_common.h **** 
 289:Generated_Source\PSoC6\pdl\drivers/peripheral/scb/cy_scb_common.h **** /** SmartCard only: UART received a NACK */
 290:Generated_Source\PSoC6\pdl\drivers/peripheral/scb/cy_scb_common.h **** #define CY_SCB_TX_INTR_UART_NACK       SCB_INTR_TX_UART_NACK_Msk
 291:Generated_Source\PSoC6\pdl\drivers/peripheral/scb/cy_scb_common.h **** 
 292:Generated_Source\PSoC6\pdl\drivers/peripheral/scb/cy_scb_common.h **** /**
 293:Generated_Source\PSoC6\pdl\drivers/peripheral/scb/cy_scb_common.h **** * SmartCard only: the value on the TX line of the UART does not match the
 294:Generated_Source\PSoC6\pdl\drivers/peripheral/scb/cy_scb_common.h **** * value on the RX line
 295:Generated_Source\PSoC6\pdl\drivers/peripheral/scb/cy_scb_common.h **** */
 296:Generated_Source\PSoC6\pdl\drivers/peripheral/scb/cy_scb_common.h **** #define CY_SCB_TX_INTR_UART_ARB_LOST   SCB_INTR_TX_UART_ARB_LOST_Msk
 297:Generated_Source\PSoC6\pdl\drivers/peripheral/scb/cy_scb_common.h **** /** \} group_scb_common_macros_tx_intr */
 298:Generated_Source\PSoC6\pdl\drivers/peripheral/scb/cy_scb_common.h **** 
 299:Generated_Source\PSoC6\pdl\drivers/peripheral/scb/cy_scb_common.h **** /**
 300:Generated_Source\PSoC6\pdl\drivers/peripheral/scb/cy_scb_common.h **** * \defgroup group_scb_common_macros_rx_intr RX Interrupt Statuses
 301:Generated_Source\PSoC6\pdl\drivers/peripheral/scb/cy_scb_common.h **** * \{
 302:Generated_Source\PSoC6\pdl\drivers/peripheral/scb/cy_scb_common.h **** */
 303:Generated_Source\PSoC6\pdl\drivers/peripheral/scb/cy_scb_common.h **** /**
 304:Generated_Source\PSoC6\pdl\drivers/peripheral/scb/cy_scb_common.h **** * The number of data elements in the RX FIFO is greater than the value of the
 305:Generated_Source\PSoC6\pdl\drivers/peripheral/scb/cy_scb_common.h **** * RX FIFO level
 306:Generated_Source\PSoC6\pdl\drivers/peripheral/scb/cy_scb_common.h **** */
 307:Generated_Source\PSoC6\pdl\drivers/peripheral/scb/cy_scb_common.h **** #define CY_SCB_RX_INTR_LEVEL             SCB_INTR_RX_TRIGGER_Msk
 308:Generated_Source\PSoC6\pdl\drivers/peripheral/scb/cy_scb_common.h **** 
 309:Generated_Source\PSoC6\pdl\drivers/peripheral/scb/cy_scb_common.h **** /** The RX FIFO is not empty */
 310:Generated_Source\PSoC6\pdl\drivers/peripheral/scb/cy_scb_common.h **** #define CY_SCB_RX_INTR_NOT_EMPTY         SCB_INTR_RX_NOT_EMPTY_Msk
 311:Generated_Source\PSoC6\pdl\drivers/peripheral/scb/cy_scb_common.h **** 
 312:Generated_Source\PSoC6\pdl\drivers/peripheral/scb/cy_scb_common.h **** /** The RX FIFO is full */
 313:Generated_Source\PSoC6\pdl\drivers/peripheral/scb/cy_scb_common.h **** #define CY_SCB_RX_INTR_FULL              SCB_INTR_RX_FULL_Msk
 314:Generated_Source\PSoC6\pdl\drivers/peripheral/scb/cy_scb_common.h **** 
 315:Generated_Source\PSoC6\pdl\drivers/peripheral/scb/cy_scb_common.h **** /** An attempt to write to a full RX FIFO */
 316:Generated_Source\PSoC6\pdl\drivers/peripheral/scb/cy_scb_common.h **** #define CY_SCB_RX_INTR_OVERFLOW          SCB_INTR_RX_OVERFLOW_Msk
 317:Generated_Source\PSoC6\pdl\drivers/peripheral/scb/cy_scb_common.h **** 
 318:Generated_Source\PSoC6\pdl\drivers/peripheral/scb/cy_scb_common.h **** /** An attempt to read from an empty RX FIFO */
 319:Generated_Source\PSoC6\pdl\drivers/peripheral/scb/cy_scb_common.h **** #define CY_SCB_RX_INTR_UNDERFLOW         SCB_INTR_RX_UNDERFLOW_Msk
 320:Generated_Source\PSoC6\pdl\drivers/peripheral/scb/cy_scb_common.h **** 
 321:Generated_Source\PSoC6\pdl\drivers/peripheral/scb/cy_scb_common.h **** /** A UART framing error detected */
 322:Generated_Source\PSoC6\pdl\drivers/peripheral/scb/cy_scb_common.h **** #define CY_SCB_RX_INTR_UART_FRAME_ERROR  SCB_INTR_RX_FRAME_ERROR_Msk
 323:Generated_Source\PSoC6\pdl\drivers/peripheral/scb/cy_scb_common.h **** 
ARM GAS  C:\Users\salaz\AppData\Local\Temp\cc3G70Xt.s 			page 27


 324:Generated_Source\PSoC6\pdl\drivers/peripheral/scb/cy_scb_common.h **** /** A UART parity error detected  */
 325:Generated_Source\PSoC6\pdl\drivers/peripheral/scb/cy_scb_common.h **** #define CY_SCB_RX_INTR_UART_PARITY_ERROR SCB_INTR_RX_PARITY_ERROR_Msk
 326:Generated_Source\PSoC6\pdl\drivers/peripheral/scb/cy_scb_common.h **** 
 327:Generated_Source\PSoC6\pdl\drivers/peripheral/scb/cy_scb_common.h **** /** A UART break detected */
 328:Generated_Source\PSoC6\pdl\drivers/peripheral/scb/cy_scb_common.h **** #define CY_SCB_RX_INTR_UART_BREAK_DETECT SCB_INTR_RX_BREAK_DETECT_Msk
 329:Generated_Source\PSoC6\pdl\drivers/peripheral/scb/cy_scb_common.h **** /** \} group_scb_common_macros_rx_intr */
 330:Generated_Source\PSoC6\pdl\drivers/peripheral/scb/cy_scb_common.h **** 
 331:Generated_Source\PSoC6\pdl\drivers/peripheral/scb/cy_scb_common.h **** /**
 332:Generated_Source\PSoC6\pdl\drivers/peripheral/scb/cy_scb_common.h **** * \defgroup group_scb_common_macros_slave_intr Slave Interrupt Statuses
 333:Generated_Source\PSoC6\pdl\drivers/peripheral/scb/cy_scb_common.h **** * \{
 334:Generated_Source\PSoC6\pdl\drivers/peripheral/scb/cy_scb_common.h **** */
 335:Generated_Source\PSoC6\pdl\drivers/peripheral/scb/cy_scb_common.h **** /**
 336:Generated_Source\PSoC6\pdl\drivers/peripheral/scb/cy_scb_common.h **** * I2C slave lost arbitration: the value driven on the SDA line is not the same
 337:Generated_Source\PSoC6\pdl\drivers/peripheral/scb/cy_scb_common.h **** * as the value observed on the SDA line
 338:Generated_Source\PSoC6\pdl\drivers/peripheral/scb/cy_scb_common.h **** */
 339:Generated_Source\PSoC6\pdl\drivers/peripheral/scb/cy_scb_common.h **** #define CY_SCB_SLAVE_INTR_I2C_ARB_LOST      SCB_INTR_S_I2C_ARB_LOST_Msk
 340:Generated_Source\PSoC6\pdl\drivers/peripheral/scb/cy_scb_common.h **** 
 341:Generated_Source\PSoC6\pdl\drivers/peripheral/scb/cy_scb_common.h **** /** The I2C slave received a NAK */
 342:Generated_Source\PSoC6\pdl\drivers/peripheral/scb/cy_scb_common.h **** #define CY_SCB_SLAVE_INTR_I2C_NACK          SCB_INTR_S_I2C_NACK_Msk
 343:Generated_Source\PSoC6\pdl\drivers/peripheral/scb/cy_scb_common.h **** 
 344:Generated_Source\PSoC6\pdl\drivers/peripheral/scb/cy_scb_common.h **** /** The I2C slave received  an ACK */
 345:Generated_Source\PSoC6\pdl\drivers/peripheral/scb/cy_scb_common.h **** #define CY_SCB_SLAVE_INTR_I2C_ACK           SCB_INTR_S_I2C_ACK_Msk
 346:Generated_Source\PSoC6\pdl\drivers/peripheral/scb/cy_scb_common.h **** 
 347:Generated_Source\PSoC6\pdl\drivers/peripheral/scb/cy_scb_common.h **** /**
 348:Generated_Source\PSoC6\pdl\drivers/peripheral/scb/cy_scb_common.h **** * A Stop or Repeated Start event for a write transfer intended for this slave
 349:Generated_Source\PSoC6\pdl\drivers/peripheral/scb/cy_scb_common.h **** * was detected.
 350:Generated_Source\PSoC6\pdl\drivers/peripheral/scb/cy_scb_common.h **** */
 351:Generated_Source\PSoC6\pdl\drivers/peripheral/scb/cy_scb_common.h **** #define CY_SCB_SLAVE_INTR_I2C_WRITE_STOP    SCB_INTR_S_I2C_WRITE_STOP_Msk
 352:Generated_Source\PSoC6\pdl\drivers/peripheral/scb/cy_scb_common.h **** 
 353:Generated_Source\PSoC6\pdl\drivers/peripheral/scb/cy_scb_common.h **** /** A Stop or Repeated Start event intended for this slave was detected */
 354:Generated_Source\PSoC6\pdl\drivers/peripheral/scb/cy_scb_common.h **** #define CY_SCB_SLAVE_INTR_I2C_STOP          SCB_INTR_S_I2C_STOP_Msk
 355:Generated_Source\PSoC6\pdl\drivers/peripheral/scb/cy_scb_common.h **** 
 356:Generated_Source\PSoC6\pdl\drivers/peripheral/scb/cy_scb_common.h **** /** The I2C slave received a Start condition */
 357:Generated_Source\PSoC6\pdl\drivers/peripheral/scb/cy_scb_common.h **** #define CY_SCB_SLAVE_INTR_I2C_START         SCB_INTR_S_I2C_START_Msk
 358:Generated_Source\PSoC6\pdl\drivers/peripheral/scb/cy_scb_common.h **** 
 359:Generated_Source\PSoC6\pdl\drivers/peripheral/scb/cy_scb_common.h **** /** The I2C slave received the matching address */
 360:Generated_Source\PSoC6\pdl\drivers/peripheral/scb/cy_scb_common.h **** #define CY_SCB_SLAVE_INTR_I2C_ADDR_MATCH    SCB_INTR_S_I2C_ADDR_MATCH_Msk
 361:Generated_Source\PSoC6\pdl\drivers/peripheral/scb/cy_scb_common.h **** 
 362:Generated_Source\PSoC6\pdl\drivers/peripheral/scb/cy_scb_common.h **** /** The I2C Slave received the general call address */
 363:Generated_Source\PSoC6\pdl\drivers/peripheral/scb/cy_scb_common.h **** #define CY_SCB_SLAVE_INTR_I2C_GENERAL_ADDR  SCB_INTR_S_I2C_GENERAL_Msk
 364:Generated_Source\PSoC6\pdl\drivers/peripheral/scb/cy_scb_common.h **** 
 365:Generated_Source\PSoC6\pdl\drivers/peripheral/scb/cy_scb_common.h **** /** The I2C slave bus error (detection of unexpected Start or Stop condition) */
 366:Generated_Source\PSoC6\pdl\drivers/peripheral/scb/cy_scb_common.h **** #define CY_SCB_SLAVE_INTR_I2C_BUS_ERROR     SCB_INTR_S_I2C_BUS_ERROR_Msk
 367:Generated_Source\PSoC6\pdl\drivers/peripheral/scb/cy_scb_common.h **** 
 368:Generated_Source\PSoC6\pdl\drivers/peripheral/scb/cy_scb_common.h **** /**
 369:Generated_Source\PSoC6\pdl\drivers/peripheral/scb/cy_scb_common.h **** * The SPI slave select line is deselected at an expected time during an
 370:Generated_Source\PSoC6\pdl\drivers/peripheral/scb/cy_scb_common.h **** * SPI transfer.
 371:Generated_Source\PSoC6\pdl\drivers/peripheral/scb/cy_scb_common.h **** */
 372:Generated_Source\PSoC6\pdl\drivers/peripheral/scb/cy_scb_common.h **** #define CY_SCB_SLAVE_INTR_SPI_BUS_ERROR     SCB_INTR_S_SPI_BUS_ERROR_Msk
 373:Generated_Source\PSoC6\pdl\drivers/peripheral/scb/cy_scb_common.h **** /** \} group_scb_common_macros_slave_intr */
 374:Generated_Source\PSoC6\pdl\drivers/peripheral/scb/cy_scb_common.h **** 
 375:Generated_Source\PSoC6\pdl\drivers/peripheral/scb/cy_scb_common.h **** /**
 376:Generated_Source\PSoC6\pdl\drivers/peripheral/scb/cy_scb_common.h **** * \defgroup group_scb_common_macros_master_intr Master Interrupt Statuses
 377:Generated_Source\PSoC6\pdl\drivers/peripheral/scb/cy_scb_common.h **** * \{
 378:Generated_Source\PSoC6\pdl\drivers/peripheral/scb/cy_scb_common.h **** */
 379:Generated_Source\PSoC6\pdl\drivers/peripheral/scb/cy_scb_common.h **** /** The I2C master lost arbitration */
 380:Generated_Source\PSoC6\pdl\drivers/peripheral/scb/cy_scb_common.h **** #define CY_SCB_MASTER_INTR_I2C_ARB_LOST    SCB_INTR_M_I2C_ARB_LOST_Msk
ARM GAS  C:\Users\salaz\AppData\Local\Temp\cc3G70Xt.s 			page 28


 381:Generated_Source\PSoC6\pdl\drivers/peripheral/scb/cy_scb_common.h **** 
 382:Generated_Source\PSoC6\pdl\drivers/peripheral/scb/cy_scb_common.h **** /** The I2C master received a NACK */
 383:Generated_Source\PSoC6\pdl\drivers/peripheral/scb/cy_scb_common.h **** #define CY_SCB_MASTER_INTR_I2C_NACK        SCB_INTR_M_I2C_NACK_Msk
 384:Generated_Source\PSoC6\pdl\drivers/peripheral/scb/cy_scb_common.h **** 
 385:Generated_Source\PSoC6\pdl\drivers/peripheral/scb/cy_scb_common.h **** /** The I2C master received an ACK */
 386:Generated_Source\PSoC6\pdl\drivers/peripheral/scb/cy_scb_common.h **** #define CY_SCB_MASTER_INTR_I2C_ACK         SCB_INTR_M_I2C_ACK_Msk
 387:Generated_Source\PSoC6\pdl\drivers/peripheral/scb/cy_scb_common.h **** 
 388:Generated_Source\PSoC6\pdl\drivers/peripheral/scb/cy_scb_common.h **** /** The I2C master generated a Stop */
 389:Generated_Source\PSoC6\pdl\drivers/peripheral/scb/cy_scb_common.h **** #define CY_SCB_MASTER_INTR_I2C_STOP        SCB_INTR_M_I2C_STOP_Msk
 390:Generated_Source\PSoC6\pdl\drivers/peripheral/scb/cy_scb_common.h **** 
 391:Generated_Source\PSoC6\pdl\drivers/peripheral/scb/cy_scb_common.h **** /** The I2C master bus error (detection of unexpected START or STOP condition)
 392:Generated_Source\PSoC6\pdl\drivers/peripheral/scb/cy_scb_common.h **** */
 393:Generated_Source\PSoC6\pdl\drivers/peripheral/scb/cy_scb_common.h **** #define CY_SCB_MASTER_INTR_I2C_BUS_ERROR   SCB_INTR_M_I2C_BUS_ERROR_Msk
 394:Generated_Source\PSoC6\pdl\drivers/peripheral/scb/cy_scb_common.h **** 
 395:Generated_Source\PSoC6\pdl\drivers/peripheral/scb/cy_scb_common.h **** /**
 396:Generated_Source\PSoC6\pdl\drivers/peripheral/scb/cy_scb_common.h **** * The SPI master transfer is complete: all data elements transferred from the
 397:Generated_Source\PSoC6\pdl\drivers/peripheral/scb/cy_scb_common.h **** * TX FIFO and TX shift register.
 398:Generated_Source\PSoC6\pdl\drivers/peripheral/scb/cy_scb_common.h **** */
 399:Generated_Source\PSoC6\pdl\drivers/peripheral/scb/cy_scb_common.h **** #define CY_SCB_MASTER_INTR_SPI_DONE        SCB_INTR_M_SPI_DONE_Msk
 400:Generated_Source\PSoC6\pdl\drivers/peripheral/scb/cy_scb_common.h **** /** \} group_scb_common_macros_master_intr */
 401:Generated_Source\PSoC6\pdl\drivers/peripheral/scb/cy_scb_common.h **** 
 402:Generated_Source\PSoC6\pdl\drivers/peripheral/scb/cy_scb_common.h **** /**
 403:Generated_Source\PSoC6\pdl\drivers/peripheral/scb/cy_scb_common.h **** * \defgroup group_scb_common_macros_i2c_intr I2C Interrupt Statuses
 404:Generated_Source\PSoC6\pdl\drivers/peripheral/scb/cy_scb_common.h **** * \{
 405:Generated_Source\PSoC6\pdl\drivers/peripheral/scb/cy_scb_common.h **** */
 406:Generated_Source\PSoC6\pdl\drivers/peripheral/scb/cy_scb_common.h **** /**
 407:Generated_Source\PSoC6\pdl\drivers/peripheral/scb/cy_scb_common.h **** * Wake up request: the I2C slave received the matching address.
 408:Generated_Source\PSoC6\pdl\drivers/peripheral/scb/cy_scb_common.h **** * Note that this interrupt source triggers in active mode.
 409:Generated_Source\PSoC6\pdl\drivers/peripheral/scb/cy_scb_common.h **** */
 410:Generated_Source\PSoC6\pdl\drivers/peripheral/scb/cy_scb_common.h **** #define CY_SCB_I2C_INTR_WAKEUP     SCB_INTR_I2C_EC_WAKE_UP_Msk
 411:Generated_Source\PSoC6\pdl\drivers/peripheral/scb/cy_scb_common.h **** /** \} group_scb_common_macros_i2c_intr */
 412:Generated_Source\PSoC6\pdl\drivers/peripheral/scb/cy_scb_common.h **** 
 413:Generated_Source\PSoC6\pdl\drivers/peripheral/scb/cy_scb_common.h **** /**
 414:Generated_Source\PSoC6\pdl\drivers/peripheral/scb/cy_scb_common.h **** * \defgroup group_scb_common_macros_SpiIntrStatuses SPI Interrupt Statuses
 415:Generated_Source\PSoC6\pdl\drivers/peripheral/scb/cy_scb_common.h **** * \{
 416:Generated_Source\PSoC6\pdl\drivers/peripheral/scb/cy_scb_common.h **** */
 417:Generated_Source\PSoC6\pdl\drivers/peripheral/scb/cy_scb_common.h **** /**
 418:Generated_Source\PSoC6\pdl\drivers/peripheral/scb/cy_scb_common.h **** * Wake up request: the SPI slave detects an active edge of the slave select
 419:Generated_Source\PSoC6\pdl\drivers/peripheral/scb/cy_scb_common.h **** * signal. Note that this interrupt source triggers in active mode.
 420:Generated_Source\PSoC6\pdl\drivers/peripheral/scb/cy_scb_common.h **** */
 421:Generated_Source\PSoC6\pdl\drivers/peripheral/scb/cy_scb_common.h **** #define CY_SCB_SPI_INTR_WAKEUP     SCB_INTR_SPI_EC_WAKE_UP_Msk
 422:Generated_Source\PSoC6\pdl\drivers/peripheral/scb/cy_scb_common.h **** /** \} group_scb_common_macros_SpiIntrStatuses */
 423:Generated_Source\PSoC6\pdl\drivers/peripheral/scb/cy_scb_common.h **** 
 424:Generated_Source\PSoC6\pdl\drivers/peripheral/scb/cy_scb_common.h **** 
 425:Generated_Source\PSoC6\pdl\drivers/peripheral/scb/cy_scb_common.h **** /***************************************
 426:Generated_Source\PSoC6\pdl\drivers/peripheral/scb/cy_scb_common.h **** *         Internal Constants
 427:Generated_Source\PSoC6\pdl\drivers/peripheral/scb/cy_scb_common.h **** ***************************************/
 428:Generated_Source\PSoC6\pdl\drivers/peripheral/scb/cy_scb_common.h **** 
 429:Generated_Source\PSoC6\pdl\drivers/peripheral/scb/cy_scb_common.h **** /** \cond INTERNAL */
 430:Generated_Source\PSoC6\pdl\drivers/peripheral/scb/cy_scb_common.h **** 
 431:Generated_Source\PSoC6\pdl\drivers/peripheral/scb/cy_scb_common.h **** /* Default registers values */
 432:Generated_Source\PSoC6\pdl\drivers/peripheral/scb/cy_scb_common.h **** #define CY_SCB_CTRL_DEF_VAL         (_VAL2FLD(SCB_CTRL_OVS, 15UL) | \
 433:Generated_Source\PSoC6\pdl\drivers/peripheral/scb/cy_scb_common.h ****                                      _VAL2FLD(SCB_CTRL_MODE, 3UL))
 434:Generated_Source\PSoC6\pdl\drivers/peripheral/scb/cy_scb_common.h **** 
 435:Generated_Source\PSoC6\pdl\drivers/peripheral/scb/cy_scb_common.h **** #define CY_SCB_I2C_CTRL_DEF_VAL     (_VAL2FLD(SCB_I2C_CTRL_HIGH_PHASE_OVS, 8UL)        | \
 436:Generated_Source\PSoC6\pdl\drivers/peripheral/scb/cy_scb_common.h ****                                      _VAL2FLD(SCB_I2C_CTRL_HIGH_PHASE_OVS, 8UL)        | \
 437:Generated_Source\PSoC6\pdl\drivers/peripheral/scb/cy_scb_common.h ****                                      _VAL2FLD(SCB_I2C_CTRL_M_READY_DATA_ACK, 1UL)      | \
ARM GAS  C:\Users\salaz\AppData\Local\Temp\cc3G70Xt.s 			page 29


 438:Generated_Source\PSoC6\pdl\drivers/peripheral/scb/cy_scb_common.h ****                                      _VAL2FLD(SCB_I2C_CTRL_M_NOT_READY_DATA_NACK, 1UL) | \
 439:Generated_Source\PSoC6\pdl\drivers/peripheral/scb/cy_scb_common.h ****                                      _VAL2FLD(SCB_I2C_CTRL_S_GENERAL_IGNORE, 1UL)      | \
 440:Generated_Source\PSoC6\pdl\drivers/peripheral/scb/cy_scb_common.h ****                                      _VAL2FLD(SCB_I2C_CTRL_S_READY_ADDR_ACK, 1UL)      | \
 441:Generated_Source\PSoC6\pdl\drivers/peripheral/scb/cy_scb_common.h ****                                      _VAL2FLD(SCB_I2C_CTRL_S_READY_DATA_ACK, 1UL)      | \
 442:Generated_Source\PSoC6\pdl\drivers/peripheral/scb/cy_scb_common.h ****                                      _VAL2FLD(SCB_I2C_CTRL_S_NOT_READY_ADDR_NACK, 1UL) | \
 443:Generated_Source\PSoC6\pdl\drivers/peripheral/scb/cy_scb_common.h ****                                      _VAL2FLD(SCB_I2C_CTRL_S_NOT_READY_DATA_NACK, 1UL))
 444:Generated_Source\PSoC6\pdl\drivers/peripheral/scb/cy_scb_common.h **** 
 445:Generated_Source\PSoC6\pdl\drivers/peripheral/scb/cy_scb_common.h **** #define CY_SCB_I2C_CFG_DEF_VAL      (_VAL2FLD(SCB_I2C_CFG_SDA_IN_FILT_TRIM, 3UL)   | \
 446:Generated_Source\PSoC6\pdl\drivers/peripheral/scb/cy_scb_common.h ****                                      _VAL2FLD(SCB_I2C_CFG_SDA_IN_FILT_SEL, 1UL)    | \
 447:Generated_Source\PSoC6\pdl\drivers/peripheral/scb/cy_scb_common.h ****                                      _VAL2FLD(SCB_I2C_CFG_SCL_IN_FILT_SEL, 1UL)    | \
 448:Generated_Source\PSoC6\pdl\drivers/peripheral/scb/cy_scb_common.h ****                                      _VAL2FLD(SCB_I2C_CFG_SDA_OUT_FILT0_TRIM, 2UL) | \
 449:Generated_Source\PSoC6\pdl\drivers/peripheral/scb/cy_scb_common.h ****                                      _VAL2FLD(SCB_I2C_CFG_SDA_OUT_FILT1_TRIM, 2UL) | \
 450:Generated_Source\PSoC6\pdl\drivers/peripheral/scb/cy_scb_common.h ****                                      _VAL2FLD(SCB_I2C_CFG_SDA_OUT_FILT2_TRIM, 2UL))
 451:Generated_Source\PSoC6\pdl\drivers/peripheral/scb/cy_scb_common.h **** 
 452:Generated_Source\PSoC6\pdl\drivers/peripheral/scb/cy_scb_common.h **** #define CY_SCB_SPI_CTRL_DEF_VAL     _VAL2FLD(SCB_SPI_CTRL_MODE, 3UL)
 453:Generated_Source\PSoC6\pdl\drivers/peripheral/scb/cy_scb_common.h **** #define CY_SCB_UART_CTRL_DEF_VAL    _VAL2FLD(SCB_UART_CTRL_MODE, 3UL)
 454:Generated_Source\PSoC6\pdl\drivers/peripheral/scb/cy_scb_common.h **** 
 455:Generated_Source\PSoC6\pdl\drivers/peripheral/scb/cy_scb_common.h **** #define CY_SCB_UART_RX_CTRL_DEF_VAL (_VAL2FLD(SCB_UART_RX_CTRL_STOP_BITS, 2UL) | \
 456:Generated_Source\PSoC6\pdl\drivers/peripheral/scb/cy_scb_common.h ****                                      _VAL2FLD(SCB_UART_RX_CTRL_BREAK_WIDTH, 10UL))
 457:Generated_Source\PSoC6\pdl\drivers/peripheral/scb/cy_scb_common.h **** 
 458:Generated_Source\PSoC6\pdl\drivers/peripheral/scb/cy_scb_common.h **** #define CY_SCB_UART_TX_CTRL_DEF_VAL _VAL2FLD(SCB_UART_TX_CTRL_STOP_BITS, 2UL)
 459:Generated_Source\PSoC6\pdl\drivers/peripheral/scb/cy_scb_common.h **** 
 460:Generated_Source\PSoC6\pdl\drivers/peripheral/scb/cy_scb_common.h **** #define CY_SCB_RX_CTRL_DEF_VAL      (_VAL2FLD(SCB_RX_CTRL_DATA_WIDTH, 7UL) | \
 461:Generated_Source\PSoC6\pdl\drivers/peripheral/scb/cy_scb_common.h ****                                      _VAL2FLD(SCB_RX_CTRL_MSB_FIRST,  1UL))
 462:Generated_Source\PSoC6\pdl\drivers/peripheral/scb/cy_scb_common.h **** 
 463:Generated_Source\PSoC6\pdl\drivers/peripheral/scb/cy_scb_common.h **** #define CY_SCB_TX_CTRL_DEF_VAL      (_VAL2FLD(SCB_TX_CTRL_DATA_WIDTH, 7UL) | \
 464:Generated_Source\PSoC6\pdl\drivers/peripheral/scb/cy_scb_common.h ****                                      _VAL2FLD(SCB_TX_CTRL_MSB_FIRST,  1UL))
 465:Generated_Source\PSoC6\pdl\drivers/peripheral/scb/cy_scb_common.h **** 
 466:Generated_Source\PSoC6\pdl\drivers/peripheral/scb/cy_scb_common.h **** /* SCB CTRL modes */
 467:Generated_Source\PSoC6\pdl\drivers/peripheral/scb/cy_scb_common.h **** #define CY_SCB_CTRL_MODE_I2C   (0UL)
 468:Generated_Source\PSoC6\pdl\drivers/peripheral/scb/cy_scb_common.h **** #define CY_SCB_CTRL_MODE_SPI   (1UL)
 469:Generated_Source\PSoC6\pdl\drivers/peripheral/scb/cy_scb_common.h **** #define CY_SCB_CTRL_MODE_UART  (2UL)
 470:Generated_Source\PSoC6\pdl\drivers/peripheral/scb/cy_scb_common.h **** 
 471:Generated_Source\PSoC6\pdl\drivers/peripheral/scb/cy_scb_common.h **** /* The position and mask to set the I2C mode */
 472:Generated_Source\PSoC6\pdl\drivers/peripheral/scb/cy_scb_common.h **** #define CY_SCB_I2C_CTRL_MODE_Pos    SCB_I2C_CTRL_SLAVE_MODE_Pos
 473:Generated_Source\PSoC6\pdl\drivers/peripheral/scb/cy_scb_common.h **** #define CY_SCB_I2C_CTRL_MODE_Msk    (SCB_I2C_CTRL_SLAVE_MODE_Msk | \
 474:Generated_Source\PSoC6\pdl\drivers/peripheral/scb/cy_scb_common.h ****                                      SCB_I2C_CTRL_MASTER_MODE_Msk)
 475:Generated_Source\PSoC6\pdl\drivers/peripheral/scb/cy_scb_common.h **** 
 476:Generated_Source\PSoC6\pdl\drivers/peripheral/scb/cy_scb_common.h **** /* Cypress ID #282226:
 477:Generated_Source\PSoC6\pdl\drivers/peripheral/scb/cy_scb_common.h **** * SCB_I2C_CFG_SDA_IN_FILT_TRIM[1]: SCB clock enable (1), clock disable (0).
 478:Generated_Source\PSoC6\pdl\drivers/peripheral/scb/cy_scb_common.h **** */
 479:Generated_Source\PSoC6\pdl\drivers/peripheral/scb/cy_scb_common.h **** #define CY_SCB_I2C_CFG_CLK_ENABLE_Msk  (_VAL2FLD(SCB_I2C_CFG_SDA_IN_FILT_TRIM, 2UL))
 480:Generated_Source\PSoC6\pdl\drivers/peripheral/scb/cy_scb_common.h **** 
 481:Generated_Source\PSoC6\pdl\drivers/peripheral/scb/cy_scb_common.h **** /* I2C has fixed data width */
 482:Generated_Source\PSoC6\pdl\drivers/peripheral/scb/cy_scb_common.h **** #define CY_SCB_I2C_DATA_WIDTH   (7UL)
 483:Generated_Source\PSoC6\pdl\drivers/peripheral/scb/cy_scb_common.h **** 
 484:Generated_Source\PSoC6\pdl\drivers/peripheral/scb/cy_scb_common.h **** /* RX and TX control register values */
 485:Generated_Source\PSoC6\pdl\drivers/peripheral/scb/cy_scb_common.h **** #define CY_SCB_I2C_RX_CTRL      (_VAL2FLD(SCB_RX_CTRL_DATA_WIDTH, CY_SCB_I2C_DATA_WIDTH) | \
 486:Generated_Source\PSoC6\pdl\drivers/peripheral/scb/cy_scb_common.h ****                                  SCB_RX_CTRL_MSB_FIRST_Msk)
 487:Generated_Source\PSoC6\pdl\drivers/peripheral/scb/cy_scb_common.h **** #define CY_SCB_I2C_TX_CTRL      (_VAL2FLD(SCB_TX_CTRL_DATA_WIDTH, CY_SCB_I2C_DATA_WIDTH) | \
 488:Generated_Source\PSoC6\pdl\drivers/peripheral/scb/cy_scb_common.h ****                                  SCB_TX_CTRL_MSB_FIRST_Msk | SCB_TX_CTRL_OPEN_DRAIN_Msk)
 489:Generated_Source\PSoC6\pdl\drivers/peripheral/scb/cy_scb_common.h **** 
 490:Generated_Source\PSoC6\pdl\drivers/peripheral/scb/cy_scb_common.h **** /* The position and mask to make an address byte */
 491:Generated_Source\PSoC6\pdl\drivers/peripheral/scb/cy_scb_common.h **** #define CY_SCB_I2C_ADDRESS_Pos  (1UL)
 492:Generated_Source\PSoC6\pdl\drivers/peripheral/scb/cy_scb_common.h **** #define CY_SCB_I2C_ADDRESS_Msk  (0xFEUL)
 493:Generated_Source\PSoC6\pdl\drivers/peripheral/scb/cy_scb_common.h **** 
 494:Generated_Source\PSoC6\pdl\drivers/peripheral/scb/cy_scb_common.h **** /* SPI slave select polarity */
ARM GAS  C:\Users\salaz\AppData\Local\Temp\cc3G70Xt.s 			page 30


 495:Generated_Source\PSoC6\pdl\drivers/peripheral/scb/cy_scb_common.h **** #define CY_SCB_SPI_CTRL_SSEL_POLARITY_Pos   SCB_SPI_CTRL_SSEL_POLARITY0_Pos
 496:Generated_Source\PSoC6\pdl\drivers/peripheral/scb/cy_scb_common.h **** #define CY_SCB_SPI_CTRL_SSEL_POLARITY_Msk   (SCB_SPI_CTRL_SSEL_POLARITY0_Msk | \
 497:Generated_Source\PSoC6\pdl\drivers/peripheral/scb/cy_scb_common.h ****                                              SCB_SPI_CTRL_SSEL_POLARITY1_Msk | \
 498:Generated_Source\PSoC6\pdl\drivers/peripheral/scb/cy_scb_common.h ****                                              SCB_SPI_CTRL_SSEL_POLARITY2_Msk | \
 499:Generated_Source\PSoC6\pdl\drivers/peripheral/scb/cy_scb_common.h ****                                              SCB_SPI_CTRL_SSEL_POLARITY3_Msk)
 500:Generated_Source\PSoC6\pdl\drivers/peripheral/scb/cy_scb_common.h **** 
 501:Generated_Source\PSoC6\pdl\drivers/peripheral/scb/cy_scb_common.h **** /* SPI clock modes: CPHA and CPOL */
 502:Generated_Source\PSoC6\pdl\drivers/peripheral/scb/cy_scb_common.h **** #define CY_SCB_SPI_CTRL_CLK_MODE_Pos    SCB_SPI_CTRL_CPHA_Pos
 503:Generated_Source\PSoC6\pdl\drivers/peripheral/scb/cy_scb_common.h **** #define CY_SCB_SPI_CTRL_CLK_MODE_Msk    (SCB_SPI_CTRL_CPHA_Msk | SCB_SPI_CTRL_CPOL_Msk)
 504:Generated_Source\PSoC6\pdl\drivers/peripheral/scb/cy_scb_common.h **** 
 505:Generated_Source\PSoC6\pdl\drivers/peripheral/scb/cy_scb_common.h **** /* UART parity and parity enable combination */
 506:Generated_Source\PSoC6\pdl\drivers/peripheral/scb/cy_scb_common.h **** #define CY_SCB_UART_RX_CTRL_SET_PARITY_Msk      (SCB_UART_RX_CTRL_PARITY_ENABLED_Msk | \
 507:Generated_Source\PSoC6\pdl\drivers/peripheral/scb/cy_scb_common.h ****                                                  SCB_UART_RX_CTRL_PARITY_Msk)
 508:Generated_Source\PSoC6\pdl\drivers/peripheral/scb/cy_scb_common.h **** #define CY_SCB_UART_RX_CTRL_SET_PARITY_Pos      SCB_UART_RX_CTRL_PARITY_Pos
 509:Generated_Source\PSoC6\pdl\drivers/peripheral/scb/cy_scb_common.h **** 
 510:Generated_Source\PSoC6\pdl\drivers/peripheral/scb/cy_scb_common.h **** #define CY_SCB_UART_TX_CTRL_SET_PARITY_Msk      (SCB_UART_TX_CTRL_PARITY_ENABLED_Msk | \
 511:Generated_Source\PSoC6\pdl\drivers/peripheral/scb/cy_scb_common.h ****                                                  SCB_UART_TX_CTRL_PARITY_Msk)
 512:Generated_Source\PSoC6\pdl\drivers/peripheral/scb/cy_scb_common.h **** #define CY_SCB_UART_TX_CTRL_SET_PARITY_Pos      SCB_UART_TX_CTRL_PARITY_Pos
 513:Generated_Source\PSoC6\pdl\drivers/peripheral/scb/cy_scb_common.h **** 
 514:Generated_Source\PSoC6\pdl\drivers/peripheral/scb/cy_scb_common.h **** /* Max number of bits for byte mode */
 515:Generated_Source\PSoC6\pdl\drivers/peripheral/scb/cy_scb_common.h **** #define CY_SCB_BYTE_WIDTH   (8UL)
 516:Generated_Source\PSoC6\pdl\drivers/peripheral/scb/cy_scb_common.h **** 
 517:Generated_Source\PSoC6\pdl\drivers/peripheral/scb/cy_scb_common.h **** /* Single unit to wait */
 518:Generated_Source\PSoC6\pdl\drivers/peripheral/scb/cy_scb_common.h **** #define CY_SCB_WAIT_1_UNIT  (1U)
 519:Generated_Source\PSoC6\pdl\drivers/peripheral/scb/cy_scb_common.h **** 
 520:Generated_Source\PSoC6\pdl\drivers/peripheral/scb/cy_scb_common.h **** /* Clear interrupt sources */
 521:Generated_Source\PSoC6\pdl\drivers/peripheral/scb/cy_scb_common.h **** #define CY_SCB_CLEAR_ALL_INTR_SRC   (0UL)
 522:Generated_Source\PSoC6\pdl\drivers/peripheral/scb/cy_scb_common.h **** 
 523:Generated_Source\PSoC6\pdl\drivers/peripheral/scb/cy_scb_common.h **** /* Hardware FIFO size */
 524:Generated_Source\PSoC6\pdl\drivers/peripheral/scb/cy_scb_common.h **** #define CY_SCB_FIFO_SIZE(base)    (SCB_GET_EZ_DATA_NR(base) / 2UL)
 525:Generated_Source\PSoC6\pdl\drivers/peripheral/scb/cy_scb_common.h **** 
 526:Generated_Source\PSoC6\pdl\drivers/peripheral/scb/cy_scb_common.h **** /* Provides a list of allowed sources */
 527:Generated_Source\PSoC6\pdl\drivers/peripheral/scb/cy_scb_common.h **** #define CY_SCB_TX_INTR_MASK     (CY_SCB_TX_INTR_LEVEL     | CY_SCB_TX_INTR_NOT_FULL  | CY_SCB_TX_IN
 528:Generated_Source\PSoC6\pdl\drivers/peripheral/scb/cy_scb_common.h ****                                  CY_SCB_TX_INTR_OVERFLOW  | CY_SCB_TX_INTR_UNDERFLOW | CY_SCB_TX_IN
 529:Generated_Source\PSoC6\pdl\drivers/peripheral/scb/cy_scb_common.h ****                                  CY_SCB_TX_INTR_UART_NACK | CY_SCB_TX_INTR_UART_ARB_LOST)
 530:Generated_Source\PSoC6\pdl\drivers/peripheral/scb/cy_scb_common.h **** 
 531:Generated_Source\PSoC6\pdl\drivers/peripheral/scb/cy_scb_common.h **** #define CY_SCB_RX_INTR_MASK     (CY_SCB_RX_INTR_LEVEL             | CY_SCB_RX_INTR_NOT_EMPTY | CY_S
 532:Generated_Source\PSoC6\pdl\drivers/peripheral/scb/cy_scb_common.h ****                                  CY_SCB_RX_INTR_OVERFLOW          | CY_SCB_RX_INTR_UNDERFLOW       
 533:Generated_Source\PSoC6\pdl\drivers/peripheral/scb/cy_scb_common.h ****                                  CY_SCB_RX_INTR_UART_FRAME_ERROR  | CY_SCB_RX_INTR_UART_PARITY_ERRO
 534:Generated_Source\PSoC6\pdl\drivers/peripheral/scb/cy_scb_common.h ****                                  CY_SCB_RX_INTR_UART_BREAK_DETECT)
 535:Generated_Source\PSoC6\pdl\drivers/peripheral/scb/cy_scb_common.h **** 
 536:Generated_Source\PSoC6\pdl\drivers/peripheral/scb/cy_scb_common.h **** 
 537:Generated_Source\PSoC6\pdl\drivers/peripheral/scb/cy_scb_common.h **** #define CY_SCB_SLAVE_INTR_MASK  (CY_SCB_SLAVE_INTR_I2C_ARB_LOST   | CY_SCB_SLAVE_INTR_I2C_NACK | CY
 538:Generated_Source\PSoC6\pdl\drivers/peripheral/scb/cy_scb_common.h ****                                  CY_SCB_SLAVE_INTR_I2C_WRITE_STOP | CY_SCB_SLAVE_INTR_I2C_STOP | CY
 539:Generated_Source\PSoC6\pdl\drivers/peripheral/scb/cy_scb_common.h ****                                  CY_SCB_SLAVE_INTR_I2C_ADDR_MATCH | CY_SCB_SLAVE_INTR_I2C_GENERAL_A
 540:Generated_Source\PSoC6\pdl\drivers/peripheral/scb/cy_scb_common.h ****                                  CY_SCB_SLAVE_INTR_I2C_BUS_ERROR  | CY_SCB_SLAVE_INTR_SPI_BUS_ERROR
 541:Generated_Source\PSoC6\pdl\drivers/peripheral/scb/cy_scb_common.h **** 
 542:Generated_Source\PSoC6\pdl\drivers/peripheral/scb/cy_scb_common.h **** #define CY_SCB_MASTER_INTR_MASK (CY_SCB_MASTER_INTR_I2C_ARB_LOST  | CY_SCB_MASTER_INTR_I2C_NACK | \
 543:Generated_Source\PSoC6\pdl\drivers/peripheral/scb/cy_scb_common.h ****                                  CY_SCB_MASTER_INTR_I2C_ACK       | CY_SCB_MASTER_INTR_I2C_STOP | \
 544:Generated_Source\PSoC6\pdl\drivers/peripheral/scb/cy_scb_common.h ****                                  CY_SCB_MASTER_INTR_I2C_BUS_ERROR | CY_SCB_MASTER_INTR_SPI_DONE)
 545:Generated_Source\PSoC6\pdl\drivers/peripheral/scb/cy_scb_common.h **** 
 546:Generated_Source\PSoC6\pdl\drivers/peripheral/scb/cy_scb_common.h **** #define CY_SCB_I2C_INTR_MASK    CY_SCB_I2C_INTR_WAKEUP
 547:Generated_Source\PSoC6\pdl\drivers/peripheral/scb/cy_scb_common.h **** 
 548:Generated_Source\PSoC6\pdl\drivers/peripheral/scb/cy_scb_common.h **** #define CY_SCB_SPI_INTR_MASK    CY_SCB_SPI_INTR_WAKEUP
 549:Generated_Source\PSoC6\pdl\drivers/peripheral/scb/cy_scb_common.h **** 
 550:Generated_Source\PSoC6\pdl\drivers/peripheral/scb/cy_scb_common.h **** #define CY_SCB_IS_INTR_VALID(intr, mask)            ( 0UL == ((intr) & ((uint32_t) ~(mask))) )
 551:Generated_Source\PSoC6\pdl\drivers/peripheral/scb/cy_scb_common.h **** #define CY_SCB_IS_TRIGGER_LEVEL_VALID(base, level)  ((level) < Cy_SCB_GetFifoSize(base))
ARM GAS  C:\Users\salaz\AppData\Local\Temp\cc3G70Xt.s 			page 31


 552:Generated_Source\PSoC6\pdl\drivers/peripheral/scb/cy_scb_common.h **** 
 553:Generated_Source\PSoC6\pdl\drivers/peripheral/scb/cy_scb_common.h **** #define CY_SCB_IS_I2C_ADDR_VALID(addr)              ( (0U == ((addr) & 0x80U)) )
 554:Generated_Source\PSoC6\pdl\drivers/peripheral/scb/cy_scb_common.h **** #define CY_SCB_IS_BUFFER_VALID(buffer, size)        ( (NULL != (buffer)) && ((size) > 0UL) )
 555:Generated_Source\PSoC6\pdl\drivers/peripheral/scb/cy_scb_common.h **** #define CY_SCB_IS_I2C_BUFFER_VALID(buffer, size)    ( (0UL == (size)) ? true : (NULL != (buffer)) )
 556:Generated_Source\PSoC6\pdl\drivers/peripheral/scb/cy_scb_common.h **** /** \endcond */
 557:Generated_Source\PSoC6\pdl\drivers/peripheral/scb/cy_scb_common.h **** 
 558:Generated_Source\PSoC6\pdl\drivers/peripheral/scb/cy_scb_common.h **** /** \} group_scb_common_macros */
 559:Generated_Source\PSoC6\pdl\drivers/peripheral/scb/cy_scb_common.h **** 
 560:Generated_Source\PSoC6\pdl\drivers/peripheral/scb/cy_scb_common.h **** 
 561:Generated_Source\PSoC6\pdl\drivers/peripheral/scb/cy_scb_common.h **** /***************************************
 562:Generated_Source\PSoC6\pdl\drivers/peripheral/scb/cy_scb_common.h **** * Inline Function Implementation
 563:Generated_Source\PSoC6\pdl\drivers/peripheral/scb/cy_scb_common.h **** ***************************************/
 564:Generated_Source\PSoC6\pdl\drivers/peripheral/scb/cy_scb_common.h **** 
 565:Generated_Source\PSoC6\pdl\drivers/peripheral/scb/cy_scb_common.h **** /**
 566:Generated_Source\PSoC6\pdl\drivers/peripheral/scb/cy_scb_common.h **** * \addtogroup group_scb_common_functions
 567:Generated_Source\PSoC6\pdl\drivers/peripheral/scb/cy_scb_common.h **** * \{
 568:Generated_Source\PSoC6\pdl\drivers/peripheral/scb/cy_scb_common.h **** */
 569:Generated_Source\PSoC6\pdl\drivers/peripheral/scb/cy_scb_common.h **** 
 570:Generated_Source\PSoC6\pdl\drivers/peripheral/scb/cy_scb_common.h **** /*******************************************************************************
 571:Generated_Source\PSoC6\pdl\drivers/peripheral/scb/cy_scb_common.h **** * Function Name: Cy_SCB_ReadRxFifo
 572:Generated_Source\PSoC6\pdl\drivers/peripheral/scb/cy_scb_common.h **** ****************************************************************************//**
 573:Generated_Source\PSoC6\pdl\drivers/peripheral/scb/cy_scb_common.h **** *
 574:Generated_Source\PSoC6\pdl\drivers/peripheral/scb/cy_scb_common.h **** * Reads a data element directly out of the RX FIFO.
 575:Generated_Source\PSoC6\pdl\drivers/peripheral/scb/cy_scb_common.h **** * This function does not check whether the RX FIFO has data before reading it.
 576:Generated_Source\PSoC6\pdl\drivers/peripheral/scb/cy_scb_common.h **** *
 577:Generated_Source\PSoC6\pdl\drivers/peripheral/scb/cy_scb_common.h **** * \param base
 578:Generated_Source\PSoC6\pdl\drivers/peripheral/scb/cy_scb_common.h **** * The pointer to the SCB instance.
 579:Generated_Source\PSoC6\pdl\drivers/peripheral/scb/cy_scb_common.h **** *
 580:Generated_Source\PSoC6\pdl\drivers/peripheral/scb/cy_scb_common.h **** * \return
 581:Generated_Source\PSoC6\pdl\drivers/peripheral/scb/cy_scb_common.h **** * Data from RX FIFO.
 582:Generated_Source\PSoC6\pdl\drivers/peripheral/scb/cy_scb_common.h **** *
 583:Generated_Source\PSoC6\pdl\drivers/peripheral/scb/cy_scb_common.h **** *******************************************************************************/
 584:Generated_Source\PSoC6\pdl\drivers/peripheral/scb/cy_scb_common.h **** __STATIC_INLINE uint32_t Cy_SCB_ReadRxFifo(CySCB_Type const *base)
 585:Generated_Source\PSoC6\pdl\drivers/peripheral/scb/cy_scb_common.h **** {
 586:Generated_Source\PSoC6\pdl\drivers/peripheral/scb/cy_scb_common.h ****     return (base->RX_FIFO_RD);
 587:Generated_Source\PSoC6\pdl\drivers/peripheral/scb/cy_scb_common.h **** }
 588:Generated_Source\PSoC6\pdl\drivers/peripheral/scb/cy_scb_common.h **** 
 589:Generated_Source\PSoC6\pdl\drivers/peripheral/scb/cy_scb_common.h **** /*******************************************************************************
 590:Generated_Source\PSoC6\pdl\drivers/peripheral/scb/cy_scb_common.h **** * Function Name: Cy_SCB_SetRxFifoLevel
 591:Generated_Source\PSoC6\pdl\drivers/peripheral/scb/cy_scb_common.h **** ****************************************************************************//**
 592:Generated_Source\PSoC6\pdl\drivers/peripheral/scb/cy_scb_common.h **** *
 593:Generated_Source\PSoC6\pdl\drivers/peripheral/scb/cy_scb_common.h **** * Sets the RX FIFO level. When there are more data elements in the RX FIFO than
 594:Generated_Source\PSoC6\pdl\drivers/peripheral/scb/cy_scb_common.h **** * this level, the RX FIFO level interrupt is triggered.
 595:Generated_Source\PSoC6\pdl\drivers/peripheral/scb/cy_scb_common.h **** *
 596:Generated_Source\PSoC6\pdl\drivers/peripheral/scb/cy_scb_common.h **** * \param base
 597:Generated_Source\PSoC6\pdl\drivers/peripheral/scb/cy_scb_common.h **** * The pointer to the SCB instance.
 598:Generated_Source\PSoC6\pdl\drivers/peripheral/scb/cy_scb_common.h **** *
 599:Generated_Source\PSoC6\pdl\drivers/peripheral/scb/cy_scb_common.h **** * \param level
 600:Generated_Source\PSoC6\pdl\drivers/peripheral/scb/cy_scb_common.h **** * When there are more data elements in the FIFO than this level, the RX level
 601:Generated_Source\PSoC6\pdl\drivers/peripheral/scb/cy_scb_common.h **** * interrupt is triggered.
 602:Generated_Source\PSoC6\pdl\drivers/peripheral/scb/cy_scb_common.h **** *
 603:Generated_Source\PSoC6\pdl\drivers/peripheral/scb/cy_scb_common.h **** *******************************************************************************/
 604:Generated_Source\PSoC6\pdl\drivers/peripheral/scb/cy_scb_common.h **** __STATIC_INLINE void Cy_SCB_SetRxFifoLevel(CySCB_Type *base, uint32_t level)
 605:Generated_Source\PSoC6\pdl\drivers/peripheral/scb/cy_scb_common.h **** {
 606:Generated_Source\PSoC6\pdl\drivers/peripheral/scb/cy_scb_common.h ****     CY_ASSERT_L2(CY_SCB_IS_TRIGGER_LEVEL_VALID(base, level));
 607:Generated_Source\PSoC6\pdl\drivers/peripheral/scb/cy_scb_common.h **** 
 608:Generated_Source\PSoC6\pdl\drivers/peripheral/scb/cy_scb_common.h ****     base->RX_FIFO_CTRL = _CLR_SET_FLD32U(base->RX_FIFO_CTRL, SCB_RX_FIFO_CTRL_TRIGGER_LEVEL, level)
ARM GAS  C:\Users\salaz\AppData\Local\Temp\cc3G70Xt.s 			page 32


 609:Generated_Source\PSoC6\pdl\drivers/peripheral/scb/cy_scb_common.h **** }
 610:Generated_Source\PSoC6\pdl\drivers/peripheral/scb/cy_scb_common.h **** 
 611:Generated_Source\PSoC6\pdl\drivers/peripheral/scb/cy_scb_common.h **** 
 612:Generated_Source\PSoC6\pdl\drivers/peripheral/scb/cy_scb_common.h **** /*******************************************************************************
 613:Generated_Source\PSoC6\pdl\drivers/peripheral/scb/cy_scb_common.h **** * Function Name: Cy_SCB_GetNumInRxFifo
 614:Generated_Source\PSoC6\pdl\drivers/peripheral/scb/cy_scb_common.h **** ****************************************************************************//**
 615:Generated_Source\PSoC6\pdl\drivers/peripheral/scb/cy_scb_common.h **** *
 616:Generated_Source\PSoC6\pdl\drivers/peripheral/scb/cy_scb_common.h **** * Returns the number of data elements currently in the RX FIFO.
 617:Generated_Source\PSoC6\pdl\drivers/peripheral/scb/cy_scb_common.h **** *
 618:Generated_Source\PSoC6\pdl\drivers/peripheral/scb/cy_scb_common.h **** * \param base
 619:Generated_Source\PSoC6\pdl\drivers/peripheral/scb/cy_scb_common.h **** * The pointer to the SCB instance.
 620:Generated_Source\PSoC6\pdl\drivers/peripheral/scb/cy_scb_common.h **** *
 621:Generated_Source\PSoC6\pdl\drivers/peripheral/scb/cy_scb_common.h **** * \return
 622:Generated_Source\PSoC6\pdl\drivers/peripheral/scb/cy_scb_common.h **** * The number or data elements in RX FIFO.
 623:Generated_Source\PSoC6\pdl\drivers/peripheral/scb/cy_scb_common.h **** *
 624:Generated_Source\PSoC6\pdl\drivers/peripheral/scb/cy_scb_common.h **** *******************************************************************************/
 625:Generated_Source\PSoC6\pdl\drivers/peripheral/scb/cy_scb_common.h **** __STATIC_INLINE uint32_t Cy_SCB_GetNumInRxFifo(CySCB_Type const *base)
 626:Generated_Source\PSoC6\pdl\drivers/peripheral/scb/cy_scb_common.h **** {
 627:Generated_Source\PSoC6\pdl\drivers/peripheral/scb/cy_scb_common.h ****     return _FLD2VAL(SCB_RX_FIFO_STATUS_USED, base->RX_FIFO_STATUS);
 628:Generated_Source\PSoC6\pdl\drivers/peripheral/scb/cy_scb_common.h **** }
 629:Generated_Source\PSoC6\pdl\drivers/peripheral/scb/cy_scb_common.h **** 
 630:Generated_Source\PSoC6\pdl\drivers/peripheral/scb/cy_scb_common.h **** 
 631:Generated_Source\PSoC6\pdl\drivers/peripheral/scb/cy_scb_common.h **** /*******************************************************************************
 632:Generated_Source\PSoC6\pdl\drivers/peripheral/scb/cy_scb_common.h **** * Function Name: Cy_SCB_GetRxSrValid
 633:Generated_Source\PSoC6\pdl\drivers/peripheral/scb/cy_scb_common.h **** ****************************************************************************//**
 634:Generated_Source\PSoC6\pdl\drivers/peripheral/scb/cy_scb_common.h **** *
 635:Generated_Source\PSoC6\pdl\drivers/peripheral/scb/cy_scb_common.h **** * Returns the status of the RX FIFO Shift Register valid bit.
 636:Generated_Source\PSoC6\pdl\drivers/peripheral/scb/cy_scb_common.h **** *
 637:Generated_Source\PSoC6\pdl\drivers/peripheral/scb/cy_scb_common.h **** * \param base
 638:Generated_Source\PSoC6\pdl\drivers/peripheral/scb/cy_scb_common.h **** * The pointer to the SCB instance.
 639:Generated_Source\PSoC6\pdl\drivers/peripheral/scb/cy_scb_common.h **** *
 640:Generated_Source\PSoC6\pdl\drivers/peripheral/scb/cy_scb_common.h **** * \return
 641:Generated_Source\PSoC6\pdl\drivers/peripheral/scb/cy_scb_common.h **** * 1 - RX shift register valid; 0 - RX shift register not valid.
 642:Generated_Source\PSoC6\pdl\drivers/peripheral/scb/cy_scb_common.h **** *
 643:Generated_Source\PSoC6\pdl\drivers/peripheral/scb/cy_scb_common.h **** *******************************************************************************/
 644:Generated_Source\PSoC6\pdl\drivers/peripheral/scb/cy_scb_common.h **** __STATIC_INLINE uint32_t Cy_SCB_GetRxSrValid(CySCB_Type const *base)
 645:Generated_Source\PSoC6\pdl\drivers/peripheral/scb/cy_scb_common.h **** {
 646:Generated_Source\PSoC6\pdl\drivers/peripheral/scb/cy_scb_common.h ****     return _FLD2VAL(SCB_RX_FIFO_STATUS_SR_VALID, base->RX_FIFO_STATUS);
 647:Generated_Source\PSoC6\pdl\drivers/peripheral/scb/cy_scb_common.h **** }
 648:Generated_Source\PSoC6\pdl\drivers/peripheral/scb/cy_scb_common.h **** 
 649:Generated_Source\PSoC6\pdl\drivers/peripheral/scb/cy_scb_common.h **** 
 650:Generated_Source\PSoC6\pdl\drivers/peripheral/scb/cy_scb_common.h **** /*******************************************************************************
 651:Generated_Source\PSoC6\pdl\drivers/peripheral/scb/cy_scb_common.h **** * Function Name: Cy_SCB_ClearRxFifo
 652:Generated_Source\PSoC6\pdl\drivers/peripheral/scb/cy_scb_common.h **** ****************************************************************************//**
 653:Generated_Source\PSoC6\pdl\drivers/peripheral/scb/cy_scb_common.h **** *
 654:Generated_Source\PSoC6\pdl\drivers/peripheral/scb/cy_scb_common.h **** * Clears the RX FIFO and shifter.
 655:Generated_Source\PSoC6\pdl\drivers/peripheral/scb/cy_scb_common.h **** *
 656:Generated_Source\PSoC6\pdl\drivers/peripheral/scb/cy_scb_common.h **** * \param base
 657:Generated_Source\PSoC6\pdl\drivers/peripheral/scb/cy_scb_common.h **** * The pointer to the SCB instance.
 658:Generated_Source\PSoC6\pdl\drivers/peripheral/scb/cy_scb_common.h **** *
 659:Generated_Source\PSoC6\pdl\drivers/peripheral/scb/cy_scb_common.h **** * \note
 660:Generated_Source\PSoC6\pdl\drivers/peripheral/scb/cy_scb_common.h **** * If there is partial data in the shifter, it is cleared and lost.
 661:Generated_Source\PSoC6\pdl\drivers/peripheral/scb/cy_scb_common.h **** *
 662:Generated_Source\PSoC6\pdl\drivers/peripheral/scb/cy_scb_common.h **** *******************************************************************************/
 663:Generated_Source\PSoC6\pdl\drivers/peripheral/scb/cy_scb_common.h **** __STATIC_INLINE void Cy_SCB_ClearRxFifo(CySCB_Type* base)
 664:Generated_Source\PSoC6\pdl\drivers/peripheral/scb/cy_scb_common.h **** {
 665:Generated_Source\PSoC6\pdl\drivers/peripheral/scb/cy_scb_common.h ****     base->RX_FIFO_CTRL |= (uint32_t)  SCB_RX_FIFO_CTRL_CLEAR_Msk;
ARM GAS  C:\Users\salaz\AppData\Local\Temp\cc3G70Xt.s 			page 33


 666:Generated_Source\PSoC6\pdl\drivers/peripheral/scb/cy_scb_common.h ****     base->RX_FIFO_CTRL &= (uint32_t) ~SCB_RX_FIFO_CTRL_CLEAR_Msk;
 667:Generated_Source\PSoC6\pdl\drivers/peripheral/scb/cy_scb_common.h **** 
 668:Generated_Source\PSoC6\pdl\drivers/peripheral/scb/cy_scb_common.h ****     (void) base->RX_FIFO_CTRL;
 669:Generated_Source\PSoC6\pdl\drivers/peripheral/scb/cy_scb_common.h **** }
 670:Generated_Source\PSoC6\pdl\drivers/peripheral/scb/cy_scb_common.h **** 
 671:Generated_Source\PSoC6\pdl\drivers/peripheral/scb/cy_scb_common.h **** 
 672:Generated_Source\PSoC6\pdl\drivers/peripheral/scb/cy_scb_common.h **** /*******************************************************************************
 673:Generated_Source\PSoC6\pdl\drivers/peripheral/scb/cy_scb_common.h **** * Function Name: Cy_SCB_WriteTxFifo
 674:Generated_Source\PSoC6\pdl\drivers/peripheral/scb/cy_scb_common.h **** ****************************************************************************//**
 675:Generated_Source\PSoC6\pdl\drivers/peripheral/scb/cy_scb_common.h **** *
 676:Generated_Source\PSoC6\pdl\drivers/peripheral/scb/cy_scb_common.h **** * Writes data directly into the TX FIFO.
 677:Generated_Source\PSoC6\pdl\drivers/peripheral/scb/cy_scb_common.h **** * This function does not check whether the TX FIFO is not full before writing
 678:Generated_Source\PSoC6\pdl\drivers/peripheral/scb/cy_scb_common.h **** * into it.
 679:Generated_Source\PSoC6\pdl\drivers/peripheral/scb/cy_scb_common.h **** *
 680:Generated_Source\PSoC6\pdl\drivers/peripheral/scb/cy_scb_common.h **** * \param base
 681:Generated_Source\PSoC6\pdl\drivers/peripheral/scb/cy_scb_common.h **** * The pointer to the SCB instance.
 682:Generated_Source\PSoC6\pdl\drivers/peripheral/scb/cy_scb_common.h **** *
 683:Generated_Source\PSoC6\pdl\drivers/peripheral/scb/cy_scb_common.h **** * \param data
 684:Generated_Source\PSoC6\pdl\drivers/peripheral/scb/cy_scb_common.h **** * Data to write to the TX FIFO.
 685:Generated_Source\PSoC6\pdl\drivers/peripheral/scb/cy_scb_common.h **** *
 686:Generated_Source\PSoC6\pdl\drivers/peripheral/scb/cy_scb_common.h **** *******************************************************************************/
 687:Generated_Source\PSoC6\pdl\drivers/peripheral/scb/cy_scb_common.h **** __STATIC_INLINE void Cy_SCB_WriteTxFifo(CySCB_Type* base, uint32_t data)
 688:Generated_Source\PSoC6\pdl\drivers/peripheral/scb/cy_scb_common.h **** {
 689:Generated_Source\PSoC6\pdl\drivers/peripheral/scb/cy_scb_common.h ****     base->TX_FIFO_WR = data;
 690:Generated_Source\PSoC6\pdl\drivers/peripheral/scb/cy_scb_common.h **** }
 691:Generated_Source\PSoC6\pdl\drivers/peripheral/scb/cy_scb_common.h **** 
 692:Generated_Source\PSoC6\pdl\drivers/peripheral/scb/cy_scb_common.h **** 
 693:Generated_Source\PSoC6\pdl\drivers/peripheral/scb/cy_scb_common.h **** /*******************************************************************************
 694:Generated_Source\PSoC6\pdl\drivers/peripheral/scb/cy_scb_common.h **** * Function Name: Cy_SCB_SetTxFifoLevel
 695:Generated_Source\PSoC6\pdl\drivers/peripheral/scb/cy_scb_common.h **** ****************************************************************************//**
 696:Generated_Source\PSoC6\pdl\drivers/peripheral/scb/cy_scb_common.h **** *
 697:Generated_Source\PSoC6\pdl\drivers/peripheral/scb/cy_scb_common.h **** * Sets the TX FIFO level. When there are fewer data elements in the TX FIFO than
 698:Generated_Source\PSoC6\pdl\drivers/peripheral/scb/cy_scb_common.h **** * this level, the TX FIFO level interrupt is triggered.
 699:Generated_Source\PSoC6\pdl\drivers/peripheral/scb/cy_scb_common.h **** *
 700:Generated_Source\PSoC6\pdl\drivers/peripheral/scb/cy_scb_common.h **** * \param base
 701:Generated_Source\PSoC6\pdl\drivers/peripheral/scb/cy_scb_common.h **** * The pointer to the SCB instance.
 702:Generated_Source\PSoC6\pdl\drivers/peripheral/scb/cy_scb_common.h **** *
 703:Generated_Source\PSoC6\pdl\drivers/peripheral/scb/cy_scb_common.h **** * \param level
 704:Generated_Source\PSoC6\pdl\drivers/peripheral/scb/cy_scb_common.h **** * When there are fewer data elements in the FIFO than this level, the TX level
 705:Generated_Source\PSoC6\pdl\drivers/peripheral/scb/cy_scb_common.h **** * interrupt is triggered.
 706:Generated_Source\PSoC6\pdl\drivers/peripheral/scb/cy_scb_common.h **** *
 707:Generated_Source\PSoC6\pdl\drivers/peripheral/scb/cy_scb_common.h **** *******************************************************************************/
 708:Generated_Source\PSoC6\pdl\drivers/peripheral/scb/cy_scb_common.h **** __STATIC_INLINE void Cy_SCB_SetTxFifoLevel(CySCB_Type *base, uint32_t level)
 709:Generated_Source\PSoC6\pdl\drivers/peripheral/scb/cy_scb_common.h **** {
 710:Generated_Source\PSoC6\pdl\drivers/peripheral/scb/cy_scb_common.h ****     CY_ASSERT_L2(CY_SCB_IS_TRIGGER_LEVEL_VALID(base, level));
 711:Generated_Source\PSoC6\pdl\drivers/peripheral/scb/cy_scb_common.h **** 
 712:Generated_Source\PSoC6\pdl\drivers/peripheral/scb/cy_scb_common.h ****     base->TX_FIFO_CTRL = _CLR_SET_FLD32U(base->TX_FIFO_CTRL, SCB_TX_FIFO_CTRL_TRIGGER_LEVEL, level)
 713:Generated_Source\PSoC6\pdl\drivers/peripheral/scb/cy_scb_common.h **** }
 714:Generated_Source\PSoC6\pdl\drivers/peripheral/scb/cy_scb_common.h **** 
 715:Generated_Source\PSoC6\pdl\drivers/peripheral/scb/cy_scb_common.h **** 
 716:Generated_Source\PSoC6\pdl\drivers/peripheral/scb/cy_scb_common.h **** /*******************************************************************************
 717:Generated_Source\PSoC6\pdl\drivers/peripheral/scb/cy_scb_common.h **** * Function Name: Cy_SCB_GetNumInTxFifo
 718:Generated_Source\PSoC6\pdl\drivers/peripheral/scb/cy_scb_common.h **** ****************************************************************************//**
 719:Generated_Source\PSoC6\pdl\drivers/peripheral/scb/cy_scb_common.h **** *
 720:Generated_Source\PSoC6\pdl\drivers/peripheral/scb/cy_scb_common.h **** * Returns the number of data elements currently in the TX FIFO.
 721:Generated_Source\PSoC6\pdl\drivers/peripheral/scb/cy_scb_common.h **** *
 722:Generated_Source\PSoC6\pdl\drivers/peripheral/scb/cy_scb_common.h **** * \param base
ARM GAS  C:\Users\salaz\AppData\Local\Temp\cc3G70Xt.s 			page 34


 723:Generated_Source\PSoC6\pdl\drivers/peripheral/scb/cy_scb_common.h **** * The pointer to the SCB instance.
 724:Generated_Source\PSoC6\pdl\drivers/peripheral/scb/cy_scb_common.h **** *
 725:Generated_Source\PSoC6\pdl\drivers/peripheral/scb/cy_scb_common.h **** * \return
 726:Generated_Source\PSoC6\pdl\drivers/peripheral/scb/cy_scb_common.h **** * The number or data elements in the TX FIFO.
 727:Generated_Source\PSoC6\pdl\drivers/peripheral/scb/cy_scb_common.h **** *
 728:Generated_Source\PSoC6\pdl\drivers/peripheral/scb/cy_scb_common.h **** *******************************************************************************/
 729:Generated_Source\PSoC6\pdl\drivers/peripheral/scb/cy_scb_common.h **** __STATIC_INLINE uint32_t Cy_SCB_GetNumInTxFifo(CySCB_Type const *base)
 730:Generated_Source\PSoC6\pdl\drivers/peripheral/scb/cy_scb_common.h **** {
 731:Generated_Source\PSoC6\pdl\drivers/peripheral/scb/cy_scb_common.h ****     return _FLD2VAL(SCB_TX_FIFO_STATUS_USED, base->TX_FIFO_STATUS);
 344              		.loc 3 731 0 discriminator 1
 345 01a8 6F48     		ldr	r0, .L32+88
 346 01aa 8221     		movs	r1, #130
 347 01ac 8900     		lsls	r1, r1, #2
 348 01ae 4358     		ldr	r3, [r0, r1]
 349 01b0 DB05     		lsls	r3, r3, #23
 350 01b2 DA0D     		lsrs	r2, r3, #23
 351              	.LVL30:
 352              	.LBE33:
 353              	.LBE32:
 354              	.LBB34:
 355              	.LBB35:
 732:Generated_Source\PSoC6\pdl\drivers/peripheral/scb/cy_scb_common.h **** }
 733:Generated_Source\PSoC6\pdl\drivers/peripheral/scb/cy_scb_common.h **** 
 734:Generated_Source\PSoC6\pdl\drivers/peripheral/scb/cy_scb_common.h **** 
 735:Generated_Source\PSoC6\pdl\drivers/peripheral/scb/cy_scb_common.h **** /*******************************************************************************
 736:Generated_Source\PSoC6\pdl\drivers/peripheral/scb/cy_scb_common.h **** * Function Name: Cy_SCB_GetTxSrValid
 737:Generated_Source\PSoC6\pdl\drivers/peripheral/scb/cy_scb_common.h **** ****************************************************************************//**
 738:Generated_Source\PSoC6\pdl\drivers/peripheral/scb/cy_scb_common.h **** *
 739:Generated_Source\PSoC6\pdl\drivers/peripheral/scb/cy_scb_common.h **** * Returns the status of the TX FIFO Shift Register valid bit.
 740:Generated_Source\PSoC6\pdl\drivers/peripheral/scb/cy_scb_common.h **** *
 741:Generated_Source\PSoC6\pdl\drivers/peripheral/scb/cy_scb_common.h **** * \param base
 742:Generated_Source\PSoC6\pdl\drivers/peripheral/scb/cy_scb_common.h **** * The pointer to the SCB instance.
 743:Generated_Source\PSoC6\pdl\drivers/peripheral/scb/cy_scb_common.h **** *
 744:Generated_Source\PSoC6\pdl\drivers/peripheral/scb/cy_scb_common.h **** * \return
 745:Generated_Source\PSoC6\pdl\drivers/peripheral/scb/cy_scb_common.h **** * 1 - TX shift register valid; 0 - TX shift register not valid.
 746:Generated_Source\PSoC6\pdl\drivers/peripheral/scb/cy_scb_common.h **** *
 747:Generated_Source\PSoC6\pdl\drivers/peripheral/scb/cy_scb_common.h **** *******************************************************************************/
 748:Generated_Source\PSoC6\pdl\drivers/peripheral/scb/cy_scb_common.h **** __STATIC_INLINE uint32_t Cy_SCB_GetTxSrValid(CySCB_Type const *base)
 749:Generated_Source\PSoC6\pdl\drivers/peripheral/scb/cy_scb_common.h **** {
 750:Generated_Source\PSoC6\pdl\drivers/peripheral/scb/cy_scb_common.h ****     return _FLD2VAL(SCB_TX_FIFO_STATUS_SR_VALID, base->TX_FIFO_STATUS);
 356              		.loc 3 750 0 discriminator 1
 357 01b4 4358     		ldr	r3, [r0, r1]
 358 01b6 DB0B     		lsrs	r3, r3, #15
 359 01b8 0121     		movs	r1, #1
 360 01ba 0B40     		ands	r3, r1
 361              	.LVL31:
 362              	.LBE35:
 363              	.LBE34:
  70:Transmission.c ****             DEBUG_WAIT_UART_TX_COMPLETE();
 364              		.loc 1 70 0 discriminator 1
 365 01bc 9B18     		adds	r3, r3, r2
 366 01be 002B     		cmp	r3, #0
 367 01c0 F2D1     		bne	.L18
 368 01c2 89E0     		b	.L4
 369              	.LVL32:
 370              	.L12:
  71:Transmission.c **** 			break;
ARM GAS  C:\Users\salaz\AppData\Local\Temp\cc3G70Xt.s 			page 35


  72:Transmission.c ****         }
  73:Transmission.c ****         case CY_BLE_EVT_GATT_CONNECT_IND:
  74:Transmission.c ****         {
  75:Transmission.c ****             is_advertising = false;
 371              		.loc 1 75 0
 372 01c4 524B     		ldr	r3, .L32
 373 01c6 0022     		movs	r2, #0
 374 01c8 1A70     		strb	r2, [r3]
  76:Transmission.c ****             is_connected = true;
 375              		.loc 1 76 0
 376 01ca 0132     		adds	r2, r2, #1
 377 01cc 5A70     		strb	r2, [r3, #1]
  77:Transmission.c ****             break;
 378              		.loc 1 77 0
 379 01ce 83E0     		b	.L4
 380              	.L11:
  78:Transmission.c ****         }
  79:Transmission.c ****         case CY_BLE_EVT_GAP_DEVICE_DISCONNECTED:
  80:Transmission.c ****         {
  81:Transmission.c ****             is_connected = false;
 381              		.loc 1 81 0
 382 01d0 0022     		movs	r2, #0
 383 01d2 4F4B     		ldr	r3, .L32
 384 01d4 5A70     		strb	r2, [r3, #1]
  82:Transmission.c **** 			break;
 385              		.loc 1 82 0
 386 01d6 7FE0     		b	.L4
 387              	.L14:
 388              	.LVL33:
 389              	.LBB36:
  83:Transmission.c ****         }
  84:Transmission.c ****         // Event occurs every bluetooth connection attempt by remote device
  85:Transmission.c ****         case CY_BLE_EVT_GAP_ENHANCE_CONN_COMPLETE:
  86:Transmission.c ****         {
  87:Transmission.c ****             bool deviceStored = false;
  88:Transmission.c **** 
  89:Transmission.c ****             // See if remote device's information is already bonded (stored into flash)
  90:Transmission.c ****             cy_en_ble_api_result_t apiResult = Cy_BLE_GAP_GetBondList(&bondedDeviceList);
 390              		.loc 1 90 0
 391 01d8 6448     		ldr	r0, .L32+92
 392              	.LVL34:
 393 01da FFF7FEFF 		bl	Cy_BLE_GAP_GetBondList
 394              	.LVL35:
  91:Transmission.c ****             if(apiResult == CY_BLE_SUCCESS)
 395              		.loc 1 91 0
 396 01de 0028     		cmp	r0, #0
 397 01e0 16D1     		bne	.L29
 398              	.LBB37:
  92:Transmission.c ****             {
  93:Transmission.c ****                 uint8 deviceCount = bondedDeviceList.noOfDevices;
 399              		.loc 1 93 0
 400 01e2 624B     		ldr	r3, .L32+92
 401 01e4 1E79     		ldrb	r6, [r3, #4]
 402              	.LVL36:
  94:Transmission.c ****                 if(deviceCount > 0)
 403              		.loc 1 94 0
 404 01e6 002E     		cmp	r6, #0
ARM GAS  C:\Users\salaz\AppData\Local\Temp\cc3G70Xt.s 			page 36


 405 01e8 0DD1     		bne	.L30
 406              	.LBE37:
  87:Transmission.c **** 
 407              		.loc 1 87 0
 408 01ea 0023     		movs	r3, #0
 409 01ec 13E0     		b	.L19
 410              	.LVL37:
 411              	.L21:
 412              	.LBB42:
 413              	.LBB38:
  95:Transmission.c ****                 {
  96:Transmission.c ****                     for(uint8 i=0; i<deviceCount; i++)
  97:Transmission.c ****                     {
  98:Transmission.c ****                         if(cy_ble_connHandle[0].bdHandle == bondedDeviceList.bdHandleAddrList[i].bd
 414              		.loc 1 98 0
 415 01ee 604A     		ldr	r2, .L32+96
 416 01f0 1178     		ldrb	r1, [r2]
 417 01f2 5E4A     		ldr	r2, .L32+92
 418 01f4 1068     		ldr	r0, [r2]
 419 01f6 DA00     		lsls	r2, r3, #3
 420 01f8 8218     		adds	r2, r0, r2
 421 01fa D279     		ldrb	r2, [r2, #7]
 422 01fc 9142     		cmp	r1, r2
 423 01fe 09D0     		beq	.L31
  96:Transmission.c ****                     {
 424              		.loc 1 96 0 discriminator 2
 425 0200 0133     		adds	r3, r3, #1
 426              	.LVL38:
 427 0202 DBB2     		uxtb	r3, r3
 428              	.LVL39:
 429 0204 00E0     		b	.L20
 430              	.LVL40:
 431              	.L30:
 432              	.LBE38:
 433 0206 0023     		movs	r3, #0
 434              	.LVL41:
 435              	.L20:
 436              	.LBB39:
  96:Transmission.c ****                     {
 437              		.loc 1 96 0 is_stmt 0 discriminator 1
 438 0208 B342     		cmp	r3, r6
 439 020a F0D3     		bcc	.L21
 440              	.LBE39:
 441              	.LBE42:
  87:Transmission.c **** 
 442              		.loc 1 87 0 is_stmt 1
 443 020c 0023     		movs	r3, #0
 444              	.LVL42:
 445              	.LBB43:
 446              	.LBB40:
 447 020e 02E0     		b	.L19
 448              	.LVL43:
 449              	.L29:
 450              	.LBE40:
 451              	.LBE43:
 452 0210 0023     		movs	r3, #0
 453 0212 00E0     		b	.L19
ARM GAS  C:\Users\salaz\AppData\Local\Temp\cc3G70Xt.s 			page 37


 454              	.LVL44:
 455              	.L31:
 456              	.LBB44:
 457              	.LBB41:
  99:Transmission.c ****                         {
 100:Transmission.c ****                             deviceStored = true;
 458              		.loc 1 100 0
 459 0214 0123     		movs	r3, #1
 460              	.LVL45:
 461              	.L19:
 462              	.LBE41:
 463              	.LBE44:
 101:Transmission.c ****                             break;
 102:Transmission.c ****                         }
 103:Transmission.c ****                     }
 104:Transmission.c ****                 }
 105:Transmission.c ****             }
 106:Transmission.c ****             
 107:Transmission.c ****             // Initiate bonding/pairing process if remote device's information isn't already bonded
 108:Transmission.c ****             if(!deviceStored)
 464              		.loc 1 108 0
 465 0216 002B     		cmp	r3, #0
 466 0218 5ED1     		bne	.L4
 109:Transmission.c ****             {
 110:Transmission.c ****                 if((cy_ble_configPtr->authInfo[CY_BLE_SECURITY_CONFIGURATION_0_INDEX].security & CY
 467              		.loc 1 110 0
 468 021a 564B     		ldr	r3, .L32+100
 469              	.LVL46:
 470 021c 1B68     		ldr	r3, [r3]
 471 021e 5A6A     		ldr	r2, [r3, #36]
 472 0220 1178     		ldrb	r1, [r2]
 473 0222 0907     		lsls	r1, r1, #28
 474 0224 58D0     		beq	.L4
 475              	.LBB45:
 111:Transmission.c ****                 {
 112:Transmission.c ****                     cy_ble_configPtr->authInfo[CY_BLE_SECURITY_CONFIGURATION_0_INDEX].bdHandle = cy
 476              		.loc 1 112 0
 477 0226 5249     		ldr	r1, .L32+96
 478 0228 0978     		ldrb	r1, [r1]
 479 022a 5171     		strb	r1, [r2, #5]
 113:Transmission.c ****                     cy_en_ble_api_result_t apiResult = Cy_BLE_GAP_AuthReq(&cy_ble_configPtr->authIn
 480              		.loc 1 113 0
 481 022c 586A     		ldr	r0, [r3, #36]
 482 022e FFF7FEFF 		bl	Cy_BLE_GAP_AuthReq
 483              	.LVL47:
 484 0232 51E0     		b	.L4
 485              	.LVL48:
 486              	.L16:
 487              	.LBE45:
 488              	.LBE36:
 489              	.LBB46:
 114:Transmission.c ****                 }
 115:Transmission.c ****             }
 116:Transmission.c ****             break;
 117:Transmission.c ****         }
 118:Transmission.c ****         // Event occurs when remote device sends inbound data
 119:Transmission.c ****         case CY_BLE_EVT_GATTS_WRITE_REQ:
ARM GAS  C:\Users\salaz\AppData\Local\Temp\cc3G70Xt.s 			page 38


 120:Transmission.c ****         {
 121:Transmission.c ****             cy_stc_ble_gatts_write_cmd_req_param_t *wrReqParam = (cy_stc_ble_gatts_write_cmd_req_pa
 122:Transmission.c ****                         
 123:Transmission.c ****             // Check which characteristic was updated by remote device
 124:Transmission.c ****             if(wrReqParam->handleValPair.attrHandle == CY_BLE_DEVICE_INTERFACE_INBOUND_CHAR_HANDLE)
 490              		.loc 1 124 0
 491 0234 0B89     		ldrh	r3, [r1, #8]
 492 0236 122B     		cmp	r3, #18
 493 0238 23D1     		bne	.L22
 494              	.LBB47:
 125:Transmission.c ****             {
 495              		.loc 1 125 0
 496 023a 6B46     		mov	r3, sp
 497 023c 7B60     		str	r3, [r7, #4]
 126:Transmission.c ****                 // Buffer received data
 127:Transmission.c ****                 uint32 len = wrReqParam->handleValPair.value.len;
 498              		.loc 1 127 0
 499 023e 8888     		ldrh	r0, [r1, #4]
 500              	.LVL49:
 128:Transmission.c ****                 uint8 msg[len];
 501              		.loc 1 128 0
 502 0240 C31D     		adds	r3, r0, #7
 503 0242 DB08     		lsrs	r3, r3, #3
 504 0244 DB00     		lsls	r3, r3, #3
 505 0246 6A46     		mov	r2, sp
 506 0248 D31A     		subs	r3, r2, r3
 507 024a 9D46     		mov	sp, r3
 508 024c 6E46     		mov	r6, sp
 509              	.LVL50:
 510              	.LBB48:
 129:Transmission.c ****                 for(uint32 i=0; i<len; i++)
 511              		.loc 1 129 0
 512 024e 0023     		movs	r3, #0
 513              	.LVL51:
 514 0250 03E0     		b	.L23
 515              	.LVL52:
 516              	.L24:
 130:Transmission.c ****                 {
 131:Transmission.c ****                     msg[i] = wrReqParam->handleValPair.value.val[CY_BLE_DEVICE_INTERFACE_INBOUND_CH
 517              		.loc 1 131 0 discriminator 3
 518 0252 0A68     		ldr	r2, [r1]
 519 0254 D25C     		ldrb	r2, [r2, r3]
 520 0256 F254     		strb	r2, [r6, r3]
 129:Transmission.c ****                 for(uint32 i=0; i<len; i++)
 521              		.loc 1 129 0 discriminator 3
 522 0258 0133     		adds	r3, r3, #1
 523              	.LVL53:
 524              	.L23:
 129:Transmission.c ****                 for(uint32 i=0; i<len; i++)
 525              		.loc 1 129 0 is_stmt 0 discriminator 1
 526 025a 8342     		cmp	r3, r0
 527 025c F9D3     		bcc	.L24
 528              	.LBE48:
 132:Transmission.c ****                 }
 133:Transmission.c ****                 RxBuffer_MemoryToBuffer(len,msg);
 529              		.loc 1 133 0 is_stmt 1
 530 025e 3100     		movs	r1, r6
ARM GAS  C:\Users\salaz\AppData\Local\Temp\cc3G70Xt.s 			page 39


 531              	.LVL54:
 532 0260 FFF7FEFF 		bl	RxBuffer_MemoryToBuffer
 533              	.LVL55:
 134:Transmission.c ****                 
 135:Transmission.c ****                 // Handle received data
 136:Transmission.c ****                 NVIC_SetPendingIRQ(AppControl_IRQ_cfg.intrSrc);
 534              		.loc 1 136 0
 535 0264 444B     		ldr	r3, .L32+104
 536 0266 0022     		movs	r2, #0
 537 0268 9A5E     		ldrsh	r2, [r3, r2]
 538              	.LVL56:
 539              	.LBB49:
 540              	.LBB50:
 541              		.file 4 "Generated_Source\\PSoC6\\pdl\\cmsis/include/core_cm0plus.h"
   1:Generated_Source\PSoC6\pdl\cmsis/include/core_cm0plus.h **** /**************************************************************************//**
   2:Generated_Source\PSoC6\pdl\cmsis/include/core_cm0plus.h ****  * @file     core_cm0plus.h
   3:Generated_Source\PSoC6\pdl\cmsis/include/core_cm0plus.h ****  * @brief    CMSIS Cortex-M0+ Core Peripheral Access Layer Header File
   4:Generated_Source\PSoC6\pdl\cmsis/include/core_cm0plus.h ****  * @version  V5.0.1
   5:Generated_Source\PSoC6\pdl\cmsis/include/core_cm0plus.h ****  * @date     25. November 2016
   6:Generated_Source\PSoC6\pdl\cmsis/include/core_cm0plus.h ****  ******************************************************************************/
   7:Generated_Source\PSoC6\pdl\cmsis/include/core_cm0plus.h **** /*
   8:Generated_Source\PSoC6\pdl\cmsis/include/core_cm0plus.h ****  * Copyright (c) 2009-2016 ARM Limited. All rights reserved.
   9:Generated_Source\PSoC6\pdl\cmsis/include/core_cm0plus.h ****  *
  10:Generated_Source\PSoC6\pdl\cmsis/include/core_cm0plus.h ****  * SPDX-License-Identifier: Apache-2.0
  11:Generated_Source\PSoC6\pdl\cmsis/include/core_cm0plus.h ****  *
  12:Generated_Source\PSoC6\pdl\cmsis/include/core_cm0plus.h ****  * Licensed under the Apache License, Version 2.0 (the License); you may
  13:Generated_Source\PSoC6\pdl\cmsis/include/core_cm0plus.h ****  * not use this file except in compliance with the License.
  14:Generated_Source\PSoC6\pdl\cmsis/include/core_cm0plus.h ****  * You may obtain a copy of the License at
  15:Generated_Source\PSoC6\pdl\cmsis/include/core_cm0plus.h ****  *
  16:Generated_Source\PSoC6\pdl\cmsis/include/core_cm0plus.h ****  * www.apache.org/licenses/LICENSE-2.0
  17:Generated_Source\PSoC6\pdl\cmsis/include/core_cm0plus.h ****  *
  18:Generated_Source\PSoC6\pdl\cmsis/include/core_cm0plus.h ****  * Unless required by applicable law or agreed to in writing, software
  19:Generated_Source\PSoC6\pdl\cmsis/include/core_cm0plus.h ****  * distributed under the License is distributed on an AS IS BASIS, WITHOUT
  20:Generated_Source\PSoC6\pdl\cmsis/include/core_cm0plus.h ****  * WARRANTIES OR CONDITIONS OF ANY KIND, either express or implied.
  21:Generated_Source\PSoC6\pdl\cmsis/include/core_cm0plus.h ****  * See the License for the specific language governing permissions and
  22:Generated_Source\PSoC6\pdl\cmsis/include/core_cm0plus.h ****  * limitations under the License.
  23:Generated_Source\PSoC6\pdl\cmsis/include/core_cm0plus.h ****  */
  24:Generated_Source\PSoC6\pdl\cmsis/include/core_cm0plus.h **** 
  25:Generated_Source\PSoC6\pdl\cmsis/include/core_cm0plus.h **** #if   defined ( __ICCARM__ )
  26:Generated_Source\PSoC6\pdl\cmsis/include/core_cm0plus.h ****  #pragma system_include         /* treat file as system include file for MISRA check */
  27:Generated_Source\PSoC6\pdl\cmsis/include/core_cm0plus.h **** #elif defined (__ARMCC_VERSION) && (__ARMCC_VERSION >= 6010050)
  28:Generated_Source\PSoC6\pdl\cmsis/include/core_cm0plus.h ****   #pragma clang system_header   /* treat file as system include file */
  29:Generated_Source\PSoC6\pdl\cmsis/include/core_cm0plus.h **** #endif
  30:Generated_Source\PSoC6\pdl\cmsis/include/core_cm0plus.h **** 
  31:Generated_Source\PSoC6\pdl\cmsis/include/core_cm0plus.h **** #ifndef __CORE_CM0PLUS_H_GENERIC
  32:Generated_Source\PSoC6\pdl\cmsis/include/core_cm0plus.h **** #define __CORE_CM0PLUS_H_GENERIC
  33:Generated_Source\PSoC6\pdl\cmsis/include/core_cm0plus.h **** 
  34:Generated_Source\PSoC6\pdl\cmsis/include/core_cm0plus.h **** #include <stdint.h>
  35:Generated_Source\PSoC6\pdl\cmsis/include/core_cm0plus.h **** 
  36:Generated_Source\PSoC6\pdl\cmsis/include/core_cm0plus.h **** #ifdef __cplusplus
  37:Generated_Source\PSoC6\pdl\cmsis/include/core_cm0plus.h ****  extern "C" {
  38:Generated_Source\PSoC6\pdl\cmsis/include/core_cm0plus.h **** #endif
  39:Generated_Source\PSoC6\pdl\cmsis/include/core_cm0plus.h **** 
  40:Generated_Source\PSoC6\pdl\cmsis/include/core_cm0plus.h **** /**
  41:Generated_Source\PSoC6\pdl\cmsis/include/core_cm0plus.h ****   \page CMSIS_MISRA_Exceptions  MISRA-C:2004 Compliance Exceptions
  42:Generated_Source\PSoC6\pdl\cmsis/include/core_cm0plus.h ****   CMSIS violates the following MISRA-C:2004 rules:
  43:Generated_Source\PSoC6\pdl\cmsis/include/core_cm0plus.h **** 
ARM GAS  C:\Users\salaz\AppData\Local\Temp\cc3G70Xt.s 			page 40


  44:Generated_Source\PSoC6\pdl\cmsis/include/core_cm0plus.h ****    \li Required Rule 8.5, object/function definition in header file.<br>
  45:Generated_Source\PSoC6\pdl\cmsis/include/core_cm0plus.h ****      Function definitions in header files are used to allow 'inlining'.
  46:Generated_Source\PSoC6\pdl\cmsis/include/core_cm0plus.h **** 
  47:Generated_Source\PSoC6\pdl\cmsis/include/core_cm0plus.h ****    \li Required Rule 18.4, declaration of union type or object of union type: '{...}'.<br>
  48:Generated_Source\PSoC6\pdl\cmsis/include/core_cm0plus.h ****      Unions are used for effective representation of core registers.
  49:Generated_Source\PSoC6\pdl\cmsis/include/core_cm0plus.h **** 
  50:Generated_Source\PSoC6\pdl\cmsis/include/core_cm0plus.h ****    \li Advisory Rule 19.7, Function-like macro defined.<br>
  51:Generated_Source\PSoC6\pdl\cmsis/include/core_cm0plus.h ****      Function-like macros are used to allow more efficient code.
  52:Generated_Source\PSoC6\pdl\cmsis/include/core_cm0plus.h ****  */
  53:Generated_Source\PSoC6\pdl\cmsis/include/core_cm0plus.h **** 
  54:Generated_Source\PSoC6\pdl\cmsis/include/core_cm0plus.h **** 
  55:Generated_Source\PSoC6\pdl\cmsis/include/core_cm0plus.h **** /*******************************************************************************
  56:Generated_Source\PSoC6\pdl\cmsis/include/core_cm0plus.h ****  *                 CMSIS definitions
  57:Generated_Source\PSoC6\pdl\cmsis/include/core_cm0plus.h ****  ******************************************************************************/
  58:Generated_Source\PSoC6\pdl\cmsis/include/core_cm0plus.h **** /**
  59:Generated_Source\PSoC6\pdl\cmsis/include/core_cm0plus.h ****   \ingroup Cortex-M0+
  60:Generated_Source\PSoC6\pdl\cmsis/include/core_cm0plus.h ****   @{
  61:Generated_Source\PSoC6\pdl\cmsis/include/core_cm0plus.h ****  */
  62:Generated_Source\PSoC6\pdl\cmsis/include/core_cm0plus.h **** 
  63:Generated_Source\PSoC6\pdl\cmsis/include/core_cm0plus.h **** /*  CMSIS CM0+ definitions */
  64:Generated_Source\PSoC6\pdl\cmsis/include/core_cm0plus.h **** #define __CM0PLUS_CMSIS_VERSION_MAIN ( 5U)                                      /*!< [31:16] CMSIS 
  65:Generated_Source\PSoC6\pdl\cmsis/include/core_cm0plus.h **** #define __CM0PLUS_CMSIS_VERSION_SUB  ( 0U)                                      /*!< [15:0]  CMSIS 
  66:Generated_Source\PSoC6\pdl\cmsis/include/core_cm0plus.h **** #define __CM0PLUS_CMSIS_VERSION      ((__CM0PLUS_CMSIS_VERSION_MAIN << 16U) | \
  67:Generated_Source\PSoC6\pdl\cmsis/include/core_cm0plus.h ****                                        __CM0PLUS_CMSIS_VERSION_SUB           )  /*!< CMSIS HAL vers
  68:Generated_Source\PSoC6\pdl\cmsis/include/core_cm0plus.h **** 
  69:Generated_Source\PSoC6\pdl\cmsis/include/core_cm0plus.h **** #define __CORTEX_M                   (0U)                                       /*!< Cortex-M Core 
  70:Generated_Source\PSoC6\pdl\cmsis/include/core_cm0plus.h **** 
  71:Generated_Source\PSoC6\pdl\cmsis/include/core_cm0plus.h **** /** __FPU_USED indicates whether an FPU is used or not.
  72:Generated_Source\PSoC6\pdl\cmsis/include/core_cm0plus.h ****     This core does not support an FPU at all
  73:Generated_Source\PSoC6\pdl\cmsis/include/core_cm0plus.h **** */
  74:Generated_Source\PSoC6\pdl\cmsis/include/core_cm0plus.h **** #define __FPU_USED       0U
  75:Generated_Source\PSoC6\pdl\cmsis/include/core_cm0plus.h **** 
  76:Generated_Source\PSoC6\pdl\cmsis/include/core_cm0plus.h **** #if defined ( __CC_ARM )
  77:Generated_Source\PSoC6\pdl\cmsis/include/core_cm0plus.h ****   #if defined __TARGET_FPU_VFP
  78:Generated_Source\PSoC6\pdl\cmsis/include/core_cm0plus.h ****     #error "Compiler generates FPU instructions for a device without an FPU (check __FPU_PRESENT)"
  79:Generated_Source\PSoC6\pdl\cmsis/include/core_cm0plus.h ****   #endif
  80:Generated_Source\PSoC6\pdl\cmsis/include/core_cm0plus.h **** 
  81:Generated_Source\PSoC6\pdl\cmsis/include/core_cm0plus.h **** #elif defined (__ARMCC_VERSION) && (__ARMCC_VERSION >= 6010050)
  82:Generated_Source\PSoC6\pdl\cmsis/include/core_cm0plus.h ****   #if defined __ARM_PCS_VFP
  83:Generated_Source\PSoC6\pdl\cmsis/include/core_cm0plus.h ****     #error "Compiler generates FPU instructions for a device without an FPU (check __FPU_PRESENT)"
  84:Generated_Source\PSoC6\pdl\cmsis/include/core_cm0plus.h ****   #endif
  85:Generated_Source\PSoC6\pdl\cmsis/include/core_cm0plus.h **** 
  86:Generated_Source\PSoC6\pdl\cmsis/include/core_cm0plus.h **** #elif defined ( __GNUC__ )
  87:Generated_Source\PSoC6\pdl\cmsis/include/core_cm0plus.h ****   #if defined (__VFP_FP__) && !defined(__SOFTFP__)
  88:Generated_Source\PSoC6\pdl\cmsis/include/core_cm0plus.h ****     #error "Compiler generates FPU instructions for a device without an FPU (check __FPU_PRESENT)"
  89:Generated_Source\PSoC6\pdl\cmsis/include/core_cm0plus.h ****   #endif
  90:Generated_Source\PSoC6\pdl\cmsis/include/core_cm0plus.h **** 
  91:Generated_Source\PSoC6\pdl\cmsis/include/core_cm0plus.h **** #elif defined ( __ICCARM__ )
  92:Generated_Source\PSoC6\pdl\cmsis/include/core_cm0plus.h ****   #if defined __ARMVFP__
  93:Generated_Source\PSoC6\pdl\cmsis/include/core_cm0plus.h ****     #error "Compiler generates FPU instructions for a device without an FPU (check __FPU_PRESENT)"
  94:Generated_Source\PSoC6\pdl\cmsis/include/core_cm0plus.h ****   #endif
  95:Generated_Source\PSoC6\pdl\cmsis/include/core_cm0plus.h **** 
  96:Generated_Source\PSoC6\pdl\cmsis/include/core_cm0plus.h **** #elif defined ( __TI_ARM__ )
  97:Generated_Source\PSoC6\pdl\cmsis/include/core_cm0plus.h ****   #if defined __TI_VFP_SUPPORT__
  98:Generated_Source\PSoC6\pdl\cmsis/include/core_cm0plus.h ****     #error "Compiler generates FPU instructions for a device without an FPU (check __FPU_PRESENT)"
  99:Generated_Source\PSoC6\pdl\cmsis/include/core_cm0plus.h ****   #endif
 100:Generated_Source\PSoC6\pdl\cmsis/include/core_cm0plus.h **** 
ARM GAS  C:\Users\salaz\AppData\Local\Temp\cc3G70Xt.s 			page 41


 101:Generated_Source\PSoC6\pdl\cmsis/include/core_cm0plus.h **** #elif defined ( __TASKING__ )
 102:Generated_Source\PSoC6\pdl\cmsis/include/core_cm0plus.h ****   #if defined __FPU_VFP__
 103:Generated_Source\PSoC6\pdl\cmsis/include/core_cm0plus.h ****     #error "Compiler generates FPU instructions for a device without an FPU (check __FPU_PRESENT)"
 104:Generated_Source\PSoC6\pdl\cmsis/include/core_cm0plus.h ****   #endif
 105:Generated_Source\PSoC6\pdl\cmsis/include/core_cm0plus.h **** 
 106:Generated_Source\PSoC6\pdl\cmsis/include/core_cm0plus.h **** #elif defined ( __CSMC__ )
 107:Generated_Source\PSoC6\pdl\cmsis/include/core_cm0plus.h ****   #if ( __CSMC__ & 0x400U)
 108:Generated_Source\PSoC6\pdl\cmsis/include/core_cm0plus.h ****     #error "Compiler generates FPU instructions for a device without an FPU (check __FPU_PRESENT)"
 109:Generated_Source\PSoC6\pdl\cmsis/include/core_cm0plus.h ****   #endif
 110:Generated_Source\PSoC6\pdl\cmsis/include/core_cm0plus.h **** 
 111:Generated_Source\PSoC6\pdl\cmsis/include/core_cm0plus.h **** #endif
 112:Generated_Source\PSoC6\pdl\cmsis/include/core_cm0plus.h **** 
 113:Generated_Source\PSoC6\pdl\cmsis/include/core_cm0plus.h **** #include "cmsis_compiler.h"               /* CMSIS compiler specific defines */
 114:Generated_Source\PSoC6\pdl\cmsis/include/core_cm0plus.h **** 
 115:Generated_Source\PSoC6\pdl\cmsis/include/core_cm0plus.h **** 
 116:Generated_Source\PSoC6\pdl\cmsis/include/core_cm0plus.h **** #ifdef __cplusplus
 117:Generated_Source\PSoC6\pdl\cmsis/include/core_cm0plus.h **** }
 118:Generated_Source\PSoC6\pdl\cmsis/include/core_cm0plus.h **** #endif
 119:Generated_Source\PSoC6\pdl\cmsis/include/core_cm0plus.h **** 
 120:Generated_Source\PSoC6\pdl\cmsis/include/core_cm0plus.h **** #endif /* __CORE_CM0PLUS_H_GENERIC */
 121:Generated_Source\PSoC6\pdl\cmsis/include/core_cm0plus.h **** 
 122:Generated_Source\PSoC6\pdl\cmsis/include/core_cm0plus.h **** #ifndef __CMSIS_GENERIC
 123:Generated_Source\PSoC6\pdl\cmsis/include/core_cm0plus.h **** 
 124:Generated_Source\PSoC6\pdl\cmsis/include/core_cm0plus.h **** #ifndef __CORE_CM0PLUS_H_DEPENDANT
 125:Generated_Source\PSoC6\pdl\cmsis/include/core_cm0plus.h **** #define __CORE_CM0PLUS_H_DEPENDANT
 126:Generated_Source\PSoC6\pdl\cmsis/include/core_cm0plus.h **** 
 127:Generated_Source\PSoC6\pdl\cmsis/include/core_cm0plus.h **** #ifdef __cplusplus
 128:Generated_Source\PSoC6\pdl\cmsis/include/core_cm0plus.h ****  extern "C" {
 129:Generated_Source\PSoC6\pdl\cmsis/include/core_cm0plus.h **** #endif
 130:Generated_Source\PSoC6\pdl\cmsis/include/core_cm0plus.h **** 
 131:Generated_Source\PSoC6\pdl\cmsis/include/core_cm0plus.h **** /* check device defines and use defaults */
 132:Generated_Source\PSoC6\pdl\cmsis/include/core_cm0plus.h **** #if defined __CHECK_DEVICE_DEFINES
 133:Generated_Source\PSoC6\pdl\cmsis/include/core_cm0plus.h ****   #ifndef __CM0PLUS_REV
 134:Generated_Source\PSoC6\pdl\cmsis/include/core_cm0plus.h ****     #define __CM0PLUS_REV             0x0000U
 135:Generated_Source\PSoC6\pdl\cmsis/include/core_cm0plus.h ****     #warning "__CM0PLUS_REV not defined in device header file; using default!"
 136:Generated_Source\PSoC6\pdl\cmsis/include/core_cm0plus.h ****   #endif
 137:Generated_Source\PSoC6\pdl\cmsis/include/core_cm0plus.h **** 
 138:Generated_Source\PSoC6\pdl\cmsis/include/core_cm0plus.h ****   #ifndef __MPU_PRESENT
 139:Generated_Source\PSoC6\pdl\cmsis/include/core_cm0plus.h ****     #define __MPU_PRESENT             0U
 140:Generated_Source\PSoC6\pdl\cmsis/include/core_cm0plus.h ****     #warning "__MPU_PRESENT not defined in device header file; using default!"
 141:Generated_Source\PSoC6\pdl\cmsis/include/core_cm0plus.h ****   #endif
 142:Generated_Source\PSoC6\pdl\cmsis/include/core_cm0plus.h **** 
 143:Generated_Source\PSoC6\pdl\cmsis/include/core_cm0plus.h ****   #ifndef __VTOR_PRESENT
 144:Generated_Source\PSoC6\pdl\cmsis/include/core_cm0plus.h ****     #define __VTOR_PRESENT            0U
 145:Generated_Source\PSoC6\pdl\cmsis/include/core_cm0plus.h ****     #warning "__VTOR_PRESENT not defined in device header file; using default!"
 146:Generated_Source\PSoC6\pdl\cmsis/include/core_cm0plus.h ****   #endif
 147:Generated_Source\PSoC6\pdl\cmsis/include/core_cm0plus.h **** 
 148:Generated_Source\PSoC6\pdl\cmsis/include/core_cm0plus.h ****   #ifndef __NVIC_PRIO_BITS
 149:Generated_Source\PSoC6\pdl\cmsis/include/core_cm0plus.h ****     #define __NVIC_PRIO_BITS          2U
 150:Generated_Source\PSoC6\pdl\cmsis/include/core_cm0plus.h ****     #warning "__NVIC_PRIO_BITS not defined in device header file; using default!"
 151:Generated_Source\PSoC6\pdl\cmsis/include/core_cm0plus.h ****   #endif
 152:Generated_Source\PSoC6\pdl\cmsis/include/core_cm0plus.h **** 
 153:Generated_Source\PSoC6\pdl\cmsis/include/core_cm0plus.h ****   #ifndef __Vendor_SysTickConfig
 154:Generated_Source\PSoC6\pdl\cmsis/include/core_cm0plus.h ****     #define __Vendor_SysTickConfig    0U
 155:Generated_Source\PSoC6\pdl\cmsis/include/core_cm0plus.h ****     #warning "__Vendor_SysTickConfig not defined in device header file; using default!"
 156:Generated_Source\PSoC6\pdl\cmsis/include/core_cm0plus.h ****   #endif
 157:Generated_Source\PSoC6\pdl\cmsis/include/core_cm0plus.h **** #endif
ARM GAS  C:\Users\salaz\AppData\Local\Temp\cc3G70Xt.s 			page 42


 158:Generated_Source\PSoC6\pdl\cmsis/include/core_cm0plus.h **** 
 159:Generated_Source\PSoC6\pdl\cmsis/include/core_cm0plus.h **** /* IO definitions (access restrictions to peripheral registers) */
 160:Generated_Source\PSoC6\pdl\cmsis/include/core_cm0plus.h **** /**
 161:Generated_Source\PSoC6\pdl\cmsis/include/core_cm0plus.h ****     \defgroup CMSIS_glob_defs CMSIS Global Defines
 162:Generated_Source\PSoC6\pdl\cmsis/include/core_cm0plus.h **** 
 163:Generated_Source\PSoC6\pdl\cmsis/include/core_cm0plus.h ****     <strong>IO Type Qualifiers</strong> are used
 164:Generated_Source\PSoC6\pdl\cmsis/include/core_cm0plus.h ****     \li to specify the access to peripheral variables.
 165:Generated_Source\PSoC6\pdl\cmsis/include/core_cm0plus.h ****     \li for automatic generation of peripheral register debug information.
 166:Generated_Source\PSoC6\pdl\cmsis/include/core_cm0plus.h **** */
 167:Generated_Source\PSoC6\pdl\cmsis/include/core_cm0plus.h **** #ifdef __cplusplus
 168:Generated_Source\PSoC6\pdl\cmsis/include/core_cm0plus.h ****   #define   __I     volatile             /*!< Defines 'read only' permissions */
 169:Generated_Source\PSoC6\pdl\cmsis/include/core_cm0plus.h **** #else
 170:Generated_Source\PSoC6\pdl\cmsis/include/core_cm0plus.h ****   #define   __I     volatile const       /*!< Defines 'read only' permissions */
 171:Generated_Source\PSoC6\pdl\cmsis/include/core_cm0plus.h **** #endif
 172:Generated_Source\PSoC6\pdl\cmsis/include/core_cm0plus.h **** #define     __O     volatile             /*!< Defines 'write only' permissions */
 173:Generated_Source\PSoC6\pdl\cmsis/include/core_cm0plus.h **** #define     __IO    volatile             /*!< Defines 'read / write' permissions */
 174:Generated_Source\PSoC6\pdl\cmsis/include/core_cm0plus.h **** 
 175:Generated_Source\PSoC6\pdl\cmsis/include/core_cm0plus.h **** /* following defines should be used for structure members */
 176:Generated_Source\PSoC6\pdl\cmsis/include/core_cm0plus.h **** #define     __IM     volatile const      /*! Defines 'read only' structure member permissions */
 177:Generated_Source\PSoC6\pdl\cmsis/include/core_cm0plus.h **** #define     __OM     volatile            /*! Defines 'write only' structure member permissions */
 178:Generated_Source\PSoC6\pdl\cmsis/include/core_cm0plus.h **** #define     __IOM    volatile            /*! Defines 'read / write' structure member permissions */
 179:Generated_Source\PSoC6\pdl\cmsis/include/core_cm0plus.h **** 
 180:Generated_Source\PSoC6\pdl\cmsis/include/core_cm0plus.h **** /*@} end of group Cortex-M0+ */
 181:Generated_Source\PSoC6\pdl\cmsis/include/core_cm0plus.h **** 
 182:Generated_Source\PSoC6\pdl\cmsis/include/core_cm0plus.h **** 
 183:Generated_Source\PSoC6\pdl\cmsis/include/core_cm0plus.h **** 
 184:Generated_Source\PSoC6\pdl\cmsis/include/core_cm0plus.h **** /*******************************************************************************
 185:Generated_Source\PSoC6\pdl\cmsis/include/core_cm0plus.h ****  *                 Register Abstraction
 186:Generated_Source\PSoC6\pdl\cmsis/include/core_cm0plus.h ****   Core Register contain:
 187:Generated_Source\PSoC6\pdl\cmsis/include/core_cm0plus.h ****   - Core Register
 188:Generated_Source\PSoC6\pdl\cmsis/include/core_cm0plus.h ****   - Core NVIC Register
 189:Generated_Source\PSoC6\pdl\cmsis/include/core_cm0plus.h ****   - Core SCB Register
 190:Generated_Source\PSoC6\pdl\cmsis/include/core_cm0plus.h ****   - Core SysTick Register
 191:Generated_Source\PSoC6\pdl\cmsis/include/core_cm0plus.h ****   - Core MPU Register
 192:Generated_Source\PSoC6\pdl\cmsis/include/core_cm0plus.h ****  ******************************************************************************/
 193:Generated_Source\PSoC6\pdl\cmsis/include/core_cm0plus.h **** /**
 194:Generated_Source\PSoC6\pdl\cmsis/include/core_cm0plus.h ****   \defgroup CMSIS_core_register Defines and Type Definitions
 195:Generated_Source\PSoC6\pdl\cmsis/include/core_cm0plus.h ****   \brief Type definitions and defines for Cortex-M processor based devices.
 196:Generated_Source\PSoC6\pdl\cmsis/include/core_cm0plus.h **** */
 197:Generated_Source\PSoC6\pdl\cmsis/include/core_cm0plus.h **** 
 198:Generated_Source\PSoC6\pdl\cmsis/include/core_cm0plus.h **** /**
 199:Generated_Source\PSoC6\pdl\cmsis/include/core_cm0plus.h ****   \ingroup    CMSIS_core_register
 200:Generated_Source\PSoC6\pdl\cmsis/include/core_cm0plus.h ****   \defgroup   CMSIS_CORE  Status and Control Registers
 201:Generated_Source\PSoC6\pdl\cmsis/include/core_cm0plus.h ****   \brief      Core Register type definitions.
 202:Generated_Source\PSoC6\pdl\cmsis/include/core_cm0plus.h ****   @{
 203:Generated_Source\PSoC6\pdl\cmsis/include/core_cm0plus.h ****  */
 204:Generated_Source\PSoC6\pdl\cmsis/include/core_cm0plus.h **** 
 205:Generated_Source\PSoC6\pdl\cmsis/include/core_cm0plus.h **** /**
 206:Generated_Source\PSoC6\pdl\cmsis/include/core_cm0plus.h ****   \brief  Union type to access the Application Program Status Register (APSR).
 207:Generated_Source\PSoC6\pdl\cmsis/include/core_cm0plus.h ****  */
 208:Generated_Source\PSoC6\pdl\cmsis/include/core_cm0plus.h **** typedef union
 209:Generated_Source\PSoC6\pdl\cmsis/include/core_cm0plus.h **** {
 210:Generated_Source\PSoC6\pdl\cmsis/include/core_cm0plus.h ****   struct
 211:Generated_Source\PSoC6\pdl\cmsis/include/core_cm0plus.h ****   {
 212:Generated_Source\PSoC6\pdl\cmsis/include/core_cm0plus.h ****     uint32_t _reserved0:28;              /*!< bit:  0..27  Reserved */
 213:Generated_Source\PSoC6\pdl\cmsis/include/core_cm0plus.h ****     uint32_t V:1;                        /*!< bit:     28  Overflow condition code flag */
 214:Generated_Source\PSoC6\pdl\cmsis/include/core_cm0plus.h ****     uint32_t C:1;                        /*!< bit:     29  Carry condition code flag */
ARM GAS  C:\Users\salaz\AppData\Local\Temp\cc3G70Xt.s 			page 43


 215:Generated_Source\PSoC6\pdl\cmsis/include/core_cm0plus.h ****     uint32_t Z:1;                        /*!< bit:     30  Zero condition code flag */
 216:Generated_Source\PSoC6\pdl\cmsis/include/core_cm0plus.h ****     uint32_t N:1;                        /*!< bit:     31  Negative condition code flag */
 217:Generated_Source\PSoC6\pdl\cmsis/include/core_cm0plus.h ****   } b;                                   /*!< Structure used for bit  access */
 218:Generated_Source\PSoC6\pdl\cmsis/include/core_cm0plus.h ****   uint32_t w;                            /*!< Type      used for word access */
 219:Generated_Source\PSoC6\pdl\cmsis/include/core_cm0plus.h **** } APSR_Type;
 220:Generated_Source\PSoC6\pdl\cmsis/include/core_cm0plus.h **** 
 221:Generated_Source\PSoC6\pdl\cmsis/include/core_cm0plus.h **** /* APSR Register Definitions */
 222:Generated_Source\PSoC6\pdl\cmsis/include/core_cm0plus.h **** #define APSR_N_Pos                         31U                                            /*!< APSR
 223:Generated_Source\PSoC6\pdl\cmsis/include/core_cm0plus.h **** #define APSR_N_Msk                         (1UL << APSR_N_Pos)                            /*!< APSR
 224:Generated_Source\PSoC6\pdl\cmsis/include/core_cm0plus.h **** 
 225:Generated_Source\PSoC6\pdl\cmsis/include/core_cm0plus.h **** #define APSR_Z_Pos                         30U                                            /*!< APSR
 226:Generated_Source\PSoC6\pdl\cmsis/include/core_cm0plus.h **** #define APSR_Z_Msk                         (1UL << APSR_Z_Pos)                            /*!< APSR
 227:Generated_Source\PSoC6\pdl\cmsis/include/core_cm0plus.h **** 
 228:Generated_Source\PSoC6\pdl\cmsis/include/core_cm0plus.h **** #define APSR_C_Pos                         29U                                            /*!< APSR
 229:Generated_Source\PSoC6\pdl\cmsis/include/core_cm0plus.h **** #define APSR_C_Msk                         (1UL << APSR_C_Pos)                            /*!< APSR
 230:Generated_Source\PSoC6\pdl\cmsis/include/core_cm0plus.h **** 
 231:Generated_Source\PSoC6\pdl\cmsis/include/core_cm0plus.h **** #define APSR_V_Pos                         28U                                            /*!< APSR
 232:Generated_Source\PSoC6\pdl\cmsis/include/core_cm0plus.h **** #define APSR_V_Msk                         (1UL << APSR_V_Pos)                            /*!< APSR
 233:Generated_Source\PSoC6\pdl\cmsis/include/core_cm0plus.h **** 
 234:Generated_Source\PSoC6\pdl\cmsis/include/core_cm0plus.h **** 
 235:Generated_Source\PSoC6\pdl\cmsis/include/core_cm0plus.h **** /**
 236:Generated_Source\PSoC6\pdl\cmsis/include/core_cm0plus.h ****   \brief  Union type to access the Interrupt Program Status Register (IPSR).
 237:Generated_Source\PSoC6\pdl\cmsis/include/core_cm0plus.h ****  */
 238:Generated_Source\PSoC6\pdl\cmsis/include/core_cm0plus.h **** typedef union
 239:Generated_Source\PSoC6\pdl\cmsis/include/core_cm0plus.h **** {
 240:Generated_Source\PSoC6\pdl\cmsis/include/core_cm0plus.h ****   struct
 241:Generated_Source\PSoC6\pdl\cmsis/include/core_cm0plus.h ****   {
 242:Generated_Source\PSoC6\pdl\cmsis/include/core_cm0plus.h ****     uint32_t ISR:9;                      /*!< bit:  0.. 8  Exception number */
 243:Generated_Source\PSoC6\pdl\cmsis/include/core_cm0plus.h ****     uint32_t _reserved0:23;              /*!< bit:  9..31  Reserved */
 244:Generated_Source\PSoC6\pdl\cmsis/include/core_cm0plus.h ****   } b;                                   /*!< Structure used for bit  access */
 245:Generated_Source\PSoC6\pdl\cmsis/include/core_cm0plus.h ****   uint32_t w;                            /*!< Type      used for word access */
 246:Generated_Source\PSoC6\pdl\cmsis/include/core_cm0plus.h **** } IPSR_Type;
 247:Generated_Source\PSoC6\pdl\cmsis/include/core_cm0plus.h **** 
 248:Generated_Source\PSoC6\pdl\cmsis/include/core_cm0plus.h **** /* IPSR Register Definitions */
 249:Generated_Source\PSoC6\pdl\cmsis/include/core_cm0plus.h **** #define IPSR_ISR_Pos                        0U                                            /*!< IPSR
 250:Generated_Source\PSoC6\pdl\cmsis/include/core_cm0plus.h **** #define IPSR_ISR_Msk                       (0x1FFUL /*<< IPSR_ISR_Pos*/)                  /*!< IPSR
 251:Generated_Source\PSoC6\pdl\cmsis/include/core_cm0plus.h **** 
 252:Generated_Source\PSoC6\pdl\cmsis/include/core_cm0plus.h **** 
 253:Generated_Source\PSoC6\pdl\cmsis/include/core_cm0plus.h **** /**
 254:Generated_Source\PSoC6\pdl\cmsis/include/core_cm0plus.h ****   \brief  Union type to access the Special-Purpose Program Status Registers (xPSR).
 255:Generated_Source\PSoC6\pdl\cmsis/include/core_cm0plus.h ****  */
 256:Generated_Source\PSoC6\pdl\cmsis/include/core_cm0plus.h **** typedef union
 257:Generated_Source\PSoC6\pdl\cmsis/include/core_cm0plus.h **** {
 258:Generated_Source\PSoC6\pdl\cmsis/include/core_cm0plus.h ****   struct
 259:Generated_Source\PSoC6\pdl\cmsis/include/core_cm0plus.h ****   {
 260:Generated_Source\PSoC6\pdl\cmsis/include/core_cm0plus.h ****     uint32_t ISR:9;                      /*!< bit:  0.. 8  Exception number */
 261:Generated_Source\PSoC6\pdl\cmsis/include/core_cm0plus.h ****     uint32_t _reserved0:15;              /*!< bit:  9..23  Reserved */
 262:Generated_Source\PSoC6\pdl\cmsis/include/core_cm0plus.h ****     uint32_t T:1;                        /*!< bit:     24  Thumb bit        (read 0) */
 263:Generated_Source\PSoC6\pdl\cmsis/include/core_cm0plus.h ****     uint32_t _reserved1:3;               /*!< bit: 25..27  Reserved */
 264:Generated_Source\PSoC6\pdl\cmsis/include/core_cm0plus.h ****     uint32_t V:1;                        /*!< bit:     28  Overflow condition code flag */
 265:Generated_Source\PSoC6\pdl\cmsis/include/core_cm0plus.h ****     uint32_t C:1;                        /*!< bit:     29  Carry condition code flag */
 266:Generated_Source\PSoC6\pdl\cmsis/include/core_cm0plus.h ****     uint32_t Z:1;                        /*!< bit:     30  Zero condition code flag */
 267:Generated_Source\PSoC6\pdl\cmsis/include/core_cm0plus.h ****     uint32_t N:1;                        /*!< bit:     31  Negative condition code flag */
 268:Generated_Source\PSoC6\pdl\cmsis/include/core_cm0plus.h ****   } b;                                   /*!< Structure used for bit  access */
 269:Generated_Source\PSoC6\pdl\cmsis/include/core_cm0plus.h ****   uint32_t w;                            /*!< Type      used for word access */
 270:Generated_Source\PSoC6\pdl\cmsis/include/core_cm0plus.h **** } xPSR_Type;
 271:Generated_Source\PSoC6\pdl\cmsis/include/core_cm0plus.h **** 
ARM GAS  C:\Users\salaz\AppData\Local\Temp\cc3G70Xt.s 			page 44


 272:Generated_Source\PSoC6\pdl\cmsis/include/core_cm0plus.h **** /* xPSR Register Definitions */
 273:Generated_Source\PSoC6\pdl\cmsis/include/core_cm0plus.h **** #define xPSR_N_Pos                         31U                                            /*!< xPSR
 274:Generated_Source\PSoC6\pdl\cmsis/include/core_cm0plus.h **** #define xPSR_N_Msk                         (1UL << xPSR_N_Pos)                            /*!< xPSR
 275:Generated_Source\PSoC6\pdl\cmsis/include/core_cm0plus.h **** 
 276:Generated_Source\PSoC6\pdl\cmsis/include/core_cm0plus.h **** #define xPSR_Z_Pos                         30U                                            /*!< xPSR
 277:Generated_Source\PSoC6\pdl\cmsis/include/core_cm0plus.h **** #define xPSR_Z_Msk                         (1UL << xPSR_Z_Pos)                            /*!< xPSR
 278:Generated_Source\PSoC6\pdl\cmsis/include/core_cm0plus.h **** 
 279:Generated_Source\PSoC6\pdl\cmsis/include/core_cm0plus.h **** #define xPSR_C_Pos                         29U                                            /*!< xPSR
 280:Generated_Source\PSoC6\pdl\cmsis/include/core_cm0plus.h **** #define xPSR_C_Msk                         (1UL << xPSR_C_Pos)                            /*!< xPSR
 281:Generated_Source\PSoC6\pdl\cmsis/include/core_cm0plus.h **** 
 282:Generated_Source\PSoC6\pdl\cmsis/include/core_cm0plus.h **** #define xPSR_V_Pos                         28U                                            /*!< xPSR
 283:Generated_Source\PSoC6\pdl\cmsis/include/core_cm0plus.h **** #define xPSR_V_Msk                         (1UL << xPSR_V_Pos)                            /*!< xPSR
 284:Generated_Source\PSoC6\pdl\cmsis/include/core_cm0plus.h **** 
 285:Generated_Source\PSoC6\pdl\cmsis/include/core_cm0plus.h **** #define xPSR_T_Pos                         24U                                            /*!< xPSR
 286:Generated_Source\PSoC6\pdl\cmsis/include/core_cm0plus.h **** #define xPSR_T_Msk                         (1UL << xPSR_T_Pos)                            /*!< xPSR
 287:Generated_Source\PSoC6\pdl\cmsis/include/core_cm0plus.h **** 
 288:Generated_Source\PSoC6\pdl\cmsis/include/core_cm0plus.h **** #define xPSR_ISR_Pos                        0U                                            /*!< xPSR
 289:Generated_Source\PSoC6\pdl\cmsis/include/core_cm0plus.h **** #define xPSR_ISR_Msk                       (0x1FFUL /*<< xPSR_ISR_Pos*/)                  /*!< xPSR
 290:Generated_Source\PSoC6\pdl\cmsis/include/core_cm0plus.h **** 
 291:Generated_Source\PSoC6\pdl\cmsis/include/core_cm0plus.h **** 
 292:Generated_Source\PSoC6\pdl\cmsis/include/core_cm0plus.h **** /**
 293:Generated_Source\PSoC6\pdl\cmsis/include/core_cm0plus.h ****   \brief  Union type to access the Control Registers (CONTROL).
 294:Generated_Source\PSoC6\pdl\cmsis/include/core_cm0plus.h ****  */
 295:Generated_Source\PSoC6\pdl\cmsis/include/core_cm0plus.h **** typedef union
 296:Generated_Source\PSoC6\pdl\cmsis/include/core_cm0plus.h **** {
 297:Generated_Source\PSoC6\pdl\cmsis/include/core_cm0plus.h ****   struct
 298:Generated_Source\PSoC6\pdl\cmsis/include/core_cm0plus.h ****   {
 299:Generated_Source\PSoC6\pdl\cmsis/include/core_cm0plus.h ****     uint32_t nPRIV:1;                    /*!< bit:      0  Execution privilege in Thread mode */
 300:Generated_Source\PSoC6\pdl\cmsis/include/core_cm0plus.h ****     uint32_t SPSEL:1;                    /*!< bit:      1  Stack to be used */
 301:Generated_Source\PSoC6\pdl\cmsis/include/core_cm0plus.h ****     uint32_t _reserved1:30;              /*!< bit:  2..31  Reserved */
 302:Generated_Source\PSoC6\pdl\cmsis/include/core_cm0plus.h ****   } b;                                   /*!< Structure used for bit  access */
 303:Generated_Source\PSoC6\pdl\cmsis/include/core_cm0plus.h ****   uint32_t w;                            /*!< Type      used for word access */
 304:Generated_Source\PSoC6\pdl\cmsis/include/core_cm0plus.h **** } CONTROL_Type;
 305:Generated_Source\PSoC6\pdl\cmsis/include/core_cm0plus.h **** 
 306:Generated_Source\PSoC6\pdl\cmsis/include/core_cm0plus.h **** /* CONTROL Register Definitions */
 307:Generated_Source\PSoC6\pdl\cmsis/include/core_cm0plus.h **** #define CONTROL_SPSEL_Pos                   1U                                            /*!< CONT
 308:Generated_Source\PSoC6\pdl\cmsis/include/core_cm0plus.h **** #define CONTROL_SPSEL_Msk                  (1UL << CONTROL_SPSEL_Pos)                     /*!< CONT
 309:Generated_Source\PSoC6\pdl\cmsis/include/core_cm0plus.h **** 
 310:Generated_Source\PSoC6\pdl\cmsis/include/core_cm0plus.h **** #define CONTROL_nPRIV_Pos                   0U                                            /*!< CONT
 311:Generated_Source\PSoC6\pdl\cmsis/include/core_cm0plus.h **** #define CONTROL_nPRIV_Msk                  (1UL /*<< CONTROL_nPRIV_Pos*/)                 /*!< CONT
 312:Generated_Source\PSoC6\pdl\cmsis/include/core_cm0plus.h **** 
 313:Generated_Source\PSoC6\pdl\cmsis/include/core_cm0plus.h **** /*@} end of group CMSIS_CORE */
 314:Generated_Source\PSoC6\pdl\cmsis/include/core_cm0plus.h **** 
 315:Generated_Source\PSoC6\pdl\cmsis/include/core_cm0plus.h **** 
 316:Generated_Source\PSoC6\pdl\cmsis/include/core_cm0plus.h **** /**
 317:Generated_Source\PSoC6\pdl\cmsis/include/core_cm0plus.h ****   \ingroup    CMSIS_core_register
 318:Generated_Source\PSoC6\pdl\cmsis/include/core_cm0plus.h ****   \defgroup   CMSIS_NVIC  Nested Vectored Interrupt Controller (NVIC)
 319:Generated_Source\PSoC6\pdl\cmsis/include/core_cm0plus.h ****   \brief      Type definitions for the NVIC Registers
 320:Generated_Source\PSoC6\pdl\cmsis/include/core_cm0plus.h ****   @{
 321:Generated_Source\PSoC6\pdl\cmsis/include/core_cm0plus.h ****  */
 322:Generated_Source\PSoC6\pdl\cmsis/include/core_cm0plus.h **** 
 323:Generated_Source\PSoC6\pdl\cmsis/include/core_cm0plus.h **** /**
 324:Generated_Source\PSoC6\pdl\cmsis/include/core_cm0plus.h ****   \brief  Structure type to access the Nested Vectored Interrupt Controller (NVIC).
 325:Generated_Source\PSoC6\pdl\cmsis/include/core_cm0plus.h ****  */
 326:Generated_Source\PSoC6\pdl\cmsis/include/core_cm0plus.h **** typedef struct
 327:Generated_Source\PSoC6\pdl\cmsis/include/core_cm0plus.h **** {
 328:Generated_Source\PSoC6\pdl\cmsis/include/core_cm0plus.h ****   __IOM uint32_t ISER[1U];               /*!< Offset: 0x000 (R/W)  Interrupt Set Enable Register */
ARM GAS  C:\Users\salaz\AppData\Local\Temp\cc3G70Xt.s 			page 45


 329:Generated_Source\PSoC6\pdl\cmsis/include/core_cm0plus.h ****         uint32_t RESERVED0[31U];
 330:Generated_Source\PSoC6\pdl\cmsis/include/core_cm0plus.h ****   __IOM uint32_t ICER[1U];               /*!< Offset: 0x080 (R/W)  Interrupt Clear Enable Register 
 331:Generated_Source\PSoC6\pdl\cmsis/include/core_cm0plus.h ****         uint32_t RSERVED1[31U];
 332:Generated_Source\PSoC6\pdl\cmsis/include/core_cm0plus.h ****   __IOM uint32_t ISPR[1U];               /*!< Offset: 0x100 (R/W)  Interrupt Set Pending Register *
 333:Generated_Source\PSoC6\pdl\cmsis/include/core_cm0plus.h ****         uint32_t RESERVED2[31U];
 334:Generated_Source\PSoC6\pdl\cmsis/include/core_cm0plus.h ****   __IOM uint32_t ICPR[1U];               /*!< Offset: 0x180 (R/W)  Interrupt Clear Pending Register
 335:Generated_Source\PSoC6\pdl\cmsis/include/core_cm0plus.h ****         uint32_t RESERVED3[31U];
 336:Generated_Source\PSoC6\pdl\cmsis/include/core_cm0plus.h ****         uint32_t RESERVED4[64U];
 337:Generated_Source\PSoC6\pdl\cmsis/include/core_cm0plus.h ****   __IOM uint32_t IP[8U];                 /*!< Offset: 0x300 (R/W)  Interrupt Priority Register */
 338:Generated_Source\PSoC6\pdl\cmsis/include/core_cm0plus.h **** }  NVIC_Type;
 339:Generated_Source\PSoC6\pdl\cmsis/include/core_cm0plus.h **** 
 340:Generated_Source\PSoC6\pdl\cmsis/include/core_cm0plus.h **** /*@} end of group CMSIS_NVIC */
 341:Generated_Source\PSoC6\pdl\cmsis/include/core_cm0plus.h **** 
 342:Generated_Source\PSoC6\pdl\cmsis/include/core_cm0plus.h **** 
 343:Generated_Source\PSoC6\pdl\cmsis/include/core_cm0plus.h **** /**
 344:Generated_Source\PSoC6\pdl\cmsis/include/core_cm0plus.h ****   \ingroup  CMSIS_core_register
 345:Generated_Source\PSoC6\pdl\cmsis/include/core_cm0plus.h ****   \defgroup CMSIS_SCB     System Control Block (SCB)
 346:Generated_Source\PSoC6\pdl\cmsis/include/core_cm0plus.h ****   \brief    Type definitions for the System Control Block Registers
 347:Generated_Source\PSoC6\pdl\cmsis/include/core_cm0plus.h ****   @{
 348:Generated_Source\PSoC6\pdl\cmsis/include/core_cm0plus.h ****  */
 349:Generated_Source\PSoC6\pdl\cmsis/include/core_cm0plus.h **** 
 350:Generated_Source\PSoC6\pdl\cmsis/include/core_cm0plus.h **** /**
 351:Generated_Source\PSoC6\pdl\cmsis/include/core_cm0plus.h ****   \brief  Structure type to access the System Control Block (SCB).
 352:Generated_Source\PSoC6\pdl\cmsis/include/core_cm0plus.h ****  */
 353:Generated_Source\PSoC6\pdl\cmsis/include/core_cm0plus.h **** typedef struct
 354:Generated_Source\PSoC6\pdl\cmsis/include/core_cm0plus.h **** {
 355:Generated_Source\PSoC6\pdl\cmsis/include/core_cm0plus.h ****   __IM  uint32_t CPUID;                  /*!< Offset: 0x000 (R/ )  CPUID Base Register */
 356:Generated_Source\PSoC6\pdl\cmsis/include/core_cm0plus.h ****   __IOM uint32_t ICSR;                   /*!< Offset: 0x004 (R/W)  Interrupt Control and State Regi
 357:Generated_Source\PSoC6\pdl\cmsis/include/core_cm0plus.h **** #if defined (__VTOR_PRESENT) && (__VTOR_PRESENT == 1U)
 358:Generated_Source\PSoC6\pdl\cmsis/include/core_cm0plus.h ****   __IOM uint32_t VTOR;                   /*!< Offset: 0x008 (R/W)  Vector Table Offset Register */
 359:Generated_Source\PSoC6\pdl\cmsis/include/core_cm0plus.h **** #else
 360:Generated_Source\PSoC6\pdl\cmsis/include/core_cm0plus.h ****         uint32_t RESERVED0;
 361:Generated_Source\PSoC6\pdl\cmsis/include/core_cm0plus.h **** #endif
 362:Generated_Source\PSoC6\pdl\cmsis/include/core_cm0plus.h ****   __IOM uint32_t AIRCR;                  /*!< Offset: 0x00C (R/W)  Application Interrupt and Reset 
 363:Generated_Source\PSoC6\pdl\cmsis/include/core_cm0plus.h ****   __IOM uint32_t SCR;                    /*!< Offset: 0x010 (R/W)  System Control Register */
 364:Generated_Source\PSoC6\pdl\cmsis/include/core_cm0plus.h ****   __IOM uint32_t CCR;                    /*!< Offset: 0x014 (R/W)  Configuration Control Register *
 365:Generated_Source\PSoC6\pdl\cmsis/include/core_cm0plus.h ****         uint32_t RESERVED1;
 366:Generated_Source\PSoC6\pdl\cmsis/include/core_cm0plus.h ****   __IOM uint32_t SHP[2U];                /*!< Offset: 0x01C (R/W)  System Handlers Priority Registe
 367:Generated_Source\PSoC6\pdl\cmsis/include/core_cm0plus.h ****   __IOM uint32_t SHCSR;                  /*!< Offset: 0x024 (R/W)  System Handler Control and State
 368:Generated_Source\PSoC6\pdl\cmsis/include/core_cm0plus.h **** } SCB_Type;
 369:Generated_Source\PSoC6\pdl\cmsis/include/core_cm0plus.h **** 
 370:Generated_Source\PSoC6\pdl\cmsis/include/core_cm0plus.h **** /* SCB CPUID Register Definitions */
 371:Generated_Source\PSoC6\pdl\cmsis/include/core_cm0plus.h **** #define SCB_CPUID_IMPLEMENTER_Pos          24U                                            /*!< SCB 
 372:Generated_Source\PSoC6\pdl\cmsis/include/core_cm0plus.h **** #define SCB_CPUID_IMPLEMENTER_Msk          (0xFFUL << SCB_CPUID_IMPLEMENTER_Pos)          /*!< SCB 
 373:Generated_Source\PSoC6\pdl\cmsis/include/core_cm0plus.h **** 
 374:Generated_Source\PSoC6\pdl\cmsis/include/core_cm0plus.h **** #define SCB_CPUID_VARIANT_Pos              20U                                            /*!< SCB 
 375:Generated_Source\PSoC6\pdl\cmsis/include/core_cm0plus.h **** #define SCB_CPUID_VARIANT_Msk              (0xFUL << SCB_CPUID_VARIANT_Pos)               /*!< SCB 
 376:Generated_Source\PSoC6\pdl\cmsis/include/core_cm0plus.h **** 
 377:Generated_Source\PSoC6\pdl\cmsis/include/core_cm0plus.h **** #define SCB_CPUID_ARCHITECTURE_Pos         16U                                            /*!< SCB 
 378:Generated_Source\PSoC6\pdl\cmsis/include/core_cm0plus.h **** #define SCB_CPUID_ARCHITECTURE_Msk         (0xFUL << SCB_CPUID_ARCHITECTURE_Pos)          /*!< SCB 
 379:Generated_Source\PSoC6\pdl\cmsis/include/core_cm0plus.h **** 
 380:Generated_Source\PSoC6\pdl\cmsis/include/core_cm0plus.h **** #define SCB_CPUID_PARTNO_Pos                4U                                            /*!< SCB 
 381:Generated_Source\PSoC6\pdl\cmsis/include/core_cm0plus.h **** #define SCB_CPUID_PARTNO_Msk               (0xFFFUL << SCB_CPUID_PARTNO_Pos)              /*!< SCB 
 382:Generated_Source\PSoC6\pdl\cmsis/include/core_cm0plus.h **** 
 383:Generated_Source\PSoC6\pdl\cmsis/include/core_cm0plus.h **** #define SCB_CPUID_REVISION_Pos              0U                                            /*!< SCB 
 384:Generated_Source\PSoC6\pdl\cmsis/include/core_cm0plus.h **** #define SCB_CPUID_REVISION_Msk             (0xFUL /*<< SCB_CPUID_REVISION_Pos*/)          /*!< SCB 
 385:Generated_Source\PSoC6\pdl\cmsis/include/core_cm0plus.h **** 
ARM GAS  C:\Users\salaz\AppData\Local\Temp\cc3G70Xt.s 			page 46


 386:Generated_Source\PSoC6\pdl\cmsis/include/core_cm0plus.h **** /* SCB Interrupt Control State Register Definitions */
 387:Generated_Source\PSoC6\pdl\cmsis/include/core_cm0plus.h **** #define SCB_ICSR_NMIPENDSET_Pos            31U                                            /*!< SCB 
 388:Generated_Source\PSoC6\pdl\cmsis/include/core_cm0plus.h **** #define SCB_ICSR_NMIPENDSET_Msk            (1UL << SCB_ICSR_NMIPENDSET_Pos)               /*!< SCB 
 389:Generated_Source\PSoC6\pdl\cmsis/include/core_cm0plus.h **** 
 390:Generated_Source\PSoC6\pdl\cmsis/include/core_cm0plus.h **** #define SCB_ICSR_PENDSVSET_Pos             28U                                            /*!< SCB 
 391:Generated_Source\PSoC6\pdl\cmsis/include/core_cm0plus.h **** #define SCB_ICSR_PENDSVSET_Msk             (1UL << SCB_ICSR_PENDSVSET_Pos)                /*!< SCB 
 392:Generated_Source\PSoC6\pdl\cmsis/include/core_cm0plus.h **** 
 393:Generated_Source\PSoC6\pdl\cmsis/include/core_cm0plus.h **** #define SCB_ICSR_PENDSVCLR_Pos             27U                                            /*!< SCB 
 394:Generated_Source\PSoC6\pdl\cmsis/include/core_cm0plus.h **** #define SCB_ICSR_PENDSVCLR_Msk             (1UL << SCB_ICSR_PENDSVCLR_Pos)                /*!< SCB 
 395:Generated_Source\PSoC6\pdl\cmsis/include/core_cm0plus.h **** 
 396:Generated_Source\PSoC6\pdl\cmsis/include/core_cm0plus.h **** #define SCB_ICSR_PENDSTSET_Pos             26U                                            /*!< SCB 
 397:Generated_Source\PSoC6\pdl\cmsis/include/core_cm0plus.h **** #define SCB_ICSR_PENDSTSET_Msk             (1UL << SCB_ICSR_PENDSTSET_Pos)                /*!< SCB 
 398:Generated_Source\PSoC6\pdl\cmsis/include/core_cm0plus.h **** 
 399:Generated_Source\PSoC6\pdl\cmsis/include/core_cm0plus.h **** #define SCB_ICSR_PENDSTCLR_Pos             25U                                            /*!< SCB 
 400:Generated_Source\PSoC6\pdl\cmsis/include/core_cm0plus.h **** #define SCB_ICSR_PENDSTCLR_Msk             (1UL << SCB_ICSR_PENDSTCLR_Pos)                /*!< SCB 
 401:Generated_Source\PSoC6\pdl\cmsis/include/core_cm0plus.h **** 
 402:Generated_Source\PSoC6\pdl\cmsis/include/core_cm0plus.h **** #define SCB_ICSR_ISRPREEMPT_Pos            23U                                            /*!< SCB 
 403:Generated_Source\PSoC6\pdl\cmsis/include/core_cm0plus.h **** #define SCB_ICSR_ISRPREEMPT_Msk            (1UL << SCB_ICSR_ISRPREEMPT_Pos)               /*!< SCB 
 404:Generated_Source\PSoC6\pdl\cmsis/include/core_cm0plus.h **** 
 405:Generated_Source\PSoC6\pdl\cmsis/include/core_cm0plus.h **** #define SCB_ICSR_ISRPENDING_Pos            22U                                            /*!< SCB 
 406:Generated_Source\PSoC6\pdl\cmsis/include/core_cm0plus.h **** #define SCB_ICSR_ISRPENDING_Msk            (1UL << SCB_ICSR_ISRPENDING_Pos)               /*!< SCB 
 407:Generated_Source\PSoC6\pdl\cmsis/include/core_cm0plus.h **** 
 408:Generated_Source\PSoC6\pdl\cmsis/include/core_cm0plus.h **** #define SCB_ICSR_VECTPENDING_Pos           12U                                            /*!< SCB 
 409:Generated_Source\PSoC6\pdl\cmsis/include/core_cm0plus.h **** #define SCB_ICSR_VECTPENDING_Msk           (0x1FFUL << SCB_ICSR_VECTPENDING_Pos)          /*!< SCB 
 410:Generated_Source\PSoC6\pdl\cmsis/include/core_cm0plus.h **** 
 411:Generated_Source\PSoC6\pdl\cmsis/include/core_cm0plus.h **** #define SCB_ICSR_VECTACTIVE_Pos             0U                                            /*!< SCB 
 412:Generated_Source\PSoC6\pdl\cmsis/include/core_cm0plus.h **** #define SCB_ICSR_VECTACTIVE_Msk            (0x1FFUL /*<< SCB_ICSR_VECTACTIVE_Pos*/)       /*!< SCB 
 413:Generated_Source\PSoC6\pdl\cmsis/include/core_cm0plus.h **** 
 414:Generated_Source\PSoC6\pdl\cmsis/include/core_cm0plus.h **** #if defined (__VTOR_PRESENT) && (__VTOR_PRESENT == 1U)
 415:Generated_Source\PSoC6\pdl\cmsis/include/core_cm0plus.h **** /* SCB Interrupt Control State Register Definitions */
 416:Generated_Source\PSoC6\pdl\cmsis/include/core_cm0plus.h **** #define SCB_VTOR_TBLOFF_Pos                 8U                                            /*!< SCB 
 417:Generated_Source\PSoC6\pdl\cmsis/include/core_cm0plus.h **** #define SCB_VTOR_TBLOFF_Msk                (0xFFFFFFUL << SCB_VTOR_TBLOFF_Pos)            /*!< SCB 
 418:Generated_Source\PSoC6\pdl\cmsis/include/core_cm0plus.h **** #endif
 419:Generated_Source\PSoC6\pdl\cmsis/include/core_cm0plus.h **** 
 420:Generated_Source\PSoC6\pdl\cmsis/include/core_cm0plus.h **** /* SCB Application Interrupt and Reset Control Register Definitions */
 421:Generated_Source\PSoC6\pdl\cmsis/include/core_cm0plus.h **** #define SCB_AIRCR_VECTKEY_Pos              16U                                            /*!< SCB 
 422:Generated_Source\PSoC6\pdl\cmsis/include/core_cm0plus.h **** #define SCB_AIRCR_VECTKEY_Msk              (0xFFFFUL << SCB_AIRCR_VECTKEY_Pos)            /*!< SCB 
 423:Generated_Source\PSoC6\pdl\cmsis/include/core_cm0plus.h **** 
 424:Generated_Source\PSoC6\pdl\cmsis/include/core_cm0plus.h **** #define SCB_AIRCR_VECTKEYSTAT_Pos          16U                                            /*!< SCB 
 425:Generated_Source\PSoC6\pdl\cmsis/include/core_cm0plus.h **** #define SCB_AIRCR_VECTKEYSTAT_Msk          (0xFFFFUL << SCB_AIRCR_VECTKEYSTAT_Pos)        /*!< SCB 
 426:Generated_Source\PSoC6\pdl\cmsis/include/core_cm0plus.h **** 
 427:Generated_Source\PSoC6\pdl\cmsis/include/core_cm0plus.h **** #define SCB_AIRCR_ENDIANESS_Pos            15U                                            /*!< SCB 
 428:Generated_Source\PSoC6\pdl\cmsis/include/core_cm0plus.h **** #define SCB_AIRCR_ENDIANESS_Msk            (1UL << SCB_AIRCR_ENDIANESS_Pos)               /*!< SCB 
 429:Generated_Source\PSoC6\pdl\cmsis/include/core_cm0plus.h **** 
 430:Generated_Source\PSoC6\pdl\cmsis/include/core_cm0plus.h **** #define SCB_AIRCR_SYSRESETREQ_Pos           2U                                            /*!< SCB 
 431:Generated_Source\PSoC6\pdl\cmsis/include/core_cm0plus.h **** #define SCB_AIRCR_SYSRESETREQ_Msk          (1UL << SCB_AIRCR_SYSRESETREQ_Pos)             /*!< SCB 
 432:Generated_Source\PSoC6\pdl\cmsis/include/core_cm0plus.h **** 
 433:Generated_Source\PSoC6\pdl\cmsis/include/core_cm0plus.h **** #define SCB_AIRCR_VECTCLRACTIVE_Pos         1U                                            /*!< SCB 
 434:Generated_Source\PSoC6\pdl\cmsis/include/core_cm0plus.h **** #define SCB_AIRCR_VECTCLRACTIVE_Msk        (1UL << SCB_AIRCR_VECTCLRACTIVE_Pos)           /*!< SCB 
 435:Generated_Source\PSoC6\pdl\cmsis/include/core_cm0plus.h **** 
 436:Generated_Source\PSoC6\pdl\cmsis/include/core_cm0plus.h **** /* SCB System Control Register Definitions */
 437:Generated_Source\PSoC6\pdl\cmsis/include/core_cm0plus.h **** #define SCB_SCR_SEVONPEND_Pos               4U                                            /*!< SCB 
 438:Generated_Source\PSoC6\pdl\cmsis/include/core_cm0plus.h **** #define SCB_SCR_SEVONPEND_Msk              (1UL << SCB_SCR_SEVONPEND_Pos)                 /*!< SCB 
 439:Generated_Source\PSoC6\pdl\cmsis/include/core_cm0plus.h **** 
 440:Generated_Source\PSoC6\pdl\cmsis/include/core_cm0plus.h **** #define SCB_SCR_SLEEPDEEP_Pos               2U                                            /*!< SCB 
 441:Generated_Source\PSoC6\pdl\cmsis/include/core_cm0plus.h **** #define SCB_SCR_SLEEPDEEP_Msk              (1UL << SCB_SCR_SLEEPDEEP_Pos)                 /*!< SCB 
 442:Generated_Source\PSoC6\pdl\cmsis/include/core_cm0plus.h **** 
ARM GAS  C:\Users\salaz\AppData\Local\Temp\cc3G70Xt.s 			page 47


 443:Generated_Source\PSoC6\pdl\cmsis/include/core_cm0plus.h **** #define SCB_SCR_SLEEPONEXIT_Pos             1U                                            /*!< SCB 
 444:Generated_Source\PSoC6\pdl\cmsis/include/core_cm0plus.h **** #define SCB_SCR_SLEEPONEXIT_Msk            (1UL << SCB_SCR_SLEEPONEXIT_Pos)               /*!< SCB 
 445:Generated_Source\PSoC6\pdl\cmsis/include/core_cm0plus.h **** 
 446:Generated_Source\PSoC6\pdl\cmsis/include/core_cm0plus.h **** /* SCB Configuration Control Register Definitions */
 447:Generated_Source\PSoC6\pdl\cmsis/include/core_cm0plus.h **** #define SCB_CCR_STKALIGN_Pos                9U                                            /*!< SCB 
 448:Generated_Source\PSoC6\pdl\cmsis/include/core_cm0plus.h **** #define SCB_CCR_STKALIGN_Msk               (1UL << SCB_CCR_STKALIGN_Pos)                  /*!< SCB 
 449:Generated_Source\PSoC6\pdl\cmsis/include/core_cm0plus.h **** 
 450:Generated_Source\PSoC6\pdl\cmsis/include/core_cm0plus.h **** #define SCB_CCR_UNALIGN_TRP_Pos             3U                                            /*!< SCB 
 451:Generated_Source\PSoC6\pdl\cmsis/include/core_cm0plus.h **** #define SCB_CCR_UNALIGN_TRP_Msk            (1UL << SCB_CCR_UNALIGN_TRP_Pos)               /*!< SCB 
 452:Generated_Source\PSoC6\pdl\cmsis/include/core_cm0plus.h **** 
 453:Generated_Source\PSoC6\pdl\cmsis/include/core_cm0plus.h **** /* SCB System Handler Control and State Register Definitions */
 454:Generated_Source\PSoC6\pdl\cmsis/include/core_cm0plus.h **** #define SCB_SHCSR_SVCALLPENDED_Pos         15U                                            /*!< SCB 
 455:Generated_Source\PSoC6\pdl\cmsis/include/core_cm0plus.h **** #define SCB_SHCSR_SVCALLPENDED_Msk         (1UL << SCB_SHCSR_SVCALLPENDED_Pos)            /*!< SCB 
 456:Generated_Source\PSoC6\pdl\cmsis/include/core_cm0plus.h **** 
 457:Generated_Source\PSoC6\pdl\cmsis/include/core_cm0plus.h **** /*@} end of group CMSIS_SCB */
 458:Generated_Source\PSoC6\pdl\cmsis/include/core_cm0plus.h **** 
 459:Generated_Source\PSoC6\pdl\cmsis/include/core_cm0plus.h **** 
 460:Generated_Source\PSoC6\pdl\cmsis/include/core_cm0plus.h **** /**
 461:Generated_Source\PSoC6\pdl\cmsis/include/core_cm0plus.h ****   \ingroup  CMSIS_core_register
 462:Generated_Source\PSoC6\pdl\cmsis/include/core_cm0plus.h ****   \defgroup CMSIS_SysTick     System Tick Timer (SysTick)
 463:Generated_Source\PSoC6\pdl\cmsis/include/core_cm0plus.h ****   \brief    Type definitions for the System Timer Registers.
 464:Generated_Source\PSoC6\pdl\cmsis/include/core_cm0plus.h ****   @{
 465:Generated_Source\PSoC6\pdl\cmsis/include/core_cm0plus.h ****  */
 466:Generated_Source\PSoC6\pdl\cmsis/include/core_cm0plus.h **** 
 467:Generated_Source\PSoC6\pdl\cmsis/include/core_cm0plus.h **** /**
 468:Generated_Source\PSoC6\pdl\cmsis/include/core_cm0plus.h ****   \brief  Structure type to access the System Timer (SysTick).
 469:Generated_Source\PSoC6\pdl\cmsis/include/core_cm0plus.h ****  */
 470:Generated_Source\PSoC6\pdl\cmsis/include/core_cm0plus.h **** typedef struct
 471:Generated_Source\PSoC6\pdl\cmsis/include/core_cm0plus.h **** {
 472:Generated_Source\PSoC6\pdl\cmsis/include/core_cm0plus.h ****   __IOM uint32_t CTRL;                   /*!< Offset: 0x000 (R/W)  SysTick Control and Status Regis
 473:Generated_Source\PSoC6\pdl\cmsis/include/core_cm0plus.h ****   __IOM uint32_t LOAD;                   /*!< Offset: 0x004 (R/W)  SysTick Reload Value Register */
 474:Generated_Source\PSoC6\pdl\cmsis/include/core_cm0plus.h ****   __IOM uint32_t VAL;                    /*!< Offset: 0x008 (R/W)  SysTick Current Value Register *
 475:Generated_Source\PSoC6\pdl\cmsis/include/core_cm0plus.h ****   __IM  uint32_t CALIB;                  /*!< Offset: 0x00C (R/ )  SysTick Calibration Register */
 476:Generated_Source\PSoC6\pdl\cmsis/include/core_cm0plus.h **** } SysTick_Type;
 477:Generated_Source\PSoC6\pdl\cmsis/include/core_cm0plus.h **** 
 478:Generated_Source\PSoC6\pdl\cmsis/include/core_cm0plus.h **** /* SysTick Control / Status Register Definitions */
 479:Generated_Source\PSoC6\pdl\cmsis/include/core_cm0plus.h **** #define SysTick_CTRL_COUNTFLAG_Pos         16U                                            /*!< SysT
 480:Generated_Source\PSoC6\pdl\cmsis/include/core_cm0plus.h **** #define SysTick_CTRL_COUNTFLAG_Msk         (1UL << SysTick_CTRL_COUNTFLAG_Pos)            /*!< SysT
 481:Generated_Source\PSoC6\pdl\cmsis/include/core_cm0plus.h **** 
